 OPOSBelt

 Timestamp is 5ed456c4 (Mon Jun  1 10:15:48 2020)

 Preferred load address is 0000000180000000

 Start         Length     Name                   Class
 0001:00000000 000000c0H .text$di                CODE
 0001:000000c0 000210b0H .text$mn                CODE
 0001:00021170 00000040H .text$mn$00             CODE
 0001:000211b0 000004b0H .text$x                 CODE
 0001:00021660 00000078H .text$yd                CODE
 0002:00000000 00000618H .idata$5                DATA
 0002:00000618 00000028H .00cfg                  DATA
 0002:00000640 00000008H .CRT$XCA                DATA
 0002:00000648 00000008H .CRT$XCL                DATA
 0002:00000650 00000020H .CRT$XCU                DATA
 0002:00000670 00000008H .CRT$XCZ                DATA
 0002:00000678 00000008H .CRT$XIA                DATA
 0002:00000680 00000020H .CRT$XIC                DATA
 0002:000006a0 00000008H .CRT$XIZ                DATA
 0002:000006a8 00000008H .CRT$XLA                DATA
 0002:000006b0 00000008H .CRT$XLZ                DATA
 0002:000006b8 00000008H .CRT$XPA                DATA
 0002:000006c0 00000010H .CRT$XPX                DATA
 0002:000006d0 00000008H .CRT$XPXA               DATA
 0002:000006d8 00000008H .CRT$XPZ                DATA
 0002:000006e0 00000008H .CRT$XTA                DATA
 0002:000006e8 00000008H .CRT$XTZ                DATA
 0002:000006f0 00000000H .gfids$y                DATA
 0002:000006f0 0000a850H .rdata                  DATA
 0002:0000af40 00000028H .rdata$T                DATA
 0002:0000af68 00000274H .rdata$r                DATA
 0002:0000b1dc 00000404H .rdata$zzzdbg           DATA
 0002:0000b5e0 00000008H .rtc$IAA                DATA
 0002:0000b5e8 00000008H .rtc$IZZ                DATA
 0002:0000b5f0 00000008H .rtc$TAA                DATA
 0002:0000b5f8 00000008H .rtc$TZZ                DATA
 0002:0000b600 00000004H .tls                    DATA
 0002:0000b604 00000004H .tls$                   DATA
 0002:0000b608 00000008H .tls$ZZZ                DATA
 0002:0000b610 00001690H .xdata                  DATA
 0002:0000cca0 00000150H .xdata$x                DATA
 0002:0000cdf0 00000008H ATL$__a                 DATA
 0002:0000cdf8 00000008H ATL$__z                 DATA
 0002:0000ce00 000000a8H .edata                  DATA
 0002:0000cea8 00000078H .idata$2                DATA
 0002:0000cf20 00000018H .idata$3                DATA
 0002:0000cf38 00000618H .idata$4                DATA
 0002:0000d550 00000c2aH .idata$6                DATA
 0003:00000000 00000d78H .data                   DATA
 0003:00000d78 000000c8H .data$r                 DATA
 0003:00000e40 0000140cH .bss                    DATA
 0004:00000000 00001eccH .pdata                  DATA
 0005:00000000 00000094H _RDATA                  DATA
 0006:00000000 00000220H .rsrc$01                DATA
 0006:00000220 000044e0H .rsrc$02                DATA

  Address         Publics by Value              Rva+Base               Lib:Object

 0000:00000000       __guard_fids_count         0000000000000000     <absolute>
 0000:00000000       __x64_code_ranges_to_entry_points 0000000000000000     <absolute>
 0000:00000000       __guard_longjmp_count      0000000000000000     <absolute>
 0000:00000000       __guard_longjmp_table      0000000000000000     <absolute>
 0000:00000000       __hybrid_code_map          0000000000000000     <absolute>
 0000:00000000       __guard_iat_count          0000000000000000     <absolute>
 0000:00000000       __arm64x_redirection_metadata 0000000000000000     <absolute>
 0000:00000000       __guard_eh_cont_count      0000000000000000     <absolute>
 0000:00000000       __arm64x_native_entrypoint 0000000000000000     <absolute>
 0000:00000000       __guard_iat_table          0000000000000000     <absolute>
 0000:00000000       __volatile_metadata        0000000000000000     <absolute>
 0000:00000000       __hybrid_code_map_count    0000000000000000     <absolute>
 0000:00000000       __guard_eh_cont_table      0000000000000000     <absolute>
 0000:00000000       __enclave_config           0000000000000000     <absolute>
 0000:00000000       ___safe_se_handler_count   0000000000000000     <absolute>
 0000:00000000       __AbsoluteZero             0000000000000000     <absolute>
 0000:00000000       ___safe_se_handler_table   0000000000000000     <absolute>
 0000:00000000       __dynamic_value_reloc_table 0000000000000000     <absolute>
 0000:00000000       __guard_fids_table         0000000000000000     <absolute>
 0000:00000000       __hybrid_auxiliary_iat     0000000000000000     <absolute>
 0000:00000100       __guard_flags              0000000000000100     <absolute>
 0000:00000000       __ImageBase                0000000180000000     <linker-defined>
 0001:000000c0       ?DupWide@_CW@@AEAAXXZ      00000001800010c0 f   CWString.obj
 0001:000000e8       ?cw_dup@@YAXPEBDAEAHAEAPEA_W1@Z 00000001800010e8 f   CWString.obj
 0001:000001c8       ?cw_memcpy@@YAHPEA_WPEBDH@Z 00000001800011c8 f   CWString.obj
 0001:00000214       ?cw_strcpy@@YAHPEA_WPEBD@Z 0000000180001214 f   CWString.obj
 0001:00000228       ??0CAtlComModule@ATL@@QEAA@XZ 0000000180001228 f i OposVariant.obj
 0001:000002a8       ??0CAtlWinModule@ATL@@QEAA@XZ 00000001800012a8 f i OposVariant.obj
 0001:00000314       ??0OposDispParms@@QEAA@PEAVOposVariant@@H@Z 0000000180001314 f   OposVariant.obj
 0001:000003bc       ??1OposDispParms@@QEAA@XZ  00000001800013bc f   OposVariant.obj
 0001:000003d4       ??_Estringdispid@CComTypeInfoHolder@ATL@@QEAAPEAXI@Z 00000001800013d4 f i OposVariant.obj
 0001:00000478       ?AtlWinModuleTerm@ATL@@YAJPEAU_ATL_WIN_MODULE70@1@PEAUHINSTANCE__@@@Z 0000000180001478 f i OposVariant.obj
 0001:00000528       ?ChangeBSTR@OposVariant@@QEAAXPEAPEA_WAEAJ@Z 0000000180001528 f   OposVariant.obj
 0001:00000588       ?ChangeLONG@OposVariant@@QEAAXPEAJAEAJ@Z 0000000180001588 f   OposVariant.obj
 0001:000005e4       ?GetLONG@OposVariant@@QEAAJXZ 00000001800015e4 f   OposVariant.obj
 0001:00000608       ?SetBSTR@OposVariant@@QEAAXPEA_WAEAJ@Z 0000000180001608 f   OposVariant.obj
 0001:00000648       ?SetBSTR_Copy@OposVariant@@QEAAXPEA_WAEAJ@Z 0000000180001648 f   OposVariant.obj
 0001:000006b8       ?SetBSTR_InOutPtr@OposVariant@@QEAA_NPEAPEA_WAEAJ@Z 00000001800016b8 f   OposVariant.obj
 0001:00000708       ?SetDispatch_Ptr@OposVariant@@QEAAXPEAUIDispatch@@AEAJ@Z 0000000180001708 f   OposVariant.obj
 0001:00000760       ?SetLONG@OposVariant@@QEAAXJ@Z 0000000180001760 f   OposVariant.obj
 0001:00000790       ?SetLONG_Ptr@OposVariant@@QEAAXPEAJAEAJ@Z 0000000180001790 f   OposVariant.obj
 0001:000007dc       ?SetString@OposVariant@@QEAAXPEB_WAEAJ@Z 00000001800017dc f   OposVariant.obj
 0001:00000840       ?SetVARIANT_BOOL@OposVariant@@QEAAXF@Z 0000000180001840 f   OposVariant.obj
 0001:00000878       ?Term@CAtlComModule@ATL@@QEAAXXZ 0000000180001878 f i OposVariant.obj
 0001:000008e8       ?_AtlInitializeCriticalSectionEx@ATL@@YAHPEAU_RTL_CRITICAL_SECTION@@KK@Z 00000001800018e8 f i OposVariant.obj
 0001:000008f0       ?_AtlRaiseException@ATL@@YAXKK@Z 00000001800018f0 f i OposVariant.obj
 0001:00000900       ?GetWindowProc@?$CWindowImplBaseT@VCWindow@ATL@@V?$CWinTraits@$0FGAAAAAA@$0A@@2@@ATL@@UEAAP6A_JPEAUHWND__@@I_K_J@ZXZ 0000000180001900 f i Belt.obj
 0001:00000908       ?StartWindowProc@?$CWindowImplBaseT@VCWindow@ATL@@V?$CWinTraits@$0FGAAAAAA@$0A@@2@@ATL@@SA_JPEAUHWND__@@I_K_J@Z 0000000180001908 f i Belt.obj
 0001:000009cc       ?OnFinalMessage@?$CWindowImplBaseT@VCWindow@ATL@@V?$CWinTraits@$0FGAAAAAA@$0A@@2@@ATL@@UEAAXPEAUHWND__@@@Z 00000001800019cc f i Belt.obj
 0001:000009cc       _guard_check_icall_nop     00000001800019cc f i LIBCMT:guard_support.obj
 0001:000009cc       ?ObjectMain@CComObjectRootBase@ATL@@SAX_N@Z 00000001800019cc f i Belt.obj
 0001:000009d0       ?GetTypeInfoCount@?$IDispatchImpl@UIOPOSBelt@@$1?IID_IOPOSBelt@@3U_GUID@@B$1?LIBID_OposBelt_CCO@@3U3@B$00$0A@VCComTypeInfoHolder@ATL@@@ATL@@UEAAJPEAI@Z 00000001800019d0 f i Belt.obj
 0001:000009e4       ?GetTypeInfo@?$IDispatchImpl@UIOPOSBelt@@$1?IID_IOPOSBelt@@3U_GUID@@B$1?LIBID_OposBelt_CCO@@3U3@B$00$0A@VCComTypeInfoHolder@ATL@@@ATL@@UEAAJIKPEAPEAUITypeInfo@@@Z 00000001800019e4 f i Belt.obj
 0001:00000a48       ?GetIDsOfNames@?$IDispatchImpl@UIOPOSBelt@@$1?IID_IOPOSBelt@@3U_GUID@@B$1?LIBID_OposBelt_CCO@@3U3@B$00$0A@VCComTypeInfoHolder@ATL@@@ATL@@UEAAJAEBU_GUID@@PEAPEA_WIKPEAJ@Z 0000000180001a48 f i Belt.obj
 0001:00000a54       ?Invoke@?$IDispatchImpl@UIOPOSBelt@@$1?IID_IOPOSBelt@@3U_GUID@@B$1?LIBID_OposBelt_CCO@@3U3@B$00$0A@VCComTypeInfoHolder@ATL@@@ATL@@UEAAJJAEBU_GUID@@KGPEAUtagDISPPARAMS@@PEAUtagVARIANT@@PEAUtagEXCEPINFO@@PEAI@Z 0000000180001a54 f i Belt.obj
 0001:00000ae4       ?CreateControlWindow@?$CComControl@VCOPOSBelt@@V?$CWindowImpl@VCOPOSBelt@@VCWindow@ATL@@V?$CWinTraits@$0FGAAAAAA@$0A@@3@@ATL@@@ATL@@UEAAPEAUHWND__@@PEAU3@AEAUtagRECT@@@Z 0000000180001ae4 f i Belt.obj
 0001:00000b1c       ?ControlQueryInterface@?$CComControl@VCOPOSBelt@@V?$CWindowImpl@VCOPOSBelt@@VCWindow@ATL@@V?$CWinTraits@$0FGAAAAAA@$0A@@3@@ATL@@@ATL@@UEAAJAEBU_GUID@@PEAPEAX@Z 0000000180001b1c f i Belt.obj
 0001:00000b30       ?GetClassID@?$IPersistStreamInitImpl@VCOPOSBelt@@@ATL@@UEAAJPEAU_GUID@@@Z 0000000180001b30 f i Belt.obj
 0001:00000b30       ?GetUserClassID@?$IOleObjectImpl@VCOPOSBelt@@@ATL@@UEAAJPEAU_GUID@@@Z 0000000180001b30 f i Belt.obj
 0001:00000b30       ?GetClassID@?$IPersistStorageImpl@VCOPOSBelt@@@ATL@@UEAAJPEAU_GUID@@@Z 0000000180001b30 f i Belt.obj
 0001:00000b4c       ?IsDirty@?$IPersistStreamInitImpl@VCOPOSBelt@@@ATL@@UEAAJXZ 0000000180001b4c f i Belt.obj
 0001:00000b68       ?Load@?$IPersistStreamInitImpl@VCOPOSBelt@@@ATL@@UEAAJPEAUIStream@@@Z 0000000180001b68 f i Belt.obj
 0001:00000b80       ?Save@?$IPersistStreamInitImpl@VCOPOSBelt@@@ATL@@UEAAJPEAUIStream@@H@Z 0000000180001b80 f i Belt.obj
 0001:00000b98       ?GetSizeMax@?$IPersistStreamInitImpl@VCOPOSBelt@@@ATL@@UEAAJPEAT_ULARGE_INTEGER@@@Z 0000000180001b98 f i Belt.obj
 0001:00000dc4       ?InitNew@?$IPersistStreamInitImpl@VCOPOSBelt@@@ATL@@UEAAJXZ 0000000180001dc4 f i Belt.obj
 0001:00000ddc       ?GetClipboardData@?$IOleObjectImpl@VCOPOSBelt@@@ATL@@UEAAJKPEAPEAUIDataObject@@@Z 0000000180001ddc f i Belt.obj
 0001:00000ddc       ?ContextSensitiveHelp@?$IOleInPlaceActiveObjectImpl@VCOPOSBelt@@@ATL@@UEAAJH@Z 0000000180001ddc f i Belt.obj
 0001:00000ddc       ?SetMoniker@?$IOleObjectImpl@VCOPOSBelt@@@ATL@@UEAAJKPEAUIMoniker@@@Z 0000000180001ddc f i Belt.obj
 0001:00000ddc       ?GetDropTarget@?$IOleInPlaceObjectWindowlessImpl@VCOPOSBelt@@@ATL@@UEAAJPEAPEAUIDropTarget@@@Z 0000000180001ddc f i Belt.obj
 0001:00000ddc       ?GetMoniker@?$IOleObjectImpl@VCOPOSBelt@@@ATL@@UEAAJKKPEAPEAUIMoniker@@@Z 0000000180001ddc f i Belt.obj
 0001:00000ddc       ?Freeze@?$IViewObjectExImpl@VCOPOSBelt@@@ATL@@UEAAJKJPEAXPEAK@Z 0000000180001ddc f i Belt.obj
 0001:00000ddc       ?Unfreeze@?$IViewObjectExImpl@VCOPOSBelt@@@ATL@@UEAAJK@Z 0000000180001ddc f i Belt.obj
 0001:00000ddc       ?EnumFormatEtc@?$IDataObjectImpl@VCOPOSBelt@@@ATL@@UEAAJKPEAPEAUIEnumFORMATETC@@@Z 0000000180001ddc f i Belt.obj
 0001:00000ddc       ?GetDataHere@?$IDataObjectImpl@VCOPOSBelt@@@ATL@@UEAAJPEAUtagFORMATETC@@PEAUtagSTGMEDIUM@@@Z 0000000180001ddc f i Belt.obj
 0001:00000ddc       ?GetCanonicalFormatEtc@?$IDataObjectImpl@VCOPOSBelt@@@ATL@@UEAAJPEAUtagFORMATETC@@0@Z 0000000180001ddc f i Belt.obj
 0001:00000ddc       ?SOOutputCompleteDummy@COPOSBelt@@MEAAJJ@Z 0000000180001ddc f i Belt.obj
 0001:00000ddc       ?SOErrorDummy@COPOSBelt@@MEAAJJJJPEAJ@Z 0000000180001ddc f i Belt.obj
 0001:00000ddc       ?SetData@?$IDataObjectImpl@VCOPOSBelt@@@ATL@@UEAAJPEAUtagFORMATETC@@PEAUtagSTGMEDIUM@@H@Z 0000000180001ddc f i Belt.obj
 0001:00000ddc       ?ReactivateAndUndo@?$IOleInPlaceObjectWindowlessImpl@VCOPOSBelt@@@ATL@@UEAAJXZ 0000000180001ddc f i Belt.obj
 0001:00000ddc       ?InitFromData@?$IOleObjectImpl@VCOPOSBelt@@@ATL@@UEAAJPEAUIDataObject@@HK@Z 0000000180001ddc f i Belt.obj
 0001:00000ddc       ?SetColorScheme@?$IOleObjectImpl@VCOPOSBelt@@@ATL@@UEAAJPEAUtagLOGPALETTE@@@Z 0000000180001ddc f i Belt.obj
 0001:00000ddc       ?SODataDummy@COPOSBelt@@MEAAJJ@Z 0000000180001ddc f i Belt.obj
 0001:00000ddc       ?GetColorSet@?$IViewObjectExImpl@VCOPOSBelt@@@ATL@@UEAAJKJPEAXPEAUtagDVTARGETDEVICE@@PEAUHDC__@@PEAPEAUtagLOGPALETTE@@@Z 0000000180001ddc f i Belt.obj
 0001:00000ddc       ?GetControlInfo@?$IOleControlImpl@VCOPOSBelt@@@ATL@@UEAAJPEAUtagCONTROLINFO@@@Z 0000000180001ddc f i Belt.obj
 0001:00000ddc       ?QueryInterface@CRegObject@ATL@@UEAAJAEBU_GUID@@PEAPEAX@Z 0000000180001ddc f i Belt.obj
 0001:00000ddc       ?OnMnemonic@?$IOleControlImpl@VCOPOSBelt@@@ATL@@UEAAJPEAUtagMSG@@@Z 0000000180001ddc f i Belt.obj
 0001:00000ddc       ?GetRect@?$IViewObjectExImpl@VCOPOSBelt@@@ATL@@UEAAJKPEAU_RECTL@@@Z 0000000180001ddc f i Belt.obj
 0001:00000ddc       ?QueryGetData@?$IDataObjectImpl@VCOPOSBelt@@@ATL@@UEAAJPEAUtagFORMATETC@@@Z 0000000180001ddc f i Belt.obj
 0001:00000ddc       ?ContextSensitiveHelp@?$IOleInPlaceObjectWindowlessImpl@VCOPOSBelt@@@ATL@@UEAAJH@Z 0000000180001ddc f i Belt.obj
 0001:00000de4       ?OnAmbientPropertyChange@?$IOleControlImpl@VCOPOSBelt@@@ATL@@UEAAJJ@Z 0000000180001de4 f i Belt.obj
 0001:00000de4       ?SetHostNames@?$IOleObjectImpl@VCOPOSBelt@@@ATL@@UEAAJPEB_W0@Z 0000000180001de4 f i Belt.obj
 0001:00000de4       ?IsUpToDate@?$IOleObjectImpl@VCOPOSBelt@@@ATL@@UEAAJXZ 0000000180001de4 f i Belt.obj
 0001:00000de4       ?GetObjectDescription@?$CComCoClass@VCOPOSBelt@@$1?CLSID_OPOSBelt@@3U_GUID@@B@ATL@@SAPEB_WXZ 0000000180001de4 f i Belt.obj
 0001:00000de4       ?GetCategoryMap@CComObjectRootBase@ATL@@SAPEBU_ATL_CATMAP_ENTRY@2@XZ 0000000180001de4 f i Belt.obj
 0001:00000de4       ?EnableModeless@?$IOleInPlaceActiveObjectImpl@VCOPOSBelt@@@ATL@@UEAAJH@Z 0000000180001de4 f i Belt.obj
 0001:00000de4       ?SaveCompleted@?$IPersistStorageImpl@VCOPOSBelt@@@ATL@@UEAAJPEAUIStorage@@@Z 0000000180001de4 f i Belt.obj
 0001:00000de4       ?ResizeBorder@?$IOleInPlaceActiveObjectImpl@VCOPOSBelt@@@ATL@@UEAAJPEBUtagRECT@@PEAUIOleInPlaceUIWindow@@H@Z 0000000180001de4 f i Belt.obj
 0001:00000de4       ?OnFrameWindowActivate@?$IOleInPlaceActiveObjectImpl@VCOPOSBelt@@@ATL@@UEAAJH@Z 0000000180001de4 f i Belt.obj
 0001:00000de4       ?Release@CRegObject@ATL@@UEAAKXZ 0000000180001de4 f i Belt.obj
 0001:00000de4       ?HandsOffStorage@?$IPersistStorageImpl@VCOPOSBelt@@@ATL@@UEAAJXZ 0000000180001de4 f i Belt.obj
 0001:00000de4       ?Update@?$IOleObjectImpl@VCOPOSBelt@@@ATL@@UEAAJXZ 0000000180001de4 f i Belt.obj
 0001:00000de8       ?SetClientSite@?$IOleObjectImpl@VCOPOSBelt@@@ATL@@UEAAJPEAUIOleClientSite@@@Z 0000000180001de8 f i Belt.obj
 0001:00000e04       ?GetClientSite@?$IOleObjectImpl@VCOPOSBelt@@@ATL@@UEAAJPEAPEAUIOleClientSite@@@Z 0000000180001e04 f i Belt.obj
 0001:00000e4c       ?Close@?$IOleObjectImpl@VCOPOSBelt@@@ATL@@UEAAJK@Z 0000000180001e4c f i Belt.obj
 0001:00000e68       ?DoVerb@?$IOleObjectImpl@VCOPOSBelt@@@ATL@@UEAAJJPEAUtagMSG@@PEAUIOleClientSite@@JPEAUHWND__@@PEBUtagRECT@@@Z 0000000180001e68 f i Belt.obj
 0001:0000100c       ?EnumVerbs@?$IOleObjectImpl@VCOPOSBelt@@@ATL@@UEAAJPEAPEAUIEnumOLEVERB@@@Z 000000018000200c f i Belt.obj
 0001:00001028       ?GetUserType@?$IOleObjectImpl@VCOPOSBelt@@@ATL@@UEAAJKPEAPEA_W@Z 0000000180002028 f i Belt.obj
 0001:00001038       ?SetExtent@?$IOleObjectImpl@VCOPOSBelt@@@ATL@@UEAAJKPEAUtagSIZE@@@Z 0000000180002038 f i Belt.obj
 0001:00001054       ?GetExtent@?$IOleObjectImpl@VCOPOSBelt@@@ATL@@UEAAJKPEAUtagSIZE@@@Z 0000000180002054 f i Belt.obj
 0001:00001084       ?Advise@?$IOleObjectImpl@VCOPOSBelt@@@ATL@@UEAAJPEAUIAdviseSink@@PEAK@Z 0000000180002084 f i Belt.obj
 0001:000010e0       ?Unadvise@?$IOleObjectImpl@VCOPOSBelt@@@ATL@@UEAAJK@Z 00000001800020e0 f i Belt.obj
 0001:00001118       ?EnumAdvise@?$IOleObjectImpl@VCOPOSBelt@@@ATL@@UEAAJPEAPEAUIEnumSTATDATA@@@Z 0000000180002118 f i Belt.obj
 0001:00001160       ?GetMiscStatus@?$IOleObjectImpl@VCOPOSBelt@@@ATL@@UEAAJKPEAK@Z 0000000180002160 f i Belt.obj
 0001:00001170       ?GetWindow@?$IOleInPlaceActiveObjectImpl@VCOPOSBelt@@@ATL@@UEAAJPEAPEAUHWND__@@@Z 0000000180002170 f i Belt.obj
 0001:000011c4       ?TranslateAcceleratorW@?$IOleInPlaceActiveObjectImpl@VCOPOSBelt@@@ATL@@UEAAJPEAUtagMSG@@@Z 00000001800021c4 f i Belt.obj
 0001:000012b8       ?OnDocWindowActivate@?$IOleInPlaceActiveObjectImpl@VCOPOSBelt@@@ATL@@UEAAJH@Z 00000001800022b8 f i Belt.obj
 0001:000012e4       ?Draw@?$IViewObjectExImpl@VCOPOSBelt@@@ATL@@UEAAJKJPEAXPEAUtagDVTARGETDEVICE@@PEAUHDC__@@2PEBU_RECTL@@3P6AH_K@Z4@Z 00000001800022e4 f i Belt.obj
 0001:00001348       ?SetAdvise@?$IViewObjectExImpl@VCOPOSBelt@@@ATL@@UEAAJKKPEAUIAdviseSink@@@Z 0000000180002348 f i Belt.obj
 0001:0000139c       ?GetAdvise@?$IViewObjectExImpl@VCOPOSBelt@@@ATL@@UEAAJPEAK0PEAPEAUIAdviseSink@@@Z 000000018000239c f i Belt.obj
 0001:000013d8       ?GetExtent@?$IViewObjectExImpl@VCOPOSBelt@@@ATL@@UEAAJKJPEAUtagDVTARGETDEVICE@@PEAUtagSIZE@@@Z 00000001800023d8 f i Belt.obj
 0001:00001408       ?GetViewStatus@?$IViewObjectExImpl@VCOPOSBelt@@@ATL@@UEAAJPEAK@Z 0000000180002408 f i Belt.obj
 0001:0000141c       ?QueryHitPoint@?$IViewObjectExImpl@VCOPOSBelt@@@ATL@@UEAAJKPEBUtagRECT@@UtagPOINT@@JPEAK@Z 000000018000241c f i Belt.obj
 0001:00001460       ?QueryHitRect@?$IViewObjectExImpl@VCOPOSBelt@@@ATL@@UEAAJKPEBUtagRECT@@0JPEAK@Z 0000000180002460 f i Belt.obj
 0001:000014c8       ?GetNaturalExtent@?$IViewObjectExImpl@VCOPOSBelt@@@ATL@@UEAAJKJPEAUtagDVTARGETDEVICE@@PEAUHDC__@@PEAUtagExtentInfo@@PEAUtagSIZE@@@Z 00000001800024c8 f i Belt.obj
 0001:00001510       ?GetWindow@?$IOleInPlaceObjectWindowlessImpl@VCOPOSBelt@@@ATL@@UEAAJPEAPEAUHWND__@@@Z 0000000180002510 f i Belt.obj
 0001:00001564       ?InPlaceDeactivate@?$IOleInPlaceObjectWindowlessImpl@VCOPOSBelt@@@ATL@@UEAAJXZ 0000000180002564 f i Belt.obj
 0001:00001580       ?UIDeactivate@?$IOleInPlaceObjectWindowlessImpl@VCOPOSBelt@@@ATL@@UEAAJXZ 0000000180002580 f i Belt.obj
 0001:0000159c       ?SetObjectRects@?$IOleInPlaceObjectWindowlessImpl@VCOPOSBelt@@@ATL@@UEAAJPEBUtagRECT@@0@Z 000000018000259c f i Belt.obj
 0001:000015b8       ?OnWindowMessage@?$IOleInPlaceObjectWindowlessImpl@VCOPOSBelt@@@ATL@@UEAAJI_K_JPEA_J@Z 00000001800025b8 f i Belt.obj
 0001:00001680       ?EnumConnectionPoints@?$IConnectionPointContainerImpl@VCOPOSBelt@@@ATL@@UEAAJPEAPEAUIEnumConnectionPoints@@@Z 0000000180002680 f i Belt.obj
 0001:000018cc       ?FindConnectionPoint@?$IConnectionPointContainerImpl@VCOPOSBelt@@@ATL@@UEAAJAEBU_GUID@@PEAPEAUIConnectionPoint@@@Z 00000001800028cc f i Belt.obj
 0001:0000199c       ?IsDirty@?$IPersistStorageImpl@VCOPOSBelt@@@ATL@@UEAAJXZ 000000018000299c f i Belt.obj
 0001:000019dc       ?InitNew@?$IPersistStorageImpl@VCOPOSBelt@@@ATL@@UEAAJPEAUIStorage@@@Z 00000001800029dc f i Belt.obj
 0001:00001a1c       ?Load@?$IPersistStorageImpl@VCOPOSBelt@@@ATL@@UEAAJPEAUIStorage@@@Z 0000000180002a1c f i Belt.obj
 0001:00001abc       ?Save@?$IPersistStorageImpl@VCOPOSBelt@@@ATL@@UEAAJPEAUIStorage@@H@Z 0000000180002abc f i Belt.obj
 0001:00001b6c       ?GetPages@?$ISpecifyPropertyPagesImpl@VCOPOSBelt@@@ATL@@UEAAJPEAUtagCAUUID@@@Z 0000000180002b6c f i Belt.obj
 0001:00001b78       ?QuickActivate@?$IQuickActivateImpl@VCOPOSBelt@@@ATL@@UEAAJPEAUtagQACONTAINER@@PEAUtagQACONTROL@@@Z 0000000180002b78 f i Belt.obj
 0001:00001b94       ?SetContentExtent@?$IQuickActivateImpl@VCOPOSBelt@@@ATL@@UEAAJPEAUtagSIZE@@@Z 0000000180002b94 f i Belt.obj
 0001:00001bc8       ?GetContentExtent@?$IQuickActivateImpl@VCOPOSBelt@@@ATL@@UEAAJPEAUtagSIZE@@@Z 0000000180002bc8 f i Belt.obj
 0001:00001c00       ?GetData@?$IDataObjectImpl@VCOPOSBelt@@@ATL@@UEAAJPEAUtagFORMATETC@@PEAUtagSTGMEDIUM@@@Z 0000000180002c00 f i Belt.obj
 0001:00001c1c       ?DAdvise@?$IDataObjectImpl@VCOPOSBelt@@@ATL@@UEAAJPEAUtagFORMATETC@@KPEAUIAdviseSink@@PEAK@Z 0000000180002c1c f i Belt.obj
 0001:00001ca4       ?DUnadvise@?$IDataObjectImpl@VCOPOSBelt@@@ATL@@UEAAJK@Z 0000000180002ca4 f i Belt.obj
 0001:00001cd0       ?EnumDAdvise@?$IDataObjectImpl@VCOPOSBelt@@@ATL@@UEAAJPEAPEAUIEnumSTATDATA@@@Z 0000000180002cd0 f i Belt.obj
 0001:00001d0c       ?GetClassInfoW@?$IProvideClassInfo2Impl@$1?CLSID_OPOSBelt@@3U_GUID@@B$1?DIID__IOPOSBeltEvents@@3U2@B$1?LIBID_OposBelt_CCO@@3U2@B$00$0A@VCComTypeInfoHolder@ATL@@@ATL@@UEAAJPEAPEAUITypeInfo@@@Z 0000000180002d0c f i Belt.obj
 0001:00001d64       ?GetGUID@?$IProvideClassInfo2Impl@$1?CLSID_OPOSBelt@@3U_GUID@@B$1?DIID__IOPOSBeltEvents@@3U2@B$1?LIBID_OposBelt_CCO@@3U2@B$00$0A@VCComTypeInfoHolder@ATL@@@ATL@@UEAAJKPEAU_GUID@@@Z 0000000180002d64 f i Belt.obj
 0001:00001d98       _get_startup_argv_mode     0000000180002d98 f i LIBCMT:argv_mode.obj
 0001:00001d98       ?AddRef@CRegObject@ATL@@UEAAKXZ 0000000180002d98 f i Belt.obj
 0001:00001d98       ?FAccessAllowed@?$IObjectSafetyImpl@VCOPOSBelt@@$02@ATL@@MEAAHXZ 0000000180002d98 f i Belt.obj
 0001:00001da0       ?GetInterfaceSafetyOptions@?$IObjectSafetyImpl@VCOPOSBelt@@$02@ATL@@UEAAJAEBU_GUID@@PEAK1@Z 0000000180002da0 f i Belt.obj
 0001:00001e34       ?SetInterfaceSafetyOptions@?$IObjectSafetyImpl@VCOPOSBelt@@$02@ATL@@UEAAJAEBU_GUID@@KK@Z 0000000180002e34 f i Belt.obj
 0001:00001ed8       ?_LocCPQueryInterface@?$IConnectionPointImpl@VCOPOSBelt@@$1?DIID__IOPOSBeltEvents@@3U_GUID@@BVCComDynamicUnkArray@ATL@@@ATL@@UEAAJAEBU_GUID@@PEAPEAX@Z 0000000180002ed8 f i Belt.obj
 0001:00001ed8       ?_LocCPQueryInterface@?$IConnectionPointImpl@VCOPOSBelt@@$1?IID_IPropertyNotifySink@@3U_GUID@@BVCComDynamicUnkArray@ATL@@@ATL@@UEAAJAEBU_GUID@@PEAPEAX@Z 0000000180002ed8 f i Belt.obj
 0001:00001f48       ?GetConnectionInterface@?$IConnectionPointImpl@VCOPOSBelt@@$1?IID_IPropertyNotifySink@@3U_GUID@@BVCComDynamicUnkArray@ATL@@@ATL@@UEAAJPEAU_GUID@@@Z 0000000180002f48 f i Belt.obj
 0001:00001f64       ?GetConnectionPointContainer@?$IConnectionPointImpl@VCOPOSBelt@@$1?IID_IPropertyNotifySink@@3U_GUID@@BVCComDynamicUnkArray@ATL@@@ATL@@UEAAJPEAPEAUIConnectionPointContainer@@@Z 0000000180002f64 f i Belt.obj
 0001:00001f84       ?Advise@?$IConnectionPointImpl@VCOPOSBelt@@$1?DIID__IOPOSBeltEvents@@3U_GUID@@BVCComDynamicUnkArray@ATL@@@ATL@@UEAAJPEAUIUnknown@@PEAK@Z 0000000180002f84 f i Belt.obj
 0001:00001f84       ?Advise@?$IConnectionPointImpl@VCOPOSBelt@@$1?IID_IPropertyNotifySink@@3U_GUID@@BVCComDynamicUnkArray@ATL@@@ATL@@UEAAJPEAUIUnknown@@PEAK@Z 0000000180002f84 f i Belt.obj
 0001:00002040       ?Unadvise@?$IConnectionPointImpl@VCOPOSBelt@@$1?IID_IPropertyNotifySink@@3U_GUID@@BVCComDynamicUnkArray@ATL@@@ATL@@UEAAJK@Z 0000000180003040 f i Belt.obj
 0001:00002040       ?Unadvise@?$IConnectionPointImpl@VCOPOSBelt@@$1?DIID__IOPOSBeltEvents@@3U_GUID@@BVCComDynamicUnkArray@ATL@@@ATL@@UEAAJK@Z 0000000180003040 f i Belt.obj
 0001:000020a8       ?EnumConnections@?$IConnectionPointImpl@VCOPOSBelt@@$1?IID_IPropertyNotifySink@@3U_GUID@@BVCComDynamicUnkArray@ATL@@@ATL@@UEAAJPEAPEAUIEnumConnections@@@Z 00000001800030a8 f i Belt.obj
 0001:000020a8       ?EnumConnections@?$IConnectionPointImpl@VCOPOSBelt@@$1?DIID__IOPOSBeltEvents@@3U_GUID@@BVCComDynamicUnkArray@ATL@@@ATL@@UEAAJPEAPEAUIEnumConnections@@@Z 00000001800030a8 f i Belt.obj
 0001:00002254       ?GetConnectionInterface@?$IConnectionPointImpl@VCOPOSBelt@@$1?DIID__IOPOSBeltEvents@@3U_GUID@@BVCComDynamicUnkArray@ATL@@@ATL@@UEAAJPEAU_GUID@@@Z 0000000180003254 f i Belt.obj
 0001:00002270       ?GetConnectionPointContainer@?$IConnectionPointImpl@VCOPOSBelt@@$1?DIID__IOPOSBeltEvents@@3U_GUID@@BVCComDynamicUnkArray@ATL@@@ATL@@UEAAJPEAPEAUIConnectionPointContainer@@@Z 0000000180003270 f i Belt.obj
 0001:00002290       ?UpdateRegistry@COPOSBelt@@SAJH@Z 0000000180003290 f i Belt.obj
 0001:000022a8       ?ProcessWindowMessage@COPOSBelt@@UEAAHPEAUHWND__@@I_K_JAEA_JK@Z 00000001800032a8 f i Belt.obj
 0001:00002330       ?SODirectIO@COPOSBelt@@MEAAJJPEAJPEAPEA_W@Z 0000000180003330 f i Belt.obj
 0001:000023a8       ?SOStatusUpdate@COPOSBelt@@MEAAJJ@Z 00000001800033a8 f i Belt.obj
 0001:000023f8       ?Lock@CAtlModule@ATL@@UEAAJXZ 00000001800033f8 f i Belt.obj
 0001:00002408       ?Unlock@CAtlModule@ATL@@UEAAJXZ 0000000180003408 f i Belt.obj
 0001:00002414       ?GetLockCount@CAtlModule@ATL@@UEAAJXZ 0000000180003414 f i Belt.obj
 0001:00002418       ?GetGITPtr@CAtlModule@ATL@@UEAAJPEAPEAUIGlobalInterfaceTable@@@Z 0000000180003418 f i Belt.obj
 0001:00002488       ?CreateInstance@?$CComCreator@V?$CComObjectCached@VCComClassFactory@ATL@@@ATL@@@ATL@@SAJPEAXAEBU_GUID@@PEAPEAX@Z 0000000180003488 f i Belt.obj
 0001:000025ac       ?CreateInstance@?$CComCreator2@V?$CComCreator@V?$CComObject@VCOPOSBelt@@@ATL@@@ATL@@V?$CComCreator@V?$CComAggObject@VCOPOSBelt@@@ATL@@@2@@ATL@@SAJPEAXAEBU_GUID@@PEAPEAX@Z 00000001800035ac f i Belt.obj
 0001:000025bc       ?AddRef@?$CComObjectCached@VCComClassFactory@ATL@@@ATL@@UEAAKXZ 00000001800035bc f i Belt.obj
 0001:000025e8       ?Release@?$CComObjectCached@VCComClassFactory@ATL@@@ATL@@UEAAKXZ 00000001800035e8 f i Belt.obj
 0001:00002628       ?QueryInterface@?$CComObjectCached@VCComClassFactory@ATL@@@ATL@@UEAAJAEBU_GUID@@PEAPEAX@Z 0000000180003628 f i Belt.obj
 0001:0000263c       ??_E?$CComObjectCached@VCComClassFactory@ATL@@@ATL@@UEAAPEAXI@Z 000000018000363c f i Belt.obj
 0001:0000263c       ??_G?$CComObjectCached@VCComClassFactory@ATL@@@ATL@@UEAAPEAXI@Z 000000018000363c f i Belt.obj
 0001:00002694       ?AddCommonRGSReplacements@?$CAtlModuleT@VCComModule@ATL@@@ATL@@UEAAJPEAUIRegistrarBase@@@Z 0000000180003694 f i Belt.obj
 0001:000026ac       ?UpdateRegistryFromResourceD@CComModule@ATL@@UEAAJIHPEAU_ATL_REGMAP_ENTRY@2@@Z 00000001800036ac f i Belt.obj
 0001:000026ac       ?UpdateRegistryFromResourceD@CComModule@ATL@@UEAAJPEB_WHPEAU_ATL_REGMAP_ENTRY@2@@Z 00000001800036ac f i Belt.obj
 0001:000026b4       ?UpdateRegistryFromResource@CComModule@ATL@@UEAAJPEB_WHPEAU_ATL_REGMAP_ENTRY@2@@Z 00000001800036b4 f i Belt.obj
 0001:000026bc       ?UpdateRegistryFromResource@CComModule@ATL@@UEAAJIHPEAU_ATL_REGMAP_ENTRY@2@@Z 00000001800036bc f i Belt.obj
 0001:000026c4       ??_GCComModule@ATL@@UEAAPEAXI@Z 00000001800036c4 f i Belt.obj
 0001:000026c4       ??_ECComModule@ATL@@UEAAPEAXI@Z 00000001800036c4 f i Belt.obj
 0001:00002704       ?Next@?$CComEnumImpl@UIEnumConnectionPoints@@$1?_GUID_b196b285_bab4_101a_b69c_00aa00341d07@@3U__s_GUID@@BPEAUIConnectionPoint@@V?$_CopyInterface@UIConnectionPoint@@@ATL@@@ATL@@UEAAJKPEAPEAUIConnectionPoint@@PEAK@Z 0000000180003704 f i Belt.obj
 0001:000027d0       ?Skip@?$CComEnumImpl@UIEnumConnectionPoints@@$1?_GUID_b196b285_bab4_101a_b69c_00aa00341d07@@3U__s_GUID@@BPEAUIConnectionPoint@@V?$_CopyInterface@UIConnectionPoint@@@ATL@@@ATL@@UEAAJK@Z 00000001800037d0 f i Belt.obj
 0001:000027fc       ?Reset@?$CComEnumImpl@UIEnumConnections@@$1?_GUID_b196b287_bab4_101a_b69c_00aa00341d07@@3U__s_GUID@@BUtagCONNECTDATA@@V?$_Copy@UtagCONNECTDATA@@@ATL@@@ATL@@UEAAJXZ 00000001800037fc f i Belt.obj
 0001:000027fc       ?Reset@?$CComEnumImpl@UIEnumConnectionPoints@@$1?_GUID_b196b285_bab4_101a_b69c_00aa00341d07@@3U__s_GUID@@BPEAUIConnectionPoint@@V?$_CopyInterface@UIConnectionPoint@@@ATL@@@ATL@@UEAAJXZ 00000001800037fc f i Belt.obj
 0001:00002808       ?Clone@?$CComEnumImpl@UIEnumConnectionPoints@@$1?_GUID_b196b285_bab4_101a_b69c_00aa00341d07@@3U__s_GUID@@BPEAUIConnectionPoint@@V?$_CopyInterface@UIConnectionPoint@@@ATL@@@ATL@@UEAAJPEAPEAUIEnumConnectionPoints@@@Z 0000000180003808 f i Belt.obj
 0001:00002934       ?AddRef@?$CComObject@V?$CComEnum@UIEnumConnectionPoints@@$1?_GUID_b196b285_bab4_101a_b69c_00aa00341d07@@3U__s_GUID@@BPEAUIConnectionPoint@@V?$_CopyInterface@UIConnectionPoint@@@ATL@@VCComSingleThreadModel@6@@ATL@@@ATL@@UEAAKXZ 0000000180003934 f i Belt.obj
 0001:00002934       ?AddRef@?$CComObject@V?$CComEnum@UIEnumConnections@@$1?_GUID_b196b287_bab4_101a_b69c_00aa00341d07@@3U__s_GUID@@BUtagCONNECTDATA@@V?$_Copy@UtagCONNECTDATA@@@ATL@@VCComSingleThreadModel@6@@ATL@@@ATL@@UEAAKXZ 0000000180003934 f i Belt.obj
 0001:00002940       ?Release@?$CComObject@V?$CComEnum@UIEnumConnectionPoints@@$1?_GUID_b196b285_bab4_101a_b69c_00aa00341d07@@3U__s_GUID@@BPEAUIConnectionPoint@@V?$_CopyInterface@UIConnectionPoint@@@ATL@@VCComSingleThreadModel@6@@ATL@@@ATL@@UEAAKXZ 0000000180003940 f i Belt.obj
 0001:00002940       ?Release@?$CComObject@V?$CComEnum@UIEnumConnections@@$1?_GUID_b196b287_bab4_101a_b69c_00aa00341d07@@3U__s_GUID@@BUtagCONNECTDATA@@V?$_Copy@UtagCONNECTDATA@@@ATL@@VCComSingleThreadModel@6@@ATL@@@ATL@@UEAAKXZ 0000000180003940 f i Belt.obj
 0001:00002994       ?QueryInterface@?$CComObject@V?$CComEnum@UIEnumConnectionPoints@@$1?_GUID_b196b285_bab4_101a_b69c_00aa00341d07@@3U__s_GUID@@BPEAUIConnectionPoint@@V?$_CopyInterface@UIConnectionPoint@@@ATL@@VCComSingleThreadModel@6@@ATL@@@ATL@@UEAAJAEBU_GUID@@PEAPEAX@Z 0000000180003994 f i Belt.obj
 0001:000029a8       ??_E?$CComObject@V?$CComEnum@UIEnumConnectionPoints@@$1?_GUID_b196b285_bab4_101a_b69c_00aa00341d07@@3U__s_GUID@@BPEAUIConnectionPoint@@V?$_CopyInterface@UIConnectionPoint@@@ATL@@VCComSingleThreadModel@6@@ATL@@@ATL@@UEAAPEAXI@Z 00000001800039a8 f i Belt.obj
 0001:000029a8       ??_G?$CComObject@V?$CComEnum@UIEnumConnectionPoints@@$1?_GUID_b196b285_bab4_101a_b69c_00aa00341d07@@3U__s_GUID@@BPEAUIConnectionPoint@@V?$_CopyInterface@UIConnectionPoint@@@ATL@@VCComSingleThreadModel@6@@ATL@@@ATL@@UEAAPEAXI@Z 00000001800039a8 f i Belt.obj
 0001:00002a00       ?AddReplacement@CRegObject@ATL@@UEAAJPEB_W0@Z 0000000180003a00 f i Belt.obj
 0001:00002a30       ?ClearReplacements@CRegObject@ATL@@UEAAJXZ 0000000180003a30 f i Belt.obj
 0001:00002a3c       ??_GCRegObject@ATL@@UEAAPEAXI@Z 0000000180003a3c f i Belt.obj
 0001:00002a3c       ??_ECRegObject@ATL@@UEAAPEAXI@Z 0000000180003a3c f i Belt.obj
 0001:00002abc       ?AddRef@?$CComAggObject@VCOPOSBelt@@@ATL@@UEAAKXZ 0000000180003abc f i Belt.obj
 0001:00002ac8       ?Release@?$CComAggObject@VCOPOSBelt@@@ATL@@UEAAKXZ 0000000180003ac8 f i Belt.obj
 0001:00002b1c       ?QueryInterface@?$CComAggObject@VCOPOSBelt@@@ATL@@UEAAJAEBU_GUID@@PEAPEAX@Z 0000000180003b1c f i Belt.obj
 0001:00002b7c       ?AddRef@?$CComContainedObject@VCOPOSBelt@@@ATL@@UEAAKXZ 0000000180003b7c f i Belt.obj
 0001:00002b8c       ?Release@?$CComContainedObject@VCOPOSBelt@@@ATL@@UEAAKXZ 0000000180003b8c f i Belt.obj
 0001:00002b9c       ?QueryInterface@?$CComContainedObject@VCOPOSBelt@@@ATL@@UEAAJAEBU_GUID@@PEAPEAX@Z 0000000180003b9c f i Belt.obj
 0001:00002bac       ??_G?$CComAggObject@VCOPOSBelt@@@ATL@@UEAAPEAXI@Z 0000000180003bac f i Belt.obj
 0001:00002bac       ??_E?$CComAggObject@VCOPOSBelt@@@ATL@@UEAAPEAXI@Z 0000000180003bac f i Belt.obj
 0001:00002c04       ?AddRef@?$CComObject@VCOPOSBelt@@@ATL@@UEAAKXZ 0000000180003c04 f i Belt.obj
 0001:00002c14       ?Release@?$CComObject@VCOPOSBelt@@@ATL@@UEAAKXZ 0000000180003c14 f i Belt.obj
 0001:00002c6c       ?QueryInterface@?$CComObject@VCOPOSBelt@@@ATL@@UEAAJAEBU_GUID@@PEAPEAX@Z 0000000180003c6c f i Belt.obj
 0001:00002c80       ?OnDrawAdvanced@CComControlBase@ATL@@UEAAJAEAUATL_DRAWINFO@@@Z 0000000180003c80 f i Belt.obj
 0001:00002e0c       ?Next@?$CComEnumImpl@UIEnumConnections@@$1?_GUID_b196b287_bab4_101a_b69c_00aa00341d07@@3U__s_GUID@@BUtagCONNECTDATA@@V?$_Copy@UtagCONNECTDATA@@@ATL@@@ATL@@UEAAJKPEAUtagCONNECTDATA@@PEAK@Z 0000000180003e0c f i Belt.obj
 0001:00002ee0       ?Skip@?$CComEnumImpl@UIEnumConnections@@$1?_GUID_b196b287_bab4_101a_b69c_00aa00341d07@@3U__s_GUID@@BUtagCONNECTDATA@@V?$_Copy@UtagCONNECTDATA@@@ATL@@@ATL@@UEAAJK@Z 0000000180003ee0 f i Belt.obj
 0001:00002f0c       ?Clone@?$CComEnumImpl@UIEnumConnections@@$1?_GUID_b196b287_bab4_101a_b69c_00aa00341d07@@3U__s_GUID@@BUtagCONNECTDATA@@V?$_Copy@UtagCONNECTDATA@@@ATL@@@ATL@@UEAAJPEAPEAUIEnumConnections@@@Z 0000000180003f0c f i Belt.obj
 0001:00003038       ?QueryInterface@?$CComObject@V?$CComEnum@UIEnumConnections@@$1?_GUID_b196b287_bab4_101a_b69c_00aa00341d07@@3U__s_GUID@@BUtagCONNECTDATA@@V?$_Copy@UtagCONNECTDATA@@@ATL@@VCComSingleThreadModel@6@@ATL@@@ATL@@UEAAJAEBU_GUID@@PEAPEAX@Z 0000000180004038 f i Belt.obj
 0001:0000304c       ??_E?$CComObject@V?$CComEnum@UIEnumConnections@@$1?_GUID_b196b287_bab4_101a_b69c_00aa00341d07@@3U__s_GUID@@BUtagCONNECTDATA@@V?$_Copy@UtagCONNECTDATA@@@ATL@@VCComSingleThreadModel@6@@ATL@@@ATL@@UEAAPEAXI@Z 000000018000404c f i Belt.obj
 0001:0000304c       ??_G?$CComObject@V?$CComEnum@UIEnumConnections@@$1?_GUID_b196b287_bab4_101a_b69c_00aa00341d07@@3U__s_GUID@@BUtagCONNECTDATA@@V?$_Copy@UtagCONNECTDATA@@@ATL@@VCComSingleThreadModel@6@@ATL@@@ATL@@UEAAPEAXI@Z 000000018000404c f i Belt.obj
 0001:000030a4       ??_E?$CComObject@VCOPOSBelt@@@ATL@@W7EAAPEAXI@Z 00000001800040a4 f i Belt.obj
 0001:000030b0       ??_E?$CComObject@VCOPOSBelt@@@ATL@@WHA@EAAPEAXI@Z 00000001800040b0 f i Belt.obj
 0001:000030bc       ?QueryInterface@?$CComObject@VCOPOSBelt@@@ATL@@WLI@EAAJAEBU_GUID@@PEAPEAX@Z 00000001800040bc f i Belt.obj
 0001:000030c8       ?AddRef@?$CComObject@VCOPOSBelt@@@ATL@@WLI@EAAKXZ 00000001800040c8 f i Belt.obj
 0001:000030d4       ?Release@?$CComObject@VCOPOSBelt@@@ATL@@WLI@EAAKXZ 00000001800040d4 f i Belt.obj
 0001:000030e0       ?QueryInterface@?$CComObject@VCOPOSBelt@@@ATL@@WMA@EAAJAEBU_GUID@@PEAPEAX@Z 00000001800040e0 f i Belt.obj
 0001:000030ec       ?AddRef@?$CComObject@VCOPOSBelt@@@ATL@@WMA@EAAKXZ 00000001800040ec f i Belt.obj
 0001:000030f8       ?Release@?$CComObject@VCOPOSBelt@@@ATL@@WMA@EAAKXZ 00000001800040f8 f i Belt.obj
 0001:00003104       ?QueryInterface@?$CComObject@VCOPOSBelt@@@ATL@@WMI@EAAJAEBU_GUID@@PEAPEAX@Z 0000000180004104 f i Belt.obj
 0001:00003110       ?AddRef@?$CComObject@VCOPOSBelt@@@ATL@@WMI@EAAKXZ 0000000180004110 f i Belt.obj
 0001:0000311c       ?Release@?$CComObject@VCOPOSBelt@@@ATL@@WMI@EAAKXZ 000000018000411c f i Belt.obj
 0001:00003128       ?QueryInterface@?$CComObject@VCOPOSBelt@@@ATL@@WNA@EAAJAEBU_GUID@@PEAPEAX@Z 0000000180004128 f i Belt.obj
 0001:00003134       ?AddRef@?$CComObject@VCOPOSBelt@@@ATL@@WNA@EAAKXZ 0000000180004134 f i Belt.obj
 0001:00003140       ?Release@?$CComObject@VCOPOSBelt@@@ATL@@WNA@EAAKXZ 0000000180004140 f i Belt.obj
 0001:0000314c       ?QueryInterface@?$CComObject@VCOPOSBelt@@@ATL@@WNI@EAAJAEBU_GUID@@PEAPEAX@Z 000000018000414c f i Belt.obj
 0001:00003158       ?AddRef@?$CComObject@VCOPOSBelt@@@ATL@@WNI@EAAKXZ 0000000180004158 f i Belt.obj
 0001:00003164       ?Release@?$CComObject@VCOPOSBelt@@@ATL@@WNI@EAAKXZ 0000000180004164 f i Belt.obj
 0001:00003170       ?QueryInterface@?$CComObject@VCOPOSBelt@@@ATL@@WOA@EAAJAEBU_GUID@@PEAPEAX@Z 0000000180004170 f i Belt.obj
 0001:0000317c       ?AddRef@?$CComObject@VCOPOSBelt@@@ATL@@WOA@EAAKXZ 000000018000417c f i Belt.obj
 0001:00003188       ?Release@?$CComObject@VCOPOSBelt@@@ATL@@WOA@EAAKXZ 0000000180004188 f i Belt.obj
 0001:00003194       ?QueryInterface@?$CComObject@VCOPOSBelt@@@ATL@@WOI@EAAJAEBU_GUID@@PEAPEAX@Z 0000000180004194 f i Belt.obj
 0001:000031a0       ?AddRef@?$CComObject@VCOPOSBelt@@@ATL@@WOI@EAAKXZ 00000001800041a0 f i Belt.obj
 0001:000031ac       ?Release@?$CComObject@VCOPOSBelt@@@ATL@@WOI@EAAKXZ 00000001800041ac f i Belt.obj
 0001:000031b8       ?QueryInterface@?$CComObject@VCOPOSBelt@@@ATL@@WPA@EAAJAEBU_GUID@@PEAPEAX@Z 00000001800041b8 f i Belt.obj
 0001:000031c4       ?AddRef@?$CComObject@VCOPOSBelt@@@ATL@@WPA@EAAKXZ 00000001800041c4 f i Belt.obj
 0001:000031d0       ?Release@?$CComObject@VCOPOSBelt@@@ATL@@WPA@EAAKXZ 00000001800041d0 f i Belt.obj
 0001:000031dc       ?QueryInterface@?$CComObject@VCOPOSBelt@@@ATL@@WPI@EAAJAEBU_GUID@@PEAPEAX@Z 00000001800041dc f i Belt.obj
 0001:000031e8       ?AddRef@?$CComObject@VCOPOSBelt@@@ATL@@WPI@EAAKXZ 00000001800041e8 f i Belt.obj
 0001:000031f4       ?Release@?$CComObject@VCOPOSBelt@@@ATL@@WPI@EAAKXZ 00000001800041f4 f i Belt.obj
 0001:00003200       ?QueryInterface@?$CComObject@VCOPOSBelt@@@ATL@@WBAA@EAAJAEBU_GUID@@PEAPEAX@Z 0000000180004200 f i Belt.obj
 0001:0000320c       ?AddRef@?$CComObject@VCOPOSBelt@@@ATL@@WBAA@EAAKXZ 000000018000420c f i Belt.obj
 0001:00003218       ?Release@?$CComObject@VCOPOSBelt@@@ATL@@WBAA@EAAKXZ 0000000180004218 f i Belt.obj
 0001:00003224       ?QueryInterface@?$CComObject@VCOPOSBelt@@@ATL@@WBAI@EAAJAEBU_GUID@@PEAPEAX@Z 0000000180004224 f i Belt.obj
 0001:00003230       ?AddRef@?$CComObject@VCOPOSBelt@@@ATL@@WBAI@EAAKXZ 0000000180004230 f i Belt.obj
 0001:0000323c       ?Release@?$CComObject@VCOPOSBelt@@@ATL@@WBAI@EAAKXZ 000000018000423c f i Belt.obj
 0001:00003248       ?QueryInterface@?$CComObject@VCOPOSBelt@@@ATL@@WBBA@EAAJAEBU_GUID@@PEAPEAX@Z 0000000180004248 f i Belt.obj
 0001:00003254       ?AddRef@?$CComObject@VCOPOSBelt@@@ATL@@WBBA@EAAKXZ 0000000180004254 f i Belt.obj
 0001:00003260       ?Release@?$CComObject@VCOPOSBelt@@@ATL@@WBBA@EAAKXZ 0000000180004260 f i Belt.obj
 0001:0000326c       ?QueryInterface@?$CComObject@VCOPOSBelt@@@ATL@@WBBI@EAAJAEBU_GUID@@PEAPEAX@Z 000000018000426c f i Belt.obj
 0001:00003278       ?AddRef@?$CComObject@VCOPOSBelt@@@ATL@@WBBI@EAAKXZ 0000000180004278 f i Belt.obj
 0001:00003284       ?Release@?$CComObject@VCOPOSBelt@@@ATL@@WBBI@EAAKXZ 0000000180004284 f i Belt.obj
 0001:00003290       ?AddRef@?$CComObject@VCOPOSBelt@@@ATL@@WBCI@EAAKXZ 0000000180004290 f i Belt.obj
 0001:0000329c       ?Release@?$CComObject@VCOPOSBelt@@@ATL@@WBCI@EAAKXZ 000000018000429c f i Belt.obj
 0001:000032a8       ?AddRef@?$CComObject@VCOPOSBelt@@@ATL@@WBEA@EAAKXZ 00000001800042a8 f i Belt.obj
 0001:000032b4       ?Release@?$CComObject@VCOPOSBelt@@@ATL@@WBEA@EAAKXZ 00000001800042b4 f i Belt.obj
 0001:000032c0       ??_E?$CComContainedObject@VCOPOSBelt@@@ATL@@W7EAAPEAXI@Z 00000001800042c0 f i Belt.obj
 0001:000032cc       ??_E?$CComContainedObject@VCOPOSBelt@@@ATL@@WHA@EAAPEAXI@Z 00000001800042cc f i Belt.obj
 0001:000032d8       ?QueryInterface@?$CComContainedObject@VCOPOSBelt@@@ATL@@WLI@EAAJAEBU_GUID@@PEAPEAX@Z 00000001800042d8 f i Belt.obj
 0001:000032e4       ?AddRef@?$CComContainedObject@VCOPOSBelt@@@ATL@@WLI@EAAKXZ 00000001800042e4 f i Belt.obj
 0001:000032f0       ?Release@?$CComContainedObject@VCOPOSBelt@@@ATL@@WLI@EAAKXZ 00000001800042f0 f i Belt.obj
 0001:000032fc       ?QueryInterface@?$CComContainedObject@VCOPOSBelt@@@ATL@@WMA@EAAJAEBU_GUID@@PEAPEAX@Z 00000001800042fc f i Belt.obj
 0001:00003308       ?AddRef@?$CComContainedObject@VCOPOSBelt@@@ATL@@WMA@EAAKXZ 0000000180004308 f i Belt.obj
 0001:00003314       ?Release@?$CComContainedObject@VCOPOSBelt@@@ATL@@WMA@EAAKXZ 0000000180004314 f i Belt.obj
 0001:00003320       ?QueryInterface@?$CComContainedObject@VCOPOSBelt@@@ATL@@WMI@EAAJAEBU_GUID@@PEAPEAX@Z 0000000180004320 f i Belt.obj
 0001:0000332c       ?AddRef@?$CComContainedObject@VCOPOSBelt@@@ATL@@WMI@EAAKXZ 000000018000432c f i Belt.obj
 0001:00003338       ?Release@?$CComContainedObject@VCOPOSBelt@@@ATL@@WMI@EAAKXZ 0000000180004338 f i Belt.obj
 0001:00003344       ?QueryInterface@?$CComContainedObject@VCOPOSBelt@@@ATL@@WNA@EAAJAEBU_GUID@@PEAPEAX@Z 0000000180004344 f i Belt.obj
 0001:00003350       ?AddRef@?$CComContainedObject@VCOPOSBelt@@@ATL@@WNA@EAAKXZ 0000000180004350 f i Belt.obj
 0001:0000335c       ?Release@?$CComContainedObject@VCOPOSBelt@@@ATL@@WNA@EAAKXZ 000000018000435c f i Belt.obj
 0001:00003368       ?QueryInterface@?$CComContainedObject@VCOPOSBelt@@@ATL@@WNI@EAAJAEBU_GUID@@PEAPEAX@Z 0000000180004368 f i Belt.obj
 0001:00003374       ?AddRef@?$CComContainedObject@VCOPOSBelt@@@ATL@@WNI@EAAKXZ 0000000180004374 f i Belt.obj
 0001:00003380       ?Release@?$CComContainedObject@VCOPOSBelt@@@ATL@@WNI@EAAKXZ 0000000180004380 f i Belt.obj
 0001:0000338c       ?QueryInterface@?$CComContainedObject@VCOPOSBelt@@@ATL@@WOA@EAAJAEBU_GUID@@PEAPEAX@Z 000000018000438c f i Belt.obj
 0001:00003398       ?AddRef@?$CComContainedObject@VCOPOSBelt@@@ATL@@WOA@EAAKXZ 0000000180004398 f i Belt.obj
 0001:000033a4       ?Release@?$CComContainedObject@VCOPOSBelt@@@ATL@@WOA@EAAKXZ 00000001800043a4 f i Belt.obj
 0001:000033b0       ?QueryInterface@?$CComContainedObject@VCOPOSBelt@@@ATL@@WOI@EAAJAEBU_GUID@@PEAPEAX@Z 00000001800043b0 f i Belt.obj
 0001:000033bc       ?AddRef@?$CComContainedObject@VCOPOSBelt@@@ATL@@WOI@EAAKXZ 00000001800043bc f i Belt.obj
 0001:000033c8       ?Release@?$CComContainedObject@VCOPOSBelt@@@ATL@@WOI@EAAKXZ 00000001800043c8 f i Belt.obj
 0001:000033d4       ?QueryInterface@?$CComContainedObject@VCOPOSBelt@@@ATL@@WPA@EAAJAEBU_GUID@@PEAPEAX@Z 00000001800043d4 f i Belt.obj
 0001:000033e0       ?AddRef@?$CComContainedObject@VCOPOSBelt@@@ATL@@WPA@EAAKXZ 00000001800043e0 f i Belt.obj
 0001:000033ec       ?Release@?$CComContainedObject@VCOPOSBelt@@@ATL@@WPA@EAAKXZ 00000001800043ec f i Belt.obj
 0001:000033f8       ?QueryInterface@?$CComContainedObject@VCOPOSBelt@@@ATL@@WPI@EAAJAEBU_GUID@@PEAPEAX@Z 00000001800043f8 f i Belt.obj
 0001:00003404       ?AddRef@?$CComContainedObject@VCOPOSBelt@@@ATL@@WPI@EAAKXZ 0000000180004404 f i Belt.obj
 0001:00003410       ?Release@?$CComContainedObject@VCOPOSBelt@@@ATL@@WPI@EAAKXZ 0000000180004410 f i Belt.obj
 0001:0000341c       ?QueryInterface@?$CComContainedObject@VCOPOSBelt@@@ATL@@WBAA@EAAJAEBU_GUID@@PEAPEAX@Z 000000018000441c f i Belt.obj
 0001:00003428       ?AddRef@?$CComContainedObject@VCOPOSBelt@@@ATL@@WBAA@EAAKXZ 0000000180004428 f i Belt.obj
 0001:00003434       ?Release@?$CComContainedObject@VCOPOSBelt@@@ATL@@WBAA@EAAKXZ 0000000180004434 f i Belt.obj
 0001:00003440       ?QueryInterface@?$CComContainedObject@VCOPOSBelt@@@ATL@@WBAI@EAAJAEBU_GUID@@PEAPEAX@Z 0000000180004440 f i Belt.obj
 0001:0000344c       ?AddRef@?$CComContainedObject@VCOPOSBelt@@@ATL@@WBAI@EAAKXZ 000000018000444c f i Belt.obj
 0001:00003458       ?Release@?$CComContainedObject@VCOPOSBelt@@@ATL@@WBAI@EAAKXZ 0000000180004458 f i Belt.obj
 0001:00003464       ?QueryInterface@?$CComContainedObject@VCOPOSBelt@@@ATL@@WBBA@EAAJAEBU_GUID@@PEAPEAX@Z 0000000180004464 f i Belt.obj
 0001:00003470       ?AddRef@?$CComContainedObject@VCOPOSBelt@@@ATL@@WBBA@EAAKXZ 0000000180004470 f i Belt.obj
 0001:0000347c       ?Release@?$CComContainedObject@VCOPOSBelt@@@ATL@@WBBA@EAAKXZ 000000018000447c f i Belt.obj
 0001:00003488       ?QueryInterface@?$CComContainedObject@VCOPOSBelt@@@ATL@@WBBI@EAAJAEBU_GUID@@PEAPEAX@Z 0000000180004488 f i Belt.obj
 0001:00003494       ?AddRef@?$CComContainedObject@VCOPOSBelt@@@ATL@@WBBI@EAAKXZ 0000000180004494 f i Belt.obj
 0001:000034a0       ?Release@?$CComContainedObject@VCOPOSBelt@@@ATL@@WBBI@EAAKXZ 00000001800044a0 f i Belt.obj
 0001:000034ac       ?AddRef@?$CComContainedObject@VCOPOSBelt@@@ATL@@WBCI@EAAKXZ 00000001800044ac f i Belt.obj
 0001:000034b8       ?Release@?$CComContainedObject@VCOPOSBelt@@@ATL@@WBCI@EAAKXZ 00000001800044b8 f i Belt.obj
 0001:000034c4       ?AddRef@?$CComContainedObject@VCOPOSBelt@@@ATL@@WBEA@EAAKXZ 00000001800044c4 f i Belt.obj
 0001:000034d0       ?Release@?$CComContainedObject@VCOPOSBelt@@@ATL@@WBEA@EAAKXZ 00000001800044d0 f i Belt.obj
 0001:000034dc       ?CreateInstance@CComClassFactory@ATL@@UEAAJPEAUIUnknown@@AEBU_GUID@@PEAPEAX@Z 00000001800044dc f i Belt.obj
 0001:0000353c       ?LockServer@CComClassFactory@ATL@@UEAAJH@Z 000000018000453c f i Belt.obj
 0001:00003560       ??_ECComClassFactory@ATL@@UEAAPEAXI@Z 0000000180004560 f i Belt.obj
 0001:00003560       ??_GCComClassFactory@ATL@@UEAAPEAXI@Z 0000000180004560 f i Belt.obj
 0001:000035b0       ??$AtlModuleRegisterWndClassInfoT@VAtlModuleRegisterWndClassInfoParamW@ATL@@@ATL@@YAGPEAU_ATL_BASE_MODULE70@0@PEAU_ATL_WIN_MODULE70@0@PEAU_ATL_WNDCLASSINFOW@0@PEAP6A_JPEAUHWND__@@I_K_J@ZVAtlModuleRegisterWndClassInfoParamW@0@@Z 00000001800045b0 f i Belt.obj
 0001:000037b0       ??0?$CComContainedObject@VCOPOSBelt@@@ATL@@QEAA@PEAX@Z 00000001800047b0 f i Belt.obj
 0001:000038cc       ??0?$CComObject@VCOPOSBelt@@@ATL@@QEAA@PEAX@Z 00000001800048cc f i Belt.obj
 0001:000039e4       ??0CAtlModule@ATL@@QEAA@XZ 00000001800049e4 f i Belt.obj
 0001:00003a58       ??1?$CComEnumImpl@UIEnumConnectionPoints@@$1?_GUID_b196b285_bab4_101a_b69c_00aa00341d07@@3U__s_GUID@@BPEAUIConnectionPoint@@V?$_CopyInterface@UIConnectionPoint@@@ATL@@@ATL@@UEAA@XZ 0000000180004a58 f i Belt.obj
 0001:00003ab4       ??1?$CComEnumImpl@UIEnumConnections@@$1?_GUID_b196b287_bab4_101a_b69c_00aa00341d07@@3U__s_GUID@@BUtagCONNECTDATA@@V?$_Copy@UtagCONNECTDATA@@@ATL@@@ATL@@UEAA@XZ 0000000180004ab4 f i Belt.obj
 0001:00003b10       ??1?$CComObject@VCOPOSBelt@@@ATL@@UEAA@XZ 0000000180004b10 f i Belt.obj
 0001:00003c30       ??_G?$CComContainedObject@VCOPOSBelt@@@ATL@@UEAAPEAXI@Z 0000000180004c30 f i Belt.obj
 0001:00003c30       ??_E?$CComContainedObject@VCOPOSBelt@@@ATL@@UEAAPEAXI@Z 0000000180004c30 f i Belt.obj
 0001:00003c64       ??_E?$CComObject@VCOPOSBelt@@@ATL@@UEAAPEAXI@Z 0000000180004c64 f i Belt.obj
 0001:00003c64       ??_G?$CComObject@VCOPOSBelt@@@ATL@@UEAAPEAXI@Z 0000000180004c64 f i Belt.obj
 0001:00003c98       ?Add@?$CSimpleArray@GV?$CSimpleArrayEqualHelper@G@ATL@@@ATL@@QEAAHAEBG@Z 0000000180004c98 f i Belt.obj
 0001:00003d4c       ?Add@?$CSimpleMap@PEA_WPEA_WVCExpansionVectorEqualHelper@ATL@@@ATL@@QEAAHAEBQEA_W0@Z 0000000180004d4c f i Belt.obj
 0001:00003dec       ?Add@CComDynamicUnkArray@ATL@@QEAAKPEAUIUnknown@@@Z 0000000180004dec f i Belt.obj
 0001:00003ed8       ?Add@CExpansionVector@ATL@@QEAAHPEB_W0@Z 0000000180004ed8 f i Belt.obj
 0001:0000400c       ?AddTermFunc@CAtlModule@ATL@@QEAAJP6AX_K@Z0@Z 000000018000500c f i Belt.obj
 0001:000040a8       ?AddValue@CRegParser@ATL@@IEAAJAEAVCRegKey@2@PEB_WPEA_W@Z 00000001800050a8 f i Belt.obj
 0001:000044f0       ?AllocateHeap@?$CTempBuffer@E$0BAA@VCCRTAllocator@ATL@@@ATL@@AEAAX_K@Z 00000001800054f0 f i Belt.obj
 0001:000044f0       ?AllocateHeap@?$CTempBuffer@_W$0EAA@VCCRTAllocator@ATL@@@ATL@@AEAAX_K@Z 00000001800054f0 f i Belt.obj
 0001:000044f0       ?AllocateHeap@?$CTempBuffer@_W$0BAA@VCCRTAllocator@ATL@@@ATL@@AEAAX_K@Z 00000001800054f0 f i Belt.obj
 0001:0000451c       ?Append@CParseBuffer@CRegParser@ATL@@QEAAHPEB_WH@Z 000000018000551c f i Belt.obj
 0001:00004664       ?AtlComModuleGetClassObject@ATL@@YAJPEAU_ATL_COM_MODULE70@1@AEBU_GUID@@1PEAPEAX@Z 0000000180005664 f i Belt.obj
 0001:000047a4       ?AtlComModuleRegisterServer@ATL@@YAJPEAU_ATL_COM_MODULE70@1@HPEBU_GUID@@@Z 00000001800057a4 f i Belt.obj
 0001:00004864       ?AtlComModuleUnregisterServer@ATL@@YAJPEAU_ATL_COM_MODULE70@1@HPEBU_GUID@@@Z 0000000180005864 f i Belt.obj
 0001:00004920       ?AtlHiMetricToPixel@ATL@@YAXPEBUtagSIZE@@PEAU2@@Z 0000000180005920 f i Belt.obj
 0001:000049d0       ?AtlHresultFromLastError@ATL@@YAJXZ 00000001800059d0 f i Belt.obj
 0001:000049f0       ?AtlHresultFromWin32@ATL@@YAJK@Z 00000001800059f0 f i Belt.obj
 0001:00004a00       ?AtlInternalOleLoadFromStream@ATL@@YAJPEAUIStream@@AEBU_GUID@@PEAPEAXTClassesAllowedInStream@1@K@Z 0000000180005a00 f i Belt.obj
 0001:00004b44       ?AtlInternalQueryInterface@ATL@@YAJPEAXPEBU_ATL_INTMAP_ENTRY@1@AEBU_GUID@@PEAPEAX@Z 0000000180005b44 f i Belt.obj
 0001:00004c4c       ?AtlLoadTypeLib@ATL@@YAJPEAUHINSTANCE__@@PEB_WPEAPEA_WPEAPEAUITypeLib@@@Z 0000000180005c4c f i Belt.obj
 0001:00004ea8       ?AtlRegisterClassCategoriesHelper@ATL@@YAJAEBU_GUID@@PEBU_ATL_CATMAP_ENTRY@1@H@Z 0000000180005ea8 f i Belt.obj
 0001:0000532c       ?AtlRegisterTypeLib@ATL@@YAJPEAUHINSTANCE__@@PEB_W@Z 000000018000632c f i Belt.obj
 0001:00005528       ?AtlThrowImpl@ATL@@YAXJ@Z  0000000180006528 f i Belt.obj
 0001:0000554c       ?AtlUnRegisterTypeLib@ATL@@YAJPEAUHINSTANCE__@@PEB_W@Z 000000018000654c f i Belt.obj
 0001:00005614       ?AtlWinModuleExtractCreateWndData@ATL@@YAPEAXPEAU_ATL_WIN_MODULE70@1@@Z 0000000180006614 f i Belt.obj
 0001:000056a0       ?Cleanup@CComTypeInfoHolder@ATL@@SAX_K@Z 00000001800066a0 f i Belt.obj
 0001:000056e0       ?ClearReplacements@CExpansionVector@ATL@@QEAAJXZ 00000001800066e0 f i Belt.obj
 0001:0000577c       ?CreateInstance@?$CComCreator@V?$CComAggObject@VCOPOSBelt@@@ATL@@@ATL@@SAJPEAXAEBU_GUID@@PEAPEAX@Z 000000018000677c f i Belt.obj
 0001:00005860       ?CreateInstance@?$CComCreator@V?$CComObject@VCOPOSBelt@@@ATL@@@ATL@@SAJPEAXAEBU_GUID@@PEAPEAX@Z 0000000180006860 f i Belt.obj
 0001:00005914       ?CreateInstance@?$CComObject@V?$CComEnum@UIEnumConnectionPoints@@$1?_GUID_b196b285_bab4_101a_b69c_00aa00341d07@@3U__s_GUID@@BPEAUIConnectionPoint@@V?$_CopyInterface@UIConnectionPoint@@@ATL@@VCComSingleThreadModel@6@@ATL@@@ATL@@SAJPEAPEAV12@@Z 0000000180006914 f i Belt.obj
 0001:000059a4       ?CreateInstance@?$CComObject@V?$CComEnum@UIEnumConnections@@$1?_GUID_b196b287_bab4_101a_b69c_00aa00341d07@@3U__s_GUID@@BUtagCONNECTDATA@@V?$_Copy@UtagCONNECTDATA@@@ATL@@VCComSingleThreadModel@6@@ATL@@@ATL@@SAJPEAPEAV12@@Z 00000001800069a4 f i Belt.obj
 0001:00005a34       ?DefaultReflectionHandler@?$CWindowImplRoot@VCWindow@ATL@@@ATL@@SAHPEAUHWND__@@I_K_JAEA_J@Z 0000000180006a34 f i Belt.obj
 0001:00005a98       ?DeleteSubKey@CRegKey@ATL@@QEAAJPEB_W@Z 0000000180006a98 f i Belt.obj
 0001:00005b30       ?DoEvent@COPOSBelt@@IEAAXI_K_J@Z 0000000180006b30 f i Belt.obj
 0001:00005be4       ?DoVerbPrimary@?$IOleObjectImpl@VCOPOSBelt@@@ATL@@QEAAJPEBUtagRECT@@PEAUHWND__@@@Z 0000000180006be4 f i Belt.obj
 0001:00005d10       ?DoVerbProperties@CComControlBase@ATL@@QEAAJPEBUtagRECT@@PEAUHWND__@@@Z 0000000180006d10 f i Belt.obj
 0001:00005f38       ?FireTheEvent@?$CProxy_IOPOSEvents@VCOPOSBelt@@@@IEAAXPEAVOposVariant@@IAEAJPEB_WJ@Z 0000000180006f38 f i Belt.obj
 0001:00006024       ?FireViewChange@CComControlBase@ATL@@QEAAJXZ 0000000180007024 f i Belt.obj
 0001:00006088       ?Fire_DirectIOEvent@?$CProxy_IOPOSEvents@VCOPOSBelt@@@@QEAAXJPEAJPEAPEA_W@Z 0000000180007088 f i Belt.obj
 0001:000061e8       ?Fire_StatusUpdateEvent@?$CProxy_IOPOSEvents@VCOPOSBelt@@@@QEAAXJ@Z 00000001800071e8 f i Belt.obj
 0001:000062d4       ?FreeHeap@?$CTempBuffer@_W$0EAA@VCCRTAllocator@ATL@@@ATL@@AEAAXXZ 00000001800072d4 f i Belt.obj
 0001:000062d4       ?FreeHeap@?$CTempBuffer@_W$0BAA@VCCRTAllocator@ATL@@@ATL@@AEAAXXZ 00000001800072d4 f i Belt.obj
 0001:000062d4       ?FreeHeap@?$CTempBuffer@E$0BAA@VCCRTAllocator@ATL@@@ATL@@AEAAXXZ 00000001800072d4 f i Belt.obj
 0001:000062dc       ?GetAmbientLocaleID@CComControlBase@ATL@@QEAAJAEAK@Z 00000001800072dc f i Belt.obj
 0001:0000639c       ?GetAmbientUserMode@CComControlBase@ATL@@QEAAJAEAH@Z 000000018000739c f i Belt.obj
 0001:0000646c       ?GetClassObject@CComModule@ATL@@QEAAJAEBU_GUID@@0PEAPEAX@Z 000000018000746c f i Belt.obj
 0001:00006560       ?GetConnMap@COPOSBelt@@SAPEBU_ATL_CONNMAP_ENTRY@ATL@@PEAH@Z 0000000180007560 f i Belt.obj
 0001:000065e8       ?GetIDsOfNames@CComTypeInfoHolder@ATL@@QEAAJAEBU_GUID@@PEAPEA_WIKPEAJ@Z 00000001800075e8 f i Belt.obj
 0001:00006760       ?GetPagesHelper@?$ISpecifyPropertyPagesImpl@VCOPOSBelt@@@ATL@@IEAAJPEAUtagCAUUID@@PEBUATL_PROPMAP_ENTRY@2@@Z 0000000180007760 f i Belt.obj
 0001:00006900       ?GetSizeMax@CComVariant@ATL@@QEBAJPEAT_ULARGE_INTEGER@@@Z 0000000180007900 f i Belt.obj
 0001:00006b30       ?GetTI@CComTypeInfoHolder@ATL@@QEAAJK@Z 0000000180007b30 f i Belt.obj
 0001:00006e18       ?GetZoomInfo@CComControlBase@ATL@@QEAAXAEAUATL_DRAWINFO@@@Z 0000000180007e18 f i Belt.obj
 0001:00006ebc       ?HKeyFromString@CRegParser@ATL@@KAPEAUHKEY__@@PEA_W@Z 0000000180007ebc f i Belt.obj
 0001:00006f20       ?IDataObject_GetData@CComControlBase@ATL@@QEAAJPEAUtagFORMATETC@@PEAUtagSTGMEDIUM@@@Z 0000000180007f20 f i Belt.obj
 0001:00007114       ?IOleInPlaceObject_InPlaceDeactivate@CComControlBase@ATL@@QEAAJXZ 0000000180008114 f i Belt.obj
 0001:000071b4       ?IOleInPlaceObject_SetObjectRects@CComControlBase@ATL@@QEAAJPEBUtagRECT@@0@Z 00000001800081b4 f i Belt.obj
 0001:000072a4       ?IOleInPlaceObject_UIDeactivate@CComControlBase@ATL@@QEAAJXZ 00000001800082a4 f i Belt.obj
 0001:000073b0       ?IOleObject_Close@CComControlBase@ATL@@QEAAJK@Z 00000001800083b0 f i Belt.obj
 0001:000074c8       ?IOleObject_SetClientSite@CComControlBase@ATL@@QEAAJPEAUIOleClientSite@@@Z 00000001800084c8 f i Belt.obj
 0001:00007540       ?IOleObject_SetExtent@CComControlBase@ATL@@QEAAJKPEAUtagSIZE@@@Z 0000000180008540 f i Belt.obj
 0001:000075d8       ?IPSI_GetIPersistStreamInit@?$IPersistStorageImpl@VCOPOSBelt@@@ATL@@AEAAPEAUIPersistStreamInit@@XZ 00000001800085d8 f i Belt.obj
 0001:000076c0       ?IPersistStreamInit_Load@?$IPersistStreamInitImpl@VCOPOSBelt@@@ATL@@QEAAJPEAUIStream@@PEBUATL_PROPMAP_ENTRY@2@@Z 00000001800086c0 f i Belt.obj
 0001:000079ec       ?IPersistStreamInit_Save@?$IPersistStreamInitImpl@VCOPOSBelt@@@ATL@@QEAAJPEAUIStream@@HPEBUATL_PROPMAP_ENTRY@2@@Z 00000001800089ec f i Belt.obj
 0001:00007c8c       ?IQuickActivate_QuickActivate@CComControlBase@ATL@@QEAAJPEAUtagQACONTAINER@@PEAUtagQACONTROL@@@Z 0000000180008c8c f i Belt.obj
 0001:00007f50       ?IViewObject_Draw@CComControlBase@ATL@@QEAAJKJPEAXPEAUtagDVTARGETDEVICE@@PEAUHDC__@@2PEBU_RECTL@@3@Z 0000000180008f50 f i Belt.obj
 0001:00008064       ?InPlaceActivate@CComControlBase@ATL@@QEAAJJPEBUtagRECT@@@Z 0000000180009064 f i Belt.obj
 0001:00008398       ?Init@?$CComEnumImpl@UIEnumConnectionPoints@@$1?_GUID_b196b285_bab4_101a_b69c_00aa00341d07@@3U__s_GUID@@BPEAUIConnectionPoint@@V?$_CopyInterface@UIConnectionPoint@@@ATL@@@ATL@@QEAAJPEAPEAUIConnectionPoint@@0PEAUIUnknown@@W4CComEnumFlags@2@@Z 0000000180009398 f i Belt.obj
 0001:000084b8       ?Init@?$CComEnumImpl@UIEnumConnections@@$1?_GUID_b196b287_bab4_101a_b69c_00aa00341d07@@3U__s_GUID@@BUtagCONNECTDATA@@V?$_Copy@UtagCONNECTDATA@@@ATL@@@ATL@@QEAAJPEAUtagCONNECTDATA@@0PEAUIUnknown@@W4CComEnumFlags@2@@Z 00000001800094b8 f i Belt.obj
 0001:000085dc       ?IsEqualObject@?$CComPtrBase@UIOleClientSite@@@ATL@@QEAA_NPEAUIUnknown@@@Z 00000001800095dc f i Belt.obj
 0001:00008668       ?LoadNameCache@CComTypeInfoHolder@ATL@@QEAAJPEAUITypeInfo@@@Z 0000000180009668 f i Belt.obj
 0001:000087e8       ?Lookup@?$CSimpleMap@PEA_WPEA_WVCExpansionVectorEqualHelper@ATL@@@ATL@@QEBAPEA_WAEBQEA_W@Z 00000001800097e8 f i Belt.obj
 0001:00008870       ?NextToken@CRegParser@ATL@@IEAAJPEA_W@Z 0000000180009870 f i Belt.obj
 0001:00008a28       ?OnKillFocus@CComControlBase@ATL@@QEAA_JI_K_JAEAH@Z 0000000180009a28 f i Belt.obj
 0001:00008ac4       ?OnMouseActivate@CComControlBase@ATL@@QEAA_JI_K_JAEAH@Z 0000000180009ac4 f i Belt.obj
 0001:00008b64       ?OnPaint@CComControlBase@ATL@@QEAA_JI_K_JAEAH@Z 0000000180009b64 f i Belt.obj
 0001:00008c50       ?OnSetFocus@CComControlBase@ATL@@QEAA_JI_K_JAEAH@Z 0000000180009c50 f i Belt.obj
 0001:00008d4c       ?PreProcessBuffer@CRegParser@ATL@@QEAAJPEA_WPEAPEA_W@Z 0000000180009d4c f i Belt.obj
 0001:000090d8       ?ProcessWindowMessage@?$CComControl@VCOPOSBelt@@V?$CWindowImpl@VCOPOSBelt@@VCWindow@ATL@@V?$CWinTraits@$0FGAAAAAA@$0A@@3@@ATL@@@ATL@@UEAAHPEAUHWND__@@I_K_JAEA_JK@Z 000000018000a0d8 f i Belt.obj
 0001:000091bc       ?ReadFromStream@CComBSTR@ATL@@QEAAJPEAUIStream@@@Z 000000018000a1bc f i Belt.obj
 0001:0000930c       ?ReadFromStream@CComVariant@ATL@@QEAAJPEAUIStream@@GTClassesAllowedInStream@2@K@Z 000000018000a30c f i Belt.obj
 0001:00009530       ?RecurseDeleteKey@CRegKey@ATL@@QEAAJPEB_W@Z 000000018000a530 f i Belt.obj
 0001:00009688       ?RegCreateKeyExW@CAtlTransactionManager@ATL@@QEAAJPEAUHKEY__@@PEB_WKPEA_WKKQEAU_SECURITY_ATTRIBUTES@@PEAPEAU3@PEAK@Z 000000018000a688 f i Belt.obj
 0001:000097bc       ?RegDeleteKeyW@CAtlTransactionManager@ATL@@QEAAJPEAUHKEY__@@PEB_W@Z 000000018000a7bc f i Belt.obj
 0001:00009848       ?RegOpenKeyExW@CAtlTransactionManager@ATL@@QEAAJPEAUHKEY__@@PEB_WKKPEAPEAU3@@Z 000000018000a848 f i Belt.obj
 0001:00009900       ?RegisterBuffer@CRegParser@ATL@@QEAAJPEA_WH@Z 000000018000a900 f i Belt.obj
 0001:00009a68       ?RegisterFromResource@CRegObject@ATL@@IEAAJPEB_W00H@Z 000000018000aa68 f i Belt.obj
 0001:00009c24       ?RegisterServer@CComModule@ATL@@QEAAJHPEBU_GUID@@@Z 000000018000ac24 f i Belt.obj
 0001:00009ce4       ?RegisterSubkeys@CRegParser@ATL@@IEAAJPEA_WPEAUHKEY__@@HH@Z 000000018000ace4 f i Belt.obj
 0001:0000a550       ?SendOnDataChange@CComControlBase@ATL@@QEAAJK@Z 000000018000b550 f i Belt.obj
 0001:0000a5c0       ?SetControlFocus@CComControlBase@ATL@@QEAAHH@Z 000000018000b5c0 f i Belt.obj
 0001:0000a69c       ?SkipAssignment@CRegParser@ATL@@IEAAJPEA_W@Z 000000018000b69c f i Belt.obj
 0001:0000a740       ?Term@CAtlModule@ATL@@QEAAXXZ 000000018000b740 f i Belt.obj
 0001:0000a7c0       ?Term@CComModule@ATL@@QEAAXXZ 000000018000b7c0 f i Belt.obj
 0001:0000a83c       ?UnregisterServer@CComModule@ATL@@QEAAJHPEBU_GUID@@@Z 000000018000b83c f i Belt.obj
 0001:0000a8ec       ?UpdateRegistryFromResource@CAtlModule@ATL@@QEAAJIHPEAU_ATL_REGMAP_ENTRY@2@@Z 000000018000b8ec f i Belt.obj
 0001:0000abf8       ?UpdateRegistryFromResource@CAtlModule@ATL@@QEAAJPEB_WHPEAU_ATL_REGMAP_ENTRY@2@@Z 000000018000bbf8 f i Belt.obj
 0001:0000af1c       ?VTFromRegType@CRegParser@ATL@@KAHPEB_WAEAG@Z 000000018000bf1c f i Belt.obj
 0001:0000afb8       ?WindowProc@?$CWindowImplBaseT@VCWindow@ATL@@V?$CWinTraits@$0FGAAAAAA@$0A@@2@@ATL@@SA_JPEAUHWND__@@I_K_J@Z 000000018000bfb8 f i Belt.obj
 0001:0000b124       ?WriteToStream@CComVariant@ATL@@QEAAJPEAUIStream@@@Z 000000018000c124 f i Belt.obj
 0001:0000b3a0       ?WriteToStream@CComVariant@ATL@@QEAAJPEAUIStream@@G@Z 000000018000c3a0 f i Belt.obj
 0001:0000b438       ?_AtlVerifyStackAvailable@_ATL_SAFE_ALLOCA_IMPL@ATL@@YA_N_K@Z 000000018000c438 f i Belt.obj
 0001:0000b4bc       ?atlCreate@?$CWindowImpl@VCOPOSBelt@@VCWindow@ATL@@V?$CWinTraits@$0FGAAAAAA@$0A@@3@@ATL@@QEAAPEAUHWND__@@PEAU3@V_U_RECT@2@PEB_WKKV_U_MENUorID@2@PEAX@Z 000000018000c4bc f i Belt.obj
 0001:0000b56c       ?atlCreate@?$CWindowImplBaseT@VCWindow@ATL@@V?$CWinTraits@$0FGAAAAAA@$0A@@2@@ATL@@QEAAPEAUHWND__@@PEAU3@V_U_RECT@2@PEB_WKKV_U_MENUorID@2@GPEAX@Z 000000018000c56c f i Belt.obj
 0001:0000b6dc       ?ocscpy_s@@YA_NPEA_W_KPEB_W@Z 000000018000c6dc f i Belt.obj
 0001:0000b78c       DllCanUnloadNow            000000018000c78c f   Belt.obj
 0001:0000b798       DllGetClassObject          000000018000c798 f   Belt.obj
 0001:0000b7b0       DllMain                    000000018000c7b0 f   Belt.obj
 0001:0000b858       DllRegisterServer          000000018000c858 f   Belt.obj
 0001:0000b86c       DllUnregisterServer        000000018000c86c f   Belt.obj
 0001:0000b880       __local_stdio_printf_options 000000018000c880 f i Belt.obj
 0001:0000b888       swprintf_s                 000000018000c888 f i Belt.obj
 0001:0000b8dc       ??0COPOSBelt@@QEAA@XZ      000000018000c8dc f   BeltImpl.obj
 0001:0000b998       ??1?$IConnectionPointImpl@VCOPOSBelt@@$1?DIID__IOPOSBeltEvents@@3U_GUID@@BVCComDynamicUnkArray@ATL@@@ATL@@QEAA@XZ 000000018000c998 f i BeltImpl.obj
 0001:0000b998       ??1?$IConnectionPointImpl@VCOPOSBelt@@$1?IID_IPropertyNotifySink@@3U_GUID@@BVCComDynamicUnkArray@ATL@@@ATL@@QEAA@XZ 000000018000c998 f i BeltImpl.obj
 0001:0000b9f4       ??1CComControlBase@ATL@@UEAA@XZ 000000018000c9f4 f i BeltImpl.obj
 0001:0000ba70       ??1COPOSBelt@@UEAA@XZ      000000018000ca70 f   BeltImpl.obj
 0001:0000bad4       ?AdjustItemCount@COPOSBelt@@UEAAJJJPEAJ@Z 000000018000cad4 f   BeltImpl.obj
 0001:0000bba0       ?CheckHealth@COPOSBelt@@UEAAJJPEAJ@Z 000000018000cba0 f   BeltImpl.obj
 0001:0000bc1c       ?ClaimDevice@COPOSBelt@@UEAAJJPEAJ@Z 000000018000cc1c f   BeltImpl.obj
 0001:0000bcbc       ?Close@COPOSBelt@@UEAAJPEAJ@Z 000000018000ccbc f   BeltImpl.obj
 0001:0000bd74       ?CompareFirmwareVersion@COPOSBelt@@UEAAJPEA_WPEAJ1@Z 000000018000cd74 f   BeltImpl.obj
 0001:0000be50       ?DirectIO@COPOSBelt@@UEAAJJPEAJPEAPEA_W0@Z 000000018000ce50 f   BeltImpl.obj
 0001:0000bf4c       ?DoInvoke@COPOSBelt@@IEAAJJPEAVOposVariant@@IHPEAJ_N@Z 000000018000cf4c f   BeltImpl.obj
 0001:0000c080       ?EventInit@COPOSBelt@@IEAAJXZ 000000018000d080 f i BeltImpl.obj
 0001:0000c1c8       ?EventUninit@COPOSBelt@@IEAAXXZ 000000018000d1c8 f i BeltImpl.obj
 0001:0000c22c       ?EventWindowProc@COPOSBelt@@IEAA_JI_K_J@Z 000000018000d22c f i BeltImpl.obj
 0001:0000c2f0       ?FinalConstruct@COPOSBelt@@QEAAJXZ 000000018000d2f0 f   BeltImpl.obj
 0001:0000c32c       ?FreezeEvents@COPOSBelt@@MEAAJH@Z 000000018000d32c f   BeltImpl.obj
 0001:0000c3a0       ?GetOposProp@COPOSBelt@@IEAAJJPEAJJ@Z 000000018000d3a0 f   BeltImpl.obj
 0001:0000c4bc       ?GetOposProp@COPOSBelt@@IEAAJJPEAPEA_WJ@Z 000000018000d4bc f   BeltImpl.obj
 0001:0000c5e8       ?MoveBackward@COPOSBelt@@UEAAJJPEAJ@Z 000000018000d5e8 f   BeltImpl.obj
 0001:0000c664       ?MoveForward@COPOSBelt@@UEAAJJPEAJ@Z 000000018000d664 f   BeltImpl.obj
 0001:0000c6e0       ?OnDraw@COPOSBelt@@MEAAJAEAUATL_DRAWINFO@@@Z 000000018000d6e0 f   BeltImpl.obj
 0001:0000c7cc       ?Open@COPOSBelt@@UEAAJPEA_WPEAJ@Z 000000018000d7cc f   BeltImpl.obj
 0001:0000d054       ?ReleaseDevice@COPOSBelt@@UEAAJPEAJ@Z 000000018000e054 f   BeltImpl.obj
 0001:0000d0c0       ?ResetBelt@COPOSBelt@@UEAAJPEAJ@Z 000000018000e0c0 f   BeltImpl.obj
 0001:0000d0e8       ?ResetItemCount@COPOSBelt@@UEAAJJPEAJ@Z 000000018000e0e8 f   BeltImpl.obj
 0001:0000d164       ?ResetStatistics@COPOSBelt@@UEAAJPEA_WPEAJ@Z 000000018000e164 f   BeltImpl.obj
 0001:0000d1ec       ?RetrieveStatistics@COPOSBelt@@UEAAJPEAPEA_WPEAJ@Z 000000018000e1ec f   BeltImpl.obj
 0001:0000d274       ?SOProcessID@COPOSBelt@@UEAAJPEAJ@Z 000000018000e274 f   BeltImpl.obj
 0001:0000d290       ?SetCOFreezeEvents@COPOSBelt@@IEAAXF@Z 000000018000e290 f   BeltImpl.obj
 0001:0000d374       ?SetOposProp@COPOSBelt@@IEAAJJJJ@Z 000000018000e374 f   BeltImpl.obj
 0001:0000d4d4       ?StopBelt@COPOSBelt@@UEAAJPEAJ@Z 000000018000e4d4 f   BeltImpl.obj
 0001:0000d4fc       ?UpdateFirmware@COPOSBelt@@UEAAJPEA_WPEAJ@Z 000000018000e4fc f   BeltImpl.obj
 0001:0000d584       ?UpdateStatistics@COPOSBelt@@UEAAJPEA_WPEAJ@Z 000000018000e584 f   BeltImpl.obj
 0001:0000d60c       ?get_AutoStopBackward@COPOSBelt@@UEAAJPEAF@Z 000000018000e60c f   BeltImpl.obj
 0001:0000d640       ?get_AutoStopBackwardDelayTime@COPOSBelt@@UEAAJPEAJ@Z 000000018000e640 f   BeltImpl.obj
 0001:0000d654       ?get_AutoStopBackwardItemCount@COPOSBelt@@UEAAJPEAJ@Z 000000018000e654 f   BeltImpl.obj
 0001:0000d668       ?get_AutoStopForward@COPOSBelt@@UEAAJPEAF@Z 000000018000e668 f   BeltImpl.obj
 0001:0000d69c       ?get_AutoStopForwardDelayTime@COPOSBelt@@UEAAJPEAJ@Z 000000018000e69c f   BeltImpl.obj
 0001:0000d6b0       ?get_AutoStopForwardItemCount@COPOSBelt@@UEAAJPEAJ@Z 000000018000e6b0 f   BeltImpl.obj
 0001:0000d6c4       ?get_BinaryConversion@COPOSBelt@@UEAAJPEAJ@Z 000000018000e6c4 f   BeltImpl.obj
 0001:0000d6d8       ?get_CapAutoStopBackward@COPOSBelt@@UEAAJPEAF@Z 000000018000e6d8 f   BeltImpl.obj
 0001:0000d70c       ?get_CapAutoStopBackwardItemCount@COPOSBelt@@UEAAJPEAF@Z 000000018000e70c f   BeltImpl.obj
 0001:0000d740       ?get_CapAutoStopForward@COPOSBelt@@UEAAJPEAF@Z 000000018000e740 f   BeltImpl.obj
 0001:0000d774       ?get_CapAutoStopForwardItemCount@COPOSBelt@@UEAAJPEAF@Z 000000018000e774 f   BeltImpl.obj
 0001:0000d7a8       ?get_CapCompareFirmwareVersion@COPOSBelt@@UEAAJPEAF@Z 000000018000e7a8 f   BeltImpl.obj
 0001:0000d7dc       ?get_CapLightBarrierBackward@COPOSBelt@@UEAAJPEAF@Z 000000018000e7dc f   BeltImpl.obj
 0001:0000d810       ?get_CapLightBarrierForward@COPOSBelt@@UEAAJPEAF@Z 000000018000e810 f   BeltImpl.obj
 0001:0000d844       ?get_CapMoveBackward@COPOSBelt@@UEAAJPEAF@Z 000000018000e844 f   BeltImpl.obj
 0001:0000d878       ?get_CapPowerReporting@COPOSBelt@@UEAAJPEAJ@Z 000000018000e878 f   BeltImpl.obj
 0001:0000d88c       ?get_CapSecurityFlapBackward@COPOSBelt@@UEAAJPEAF@Z 000000018000e88c f   BeltImpl.obj
 0001:0000d8c0       ?get_CapSecurityFlapForward@COPOSBelt@@UEAAJPEAF@Z 000000018000e8c0 f   BeltImpl.obj
 0001:0000d8f4       ?get_CapSpeedStepsBackward@COPOSBelt@@UEAAJPEAJ@Z 000000018000e8f4 f   BeltImpl.obj
 0001:0000d908       ?get_CapSpeedStepsForward@COPOSBelt@@UEAAJPEAJ@Z 000000018000e908 f   BeltImpl.obj
 0001:0000d91c       ?get_CapStatisticsReporting@COPOSBelt@@UEAAJPEAF@Z 000000018000e91c f   BeltImpl.obj
 0001:0000d950       ?get_CapUpdateFirmware@COPOSBelt@@UEAAJPEAF@Z 000000018000e950 f   BeltImpl.obj
 0001:0000d984       ?get_CapUpdateStatistics@COPOSBelt@@UEAAJPEAF@Z 000000018000e984 f   BeltImpl.obj
 0001:0000d9b8       ?get_CheckHealthText@COPOSBelt@@UEAAJPEAPEA_W@Z 000000018000e9b8 f   BeltImpl.obj
 0001:0000d9cc       ?get_Claimed@COPOSBelt@@UEAAJPEAF@Z 000000018000e9cc f   BeltImpl.obj
 0001:0000da00       ?get_ControlObjectDescription@COPOSBelt@@UEAAJPEAPEA_W@Z 000000018000ea00 f   BeltImpl.obj
 0001:0000da64       ?get_ControlObjectVersion@COPOSBelt@@UEAAJPEAJ@Z 000000018000ea64 f   BeltImpl.obj
 0001:0000da70       ?get_DeviceDescription@COPOSBelt@@UEAAJPEAPEA_W@Z 000000018000ea70 f   BeltImpl.obj
 0001:0000da84       ?get_DeviceEnabled@COPOSBelt@@UEAAJPEAF@Z 000000018000ea84 f   BeltImpl.obj
 0001:0000dab8       ?get_DeviceName@COPOSBelt@@UEAAJPEAPEA_W@Z 000000018000eab8 f   BeltImpl.obj
 0001:0000dacc       ?get_FreezeEvents@COPOSBelt@@UEAAJPEAF@Z 000000018000eacc f   BeltImpl.obj
 0001:0000dafc       ?get_LightBarrierBackwardInterrupted@COPOSBelt@@UEAAJPEAF@Z 000000018000eafc f   BeltImpl.obj
 0001:0000db30       ?get_LightBarrierForwardInterrupted@COPOSBelt@@UEAAJPEAF@Z 000000018000eb30 f   BeltImpl.obj
 0001:0000db64       ?get_MotionStatus@COPOSBelt@@UEAAJPEAJ@Z 000000018000eb64 f   BeltImpl.obj
 0001:0000db78       ?get_OpenResult@COPOSBelt@@UEAAJPEAJ@Z 000000018000eb78 f   BeltImpl.obj
 0001:0000db84       ?get_PowerNotify@COPOSBelt@@UEAAJPEAJ@Z 000000018000eb84 f   BeltImpl.obj
 0001:0000db98       ?get_PowerState@COPOSBelt@@UEAAJPEAJ@Z 000000018000eb98 f   BeltImpl.obj
 0001:0000dbac       ?get_ResultCode@COPOSBelt@@UEAAJPEAJ@Z 000000018000ebac f   BeltImpl.obj
 0001:0000dbe8       ?get_ResultCodeExtended@COPOSBelt@@UEAAJPEAJ@Z 000000018000ebe8 f   BeltImpl.obj
 0001:0000dbfc       ?get_SecurityFlapBackwardOpened@COPOSBelt@@UEAAJPEAF@Z 000000018000ebfc f   BeltImpl.obj
 0001:0000dc30       ?get_SecurityFlapForwardOpened@COPOSBelt@@UEAAJPEAF@Z 000000018000ec30 f   BeltImpl.obj
 0001:0000dc64       ?get_ServiceObjectDescription@COPOSBelt@@UEAAJPEAPEA_W@Z 000000018000ec64 f   BeltImpl.obj
 0001:0000dc78       ?get_ServiceObjectVersion@COPOSBelt@@UEAAJPEAJ@Z 000000018000ec78 f   BeltImpl.obj
 0001:0000dc8c       ?get_State@COPOSBelt@@UEAAJPEAJ@Z 000000018000ec8c f   BeltImpl.obj
 0001:0000dcb8       ?put_AutoStopBackward@COPOSBelt@@UEAAJF@Z 000000018000ecb8 f   BeltImpl.obj
 0001:0000dcd4       ?put_AutoStopBackwardDelayTime@COPOSBelt@@UEAAJJ@Z 000000018000ecd4 f   BeltImpl.obj
 0001:0000dce8       ?put_AutoStopForward@COPOSBelt@@UEAAJF@Z 000000018000ece8 f   BeltImpl.obj
 0001:0000dd04       ?put_AutoStopForwardDelayTime@COPOSBelt@@UEAAJJ@Z 000000018000ed04 f   BeltImpl.obj
 0001:0000dd18       ?put_BinaryConversion@COPOSBelt@@UEAAJJ@Z 000000018000ed18 f   BeltImpl.obj
 0001:0000dd2c       ?put_DeviceEnabled@COPOSBelt@@UEAAJF@Z 000000018000ed2c f   BeltImpl.obj
 0001:0000dd44       ?put_FreezeEvents@COPOSBelt@@UEAAJF@Z 000000018000ed44 f   BeltImpl.obj
 0001:0000dd94       ?put_PowerNotify@COPOSBelt@@UEAAJJ@Z 000000018000ed94 f   BeltImpl.obj
 0001:0000dda8       ?s_EventWindowProc@COPOSBelt@@KA_JPEAUHWND__@@I_K_J@Z 000000018000eda8 f i BeltImpl.obj
 0001:0000de24       ??_U@YAPEAX_K@Z            000000018000ee24 f   LIBCMT:new_array.obj
 0001:0000de2c       ??3@YAXPEAX_K@Z            000000018000ee2c f   LIBCMT:delete_scalar_size.obj
 0001:0000de2c       ??_V@YAXPEAX@Z             000000018000ee2c f   LIBCMT:delete_array.obj
 0001:0000de34       ??_V@YAXPEAX_K@Z           000000018000ee34 f   LIBCMT:delete_array_size.obj
 0001:0000de3c       __scrt_acquire_startup_lock 000000018000ee3c f   LIBCMT:utility.obj
 0001:0000de78       __scrt_dllmain_after_initialize_c 000000018000ee78 f   LIBCMT:utility.obj
 0001:0000deac       __scrt_dllmain_before_initialize_c 000000018000eeac f   LIBCMT:utility.obj
 0001:0000dec4       __scrt_dllmain_crt_thread_attach 000000018000eec4 f   LIBCMT:utility.obj
 0001:0000deec       __scrt_dllmain_crt_thread_detach 000000018000eeec f   LIBCMT:utility.obj
 0001:0000df04       __scrt_dllmain_exception_filter 000000018000ef04 f   LIBCMT:utility.obj
 0001:0000df64       __scrt_dllmain_uninitialize_c 000000018000ef64 f   LIBCMT:utility.obj
 0001:0000df94       __scrt_dllmain_uninitialize_critical 000000018000ef94 f   LIBCMT:utility.obj
 0001:0000dfa8       __scrt_initialize_crt      000000018000efa8 f   LIBCMT:utility.obj
 0001:0000dff4       __scrt_initialize_onexit_tables 000000018000eff4 f   LIBCMT:utility.obj
 0001:0000e080       __scrt_is_nonwritable_in_current_image 000000018000f080 f   LIBCMT:utility.obj
 0001:0000e118       __scrt_release_startup_lock 000000018000f118 f   LIBCMT:utility.obj
 0001:0000e13c       __scrt_uninitialize_crt    000000018000f13c f   LIBCMT:utility.obj
 0001:0000e168       _onexit                    000000018000f168 f   LIBCMT:utility.obj
 0001:0000e1a4       atexit                     000000018000f1a4 f   LIBCMT:utility.obj
 0001:0000e1bc       ??3@YAXPEAX@Z              000000018000f1bc f   LIBCMT:delete_scalar.obj
 0001:0000e2bc       _Init_thread_footer        000000018000f2bc f   LIBCMT:thread_safe_statics.obj
 0001:0000e31c       _Init_thread_header        000000018000f31c f   LIBCMT:thread_safe_statics.obj
 0001:0000e384       _Init_thread_notify        000000018000f384 f   LIBCMT:thread_safe_statics.obj
 0001:0000e3c8       _Init_thread_wait          000000018000f3c8 f   LIBCMT:thread_safe_statics.obj
 0001:0000e42c       __raise_securityfailure    000000018000f42c f   LIBCMT:gs_report.obj
 0001:0000e460       __report_gsfailure         000000018000f460 f   LIBCMT:gs_report.obj
 0001:0000e534       __report_rangecheckfailure 000000018000f534 f   LIBCMT:gs_report.obj
 0001:0000e548       __report_securityfailure   000000018000f548 f   LIBCMT:gs_report.obj
 0001:0000e6c8       ??2@YAPEAX_KAEBUnothrow_t@std@@@Z 000000018000f6c8 f   LIBCMT:new_scalar_nothrow.obj
 0001:0000e6dc       ??_U@YAPEAX_KAEBUnothrow_t@std@@@Z 000000018000f6dc f   LIBCMT:new_array_nothrow.obj
 0001:0000e6e4       __GSHandlerCheck           000000018000f6e4 f   LIBCMT:gshandler.obj
 0001:0000e704       __GSHandlerCheckCommon     000000018000f704 f   LIBCMT:gshandler.obj
 0001:0000e760       __GSHandlerCheck_SEH       000000018000f760 f   LIBCMT:gshandlerseh.obj
 0001:0000e800       _alloca_probe              000000018000f800 f   LIBCMT:chkstk.obj
 0001:0000e800       __chkstk                   000000018000f800 f   LIBCMT:chkstk.obj
 0001:0000e870       __security_check_cookie    000000018000f870 f   LIBCMT:amdsecgs.obj
 0001:0000ebb4       _DllMainCRTStartup         000000018000fbb4 f   LIBCMT:dll_dllmain.obj
 0001:0000ebf4       ??2@YAPEAX_K@Z             000000018000fbf4 f   LIBCMT:new_scalar.obj
 0001:0000ec30       __isa_available_init       000000018000fc30 f   LIBCMT:cpu_disp.obj
 0001:0000edd4       __scrt_is_ucrt_dll_in_use  000000018000fdd4 f   LIBCMT:ucrt_detection.obj
 0001:0000ede0       __crt_debugger_hook        000000018000fde0 f   LIBCMT:utility_desktop.obj
 0001:0000ede8       __scrt_fastfail            000000018000fde8 f   LIBCMT:utility_desktop.obj
 0001:0000ef34       __security_init_cookie     000000018000ff34 f   LIBCMT:gs_support.obj
 0001:0000efe0       ?__scrt_initialize_type_info@@YAXXZ 000000018000ffe0 f   LIBCMT:tncleanup.obj
 0001:0000eff0       ?__scrt_uninitialize_type_info@@YAXXZ 000000018000fff0 f   LIBCMT:tncleanup.obj
 0001:0000effc       __local_stdio_scanf_options 000000018000fffc f i LIBCMT:default_local_stdio_options.obj
 0001:0000f004       __scrt_initialize_default_local_stdio_options 0000000180010004 f   LIBCMT:default_local_stdio_options.obj
 0001:0000f020       __scrt_get_dyn_tls_init_callback 0000000180010020 f   LIBCMT:dyn_tls_init.obj
 0001:0000f028       _RTC_Initialize            0000000180010028 f   LIBCMT:initsect.obj
 0001:0000f064       _RTC_Terminate             0000000180010064 f   LIBCMT:initsect.obj
 0001:0000f0a0       ??0bad_alloc@std@@QEAA@AEBV01@@Z 00000001800100a0 f i LIBCMT:throw_bad_alloc.obj
 0001:0000f0dc       ??0bad_alloc@std@@QEAA@XZ  00000001800100dc f i LIBCMT:throw_bad_alloc.obj
 0001:0000f0fc       ??0bad_array_new_length@std@@QEAA@AEBV01@@Z 00000001800100fc f i LIBCMT:throw_bad_alloc.obj
 0001:0000f138       ??0bad_array_new_length@std@@QEAA@XZ 0000000180010138 f i LIBCMT:throw_bad_alloc.obj
 0001:0000f158       ??0exception@std@@QEAA@AEBV01@@Z 0000000180010158 f i LIBCMT:throw_bad_alloc.obj
 0001:0000f18c       ??1bad_exception@std@@UEAA@XZ 000000018001018c f i libvcruntime:frame.obj
 0001:0000f18c       ??1bad_array_new_length@std@@UEAA@XZ 000000018001018c f i LIBCMT:throw_bad_alloc.obj
 0001:0000f18c       ??1bad_alloc@std@@UEAA@XZ  000000018001018c f i LIBCMT:throw_bad_alloc.obj
 0001:0000f1a0       ??_Ebad_exception@std@@UEAAPEAXI@Z 00000001800101a0 f i libvcruntime:frame.obj
 0001:0000f1a0       ??_Gexception@std@@UEAAPEAXI@Z 00000001800101a0 f i LIBCMT:throw_bad_alloc.obj
 0001:0000f1a0       ??_Ebad_alloc@std@@UEAAPEAXI@Z 00000001800101a0 f i LIBCMT:throw_bad_alloc.obj
 0001:0000f1a0       ??_Gbad_exception@std@@UEAAPEAXI@Z 00000001800101a0 f i libvcruntime:frame.obj
 0001:0000f1a0       ??_Ebad_array_new_length@std@@UEAAPEAXI@Z 00000001800101a0 f i LIBCMT:throw_bad_alloc.obj
 0001:0000f1a0       ??_Gbad_alloc@std@@UEAAPEAXI@Z 00000001800101a0 f i LIBCMT:throw_bad_alloc.obj
 0001:0000f1a0       ??_Gbad_array_new_length@std@@UEAAPEAXI@Z 00000001800101a0 f i LIBCMT:throw_bad_alloc.obj
 0001:0000f1a0       ??_Eexception@std@@UEAAPEAXI@Z 00000001800101a0 f i LIBCMT:throw_bad_alloc.obj
 0001:0000f1e4       ?__scrt_throw_std_bad_alloc@@YAXXZ 00000001800101e4 f   LIBCMT:throw_bad_alloc.obj
 0001:0000f204       ?__scrt_throw_std_bad_array_new_length@@YAXXZ 0000000180010204 f   LIBCMT:throw_bad_alloc.obj
 0001:0000f224       ?what@exception@std@@UEBAPEBDXZ 0000000180010224 f i LIBCMT:throw_bad_alloc.obj
 0001:0000f240       ??_Gtype_info@@UEAAPEAXI@Z 0000000180010240 f i LIBCMT:std_type_info_static.obj
 0001:0000f240       ??_Etype_info@@UEAAPEAXI@Z 0000000180010240 f i LIBCMT:std_type_info_static.obj
 0001:0000f26c       ??0CAtlBaseModule@ATL@@QEAA@XZ 000000018001026c f   atls:atlbase.obj
 0001:0000f314       ??1CAtlBaseModule@ATL@@QEAA@XZ 0000000180010314 f   atls:atlbase.obj
 0001:0000f448       ?__AllocStdCallThunk_cmn@@YAPEAXXZ 0000000180010448 f   atls:atlthunk.obj
 0001:0000f5a0       AtlThunk_AllocateData      00000001800105a0 f   atls:atlthunk.obj
 0001:0000f61c       AtlThunk_DataToCode        000000018001061c f   atls:atlthunk.obj
 0001:0000f670       AtlThunk_FreeData          0000000180010670 f   atls:atlthunk.obj
 0001:0000f6d0       AtlThunk_InitData          00000001800106d0 f   atls:atlthunk.obj
 0001:0000f778       _get_purecall_handler      0000000180010778 f   libvcruntime:purevirt.obj
 0001:0000f780       _purecall                  0000000180010780 f   libvcruntime:purevirt.obj
 0001:0000f79c       wcsstr                     000000018001079c f   libvcruntime:wcsstr.obj
 0001:0000f9d0       memcmp                     00000001800109d0 f   libvcruntime:memcmp.obj
 0001:0000fab0       memcpy_repmovs             0000000180010ab0 f   libvcruntime:memcpy.obj
 0001:0000fad0       memmove                    0000000180010ad0 f   libvcruntime:memcpy.obj
 0001:0000fad0       memcpy                     0000000180010ad0 f   libvcruntime:memcpy.obj
 0001:0000fec0       memset_repmovs             0000000180010ec0 f   libvcruntime:memset.obj
 0001:0000fee0       memset                     0000000180010ee0 f   libvcruntime:memset.obj
 0001:00010070       __vcrt_initialize          0000000180011070 f   libvcruntime:initialization.obj
 0001:00010098       __vcrt_thread_attach       0000000180011098 f   libvcruntime:initialization.obj
 0001:000100ac       __vcrt_thread_detach       00000001800110ac f   libvcruntime:initialization.obj
 0001:000100c0       __vcrt_uninitialize        00000001800110c0 f   libvcruntime:initialization.obj
 0001:000100dc       __vcrt_uninitialize_critical 00000001800110dc f   libvcruntime:initialization.obj
 0001:000100ec       __C_specific_handler       00000001800110ec f   libvcruntime:riscchandler.obj
 0001:000102f8       ??$_CallSETranslator@V__FrameHandler4@@@@YAHPEAUEHExceptionRecord@@PEA_KPEAU_CONTEXT@@PEAU_xDISPATCHER_CONTEXT@@PEAUFuncInfo4@FH4@@K1H@Z 00000001800112f8 f i libvcruntime:risctrnsctrl.obj
 0001:0001034c       ?DecompFuncInfo@FH4@@YA_JPEAEAEAUFuncInfo4@1@_KH_N@Z 000000018001134c f i libvcruntime:risctrnsctrl.obj
 0001:00010470       ?ExecutionInCatch@__FrameHandler4@@SA_NPEAU_xDISPATCHER_CONTEXT@@PEAUFuncInfo4@FH4@@@Z 0000000180011470 f   libvcruntime:risctrnsctrl.obj
 0001:00010478       ?FrameUnwindToEmptyState@__FrameHandler4@@SAXPEA_KPEAU_xDISPATCHER_CONTEXT@@PEAUFuncInfo4@FH4@@@Z 0000000180011478 f   libvcruntime:risctrnsctrl.obj
 0001:000104ac       ?GetEstablisherFrame@__FrameHandler4@@SAPEA_KPEA_KPEAU_xDISPATCHER_CONTEXT@@PEAUFuncInfo4@FH4@@0@Z 00000001800114ac f   libvcruntime:risctrnsctrl.obj
 0001:000104d0       ?GetRangeOfTrysToCheck@__FrameHandler4@@SA?AU?$pair@Viterator@TryBlockMap4@FH4@@V123@@std@@AEAVTryBlockMap4@FH4@@HPEAU_xDISPATCHER_CONTEXT@@PEAUFuncInfo4@5@H@Z 00000001800114d0 f   libvcruntime:risctrnsctrl.obj
 0001:0001062c       ?UnwindNestedFrames@__FrameHandler4@@SAXPEA_KPEAUEHExceptionRecord@@PEAU_CONTEXT@@0PEAXPEAUFuncInfo4@FH4@@HHPEAUHandlerType4@5@PEAU_xDISPATCHER_CONTEXT@@E@Z 000000018001162c f   libvcruntime:risctrnsctrl.obj
 0001:0001074c       ?setBuffer@TryBlockMap4@FH4@@QEAAXViterator@12@@Z 000000018001174c f i libvcruntime:risctrnsctrl.obj
 0001:00010910       _CreateFrameInfo           0000000180011910 f   libvcruntime:risctrnsctrl.obj
 0001:0001094c       _FindAndUnlinkFrame        000000018001194c f   libvcruntime:risctrnsctrl.obj
 0001:000109a0       _GetImageBase              00000001800119a0 f   libvcruntime:risctrnsctrl.obj
 0001:000109b4       _GetThrowImageBase         00000001800119b4 f   libvcruntime:risctrnsctrl.obj
 0001:000109c8       _SetImageBase              00000001800119c8 f   libvcruntime:risctrnsctrl.obj
 0001:000109e0       _SetThrowImageBase         00000001800119e0 f   libvcruntime:risctrnsctrl.obj
 0001:000109f8       __CxxFrameHandler4         00000001800119f8 f   libvcruntime:risctrnsctrl.obj
 0001:00010ab8       __DestructExceptionObject  0000000180011ab8 f   libvcruntime:ehhelpers.obj
 0001:00010b28       ?_CallMemberFunction0@@YAXQEAX0@Z 0000000180011b28 f i libvcruntime:ehhelpers.obj
 0001:00010b2c       _IsExceptionObjectToBeDestroyed 0000000180011b2c f   libvcruntime:ehhelpers.obj
 0001:00010b5c       __AdjustPointer            0000000180011b5c f   libvcruntime:ehhelpers.obj
 0001:00010b80       __FrameUnwindFilter        0000000180011b80 f   libvcruntime:ehhelpers.obj
 0001:00010be8       __std_type_info_compare    0000000180011be8 f   libvcruntime:std_type_info.obj
 0001:00010c10       __std_type_info_destroy_list 0000000180011c10 f   libvcruntime:std_type_info.obj
 0001:00010c3c       __std_exception_copy       0000000180011c3c f   libvcruntime:std_exception.obj
 0001:00010ccc       __std_exception_destroy    0000000180011ccc f   libvcruntime:std_exception.obj
 0001:00010cf4       _CxxThrowException         0000000180011cf4 f   libvcruntime:throw.obj
 0001:00010d94       __vcrt_freefls             0000000180011d94 f   libvcruntime:per_thread_data.obj
 0001:00010db4       __vcrt_freeptd             0000000180011db4 f   libvcruntime:per_thread_data.obj
 0001:00010e04       __vcrt_getptd              0000000180011e04 f   libvcruntime:per_thread_data.obj
 0001:00010e20       __vcrt_getptd_noexit       0000000180011e20 f   libvcruntime:per_thread_data.obj
 0001:00010ee0       __vcrt_initialize_ptd      0000000180011ee0 f   libvcruntime:per_thread_data.obj
 0001:00010f28       __vcrt_uninitialize_ptd    0000000180011f28 f   libvcruntime:per_thread_data.obj
 0001:00010f4c       __vcrt_initialize_locks    0000000180011f4c f   libvcruntime:locks.obj
 0001:00010f80       __vcrt_uninitialize_locks  0000000180011f80 f   libvcruntime:locks.obj
 0001:00010fd0       _NLG_Notify                0000000180011fd0 f   libvcruntime:notify.obj
 0001:00010ff0       __NLG_Dispatch2            0000000180011ff0 f   libvcruntime:notify.obj
 0001:00011000       __NLG_Return2              0000000180012000 f   libvcruntime:notify.obj
 0001:00011004       __except_validate_context_record 0000000180012004 f   libvcruntime:jbcxrval.obj
 0001:0001103c       ?StateFromControlPc@__FrameHandler4@@SAHPEAUFuncInfo4@FH4@@PEAU_xDISPATCHER_CONTEXT@@@Z 000000018001203c f   libvcruntime:ehstate.obj
 0001:00011044       ?StateFromIp@__FrameHandler4@@SAHPEAUFuncInfo4@FH4@@PEAU_xDISPATCHER_CONTEXT@@_K@Z 0000000180012044 f   libvcruntime:ehstate.obj
 0001:00011cc8       ??$TypeMatchHelper@V__FrameHandler3@@@@YAHPEBU_s_HandlerType@@PEBU_s_CatchableType@@PEBU_s_ThrowInfo@@@Z 0000000180012cc8 f i libvcruntime:frame.obj
 0001:00011e08       ??$TypeMatchHelper@V__FrameHandler4@@@@YAHPEAUHandlerType4@FH4@@PEBU_s_CatchableType@@PEBU_s_ThrowInfo@@@Z 0000000180012e08 f i libvcruntime:frame.obj
 0001:00011f4c       ??$__InternalCxxFrameHandler@V__FrameHandler4@@@@YA?AW4_EXCEPTION_DISPOSITION@@PEAUEHExceptionRecord@@PEA_KPEAU_CONTEXT@@PEAU_xDISPATCHER_CONTEXT@@PEAUFuncInfo4@FH4@@H1E@Z 0000000180012f4c f i libvcruntime:frame.obj
 0001:000121e0       ??0HandlerMap4@FH4@@QEAA@PEBUTryBlockMapEntry4@1@_KH@Z 00000001800131e0 f i libvcruntime:frame.obj
 0001:0001225c       ??0TryBlockMap4@FH4@@QEAA@PEBUFuncInfo4@1@_K@Z 000000018001325c f i libvcruntime:frame.obj
 0001:00012334       ??0bad_exception@std@@QEAA@AEBV01@@Z 0000000180013334 f i libvcruntime:frame.obj
 0001:00012370       ??0bad_exception@std@@QEAA@XZ 0000000180013370 f i libvcruntime:frame.obj
 0001:00012390       ?CxxCallCatchBlock@__FrameHandler4@@SAPEAXPEAU_EXCEPTION_RECORD@@@Z 0000000180013390 f   libvcruntime:frame.obj
 0001:000125e0       ?DecompHandler@HandlerMap4@FH4@@AEAAXXZ 00000001800135e0 f i libvcruntime:frame.obj
 0001:00012820       ?FrameUnwindToState@__FrameHandler4@@SAXPEA_KPEAU_xDISPATCHER_CONTEXT@@PEAUFuncInfo4@FH4@@H@Z 0000000180013820 f   libvcruntime:frame.obj
 0001:00012c7c       ?ReadEntry@UWMap4@FH4@@AEAAXPEAPEAE@Z 0000000180013c7c f i libvcruntime:frame.obj
 0001:00012d1c       ?_CallMemberFunction1@@YAXQEAX00@Z 0000000180013d1c f i libvcruntime:frame.obj
 0001:00012d28       ?_CallMemberFunction2@@YAXQEAX00H@Z 0000000180013d28 f i libvcruntime:frame.obj
 0001:00012d38       ?getStartStop@UWMap4@FH4@@QEAAXHHAEAViterator@12@0@Z 0000000180013d38 f i libvcruntime:frame.obj
 0001:00012e08       ?getStateFromIterators@UWMap4@FH4@@SAHAEBViterator@12@H0H0@Z 0000000180013e08 f i libvcruntime:frame.obj
 0001:0001301c       __vcrt_FlsAlloc            000000018001401c f   libvcruntime:winapi_downlevel.obj
 0001:00013064       __vcrt_FlsFree             0000000180014064 f   libvcruntime:winapi_downlevel.obj
 0001:000130ac       __vcrt_FlsGetValue         00000001800140ac f   libvcruntime:winapi_downlevel.obj
 0001:000130f4       __vcrt_FlsSetValue         00000001800140f4 f   libvcruntime:winapi_downlevel.obj
 0001:00013148       __vcrt_InitializeCriticalSectionEx 0000000180014148 f   libvcruntime:winapi_downlevel.obj
 0001:000131c0       _CallSettingFrame          00000001800141c0 f   libvcruntime:handlers.obj
 0001:00013210       _CallSettingFrame_LookupContinuationIndex 0000000180014210 f   libvcruntime:handlers.obj
 0001:00013240       _CallSettingFrame_NotifyContinuationAddr 0000000180014240 f   libvcruntime:handlers.obj
 0001:00013270       _CallSettingFrameEncoded   0000000180014270 f   libvcruntime:handlers.obj
 0001:000132b8       free                       00000001800142b8 f   libucrt:free.obj
 0001:000132cc       __acrt_call_reportfault    00000001800142cc f   libucrt:invalid_parameter.obj
 0001:00013428       __acrt_initialize_invalid_parameter_handler 0000000180014428 f   libucrt:invalid_parameter.obj
 0001:00013430       _invalid_parameter         0000000180014430 f   libucrt:invalid_parameter.obj
 0001:000134e0       _invalid_parameter_noinfo  00000001800144e0 f   libucrt:invalid_parameter.obj
 0001:00013500       _invoke_watson             0000000180014500 f   libucrt:invalid_parameter.obj
 0001:00013548       __acrt_errno_from_os_error 0000000180014548 f   libucrt:errno.obj
 0001:00013590       __acrt_errno_map_os_error  0000000180014590 f   libucrt:errno.obj
 0001:000135e0       __doserrno                 00000001800145e0 f   libucrt:errno.obj
 0001:00013600       _errno                     0000000180014600 f   libucrt:errno.obj
 0001:00013620       calloc                     0000000180014620 f   libucrt:calloc.obj
 0001:00013628       malloc                     0000000180014628 f   libucrt:malloc.obj
 0001:00013630       _recalloc                  0000000180014630 f   libucrt:recalloc.obj
 0001:00013638       _recalloc_base             0000000180014638 f   libucrt:recalloc.obj
 0001:000136d0       _resetstkoflw              00000001800146d0 f   libucrt:resetstk.obj
 0001:000137fc       wcscat_s                   00000001800147fc f   libucrt:wcscat_s.obj
 0001:0001387c       wcscpy_s                   000000018001487c f   libucrt:wcscpy_s.obj
 0001:000138e4       wcsncpy_s                  00000001800148e4 f   libucrt:wcsncpy_s.obj
 0001:00013b9c       ??$ensure_buffer_is_big_enough@D@formatting_buffer@__crt_stdio_output@@QEAA_N_K@Z 0000000180014b9c f i libucrt:output.obj
 0001:00013c44       ??$ensure_buffer_is_big_enough@_W@formatting_buffer@__crt_stdio_output@@QEAA_N_K@Z 0000000180014c44 f i libucrt:output.obj
 0001:00013cf0       ??$is_wide_character_specifier@_W@__crt_stdio_output@@YA_N_K_WW4length_modifier@0@@Z 0000000180014cf0 f i libucrt:output.obj
 0001:00013d30       ??$type_case_integer_parse_into_buffer@I@?$output_processor@_WV?$string_output_adapter@_W@__crt_stdio_output@@V?$format_validation_base@_WV?$string_output_adapter@_W@__crt_stdio_output@@@2@@__crt_stdio_output@@AEAAXII_N@Z 0000000180014d30 f i libucrt:output.obj
 0001:00013dd4       ??$type_case_integer_parse_into_buffer@_K@?$output_processor@_WV?$string_output_adapter@_W@__crt_stdio_output@@V?$format_validation_base@_WV?$string_output_adapter@_W@__crt_stdio_output@@@2@@__crt_stdio_output@@AEAAX_KI_N@Z 0000000180014dd4 f i libucrt:output.obj
 0001:00013e78       ??$write_multiple_characters@V?$string_output_adapter@_W@__crt_stdio_output@@D@__crt_stdio_output@@YAXAEBV?$string_output_adapter@_W@0@DHQEAH@Z 0000000180014e78 f i libucrt:output.obj
 0001:00013ef0       ??0_LocaleUpdate@@QEAA@QEAU__crt_locale_pointers@@@Z 0000000180014ef0 f i libucrt:output.obj
 0001:00013f90       ?crop_zeroes@__crt_stdio_output@@YAXPEADQEAU__crt_locale_pointers@@@Z 0000000180014f90 f i libucrt:output.obj
 0001:00014030       ?force_decimal_point@__crt_stdio_output@@YAXPEADQEAU__crt_locale_pointers@@@Z 0000000180015030 f i libucrt:output.obj
 0001:000140a8       ?parse_int_from_format_string@?$output_processor@_WV?$string_output_adapter@_W@__crt_stdio_output@@V?$format_validation_base@_WV?$string_output_adapter@_W@__crt_stdio_output@@@2@@__crt_stdio_output@@AEAA_NQEAH@Z 00000001800150a8 f i libucrt:output.obj
 0001:0001414c       ?process@?$output_processor@_WV?$string_output_adapter@_W@__crt_stdio_output@@V?$format_validation_base@_WV?$string_output_adapter@_W@__crt_stdio_output@@@2@@__crt_stdio_output@@QEAAHXZ 000000018001514c f i libucrt:output.obj
 0001:000143c4       ?state_case_size@?$output_processor@_WV?$string_output_adapter@_W@__crt_stdio_output@@V?$format_validation_base@_WV?$string_output_adapter@_W@__crt_stdio_output@@@2@@__crt_stdio_output@@AEAA_NXZ 00000001800153c4 f i libucrt:output.obj
 0001:00014558       ?state_case_type@?$output_processor@_WV?$string_output_adapter@_W@__crt_stdio_output@@V?$format_validation_base@_WV?$string_output_adapter@_W@__crt_stdio_output@@@2@@__crt_stdio_output@@AEAA_NXZ 0000000180015558 f i libucrt:output.obj
 0001:00014830       ?to_integer_size@__crt_stdio_output@@YA_KW4length_modifier@1@@Z 0000000180015830 f i libucrt:output.obj
 0001:00014898       ?type_case_Z@?$output_processor@_WV?$string_output_adapter@_W@__crt_stdio_output@@V?$format_validation_base@_WV?$string_output_adapter@_W@__crt_stdio_output@@@2@@__crt_stdio_output@@AEAA_NXZ 0000000180015898 f i libucrt:output.obj
 0001:00014914       ?type_case_a@?$output_processor@_WV?$string_output_adapter@_W@__crt_stdio_output@@V?$format_validation_base@_WV?$string_output_adapter@_W@__crt_stdio_output@@@2@@__crt_stdio_output@@AEAA_NXZ 0000000180015914 f i libucrt:output.obj
 0001:00014af4       ?type_case_c_tchar@?$output_processor@_WV?$string_output_adapter@_W@__crt_stdio_output@@V?$format_validation_base@_WV?$string_output_adapter@_W@__crt_stdio_output@@@2@@__crt_stdio_output@@AEAA_N_W@Z 0000000180015af4 f i libucrt:output.obj
 0001:00014b9c       ?type_case_integer@?$output_processor@_WV?$string_output_adapter@_W@__crt_stdio_output@@V?$format_validation_base@_WV?$string_output_adapter@_W@__crt_stdio_output@@@2@@__crt_stdio_output@@AEAA_NI_N@Z 0000000180015b9c f i libucrt:output.obj
 0001:00014d24       ?type_case_n@?$output_processor@_WV?$string_output_adapter@_W@__crt_stdio_output@@V?$format_validation_base@_WV?$string_output_adapter@_W@__crt_stdio_output@@@2@@__crt_stdio_output@@AEAA_NXZ 0000000180015d24 f i libucrt:output.obj
 0001:00014dac       ?type_case_s@?$output_processor@_WV?$string_output_adapter@_W@__crt_stdio_output@@V?$format_validation_base@_WV?$string_output_adapter@_W@__crt_stdio_output@@@2@@__crt_stdio_output@@AEAA_NXZ 0000000180015dac f i libucrt:output.obj
 0001:00014e74       ?write_stored_string_tchar@?$output_processor@_WV?$string_output_adapter@_W@__crt_stdio_output@@V?$format_validation_base@_WV?$string_output_adapter@_W@__crt_stdio_output@@@2@@__crt_stdio_output@@AEAA_N_W@Z 0000000180015e74 f i libucrt:output.obj
 0001:00014f5c       ?write_string@?$string_output_adapter@_W@__crt_stdio_output@@QEBAXQEB_WHQEAHAEAV__crt_deferred_errno_cache@@@Z 0000000180015f5c f i libucrt:output.obj
 0001:00015004       __stdio_common_vswprintf_s 0000000180016004 f   libucrt:output.obj
 0001:00015074       _seh_filter_dll            0000000180016074 f   libucrt:exception_filter.obj
 0001:00015088       _seh_filter_exe            0000000180016088 f   libucrt:exception_filter.obj
 0001:00015478       __acrt_initialize_thread_local_exit_callback 0000000180016478 f   libucrt:exit.obj
 0001:00015480       _cexit                     0000000180016480 f   libucrt:exit.obj
 0001:00015490       _exit                      0000000180016490 f   libucrt:exit.obj
 0001:0001549c       _is_c_termination_complete 000000018001649c f   libucrt:exit.obj
 0001:00015664       __acrt_allocate_buffer_for_argv 0000000180016664 f   libucrt:argv_parsing.obj
 0001:000156c4       _configure_narrow_argv     00000001800166c4 f   libucrt:argv_parsing.obj
 0001:00015a3c       __dcrt_uninitialize_environments_nolock 0000000180016a3c f   libucrt:environment_initialization.obj
 0001:00015a74       _initialize_narrow_environment 0000000180016a74 f   libucrt:environment_initialization.obj
 0001:00015dbc       _crt_atexit                0000000180016dbc f   libucrt:onexit.obj
 0001:00015dcc       _execute_onexit_table      0000000180016dcc f   libucrt:onexit.obj
 0001:00015e08       _initialize_onexit_table   0000000180016e08 f   libucrt:onexit.obj
 0001:00015e30       _register_onexit_function  0000000180016e30 f   libucrt:onexit.obj
 0001:00015eb0       __acrt_uninitialize_command_line 0000000180016eb0 f   libucrt:argv_data.obj
 0001:00015fa8       __acrt_initialize          0000000180016fa8 f   libucrt:initialization.obj
 0001:00015fbc       __acrt_thread_attach       0000000180016fbc f   libucrt:initialization.obj
 0001:00015fd0       __acrt_thread_detach       0000000180016fd0 f   libucrt:initialization.obj
 0001:00015fe0       __acrt_uninitialize        0000000180016fe0 f   libucrt:initialization.obj
 0001:00016018       __acrt_uninitialize_critical 0000000180017018 f   libucrt:initialization.obj
 0001:00016028       _initterm                  0000000180017028 f   libucrt:initterm.obj
 0001:0001608c       _initterm_e                000000018001708c f   libucrt:initterm.obj
 0001:000160cc       __acrt_initialize_new_handler 00000001800170cc f   libucrt:new_handler.obj
 0001:000160d4       _callnewh                  00000001800170d4 f   libucrt:new_handler.obj
 0001:00016104       _query_new_handler         0000000180017104 f   libucrt:new_handler.obj
 0001:00016138       terminate                  0000000180017138 f   libucrt:terminate.obj
 0001:00016158       abort                      0000000180017158 f   libucrt:abort.obj
 0001:000161b0       strcpy_s                   00000001800171b0 f   libucrt:strcpy_s.obj
 0001:00016210       ??$parse_integer@KV?$c_string_character_source@_W@__crt_strtox@@@__crt_strtox@@YAKQEAU__crt_locale_pointers@@V?$c_string_character_source@_W@0@H_N@Z 0000000180017210 f i libucrt:atox.obj
 0001:000168d0       strncmp                    00000001800178d0 f   libucrt:strncmp.obj
 0001:00016950       wcsncmp                    0000000180017950 f   libucrt:wcsncmp.obj
 0001:0001697c       _free_base                 000000018001797c f   libucrt:free_base.obj
 0001:00016d34       __acrt_freeptd             0000000180017d34 f   libucrt:per_thread_data.obj
 0001:00016d78       __acrt_getptd              0000000180017d78 f   libucrt:per_thread_data.obj
 0001:00016e4c       __acrt_getptd_head         0000000180017e4c f   libucrt:per_thread_data.obj
 0001:00016ef4       __acrt_getptd_noexit       0000000180017ef4 f   libucrt:per_thread_data.obj
 0001:00016fc0       __acrt_initialize_ptd      0000000180017fc0 f   libucrt:per_thread_data.obj
 0001:00016ffc       __acrt_uninitialize_ptd    0000000180017ffc f   libucrt:per_thread_data.obj
 0001:00017020       _calloc_base               0000000180018020 f   libucrt:calloc_base.obj
 0001:00017098       _malloc_base               0000000180018098 f   libucrt:malloc_base.obj
 0001:000170f8       _msize_base                00000001800180f8 f   libucrt:msize.obj
 0001:00017134       _realloc_base              0000000180018134 f   libucrt:realloc_base.obj
 0001:00017388       __acrt_AppPolicyGetProcessTerminationMethodInternal 0000000180018388 f   libucrt:winapi_thunks.obj
 0001:000173d8       __acrt_AreFileApisANSI     00000001800183d8 f   libucrt:winapi_thunks.obj
 0001:00017414       __acrt_FlsAlloc            0000000180018414 f   libucrt:winapi_thunks.obj
 0001:0001745c       __acrt_FlsFree             000000018001845c f   libucrt:winapi_thunks.obj
 0001:000174a4       __acrt_FlsGetValue         00000001800184a4 f   libucrt:winapi_thunks.obj
 0001:000174ec       __acrt_FlsSetValue         00000001800184ec f   libucrt:winapi_thunks.obj
 0001:00017540       __acrt_InitializeCriticalSectionEx 0000000180018540 f   libucrt:winapi_thunks.obj
 0001:000175a4       __acrt_LCMapStringEx       00000001800185a4 f   libucrt:winapi_thunks.obj
 0001:00017680       __acrt_LocaleNameToLCID    0000000180018680 f   libucrt:winapi_thunks.obj
 0001:000176d0       __acrt_SetThreadStackGuarantee 00000001800186d0 f   libucrt:winapi_thunks.obj
 0001:00017714       __acrt_initialize_winapi_thunks 0000000180018714 f   libucrt:winapi_thunks.obj
 0001:00017748       __acrt_uninitialize_winapi_thunks 0000000180018748 f   libucrt:winapi_thunks.obj
 0001:0001778c       wcstol                     000000018001878c f   libucrt:strtox.obj
 0001:000177b8       _mbtowc_l                  00000001800187b8 f   libucrt:mbtowc.obj
 0001:00017938       mbtowc                     0000000180018938 f   libucrt:mbtowc.obj
 0001:00017940       wcsnlen                    0000000180018940 f   libucrt:strnlen.obj
 0001:00017b18       __acrt_update_locale_info  0000000180018b18 f   libucrt:locale_update.obj
 0001:00017b4c       __acrt_update_multibyte_info 0000000180018b4c f   libucrt:locale_update.obj
 0001:00018584       __acrt_fp_format           0000000180019584 f   libucrt:cvt.obj
 0001:000188bc       _fileno                    00000001800198bc f   libucrt:fileno.obj
 0001:000188e4       __acrt_initialize_stdio    00000001800198e4 f   libucrt:_file.obj
 0001:00018a04       __acrt_uninitialize_stdio  0000000180019a04 f   libucrt:_file.obj
 0001:00018a60       _lock_file                 0000000180019a60 f   libucrt:_file.obj
 0001:00018a6c       _unlock_file               0000000180019a6c f   libucrt:_file.obj
 0001:00018a78       _get_printf_count_output   0000000180019a78 f   libucrt:printf_count_output.obj
 0001:00018b00       __acrt_set_locale_changed  0000000180019b00 f   libucrt:wsetlocale.obj
 0001:00018b0c       __acrt_uninitialize_locale 0000000180019b0c f   libucrt:wsetlocale.obj
 0001:00018d38       __acrt_initialize_lowio    0000000180019d38 f   libucrt:ioinit.obj
 0001:00018d74       __acrt_uninitialize_lowio  0000000180019d74 f   libucrt:ioinit.obj
 0001:00018db4       __acrt_initialize_locks    0000000180019db4 f   libucrt:locks.obj
 0001:00018dfc       __acrt_lock                0000000180019dfc f   libucrt:locks.obj
 0001:00018e18       __acrt_uninitialize_locks  0000000180019e18 f   libucrt:locks.obj
 0001:00018e50       __acrt_unlock              0000000180019e50 f   libucrt:locks.obj
 0001:00018e6c       __acrt_get_process_end_policy 0000000180019e6c f   libucrt:win_policies.obj
 0001:00018ebc       ??$__acrt_mbs_to_wcs_cp@U__crt_win32_buffer_internal_dynamic_resizing@@@@YAHQEBDAEAV?$__crt_win32_buffer@_WU__crt_win32_buffer_internal_dynamic_resizing@@@@I@Z 0000000180019ebc f i libucrt:argv_wildcards.obj
 0001:00019034       ??$__acrt_wcs_to_mbs_cp@U__crt_win32_buffer_internal_dynamic_resizing@@@@YAHQEB_WAEAV?$__crt_win32_buffer@DU__crt_win32_buffer_internal_dynamic_resizing@@@@I@Z 000000018001a034 f i libucrt:argv_wildcards.obj
 0001:00019864       __acrt_expand_narrow_argv_wildcards 000000018001a864 f   libucrt:argv_wildcards.obj
 0001:0001986c       ??$__acrt_wcs_to_mbs_cp@U__crt_win32_buffer_no_resizing@@@@YAHQEB_WAEAV?$__crt_win32_buffer@DU__crt_win32_buffer_no_resizing@@@@I@Z 000000018001a86c f i libucrt:getmodulefilenamea.obj
 0001:00019980       __acrt_GetModuleFileNameA  000000018001a980 f   libucrt:getmodulefilenamea.obj
 0001:0001a1c8       __acrt_initialize_multibyte 000000018001b1c8 f   libucrt:mbctype.obj
 0001:0001a228       __acrt_update_thread_multibyte_data 000000018001b228 f   libucrt:mbctype.obj
 0001:0001a244       _setmbcp_nolock            000000018001b244 f   libucrt:mbctype.obj
 0001:0001a578       _ismbblead                 000000018001b578 f   libucrt:ismbbyte.obj
 0001:0001a58c       __acrt_initialize_command_line 000000018001b58c f   libucrt:argv_data.obj
 0001:0001a5b4       __acrt_MultiByteToWideChar 000000018001b5b4 f   libucrt:multibytetowidechar.obj
 0001:0001a610       __acrt_WideCharToMultiByte 000000018001b610 f   libucrt:widechartomultibyte.obj
 0001:0001a6c0       __dcrt_get_narrow_environment_from_os 000000018001b6c0 f   libucrt:get_environment_from_os.obj
 0001:0001a7c4       __acrt_initialize_heap     000000018001b7c4 f   libucrt:heap_handle.obj
 0001:0001a7e0       __acrt_uninitialize_heap   000000018001b7e0 f   libucrt:heap_handle.obj
 0001:0001a7ec       __acrt_execute_initializers 000000018001b7ec f   libucrt:shared_initialization.obj
 0001:0001a86c       __acrt_execute_uninitializers 000000018001b86c f   libucrt:shared_initialization.obj
 0001:0001a8f0       __acrt_get_sigabrt_handler 000000018001b8f0 f   libucrt:signal.obj
 0001:0001a920       __acrt_initialize_signal_handlers 000000018001b920 f   libucrt:signal.obj
 0001:0001a940       raise                      000000018001b940 f   libucrt:signal.obj
 0001:0001abac       __acrt_has_user_matherr    000000018001bbac f   libucrt:matherr.obj
 0001:0001abcc       __acrt_initialize_user_matherr 000000018001bbcc f   libucrt:matherr.obj
 0001:0001abd4       __acrt_invoke_user_matherr 000000018001bbd4 f   libucrt:matherr.obj
 0001:0001ade0       __acrt_stdio_flush_nolock  000000018001bde0 f   libucrt:fflush.obj
 0001:0001ae5c       _fflush_nolock             000000018001be5c f   libucrt:fflush.obj
 0001:0001aea8       _flushall                  000000018001bea8 f   libucrt:fflush.obj
 0001:0001aeb0       __pctype_func              000000018001beb0 f   libucrt:ctype.obj
 0001:0001aee0       iswctype                   000000018001bee0 f   libucrt:iswctype.obj
 0001:0001af4c       __acrt_add_locale_ref      000000018001bf4c f   libucrt:locale_refcounting.obj
 0001:0001afd8       __acrt_free_locale         000000018001bfd8 f   libucrt:locale_refcounting.obj
 0001:0001b150       __acrt_locale_add_lc_time_reference 000000018001c150 f   libucrt:locale_refcounting.obj
 0001:0001b178       __acrt_locale_free_lc_time_if_unreferenced 000000018001c178 f   libucrt:locale_refcounting.obj
 0001:0001b1b0       __acrt_locale_release_lc_time_reference 000000018001c1b0 f   libucrt:locale_refcounting.obj
 0001:0001b1d8       __acrt_release_locale_ref  000000018001c1d8 f   libucrt:locale_refcounting.obj
 0001:0001b280       __acrt_update_thread_locale_data 000000018001c280 f   libucrt:locale_refcounting.obj
 0001:0001b2f0       _updatetlocinfoEx_nolock   000000018001c2f0 f   libucrt:locale_refcounting.obj
 0001:0001b358       _query_new_mode            000000018001c358 f   libucrt:new_mode.obj
 0001:0001b360       __acrt_DownlevelLocaleNameToLCID 000000018001c360 f   libucrt:lcidtoname_downlevel.obj
 0001:0001b410       _isleadbyte_l              000000018001c410 f i libucrt:_wctype.obj
 0001:0001b45c       ?__mbrtowc_utf8@__crt_mbstring@@YA_KPEA_WPEBD_KPEAU_Mbstatet@@@Z 000000018001c45c f   libucrt:mbrtowc.obj
 0001:0001b498       ?__mbsrtowcs_utf8@__crt_mbstring@@YA_KPEA_WPEAPEBD_KPEAU_Mbstatet@@@Z 000000018001c498 f   libucrt:mbrtowc.obj
 0001:0001b610       __acrt_fp_strflt_to_string 000000018001c610 f   libucrt:_fptostr.obj
 0001:0001b760       ?divide@__crt_strtox@@YA_KAEAUbig_integer@1@AEBU21@@Z 000000018001c760 f i libucrt:cfout.obj
 0001:0001bb8c       __acrt_fltout              000000018001cb8c f   libucrt:cfout.obj
 0001:0001ce58       fegetround                 000000018001de58 f   libucrt:fegetround.obj
 0001:0001ce6c       _fcloseall                 000000018001de6c f   libucrt:closeall.obj
 0001:0001cf20       __acrt_stdio_free_buffer_nolock 000000018001df20 f   libucrt:_freebuf.obj
 0001:0001cf60       _isatty                    000000018001df60 f   libucrt:isatty.obj
 0001:0001cfc0       __acrt_locale_free_monetary 000000018001dfc0 f   libucrt:initmon.obj
 0001:0001d0cc       __acrt_locale_free_numeric 000000018001e0cc f   libucrt:initnum.obj
 0001:0001d190       __acrt_locale_free_time    000000018001e190 f   libucrt:inittime.obj
 0001:0001d298       __acrt_GetStringTypeA      000000018001e298 f   libucrt:getstringtypea.obj
 0001:0001d428       __acrt_lowio_create_handle_array 000000018001e428 f   libucrt:osfinfo.obj
 0001:0001d4d0       __acrt_lowio_destroy_handle_array 000000018001e4d0 f   libucrt:osfinfo.obj
 0001:0001d520       __acrt_lowio_ensure_fh_exists 000000018001e520 f   libucrt:osfinfo.obj
 0001:0001d5c8       __acrt_lowio_lock_fh       000000018001e5c8 f   libucrt:osfinfo.obj
 0001:0001d5f0       __acrt_lowio_unlock_fh     000000018001e5f0 f   libucrt:osfinfo.obj
 0001:0001d618       _free_osfhnd               000000018001e618 f   libucrt:osfinfo.obj
 0001:0001d6d4       _get_osfhandle             000000018001e6d4 f   libucrt:osfinfo.obj
 0001:0001d750       qsort                      000000018001e750 f   libucrt:qsort.obj
 0001:0001daf0       strncpy_s                  000000018001eaf0 f   libucrt:strncpy_s.obj
 0001:0001dc70       strpbrk                    000000018001ec70 f   libucrt:strpbrk.obj
 0001:0001e038       _mbsdec                    000000018001f038 f   libucrt:mbsdec.obj
 0001:0001e040       _mbsdec_l                  000000018001f040 f   libucrt:mbsdec.obj
 0001:0001e3ec       __acrt_LCMapStringA        000000018001f3ec f   libucrt:lcmapstringa.obj
 0001:0001e528       _commit                    000000018001f528 f   libucrt:commit.obj
 0001:0001ee38       _write                     000000018001fe38 f   libucrt:write.obj
 0001:0001ef24       _write_nolock              000000018001ff24 f   libucrt:write.obj
 0001:0001f208       __acrt_GetStringTypeW      0000000180020208 f   libucrt:getstringtypew.obj
 0001:0001f210       __ascii_wcsnicmp           0000000180020210 f   libucrt:wcsnicmp.obj
 0001:0001f25c       ?__mbrtoc32_utf8@__crt_mbstring@@YA_KPEA_UPEBD_KPEAU_Mbstatet@@@Z 000000018002025c f   libucrt:mbrtoc32.obj
 0001:0001f434       _controlfp_s               0000000180020434 f   libucrt:contrlfp.obj
 0001:0001f498       fegetenv                   0000000180020498 f   libucrt:fegetenv.obj
 0001:0001f4b8       fesetenv                   00000001800204b8 f   libucrt:fesetenv.obj
 0001:0001f504       feholdexcept               0000000180020504 f   libucrt:feholdexcept.obj
 0001:0001f554       ceil                       0000000180020554 f   libucrt:ceil.obj
 0001:0001f620       log10                      0000000180020620 f   libucrt:log10.obj
 0001:0001fbcc       __acrt_fenv_get_common_round_control 0000000180020bcc f   libucrt:_fenvutils.obj
 0001:0001fbd8       __acrt_fenv_get_control    0000000180020bd8 f   libucrt:_fenvutils.obj
 0001:0001fccc       __acrt_fenv_get_status     0000000180020ccc f   libucrt:_fenvutils.obj
 0001:0001fd20       __acrt_fenv_set_control    0000000180020d20 f   libucrt:_fenvutils.obj
 0001:0001fe68       __acrt_fenv_set_status     0000000180020e68 f   libucrt:_fenvutils.obj
 0001:0001ff88       _lseeki64_nolock           0000000180020f88 f   libucrt:lseek.obj
 0001:0001ff90       _fclose_nolock             0000000180020f90 f   libucrt:fclose.obj
 0001:00020014       fclose                     0000000180021014 f   libucrt:fclose.obj
 0001:00020078       _query_app_type            0000000180021078 f   libucrt:report_runtime_error.obj
 0001:00020080       __strncnt                  0000000180021080 f   libucrt:strncnt.obj
 0001:00020098       _putwch_nolock             0000000180021098 f   libucrt:putwch.obj
 0001:000200d4       _clearfp                   00000001800210d4 f   libucrt:ieee.obj
 0001:00020144       _control87                 0000000180021144 f   libucrt:ieee.obj
 0001:00020530       _handle_error              0000000180021530 f   libucrt:libm_error.obj
 0001:00020658       _handle_nan                0000000180021658 f   libucrt:libm_error.obj
 0001:00020680       __acrt_initialize_fma3     0000000180021680 f   libucrt:fma3_available.obj
 0001:000206f0       _log10_special             00000001800216f0 f   libucrt:log_special.obj
 0001:0002081c       _close                     000000018002181c f   libucrt:close.obj
 0001:000208c0       _close_nolock              00000001800218c0 f   libucrt:close.obj
 0001:00020980       ?__acrt_stdio_free_stream@@YAXV__crt_stdio_stream@@@Z 0000000180021980 f   libucrt:stream.obj
 0001:0002099c       __dcrt_lowio_ensure_console_output_initialized 000000018002199c f   libucrt:initcon.obj
 0001:000209f0       __dcrt_terminate_console_output 00000001800219f0 f   libucrt:initcon.obj
 0001:00020a0c       __dcrt_write_console       0000000180021a0c f   libucrt:initcon.obj
 0001:00020ae0       _get_fpsr                  0000000180021ae0 f   libucrt:fpsr.obj
 0001:00020af0       _set_fpsr                  0000000180021af0 f   libucrt:fpsr.obj
 0001:00020afa       _fclrf                     0000000180021afa f   libucrt:fpsr.obj
 0001:00020b0e       _frnd                      0000000180021b0e f   libucrt:fpsr.obj
 0001:00020b30       _raise_exc                 0000000180021b30 f   libucrt:fpexcept.obj
 0001:00020b58       _raise_exc_ex              0000000180021b58 f   libucrt:fpexcept.obj
 0001:00020e68       _set_errno_from_matherr    0000000180021e68 f   libucrt:fpexcept.obj
 0001:00020e98       _clrfp                     0000000180021e98 f   libucrt:fpctrl.obj
 0001:00020eb8       _ctrlfp                    0000000180021eb8 f   libucrt:fpctrl.obj
 0001:00020f34       _set_statfp                0000000180021f34 f   libucrt:fpctrl.obj
 0001:00020f54       _statfp                    0000000180021f54 f   libucrt:fpctrl.obj
 0001:00020f65       IsProcessorFeaturePresent  0000000180021f65 f   kernel32:KERNEL32.dll
 0001:00020f70       _FindPESection             0000000180021f70 f   LIBCMT:pesect.obj
 0001:00020fc0       _IsNonwritableInCurrentImage 0000000180021fc0 f   LIBCMT:pesect.obj
 0001:00021010       _ValidateImageBase         0000000180022010 f   LIBCMT:pesect.obj
 0001:00021040       strrchr                    0000000180022040 f   libvcruntime:strrchr.obj
 0001:00021180       _guard_dispatch_icall_nop  0000000180022180 f   LIBCMT:guard_dispatch.obj
 0001:000211a0       _guard_xfg_dispatch_icall_nop 00000001800221a0 f   LIBCMT:guard_xfg_dispatch.obj
 0002:00000000       __imp_RegQueryValueExW     0000000180023000     advapi32:ADVAPI32.dll
 0002:00000008       __imp_RegSetValueExW       0000000180023008     advapi32:ADVAPI32.dll
 0002:00000010       __imp_RegQueryInfoKeyW     0000000180023010     advapi32:ADVAPI32.dll
 0002:00000018       __imp_RegOpenKeyExW        0000000180023018     advapi32:ADVAPI32.dll
 0002:00000020       __imp_RegEnumKeyExW        0000000180023020     advapi32:ADVAPI32.dll
 0002:00000028       __imp_RegDeleteValueW      0000000180023028     advapi32:ADVAPI32.dll
 0002:00000030       __imp_RegDeleteKeyW        0000000180023030     advapi32:ADVAPI32.dll
 0002:00000038       __imp_RegCreateKeyExW      0000000180023038     advapi32:ADVAPI32.dll
 0002:00000040       __imp_RegCloseKey          0000000180023040     advapi32:ADVAPI32.dll
 0002:00000048       \177ADVAPI32_NULL_THUNK_DATA 0000000180023048     advapi32:ADVAPI32.dll
 0002:00000050       __imp_GetObjectW           0000000180023050     gdi32:GDI32.dll
 0002:00000058       __imp_SelectObject         0000000180023058     gdi32:GDI32.dll
 0002:00000060       __imp_DeleteObject         0000000180023060     gdi32:GDI32.dll
 0002:00000068       __imp_CreateCompatibleDC   0000000180023068     gdi32:GDI32.dll
 0002:00000070       __imp_BitBlt               0000000180023070     gdi32:GDI32.dll
 0002:00000078       __imp_SetWindowOrgEx       0000000180023078     gdi32:GDI32.dll
 0002:00000080       __imp_SetWindowExtEx       0000000180023080     gdi32:GDI32.dll
 0002:00000088       __imp_SetViewportOrgEx     0000000180023088     gdi32:GDI32.dll
 0002:00000090       __imp_LPtoDP               0000000180023090     gdi32:GDI32.dll
 0002:00000098       __imp_SetMapMode           0000000180023098     gdi32:GDI32.dll
 0002:000000a0       __imp_SaveDC               00000001800230a0     gdi32:GDI32.dll
 0002:000000a8       __imp_RestoreDC            00000001800230a8     gdi32:GDI32.dll
 0002:000000b0       __imp_GetDeviceCaps        00000001800230b0     gdi32:GDI32.dll
 0002:000000b8       __imp_DeleteMetaFile       00000001800230b8     gdi32:GDI32.dll
 0002:000000c0       __imp_DeleteDC             00000001800230c0     gdi32:GDI32.dll
 0002:000000c8       __imp_CreateRectRgnIndirect 00000001800230c8     gdi32:GDI32.dll
 0002:000000d0       __imp_CreateMetaFileW      00000001800230d0     gdi32:GDI32.dll
 0002:000000d8       __imp_CreateDCW            00000001800230d8     gdi32:GDI32.dll
 0002:000000e0       __imp_CloseMetaFile        00000001800230e0     gdi32:GDI32.dll
 0002:000000e8       \177GDI32_NULL_THUNK_DATA  00000001800230e8     gdi32:GDI32.dll
 0002:000000f0       __imp_CloseHandle          00000001800230f0     kernel32:KERNEL32.dll
 0002:000000f8       __imp_SetEvent             00000001800230f8     kernel32:KERNEL32.dll
 0002:00000100       __imp_CreateMutexW         0000000180023100     kernel32:KERNEL32.dll
 0002:00000108       __imp_CreateEventW         0000000180023108     kernel32:KERNEL32.dll
 0002:00000110       __imp_GetCurrentProcessId  0000000180023110     kernel32:KERNEL32.dll
 0002:00000118       __imp_WriteConsoleW        0000000180023118     kernel32:KERNEL32.dll
 0002:00000120       __imp_CreateFileW          0000000180023120     kernel32:KERNEL32.dll
 0002:00000128       __imp_GetConsoleMode       0000000180023128     kernel32:KERNEL32.dll
 0002:00000130       __imp_GetConsoleOutputCP   0000000180023130     kernel32:KERNEL32.dll
 0002:00000138       __imp_WriteFile            0000000180023138     kernel32:KERNEL32.dll
 0002:00000140       __imp_FlushFileBuffers     0000000180023140     kernel32:KERNEL32.dll
 0002:00000148       __imp_SetStdHandle         0000000180023148     kernel32:KERNEL32.dll
 0002:00000150       __imp_GetStringTypeW       0000000180023150     kernel32:KERNEL32.dll
 0002:00000158       __imp_SetFilePointerEx     0000000180023158     kernel32:KERNEL32.dll
 0002:00000160       __imp_FreeEnvironmentStringsW 0000000180023160     kernel32:KERNEL32.dll
 0002:00000168       __imp_lstrcmpiW            0000000180023168     kernel32:KERNEL32.dll
 0002:00000170       __imp_GetCommandLineW      0000000180023170     kernel32:KERNEL32.dll
 0002:00000178       __imp_GetCommandLineA      0000000180023178     kernel32:KERNEL32.dll
 0002:00000180       __imp_GetCPInfo            0000000180023180     kernel32:KERNEL32.dll
 0002:00000188       __imp_GetOEMCP             0000000180023188     kernel32:KERNEL32.dll
 0002:00000190       __imp_GetACP               0000000180023190     kernel32:KERNEL32.dll
 0002:00000198       __imp_IsValidCodePage      0000000180023198     kernel32:KERNEL32.dll
 0002:000001a0       __imp_FindNextFileW        00000001800231a0     kernel32:KERNEL32.dll
 0002:000001a8       __imp_FindFirstFileExW     00000001800231a8     kernel32:KERNEL32.dll
 0002:000001b0       __imp_FindClose            00000001800231b0     kernel32:KERNEL32.dll
 0002:000001b8       __imp_GetFileType          00000001800231b8     kernel32:KERNEL32.dll
 0002:000001c0       __imp_GetStdHandle         00000001800231c0     kernel32:KERNEL32.dll
 0002:000001c8       __imp_LCMapStringW         00000001800231c8     kernel32:KERNEL32.dll
 0002:000001d0       __imp_HeapReAlloc          00000001800231d0     kernel32:KERNEL32.dll
 0002:000001d8       __imp_HeapSize             00000001800231d8     kernel32:KERNEL32.dll
 0002:000001e0       __imp_MulDiv               00000001800231e0     kernel32:KERNEL32.dll
 0002:000001e8       __imp_GlobalLock           00000001800231e8     kernel32:KERNEL32.dll
 0002:000001f0       __imp_GlobalUnlock         00000001800231f0     kernel32:KERNEL32.dll
 0002:000001f8       __imp_GlobalAlloc          00000001800231f8     kernel32:KERNEL32.dll
 0002:00000200       __imp_FindResourceW        0000000180023200     kernel32:KERNEL32.dll
 0002:00000208       __imp_SizeofResource       0000000180023208     kernel32:KERNEL32.dll
 0002:00000210       __imp_LoadResource         0000000180023210     kernel32:KERNEL32.dll
 0002:00000218       __imp_LoadLibraryExW       0000000180023218     kernel32:KERNEL32.dll
 0002:00000220       __imp_GetProcAddress       0000000180023220     kernel32:KERNEL32.dll
 0002:00000228       __imp_GetModuleHandleW     0000000180023228     kernel32:KERNEL32.dll
 0002:00000230       __imp_GetModuleFileNameW   0000000180023230     kernel32:KERNEL32.dll
 0002:00000238       __imp_FreeLibrary          0000000180023238     kernel32:KERNEL32.dll
 0002:00000240       __imp_DisableThreadLibraryCalls 0000000180023240     kernel32:KERNEL32.dll
 0002:00000248       __imp_GetCurrentThreadId   0000000180023248     kernel32:KERNEL32.dll
 0002:00000250       __imp_Sleep                0000000180023250     kernel32:KERNEL32.dll
 0002:00000258       __imp_WaitForSingleObject  0000000180023258     kernel32:KERNEL32.dll
 0002:00000260       __imp_ReleaseMutex         0000000180023260     kernel32:KERNEL32.dll
 0002:00000268       __imp_ResetEvent           0000000180023268     kernel32:KERNEL32.dll
 0002:00000270       __imp_EnterCriticalSection 0000000180023270     kernel32:KERNEL32.dll
 0002:00000278       __imp_LeaveCriticalSection 0000000180023278     kernel32:KERNEL32.dll
 0002:00000280       __imp_SetLastError         0000000180023280     kernel32:KERNEL32.dll
 0002:00000288       __imp_EncodePointer        0000000180023288     kernel32:KERNEL32.dll
 0002:00000290       __imp_DeleteCriticalSection 0000000180023290     kernel32:KERNEL32.dll
 0002:00000298       __imp_InitializeCriticalSectionEx 0000000180023298     kernel32:KERNEL32.dll
 0002:000002a0       __imp_GetLastError         00000001800232a0     kernel32:KERNEL32.dll
 0002:000002a8       __imp_RaiseException       00000001800232a8     kernel32:KERNEL32.dll
 0002:000002b0       __imp_DecodePointer        00000001800232b0     kernel32:KERNEL32.dll
 0002:000002b8       __imp_WideCharToMultiByte  00000001800232b8     kernel32:KERNEL32.dll
 0002:000002c0       __imp_GetEnvironmentStringsW 00000001800232c0     kernel32:KERNEL32.dll
 0002:000002c8       __imp_MultiByteToWideChar  00000001800232c8     kernel32:KERNEL32.dll
 0002:000002d0       __imp_GetModuleHandleExW   00000001800232d0     kernel32:KERNEL32.dll
 0002:000002d8       __imp_ExitProcess          00000001800232d8     kernel32:KERNEL32.dll
 0002:000002e0       __imp_VirtualQuery         00000001800232e0     kernel32:KERNEL32.dll
 0002:000002e8       __imp_VirtualProtect       00000001800232e8     kernel32:KERNEL32.dll
 0002:000002f0       __imp_GetSystemInfo        00000001800232f0     kernel32:KERNEL32.dll
 0002:000002f8       __imp_TlsFree              00000001800232f8     kernel32:KERNEL32.dll
 0002:00000300       __imp_TlsSetValue          0000000180023300     kernel32:KERNEL32.dll
 0002:00000308       __imp_TlsGetValue          0000000180023308     kernel32:KERNEL32.dll
 0002:00000310       __imp_TlsAlloc             0000000180023310     kernel32:KERNEL32.dll
 0002:00000318       __imp_RtlPcToFileHeader    0000000180023318     kernel32:KERNEL32.dll
 0002:00000320       __imp_InterlockedFlushSList 0000000180023320     kernel32:KERNEL32.dll
 0002:00000328       __imp_RtlUnwindEx          0000000180023328     kernel32:KERNEL32.dll
 0002:00000330       __imp_LoadLibraryExA       0000000180023330     kernel32:KERNEL32.dll
 0002:00000338       __imp_VirtualFree          0000000180023338     kernel32:KERNEL32.dll
 0002:00000340       __imp_VirtualAlloc         0000000180023340     kernel32:KERNEL32.dll
 0002:00000348       __imp_FlushInstructionCache 0000000180023348     kernel32:KERNEL32.dll
 0002:00000350       __imp_InterlockedPushEntrySList 0000000180023350     kernel32:KERNEL32.dll
 0002:00000358       __imp_InterlockedPopEntrySList 0000000180023358     kernel32:KERNEL32.dll
 0002:00000360       __imp_GetProcessHeap       0000000180023360     kernel32:KERNEL32.dll
 0002:00000368       __imp_HeapFree             0000000180023368     kernel32:KERNEL32.dll
 0002:00000370       __imp_HeapAlloc            0000000180023370     kernel32:KERNEL32.dll
 0002:00000378       __imp_OutputDebugStringW   0000000180023378     kernel32:KERNEL32.dll
 0002:00000380       __imp_InitializeSListHead  0000000180023380     kernel32:KERNEL32.dll
 0002:00000388       __imp_GetSystemTimeAsFileTime 0000000180023388     kernel32:KERNEL32.dll
 0002:00000390       __imp_QueryPerformanceCounter 0000000180023390     kernel32:KERNEL32.dll
 0002:00000398       __imp_GetStartupInfoW      0000000180023398     kernel32:KERNEL32.dll
 0002:000003a0       __imp_IsDebuggerPresent    00000001800233a0     kernel32:KERNEL32.dll
 0002:000003a8       __imp_IsProcessorFeaturePresent 00000001800233a8     kernel32:KERNEL32.dll
 0002:000003b0       __imp_TerminateProcess     00000001800233b0     kernel32:KERNEL32.dll
 0002:000003b8       __imp_GetCurrentProcess    00000001800233b8     kernel32:KERNEL32.dll
 0002:000003c0       __imp_InitializeCriticalSectionAndSpinCount 00000001800233c0     kernel32:KERNEL32.dll
 0002:000003c8       __imp_WaitForSingleObjectEx 00000001800233c8     kernel32:KERNEL32.dll
 0002:000003d0       __imp_RtlCaptureContext    00000001800233d0     kernel32:KERNEL32.dll
 0002:000003d8       __imp_RtlLookupFunctionEntry 00000001800233d8     kernel32:KERNEL32.dll
 0002:000003e0       __imp_RtlVirtualUnwind     00000001800233e0     kernel32:KERNEL32.dll
 0002:000003e8       __imp_UnhandledExceptionFilter 00000001800233e8     kernel32:KERNEL32.dll
 0002:000003f0       __imp_SetUnhandledExceptionFilter 00000001800233f0     kernel32:KERNEL32.dll
 0002:000003f8       \177KERNEL32_NULL_THUNK_DATA 00000001800233f8     kernel32:KERNEL32.dll
 0002:00000400       __imp_OleCreatePropertyFrame 0000000180023400     oleaut32:OLEAUT32.dll
 0002:00000408       __imp_UnRegisterTypeLib    0000000180023408     oleaut32:OLEAUT32.dll
 0002:00000410       __imp_RegisterTypeLib      0000000180023410     oleaut32:OLEAUT32.dll
 0002:00000418       __imp_LoadRegTypeLib       0000000180023418     oleaut32:OLEAUT32.dll
 0002:00000420       __imp_LoadTypeLib          0000000180023420     oleaut32:OLEAUT32.dll
 0002:00000428       __imp_VarUI4FromStr        0000000180023428     oleaut32:OLEAUT32.dll
 0002:00000430       __imp_VariantInit          0000000180023430     oleaut32:OLEAUT32.dll
 0002:00000438       __imp_SysAllocStringByteLen 0000000180023438     oleaut32:OLEAUT32.dll
 0002:00000440       __imp_SysStringByteLen     0000000180023440     oleaut32:OLEAUT32.dll
 0002:00000448       __imp_VariantChangeType    0000000180023448     oleaut32:OLEAUT32.dll
 0002:00000450       __imp_VariantClear         0000000180023450     oleaut32:OLEAUT32.dll
 0002:00000458       __imp_SysStringLen         0000000180023458     oleaut32:OLEAUT32.dll
 0002:00000460       __imp_SysFreeString        0000000180023460     oleaut32:OLEAUT32.dll
 0002:00000468       __imp_SysAllocStringLen    0000000180023468     oleaut32:OLEAUT32.dll
 0002:00000470       __imp_SysAllocString       0000000180023470     oleaut32:OLEAUT32.dll
 0002:00000478       \177OLEAUT32_NULL_THUNK_DATA 0000000180023478     oleaut32:OLEAUT32.dll
 0002:00000480       __imp_UnregisterClassW     0000000180023480     user32:USER32.dll
 0002:00000488       __imp_PostMessageW         0000000180023488     user32:USER32.dll
 0002:00000490       __imp_DefWindowProcW       0000000180023490     user32:USER32.dll
 0002:00000498       __imp_CallWindowProcW      0000000180023498     user32:USER32.dll
 0002:000004a0       __imp_RegisterClassExW     00000001800234a0     user32:USER32.dll
 0002:000004a8       __imp_GetClassInfoExW      00000001800234a8     user32:USER32.dll
 0002:000004b0       __imp_CreateWindowExW      00000001800234b0     user32:USER32.dll
 0002:000004b8       __imp_IsWindow             00000001800234b8     user32:USER32.dll
 0002:000004c0       __imp_IsChild              00000001800234c0     user32:USER32.dll
 0002:000004c8       __imp_DestroyWindow        00000001800234c8     user32:USER32.dll
 0002:000004d0       __imp_ShowWindow           00000001800234d0     user32:USER32.dll
 0002:000004d8       __imp_SetWindowPos         00000001800234d8     user32:USER32.dll
 0002:000004e0       __imp_CharNextW            00000001800234e0     user32:USER32.dll
 0002:000004e8       __imp_SetFocus             00000001800234e8     user32:USER32.dll
 0002:000004f0       __imp_LoadBitmapW          00000001800234f0     user32:USER32.dll
 0002:000004f8       __imp_RegisterClassW       00000001800234f8     user32:USER32.dll
 0002:00000500       __imp_PeekMessageW         0000000180023500     user32:USER32.dll
 0002:00000508       __imp_LoadCursorW          0000000180023508     user32:USER32.dll
 0002:00000510       __imp_GetParent            0000000180023510     user32:USER32.dll
 0002:00000518       __imp_SetWindowLongPtrW    0000000180023518     user32:USER32.dll
 0002:00000520       __imp_GetWindowLongPtrW    0000000180023520     user32:USER32.dll
 0002:00000528       __imp_PtInRect             0000000180023528     user32:USER32.dll
 0002:00000530       __imp_EqualRect            0000000180023530     user32:USER32.dll
 0002:00000538       __imp_OffsetRect           0000000180023538     user32:USER32.dll
 0002:00000540       __imp_UnionRect            0000000180023540     user32:USER32.dll
 0002:00000548       __imp_IntersectRect        0000000180023548     user32:USER32.dll
 0002:00000550       __imp_GetClientRect        0000000180023550     user32:USER32.dll
 0002:00000558       __imp_InvalidateRect       0000000180023558     user32:USER32.dll
 0002:00000560       __imp_SetWindowRgn         0000000180023560     user32:USER32.dll
 0002:00000568       __imp_EndPaint             0000000180023568     user32:USER32.dll
 0002:00000570       __imp_BeginPaint           0000000180023570     user32:USER32.dll
 0002:00000578       __imp_ReleaseDC            0000000180023578     user32:USER32.dll
 0002:00000580       __imp_GetDC                0000000180023580     user32:USER32.dll
 0002:00000588       __imp_GetKeyState          0000000180023588     user32:USER32.dll
 0002:00000590       __imp_GetFocus             0000000180023590     user32:USER32.dll
 0002:00000598       \177USER32_NULL_THUNK_DATA 0000000180023598     user32:USER32.dll
 0002:000005a0       __imp_CoCreateInstance     00000001800235a0     ole32:ole32.dll
 0002:000005a8       __imp_StringFromGUID2      00000001800235a8     ole32:ole32.dll
 0002:000005b0       __imp_CoTaskMemAlloc       00000001800235b0     ole32:ole32.dll
 0002:000005b8       __imp_CoTaskMemFree        00000001800235b8     ole32:ole32.dll
 0002:000005c0       __imp_ReadClassStm         00000001800235c0     ole32:ole32.dll
 0002:000005c8       __imp_WriteClassStm        00000001800235c8     ole32:ole32.dll
 0002:000005d0       __imp_CreateDataAdviseHolder 00000001800235d0     ole32:ole32.dll
 0002:000005d8       __imp_OleSaveToStream      00000001800235d8     ole32:ole32.dll
 0002:000005e0       __imp_CreateOleAdviseHolder 00000001800235e0     ole32:ole32.dll
 0002:000005e8       __imp_OleRegGetUserType    00000001800235e8     ole32:ole32.dll
 0002:000005f0       __imp_OleRegGetMiscStatus  00000001800235f0     ole32:ole32.dll
 0002:000005f8       __imp_OleRegEnumVerbs      00000001800235f8     ole32:ole32.dll
 0002:00000600       __imp_CLSIDFromProgID      0000000180023600     ole32:ole32.dll
 0002:00000608       __imp_CoTaskMemRealloc     0000000180023608     ole32:ole32.dll
 0002:00000610       \177ole32_NULL_THUNK_DATA  0000000180023610     ole32:ole32.dll
 0002:00000618       __guard_check_icall_fptr   0000000180023618     LIBCMT:guard_support.obj
 0002:00000620       __guard_xfg_check_icall_fptr 0000000180023620     LIBCMT:guard_support.obj
 0002:00000628       __guard_dispatch_icall_fptr 0000000180023628     LIBCMT:guard_support.obj
 0002:00000630       __guard_xfg_dispatch_icall_fptr 0000000180023630     LIBCMT:guard_support.obj
 0002:00000638       __guard_xfg_table_dispatch_icall_fptr 0000000180023638     LIBCMT:guard_support.obj
 0002:00000640       __xc_a                     0000000180023640     LIBCMT:initializers.obj
 0002:00000670       __xc_z                     0000000180023670     LIBCMT:initializers.obj
 0002:00000678       __xi_a                     0000000180023678     LIBCMT:initializers.obj
 0002:00000688       __acrt_stdio_initializer   0000000180023688     libucrt:stdio_initializer.obj
 0002:00000690       __acrt_multibyte_initializer 0000000180023690     libucrt:multibyte_initializer.obj
 0002:00000698       __acrt_tran_fma3_initializer 0000000180023698     libucrt:fma3_initializer.obj
 0002:000006a0       __xi_z                     00000001800236a0     LIBCMT:initializers.obj
 0002:000006a8       __xl_a                     00000001800236a8     LIBCMT:tlssup.obj
 0002:000006b0       __xl_z                     00000001800236b0     LIBCMT:tlssup.obj
 0002:000006b8       __xp_a                     00000001800236b8     LIBCMT:initializers.obj
 0002:000006c0       __acrt_locale_terminator   00000001800236c0     libucrt:locale_initializer.obj
 0002:000006c8       __dcrt_console_output_terminator 00000001800236c8     libucrt:console_output_initializer.obj
 0002:000006d0       __acrt_stdio_terminator    00000001800236d0     libucrt:stdio_initializer.obj
 0002:000006d8       __xp_z                     00000001800236d8     LIBCMT:initializers.obj
 0002:000006e0       __xt_a                     00000001800236e0     LIBCMT:initializers.obj
 0002:000006e8       __xt_z                     00000001800236e8     LIBCMT:initializers.obj
 0002:000006f0       ??_C@_13HADIAKP@?$AAS@     00000001800236f0     OposVariant.obj
 0002:000006f4       ??_C@_13LHMFKAAD@?$AAM@    00000001800236f4     OposVariant.obj
 0002:000006f8       ??_C@_13MKMNOPIJ@?$AAD@    00000001800236f8     OposVariant.obj
 0002:000006fc       ??_C@_13OPKGLAFF@?$AAB@    00000001800236fc     OposVariant.obj
 0002:00000700       ??_C@_17LLMMEOJD@?$AAV?$AAa?$AAl@ 0000000180023700     OposVariant.obj
 0002:00000708       ??_C@_1BI@JFAIJMHL@?$AAF?$AAo?$AAr?$AAc?$AAe?$AAR?$AAe?$AAm?$AAo?$AAv?$AAe@ 0000000180023708     OposVariant.obj
 0002:00000720       ??_C@_1BC@GCKHIPE@?$AAN?$AAo?$AAR?$AAe?$AAm?$AAo?$AAv?$AAe@ 0000000180023720     OposVariant.obj
 0002:00000738       ??_C@_1O@JDLOHAN@?$AAD?$AAe?$AAl?$AAe?$AAt?$AAe@ 0000000180023738     OposVariant.obj
 0002:00000748       ??_C@_11LOCGONAA@@         0000000180023748     OposVariant.obj
 0002:00000750       IID_IOPOSBelt_1_12         0000000180023750     Belt.obj
 0002:00000760       IID_IOPOSBelt              0000000180023760     Belt.obj
 0002:00000770       LIBID_OposBelt_CCO         0000000180023770     Belt.obj
 0002:00000780       DIID__IOPOSBeltEvents      0000000180023780     Belt.obj
 0002:00000790       CLSID_OPOSBelt             0000000180023790     Belt.obj
 0002:000007a0       _GUID_00000114_0000_0000_c000_000000000046 00000001800237a0     Belt.obj
 0002:000007b0       ??_C@_1BK@BIGILECK@?$AAA?$AAd?$AAv?$AAa?$AAp?$AAi?$AA3?$AA2?$AA?4?$AAd?$AAl?$AAl@ 00000001800237b0     Belt.obj
 0002:000007d0       ??_C@_0BI@MNCFCPFK@RegCreateKeyTransactedW@ 00000001800237d0     Belt.obj
 0002:000007e8       _GUID_b196b287_bab4_101a_b69c_00aa00341d07 00000001800237e8     Belt.obj
 0002:000007f8       _GUID_b196b285_bab4_101a_b69c_00aa00341d07 00000001800237f8     Belt.obj
 0002:00000808       _GUID_a6bc3ac0_dbaa_11ce_9de3_00aa004bb851 0000000180023808     Belt.obj
 0002:00000820       ?_entries@?1??_GetEntries@COPOSBelt@@SAPEBU_ATL_INTMAP_ENTRY@ATL@@XZ@4QBU34@B 0000000180023820     Belt.obj
 0002:00000a60       _GUID_0000010c_0000_0000_c000_000000000046 0000000180023a60     Belt.obj
 0002:00000a70       _GUID_cf51ed10_62fe_11cf_bf86_00a0c9034836 0000000180023a70     Belt.obj
 0002:00000a80       _GUID_0000010a_0000_0000_c000_000000000046 0000000180023a80     Belt.obj
 0002:00000a90       _GUID_b196b283_bab4_101a_b69c_00aa00341d07 0000000180023a90     Belt.obj
 0002:00000aa0       _GUID_cb5bdc81_93c1_11cf_8f20_00805f2cd064 0000000180023aa0     Belt.obj
 0002:00000ab0       ?pPropMap@?1??GetPropertyMap@COPOSBelt@@SAPEBUATL_PROPMAP_ENTRY@ATL@@XZ@4QBU34@B 0000000180023ab0     Belt.obj
 0002:00000b58       ??_C@_17DGDADEHL@?$AA_?$AAc?$AAx@ 0000000180023b58     Belt.obj
 0002:00000b60       ??_C@_17IOIMFDBO@?$AA_?$AAc?$AAy@ 0000000180023b60     Belt.obj
 0002:00000b68       _GUID_00000146_0000_0000_c000_000000000046 0000000180023b68     Belt.obj
 0002:00000b78       _GUID_922eada0_3424_11cf_b670_00aa004cd6d8 0000000180023b78     Belt.obj
 0002:00000b88       _GUID_9c2cad80_3424_11cf_b670_00aa004cd6d8 0000000180023b88     Belt.obj
 0002:00000b98       _GUID_00000119_0000_0000_c000_000000000046 0000000180023b98     Belt.obj
 0002:00000ba8       _GUID_b196b289_bab4_101a_b69c_00aa00341d07 0000000180023ba8     Belt.obj
 0002:00000bb8       ??_7?$CComObjectCached@VCComClassFactory@ATL@@@ATL@@6B@ 0000000180023bb8     Belt.obj
 0002:00000be8       ??_C@_1CE@PGFMOFKI@?$AAS?$AAt?$AAa?$AAt?$AAu?$AAs?$AAU?$AAp?$AAd?$AAa?$AAt?$AAe?$AAE?$AAv?$AAe@ 0000000180023be8     Belt.obj
 0002:00000c10       ??_C@_1BM@CBGEBBBJ@?$AAD?$AAi?$AAr?$AAe?$AAc?$AAt?$AAI?$AAO?$AAE?$AAv?$AAe?$AAn?$AAt@ 0000000180023c10     Belt.obj
 0002:00000c30       _GUID_b196b286_bab4_101a_b69c_00aa00341d07 0000000180023c30     Belt.obj
 0002:00000c40       _GUID_00000117_0000_0000_c000_000000000046 0000000180023c40     Belt.obj
 0002:00000c50       ??_7CComModule@ATL@@6B@    0000000180023c50     Belt.obj
 0002:00000ca0       ??_C@_1BC@ENICKDH@?$AAC?$AAo?$AAn?$AAt?$AAe?$AAn?$AAt?$AAs@ 0000000180023ca0     Belt.obj
 0002:00000cb8       _GUID_00000000_0000_0000_c000_000000000046 0000000180023cb8     Belt.obj
 0002:00000cc8       _GUID_00020400_0000_0000_c000_000000000046 0000000180023cc8     Belt.obj
 0002:00000cd8       ??_7?$CComObject@V?$CComEnum@UIEnumConnectionPoints@@$1?_GUID_b196b285_bab4_101a_b69c_00aa00341d07@@3U__s_GUID@@BPEAUIConnectionPoint@@V?$_CopyInterface@UIConnectionPoint@@@ATL@@VCComSingleThreadModel@6@@ATL@@@ATL@@6B@ 0000000180023cd8     Belt.obj
 0002:00000d18       _GUID_0000010e_0000_0000_c000_000000000046 0000000180023d18     Belt.obj
 0002:00000d28       _GUID_b196b288_bab4_101a_b69c_00aa00341d07 0000000180023d28     Belt.obj
 0002:00000d38       ??_C@_1M@KANJNLFF@?$AAC?$AAL?$AAS?$AAI?$AAD@ 0000000180023d38     Belt.obj
 0002:00000d48       ??_C@_1M@EJNEECMJ@?$AAA?$AAp?$AAp?$AAI?$AAD@ 0000000180023d48     Belt.obj
 0002:00000d58       _GUID_00000113_0000_0000_c000_000000000046 0000000180023d58     Belt.obj
 0002:00000d70       ?rgszNeverDelete@CRegParser@ATL@@1QBQEB_WB 0000000180023d70     Belt.obj
 0002:00000dd0       _GUID_1c2056cc_5ef4_101b_8bc8_00aa003e3b29 0000000180023dd0     Belt.obj
 0002:00000de0       ??_7CRegObject@ATL@@6B@    0000000180023de0     Belt.obj
 0002:00000e10       _GUID_00000112_0000_0000_c000_000000000046 0000000180023e10     Belt.obj
 0002:00000e20       _GUID_3af24292_0c96_11ce_a0cf_00aa00600ab8 0000000180023e20     Belt.obj
 0002:00000e30       _GUID_00000127_0000_0000_c000_000000000046 0000000180023e30     Belt.obj
 0002:00000e40       _GUID_0000010d_0000_0000_c000_000000000046 0000000180023e40     Belt.obj
 0002:00000e50       ??_C@_1CK@OEKPKBNA@?$AAC?$AAo?$AAm?$AAp?$AAo?$AAn?$AAe?$AAn?$AAt?$AA?5?$AAC?$AAa?$AAt?$AAe?$AAg@ 0000000180023e50     Belt.obj
 0002:00000e80       ??_C@_1BC@NKMMNMGL@?$AAF?$AAi?$AAl?$AAe?$AAT?$AAy?$AAp?$AAe@ 0000000180023e80     Belt.obj
 0002:00000e98       ??_C@_1BE@EKPAFMCP@?$AAI?$AAn?$AAt?$AAe?$AAr?$AAf?$AAa?$AAc?$AAe@ 0000000180023e98     Belt.obj
 0002:00000eb0       ??_C@_1BC@MAICEHGI@?$AAH?$AAa?$AAr?$AAd?$AAw?$AAa?$AAr?$AAe@ 0000000180023eb0     Belt.obj
 0002:00000ec8       ??_C@_19HLLLM@?$AAM?$AAi?$AAm?$AAe@ 0000000180023ec8     Belt.obj
 0002:00000ed8       ??_C@_17OMAOINJK@?$AAS?$AAA?$AAM@ 0000000180023ed8     Belt.obj
 0002:00000ee0       ??_C@_1BC@IBECJAAI@?$AAS?$AAE?$AAC?$AAU?$AAR?$AAI?$AAT?$AAY@ 0000000180023ee0     Belt.obj
 0002:00000ef8       ??_C@_1O@GBFINDKL@?$AAS?$AAY?$AAS?$AAT?$AAE?$AAM@ 0000000180023ef8     Belt.obj
 0002:00000f08       ??_C@_1BC@EAHCMADO@?$AAS?$AAo?$AAf?$AAt?$AAw?$AAa?$AAr?$AAe@ 0000000180023f08     Belt.obj
 0002:00000f20       ??_C@_1BA@JIHHIEDE@?$AAT?$AAy?$AAp?$AAe?$AAL?$AAi?$AAb@ 0000000180023f20     Belt.obj
 0002:00000f30       ?map@?1??HKeyFromString@CRegParser@ATL@@KAPEAUHKEY__@@PEA_W@Z@4QBUkeymap@?1??123@KAPEAU4@0@Z@B 0000000180023f30     Belt.obj
 0002:00001010       ??_C@_19NCHLBIN@?$AAH?$AAK?$AAC?$AAR@ 0000000180024010     Belt.obj
 0002:00001020       ??_C@_19JAPAIJDE@?$AAH?$AAK?$AAC?$AAU@ 0000000180024020     Belt.obj
 0002:00001030       ??_C@_19PEALEEJB@?$AAH?$AAK?$AAL?$AAM@ 0000000180024030     Belt.obj
 0002:00001040       ??_C@_17PJOJPMPB@?$AAH?$AAK?$AAU@ 0000000180024040     Belt.obj
 0002:00001048       ??_C@_19PNBHMJPL@?$AAH?$AAK?$AAP?$AAD@ 0000000180024048     Belt.obj
 0002:00001058       ??_C@_19GFFAIJHG@?$AAH?$AAK?$AAD?$AAD@ 0000000180024058     Belt.obj
 0002:00001068       ??_C@_19OFICIBHH@?$AAH?$AAK?$AAC?$AAC@ 0000000180024068     Belt.obj
 0002:00001078       ??_C@_1CE@PACHPJFI@?$AAH?$AAK?$AAE?$AAY?$AA_?$AAC?$AAL?$AAA?$AAS?$AAS?$AAE?$AAS?$AA_?$AAR?$AAO@ 0000000180024078     Belt.obj
 0002:000010a0       ??_C@_1CE@HLHNCBPM@?$AAH?$AAK?$AAE?$AAY?$AA_?$AAC?$AAU?$AAR?$AAR?$AAE?$AAN?$AAT?$AA_?$AAU?$AAS@ 00000001800240a0     Belt.obj
 0002:000010c8       ??_C@_1CG@GFBEANJL@?$AAH?$AAK?$AAE?$AAY?$AA_?$AAL?$AAO?$AAC?$AAA?$AAL?$AA_?$AAM?$AAA?$AAC?$AAH@ 00000001800240c8     Belt.obj
 0002:000010f0       ??_C@_1M@PPPPCDEP@?$AAA?$AAP?$AAP?$AAI?$AAD@ 00000001800240f0     Belt.obj
 0002:00001100       ??_C@_1BG@BGODANIO@?$AAH?$AAK?$AAE?$AAY?$AA_?$AAU?$AAS?$AAE?$AAR?$AAS@ 0000000180024100     Belt.obj
 0002:00001118       ??_C@_1CM@KHNNAOIC@?$AAH?$AAK?$AAE?$AAY?$AA_?$AAP?$AAE?$AAR?$AAF?$AAO?$AAR?$AAM?$AAA?$AAN?$AAC@ 0000000180024118     Belt.obj
 0002:00001148       ??_C@_1BM@HAGMMHIA@?$AAH?$AAK?$AAE?$AAY?$AA_?$AAD?$AAY?$AAN?$AA_?$AAD?$AAA?$AAT?$AAA@ 0000000180024148     Belt.obj
 0002:00001168       ??_C@_1CI@BBJOACGG@?$AAH?$AAK?$AAE?$AAY?$AA_?$AAC?$AAU?$AAR?$AAR?$AAE?$AAN?$AAT?$AA_?$AAC?$AAO@ 0000000180024168     Belt.obj
 0002:00001190       _GUID_00000109_0000_0000_c000_000000000046 0000000180024190     Belt.obj
 0002:000011a0       _GUID_7fd52380_4e07_101b_ae2d_08002b2ec713 00000001800241a0     Belt.obj
 0002:000011b0       ??_C@_1EA@NHKLICFA@?$AAH?$AAK?$AAC?$AAU?$AA?$AN?$AA?6?$AA?$HL?$AA?7?$AAS?$AAo?$AAf?$AAt?$AAw?$AAa?$AAr@ 00000001800241b0     Belt.obj
 0002:000011f0       ??_C@_1BE@LJOLIMEM@?$AA?$AN?$AA?6?$AA?7?$AA?$HN?$AA?$AN?$AA?6?$AA?$HN?$AA?$AN?$AA?6@ 00000001800241f0     Belt.obj
 0002:00001208       ??_7?$CComContainedObject@VCOPOSBelt@@@ATL@@6B?$IDispatchImpl@UIOPOSBelt@@$1?IID_IOPOSBelt@@3U_GUID@@B$1?LIBID_OposBelt_CCO@@3U3@B$00$0A@VCComTypeInfoHolder@ATL@@@1@@ 0000000180024208     Belt.obj
 0002:00001498       ??_7?$CComContainedObject@VCOPOSBelt@@@ATL@@6BCComControlBase@1@@ 0000000180024498     Belt.obj
 0002:000014c0       ??_7?$CComContainedObject@VCOPOSBelt@@@ATL@@6B?$CWindowImpl@VCOPOSBelt@@VCWindow@ATL@@V?$CWinTraits@$0FGAAAAAA@$0A@@3@@1@@ 00000001800244c0     Belt.obj
 0002:000014e0       ??_7?$CComContainedObject@VCOPOSBelt@@@ATL@@6B?$IPersistStreamInitImpl@VCOPOSBelt@@@1@@ 00000001800244e0     Belt.obj
 0002:00001528       ??_7?$CComContainedObject@VCOPOSBelt@@@ATL@@6B?$IOleControlImpl@VCOPOSBelt@@@1@@ 0000000180024528     Belt.obj
 0002:00001560       ??_7?$CComContainedObject@VCOPOSBelt@@@ATL@@6B?$IOleObjectImpl@VCOPOSBelt@@@1@@ 0000000180024560     Belt.obj
 0002:00001620       ??_7?$CComContainedObject@VCOPOSBelt@@@ATL@@6B?$IOleInPlaceActiveObjectImpl@VCOPOSBelt@@@1@@ 0000000180024620     Belt.obj
 0002:00001670       ??_7?$CComContainedObject@VCOPOSBelt@@@ATL@@6B?$IViewObjectExImpl@VCOPOSBelt@@@1@@ 0000000180024670     Belt.obj
 0002:000016e8       ??_7?$CComContainedObject@VCOPOSBelt@@@ATL@@6B?$IOleInPlaceObjectWindowlessImpl@VCOPOSBelt@@@1@@ 00000001800246e8     Belt.obj
 0002:00001740       ??_7?$CComContainedObject@VCOPOSBelt@@@ATL@@6B?$IConnectionPointContainerImpl@VCOPOSBelt@@@1@@ 0000000180024740     Belt.obj
 0002:00001768       ??_7?$CComContainedObject@VCOPOSBelt@@@ATL@@6B?$IPersistStorageImpl@VCOPOSBelt@@@1@@ 0000000180024768     Belt.obj
 0002:000017b8       ??_7?$CComContainedObject@VCOPOSBelt@@@ATL@@6B?$ISpecifyPropertyPagesImpl@VCOPOSBelt@@@1@@ 00000001800247b8     Belt.obj
 0002:000017d8       ??_7?$CComContainedObject@VCOPOSBelt@@@ATL@@6B?$IQuickActivateImpl@VCOPOSBelt@@@1@@ 00000001800247d8     Belt.obj
 0002:00001808       ??_7?$CComContainedObject@VCOPOSBelt@@@ATL@@6B?$IDataObjectImpl@VCOPOSBelt@@@1@@ 0000000180024808     Belt.obj
 0002:00001868       ??_7?$CComContainedObject@VCOPOSBelt@@@ATL@@6B?$IProvideClassInfo2Impl@$1?CLSID_OPOSBelt@@3U_GUID@@B$1?DIID__IOPOSBeltEvents@@3U2@B$1?LIBID_OposBelt_CCO@@3U2@B$00$0A@VCComTypeInfoHolder@ATL@@@1@@ 0000000180024868     Belt.obj
 0002:00001890       ??_7?$CComContainedObject@VCOPOSBelt@@@ATL@@6B?$IObjectSafetyImpl@VCOPOSBelt@@$02@1@@ 0000000180024890     Belt.obj
 0002:000018c0       ??_7?$CComContainedObject@VCOPOSBelt@@@ATL@@6B?$IPropertyNotifySinkCP@VCOPOSBelt@@VCComDynamicUnkArray@ATL@@@1@@ 00000001800248c0     Belt.obj
 0002:00001900       ??_7?$CComContainedObject@VCOPOSBelt@@@ATL@@6B?$CProxy_IOPOSEvents@VCOPOSBelt@@@@@ 0000000180024900     Belt.obj
 0002:00001940       ??_7?$CComAggObject@VCOPOSBelt@@@ATL@@6B@ 0000000180024940     Belt.obj
 0002:00001960       ??_7?$CComObject@VCOPOSBelt@@@ATL@@6B?$IDispatchImpl@UIOPOSBelt@@$1?IID_IOPOSBelt@@3U_GUID@@B$1?LIBID_OposBelt_CCO@@3U3@B$00$0A@VCComTypeInfoHolder@ATL@@@1@@ 0000000180024960     Belt.obj
 0002:00001bf0       ??_7?$CComObject@VCOPOSBelt@@@ATL@@6BCComControlBase@1@@ 0000000180024bf0     Belt.obj
 0002:00001c18       ??_7?$CComObject@VCOPOSBelt@@@ATL@@6B?$CWindowImpl@VCOPOSBelt@@VCWindow@ATL@@V?$CWinTraits@$0FGAAAAAA@$0A@@3@@1@@ 0000000180024c18     Belt.obj
 0002:00001c38       ??_7?$CComObject@VCOPOSBelt@@@ATL@@6B?$IPersistStreamInitImpl@VCOPOSBelt@@@1@@ 0000000180024c38     Belt.obj
 0002:00001c80       ??_7?$CComObject@VCOPOSBelt@@@ATL@@6B?$IOleControlImpl@VCOPOSBelt@@@1@@ 0000000180024c80     Belt.obj
 0002:00001cb8       ??_7?$CComObject@VCOPOSBelt@@@ATL@@6B?$IOleObjectImpl@VCOPOSBelt@@@1@@ 0000000180024cb8     Belt.obj
 0002:00001d78       ??_7?$CComObject@VCOPOSBelt@@@ATL@@6B?$IOleInPlaceActiveObjectImpl@VCOPOSBelt@@@1@@ 0000000180024d78     Belt.obj
 0002:00001dc8       ??_7?$CComObject@VCOPOSBelt@@@ATL@@6B?$IViewObjectExImpl@VCOPOSBelt@@@1@@ 0000000180024dc8     Belt.obj
 0002:00001e40       ??_7?$CComObject@VCOPOSBelt@@@ATL@@6B?$IOleInPlaceObjectWindowlessImpl@VCOPOSBelt@@@1@@ 0000000180024e40     Belt.obj
 0002:00001e98       ??_7?$CComObject@VCOPOSBelt@@@ATL@@6B?$IConnectionPointContainerImpl@VCOPOSBelt@@@1@@ 0000000180024e98     Belt.obj
 0002:00001ec0       ??_7?$CComObject@VCOPOSBelt@@@ATL@@6B?$IPersistStorageImpl@VCOPOSBelt@@@1@@ 0000000180024ec0     Belt.obj
 0002:00001f10       ??_7?$CComObject@VCOPOSBelt@@@ATL@@6B?$ISpecifyPropertyPagesImpl@VCOPOSBelt@@@1@@ 0000000180024f10     Belt.obj
 0002:00001f30       ??_7?$CComObject@VCOPOSBelt@@@ATL@@6B?$IQuickActivateImpl@VCOPOSBelt@@@1@@ 0000000180024f30     Belt.obj
 0002:00001f60       ??_7?$CComObject@VCOPOSBelt@@@ATL@@6B?$IDataObjectImpl@VCOPOSBelt@@@1@@ 0000000180024f60     Belt.obj
 0002:00001fc0       ??_7?$CComObject@VCOPOSBelt@@@ATL@@6B?$IProvideClassInfo2Impl@$1?CLSID_OPOSBelt@@3U_GUID@@B$1?DIID__IOPOSBeltEvents@@3U2@B$1?LIBID_OposBelt_CCO@@3U2@B$00$0A@VCComTypeInfoHolder@ATL@@@1@@ 0000000180024fc0     Belt.obj
 0002:00001fe8       ??_7?$CComObject@VCOPOSBelt@@@ATL@@6B?$IObjectSafetyImpl@VCOPOSBelt@@$02@1@@ 0000000180024fe8     Belt.obj
 0002:00002018       ??_7?$CComObject@VCOPOSBelt@@@ATL@@6B?$IPropertyNotifySinkCP@VCOPOSBelt@@VCComDynamicUnkArray@ATL@@@1@@ 0000000180025018     Belt.obj
 0002:00002058       ??_7?$CComObject@VCOPOSBelt@@@ATL@@6B?$CProxy_IOPOSEvents@VCOPOSBelt@@@@@ 0000000180025058     Belt.obj
 0002:00002098       ??_C@_1O@MNLDABAF@?$AAM?$AAo?$AAd?$AAu?$AAl?$AAe@ 0000000180025098     Belt.obj
 0002:000020a8       ??_C@_1BG@JBACFMF@?$AAM?$AAo?$AAd?$AAu?$AAl?$AAe?$AA_?$AAR?$AAa?$AAw@ 00000001800250a8     Belt.obj
 0002:000020c0       ??_C@_1BC@KAILKFFG@?$AAR?$AAE?$AAG?$AAI?$AAS?$AAT?$AAR?$AAY@ 00000001800250c0     Belt.obj
 0002:000020d8       ??_C@_1O@GBFKGNEO@?$AAA?$AAT?$AAL?$AA?3?$AA?$CF?$AAp@ 00000001800250d8     Belt.obj
 0002:000020e8       ??_C@_1BA@PICGEGJB@?$AAD?$AAI?$AAS?$AAP?$AAL?$AAA?$AAY@ 00000001800250e8     Belt.obj
 0002:000020f8       _GUID_9bfbbc02_eff1_101a_84ed_00aa00341d07 00000001800250f8     Belt.obj
 0002:00002108       ?_entries@?1??_GetEntries@?$CComEnum@UIEnumConnectionPoints@@$1?_GUID_b196b285_bab4_101a_b69c_00aa00341d07@@3U__s_GUID@@BPEAUIConnectionPoint@@V?$_CopyInterface@UIConnectionPoint@@@ATL@@VCComSingleThreadModel@6@@ATL@@SAPEBU_ATL_INTMAP_ENTRY@3@XZ@4QBU43@B 0000000180025108     Belt.obj
 0002:00002138       _GUID_00020412_0000_0000_c000_000000000046 0000000180025138     Belt.obj
 0002:00002148       _GUID_00020401_0000_0000_c000_000000000046 0000000180025148     Belt.obj
 0002:00002158       _GUID_b196b284_bab4_101a_b69c_00aa00341d07 0000000180025158     Belt.obj
 0002:00002168       ??_7?$CComObject@V?$CComEnum@UIEnumConnections@@$1?_GUID_b196b287_bab4_101a_b69c_00aa00341d07@@3U__s_GUID@@BUtagCONNECTDATA@@V?$_Copy@UtagCONNECTDATA@@@ATL@@VCComSingleThreadModel@6@@ATL@@@ATL@@6B@ 0000000180025168     Belt.obj
 0002:000021a8       _GUID_55980ba0_35aa_11cf_b671_00aa004cd6d8 00000001800251a8     Belt.obj
 0002:000021b8       _GUID_b196b28b_bab4_101a_b69c_00aa00341d07 00000001800251b8     Belt.obj
 0002:000021c8       ?_entries@?1??_GetEntries@?$CComEnum@UIEnumConnections@@$1?_GUID_b196b287_bab4_101a_b69c_00aa00341d07@@3U__s_GUID@@BUtagCONNECTDATA@@V?$_Copy@UtagCONNECTDATA@@@ATL@@VCComSingleThreadModel@6@@ATL@@SAPEBU_ATL_INTMAP_ENTRY@3@XZ@4QBU43@B 00000001800251c8     Belt.obj
 0002:000021f8       ??_7CComClassFactory@ATL@@6B@ 00000001800251f8     Belt.obj
 0002:00002228       ?_entries@?1??_GetEntries@CComClassFactory@ATL@@SAPEBU_ATL_INTMAP_ENTRY@3@XZ@4QBU43@B 0000000180025228     Belt.obj
 0002:00002258       _GUID_00000001_0000_0000_c000_000000000046 0000000180025258     Belt.obj
 0002:00002268       ??_C@_0BG@EKFFMJIO@RegOpenKeyTransactedW@ 0000000180025268     Belt.obj
 0002:00002280       ??_C@_0BI@HAKLOOGP@RegDeleteKeyTransactedW@ 0000000180025280     Belt.obj
 0002:00002298       ??_C@_0BA@LILAPHGE@RegDeleteKeyExW@ 0000000180025298     Belt.obj
 0002:000022a8       ??_C@_19ILOCMLCJ@?$AA?4?$AAt?$AAl?$AAb@ 00000001800252a8     Belt.obj
 0002:000022b8       _GUID_0002e012_0000_0000_c000_000000000046 00000001800252b8     Belt.obj
 0002:000022c8       ??_C@_1O@FHBGLCIO@?$AAC?$AAL?$AAS?$AAI?$AAD?$AA?2@ 00000001800252c8     Belt.obj
 0002:000022d8       ??_C@_1CK@IFBKBFAA@?$AA?2?$AAR?$AAe?$AAq?$AAu?$AAi?$AAr?$AAe?$AAd?$AA?5?$AAC?$AAa?$AAt?$AAe?$AAg@ 00000001800252d8     Belt.obj
 0002:00002308       ??_C@_1DA@BIHALFED@?$AA?2?$AAI?$AAm?$AAp?$AAl?$AAe?$AAm?$AAe?$AAn?$AAt?$AAe?$AAd?$AA?5?$AAC?$AAa@ 0000000180025308     Belt.obj
 0002:00002338       ??_C@_1BK@EDKOLFBJ@?$AAO?$AAL?$AAE?$AAA?$AAU?$AAT?$AA3?$AA2?$AA?4?$AAD?$AAL?$AAL@ 0000000180025338     Belt.obj
 0002:00002358       ??_C@_0BJ@CNLFOMHB@UnRegisterTypeLibForUser@ 0000000180025358     Belt.obj
 0002:00002378       ??_C@_0BH@LBOMMKPJ@RegisterTypeLibForUser@ 0000000180025378     Belt.obj
 0002:00002390       ??_C@_0P@MMNMMLGK@COFreezeEvents@ 0000000180025390     BeltImpl.obj
 0002:000023a0       ??_C@_0BC@OGCGGIMP@GetPropertyNumber@ 00000001800253a0     BeltImpl.obj
 0002:000023b8       ??_C@_0BC@MDCNODNB@SetPropertyNumber@ 00000001800253b8     BeltImpl.obj
 0002:000023d0       ??_C@_0BC@CFCCMIMD@GetPropertyString@ 00000001800253d0     BeltImpl.obj
 0002:000023e8       ??_C@_0BC@CJEDNN@SetPropertyString@ 00000001800253e8     BeltImpl.obj
 0002:00002400       ??_C@_0M@LNPKKKDA@OpenService@ 0000000180025400     BeltImpl.obj
 0002:00002410       ??_C@_0M@PCMCHHMH@CheckHealth@ 0000000180025410     BeltImpl.obj
 0002:00002420       ??_C@_0M@JGMIDNEK@ClaimDevice@ 0000000180025420     BeltImpl.obj
 0002:00002430       ??_C@_0N@DDFIIBMP@CloseService@ 0000000180025430     BeltImpl.obj
 0002:00002440       ??_C@_08EEIHICPC@DirectIO@ 0000000180025440     BeltImpl.obj
 0002:00002450       ??_C@_0O@BCPMENMJ@ReleaseDevice@ 0000000180025450     BeltImpl.obj
 0002:00002460       ??_C@_0BA@GFABKEEE@ResetStatistics@ 0000000180025460     BeltImpl.obj
 0002:00002470       ??_C@_0BD@DPALHJGC@RetrieveStatistics@ 0000000180025470     BeltImpl.obj
 0002:00002488       ??_C@_0BB@KOHIKNFC@UpdateStatistics@ 0000000180025488     BeltImpl.obj
 0002:000024a0       ??_C@_0BH@PBKBNMGB@CompareFirmwareVersion@ 00000001800254a0     BeltImpl.obj
 0002:000024b8       ??_C@_0P@FBPDPIPA@UpdateFirmware@ 00000001800254b8     BeltImpl.obj
 0002:000024c8       ??_C@_0BA@MFNBLEHA@AdjustItemCount@ 00000001800254c8     BeltImpl.obj
 0002:000024d8       ??_C@_0N@NLHBHADE@MoveBackward@ 00000001800254d8     BeltImpl.obj
 0002:000024e8       ??_C@_0M@EOADDJMM@MoveForward@ 00000001800254e8     BeltImpl.obj
 0002:000024f8       ??_C@_09PINHDNFP@ResetBelt@ 00000001800254f8     BeltImpl.obj
 0002:00002508       ??_C@_0P@IFKGMNLN@ResetItemCount@ 0000000180025508     BeltImpl.obj
 0002:00002518       ??_C@_08CILKLKOL@StopBelt@ 0000000180025518     BeltImpl.obj
 0002:00002528       ??_7?$CProxy_IOPOSEvents@VCOPOSBelt@@@@6B@ 0000000180025528     BeltImpl.obj
 0002:00002568       ??_C@_1BA@IFHENID@?$AA?$FL?$AAE?$AAr?$AAr?$AAo?$AAr?$AA?$FN@ 0000000180025568     BeltImpl.obj
 0002:00002578       ??_C@_0CH@IECBNNFN@SOFTWARE?2OLEforRetail?2ServiceOP@ 0000000180025578     BeltImpl.obj
 0002:000025a0       ??_C@_1M@IAIJHCCH@?$AAC?$AAl?$AAo?$AAs?$AAe@ 00000001800255a0     BeltImpl.obj
 0002:000025b0       ??_C@_1M@PCPKGJAH@?$AAC?$AAl?$AAa?$AAi?$AAm@ 00000001800255b0     BeltImpl.obj
 0002:000025c0       ??_C@_1BA@NDFKIOCP@?$AAR?$AAe?$AAl?$AAe?$AAa?$AAs?$AAe@ 00000001800255c0     BeltImpl.obj
 0002:000025d0       ??_C@_04BNIIIKEM@Belt@     00000001800255d0     BeltImpl.obj
 0002:000025d8       ??_C@_1BM@IJMNMBPK@?$AAG?$AAe?$AAt?$AAO?$AAp?$AAe?$AAn?$AAR?$AAe?$AAs?$AAu?$AAl?$AAt@ 00000001800255d8     BeltImpl.obj
 0002:000025f8       IID_IDispatch              00000001800255f8     uuid:oaidl_i.obj
 0002:00002608       IID_IPropertyNotifySink    0000000180025608     uuid:ocidl_i.obj
 0002:00002618       GUID_NULL                  0000000180025618     uuid:cguid_i.obj
 0002:00002628       CLSID_StdGlobalInterfaceTable 0000000180025628     uuid:cguid_i.obj
 0002:00002638       CLSID_StdComponentCategoriesMgr 0000000180025638     uuid:ieguids.obj
 0002:00002648       IID_IUnknown               0000000180025648     uuid:unknwn_i.obj
 0002:00002660       __xmm@ffffffffffffffffffffffffffffffff 0000000180025660     LIBCMT:utility.obj
 0002:00002670       ??_C@_1EC@JIJBPKFM@?$AAa?$AAp?$AAi?$AA?9?$AAm?$AAs?$AA?9?$AAw?$AAi?$AAn?$AA?9?$AAc?$AAo?$AAr?$AAe@ 0000000180025670     LIBCMT:thread_safe_statics.obj
 0002:000026b8       ??_C@_1BK@MGMFAEKH@?$AAk?$AAe?$AAr?$AAn?$AAe?$AAl?$AA3?$AA2?$AA?4?$AAd?$AAl?$AAl@ 00000001800256b8     LIBCMT:thread_safe_statics.obj
 0002:000026d8       ??_C@_0BJ@JEBJOJFJ@SleepConditionVariableCS@ 00000001800256d8     LIBCMT:thread_safe_statics.obj
 0002:000026f8       ??_C@_0BJ@PGPPEPCC@WakeAllConditionVariable@ 00000001800256f8     LIBCMT:thread_safe_statics.obj
 0002:00002711       ?nothrow@std@@3Unothrow_t@1@B 0000000180025711     LIBCMT:std_nothrow.obj
 0002:00002728       _pDefaultRawDllMain        0000000180025728     LIBCMT:dll_dllmain.obj
 0002:00002728       _pRawDllMain               0000000180025728     LIBCMT:dll_dllmain.obj
 0002:00002738       ??_7exception@std@@6B@     0000000180025738     LIBCMT:throw_bad_alloc.obj
 0002:00002748       ??_C@_0BC@EOODALEL@Unknown?5exception@ 0000000180025748     LIBCMT:throw_bad_alloc.obj
 0002:00002768       ??_7bad_alloc@std@@6B@     0000000180025768     LIBCMT:throw_bad_alloc.obj
 0002:00002778       ??_C@_0P@GHFPNOJB@bad?5allocation@ 0000000180025778     LIBCMT:throw_bad_alloc.obj
 0002:00002790       ??_7bad_array_new_length@std@@6B@ 0000000180025790     LIBCMT:throw_bad_alloc.obj
 0002:000027a0       ??_C@_0BF@KINCDENJ@bad?5array?5new?5length@ 00000001800257a0     LIBCMT:throw_bad_alloc.obj
 0002:000027c0       ??_7type_info@@6B@         00000001800257c0     LIBCMT:std_type_info_static.obj
 0002:000027c8       GUID_ATLVer110             00000001800257c8     atls:atlbase.obj
 0002:000027e0       ??_C@_1IC@ONKHOIDK@?$AAE?$AAR?$AAR?$AAO?$AAR?$AA?5?$AA?3?$AA?5?$AAU?$AAn?$AAa?$AAb?$AAl?$AAe?$AA?5@ 00000001800257e0     atls:atlbase.obj
 0002:00002868       ??_C@_0N@FJEPLCIH@atlthunk?4dll@ 0000000180025868     atls:atlthunk.obj
 0002:00002878       ??_C@_0BG@GAKFHCBM@AtlThunk_AllocateData@ 0000000180025878     atls:atlthunk.obj
 0002:00002890       ??_C@_0BC@JKONFIAH@AtlThunk_InitData@ 0000000180025890     atls:atlthunk.obj
 0002:000028a8       ??_C@_0BE@IAOEELAK@AtlThunk_DataToCode@ 00000001800258a8     atls:atlthunk.obj
 0002:000028c0       ??_C@_0BC@GBGKAIPI@AtlThunk_FreeData@ 00000001800258c0     atls:atlthunk.obj
 0002:000028d8       ?s_negLengthTab@FH4@@3QBCB 00000001800258d8     libvcruntime:risctrnsctrl.obj
 0002:000028e8       ?s_shiftTab@FH4@@3QBEB     00000001800258e8     libvcruntime:risctrnsctrl.obj
 0002:00002998       _pDestructExceptionObject  0000000180025998     libvcruntime:ehhelpers.obj
 0002:000029a8       ??_7bad_exception@std@@6B@ 00000001800259a8     libvcruntime:frame.obj
 0002:000029b8       ??_C@_0O@DPKOEFFH@bad?5exception@ 00000001800259b8     libvcruntime:frame.obj
 0002:000030d0       ??_C@_08EHJDFFNH@__based?$CI@ 00000001800260d0     libvcruntime:undname.obj
 0002:000030e0       ??_C@_07KOLFKCDI@__cdecl@  00000001800260e0     libvcruntime:undname.obj
 0002:000030e8       ??_C@_08GHMPAG@__pascal@   00000001800260e8     libvcruntime:undname.obj
 0002:000030f8       ??_C@_09IFJBGAPI@__stdcall@ 00000001800260f8     libvcruntime:undname.obj
 0002:00003108       ??_C@_0L@NPHFGOKO@__thiscall@ 0000000180026108     libvcruntime:undname.obj
 0002:00003118       ??_C@_0L@JMKHOMEK@__fastcall@ 0000000180026118     libvcruntime:undname.obj
 0002:00003128       ??_C@_0N@BCKKPABJ@__vectorcall@ 0000000180026128     libvcruntime:undname.obj
 0002:00003138       ??_C@_09HIJEGCPM@__clrcall@ 0000000180026138     libvcruntime:undname.obj
 0002:00003144       ??_C@_06GHPCKEAG@__eabi@   0000000180026144     libvcruntime:undname.obj
 0002:00003150       ??_C@_09IOPIDJLG@__swift_1@ 0000000180026150     libvcruntime:undname.obj
 0002:00003160       ??_C@_09KFNFGKHF@__swift_2@ 0000000180026160     libvcruntime:undname.obj
 0002:00003170       ??_C@_07JOMMBBKO@__ptr64@  0000000180026170     libvcruntime:undname.obj
 0002:00003178       ??_C@_0L@PILCLIHE@__restrict@ 0000000180026178     libvcruntime:undname.obj
 0002:00003188       ??_C@_0M@GFIIJFMG@__unaligned@ 0000000180026188     libvcruntime:undname.obj
 0002:00003198       ??_C@_09DHDLOLLB@restrict?$CI@ 0000000180026198     libvcruntime:undname.obj
 0002:000031a2       ??_C@_00CNPNBAHC@@         00000001800261a2     libvcruntime:undname.obj
 0002:000031a4       ??_C@_04NIHEBCM@?5new@     00000001800261a4     libvcruntime:undname.obj
 0002:000031b0       ??_C@_07FPCDHGMM@?5delete@ 00000001800261b0     libvcruntime:undname.obj
 0002:000031b8       ??_C@_01NEMOKFLO@?$DN@     00000001800261b8     libvcruntime:undname.obj
 0002:000031bc       ??_C@_02GPIOPFAK@?$DO?$DO@ 00000001800261bc     libvcruntime:undname.obj
 0002:000031c0       ??_C@_02FODMEDOG@?$DM?$DM@ 00000001800261c0     libvcruntime:undname.obj
 0002:000031c4       ??_C@_01DCLJPIOD@?$CB@     00000001800261c4     libvcruntime:undname.obj
 0002:000031c8       ??_C@_02EGOFBIJA@?$DN?$DN@ 00000001800261c8     libvcruntime:undname.obj
 0002:000031cc       ??_C@_02FDNJECIE@?$CB?$DN@ 00000001800261cc     libvcruntime:undname.obj
 0002:000031d0       ??_C@_02GPECMEKF@?$FL?$FN@ 00000001800261d0     libvcruntime:undname.obj
 0002:000031d8       ??_C@_08LHJFAFGD@operator@ 00000001800261d8     libvcruntime:undname.obj
 0002:000031e4       ??_C@_02HBOOOICD@?9?$DO@   00000001800261e4     libvcruntime:undname.obj
 0002:000031e8       ??_C@_01NBENCBCI@?$CK@     00000001800261e8     libvcruntime:undname.obj
 0002:000031ec       ??_C@_02ECNGHCIF@?$CL?$CL@ 00000001800261ec     libvcruntime:undname.obj
 0002:000031f0       ??_C@_02BAABKJLB@?9?9@     00000001800261f0     libvcruntime:undname.obj
 0002:000031f4       ??_C@_01JOAMLHOP@?9@       00000001800261f4     libvcruntime:undname.obj
 0002:000031f8       ??_C@_01MIFGBAGJ@?$CL@     00000001800261f8     libvcruntime:undname.obj
 0002:000031fc       ??_C@_01HNPIGOCE@?$CG@     00000001800261fc     libvcruntime:undname.obj
 0002:00003200       ??_C@_03MNHNFDLC@?9?$DO?$CK@ 0000000180026200     libvcruntime:undname.obj
 0002:00003204       ??_C@_01KMDKNFGN@?1@       0000000180026204     libvcruntime:undname.obj
 0002:00003208       ??_C@_01FGNFDNOH@?$CF@     0000000180026208     libvcruntime:undname.obj
 0002:0000320c       ??_C@_01MNNFJEPP@?$DM@     000000018002620c     libvcruntime:undname.obj
 0002:00003210       ??_C@_02EHCHHCKH@?$DM?$DN@ 0000000180026210     libvcruntime:undname.obj
 0002:00003214       ??_C@_01PPODPGHN@?$DO@     0000000180026214     libvcruntime:undname.obj
 0002:00003218       ??_C@_02EEKDKGMJ@?$DO?$DN@ 0000000180026218     libvcruntime:undname.obj
 0002:0000321c       ??_C@_01IHBHIGKO@?0@       000000018002621c     libvcruntime:undname.obj
 0002:00003220       ??_C@_02HCKGKOFO@?$CI?$CJ@ 0000000180026220     libvcruntime:undname.obj
 0002:00003224       ??_C@_01PJKLJHI@?$HO@      0000000180026224     libvcruntime:undname.obj
 0002:00003228       ??_C@_01JKBOJNNK@?$FO@     0000000180026228     libvcruntime:undname.obj
 0002:0000322c       ??_C@_01DNKMNLPK@?$HM@     000000018002622c     libvcruntime:undname.obj
 0002:00003230       ??_C@_02PPKAJPJL@?$CG?$CG@ 0000000180026230     libvcruntime:undname.obj
 0002:00003234       ??_C@_02NONPIBCD@?$HM?$HM@ 0000000180026234     libvcruntime:undname.obj
 0002:00003238       ??_C@_02FPIMKNGF@?$CK?$DN@ 0000000180026238     libvcruntime:undname.obj
 0002:0000323c       ??_C@_02FOEOMHFC@?$CL?$DN@ 000000018002623c     libvcruntime:undname.obj
 0002:00003240       ??_C@_02FKMDLLOA@?9?$DN@   0000000180026240     libvcruntime:undname.obj
 0002:00003244       ??_C@_02FJEHGPIO@?1?$DN@   0000000180026244     libvcruntime:undname.obj
 0002:00003248       ??_C@_02FENAOKFI@?$CF?$DN@ 0000000180026248     libvcruntime:undname.obj
 0002:0000324c       ??_C@_03IKFCCPFF@?$DO?$DO?$DN@ 000000018002624c     libvcruntime:undname.obj
 0002:00003250       ??_C@_03CDNPDDLA@?$DM?$DM?$DN@ 0000000180026250     libvcruntime:undname.obj
 0002:00003254       ??_C@_02FGJGFEAB@?$CG?$DN@ 0000000180026254     libvcruntime:undname.obj
 0002:00003258       ??_C@_02DHLNPPGH@?$HM?$DN@ 0000000180026258     libvcruntime:undname.obj
 0002:0000325c       ??_C@_02MHEGNOJ@?$FO?$DN@  000000018002625c     libvcruntime:undname.obj
 0002:00003260       ??_C@_09IFPLHPGF@?$GAvftable?8@ 0000000180026260     libvcruntime:undname.obj
 0002:00003270       ??_C@_09BLBHBJP@?$GAvbtable?8@ 0000000180026270     libvcruntime:undname.obj
 0002:00003280       ??_C@_07FEEIOKP@?$GAvcall?8@ 0000000180026280     libvcruntime:undname.obj
 0002:00003288       ??_C@_08LLFFHHDJ@?$GAtypeof?8@ 0000000180026288     libvcruntime:undname.obj
 0002:00003298       ??_C@_0BF@KDPPACIK@?$GAlocal?5static?5guard?8@ 0000000180026298     libvcruntime:undname.obj
 0002:000032b0       ??_C@_08OBABFOLI@?$GAstring?8@ 00000001800262b0     libvcruntime:undname.obj
 0002:000032c0       ??_C@_0BD@JDLKDPAB@?$GAvbase?5destructor?8@ 00000001800262c0     libvcruntime:undname.obj
 0002:000032d8       ??_C@_0BN@DEGPLNFK@?$GAvector?5deleting?5destructor?8@ 00000001800262d8     libvcruntime:undname.obj
 0002:000032f8       ??_C@_0BO@OBMKPJIG@?$GAdefault?5constructor?5closure?8@ 00000001800262f8     libvcruntime:undname.obj
 0002:00003318       ??_C@_0BN@IMDCHIKM@?$GAscalar?5deleting?5destructor?8@ 0000000180026318     libvcruntime:undname.obj
 0002:00003338       ??_C@_0BO@PFGOCPJJ@?$GAvector?5constructor?5iterator?8@ 0000000180026338     libvcruntime:undname.obj
 0002:00003358       ??_C@_0BN@LFPFMEDL@?$GAvector?5destructor?5iterator?8@ 0000000180026358     libvcruntime:undname.obj
 0002:00003378       ??_C@_0CE@IKBNEHA@?$GAvector?5vbase?5constructor?5itera@ 0000000180026378     libvcruntime:undname.obj
 0002:000033a0       ??_C@_0BL@NILFHHPC@?$GAvirtual?5displacement?5map?8@ 00000001800263a0     libvcruntime:undname.obj
 0002:000033c0       ??_C@_0CB@JONCMFFK@?$GAeh?5vector?5constructor?5iterator@ 00000001800263c0     libvcruntime:undname.obj
 0002:000033e8       ??_C@_0CA@GCEOPDGL@?$GAeh?5vector?5destructor?5iterator?8@ 00000001800263e8     libvcruntime:undname.obj
 0002:00003408       ??_C@_0CH@OOJPLCPH@?$GAeh?5vector?5vbase?5constructor?5it@ 0000000180026408     libvcruntime:undname.obj
 0002:00003430       ??_C@_0BL@LLKPOHJI@?$GAcopy?5constructor?5closure?8@ 0000000180026430     libvcruntime:undname.obj
 0002:00003450       ??_C@_0BA@KBCDOMBN@?$GAudt?5returning?8@ 0000000180026450     libvcruntime:undname.obj
 0002:00003460       ??_C@_03KLGMFNMG@?$GAEH@   0000000180026460     libvcruntime:undname.obj
 0002:00003464       ??_C@_05KHLCHHI@?$GARTTI@  0000000180026464     libvcruntime:undname.obj
 0002:00003470       ??_C@_0BA@KKLDJDLB@?$GAlocal?5vftable?8@ 0000000180026470     libvcruntime:undname.obj
 0002:00003480       ??_C@_0CE@IIHCMGGL@?$GAlocal?5vftable?5constructor?5clos@ 0000000180026480     libvcruntime:undname.obj
 0002:000034a4       ??_C@_06FHBGPFGH@?5new?$FL?$FN@ 00000001800264a4     libvcruntime:undname.obj
 0002:000034b0       ??_C@_09LBNFPBCA@?5delete?$FL?$FN@ 00000001800264b0     libvcruntime:undname.obj
 0002:000034c0       ??_C@_0P@HJKNJFNN@?$GAomni?5callsig?8@ 00000001800264c0     libvcruntime:undname.obj
 0002:000034d0       ??_C@_0BL@CNOONJFP@?$GAplacement?5delete?5closure?8@ 00000001800264d0     libvcruntime:undname.obj
 0002:000034f0       ??_C@_0BN@CKNJLHMB@?$GAplacement?5delete?$FL?$FN?5closure?8@ 00000001800264f0     libvcruntime:undname.obj
 0002:00003510       ??_C@_0CG@CFDHKGGD@?$GAmanaged?5vector?5constructor?5ite@ 0000000180026510     libvcruntime:undname.obj
 0002:00003538       ??_C@_0CF@IMGKMJNO@?$GAmanaged?5vector?5destructor?5iter@ 0000000180026538     libvcruntime:undname.obj
 0002:00003560       ??_C@_0CG@HLDDJMAG@?$GAeh?5vector?5copy?5constructor?5ite@ 0000000180026560     libvcruntime:undname.obj
 0002:00003588       ??_C@_0CM@FCBBDIGB@?$GAeh?5vector?5vbase?5copy?5construct@ 0000000180026588     libvcruntime:undname.obj
 0002:000035b8       ??_C@_0BL@CLIPGLGB@?$GAdynamic?5initializer?5for?5?8@ 00000001800265b8     libvcruntime:undname.obj
 0002:000035d8       ??_C@_0CB@PDBIFEP@?$GAdynamic?5atexit?5destructor?5for?5@ 00000001800265d8     libvcruntime:undname.obj
 0002:00003600       ??_C@_0CD@CGAJBKEJ@?$GAvector?5copy?5constructor?5iterat@ 0000000180026600     libvcruntime:undname.obj
 0002:00003628       ??_C@_0CJ@GJELGAMM@?$GAvector?5vbase?5copy?5constructor?5@ 0000000180026628     libvcruntime:undname.obj
 0002:00003658       ??_C@_0CL@FGIJHLCE@?$GAmanaged?5vector?5copy?5constructo@ 0000000180026658     libvcruntime:undname.obj
 0002:00003688       ??_C@_0BM@PMGGMLDN@?$GAlocal?5static?5thread?5guard?8@ 0000000180026688     libvcruntime:undname.obj
 0002:000036a8       ??_C@_0N@BDNMDMOL@operator?5?$CC?$CC?5@ 00000001800266a8     libvcruntime:undname.obj
 0002:000036b8       ??_C@_0BC@GGEBGALA@operator?5co_await@ 00000001800266b8     libvcruntime:undname.obj
 0002:000036d0       ??_C@_0M@GAAIMMOH@operator?$DM?$DN?$DO@ 00000001800266d0     libvcruntime:undname.obj
 0002:000036e0       ??_C@_0BC@DAFEJGAK@?5Type?5Descriptor?8@ 00000001800266e0     libvcruntime:undname.obj
 0002:000036f8       ??_C@_0BM@LDKODKLH@?5Base?5Class?5Descriptor?5at?5?$CI@ 00000001800266f8     libvcruntime:undname.obj
 0002:00003718       ??_C@_0BD@LGICGFMM@?5Base?5Class?5Array?8@ 0000000180026718     libvcruntime:undname.obj
 0002:00003730       ??_C@_0BN@MECKDCOJ@?5Class?5Hierarchy?5Descriptor?8@ 0000000180026730     libvcruntime:undname.obj
 0002:00003750       ??_C@_0BK@CFCOFLF@?5Complete?5Object?5Locator?8@ 0000000180026750     libvcruntime:undname.obj
 0002:00003770       ??_C@_0BG@JNJLAMPM@?$GAanonymous?5namespace?8@ 0000000180026770     libvcruntime:undname.obj
 0002:000037a0       ??_C@_1DM@KHCHBNEB@?$AAa?$AAp?$AAi?$AA?9?$AAm?$AAs?$AA?9?$AAw?$AAi?$AAn?$AA?9?$AAc?$AAo?$AAr?$AAe@ 00000001800267a0     libvcruntime:winapi_downlevel.obj
 0002:000037e0       ??_C@_1DK@LPPGFMPP@?$AAa?$AAp?$AAi?$AA?9?$AAm?$AAs?$AA?9?$AAw?$AAi?$AAn?$AA?9?$AAc?$AAo?$AAr?$AAe@ 00000001800267e0     libvcruntime:winapi_downlevel.obj
 0002:00003820       ??_C@_1BC@GDMECMAK@?$AAk?$AAe?$AAr?$AAn?$AAe?$AAl?$AA3?$AA2@ 0000000180026820     libvcruntime:winapi_downlevel.obj
 0002:00003838       ??_C@_1BA@PFFKHIOG@?$AAa?$AAp?$AAi?$AA?9?$AAm?$AAs?$AA?9@ 0000000180026838     libvcruntime:winapi_downlevel.obj
 0002:00003850       ??_C@_08KNHFBNJ@FlsAlloc@  0000000180026850     libvcruntime:winapi_downlevel.obj
 0002:00003868       ??_C@_07PEJMOBNF@FlsFree@  0000000180026868     libvcruntime:winapi_downlevel.obj
 0002:00003878       ??_C@_0M@GDNOONDI@FlsGetValue@ 0000000180026878     libvcruntime:winapi_downlevel.obj
 0002:00003890       ??_C@_0M@JCPCPOEF@FlsSetValue@ 0000000180026890     libvcruntime:winapi_downlevel.obj
 0002:000038a8       ??_C@_0BM@HCFOFFN@InitializeCriticalSectionEx@ 00000001800268a8     libvcruntime:winapi_downlevel.obj
 0002:00003a40       ?format_validation_lookup_table_spectre@__crt_stdio_output@@3V?$spectre_mitigated_lookup_table@Ustate_transition_pair@__crt_stdio_output@@$0IA@@1@B 0000000180026a40     libucrt:output.obj
 0002:00003e40       ??_C@_1O@CEDCILHN@?$AA?$CI?$AAn?$AAu?$AAl?$AAl?$AA?$CJ@ 0000000180026e40     libucrt:output.obj
 0002:00003e50       ??_C@_06OJHGLDPL@?$CInull?$CJ@ 0000000180026e50     libucrt:output.obj
 0002:00003e60       __acrt_exception_action_table 0000000180026e60     libucrt:exception_filter.obj
 0002:00003f20       __acrt_signal_action_table_count 0000000180026f20     libucrt:exception_filter.obj
 0002:00003f28       __acrt_signal_action_first_fpe_index 0000000180026f28     libucrt:exception_filter.obj
 0002:00003f30       __acrt_signal_action_fpe_count 0000000180026f30     libucrt:exception_filter.obj
 0002:00003f38       ??_C@_1BI@BGOHAHKC@?$AAm?$AAs?$AAc?$AAo?$AAr?$AAe?$AAe?$AA?4?$AAd?$AAl?$AAl@ 0000000180026f38     libucrt:exit.obj
 0002:00003f50       ??_C@_0P@MIGLKIOC@CorExitProcess@ 0000000180026f50     libucrt:exit.obj
 0002:00004100       ??_C@_1EA@JGEFHKEI@?$AAa?$AAp?$AAi?$AA?9?$AAm?$AAs?$AA?9?$AAw?$AAi?$AAn?$AA?9?$AAc?$AAo?$AAr?$AAe@ 0000000180027100     libucrt:winapi_thunks.obj
 0002:00004140       ??_C@_1DI@IJCEHOCB@?$AAa?$AAp?$AAi?$AA?9?$AAm?$AAs?$AA?9?$AAw?$AAi?$AAn?$AA?9?$AAc?$AAo?$AAr?$AAe@ 0000000180027140     libucrt:winapi_thunks.obj
 0002:00004180       ??_C@_1EI@MPIAOHOC@?$AAa?$AAp?$AAi?$AA?9?$AAm?$AAs?$AA?9?$AAw?$AAi?$AAn?$AA?9?$AAc?$AAo?$AAr?$AAe@ 0000000180027180     libucrt:winapi_thunks.obj
 0002:000041d0       ??_C@_1FK@FPHCKFIE@?$AAa?$AAp?$AAi?$AA?9?$AAm?$AAs?$AA?9?$AAw?$AAi?$AAn?$AA?9?$AAc?$AAo?$AAr?$AAe@ 00000001800271d0     libucrt:winapi_thunks.obj
 0002:00004230       ??_C@_1EM@DILCGIIO@?$AAa?$AAp?$AAi?$AA?9?$AAm?$AAs?$AA?9?$AAw?$AAi?$AAn?$AA?9?$AAc?$AAo?$AAr?$AAe@ 0000000180027230     libucrt:winapi_thunks.obj
 0002:00004280       ??_C@_1DM@LNCGDDPN@?$AAa?$AAp?$AAi?$AA?9?$AAm?$AAs?$AA?9?$AAw?$AAi?$AAn?$AA?9?$AAc?$AAo?$AAr?$AAe@ 0000000180027280     libucrt:winapi_thunks.obj
 0002:000042c0       ??_C@_1DO@FPAPJEMD@?$AAa?$AAp?$AAi?$AA?9?$AAm?$AAs?$AA?9?$AAw?$AAi?$AAn?$AA?9?$AAc?$AAo?$AAr?$AAe@ 00000001800272c0     libucrt:winapi_thunks.obj
 0002:00004300       ??_C@_1DK@NDHNAHIO@?$AAa?$AAp?$AAi?$AA?9?$AAm?$AAs?$AA?9?$AAw?$AAi?$AAn?$AA?9?$AAc?$AAo?$AAr?$AAe@ 0000000180027300     libucrt:winapi_thunks.obj
 0002:00004340       ??_C@_1DM@KGHDGBCM@?$AAa?$AAp?$AAi?$AA?9?$AAm?$AAs?$AA?9?$AAw?$AAi?$AAn?$AA?9?$AAc?$AAo?$AAr?$AAe@ 0000000180027340     libucrt:winapi_thunks.obj
 0002:00004380       ??_C@_1EO@IJIOEFOH@?$AAa?$AAp?$AAi?$AA?9?$AAm?$AAs?$AA?9?$AAw?$AAi?$AAn?$AA?9?$AAr?$AAt?$AAc?$AAo@ 0000000180027380     libucrt:winapi_thunks.obj
 0002:000043d0       ??_C@_1FG@HHGEKANL@?$AAa?$AAp?$AAi?$AA?9?$AAm?$AAs?$AA?9?$AAw?$AAi?$AAn?$AA?9?$AAs?$AAe?$AAc?$AAu@ 00000001800273d0     libucrt:winapi_thunks.obj
 0002:00004430       ??_C@_1EG@DBIOJECG@?$AAe?$AAx?$AAt?$AA?9?$AAm?$AAs?$AA?9?$AAw?$AAi?$AAn?$AA?9?$AAn?$AAt?$AAu?$AAs@ 0000000180027430     libucrt:winapi_thunks.obj
 0002:00004480       ??_C@_1EO@FIHMJCLF@?$AAe?$AAx?$AAt?$AA?9?$AAm?$AAs?$AA?9?$AAw?$AAi?$AAn?$AA?9?$AAn?$AAt?$AAu?$AAs@ 0000000180027480     libucrt:winapi_thunks.obj
 0002:000044d0       ??_C@_1BC@DNHGCMLG@?$AAa?$AAd?$AAv?$AAa?$AAp?$AAi?$AA3?$AA2@ 00000001800274d0     libucrt:winapi_thunks.obj
 0002:000044e8       ??_C@_1M@OAIMIKLP@?$AAn?$AAt?$AAd?$AAl?$AAl@ 00000001800274e8     libucrt:winapi_thunks.obj
 0002:00004500       ??_C@_1EG@DPGNFKGC@?$AAa?$AAp?$AAi?$AA?9?$AAm?$AAs?$AA?9?$AAw?$AAi?$AAn?$AA?9?$AAa?$AAp?$AAp?$AAm@ 0000000180027500     libucrt:winapi_thunks.obj
 0002:00004548       ??_C@_1O@BCCLBEOE@?$AAu?$AAs?$AAe?$AAr?$AA3?$AA2@ 0000000180027548     libucrt:winapi_thunks.obj
 0002:00004558       ??_C@_1BA@IAIFMGEF@?$AAe?$AAx?$AAt?$AA?9?$AAm?$AAs?$AA?9@ 0000000180027558     libucrt:winapi_thunks.obj
 0002:00004570       ??_C@_0BA@FHFNEAED@AreFileApisANSI@ 0000000180027570     libucrt:winapi_thunks.obj
 0002:000045b0       ??_C@_0O@KKBNKAPF@LCMapStringEx@ 00000001800275b0     libucrt:winapi_thunks.obj
 0002:000045c8       ??_C@_0BB@HBDEELFH@LocaleNameToLCID@ 00000001800275c8     libucrt:winapi_thunks.obj
 0002:000045e0       ??_C@_0CF@OJOFEIGO@AppPolicyGetProcessTerminationM@ 00000001800275e0     libucrt:winapi_thunks.obj
 0002:00004610       ??_C@_0BI@BKLFFAPO@SetThreadStackGuarantee@ 0000000180027610     libucrt:winapi_thunks.obj
 0002:000046b0       ??_C@_03OEIAHPBN@INF@      00000001800276b0     libucrt:cvt.obj
 0002:000046b4       ??_C@_03OJHLLCGB@inf@      00000001800276b4     libucrt:cvt.obj
 0002:000046b8       ??_C@_03LKNCIKJB@NAN@      00000001800276b8     libucrt:cvt.obj
 0002:000046bc       ??_C@_03LHCJEHON@nan@      00000001800276bc     libucrt:cvt.obj
 0002:000046c0       ??_C@_09OFJJIMPC@NAN?$CISNAN?$CJ@ 00000001800276c0     libucrt:cvt.obj
 0002:000046d0       ??_C@_09IPFBKMDL@nan?$CIsnan?$CJ@ 00000001800276d0     libucrt:cvt.obj
 0002:000046e0       ??_C@_08IKHNHAJ@NAN?$CIIND?$CJ@ 00000001800276e0     libucrt:cvt.obj
 0002:000046f0       ??_C@_08OFCDMILK@nan?$CIind?$CJ@ 00000001800276f0     libucrt:cvt.obj
 0002:000046fc       ??_C@_05KLBDPFGC@e?$CL000@ 00000001800276fc     libucrt:cvt.obj
 0002:00004710       __lc_time_c                0000000180027710     libucrt:nlsdata.obj
 0002:000049d0       ??_C@_03KOEHGMDN@Sun@      00000001800279d0     libucrt:nlsdata.obj
 0002:000049d4       ??_C@_03PDAGKDH@Mon@       00000001800279d4     libucrt:nlsdata.obj
 0002:000049d8       ??_C@_03NAGEINEP@Tue@      00000001800279d8     libucrt:nlsdata.obj
 0002:000049dc       ??_C@_03MHOMLAJA@Wed@      00000001800279dc     libucrt:nlsdata.obj
 0002:000049e0       ??_C@_03IOFIKPDN@Thu@      00000001800279e0     libucrt:nlsdata.obj
 0002:000049e4       ??_C@_03IDIOELNC@Fri@      00000001800279e4     libucrt:nlsdata.obj
 0002:000049e8       ??_C@_03FEFJNEK@Sat@       00000001800279e8     libucrt:nlsdata.obj
 0002:000049ec       ??_C@_06OOPIFAJ@Sunday@    00000001800279ec     libucrt:nlsdata.obj
 0002:000049f4       ??_C@_06JLEDEDGH@Monday@   00000001800279f4     libucrt:nlsdata.obj
 0002:00004a00       ??_C@_07BAAGCFCM@Tuesday@  0000000180027a00     libucrt:nlsdata.obj
 0002:00004a08       ??_C@_09DLIGFAKA@Wednesday@ 0000000180027a08     libucrt:nlsdata.obj
 0002:00004a18       ??_C@_08HACCIKIA@Thursday@ 0000000180027a18     libucrt:nlsdata.obj
 0002:00004a24       ??_C@_06JECMNKMI@Friday@   0000000180027a24     libucrt:nlsdata.obj
 0002:00004a30       ??_C@_08INBOOONO@Saturday@ 0000000180027a30     libucrt:nlsdata.obj
 0002:00004a3c       ??_C@_03JIHJHPIE@Jan@      0000000180027a3c     libucrt:nlsdata.obj
 0002:00004a40       ??_C@_03HJBDCHOM@Feb@      0000000180027a40     libucrt:nlsdata.obj
 0002:00004a44       ??_C@_03ODNJBKGA@Mar@      0000000180027a44     libucrt:nlsdata.obj
 0002:00004a48       ??_C@_03LEOLGMJP@Apr@      0000000180027a48     libucrt:nlsdata.obj
 0002:00004a4c       ??_C@_03CNMDKL@May@        0000000180027a4c     libucrt:nlsdata.obj
 0002:00004a50       ??_C@_03IDFGHECI@Jun@      0000000180027a50     libucrt:nlsdata.obj
 0002:00004a54       ??_C@_03LBGABGKK@Jul@      0000000180027a54     libucrt:nlsdata.obj
 0002:00004a58       ??_C@_03IFJFEIGA@Aug@      0000000180027a58     libucrt:nlsdata.obj
 0002:00004a5c       ??_C@_03GGCAPAJC@Sep@      0000000180027a5c     libucrt:nlsdata.obj
 0002:00004a60       ??_C@_03BMAOKBAD@Oct@      0000000180027a60     libucrt:nlsdata.obj
 0002:00004a64       ??_C@_03JPJOFNIA@Nov@      0000000180027a64     libucrt:nlsdata.obj
 0002:00004a68       ??_C@_03MKABNOCG@Dec@      0000000180027a68     libucrt:nlsdata.obj
 0002:00004a70       ??_C@_07CGJPFGJA@January@  0000000180027a70     libucrt:nlsdata.obj
 0002:00004a78       ??_C@_08GNJGEPFN@February@ 0000000180027a78     libucrt:nlsdata.obj
 0002:00004a84       ??_C@_05HPCKOFNC@March@    0000000180027a84     libucrt:nlsdata.obj
 0002:00004a8c       ??_C@_05DMJDNLEJ@April@    0000000180027a8c     libucrt:nlsdata.obj
 0002:00004a94       ??_C@_04CNLMGBGM@June@     0000000180027a94     libucrt:nlsdata.obj
 0002:00004a9c       ??_C@_04MIEPOIFP@July@     0000000180027a9c     libucrt:nlsdata.obj
 0002:00004aa4       ??_C@_06LBBHFDDG@August@   0000000180027aa4     libucrt:nlsdata.obj
 0002:00004ab0       ??_C@_09BHHEALKD@September@ 0000000180027ab0     libucrt:nlsdata.obj
 0002:00004ac0       ??_C@_07JJNFCEND@October@  0000000180027ac0     libucrt:nlsdata.obj
 0002:00004ac8       ??_C@_08HCHEGEOA@November@ 0000000180027ac8     libucrt:nlsdata.obj
 0002:00004ad8       ??_C@_08EDHMEBNP@December@ 0000000180027ad8     libucrt:nlsdata.obj
 0002:00004ae4       ??_C@_02DEDBPAFC@AM@       0000000180027ae4     libucrt:nlsdata.obj
 0002:00004ae8       ??_C@_02CJNFDJBF@PM@       0000000180027ae8     libucrt:nlsdata.obj
 0002:00004af0       ??_C@_08BPBNCDIB@MM?1dd?1yy@ 0000000180027af0     libucrt:nlsdata.obj
 0002:00004b00       ??_C@_0BE@CKGJFCPC@dddd?0?5MMMM?5dd?0?5yyyy@ 0000000180027b00     libucrt:nlsdata.obj
 0002:00004b18       ??_C@_08JCCMCCIL@HH?3mm?3ss@ 0000000180027b18     libucrt:nlsdata.obj
 0002:00004b28       ??_C@_17MBGCMIPB@?$AAS?$AAu?$AAn@ 0000000180027b28     libucrt:nlsdata.obj
 0002:00004b30       ??_C@_17KBOMKBF@?$AAM?$AAo?$AAn@ 0000000180027b30     libucrt:nlsdata.obj
 0002:00004b38       ??_C@_17BMKGEGOJ@?$AAT?$AAu?$AAe@ 0000000180027b38     libucrt:nlsdata.obj
 0002:00004b40       ??_C@_17CJEDCEPE@?$AAW?$AAe?$AAd@ 0000000180027b40     libucrt:nlsdata.obj
 0002:00004b48       ??_C@_17PDPHAADD@?$AAT?$AAh?$AAu@ 0000000180027b48     libucrt:nlsdata.obj
 0002:00004b50       ??_C@_17HFOLPPLP@?$AAF?$AAr?$AAi@ 0000000180027b50     libucrt:nlsdata.obj
 0002:00004b58       ??_C@_17GGIBDPIH@?$AAS?$AAa?$AAt@ 0000000180027b58     libucrt:nlsdata.obj
 0002:00004b60       ??_C@_1O@IHNHDHPB@?$AAS?$AAu?$AAn?$AAd?$AAa?$AAy@ 0000000180027b60     libucrt:nlsdata.obj
 0002:00004b70       ??_C@_1O@MMNBFLIA@?$AAM?$AAo?$AAn?$AAd?$AAa?$AAy@ 0000000180027b70     libucrt:nlsdata.obj
 0002:00004b80       ??_C@_1BA@ENFBFFEK@?$AAT?$AAu?$AAe?$AAs?$AAd?$AAa?$AAy@ 0000000180027b80     libucrt:nlsdata.obj
 0002:00004b90       ??_C@_1BE@EBOGMDOH@?$AAW?$AAe?$AAd?$AAn?$AAe?$AAs?$AAd?$AAa?$AAy@ 0000000180027b90     libucrt:nlsdata.obj
 0002:00004ba8       ??_C@_1BC@HHMNLIHE@?$AAT?$AAh?$AAu?$AAr?$AAs?$AAd?$AAa?$AAy@ 0000000180027ba8     libucrt:nlsdata.obj
 0002:00004bc0       ??_C@_1O@PDICJHAG@?$AAF?$AAr?$AAi?$AAd?$AAa?$AAy@ 0000000180027bc0     libucrt:nlsdata.obj
 0002:00004bd0       ??_C@_1BC@ENMNNPAJ@?$AAS?$AAa?$AAt?$AAu?$AAr?$AAd?$AAa?$AAy@ 0000000180027bd0     libucrt:nlsdata.obj
 0002:00004be8       ??_C@_17DKNBKCHM@?$AAJ?$AAa?$AAn@ 0000000180027be8     libucrt:nlsdata.obj
 0002:00004bf0       ??_C@_17LMDJEKJN@?$AAF?$AAe?$AAb@ 0000000180027bf0     libucrt:nlsdata.obj
 0002:00004bf8       ??_C@_17CKNLEDEC@?$AAM?$AAa?$AAr@ 0000000180027bf8     libucrt:nlsdata.obj
 0002:00004c00       ??_C@_17LFPOIHDD@?$AAA?$AAp?$AAr@ 0000000180027c00     libucrt:nlsdata.obj
 0002:00004c08       ??_C@_17PNNKMEED@?$AAM?$AAa?$AAy@ 0000000180027c08     libucrt:nlsdata.obj
 0002:00004c10       ??_C@_17KCJGOCPB@?$AAJ?$AAu?$AAn@ 0000000180027c10     libucrt:nlsdata.obj
 0002:00004c18       ??_C@_17IJPCKHK@?$AAJ?$AAu?$AAl@ 0000000180027c18     libucrt:nlsdata.obj
 0002:00004c20       ??_C@_17ICPELBCN@?$AAA?$AAu?$AAg@ 0000000180027c20     libucrt:nlsdata.obj
 0002:00004c28       ??_C@_17HCHCOKMG@?$AAS?$AAe?$AAp@ 0000000180027c28     libucrt:nlsdata.obj
 0002:00004c30       ??_C@_17FNLKOI@?$AAO?$AAc?$AAt@ 0000000180027c30     libucrt:nlsdata.obj
 0002:00004c38       ??_C@_17BBDMLCIG@?$AAN?$AAo?$AAv@ 0000000180027c38     libucrt:nlsdata.obj
 0002:00004c40       ??_C@_17EGKACKIF@?$AAD?$AAe?$AAc@ 0000000180027c40     libucrt:nlsdata.obj
 0002:00004c48       ??_C@_1BA@EFMEIEBA@?$AAJ?$AAa?$AAn?$AAu?$AAa?$AAr?$AAy@ 0000000180027c48     libucrt:nlsdata.obj
 0002:00004c58       ??_C@_1BC@JGDDFFAM@?$AAF?$AAe?$AAb?$AAr?$AAu?$AAa?$AAr?$AAy@ 0000000180027c58     libucrt:nlsdata.obj
 0002:00004c70       ??_C@_1M@IKEENEDF@?$AAM?$AAa?$AAr?$AAc?$AAh@ 0000000180027c70     libucrt:nlsdata.obj
 0002:00004c80       ??_C@_1M@GJNLMHFD@?$AAA?$AAp?$AAr?$AAi?$AAl@ 0000000180027c80     libucrt:nlsdata.obj
 0002:00004c90       ??_C@_19EPFLPGAP@?$AAJ?$AAu?$AAn?$AAe@ 0000000180027c90     libucrt:nlsdata.obj
 0002:00004ca0       ??_C@_19BIFMLPCD@?$AAJ?$AAu?$AAl?$AAy@ 0000000180027ca0     libucrt:nlsdata.obj
 0002:00004cb0       ??_C@_1O@PAHLKOAC@?$AAA?$AAu?$AAg?$AAu?$AAs?$AAt@ 0000000180027cb0     libucrt:nlsdata.obj
 0002:00004cc0       ??_C@_1BE@DKAAMBJL@?$AAS?$AAe?$AAp?$AAt?$AAe?$AAm?$AAb?$AAe?$AAr@ 0000000180027cc0     libucrt:nlsdata.obj
 0002:00004cd8       ??_C@_1BA@EPANDLNG@?$AAO?$AAc?$AAt?$AAo?$AAb?$AAe?$AAr@ 0000000180027cd8     libucrt:nlsdata.obj
 0002:00004ce8       ??_C@_1BC@BGLIFPF@?$AAN?$AAo?$AAv?$AAe?$AAm?$AAb?$AAe?$AAr@ 0000000180027ce8     libucrt:nlsdata.obj
 0002:00004d00       ??_C@_1BC@FEMKIFH@?$AAD?$AAe?$AAc?$AAe?$AAm?$AAb?$AAe?$AAr@ 0000000180027d00     libucrt:nlsdata.obj
 0002:00004d14       ??_C@_15ODEHAHHF@?$AAA?$AAM@ 0000000180027d14     libucrt:nlsdata.obj
 0002:00004d1c       ??_C@_15CLMNNGEL@?$AAP?$AAM@ 0000000180027d1c     libucrt:nlsdata.obj
 0002:00004d28       ??_C@_1BC@IEBCMHCM@?$AAM?$AAM?$AA?1?$AAd?$AAd?$AA?1?$AAy?$AAy@ 0000000180027d28     libucrt:nlsdata.obj
 0002:00004d40       ??_C@_1CI@KNAKOEBC@?$AAd?$AAd?$AAd?$AAd?$AA?0?$AA?5?$AAM?$AAM?$AAM?$AAM?$AA?5?$AAd?$AAd?$AA?0?$AA?5@ 0000000180027d40     libucrt:nlsdata.obj
 0002:00004d68       ??_C@_1BC@GDGBMEMK@?$AAH?$AAH?$AA?3?$AAm?$AAm?$AA?3?$AAs?$AAs@ 0000000180027d68     libucrt:nlsdata.obj
 0002:00004d80       ??_C@_1M@BMHNFIME@?$AAe?$AAn?$AA?9?$AAU?$AAS@ 0000000180027d80     libucrt:nlsdata.obj
 0002:00004db0       ??_C@_1M@HPNHIDJI@?$AAj?$AAa?$AA?9?$AAJ?$AAP@ 0000000180027db0     libucrt:mbctype.obj
 0002:00004dc0       ??_C@_1M@BIBDDEMK@?$AAz?$AAh?$AA?9?$AAC?$AAN@ 0000000180027dc0     libucrt:mbctype.obj
 0002:00004dd0       ??_C@_1M@JLOOOEGK@?$AAk?$AAo?$AA?9?$AAK?$AAR@ 0000000180027dd0     libucrt:mbctype.obj
 0002:00004de0       ??_C@_1M@CLNBBOPM@?$AAz?$AAh?$AA?9?$AAT?$AAW@ 0000000180027de0     libucrt:mbctype.obj
 0002:00004df0       __newctype                 0000000180027df0     libucrt:ctype.obj
 0002:000050f0       __newclmap                 00000001800280f0     libucrt:ctype.obj
 0002:00005270       __newcumap                 0000000180028270     libucrt:ctype.obj
 0002:000053f0       _wctype                    00000001800283f0     libucrt:ctype.obj
 0002:00006440       ??_C@_15EMKDOKLE@?$AAa?$AAr@ 0000000180029440     libucrt:lcidtoname_downlevel.obj
 0002:00006448       ??_C@_15KNPADPLH@?$AAb?$AAg@ 0000000180029448     libucrt:lcidtoname_downlevel.obj
 0002:00006450       ??_C@_15EDMHLDMO@?$AAc?$AAa@ 0000000180029450     libucrt:lcidtoname_downlevel.obj
 0002:00006458       ??_C@_1O@BPEAJADD@?$AAz?$AAh?$AA?9?$AAC?$AAH?$AAS@ 0000000180029458     libucrt:lcidtoname_downlevel.obj
 0002:00006468       ??_C@_15LJNHCMNK@?$AAc?$AAs@ 0000000180029468     libucrt:lcidtoname_downlevel.obj
 0002:00006470       ??_C@_15FOMCIDHG@?$AAd?$AAa@ 0000000180029470     libucrt:lcidtoname_downlevel.obj
 0002:00006478       ??_C@_15NBKABECB@?$AAd?$AAe@ 0000000180029478     libucrt:lcidtoname_downlevel.obj
 0002:00006480       ??_C@_15GHPEIIAO@?$AAe?$AAl@ 0000000180029480     libucrt:lcidtoname_downlevel.obj
 0002:00006488       ??_C@_15MNPNEAIF@?$AAe?$AAn@ 0000000180029488     libucrt:lcidtoname_downlevel.obj
 0002:00006490       ??_C@_15GPIOMPMH@?$AAe?$AAs@ 0000000180029490     libucrt:lcidtoname_downlevel.obj
 0002:00006498       ??_C@_15NGLOAKJC@?$AAf?$AAi@ 0000000180029498     libucrt:lcidtoname_downlevel.obj
 0002:000064a0       ??_C@_15FBKGNKAM@?$AAf?$AAr@ 00000001800294a0     libucrt:lcidtoname_downlevel.obj
 0002:000064a8       ??_C@_15KGGCNEFK@?$AAh?$AAe@ 00000001800294a8     libucrt:lcidtoname_downlevel.obj
 0002:000064b0       ??_C@_15PGHLIDMF@?$AAh?$AAu@ 00000001800294b0     libucrt:lcidtoname_downlevel.obj
 0002:000064b8       ??_C@_15BIEMAPLM@?$AAi?$AAs@ 00000001800294b8     libucrt:lcidtoname_downlevel.obj
 0002:000064c0       ??_C@_15IFJLDHAF@?$AAi?$AAt@ 00000001800294c0     libucrt:lcidtoname_downlevel.obj
 0002:000064c8       ??_C@_15GEMIOCAG@?$AAj?$AAa@ 00000001800294c8     libucrt:lcidtoname_downlevel.obj
 0002:000064d0       ??_C@_15EPELEGJA@?$AAk?$AAo@ 00000001800294d0     libucrt:lcidtoname_downlevel.obj
 0002:000064d8       ??_C@_15NDDHIMN@?$AAn?$AAl@ 00000001800294d8     libucrt:lcidtoname_downlevel.obj
 0002:000064e0       ??_C@_15BPIGNHCD@?$AAn?$AAo@ 00000001800294e0     libucrt:lcidtoname_downlevel.obj
 0002:000064e8       ??_C@_15DEOPBLCG@?$AAp?$AAl@ 00000001800294e8     libucrt:lcidtoname_downlevel.obj
 0002:000064f0       ??_C@_15KBECGEFG@?$AAp?$AAt@ 00000001800294f0     libucrt:lcidtoname_downlevel.obj
 0002:000064f8       ??_C@_15GLJCBFMD@?$AAr?$AAo@ 00000001800294f8     libucrt:lcidtoname_downlevel.obj
 0002:00006500       ??_C@_15FEDGKCDI@?$AAr?$AAu@ 0000000180029500     libucrt:lcidtoname_downlevel.obj
 0002:00006508       ??_C@_15GLKMLLHM@?$AAh?$AAr@ 0000000180029508     libucrt:lcidtoname_downlevel.obj
 0002:00006510       ??_C@_15CPKMFBDB@?$AAs?$AAk@ 0000000180029510     libucrt:lcidtoname_downlevel.obj
 0002:00006518       ??_C@_15BAAIOGMK@?$AAs?$AAq@ 0000000180029518     libucrt:lcidtoname_downlevel.obj
 0002:00006520       ??_C@_15INNPNOHD@?$AAs?$AAv@ 0000000180029520     libucrt:lcidtoname_downlevel.obj
 0002:00006528       ??_C@_15CABMMOGH@?$AAt?$AAh@ 0000000180029528     libucrt:lcidtoname_downlevel.obj
 0002:00006530       ??_C@_15BPLIHJJM@?$AAt?$AAr@ 0000000180029530     libucrt:lcidtoname_downlevel.obj
 0002:00006538       ??_C@_15NEOEKKDJ@?$AAu?$AAr@ 0000000180029538     libucrt:lcidtoname_downlevel.obj
 0002:00006540       ??_C@_15NFICGAJK@?$AAi?$AAd@ 0000000180029540     libucrt:lcidtoname_downlevel.obj
 0002:00006548       ??_C@_15PJPFLCCM@?$AAu?$AAk@ 0000000180029548     libucrt:lcidtoname_downlevel.obj
 0002:00006550       ??_C@_15HPJPHDM@?$AAb?$AAe@ 0000000180029550     libucrt:lcidtoname_downlevel.obj
 0002:00006558       ??_C@_15LCHLGJII@?$AAs?$AAl@ 0000000180029558     libucrt:lcidtoname_downlevel.obj
 0002:00006560       ??_C@_15PCFJPHHO@?$AAe?$AAt@ 0000000180029560     libucrt:lcidtoname_downlevel.obj
 0002:00006568       ??_C@_15HPFPGODN@?$AAl?$AAv@ 0000000180029568     libucrt:lcidtoname_downlevel.obj
 0002:00006570       ??_C@_15NFFGKGLG@?$AAl?$AAt@ 0000000180029570     libucrt:lcidtoname_downlevel.obj
 0002:00006578       ??_C@_15BDAKCCHN@?$AAf?$AAa@ 0000000180029578     libucrt:lcidtoname_downlevel.obj
 0002:00006580       ??_C@_15NFGIAIAJ@?$AAv?$AAi@ 0000000180029580     libucrt:lcidtoname_downlevel.obj
 0002:00006588       ??_C@_15LMKNDMHN@?$AAh?$AAy@ 0000000180029588     libucrt:lcidtoname_downlevel.obj
 0002:00006590       ??_C@_15IJBHMCFL@?$AAa?$AAz@ 0000000180029590     libucrt:lcidtoname_downlevel.obj
 0002:00006598       ??_C@_15EKOFJABL@?$AAe?$AAu@ 0000000180029598     libucrt:lcidtoname_downlevel.obj
 0002:000065a0       ??_C@_15BGHADCNK@?$AAm?$AAk@ 00000001800295a0     libucrt:lcidtoname_downlevel.obj
 0002:000065a8       ??_C@_15JDNICKHM@?$AAa?$AAf@ 00000001800295a8     libucrt:lcidtoname_downlevel.obj
 0002:000065b0       ??_C@_15KPJEDBKD@?$AAk?$AAa@ 00000001800295b0     libucrt:lcidtoname_downlevel.obj
 0002:000065b8       ??_C@_15PDNFFFEO@?$AAf?$AAo@ 00000001800295b8     libucrt:lcidtoname_downlevel.obj
 0002:000065c0       ??_C@_15OMLEGLOC@?$AAh?$AAi@ 00000001800295c0     libucrt:lcidtoname_downlevel.obj
 0002:000065c8       ??_C@_15IDNNENKK@?$AAm?$AAs@ 00000001800295c8     libucrt:lcidtoname_downlevel.obj
 0002:000065d0       ??_C@_15MACJNBMH@?$AAk?$AAk@ 00000001800295d0     libucrt:lcidtoname_downlevel.obj
 0002:000065d8       ??_C@_15DKDJEOND@?$AAk?$AAy@ 00000001800295d8     libucrt:lcidtoname_downlevel.obj
 0002:000065e0       ??_C@_15DFGDLJBG@?$AAs?$AAw@ 00000001800295e0     libucrt:lcidtoname_downlevel.obj
 0002:000065e8       ??_C@_15BBFAICNG@?$AAu?$AAz@ 00000001800295e8     libucrt:lcidtoname_downlevel.obj
 0002:000065f0       ??_C@_15DKNDCGEA@?$AAt?$AAt@ 00000001800295f0     libucrt:lcidtoname_downlevel.obj
 0002:000065f8       ??_C@_15MGIFMDPL@?$AAp?$AAa@ 00000001800295f8     libucrt:lcidtoname_downlevel.obj
 0002:00006600       ??_C@_15HCNDBBA@?$AAg?$AAu@ 0000000180029600     libucrt:lcidtoname_downlevel.obj
 0002:00006608       ??_C@_15FNBEIBON@?$AAt?$AAa@ 0000000180029608     libucrt:lcidtoname_downlevel.obj
 0002:00006610       ??_C@_15NCHGBGLK@?$AAt?$AAe@ 0000000180029610     libucrt:lcidtoname_downlevel.obj
 0002:00006618       ??_C@_15PHPHCBPF@?$AAk?$AAn@ 0000000180029618     libucrt:lcidtoname_downlevel.obj
 0002:00006620       ??_C@_15DLGBCKMP@?$AAm?$AAr@ 0000000180029620     libucrt:lcidtoname_downlevel.obj
 0002:00006628       ??_C@_15EABBLBFF@?$AAs?$AAa@ 0000000180029628     libucrt:lcidtoname_downlevel.obj
 0002:00006630       ??_C@_15CBKOMCOI@?$AAm?$AAn@ 0000000180029630     libucrt:lcidtoname_downlevel.obj
 0002:00006638       ??_C@_15CKDMCJAF@?$AAg?$AAl@ 0000000180029638     libucrt:lcidtoname_downlevel.obj
 0002:00006640       ??_C@_17CNJFBPG@?$AAk?$AAo?$AAk@ 0000000180029640     libucrt:lcidtoname_downlevel.obj
 0002:00006648       ??_C@_17FFBJICPL@?$AAs?$AAy?$AAr@ 0000000180029648     libucrt:lcidtoname_downlevel.obj
 0002:00006650       ??_C@_17KPNDCPAF@?$AAd?$AAi?$AAv@ 0000000180029650     libucrt:lcidtoname_downlevel.obj
 0002:00006658       ??_C@_1M@OKAHONE@?$AAa?$AAr?$AA?9?$AAS?$AAA@ 0000000180029658     libucrt:lcidtoname_downlevel.obj
 0002:00006668       ??_C@_1M@FFFIGIGK@?$AAb?$AAg?$AA?9?$AAB?$AAG@ 0000000180029668     libucrt:lcidtoname_downlevel.obj
 0002:00006678       ??_C@_1M@BJNKEDC@?$AAc?$AAa?$AA?9?$AAE?$AAS@ 0000000180029678     libucrt:lcidtoname_downlevel.obj
 0002:00006688       ??_C@_1M@IJJHFJHA@?$AAc?$AAs?$AA?9?$AAC?$AAZ@ 0000000180029688     libucrt:lcidtoname_downlevel.obj
 0002:00006698       ??_C@_1M@CLPEOBGI@?$AAd?$AAa?$AA?9?$AAD?$AAK@ 0000000180029698     libucrt:lcidtoname_downlevel.obj
 0002:000066a8       ??_C@_1M@MCMADGCB@?$AAd?$AAe?$AA?9?$AAD?$AAE@ 00000001800296a8     libucrt:lcidtoname_downlevel.obj
 0002:000066b8       ??_C@_1M@OOCKEMAM@?$AAe?$AAl?$AA?9?$AAG?$AAR@ 00000001800296b8     libucrt:lcidtoname_downlevel.obj
 0002:000066c8       ??_C@_1M@DDNJFGID@?$AAf?$AAi?$AA?9?$AAF?$AAI@ 00000001800296c8     libucrt:lcidtoname_downlevel.obj
 0002:000066d8       ??_C@_1M@GLIPPMAC@?$AAf?$AAr?$AA?9?$AAF?$AAR@ 00000001800296d8     libucrt:lcidtoname_downlevel.obj
 0002:000066e8       ??_C@_1M@GFMCHPE@?$AAh?$AAe?$AA?9?$AAI?$AAL@ 00000001800296e8     libucrt:lcidtoname_downlevel.obj
 0002:000066f8       ??_C@_1M@MHLPGNKM@?$AAh?$AAu?$AA?9?$AAH?$AAU@ 00000001800296f8     libucrt:lcidtoname_downlevel.obj
 0002:00006708       ??_C@_1M@LPDDNNPN@?$AAi?$AAs?$AA?9?$AAI?$AAS@ 0000000180029708     libucrt:lcidtoname_downlevel.obj
 0002:00006718       ??_C@_1M@MADIPODN@?$AAi?$AAt?$AA?9?$AAI?$AAT@ 0000000180029718     libucrt:lcidtoname_downlevel.obj
 0002:00006728       ??_C@_1M@IHBJJGG@?$AAn?$AAl?$AA?9?$AAN?$AAL@ 0000000180029728     libucrt:lcidtoname_downlevel.obj
 0002:00006738       ??_C@_1M@EANAGDL@?$AAn?$AAb?$AA?9?$AAN?$AAO@ 0000000180029738     libucrt:lcidtoname_downlevel.obj
 0002:00006748       ??_C@_1M@NEIEMEGP@?$AAp?$AAl?$AA?9?$AAP?$AAL@ 0000000180029748     libucrt:lcidtoname_downlevel.obj
 0002:00006758       ??_C@_1M@BOCFIGEP@?$AAp?$AAt?$AA?9?$AAB?$AAR@ 0000000180029758     libucrt:lcidtoname_downlevel.obj
 0002:00006768       ??_C@_1M@IMPFOPBG@?$AAr?$AAo?$AA?9?$AAR?$AAO@ 0000000180029768     libucrt:lcidtoname_downlevel.obj
 0002:00006778       ??_C@_1M@IDNNEJMM@?$AAr?$AAu?$AA?9?$AAR?$AAU@ 0000000180029778     libucrt:lcidtoname_downlevel.obj
 0002:00006788       ??_C@_1M@LILEEOGM@?$AAh?$AAr?$AA?9?$AAH?$AAR@ 0000000180029788     libucrt:lcidtoname_downlevel.obj
 0002:00006798       ??_C@_1M@FKIFEHPB@?$AAs?$AAk?$AA?9?$AAS?$AAK@ 0000000180029798     libucrt:lcidtoname_downlevel.obj
 0002:000067a8       ??_C@_1M@LJMAMNPJ@?$AAs?$AAq?$AA?9?$AAA?$AAL@ 00000001800297a8     libucrt:lcidtoname_downlevel.obj
 0002:000067b8       ??_C@_1M@GIAKDKJK@?$AAs?$AAv?$AA?9?$AAS?$AAE@ 00000001800297b8     libucrt:lcidtoname_downlevel.obj
 0002:000067c8       ??_C@_1M@MKJKIKCL@?$AAt?$AAh?$AA?9?$AAT?$AAH@ 00000001800297c8     libucrt:lcidtoname_downlevel.obj
 0002:000067d8       ??_C@_1M@MFLCCMPB@?$AAt?$AAr?$AA?9?$AAT?$AAR@ 00000001800297d8     libucrt:lcidtoname_downlevel.obj
 0002:000067e8       ??_C@_1M@OIJHDKJN@?$AAu?$AAr?$AA?9?$AAP?$AAK@ 00000001800297e8     libucrt:lcidtoname_downlevel.obj
 0002:000067f8       ??_C@_1M@LHIPCIEK@?$AAi?$AAd?$AA?9?$AAI?$AAD@ 00000001800297f8     libucrt:lcidtoname_downlevel.obj
 0002:00006808       ??_C@_1M@MFMOBGI@?$AAu?$AAk?$AA?9?$AAU?$AAA@ 0000000180029808     libucrt:lcidtoname_downlevel.obj
 0002:00006818       ??_C@_1M@OBGLJIPL@?$AAb?$AAe?$AA?9?$AAB?$AAY@ 0000000180029818     libucrt:lcidtoname_downlevel.obj
 0002:00006828       ??_C@_1M@BCFAJEAD@?$AAs?$AAl?$AA?9?$AAS?$AAI@ 0000000180029828     libucrt:lcidtoname_downlevel.obj
 0002:00006838       ??_C@_1M@FKFFEDDN@?$AAe?$AAt?$AA?9?$AAE?$AAE@ 0000000180029838     libucrt:lcidtoname_downlevel.obj
 0002:00006848       ??_C@_1M@KGKKAACI@?$AAl?$AAv?$AA?9?$AAL?$AAV@ 0000000180029848     libucrt:lcidtoname_downlevel.obj
 0002:00006858       ??_C@_1M@IFGBIJO@?$AAl?$AAt?$AA?9?$AAL?$AAT@ 0000000180029858     libucrt:lcidtoname_downlevel.obj
 0002:00006868       ??_C@_1M@FGEAHEDM@?$AAf?$AAa?$AA?9?$AAI?$AAR@ 0000000180029868     libucrt:lcidtoname_downlevel.obj
 0002:00006878       ??_C@_1M@KBMAIBFN@?$AAv?$AAi?$AA?9?$AAV?$AAN@ 0000000180029878     libucrt:lcidtoname_downlevel.obj
 0002:00006888       ??_C@_1M@GPCBKDJK@?$AAh?$AAy?$AA?9?$AAA?$AAM@ 0000000180029888     libucrt:lcidtoname_downlevel.obj
 0002:00006898       ??_C@_1BG@BECMDDJB@?$AAa?$AAz?$AA?9?$AAA?$AAZ?$AA?9?$AAL?$AAa?$AAt?$AAn@ 0000000180029898     libucrt:lcidtoname_downlevel.obj
 0002:000068b0       ??_C@_1M@MAOFCAEA@?$AAe?$AAu?$AA?9?$AAE?$AAS@ 00000001800298b0     libucrt:lcidtoname_downlevel.obj
 0002:000068c0       ??_C@_1M@IGHABKPI@?$AAm?$AAk?$AA?9?$AAM?$AAK@ 00000001800298c0     libucrt:lcidtoname_downlevel.obj
 0002:000068d0       ??_C@_1M@IAIGNEJG@?$AAt?$AAn?$AA?9?$AAZ?$AAA@ 00000001800298d0     libucrt:lcidtoname_downlevel.obj
 0002:000068e0       ??_C@_1M@IIJCOJFA@?$AAx?$AAh?$AA?9?$AAZ?$AAA@ 00000001800298e0     libucrt:lcidtoname_downlevel.obj
 0002:000068f0       ??_C@_1M@LGPJHNJH@?$AAz?$AAu?$AA?9?$AAZ?$AAA@ 00000001800298f0     libucrt:lcidtoname_downlevel.obj
 0002:00006900       ??_C@_1M@HOKAOIO@?$AAa?$AAf?$AA?9?$AAZ?$AAA@ 0000000180029900     libucrt:lcidtoname_downlevel.obj
 0002:00006910       ??_C@_1M@DPCLHLIE@?$AAk?$AAa?$AA?9?$AAG?$AAE@ 0000000180029910     libucrt:lcidtoname_downlevel.obj
 0002:00006920       ??_C@_1M@BLKMHJBI@?$AAf?$AAo?$AA?9?$AAF?$AAO@ 0000000180029920     libucrt:lcidtoname_downlevel.obj
 0002:00006930       ??_C@_1M@LGGJAPPB@?$AAh?$AAi?$AA?9?$AAI?$AAN@ 0000000180029930     libucrt:lcidtoname_downlevel.obj
 0002:00006940       ??_C@_1M@FIKPIHFE@?$AAm?$AAt?$AA?9?$AAM?$AAT@ 0000000180029940     libucrt:lcidtoname_downlevel.obj
 0002:00006950       ??_C@_1M@HEGGPBFA@?$AAs?$AAe?$AA?9?$AAN?$AAO@ 0000000180029950     libucrt:lcidtoname_downlevel.obj
 0002:00006960       ??_C@_1M@EIBJEEPA@?$AAm?$AAs?$AA?9?$AAM?$AAY@ 0000000180029960     libucrt:lcidtoname_downlevel.obj
 0002:00006970       ??_C@_1M@FHLBGMPP@?$AAk?$AAk?$AA?9?$AAK?$AAZ@ 0000000180029970     libucrt:lcidtoname_downlevel.obj
 0002:00006980       ??_C@_1M@NGJJLCGI@?$AAk?$AAy?$AA?9?$AAK?$AAG@ 0000000180029980     libucrt:lcidtoname_downlevel.obj
 0002:00006990       ??_C@_1M@GIENNBFC@?$AAs?$AAw?$AA?9?$AAK?$AAE@ 0000000180029990     libucrt:lcidtoname_downlevel.obj
 0002:000069a0       ??_C@_1BG@NDGMJIMJ@?$AAu?$AAz?$AA?9?$AAU?$AAZ?$AA?9?$AAL?$AAa?$AAt?$AAn@ 00000001800299a0     libucrt:lcidtoname_downlevel.obj
 0002:000069b8       ??_C@_1M@IDCCIHBC@?$AAt?$AAt?$AA?9?$AAR?$AAU@ 00000001800299b8     libucrt:lcidtoname_downlevel.obj
 0002:000069c8       ??_C@_1M@LOICPMOJ@?$AAb?$AAn?$AA?9?$AAI?$AAN@ 00000001800299c8     libucrt:lcidtoname_downlevel.obj
 0002:000069d8       ??_C@_1M@KPKKNEAH@?$AAp?$AAa?$AA?9?$AAI?$AAN@ 00000001800299d8     libucrt:lcidtoname_downlevel.obj
 0002:000069e8       ??_C@_1M@PJGPPBOG@?$AAg?$AAu?$AA?9?$AAI?$AAN@ 00000001800299e8     libucrt:lcidtoname_downlevel.obj
 0002:000069f8       ??_C@_1M@KMKMOPHI@?$AAt?$AAa?$AA?9?$AAI?$AAN@ 00000001800299f8     libucrt:lcidtoname_downlevel.obj
 0002:00006a08       ??_C@_1M@KFEHEPAC@?$AAt?$AAe?$AA?9?$AAI?$AAN@ 0000000180029a08     libucrt:lcidtoname_downlevel.obj
 0002:00006a18       ??_C@_1M@CDCLMGHI@?$AAk?$AAn?$AA?9?$AAI?$AAN@ 0000000180029a18     libucrt:lcidtoname_downlevel.obj
 0002:00006a28       ??_C@_1M@MIODLDKF@?$AAm?$AAl?$AA?9?$AAI?$AAN@ 0000000180029a28     libucrt:lcidtoname_downlevel.obj
 0002:00006a38       ??_C@_1M@PBIEACPO@?$AAm?$AAr?$AA?9?$AAI?$AAN@ 0000000180029a38     libucrt:lcidtoname_downlevel.obj
 0002:00006a48       ??_C@_1M@NIDEAGPH@?$AAs?$AAa?$AA?9?$AAI?$AAN@ 0000000180029a48     libucrt:lcidtoname_downlevel.obj
 0002:00006a58       ??_C@_1M@FHIHCBIO@?$AAm?$AAn?$AA?9?$AAM?$AAN@ 0000000180029a58     libucrt:lcidtoname_downlevel.obj
 0002:00006a68       ??_C@_1M@JAIJPENP@?$AAc?$AAy?$AA?9?$AAG?$AAB@ 0000000180029a68     libucrt:lcidtoname_downlevel.obj
 0002:00006a78       ??_C@_1M@PHGFBEPN@?$AAg?$AAl?$AA?9?$AAE?$AAS@ 0000000180029a78     libucrt:lcidtoname_downlevel.obj
 0002:00006a88       ??_C@_1O@KPIPDNCP@?$AAk?$AAo?$AAk?$AA?9?$AAI?$AAN@ 0000000180029a88     libucrt:lcidtoname_downlevel.obj
 0002:00006a98       ??_C@_1O@KNHJLDJA@?$AAs?$AAy?$AAr?$AA?9?$AAS?$AAY@ 0000000180029a98     libucrt:lcidtoname_downlevel.obj
 0002:00006aa8       ??_C@_1O@MKEKBLAH@?$AAd?$AAi?$AAv?$AA?9?$AAM?$AAV@ 0000000180029aa8     libucrt:lcidtoname_downlevel.obj
 0002:00006ab8       ??_C@_1O@OHDCKDDF@?$AAq?$AAu?$AAz?$AA?9?$AAB?$AAO@ 0000000180029ab8     libucrt:lcidtoname_downlevel.obj
 0002:00006ac8       ??_C@_1M@LEPJNLFD@?$AAn?$AAs?$AA?9?$AAZ?$AAA@ 0000000180029ac8     libucrt:lcidtoname_downlevel.obj
 0002:00006ad8       ??_C@_1M@OMLEIIJB@?$AAm?$AAi?$AA?9?$AAN?$AAZ@ 0000000180029ad8     libucrt:lcidtoname_downlevel.obj
 0002:00006ae8       ??_C@_1M@PMPEAILG@?$AAa?$AAr?$AA?9?$AAI?$AAQ@ 0000000180029ae8     libucrt:lcidtoname_downlevel.obj
 0002:00006af8       ??_C@_1M@CNKPNOEE@?$AAd?$AAe?$AA?9?$AAC?$AAH@ 0000000180029af8     libucrt:lcidtoname_downlevel.obj
 0002:00006b08       ??_C@_1M@LKMGMLKO@?$AAe?$AAn?$AA?9?$AAG?$AAB@ 0000000180029b08     libucrt:lcidtoname_downlevel.obj
 0002:00006b18       ??_C@_1M@PGKJFFGL@?$AAe?$AAs?$AA?9?$AAM?$AAX@ 0000000180029b18     libucrt:lcidtoname_downlevel.obj
 0002:00006b28       ??_C@_1M@DNNANBDC@?$AAf?$AAr?$AA?9?$AAB?$AAE@ 0000000180029b28     libucrt:lcidtoname_downlevel.obj
 0002:00006b38       ??_C@_1M@HLGMDFHM@?$AAi?$AAt?$AA?9?$AAC?$AAH@ 0000000180029b38     libucrt:lcidtoname_downlevel.obj
 0002:00006b48       ??_C@_1M@CLLBGJH@?$AAn?$AAl?$AA?9?$AAB?$AAE@ 0000000180029b48     libucrt:lcidtoname_downlevel.obj
 0002:00006b58       ??_C@_1M@BODBOGLF@?$AAn?$AAn?$AA?9?$AAN?$AAO@ 0000000180029b58     libucrt:lcidtoname_downlevel.obj
 0002:00006b68       ??_C@_1M@HFFAHKAD@?$AAp?$AAt?$AA?9?$AAP?$AAT@ 0000000180029b68     libucrt:lcidtoname_downlevel.obj
 0002:00006b78       ??_C@_1BG@LNOAKHIE@?$AAs?$AAr?$AA?9?$AAS?$AAP?$AA?9?$AAL?$AAa?$AAt?$AAn@ 0000000180029b78     libucrt:lcidtoname_downlevel.obj
 0002:00006b90       ??_C@_1M@HBMHBGAK@?$AAs?$AAv?$AA?9?$AAF?$AAI@ 0000000180029b90     libucrt:lcidtoname_downlevel.obj
 0002:00006ba0       ??_C@_1BG@DGCJGJBE@?$AAa?$AAz?$AA?9?$AAA?$AAZ?$AA?9?$AAC?$AAy?$AAr?$AAl@ 0000000180029ba0     libucrt:lcidtoname_downlevel.obj
 0002:00006bb8       ??_C@_1M@KEJDAAHB@?$AAs?$AAe?$AA?9?$AAS?$AAE@ 0000000180029bb8     libucrt:lcidtoname_downlevel.obj
 0002:00006bc8       ??_C@_1M@HEIBJJAD@?$AAm?$AAs?$AA?9?$AAB?$AAN@ 0000000180029bc8     libucrt:lcidtoname_downlevel.obj
 0002:00006bd8       ??_C@_1BG@PBGJMCEM@?$AAu?$AAz?$AA?9?$AAU?$AAZ?$AA?9?$AAC?$AAy?$AAr?$AAl@ 0000000180029bd8     libucrt:lcidtoname_downlevel.obj
 0002:00006bf0       ??_C@_1O@LAOBCMDF@?$AAq?$AAu?$AAz?$AA?9?$AAE?$AAC@ 0000000180029bf0     libucrt:lcidtoname_downlevel.obj
 0002:00006c00       ??_C@_1M@POEEMAIO@?$AAa?$AAr?$AA?9?$AAE?$AAG@ 0000000180029c00     libucrt:lcidtoname_downlevel.obj
 0002:00006c10       ??_C@_1M@EFAKDEDL@?$AAz?$AAh?$AA?9?$AAH?$AAK@ 0000000180029c10     libucrt:lcidtoname_downlevel.obj
 0002:00006c20       ??_C@_1M@HKKIJHGI@?$AAd?$AAe?$AA?9?$AAA?$AAT@ 0000000180029c20     libucrt:lcidtoname_downlevel.obj
 0002:00006c30       ??_C@_1M@KBFBEHJF@?$AAe?$AAn?$AA?9?$AAA?$AAU@ 0000000180029c30     libucrt:lcidtoname_downlevel.obj
 0002:00006c40       ??_C@_1M@MNPLFAAH@?$AAe?$AAs?$AA?9?$AAE?$AAS@ 0000000180029c40     libucrt:lcidtoname_downlevel.obj
 0002:00006c50       ??_C@_1M@HJOOJFMA@?$AAf?$AAr?$AA?9?$AAC?$AAA@ 0000000180029c50     libucrt:lcidtoname_downlevel.obj
 0002:00006c60       ??_C@_1BG@JPOFPNAB@?$AAs?$AAr?$AA?9?$AAS?$AAP?$AA?9?$AAC?$AAy?$AAr?$AAl@ 0000000180029c60     libucrt:lcidtoname_downlevel.obj
 0002:00006c78       ??_C@_1M@LNFOCMOB@?$AAs?$AAe?$AA?9?$AAF?$AAI@ 0000000180029c78     libucrt:lcidtoname_downlevel.obj
 0002:00006c88       ??_C@_1O@MGJBOAMB@?$AAq?$AAu?$AAz?$AA?9?$AAP?$AAE@ 0000000180029c88     libucrt:lcidtoname_downlevel.obj
 0002:00006c98       ??_C@_1M@GJINLBOK@?$AAa?$AAr?$AA?9?$AAL?$AAY@ 0000000180029c98     libucrt:lcidtoname_downlevel.obj
 0002:00006ca8       ??_C@_1M@GGMNHJNL@?$AAz?$AAh?$AA?9?$AAS?$AAG@ 0000000180029ca8     libucrt:lcidtoname_downlevel.obj
 0002:00006cb8       ??_C@_1M@HOIKODND@?$AAd?$AAe?$AA?9?$AAL?$AAU@ 0000000180029cb8     libucrt:lcidtoname_downlevel.obj
 0002:00006cc8       ??_C@_1M@DDOCCGFG@?$AAe?$AAn?$AA?9?$AAC?$AAA@ 0000000180029cc8     libucrt:lcidtoname_downlevel.obj
 0002:00006cd8       ??_C@_1M@BNOEMJLF@?$AAe?$AAs?$AA?9?$AAG?$AAT@ 0000000180029cd8     libucrt:lcidtoname_downlevel.obj
 0002:00006ce8       ??_C@_1M@EOGNKEK@?$AAf?$AAr?$AA?9?$AAC?$AAH@ 0000000180029ce8     libucrt:lcidtoname_downlevel.obj
 0002:00006cf8       ??_C@_1M@FLIDJFHL@?$AAh?$AAr?$AA?9?$AAB?$AAA@ 0000000180029cf8     libucrt:lcidtoname_downlevel.obj
 0002:00006d08       ??_C@_1O@FMCELNAJ@?$AAs?$AAm?$AAj?$AA?9?$AAN?$AAO@ 0000000180029d08     libucrt:lcidtoname_downlevel.obj
 0002:00006d18       ??_C@_1M@JHGLJMGJ@?$AAa?$AAr?$AA?9?$AAD?$AAZ@ 0000000180029d18     libucrt:lcidtoname_downlevel.obj
 0002:00006d28       ??_C@_1M@JKKFDCNP@?$AAz?$AAh?$AA?9?$AAM?$AAO@ 0000000180029d28     libucrt:lcidtoname_downlevel.obj
 0002:00006d38       ??_C@_1M@GEEFALPE@?$AAd?$AAe?$AA?9?$AAL?$AAI@ 0000000180029d38     libucrt:lcidtoname_downlevel.obj
 0002:00006d48       ??_C@_1M@IGEOFBG@?$AAe?$AAn?$AA?9?$AAN?$AAZ@ 0000000180029d48     libucrt:lcidtoname_downlevel.obj
 0002:00006d58       ??_C@_1M@KDBONEHP@?$AAe?$AAs?$AA?9?$AAC?$AAR@ 0000000180029d58     libucrt:lcidtoname_downlevel.obj
 0002:00006d68       ??_C@_1M@FHMDOHNN@?$AAf?$AAr?$AA?9?$AAL?$AAU@ 0000000180029d68     libucrt:lcidtoname_downlevel.obj
 0002:00006d78       ??_C@_1BG@NFKKMAFG@?$AAb?$AAs?$AA?9?$AAB?$AAA?$AA?9?$AAL?$AAa?$AAt?$AAn@ 0000000180029d78     libucrt:lcidtoname_downlevel.obj
 0002:00006d90       ??_C@_1O@IMNBEMCI@?$AAs?$AAm?$AAj?$AA?9?$AAS?$AAE@ 0000000180029d90     libucrt:lcidtoname_downlevel.obj
 0002:00006da0       ??_C@_1M@DHHMBNDP@?$AAa?$AAr?$AA?9?$AAM?$AAA@ 0000000180029da0     libucrt:lcidtoname_downlevel.obj
 0002:00006db0       ??_C@_1M@BNBLJCGH@?$AAe?$AAn?$AA?9?$AAI?$AAE@ 0000000180029db0     libucrt:lcidtoname_downlevel.obj
 0002:00006dc0       ??_C@_1M@GEPAFMDL@?$AAe?$AAs?$AA?9?$AAP?$AAA@ 0000000180029dc0     libucrt:lcidtoname_downlevel.obj
 0002:00006dd0       ??_C@_1M@OJONDMDL@?$AAf?$AAr?$AA?9?$AAM?$AAC@ 0000000180029dd0     libucrt:lcidtoname_downlevel.obj
 0002:00006de0       ??_C@_1BG@OBCNFJB@?$AAs?$AAr?$AA?9?$AAB?$AAA?$AA?9?$AAL?$AAa?$AAt?$AAn@ 0000000180029de0     libucrt:lcidtoname_downlevel.obj
 0002:00006df8       ??_C@_1O@KEMEEGPO@?$AAs?$AAm?$AAa?$AA?9?$AAN?$AAO@ 0000000180029df8     libucrt:lcidtoname_downlevel.obj
 0002:00006e08       ??_C@_1M@ELMGFODK@?$AAa?$AAr?$AA?9?$AAT?$AAN@ 0000000180029e08     libucrt:lcidtoname_downlevel.obj
 0002:00006e18       ??_C@_1M@BHDLHFAF@?$AAe?$AAn?$AA?9?$AAZ?$AAA@ 0000000180029e18     libucrt:lcidtoname_downlevel.obj
 0002:00006e28       ??_C@_1M@BMGIGLIF@?$AAe?$AAs?$AA?9?$AAD?$AAO@ 0000000180029e28     libucrt:lcidtoname_downlevel.obj
 0002:00006e38       ??_C@_1BG@CMBHIPBE@?$AAs?$AAr?$AA?9?$AAB?$AAA?$AA?9?$AAC?$AAy?$AAr?$AAl@ 0000000180029e38     libucrt:lcidtoname_downlevel.obj
 0002:00006e50       ??_C@_1O@HEDBLHNP@?$AAs?$AAm?$AAa?$AA?9?$AAS?$AAE@ 0000000180029e50     libucrt:lcidtoname_downlevel.obj
 0002:00006e60       ??_C@_1M@DAGCADIM@?$AAa?$AAr?$AA?9?$AAO?$AAM@ 0000000180029e60     libucrt:lcidtoname_downlevel.obj
 0002:00006e70       ??_C@_1M@FODLMICG@?$AAe?$AAn?$AA?9?$AAJ?$AAM@ 0000000180029e70     libucrt:lcidtoname_downlevel.obj
 0002:00006e80       ??_C@_1M@DNMLCIHB@?$AAe?$AAs?$AA?9?$AAV?$AAE@ 0000000180029e80     libucrt:lcidtoname_downlevel.obj
 0002:00006e90       ??_C@_1O@EOKHMKJK@?$AAs?$AAm?$AAs?$AA?9?$AAF?$AAI@ 0000000180029e90     libucrt:lcidtoname_downlevel.obj
 0002:00006ea0       ??_C@_1M@CAFJMKOF@?$AAa?$AAr?$AA?9?$AAY?$AAE@ 0000000180029ea0     libucrt:lcidtoname_downlevel.obj
 0002:00006eb0       ??_C@_1M@CBFHIJLI@?$AAe?$AAn?$AA?9?$AAC?$AAB@ 0000000180029eb0     libucrt:lcidtoname_downlevel.obj
 0002:00006ec0       ??_C@_1M@BGNFLDN@?$AAe?$AAs?$AA?9?$AAC?$AAO@ 0000000180029ec0     libucrt:lcidtoname_downlevel.obj
 0002:00006ed0       ??_C@_1O@JMPHMAMC@?$AAs?$AAm?$AAn?$AA?9?$AAF?$AAI@ 0000000180029ed0     libucrt:lcidtoname_downlevel.obj
 0002:00006ee0       ??_C@_1M@JLANABKE@?$AAa?$AAr?$AA?9?$AAS?$AAY@ 0000000180029ee0     libucrt:lcidtoname_downlevel.obj
 0002:00006ef0       ??_C@_1M@HPKGCFGN@?$AAe?$AAn?$AA?9?$AAB?$AAZ@ 0000000180029ef0     libucrt:lcidtoname_downlevel.obj
 0002:00006f00       ??_C@_1M@OLJCMLGM@?$AAe?$AAs?$AA?9?$AAP?$AAE@ 0000000180029f00     libucrt:lcidtoname_downlevel.obj
 0002:00006f10       ??_C@_1M@MKKGFKLE@?$AAa?$AAr?$AA?9?$AAJ?$AAO@ 0000000180029f10     libucrt:lcidtoname_downlevel.obj
 0002:00006f20       ??_C@_1M@EKPGLDNI@?$AAe?$AAn?$AA?9?$AAT?$AAT@ 0000000180029f20     libucrt:lcidtoname_downlevel.obj
 0002:00006f30       ??_C@_1M@OONGHFHE@?$AAe?$AAs?$AA?9?$AAA?$AAR@ 0000000180029f30     libucrt:lcidtoname_downlevel.obj
 0002:00006f40       ??_C@_1M@OOJFGBHE@?$AAa?$AAr?$AA?9?$AAL?$AAB@ 0000000180029f40     libucrt:lcidtoname_downlevel.obj
 0002:00006f50       ??_C@_1M@GCEJHNEG@?$AAe?$AAn?$AA?9?$AAZ?$AAW@ 0000000180029f50     libucrt:lcidtoname_downlevel.obj
 0002:00006f60       ??_C@_1M@JNOCAHJI@?$AAe?$AAs?$AA?9?$AAE?$AAC@ 0000000180029f60     libucrt:lcidtoname_downlevel.obj
 0002:00006f70       ??_C@_1M@JEFHPGGB@?$AAa?$AAr?$AA?9?$AAK?$AAW@ 0000000180029f70     libucrt:lcidtoname_downlevel.obj
 0002:00006f80       ??_C@_1M@MLKIBJOJ@?$AAe?$AAn?$AA?9?$AAP?$AAH@ 0000000180029f80     libucrt:lcidtoname_downlevel.obj
 0002:00006f90       ??_C@_1M@BDNIPEND@?$AAe?$AAs?$AA?9?$AAC?$AAL@ 0000000180029f90     libucrt:lcidtoname_downlevel.obj
 0002:00006fa0       ??_C@_1M@MPNMEKBD@?$AAa?$AAr?$AA?9?$AAA?$AAE@ 0000000180029fa0     libucrt:lcidtoname_downlevel.obj
 0002:00006fb0       ??_C@_1M@KBJALCPI@?$AAe?$AAs?$AA?9?$AAU?$AAY@ 0000000180029fb0     libucrt:lcidtoname_downlevel.obj
 0002:00006fc0       ??_C@_1M@LLCCOAGA@?$AAa?$AAr?$AA?9?$AAB?$AAH@ 0000000180029fc0     libucrt:lcidtoname_downlevel.obj
 0002:00006fd0       ??_C@_1M@PBFNCDEL@?$AAe?$AAs?$AA?9?$AAP?$AAY@ 0000000180029fd0     libucrt:lcidtoname_downlevel.obj
 0002:00006fe0       ??_C@_1M@EDGINPNP@?$AAa?$AAr?$AA?9?$AAQ?$AAA@ 0000000180029fe0     libucrt:lcidtoname_downlevel.obj
 0002:00006ff0       ??_C@_1M@MKDBIIJI@?$AAe?$AAs?$AA?9?$AAB?$AAO@ 0000000180029ff0     libucrt:lcidtoname_downlevel.obj
 0002:00007000       ??_C@_1M@CPKKEBLD@?$AAe?$AAs?$AA?9?$AAS?$AAV@ 000000018002a000     libucrt:lcidtoname_downlevel.obj
 0002:00007010       ??_C@_1M@NDBGMMJL@?$AAe?$AAs?$AA?9?$AAH?$AAN@ 000000018002a010     libucrt:lcidtoname_downlevel.obj
 0002:00007020       ??_C@_1M@JIJIBHDP@?$AAe?$AAs?$AA?9?$AAN?$AAI@ 000000018002a020     libucrt:lcidtoname_downlevel.obj
 0002:00007030       ??_C@_1M@CGFMKEEK@?$AAe?$AAs?$AA?9?$AAP?$AAR@ 000000018002a030     libucrt:lcidtoname_downlevel.obj
 0002:00007040       ??_C@_1O@ICJHKIIK@?$AAz?$AAh?$AA?9?$AAC?$AAH?$AAT@ 000000018002a040     libucrt:lcidtoname_downlevel.obj
 0002:00007050       ??_C@_15CLNEJCE@?$AAs?$AAr@ 000000018002a050     libucrt:lcidtoname_downlevel.obj
 0002:00007ea0       ??_C@_1M@KAHEKEIG@?$AAa?$AAf?$AA?9?$AAz?$AAa@ 000000018002aea0     libucrt:lcidtoname_downlevel.obj
 0002:00007eb0       ??_C@_1M@GIECOABL@?$AAa?$AAr?$AA?9?$AAa?$AAe@ 000000018002aeb0     libucrt:lcidtoname_downlevel.obj
 0002:00007ec0       ??_C@_1M@BMLMEKGI@?$AAa?$AAr?$AA?9?$AAb?$AAh@ 000000018002aec0     libucrt:lcidtoname_downlevel.obj
 0002:00007ed0       ??_C@_1M@DAPFDGGB@?$AAa?$AAr?$AA?9?$AAd?$AAz@ 000000018002aed0     libucrt:lcidtoname_downlevel.obj
 0002:00007ee0       ??_C@_1M@FJNKGKIG@?$AAa?$AAr?$AA?9?$AAe?$AAg@ 000000018002aee0     libucrt:lcidtoname_downlevel.obj
 0002:00007ef0       ??_C@_1M@FLGKKCLO@?$AAa?$AAr?$AA?9?$AAi?$AAq@ 000000018002aef0     libucrt:lcidtoname_downlevel.obj
 0002:00007f00       ??_C@_1M@GNDIPALM@?$AAa?$AAr?$AA?9?$AAj?$AAo@ 000000018002af00     libucrt:lcidtoname_downlevel.obj
 0002:00007f10       ??_C@_1M@DDMJFMGJ@?$AAa?$AAr?$AA?9?$AAk?$AAw@ 000000018002af10     libucrt:lcidtoname_downlevel.obj
 0002:00007f20       ??_C@_1M@EJALMLHM@?$AAa?$AAr?$AA?9?$AAl?$AAb@ 000000018002af20     libucrt:lcidtoname_downlevel.obj
 0002:00007f30       ??_C@_1M@MOBDBLOC@?$AAa?$AAr?$AA?9?$AAl?$AAy@ 000000018002af30     libucrt:lcidtoname_downlevel.obj
 0002:00007f40       ??_C@_1M@JAOCLHDH@?$AAa?$AAr?$AA?9?$AAm?$AAa@ 000000018002af40     libucrt:lcidtoname_downlevel.obj
 0002:00007f50       ??_C@_1M@JHPMKJIE@?$AAa?$AAr?$AA?9?$AAo?$AAm@ 000000018002af50     libucrt:lcidtoname_downlevel.obj
 0002:00007f60       ??_C@_1M@OEPGHFNH@?$AAa?$AAr?$AA?9?$AAq?$AAa@ 000000018002af60     libucrt:lcidtoname_downlevel.obj
 0002:00007f70       ??_C@_1M@KJDONENM@?$AAa?$AAr?$AA?9?$AAs?$AAa@ 000000018002af70     libucrt:lcidtoname_downlevel.obj
 0002:00007f80       ??_C@_1M@DMJDKLKM@?$AAa?$AAr?$AA?9?$AAs?$AAy@ 000000018002af80     libucrt:lcidtoname_downlevel.obj
 0002:00007f90       ??_C@_1M@OMFIPEDC@?$AAa?$AAr?$AA?9?$AAt?$AAn@ 000000018002af90     libucrt:lcidtoname_downlevel.obj
 0002:00007fa0       ??_C@_1M@IHMHGAON@?$AAa?$AAr?$AA?9?$AAy?$AAe@ 000000018002afa0     libucrt:lcidtoname_downlevel.obj
 0002:00007fb0       ??_C@_1BG@KDCPGJGB@?$AAa?$AAz?$AA?9?$AAa?$AAz?$AA?9?$AAc?$AAy?$AAr?$AAl@ 000000018002afb0     libucrt:lcidtoname_downlevel.obj
 0002:00007fc8       ??_C@_1BG@IBCKDDOE@?$AAa?$AAz?$AA?9?$AAa?$AAz?$AA?9?$AAl?$AAa?$AAt?$AAn@ 000000018002afc8     libucrt:lcidtoname_downlevel.obj
 0002:00007fe0       ??_C@_1M@EGPFDCPD@?$AAb?$AAe?$AA?9?$AAb?$AAy@ 000000018002afe0     libucrt:lcidtoname_downlevel.obj
 0002:00007ff0       ??_C@_1M@PCMGMCGC@?$AAb?$AAg?$AA?9?$AAb?$AAg@ 000000018002aff0     libucrt:lcidtoname_downlevel.obj
 0002:00008000       ??_C@_1M@BJBMFGOB@?$AAb?$AAn?$AA?9?$AAi?$AAn@ 000000018002b000     libucrt:lcidtoname_downlevel.obj
 0002:00008010       ??_C@_1BG@EAKMMACD@?$AAb?$AAs?$AA?9?$AAb?$AAa?$AA?9?$AAl?$AAa?$AAt?$AAn@ 000000018002b010     libucrt:lcidtoname_downlevel.obj
 0002:00008028       ??_C@_1M@KGADAODK@?$AAc?$AAa?$AA?9?$AAe?$AAs@ 000000018002b028     libucrt:lcidtoname_downlevel.obj
 0002:00008038       ??_C@_1M@COAJPDHI@?$AAc?$AAs?$AA?9?$AAc?$AAz@ 000000018002b038     libucrt:lcidtoname_downlevel.obj
 0002:00008048       ??_C@_1M@DHBHFONH@?$AAc?$AAy?$AA?9?$AAg?$AAb@ 000000018002b048     libucrt:lcidtoname_downlevel.obj
 0002:00008058       ??_C@_1M@IMGKELGA@?$AAd?$AAa?$AA?9?$AAd?$AAk@ 000000018002b058     libucrt:lcidtoname_downlevel.obj
 0002:00008068       ??_C@_1M@NNDGDNGA@?$AAd?$AAe?$AA?9?$AAa?$AAt@ 000000018002b068     libucrt:lcidtoname_downlevel.obj
 0002:00008078       ??_C@_1M@IKDBHEEM@?$AAd?$AAe?$AA?9?$AAc?$AAh@ 000000018002b078     libucrt:lcidtoname_downlevel.obj
 0002:00008088       ??_C@_1M@GFFOJMCJ@?$AAd?$AAe?$AA?9?$AAd?$AAe@ 000000018002b088     libucrt:lcidtoname_downlevel.obj
 0002:00008098       ??_C@_1M@MDNLKBPM@?$AAd?$AAe?$AA?9?$AAl?$AAi@ 000000018002b098     libucrt:lcidtoname_downlevel.obj
 0002:000080a8       ??_C@_1M@NJBEEJNL@?$AAd?$AAe?$AA?9?$AAl?$AAu@ 000000018002b0a8     libucrt:lcidtoname_downlevel.obj
 0002:000080b8       ??_C@_1O@GNNELBAP@?$AAd?$AAi?$AAv?$AA?9?$AAm?$AAv@ 000000018002b0b8     libucrt:lcidtoname_downlevel.obj
 0002:000080c8       ??_C@_1M@EJLEOGAE@?$AAe?$AAl?$AA?9?$AAg?$AAr@ 000000018002b0c8     libucrt:lcidtoname_downlevel.obj
 0002:000080d8       ??_C@_1M@GMPONJN@?$AAe?$AAn?$AA?9?$AAa?$AAu@ 000000018002b0d8     libucrt:lcidtoname_downlevel.obj
 0002:000080e8       ??_C@_1M@NIDIIPGF@?$AAe?$AAn?$AA?9?$AAb?$AAz@ 000000018002b0e8     libucrt:lcidtoname_downlevel.obj
 0002:000080f8       ??_C@_1M@JEHMIMFO@?$AAe?$AAn?$AA?9?$AAc?$AAa@ 000000018002b0f8     libucrt:lcidtoname_downlevel.obj
 0002:00008108       ??_C@_1M@IGMJCDLA@?$AAe?$AAn?$AA?9?$AAc?$AAb@ 000000018002b108     libucrt:lcidtoname_downlevel.obj
 0002:00008118       ??_C@_1M@BNFIGBKG@?$AAe?$AAn?$AA?9?$AAg?$AAb@ 000000018002b118     libucrt:lcidtoname_downlevel.obj
 0002:00008128       ??_C@_1M@LKIFDIGP@?$AAe?$AAn?$AA?9?$AAi?$AAe@ 000000018002b128     libucrt:lcidtoname_downlevel.obj
 0002:00008138       ??_C@_1M@PJKFGCCO@?$AAe?$AAn?$AA?9?$AAj?$AAm@ 000000018002b138     libucrt:lcidtoname_downlevel.obj
 0002:00008148       ??_C@_1M@KPPKEPBO@?$AAe?$AAn?$AA?9?$AAn?$AAz@ 000000018002b148     libucrt:lcidtoname_downlevel.obj
 0002:00008158       ??_C@_1M@GMDGLDOB@?$AAe?$AAn?$AA?9?$AAp?$AAh@ 000000018002b158     libucrt:lcidtoname_downlevel.obj
 0002:00008168       ??_C@_1M@ONGIBJNA@?$AAe?$AAn?$AA?9?$AAt?$AAt@ 000000018002b168     libucrt:lcidtoname_downlevel.obj
 0002:00008178       ??_C@_1M@LLODPCMM@?$AAe?$AAn?$AA?9?$AAu?$AAs@ 000000018002b178     libucrt:lcidtoname_downlevel.obj
 0002:00008188       ??_C@_1M@LAKFNPAN@?$AAe?$AAn?$AA?9?$AAz?$AAa@ 000000018002b188     libucrt:lcidtoname_downlevel.obj
 0002:00008198       ??_C@_1M@MFNHNHEO@?$AAe?$AAn?$AA?9?$AAz?$AAw@ 000000018002b198     libucrt:lcidtoname_downlevel.obj
 0002:000081a8       ??_C@_1M@EJEINPHM@?$AAe?$AAs?$AA?9?$AAa?$AAr@ 000000018002b1a8     libucrt:lcidtoname_downlevel.obj
 0002:000081b8       ??_C@_1M@GNKPCCJA@?$AAe?$AAs?$AA?9?$AAb?$AAo@ 000000018002b1b8     libucrt:lcidtoname_downlevel.obj
 0002:000081c8       ??_C@_1M@LEEGFONL@?$AAe?$AAs?$AA?9?$AAc?$AAl@ 000000018002b1c8     libucrt:lcidtoname_downlevel.obj
 0002:000081d8       ??_C@_1M@KGPDPBDF@?$AAe?$AAs?$AA?9?$AAc?$AAo@ 000000018002b1d8     libucrt:lcidtoname_downlevel.obj
 0002:000081e8       ??_C@_1M@EIAHOHH@?$AAe?$AAs?$AA?9?$AAc?$AAr@ 000000018002b1e8     libucrt:lcidtoname_downlevel.obj
 0002:000081f8       ??_C@_1M@LLPGMBIN@?$AAe?$AAs?$AA?9?$AAd?$AAo@ 000000018002b1f8     libucrt:lcidtoname_downlevel.obj
 0002:00008208       ??_C@_1M@DKHMKNJA@?$AAe?$AAs?$AA?9?$AAe?$AAc@ 000000018002b208     libucrt:lcidtoname_downlevel.obj
 0002:00008218       ??_C@_1M@GKGFPKAP@?$AAe?$AAs?$AA?9?$AAe?$AAs@ 000000018002b218     libucrt:lcidtoname_downlevel.obj
 0002:00008228       ??_C@_1M@LKHKGDLN@?$AAe?$AAs?$AA?9?$AAg?$AAt@ 000000018002b228     libucrt:lcidtoname_downlevel.obj
 0002:00008238       ??_C@_1M@HEIIGGJD@?$AAe?$AAs?$AA?9?$AAh?$AAn@ 000000018002b238     libucrt:lcidtoname_downlevel.obj
 0002:00008248       ??_C@_1M@FBDHPPGD@?$AAe?$AAs?$AA?9?$AAm?$AAx@ 000000018002b248     libucrt:lcidtoname_downlevel.obj
 0002:00008258       ??_C@_1M@DPAGLNDH@?$AAe?$AAs?$AA?9?$AAn?$AAi@ 000000018002b258     libucrt:lcidtoname_downlevel.obj
 0002:00008268       ??_C@_1M@MDGOPGDD@?$AAe?$AAs?$AA?9?$AAp?$AAa@ 000000018002b268     libucrt:lcidtoname_downlevel.obj
 0002:00008278       ??_C@_1M@EMAMGBGE@?$AAe?$AAs?$AA?9?$AAp?$AAe@ 000000018002b278     libucrt:lcidtoname_downlevel.obj
 0002:00008288       ??_C@_1M@IBMCAOEC@?$AAe?$AAs?$AA?9?$AAp?$AAr@ 000000018002b288     libucrt:lcidtoname_downlevel.obj
 0002:00008298       ??_C@_1M@FGMDIJED@?$AAe?$AAs?$AA?9?$AAp?$AAy@ 000000018002b298     libucrt:lcidtoname_downlevel.obj
 0002:000082a8       ??_C@_1M@IIDEOLLL@?$AAe?$AAs?$AA?9?$AAs?$AAv@ 000000018002b2a8     libucrt:lcidtoname_downlevel.obj
 0002:000082b8       ??_C@_1M@GAOBIPA@?$AAe?$AAs?$AA?9?$AAu?$AAy@ 000000018002b2b8     libucrt:lcidtoname_downlevel.obj
 0002:000082c8       ??_C@_1M@JKFFICHJ@?$AAe?$AAs?$AA?9?$AAv?$AAe@ 000000018002b2c8     libucrt:lcidtoname_downlevel.obj
 0002:000082d8       ??_C@_1M@PNMLOJDF@?$AAe?$AAt?$AA?9?$AAe?$AAe@ 000000018002b2d8     libucrt:lcidtoname_downlevel.obj
 0002:000082e8       ??_C@_1M@GHHLIKEI@?$AAe?$AAu?$AA?9?$AAe?$AAs@ 000000018002b2e8     libucrt:lcidtoname_downlevel.obj
 0002:000082f8       ??_C@_1M@PBNONODE@?$AAf?$AAa?$AA?9?$AAi?$AAr@ 000000018002b2f8     libucrt:lcidtoname_downlevel.obj
 0002:00008308       ??_C@_1M@JEEHPMIL@?$AAf?$AAi?$AA?9?$AAf?$AAi@ 000000018002b308     libucrt:lcidtoname_downlevel.obj
 0002:00008318       ??_C@_1M@LMDCNDBA@?$AAf?$AAo?$AA?9?$AAf?$AAo@ 000000018002b318     libucrt:lcidtoname_downlevel.obj
 0002:00008328       ??_C@_1M@JKEOHLDK@?$AAf?$AAr?$AA?9?$AAb?$AAe@ 000000018002b328     libucrt:lcidtoname_downlevel.obj
 0002:00008338       ??_C@_1M@NOHADPMI@?$AAf?$AAr?$AA?9?$AAc?$AAa@ 000000018002b338     libucrt:lcidtoname_downlevel.obj
 0002:00008348       ??_C@_1M@KDHIHAEC@?$AAf?$AAr?$AA?9?$AAc?$AAh@ 000000018002b348     libucrt:lcidtoname_downlevel.obj
 0002:00008358       ??_C@_1M@MMBBFGAK@?$AAf?$AAr?$AA?9?$AAf?$AAr@ 000000018002b358     libucrt:lcidtoname_downlevel.obj
 0002:00008368       ??_C@_1M@PAFNENNF@?$AAf?$AAr?$AA?9?$AAl?$AAu@ 000000018002b368     libucrt:lcidtoname_downlevel.obj
 0002:00008378       ??_C@_1M@EOHDJGDD@?$AAf?$AAr?$AA?9?$AAm?$AAc@ 000000018002b378     libucrt:lcidtoname_downlevel.obj
 0002:00008388       ??_C@_1M@FAPLLOPF@?$AAg?$AAl?$AA?9?$AAe?$AAs@ 000000018002b388     libucrt:lcidtoname_downlevel.obj
 0002:00008398       ??_C@_1M@FOPBFLOO@?$AAg?$AAu?$AA?9?$AAi?$AAn@ 000000018002b398     libucrt:lcidtoname_downlevel.obj
 0002:000083a8       ??_C@_1M@KBMCINPM@?$AAh?$AAe?$AA?9?$AAi?$AAl@ 000000018002b3a8     libucrt:lcidtoname_downlevel.obj
 0002:000083b8       ??_C@_1M@BBPHKFPJ@?$AAh?$AAi?$AA?9?$AAi?$AAn@ 000000018002b3b8     libucrt:lcidtoname_downlevel.obj
 0002:000083c8       ??_C@_1M@PMBNDPHD@?$AAh?$AAr?$AA?9?$AAb?$AAa@ 000000018002b3c8     libucrt:lcidtoname_downlevel.obj
 0002:000083d8       ??_C@_1M@BPCKOEGE@?$AAh?$AAr?$AA?9?$AAh?$AAr@ 000000018002b3d8     libucrt:lcidtoname_downlevel.obj
 0002:000083e8       ??_C@_1M@GACBMHKE@?$AAh?$AAu?$AA?9?$AAh?$AAu@ 000000018002b3e8     libucrt:lcidtoname_downlevel.obj
 0002:000083f8       ??_C@_1M@MILPAJJC@?$AAh?$AAy?$AA?9?$AAa?$AAm@ 000000018002b3f8     libucrt:lcidtoname_downlevel.obj
 0002:00008408       ??_C@_1M@BABBICEC@?$AAi?$AAd?$AA?9?$AAi?$AAd@ 000000018002b408     libucrt:lcidtoname_downlevel.obj
 0002:00008418       ??_C@_1M@BIKNHHPF@?$AAi?$AAs?$AA?9?$AAi?$AAs@ 000000018002b418     libucrt:lcidtoname_downlevel.obj
 0002:00008428       ??_C@_1M@NMPCJPHE@?$AAi?$AAt?$AA?9?$AAc?$AAh@ 000000018002b428     libucrt:lcidtoname_downlevel.obj
 0002:00008438       ??_C@_1M@GHKGFEDF@?$AAi?$AAt?$AA?9?$AAi?$AAt@ 000000018002b438     libucrt:lcidtoname_downlevel.obj
 0002:00008448       ??_C@_1M@NIEJCJJA@?$AAj?$AAa?$AA?9?$AAj?$AAp@ 000000018002b448     libucrt:lcidtoname_downlevel.obj
 0002:00008458       ??_C@_1M@JILFNBIM@?$AAk?$AAa?$AA?9?$AAg?$AAe@ 000000018002b458     libucrt:lcidtoname_downlevel.obj
 0002:00008468       ??_C@_1M@PACPMGPH@?$AAk?$AAk?$AA?9?$AAk?$AAz@ 000000018002b468     libucrt:lcidtoname_downlevel.obj
 0002:00008478       ??_C@_1M@IELFGMHA@?$AAk?$AAn?$AA?9?$AAi?$AAn@ 000000018002b478     libucrt:lcidtoname_downlevel.obj
 0002:00008488       ??_C@_1O@IBBJHCH@?$AAk?$AAo?$AAk?$AA?9?$AAi?$AAn@ 000000018002b488     libucrt:lcidtoname_downlevel.obj
 0002:00008498       ??_C@_1M@DMHAEOGC@?$AAk?$AAo?$AA?9?$AAk?$AAr@ 000000018002b498     libucrt:lcidtoname_downlevel.obj
 0002:000084a8       ??_C@_1M@HBAHBIGA@?$AAk?$AAy?$AA?9?$AAk?$AAg@ 000000018002b4a8     libucrt:lcidtoname_downlevel.obj
 0002:000084b8       ??_C@_1M@KPMILCJG@?$AAl?$AAt?$AA?9?$AAl?$AAt@ 000000018002b4b8     libucrt:lcidtoname_downlevel.obj
 0002:000084c8       ??_C@_1M@BDEKKCA@?$AAl?$AAv?$AA?9?$AAl?$AAv@ 000000018002b4c8     libucrt:lcidtoname_downlevel.obj
 0002:000084d8       ??_C@_1M@ELCKCCJJ@?$AAm?$AAi?$AA?9?$AAn?$AAz@ 000000018002b4d8     libucrt:lcidtoname_downlevel.obj
 0002:000084e8       ??_C@_1M@CBOOLAPA@?$AAm?$AAk?$AA?9?$AAm?$AAk@ 000000018002b4e8     libucrt:lcidtoname_downlevel.obj
 0002:000084f8       ??_C@_1M@GPHNBJKN@?$AAm?$AAl?$AA?9?$AAi?$AAn@ 000000018002b4f8     libucrt:lcidtoname_downlevel.obj
 0002:00008508       ??_C@_1M@PABJILIG@?$AAm?$AAn?$AA?9?$AAm?$AAn@ 000000018002b508     libucrt:lcidtoname_downlevel.obj
 0002:00008518       ??_C@_1M@FGBKKIPG@?$AAm?$AAr?$AA?9?$AAi?$AAn@ 000000018002b518     libucrt:lcidtoname_downlevel.obj
 0002:00008528       ??_C@_1M@NDBPDDAL@?$AAm?$AAs?$AA?9?$AAb?$AAn@ 000000018002b528     libucrt:lcidtoname_downlevel.obj
 0002:00008538       ??_C@_1M@OPIHOOPI@?$AAm?$AAs?$AA?9?$AAm?$AAy@ 000000018002b538     libucrt:lcidtoname_downlevel.obj
 0002:00008548       ??_C@_1M@PPDBCNFM@?$AAm?$AAt?$AA?9?$AAm?$AAt@ 000000018002b548     libucrt:lcidtoname_downlevel.obj
 0002:00008558       ??_C@_1M@KDJDKMDD@?$AAn?$AAb?$AA?9?$AAn?$AAo@ 000000018002b558     libucrt:lcidtoname_downlevel.obj
 0002:00008568       ??_C@_1M@KFCFLMJP@?$AAn?$AAl?$AA?9?$AAb?$AAe@ 000000018002b568     libucrt:lcidtoname_downlevel.obj
 0002:00008578       ??_C@_1M@KPOPDDGO@?$AAn?$AAl?$AA?9?$AAn?$AAl@ 000000018002b578     libucrt:lcidtoname_downlevel.obj
 0002:00008588       ??_C@_1M@LJKPEMLN@?$AAn?$AAn?$AA?9?$AAn?$AAo@ 000000018002b588     libucrt:lcidtoname_downlevel.obj
 0002:00008598       ??_C@_1M@BDGHHBFL@?$AAn?$AAs?$AA?9?$AAz?$AAa@ 000000018002b598     libucrt:lcidtoname_downlevel.obj
 0002:000085a8       ??_C@_1M@IDEHOAP@?$AAp?$AAa?$AA?9?$AAi?$AAn@ 000000018002b5a8     libucrt:lcidtoname_downlevel.obj
 0002:000085b8       ??_C@_1M@HDBKGOGH@?$AAp?$AAl?$AA?9?$AAp?$AAl@ 000000018002b5b8     libucrt:lcidtoname_downlevel.obj
 0002:000085c8       ??_C@_1M@LJLLCMEH@?$AAp?$AAt?$AA?9?$AAb?$AAr@ 000000018002b5c8     libucrt:lcidtoname_downlevel.obj
 0002:000085d8       ??_C@_1M@NCMONAAL@?$AAp?$AAt?$AA?9?$AAp?$AAt@ 000000018002b5d8     libucrt:lcidtoname_downlevel.obj
 0002:000085e8       ??_C@_1O@EAKMAJDN@?$AAq?$AAu?$AAz?$AA?9?$AAb?$AAo@ 000000018002b5e8     libucrt:lcidtoname_downlevel.obj
 0002:000085f8       ??_C@_1O@BHHPIGDN@?$AAq?$AAu?$AAz?$AA?9?$AAe?$AAc@ 000000018002b5f8     libucrt:lcidtoname_downlevel.obj
 0002:00008608       ??_C@_1O@GBAPEKMJ@?$AAq?$AAu?$AAz?$AA?9?$AAp?$AAe@ 000000018002b608     libucrt:lcidtoname_downlevel.obj
 0002:00008618       ??_C@_1M@CLGLEFBO@?$AAr?$AAo?$AA?9?$AAr?$AAo@ 000000018002b618     libucrt:lcidtoname_downlevel.obj
 0002:00008628       ??_C@_1M@CEEDODME@?$AAr?$AAu?$AA?9?$AAr?$AAu@ 000000018002b628     libucrt:lcidtoname_downlevel.obj
 0002:00008638       ??_C@_1M@HPKKKMPP@?$AAs?$AAa?$AA?9?$AAi?$AAn@ 000000018002b638     libucrt:lcidtoname_downlevel.obj
 0002:00008648       ??_C@_1M@BKMAIGOJ@?$AAs?$AAe?$AA?9?$AAf?$AAi@ 000000018002b648     libucrt:lcidtoname_downlevel.obj
 0002:00008658       ??_C@_1M@NDPIFLFI@?$AAs?$AAe?$AA?9?$AAn?$AAo@ 000000018002b658     libucrt:lcidtoname_downlevel.obj
 0002:00008668       ??_C@_1M@DANKKHJ@?$AAs?$AAe?$AA?9?$AAs?$AAe@ 000000018002b668     libucrt:lcidtoname_downlevel.obj
 0002:00008678       ??_C@_1M@PNBLONPJ@?$AAs?$AAk?$AA?9?$AAs?$AAk@ 000000018002b678     libucrt:lcidtoname_downlevel.obj
 0002:00008688       ??_C@_1M@LFMODOAL@?$AAs?$AAl?$AA?9?$AAs?$AAi@ 000000018002b688     libucrt:lcidtoname_downlevel.obj
 0002:00008698       ??_C@_1O@DFKOMPG@?$AAs?$AAm?$AAa?$AA?9?$AAn?$AAo@ 000000018002b698     libucrt:lcidtoname_downlevel.obj
 0002:000086a8       ??_C@_1O@NDKPBNNH@?$AAs?$AAm?$AAa?$AA?9?$AAs?$AAe@ 000000018002b6a8     libucrt:lcidtoname_downlevel.obj
 0002:000086b8       ??_C@_1O@PLLKBHAB@?$AAs?$AAm?$AAj?$AA?9?$AAn?$AAo@ 000000018002b6b8     libucrt:lcidtoname_downlevel.obj
 0002:000086c8       ??_C@_1O@CLEPOGCA@?$AAs?$AAm?$AAj?$AA?9?$AAs?$AAe@ 000000018002b6c8     libucrt:lcidtoname_downlevel.obj
 0002:000086d8       ??_C@_1O@DLGJGKMK@?$AAs?$AAm?$AAn?$AA?9?$AAf?$AAi@ 000000018002b6d8     libucrt:lcidtoname_downlevel.obj
 0002:000086e8       ??_C@_1O@OJDJGAJC@?$AAs?$AAm?$AAs?$AA?9?$AAf?$AAi@ 000000018002b6e8     libucrt:lcidtoname_downlevel.obj
 0002:000086f8       ??_C@_1M@BOFOGHPB@?$AAs?$AAq?$AA?9?$AAa?$AAl@ 000000018002b6f8     libucrt:lcidtoname_downlevel.obj
 0002:00008708       ??_C@_1BG@LJBBIPGB@?$AAs?$AAr?$AA?9?$AAb?$AAa?$AA?9?$AAc?$AAy?$AAr?$AAl@ 000000018002b708     libucrt:lcidtoname_downlevel.obj
 0002:00008720       ??_C@_1BG@JLBENFOE@?$AAs?$AAr?$AA?9?$AAb?$AAa?$AA?9?$AAl?$AAa?$AAt?$AAn@ 000000018002b720     libucrt:lcidtoname_downlevel.obj
 0002:00008738       ??_C@_1BG@KODPNHE@?$AAs?$AAr?$AA?9?$AAs?$AAp?$AA?9?$AAc?$AAy?$AAr?$AAl@ 000000018002b738     libucrt:lcidtoname_downlevel.obj
 0002:00008750       ??_C@_1BG@CIOGKHPB@?$AAs?$AAr?$AA?9?$AAs?$AAp?$AA?9?$AAl?$AAa?$AAt?$AAn@ 000000018002b750     libucrt:lcidtoname_downlevel.obj
 0002:00008768       ??_C@_1M@NGFJLMAC@?$AAs?$AAv?$AA?9?$AAf?$AAi@ 000000018002b768     libucrt:lcidtoname_downlevel.obj
 0002:00008778       ??_C@_1M@MPJEJAJC@?$AAs?$AAv?$AA?9?$AAs?$AAe@ 000000018002b778     libucrt:lcidtoname_downlevel.obj
 0002:00008788       ??_C@_1M@MPNDHLFK@?$AAs?$AAw?$AA?9?$AAk?$AAe@ 000000018002b788     libucrt:lcidtoname_downlevel.obj
 0002:00008798       ??_C@_1O@KOHBJJI@?$AAs?$AAy?$AAr?$AA?9?$AAs?$AAy@ 000000018002b798     libucrt:lcidtoname_downlevel.obj
 0002:000087a8       ??_C@_1M@LDCEFHA@?$AAt?$AAa?$AA?9?$AAi?$AAn@ 000000018002b7a8     libucrt:lcidtoname_downlevel.obj
 0002:000087b8       ??_C@_1M@CNJOFAK@?$AAt?$AAe?$AA?9?$AAi?$AAn@ 000000018002b7b8     libucrt:lcidtoname_downlevel.obj
 0002:000087c8       ??_C@_1M@GNAECACD@?$AAt?$AAh?$AA?9?$AAt?$AAh@ 000000018002b7c8     libucrt:lcidtoname_downlevel.obj
 0002:000087d8       ??_C@_1M@CHBIHOJO@?$AAt?$AAn?$AA?9?$AAz?$AAa@ 000000018002b7d8     libucrt:lcidtoname_downlevel.obj
 0002:000087e8       ??_C@_1M@GCCMIGPJ@?$AAt?$AAr?$AA?9?$AAt?$AAr@ 000000018002b7e8     libucrt:lcidtoname_downlevel.obj
 0002:000087f8       ??_C@_1M@CELMCNBK@?$AAt?$AAt?$AA?9?$AAr?$AAu@ 000000018002b7f8     libucrt:lcidtoname_downlevel.obj
 0002:00008808       ??_C@_1M@KLMCELGA@?$AAu?$AAk?$AA?9?$AAu?$AAa@ 000000018002b808     libucrt:lcidtoname_downlevel.obj
 0002:00008818       ??_C@_1M@EPAJJAJF@?$AAu?$AAr?$AA?9?$AAp?$AAk@ 000000018002b818     libucrt:lcidtoname_downlevel.obj
 0002:00008828       ??_C@_1BG@GEGPMCDJ@?$AAu?$AAz?$AA?9?$AAu?$AAz?$AA?9?$AAc?$AAy?$AAr?$AAl@ 000000018002b828     libucrt:lcidtoname_downlevel.obj
 0002:00008840       ??_C@_1BG@EGGKJILM@?$AAu?$AAz?$AA?9?$AAu?$AAz?$AA?9?$AAl?$AAa?$AAt?$AAn@ 000000018002b840     libucrt:lcidtoname_downlevel.obj
 0002:00008858       ??_C@_1M@GFOCLFF@?$AAv?$AAi?$AA?9?$AAv?$AAn@ 000000018002b858     libucrt:lcidtoname_downlevel.obj
 0002:00008868       ??_C@_1M@CPAMEDFI@?$AAx?$AAh?$AA?9?$AAz?$AAa@ 000000018002b868     libucrt:lcidtoname_downlevel.obj
 0002:00008878       ??_C@_1O@EBKIFIGN@?$AAz?$AAh?$AA?9?$AAc?$AAh?$AAs@ 000000018002b878     libucrt:lcidtoname_downlevel.obj
 0002:00008888       ??_C@_1O@NMHPGANE@?$AAz?$AAh?$AA?9?$AAc?$AAh?$AAt@ 000000018002b888     libucrt:lcidtoname_downlevel.obj
 0002:00008898       ??_C@_1M@LPINJOMC@?$AAz?$AAh?$AA?9?$AAc?$AAn@ 000000018002b898     libucrt:lcidtoname_downlevel.obj
 0002:000088a8       ??_C@_1M@OCJEJODD@?$AAz?$AAh?$AA?9?$AAh?$AAk@ 000000018002b8a8     libucrt:lcidtoname_downlevel.obj
 0002:000088b8       ??_C@_1M@DNDLJINH@?$AAz?$AAh?$AA?9?$AAm?$AAo@ 000000018002b8b8     libucrt:lcidtoname_downlevel.obj
 0002:000088c8       ??_C@_1M@MBFDNDND@?$AAz?$AAh?$AA?9?$AAs?$AAg@ 000000018002b8c8     libucrt:lcidtoname_downlevel.obj
 0002:000088d8       ??_C@_1M@IMEPLEPE@?$AAz?$AAh?$AA?9?$AAt?$AAw@ 000000018002b8d8     libucrt:lcidtoname_downlevel.obj
 0002:000088e8       ??_C@_1M@BBGHNHJP@?$AAz?$AAu?$AA?9?$AAz?$AAa@ 000000018002b8e8     libucrt:lcidtoname_downlevel.obj
 0002:00008900       ?large_power_data@?1??multiply_by_power_of_ten@__crt_strtox@@YA_NAEAUbig_integer@2@I@Z@4QBIB 000000018002b900     libucrt:cfout.obj
 0002:00009210       ?large_power_indices@?1??multiply_by_power_of_ten@__crt_strtox@@YA_NAEAUbig_integer@2@I@Z@4QBUunpack_index@?1??12@YA_N0I@Z@B 000000018002c210     libucrt:cfout.obj
 0002:000092a8       ?small_powers_of_ten@?1??multiply_by_power_of_ten@__crt_strtox@@YA_NAEAUbig_integer@2@I@Z@4QBIB 000000018002c2a8     libucrt:cfout.obj
 0002:000092cc       ??_C@_01GBGANLPD@0@        000000018002c2cc     libucrt:cfout.obj
 0002:000092d0       ??_C@_05DNEBIAHO@1?$CDINF@ 000000018002c2d0     libucrt:cfout.obj
 0002:000092d8       ??_C@_06IMKFLFPG@1?$CDQNAN@ 000000018002c2d8     libucrt:cfout.obj
 0002:000092e0       ??_C@_06PGGFOGJG@1?$CDSNAN@ 000000018002c2e0     libucrt:cfout.obj
 0002:000092e8       ??_C@_05PHHOCPM@1?$CDIND@  000000018002c2e8     libucrt:cfout.obj
 0002:000092f0       __real@3ff0000000000000    000000018002c2f0     libucrt:ceil.obj
 0002:00009550       __log10_256_lead           000000018002c550     libucrt:log10_256_lead_tail_table.obj
 0002:00009d60       __log10_256_tail           000000018002cd60     libucrt:log10_256_lead_tail_table.obj
 0002:0000a570       __log_F_inv_qword          000000018002d570     libucrt:log_f_inv_qword_table.obj
 0002:0000ad80       ??_C@_05HGHHAHAP@log10@    000000018002dd80     libucrt:log_special.obj
 0002:0000ad88       ??_C@_1BA@BALFACEM@?$AAC?$AAO?$AAN?$AAO?$AAU?$AAT?$AA$@ 000000018002dd88     libucrt:initcon.obj
 0002:0000ae10       _load_config_used          000000018002de10     LIBCMT:loadcfg.obj
 0002:0000af40       _tls_used                  000000018002df40     LIBCMT:tlssup.obj
 0002:0000af68       ??_R4exception@std@@6B@    000000018002df68     LIBCMT:throw_bad_alloc.obj
 0002:0000af90       ??_R3exception@std@@8      000000018002df90     LIBCMT:throw_bad_alloc.obj
 0002:0000afa8       ??_R2exception@std@@8      000000018002dfa8     LIBCMT:throw_bad_alloc.obj
 0002:0000afb8       ??_R1A@?0A@EA@exception@std@@8 000000018002dfb8     LIBCMT:throw_bad_alloc.obj
 0002:0000afe0       ??_R4bad_alloc@std@@6B@    000000018002dfe0     LIBCMT:throw_bad_alloc.obj
 0002:0000b008       ??_R3bad_alloc@std@@8      000000018002e008     LIBCMT:throw_bad_alloc.obj
 0002:0000b020       ??_R2bad_alloc@std@@8      000000018002e020     LIBCMT:throw_bad_alloc.obj
 0002:0000b038       ??_R1A@?0A@EA@bad_alloc@std@@8 000000018002e038     LIBCMT:throw_bad_alloc.obj
 0002:0000b060       ??_R4bad_array_new_length@std@@6B@ 000000018002e060     LIBCMT:throw_bad_alloc.obj
 0002:0000b088       ??_R3bad_array_new_length@std@@8 000000018002e088     LIBCMT:throw_bad_alloc.obj
 0002:0000b0a0       ??_R2bad_array_new_length@std@@8 000000018002e0a0     LIBCMT:throw_bad_alloc.obj
 0002:0000b0c0       ??_R1A@?0A@EA@bad_array_new_length@std@@8 000000018002e0c0     LIBCMT:throw_bad_alloc.obj
 0002:0000b0e8       ??_R4type_info@@6B@        000000018002e0e8     LIBCMT:std_type_info_static.obj
 0002:0000b110       ??_R3type_info@@8          000000018002e110     LIBCMT:std_type_info_static.obj
 0002:0000b128       ??_R2type_info@@8          000000018002e128     LIBCMT:std_type_info_static.obj
 0002:0000b138       ??_R1A@?0A@EA@type_info@@8 000000018002e138     LIBCMT:std_type_info_static.obj
 0002:0000b160       ??_R4bad_exception@std@@6B@ 000000018002e160     libvcruntime:frame.obj
 0002:0000b188       ??_R3bad_exception@std@@8  000000018002e188     libvcruntime:frame.obj
 0002:0000b1a0       ??_R2bad_exception@std@@8  000000018002e1a0     libvcruntime:frame.obj
 0002:0000b1b8       ??_R1A@?0A@EA@bad_exception@std@@8 000000018002e1b8     libvcruntime:frame.obj
 0002:0000b5e0       __rtc_iaa                  000000018002e5e0     LIBCMT:initsect.obj
 0002:0000b5e8       __rtc_izz                  000000018002e5e8     LIBCMT:initsect.obj
 0002:0000b5f0       __rtc_taa                  000000018002e5f0     LIBCMT:initsect.obj
 0002:0000b5f8       __rtc_tzz                  000000018002e5f8     LIBCMT:initsect.obj
 0002:0000b600       _tls_start                 000000018002e600     LIBCMT:tlssup.obj
 0002:0000b604       _Init_thread_epoch         000000018002e604     LIBCMT:thread_safe_statics.obj
 0002:0000b608       _tls_end                   000000018002e608     LIBCMT:tlssup.obj
 0002:0000cca0       _TI2?AVbad_alloc@std@@     000000018002fca0     LIBCMT:throw_bad_alloc.obj
 0002:0000ccc0       _CTA2?AVbad_alloc@std@@    000000018002fcc0     LIBCMT:throw_bad_alloc.obj
 0002:0000ccd8       _CT??_R0?AVbad_alloc@std@@@8??0bad_alloc@std@@QEAA@AEBV01@@Z24 000000018002fcd8     LIBCMT:throw_bad_alloc.obj
 0002:0000cd00       _CT??_R0?AVexception@std@@@8??0exception@std@@QEAA@AEBV01@@Z24 000000018002fd00     LIBCMT:throw_bad_alloc.obj
 0002:0000cd28       _TI3?AVbad_array_new_length@std@@ 000000018002fd28     LIBCMT:throw_bad_alloc.obj
 0002:0000cd48       _CTA3?AVbad_array_new_length@std@@ 000000018002fd48     LIBCMT:throw_bad_alloc.obj
 0002:0000cd68       _CT??_R0?AVbad_array_new_length@std@@@8??0bad_array_new_length@std@@QEAA@AEBV01@@Z24 000000018002fd68     LIBCMT:throw_bad_alloc.obj
 0002:0000cd90       _TI2?AVbad_exception@std@@ 000000018002fd90     libvcruntime:frame.obj
 0002:0000cdb0       _CTA2?AVbad_exception@std@@ 000000018002fdb0     libvcruntime:frame.obj
 0002:0000cdc8       _CT??_R0?AVbad_exception@std@@@8??0bad_exception@std@@QEAA@AEBV01@@Z24 000000018002fdc8     libvcruntime:frame.obj
 0002:0000cdf0       __pobjMapEntryFirst        000000018002fdf0     OposVariant.obj
 0002:0000cdf8       __pobjMapEntryLast         000000018002fdf8     OposVariant.obj
 0002:0000cea8       __IMPORT_DESCRIPTOR_KERNEL32 000000018002fea8     kernel32:KERNEL32.dll
 0002:0000cebc       __IMPORT_DESCRIPTOR_USER32 000000018002febc     user32:USER32.dll
 0002:0000ced0       __IMPORT_DESCRIPTOR_GDI32  000000018002fed0     gdi32:GDI32.dll
 0002:0000cee4       __IMPORT_DESCRIPTOR_ADVAPI32 000000018002fee4     advapi32:ADVAPI32.dll
 0002:0000cef8       __IMPORT_DESCRIPTOR_ole32  000000018002fef8     ole32:ole32.dll
 0002:0000cf0c       __IMPORT_DESCRIPTOR_OLEAUT32 000000018002ff0c     oleaut32:OLEAUT32.dll
 0002:0000cf20       __NULL_IMPORT_DESCRIPTOR   000000018002ff20     kernel32:KERNEL32.dll
 0003:00000000       ?s_Claim@?7??GetIDsOfNames@CComTypeInfoHolder@ATL@@QEAAJAEBU_GUID@@PEAPEA_WIKPEAJ@Z@4PA_WA 0000000180032000     Belt.obj
 0003:00000018       ?s_Release@?7??GetIDsOfNames@CComTypeInfoHolder@ATL@@QEAAJAEBU_GUID@@PEAPEA_WIKPEAJ@Z@4PA_WA 0000000180032018     Belt.obj
 0003:00000038       ?_tih@?$IDispatchImpl@UIOPOSBelt@@$1?IID_IOPOSBelt@@3U_GUID@@B$1?LIBID_OposBelt_CCO@@3U3@B$00$0A@VCComTypeInfoHolder@ATL@@@ATL@@1VCComTypeInfoHolder@2@A 0000000180032038     Belt.obj
 0003:00000070       ?_tih@?$IProvideClassInfo2Impl@$1?CLSID_OPOSBelt@@3U_GUID@@B$1?DIID__IOPOSBeltEvents@@3U2@B$1?LIBID_OposBelt_CCO@@3U2@B$00$0A@VCComTypeInfoHolder@ATL@@@ATL@@1VCComTypeInfoHolder@2@A 0000000180032070     Belt.obj
 0003:000000a8       ?vszContents@?6??Save@?$IPersistStorageImpl@VCOPOSBelt@@@ATL@@UEAAJPEAUIStorage@@H@Z@4PEB_WEB 00000001800320a8     Belt.obj
 0003:000000b0       ?wc@?1??GetWndClassInfo@?$CWindowImpl@VCOPOSBelt@@VCWindow@ATL@@V?$CWinTraits@$0FGAAAAAA@$0A@@3@@ATL@@SAAEAU_ATL_WNDCLASSINFOW@3@XZ@4U43@A 00000001800320b0     Belt.obj
 0003:000001a8       ?rcDefault@CWindow@ATL@@2UtagRECT@@A 00000001800321a8     Belt.obj
 0003:00000250       ?g_WindowName@@3PA_WA      0000000180032250     BeltImpl.obj
 0003:00000268       ?g_ControlVersion@@3JA     0000000180032268     BeltImpl.obj
 0003:00000270       ?g_ControlDescription@@3PADA 0000000180032270     BeltImpl.obj
 0003:00000378       __scrt_native_dllmain_reason 0000000180032378     LIBCMT:utility.obj
 0003:0000037c       _Init_global_epoch         000000018003237c     LIBCMT:thread_safe_statics.obj
 0003:00000380       __security_cookie_complement 0000000180032380     LIBCMT:gs_cookie.obj
 0003:00000388       __security_cookie          0000000180032388     LIBCMT:gs_cookie.obj
 0003:00000390       __isa_available            0000000180032390     LIBCMT:cpu_disp.obj
 0003:00000394       __isa_enabled              0000000180032394     LIBCMT:cpu_disp.obj
 0003:00000398       __memcpy_nt_iters          0000000180032398     LIBCMT:cpu_disp.obj
 0003:000003a0       __memset_nt_iters          00000001800323a0     LIBCMT:cpu_disp.obj
 0003:000003c8       __abort_behavior           00000001800323c8     libucrt:abort.obj
 0003:000003e0       _iob                       00000001800323e0     libucrt:_file.obj
 0003:000004f0       __acrt_initial_locale_data 00000001800324f0     libucrt:nlsdata.obj
 0003:00000648       __acrt_initial_locale_pointers 0000000180032648     libucrt:nlsdata.obj
 0003:00000658       __acrt_wide_c_locale_string 0000000180032658     libucrt:nlsdata.obj
 0003:00000660       __acrt_initial_multibyte_data 0000000180032660     libucrt:mbctype.obj
 0003:00000ba0       _pwctype                   0000000180032ba0     libucrt:ctype.obj
 0003:00000ba8       __globallocalestatus       0000000180032ba8     libucrt:glstatus.obj
 0003:00000bb0       __acrt_lconv_c             0000000180032bb0     libucrt:localeconv.obj
 0003:00000c48       __acrt_lconv_static_decimal 0000000180032c48     libucrt:localeconv.obj
 0003:00000c4c       __acrt_lconv_static_W_decimal 0000000180032c4c     libucrt:localeconv.obj
 0003:00000c50       _lookuptrailbytes          0000000180032c50     libucrt:read.obj
 0003:00000d74       _fltused                   0000000180032d74     LIBCMT:fltused.obj
 0003:00000d78       ??_R0?AVbad_alloc@std@@@8  0000000180032d78     LIBCMT:throw_bad_alloc.obj
 0003:00000da0       ??_R0?AVexception@std@@@8  0000000180032da0     LIBCMT:throw_bad_alloc.obj
 0003:00000dc8       ??_R0?AVbad_array_new_length@std@@@8 0000000180032dc8     LIBCMT:throw_bad_alloc.obj
 0003:00000df8       ??_R0?AVtype_info@@@8      0000000180032df8     LIBCMT:std_type_info_static.obj
 0003:00000e18       ??_R0?AVbad_exception@std@@@8 0000000180032e18     libvcruntime:frame.obj
 0003:00000e40       ?_pPerfRegFunc@ATL@@3P6AJPEAUHINSTANCE__@@@ZEA 0000000180032e40     OposVariant.obj
 0003:00000e48       ?_pPerfUnRegFunc@ATL@@3P6AJXZEA 0000000180032e48     OposVariant.obj
 0003:00000e50       ?_AtlRegisterPerUser@ATL@@3_NA 0000000180032e50     OposVariant.obj
 0003:00000e58       ?_pAtlModule@ATL@@3PEAVCAtlModule@1@EA 0000000180032e58     OposVariant.obj
 0003:00000e60       ?_pModule@ATL@@3PEAVCComModule@1@EA 0000000180032e60     OposVariant.obj
 0003:00000e68       ?m_bInitFailed@CAtlBaseModule@ATL@@2_NA 0000000180032e68     OposVariant.obj
 0003:00000e70       ?_AtlComModule@ATL@@3VCAtlComModule@1@A 0000000180032e70     OposVariant.obj
 0003:00000ec0       ?_AtlWinModule@ATL@@3VCAtlWinModule@1@A 0000000180032ec0     OposVariant.obj
 0003:00000f08       ?m_libid@CAtlModule@ATL@@2U_GUID@@A 0000000180032f08     Belt.obj
 0003:00000f18       ?_entries@?1??GetConnMap@COPOSBelt@@SAPEBU_ATL_CONNMAP_ENTRY@ATL@@PEAH@Z@4QBU34@B 0000000180032f18     Belt.obj
 0003:00000f30       ?$TSS0@?1??GetConnMap@COPOSBelt@@SAPEBU_ATL_CONNMAP_ENTRY@ATL@@PEAH@Z@4HA 0000000180032f30     Belt.obj
 0003:00000f38       ?_OptionsStorage@?1??__local_stdio_printf_options@@9@4_KA 0000000180032f38     Belt.obj
 0003:00000f40       ?pfnRegDeleteKeyEx@?1??DeleteSubKey@CRegKey@ATL@@QEAAJPEB_W@Z@4P6AJPEAUHKEY__@@0KK@ZEA 0000000180032f40     Belt.obj
 0003:00000f48       ?bInitialized@?1??DeleteSubKey@CRegKey@ATL@@QEAAJPEB_W@Z@4_NA 0000000180032f48     Belt.obj
 0003:00000f50       ?_Module@@3VCComModule@ATL@@A 0000000180032f50     Belt.obj
 0003:00000fa0       ?pConnMap@?$IConnectionPointContainerImpl@VCOPOSBelt@@@ATL@@0PEBU_ATL_CONNMAP_ENTRY@2@EB 0000000180032fa0     Belt.obj
 0003:00000fa8       ?s_nInstances@COPOSBelt@@1HA 0000000180032fa8     BeltImpl.obj
 0003:00000fb0       __scrt_current_native_startup_state 0000000180032fb0     LIBCMT:utility.obj
 0003:00000fb8       __scrt_native_startup_lock 0000000180032fb8     LIBCMT:utility.obj
 0003:000015b0       _tls_index                 00000001800335b0     LIBCMT:tlssup.obj
 0003:000015b8       __favor                    00000001800335b8     LIBCMT:cpu_disp.obj
 0003:000015bc       __scrt_debugger_hook_flag  00000001800335bc     LIBCMT:utility_desktop.obj
 0003:000015c0       ?__type_info_root_node@@3U__type_info_node@@A 00000001800335c0     LIBCMT:tncleanup.obj
 0003:000015d0       ?_OptionsStorage@?1??__local_stdio_scanf_options@@9@4_KA 00000001800335d0     LIBCMT:default_local_stdio_options.obj
 0003:000015e0       ?_AtlBaseModule@ATL@@3VCAtlBaseModule@1@A 00000001800335e0     atls:atlbase.obj
 0003:00001640       ?__AtlThunkPool@@3PEAT_SLIST_HEADER@@EA 0000000180033640     atls:atlthunk.obj
 0003:0000166c       __@@_PchSym_@00@UzABUPdlipUGUhUrmgvinvwrzgvUexgllohUzgohOmzgrevkilqPBACIAJCBDBUlyqiUznwGEUhgwzucOlyq@4B2008FD98C1DD4 000000018003366c     atls:stdafx.obj
 0003:00001670       ?__WinRTOutOfMemoryExceptionCallback@@3P6APEAXXZEA 0000000180033670     libvcruntime:ehhelpers.obj
 0003:00001678       __pPurecall                0000000180033678     libvcruntime:purevirt_data.obj
 0003:00001730       ?pArgList@UnDecorator@@0PEAVReplicator@@EA 0000000180033730     libvcruntime:undname.obj
 0003:00001738       ?pZNameList@UnDecorator@@0PEAVReplicator@@EA 0000000180033738     libvcruntime:undname.obj
 0003:00001740       ?pTemplateArgList@UnDecorator@@0PEAVReplicator@@EA 0000000180033740     libvcruntime:undname.obj
 0003:00001748       ?gName@UnDecorator@@0PEBDEB 0000000180033748     libvcruntime:undname.obj
 0003:00001750       ?name@UnDecorator@@0PEBDEB 0000000180033750     libvcruntime:undname.obj
 0003:00001758       ?disableFlags@UnDecorator@@0KA 0000000180033758     libvcruntime:undname.obj
 0003:0000175c       ?fExplicitTemplateParams@UnDecorator@@0_NA 000000018003375c     libvcruntime:undname.obj
 0003:0000175d       ?fGetTemplateArgumentList@UnDecorator@@0_NA 000000018003375d     libvcruntime:undname.obj
 0003:00001760       ?m_pGetParameter@UnDecorator@@0P6APEADJ@ZEA 0000000180033760     libvcruntime:undname.obj
 0003:00001768       ?m_CHPENameOffset@UnDecorator@@0KA 0000000180033768     libvcruntime:undname.obj
 0003:0000176c       ?m_recursionLevel@UnDecorator@@0KA 000000018003376c     libvcruntime:undname.obj
 0003:000017f0       ?c_exit_complete@?1???R<lambda_6e4b09c48022b2350581041d5f6b0c4c>@@QEBA@XZ@4_NA 00000001800337f0     libucrt:exit.obj
 0003:00001908       _environ_table             0000000180033908     libucrt:environment_initialization.obj
 0003:00001910       _wenviron_table            0000000180033910     libucrt:environment_initialization.obj
 0003:00001918       __dcrt_initial_wide_environment 0000000180033918     libucrt:environment_initialization.obj
 0003:00001920       __dcrt_initial_narrow_environment 0000000180033920     libucrt:environment_initialization.obj
 0003:00001928       __acrt_atexit_table        0000000180033928     libucrt:onexit.obj
 0003:00001940       __acrt_at_quick_exit_table 0000000180033940     libucrt:onexit.obj
 0003:00001b18       _nstream                   0000000180033b18     libucrt:_file.obj
 0003:00001b20       __piob                     0000000180033b20     libucrt:_file.obj
 0003:00001b30       __acrt_stdout_buffer       0000000180033b30     libucrt:_sftbuf.obj
 0003:00001b38       __acrt_stderr_buffer       0000000180033b38     libucrt:_sftbuf.obj
 0003:00001b40       __acrt_locale_changed_data 0000000180033b40     libucrt:wsetlocale.obj
 0003:00001b48       __acrt_current_locale_data 0000000180033b48     libucrt:nlsdata.obj
 0003:00001b50       __pioinfo                  0000000180033b50     libucrt:ioinit.obj
 0003:00001f50       _nhandle                   0000000180033f50     libucrt:ioinit.obj
 0003:00002198       _mbctype                   0000000180034198     libucrt:mbctype.obj
 0003:000021a0       _mbcasemap                 00000001800341a0     libucrt:mbctype.obj
 0003:000021a8       __acrt_current_multibyte_data 00000001800341a8     libucrt:mbctype.obj
 0003:000021b8       _pgmptr                    00000001800341b8     libucrt:argv_data.obj
 0003:000021c0       __argc                     00000001800341c0     libucrt:argv_data.obj
 0003:000021c8       __argv                     00000001800341c8     libucrt:argv_data.obj
 0003:000021d0       __wargv                    00000001800341d0     libucrt:argv_data.obj
 0003:000021d8       _acmdln                    00000001800341d8     libucrt:argv_data.obj
 0003:000021e0       _wcmdln                    00000001800341e0     libucrt:argv_data.obj
 0003:000021e8       __acrt_heap                00000001800341e8     libucrt:heap_handle.obj
 0003:0000221c       __acrt_lconv_static_null   000000018003421c     libucrt:localeconv.obj
 0003:00002220       __acrt_lconv_static_W_null 0000000180034220     libucrt:localeconv.obj
 0003:00002234       __fma3_is_available        0000000180034234     libucrt:fma3_available.obj
 0003:00002238       __use_fma3_lib             0000000180034238     libucrt:fma3_available.obj
 0003:00002240       __dyn_tls_init_callback    0000000180034240     <common>
 0003:00002248       __scrt_ucrt_dll_is_in_use  0000000180034248     <common>

 entry point at        0001:0000ebb4

 Static symbols

 0000:fffc2000       .debug$S                   0000000180000000     OPOSBelt.exp
 0000:fffc2000       .debug$S                   0000000180000000     advapi32:ADVAPI32.dll
 0000:fffc2000       .debug$S                   0000000180000000     advapi32:ADVAPI32.dll
 0000:fffc2000       .debug$S                   0000000180000000     advapi32:ADVAPI32.dll
 0000:fffc2000       .debug$S                   0000000180000000     advapi32:ADVAPI32.dll
 0000:fffc2000       .debug$S                   0000000180000000     advapi32:ADVAPI32.dll
 0000:fffc2000       .debug$S                   0000000180000000     advapi32:ADVAPI32.dll
 0000:fffc2000       .debug$S                   0000000180000000     advapi32:ADVAPI32.dll
 0000:fffc2000       .debug$S                   0000000180000000     advapi32:ADVAPI32.dll
 0000:fffc2000       .debug$S                   0000000180000000     advapi32:ADVAPI32.dll
 0000:fffc2000       .debug$S                   0000000180000000     gdi32:GDI32.dll
 0000:fffc2000       .debug$S                   0000000180000000     gdi32:GDI32.dll
 0000:fffc2000       .debug$S                   0000000180000000     gdi32:GDI32.dll
 0000:fffc2000       .debug$S                   0000000180000000     gdi32:GDI32.dll
 0000:fffc2000       .debug$S                   0000000180000000     gdi32:GDI32.dll
 0000:fffc2000       .debug$S                   0000000180000000     gdi32:GDI32.dll
 0000:fffc2000       .debug$S                   0000000180000000     gdi32:GDI32.dll
 0000:fffc2000       .debug$S                   0000000180000000     gdi32:GDI32.dll
 0000:fffc2000       .debug$S                   0000000180000000     gdi32:GDI32.dll
 0000:fffc2000       .debug$S                   0000000180000000     gdi32:GDI32.dll
 0000:fffc2000       .debug$S                   0000000180000000     gdi32:GDI32.dll
 0000:fffc2000       .debug$S                   0000000180000000     gdi32:GDI32.dll
 0000:fffc2000       .debug$S                   0000000180000000     gdi32:GDI32.dll
 0000:fffc2000       .debug$S                   0000000180000000     gdi32:GDI32.dll
 0000:fffc2000       .debug$S                   0000000180000000     gdi32:GDI32.dll
 0000:fffc2000       .debug$S                   0000000180000000     gdi32:GDI32.dll
 0000:fffc2000       .debug$S                   0000000180000000     gdi32:GDI32.dll
 0000:fffc2000       .debug$S                   0000000180000000     gdi32:GDI32.dll
 0000:fffc2000       .debug$S                   0000000180000000     gdi32:GDI32.dll
 0000:fffc2000       .debug$S                   0000000180000000     kernel32:KERNEL32.dll
 0000:fffc2000       .debug$S                   0000000180000000     kernel32:KERNEL32.dll
 0000:fffc2000       .debug$S                   0000000180000000     kernel32:KERNEL32.dll
 0000:fffc2000       .debug$S                   0000000180000000     kernel32:KERNEL32.dll
 0000:fffc2000       .debug$S                   0000000180000000     kernel32:KERNEL32.dll
 0000:fffc2000       .debug$S                   0000000180000000     kernel32:KERNEL32.dll
 0000:fffc2000       .debug$S                   0000000180000000     kernel32:KERNEL32.dll
 0000:fffc2000       .debug$S                   0000000180000000     kernel32:KERNEL32.dll
 0000:fffc2000       .debug$S                   0000000180000000     kernel32:KERNEL32.dll
 0000:fffc2000       .debug$S                   0000000180000000     kernel32:KERNEL32.dll
 0000:fffc2000       .debug$S                   0000000180000000     kernel32:KERNEL32.dll
 0000:fffc2000       .debug$S                   0000000180000000     kernel32:KERNEL32.dll
 0000:fffc2000       .debug$S                   0000000180000000     kernel32:KERNEL32.dll
 0000:fffc2000       .debug$S                   0000000180000000     kernel32:KERNEL32.dll
 0000:fffc2000       .debug$S                   0000000180000000     kernel32:KERNEL32.dll
 0000:fffc2000       .debug$S                   0000000180000000     kernel32:KERNEL32.dll
 0000:fffc2000       .debug$S                   0000000180000000     kernel32:KERNEL32.dll
 0000:fffc2000       .debug$S                   0000000180000000     kernel32:KERNEL32.dll
 0000:fffc2000       .debug$S                   0000000180000000     kernel32:KERNEL32.dll
 0000:fffc2000       .debug$S                   0000000180000000     kernel32:KERNEL32.dll
 0000:fffc2000       .debug$S                   0000000180000000     kernel32:KERNEL32.dll
 0000:fffc2000       .debug$S                   0000000180000000     kernel32:KERNEL32.dll
 0000:fffc2000       .debug$S                   0000000180000000     kernel32:KERNEL32.dll
 0000:fffc2000       .debug$S                   0000000180000000     kernel32:KERNEL32.dll
 0000:fffc2000       .debug$S                   0000000180000000     kernel32:KERNEL32.dll
 0000:fffc2000       .debug$S                   0000000180000000     kernel32:KERNEL32.dll
 0000:fffc2000       .debug$S                   0000000180000000     kernel32:KERNEL32.dll
 0000:fffc2000       .debug$S                   0000000180000000     kernel32:KERNEL32.dll
 0000:fffc2000       .debug$S                   0000000180000000     kernel32:KERNEL32.dll
 0000:fffc2000       .debug$S                   0000000180000000     kernel32:KERNEL32.dll
 0000:fffc2000       .debug$S                   0000000180000000     kernel32:KERNEL32.dll
 0000:fffc2000       .debug$S                   0000000180000000     kernel32:KERNEL32.dll
 0000:fffc2000       .debug$S                   0000000180000000     kernel32:KERNEL32.dll
 0000:fffc2000       .debug$S                   0000000180000000     kernel32:KERNEL32.dll
 0000:fffc2000       .debug$S                   0000000180000000     kernel32:KERNEL32.dll
 0000:fffc2000       .debug$S                   0000000180000000     kernel32:KERNEL32.dll
 0000:fffc2000       .debug$S                   0000000180000000     kernel32:KERNEL32.dll
 0000:fffc2000       .debug$S                   0000000180000000     kernel32:KERNEL32.dll
 0000:fffc2000       .debug$S                   0000000180000000     kernel32:KERNEL32.dll
 0000:fffc2000       .debug$S                   0000000180000000     kernel32:KERNEL32.dll
 0000:fffc2000       .debug$S                   0000000180000000     kernel32:KERNEL32.dll
 0000:fffc2000       .debug$S                   0000000180000000     kernel32:KERNEL32.dll
 0000:fffc2000       .debug$S                   0000000180000000     kernel32:KERNEL32.dll
 0000:fffc2000       .debug$S                   0000000180000000     kernel32:KERNEL32.dll
 0000:fffc2000       .debug$S                   0000000180000000     kernel32:KERNEL32.dll
 0000:fffc2000       .debug$S                   0000000180000000     kernel32:KERNEL32.dll
 0000:fffc2000       .debug$S                   0000000180000000     kernel32:KERNEL32.dll
 0000:fffc2000       .debug$S                   0000000180000000     kernel32:KERNEL32.dll
 0000:fffc2000       .debug$S                   0000000180000000     kernel32:KERNEL32.dll
 0000:fffc2000       .debug$S                   0000000180000000     kernel32:KERNEL32.dll
 0000:fffc2000       .debug$S                   0000000180000000     kernel32:KERNEL32.dll
 0000:fffc2000       .debug$S                   0000000180000000     kernel32:KERNEL32.dll
 0000:fffc2000       .debug$S                   0000000180000000     kernel32:KERNEL32.dll
 0000:fffc2000       .debug$S                   0000000180000000     kernel32:KERNEL32.dll
 0000:fffc2000       .debug$S                   0000000180000000     kernel32:KERNEL32.dll
 0000:fffc2000       .debug$S                   0000000180000000     kernel32:KERNEL32.dll
 0000:fffc2000       .debug$S                   0000000180000000     kernel32:KERNEL32.dll
 0000:fffc2000       .debug$S                   0000000180000000     kernel32:KERNEL32.dll
 0000:fffc2000       .debug$S                   0000000180000000     kernel32:KERNEL32.dll
 0000:fffc2000       .debug$S                   0000000180000000     kernel32:KERNEL32.dll
 0000:fffc2000       .debug$S                   0000000180000000     kernel32:KERNEL32.dll
 0000:fffc2000       .debug$S                   0000000180000000     kernel32:KERNEL32.dll
 0000:fffc2000       .debug$S                   0000000180000000     kernel32:KERNEL32.dll
 0000:fffc2000       .debug$S                   0000000180000000     kernel32:KERNEL32.dll
 0000:fffc2000       .debug$S                   0000000180000000     kernel32:KERNEL32.dll
 0000:fffc2000       .debug$S                   0000000180000000     kernel32:KERNEL32.dll
 0000:fffc2000       .debug$S                   0000000180000000     kernel32:KERNEL32.dll
 0000:fffc2000       .debug$S                   0000000180000000     kernel32:KERNEL32.dll
 0000:fffc2000       .debug$S                   0000000180000000     kernel32:KERNEL32.dll
 0000:fffc2000       .debug$S                   0000000180000000     kernel32:KERNEL32.dll
 0000:fffc2000       .debug$S                   0000000180000000     kernel32:KERNEL32.dll
 0000:fffc2000       .debug$S                   0000000180000000     kernel32:KERNEL32.dll
 0000:fffc2000       .debug$S                   0000000180000000     kernel32:KERNEL32.dll
 0000:fffc2000       .debug$S                   0000000180000000     kernel32:KERNEL32.dll
 0000:fffc2000       .debug$S                   0000000180000000     kernel32:KERNEL32.dll
 0000:fffc2000       .debug$S                   0000000180000000     kernel32:KERNEL32.dll
 0000:fffc2000       .debug$S                   0000000180000000     kernel32:KERNEL32.dll
 0000:fffc2000       .debug$S                   0000000180000000     kernel32:KERNEL32.dll
 0000:fffc2000       .debug$S                   0000000180000000     kernel32:KERNEL32.dll
 0000:fffc2000       .debug$S                   0000000180000000     kernel32:KERNEL32.dll
 0000:fffc2000       .debug$S                   0000000180000000     kernel32:KERNEL32.dll
 0000:fffc2000       .debug$S                   0000000180000000     kernel32:KERNEL32.dll
 0000:fffc2000       .debug$S                   0000000180000000     kernel32:KERNEL32.dll
 0000:fffc2000       .debug$S                   0000000180000000     kernel32:KERNEL32.dll
 0000:fffc2000       .debug$S                   0000000180000000     kernel32:KERNEL32.dll
 0000:fffc2000       .debug$S                   0000000180000000     kernel32:KERNEL32.dll
 0000:fffc2000       .debug$S                   0000000180000000     kernel32:KERNEL32.dll
 0000:fffc2000       .debug$S                   0000000180000000     kernel32:KERNEL32.dll
 0000:fffc2000       .debug$S                   0000000180000000     kernel32:KERNEL32.dll
 0000:fffc2000       .debug$S                   0000000180000000     kernel32:KERNEL32.dll
 0000:fffc2000       .debug$S                   0000000180000000     kernel32:KERNEL32.dll
 0000:fffc2000       .debug$S                   0000000180000000     kernel32:KERNEL32.dll
 0000:fffc2000       .debug$S                   0000000180000000     kernel32:KERNEL32.dll
 0000:fffc2000       .debug$S                   0000000180000000     kernel32:KERNEL32.dll
 0000:fffc2000       .debug$S                   0000000180000000     kernel32:KERNEL32.dll
 0000:fffc2000       .debug$S                   0000000180000000     kernel32:KERNEL32.dll
 0000:fffc2000       .debug$S                   0000000180000000     kernel32:KERNEL32.dll
 0000:fffc2000       .debug$S                   0000000180000000     kernel32:KERNEL32.dll
 0000:fffc2000       .debug$S                   0000000180000000     kernel32:KERNEL32.dll
 0000:fffc2000       .debug$S                   0000000180000000     kernel32:KERNEL32.dll
 0000:fffc2000       .debug$S                   0000000180000000     kernel32:KERNEL32.dll
 0000:fffc2000       .debug$S                   0000000180000000     kernel32:KERNEL32.dll
 0000:fffc2000       .debug$S                   0000000180000000     kernel32:KERNEL32.dll
 0000:fffc2000       .debug$S                   0000000180000000     kernel32:KERNEL32.dll
 0000:fffc2000       .debug$S                   0000000180000000     kernel32:KERNEL32.dll
 0000:fffc2000       .debug$S                   0000000180000000     kernel32:KERNEL32.dll
 0000:fffc2000       .debug$S                   0000000180000000     kernel32:KERNEL32.dll
 0000:fffc2000       .debug$S                   0000000180000000     kernel32:KERNEL32.dll
 0000:fffc2000       .debug$S                   0000000180000000     kernel32:KERNEL32.dll
 0000:fffc2000       .debug$S                   0000000180000000     kernel32:KERNEL32.dll
 0000:fffc2000       .debug$S                   0000000180000000     kernel32:KERNEL32.dll
 0000:fffc2000       .debug$S                   0000000180000000     ole32:ole32.dll
 0000:fffc2000       .debug$S                   0000000180000000     ole32:ole32.dll
 0000:fffc2000       .debug$S                   0000000180000000     ole32:ole32.dll
 0000:fffc2000       .debug$S                   0000000180000000     ole32:ole32.dll
 0000:fffc2000       .debug$S                   0000000180000000     ole32:ole32.dll
 0000:fffc2000       .debug$S                   0000000180000000     ole32:ole32.dll
 0000:fffc2000       .debug$S                   0000000180000000     ole32:ole32.dll
 0000:fffc2000       .debug$S                   0000000180000000     ole32:ole32.dll
 0000:fffc2000       .debug$S                   0000000180000000     ole32:ole32.dll
 0000:fffc2000       .debug$S                   0000000180000000     ole32:ole32.dll
 0000:fffc2000       .debug$S                   0000000180000000     ole32:ole32.dll
 0000:fffc2000       .debug$S                   0000000180000000     ole32:ole32.dll
 0000:fffc2000       .debug$S                   0000000180000000     ole32:ole32.dll
 0000:fffc2000       .debug$S                   0000000180000000     ole32:ole32.dll
 0000:fffc2000       .debug$S                   0000000180000000     oleaut32:OLEAUT32.dll
 0000:fffc2000       .debug$S                   0000000180000000     oleaut32:OLEAUT32.dll
 0000:fffc2000       .debug$S                   0000000180000000     oleaut32:OLEAUT32.dll
 0000:fffc2000       .debug$S                   0000000180000000     oleaut32:OLEAUT32.dll
 0000:fffc2000       .debug$S                   0000000180000000     oleaut32:OLEAUT32.dll
 0000:fffc2000       .debug$S                   0000000180000000     oleaut32:OLEAUT32.dll
 0000:fffc2000       .debug$S                   0000000180000000     oleaut32:OLEAUT32.dll
 0000:fffc2000       .debug$S                   0000000180000000     oleaut32:OLEAUT32.dll
 0000:fffc2000       .debug$S                   0000000180000000     oleaut32:OLEAUT32.dll
 0000:fffc2000       .debug$S                   0000000180000000     oleaut32:OLEAUT32.dll
 0000:fffc2000       .debug$S                   0000000180000000     oleaut32:OLEAUT32.dll
 0000:fffc2000       .debug$S                   0000000180000000     oleaut32:OLEAUT32.dll
 0000:fffc2000       .debug$S                   0000000180000000     oleaut32:OLEAUT32.dll
 0000:fffc2000       .debug$S                   0000000180000000     oleaut32:OLEAUT32.dll
 0000:fffc2000       .debug$S                   0000000180000000     oleaut32:OLEAUT32.dll
 0000:fffc2000       .debug$S                   0000000180000000     oleaut32:OLEAUT32.dll
 0000:fffc2000       .debug$S                   0000000180000000     user32:USER32.dll
 0000:fffc2000       .debug$S                   0000000180000000     user32:USER32.dll
 0000:fffc2000       .debug$S                   0000000180000000     user32:USER32.dll
 0000:fffc2000       .debug$S                   0000000180000000     user32:USER32.dll
 0000:fffc2000       .debug$S                   0000000180000000     user32:USER32.dll
 0000:fffc2000       .debug$S                   0000000180000000     user32:USER32.dll
 0000:fffc2000       .debug$S                   0000000180000000     user32:USER32.dll
 0000:fffc2000       .debug$S                   0000000180000000     user32:USER32.dll
 0000:fffc2000       .debug$S                   0000000180000000     user32:USER32.dll
 0000:fffc2000       .debug$S                   0000000180000000     user32:USER32.dll
 0000:fffc2000       .debug$S                   0000000180000000     user32:USER32.dll
 0000:fffc2000       .debug$S                   0000000180000000     user32:USER32.dll
 0000:fffc2000       .debug$S                   0000000180000000     user32:USER32.dll
 0000:fffc2000       .debug$S                   0000000180000000     user32:USER32.dll
 0000:fffc2000       .debug$S                   0000000180000000     user32:USER32.dll
 0000:fffc2000       .debug$S                   0000000180000000     user32:USER32.dll
 0000:fffc2000       .debug$S                   0000000180000000     user32:USER32.dll
 0000:fffc2000       .debug$S                   0000000180000000     user32:USER32.dll
 0000:fffc2000       .debug$S                   0000000180000000     user32:USER32.dll
 0000:fffc2000       .debug$S                   0000000180000000     user32:USER32.dll
 0000:fffc2000       .debug$S                   0000000180000000     user32:USER32.dll
 0000:fffc2000       .debug$S                   0000000180000000     user32:USER32.dll
 0000:fffc2000       .debug$S                   0000000180000000     user32:USER32.dll
 0000:fffc2000       .debug$S                   0000000180000000     user32:USER32.dll
 0000:fffc2000       .debug$S                   0000000180000000     user32:USER32.dll
 0000:fffc2000       .debug$S                   0000000180000000     user32:USER32.dll
 0000:fffc2000       .debug$S                   0000000180000000     user32:USER32.dll
 0000:fffc2000       .debug$S                   0000000180000000     user32:USER32.dll
 0000:fffc2000       .debug$S                   0000000180000000     user32:USER32.dll
 0000:fffc2000       .debug$S                   0000000180000000     user32:USER32.dll
 0000:fffc2000       .debug$S                   0000000180000000     user32:USER32.dll
 0000:fffc2000       .debug$S                   0000000180000000     user32:USER32.dll
 0000:fffc2000       .debug$S                   0000000180000000     user32:USER32.dll
 0000:fffc2000       .debug$S                   0000000180000000     user32:USER32.dll
 0000:fffc2000       .debug$S                   0000000180000000     user32:USER32.dll
 0001:00000000       ??__E_AtlComModule@ATL@@YAXXZ 0000000180001000 f   OposVariant.obj
 0001:00000020       ??__E_AtlWinModule@ATL@@YAXXZ 0000000180001020 f   OposVariant.obj
 0001:00000040       ??__E?pConnMap@?$IConnectionPointContainerImpl@VCOPOSBelt@@@ATL@@0PEBU_ATL_CONNMAP_ENTRY@2@EB@@YAXXZ 0000000180001040 f   Belt.obj
 0001:00000058       ??__E_Module@@YAXXZ        0000000180001058 f   Belt.obj
 0001:00000094       ??__E_AtlBaseModule@ATL@@YAXXZ 0000000180001094 f   atls:atlbase.obj
 0001:0000e1c4       ?__scrt_initialize_thread_safe_statics@@YAHXZ 000000018000f1c4 f   LIBCMT:thread_safe_statics.obj
 0001:0000e294       ?__scrt_uninitialize_thread_safe_statics@@YAXXZ 000000018000f294 f   LIBCMT:thread_safe_statics.obj
 0001:0000e5e4       capture_current_context    000000018000f5e4 f   LIBCMT:gs_report.obj
 0001:0000e654       capture_previous_context   000000018000f654 f   LIBCMT:gs_report.obj
 0001:0000e7f0       $$000000                   000000018000f7f0     LIBCMT:chkstk.obj
 0001:0000e860       $$000000                   000000018000f860     LIBCMT:amdsecgs.obj
 0001:0000e894       ?dllmain_crt_dispatch@@YAHQEAUHINSTANCE__@@KQEAX@Z 000000018000f894 f   LIBCMT:dll_dllmain.obj
 0001:0000e8e4       ?dllmain_crt_process_attach@@YAHQEAUHINSTANCE__@@QEAX@Z 000000018000f8e4 f   LIBCMT:dll_dllmain.obj
 0001:0000e9fc       ?dllmain_crt_process_detach@@YAH_N@Z 000000018000f9fc f   LIBCMT:dll_dllmain.obj
 0001:0000ea80       ?dllmain_dispatch@@YAHQEAUHINSTANCE__@@KQEAX@Z 000000018000fa80 f   LIBCMT:dll_dllmain.obj
 0001:0000f348       ??$GetProcAddressAll@P6AP6A_JPEAUHWND__@@I_K_J@ZPEAUAtlThunkData_t@@@Z@@YAP6AP6A_JPEAUHWND__@@I_K_J@ZPEAUAtlThunkData_t@@@ZPEAP6AP6A_J0I12@Z3@Z@Z 0000000180010348 f   atls:atlthunk.obj
 0001:0000f348       ??$GetProcAddressAll@P6APEAUAtlThunkData_t@@XZ@@YAP6APEAUAtlThunkData_t@@XZPEAP6APEAU0@XZ@Z 0000000180010348 f   atls:atlthunk.obj
 0001:0000f348       ??$GetProcAddressAll@P6AXPEAUAtlThunkData_t@@@Z@@YAP6AXPEAUAtlThunkData_t@@@ZPEAP6AX0@Z@Z 0000000180010348 f   atls:atlthunk.obj
 0001:0000f348       ??$GetProcAddressAll@P6AXPEAUAtlThunkData_t@@PEAX_K@Z@@YAP6AXPEAUAtlThunkData_t@@PEAX_K@ZPEAP6AX012@Z@Z 0000000180010348 f   atls:atlthunk.obj
 0001:0000f520       ?__InitializeThunkPool@@YAHXZ 0000000180010520 f   atls:atlthunk.obj
 0001:0000f9c0       $$000000                   00000001800109c0     libvcruntime:memcmp.obj
 0001:0000faa0       $$000000                   0000000180010aa0     libvcruntime:memcpy.obj
 0001:0000feb0       $$000000                   0000000180010eb0     libvcruntime:memset.obj
 0001:00010fc0       $$000000                   0000000180011fc0     libvcruntime:notify.obj
 0001:0001112c       ??$BuildCatchObjectHelperInternal@V__FrameHandler4@@@@YAHPEAUEHExceptionRecord@@PEAXPEAUHandlerType4@FH4@@PEBU_s_CatchableType@@@Z 000000018001212c f   libvcruntime:frame.obj
 0001:00011330       ??$BuildCatchObjectInternal@V__FrameHandler4@@@@YAXPEAUEHExceptionRecord@@PEAXPEAUHandlerType4@FH4@@PEBU_s_CatchableType@@@Z 0000000180012330 f   libvcruntime:frame.obj
 0001:000113f4       ??$CatchIt@V__FrameHandler4@@@@YAXPEAUEHExceptionRecord@@PEA_KPEAU_CONTEXT@@PEAU_xDISPATCHER_CONTEXT@@PEAUFuncInfo4@FH4@@PEAUHandlerType4@4@PEBU_s_CatchableType@@PEAUTryBlockMapEntry4@4@H1EE@Z 00000001800123f4 f   libvcruntime:frame.obj
 0001:000114c8       ??$FindHandler@V__FrameHandler4@@@@YAXPEAUEHExceptionRecord@@PEA_KPEAU_CONTEXT@@PEAU_xDISPATCHER_CONTEXT@@PEAUFuncInfo4@FH4@@EH1@Z 00000001800124c8 f   libvcruntime:frame.obj
 0001:000119d8       ??$FindHandlerForForeignException@V__FrameHandler4@@@@YAXPEAUEHExceptionRecord@@PEA_KPEAU_CONTEXT@@PEAU_xDISPATCHER_CONTEXT@@PEAUFuncInfo4@FH4@@HH1@Z 00000001800129d8 f   libvcruntime:frame.obj
 0001:00012768       ?ExFilterRethrow@@YAHPEAU_EXCEPTION_POINTERS@@PEAUEHExceptionRecord@@PEAH@Z 0000000180013768 f   libvcruntime:frame.obj
 0001:000127f0       ?ExFilterRethrowFH4@@YAHPEAU_EXCEPTION_POINTERS@@PEAUEHExceptionRecord@@HPEAH@Z 00000001800137f0 f   libvcruntime:frame.obj
 0001:00012b08       ?IsInExceptionSpec@@YAEPEAUEHExceptionRecord@@PEBU_s_ESTypeList@@@Z 0000000180013b08 f   libvcruntime:frame.obj
 0001:00012bf4       ?Is_bad_exception_allowed@@YAEPEBU_s_ESTypeList@@@Z 0000000180013bf4 f   libvcruntime:frame.obj
 0001:00012ed0       ?try_get_function@@YAPEAXW4function_id@?A0x5302d918@@QEBDQEBW4module_id@2@2@Z 0000000180013ed0 f   libvcruntime:winapi_downlevel.obj
 0001:000131b0       $$000000                   00000001800141b0     libvcruntime:handlers.obj
 0001:000139c8       ??$common_vsprintf@Vformat_validation_base@__crt_stdio_output@@_W@@YAH_KQEA_W0QEB_WQEAU__crt_locale_pointers@@QEAD@Z 00000001800149c8 f   libucrt:output.obj
 0001:00014868       $LN17                      0000000180015868     libucrt:output.obj
 0001:0001520c       ??$?RV<lambda_d80eeec6fff315bfe5c115232f3240e3>@@AEAV<lambda_6e4b09c48022b2350581041d5f6b0c4c>@@V<lambda_2358e3775559c9db80273638284d5e45>@@@?$__crt_seh_guarded_call@X@@QEAAX$$QEAV<lambda_d80eeec6fff315bfe5c115232f3240e3>@@AEAV<lambda_6e4b09c48022b2350581041d5f6b0c4c>@@$$QEAV<lambda_2358e3775559c9db80273638284d5e45>@@@Z 000000018001620c f   libucrt:exit.obj
 0001:00015244       ??R<lambda_6e4b09c48022b2350581041d5f6b0c4c>@@QEBA@XZ 0000000180016244 f   libucrt:exit.obj
 0001:00015308       ?atexit_exception_filter@@YAHK@Z 0000000180016308 f   libucrt:exit.obj
 0001:00015314       ?common_exit@@YAXHW4_crt_exit_cleanup_mode@@W4_crt_exit_return_mode@@@Z 0000000180016314 f   libucrt:exit.obj
 0001:000153d0       ?exit_or_terminate_process@@YAXI@Z 00000001800163d0 f   libucrt:exit.obj
 0001:0001541c       ?try_cor_exit_process@@YAXI@Z 000000018001641c f   libucrt:exit.obj
 0001:000154a4       ??$parse_command_line@D@@YAXPEADPEAPEAD0PEA_K2@Z 00000001800164a4 f   libucrt:argv_parsing.obj
 0001:0001584c       ??$common_initialize_environment_nolock@D@@YAHXZ 000000018001684c f   libucrt:environment_initialization.obj
 0001:000158b8       ??$create_environment@D@@YAQEAPEADQEAD@Z 00000001800168b8 f   libucrt:environment_initialization.obj
 0001:000159c0       ??$free_environment@D@@YAXQEAPEAD@Z 00000001800169c0 f   libucrt:environment_initialization.obj
 0001:000159c0       ??$free_environment@_W@@YAXQEAPEA_W@Z 00000001800169c0 f   libucrt:environment_initialization.obj
 0001:00015a04       ??$uninitialize_environment_internal@D@@YAXAEAPEAPEAD@Z 0000000180016a04 f   libucrt:environment_initialization.obj
 0001:00015a20       ??$uninitialize_environment_internal@_W@@YAXAEAPEAPEA_W@Z 0000000180016a20 f   libucrt:environment_initialization.obj
 0001:00015a7c       ??$?RV<lambda_638799b9deba96c50f710eeac98168cd>@@AEAV<lambda_22ebabd17bc4fa466a2aca6d8deb888d>@@V<lambda_a6f7d7db0129f75315ebf26d50c089f1>@@@?$__crt_seh_guarded_call@H@@QEAAH$$QEAV<lambda_638799b9deba96c50f710eeac98168cd>@@AEAV<lambda_22ebabd17bc4fa466a2aca6d8deb888d>@@$$QEAV<lambda_a6f7d7db0129f75315ebf26d50c089f1>@@@Z 0000000180016a7c f   libucrt:onexit.obj
 0001:00015ab8       ??$?RV<lambda_7777bce6b2f8c936911f934f8298dc43>@@AEAV<lambda_f03950bc5685219e0bcd2087efbe011e>@@V<lambda_3883c3dff614d5e0c5f61bb1ac94921c>@@@?$__crt_seh_guarded_call@H@@QEAAH$$QEAV<lambda_7777bce6b2f8c936911f934f8298dc43>@@AEAV<lambda_f03950bc5685219e0bcd2087efbe011e>@@$$QEAV<lambda_3883c3dff614d5e0c5f61bb1ac94921c>@@@Z 0000000180016ab8 f   libucrt:onexit.obj
 0001:00015af4       ??R<lambda_22ebabd17bc4fa466a2aca6d8deb888d>@@QEBAHXZ 0000000180016af4 f   libucrt:onexit.obj
 0001:00015ca4       ??R<lambda_f03950bc5685219e0bcd2087efbe011e>@@QEBAHXZ 0000000180016ca4 f   libucrt:onexit.obj
 0001:00015e78       initialize_global_variables 0000000180016e78 f   libucrt:initialization.obj
 0001:00015e8c       initialize_c               0000000180016e8c f   libucrt:initialization.obj
 0001:00015eb0       initialize_environment     0000000180016eb0 f   libucrt:initialization.obj
 0001:00015eb0       initialize_global_state_isolation 0000000180016eb0 f   libucrt:initialization.obj
 0001:00015eb0       report_memory_leaks        0000000180016eb0 f   libucrt:initialization.obj
 0001:00015eb0       uninitialize_c             0000000180016eb0 f   libucrt:initialization.obj
 0001:00015eb0       uninitialize_global_state_isolation 0000000180016eb0 f   libucrt:initialization.obj
 0001:00015eb4       uninitialize_environment   0000000180016eb4 f   libucrt:initialization.obj
 0001:00015ec4       initialize_pointers        0000000180016ec4 f   libucrt:initialization.obj
 0001:00015f04       uninitialize_vcruntime     0000000180016f04 f   libucrt:initialization.obj
 0001:00015f0c       uninitialize_allocated_memory 0000000180016f0c f   libucrt:initialization.obj
 0001:00015f4c       uninitialize_allocated_io_buffers 0000000180016f4c f   libucrt:initialization.obj
 0001:000168c0       $$000000                   00000001800178c0     libucrt:strncmp.obj
 0001:000169bc       ??$?RV<lambda_0ae27a3a962d80f24befdcbee591983d>@@AEAV<lambda_8d0ee55de4b1038c4002e0adecdf1839>@@V<lambda_dc504788e8f1664fe9b84e20bfb512f2>@@@?$__crt_seh_guarded_call@X@@QEAAX$$QEAV<lambda_0ae27a3a962d80f24befdcbee591983d>@@AEAV<lambda_8d0ee55de4b1038c4002e0adecdf1839>@@$$QEAV<lambda_dc504788e8f1664fe9b84e20bfb512f2>@@@Z 00000001800179bc f   libucrt:per_thread_data.obj
 0001:000169fc       ??$?RV<lambda_2d41944a1d46af3157314b8a01080d33>@@AEAV<lambda_8f455de75cd7d7f24b4096f044d8b9e6>@@V<lambda_aa500f224e6afead328df44964fe2772>@@@?$__crt_seh_guarded_call@X@@QEAAX$$QEAV<lambda_2d41944a1d46af3157314b8a01080d33>@@AEAV<lambda_8f455de75cd7d7f24b4096f044d8b9e6>@@$$QEAV<lambda_aa500f224e6afead328df44964fe2772>@@@Z 00000001800179fc f   libucrt:per_thread_data.obj
 0001:00016a3c       ??$?RV<lambda_aa87e3671a710a21b5dc78c0bdf72e11>@@AEAV<lambda_92619d2358a28f41a33ba319515a20b9>@@V<lambda_6992ecaafeb10aed2b74cb1fae11a551>@@@?$__crt_seh_guarded_call@X@@QEAAX$$QEAV<lambda_aa87e3671a710a21b5dc78c0bdf72e11>@@AEAV<lambda_92619d2358a28f41a33ba319515a20b9>@@$$QEAV<lambda_6992ecaafeb10aed2b74cb1fae11a551>@@@Z 0000000180017a3c f   libucrt:per_thread_data.obj
 0001:00016a84       ??$?RV<lambda_f2e299630e499de9f9a165e60fcd3db5>@@AEAV<lambda_2ae9d31cdba2644fcbeaf08da7c24588>@@V<lambda_40d01ff24d0e7b3814fdbdcee8eab3c7>@@@?$__crt_seh_guarded_call@X@@QEAAX$$QEAV<lambda_f2e299630e499de9f9a165e60fcd3db5>@@AEAV<lambda_2ae9d31cdba2644fcbeaf08da7c24588>@@$$QEAV<lambda_40d01ff24d0e7b3814fdbdcee8eab3c7>@@@Z 0000000180017a84 f   libucrt:per_thread_data.obj
 0001:00016ae4       ?construct_ptd_array@@YAXQEAU__acrt_ptd@@@Z 0000000180017ae4 f   libucrt:per_thread_data.obj
 0001:00016bb4       ?destroy_fls@@YAXPEAX@Z    0000000180017bb4 f   libucrt:per_thread_data.obj
 0001:00016bd4       ?destroy_ptd_array@@YAXQEAU__acrt_ptd@@@Z 0000000180017bd4 f   libucrt:per_thread_data.obj
 0001:00016ccc       ?replace_current_thread_locale_nolock@@YAXQEAU__acrt_ptd@@QEAU__crt_locale_data@@@Z 0000000180017ccc f   libucrt:per_thread_data.obj
 0001:000171b0       ?try_get_function@@YAPEAXW4function_id@?A0x391cf84c@@QEBDQEBW4module_id@2@2@Z 00000001800181b0 f   libucrt:winapi_thunks.obj
 0001:00017b80       ?fp_format_a@@YAHQEBNPEAD_KQEAD2H_NIQEAU__crt_locale_pointers@@W4__acrt_rounding_mode@@@Z 0000000180018b80 f   libucrt:cvt.obj
 0001:00017f00       ?fp_format_e@@YAHQEBNQEAD_K12H_NIQEAU__crt_locale_pointers@@W4__acrt_rounding_mode@@@Z 0000000180018f00 f   libucrt:cvt.obj
 0001:00017ff0       ?fp_format_e_internal@@YAHQEAD_KH_NIQEAU_strflt@@2QEAU__crt_locale_pointers@@@Z 0000000180018ff0 f   libucrt:cvt.obj
 0001:000181c4       ?fp_format_f_internal@@YAHQEAD_KHQEAU_strflt@@_NQEAU__crt_locale_pointers@@@Z 00000001800191c4 f   libucrt:cvt.obj
 0001:0001832c       ?fp_format_g@@YAHQEBNQEAD_K12H_NIQEAU__crt_locale_pointers@@@Z 000000018001932c f   libucrt:cvt.obj
 0001:0001846c       ?should_round_up@@YA_NQEBN_KFW4__acrt_rounding_mode@@@Z 000000018001946c f   libucrt:cvt.obj
 0001:00018a90       ??$?RV<lambda_410d79af7f07d98d83a3f525b3859a53>@@AEAV<lambda_3e16ef9562a7dcce91392c22ab16ea36>@@V<lambda_38119f0e861e05405d8a144b9b982f0a>@@@?$__crt_seh_guarded_call@X@@QEAAX$$QEAV<lambda_410d79af7f07d98d83a3f525b3859a53>@@AEAV<lambda_3e16ef9562a7dcce91392c22ab16ea36>@@$$QEAV<lambda_38119f0e861e05405d8a144b9b982f0a>@@@Z 0000000180019a90 f   libucrt:wsetlocale.obj
 0001:00018b3c       ?initialize_inherited_file_handles_nolock@@YAXXZ 0000000180019b3c f   libucrt:ioinit.obj
 0001:00018c2c       ?initialize_stdio_handles_nolock@@YAXXZ 0000000180019c2c f   libucrt:ioinit.obj
 0001:00018ea8       ?<lambda_invoker_cdecl>@<lambda_a1ce4c8ae42411fd470c77163914f50e>@@CAHPEBX0@Z 0000000180019ea8 f   libucrt:argv_wildcards.obj
 0001:000191c0       ??$common_expand_argv_wildcards@D@@YAHQEAPEADQEAPEAPEAD@Z 000000018001a1c0 f   libucrt:argv_wildcards.obj
 0001:000193cc       ??$copy_and_add_argument_to_buffer@D@@YAHQEBD0_KAEAV?$argument_list@D@?A0x5f5c8891@@@Z 000000018001a3cc f   libucrt:argv_wildcards.obj
 0001:00019554       ??$expand_argument_wildcards@D@@YAHQEAD0AEAV?$argument_list@D@?A0x5f5c8891@@@Z 000000018001a554 f   libucrt:argv_wildcards.obj
 0001:00019aa0       ??$?RV<lambda_efdfa57d1f175319df784efa44bb7b81>@@AEAV<lambda_5f0a4c1567f8adc6734073e5d1e1b35c>@@V<lambda_2e8a7d3640ea6ccb4c2413664c2db6fd>@@@?$__crt_seh_guarded_call@X@@QEAAX$$QEAV<lambda_efdfa57d1f175319df784efa44bb7b81>@@AEAV<lambda_5f0a4c1567f8adc6734073e5d1e1b35c>@@$$QEAV<lambda_2e8a7d3640ea6ccb4c2413664c2db6fd>@@@Z 000000018001aaa0 f   libucrt:mbctype.obj
 0001:00019c5c       ?getSystemCP@@YAHH@Z       000000018001ac5c f   libucrt:mbctype.obj
 0001:00019cdc       ?setSBCS@@YAXPEAU__crt_multibyte_data@@@Z 000000018001acdc f   libucrt:mbctype.obj
 0001:00019d6c       ?setSBUpLow@@YAXPEAU__crt_multibyte_data@@@Z 000000018001ad6c f   libucrt:mbctype.obj
 0001:00019f50       ?setmbcp_internal@@YAHH_NQEAU__acrt_ptd@@QEAPEAU__crt_multibyte_data@@@Z 000000018001af50 f   libucrt:mbctype.obj
 0001:0001a110       ?update_thread_multibyte_data_internal@@YAPEAU__crt_multibyte_data@@QEAU__acrt_ptd@@QEAPEAU1@@Z 000000018001b110 f   libucrt:mbctype.obj
 0001:0001a500       ?x_ismbbtype_l@@YAHPEAU__crt_locale_pointers@@IHH@Z 000000018001b500 f   libucrt:ismbbyte.obj
 0001:0001a8a8       ??$?RV<lambda_450d765d439847d4c735a33c368b5fc0>@@AEAV<lambda_44731a7d0e6d81c3e6aa82d741081786>@@V<lambda_601a2a7da3b7a96e9554ac7215c4b07c>@@@?$__crt_seh_guarded_call@P6AXH@Z@@QEAAP6AXH@Z$$QEAV<lambda_450d765d439847d4c735a33c368b5fc0>@@AEAV<lambda_44731a7d0e6d81c3e6aa82d741081786>@@$$QEAV<lambda_601a2a7da3b7a96e9554ac7215c4b07c>@@@Z 000000018001b8a8 f   libucrt:signal.obj
 0001:0001ac04       ??$?RV<lambda_842d9ff0dc9ef11c61343bbaebe7f885>@@AEAV<lambda_c5860995281e5c4ce005b3de8f5874ee>@@V<lambda_d90129c13df834fdcbf8d2b88dafcf2d>@@@?$__crt_seh_guarded_call@X@@QEAAX$$QEAV<lambda_842d9ff0dc9ef11c61343bbaebe7f885>@@AEAV<lambda_c5860995281e5c4ce005b3de8f5874ee>@@$$QEAV<lambda_d90129c13df834fdcbf8d2b88dafcf2d>@@@Z 000000018001bc04 f   libucrt:fflush.obj
 0001:0001aca0       ??$?RV<lambda_886d6c58226a84441f68b9f2b8217b83>@@AEAV<lambda_ab61a845afdef5b7c387490eaf3616ee>@@V<lambda_f7f22ab5edc0698d5f6905b0d3f44752>@@@?$__crt_seh_guarded_call@X@@QEAAX$$QEAV<lambda_886d6c58226a84441f68b9f2b8217b83>@@AEAV<lambda_ab61a845afdef5b7c387490eaf3616ee>@@$$QEAV<lambda_f7f22ab5edc0698d5f6905b0d3f44752>@@@Z 000000018001bca0 f   libucrt:fflush.obj
 0001:0001ad80       ?common_flush_all@@YAH_N@Z 000000018001bd80 f   libucrt:fflush.obj
 0001:0001cdd0       memcpy_s                   000000018001ddd0 f   libucrt:cfout.obj
 0001:0001d138       ?free_crt_array_internal@@YAXQEAPEBX_K@Z 000000018001e138 f   libucrt:inittime.obj
 0001:0001dbc4       fallbackMethod             000000018001ebc4 f   libucrt:strpbrk.obj
 0001:0001df7c       $LN78                      000000018001ef7c     libucrt:strpbrk.obj
 0001:0001dfb8       $LN77                      000000018001efb8     libucrt:strpbrk.obj
 0001:0001dff8       $LN76                      000000018001eff8     libucrt:strpbrk.obj
 0001:0001e0d4       ?__acrt_LCMapStringA_stat@@YAHPEAU__crt_locale_pointers@@PEB_WKPEBDHPEADHHH@Z 000000018001f0d4 f   libucrt:lcmapstringa.obj
 0001:0001e484       ?initialize_multibyte@@YAHXZ 000000018001f484 f   libucrt:multibyte_initializer.obj
 0001:0001e49c       ??$?RV<lambda_a37b2b86f63e897a80ea819b0eb08c01>@@AEAV<lambda_38ce7e780aa69e748d6df282ebc68efe>@@V<lambda_99fb1378e971ab6e7edea83e3a7a83a2>@@@?$__crt_seh_guarded_call@H@@QEAAH$$QEAV<lambda_a37b2b86f63e897a80ea819b0eb08c01>@@AEAV<lambda_38ce7e780aa69e748d6df282ebc68efe>@@$$QEAV<lambda_99fb1378e971ab6e7edea83e3a7a83a2>@@@Z 000000018001f49c f   libucrt:commit.obj
 0001:0001e5bc       ?write_double_translated_ansi_nolock@@YA?AUwrite_result@?A0x17268360@@HQEBDI@Z 000000018001f5bc f   libucrt:write.obj
 0001:0001eaa8       ?write_text_ansi_nolock@@YA?AUwrite_result@?A0x17268360@@HQEBDI@Z 000000018001faa8 f   libucrt:write.obj
 0001:0001ebac       ?write_text_utf16le_nolock@@YA?AUwrite_result@?A0x17268360@@HQEBDI@Z 000000018001fbac f   libucrt:write.obj
 0001:0001ecc8       ?write_text_utf8_nolock@@YA?AUwrite_result@?A0x17268360@@HQEBDI@Z 000000018001fcc8 f   libucrt:write.obj
 0001:0001f620       $$000000                   0000000180020620     libucrt:log10.obj
 0001:0001feec       ??$common_lseek_nolock@_J@@YA_JH_JH@Z 0000000180020eec f   libucrt:lseek.obj
 0001:0002014c       common_control87           000000018002114c f   libucrt:ieee.obj
 0001:0002040c       _call_matherr              000000018002140c f   libucrt:libm_error.obj
 0001:00020474       _exception_enabled         0000000180021474 f   libucrt:libm_error.obj
 0001:00020710       _log_special_common        0000000180021710 f   libucrt:log_special.obj
 0001:000207a8       ??$?RV<lambda_751a882b2c74d4b022dec766aa51a29a>@@AEAV<lambda_628dfdc04ba53c8bfc02c9951375f3f5>@@V<lambda_f6c7be5f7998530c34de24c7437d6b54>@@@?$__crt_seh_guarded_call@H@@QEAAH$$QEAV<lambda_751a882b2c74d4b022dec766aa51a29a>@@AEAV<lambda_628dfdc04ba53c8bfc02c9951375f3f5>@@$$QEAV<lambda_f6c7be5f7998530c34de24c7437d6b54>@@@Z 00000001800217a8 f   libucrt:close.obj
 0001:00020ad0       $$000000                   0000000180021ad0     libucrt:fpsr.obj
 0001:00021170       $$000000                   0000000180022170     LIBCMT:guard_dispatch.obj
 0001:00021190       $$000000                   0000000180022190     LIBCMT:guard_xfg_dispatch.obj
 0001:000211b0       ?filt$0@?0??_AtlVerifyStackAvailable@_ATL_SAFE_ALLOCA_IMPL@ATL@@YA_N_K@Z@4HA 00000001800221b0 f   Belt.obj
 0001:000211d1       __scrt_is_nonwritable_in_current_image$filt$0 00000001800221d1 f   LIBCMT:utility.obj
 0001:000211e9       ?catch$0@?0???2@YAPEAX_KAEBUnothrow_t@std@@@Z@4HA 00000001800221e9 f   LIBCMT:new_scalar_nothrow.obj
 0001:000211f6       __catch$??2@YAPEAX_KAEBUnothrow_t@std@@@Z$0 00000001800221f6 f   LIBCMT:new_scalar_nothrow.obj
 0001:00021207       ?fin$0@?0??dllmain_crt_process_attach@@YAHQEAUHINSTANCE__@@QEAX@Z@4HA 0000000180022207 f   LIBCMT:dll_dllmain.obj
 0001:0002121e       ?fin$0@?0??dllmain_crt_process_detach@@YAH_N@Z@4HA 000000018002221e f   LIBCMT:dll_dllmain.obj
 0001:00021237       ?fin$1@?0??dllmain_crt_process_detach@@YAH_N@Z@4HA 0000000180022237 f   LIBCMT:dll_dllmain.obj
 0001:0002124b       ?filt$0@?0??dllmain_dispatch@@YAHQEAUHINSTANCE__@@KQEAX@Z@4HA 000000018002224b f   LIBCMT:dll_dllmain.obj
 0001:00021281       ?filt$0@?0???$_CallSETranslator@V__FrameHandler4@@@@YAHPEAUEHExceptionRecord@@PEA_KPEAU_CONTEXT@@PEAU_xDISPATCHER_CONTEXT@@PEAUFuncInfo4@FH4@@K1H@Z@4HA 0000000180022281 f   libvcruntime:risctrnsctrl.obj
 0001:00021320       __DestructExceptionObject$filt$0 0000000180022320 f   libvcruntime:ehhelpers.obj
 0001:000213b6       ?filt$0@?0??CxxCallCatchBlock@__FrameHandler4@@SAPEAXPEAU_EXCEPTION_RECORD@@@Z@4HA 00000001800223b6 f   libvcruntime:frame.obj
 0001:000213e5       ?fin$1@?0??CxxCallCatchBlock@__FrameHandler4@@SAPEAXPEAU_EXCEPTION_RECORD@@@Z@4HA 00000001800223e5 f   libvcruntime:frame.obj
 0001:00021468       ?filt$0@?0??FrameUnwindToState@__FrameHandler4@@SAXPEA_KPEAU_xDISPATCHER_CONTEXT@@PEAUFuncInfo4@FH4@@H@Z@4HA 0000000180022468 f   libvcruntime:frame.obj
 0001:0002147e       ?fin$1@?0??FrameUnwindToState@__FrameHandler4@@SAXPEA_KPEAU_xDISPATCHER_CONTEXT@@PEAUFuncInfo4@FH4@@H@Z@4HA 000000018002247e f   libvcruntime:frame.obj
 0001:000214a1       ?fin$0@?0???$?RV<lambda_0ae27a3a962d80f24befdcbee591983d>@@AEAV<lambda_8d0ee55de4b1038c4002e0adecdf1839>@@V<lambda_dc504788e8f1664fe9b84e20bfb512f2>@@@?$__crt_seh_guarded_call@X@@QEAAX$$QEAV<lambda_0ae27a3a962d80f24befdcbee591983d>@@AEAV<lambda_8d0ee55de4b1038c4002e0adecdf1839>@@$$QEAV<lambda_dc504788e8f1664fe9b84e20bfb512f2>@@@Z@4HA 00000001800224a1 f   libucrt:per_thread_data.obj
 0001:000214a1       ?fin$0@?0???$?RV<lambda_2d41944a1d46af3157314b8a01080d33>@@AEAV<lambda_8f455de75cd7d7f24b4096f044d8b9e6>@@V<lambda_aa500f224e6afead328df44964fe2772>@@@?$__crt_seh_guarded_call@X@@QEAAX$$QEAV<lambda_2d41944a1d46af3157314b8a01080d33>@@AEAV<lambda_8f455de75cd7d7f24b4096f044d8b9e6>@@$$QEAV<lambda_aa500f224e6afead328df44964fe2772>@@@Z@4HA 00000001800224a1 f   libucrt:per_thread_data.obj
 0001:000214a1       ?fin$0@?0???$?RV<lambda_aa87e3671a710a21b5dc78c0bdf72e11>@@AEAV<lambda_92619d2358a28f41a33ba319515a20b9>@@V<lambda_6992ecaafeb10aed2b74cb1fae11a551>@@@?$__crt_seh_guarded_call@X@@QEAAX$$QEAV<lambda_aa87e3671a710a21b5dc78c0bdf72e11>@@AEAV<lambda_92619d2358a28f41a33ba319515a20b9>@@$$QEAV<lambda_6992ecaafeb10aed2b74cb1fae11a551>@@@Z@4HA 00000001800224a1 f   libucrt:per_thread_data.obj
 0001:000214a1       ?fin$0@?0???$?RV<lambda_f2e299630e499de9f9a165e60fcd3db5>@@AEAV<lambda_2ae9d31cdba2644fcbeaf08da7c24588>@@V<lambda_40d01ff24d0e7b3814fdbdcee8eab3c7>@@@?$__crt_seh_guarded_call@X@@QEAAX$$QEAV<lambda_f2e299630e499de9f9a165e60fcd3db5>@@AEAV<lambda_2ae9d31cdba2644fcbeaf08da7c24588>@@$$QEAV<lambda_40d01ff24d0e7b3814fdbdcee8eab3c7>@@@Z@4HA 00000001800224a1 f   libucrt:per_thread_data.obj
 0001:000214a1       ?fin$0@?0???$?RV<lambda_efdfa57d1f175319df784efa44bb7b81>@@AEAV<lambda_5f0a4c1567f8adc6734073e5d1e1b35c>@@V<lambda_2e8a7d3640ea6ccb4c2413664c2db6fd>@@@?$__crt_seh_guarded_call@X@@QEAAX$$QEAV<lambda_efdfa57d1f175319df784efa44bb7b81>@@AEAV<lambda_5f0a4c1567f8adc6734073e5d1e1b35c>@@$$QEAV<lambda_2e8a7d3640ea6ccb4c2413664c2db6fd>@@@Z@4HA 00000001800224a1 f   libucrt:mbctype.obj
 0001:000214a1       ?fin$0@?0???$?RV<lambda_450d765d439847d4c735a33c368b5fc0>@@AEAV<lambda_44731a7d0e6d81c3e6aa82d741081786>@@V<lambda_601a2a7da3b7a96e9554ac7215c4b07c>@@@?$__crt_seh_guarded_call@P6AXH@Z@@QEAAP6AXH@Z$$QEAV<lambda_450d765d439847d4c735a33c368b5fc0>@@AEAV<lambda_44731a7d0e6d81c3e6aa82d741081786>@@$$QEAV<lambda_601a2a7da3b7a96e9554ac7215c4b07c>@@@Z@4HA 00000001800224a1 f   libucrt:signal.obj
 0001:000214a1       ?fin$0@?0???$?RV<lambda_d80eeec6fff315bfe5c115232f3240e3>@@AEAV<lambda_6e4b09c48022b2350581041d5f6b0c4c>@@V<lambda_2358e3775559c9db80273638284d5e45>@@@?$__crt_seh_guarded_call@X@@QEAAX$$QEAV<lambda_d80eeec6fff315bfe5c115232f3240e3>@@AEAV<lambda_6e4b09c48022b2350581041d5f6b0c4c>@@$$QEAV<lambda_2358e3775559c9db80273638284d5e45>@@@Z@4HA 00000001800224a1 f   libucrt:exit.obj
 0001:000214a1       ?fin$0@?0???$?RV<lambda_638799b9deba96c50f710eeac98168cd>@@AEAV<lambda_22ebabd17bc4fa466a2aca6d8deb888d>@@V<lambda_a6f7d7db0129f75315ebf26d50c089f1>@@@?$__crt_seh_guarded_call@H@@QEAAH$$QEAV<lambda_638799b9deba96c50f710eeac98168cd>@@AEAV<lambda_22ebabd17bc4fa466a2aca6d8deb888d>@@$$QEAV<lambda_a6f7d7db0129f75315ebf26d50c089f1>@@@Z@4HA 00000001800224a1 f   libucrt:onexit.obj
 0001:000214a1       ?fin$0@?0???$?RV<lambda_7777bce6b2f8c936911f934f8298dc43>@@AEAV<lambda_f03950bc5685219e0bcd2087efbe011e>@@V<lambda_3883c3dff614d5e0c5f61bb1ac94921c>@@@?$__crt_seh_guarded_call@H@@QEAAH$$QEAV<lambda_7777bce6b2f8c936911f934f8298dc43>@@AEAV<lambda_f03950bc5685219e0bcd2087efbe011e>@@$$QEAV<lambda_3883c3dff614d5e0c5f61bb1ac94921c>@@@Z@4HA 00000001800224a1 f   libucrt:onexit.obj
 0001:000214bb       ?filt$0@?0???R<lambda_6e4b09c48022b2350581041d5f6b0c4c>@@QEBA@XZ@4HA 00000001800224bb f   libucrt:exit.obj
 0001:000214d6       _query_new_handler$fin$0   00000001800224d6 f   libucrt:new_handler.obj
 0001:000214ec       ?fin$0@?0???$?RV<lambda_410d79af7f07d98d83a3f525b3859a53>@@AEAV<lambda_3e16ef9562a7dcce91392c22ab16ea36>@@V<lambda_38119f0e861e05405d8a144b9b982f0a>@@@?$__crt_seh_guarded_call@X@@QEAAX$$QEAV<lambda_410d79af7f07d98d83a3f525b3859a53>@@AEAV<lambda_3e16ef9562a7dcce91392c22ab16ea36>@@$$QEAV<lambda_38119f0e861e05405d8a144b9b982f0a>@@@Z@4HA 00000001800224ec f   libucrt:wsetlocale.obj
 0001:00021506       __acrt_initialize_lowio$fin$0 0000000180022506 f   libucrt:ioinit.obj
 0001:00021506       __acrt_lowio_ensure_fh_exists$fin$0 0000000180022506 f   libucrt:osfinfo.obj
 0001:0002151f       ?fin$0@?0??update_thread_multibyte_data_internal@@YAPEAU__crt_multibyte_data@@QEAU__acrt_ptd@@QEAPEAU1@@Z@4HA 000000018002251f f   libucrt:mbctype.obj
 0001:00021538       raise$fin$0                0000000180022538 f   libucrt:signal.obj
 0001:00021559       ?fin$0@?0???$?RV<lambda_842d9ff0dc9ef11c61343bbaebe7f885>@@AEAV<lambda_c5860995281e5c4ce005b3de8f5874ee>@@V<lambda_d90129c13df834fdcbf8d2b88dafcf2d>@@@?$__crt_seh_guarded_call@X@@QEAAX$$QEAV<lambda_842d9ff0dc9ef11c61343bbaebe7f885>@@AEAV<lambda_c5860995281e5c4ce005b3de8f5874ee>@@$$QEAV<lambda_d90129c13df834fdcbf8d2b88dafcf2d>@@@Z@4HA 0000000180022559 f   libucrt:fflush.obj
 0001:00021574       ?fin$0@?0???$?RV<lambda_886d6c58226a84441f68b9f2b8217b83>@@AEAV<lambda_ab61a845afdef5b7c387490eaf3616ee>@@V<lambda_f7f22ab5edc0698d5f6905b0d3f44752>@@@?$__crt_seh_guarded_call@X@@QEAAX$$QEAV<lambda_886d6c58226a84441f68b9f2b8217b83>@@AEAV<lambda_ab61a845afdef5b7c387490eaf3616ee>@@$$QEAV<lambda_f7f22ab5edc0698d5f6905b0d3f44752>@@@Z@4HA 0000000180022574 f   libucrt:fflush.obj
 0001:00021591       __acrt_update_thread_locale_data$fin$0 0000000180022591 f   libucrt:locale_refcounting.obj
 0001:000215aa       _fcloseall$fin$0           00000001800225aa f   libucrt:closeall.obj
 0001:000215c3       ?fin$0@?0???$?RV<lambda_751a882b2c74d4b022dec766aa51a29a>@@AEAV<lambda_628dfdc04ba53c8bfc02c9951375f3f5>@@V<lambda_f6c7be5f7998530c34de24c7437d6b54>@@@?$__crt_seh_guarded_call@H@@QEAAH$$QEAV<lambda_751a882b2c74d4b022dec766aa51a29a>@@AEAV<lambda_628dfdc04ba53c8bfc02c9951375f3f5>@@$$QEAV<lambda_f6c7be5f7998530c34de24c7437d6b54>@@@Z@4HA 00000001800225c3 f   libucrt:close.obj
 0001:000215c3       ?fin$0@?0???$?RV<lambda_a37b2b86f63e897a80ea819b0eb08c01>@@AEAV<lambda_38ce7e780aa69e748d6df282ebc68efe>@@V<lambda_99fb1378e971ab6e7edea83e3a7a83a2>@@@?$__crt_seh_guarded_call@H@@QEAAH$$QEAV<lambda_a37b2b86f63e897a80ea819b0eb08c01>@@AEAV<lambda_38ce7e780aa69e748d6df282ebc68efe>@@$$QEAV<lambda_99fb1378e971ab6e7edea83e3a7a83a2>@@@Z@4HA 00000001800225c3 f   libucrt:commit.obj
 0001:000215dd       _write$fin$0               00000001800225dd f   libucrt:write.obj
 0001:000215f4       fclose$fin$0               00000001800225f4 f   libucrt:fclose.obj
 0001:0002160c       _ctrlfp$filt$0             000000018002260c f   libucrt:fpctrl.obj
 0001:0002160c       common_control87$filt$0    000000018002260c f   libucrt:ieee.obj
 0001:00021640       _IsNonwritableInCurrentImage$filt$0 0000000180022640 f   LIBCMT:pesect.obj
 0001:00021660       ??__F_AtlComModule@ATL@@YAXXZ 0000000180022660 f   OposVariant.obj
 0001:0002166c       ??__F_AtlWinModule@ATL@@YAXXZ 000000018002266c f   OposVariant.obj
 0001:000216b0       ??__F_Module@@YAXXZ        00000001800226b0 f   Belt.obj
 0001:000216cc       ??__F_AtlBaseModule@ATL@@YAXXZ 00000001800226cc f   atls:atlbase.obj
 0002:00000648       ?_AtlBaseModule$initializer$@ATL@@3P6AXXZEA 0000000180023648     atls:atlbase.obj
 0002:00000650       ?_AtlComModule$initializer$@ATL@@3P6AXXZEA 0000000180023650     OposVariant.obj
 0002:00000658       ?_AtlWinModule$initializer$@ATL@@3P6AXXZEA 0000000180023658     OposVariant.obj
 0002:00000660       ?_Module$initializer$@@3P6AXXZEA 0000000180023660     Belt.obj
 0002:00000668       ??pConnMap$initializer$@?$IConnectionPointContainerImpl@VCOPOSBelt@@@ATL@@0P6AXXZEA@@3P6AXXZEA 0000000180023668     Belt.obj
 0002:00000680       ?__scrt_initialize_tss_var@@3P6AHXZEA 0000000180023680     LIBCMT:thread_safe_statics.obj
 0002:00002718       GS_ExceptionPointers       0000000180025718     LIBCMT:gs_report.obj
 0002:00002900       ?ExceptionTemplate@?1??UnwindNestedFrames@__FrameHandler4@@SAXPEA_KPEAUEHExceptionRecord@@PEAU_CONTEXT@@0PEAXPEAUFuncInfo4@FH4@@HHPEAUHandlerType4@6@PEAU_xDISPATCHER_CONTEXT@@E@Z@4U_EXCEPTION_RECORD@@B 0000000180025900     libvcruntime:risctrnsctrl.obj
 0002:000029d0       ?tokenTable@@3QBUStringLiteral@@B 00000001800259d0     libvcruntime:undname.obj
 0002:00002ad0       ?nameTable@@3QBUStringLiteral@@B 0000000180025ad0     libvcruntime:undname.obj
 0002:00003000       ?rttiTable@@3QBUStringLiteral@@B 0000000180026000     libvcruntime:undname.obj
 0002:00003050       ?IndirectionName@@3QBUStringLiteral@@B 0000000180026050     libvcruntime:undname.obj
 0002:000030b0       ?PrefixName@@3QBUStringLiteral@@B 00000001800260b0     libvcruntime:undname.obj
 0002:00003788       ?module_names@?A0x5302d918@@3QBQEB_WB 0000000180026788     libvcruntime:winapi_downlevel.obj
 0002:00003848       ?candidate_modules@?1??try_get_FlsAlloc@@YAP6AKP6AXPEAX@Z@ZXZ@4QBW4module_id@?A0x5302d918@@B 0000000180026848     libvcruntime:winapi_downlevel.obj
 0002:00003860       ?candidate_modules@?1??try_get_FlsFree@@YAP6AHK@ZXZ@4QBW4module_id@?A0x5302d918@@B 0000000180026860     libvcruntime:winapi_downlevel.obj
 0002:00003870       ?candidate_modules@?1??try_get_FlsGetValue@@YAP6APEAXK@ZXZ@4QBW4module_id@?A0x5302d918@@B 0000000180026870     libvcruntime:winapi_downlevel.obj
 0002:00003888       ?candidate_modules@?1??try_get_FlsSetValue@@YAP6AHKPEAX@ZXZ@4QBW4module_id@?A0x5302d918@@B 0000000180026888     libvcruntime:winapi_downlevel.obj
 0002:000038a0       ?candidate_modules@?1??try_get_InitializeCriticalSectionEx@@YAP6AHPEAU_RTL_CRITICAL_SECTION@@KK@ZXZ@4QBW4module_id@?A0x5302d918@@B 00000001800268a0     libvcruntime:winapi_downlevel.obj
 0002:000038d0       ?errtable@@3QBUerrentry@?A0x31fdb9ec@@B 00000001800268d0     libucrt:errno.obj
 0002:00003f60       __acrt_initializers        0000000180026f60     libucrt:initialization.obj
 0002:00004060       ?module_names@?A0x391cf84c@@3QBQEB_WB 0000000180027060     libucrt:winapi_thunks.obj
 0002:00004568       ?candidate_modules@?1??try_get_AreFileApisANSI@@YAP6AHXZXZ@4QBW4module_id@?A0x391cf84c@@B 0000000180027568     libucrt:winapi_thunks.obj
 0002:00004580       ?candidate_modules@?1??try_get_FlsAlloc@@YAP6AKP6AXPEAX@Z@ZXZ@4QBW4module_id@?A0x391cf84c@@B 0000000180027580     libucrt:winapi_thunks.obj
 0002:00004588       ?candidate_modules@?1??try_get_FlsFree@@YAP6AHK@ZXZ@4QBW4module_id@?A0x391cf84c@@B 0000000180027588     libucrt:winapi_thunks.obj
 0002:00004590       ?candidate_modules@?1??try_get_FlsGetValue@@YAP6APEAXK@ZXZ@4QBW4module_id@?A0x391cf84c@@B 0000000180027590     libucrt:winapi_thunks.obj
 0002:00004598       ?candidate_modules@?1??try_get_FlsSetValue@@YAP6AHKPEAX@ZXZ@4QBW4module_id@?A0x391cf84c@@B 0000000180027598     libucrt:winapi_thunks.obj
 0002:000045a0       ?candidate_modules@?1??try_get_InitializeCriticalSectionEx@@YAP6AHPEAU_RTL_CRITICAL_SECTION@@KK@ZXZ@4QBW4module_id@?A0x391cf84c@@B 00000001800275a0     libucrt:winapi_thunks.obj
 0002:000045a8       ?candidate_modules@?1??try_get_LCMapStringEx@@YAP6AHPEB_WK0HPEA_WHPEAU_nlsversioninfo@@PEAX_J@ZXZ@4QBW4module_id@?A0x391cf84c@@B 00000001800275a8     libucrt:winapi_thunks.obj
 0002:000045c0       ?candidate_modules@?1??try_get_LocaleNameToLCID@@YAP6AKPEB_WK@ZXZ@4QBW4module_id@?A0x391cf84c@@B 00000001800275c0     libucrt:winapi_thunks.obj
 0002:000045dc       ?candidate_modules@?1??try_get_AppPolicyGetProcessTerminationMethod@@YAP6AJPEAXPEAW4AppPolicyProcessTerminationMethod@@@ZXZ@4QBW4module_id@?A0x391cf84c@@B 00000001800275dc     libucrt:winapi_thunks.obj
 0002:00004608       ?candidate_modules@?1??try_get_SetThreadStackGuarantee@@YAP6AHPEAK@ZXZ@4QBW4module_id@?A0x391cf84c@@B 0000000180027608     libucrt:winapi_thunks.obj
 0002:00004630       ?strings@?1??fp_format_nan_or_infinity@@YAHW4__acrt_fp_class@@_NPEAD_K1@Z@4QAY03QEBDA 0000000180027630     libucrt:cvt.obj
 0002:00004d90       ?_mb_locale_names@@3QBQEB_WB 0000000180027d90     libucrt:mbctype.obj
 0002:00005600       ?LcidToLocaleNameTable@?A0x881e4c05@@3QBULcidToLocaleName@1@B 0000000180028600     libucrt:lcidtoname_downlevel.obj
 0002:00007060       ?LocaleNameToIndexTable@?A0x881e4c05@@3QBULocaleNameIndex@1@B 000000018002a060     libucrt:lcidtoname_downlevel.obj
 0002:00009300       __real_ninf                000000018002c300     libucrt:log10.obj
 0002:00009310       __real_inf                 000000018002c310     libucrt:log10.obj
 0002:00009320       __real_neg_qnan            000000018002c320     libucrt:log10.obj
 0002:00009330       __real_qnanbit             000000018002c330     libucrt:log10.obj
 0002:00009340       __int_1023                 000000018002c340     libucrt:log10.obj
 0002:00009350       __mask_001                 000000018002c350     libucrt:log10.obj
 0002:00009360       __mask_mant                000000018002c360     libucrt:log10.obj
 0002:00009370       __mask_mant_top8           000000018002c370     libucrt:log10.obj
 0002:00009380       __mask_mant9               000000018002c380     libucrt:log10.obj
 0002:00009390       __real_log10_e             000000018002c390     libucrt:log10.obj
 0002:000093a0       __real_log10_e_lead        000000018002c3a0     libucrt:log10.obj
 0002:000093b0       __real_log10_e_tail        000000018002c3b0     libucrt:log10.obj
 0002:000093c0       __real_log10_2_lead        000000018002c3c0     libucrt:log10.obj
 0002:000093d0       __real_log10_2_tail        000000018002c3d0     libucrt:log10.obj
 0002:000093e0       __real_two                 000000018002c3e0     libucrt:log10.obj
 0002:000093f0       __real_one                 000000018002c3f0     libucrt:log10.obj
 0002:00009400       __real_half                000000018002c400     libucrt:log10.obj
 0002:00009410       __mask_100                 000000018002c410     libucrt:log10.obj
 0002:00009420       __real_1_over_512          000000018002c420     libucrt:log10.obj
 0002:00009430       __real_1_over_2            000000018002c430     libucrt:log10.obj
 0002:00009440       __real_1_over_3            000000018002c440     libucrt:log10.obj
 0002:00009450       __real_1_over_4            000000018002c450     libucrt:log10.obj
 0002:00009460       __real_1_over_5            000000018002c460     libucrt:log10.obj
 0002:00009470       __real_1_over_6            000000018002c470     libucrt:log10.obj
 0002:00009480       __real_neg_1023            000000018002c480     libucrt:log10.obj
 0002:00009490       __mask_2045                000000018002c490     libucrt:log10.obj
 0002:000094a0       __real_threshold           000000018002c4a0     libucrt:log10.obj
 0002:000094b0       __real_near_one_lt         000000018002c4b0     libucrt:log10.obj
 0002:000094c0       __real_near_one_gt         000000018002c4c0     libucrt:log10.obj
 0002:000094d0       __real_min_norm            000000018002c4d0     libucrt:log10.obj
 0002:000094e0       __real_notsign             000000018002c4e0     libucrt:log10.obj
 0002:000094f0       __real_ca1                 000000018002c4f0     libucrt:log10.obj
 0002:00009500       __real_ca2                 000000018002c500     libucrt:log10.obj
 0002:00009510       __real_ca3                 000000018002c510     libucrt:log10.obj
 0002:00009520       __real_ca4                 000000018002c520     libucrt:log10.obj
 0002:00009530       __mask_lower               000000018002c530     libucrt:log10.obj
 0002:00009540       __flag_x_zero              000000018002c540     libucrt:log10.obj
 0002:00009544       __flag_x_neg               000000018002c544     libucrt:log10.obj
 0002:00009548       __flag_x_nan               000000018002c548     libucrt:log10.obj
 0002:0000ada0       __real@433fffffffffffff    000000018002dda0     libucrt:fpsr.obj
 0002:0000ada8       __real@c33fffffffffffff    000000018002dda8     libucrt:fpsr.obj
 0002:0000b610       $unwind$?ProcessWindowMessage@?$CComControl@VCOPOSBelt@@V?$CWindowImpl@VCOPOSBelt@@VCWindow@ATL@@V?$CWinTraits@$0FGAAAAAA@$0A@@3@@ATL@@@ATL@@UEAAHPEAUHWND__@@I_K_JAEA_JK@Z 000000018002e610     Belt.obj
 0002:0000b610       $unwind$?cw_memcpy@@YAHPEA_WPEBDH@Z 000000018002e610     CWString.obj
 0002:0000b610       $unwind$wcstol             000000018002e610     libucrt:strtox.obj
 0002:0000b610       $unwind$_invalid_parameter_noinfo 000000018002e610     libucrt:invalid_parameter.obj
 0002:0000b610       $unwind$_log10_special     000000018002e610     libucrt:log_special.obj
 0002:0000b618       $unwind$??__E?pConnMap@?$IConnectionPointContainerImpl@VCOPOSBelt@@@ATL@@0PEBU_ATL_CONNMAP_ENTRY@2@EB@@YAXXZ 000000018002e618     Belt.obj
 0002:0000b618       $unwind$?AddReplacement@CRegObject@ATL@@UEAAJPEB_W0@Z 000000018002e618     Belt.obj
 0002:0000b618       $unwind$?AtlHresultFromLastError@ATL@@YAJXZ 000000018002e618     Belt.obj
 0002:0000b618       $unwind$?AtlThrowImpl@ATL@@YAXJ@Z 000000018002e618     Belt.obj
 0002:0000b618       $unwind$?CreateInstance@CComClassFactory@ATL@@UEAAJPEAUIUnknown@@AEBU_GUID@@PEAPEAX@Z 000000018002e618     Belt.obj
 0002:0000b618       $unwind$?DefaultReflectionHandler@?$CWindowImplRoot@VCWindow@ATL@@@ATL@@SAHPEAUHWND__@@I_K_JAEA_J@Z 000000018002e618     Belt.obj
 0002:0000b618       $unwind$?EnumAdvise@?$IOleObjectImpl@VCOPOSBelt@@@ATL@@UEAAJPEAPEAUIEnumSTATDATA@@@Z 000000018002e618     Belt.obj
 0002:0000b618       $unwind$?FireViewChange@CComControlBase@ATL@@QEAAJXZ 000000018002e618     Belt.obj
 0002:0000b618       $unwind$?GetAdvise@?$IViewObjectExImpl@VCOPOSBelt@@@ATL@@UEAAJPEAK0PEAPEAUIAdviseSink@@@Z 000000018002e618     Belt.obj
 0002:0000b618       $unwind$?LockServer@CComClassFactory@ATL@@UEAAJH@Z 000000018002e618     Belt.obj
 0002:0000b618       $unwind$?OnDocWindowActivate@?$IOleInPlaceActiveObjectImpl@VCOPOSBelt@@@ATL@@UEAAJH@Z 000000018002e618     Belt.obj
 0002:0000b618       $unwind$?Unadvise@?$IOleObjectImpl@VCOPOSBelt@@@ATL@@UEAAJK@Z 000000018002e618     Belt.obj
 0002:0000b618       $unwind$?_LocCPQueryInterface@?$IConnectionPointImpl@VCOPOSBelt@@$1?DIID__IOPOSBeltEvents@@3U_GUID@@BVCComDynamicUnkArray@ATL@@@ATL@@UEAAJAEBU_GUID@@PEAPEAX@Z 000000018002e618     Belt.obj
 0002:0000b618       $unwind$?_LocCPQueryInterface@?$IConnectionPointImpl@VCOPOSBelt@@$1?IID_IPropertyNotifySink@@3U_GUID@@BVCComDynamicUnkArray@ATL@@@ATL@@UEAAJAEBU_GUID@@PEAPEAX@Z 000000018002e618     Belt.obj
 0002:0000b618       $unwind$?FinalConstruct@COPOSBelt@@QEAAJXZ 000000018002e618     BeltImpl.obj
 0002:0000b618       $unwind$?get_ResultCode@COPOSBelt@@UEAAJPEAJ@Z 000000018002e618     BeltImpl.obj
 0002:0000b618       $unwind$?get_State@COPOSBelt@@UEAAJPEAJ@Z 000000018002e618     BeltImpl.obj
 0002:0000b618       $unwind$?cw_strcpy@@YAHPEA_WPEBD@Z 000000018002e618     CWString.obj
 0002:0000b618       $unwind$??1OposDispParms@@QEAA@XZ 000000018002e618     OposVariant.obj
 0002:0000b618       $unwind$??__E_AtlComModule@ATL@@YAXXZ 000000018002e618     OposVariant.obj
 0002:0000b618       $unwind$??__E_AtlWinModule@ATL@@YAXXZ 000000018002e618     OposVariant.obj
 0002:0000b618       $unwind$??__F_AtlWinModule@ATL@@YAXXZ 000000018002e618     OposVariant.obj
 0002:0000b618       $unwind$?GetLONG@OposVariant@@QEAAJXZ 000000018002e618     OposVariant.obj
 0002:0000b618       $unwind$??__E_AtlBaseModule@ATL@@YAXXZ 000000018002e618     atls:atlbase.obj
 0002:0000b618       $unwind$__scrt_initialize_default_local_stdio_options 000000018002e618     LIBCMT:default_local_stdio_options.obj
 0002:0000b618       $unwind$?dllmain_crt_dispatch@@YAHQEAUHINSTANCE__@@KQEAX@Z 000000018002e618     LIBCMT:dll_dllmain.obj
 0002:0000b618       $unwind$__report_rangecheckfailure 000000018002e618     LIBCMT:gs_report.obj
 0002:0000b618       $unwind$__GSHandlerCheck   000000018002e618     LIBCMT:gshandler.obj
 0002:0000b618       $unwind$?__scrt_uninitialize_thread_safe_statics@@YAXXZ 000000018002e618     LIBCMT:thread_safe_statics.obj
 0002:0000b618       $unwind$_Init_thread_notify 000000018002e618     LIBCMT:thread_safe_statics.obj
 0002:0000b618       $unwind$__scrt_acquire_startup_lock 000000018002e618     LIBCMT:utility.obj
 0002:0000b618       $unwind$__scrt_dllmain_after_initialize_c 000000018002e618     LIBCMT:utility.obj
 0002:0000b618       $unwind$__scrt_dllmain_before_initialize_c 000000018002e618     LIBCMT:utility.obj
 0002:0000b618       $unwind$__scrt_dllmain_crt_thread_attach 000000018002e618     LIBCMT:utility.obj
 0002:0000b618       $unwind$__scrt_dllmain_crt_thread_detach 000000018002e618     LIBCMT:utility.obj
 0002:0000b618       $unwind$__scrt_dllmain_uninitialize_c 000000018002e618     LIBCMT:utility.obj
 0002:0000b618       $unwind$__scrt_dllmain_uninitialize_critical 000000018002e618     LIBCMT:utility.obj
 0002:0000b618       $unwind$atexit             000000018002e618     LIBCMT:utility.obj
 0002:0000b618       $unwind$__vcrt_initialize  000000018002e618     libvcruntime:initialization.obj
 0002:0000b618       $unwind$__vcrt_thread_attach 000000018002e618     libvcruntime:initialization.obj
 0002:0000b618       $unwind$__vcrt_thread_detach 000000018002e618     libvcruntime:initialization.obj
 0002:0000b618       $unwind$__vcrt_uninitialize 000000018002e618     libvcruntime:initialization.obj
 0002:0000b618       $unwind$__vcrt_uninitialize_critical 000000018002e618     libvcruntime:initialization.obj
 0002:0000b618       $unwind$__vcrt_initialize_locks 000000018002e618     libvcruntime:locks.obj
 0002:0000b618       $unwind$__vcrt_freefls     000000018002e618     libvcruntime:per_thread_data.obj
 0002:0000b618       $unwind$__vcrt_getptd      000000018002e618     libvcruntime:per_thread_data.obj
 0002:0000b618       $unwind$__vcrt_initialize_ptd 000000018002e618     libvcruntime:per_thread_data.obj
 0002:0000b618       $unwind$__vcrt_uninitialize_ptd 000000018002e618     libvcruntime:per_thread_data.obj
 0002:0000b618       $unwind$_purecall          000000018002e618     libvcruntime:purevirt.obj
 0002:0000b618       $unwind$?FrameUnwindToEmptyState@__FrameHandler4@@SAXPEA_KPEAU_xDISPATCHER_CONTEXT@@PEAUFuncInfo4@FH4@@@Z 000000018002e618     libvcruntime:risctrnsctrl.obj
 0002:0000b618       $unwind$_GetImageBase      000000018002e618     libvcruntime:risctrnsctrl.obj
 0002:0000b618       $unwind$_GetThrowImageBase 000000018002e618     libvcruntime:risctrnsctrl.obj
 0002:0000b618       $unwind$__dcrt_terminate_console_output 000000018002e618     libucrt:initcon.obj
 0002:0000b618       $unwind$??$uninitialize_environment_internal@D@@YAXAEAPEAPEAD@Z 000000018002e618     libucrt:environment_initialization.obj
 0002:0000b618       $unwind$??$uninitialize_environment_internal@_W@@YAXAEAPEAPEA_W@Z 000000018002e618     libucrt:environment_initialization.obj
 0002:0000b618       $unwind$__dcrt_uninitialize_environments_nolock 000000018002e618     libucrt:environment_initialization.obj
 0002:0000b618       $unwind$__acrt_initialize_heap 000000018002e618     libucrt:heap_handle.obj
 0002:0000b618       $unwind$_msize_base        000000018002e618     libucrt:msize.obj
 0002:0000b618       $unwind$?initialize_multibyte@@YAHXZ 000000018002e618     libucrt:multibyte_initializer.obj
 0002:0000b618       $unwind$__acrt_thread_attach 000000018002e618     libucrt:initialization.obj
 0002:0000b618       $unwind$__acrt_thread_detach 000000018002e618     libucrt:initialization.obj
 0002:0000b618       $unwind$__acrt_uninitialize 000000018002e618     libucrt:initialization.obj
 0002:0000b618       $unwind$__acrt_uninitialize_critical 000000018002e618     libucrt:initialization.obj
 0002:0000b618       $unwind$initialize_c       000000018002e618     libucrt:initialization.obj
 0002:0000b618       $unwind$uninitialize_allocated_io_buffers 000000018002e618     libucrt:initialization.obj
 0002:0000b618       $unwind$uninitialize_environment 000000018002e618     libucrt:initialization.obj
 0002:0000b618       $unwind$__acrt_initialize_ptd 000000018002e618     libucrt:per_thread_data.obj
 0002:0000b618       $unwind$__acrt_uninitialize_ptd 000000018002e618     libucrt:per_thread_data.obj
 0002:0000b618       $unwind$__acrt_AreFileApisANSI 000000018002e618     libucrt:winapi_thunks.obj
 0002:0000b618       $unwind$__pctype_func      000000018002e618     libucrt:ctype.obj
 0002:0000b618       $unwind$__acrt_release_locale_ref 000000018002e618     libucrt:locale_refcounting.obj
 0002:0000b618       $unwind$_isatty            000000018002e618     libucrt:isatty.obj
 0002:0000b618       $unwind$_get_osfhandle     000000018002e618     libucrt:osfinfo.obj
 0002:0000b618       $unwind$__acrt_initialize_multibyte 000000018002e618     libucrt:mbctype.obj
 0002:0000b618       $unwind$__acrt_update_thread_multibyte_data 000000018002e618     libucrt:mbctype.obj
 0002:0000b618       $unwind$__doserrno         000000018002e618     libucrt:errno.obj
 0002:0000b618       $unwind$_errno             000000018002e618     libucrt:errno.obj
 0002:0000b618       $unwind$_invoke_watson     000000018002e618     libucrt:invalid_parameter.obj
 0002:0000b618       $unwind$abort              000000018002e618     libucrt:abort.obj
 0002:0000b618       $unwind$__acrt_initialize_command_line 000000018002e618     libucrt:argv_data.obj
 0002:0000b618       $unwind$_fileno            000000018002e618     libucrt:fileno.obj
 0002:0000b618       $unwind$?state_case_size@?$output_processor@_WV?$string_output_adapter@_W@__crt_stdio_output@@V?$format_validation_base@_WV?$string_output_adapter@_W@__crt_stdio_output@@@2@@__crt_stdio_output@@AEAA_NXZ 000000018002e618     libucrt:output.obj
 0002:0000b618       $unwind$_statfp            000000018002e618     libucrt:fpctrl.obj
 0002:0000b618       $unwind$fegetround         000000018002e618     libucrt:fegetround.obj
 0002:0000b618       $unwind$_set_errno_from_matherr 000000018002e618     libucrt:fpexcept.obj
 0002:0000b620       $unwind$?DAdvise@?$IDataObjectImpl@VCOPOSBelt@@@ATL@@UEAAJPEAUtagFORMATETC@@KPEAUIAdviseSink@@PEAK@Z 000000018002e620     Belt.obj
 0002:0000b620       $unwind$?cw_dup@@YAXPEBDAEAHAEAPEA_W1@Z 000000018002e620     CWString.obj
 0002:0000b620       $unwind$??$__acrt_mbs_to_wcs_cp@U__crt_win32_buffer_internal_dynamic_resizing@@@@YAHQEBDAEAV?$__crt_win32_buffer@_WU__crt_win32_buffer_internal_dynamic_resizing@@@@I@Z 000000018002e620     libucrt:argv_wildcards.obj
 0002:0000b638       $unwind$??0?$CComObject@VCOPOSBelt@@@ATL@@QEAA@PEAX@Z 000000018002e638     Belt.obj
 0002:0000b638       $unwind$??0CAtlModule@ATL@@QEAA@XZ 000000018002e638     Belt.obj
 0002:0000b638       $unwind$??1?$CComObject@VCOPOSBelt@@@ATL@@UEAA@XZ 000000018002e638     Belt.obj
 0002:0000b638       $unwind$??__E_Module@@YAXXZ 000000018002e638     Belt.obj
 0002:0000b638       $unwind$?AddRef@?$CComObjectCached@VCComClassFactory@ATL@@@ATL@@UEAAKXZ 000000018002e638     Belt.obj
 0002:0000b638       $unwind$?AllocateHeap@?$CTempBuffer@E$0BAA@VCCRTAllocator@ATL@@@ATL@@AEAAX_K@Z 000000018002e638     Belt.obj
 0002:0000b638       $unwind$?AllocateHeap@?$CTempBuffer@_W$0BAA@VCCRTAllocator@ATL@@@ATL@@AEAAX_K@Z 000000018002e638     Belt.obj
 0002:0000b638       $unwind$?AllocateHeap@?$CTempBuffer@_W$0EAA@VCCRTAllocator@ATL@@@ATL@@AEAAX_K@Z 000000018002e638     Belt.obj
 0002:0000b638       $unwind$?GetClassInfoW@?$IProvideClassInfo2Impl@$1?CLSID_OPOSBelt@@3U_GUID@@B$1?DIID__IOPOSBeltEvents@@3U2@B$1?LIBID_OposBelt_CCO@@3U2@B$00$0A@VCComTypeInfoHolder@ATL@@@ATL@@UEAAJPEAPEAUITypeInfo@@@Z 000000018002e638     Belt.obj
 0002:0000b638       $unwind$?GetClientSite@?$IOleObjectImpl@VCOPOSBelt@@@ATL@@UEAAJPEAPEAUIOleClientSite@@@Z 000000018002e638     Belt.obj
 0002:0000b638       $unwind$?GetConnMap@COPOSBelt@@SAPEBU_ATL_CONNMAP_ENTRY@ATL@@PEAH@Z 000000018002e638     Belt.obj
 0002:0000b638       $unwind$?GetTypeInfo@?$IDispatchImpl@UIOPOSBelt@@$1?IID_IOPOSBelt@@3U_GUID@@B$1?LIBID_OposBelt_CCO@@3U3@B$00$0A@VCComTypeInfoHolder@ATL@@@ATL@@UEAAJIKPEAPEAUITypeInfo@@@Z 000000018002e638     Belt.obj
 0002:0000b638       $unwind$?IOleInPlaceObject_InPlaceDeactivate@CComControlBase@ATL@@QEAAJXZ 000000018002e638     Belt.obj
 0002:0000b638       $unwind$?IOleObject_SetExtent@CComControlBase@ATL@@QEAAJKPEAUtagSIZE@@@Z 000000018002e638     Belt.obj
 0002:0000b638       $unwind$?IsEqualObject@?$CComPtrBase@UIOleClientSite@@@ATL@@QEAA_NPEAUIUnknown@@@Z 000000018002e638     Belt.obj
 0002:0000b638       $unwind$?QueryHitPoint@?$IViewObjectExImpl@VCOPOSBelt@@@ATL@@UEAAJKPEBUtagRECT@@UtagPOINT@@JPEAK@Z 000000018002e638     Belt.obj
 0002:0000b638       $unwind$?QueryInterface@?$CComAggObject@VCOPOSBelt@@@ATL@@UEAAJAEBU_GUID@@PEAPEAX@Z 000000018002e638     Belt.obj
 0002:0000b638       $unwind$?Release@?$CComObjectCached@VCComClassFactory@ATL@@@ATL@@UEAAKXZ 000000018002e638     Belt.obj
 0002:0000b638       $unwind$?Unadvise@?$IConnectionPointImpl@VCOPOSBelt@@$1?DIID__IOPOSBeltEvents@@3U_GUID@@BVCComDynamicUnkArray@ATL@@@ATL@@UEAAJK@Z 000000018002e638     Belt.obj
 0002:0000b638       $unwind$?Unadvise@?$IConnectionPointImpl@VCOPOSBelt@@$1?IID_IPropertyNotifySink@@3U_GUID@@BVCComDynamicUnkArray@ATL@@@ATL@@UEAAJK@Z 000000018002e638     Belt.obj
 0002:0000b638       $unwind$??1CComControlBase@ATL@@UEAA@XZ 000000018002e638     BeltImpl.obj
 0002:0000b638       $unwind$??1COPOSBelt@@UEAA@XZ 000000018002e638     BeltImpl.obj
 0002:0000b638       $unwind$?EventUninit@COPOSBelt@@IEAAXXZ 000000018002e638     BeltImpl.obj
 0002:0000b638       $unwind$?FreezeEvents@COPOSBelt@@MEAAJH@Z 000000018002e638     BeltImpl.obj
 0002:0000b638       $unwind$?SOProcessID@COPOSBelt@@UEAAJPEAJ@Z 000000018002e638     BeltImpl.obj
 0002:0000b638       $unwind$?get_AutoStopBackward@COPOSBelt@@UEAAJPEAF@Z 000000018002e638     BeltImpl.obj
 0002:0000b638       $unwind$?get_AutoStopForward@COPOSBelt@@UEAAJPEAF@Z 000000018002e638     BeltImpl.obj
 0002:0000b638       $unwind$?get_CapAutoStopBackward@COPOSBelt@@UEAAJPEAF@Z 000000018002e638     BeltImpl.obj
 0002:0000b638       $unwind$?get_CapAutoStopBackwardItemCount@COPOSBelt@@UEAAJPEAF@Z 000000018002e638     BeltImpl.obj
 0002:0000b638       $unwind$?get_CapAutoStopForward@COPOSBelt@@UEAAJPEAF@Z 000000018002e638     BeltImpl.obj
 0002:0000b638       $unwind$?get_CapAutoStopForwardItemCount@COPOSBelt@@UEAAJPEAF@Z 000000018002e638     BeltImpl.obj
 0002:0000b638       $unwind$?get_CapCompareFirmwareVersion@COPOSBelt@@UEAAJPEAF@Z 000000018002e638     BeltImpl.obj
 0002:0000b638       $unwind$?get_CapLightBarrierBackward@COPOSBelt@@UEAAJPEAF@Z 000000018002e638     BeltImpl.obj
 0002:0000b638       $unwind$?get_CapLightBarrierForward@COPOSBelt@@UEAAJPEAF@Z 000000018002e638     BeltImpl.obj
 0002:0000b638       $unwind$?get_CapMoveBackward@COPOSBelt@@UEAAJPEAF@Z 000000018002e638     BeltImpl.obj
 0002:0000b638       $unwind$?get_CapSecurityFlapBackward@COPOSBelt@@UEAAJPEAF@Z 000000018002e638     BeltImpl.obj
 0002:0000b638       $unwind$?get_CapSecurityFlapForward@COPOSBelt@@UEAAJPEAF@Z 000000018002e638     BeltImpl.obj
 0002:0000b638       $unwind$?get_CapStatisticsReporting@COPOSBelt@@UEAAJPEAF@Z 000000018002e638     BeltImpl.obj
 0002:0000b638       $unwind$?get_CapUpdateFirmware@COPOSBelt@@UEAAJPEAF@Z 000000018002e638     BeltImpl.obj
 0002:0000b638       $unwind$?get_CapUpdateStatistics@COPOSBelt@@UEAAJPEAF@Z 000000018002e638     BeltImpl.obj
 0002:0000b638       $unwind$?get_Claimed@COPOSBelt@@UEAAJPEAF@Z 000000018002e638     BeltImpl.obj
 0002:0000b638       $unwind$?get_DeviceEnabled@COPOSBelt@@UEAAJPEAF@Z 000000018002e638     BeltImpl.obj
 0002:0000b638       $unwind$?get_FreezeEvents@COPOSBelt@@UEAAJPEAF@Z 000000018002e638     BeltImpl.obj
 0002:0000b638       $unwind$?get_LightBarrierBackwardInterrupted@COPOSBelt@@UEAAJPEAF@Z 000000018002e638     BeltImpl.obj
 0002:0000b638       $unwind$?get_LightBarrierForwardInterrupted@COPOSBelt@@UEAAJPEAF@Z 000000018002e638     BeltImpl.obj
 0002:0000b638       $unwind$?get_SecurityFlapBackwardOpened@COPOSBelt@@UEAAJPEAF@Z 000000018002e638     BeltImpl.obj
 0002:0000b638       $unwind$?get_SecurityFlapForwardOpened@COPOSBelt@@UEAAJPEAF@Z 000000018002e638     BeltImpl.obj
 0002:0000b638       $unwind$?put_FreezeEvents@COPOSBelt@@UEAAJF@Z 000000018002e638     BeltImpl.obj
 0002:0000b638       $unwind$?DupWide@_CW@@AEAAXXZ 000000018002e638     CWString.obj
 0002:0000b638       $unwind$??0CAtlComModule@ATL@@QEAA@XZ 000000018002e638     OposVariant.obj
 0002:0000b638       $unwind$??0CAtlWinModule@ATL@@QEAA@XZ 000000018002e638     OposVariant.obj
 0002:0000b638       $unwind$??1CAtlBaseModule@ATL@@QEAA@XZ 000000018002e638     atls:atlbase.obj
 0002:0000b638       $unwind$AtlThunk_AllocateData 000000018002e638     atls:atlthunk.obj
 0002:0000b638       $unwind$__raise_securityfailure 000000018002e638     LIBCMT:gs_report.obj
 0002:0000b638       $unwind$??2@YAPEAX_K@Z     000000018002e638     LIBCMT:new_scalar.obj
 0002:0000b638       $unwind$??_Gtype_info@@UEAAPEAXI@Z 000000018002e638     LIBCMT:std_type_info_static.obj
 0002:0000b638       $unwind$_Init_thread_footer 000000018002e638     LIBCMT:thread_safe_statics.obj
 0002:0000b638       $unwind$_Init_thread_header 000000018002e638     LIBCMT:thread_safe_statics.obj
 0002:0000b638       $unwind$_Init_thread_wait  000000018002e638     LIBCMT:thread_safe_statics.obj
 0002:0000b638       $unwind$??0bad_alloc@std@@QEAA@AEBV01@@Z 000000018002e638     LIBCMT:throw_bad_alloc.obj
 0002:0000b638       $unwind$??0bad_array_new_length@std@@QEAA@AEBV01@@Z 000000018002e638     LIBCMT:throw_bad_alloc.obj
 0002:0000b638       $unwind$??0exception@std@@QEAA@AEBV01@@Z 000000018002e638     LIBCMT:throw_bad_alloc.obj
 0002:0000b638       $unwind$__scrt_initialize_crt 000000018002e638     LIBCMT:utility.obj
 0002:0000b638       $unwind$__scrt_initialize_onexit_tables 000000018002e638     LIBCMT:utility.obj
 0002:0000b638       $unwind$__scrt_release_startup_lock 000000018002e638     LIBCMT:utility.obj
 0002:0000b638       $unwind$__scrt_uninitialize_crt 000000018002e638     LIBCMT:utility.obj
 0002:0000b638       $unwind$_onexit            000000018002e638     LIBCMT:utility.obj
 0002:0000b638       $unwind$_IsExceptionObjectToBeDestroyed 000000018002e638     libvcruntime:ehhelpers.obj
 0002:0000b638       $unwind$??0HandlerMap4@FH4@@QEAA@PEBUTryBlockMapEntry4@1@_KH@Z 000000018002e638     libvcruntime:frame.obj
 0002:0000b638       $unwind$??0bad_exception@std@@QEAA@AEBV01@@Z 000000018002e638     libvcruntime:frame.obj
 0002:0000b638       $unwind$?ExFilterRethrow@@YAHPEAU_EXCEPTION_POINTERS@@PEAUEHExceptionRecord@@PEAH@Z 000000018002e638     libvcruntime:frame.obj
 0002:0000b638       $unwind$__vcrt_uninitialize_locks 000000018002e638     libvcruntime:locks.obj
 0002:0000b638       $unwind$__vcrt_freeptd     000000018002e638     libvcruntime:per_thread_data.obj
 0002:0000b638       $unwind$_CreateFrameInfo   000000018002e638     libvcruntime:risctrnsctrl.obj
 0002:0000b638       $unwind$_SetImageBase      000000018002e638     libvcruntime:risctrnsctrl.obj
 0002:0000b638       $unwind$_SetThrowImageBase 000000018002e638     libvcruntime:risctrnsctrl.obj
 0002:0000b638       $unwind$__std_exception_destroy 000000018002e638     libvcruntime:std_exception.obj
 0002:0000b638       $unwind$__std_type_info_destroy_list 000000018002e638     libvcruntime:std_type_info.obj
 0002:0000b638       $unwind$__vcrt_FlsAlloc    000000018002e638     libvcruntime:winapi_downlevel.obj
 0002:0000b638       $unwind$__vcrt_FlsFree     000000018002e638     libvcruntime:winapi_downlevel.obj
 0002:0000b638       $unwind$__vcrt_FlsGetValue 000000018002e638     libvcruntime:winapi_downlevel.obj
 0002:0000b638       $unwind$_calloc_base       000000018002e638     libucrt:calloc_base.obj
 0002:0000b638       $unwind$_malloc_base       000000018002e638     libucrt:malloc_base.obj
 0002:0000b638       $unwind$_callnewh          000000018002e638     libucrt:new_handler.obj
 0002:0000b638       $unwind$initialize_pointers 000000018002e638     libucrt:initialization.obj
 0002:0000b638       $unwind$uninitialize_allocated_memory 000000018002e638     libucrt:initialization.obj
 0002:0000b638       $unwind$__acrt_initialize_locks 000000018002e638     libucrt:locks.obj
 0002:0000b638       $unwind$__acrt_uninitialize_locks 000000018002e638     libucrt:locks.obj
 0002:0000b638       $unwind$__acrt_freeptd     000000018002e638     libucrt:per_thread_data.obj
 0002:0000b638       $unwind$__acrt_getptd_head 000000018002e638     libucrt:per_thread_data.obj
 0002:0000b638       $unwind$__acrt_get_process_end_policy 000000018002e638     libucrt:win_policies.obj
 0002:0000b638       $unwind$__acrt_AppPolicyGetProcessTerminationMethodInternal 000000018002e638     libucrt:winapi_thunks.obj
 0002:0000b638       $unwind$__acrt_FlsAlloc    000000018002e638     libucrt:winapi_thunks.obj
 0002:0000b638       $unwind$__acrt_FlsFree     000000018002e638     libucrt:winapi_thunks.obj
 0002:0000b638       $unwind$__acrt_FlsGetValue 000000018002e638     libucrt:winapi_thunks.obj
 0002:0000b638       $unwind$__acrt_SetThreadStackGuarantee 000000018002e638     libucrt:winapi_thunks.obj
 0002:0000b638       $unwind$__acrt_uninitialize_winapi_thunks 000000018002e638     libucrt:winapi_thunks.obj
 0002:0000b638       $unwind$__acrt_update_locale_info 000000018002e638     libucrt:locale_update.obj
 0002:0000b638       $unwind$__acrt_update_multibyte_info 000000018002e638     libucrt:locale_update.obj
 0002:0000b638       $unwind$__acrt_allocate_buffer_for_argv 000000018002e638     libucrt:argv_parsing.obj
 0002:0000b638       $unwind$?exit_or_terminate_process@@YAXI@Z 000000018002e638     libucrt:exit.obj
 0002:0000b638       $unwind$?try_cor_exit_process@@YAXI@Z 000000018002e638     libucrt:exit.obj
 0002:0000b638       $unwind$__acrt_uninitialize_stdio 000000018002e638     libucrt:_file.obj
 0002:0000b638       $unwind$__acrt_stdio_free_buffer_nolock 000000018002e638     libucrt:_freebuf.obj
 0002:0000b638       $unwind$_fflush_nolock     000000018002e638     libucrt:fflush.obj
 0002:0000b638       $unwind$strcpy_s           000000018002e638     libucrt:strcpy_s.obj
 0002:0000b638       $unwind$wcscat_s           000000018002e638     libucrt:wcscat_s.obj
 0002:0000b638       $unwind$wcscpy_s           000000018002e638     libucrt:wcscpy_s.obj
 0002:0000b638       $unwind$_clrfp             000000018002e638     libucrt:fpctrl.obj
 0002:0000b638       $unwind$_set_statfp        000000018002e638     libucrt:fpctrl.obj
 0002:0000b638       $unwind$_clearfp           000000018002e638     libucrt:ieee.obj
 0002:0000b638       $unwind$_controlfp_s       000000018002e638     libucrt:contrlfp.obj
 0002:0000b638       $unwind$fegetenv           000000018002e638     libucrt:fegetenv.obj
 0002:0000b638       $unwind$feholdexcept       000000018002e638     libucrt:feholdexcept.obj
 0002:0000b638       $unwind$fesetenv           000000018002e638     libucrt:fesetenv.obj
 0002:0000b640       $unwind$?AtlWinModuleExtractCreateWndData@ATL@@YAPEAXPEAU_ATL_WIN_MODULE70@1@@Z 000000018002e640     Belt.obj
 0002:0000b640       $unwind$?CreateInstance@?$CComCreator@V?$CComObject@VCOPOSBelt@@@ATL@@@ATL@@SAJPEAXAEBU_GUID@@PEAPEAX@Z 000000018002e640     Belt.obj
 0002:0000b640       $unwind$?DoEvent@COPOSBelt@@IEAAXI_K_J@Z 000000018002e640     Belt.obj
 0002:0000b640       $unwind$?DoVerb@?$IOleObjectImpl@VCOPOSBelt@@@ATL@@UEAAJJPEAUtagMSG@@PEAUIOleClientSite@@JPEAUHWND__@@PEBUtagRECT@@@Z 000000018002e640     Belt.obj
 0002:0000b640       $unwind$?HKeyFromString@CRegParser@ATL@@KAPEAUHKEY__@@PEA_W@Z 000000018002e640     Belt.obj
 0002:0000b640       $unwind$?Next@?$CComEnumImpl@UIEnumConnectionPoints@@$1?_GUID_b196b285_bab4_101a_b69c_00aa00341d07@@3U__s_GUID@@BPEAUIConnectionPoint@@V?$_CopyInterface@UIConnectionPoint@@@ATL@@@ATL@@UEAAJKPEAPEAUIConnectionPoint@@PEAK@Z 000000018002e640     Belt.obj
 0002:0000b640       $unwind$?Next@?$CComEnumImpl@UIEnumConnections@@$1?_GUID_b196b287_bab4_101a_b69c_00aa00341d07@@3U__s_GUID@@BUtagCONNECTDATA@@V?$_Copy@UtagCONNECTDATA@@@ATL@@@ATL@@UEAAJKPEAUtagCONNECTDATA@@PEAK@Z 000000018002e640     Belt.obj
 0002:0000b640       $unwind$?SODirectIO@COPOSBelt@@MEAAJJPEAJPEAPEA_W@Z 000000018002e640     Belt.obj
 0002:0000b640       $unwind$?SetControlFocus@CComControlBase@ATL@@QEAAHH@Z 000000018002e640     Belt.obj
 0002:0000b640       $unwind$?ocscpy_s@@YA_NPEA_W_KPEB_W@Z 000000018002e640     Belt.obj
 0002:0000b640       $unwind$?s_EventWindowProc@COPOSBelt@@KA_JPEAUHWND__@@I_K_J@Z 000000018002e640     BeltImpl.obj
 0002:0000b640       $unwind$?AtlWinModuleTerm@ATL@@YAJPEAU_ATL_WIN_MODULE70@1@PEAUHINSTANCE__@@@Z 000000018002e640     OposVariant.obj
 0002:0000b640       $unwind$__scrt_dllmain_exception_filter 000000018002e640     LIBCMT:utility.obj
 0002:0000b640       $unwind$?Is_bad_exception_allowed@@YAEPEBU_s_ESTypeList@@@Z 000000018002e640     libvcruntime:frame.obj
 0002:0000b640       $unwind$_recalloc_base     000000018002e640     libucrt:recalloc.obj
 0002:0000b640       $unwind$__acrt_free_locale 000000018002e640     libucrt:locale_refcounting.obj
 0002:0000b640       $unwind$__acrt_lowio_create_handle_array 000000018002e640     libucrt:osfinfo.obj
 0002:0000b640       $unwind$?setSBCS@@YAXPEAU__crt_multibyte_data@@@Z 000000018002e640     libucrt:mbctype.obj
 0002:0000b640       $unwind$_seh_filter_exe    000000018002e640     libucrt:exception_filter.obj
 0002:0000b640       $unwind$_initterm          000000018002e640     libucrt:initterm.obj
 0002:0000b640       $unwind$??$ensure_buffer_is_big_enough@D@formatting_buffer@__crt_stdio_output@@QEAA_N_K@Z 000000018002e640     libucrt:output.obj
 0002:0000b640       $unwind$??$ensure_buffer_is_big_enough@_W@formatting_buffer@__crt_stdio_output@@QEAA_N_K@Z 000000018002e640     libucrt:output.obj
 0002:0000b654       $unwind$??_GCRegObject@ATL@@UEAAPEAXI@Z 000000018002e654     Belt.obj
 0002:0000b654       $unwind$?Add@?$CSimpleArray@GV?$CSimpleArrayEqualHelper@G@ATL@@@ATL@@QEAAHAEBG@Z 000000018002e654     Belt.obj
 0002:0000b654       $unwind$?Add@?$CSimpleMap@PEA_WPEA_WVCExpansionVectorEqualHelper@ATL@@@ATL@@QEAAHAEBQEA_W0@Z 000000018002e654     Belt.obj
 0002:0000b654       $unwind$?Add@CComDynamicUnkArray@ATL@@QEAAKPEAUIUnknown@@@Z 000000018002e654     Belt.obj
 0002:0000b654       $unwind$?Advise@?$IOleObjectImpl@VCOPOSBelt@@@ATL@@UEAAJPEAUIAdviseSink@@PEAK@Z 000000018002e654     Belt.obj
 0002:0000b654       $unwind$?ClearReplacements@CExpansionVector@ATL@@QEAAJXZ 000000018002e654     Belt.obj
 0002:0000b654       $unwind$?CreateInstance@?$CComObject@V?$CComEnum@UIEnumConnectionPoints@@$1?_GUID_b196b285_bab4_101a_b69c_00aa00341d07@@3U__s_GUID@@BPEAUIConnectionPoint@@V?$_CopyInterface@UIConnectionPoint@@@ATL@@VCComSingleThreadModel@6@@ATL@@@ATL@@SAJPEAPEAV12@@Z 000000018002e654     Belt.obj
 0002:0000b654       $unwind$?CreateInstance@?$CComObject@V?$CComEnum@UIEnumConnections@@$1?_GUID_b196b287_bab4_101a_b69c_00aa00341d07@@3U__s_GUID@@BUtagCONNECTDATA@@V?$_Copy@UtagCONNECTDATA@@@ATL@@VCComSingleThreadModel@6@@ATL@@@ATL@@SAJPEAPEAV12@@Z 000000018002e654     Belt.obj
 0002:0000b654       $unwind$?RegisterServer@CComModule@ATL@@QEAAJHPEBU_GUID@@@Z 000000018002e654     Belt.obj
 0002:0000b654       $unwind$?Term@CAtlModule@ATL@@QEAAXXZ 000000018002e654     Belt.obj
 0002:0000b654       $unwind$?UnregisterServer@CComModule@ATL@@QEAAJHPEBU_GUID@@@Z 000000018002e654     Belt.obj
 0002:0000b654       $unwind$?VTFromRegType@CRegParser@ATL@@KAHPEB_WAEAG@Z 000000018002e654     Belt.obj
 0002:0000b654       $unwind$??0OposDispParms@@QEAA@PEAVOposVariant@@H@Z 000000018002e654     OposVariant.obj
 0002:0000b654       $unwind$?SetBSTR_Copy@OposVariant@@QEAAXPEA_WAEAJ@Z 000000018002e654     OposVariant.obj
 0002:0000b654       $unwind$?SetBSTR_InOutPtr@OposVariant@@QEAA_NPEAPEA_WAEAJ@Z 000000018002e654     OposVariant.obj
 0002:0000b654       $unwind$?SetDispatch_Ptr@OposVariant@@QEAAXPEAUIDispatch@@AEAJ@Z 000000018002e654     OposVariant.obj
 0002:0000b654       $unwind$?SetLONG_Ptr@OposVariant@@QEAAXPEAJAEAJ@Z 000000018002e654     OposVariant.obj
 0002:0000b654       $unwind$?SetString@OposVariant@@QEAAXPEB_WAEAJ@Z 000000018002e654     OposVariant.obj
 0002:0000b654       $unwind$?Term@CAtlComModule@ATL@@QEAAXXZ 000000018002e654     OposVariant.obj
 0002:0000b654       $unwind$_DllMainCRTStartup 000000018002e654     LIBCMT:dll_dllmain.obj
 0002:0000b654       $unwind$__vcrt_getptd_noexit 000000018002e654     libvcruntime:per_thread_data.obj
 0002:0000b654       $unwind$__vcrt_InitializeCriticalSectionEx 000000018002e654     libvcruntime:winapi_downlevel.obj
 0002:0000b654       $unwind$memcpy_s           000000018002e654     libucrt:cfout.obj
 0002:0000b654       $unwind$__acrt_getptd      000000018002e654     libucrt:per_thread_data.obj
 0002:0000b654       $unwind$__acrt_getptd_noexit 000000018002e654     libucrt:per_thread_data.obj
 0002:0000b654       $unwind$__acrt_execute_initializers 000000018002e654     libucrt:shared_initialization.obj
 0002:0000b654       $unwind$__acrt_InitializeCriticalSectionEx 000000018002e654     libucrt:winapi_thunks.obj
 0002:0000b654       $unwind$?free_crt_array_internal@@YAXQEAPEBX_K@Z 000000018002e654     libucrt:inittime.obj
 0002:0000b654       $unwind$??$common_lseek_nolock@_J@@YA_JH_JH@Z 000000018002e654     libucrt:lseek.obj
 0002:0000b654       $unwind$__acrt_stdio_flush_nolock 000000018002e654     libucrt:fflush.obj
 0002:0000b654       $unwind$??0_LocaleUpdate@@QEAA@QEAU__crt_locale_pointers@@@Z 000000018002e654     libucrt:output.obj
 0002:0000b654       $unwind$?type_case_Z@?$output_processor@_WV?$string_output_adapter@_W@__crt_stdio_output@@V?$format_validation_base@_WV?$string_output_adapter@_W@__crt_stdio_output@@@2@@__crt_stdio_output@@AEAA_NXZ 000000018002e654     libucrt:output.obj
 0002:0000b654       $unwind$?type_case_s@?$output_processor@_WV?$string_output_adapter@_W@__crt_stdio_output@@V?$format_validation_base@_WV?$string_output_adapter@_W@__crt_stdio_output@@@2@@__crt_stdio_output@@AEAA_NXZ 000000018002e654     libucrt:output.obj
 0002:0000b654       $unwind$_exception_enabled 000000018002e654     libucrt:libm_error.obj
 0002:0000b664       $unwind$?AddTermFunc@CAtlModule@ATL@@QEAAJP6AX_K@Z0@Z 000000018002e664     Belt.obj
 0002:0000b664       $unwind$?AtlComModuleRegisterServer@ATL@@YAJPEAU_ATL_COM_MODULE70@1@HPEBU_GUID@@@Z 000000018002e664     Belt.obj
 0002:0000b664       $unwind$?AtlComModuleUnregisterServer@ATL@@YAJPEAU_ATL_COM_MODULE70@1@HPEBU_GUID@@@Z 000000018002e664     Belt.obj
 0002:0000b664       $unwind$?CreateInstance@?$CComCreator@V?$CComAggObject@VCOPOSBelt@@@ATL@@@ATL@@SAJPEAXAEBU_GUID@@PEAPEAX@Z 000000018002e664     Belt.obj
 0002:0000b664       $unwind$?CreateInstance@?$CComCreator@V?$CComObjectCached@VCComClassFactory@ATL@@@ATL@@@ATL@@SAJPEAXAEBU_GUID@@PEAPEAX@Z 000000018002e664     Belt.obj
 0002:0000b664       $unwind$?GetPagesHelper@?$ISpecifyPropertyPagesImpl@VCOPOSBelt@@@ATL@@IEAAJPEAUtagCAUUID@@PEBUATL_PROPMAP_ENTRY@2@@Z 000000018002e664     Belt.obj
 0002:0000b664       $unwind$??_Estringdispid@CComTypeInfoHolder@ATL@@QEAAPEAXI@Z 000000018002e664     OposVariant.obj
 0002:0000b664       $unwind$__GSHandlerCheck_SEH 000000018002e664     LIBCMT:gshandlerseh.obj
 0002:0000b664       $unwind$??$TypeMatchHelper@V__FrameHandler3@@@@YAHPEBU_s_HandlerType@@PEBU_s_CatchableType@@PEBU_s_ThrowInfo@@@Z 000000018002e664     libvcruntime:frame.obj
 0002:0000b664       $unwind$??$TypeMatchHelper@V__FrameHandler4@@@@YAHPEAUHandlerType4@FH4@@PEBU_s_CatchableType@@PEBU_s_ThrowInfo@@@Z 000000018002e664     libvcruntime:frame.obj
 0002:0000b664       $unwind$?initialize_stdio_handles_nolock@@YAXXZ 000000018002e664     libucrt:ioinit.obj
 0002:0000b664       $unwind$__acrt_initialize_stdio 000000018002e664     libucrt:_file.obj
 0002:0000b664       $unwind$?process@?$output_processor@_WV?$string_output_adapter@_W@__crt_stdio_output@@V?$format_validation_base@_WV?$string_output_adapter@_W@__crt_stdio_output@@@2@@__crt_stdio_output@@QEAAHXZ 000000018002e664     libucrt:output.obj
 0002:0000b664       $unwind$?type_case_integer@?$output_processor@_WV?$string_output_adapter@_W@__crt_stdio_output@@V?$format_validation_base@_WV?$string_output_adapter@_W@__crt_stdio_output@@@2@@__crt_stdio_output@@AEAA_NI_N@Z 000000018002e664     libucrt:output.obj
 0002:0000b67c       $unwind$??0?$CComContainedObject@VCOPOSBelt@@@ATL@@QEAA@PEAX@Z 000000018002e67c     Belt.obj
 0002:0000b67c       $unwind$??1?$CComEnumImpl@UIEnumConnectionPoints@@$1?_GUID_b196b285_bab4_101a_b69c_00aa00341d07@@3U__s_GUID@@BPEAUIConnectionPoint@@V?$_CopyInterface@UIConnectionPoint@@@ATL@@@ATL@@UEAA@XZ 000000018002e67c     Belt.obj
 0002:0000b67c       $unwind$??1?$CComEnumImpl@UIEnumConnections@@$1?_GUID_b196b287_bab4_101a_b69c_00aa00341d07@@3U__s_GUID@@BUtagCONNECTDATA@@V?$_Copy@UtagCONNECTDATA@@@ATL@@@ATL@@UEAA@XZ 000000018002e67c     Belt.obj
 0002:0000b67c       $unwind$??_G?$CComAggObject@VCOPOSBelt@@@ATL@@UEAAPEAXI@Z 000000018002e67c     Belt.obj
 0002:0000b67c       $unwind$??_G?$CComContainedObject@VCOPOSBelt@@@ATL@@UEAAPEAXI@Z 000000018002e67c     Belt.obj
 0002:0000b67c       $unwind$??_G?$CComObject@V?$CComEnum@UIEnumConnectionPoints@@$1?_GUID_b196b285_bab4_101a_b69c_00aa00341d07@@3U__s_GUID@@BPEAUIConnectionPoint@@V?$_CopyInterface@UIConnectionPoint@@@ATL@@VCComSingleThreadModel@6@@ATL@@@ATL@@UEAAPEAXI@Z 000000018002e67c     Belt.obj
 0002:0000b67c       $unwind$??_G?$CComObject@V?$CComEnum@UIEnumConnections@@$1?_GUID_b196b287_bab4_101a_b69c_00aa00341d07@@3U__s_GUID@@BUtagCONNECTDATA@@V?$_Copy@UtagCONNECTDATA@@@ATL@@VCComSingleThreadModel@6@@ATL@@@ATL@@UEAAPEAXI@Z 000000018002e67c     Belt.obj
 0002:0000b67c       $unwind$??_G?$CComObject@VCOPOSBelt@@@ATL@@UEAAPEAXI@Z 000000018002e67c     Belt.obj
 0002:0000b67c       $unwind$??_G?$CComObjectCached@VCComClassFactory@ATL@@@ATL@@UEAAPEAXI@Z 000000018002e67c     Belt.obj
 0002:0000b67c       $unwind$??_GCComClassFactory@ATL@@UEAAPEAXI@Z 000000018002e67c     Belt.obj
 0002:0000b67c       $unwind$??_GCComModule@ATL@@UEAAPEAXI@Z 000000018002e67c     Belt.obj
 0002:0000b67c       $unwind$?DeleteSubKey@CRegKey@ATL@@QEAAJPEB_W@Z 000000018002e67c     Belt.obj
 0002:0000b67c       $unwind$?IOleObject_SetClientSite@CComControlBase@ATL@@QEAAJPEAUIOleClientSite@@@Z 000000018002e67c     Belt.obj
 0002:0000b67c       $unwind$?InitNew@?$IPersistStorageImpl@VCOPOSBelt@@@ATL@@UEAAJPEAUIStorage@@@Z 000000018002e67c     Belt.obj
 0002:0000b67c       $unwind$?IsDirty@?$IPersistStorageImpl@VCOPOSBelt@@@ATL@@UEAAJXZ 000000018002e67c     Belt.obj
 0002:0000b67c       $unwind$?Release@?$CComAggObject@VCOPOSBelt@@@ATL@@UEAAKXZ 000000018002e67c     Belt.obj
 0002:0000b67c       $unwind$?Release@?$CComObject@V?$CComEnum@UIEnumConnectionPoints@@$1?_GUID_b196b285_bab4_101a_b69c_00aa00341d07@@3U__s_GUID@@BPEAUIConnectionPoint@@V?$_CopyInterface@UIConnectionPoint@@@ATL@@VCComSingleThreadModel@6@@ATL@@@ATL@@UEAAKXZ 000000018002e67c     Belt.obj
 0002:0000b67c       $unwind$?Release@?$CComObject@V?$CComEnum@UIEnumConnections@@$1?_GUID_b196b287_bab4_101a_b69c_00aa00341d07@@3U__s_GUID@@BUtagCONNECTDATA@@V?$_Copy@UtagCONNECTDATA@@@ATL@@VCComSingleThreadModel@6@@ATL@@@ATL@@UEAAKXZ 000000018002e67c     Belt.obj
 0002:0000b67c       $unwind$?Release@?$CComObject@VCOPOSBelt@@@ATL@@UEAAKXZ 000000018002e67c     Belt.obj
 0002:0000b67c       $unwind$?SOStatusUpdate@COPOSBelt@@MEAAJJ@Z 000000018002e67c     Belt.obj
 0002:0000b67c       $unwind$?SetAdvise@?$IViewObjectExImpl@VCOPOSBelt@@@ATL@@UEAAJKKPEAUIAdviseSink@@@Z 000000018002e67c     Belt.obj
 0002:0000b67c       $unwind$?Term@CComModule@ATL@@QEAAXXZ 000000018002e67c     Belt.obj
 0002:0000b67c       $unwind$DllMain            000000018002e67c     Belt.obj
 0002:0000b67c       $unwind$??1?$IConnectionPointImpl@VCOPOSBelt@@$1?DIID__IOPOSBeltEvents@@3U_GUID@@BVCComDynamicUnkArray@ATL@@@ATL@@QEAA@XZ 000000018002e67c     BeltImpl.obj
 0002:0000b67c       $unwind$??1?$IConnectionPointImpl@VCOPOSBelt@@$1?IID_IPropertyNotifySink@@3U_GUID@@BVCComDynamicUnkArray@ATL@@@ATL@@QEAA@XZ 000000018002e67c     BeltImpl.obj
 0002:0000b67c       $unwind$?EventWindowProc@COPOSBelt@@IEAA_JI_K_J@Z 000000018002e67c     BeltImpl.obj
 0002:0000b67c       $unwind$?SetBSTR@OposVariant@@QEAAXPEA_WAEAJ@Z 000000018002e67c     OposVariant.obj
 0002:0000b67c       $unwind$?SetLONG@OposVariant@@QEAAXJ@Z 000000018002e67c     OposVariant.obj
 0002:0000b67c       $unwind$?SetVARIANT_BOOL@OposVariant@@QEAAXF@Z 000000018002e67c     OposVariant.obj
 0002:0000b67c       $unwind$??0CAtlBaseModule@ATL@@QEAA@XZ 000000018002e67c     atls:atlbase.obj
 0002:0000b67c       $unwind$??$GetProcAddressAll@P6AP6A_JPEAUHWND__@@I_K_J@ZPEAUAtlThunkData_t@@@Z@@YAP6AP6A_JPEAUHWND__@@I_K_J@ZPEAUAtlThunkData_t@@@ZPEAP6AP6A_J0I12@Z3@Z@Z 000000018002e67c     atls:atlthunk.obj
 0002:0000b67c       $unwind$??$GetProcAddressAll@P6APEAUAtlThunkData_t@@XZ@@YAP6APEAUAtlThunkData_t@@XZPEAP6APEAU0@XZ@Z 000000018002e67c     atls:atlthunk.obj
 0002:0000b67c       $unwind$??$GetProcAddressAll@P6AXPEAUAtlThunkData_t@@@Z@@YAP6AXPEAUAtlThunkData_t@@@ZPEAP6AX0@Z@Z 000000018002e67c     atls:atlthunk.obj
 0002:0000b67c       $unwind$??$GetProcAddressAll@P6AXPEAUAtlThunkData_t@@PEAX_K@Z@@YAP6AXPEAUAtlThunkData_t@@PEAX_K@ZPEAP6AX012@Z@Z 000000018002e67c     atls:atlthunk.obj
 0002:0000b67c       $unwind$?__AllocStdCallThunk_cmn@@YAPEAXXZ 000000018002e67c     atls:atlthunk.obj
 0002:0000b67c       $unwind$?__InitializeThunkPool@@YAHXZ 000000018002e67c     atls:atlthunk.obj
 0002:0000b67c       $unwind$AtlThunk_DataToCode 000000018002e67c     atls:atlthunk.obj
 0002:0000b67c       $unwind$_RTC_Initialize    000000018002e67c     LIBCMT:initsect.obj
 0002:0000b67c       $unwind$_RTC_Terminate     000000018002e67c     LIBCMT:initsect.obj
 0002:0000b67c       $unwind$?__scrt_initialize_thread_safe_statics@@YAHXZ 000000018002e67c     LIBCMT:thread_safe_statics.obj
 0002:0000b67c       $unwind$??_Gbad_alloc@std@@UEAAPEAXI@Z 000000018002e67c     LIBCMT:throw_bad_alloc.obj
 0002:0000b67c       $unwind$??_Gbad_array_new_length@std@@UEAAPEAXI@Z 000000018002e67c     LIBCMT:throw_bad_alloc.obj
 0002:0000b67c       $unwind$??_Gexception@std@@UEAAPEAXI@Z 000000018002e67c     LIBCMT:throw_bad_alloc.obj
 0002:0000b67c       $unwind$__FrameUnwindFilter 000000018002e67c     libvcruntime:ehhelpers.obj
 0002:0000b67c       $unwind$??_Gbad_exception@std@@UEAAPEAXI@Z 000000018002e67c     libvcruntime:frame.obj
 0002:0000b67c       $unwind$?ExFilterRethrowFH4@@YAHPEAU_EXCEPTION_POINTERS@@PEAUEHExceptionRecord@@HPEAH@Z 000000018002e67c     libvcruntime:frame.obj
 0002:0000b67c       $unwind$_FindAndUnlinkFrame 000000018002e67c     libvcruntime:risctrnsctrl.obj
 0002:0000b67c       $unwind$__vcrt_FlsSetValue 000000018002e67c     libvcruntime:winapi_downlevel.obj
 0002:0000b67c       $unwind$??$common_initialize_environment_nolock@D@@YAHXZ 000000018002e67c     libucrt:environment_initialization.obj
 0002:0000b67c       $unwind$_realloc_base      000000018002e67c     libucrt:realloc_base.obj
 0002:0000b67c       $unwind$?replace_current_thread_locale_nolock@@YAXQEAU__acrt_ptd@@QEAU__crt_locale_data@@@Z 000000018002e67c     libucrt:per_thread_data.obj
 0002:0000b67c       $unwind$__acrt_execute_uninitializers 000000018002e67c     libucrt:shared_initialization.obj
 0002:0000b67c       $unwind$__acrt_FlsSetValue 000000018002e67c     libucrt:winapi_thunks.obj
 0002:0000b67c       $unwind$__acrt_LocaleNameToLCID 000000018002e67c     libucrt:winapi_thunks.obj
 0002:0000b67c       $unwind$_updatetlocinfoEx_nolock 000000018002e67c     libucrt:locale_refcounting.obj
 0002:0000b67c       $unwind$_close_nolock      000000018002e67c     libucrt:close.obj
 0002:0000b67c       $unwind$__acrt_uninitialize_lowio 000000018002e67c     libucrt:ioinit.obj
 0002:0000b67c       $unwind$__acrt_errno_map_os_error 000000018002e67c     libucrt:errno.obj
 0002:0000b67c       $unwind$_initterm_e        000000018002e67c     libucrt:initterm.obj
 0002:0000b67c       $unwind$_fclose_nolock     000000018002e67c     libucrt:fclose.obj
 0002:0000b67c       $unwind$?type_case_n@?$output_processor@_WV?$string_output_adapter@_W@__crt_stdio_output@@V?$format_validation_base@_WV?$string_output_adapter@_W@__crt_stdio_output@@@2@@__crt_stdio_output@@AEAA_NXZ 000000018002e67c     libucrt:output.obj
 0002:0000b67c       $unwind$strncpy_s          000000018002e67c     libucrt:strncpy_s.obj
 0002:0000b67c       $unwind$wcsncpy_s          000000018002e67c     libucrt:wcsncpy_s.obj
 0002:0000b688       $unwind$?ChangeBSTR@OposVariant@@QEAAXPEAPEA_WAEAJ@Z 000000018002e688     OposVariant.obj
 0002:0000b688       $unwind$?ChangeLONG@OposVariant@@QEAAXPEAJAEAJ@Z 000000018002e688     OposVariant.obj
 0002:0000b688       $unwind$?x_ismbbtype_l@@YAHPEAU__crt_locale_pointers@@IHH@Z 000000018002e688     libucrt:ismbbyte.obj
 0002:0000b698       $unwind$swprintf_s         000000018002e698     Belt.obj
 0002:0000b6a8       $unwind$?_AtlVerifyStackAvailable@_ATL_SAFE_ALLOCA_IMPL@ATL@@YA_N_K@Z 000000018002e6a8     Belt.obj
 0002:0000b6d4       $unwind$?filt$0@?0??_AtlVerifyStackAvailable@_ATL_SAFE_ALLOCA_IMPL@ATL@@YA_N_K@Z@4HA 000000018002e6d4     Belt.obj
 0002:0000b6d4       $unwind$?fin$0@?0??dllmain_crt_process_attach@@YAHQEAUHINSTANCE__@@QEAX@Z@4HA 000000018002e6d4     LIBCMT:dll_dllmain.obj
 0002:0000b6d4       $unwind$?fin$0@?0??dllmain_crt_process_detach@@YAH_N@Z@4HA 000000018002e6d4     LIBCMT:dll_dllmain.obj
 0002:0000b6d4       $unwind$?fin$1@?0??dllmain_crt_process_detach@@YAH_N@Z@4HA 000000018002e6d4     LIBCMT:dll_dllmain.obj
 0002:0000b6d4       $unwind$_IsNonwritableInCurrentImage$filt$0 000000018002e6d4     LIBCMT:pesect.obj
 0002:0000b6d4       $unwind$?filt$0@?0??CxxCallCatchBlock@__FrameHandler4@@SAPEAXPEAU_EXCEPTION_RECORD@@@Z@4HA 000000018002e6d4     libvcruntime:frame.obj
 0002:0000b6d4       $unwind$_query_new_handler$fin$0 000000018002e6d4     libucrt:new_handler.obj
 0002:0000b6d4       $unwind$?fin$0@?0???$?RV<lambda_0ae27a3a962d80f24befdcbee591983d>@@AEAV<lambda_8d0ee55de4b1038c4002e0adecdf1839>@@V<lambda_dc504788e8f1664fe9b84e20bfb512f2>@@@?$__crt_seh_guarded_call@X@@QEAAX$$QEAV<lambda_0ae27a3a962d80f24befdcbee591983d>@@AEAV<lambda_8d0ee55de4b1038c4002e0adecdf1839>@@$$QEAV<lambda_dc504788e8f1664fe9b84e20bfb512f2>@@@Z@4HA 000000018002e6d4     libucrt:per_thread_data.obj
 0002:0000b6d4       $unwind$?fin$0@?0???$?RV<lambda_2d41944a1d46af3157314b8a01080d33>@@AEAV<lambda_8f455de75cd7d7f24b4096f044d8b9e6>@@V<lambda_aa500f224e6afead328df44964fe2772>@@@?$__crt_seh_guarded_call@X@@QEAAX$$QEAV<lambda_2d41944a1d46af3157314b8a01080d33>@@AEAV<lambda_8f455de75cd7d7f24b4096f044d8b9e6>@@$$QEAV<lambda_aa500f224e6afead328df44964fe2772>@@@Z@4HA 000000018002e6d4     libucrt:per_thread_data.obj
 0002:0000b6d4       $unwind$?fin$0@?0???$?RV<lambda_aa87e3671a710a21b5dc78c0bdf72e11>@@AEAV<lambda_92619d2358a28f41a33ba319515a20b9>@@V<lambda_6992ecaafeb10aed2b74cb1fae11a551>@@@?$__crt_seh_guarded_call@X@@QEAAX$$QEAV<lambda_aa87e3671a710a21b5dc78c0bdf72e11>@@AEAV<lambda_92619d2358a28f41a33ba319515a20b9>@@$$QEAV<lambda_6992ecaafeb10aed2b74cb1fae11a551>@@@Z@4HA 000000018002e6d4     libucrt:per_thread_data.obj
 0002:0000b6d4       $unwind$?fin$0@?0???$?RV<lambda_f2e299630e499de9f9a165e60fcd3db5>@@AEAV<lambda_2ae9d31cdba2644fcbeaf08da7c24588>@@V<lambda_40d01ff24d0e7b3814fdbdcee8eab3c7>@@@?$__crt_seh_guarded_call@X@@QEAAX$$QEAV<lambda_f2e299630e499de9f9a165e60fcd3db5>@@AEAV<lambda_2ae9d31cdba2644fcbeaf08da7c24588>@@$$QEAV<lambda_40d01ff24d0e7b3814fdbdcee8eab3c7>@@@Z@4HA 000000018002e6d4     libucrt:per_thread_data.obj
 0002:0000b6d4       $unwind$__acrt_update_thread_locale_data$fin$0 000000018002e6d4     libucrt:locale_refcounting.obj
 0002:0000b6d4       $unwind$?fin$0@?0???$?RV<lambda_410d79af7f07d98d83a3f525b3859a53>@@AEAV<lambda_3e16ef9562a7dcce91392c22ab16ea36>@@V<lambda_38119f0e861e05405d8a144b9b982f0a>@@@?$__crt_seh_guarded_call@X@@QEAAX$$QEAV<lambda_410d79af7f07d98d83a3f525b3859a53>@@AEAV<lambda_3e16ef9562a7dcce91392c22ab16ea36>@@$$QEAV<lambda_38119f0e861e05405d8a144b9b982f0a>@@@Z@4HA 000000018002e6d4     libucrt:wsetlocale.obj
 0002:0000b6d4       $unwind$?fin$0@?0???$?RV<lambda_751a882b2c74d4b022dec766aa51a29a>@@AEAV<lambda_628dfdc04ba53c8bfc02c9951375f3f5>@@V<lambda_f6c7be5f7998530c34de24c7437d6b54>@@@?$__crt_seh_guarded_call@H@@QEAAH$$QEAV<lambda_751a882b2c74d4b022dec766aa51a29a>@@AEAV<lambda_628dfdc04ba53c8bfc02c9951375f3f5>@@$$QEAV<lambda_f6c7be5f7998530c34de24c7437d6b54>@@@Z@4HA 000000018002e6d4     libucrt:close.obj
 0002:0000b6d4       $unwind$?fin$0@?0???$?RV<lambda_a37b2b86f63e897a80ea819b0eb08c01>@@AEAV<lambda_38ce7e780aa69e748d6df282ebc68efe>@@V<lambda_99fb1378e971ab6e7edea83e3a7a83a2>@@@?$__crt_seh_guarded_call@H@@QEAAH$$QEAV<lambda_a37b2b86f63e897a80ea819b0eb08c01>@@AEAV<lambda_38ce7e780aa69e748d6df282ebc68efe>@@$$QEAV<lambda_99fb1378e971ab6e7edea83e3a7a83a2>@@@Z@4HA 000000018002e6d4     libucrt:commit.obj
 0002:0000b6d4       $unwind$__acrt_initialize_lowio$fin$0 000000018002e6d4     libucrt:ioinit.obj
 0002:0000b6d4       $unwind$__acrt_lowio_ensure_fh_exists$fin$0 000000018002e6d4     libucrt:osfinfo.obj
 0002:0000b6d4       $unwind$_write$fin$0       000000018002e6d4     libucrt:write.obj
 0002:0000b6d4       $unwind$?fin$0@?0???$?RV<lambda_efdfa57d1f175319df784efa44bb7b81>@@AEAV<lambda_5f0a4c1567f8adc6734073e5d1e1b35c>@@V<lambda_2e8a7d3640ea6ccb4c2413664c2db6fd>@@@?$__crt_seh_guarded_call@X@@QEAAX$$QEAV<lambda_efdfa57d1f175319df784efa44bb7b81>@@AEAV<lambda_5f0a4c1567f8adc6734073e5d1e1b35c>@@$$QEAV<lambda_2e8a7d3640ea6ccb4c2413664c2db6fd>@@@Z@4HA 000000018002e6d4     libucrt:mbctype.obj
 0002:0000b6d4       $unwind$?fin$0@?0??update_thread_multibyte_data_internal@@YAPEAU__crt_multibyte_data@@QEAU__acrt_ptd@@QEAPEAU1@@Z@4HA 000000018002e6d4     libucrt:mbctype.obj
 0002:0000b6d4       $unwind$?fin$0@?0???$?RV<lambda_450d765d439847d4c735a33c368b5fc0>@@AEAV<lambda_44731a7d0e6d81c3e6aa82d741081786>@@V<lambda_601a2a7da3b7a96e9554ac7215c4b07c>@@@?$__crt_seh_guarded_call@P6AXH@Z@@QEAAP6AXH@Z$$QEAV<lambda_450d765d439847d4c735a33c368b5fc0>@@AEAV<lambda_44731a7d0e6d81c3e6aa82d741081786>@@$$QEAV<lambda_601a2a7da3b7a96e9554ac7215c4b07c>@@@Z@4HA 000000018002e6d4     libucrt:signal.obj
 0002:0000b6d4       $unwind$raise$fin$0        000000018002e6d4     libucrt:signal.obj
 0002:0000b6d4       $unwind$?filt$0@?0???R<lambda_6e4b09c48022b2350581041d5f6b0c4c>@@QEBA@XZ@4HA 000000018002e6d4     libucrt:exit.obj
 0002:0000b6d4       $unwind$?fin$0@?0???$?RV<lambda_d80eeec6fff315bfe5c115232f3240e3>@@AEAV<lambda_6e4b09c48022b2350581041d5f6b0c4c>@@V<lambda_2358e3775559c9db80273638284d5e45>@@@?$__crt_seh_guarded_call@X@@QEAAX$$QEAV<lambda_d80eeec6fff315bfe5c115232f3240e3>@@AEAV<lambda_6e4b09c48022b2350581041d5f6b0c4c>@@$$QEAV<lambda_2358e3775559c9db80273638284d5e45>@@@Z@4HA 000000018002e6d4     libucrt:exit.obj
 0002:0000b6d4       $unwind$?fin$0@?0???$?RV<lambda_638799b9deba96c50f710eeac98168cd>@@AEAV<lambda_22ebabd17bc4fa466a2aca6d8deb888d>@@V<lambda_a6f7d7db0129f75315ebf26d50c089f1>@@@?$__crt_seh_guarded_call@H@@QEAAH$$QEAV<lambda_638799b9deba96c50f710eeac98168cd>@@AEAV<lambda_22ebabd17bc4fa466a2aca6d8deb888d>@@$$QEAV<lambda_a6f7d7db0129f75315ebf26d50c089f1>@@@Z@4HA 000000018002e6d4     libucrt:onexit.obj
 0002:0000b6d4       $unwind$?fin$0@?0???$?RV<lambda_7777bce6b2f8c936911f934f8298dc43>@@AEAV<lambda_f03950bc5685219e0bcd2087efbe011e>@@V<lambda_3883c3dff614d5e0c5f61bb1ac94921c>@@@?$__crt_seh_guarded_call@H@@QEAAH$$QEAV<lambda_7777bce6b2f8c936911f934f8298dc43>@@AEAV<lambda_f03950bc5685219e0bcd2087efbe011e>@@$$QEAV<lambda_3883c3dff614d5e0c5f61bb1ac94921c>@@@Z@4HA 000000018002e6d4     libucrt:onexit.obj
 0002:0000b6d4       $unwind$_fcloseall$fin$0   000000018002e6d4     libucrt:closeall.obj
 0002:0000b6d4       $unwind$fclose$fin$0       000000018002e6d4     libucrt:fclose.obj
 0002:0000b6d4       $unwind$?fin$0@?0???$?RV<lambda_842d9ff0dc9ef11c61343bbaebe7f885>@@AEAV<lambda_c5860995281e5c4ce005b3de8f5874ee>@@V<lambda_d90129c13df834fdcbf8d2b88dafcf2d>@@@?$__crt_seh_guarded_call@X@@QEAAX$$QEAV<lambda_842d9ff0dc9ef11c61343bbaebe7f885>@@AEAV<lambda_c5860995281e5c4ce005b3de8f5874ee>@@$$QEAV<lambda_d90129c13df834fdcbf8d2b88dafcf2d>@@@Z@4HA 000000018002e6d4     libucrt:fflush.obj
 0002:0000b6d4       $unwind$?fin$0@?0???$?RV<lambda_886d6c58226a84441f68b9f2b8217b83>@@AEAV<lambda_ab61a845afdef5b7c387490eaf3616ee>@@V<lambda_f7f22ab5edc0698d5f6905b0d3f44752>@@@?$__crt_seh_guarded_call@X@@QEAAX$$QEAV<lambda_886d6c58226a84441f68b9f2b8217b83>@@AEAV<lambda_ab61a845afdef5b7c387490eaf3616ee>@@$$QEAV<lambda_f7f22ab5edc0698d5f6905b0d3f44752>@@@Z@4HA 000000018002e6d4     libucrt:fflush.obj
 0002:0000b6d4       $unwind$_ctrlfp$filt$0     000000018002e6d4     libucrt:fpctrl.obj
 0002:0000b6d4       $unwind$common_control87$filt$0 000000018002e6d4     libucrt:ieee.obj
 0002:0000b6dc       $unwind$?AtlInternalOleLoadFromStream@ATL@@YAJPEAUIStream@@AEBU_GUID@@PEAPEAXTClassesAllowedInStream@1@K@Z 000000018002e6dc     Belt.obj
 0002:0000b6f8       $unwind$?ReadFromStream@CComBSTR@ATL@@QEAAJPEAUIStream@@@Z 000000018002e6f8     Belt.obj
 0002:0000b6f8       $unwind$_configure_narrow_argv 000000018002e6f8     libucrt:argv_parsing.obj
 0002:0000b70c       $unwind$?WriteToStream@CComVariant@ATL@@QEAAJPEAUIStream@@@Z 000000018002e70c     Belt.obj
 0002:0000b720       $unwind$?RegOpenKeyExW@CAtlTransactionManager@ATL@@QEAAJPEAUHKEY__@@PEB_WKKPEAPEAU3@@Z 000000018002e720     Belt.obj
 0002:0000b720       $unwind$?WriteToStream@CComVariant@ATL@@QEAAJPEAUIStream@@G@Z 000000018002e720     Belt.obj
 0002:0000b720       $unwind$__dcrt_write_console 000000018002e720     libucrt:initcon.obj
 0002:0000b720       $unwind$??$__acrt_wcs_to_mbs_cp@U__crt_win32_buffer_no_resizing@@@@YAHQEB_WAEAV?$__crt_win32_buffer@DU__crt_win32_buffer_no_resizing@@@@I@Z 000000018002e720     libucrt:getmodulefilenamea.obj
 0002:0000b734       $unwind$?ReadFromStream@CComVariant@ATL@@QEAAJPEAUIStream@@GTClassesAllowedInStream@2@K@Z 000000018002e734     Belt.obj
 0002:0000b74c       $unwind$?GetSizeMax@CComVariant@ATL@@QEBAJPEAT_ULARGE_INTEGER@@@Z 000000018002e74c     Belt.obj
 0002:0000b764       $unwind$?RegCreateKeyExW@CAtlTransactionManager@ATL@@QEAAJPEAUHKEY__@@PEB_WKPEA_WKKQEAU_SECURITY_ATTRIBUTES@@PEAPEAU3@PEAK@Z 000000018002e764     Belt.obj
 0002:0000b778       $unwind$?GetGITPtr@CAtlModule@ATL@@UEAAJPEAPEAUIGlobalInterfaceTable@@@Z 000000018002e778     Belt.obj
 0002:0000b778       $unwind$?RegDeleteKeyW@CAtlTransactionManager@ATL@@QEAAJPEAUHKEY__@@PEB_W@Z 000000018002e778     Belt.obj
 0002:0000b778       $unwind$?getStateFromIterators@UWMap4@FH4@@SAHAEBViterator@12@H0H0@Z 000000018002e778     libvcruntime:frame.obj
 0002:0000b788       $unwind$?AtlHiMetricToPixel@ATL@@YAXPEBUtagSIZE@@PEAU2@@Z 000000018002e788     Belt.obj
 0002:0000b788       $unwind$?AtlInternalQueryInterface@ATL@@YAJPEAXPEBU_ATL_INTMAP_ENTRY@1@AEBU_GUID@@PEAPEAX@Z 000000018002e788     Belt.obj
 0002:0000b7a0       $unwind$?Append@CParseBuffer@CRegParser@ATL@@QEAAHPEB_WH@Z 000000018002e7a0     Belt.obj
 0002:0000b7a0       $unwind$?AtlComModuleGetClassObject@ATL@@YAJPEAU_ATL_COM_MODULE70@1@AEBU_GUID@@1PEAPEAX@Z 000000018002e7a0     Belt.obj
 0002:0000b7a0       $unwind$?EnumConnections@?$IConnectionPointImpl@VCOPOSBelt@@$1?DIID__IOPOSBeltEvents@@3U_GUID@@BVCComDynamicUnkArray@ATL@@@ATL@@UEAAJPEAPEAUIEnumConnections@@@Z 000000018002e7a0     Belt.obj
 0002:0000b7a0       $unwind$?EnumConnections@?$IConnectionPointImpl@VCOPOSBelt@@$1?IID_IPropertyNotifySink@@3U_GUID@@BVCComDynamicUnkArray@ATL@@@ATL@@UEAAJPEAPEAUIEnumConnections@@@Z 000000018002e7a0     Belt.obj
 0002:0000b7a0       $unwind$?GetClassObject@CComModule@ATL@@QEAAJAEBU_GUID@@0PEAPEAX@Z 000000018002e7a0     Belt.obj
 0002:0000b7a0       $unwind$?Init@?$CComEnumImpl@UIEnumConnectionPoints@@$1?_GUID_b196b285_bab4_101a_b69c_00aa00341d07@@3U__s_GUID@@BPEAUIConnectionPoint@@V?$_CopyInterface@UIConnectionPoint@@@ATL@@@ATL@@QEAAJPEAPEAUIConnectionPoint@@0PEAUIUnknown@@W4CComEnumFlags@2@@Z 000000018002e7a0     Belt.obj
 0002:0000b7a0       $unwind$?Init@?$CComEnumImpl@UIEnumConnections@@$1?_GUID_b196b287_bab4_101a_b69c_00aa00341d07@@3U__s_GUID@@BUtagCONNECTDATA@@V?$_Copy@UtagCONNECTDATA@@@ATL@@@ATL@@QEAAJPEAUtagCONNECTDATA@@0PEAUIUnknown@@W4CComEnumFlags@2@@Z 000000018002e7a0     Belt.obj
 0002:0000b7a0       $unwind$?NextToken@CRegParser@ATL@@IEAAJPEA_W@Z 000000018002e7a0     Belt.obj
 0002:0000b7a0       $unwind$__acrt_fp_strflt_to_string 000000018002e7a0     libucrt:_fptostr.obj
 0002:0000b7a0       $unwind$__acrt_DownlevelLocaleNameToLCID 000000018002e7a0     libucrt:lcidtoname_downlevel.obj
 0002:0000b7a0       $unwind$??R<lambda_f03950bc5685219e0bcd2087efbe011e>@@QEBAHXZ 000000018002e7a0     libucrt:onexit.obj
 0002:0000b7b8       $unwind$?AtlRegisterClassCategoriesHelper@ATL@@YAJAEBU_GUID@@PEBU_ATL_CATMAP_ENTRY@1@H@Z 000000018002e7b8     Belt.obj
 0002:0000b7dc       $unwind$?AtlLoadTypeLib@ATL@@YAJPEAUHINSTANCE__@@PEB_WPEAPEA_WPEAPEAUITypeLib@@@Z 000000018002e7dc     Belt.obj
 0002:0000b7fc       $unwind$?AtlRegisterTypeLib@ATL@@YAJPEAUHINSTANCE__@@PEB_W@Z 000000018002e7fc     Belt.obj
 0002:0000b818       $unwind$?AtlUnRegisterTypeLib@ATL@@YAJPEAUHINSTANCE__@@PEB_W@Z 000000018002e818     Belt.obj
 0002:0000b820       $unwind$?GetTI@CComTypeInfoHolder@ATL@@QEAAJK@Z 000000018002e820     Belt.obj
 0002:0000b820       $unwind$?RecurseDeleteKey@CRegKey@ATL@@QEAAJPEB_W@Z 000000018002e820     Belt.obj
 0002:0000b840       $unwind$?UpdateRegistryFromResource@CAtlModule@ATL@@QEAAJIHPEAU_ATL_REGMAP_ENTRY@2@@Z 000000018002e840     Belt.obj
 0002:0000b840       $unwind$?UpdateRegistryFromResource@CAtlModule@ATL@@QEAAJPEB_WHPEAU_ATL_REGMAP_ENTRY@2@@Z 000000018002e840     Belt.obj
 0002:0000b860       $unwind$?Lookup@?$CSimpleMap@PEA_WPEA_WVCExpansionVectorEqualHelper@ATL@@@ATL@@QEBAPEA_WAEBQEA_W@Z 000000018002e860     Belt.obj
 0002:0000b860       $unwind$__std_exception_copy 000000018002e860     libvcruntime:std_exception.obj
 0002:0000b860       $unwind$_free_osfhnd       000000018002e860     libucrt:osfinfo.obj
 0002:0000b874       $unwind$?Add@CExpansionVector@ATL@@QEAAHPEB_W0@Z 000000018002e874     Belt.obj
 0002:0000b88c       $unwind$?PreProcessBuffer@CRegParser@ATL@@QEAAJPEA_WPEAPEA_W@Z 000000018002e88c     Belt.obj
 0002:0000b8b0       $unwind$?RegisterBuffer@CRegParser@ATL@@QEAAJPEA_WH@Z 000000018002e8b0     Belt.obj
 0002:0000b8d0       $unwind$?AddValue@CRegParser@ATL@@IEAAJAEAVCRegKey@2@PEB_WPEA_W@Z 000000018002e8d0     Belt.obj
 0002:0000b8f0       $unwind$?RegisterSubkeys@CRegParser@ATL@@IEAAJPEA_WPEAUHKEY__@@HH@Z 000000018002e8f0     Belt.obj
 0002:0000b910       $unwind$?SkipAssignment@CRegParser@ATL@@IEAAJPEA_W@Z 000000018002e910     Belt.obj
 0002:0000b928       $unwind$?RegisterFromResource@CRegObject@ATL@@IEAAJPEB_W00H@Z 000000018002e928     Belt.obj
 0002:0000b948       $unwind$?Cleanup@CComTypeInfoHolder@ATL@@SAX_K@Z 000000018002e948     Belt.obj
 0002:0000b948       $unwind$AtlThunk_FreeData  000000018002e948     atls:atlthunk.obj
 0002:0000b948       $unwind$_free_base         000000018002e948     libucrt:free_base.obj
 0002:0000b948       $unwind$?destroy_fls@@YAXPEAX@Z 000000018002e948     libucrt:per_thread_data.obj
 0002:0000b948       $unwind$__acrt_locale_free_numeric 000000018002e948     libucrt:initnum.obj
 0002:0000b948       $unwind$__acrt_locale_free_lc_time_if_unreferenced 000000018002e948     libucrt:locale_refcounting.obj
 0002:0000b950       $unwind$?GetIDsOfNames@CComTypeInfoHolder@ATL@@QEAAJAEBU_GUID@@PEAPEA_WIKPEAJ@Z 000000018002e950     Belt.obj
 0002:0000b96c       $unwind$?LoadNameCache@CComTypeInfoHolder@ATL@@QEAAJPEAUITypeInfo@@@Z 000000018002e96c     Belt.obj
 0002:0000b980       $unwind$?StartWindowProc@?$CWindowImplBaseT@VCWindow@ATL@@V?$CWinTraits@$0FGAAAAAA@$0A@@2@@ATL@@SA_JPEAUHWND__@@I_K_J@Z 000000018002e980     Belt.obj
 0002:0000b980       $unwind$?should_round_up@@YA_NQEBN_KFW4__acrt_rounding_mode@@@Z 000000018002e980     libucrt:cvt.obj
 0002:0000b980       $unwind$??$parse_command_line@D@@YAXPEADPEAPEAD0PEA_K2@Z 000000018002e980     libucrt:argv_parsing.obj
 0002:0000b99c       $unwind$?WindowProc@?$CWindowImplBaseT@VCWindow@ATL@@V?$CWinTraits@$0FGAAAAAA@$0A@@2@@ATL@@SA_JPEAUHWND__@@I_K_J@Z 000000018002e99c     Belt.obj
 0002:0000b9b4       $unwind$?atlCreate@?$CWindowImplBaseT@VCWindow@ATL@@V?$CWinTraits@$0FGAAAAAA@$0A@@2@@ATL@@QEAAPEAUHWND__@@PEAU3@V_U_RECT@2@PEB_WKKV_U_MENUorID@2@GPEAX@Z 000000018002e9b4     Belt.obj
 0002:0000b9cc       $unwind$??$AtlModuleRegisterWndClassInfoT@VAtlModuleRegisterWndClassInfoParamW@ATL@@@ATL@@YAGPEAU_ATL_BASE_MODULE70@0@PEAU_ATL_WIN_MODULE70@0@PEAU_ATL_WNDCLASSINFOW@0@PEAP6A_JPEAUHWND__@@I_K_J@ZVAtlModuleRegisterWndClassInfoParamW@0@@Z 000000018002e9cc     Belt.obj
 0002:0000b9ec       $unwind$?GetZoomInfo@CComControlBase@ATL@@QEAAXAEAUATL_DRAWINFO@@@Z 000000018002e9ec     Belt.obj
 0002:0000b9ec       $unwind$?OnKillFocus@CComControlBase@ATL@@QEAA_JI_K_JAEAH@Z 000000018002e9ec     Belt.obj
 0002:0000b9ec       $unwind$iswctype           000000018002e9ec     libucrt:iswctype.obj
 0002:0000b9f8       $unwind$?SendOnDataChange@CComControlBase@ATL@@QEAAJK@Z 000000018002e9f8     Belt.obj
 0002:0000ba08       $unwind$?OnSetFocus@CComControlBase@ATL@@QEAA_JI_K_JAEAH@Z 000000018002ea08     Belt.obj
 0002:0000ba18       $unwind$?OnMouseActivate@CComControlBase@ATL@@QEAA_JI_K_JAEAH@Z 000000018002ea18     Belt.obj
 0002:0000ba20       $unwind$?GetAmbientLocaleID@CComControlBase@ATL@@QEAAJAEAK@Z 000000018002ea20     Belt.obj
 0002:0000ba20       $unwind$?GetAmbientUserMode@CComControlBase@ATL@@QEAAJAEAH@Z 000000018002ea20     Belt.obj
 0002:0000ba30       $unwind$?IQuickActivate_QuickActivate@CComControlBase@ATL@@QEAAJPEAUtagQACONTAINER@@PEAUtagQACONTROL@@@Z 000000018002ea30     Belt.obj
 0002:0000ba48       $unwind$?DoVerbProperties@CComControlBase@ATL@@QEAAJPEBUtagRECT@@PEAUHWND__@@@Z 000000018002ea48     Belt.obj
 0002:0000ba60       $unwind$?InPlaceActivate@CComControlBase@ATL@@QEAAJJPEBUtagRECT@@@Z 000000018002ea60     Belt.obj
 0002:0000ba80       $unwind$?IOleObject_Close@CComControlBase@ATL@@QEAAJK@Z 000000018002ea80     Belt.obj
 0002:0000ba80       $unwind$?type_case_c_tchar@?$output_processor@_WV?$string_output_adapter@_W@__crt_stdio_output@@V?$format_validation_base@_WV?$string_output_adapter@_W@__crt_stdio_output@@@2@@__crt_stdio_output@@AEAA_N_W@Z 000000018002ea80     libucrt:output.obj
 0002:0000ba90       $unwind$?IOleInPlaceObject_UIDeactivate@CComControlBase@ATL@@QEAAJXZ 000000018002ea90     Belt.obj
 0002:0000baa8       $unwind$?IOleInPlaceObject_SetObjectRects@CComControlBase@ATL@@QEAAJPEBUtagRECT@@0@Z 000000018002eaa8     Belt.obj
 0002:0000babc       $unwind$?IViewObject_Draw@CComControlBase@ATL@@QEAAJKJPEAXPEAUtagDVTARGETDEVICE@@PEAUHDC__@@2PEBU_RECTL@@3@Z 000000018002eabc     Belt.obj
 0002:0000bad8       $unwind$?IDataObject_GetData@CComControlBase@ATL@@QEAAJPEAUtagFORMATETC@@PEAUtagSTGMEDIUM@@@Z 000000018002ead8     Belt.obj
 0002:0000baf8       $unwind$?OnPaint@CComControlBase@ATL@@QEAA_JI_K_JAEAH@Z 000000018002eaf8     Belt.obj
 0002:0000bb14       $unwind$?OnDrawAdvanced@CComControlBase@ATL@@UEAAJAEAUATL_DRAWINFO@@@Z 000000018002eb14     Belt.obj
 0002:0000bb30       $unwind$?Invoke@?$IDispatchImpl@UIOPOSBelt@@$1?IID_IOPOSBelt@@3U_GUID@@B$1?LIBID_OposBelt_CCO@@3U3@B$00$0A@VCComTypeInfoHolder@ATL@@@ATL@@UEAAJJAEBU_GUID@@KGPEAUtagDISPPARAMS@@PEAUtagVARIANT@@PEAUtagEXCEPINFO@@PEAI@Z 000000018002eb30     Belt.obj
 0002:0000bb30       $unwind$?ReleaseDevice@COPOSBelt@@UEAAJPEAJ@Z 000000018002eb30     BeltImpl.obj
 0002:0000bb30       $unwind$_mbsdec_l          000000018002eb30     libucrt:mbsdec.obj
 0002:0000bb3c       $unwind$?atlCreate@?$CWindowImpl@VCOPOSBelt@@VCWindow@ATL@@V?$CWinTraits@$0FGAAAAAA@$0A@@3@@ATL@@QEAAPEAUHWND__@@PEAU3@V_U_RECT@2@PEB_WKKV_U_MENUorID@2@PEAX@Z 000000018002eb3c     Belt.obj
 0002:0000bb3c       $unwind$?fp_format_e@@YAHQEBNQEAD_K12H_NIQEAU__crt_locale_pointers@@W4__acrt_rounding_mode@@@Z 000000018002eb3c     libucrt:cvt.obj
 0002:0000bb3c       $unwind$_mbtowc_l          000000018002eb3c     libucrt:mbtowc.obj
 0002:0000bb3c       $unwind$__acrt_LCMapStringEx 000000018002eb3c     libucrt:winapi_thunks.obj
 0002:0000bb50       $unwind$?CreateControlWindow@?$CComControl@VCOPOSBelt@@V?$CWindowImpl@VCOPOSBelt@@VCWindow@ATL@@V?$CWinTraits@$0FGAAAAAA@$0A@@3@@ATL@@@ATL@@UEAAPEAUHWND__@@PEAU3@AEAUtagRECT@@@Z 000000018002eb50     Belt.obj
 0002:0000bb50       $unwind$?ResetBelt@COPOSBelt@@UEAAJPEAJ@Z 000000018002eb50     BeltImpl.obj
 0002:0000bb50       $unwind$?StopBelt@COPOSBelt@@UEAAJPEAJ@Z 000000018002eb50     BeltImpl.obj
 0002:0000bb50       $unwind$?__scrt_throw_std_bad_alloc@@YAXXZ 000000018002eb50     LIBCMT:throw_bad_alloc.obj
 0002:0000bb50       $unwind$?__scrt_throw_std_bad_array_new_length@@YAXXZ 000000018002eb50     LIBCMT:throw_bad_alloc.obj
 0002:0000bb50       $unwind$_raise_exc         000000018002eb50     libucrt:fpexcept.obj
 0002:0000bb58       $unwind$?GetSizeMax@?$IPersistStreamInitImpl@VCOPOSBelt@@@ATL@@UEAAJPEAT_ULARGE_INTEGER@@@Z 000000018002eb58     Belt.obj
 0002:0000bb70       $unwind$?IPersistStreamInit_Load@?$IPersistStreamInitImpl@VCOPOSBelt@@@ATL@@QEAAJPEAUIStream@@PEBUATL_PROPMAP_ENTRY@2@@Z 000000018002eb70     Belt.obj
 0002:0000bb8c       $unwind$?IPersistStreamInit_Save@?$IPersistStreamInitImpl@VCOPOSBelt@@@ATL@@QEAAJPEAUIStream@@HPEBUATL_PROPMAP_ENTRY@2@@Z 000000018002eb8c     Belt.obj
 0002:0000bba8       $unwind$?DoVerbPrimary@?$IOleObjectImpl@VCOPOSBelt@@@ATL@@QEAAJPEBUtagRECT@@PEAUHWND__@@@Z 000000018002eba8     Belt.obj
 0002:0000bba8       $unwind$?AdjustItemCount@COPOSBelt@@UEAAJJJPEAJ@Z 000000018002eba8     BeltImpl.obj
 0002:0000bbc0       $unwind$?TranslateAcceleratorW@?$IOleInPlaceActiveObjectImpl@VCOPOSBelt@@@ATL@@UEAAJPEAUtagMSG@@@Z 000000018002ebc0     Belt.obj
 0002:0000bbcc       $unwind$?Draw@?$IViewObjectExImpl@VCOPOSBelt@@@ATL@@UEAAJKJPEAXPEAUtagDVTARGETDEVICE@@PEAUHDC__@@2PEBU_RECTL@@3P6AH_K@Z4@Z 000000018002ebcc     Belt.obj
 0002:0000bbd4       $unwind$?QueryHitRect@?$IViewObjectExImpl@VCOPOSBelt@@@ATL@@UEAAJKPEBUtagRECT@@0JPEAK@Z 000000018002ebd4     Belt.obj
 0002:0000bbe4       $unwind$?OnWindowMessage@?$IOleInPlaceObjectWindowlessImpl@VCOPOSBelt@@@ATL@@UEAAJI_K_JPEA_J@Z 000000018002ebe4     Belt.obj
 0002:0000bbf8       $unwind$?EnumConnectionPoints@?$IConnectionPointContainerImpl@VCOPOSBelt@@@ATL@@UEAAJPEAPEAUIEnumConnectionPoints@@@Z 000000018002ebf8     Belt.obj
 0002:0000bc20       $unwind$?FindConnectionPoint@?$IConnectionPointContainerImpl@VCOPOSBelt@@@ATL@@UEAAJAEBU_GUID@@PEAPEAUIConnectionPoint@@@Z 000000018002ec20     Belt.obj
 0002:0000bc20       $unwind$?__mbrtoc32_utf8@__crt_mbstring@@YA_KPEA_UPEBD_KPEAU_Mbstatet@@@Z 000000018002ec20     libucrt:mbrtoc32.obj
 0002:0000bc3c       $unwind$?Load@?$IPersistStorageImpl@VCOPOSBelt@@@ATL@@UEAAJPEAUIStorage@@@Z 000000018002ec3c     Belt.obj
 0002:0000bc4c       $unwind$?Save@?$IPersistStorageImpl@VCOPOSBelt@@@ATL@@UEAAJPEAUIStorage@@H@Z 000000018002ec4c     Belt.obj
 0002:0000bc60       $unwind$?IPSI_GetIPersistStreamInit@?$IPersistStorageImpl@VCOPOSBelt@@@ATL@@AEAAPEAUIPersistStreamInit@@XZ 000000018002ec60     Belt.obj
 0002:0000bc60       $unwind$?parse_int_from_format_string@?$output_processor@_WV?$string_output_adapter@_W@__crt_stdio_output@@V?$format_validation_base@_WV?$string_output_adapter@_W@__crt_stdio_output@@@2@@__crt_stdio_output@@AEAA_NQEAH@Z 000000018002ec60     libucrt:output.obj
 0002:0000bc74       $unwind$?GetInterfaceSafetyOptions@?$IObjectSafetyImpl@VCOPOSBelt@@$02@ATL@@UEAAJAEBU_GUID@@PEAK1@Z 000000018002ec74     Belt.obj
 0002:0000bc88       $unwind$?SetInterfaceSafetyOptions@?$IObjectSafetyImpl@VCOPOSBelt@@$02@ATL@@UEAAJAEBU_GUID@@KK@Z 000000018002ec88     Belt.obj
 0002:0000bc9c       $unwind$?Advise@?$IConnectionPointImpl@VCOPOSBelt@@$1?DIID__IOPOSBeltEvents@@3U_GUID@@BVCComDynamicUnkArray@ATL@@@ATL@@UEAAJPEAUIUnknown@@PEAK@Z 000000018002ec9c     Belt.obj
 0002:0000bc9c       $unwind$?Advise@?$IConnectionPointImpl@VCOPOSBelt@@$1?IID_IPropertyNotifySink@@3U_GUID@@BVCComDynamicUnkArray@ATL@@@ATL@@UEAAJPEAUIUnknown@@PEAK@Z 000000018002ec9c     Belt.obj
 0002:0000bcb0       $unwind$?Fire_DirectIOEvent@?$CProxy_IOPOSEvents@VCOPOSBelt@@@@QEAAXJPEAJPEAPEA_W@Z 000000018002ecb0     Belt.obj
 0002:0000bcd0       $unwind$?Fire_StatusUpdateEvent@?$CProxy_IOPOSEvents@VCOPOSBelt@@@@QEAAXJ@Z 000000018002ecd0     Belt.obj
 0002:0000bce8       $unwind$?FireTheEvent@?$CProxy_IOPOSEvents@VCOPOSBelt@@@@IEAAXPEAVOposVariant@@IAEAJPEB_WJ@Z 000000018002ece8     Belt.obj
 0002:0000bcf8       $unwind$?ProcessWindowMessage@COPOSBelt@@UEAAHPEAUHWND__@@I_K_JAEA_JK@Z 000000018002ecf8     Belt.obj
 0002:0000bcf8       $unwind$__dcrt_get_narrow_environment_from_os 000000018002ecf8     libucrt:get_environment_from_os.obj
 0002:0000bcf8       $unwind$?fp_format_f_internal@@YAHQEAD_KHQEAU_strflt@@_NQEAU__crt_locale_pointers@@@Z 000000018002ecf8     libucrt:cvt.obj
 0002:0000bcf8       $unwind$??$__acrt_wcs_to_mbs_cp@U__crt_win32_buffer_internal_dynamic_resizing@@@@YAHQEB_WAEAV?$__crt_win32_buffer@DU__crt_win32_buffer_internal_dynamic_resizing@@@@I@Z 000000018002ecf8     libucrt:argv_wildcards.obj
 0002:0000bd10       $unwind$?Clone@?$CComEnumImpl@UIEnumConnectionPoints@@$1?_GUID_b196b285_bab4_101a_b69c_00aa00341d07@@3U__s_GUID@@BPEAUIConnectionPoint@@V?$_CopyInterface@UIConnectionPoint@@@ATL@@@ATL@@UEAAJPEAPEAUIEnumConnectionPoints@@@Z 000000018002ed10     Belt.obj
 0002:0000bd10       $unwind$?Clone@?$CComEnumImpl@UIEnumConnections@@$1?_GUID_b196b287_bab4_101a_b69c_00aa00341d07@@3U__s_GUID@@BUtagCONNECTDATA@@V?$_Copy@UtagCONNECTDATA@@@ATL@@@ATL@@UEAAJPEAPEAUIEnumConnections@@@Z 000000018002ed10     Belt.obj
 0002:0000bd28       $unwind$?GetOposProp@COPOSBelt@@IEAAJJPEAJJ@Z 000000018002ed28     BeltImpl.obj
 0002:0000bd28       $unwind$?GetOposProp@COPOSBelt@@IEAAJJPEAPEA_WJ@Z 000000018002ed28     BeltImpl.obj
 0002:0000bd40       $unwind$?SetOposProp@COPOSBelt@@IEAAJJJJ@Z 000000018002ed40     BeltImpl.obj
 0002:0000bd60       $unwind$?DoInvoke@COPOSBelt@@IEAAJJPEAVOposVariant@@IHPEAJ_N@Z 000000018002ed60     BeltImpl.obj
 0002:0000bd78       $unwind$?SetCOFreezeEvents@COPOSBelt@@IEAAXF@Z 000000018002ed78     BeltImpl.obj
 0002:0000bd8c       $unwind$?OnDraw@COPOSBelt@@MEAAJAEAUATL_DRAWINFO@@@Z 000000018002ed8c     BeltImpl.obj
 0002:0000bda4       $unwind$?EventInit@COPOSBelt@@IEAAJXZ 000000018002eda4     BeltImpl.obj
 0002:0000bdb8       $unwind$?get_ControlObjectDescription@COPOSBelt@@UEAAJPEAPEA_W@Z 000000018002edb8     BeltImpl.obj
 0002:0000bdb8       $unwind$__dcrt_lowio_ensure_console_output_initialized 000000018002edb8     libucrt:initcon.obj
 0002:0000bdb8       $unwind$_isleadbyte_l      000000018002edb8     libucrt:_wctype.obj
 0002:0000bdb8       $unwind$?getSystemCP@@YAHH@Z 000000018002edb8     libucrt:mbctype.obj
 0002:0000bdc0       $unwind$?CheckHealth@COPOSBelt@@UEAAJJPEAJ@Z 000000018002edc0     BeltImpl.obj
 0002:0000bdc0       $unwind$?MoveBackward@COPOSBelt@@UEAAJJPEAJ@Z 000000018002edc0     BeltImpl.obj
 0002:0000bdc0       $unwind$?MoveForward@COPOSBelt@@UEAAJJPEAJ@Z 000000018002edc0     BeltImpl.obj
 0002:0000bdc0       $unwind$?ResetItemCount@COPOSBelt@@UEAAJJPEAJ@Z 000000018002edc0     BeltImpl.obj
 0002:0000bdc0       $unwind$?ResetStatistics@COPOSBelt@@UEAAJPEA_WPEAJ@Z 000000018002edc0     BeltImpl.obj
 0002:0000bdc0       $unwind$?RetrieveStatistics@COPOSBelt@@UEAAJPEAPEA_WPEAJ@Z 000000018002edc0     BeltImpl.obj
 0002:0000bdc0       $unwind$?UpdateFirmware@COPOSBelt@@UEAAJPEA_WPEAJ@Z 000000018002edc0     BeltImpl.obj
 0002:0000bdc0       $unwind$?UpdateStatistics@COPOSBelt@@UEAAJPEA_WPEAJ@Z 000000018002edc0     BeltImpl.obj
 0002:0000bdd0       $unwind$?ClaimDevice@COPOSBelt@@UEAAJJPEAJ@Z 000000018002edd0     BeltImpl.obj
 0002:0000bde0       $unwind$?Close@COPOSBelt@@UEAAJPEAJ@Z 000000018002ede0     BeltImpl.obj
 0002:0000bdec       $unwind$?DirectIO@COPOSBelt@@UEAAJJPEAJPEAPEA_W0@Z 000000018002edec     BeltImpl.obj
 0002:0000be08       $unwind$?Open@COPOSBelt@@UEAAJPEA_WPEAJ@Z 000000018002ee08     BeltImpl.obj
 0002:0000be2c       $unwind$?CompareFirmwareVersion@COPOSBelt@@UEAAJPEA_WPEAJ1@Z 000000018002ee2c     BeltImpl.obj
 0002:0000be2c       $unwind$?initialize_inherited_file_handles_nolock@@YAXXZ 000000018002ee2c     libucrt:ioinit.obj
 0002:0000be48       $unwind$__scrt_is_nonwritable_in_current_image 000000018002ee48     LIBCMT:utility.obj
 0002:0000be68       $unwind$__scrt_is_nonwritable_in_current_image$filt$0 000000018002ee68     LIBCMT:utility.obj
 0002:0000be70       $unwind$__report_securityfailure 000000018002ee70     LIBCMT:gs_report.obj
 0002:0000be78       $unwind$__report_gsfailure 000000018002ee78     LIBCMT:gs_report.obj
 0002:0000be80       $unwind$capture_current_context 000000018002ee80     LIBCMT:gs_report.obj
 0002:0000be8c       $unwind$capture_previous_context 000000018002ee8c     LIBCMT:gs_report.obj
 0002:0000be98       $unwind$??2@YAPEAX_KAEBUnothrow_t@std@@@Z 000000018002ee98     LIBCMT:new_scalar_nothrow.obj
 0002:0000bea8       $cppxdata$??2@YAPEAX_KAEBUnothrow_t@std@@@Z 000000018002eea8     LIBCMT:new_scalar_nothrow.obj
 0002:0000beb5       $stateUnwindMap$??2@YAPEAX_KAEBUnothrow_t@std@@@Z 000000018002eeb5     LIBCMT:new_scalar_nothrow.obj
 0002:0000beb8       $tryMap$??2@YAPEAX_KAEBUnothrow_t@std@@@Z 000000018002eeb8     LIBCMT:new_scalar_nothrow.obj
 0002:0000bec0       $handlerMap$??2@YAPEAX_KAEBUnothrow_t@std@@@Z 000000018002eec0     LIBCMT:new_scalar_nothrow.obj
 0002:0000bec8       $ip2state$??2@YAPEAX_KAEBUnothrow_t@std@@@Z 000000018002eec8     LIBCMT:new_scalar_nothrow.obj
 0002:0000becc       $unwind$?catch$0@?0???2@YAPEAX_KAEBUnothrow_t@std@@@Z@4HA 000000018002eecc     LIBCMT:new_scalar_nothrow.obj
 0002:0000bedc       $cppxdata$?catch$0@?0???2@YAPEAX_KAEBUnothrow_t@std@@@Z@4HA 000000018002eedc     LIBCMT:new_scalar_nothrow.obj
 0002:0000bee6       $stateUnwindMap$?catch$0@?0???2@YAPEAX_KAEBUnothrow_t@std@@@Z@4HA 000000018002eee6     LIBCMT:new_scalar_nothrow.obj
 0002:0000bee8       $ip2state$?catch$0@?0???2@YAPEAX_KAEBUnothrow_t@std@@@Z@4HA 000000018002eee8     LIBCMT:new_scalar_nothrow.obj
 0002:0000beec       $unwind$__GSHandlerCheckCommon 000000018002eeec     LIBCMT:gshandler.obj
 0002:0000bef8       $xdatasym                  000000018002eef8     LIBCMT:chkstk.obj
 0002:0000bf00       $xdatasym                  000000018002ef00     LIBCMT:amdsecgs.obj
 0002:0000bf04       $unwind$?dllmain_crt_process_attach@@YAHQEAUHINSTANCE__@@QEAX@Z 000000018002ef04     LIBCMT:dll_dllmain.obj
 0002:0000bf40       $unwind$?dllmain_crt_process_detach@@YAH_N@Z 000000018002ef40     LIBCMT:dll_dllmain.obj
 0002:0000bf94       $unwind$?dllmain_dispatch@@YAHQEAUHINSTANCE__@@KQEAX@Z 000000018002ef94     LIBCMT:dll_dllmain.obj
 0002:0000bfbc       $unwind$?filt$0@?0??dllmain_dispatch@@YAHQEAUHINSTANCE__@@KQEAX@Z@4HA 000000018002efbc     LIBCMT:dll_dllmain.obj
 0002:0000bfbc       $unwind$?filt$0@?0??FrameUnwindToState@__FrameHandler4@@SAXPEA_KPEAU_xDISPATCHER_CONTEXT@@PEAUFuncInfo4@FH4@@H@Z@4HA 000000018002efbc     libvcruntime:frame.obj
 0002:0000bfbc       $unwind$?fin$1@?0??FrameUnwindToState@__FrameHandler4@@SAXPEA_KPEAU_xDISPATCHER_CONTEXT@@PEAUFuncInfo4@FH4@@H@Z@4HA 000000018002efbc     libvcruntime:frame.obj
 0002:0000bfc4       $unwind$__isa_available_init 000000018002efc4     LIBCMT:cpu_disp.obj
 0002:0000bfd4       $unwind$__scrt_fastfail    000000018002efd4     LIBCMT:utility_desktop.obj
 0002:0000bfe4       $unwind$__security_init_cookie 000000018002efe4     LIBCMT:gs_support.obj
 0002:0000bff0       $xdatasym                  000000018002eff0     LIBCMT:guard_dispatch.obj
 0002:0000bff8       $xdatasym                  000000018002eff8     LIBCMT:guard_xfg_dispatch.obj
 0002:0000bffc       $unwind$AtlThunk_InitData  000000018002effc     atls:atlthunk.obj
 0002:0000c010       $unwind$wcsstr             000000018002f010     libvcruntime:wcsstr.obj
 0002:0000c028       $xdatasym                  000000018002f028     libvcruntime:memcmp.obj
 0002:0000c030       $xdatasym                  000000018002f030     libvcruntime:memcpy.obj
 0002:0000c040       $xdatasym                  000000018002f040     libvcruntime:memset.obj
 0002:0000c050       $unwind$__C_specific_handler 000000018002f050     libvcruntime:riscchandler.obj
 0002:0000c06c       $unwind$?DecompFuncInfo@FH4@@YA_JPEAEAEAUFuncInfo4@1@_KH_N@Z 000000018002f06c     libvcruntime:risctrnsctrl.obj
 0002:0000c084       $unwind$?UnwindNestedFrames@__FrameHandler4@@SAXPEA_KPEAUEHExceptionRecord@@PEAU_CONTEXT@@0PEAXPEAUFuncInfo4@FH4@@HHPEAUHandlerType4@5@PEAU_xDISPATCHER_CONTEXT@@E@Z 000000018002f084     libvcruntime:risctrnsctrl.obj
 0002:0000c098       $unwind$?GetRangeOfTrysToCheck@__FrameHandler4@@SA?AU?$pair@Viterator@TryBlockMap4@FH4@@V123@@std@@AEAVTryBlockMap4@FH4@@HPEAU_xDISPATCHER_CONTEXT@@PEAUFuncInfo4@5@H@Z 000000018002f098     libvcruntime:risctrnsctrl.obj
 0002:0000c0b4       $unwind$__CxxFrameHandler4 000000018002f0b4     libvcruntime:risctrnsctrl.obj
 0002:0000c0c8       $unwind$??$_CallSETranslator@V__FrameHandler4@@@@YAHPEAUEHExceptionRecord@@PEA_KPEAU_CONTEXT@@PEAU_xDISPATCHER_CONTEXT@@PEAUFuncInfo4@FH4@@K1H@Z 000000018002f0c8     libvcruntime:risctrnsctrl.obj
 0002:0000c0e8       $unwind$?filt$0@?0???$_CallSETranslator@V__FrameHandler4@@@@YAHPEAUEHExceptionRecord@@PEA_KPEAU_CONTEXT@@PEAU_xDISPATCHER_CONTEXT@@PEAUFuncInfo4@FH4@@K1H@Z@4HA 000000018002f0e8     libvcruntime:risctrnsctrl.obj
 0002:0000c0f4       $unwind$__DestructExceptionObject 000000018002f0f4     libvcruntime:ehhelpers.obj
 0002:0000c114       $unwind$__DestructExceptionObject$filt$0 000000018002f114     libvcruntime:ehhelpers.obj
 0002:0000c114       $unwind$?fin$1@?0??CxxCallCatchBlock@__FrameHandler4@@SAPEAXPEAU_EXCEPTION_RECORD@@@Z@4HA 000000018002f114     libvcruntime:frame.obj
 0002:0000c120       $unwind$_CxxThrowException 000000018002f120     libvcruntime:throw.obj
 0002:0000c130       $xdatasym                  000000018002f130     libvcruntime:notify.obj
 0002:0000c13c       $unwind$?StateFromIp@__FrameHandler4@@SAHPEAUFuncInfo4@FH4@@PEAU_xDISPATCHER_CONTEXT@@_K@Z 000000018002f13c     libvcruntime:ehstate.obj
 0002:0000c150       $unwind$?getStartStop@UWMap4@FH4@@QEAAXHHAEAViterator@12@0@Z 000000018002f150     libvcruntime:frame.obj
 0002:0000c168       $unwind$?FrameUnwindToState@__FrameHandler4@@SAXPEA_KPEAU_xDISPATCHER_CONTEXT@@PEAUFuncInfo4@FH4@@H@Z 000000018002f168     libvcruntime:frame.obj
 0002:0000c1b0       $unwind$?CxxCallCatchBlock@__FrameHandler4@@SAPEAXPEAU_EXCEPTION_RECORD@@@Z 000000018002f1b0     libvcruntime:frame.obj
 0002:0000c20c       $unwind$?IsInExceptionSpec@@YAEPEAUEHExceptionRecord@@PEBU_s_ESTypeList@@@Z 000000018002f20c     libvcruntime:frame.obj
 0002:0000c228       $unwind$??$__InternalCxxFrameHandler@V__FrameHandler4@@@@YA?AW4_EXCEPTION_DISPOSITION@@PEAUEHExceptionRecord@@PEA_KPEAU_CONTEXT@@PEAU_xDISPATCHER_CONTEXT@@PEAUFuncInfo4@FH4@@H1E@Z 000000018002f228     libvcruntime:frame.obj
 0002:0000c240       $unwind$??$BuildCatchObjectHelperInternal@V__FrameHandler4@@@@YAHPEAUEHExceptionRecord@@PEAXPEAUHandlerType4@FH4@@PEBU_s_CatchableType@@@Z 000000018002f240     libvcruntime:frame.obj
 0002:0000c280       $unwind$??$BuildCatchObjectInternal@V__FrameHandler4@@@@YAXPEAUEHExceptionRecord@@PEAXPEAUHandlerType4@FH4@@PEBU_s_CatchableType@@@Z 000000018002f280     libvcruntime:frame.obj
 0002:0000c2ac       $unwind$??$FindHandler@V__FrameHandler4@@@@YAXPEAUEHExceptionRecord@@PEA_KPEAU_CONTEXT@@PEAU_xDISPATCHER_CONTEXT@@PEAUFuncInfo4@FH4@@EH1@Z 000000018002f2ac     libvcruntime:frame.obj
 0002:0000c2cc       $unwind$??$CatchIt@V__FrameHandler4@@@@YAXPEAUEHExceptionRecord@@PEA_KPEAU_CONTEXT@@PEAU_xDISPATCHER_CONTEXT@@PEAUFuncInfo4@FH4@@PEAUHandlerType4@4@PEBU_s_CatchableType@@PEAUTryBlockMapEntry4@4@H1EE@Z 000000018002f2cc     libvcruntime:frame.obj
 0002:0000c2e4       $unwind$??$FindHandlerForForeignException@V__FrameHandler4@@@@YAXPEAUEHExceptionRecord@@PEA_KPEAU_CONTEXT@@PEAU_xDISPATCHER_CONTEXT@@PEAUFuncInfo4@FH4@@HH1@Z 000000018002f2e4     libvcruntime:frame.obj
 0002:0000c304       $unwind$?try_get_function@@YAPEAXW4function_id@?A0x5302d918@@QEBDQEBW4module_id@2@2@Z 000000018002f304     libvcruntime:winapi_downlevel.obj
 0002:0000c304       $unwind$?try_get_function@@YAPEAXW4function_id@?A0x391cf84c@@QEBDQEBW4module_id@2@2@Z 000000018002f304     libucrt:winapi_thunks.obj
 0002:0000c320       $xdatasym                  000000018002f320     libvcruntime:handlers.obj
 0002:0000c340       $unwind$__acrt_call_reportfault 000000018002f340     libucrt:invalid_parameter.obj
 0002:0000c360       $unwind$_invalid_parameter 000000018002f360     libucrt:invalid_parameter.obj
 0002:0000c374       $unwind$_resetstkoflw      000000018002f374     libucrt:resetstk.obj
 0002:0000c398       $unwind$__stdio_common_vswprintf_s 000000018002f398     libucrt:output.obj
 0002:0000c3a4       $unwind$?write_string@?$string_output_adapter@_W@__crt_stdio_output@@QEBAXQEB_WHQEAHAEAV__crt_deferred_errno_cache@@@Z 000000018002f3a4     libucrt:output.obj
 0002:0000c3bc       $unwind$??$common_vsprintf@Vformat_validation_base@__crt_stdio_output@@_W@@YAH_KQEA_W0QEB_WQEAU__crt_locale_pointers@@QEAD@Z 000000018002f3bc     libucrt:output.obj
 0002:0000c3dc       $unwind$??$write_multiple_characters@V?$string_output_adapter@_W@__crt_stdio_output@@D@__crt_stdio_output@@YAXAEBV?$string_output_adapter@_W@0@DHQEAH@Z 000000018002f3dc     libucrt:output.obj
 0002:0000c3e8       $unwind$?state_case_type@?$output_processor@_WV?$string_output_adapter@_W@__crt_stdio_output@@V?$format_validation_base@_WV?$string_output_adapter@_W@__crt_stdio_output@@@2@@__crt_stdio_output@@AEAA_NXZ 000000018002f3e8     libucrt:output.obj
 0002:0000c40c       $unwind$?type_case_a@?$output_processor@_WV?$string_output_adapter@_W@__crt_stdio_output@@V?$format_validation_base@_WV?$string_output_adapter@_W@__crt_stdio_output@@@2@@__crt_stdio_output@@AEAA_NXZ 000000018002f40c     libucrt:output.obj
 0002:0000c41c       $unwind$?write_stored_string_tchar@?$output_processor@_WV?$string_output_adapter@_W@__crt_stdio_output@@V?$format_validation_base@_WV?$string_output_adapter@_W@__crt_stdio_output@@@2@@__crt_stdio_output@@AEAA_N_W@Z 000000018002f41c     libucrt:output.obj
 0002:0000c430       $unwind$??$type_case_integer_parse_into_buffer@I@?$output_processor@_WV?$string_output_adapter@_W@__crt_stdio_output@@V?$format_validation_base@_WV?$string_output_adapter@_W@__crt_stdio_output@@@2@@__crt_stdio_output@@AEAAXII_N@Z 000000018002f430     libucrt:output.obj
 0002:0000c430       $unwind$??$type_case_integer_parse_into_buffer@_K@?$output_processor@_WV?$string_output_adapter@_W@__crt_stdio_output@@V?$format_validation_base@_WV?$string_output_adapter@_W@__crt_stdio_output@@@2@@__crt_stdio_output@@AEAAX_KI_N@Z 000000018002f430     libucrt:output.obj
 0002:0000c438       $unwind$?common_exit@@YAXHW4_crt_exit_cleanup_mode@@W4_crt_exit_return_mode@@@Z 000000018002f438     libucrt:exit.obj
 0002:0000c444       $unwind$??R<lambda_6e4b09c48022b2350581041d5f6b0c4c>@@QEBA@XZ 000000018002f444     libucrt:exit.obj
 0002:0000c464       $unwind$??$?RV<lambda_d80eeec6fff315bfe5c115232f3240e3>@@AEAV<lambda_6e4b09c48022b2350581041d5f6b0c4c>@@V<lambda_2358e3775559c9db80273638284d5e45>@@@?$__crt_seh_guarded_call@X@@QEAAX$$QEAV<lambda_d80eeec6fff315bfe5c115232f3240e3>@@AEAV<lambda_6e4b09c48022b2350581041d5f6b0c4c>@@$$QEAV<lambda_2358e3775559c9db80273638284d5e45>@@@Z 000000018002f464     libucrt:exit.obj
 0002:0000c488       $unwind$??$free_environment@D@@YAXQEAPEAD@Z 000000018002f488     libucrt:environment_initialization.obj
 0002:0000c488       $unwind$??$free_environment@_W@@YAXQEAPEA_W@Z 000000018002f488     libucrt:environment_initialization.obj
 0002:0000c494       $unwind$??$create_environment@D@@YAQEAPEADQEAD@Z 000000018002f494     libucrt:environment_initialization.obj
 0002:0000c4ac       $unwind$_register_onexit_function 000000018002f4ac     libucrt:onexit.obj
 0002:0000c4b4       $unwind$_execute_onexit_table 000000018002f4b4     libucrt:onexit.obj
 0002:0000c4bc       $unwind$??R<lambda_22ebabd17bc4fa466a2aca6d8deb888d>@@QEBAHXZ 000000018002f4bc     libucrt:onexit.obj
 0002:0000c4d4       $unwind$??$?RV<lambda_638799b9deba96c50f710eeac98168cd>@@AEAV<lambda_22ebabd17bc4fa466a2aca6d8deb888d>@@V<lambda_a6f7d7db0129f75315ebf26d50c089f1>@@@?$__crt_seh_guarded_call@H@@QEAAH$$QEAV<lambda_638799b9deba96c50f710eeac98168cd>@@AEAV<lambda_22ebabd17bc4fa466a2aca6d8deb888d>@@$$QEAV<lambda_a6f7d7db0129f75315ebf26d50c089f1>@@@Z 000000018002f4d4     libucrt:onexit.obj
 0002:0000c4f8       $unwind$??$?RV<lambda_7777bce6b2f8c936911f934f8298dc43>@@AEAV<lambda_f03950bc5685219e0bcd2087efbe011e>@@V<lambda_3883c3dff614d5e0c5f61bb1ac94921c>@@@?$__crt_seh_guarded_call@H@@QEAAH$$QEAV<lambda_7777bce6b2f8c936911f934f8298dc43>@@AEAV<lambda_f03950bc5685219e0bcd2087efbe011e>@@$$QEAV<lambda_3883c3dff614d5e0c5f61bb1ac94921c>@@@Z 000000018002f4f8     libucrt:onexit.obj
 0002:0000c51c       $unwind$_query_new_handler 000000018002f51c     libucrt:new_handler.obj
 0002:0000c53c       $unwind$terminate          000000018002f53c     libucrt:terminate.obj
 0002:0000c55c       $unwind$??$parse_integer@KV?$c_string_character_source@_W@__crt_strtox@@@__crt_strtox@@YAKQEAU__crt_locale_pointers@@V?$c_string_character_source@_W@0@H_N@Z 000000018002f55c     libucrt:atox.obj
 0002:0000c578       $xdatasym                  000000018002f578     libucrt:strncmp.obj
 0002:0000c57c       $unwind$?construct_ptd_array@@YAXQEAU__acrt_ptd@@@Z 000000018002f57c     libucrt:per_thread_data.obj
 0002:0000c584       $unwind$?destroy_ptd_array@@YAXQEAU__acrt_ptd@@@Z 000000018002f584     libucrt:per_thread_data.obj
 0002:0000c58c       $unwind$??$?RV<lambda_0ae27a3a962d80f24befdcbee591983d>@@AEAV<lambda_8d0ee55de4b1038c4002e0adecdf1839>@@V<lambda_dc504788e8f1664fe9b84e20bfb512f2>@@@?$__crt_seh_guarded_call@X@@QEAAX$$QEAV<lambda_0ae27a3a962d80f24befdcbee591983d>@@AEAV<lambda_8d0ee55de4b1038c4002e0adecdf1839>@@$$QEAV<lambda_dc504788e8f1664fe9b84e20bfb512f2>@@@Z 000000018002f58c     libucrt:per_thread_data.obj
 0002:0000c5b0       $unwind$??$?RV<lambda_aa87e3671a710a21b5dc78c0bdf72e11>@@AEAV<lambda_92619d2358a28f41a33ba319515a20b9>@@V<lambda_6992ecaafeb10aed2b74cb1fae11a551>@@@?$__crt_seh_guarded_call@X@@QEAAX$$QEAV<lambda_aa87e3671a710a21b5dc78c0bdf72e11>@@AEAV<lambda_92619d2358a28f41a33ba319515a20b9>@@$$QEAV<lambda_6992ecaafeb10aed2b74cb1fae11a551>@@@Z 000000018002f5b0     libucrt:per_thread_data.obj
 0002:0000c5d4       $unwind$??$?RV<lambda_f2e299630e499de9f9a165e60fcd3db5>@@AEAV<lambda_2ae9d31cdba2644fcbeaf08da7c24588>@@V<lambda_40d01ff24d0e7b3814fdbdcee8eab3c7>@@@?$__crt_seh_guarded_call@X@@QEAAX$$QEAV<lambda_f2e299630e499de9f9a165e60fcd3db5>@@AEAV<lambda_2ae9d31cdba2644fcbeaf08da7c24588>@@$$QEAV<lambda_40d01ff24d0e7b3814fdbdcee8eab3c7>@@@Z 000000018002f5d4     libucrt:per_thread_data.obj
 0002:0000c5f8       $unwind$??$?RV<lambda_2d41944a1d46af3157314b8a01080d33>@@AEAV<lambda_8f455de75cd7d7f24b4096f044d8b9e6>@@V<lambda_aa500f224e6afead328df44964fe2772>@@@?$__crt_seh_guarded_call@X@@QEAAX$$QEAV<lambda_2d41944a1d46af3157314b8a01080d33>@@AEAV<lambda_8f455de75cd7d7f24b4096f044d8b9e6>@@$$QEAV<lambda_aa500f224e6afead328df44964fe2772>@@@Z 000000018002f5f8     libucrt:per_thread_data.obj
 0002:0000c61c       $unwind$__acrt_initialize_winapi_thunks 000000018002f61c     libucrt:winapi_thunks.obj
 0002:0000c624       $unwind$__acrt_fp_format   000000018002f624     libucrt:cvt.obj
 0002:0000c63c       $unwind$?fp_format_e_internal@@YAHQEAD_KH_NIQEAU_strflt@@2QEAU__crt_locale_pointers@@@Z 000000018002f63c     libucrt:cvt.obj
 0002:0000c654       $unwind$?fp_format_a@@YAHQEBNPEAD_KQEAD2H_NIQEAU__crt_locale_pointers@@W4__acrt_rounding_mode@@@Z 000000018002f654     libucrt:cvt.obj
 0002:0000c670       $unwind$?fp_format_g@@YAHQEBNQEAD_K12H_NIQEAU__crt_locale_pointers@@@Z 000000018002f670     libucrt:cvt.obj
 0002:0000c684       $unwind$__acrt_uninitialize_locale 000000018002f684     libucrt:wsetlocale.obj
 0002:0000c684       $unwind$__acrt_get_sigabrt_handler 000000018002f684     libucrt:signal.obj
 0002:0000c68c       $unwind$??$?RV<lambda_410d79af7f07d98d83a3f525b3859a53>@@AEAV<lambda_3e16ef9562a7dcce91392c22ab16ea36>@@V<lambda_38119f0e861e05405d8a144b9b982f0a>@@@?$__crt_seh_guarded_call@X@@QEAAX$$QEAV<lambda_410d79af7f07d98d83a3f525b3859a53>@@AEAV<lambda_3e16ef9562a7dcce91392c22ab16ea36>@@$$QEAV<lambda_38119f0e861e05405d8a144b9b982f0a>@@@Z 000000018002f68c     libucrt:wsetlocale.obj
 0002:0000c6b4       $unwind$__acrt_initialize_lowio 000000018002f6b4     libucrt:ioinit.obj
 0002:0000c6d4       $unwind$??$common_expand_argv_wildcards@D@@YAHQEAPEADQEAPEAPEAD@Z 000000018002f6d4     libucrt:argv_wildcards.obj
 0002:0000c6ec       $unwind$??$copy_and_add_argument_to_buffer@D@@YAHQEBD0_KAEAV?$argument_list@D@?A0x5f5c8891@@@Z 000000018002f6ec     libucrt:argv_wildcards.obj
 0002:0000c708       $unwind$??$expand_argument_wildcards@D@@YAHQEAD0AEAV?$argument_list@D@?A0x5f5c8891@@@Z 000000018002f708     libucrt:argv_wildcards.obj
 0002:0000c72c       $unwind$__acrt_GetModuleFileNameA 000000018002f72c     libucrt:getmodulefilenamea.obj
 0002:0000c748       $unwind$_setmbcp_nolock    000000018002f748     libucrt:mbctype.obj
 0002:0000c768       $unwind$?update_thread_multibyte_data_internal@@YAPEAU__crt_multibyte_data@@QEAU__acrt_ptd@@QEAPEAU1@@Z 000000018002f768     libucrt:mbctype.obj
 0002:0000c790       $unwind$?setmbcp_internal@@YAHH_NQEAU__acrt_ptd@@QEAPEAU__crt_multibyte_data@@@Z 000000018002f790     libucrt:mbctype.obj
 0002:0000c7a0       $unwind$?setSBUpLow@@YAXPEAU__crt_multibyte_data@@@Z 000000018002f7a0     libucrt:mbctype.obj
 0002:0000c7bc       $unwind$??$?RV<lambda_efdfa57d1f175319df784efa44bb7b81>@@AEAV<lambda_5f0a4c1567f8adc6734073e5d1e1b35c>@@V<lambda_2e8a7d3640ea6ccb4c2413664c2db6fd>@@@?$__crt_seh_guarded_call@X@@QEAAX$$QEAV<lambda_efdfa57d1f175319df784efa44bb7b81>@@AEAV<lambda_5f0a4c1567f8adc6734073e5d1e1b35c>@@$$QEAV<lambda_2e8a7d3640ea6ccb4c2413664c2db6fd>@@@Z 000000018002f7bc     libucrt:mbctype.obj
 0002:0000c7e0       $unwind$__acrt_WideCharToMultiByte 000000018002f7e0     libucrt:widechartomultibyte.obj
 0002:0000c7ec       $unwind$raise              000000018002f7ec     libucrt:signal.obj
 0002:0000c828       $unwind$??$?RV<lambda_450d765d439847d4c735a33c368b5fc0>@@AEAV<lambda_44731a7d0e6d81c3e6aa82d741081786>@@V<lambda_601a2a7da3b7a96e9554ac7215c4b07c>@@@?$__crt_seh_guarded_call@P6AXH@Z@@QEAAP6AXH@Z$$QEAV<lambda_450d765d439847d4c735a33c368b5fc0>@@AEAV<lambda_44731a7d0e6d81c3e6aa82d741081786>@@$$QEAV<lambda_601a2a7da3b7a96e9554ac7215c4b07c>@@@Z 000000018002f828     libucrt:signal.obj
 0002:0000c84c       $unwind$?common_flush_all@@YAH_N@Z 000000018002f84c     libucrt:fflush.obj
 0002:0000c854       $unwind$??$?RV<lambda_842d9ff0dc9ef11c61343bbaebe7f885>@@AEAV<lambda_c5860995281e5c4ce005b3de8f5874ee>@@V<lambda_d90129c13df834fdcbf8d2b88dafcf2d>@@@?$__crt_seh_guarded_call@X@@QEAAX$$QEAV<lambda_842d9ff0dc9ef11c61343bbaebe7f885>@@AEAV<lambda_c5860995281e5c4ce005b3de8f5874ee>@@$$QEAV<lambda_d90129c13df834fdcbf8d2b88dafcf2d>@@@Z 000000018002f854     libucrt:fflush.obj
 0002:0000c878       $unwind$??$?RV<lambda_886d6c58226a84441f68b9f2b8217b83>@@AEAV<lambda_ab61a845afdef5b7c387490eaf3616ee>@@V<lambda_f7f22ab5edc0698d5f6905b0d3f44752>@@@?$__crt_seh_guarded_call@X@@QEAAX$$QEAV<lambda_886d6c58226a84441f68b9f2b8217b83>@@AEAV<lambda_ab61a845afdef5b7c387490eaf3616ee>@@$$QEAV<lambda_f7f22ab5edc0698d5f6905b0d3f44752>@@@Z 000000018002f878     libucrt:fflush.obj
 0002:0000c8a0       $unwind$__acrt_update_thread_locale_data 000000018002f8a0     libucrt:locale_refcounting.obj
 0002:0000c8c4       $unwind$?__mbrtowc_utf8@__crt_mbstring@@YA_KPEA_WPEBD_KPEAU_Mbstatet@@@Z 000000018002f8c4     libucrt:mbrtowc.obj
 0002:0000c8cc       $unwind$?__mbsrtowcs_utf8@__crt_mbstring@@YA_KPEA_WPEAPEBD_KPEAU_Mbstatet@@@Z 000000018002f8cc     libucrt:mbrtowc.obj
 0002:0000c8e4       $unwind$__acrt_fltout      000000018002f8e4     libucrt:cfout.obj
 0002:0000c904       $unwind$?divide@__crt_strtox@@YA_KAEAUbig_integer@1@AEBU21@@Z 000000018002f904     libucrt:cfout.obj
 0002:0000c91c       $chain$0$?divide@__crt_strtox@@YA_KAEAUbig_integer@1@AEBU21@@Z 000000018002f91c     libucrt:cfout.obj
 0002:0000c930       $chain$1$?divide@__crt_strtox@@YA_KAEAUbig_integer@1@AEBU21@@Z 000000018002f930     libucrt:cfout.obj
 0002:0000c940       $unwind$_fcloseall         000000018002f940     libucrt:closeall.obj
 0002:0000c964       $unwind$__acrt_locale_free_monetary 000000018002f964     libucrt:initmon.obj
 0002:0000c96c       $unwind$__acrt_locale_free_time 000000018002f96c     libucrt:inittime.obj
 0002:0000c97c       $unwind$__acrt_GetStringTypeA 000000018002f97c     libucrt:getstringtypea.obj
 0002:0000c9a4       $unwind$__acrt_lowio_destroy_handle_array 000000018002f9a4     libucrt:osfinfo.obj
 0002:0000c9b4       $unwind$__acrt_lowio_ensure_fh_exists 000000018002f9b4     libucrt:osfinfo.obj
 0002:0000c9e0       $unwind$qsort              000000018002f9e0     libucrt:qsort.obj
 0002:0000c9f8       $chain$4$qsort             000000018002f9f8     libucrt:qsort.obj
 0002:0000ca1c       $chain$5$qsort             000000018002fa1c     libucrt:qsort.obj
 0002:0000ca2c       $unwind$strpbrk            000000018002fa2c     libucrt:strpbrk.obj
 0002:0000ca3c       $unwind$fallbackMethod     000000018002fa3c     libucrt:strpbrk.obj
 0002:0000ca4c       $unwind$__acrt_LCMapStringA 000000018002fa4c     libucrt:lcmapstringa.obj
 0002:0000ca5c       $unwind$?__acrt_LCMapStringA_stat@@YAHPEAU__crt_locale_pointers@@PEB_WKPEBDHPEADHHH@Z 000000018002fa5c     libucrt:lcmapstringa.obj
 0002:0000ca84       $unwind$_close             000000018002fa84     libucrt:close.obj
 0002:0000ca84       $unwind$_commit            000000018002fa84     libucrt:commit.obj
 0002:0000ca8c       $unwind$??$?RV<lambda_a37b2b86f63e897a80ea819b0eb08c01>@@AEAV<lambda_38ce7e780aa69e748d6df282ebc68efe>@@V<lambda_99fb1378e971ab6e7edea83e3a7a83a2>@@@?$__crt_seh_guarded_call@H@@QEAAH$$QEAV<lambda_a37b2b86f63e897a80ea819b0eb08c01>@@AEAV<lambda_38ce7e780aa69e748d6df282ebc68efe>@@$$QEAV<lambda_99fb1378e971ab6e7edea83e3a7a83a2>@@@Z 000000018002fa8c     libucrt:commit.obj
 0002:0000cab0       $unwind$_write             000000018002fab0     libucrt:write.obj
 0002:0000cae0       $unwind$_write_nolock      000000018002fae0     libucrt:write.obj
 0002:0000caf8       $unwind$?write_double_translated_ansi_nolock@@YA?AUwrite_result@?A0x17268360@@HQEBDI@Z 000000018002faf8     libucrt:write.obj
 0002:0000cb1c       $unwind$?write_text_ansi_nolock@@YA?AUwrite_result@?A0x17268360@@HQEBDI@Z 000000018002fb1c     libucrt:write.obj
 0002:0000cb1c       $unwind$?write_text_utf16le_nolock@@YA?AUwrite_result@?A0x17268360@@HQEBDI@Z 000000018002fb1c     libucrt:write.obj
 0002:0000cb3c       $unwind$?write_text_utf8_nolock@@YA?AUwrite_result@?A0x17268360@@HQEBDI@Z 000000018002fb3c     libucrt:write.obj
 0002:0000cb60       $xdatasym                  000000018002fb60     libucrt:log10.obj
 0002:0000cb6c       $unwind$__acrt_fenv_set_control 000000018002fb6c     libucrt:_fenvutils.obj
 0002:0000cb7c       $unwind$fclose             000000018002fb7c     libucrt:fclose.obj
 0002:0000cba0       $unwind$_putwch_nolock     000000018002fba0     libucrt:putwch.obj
 0002:0000cba8       $unwind$common_control87   000000018002fba8     libucrt:ieee.obj
 0002:0000cbd4       $unwind$_call_matherr      000000018002fbd4     libucrt:libm_error.obj
 0002:0000cbdc       $unwind$_handle_error      000000018002fbdc     libucrt:libm_error.obj
 0002:0000cbfc       $unwind$__acrt_initialize_fma3 000000018002fbfc     libucrt:fma3_available.obj
 0002:0000cc04       $unwind$_log_special_common 000000018002fc04     libucrt:log_special.obj
 0002:0000cc10       $unwind$??$?RV<lambda_751a882b2c74d4b022dec766aa51a29a>@@AEAV<lambda_628dfdc04ba53c8bfc02c9951375f3f5>@@V<lambda_f6c7be5f7998530c34de24c7437d6b54>@@@?$__crt_seh_guarded_call@H@@QEAAH$$QEAV<lambda_751a882b2c74d4b022dec766aa51a29a>@@AEAV<lambda_628dfdc04ba53c8bfc02c9951375f3f5>@@$$QEAV<lambda_f6c7be5f7998530c34de24c7437d6b54>@@@Z 000000018002fc10     libucrt:close.obj
 0002:0000cc38       $xdatasym                  000000018002fc38     libucrt:fpsr.obj
 0002:0000cc40       $unwind$_raise_exc_ex      000000018002fc40     libucrt:fpexcept.obj
 0002:0000cc54       $unwind$_ctrlfp            000000018002fc54     libucrt:fpctrl.obj
 0002:0000cc7c       $unwind$_IsNonwritableInCurrentImage 000000018002fc7c     LIBCMT:pesect.obj
 0002:0000ce00       .edata                     000000018002fe00     OPOSBelt.exp
 0002:0000ce28       rgpv                       000000018002fe28     OPOSBelt.exp
 0002:0000ce38       rgszName                   000000018002fe38     OPOSBelt.exp
 0002:0000ce48       rgwOrd                     000000018002fe48     OPOSBelt.exp
 0002:0000ce50       szName                     000000018002fe50     OPOSBelt.exp
 0002:0000ce5d       $N00001                    000000018002fe5d     OPOSBelt.exp
 0002:0000ce6d       $N00002                    000000018002fe6d     OPOSBelt.exp
 0002:0000ce7f       $N00003                    000000018002fe7f     OPOSBelt.exp
 0002:0000ce91       $N00004                    000000018002fe91     OPOSBelt.exp
 0002:0000d7c2       .idata$6                   00000001800307c2     kernel32:KERNEL32.dll
 0002:0000d9da       .idata$6                   00000001800309da     user32:USER32.dll
 0002:0000db0e       .idata$6                   0000000180030b0e     gdi32:GDI32.dll
 0002:0000dbb4       .idata$6                   0000000180030bb4     advapi32:ADVAPI32.dll
 0002:0000dcd0       .idata$6                   0000000180030cd0     ole32:ole32.dll
 0002:0000dcda       .idata$6                   0000000180030cda     oleaut32:OLEAUT32.dll
 0003:000001c0       ?ObjectMap@@3PAU_ATL_OBJMAP_ENTRY30@ATL@@A 00000001800321c0     Belt.obj
 0003:000002b4       ?s_RequiredMethodsPerRelease@@3PAHA 00000001800322b4     BeltImpl.obj
 0003:000002c0       ?s_SOMethodNames@@3PAPEADA 00000001800322c0     BeltImpl.obj
 0003:000003b0       ?__vcrt_flsindex@@3KA      00000001800323b0     libvcruntime:per_thread_data.obj
 0003:000003c0       ?errno_no_memory@@3HA      00000001800323c0     libucrt:errno.obj
 0003:000003c4       ?doserrno_no_memory@@3KA   00000001800323c4     libucrt:errno.obj
 0003:000003d0       ?__acrt_flsindex@@3KA      00000001800323d0     libucrt:per_thread_data.obj
 0003:00000890       _mbctypes                  0000000180032890     libucrt:mbctype.obj
 0003:000009a0       _mbcasemaps                00000001800329a0     libucrt:mbctype.obj
 0003:00000aa0       ?__rgctypeflag@@3PADA      0000000180032aa0     libucrt:mbctype.obj
 0003:00000ab0       ?__rgcode_page_info@@3PAUcode_page_info@@A 0000000180032ab0     libucrt:mbctype.obj
 0003:00000d50       ?dazSupported@?1??common_control87@@9@9 0000000180032d50     libucrt:ieee.obj
 0003:00000d60       ?__dcrt_lowio_console_output_handle@@3PEAXEA 0000000180032d60     libucrt:initcon.obj
 0003:00000d70       ?dazSupported@?1??_ctrlfp@@9@9 0000000180032d70     libucrt:fpctrl.obj
 0003:00000fc0       ?is_initialized_as_dll@@3_NA 0000000180032fc0     LIBCMT:utility.obj
 0003:00000fc1       ?module_local_atexit_table_initialized@@3_NA 0000000180032fc1     LIBCMT:utility.obj
 0003:00000fc8       ?module_local_atexit_table@@3U_onexit_table_t@@A 0000000180032fc8     LIBCMT:utility.obj
 0003:00000fe0       ?module_local_at_quick_exit_table@@3U_onexit_table_t@@A 0000000180032fe0     LIBCMT:utility.obj
 0003:00000ff8       ?g_tss_cv@@3U_RTL_CONDITION_VARIABLE@@A 0000000180032ff8     LIBCMT:thread_safe_statics.obj
 0003:00001000       ?g_tss_event@@3PEAXEA      0000000180033000     LIBCMT:thread_safe_statics.obj
 0003:00001008       ?g_tss_mutex@@3U_RTL_CRITICAL_SECTION@@A 0000000180033008     LIBCMT:thread_safe_statics.obj
 0003:00001030       ?g_sleep_condition_variable_cs@@3P6AHPEAU_RTL_CONDITION_VARIABLE@@PEAU_RTL_CRITICAL_SECTION@@K@ZEA 0000000180033030     LIBCMT:thread_safe_statics.obj
 0003:00001038       ?g_wake_all_condition_variable@@3P6AXPEAU_RTL_CONDITION_VARIABLE@@@ZEA 0000000180033038     LIBCMT:thread_safe_statics.obj
 0003:00001040       GS_ExceptionRecord         0000000180033040     LIBCMT:gs_report.obj
 0003:000010e0       GS_ContextRecord           00000001800330e0     LIBCMT:gs_report.obj
 0003:000015b4       ?__proc_attached@@3HA      00000001800335b4     LIBCMT:dll_dllmain.obj
 0003:00001648       ?AllocateData@@3P6APEAUAtlThunkData_t@@XZEA 0000000180033648     atls:atlthunk.obj
 0003:00001650       ?InitData@@3P6AXPEAUAtlThunkData_t@@PEAX_K@ZEA 0000000180033650     atls:atlthunk.obj
 0003:00001658       ?DataToCode@@3P6AP6A_JPEAUHWND__@@I_K_J@ZPEAUAtlThunkData_t@@@ZEA 0000000180033658     atls:atlthunk.obj
 0003:00001660       ?FreeData@@3P6AXPEAUAtlThunkData_t@@@ZEA 0000000180033660     atls:atlthunk.obj
 0003:00001668       ?Initialized@@3_NA         0000000180033668     atls:atlthunk.obj
 0003:00001680       ?__vcrt_startup_thread_ptd@@3U__vcrt_ptd@@A 0000000180033680     libvcruntime:per_thread_data.obj
 0003:00001700       __vcrt_lock_table          0000000180033700     libvcruntime:locks.obj
 0003:00001728       __vcrt_locks_initialized   0000000180033728     libvcruntime:locks.obj
 0003:00001770       ?heap@@3V_HeapManager@@A   0000000180033770     libvcruntime:undname.obj
 0003:00001798       ?module_handles@@3PAPEAUHINSTANCE__@@A 0000000180033798     libvcruntime:winapi_downlevel.obj
 0003:000017b0       ?function_pointers@@3PAPEAXA 00000001800337b0     libvcruntime:winapi_downlevel.obj
 0003:000017d8       ?__acrt_invalid_parameter_handler@@3V?$dual_state_global@P6AXPEB_W00I_K@Z@__crt_state_management@@A 00000001800337d8     libucrt:invalid_parameter.obj
 0003:000017e0       ?c_termination_complete@@3JA 00000001800337e0     libucrt:exit.obj
 0003:000017e8       ?thread_local_exit_callback_func@@3P6AXPEAXK0@ZEA 00000001800337e8     libucrt:exit.obj
 0003:00001800       ?program_name@?1???$common_configure_argv@D@@YAHW4_crt_argv_mode@@@Z@4PADA 0000000180033800     libucrt:argv_parsing.obj
 0003:00001958       ?__acrt_new_handler@@3V?$dual_state_global@P6AH_K@Z@__crt_state_management@@A 0000000180033958     libucrt:new_handler.obj
 0003:00001960       ?module_handles@@3PAPEAUHINSTANCE__@@A 0000000180033960     libucrt:winapi_thunks.obj
 0003:00001a00       ?encoded_function_pointers@@3PAPEAXA 0000000180033a00     libucrt:winapi_thunks.obj
 0003:00001b10       ?internal_state@?1??_mbtowc_l@@9@4U_Mbstatet@@A 0000000180033b10     libucrt:mbtowc.obj
 0003:00001b28       ?enable_percent_n@@3_KA    0000000180033b28     libucrt:printf_count_output.obj
 0003:00001f60       ?__acrt_lock_table@@3PAU_RTL_CRITICAL_SECTION@@A 0000000180033f60     libucrt:locks.obj
 0003:00002190       ?__acrt_locks_initialized@@3IA 0000000180034190     libucrt:locks.obj
 0003:000021b0       ?fSystemSet@@3HA           00000001800341b0     libucrt:mbctype.obj
 0003:000021b4       ?initialized@?1??__acrt_initialize_multibyte@@9@4_NA 00000001800341b4     libucrt:mbctype.obj
 0003:000021f0       ?ctrlc_action@@3V?$dual_state_global@P6AXH@Z@__crt_state_management@@A 00000001800341f0     libucrt:signal.obj
 0003:000021f8       ?ctrlbreak_action@@3V?$dual_state_global@P6AXH@Z@__crt_state_management@@A 00000001800341f8     libucrt:signal.obj
 0003:00002200       ?abort_action@@3V?$dual_state_global@P6AXH@Z@__crt_state_management@@A 0000000180034200     libucrt:signal.obj
 0003:00002208       ?term_action@@3V?$dual_state_global@P6AXH@Z@__crt_state_management@@A 0000000180034208     libucrt:signal.obj
 0003:00002210       ?user_matherr@@3V?$dual_state_global@P6AHPEAU_exception@@@Z@__crt_state_management@@A 0000000180034210     libucrt:matherr.obj
 0003:00002218       ?__acrt_global_new_mode@@3V?$dual_state_global@J@__crt_state_management@@A 0000000180034218     libucrt:new_mode.obj
 0003:00002228       ?internal_pst@?1??__mbrtoc32_utf8@__crt_mbstring@@YA_KPEA_UPEBD_KPEAU_Mbstatet@@@Z@4U3@A 0000000180034228     libucrt:mbrtoc32.obj
 0003:00002230       ?__acrt_app_type@@3W4_crt_app_type@@A 0000000180034230     libucrt:report_runtime_error.obj
 0004:00000000       $pdata$?cw_memcpy@@YAHPEA_WPEBDH@Z 0000000180035000     CWString.obj
 0004:0000000c       $pdata$?cw_strcpy@@YAHPEA_WPEBD@Z 000000018003500c     CWString.obj
 0004:00000018       $pdata$?cw_dup@@YAXPEBDAEAHAEAPEA_W1@Z 0000000180035018     CWString.obj
 0004:00000024       $pdata$?DupWide@_CW@@AEAAXXZ 0000000180035024     CWString.obj
 0004:00000030       $pdata$?AtlWinModuleTerm@ATL@@YAJPEAU_ATL_WIN_MODULE70@1@PEAUHINSTANCE__@@@Z 0000000180035030     OposVariant.obj
 0004:0000003c       $pdata$??0CAtlComModule@ATL@@QEAA@XZ 000000018003503c     OposVariant.obj
 0004:00000048       $pdata$?Term@CAtlComModule@ATL@@QEAAXXZ 0000000180035048     OposVariant.obj
 0004:00000054       $pdata$??__E_AtlComModule@ATL@@YAXXZ 0000000180035054     OposVariant.obj
 0004:00000060       $pdata$??0CAtlWinModule@ATL@@QEAA@XZ 0000000180035060     OposVariant.obj
 0004:0000006c       $pdata$??__E_AtlWinModule@ATL@@YAXXZ 000000018003506c     OposVariant.obj
 0004:00000078       $pdata$??__F_AtlWinModule@ATL@@YAXXZ 0000000180035078     OposVariant.obj
 0004:00000084       $pdata$??_Estringdispid@CComTypeInfoHolder@ATL@@QEAAPEAXI@Z 0000000180035084     OposVariant.obj
 0004:00000090       $pdata$?SetVARIANT_BOOL@OposVariant@@QEAAXF@Z 0000000180035090     OposVariant.obj
 0004:0000009c       $pdata$?GetLONG@OposVariant@@QEAAJXZ 000000018003509c     OposVariant.obj
 0004:000000a8       $pdata$?ChangeLONG@OposVariant@@QEAAXPEAJAEAJ@Z 00000001800350a8     OposVariant.obj
 0004:000000b4       $pdata$?SetLONG@OposVariant@@QEAAXJ@Z 00000001800350b4     OposVariant.obj
 0004:000000c0       $pdata$?SetLONG_Ptr@OposVariant@@QEAAXPEAJAEAJ@Z 00000001800350c0     OposVariant.obj
 0004:000000cc       $pdata$?ChangeBSTR@OposVariant@@QEAAXPEAPEA_WAEAJ@Z 00000001800350cc     OposVariant.obj
 0004:000000d8       $pdata$?SetBSTR@OposVariant@@QEAAXPEA_WAEAJ@Z 00000001800350d8     OposVariant.obj
 0004:000000e4       $pdata$?SetBSTR_Copy@OposVariant@@QEAAXPEA_WAEAJ@Z 00000001800350e4     OposVariant.obj
 0004:000000f0       $pdata$?SetBSTR_InOutPtr@OposVariant@@QEAA_NPEAPEA_WAEAJ@Z 00000001800350f0     OposVariant.obj
 0004:000000fc       $pdata$?SetString@OposVariant@@QEAAXPEB_WAEAJ@Z 00000001800350fc     OposVariant.obj
 0004:00000108       $pdata$?SetDispatch_Ptr@OposVariant@@QEAAXPEAUIDispatch@@AEAJ@Z 0000000180035108     OposVariant.obj
 0004:00000114       $pdata$??0OposDispParms@@QEAA@PEAVOposVariant@@H@Z 0000000180035114     OposVariant.obj
 0004:00000120       $pdata$??1OposDispParms@@QEAA@XZ 0000000180035120     OposVariant.obj
 0004:0000012c       $pdata$?AtlThrowImpl@ATL@@YAXJ@Z 000000018003512c     Belt.obj
 0004:00000138       $pdata$swprintf_s          0000000180035138     Belt.obj
 0004:00000144       $pdata$?_AtlVerifyStackAvailable@_ATL_SAFE_ALLOCA_IMPL@ATL@@YA_N_K@Z 0000000180035144     Belt.obj
 0004:00000150       $pdata$?filt$0@?0??_AtlVerifyStackAvailable@_ATL_SAFE_ALLOCA_IMPL@ATL@@YA_N_K@Z@4HA 0000000180035150     Belt.obj
 0004:0000015c       $pdata$?ocscpy_s@@YA_NPEA_W_KPEB_W@Z 000000018003515c     Belt.obj
 0004:00000168       $pdata$?AtlHresultFromLastError@ATL@@YAJXZ 0000000180035168     Belt.obj
 0004:00000174       $pdata$?AtlInternalOleLoadFromStream@ATL@@YAJPEAUIStream@@AEBU_GUID@@PEAPEAXTClassesAllowedInStream@1@K@Z 0000000180035174     Belt.obj
 0004:00000180       $pdata$?ReadFromStream@CComBSTR@ATL@@QEAAJPEAUIStream@@@Z 0000000180035180     Belt.obj
 0004:0000018c       $pdata$?WriteToStream@CComVariant@ATL@@QEAAJPEAUIStream@@@Z 000000018003518c     Belt.obj
 0004:00000198       $pdata$?WriteToStream@CComVariant@ATL@@QEAAJPEAUIStream@@G@Z 0000000180035198     Belt.obj
 0004:000001a4       $pdata$?ReadFromStream@CComVariant@ATL@@QEAAJPEAUIStream@@GTClassesAllowedInStream@2@K@Z 00000001800351a4     Belt.obj
 0004:000001b0       $pdata$?GetSizeMax@CComVariant@ATL@@QEBAJPEAT_ULARGE_INTEGER@@@Z 00000001800351b0     Belt.obj
 0004:000001bc       $pdata$?RegCreateKeyExW@CAtlTransactionManager@ATL@@QEAAJPEAUHKEY__@@PEB_WKPEA_WKKQEAU_SECURITY_ATTRIBUTES@@PEAPEAU3@PEAK@Z 00000001800351bc     Belt.obj
 0004:000001c8       $pdata$?RegOpenKeyExW@CAtlTransactionManager@ATL@@QEAAJPEAUHKEY__@@PEB_WKKPEAPEAU3@@Z 00000001800351c8     Belt.obj
 0004:000001d4       $pdata$?RegDeleteKeyW@CAtlTransactionManager@ATL@@QEAAJPEAUHKEY__@@PEB_W@Z 00000001800351d4     Belt.obj
 0004:000001e0       $pdata$?Add@?$CSimpleArray@GV?$CSimpleArrayEqualHelper@G@ATL@@@ATL@@QEAAHAEBG@Z 00000001800351e0     Belt.obj
 0004:000001ec       $pdata$?AtlInternalQueryInterface@ATL@@YAJPEAXPEBU_ATL_INTMAP_ENTRY@1@AEBU_GUID@@PEAPEAX@Z 00000001800351ec     Belt.obj
 0004:000001f8       $pdata$?AtlComModuleGetClassObject@ATL@@YAJPEAU_ATL_COM_MODULE70@1@AEBU_GUID@@1PEAPEAX@Z 00000001800351f8     Belt.obj
 0004:00000204       $pdata$?AtlRegisterClassCategoriesHelper@ATL@@YAJAEBU_GUID@@PEBU_ATL_CATMAP_ENTRY@1@H@Z 0000000180035204     Belt.obj
 0004:00000210       $pdata$?AtlLoadTypeLib@ATL@@YAJPEAUHINSTANCE__@@PEB_WPEAPEA_WPEAPEAUITypeLib@@@Z 0000000180035210     Belt.obj
 0004:0000021c       $pdata$?AtlRegisterTypeLib@ATL@@YAJPEAUHINSTANCE__@@PEB_W@Z 000000018003521c     Belt.obj
 0004:00000228       $pdata$?AtlUnRegisterTypeLib@ATL@@YAJPEAUHINSTANCE__@@PEB_W@Z 0000000180035228     Belt.obj
 0004:00000234       $pdata$?AtlComModuleRegisterServer@ATL@@YAJPEAU_ATL_COM_MODULE70@1@HPEBU_GUID@@@Z 0000000180035234     Belt.obj
 0004:00000240       $pdata$?AtlComModuleUnregisterServer@ATL@@YAJPEAU_ATL_COM_MODULE70@1@HPEBU_GUID@@@Z 0000000180035240     Belt.obj
 0004:0000024c       $pdata$?AtlWinModuleExtractCreateWndData@ATL@@YAPEAXPEAU_ATL_WIN_MODULE70@1@@Z 000000018003524c     Belt.obj
 0004:00000258       $pdata$?DeleteSubKey@CRegKey@ATL@@QEAAJPEB_W@Z 0000000180035258     Belt.obj
 0004:00000264       $pdata$?RecurseDeleteKey@CRegKey@ATL@@QEAAJPEB_W@Z 0000000180035264     Belt.obj
 0004:00000270       $pdata$??0CAtlModule@ATL@@QEAA@XZ 0000000180035270     Belt.obj
 0004:0000027c       $pdata$?Term@CAtlModule@ATL@@QEAAXXZ 000000018003527c     Belt.obj
 0004:00000288       $pdata$?AddTermFunc@CAtlModule@ATL@@QEAAJP6AX_K@Z0@Z 0000000180035288     Belt.obj
 0004:00000294       $pdata$?GetGITPtr@CAtlModule@ATL@@UEAAJPEAPEAUIGlobalInterfaceTable@@@Z 0000000180035294     Belt.obj
 0004:000002a0       $pdata$?UpdateRegistryFromResource@CAtlModule@ATL@@QEAAJPEB_WHPEAU_ATL_REGMAP_ENTRY@2@@Z 00000001800352a0     Belt.obj
 0004:000002ac       $pdata$?UpdateRegistryFromResource@CAtlModule@ATL@@QEAAJIHPEAU_ATL_REGMAP_ENTRY@2@@Z 00000001800352ac     Belt.obj
 0004:000002b8       $pdata$?Term@CComModule@ATL@@QEAAXXZ 00000001800352b8     Belt.obj
 0004:000002c4       $pdata$?GetClassObject@CComModule@ATL@@QEAAJAEBU_GUID@@0PEAPEAX@Z 00000001800352c4     Belt.obj
 0004:000002d0       $pdata$?RegisterServer@CComModule@ATL@@QEAAJHPEBU_GUID@@@Z 00000001800352d0     Belt.obj
 0004:000002dc       $pdata$?UnregisterServer@CComModule@ATL@@QEAAJHPEBU_GUID@@@Z 00000001800352dc     Belt.obj
 0004:000002e8       $pdata$??_GCComModule@ATL@@UEAAPEAXI@Z 00000001800352e8     Belt.obj
 0004:000002f4       $pdata$?Add@?$CSimpleMap@PEA_WPEA_WVCExpansionVectorEqualHelper@ATL@@@ATL@@QEAAHAEBQEA_W0@Z 00000001800352f4     Belt.obj
 0004:00000300       $pdata$?Lookup@?$CSimpleMap@PEA_WPEA_WVCExpansionVectorEqualHelper@ATL@@@ATL@@QEBAPEA_WAEBQEA_W@Z 0000000180035300     Belt.obj
 0004:0000030c       $pdata$?Add@CExpansionVector@ATL@@QEAAHPEB_W0@Z 000000018003530c     Belt.obj
 0004:00000318       $pdata$?ClearReplacements@CExpansionVector@ATL@@QEAAJXZ 0000000180035318     Belt.obj
 0004:00000324       $pdata$?PreProcessBuffer@CRegParser@ATL@@QEAAJPEA_WPEAPEA_W@Z 0000000180035324     Belt.obj
 0004:00000330       $pdata$?RegisterBuffer@CRegParser@ATL@@QEAAJPEA_WH@Z 0000000180035330     Belt.obj
 0004:0000033c       $pdata$?NextToken@CRegParser@ATL@@IEAAJPEA_W@Z 000000018003533c     Belt.obj
 0004:00000348       $pdata$?AddValue@CRegParser@ATL@@IEAAJAEAVCRegKey@2@PEB_WPEA_W@Z 0000000180035348     Belt.obj
 0004:00000354       $pdata$?RegisterSubkeys@CRegParser@ATL@@IEAAJPEA_WPEAUHKEY__@@HH@Z 0000000180035354     Belt.obj
 0004:00000360       $pdata$?SkipAssignment@CRegParser@ATL@@IEAAJPEA_W@Z 0000000180035360     Belt.obj
 0004:0000036c       $pdata$?HKeyFromString@CRegParser@ATL@@KAPEAUHKEY__@@PEA_W@Z 000000018003536c     Belt.obj
 0004:00000378       $pdata$?VTFromRegType@CRegParser@ATL@@KAHPEB_WAEAG@Z 0000000180035378     Belt.obj
 0004:00000384       $pdata$?Append@CParseBuffer@CRegParser@ATL@@QEAAHPEB_WH@Z 0000000180035384     Belt.obj
 0004:00000390       $pdata$?AddReplacement@CRegObject@ATL@@UEAAJPEB_W0@Z 0000000180035390     Belt.obj
 0004:0000039c       $pdata$?RegisterFromResource@CRegObject@ATL@@IEAAJPEB_W00H@Z 000000018003539c     Belt.obj
 0004:000003a8       $pdata$??_GCRegObject@ATL@@UEAAPEAXI@Z 00000001800353a8     Belt.obj
 0004:000003b4       $pdata$?AllocateHeap@?$CTempBuffer@E$0BAA@VCCRTAllocator@ATL@@@ATL@@AEAAX_K@Z 00000001800353b4     Belt.obj
 0004:000003b4       $pdata$?AllocateHeap@?$CTempBuffer@_W$0BAA@VCCRTAllocator@ATL@@@ATL@@AEAAX_K@Z 00000001800353b4     Belt.obj
 0004:000003b4       $pdata$?AllocateHeap@?$CTempBuffer@_W$0EAA@VCCRTAllocator@ATL@@@ATL@@AEAAX_K@Z 00000001800353b4     Belt.obj
 0004:000003c0       $pdata$?CreateInstance@CComClassFactory@ATL@@UEAAJPEAUIUnknown@@AEBU_GUID@@PEAPEAX@Z 00000001800353c0     Belt.obj
 0004:000003cc       $pdata$?LockServer@CComClassFactory@ATL@@UEAAJH@Z 00000001800353cc     Belt.obj
 0004:000003d8       $pdata$??_GCComClassFactory@ATL@@UEAAPEAXI@Z 00000001800353d8     Belt.obj
 0004:000003e4       $pdata$?GetTI@CComTypeInfoHolder@ATL@@QEAAJK@Z 00000001800353e4     Belt.obj
 0004:000003f0       $pdata$?Cleanup@CComTypeInfoHolder@ATL@@SAX_K@Z 00000001800353f0     Belt.obj
 0004:000003fc       $pdata$?GetIDsOfNames@CComTypeInfoHolder@ATL@@QEAAJAEBU_GUID@@PEAPEA_WIKPEAJ@Z 00000001800353fc     Belt.obj
 0004:00000408       $pdata$?LoadNameCache@CComTypeInfoHolder@ATL@@QEAAJPEAUITypeInfo@@@Z 0000000180035408     Belt.obj
 0004:00000414       $pdata$?Add@CComDynamicUnkArray@ATL@@QEAAKPEAUIUnknown@@@Z 0000000180035414     Belt.obj
 0004:00000420       $pdata$?AtlHiMetricToPixel@ATL@@YAXPEBUtagSIZE@@PEAU2@@Z 0000000180035420     Belt.obj
 0004:0000042c       $pdata$?DefaultReflectionHandler@?$CWindowImplRoot@VCWindow@ATL@@@ATL@@SAHPEAUHWND__@@I_K_JAEA_J@Z 000000018003542c     Belt.obj
 0004:00000438       $pdata$?StartWindowProc@?$CWindowImplBaseT@VCWindow@ATL@@V?$CWinTraits@$0FGAAAAAA@$0A@@2@@ATL@@SA_JPEAUHWND__@@I_K_J@Z 0000000180035438     Belt.obj
 0004:00000444       $pdata$?WindowProc@?$CWindowImplBaseT@VCWindow@ATL@@V?$CWinTraits@$0FGAAAAAA@$0A@@2@@ATL@@SA_JPEAUHWND__@@I_K_J@Z 0000000180035444     Belt.obj
 0004:00000450       $pdata$?atlCreate@?$CWindowImplBaseT@VCWindow@ATL@@V?$CWinTraits@$0FGAAAAAA@$0A@@2@@ATL@@QEAAPEAUHWND__@@PEAU3@V_U_RECT@2@PEB_WKKV_U_MENUorID@2@GPEAX@Z 0000000180035450     Belt.obj
 0004:0000045c       $pdata$?IsEqualObject@?$CComPtrBase@UIOleClientSite@@@ATL@@QEAA_NPEAUIUnknown@@@Z 000000018003545c     Belt.obj
 0004:00000468       $pdata$??$AtlModuleRegisterWndClassInfoT@VAtlModuleRegisterWndClassInfoParamW@ATL@@@ATL@@YAGPEAU_ATL_BASE_MODULE70@0@PEAU_ATL_WIN_MODULE70@0@PEAU_ATL_WNDCLASSINFOW@0@PEAP6A_JPEAUHWND__@@I_K_J@ZVAtlModuleRegisterWndClassInfoParamW@0@@Z 0000000180035468     Belt.obj
 0004:00000474       $pdata$?GetZoomInfo@CComControlBase@ATL@@QEAAXAEAUATL_DRAWINFO@@@Z 0000000180035474     Belt.obj
 0004:00000480       $pdata$?SendOnDataChange@CComControlBase@ATL@@QEAAJK@Z 0000000180035480     Belt.obj
 0004:0000048c       $pdata$?OnSetFocus@CComControlBase@ATL@@QEAA_JI_K_JAEAH@Z 000000018003548c     Belt.obj
 0004:00000498       $pdata$?OnKillFocus@CComControlBase@ATL@@QEAA_JI_K_JAEAH@Z 0000000180035498     Belt.obj
 0004:000004a4       $pdata$?OnMouseActivate@CComControlBase@ATL@@QEAA_JI_K_JAEAH@Z 00000001800354a4     Belt.obj
 0004:000004b0       $pdata$?GetAmbientLocaleID@CComControlBase@ATL@@QEAAJAEAK@Z 00000001800354b0     Belt.obj
 0004:000004bc       $pdata$?GetAmbientUserMode@CComControlBase@ATL@@QEAAJAEAH@Z 00000001800354bc     Belt.obj
 0004:000004c8       $pdata$?SetControlFocus@CComControlBase@ATL@@QEAAHH@Z 00000001800354c8     Belt.obj
 0004:000004d4       $pdata$?IQuickActivate_QuickActivate@CComControlBase@ATL@@QEAAJPEAUtagQACONTAINER@@PEAUtagQACONTROL@@@Z 00000001800354d4     Belt.obj
 0004:000004e0       $pdata$?DoVerbProperties@CComControlBase@ATL@@QEAAJPEBUtagRECT@@PEAUHWND__@@@Z 00000001800354e0     Belt.obj
 0004:000004ec       $pdata$?InPlaceActivate@CComControlBase@ATL@@QEAAJJPEBUtagRECT@@@Z 00000001800354ec     Belt.obj
 0004:000004f8       $pdata$?IOleObject_SetClientSite@CComControlBase@ATL@@QEAAJPEAUIOleClientSite@@@Z 00000001800354f8     Belt.obj
 0004:00000504       $pdata$?IOleObject_Close@CComControlBase@ATL@@QEAAJK@Z 0000000180035504     Belt.obj
 0004:00000510       $pdata$?IOleObject_SetExtent@CComControlBase@ATL@@QEAAJKPEAUtagSIZE@@@Z 0000000180035510     Belt.obj
 0004:0000051c       $pdata$?IOleInPlaceObject_InPlaceDeactivate@CComControlBase@ATL@@QEAAJXZ 000000018003551c     Belt.obj
 0004:00000528       $pdata$?IOleInPlaceObject_UIDeactivate@CComControlBase@ATL@@QEAAJXZ 0000000180035528     Belt.obj
 0004:00000534       $pdata$?IOleInPlaceObject_SetObjectRects@CComControlBase@ATL@@QEAAJPEBUtagRECT@@0@Z 0000000180035534     Belt.obj
 0004:00000540       $pdata$?IViewObject_Draw@CComControlBase@ATL@@QEAAJKJPEAXPEAUtagDVTARGETDEVICE@@PEAUHDC__@@2PEBU_RECTL@@3@Z 0000000180035540     Belt.obj
 0004:0000054c       $pdata$?IDataObject_GetData@CComControlBase@ATL@@QEAAJPEAUtagFORMATETC@@PEAUtagSTGMEDIUM@@@Z 000000018003554c     Belt.obj
 0004:00000558       $pdata$?FireViewChange@CComControlBase@ATL@@QEAAJXZ 0000000180035558     Belt.obj
 0004:00000564       $pdata$?OnPaint@CComControlBase@ATL@@QEAA_JI_K_JAEAH@Z 0000000180035564     Belt.obj
 0004:00000570       $pdata$?OnDrawAdvanced@CComControlBase@ATL@@UEAAJAEAUATL_DRAWINFO@@@Z 0000000180035570     Belt.obj
 0004:0000057c       $pdata$?GetTypeInfo@?$IDispatchImpl@UIOPOSBelt@@$1?IID_IOPOSBelt@@3U_GUID@@B$1?LIBID_OposBelt_CCO@@3U3@B$00$0A@VCComTypeInfoHolder@ATL@@@ATL@@UEAAJIKPEAPEAUITypeInfo@@@Z 000000018003557c     Belt.obj
 0004:00000588       $pdata$?Invoke@?$IDispatchImpl@UIOPOSBelt@@$1?IID_IOPOSBelt@@3U_GUID@@B$1?LIBID_OposBelt_CCO@@3U3@B$00$0A@VCComTypeInfoHolder@ATL@@@ATL@@UEAAJJAEBU_GUID@@KGPEAUtagDISPPARAMS@@PEAUtagVARIANT@@PEAUtagEXCEPINFO@@PEAI@Z 0000000180035588     Belt.obj
 0004:00000594       $pdata$?atlCreate@?$CWindowImpl@VCOPOSBelt@@VCWindow@ATL@@V?$CWinTraits@$0FGAAAAAA@$0A@@3@@ATL@@QEAAPEAUHWND__@@PEAU3@V_U_RECT@2@PEB_WKKV_U_MENUorID@2@PEAX@Z 0000000180035594     Belt.obj
 0004:000005a0       $pdata$?CreateControlWindow@?$CComControl@VCOPOSBelt@@V?$CWindowImpl@VCOPOSBelt@@VCWindow@ATL@@V?$CWinTraits@$0FGAAAAAA@$0A@@3@@ATL@@@ATL@@UEAAPEAUHWND__@@PEAU3@AEAUtagRECT@@@Z 00000001800355a0     Belt.obj
 0004:000005ac       $pdata$?ProcessWindowMessage@?$CComControl@VCOPOSBelt@@V?$CWindowImpl@VCOPOSBelt@@VCWindow@ATL@@V?$CWinTraits@$0FGAAAAAA@$0A@@3@@ATL@@@ATL@@UEAAHPEAUHWND__@@I_K_JAEA_JK@Z 00000001800355ac     Belt.obj
 0004:000005b8       $pdata$?GetSizeMax@?$IPersistStreamInitImpl@VCOPOSBelt@@@ATL@@UEAAJPEAT_ULARGE_INTEGER@@@Z 00000001800355b8     Belt.obj
 0004:000005c4       $pdata$?IPersistStreamInit_Load@?$IPersistStreamInitImpl@VCOPOSBelt@@@ATL@@QEAAJPEAUIStream@@PEBUATL_PROPMAP_ENTRY@2@@Z 00000001800355c4     Belt.obj
 0004:000005d0       $pdata$?IPersistStreamInit_Save@?$IPersistStreamInitImpl@VCOPOSBelt@@@ATL@@QEAAJPEAUIStream@@HPEBUATL_PROPMAP_ENTRY@2@@Z 00000001800355d0     Belt.obj
 0004:000005dc       $pdata$?GetClientSite@?$IOleObjectImpl@VCOPOSBelt@@@ATL@@UEAAJPEAPEAUIOleClientSite@@@Z 00000001800355dc     Belt.obj
 0004:000005e8       $pdata$?DoVerbPrimary@?$IOleObjectImpl@VCOPOSBelt@@@ATL@@QEAAJPEBUtagRECT@@PEAUHWND__@@@Z 00000001800355e8     Belt.obj
 0004:000005f4       $pdata$?DoVerb@?$IOleObjectImpl@VCOPOSBelt@@@ATL@@UEAAJJPEAUtagMSG@@PEAUIOleClientSite@@JPEAUHWND__@@PEBUtagRECT@@@Z 00000001800355f4     Belt.obj
 0004:00000600       $pdata$?Advise@?$IOleObjectImpl@VCOPOSBelt@@@ATL@@UEAAJPEAUIAdviseSink@@PEAK@Z 0000000180035600     Belt.obj
 0004:0000060c       $pdata$?Unadvise@?$IOleObjectImpl@VCOPOSBelt@@@ATL@@UEAAJK@Z 000000018003560c     Belt.obj
 0004:00000618       $pdata$?EnumAdvise@?$IOleObjectImpl@VCOPOSBelt@@@ATL@@UEAAJPEAPEAUIEnumSTATDATA@@@Z 0000000180035618     Belt.obj
 0004:00000624       $pdata$?TranslateAcceleratorW@?$IOleInPlaceActiveObjectImpl@VCOPOSBelt@@@ATL@@UEAAJPEAUtagMSG@@@Z 0000000180035624     Belt.obj
 0004:00000630       $pdata$?OnDocWindowActivate@?$IOleInPlaceActiveObjectImpl@VCOPOSBelt@@@ATL@@UEAAJH@Z 0000000180035630     Belt.obj
 0004:0000063c       $pdata$?Draw@?$IViewObjectExImpl@VCOPOSBelt@@@ATL@@UEAAJKJPEAXPEAUtagDVTARGETDEVICE@@PEAUHDC__@@2PEBU_RECTL@@3P6AH_K@Z4@Z 000000018003563c     Belt.obj
 0004:00000648       $pdata$?SetAdvise@?$IViewObjectExImpl@VCOPOSBelt@@@ATL@@UEAAJKKPEAUIAdviseSink@@@Z 0000000180035648     Belt.obj
 0004:00000654       $pdata$?GetAdvise@?$IViewObjectExImpl@VCOPOSBelt@@@ATL@@UEAAJPEAK0PEAPEAUIAdviseSink@@@Z 0000000180035654     Belt.obj
 0004:00000660       $pdata$?QueryHitPoint@?$IViewObjectExImpl@VCOPOSBelt@@@ATL@@UEAAJKPEBUtagRECT@@UtagPOINT@@JPEAK@Z 0000000180035660     Belt.obj
 0004:0000066c       $pdata$?QueryHitRect@?$IViewObjectExImpl@VCOPOSBelt@@@ATL@@UEAAJKPEBUtagRECT@@0JPEAK@Z 000000018003566c     Belt.obj
 0004:00000678       $pdata$?OnWindowMessage@?$IOleInPlaceObjectWindowlessImpl@VCOPOSBelt@@@ATL@@UEAAJI_K_JPEA_J@Z 0000000180035678     Belt.obj
 0004:00000684       $pdata$?EnumConnectionPoints@?$IConnectionPointContainerImpl@VCOPOSBelt@@@ATL@@UEAAJPEAPEAUIEnumConnectionPoints@@@Z 0000000180035684     Belt.obj
 0004:00000690       $pdata$?FindConnectionPoint@?$IConnectionPointContainerImpl@VCOPOSBelt@@@ATL@@UEAAJAEBU_GUID@@PEAPEAUIConnectionPoint@@@Z 0000000180035690     Belt.obj
 0004:0000069c       $pdata$?IsDirty@?$IPersistStorageImpl@VCOPOSBelt@@@ATL@@UEAAJXZ 000000018003569c     Belt.obj
 0004:000006a8       $pdata$?InitNew@?$IPersistStorageImpl@VCOPOSBelt@@@ATL@@UEAAJPEAUIStorage@@@Z 00000001800356a8     Belt.obj
 0004:000006b4       $pdata$?Load@?$IPersistStorageImpl@VCOPOSBelt@@@ATL@@UEAAJPEAUIStorage@@@Z 00000001800356b4     Belt.obj
 0004:000006c0       $pdata$?Save@?$IPersistStorageImpl@VCOPOSBelt@@@ATL@@UEAAJPEAUIStorage@@H@Z 00000001800356c0     Belt.obj
 0004:000006cc       $pdata$?IPSI_GetIPersistStreamInit@?$IPersistStorageImpl@VCOPOSBelt@@@ATL@@AEAAPEAUIPersistStreamInit@@XZ 00000001800356cc     Belt.obj
 0004:000006d8       $pdata$?GetPagesHelper@?$ISpecifyPropertyPagesImpl@VCOPOSBelt@@@ATL@@IEAAJPEAUtagCAUUID@@PEBUATL_PROPMAP_ENTRY@2@@Z 00000001800356d8     Belt.obj
 0004:000006e4       $pdata$?DAdvise@?$IDataObjectImpl@VCOPOSBelt@@@ATL@@UEAAJPEAUtagFORMATETC@@KPEAUIAdviseSink@@PEAK@Z 00000001800356e4     Belt.obj
 0004:000006f0       $pdata$?GetClassInfoW@?$IProvideClassInfo2Impl@$1?CLSID_OPOSBelt@@3U_GUID@@B$1?DIID__IOPOSBeltEvents@@3U2@B$1?LIBID_OposBelt_CCO@@3U2@B$00$0A@VCComTypeInfoHolder@ATL@@@ATL@@UEAAJPEAPEAUITypeInfo@@@Z 00000001800356f0     Belt.obj
 0004:000006fc       $pdata$?GetInterfaceSafetyOptions@?$IObjectSafetyImpl@VCOPOSBelt@@$02@ATL@@UEAAJAEBU_GUID@@PEAK1@Z 00000001800356fc     Belt.obj
 0004:00000708       $pdata$?SetInterfaceSafetyOptions@?$IObjectSafetyImpl@VCOPOSBelt@@$02@ATL@@UEAAJAEBU_GUID@@KK@Z 0000000180035708     Belt.obj
 0004:00000714       $pdata$?_LocCPQueryInterface@?$IConnectionPointImpl@VCOPOSBelt@@$1?DIID__IOPOSBeltEvents@@3U_GUID@@BVCComDynamicUnkArray@ATL@@@ATL@@UEAAJAEBU_GUID@@PEAPEAX@Z 0000000180035714     Belt.obj
 0004:00000714       $pdata$?_LocCPQueryInterface@?$IConnectionPointImpl@VCOPOSBelt@@$1?IID_IPropertyNotifySink@@3U_GUID@@BVCComDynamicUnkArray@ATL@@@ATL@@UEAAJAEBU_GUID@@PEAPEAX@Z 0000000180035714     Belt.obj
 0004:00000720       $pdata$?Advise@?$IConnectionPointImpl@VCOPOSBelt@@$1?DIID__IOPOSBeltEvents@@3U_GUID@@BVCComDynamicUnkArray@ATL@@@ATL@@UEAAJPEAUIUnknown@@PEAK@Z 0000000180035720     Belt.obj
 0004:00000720       $pdata$?Advise@?$IConnectionPointImpl@VCOPOSBelt@@$1?IID_IPropertyNotifySink@@3U_GUID@@BVCComDynamicUnkArray@ATL@@@ATL@@UEAAJPEAUIUnknown@@PEAK@Z 0000000180035720     Belt.obj
 0004:0000072c       $pdata$?Unadvise@?$IConnectionPointImpl@VCOPOSBelt@@$1?DIID__IOPOSBeltEvents@@3U_GUID@@BVCComDynamicUnkArray@ATL@@@ATL@@UEAAJK@Z 000000018003572c     Belt.obj
 0004:0000072c       $pdata$?Unadvise@?$IConnectionPointImpl@VCOPOSBelt@@$1?IID_IPropertyNotifySink@@3U_GUID@@BVCComDynamicUnkArray@ATL@@@ATL@@UEAAJK@Z 000000018003572c     Belt.obj
 0004:00000738       $pdata$?EnumConnections@?$IConnectionPointImpl@VCOPOSBelt@@$1?DIID__IOPOSBeltEvents@@3U_GUID@@BVCComDynamicUnkArray@ATL@@@ATL@@UEAAJPEAPEAUIEnumConnections@@@Z 0000000180035738     Belt.obj
 0004:00000738       $pdata$?EnumConnections@?$IConnectionPointImpl@VCOPOSBelt@@$1?IID_IPropertyNotifySink@@3U_GUID@@BVCComDynamicUnkArray@ATL@@@ATL@@UEAAJPEAPEAUIEnumConnections@@@Z 0000000180035738     Belt.obj
 0004:00000744       $pdata$?Fire_DirectIOEvent@?$CProxy_IOPOSEvents@VCOPOSBelt@@@@QEAAXJPEAJPEAPEA_W@Z 0000000180035744     Belt.obj
 0004:00000750       $pdata$?Fire_StatusUpdateEvent@?$CProxy_IOPOSEvents@VCOPOSBelt@@@@QEAAXJ@Z 0000000180035750     Belt.obj
 0004:0000075c       $pdata$?FireTheEvent@?$CProxy_IOPOSEvents@VCOPOSBelt@@@@IEAAXPEAVOposVariant@@IAEAJPEB_WJ@Z 000000018003575c     Belt.obj
 0004:00000768       $pdata$?GetConnMap@COPOSBelt@@SAPEBU_ATL_CONNMAP_ENTRY@ATL@@PEAH@Z 0000000180035768     Belt.obj
 0004:00000774       $pdata$?ProcessWindowMessage@COPOSBelt@@UEAAHPEAUHWND__@@I_K_JAEA_JK@Z 0000000180035774     Belt.obj
 0004:00000780       $pdata$?SODirectIO@COPOSBelt@@MEAAJJPEAJPEAPEA_W@Z 0000000180035780     Belt.obj
 0004:0000078c       $pdata$?SOStatusUpdate@COPOSBelt@@MEAAJJ@Z 000000018003578c     Belt.obj
 0004:00000798       $pdata$?DoEvent@COPOSBelt@@IEAAXI_K_J@Z 0000000180035798     Belt.obj
 0004:000007a4       $pdata$??__E_Module@@YAXXZ 00000001800357a4     Belt.obj
 0004:000007b0       $pdata$?CreateInstance@?$CComCreator@V?$CComObjectCached@VCComClassFactory@ATL@@@ATL@@@ATL@@SAJPEAXAEBU_GUID@@PEAPEAX@Z 00000001800357b0     Belt.obj
 0004:000007bc       $pdata$DllMain             00000001800357bc     Belt.obj
 0004:000007c8       $pdata$?CreateInstance@?$CComCreator@V?$CComObject@VCOPOSBelt@@@ATL@@@ATL@@SAJPEAXAEBU_GUID@@PEAPEAX@Z 00000001800357c8     Belt.obj
 0004:000007d4       $pdata$?CreateInstance@?$CComCreator@V?$CComAggObject@VCOPOSBelt@@@ATL@@@ATL@@SAJPEAXAEBU_GUID@@PEAPEAX@Z 00000001800357d4     Belt.obj
 0004:000007e0       $pdata$?AddRef@?$CComObjectCached@VCComClassFactory@ATL@@@ATL@@UEAAKXZ 00000001800357e0     Belt.obj
 0004:000007ec       $pdata$?Release@?$CComObjectCached@VCComClassFactory@ATL@@@ATL@@UEAAKXZ 00000001800357ec     Belt.obj
 0004:000007f8       $pdata$??_G?$CComObjectCached@VCComClassFactory@ATL@@@ATL@@UEAAPEAXI@Z 00000001800357f8     Belt.obj
 0004:00000804       $pdata$??1?$CComEnumImpl@UIEnumConnectionPoints@@$1?_GUID_b196b285_bab4_101a_b69c_00aa00341d07@@3U__s_GUID@@BPEAUIConnectionPoint@@V?$_CopyInterface@UIConnectionPoint@@@ATL@@@ATL@@UEAA@XZ 0000000180035804     Belt.obj
 0004:00000810       $pdata$?Next@?$CComEnumImpl@UIEnumConnectionPoints@@$1?_GUID_b196b285_bab4_101a_b69c_00aa00341d07@@3U__s_GUID@@BPEAUIConnectionPoint@@V?$_CopyInterface@UIConnectionPoint@@@ATL@@@ATL@@UEAAJKPEAPEAUIConnectionPoint@@PEAK@Z 0000000180035810     Belt.obj
 0004:0000081c       $pdata$?Clone@?$CComEnumImpl@UIEnumConnectionPoints@@$1?_GUID_b196b285_bab4_101a_b69c_00aa00341d07@@3U__s_GUID@@BPEAUIConnectionPoint@@V?$_CopyInterface@UIConnectionPoint@@@ATL@@@ATL@@UEAAJPEAPEAUIEnumConnectionPoints@@@Z 000000018003581c     Belt.obj
 0004:00000828       $pdata$?Init@?$CComEnumImpl@UIEnumConnectionPoints@@$1?_GUID_b196b285_bab4_101a_b69c_00aa00341d07@@3U__s_GUID@@BPEAUIConnectionPoint@@V?$_CopyInterface@UIConnectionPoint@@@ATL@@@ATL@@QEAAJPEAPEAUIConnectionPoint@@0PEAUIUnknown@@W4CComEnumFlags@2@@Z 0000000180035828     Belt.obj
 0004:00000834       $pdata$?Release@?$CComObject@V?$CComEnum@UIEnumConnectionPoints@@$1?_GUID_b196b285_bab4_101a_b69c_00aa00341d07@@3U__s_GUID@@BPEAUIConnectionPoint@@V?$_CopyInterface@UIConnectionPoint@@@ATL@@VCComSingleThreadModel@6@@ATL@@@ATL@@UEAAKXZ 0000000180035834     Belt.obj
 0004:00000834       $pdata$?Release@?$CComObject@V?$CComEnum@UIEnumConnections@@$1?_GUID_b196b287_bab4_101a_b69c_00aa00341d07@@3U__s_GUID@@BUtagCONNECTDATA@@V?$_Copy@UtagCONNECTDATA@@@ATL@@VCComSingleThreadModel@6@@ATL@@@ATL@@UEAAKXZ 0000000180035834     Belt.obj
 0004:00000840       $pdata$?CreateInstance@?$CComObject@V?$CComEnum@UIEnumConnectionPoints@@$1?_GUID_b196b285_bab4_101a_b69c_00aa00341d07@@3U__s_GUID@@BPEAUIConnectionPoint@@V?$_CopyInterface@UIConnectionPoint@@@ATL@@VCComSingleThreadModel@6@@ATL@@@ATL@@SAJPEAPEAV12@@Z 0000000180035840     Belt.obj
 0004:0000084c       $pdata$??_G?$CComObject@V?$CComEnum@UIEnumConnectionPoints@@$1?_GUID_b196b285_bab4_101a_b69c_00aa00341d07@@3U__s_GUID@@BPEAUIConnectionPoint@@V?$_CopyInterface@UIConnectionPoint@@@ATL@@VCComSingleThreadModel@6@@ATL@@@ATL@@UEAAPEAXI@Z 000000018003584c     Belt.obj
 0004:00000858       $pdata$?Release@?$CComAggObject@VCOPOSBelt@@@ATL@@UEAAKXZ 0000000180035858     Belt.obj
 0004:00000864       $pdata$?QueryInterface@?$CComAggObject@VCOPOSBelt@@@ATL@@UEAAJAEBU_GUID@@PEAPEAX@Z 0000000180035864     Belt.obj
 0004:00000870       $pdata$??0?$CComContainedObject@VCOPOSBelt@@@ATL@@QEAA@PEAX@Z 0000000180035870     Belt.obj
 0004:0000087c       $pdata$??_G?$CComContainedObject@VCOPOSBelt@@@ATL@@UEAAPEAXI@Z 000000018003587c     Belt.obj
 0004:00000888       $pdata$??_G?$CComAggObject@VCOPOSBelt@@@ATL@@UEAAPEAXI@Z 0000000180035888     Belt.obj
 0004:00000894       $pdata$??0?$CComObject@VCOPOSBelt@@@ATL@@QEAA@PEAX@Z 0000000180035894     Belt.obj
 0004:000008a0       $pdata$??1?$CComObject@VCOPOSBelt@@@ATL@@UEAA@XZ 00000001800358a0     Belt.obj
 0004:000008ac       $pdata$?Release@?$CComObject@VCOPOSBelt@@@ATL@@UEAAKXZ 00000001800358ac     Belt.obj
 0004:000008b8       $pdata$??_G?$CComObject@VCOPOSBelt@@@ATL@@UEAAPEAXI@Z 00000001800358b8     Belt.obj
 0004:000008c4       $pdata$??__E?pConnMap@?$IConnectionPointContainerImpl@VCOPOSBelt@@@ATL@@0PEBU_ATL_CONNMAP_ENTRY@2@EB@@YAXXZ 00000001800358c4     Belt.obj
 0004:000008d0       $pdata$??1?$CComEnumImpl@UIEnumConnections@@$1?_GUID_b196b287_bab4_101a_b69c_00aa00341d07@@3U__s_GUID@@BUtagCONNECTDATA@@V?$_Copy@UtagCONNECTDATA@@@ATL@@@ATL@@UEAA@XZ 00000001800358d0     Belt.obj
 0004:000008dc       $pdata$?Next@?$CComEnumImpl@UIEnumConnections@@$1?_GUID_b196b287_bab4_101a_b69c_00aa00341d07@@3U__s_GUID@@BUtagCONNECTDATA@@V?$_Copy@UtagCONNECTDATA@@@ATL@@@ATL@@UEAAJKPEAUtagCONNECTDATA@@PEAK@Z 00000001800358dc     Belt.obj
 0004:000008e8       $pdata$?Clone@?$CComEnumImpl@UIEnumConnections@@$1?_GUID_b196b287_bab4_101a_b69c_00aa00341d07@@3U__s_GUID@@BUtagCONNECTDATA@@V?$_Copy@UtagCONNECTDATA@@@ATL@@@ATL@@UEAAJPEAPEAUIEnumConnections@@@Z 00000001800358e8     Belt.obj
 0004:000008f4       $pdata$?Init@?$CComEnumImpl@UIEnumConnections@@$1?_GUID_b196b287_bab4_101a_b69c_00aa00341d07@@3U__s_GUID@@BUtagCONNECTDATA@@V?$_Copy@UtagCONNECTDATA@@@ATL@@@ATL@@QEAAJPEAUtagCONNECTDATA@@0PEAUIUnknown@@W4CComEnumFlags@2@@Z 00000001800358f4     Belt.obj
 0004:00000900       $pdata$?CreateInstance@?$CComObject@V?$CComEnum@UIEnumConnections@@$1?_GUID_b196b287_bab4_101a_b69c_00aa00341d07@@3U__s_GUID@@BUtagCONNECTDATA@@V?$_Copy@UtagCONNECTDATA@@@ATL@@VCComSingleThreadModel@6@@ATL@@@ATL@@SAJPEAPEAV12@@Z 0000000180035900     Belt.obj
 0004:0000090c       $pdata$??_G?$CComObject@V?$CComEnum@UIEnumConnections@@$1?_GUID_b196b287_bab4_101a_b69c_00aa00341d07@@3U__s_GUID@@BUtagCONNECTDATA@@V?$_Copy@UtagCONNECTDATA@@@ATL@@VCComSingleThreadModel@6@@ATL@@@ATL@@UEAAPEAXI@Z 000000018003590c     Belt.obj
 0004:00000918       $pdata$??1CComControlBase@ATL@@UEAA@XZ 0000000180035918     BeltImpl.obj
 0004:00000924       $pdata$??1?$IConnectionPointImpl@VCOPOSBelt@@$1?DIID__IOPOSBeltEvents@@3U_GUID@@BVCComDynamicUnkArray@ATL@@@ATL@@QEAA@XZ 0000000180035924     BeltImpl.obj
 0004:00000924       $pdata$??1?$IConnectionPointImpl@VCOPOSBelt@@$1?IID_IPropertyNotifySink@@3U_GUID@@BVCComDynamicUnkArray@ATL@@@ATL@@QEAA@XZ 0000000180035924     BeltImpl.obj
 0004:00000930       $pdata$?FinalConstruct@COPOSBelt@@QEAAJXZ 0000000180035930     BeltImpl.obj
 0004:0000093c       $pdata$??1COPOSBelt@@UEAA@XZ 000000018003593c     BeltImpl.obj
 0004:00000948       $pdata$?GetOposProp@COPOSBelt@@IEAAJJPEAJJ@Z 0000000180035948     BeltImpl.obj
 0004:00000954       $pdata$?SetOposProp@COPOSBelt@@IEAAJJJJ@Z 0000000180035954     BeltImpl.obj
 0004:00000960       $pdata$?GetOposProp@COPOSBelt@@IEAAJJPEAPEA_WJ@Z 0000000180035960     BeltImpl.obj
 0004:0000096c       $pdata$?DoInvoke@COPOSBelt@@IEAAJJPEAVOposVariant@@IHPEAJ_N@Z 000000018003596c     BeltImpl.obj
 0004:00000978       $pdata$?SetCOFreezeEvents@COPOSBelt@@IEAAXF@Z 0000000180035978     BeltImpl.obj
 0004:00000984       $pdata$?FreezeEvents@COPOSBelt@@MEAAJH@Z 0000000180035984     BeltImpl.obj
 0004:00000990       $pdata$?OnDraw@COPOSBelt@@MEAAJAEAUATL_DRAWINFO@@@Z 0000000180035990     BeltImpl.obj
 0004:0000099c       $pdata$?EventInit@COPOSBelt@@IEAAJXZ 000000018003599c     BeltImpl.obj
 0004:000009a8       $pdata$?EventUninit@COPOSBelt@@IEAAXXZ 00000001800359a8     BeltImpl.obj
 0004:000009b4       $pdata$?s_EventWindowProc@COPOSBelt@@KA_JPEAUHWND__@@I_K_J@Z 00000001800359b4     BeltImpl.obj
 0004:000009c0       $pdata$?EventWindowProc@COPOSBelt@@IEAA_JI_K_J@Z 00000001800359c0     BeltImpl.obj
 0004:000009cc       $pdata$?SOProcessID@COPOSBelt@@UEAAJPEAJ@Z 00000001800359cc     BeltImpl.obj
 0004:000009d8       $pdata$?get_Claimed@COPOSBelt@@UEAAJPEAF@Z 00000001800359d8     BeltImpl.obj
 0004:000009e4       $pdata$?get_DeviceEnabled@COPOSBelt@@UEAAJPEAF@Z 00000001800359e4     BeltImpl.obj
 0004:000009f0       $pdata$?get_FreezeEvents@COPOSBelt@@UEAAJPEAF@Z 00000001800359f0     BeltImpl.obj
 0004:000009fc       $pdata$?put_FreezeEvents@COPOSBelt@@UEAAJF@Z 00000001800359fc     BeltImpl.obj
 0004:00000a08       $pdata$?get_ResultCode@COPOSBelt@@UEAAJPEAJ@Z 0000000180035a08     BeltImpl.obj
 0004:00000a14       $pdata$?get_State@COPOSBelt@@UEAAJPEAJ@Z 0000000180035a14     BeltImpl.obj
 0004:00000a20       $pdata$?get_ControlObjectDescription@COPOSBelt@@UEAAJPEAPEA_W@Z 0000000180035a20     BeltImpl.obj
 0004:00000a2c       $pdata$?get_CapStatisticsReporting@COPOSBelt@@UEAAJPEAF@Z 0000000180035a2c     BeltImpl.obj
 0004:00000a38       $pdata$?get_CapUpdateStatistics@COPOSBelt@@UEAAJPEAF@Z 0000000180035a38     BeltImpl.obj
 0004:00000a44       $pdata$?get_CapCompareFirmwareVersion@COPOSBelt@@UEAAJPEAF@Z 0000000180035a44     BeltImpl.obj
 0004:00000a50       $pdata$?get_CapUpdateFirmware@COPOSBelt@@UEAAJPEAF@Z 0000000180035a50     BeltImpl.obj
 0004:00000a5c       $pdata$?CheckHealth@COPOSBelt@@UEAAJJPEAJ@Z 0000000180035a5c     BeltImpl.obj
 0004:00000a68       $pdata$?ClaimDevice@COPOSBelt@@UEAAJJPEAJ@Z 0000000180035a68     BeltImpl.obj
 0004:00000a74       $pdata$?Close@COPOSBelt@@UEAAJPEAJ@Z 0000000180035a74     BeltImpl.obj
 0004:00000a80       $pdata$?DirectIO@COPOSBelt@@UEAAJJPEAJPEAPEA_W0@Z 0000000180035a80     BeltImpl.obj
 0004:00000a8c       $pdata$?Open@COPOSBelt@@UEAAJPEA_WPEAJ@Z 0000000180035a8c     BeltImpl.obj
 0004:00000a98       $pdata$?ReleaseDevice@COPOSBelt@@UEAAJPEAJ@Z 0000000180035a98     BeltImpl.obj
 0004:00000aa4       $pdata$?ResetStatistics@COPOSBelt@@UEAAJPEA_WPEAJ@Z 0000000180035aa4     BeltImpl.obj
 0004:00000ab0       $pdata$?RetrieveStatistics@COPOSBelt@@UEAAJPEAPEA_WPEAJ@Z 0000000180035ab0     BeltImpl.obj
 0004:00000abc       $pdata$?UpdateStatistics@COPOSBelt@@UEAAJPEA_WPEAJ@Z 0000000180035abc     BeltImpl.obj
 0004:00000ac8       $pdata$?CompareFirmwareVersion@COPOSBelt@@UEAAJPEA_WPEAJ1@Z 0000000180035ac8     BeltImpl.obj
 0004:00000ad4       $pdata$?UpdateFirmware@COPOSBelt@@UEAAJPEA_WPEAJ@Z 0000000180035ad4     BeltImpl.obj
 0004:00000ae0       $pdata$?get_AutoStopBackward@COPOSBelt@@UEAAJPEAF@Z 0000000180035ae0     BeltImpl.obj
 0004:00000aec       $pdata$?get_AutoStopForward@COPOSBelt@@UEAAJPEAF@Z 0000000180035aec     BeltImpl.obj
 0004:00000af8       $pdata$?get_CapAutoStopBackward@COPOSBelt@@UEAAJPEAF@Z 0000000180035af8     BeltImpl.obj
 0004:00000b04       $pdata$?get_CapAutoStopBackwardItemCount@COPOSBelt@@UEAAJPEAF@Z 0000000180035b04     BeltImpl.obj
 0004:00000b10       $pdata$?get_CapAutoStopForward@COPOSBelt@@UEAAJPEAF@Z 0000000180035b10     BeltImpl.obj
 0004:00000b1c       $pdata$?get_CapAutoStopForwardItemCount@COPOSBelt@@UEAAJPEAF@Z 0000000180035b1c     BeltImpl.obj
 0004:00000b28       $pdata$?get_CapLightBarrierBackward@COPOSBelt@@UEAAJPEAF@Z 0000000180035b28     BeltImpl.obj
 0004:00000b34       $pdata$?get_CapLightBarrierForward@COPOSBelt@@UEAAJPEAF@Z 0000000180035b34     BeltImpl.obj
 0004:00000b40       $pdata$?get_CapMoveBackward@COPOSBelt@@UEAAJPEAF@Z 0000000180035b40     BeltImpl.obj
 0004:00000b4c       $pdata$?get_CapSecurityFlapBackward@COPOSBelt@@UEAAJPEAF@Z 0000000180035b4c     BeltImpl.obj
 0004:00000b58       $pdata$?get_CapSecurityFlapForward@COPOSBelt@@UEAAJPEAF@Z 0000000180035b58     BeltImpl.obj
 0004:00000b64       $pdata$?get_LightBarrierBackwardInterrupted@COPOSBelt@@UEAAJPEAF@Z 0000000180035b64     BeltImpl.obj
 0004:00000b70       $pdata$?get_LightBarrierForwardInterrupted@COPOSBelt@@UEAAJPEAF@Z 0000000180035b70     BeltImpl.obj
 0004:00000b7c       $pdata$?get_SecurityFlapBackwardOpened@COPOSBelt@@UEAAJPEAF@Z 0000000180035b7c     BeltImpl.obj
 0004:00000b88       $pdata$?get_SecurityFlapForwardOpened@COPOSBelt@@UEAAJPEAF@Z 0000000180035b88     BeltImpl.obj
 0004:00000b94       $pdata$?AdjustItemCount@COPOSBelt@@UEAAJJJPEAJ@Z 0000000180035b94     BeltImpl.obj
 0004:00000ba0       $pdata$?MoveBackward@COPOSBelt@@UEAAJJPEAJ@Z 0000000180035ba0     BeltImpl.obj
 0004:00000bac       $pdata$?MoveForward@COPOSBelt@@UEAAJJPEAJ@Z 0000000180035bac     BeltImpl.obj
 0004:00000bb8       $pdata$?ResetBelt@COPOSBelt@@UEAAJPEAJ@Z 0000000180035bb8     BeltImpl.obj
 0004:00000bc4       $pdata$?ResetItemCount@COPOSBelt@@UEAAJJPEAJ@Z 0000000180035bc4     BeltImpl.obj
 0004:00000bd0       $pdata$?StopBelt@COPOSBelt@@UEAAJPEAJ@Z 0000000180035bd0     BeltImpl.obj
 0004:00000bdc       $pdata$atexit              0000000180035bdc     LIBCMT:utility.obj
 0004:00000be8       $pdata$_onexit             0000000180035be8     LIBCMT:utility.obj
 0004:00000bf4       $pdata$__scrt_is_nonwritable_in_current_image 0000000180035bf4     LIBCMT:utility.obj
 0004:00000c00       $pdata$__scrt_is_nonwritable_in_current_image$filt$0 0000000180035c00     LIBCMT:utility.obj
 0004:00000c0c       $pdata$__scrt_acquire_startup_lock 0000000180035c0c     LIBCMT:utility.obj
 0004:00000c18       $pdata$__scrt_release_startup_lock 0000000180035c18     LIBCMT:utility.obj
 0004:00000c24       $pdata$__scrt_initialize_crt 0000000180035c24     LIBCMT:utility.obj
 0004:00000c30       $pdata$__scrt_uninitialize_crt 0000000180035c30     LIBCMT:utility.obj
 0004:00000c3c       $pdata$__scrt_initialize_onexit_tables 0000000180035c3c     LIBCMT:utility.obj
 0004:00000c48       $pdata$__scrt_dllmain_exception_filter 0000000180035c48     LIBCMT:utility.obj
 0004:00000c54       $pdata$__scrt_dllmain_before_initialize_c 0000000180035c54     LIBCMT:utility.obj
 0004:00000c60       $pdata$__scrt_dllmain_after_initialize_c 0000000180035c60     LIBCMT:utility.obj
 0004:00000c6c       $pdata$__scrt_dllmain_uninitialize_c 0000000180035c6c     LIBCMT:utility.obj
 0004:00000c78       $pdata$__scrt_dllmain_uninitialize_critical 0000000180035c78     LIBCMT:utility.obj
 0004:00000c84       $pdata$__scrt_dllmain_crt_thread_attach 0000000180035c84     LIBCMT:utility.obj
 0004:00000c90       $pdata$__scrt_dllmain_crt_thread_detach 0000000180035c90     LIBCMT:utility.obj
 0004:00000c9c       $pdata$_Init_thread_header 0000000180035c9c     LIBCMT:thread_safe_statics.obj
 0004:00000ca8       $pdata$_Init_thread_footer 0000000180035ca8     LIBCMT:thread_safe_statics.obj
 0004:00000cb4       $pdata$_Init_thread_wait   0000000180035cb4     LIBCMT:thread_safe_statics.obj
 0004:00000cc0       $pdata$_Init_thread_notify 0000000180035cc0     LIBCMT:thread_safe_statics.obj
 0004:00000ccc       $pdata$?__scrt_uninitialize_thread_safe_statics@@YAXXZ 0000000180035ccc     LIBCMT:thread_safe_statics.obj
 0004:00000cd8       $pdata$?__scrt_initialize_thread_safe_statics@@YAHXZ 0000000180035cd8     LIBCMT:thread_safe_statics.obj
 0004:00000ce4       $pdata$__report_securityfailure 0000000180035ce4     LIBCMT:gs_report.obj
 0004:00000cf0       $pdata$__report_rangecheckfailure 0000000180035cf0     LIBCMT:gs_report.obj
 0004:00000cfc       $pdata$__report_gsfailure  0000000180035cfc     LIBCMT:gs_report.obj
 0004:00000d08       $pdata$capture_current_context 0000000180035d08     LIBCMT:gs_report.obj
 0004:00000d14       $pdata$capture_previous_context 0000000180035d14     LIBCMT:gs_report.obj
 0004:00000d20       $pdata$__raise_securityfailure 0000000180035d20     LIBCMT:gs_report.obj
 0004:00000d2c       $pdata$??2@YAPEAX_KAEBUnothrow_t@std@@@Z 0000000180035d2c     LIBCMT:new_scalar_nothrow.obj
 0004:00000d38       $pdata$?catch$0@?0???2@YAPEAX_KAEBUnothrow_t@std@@@Z@4HA 0000000180035d38     LIBCMT:new_scalar_nothrow.obj
 0004:00000d44       $pdata$__GSHandlerCheckCommon 0000000180035d44     LIBCMT:gshandler.obj
 0004:00000d50       $pdata$__GSHandlerCheck    0000000180035d50     LIBCMT:gshandler.obj
 0004:00000d5c       $pdata$__GSHandlerCheck_SEH 0000000180035d5c     LIBCMT:gshandlerseh.obj
 0004:00000d80       $pdata$?dllmain_crt_process_attach@@YAHQEAUHINSTANCE__@@QEAX@Z 0000000180035d80     LIBCMT:dll_dllmain.obj
 0004:00000d8c       $pdata$?fin$0@?0??dllmain_crt_process_attach@@YAHQEAUHINSTANCE__@@QEAX@Z@4HA 0000000180035d8c     LIBCMT:dll_dllmain.obj
 0004:00000d98       $pdata$?dllmain_crt_process_detach@@YAH_N@Z 0000000180035d98     LIBCMT:dll_dllmain.obj
 0004:00000da4       $pdata$?fin$0@?0??dllmain_crt_process_detach@@YAH_N@Z@4HA 0000000180035da4     LIBCMT:dll_dllmain.obj
 0004:00000db0       $pdata$?fin$1@?0??dllmain_crt_process_detach@@YAH_N@Z@4HA 0000000180035db0     LIBCMT:dll_dllmain.obj
 0004:00000dbc       $pdata$?dllmain_crt_dispatch@@YAHQEAUHINSTANCE__@@KQEAX@Z 0000000180035dbc     LIBCMT:dll_dllmain.obj
 0004:00000dc8       $pdata$?dllmain_dispatch@@YAHQEAUHINSTANCE__@@KQEAX@Z 0000000180035dc8     LIBCMT:dll_dllmain.obj
 0004:00000dd4       $pdata$?filt$0@?0??dllmain_dispatch@@YAHQEAUHINSTANCE__@@KQEAX@Z@4HA 0000000180035dd4     LIBCMT:dll_dllmain.obj
 0004:00000de0       $pdata$_DllMainCRTStartup  0000000180035de0     LIBCMT:dll_dllmain.obj
 0004:00000dec       $pdata$??2@YAPEAX_K@Z      0000000180035dec     LIBCMT:new_scalar.obj
 0004:00000df8       $pdata$__isa_available_init 0000000180035df8     LIBCMT:cpu_disp.obj
 0004:00000e04       $pdata$__scrt_fastfail     0000000180035e04     LIBCMT:utility_desktop.obj
 0004:00000e10       $pdata$__security_init_cookie 0000000180035e10     LIBCMT:gs_support.obj
 0004:00000e1c       $pdata$__scrt_initialize_default_local_stdio_options 0000000180035e1c     LIBCMT:default_local_stdio_options.obj
 0004:00000e28       $pdata$_RTC_Initialize     0000000180035e28     LIBCMT:initsect.obj
 0004:00000e34       $pdata$_RTC_Terminate      0000000180035e34     LIBCMT:initsect.obj
 0004:00000e40       $pdata$??0exception@std@@QEAA@AEBV01@@Z 0000000180035e40     LIBCMT:throw_bad_alloc.obj
 0004:00000e4c       $pdata$??_Gbad_alloc@std@@UEAAPEAXI@Z 0000000180035e4c     LIBCMT:throw_bad_alloc.obj
 0004:00000e4c       $pdata$??_Gbad_array_new_length@std@@UEAAPEAXI@Z 0000000180035e4c     LIBCMT:throw_bad_alloc.obj
 0004:00000e4c       $pdata$??_Gexception@std@@UEAAPEAXI@Z 0000000180035e4c     LIBCMT:throw_bad_alloc.obj
 0004:00000e4c       $pdata$??_Gbad_exception@std@@UEAAPEAXI@Z 0000000180035e4c     libvcruntime:frame.obj
 0004:00000e58       $pdata$??0bad_alloc@std@@QEAA@AEBV01@@Z 0000000180035e58     LIBCMT:throw_bad_alloc.obj
 0004:00000e64       $pdata$??0bad_array_new_length@std@@QEAA@AEBV01@@Z 0000000180035e64     LIBCMT:throw_bad_alloc.obj
 0004:00000e70       $pdata$?__scrt_throw_std_bad_alloc@@YAXXZ 0000000180035e70     LIBCMT:throw_bad_alloc.obj
 0004:00000e7c       $pdata$?__scrt_throw_std_bad_array_new_length@@YAXXZ 0000000180035e7c     LIBCMT:throw_bad_alloc.obj
 0004:00000ea0       $pdata$??_Gtype_info@@UEAAPEAXI@Z 0000000180035ea0     LIBCMT:std_type_info_static.obj
 0004:00000eac       $pdata$??0CAtlBaseModule@ATL@@QEAA@XZ 0000000180035eac     atls:atlbase.obj
 0004:00000eb8       $pdata$??1CAtlBaseModule@ATL@@QEAA@XZ 0000000180035eb8     atls:atlbase.obj
 0004:00000ec4       $pdata$??__E_AtlBaseModule@ATL@@YAXXZ 0000000180035ec4     atls:atlbase.obj
 0004:00000ed0       $pdata$AtlThunk_AllocateData 0000000180035ed0     atls:atlthunk.obj
 0004:00000edc       $pdata$AtlThunk_InitData   0000000180035edc     atls:atlthunk.obj
 0004:00000ee8       $pdata$AtlThunk_DataToCode 0000000180035ee8     atls:atlthunk.obj
 0004:00000ef4       $pdata$AtlThunk_FreeData   0000000180035ef4     atls:atlthunk.obj
 0004:00000f00       $pdata$?__InitializeThunkPool@@YAHXZ 0000000180035f00     atls:atlthunk.obj
 0004:00000f0c       $pdata$?__AllocStdCallThunk_cmn@@YAPEAXXZ 0000000180035f0c     atls:atlthunk.obj
 0004:00000f18       $pdata$??$GetProcAddressAll@P6AP6A_JPEAUHWND__@@I_K_J@ZPEAUAtlThunkData_t@@@Z@@YAP6AP6A_JPEAUHWND__@@I_K_J@ZPEAUAtlThunkData_t@@@ZPEAP6AP6A_J0I12@Z3@Z@Z 0000000180035f18     atls:atlthunk.obj
 0004:00000f18       $pdata$??$GetProcAddressAll@P6APEAUAtlThunkData_t@@XZ@@YAP6APEAUAtlThunkData_t@@XZPEAP6APEAU0@XZ@Z 0000000180035f18     atls:atlthunk.obj
 0004:00000f18       $pdata$??$GetProcAddressAll@P6AXPEAUAtlThunkData_t@@@Z@@YAP6AXPEAUAtlThunkData_t@@@ZPEAP6AX0@Z@Z 0000000180035f18     atls:atlthunk.obj
 0004:00000f18       $pdata$??$GetProcAddressAll@P6AXPEAUAtlThunkData_t@@PEAX_K@Z@@YAP6AXPEAUAtlThunkData_t@@PEAX_K@ZPEAP6AX012@Z@Z 0000000180035f18     atls:atlthunk.obj
 0004:00000f24       $pdata$_purecall           0000000180035f24     libvcruntime:purevirt.obj
 0004:00000f30       $pdata$wcsstr              0000000180035f30     libvcruntime:wcsstr.obj
 0004:00000f78       $pdata$__vcrt_initialize   0000000180035f78     libvcruntime:initialization.obj
 0004:00000f84       $pdata$__vcrt_uninitialize 0000000180035f84     libvcruntime:initialization.obj
 0004:00000f90       $pdata$__vcrt_uninitialize_critical 0000000180035f90     libvcruntime:initialization.obj
 0004:00000f9c       $pdata$__vcrt_thread_attach 0000000180035f9c     libvcruntime:initialization.obj
 0004:00000fa8       $pdata$__vcrt_thread_detach 0000000180035fa8     libvcruntime:initialization.obj
 0004:00000fb4       $pdata$__C_specific_handler 0000000180035fb4     libvcruntime:riscchandler.obj
 0004:00000fc0       $pdata$?DecompFuncInfo@FH4@@YA_JPEAEAEAUFuncInfo4@1@_KH_N@Z 0000000180035fc0     libvcruntime:risctrnsctrl.obj
 0004:00000fcc       $pdata$?FrameUnwindToEmptyState@__FrameHandler4@@SAXPEA_KPEAU_xDISPATCHER_CONTEXT@@PEAUFuncInfo4@FH4@@@Z 0000000180035fcc     libvcruntime:risctrnsctrl.obj
 0004:00000fd8       $pdata$?UnwindNestedFrames@__FrameHandler4@@SAXPEA_KPEAUEHExceptionRecord@@PEAU_CONTEXT@@0PEAXPEAUFuncInfo4@FH4@@HHPEAUHandlerType4@5@PEAU_xDISPATCHER_CONTEXT@@E@Z 0000000180035fd8     libvcruntime:risctrnsctrl.obj
 0004:00000fe4       $pdata$?GetRangeOfTrysToCheck@__FrameHandler4@@SA?AU?$pair@Viterator@TryBlockMap4@FH4@@V123@@std@@AEAVTryBlockMap4@FH4@@HPEAU_xDISPATCHER_CONTEXT@@PEAUFuncInfo4@5@H@Z 0000000180035fe4     libvcruntime:risctrnsctrl.obj
 0004:00000ff0       $pdata$_GetImageBase       0000000180035ff0     libvcruntime:risctrnsctrl.obj
 0004:00000ffc       $pdata$_SetImageBase       0000000180035ffc     libvcruntime:risctrnsctrl.obj
 0004:00001008       $pdata$_GetThrowImageBase  0000000180036008     libvcruntime:risctrnsctrl.obj
 0004:00001014       $pdata$_SetThrowImageBase  0000000180036014     libvcruntime:risctrnsctrl.obj
 0004:00001020       $pdata$_CreateFrameInfo    0000000180036020     libvcruntime:risctrnsctrl.obj
 0004:0000102c       $pdata$_FindAndUnlinkFrame 000000018003602c     libvcruntime:risctrnsctrl.obj
 0004:00001038       $pdata$__CxxFrameHandler4  0000000180036038     libvcruntime:risctrnsctrl.obj
 0004:00001044       $pdata$??$_CallSETranslator@V__FrameHandler4@@@@YAHPEAUEHExceptionRecord@@PEA_KPEAU_CONTEXT@@PEAU_xDISPATCHER_CONTEXT@@PEAUFuncInfo4@FH4@@K1H@Z 0000000180036044     libvcruntime:risctrnsctrl.obj
 0004:00001050       $pdata$?filt$0@?0???$_CallSETranslator@V__FrameHandler4@@@@YAHPEAUEHExceptionRecord@@PEA_KPEAU_CONTEXT@@PEAU_xDISPATCHER_CONTEXT@@PEAUFuncInfo4@FH4@@K1H@Z@4HA 0000000180036050     libvcruntime:risctrnsctrl.obj
 0004:0000105c       $pdata$_IsExceptionObjectToBeDestroyed 000000018003605c     libvcruntime:ehhelpers.obj
 0004:00001068       $pdata$__FrameUnwindFilter 0000000180036068     libvcruntime:ehhelpers.obj
 0004:00001074       $pdata$__DestructExceptionObject 0000000180036074     libvcruntime:ehhelpers.obj
 0004:00001080       $pdata$__DestructExceptionObject$filt$0 0000000180036080     libvcruntime:ehhelpers.obj
 0004:0000108c       $pdata$__std_type_info_destroy_list 000000018003608c     libvcruntime:std_type_info.obj
 0004:00001098       $pdata$__std_exception_copy 0000000180036098     libvcruntime:std_exception.obj
 0004:000010a4       $pdata$__std_exception_destroy 00000001800360a4     libvcruntime:std_exception.obj
 0004:000010b0       $pdata$_CxxThrowException  00000001800360b0     libvcruntime:throw.obj
 0004:000010bc       $pdata$__vcrt_initialize_ptd 00000001800360bc     libvcruntime:per_thread_data.obj
 0004:000010c8       $pdata$__vcrt_uninitialize_ptd 00000001800360c8     libvcruntime:per_thread_data.obj
 0004:000010d4       $pdata$__vcrt_getptd       00000001800360d4     libvcruntime:per_thread_data.obj
 0004:000010e0       $pdata$__vcrt_getptd_noexit 00000001800360e0     libvcruntime:per_thread_data.obj
 0004:000010ec       $pdata$__vcrt_freeptd      00000001800360ec     libvcruntime:per_thread_data.obj
 0004:000010f8       $pdata$__vcrt_freefls      00000001800360f8     libvcruntime:per_thread_data.obj
 0004:00001104       $pdata$__vcrt_initialize_locks 0000000180036104     libvcruntime:locks.obj
 0004:00001110       $pdata$__vcrt_uninitialize_locks 0000000180036110     libvcruntime:locks.obj
 0004:00001140       $pdata$?StateFromIp@__FrameHandler4@@SAHPEAUFuncInfo4@FH4@@PEAU_xDISPATCHER_CONTEXT@@_K@Z 0000000180036140     libvcruntime:ehstate.obj
 0004:0000114c       $pdata$?getStartStop@UWMap4@FH4@@QEAAXHHAEAViterator@12@0@Z 000000018003614c     libvcruntime:frame.obj
 0004:00001158       $pdata$?getStateFromIterators@UWMap4@FH4@@SAHAEBViterator@12@H0H0@Z 0000000180036158     libvcruntime:frame.obj
 0004:00001164       $pdata$??0HandlerMap4@FH4@@QEAA@PEBUTryBlockMapEntry4@1@_KH@Z 0000000180036164     libvcruntime:frame.obj
 0004:00001170       $pdata$?FrameUnwindToState@__FrameHandler4@@SAXPEA_KPEAU_xDISPATCHER_CONTEXT@@PEAUFuncInfo4@FH4@@H@Z 0000000180036170     libvcruntime:frame.obj
 0004:0000117c       $pdata$?filt$0@?0??FrameUnwindToState@__FrameHandler4@@SAXPEA_KPEAU_xDISPATCHER_CONTEXT@@PEAUFuncInfo4@FH4@@H@Z@4HA 000000018003617c     libvcruntime:frame.obj
 0004:00001188       $pdata$?fin$1@?0??FrameUnwindToState@__FrameHandler4@@SAXPEA_KPEAU_xDISPATCHER_CONTEXT@@PEAUFuncInfo4@FH4@@H@Z@4HA 0000000180036188     libvcruntime:frame.obj
 0004:00001194       $pdata$?CxxCallCatchBlock@__FrameHandler4@@SAPEAXPEAU_EXCEPTION_RECORD@@@Z 0000000180036194     libvcruntime:frame.obj
 0004:000011a0       $pdata$?filt$0@?0??CxxCallCatchBlock@__FrameHandler4@@SAPEAXPEAU_EXCEPTION_RECORD@@@Z@4HA 00000001800361a0     libvcruntime:frame.obj
 0004:000011ac       $pdata$?fin$1@?0??CxxCallCatchBlock@__FrameHandler4@@SAPEAXPEAU_EXCEPTION_RECORD@@@Z@4HA 00000001800361ac     libvcruntime:frame.obj
 0004:000011b8       $pdata$??0bad_exception@std@@QEAA@AEBV01@@Z 00000001800361b8     libvcruntime:frame.obj
 0004:000011c4       $pdata$?ExFilterRethrow@@YAHPEAU_EXCEPTION_POINTERS@@PEAUEHExceptionRecord@@PEAH@Z 00000001800361c4     libvcruntime:frame.obj
 0004:000011d0       $pdata$?ExFilterRethrowFH4@@YAHPEAU_EXCEPTION_POINTERS@@PEAUEHExceptionRecord@@HPEAH@Z 00000001800361d0     libvcruntime:frame.obj
 0004:000011dc       $pdata$?IsInExceptionSpec@@YAEPEAUEHExceptionRecord@@PEBU_s_ESTypeList@@@Z 00000001800361dc     libvcruntime:frame.obj
 0004:000011e8       $pdata$?Is_bad_exception_allowed@@YAEPEBU_s_ESTypeList@@@Z 00000001800361e8     libvcruntime:frame.obj
 0004:000011f4       $pdata$??$__InternalCxxFrameHandler@V__FrameHandler4@@@@YA?AW4_EXCEPTION_DISPOSITION@@PEAUEHExceptionRecord@@PEA_KPEAU_CONTEXT@@PEAU_xDISPATCHER_CONTEXT@@PEAUFuncInfo4@FH4@@H1E@Z 00000001800361f4     libvcruntime:frame.obj
 0004:00001200       $pdata$??$TypeMatchHelper@V__FrameHandler3@@@@YAHPEBU_s_HandlerType@@PEBU_s_CatchableType@@PEBU_s_ThrowInfo@@@Z 0000000180036200     libvcruntime:frame.obj
 0004:0000120c       $pdata$??$TypeMatchHelper@V__FrameHandler4@@@@YAHPEAUHandlerType4@FH4@@PEBU_s_CatchableType@@PEBU_s_ThrowInfo@@@Z 000000018003620c     libvcruntime:frame.obj
 0004:00001218       $pdata$??$BuildCatchObjectHelperInternal@V__FrameHandler4@@@@YAHPEAUEHExceptionRecord@@PEAXPEAUHandlerType4@FH4@@PEBU_s_CatchableType@@@Z 0000000180036218     libvcruntime:frame.obj
 0004:00001224       $pdata$??$BuildCatchObjectInternal@V__FrameHandler4@@@@YAXPEAUEHExceptionRecord@@PEAXPEAUHandlerType4@FH4@@PEBU_s_CatchableType@@@Z 0000000180036224     libvcruntime:frame.obj
 0004:00001230       $pdata$??$FindHandler@V__FrameHandler4@@@@YAXPEAUEHExceptionRecord@@PEA_KPEAU_CONTEXT@@PEAU_xDISPATCHER_CONTEXT@@PEAUFuncInfo4@FH4@@EH1@Z 0000000180036230     libvcruntime:frame.obj
 0004:0000123c       $pdata$??$CatchIt@V__FrameHandler4@@@@YAXPEAUEHExceptionRecord@@PEA_KPEAU_CONTEXT@@PEAU_xDISPATCHER_CONTEXT@@PEAUFuncInfo4@FH4@@PEAUHandlerType4@4@PEBU_s_CatchableType@@PEAUTryBlockMapEntry4@4@H1EE@Z 000000018003623c     libvcruntime:frame.obj
 0004:00001248       $pdata$??$FindHandlerForForeignException@V__FrameHandler4@@@@YAXPEAUEHExceptionRecord@@PEA_KPEAU_CONTEXT@@PEAU_xDISPATCHER_CONTEXT@@PEAUFuncInfo4@FH4@@HH1@Z 0000000180036248     libvcruntime:frame.obj
 0004:00001254       $pdata$__vcrt_FlsAlloc     0000000180036254     libvcruntime:winapi_downlevel.obj
 0004:00001260       $pdata$__vcrt_FlsFree      0000000180036260     libvcruntime:winapi_downlevel.obj
 0004:0000126c       $pdata$__vcrt_FlsGetValue  000000018003626c     libvcruntime:winapi_downlevel.obj
 0004:00001278       $pdata$__vcrt_FlsSetValue  0000000180036278     libvcruntime:winapi_downlevel.obj
 0004:00001284       $pdata$__vcrt_InitializeCriticalSectionEx 0000000180036284     libvcruntime:winapi_downlevel.obj
 0004:00001290       $pdata$?try_get_function@@YAPEAXW4function_id@?A0x5302d918@@QEBDQEBW4module_id@2@2@Z 0000000180036290     libvcruntime:winapi_downlevel.obj
 0004:000012cc       $pdata$_invalid_parameter_noinfo 00000001800362cc     libucrt:invalid_parameter.obj
 0004:000012d8       $pdata$_invoke_watson      00000001800362d8     libucrt:invalid_parameter.obj
 0004:000012e4       $pdata$__acrt_call_reportfault 00000001800362e4     libucrt:invalid_parameter.obj
 0004:000012f0       $pdata$_invalid_parameter  00000001800362f0     libucrt:invalid_parameter.obj
 0004:000012fc       $pdata$_errno              00000001800362fc     libucrt:errno.obj
 0004:00001308       $pdata$__doserrno          0000000180036308     libucrt:errno.obj
 0004:00001314       $pdata$__acrt_errno_map_os_error 0000000180036314     libucrt:errno.obj
 0004:00001320       $pdata$_recalloc_base      0000000180036320     libucrt:recalloc.obj
 0004:0000132c       $pdata$_resetstkoflw       000000018003632c     libucrt:resetstk.obj
 0004:00001338       $pdata$wcscat_s            0000000180036338     libucrt:wcscat_s.obj
 0004:00001344       $pdata$wcscpy_s            0000000180036344     libucrt:wcscpy_s.obj
 0004:00001350       $pdata$wcsncpy_s           0000000180036350     libucrt:wcsncpy_s.obj
 0004:0000135c       $pdata$??0_LocaleUpdate@@QEAA@QEAU__crt_locale_pointers@@@Z 000000018003635c     libucrt:output.obj
 0004:00001368       $pdata$__stdio_common_vswprintf_s 0000000180036368     libucrt:output.obj
 0004:00001374       $pdata$?write_string@?$string_output_adapter@_W@__crt_stdio_output@@QEBAXQEB_WHQEAHAEAV__crt_deferred_errno_cache@@@Z 0000000180036374     libucrt:output.obj
 0004:00001380       $pdata$??$common_vsprintf@Vformat_validation_base@__crt_stdio_output@@_W@@YAH_KQEA_W0QEB_WQEAU__crt_locale_pointers@@QEAD@Z 0000000180036380     libucrt:output.obj
 0004:0000138c       $pdata$??$write_multiple_characters@V?$string_output_adapter@_W@__crt_stdio_output@@D@__crt_stdio_output@@YAXAEBV?$string_output_adapter@_W@0@DHQEAH@Z 000000018003638c     libucrt:output.obj
 0004:00001398       $pdata$??$ensure_buffer_is_big_enough@D@formatting_buffer@__crt_stdio_output@@QEAA_N_K@Z 0000000180036398     libucrt:output.obj
 0004:000013a4       $pdata$??$ensure_buffer_is_big_enough@_W@formatting_buffer@__crt_stdio_output@@QEAA_N_K@Z 00000001800363a4     libucrt:output.obj
 0004:000013b0       $pdata$?process@?$output_processor@_WV?$string_output_adapter@_W@__crt_stdio_output@@V?$format_validation_base@_WV?$string_output_adapter@_W@__crt_stdio_output@@@2@@__crt_stdio_output@@QEAAHXZ 00000001800363b0     libucrt:output.obj
 0004:000013bc       $pdata$?parse_int_from_format_string@?$output_processor@_WV?$string_output_adapter@_W@__crt_stdio_output@@V?$format_validation_base@_WV?$string_output_adapter@_W@__crt_stdio_output@@@2@@__crt_stdio_output@@AEAA_NQEAH@Z 00000001800363bc     libucrt:output.obj
 0004:000013c8       $pdata$?state_case_size@?$output_processor@_WV?$string_output_adapter@_W@__crt_stdio_output@@V?$format_validation_base@_WV?$string_output_adapter@_W@__crt_stdio_output@@@2@@__crt_stdio_output@@AEAA_NXZ 00000001800363c8     libucrt:output.obj
 0004:000013d4       $pdata$?state_case_type@?$output_processor@_WV?$string_output_adapter@_W@__crt_stdio_output@@V?$format_validation_base@_WV?$string_output_adapter@_W@__crt_stdio_output@@@2@@__crt_stdio_output@@AEAA_NXZ 00000001800363d4     libucrt:output.obj
 0004:000013e0       $pdata$?type_case_c_tchar@?$output_processor@_WV?$string_output_adapter@_W@__crt_stdio_output@@V?$format_validation_base@_WV?$string_output_adapter@_W@__crt_stdio_output@@@2@@__crt_stdio_output@@AEAA_N_W@Z 00000001800363e0     libucrt:output.obj
 0004:000013ec       $pdata$?type_case_Z@?$output_processor@_WV?$string_output_adapter@_W@__crt_stdio_output@@V?$format_validation_base@_WV?$string_output_adapter@_W@__crt_stdio_output@@@2@@__crt_stdio_output@@AEAA_NXZ 00000001800363ec     libucrt:output.obj
 0004:000013f8       $pdata$?type_case_s@?$output_processor@_WV?$string_output_adapter@_W@__crt_stdio_output@@V?$format_validation_base@_WV?$string_output_adapter@_W@__crt_stdio_output@@@2@@__crt_stdio_output@@AEAA_NXZ 00000001800363f8     libucrt:output.obj
 0004:00001404       $pdata$?type_case_a@?$output_processor@_WV?$string_output_adapter@_W@__crt_stdio_output@@V?$format_validation_base@_WV?$string_output_adapter@_W@__crt_stdio_output@@@2@@__crt_stdio_output@@AEAA_NXZ 0000000180036404     libucrt:output.obj
 0004:00001410       $pdata$?type_case_integer@?$output_processor@_WV?$string_output_adapter@_W@__crt_stdio_output@@V?$format_validation_base@_WV?$string_output_adapter@_W@__crt_stdio_output@@@2@@__crt_stdio_output@@AEAA_NI_N@Z 0000000180036410     libucrt:output.obj
 0004:0000141c       $pdata$?type_case_n@?$output_processor@_WV?$string_output_adapter@_W@__crt_stdio_output@@V?$format_validation_base@_WV?$string_output_adapter@_W@__crt_stdio_output@@@2@@__crt_stdio_output@@AEAA_NXZ 000000018003641c     libucrt:output.obj
 0004:00001428       $pdata$?write_stored_string_tchar@?$output_processor@_WV?$string_output_adapter@_W@__crt_stdio_output@@V?$format_validation_base@_WV?$string_output_adapter@_W@__crt_stdio_output@@@2@@__crt_stdio_output@@AEAA_N_W@Z 0000000180036428     libucrt:output.obj
 0004:00001434       $pdata$??$type_case_integer_parse_into_buffer@_K@?$output_processor@_WV?$string_output_adapter@_W@__crt_stdio_output@@V?$format_validation_base@_WV?$string_output_adapter@_W@__crt_stdio_output@@@2@@__crt_stdio_output@@AEAAX_KI_N@Z 0000000180036434     libucrt:output.obj
 0004:00001440       $pdata$??$type_case_integer_parse_into_buffer@I@?$output_processor@_WV?$string_output_adapter@_W@__crt_stdio_output@@V?$format_validation_base@_WV?$string_output_adapter@_W@__crt_stdio_output@@@2@@__crt_stdio_output@@AEAAXII_N@Z 0000000180036440     libucrt:output.obj
 0004:0000144c       $pdata$_seh_filter_exe     000000018003644c     libucrt:exception_filter.obj
 0004:00001458       $pdata$?try_cor_exit_process@@YAXI@Z 0000000180036458     libucrt:exit.obj
 0004:00001464       $pdata$?exit_or_terminate_process@@YAXI@Z 0000000180036464     libucrt:exit.obj
 0004:00001470       $pdata$?common_exit@@YAXHW4_crt_exit_cleanup_mode@@W4_crt_exit_return_mode@@@Z 0000000180036470     libucrt:exit.obj
 0004:0000147c       $pdata$??R<lambda_6e4b09c48022b2350581041d5f6b0c4c>@@QEBA@XZ 000000018003647c     libucrt:exit.obj
 0004:00001488       $pdata$?filt$0@?0???R<lambda_6e4b09c48022b2350581041d5f6b0c4c>@@QEBA@XZ@4HA 0000000180036488     libucrt:exit.obj
 0004:00001494       $pdata$??$?RV<lambda_d80eeec6fff315bfe5c115232f3240e3>@@AEAV<lambda_6e4b09c48022b2350581041d5f6b0c4c>@@V<lambda_2358e3775559c9db80273638284d5e45>@@@?$__crt_seh_guarded_call@X@@QEAAX$$QEAV<lambda_d80eeec6fff315bfe5c115232f3240e3>@@AEAV<lambda_6e4b09c48022b2350581041d5f6b0c4c>@@$$QEAV<lambda_2358e3775559c9db80273638284d5e45>@@@Z 0000000180036494     libucrt:exit.obj
 0004:000014a0       $pdata$?fin$0@?0???$?RV<lambda_0ae27a3a962d80f24befdcbee591983d>@@AEAV<lambda_8d0ee55de4b1038c4002e0adecdf1839>@@V<lambda_dc504788e8f1664fe9b84e20bfb512f2>@@@?$__crt_seh_guarded_call@X@@QEAAX$$QEAV<lambda_0ae27a3a962d80f24befdcbee591983d>@@AEAV<lambda_8d0ee55de4b1038c4002e0adecdf1839>@@$$QEAV<lambda_dc504788e8f1664fe9b84e20bfb512f2>@@@Z@4HA 00000001800364a0     libucrt:per_thread_data.obj
 0004:000014a0       $pdata$?fin$0@?0???$?RV<lambda_2d41944a1d46af3157314b8a01080d33>@@AEAV<lambda_8f455de75cd7d7f24b4096f044d8b9e6>@@V<lambda_aa500f224e6afead328df44964fe2772>@@@?$__crt_seh_guarded_call@X@@QEAAX$$QEAV<lambda_2d41944a1d46af3157314b8a01080d33>@@AEAV<lambda_8f455de75cd7d7f24b4096f044d8b9e6>@@$$QEAV<lambda_aa500f224e6afead328df44964fe2772>@@@Z@4HA 00000001800364a0     libucrt:per_thread_data.obj
 0004:000014a0       $pdata$?fin$0@?0???$?RV<lambda_aa87e3671a710a21b5dc78c0bdf72e11>@@AEAV<lambda_92619d2358a28f41a33ba319515a20b9>@@V<lambda_6992ecaafeb10aed2b74cb1fae11a551>@@@?$__crt_seh_guarded_call@X@@QEAAX$$QEAV<lambda_aa87e3671a710a21b5dc78c0bdf72e11>@@AEAV<lambda_92619d2358a28f41a33ba319515a20b9>@@$$QEAV<lambda_6992ecaafeb10aed2b74cb1fae11a551>@@@Z@4HA 00000001800364a0     libucrt:per_thread_data.obj
 0004:000014a0       $pdata$?fin$0@?0???$?RV<lambda_f2e299630e499de9f9a165e60fcd3db5>@@AEAV<lambda_2ae9d31cdba2644fcbeaf08da7c24588>@@V<lambda_40d01ff24d0e7b3814fdbdcee8eab3c7>@@@?$__crt_seh_guarded_call@X@@QEAAX$$QEAV<lambda_f2e299630e499de9f9a165e60fcd3db5>@@AEAV<lambda_2ae9d31cdba2644fcbeaf08da7c24588>@@$$QEAV<lambda_40d01ff24d0e7b3814fdbdcee8eab3c7>@@@Z@4HA 00000001800364a0     libucrt:per_thread_data.obj
 0004:000014a0       $pdata$?fin$0@?0???$?RV<lambda_efdfa57d1f175319df784efa44bb7b81>@@AEAV<lambda_5f0a4c1567f8adc6734073e5d1e1b35c>@@V<lambda_2e8a7d3640ea6ccb4c2413664c2db6fd>@@@?$__crt_seh_guarded_call@X@@QEAAX$$QEAV<lambda_efdfa57d1f175319df784efa44bb7b81>@@AEAV<lambda_5f0a4c1567f8adc6734073e5d1e1b35c>@@$$QEAV<lambda_2e8a7d3640ea6ccb4c2413664c2db6fd>@@@Z@4HA 00000001800364a0     libucrt:mbctype.obj
 0004:000014a0       $pdata$?fin$0@?0???$?RV<lambda_450d765d439847d4c735a33c368b5fc0>@@AEAV<lambda_44731a7d0e6d81c3e6aa82d741081786>@@V<lambda_601a2a7da3b7a96e9554ac7215c4b07c>@@@?$__crt_seh_guarded_call@P6AXH@Z@@QEAAP6AXH@Z$$QEAV<lambda_450d765d439847d4c735a33c368b5fc0>@@AEAV<lambda_44731a7d0e6d81c3e6aa82d741081786>@@$$QEAV<lambda_601a2a7da3b7a96e9554ac7215c4b07c>@@@Z@4HA 00000001800364a0     libucrt:signal.obj
 0004:000014a0       $pdata$?fin$0@?0???$?RV<lambda_d80eeec6fff315bfe5c115232f3240e3>@@AEAV<lambda_6e4b09c48022b2350581041d5f6b0c4c>@@V<lambda_2358e3775559c9db80273638284d5e45>@@@?$__crt_seh_guarded_call@X@@QEAAX$$QEAV<lambda_d80eeec6fff315bfe5c115232f3240e3>@@AEAV<lambda_6e4b09c48022b2350581041d5f6b0c4c>@@$$QEAV<lambda_2358e3775559c9db80273638284d5e45>@@@Z@4HA 00000001800364a0     libucrt:exit.obj
 0004:000014a0       $pdata$?fin$0@?0???$?RV<lambda_638799b9deba96c50f710eeac98168cd>@@AEAV<lambda_22ebabd17bc4fa466a2aca6d8deb888d>@@V<lambda_a6f7d7db0129f75315ebf26d50c089f1>@@@?$__crt_seh_guarded_call@H@@QEAAH$$QEAV<lambda_638799b9deba96c50f710eeac98168cd>@@AEAV<lambda_22ebabd17bc4fa466a2aca6d8deb888d>@@$$QEAV<lambda_a6f7d7db0129f75315ebf26d50c089f1>@@@Z@4HA 00000001800364a0     libucrt:onexit.obj
 0004:000014a0       $pdata$?fin$0@?0???$?RV<lambda_7777bce6b2f8c936911f934f8298dc43>@@AEAV<lambda_f03950bc5685219e0bcd2087efbe011e>@@V<lambda_3883c3dff614d5e0c5f61bb1ac94921c>@@@?$__crt_seh_guarded_call@H@@QEAAH$$QEAV<lambda_7777bce6b2f8c936911f934f8298dc43>@@AEAV<lambda_f03950bc5685219e0bcd2087efbe011e>@@$$QEAV<lambda_3883c3dff614d5e0c5f61bb1ac94921c>@@@Z@4HA 00000001800364a0     libucrt:onexit.obj
 0004:000014ac       $pdata$_configure_narrow_argv 00000001800364ac     libucrt:argv_parsing.obj
 0004:000014b8       $pdata$__acrt_allocate_buffer_for_argv 00000001800364b8     libucrt:argv_parsing.obj
 0004:000014c4       $pdata$??$parse_command_line@D@@YAXPEADPEAPEAD0PEA_K2@Z 00000001800364c4     libucrt:argv_parsing.obj
 0004:000014d0       $pdata$__dcrt_uninitialize_environments_nolock 00000001800364d0     libucrt:environment_initialization.obj
 0004:000014dc       $pdata$??$common_initialize_environment_nolock@D@@YAHXZ 00000001800364dc     libucrt:environment_initialization.obj
 0004:000014e8       $pdata$??$uninitialize_environment_internal@D@@YAXAEAPEAPEAD@Z 00000001800364e8     libucrt:environment_initialization.obj
 0004:000014f4       $pdata$??$uninitialize_environment_internal@_W@@YAXAEAPEAPEA_W@Z 00000001800364f4     libucrt:environment_initialization.obj
 0004:00001500       $pdata$??$free_environment@D@@YAXQEAPEAD@Z 0000000180036500     libucrt:environment_initialization.obj
 0004:00001500       $pdata$??$free_environment@_W@@YAXQEAPEA_W@Z 0000000180036500     libucrt:environment_initialization.obj
 0004:0000150c       $pdata$??$create_environment@D@@YAQEAPEADQEAD@Z 000000018003650c     libucrt:environment_initialization.obj
 0004:00001518       $pdata$_register_onexit_function 0000000180036518     libucrt:onexit.obj
 0004:00001524       $pdata$_execute_onexit_table 0000000180036524     libucrt:onexit.obj
 0004:00001530       $pdata$??R<lambda_22ebabd17bc4fa466a2aca6d8deb888d>@@QEBAHXZ 0000000180036530     libucrt:onexit.obj
 0004:0000153c       $pdata$??R<lambda_f03950bc5685219e0bcd2087efbe011e>@@QEBAHXZ 000000018003653c     libucrt:onexit.obj
 0004:00001548       $pdata$??$?RV<lambda_638799b9deba96c50f710eeac98168cd>@@AEAV<lambda_22ebabd17bc4fa466a2aca6d8deb888d>@@V<lambda_a6f7d7db0129f75315ebf26d50c089f1>@@@?$__crt_seh_guarded_call@H@@QEAAH$$QEAV<lambda_638799b9deba96c50f710eeac98168cd>@@AEAV<lambda_22ebabd17bc4fa466a2aca6d8deb888d>@@$$QEAV<lambda_a6f7d7db0129f75315ebf26d50c089f1>@@@Z 0000000180036548     libucrt:onexit.obj
 0004:00001554       $pdata$??$?RV<lambda_7777bce6b2f8c936911f934f8298dc43>@@AEAV<lambda_f03950bc5685219e0bcd2087efbe011e>@@V<lambda_3883c3dff614d5e0c5f61bb1ac94921c>@@@?$__crt_seh_guarded_call@H@@QEAAH$$QEAV<lambda_7777bce6b2f8c936911f934f8298dc43>@@AEAV<lambda_f03950bc5685219e0bcd2087efbe011e>@@$$QEAV<lambda_3883c3dff614d5e0c5f61bb1ac94921c>@@@Z 0000000180036554     libucrt:onexit.obj
 0004:00001560       $pdata$__acrt_uninitialize 0000000180036560     libucrt:initialization.obj
 0004:0000156c       $pdata$__acrt_uninitialize_critical 000000018003656c     libucrt:initialization.obj
 0004:00001578       $pdata$__acrt_thread_attach 0000000180036578     libucrt:initialization.obj
 0004:00001584       $pdata$__acrt_thread_detach 0000000180036584     libucrt:initialization.obj
 0004:00001590       $pdata$initialize_c        0000000180036590     libucrt:initialization.obj
 0004:0000159c       $pdata$uninitialize_environment 000000018003659c     libucrt:initialization.obj
 0004:000015a8       $pdata$initialize_pointers 00000001800365a8     libucrt:initialization.obj
 0004:000015b4       $pdata$uninitialize_allocated_memory 00000001800365b4     libucrt:initialization.obj
 0004:000015c0       $pdata$uninitialize_allocated_io_buffers 00000001800365c0     libucrt:initialization.obj
 0004:000015cc       $pdata$_initterm           00000001800365cc     libucrt:initterm.obj
 0004:000015d8       $pdata$_initterm_e         00000001800365d8     libucrt:initterm.obj
 0004:000015e4       $pdata$_callnewh           00000001800365e4     libucrt:new_handler.obj
 0004:000015f0       $pdata$_query_new_handler  00000001800365f0     libucrt:new_handler.obj
 0004:000015fc       $pdata$_query_new_handler$fin$0 00000001800365fc     libucrt:new_handler.obj
 0004:00001608       $pdata$terminate           0000000180036608     libucrt:terminate.obj
 0004:00001614       $pdata$abort               0000000180036614     libucrt:abort.obj
 0004:00001620       $pdata$strcpy_s            0000000180036620     libucrt:strcpy_s.obj
 0004:0000162c       $pdata$??$parse_integer@KV?$c_string_character_source@_W@__crt_strtox@@@__crt_strtox@@YAKQEAU__crt_locale_pointers@@V?$c_string_character_source@_W@0@H_N@Z 000000018003662c     libucrt:atox.obj
 0004:00001644       $pdata$_free_base          0000000180036644     libucrt:free_base.obj
 0004:00001650       $pdata$__acrt_initialize_ptd 0000000180036650     libucrt:per_thread_data.obj
 0004:0000165c       $pdata$__acrt_uninitialize_ptd 000000018003665c     libucrt:per_thread_data.obj
 0004:00001668       $pdata$__acrt_getptd       0000000180036668     libucrt:per_thread_data.obj
 0004:00001674       $pdata$__acrt_getptd_head  0000000180036674     libucrt:per_thread_data.obj
 0004:00001680       $pdata$__acrt_getptd_noexit 0000000180036680     libucrt:per_thread_data.obj
 0004:0000168c       $pdata$__acrt_freeptd      000000018003668c     libucrt:per_thread_data.obj
 0004:00001698       $pdata$?destroy_fls@@YAXPEAX@Z 0000000180036698     libucrt:per_thread_data.obj
 0004:000016a4       $pdata$?replace_current_thread_locale_nolock@@YAXQEAU__acrt_ptd@@QEAU__crt_locale_data@@@Z 00000001800366a4     libucrt:per_thread_data.obj
 0004:000016b0       $pdata$?construct_ptd_array@@YAXQEAU__acrt_ptd@@@Z 00000001800366b0     libucrt:per_thread_data.obj
 0004:000016bc       $pdata$?destroy_ptd_array@@YAXQEAU__acrt_ptd@@@Z 00000001800366bc     libucrt:per_thread_data.obj
 0004:000016c8       $pdata$??$?RV<lambda_0ae27a3a962d80f24befdcbee591983d>@@AEAV<lambda_8d0ee55de4b1038c4002e0adecdf1839>@@V<lambda_dc504788e8f1664fe9b84e20bfb512f2>@@@?$__crt_seh_guarded_call@X@@QEAAX$$QEAV<lambda_0ae27a3a962d80f24befdcbee591983d>@@AEAV<lambda_8d0ee55de4b1038c4002e0adecdf1839>@@$$QEAV<lambda_dc504788e8f1664fe9b84e20bfb512f2>@@@Z 00000001800366c8     libucrt:per_thread_data.obj
 0004:000016d4       $pdata$??$?RV<lambda_aa87e3671a710a21b5dc78c0bdf72e11>@@AEAV<lambda_92619d2358a28f41a33ba319515a20b9>@@V<lambda_6992ecaafeb10aed2b74cb1fae11a551>@@@?$__crt_seh_guarded_call@X@@QEAAX$$QEAV<lambda_aa87e3671a710a21b5dc78c0bdf72e11>@@AEAV<lambda_92619d2358a28f41a33ba319515a20b9>@@$$QEAV<lambda_6992ecaafeb10aed2b74cb1fae11a551>@@@Z 00000001800366d4     libucrt:per_thread_data.obj
 0004:000016e0       $pdata$??$?RV<lambda_f2e299630e499de9f9a165e60fcd3db5>@@AEAV<lambda_2ae9d31cdba2644fcbeaf08da7c24588>@@V<lambda_40d01ff24d0e7b3814fdbdcee8eab3c7>@@@?$__crt_seh_guarded_call@X@@QEAAX$$QEAV<lambda_f2e299630e499de9f9a165e60fcd3db5>@@AEAV<lambda_2ae9d31cdba2644fcbeaf08da7c24588>@@$$QEAV<lambda_40d01ff24d0e7b3814fdbdcee8eab3c7>@@@Z 00000001800366e0     libucrt:per_thread_data.obj
 0004:000016ec       $pdata$??$?RV<lambda_2d41944a1d46af3157314b8a01080d33>@@AEAV<lambda_8f455de75cd7d7f24b4096f044d8b9e6>@@V<lambda_aa500f224e6afead328df44964fe2772>@@@?$__crt_seh_guarded_call@X@@QEAAX$$QEAV<lambda_2d41944a1d46af3157314b8a01080d33>@@AEAV<lambda_8f455de75cd7d7f24b4096f044d8b9e6>@@$$QEAV<lambda_aa500f224e6afead328df44964fe2772>@@@Z 00000001800366ec     libucrt:per_thread_data.obj
 0004:000016f8       $pdata$_calloc_base        00000001800366f8     libucrt:calloc_base.obj
 0004:00001704       $pdata$_malloc_base        0000000180036704     libucrt:malloc_base.obj
 0004:00001710       $pdata$_msize_base         0000000180036710     libucrt:msize.obj
 0004:0000171c       $pdata$_realloc_base       000000018003671c     libucrt:realloc_base.obj
 0004:00001728       $pdata$__acrt_initialize_winapi_thunks 0000000180036728     libucrt:winapi_thunks.obj
 0004:00001734       $pdata$__acrt_uninitialize_winapi_thunks 0000000180036734     libucrt:winapi_thunks.obj
 0004:00001740       $pdata$__acrt_AreFileApisANSI 0000000180036740     libucrt:winapi_thunks.obj
 0004:0000174c       $pdata$__acrt_FlsAlloc     000000018003674c     libucrt:winapi_thunks.obj
 0004:00001758       $pdata$__acrt_FlsFree      0000000180036758     libucrt:winapi_thunks.obj
 0004:00001764       $pdata$__acrt_FlsGetValue  0000000180036764     libucrt:winapi_thunks.obj
 0004:00001770       $pdata$__acrt_FlsSetValue  0000000180036770     libucrt:winapi_thunks.obj
 0004:0000177c       $pdata$__acrt_InitializeCriticalSectionEx 000000018003677c     libucrt:winapi_thunks.obj
 0004:00001788       $pdata$__acrt_LCMapStringEx 0000000180036788     libucrt:winapi_thunks.obj
 0004:00001794       $pdata$__acrt_LocaleNameToLCID 0000000180036794     libucrt:winapi_thunks.obj
 0004:000017a0       $pdata$__acrt_AppPolicyGetProcessTerminationMethodInternal 00000001800367a0     libucrt:winapi_thunks.obj
 0004:000017ac       $pdata$__acrt_SetThreadStackGuarantee 00000001800367ac     libucrt:winapi_thunks.obj
 0004:000017b8       $pdata$?try_get_function@@YAPEAXW4function_id@?A0x391cf84c@@QEBDQEBW4module_id@2@2@Z 00000001800367b8     libucrt:winapi_thunks.obj
 0004:000017c4       $pdata$wcstol              00000001800367c4     libucrt:strtox.obj
 0004:000017d0       $pdata$_mbtowc_l           00000001800367d0     libucrt:mbtowc.obj
 0004:000017dc       $pdata$__acrt_update_locale_info 00000001800367dc     libucrt:locale_update.obj
 0004:000017e8       $pdata$__acrt_update_multibyte_info 00000001800367e8     libucrt:locale_update.obj
 0004:000017f4       $pdata$__acrt_fp_format    00000001800367f4     libucrt:cvt.obj
 0004:00001800       $pdata$?fp_format_e_internal@@YAHQEAD_KH_NIQEAU_strflt@@2QEAU__crt_locale_pointers@@@Z 0000000180036800     libucrt:cvt.obj
 0004:0000180c       $pdata$?fp_format_e@@YAHQEBNQEAD_K12H_NIQEAU__crt_locale_pointers@@W4__acrt_rounding_mode@@@Z 000000018003680c     libucrt:cvt.obj
 0004:00001818       $pdata$?should_round_up@@YA_NQEBN_KFW4__acrt_rounding_mode@@@Z 0000000180036818     libucrt:cvt.obj
 0004:00001824       $pdata$?fp_format_a@@YAHQEBNPEAD_KQEAD2H_NIQEAU__crt_locale_pointers@@W4__acrt_rounding_mode@@@Z 0000000180036824     libucrt:cvt.obj
 0004:00001830       $pdata$?fp_format_f_internal@@YAHQEAD_KHQEAU_strflt@@_NQEAU__crt_locale_pointers@@@Z 0000000180036830     libucrt:cvt.obj
 0004:0000183c       $pdata$?fp_format_g@@YAHQEBNQEAD_K12H_NIQEAU__crt_locale_pointers@@@Z 000000018003683c     libucrt:cvt.obj
 0004:00001848       $pdata$_fileno             0000000180036848     libucrt:fileno.obj
 0004:00001854       $pdata$__acrt_initialize_stdio 0000000180036854     libucrt:_file.obj
 0004:00001860       $pdata$__acrt_uninitialize_stdio 0000000180036860     libucrt:_file.obj
 0004:0000186c       $pdata$__acrt_uninitialize_locale 000000018003686c     libucrt:wsetlocale.obj
 0004:00001878       $pdata$??$?RV<lambda_410d79af7f07d98d83a3f525b3859a53>@@AEAV<lambda_3e16ef9562a7dcce91392c22ab16ea36>@@V<lambda_38119f0e861e05405d8a144b9b982f0a>@@@?$__crt_seh_guarded_call@X@@QEAAX$$QEAV<lambda_410d79af7f07d98d83a3f525b3859a53>@@AEAV<lambda_3e16ef9562a7dcce91392c22ab16ea36>@@$$QEAV<lambda_38119f0e861e05405d8a144b9b982f0a>@@@Z 0000000180036878     libucrt:wsetlocale.obj
 0004:00001884       $pdata$?fin$0@?0???$?RV<lambda_410d79af7f07d98d83a3f525b3859a53>@@AEAV<lambda_3e16ef9562a7dcce91392c22ab16ea36>@@V<lambda_38119f0e861e05405d8a144b9b982f0a>@@@?$__crt_seh_guarded_call@X@@QEAAX$$QEAV<lambda_410d79af7f07d98d83a3f525b3859a53>@@AEAV<lambda_3e16ef9562a7dcce91392c22ab16ea36>@@$$QEAV<lambda_38119f0e861e05405d8a144b9b982f0a>@@@Z@4HA 0000000180036884     libucrt:wsetlocale.obj
 0004:00001890       $pdata$__acrt_initialize_lowio 0000000180036890     libucrt:ioinit.obj
 0004:0000189c       $pdata$__acrt_initialize_lowio$fin$0 000000018003689c     libucrt:ioinit.obj
 0004:0000189c       $pdata$__acrt_lowio_ensure_fh_exists$fin$0 000000018003689c     libucrt:osfinfo.obj
 0004:000018a8       $pdata$__acrt_uninitialize_lowio 00000001800368a8     libucrt:ioinit.obj
 0004:000018b4       $pdata$?initialize_inherited_file_handles_nolock@@YAXXZ 00000001800368b4     libucrt:ioinit.obj
 0004:000018c0       $pdata$?initialize_stdio_handles_nolock@@YAXXZ 00000001800368c0     libucrt:ioinit.obj
 0004:000018cc       $pdata$__acrt_initialize_locks 00000001800368cc     libucrt:locks.obj
 0004:000018d8       $pdata$__acrt_uninitialize_locks 00000001800368d8     libucrt:locks.obj
 0004:000018e4       $pdata$__acrt_get_process_end_policy 00000001800368e4     libucrt:win_policies.obj
 0004:000018f0       $pdata$??$__acrt_mbs_to_wcs_cp@U__crt_win32_buffer_internal_dynamic_resizing@@@@YAHQEBDAEAV?$__crt_win32_buffer@_WU__crt_win32_buffer_internal_dynamic_resizing@@@@I@Z 00000001800368f0     libucrt:argv_wildcards.obj
 0004:000018fc       $pdata$??$__acrt_wcs_to_mbs_cp@U__crt_win32_buffer_internal_dynamic_resizing@@@@YAHQEB_WAEAV?$__crt_win32_buffer@DU__crt_win32_buffer_internal_dynamic_resizing@@@@I@Z 00000001800368fc     libucrt:argv_wildcards.obj
 0004:00001908       $pdata$??$common_expand_argv_wildcards@D@@YAHQEAPEADQEAPEAPEAD@Z 0000000180036908     libucrt:argv_wildcards.obj
 0004:00001914       $pdata$??$copy_and_add_argument_to_buffer@D@@YAHQEBD0_KAEAV?$argument_list@D@?A0x5f5c8891@@@Z 0000000180036914     libucrt:argv_wildcards.obj
 0004:00001920       $pdata$??$expand_argument_wildcards@D@@YAHQEAD0AEAV?$argument_list@D@?A0x5f5c8891@@@Z 0000000180036920     libucrt:argv_wildcards.obj
 0004:0000192c       $pdata$__acrt_GetModuleFileNameA 000000018003692c     libucrt:getmodulefilenamea.obj
 0004:00001938       $pdata$??$__acrt_wcs_to_mbs_cp@U__crt_win32_buffer_no_resizing@@@@YAHQEB_WAEAV?$__crt_win32_buffer@DU__crt_win32_buffer_no_resizing@@@@I@Z 0000000180036938     libucrt:getmodulefilenamea.obj
 0004:00001944       $pdata$__acrt_update_thread_multibyte_data 0000000180036944     libucrt:mbctype.obj
 0004:00001950       $pdata$__acrt_initialize_multibyte 0000000180036950     libucrt:mbctype.obj
 0004:0000195c       $pdata$_setmbcp_nolock     000000018003695c     libucrt:mbctype.obj
 0004:00001968       $pdata$?getSystemCP@@YAHH@Z 0000000180036968     libucrt:mbctype.obj
 0004:00001974       $pdata$?setSBCS@@YAXPEAU__crt_multibyte_data@@@Z 0000000180036974     libucrt:mbctype.obj
 0004:00001980       $pdata$?update_thread_multibyte_data_internal@@YAPEAU__crt_multibyte_data@@QEAU__acrt_ptd@@QEAPEAU1@@Z 0000000180036980     libucrt:mbctype.obj
 0004:0000198c       $pdata$?fin$0@?0??update_thread_multibyte_data_internal@@YAPEAU__crt_multibyte_data@@QEAU__acrt_ptd@@QEAPEAU1@@Z@4HA 000000018003698c     libucrt:mbctype.obj
 0004:00001998       $pdata$?setmbcp_internal@@YAHH_NQEAU__acrt_ptd@@QEAPEAU__crt_multibyte_data@@@Z 0000000180036998     libucrt:mbctype.obj
 0004:000019a4       $pdata$?setSBUpLow@@YAXPEAU__crt_multibyte_data@@@Z 00000001800369a4     libucrt:mbctype.obj
 0004:000019b0       $pdata$??$?RV<lambda_efdfa57d1f175319df784efa44bb7b81>@@AEAV<lambda_5f0a4c1567f8adc6734073e5d1e1b35c>@@V<lambda_2e8a7d3640ea6ccb4c2413664c2db6fd>@@@?$__crt_seh_guarded_call@X@@QEAAX$$QEAV<lambda_efdfa57d1f175319df784efa44bb7b81>@@AEAV<lambda_5f0a4c1567f8adc6734073e5d1e1b35c>@@$$QEAV<lambda_2e8a7d3640ea6ccb4c2413664c2db6fd>@@@Z 00000001800369b0     libucrt:mbctype.obj
 0004:000019bc       $pdata$?x_ismbbtype_l@@YAHPEAU__crt_locale_pointers@@IHH@Z 00000001800369bc     libucrt:ismbbyte.obj
 0004:000019c8       $pdata$__acrt_initialize_command_line 00000001800369c8     libucrt:argv_data.obj
 0004:000019d4       $pdata$__acrt_WideCharToMultiByte 00000001800369d4     libucrt:widechartomultibyte.obj
 0004:000019e0       $pdata$__dcrt_get_narrow_environment_from_os 00000001800369e0     libucrt:get_environment_from_os.obj
 0004:000019ec       $pdata$__acrt_initialize_heap 00000001800369ec     libucrt:heap_handle.obj
 0004:000019f8       $pdata$__acrt_execute_initializers 00000001800369f8     libucrt:shared_initialization.obj
 0004:00001a04       $pdata$__acrt_execute_uninitializers 0000000180036a04     libucrt:shared_initialization.obj
 0004:00001a10       $pdata$__acrt_get_sigabrt_handler 0000000180036a10     libucrt:signal.obj
 0004:00001a1c       $pdata$raise               0000000180036a1c     libucrt:signal.obj
 0004:00001a28       $pdata$raise$fin$0         0000000180036a28     libucrt:signal.obj
 0004:00001a34       $pdata$??$?RV<lambda_450d765d439847d4c735a33c368b5fc0>@@AEAV<lambda_44731a7d0e6d81c3e6aa82d741081786>@@V<lambda_601a2a7da3b7a96e9554ac7215c4b07c>@@@?$__crt_seh_guarded_call@P6AXH@Z@@QEAAP6AXH@Z$$QEAV<lambda_450d765d439847d4c735a33c368b5fc0>@@AEAV<lambda_44731a7d0e6d81c3e6aa82d741081786>@@$$QEAV<lambda_601a2a7da3b7a96e9554ac7215c4b07c>@@@Z 0000000180036a34     libucrt:signal.obj
 0004:00001a40       $pdata$_fflush_nolock      0000000180036a40     libucrt:fflush.obj
 0004:00001a4c       $pdata$__acrt_stdio_flush_nolock 0000000180036a4c     libucrt:fflush.obj
 0004:00001a58       $pdata$?common_flush_all@@YAH_N@Z 0000000180036a58     libucrt:fflush.obj
 0004:00001a64       $pdata$??$?RV<lambda_842d9ff0dc9ef11c61343bbaebe7f885>@@AEAV<lambda_c5860995281e5c4ce005b3de8f5874ee>@@V<lambda_d90129c13df834fdcbf8d2b88dafcf2d>@@@?$__crt_seh_guarded_call@X@@QEAAX$$QEAV<lambda_842d9ff0dc9ef11c61343bbaebe7f885>@@AEAV<lambda_c5860995281e5c4ce005b3de8f5874ee>@@$$QEAV<lambda_d90129c13df834fdcbf8d2b88dafcf2d>@@@Z 0000000180036a64     libucrt:fflush.obj
 0004:00001a70       $pdata$?fin$0@?0???$?RV<lambda_842d9ff0dc9ef11c61343bbaebe7f885>@@AEAV<lambda_c5860995281e5c4ce005b3de8f5874ee>@@V<lambda_d90129c13df834fdcbf8d2b88dafcf2d>@@@?$__crt_seh_guarded_call@X@@QEAAX$$QEAV<lambda_842d9ff0dc9ef11c61343bbaebe7f885>@@AEAV<lambda_c5860995281e5c4ce005b3de8f5874ee>@@$$QEAV<lambda_d90129c13df834fdcbf8d2b88dafcf2d>@@@Z@4HA 0000000180036a70     libucrt:fflush.obj
 0004:00001a7c       $pdata$??$?RV<lambda_886d6c58226a84441f68b9f2b8217b83>@@AEAV<lambda_ab61a845afdef5b7c387490eaf3616ee>@@V<lambda_f7f22ab5edc0698d5f6905b0d3f44752>@@@?$__crt_seh_guarded_call@X@@QEAAX$$QEAV<lambda_886d6c58226a84441f68b9f2b8217b83>@@AEAV<lambda_ab61a845afdef5b7c387490eaf3616ee>@@$$QEAV<lambda_f7f22ab5edc0698d5f6905b0d3f44752>@@@Z 0000000180036a7c     libucrt:fflush.obj
 0004:00001a88       $pdata$?fin$0@?0???$?RV<lambda_886d6c58226a84441f68b9f2b8217b83>@@AEAV<lambda_ab61a845afdef5b7c387490eaf3616ee>@@V<lambda_f7f22ab5edc0698d5f6905b0d3f44752>@@@?$__crt_seh_guarded_call@X@@QEAAX$$QEAV<lambda_886d6c58226a84441f68b9f2b8217b83>@@AEAV<lambda_ab61a845afdef5b7c387490eaf3616ee>@@$$QEAV<lambda_f7f22ab5edc0698d5f6905b0d3f44752>@@@Z@4HA 0000000180036a88     libucrt:fflush.obj
 0004:00001a94       $pdata$__pctype_func       0000000180036a94     libucrt:ctype.obj
 0004:00001aa0       $pdata$iswctype            0000000180036aa0     libucrt:iswctype.obj
 0004:00001aac       $pdata$__acrt_release_locale_ref 0000000180036aac     libucrt:locale_refcounting.obj
 0004:00001ab8       $pdata$__acrt_free_locale  0000000180036ab8     libucrt:locale_refcounting.obj
 0004:00001ac4       $pdata$__acrt_locale_free_lc_time_if_unreferenced 0000000180036ac4     libucrt:locale_refcounting.obj
 0004:00001ad0       $pdata$__acrt_update_thread_locale_data 0000000180036ad0     libucrt:locale_refcounting.obj
 0004:00001adc       $pdata$__acrt_update_thread_locale_data$fin$0 0000000180036adc     libucrt:locale_refcounting.obj
 0004:00001ae8       $pdata$_updatetlocinfoEx_nolock 0000000180036ae8     libucrt:locale_refcounting.obj
 0004:00001af4       $pdata$__acrt_DownlevelLocaleNameToLCID 0000000180036af4     libucrt:lcidtoname_downlevel.obj
 0004:00001b00       $pdata$_isleadbyte_l       0000000180036b00     libucrt:_wctype.obj
 0004:00001b0c       $pdata$?__mbrtowc_utf8@__crt_mbstring@@YA_KPEA_WPEBD_KPEAU_Mbstatet@@@Z 0000000180036b0c     libucrt:mbrtowc.obj
 0004:00001b18       $pdata$?__mbsrtowcs_utf8@__crt_mbstring@@YA_KPEA_WPEAPEBD_KPEAU_Mbstatet@@@Z 0000000180036b18     libucrt:mbrtowc.obj
 0004:00001b24       $pdata$__acrt_fp_strflt_to_string 0000000180036b24     libucrt:_fptostr.obj
 0004:00001b30       $pdata$memcpy_s            0000000180036b30     libucrt:cfout.obj
 0004:00001b3c       $pdata$__acrt_fltout       0000000180036b3c     libucrt:cfout.obj
 0004:00001b48       $pdata$?divide@__crt_strtox@@YA_KAEAUbig_integer@1@AEBU21@@Z 0000000180036b48     libucrt:cfout.obj
 0004:00001b54       $pdata$0$?divide@__crt_strtox@@YA_KAEAUbig_integer@1@AEBU21@@Z 0000000180036b54     libucrt:cfout.obj
 0004:00001b60       $pdata$1$?divide@__crt_strtox@@YA_KAEAUbig_integer@1@AEBU21@@Z 0000000180036b60     libucrt:cfout.obj
 0004:00001b6c       $pdata$fegetround          0000000180036b6c     libucrt:fegetround.obj
 0004:00001b78       $pdata$_fcloseall          0000000180036b78     libucrt:closeall.obj
 0004:00001b84       $pdata$_fcloseall$fin$0    0000000180036b84     libucrt:closeall.obj
 0004:00001b90       $pdata$__acrt_stdio_free_buffer_nolock 0000000180036b90     libucrt:_freebuf.obj
 0004:00001b9c       $pdata$_isatty             0000000180036b9c     libucrt:isatty.obj
 0004:00001ba8       $pdata$__acrt_locale_free_monetary 0000000180036ba8     libucrt:initmon.obj
 0004:00001bb4       $pdata$__acrt_locale_free_numeric 0000000180036bb4     libucrt:initnum.obj
 0004:00001bc0       $pdata$__acrt_locale_free_time 0000000180036bc0     libucrt:inittime.obj
 0004:00001bcc       $pdata$?free_crt_array_internal@@YAXQEAPEBX_K@Z 0000000180036bcc     libucrt:inittime.obj
 0004:00001bd8       $pdata$__acrt_GetStringTypeA 0000000180036bd8     libucrt:getstringtypea.obj
 0004:00001be4       $pdata$_get_osfhandle      0000000180036be4     libucrt:osfinfo.obj
 0004:00001bf0       $pdata$_free_osfhnd        0000000180036bf0     libucrt:osfinfo.obj
 0004:00001bfc       $pdata$__acrt_lowio_create_handle_array 0000000180036bfc     libucrt:osfinfo.obj
 0004:00001c08       $pdata$__acrt_lowio_destroy_handle_array 0000000180036c08     libucrt:osfinfo.obj
 0004:00001c14       $pdata$__acrt_lowio_ensure_fh_exists 0000000180036c14     libucrt:osfinfo.obj
 0004:00001c20       $pdata$qsort               0000000180036c20     libucrt:qsort.obj
 0004:00001c2c       $pdata$4$qsort             0000000180036c2c     libucrt:qsort.obj
 0004:00001c38       $pdata$5$qsort             0000000180036c38     libucrt:qsort.obj
 0004:00001c44       $pdata$strncpy_s           0000000180036c44     libucrt:strncpy_s.obj
 0004:00001c50       $pdata$strpbrk             0000000180036c50     libucrt:strpbrk.obj
 0004:00001c5c       $pdata$fallbackMethod      0000000180036c5c     libucrt:strpbrk.obj
 0004:00001c68       $pdata$_mbsdec_l           0000000180036c68     libucrt:mbsdec.obj
 0004:00001c74       $pdata$__acrt_LCMapStringA 0000000180036c74     libucrt:lcmapstringa.obj
 0004:00001c80       $pdata$?__acrt_LCMapStringA_stat@@YAHPEAU__crt_locale_pointers@@PEB_WKPEBDHPEADHHH@Z 0000000180036c80     libucrt:lcmapstringa.obj
 0004:00001c8c       $pdata$?initialize_multibyte@@YAHXZ 0000000180036c8c     libucrt:multibyte_initializer.obj
 0004:00001c98       $pdata$_commit             0000000180036c98     libucrt:commit.obj
 0004:00001ca4       $pdata$??$?RV<lambda_a37b2b86f63e897a80ea819b0eb08c01>@@AEAV<lambda_38ce7e780aa69e748d6df282ebc68efe>@@V<lambda_99fb1378e971ab6e7edea83e3a7a83a2>@@@?$__crt_seh_guarded_call@H@@QEAAH$$QEAV<lambda_a37b2b86f63e897a80ea819b0eb08c01>@@AEAV<lambda_38ce7e780aa69e748d6df282ebc68efe>@@$$QEAV<lambda_99fb1378e971ab6e7edea83e3a7a83a2>@@@Z 0000000180036ca4     libucrt:commit.obj
 0004:00001cb0       $pdata$?fin$0@?0???$?RV<lambda_751a882b2c74d4b022dec766aa51a29a>@@AEAV<lambda_628dfdc04ba53c8bfc02c9951375f3f5>@@V<lambda_f6c7be5f7998530c34de24c7437d6b54>@@@?$__crt_seh_guarded_call@H@@QEAAH$$QEAV<lambda_751a882b2c74d4b022dec766aa51a29a>@@AEAV<lambda_628dfdc04ba53c8bfc02c9951375f3f5>@@$$QEAV<lambda_f6c7be5f7998530c34de24c7437d6b54>@@@Z@4HA 0000000180036cb0     libucrt:close.obj
 0004:00001cb0       $pdata$?fin$0@?0???$?RV<lambda_a37b2b86f63e897a80ea819b0eb08c01>@@AEAV<lambda_38ce7e780aa69e748d6df282ebc68efe>@@V<lambda_99fb1378e971ab6e7edea83e3a7a83a2>@@@?$__crt_seh_guarded_call@H@@QEAAH$$QEAV<lambda_a37b2b86f63e897a80ea819b0eb08c01>@@AEAV<lambda_38ce7e780aa69e748d6df282ebc68efe>@@$$QEAV<lambda_99fb1378e971ab6e7edea83e3a7a83a2>@@@Z@4HA 0000000180036cb0     libucrt:commit.obj
 0004:00001cbc       $pdata$_write              0000000180036cbc     libucrt:write.obj
 0004:00001cc8       $pdata$_write$fin$0        0000000180036cc8     libucrt:write.obj
 0004:00001cd4       $pdata$_write_nolock       0000000180036cd4     libucrt:write.obj
 0004:00001ce0       $pdata$?write_double_translated_ansi_nolock@@YA?AUwrite_result@?A0x17268360@@HQEBDI@Z 0000000180036ce0     libucrt:write.obj
 0004:00001cec       $pdata$?write_text_ansi_nolock@@YA?AUwrite_result@?A0x17268360@@HQEBDI@Z 0000000180036cec     libucrt:write.obj
 0004:00001cf8       $pdata$?write_text_utf16le_nolock@@YA?AUwrite_result@?A0x17268360@@HQEBDI@Z 0000000180036cf8     libucrt:write.obj
 0004:00001d04       $pdata$?write_text_utf8_nolock@@YA?AUwrite_result@?A0x17268360@@HQEBDI@Z 0000000180036d04     libucrt:write.obj
 0004:00001d10       $pdata$?__mbrtoc32_utf8@__crt_mbstring@@YA_KPEA_UPEBD_KPEAU_Mbstatet@@@Z 0000000180036d10     libucrt:mbrtoc32.obj
 0004:00001d1c       $pdata$_controlfp_s        0000000180036d1c     libucrt:contrlfp.obj
 0004:00001d28       $pdata$fegetenv            0000000180036d28     libucrt:fegetenv.obj
 0004:00001d34       $pdata$fesetenv            0000000180036d34     libucrt:fesetenv.obj
 0004:00001d40       $pdata$feholdexcept        0000000180036d40     libucrt:feholdexcept.obj
 0004:00001d58       $pdata$__acrt_fenv_set_control 0000000180036d58     libucrt:_fenvutils.obj
 0004:00001d64       $pdata$??$common_lseek_nolock@_J@@YA_JH_JH@Z 0000000180036d64     libucrt:lseek.obj
 0004:00001d70       $pdata$fclose              0000000180036d70     libucrt:fclose.obj
 0004:00001d7c       $pdata$fclose$fin$0        0000000180036d7c     libucrt:fclose.obj
 0004:00001d88       $pdata$_fclose_nolock      0000000180036d88     libucrt:fclose.obj
 0004:00001d94       $pdata$_putwch_nolock      0000000180036d94     libucrt:putwch.obj
 0004:00001da0       $pdata$_clearfp            0000000180036da0     libucrt:ieee.obj
 0004:00001dac       $pdata$common_control87    0000000180036dac     libucrt:ieee.obj
 0004:00001db8       $pdata$_ctrlfp$filt$0      0000000180036db8     libucrt:fpctrl.obj
 0004:00001db8       $pdata$common_control87$filt$0 0000000180036db8     libucrt:ieee.obj
 0004:00001dc4       $pdata$_call_matherr       0000000180036dc4     libucrt:libm_error.obj
 0004:00001dd0       $pdata$_exception_enabled  0000000180036dd0     libucrt:libm_error.obj
 0004:00001ddc       $pdata$_handle_error       0000000180036ddc     libucrt:libm_error.obj
 0004:00001de8       $pdata$__acrt_initialize_fma3 0000000180036de8     libucrt:fma3_available.obj
 0004:00001df4       $pdata$_log_special_common 0000000180036df4     libucrt:log_special.obj
 0004:00001e00       $pdata$_log10_special      0000000180036e00     libucrt:log_special.obj
 0004:00001e0c       $pdata$_close              0000000180036e0c     libucrt:close.obj
 0004:00001e18       $pdata$_close_nolock       0000000180036e18     libucrt:close.obj
 0004:00001e24       $pdata$??$?RV<lambda_751a882b2c74d4b022dec766aa51a29a>@@AEAV<lambda_628dfdc04ba53c8bfc02c9951375f3f5>@@V<lambda_f6c7be5f7998530c34de24c7437d6b54>@@@?$__crt_seh_guarded_call@H@@QEAAH$$QEAV<lambda_751a882b2c74d4b022dec766aa51a29a>@@AEAV<lambda_628dfdc04ba53c8bfc02c9951375f3f5>@@$$QEAV<lambda_f6c7be5f7998530c34de24c7437d6b54>@@@Z 0000000180036e24     libucrt:close.obj
 0004:00001e30       $pdata$__dcrt_lowio_ensure_console_output_initialized 0000000180036e30     libucrt:initcon.obj
 0004:00001e3c       $pdata$__dcrt_write_console 0000000180036e3c     libucrt:initcon.obj
 0004:00001e48       $pdata$__dcrt_terminate_console_output 0000000180036e48     libucrt:initcon.obj
 0004:00001e60       $pdata$_set_errno_from_matherr 0000000180036e60     libucrt:fpexcept.obj
 0004:00001e6c       $pdata$_raise_exc          0000000180036e6c     libucrt:fpexcept.obj
 0004:00001e78       $pdata$_raise_exc_ex       0000000180036e78     libucrt:fpexcept.obj
 0004:00001e84       $pdata$_clrfp              0000000180036e84     libucrt:fpctrl.obj
 0004:00001e90       $pdata$_ctrlfp             0000000180036e90     libucrt:fpctrl.obj
 0004:00001e9c       $pdata$_statfp             0000000180036e9c     libucrt:fpctrl.obj
 0004:00001ea8       $pdata$_set_statfp         0000000180036ea8     libucrt:fpctrl.obj
 0004:00001eb4       $pdata$_IsNonwritableInCurrentImage 0000000180036eb4     LIBCMT:pesect.obj
 0004:00001ec0       $pdata$_IsNonwritableInCurrentImage$filt$0 0000000180036ec0     LIBCMT:pesect.obj
 0005:00000000       MoveSmall                  0000000180037000     libvcruntime:memcpy.obj
 0005:00000050       MsetTab                    0000000180037050     libvcruntime:memset.obj
 0006:00000220       $R000000                   0000000180038220     Belt.res
 0006:00000b98       $R000978                   0000000180038b98     Belt.res
 0006:00000c80       $R000A60                   0000000180038c80     Belt.res
 0006:00000ee8       $R000CC8                   0000000180038ee8     Belt.res
 0006:000013c0       $R0011A0                   00000001800393c0     Belt.res
 0006:00004558       $R004338                   000000018003c558     Belt.res
 0006:00004580       $R004360                   000000018003c580     Belt.res
