 OPOSRemoteOrderDisplay

 Timestamp is 61a75828 (Wed Dec  1 20:10:32 2021)

 Preferred load address is 0000000180000000

 Start         Length     Name                   Class
 0001:00000000 000000c0H .text$di                CODE
 0001:000000c0 00024e80H .text$mn                CODE
 0001:00024f40 00000040H .text$mn$00             CODE
 0001:00024f80 00000660H .text$x                 CODE
 0001:000255e0 00000078H .text$yd                CODE
 0002:00000000 00000638H .idata$5                DATA
 0002:00000638 00000030H .00cfg                  DATA
 0002:00000668 00000008H .CRT$XCA                DATA
 0002:00000670 00000008H .CRT$XCL                DATA
 0002:00000678 00000020H .CRT$XCU                DATA
 0002:00000698 00000008H .CRT$XCZ                DATA
 0002:000006a0 00000008H .CRT$XIA                DATA
 0002:000006a8 00000020H .CRT$XIC                DATA
 0002:000006c8 00000008H .CRT$XIZ                DATA
 0002:000006d0 00000008H .CRT$XLA                DATA
 0002:000006d8 00000008H .CRT$XLZ                DATA
 0002:000006e0 00000008H .CRT$XPA                DATA
 0002:000006e8 00000010H .CRT$XPX                DATA
 0002:000006f8 00000008H .CRT$XPXA               DATA
 0002:00000700 00000008H .CRT$XPZ                DATA
 0002:00000708 00000008H .CRT$XTA                DATA
 0002:00000710 00000010H .CRT$XTZ                DATA
 0002:00000718 00000000H .gehcont$y              DATA
 0002:00000718 00000000H .gfids$y                DATA
 0002:00000720 0000a860H .rdata                  DATA
 0002:0000af80 00000000H .rdata$CastGuardVftablesA DATA
 0002:0000af80 00000000H .rdata$CastGuardVftablesC DATA
 0002:0000af80 00000028H .rdata$T                DATA
 0002:0000afa8 00000274H .rdata$r                DATA
 0002:0000b21c 00000048H .rdata$voltmd           DATA
 0002:0000b264 0000043cH .rdata$zzzdbg           DATA
 0002:0000b6a0 00000008H .rtc$IAA                DATA
 0002:0000b6a8 00000008H .rtc$IZZ                DATA
 0002:0000b6b0 00000008H .rtc$TAA                DATA
 0002:0000b6b8 00000008H .rtc$TZZ                DATA
 0002:0000b6c0 00000004H .tls                    DATA
 0002:0000b6c4 00000004H .tls$                   DATA
 0002:0000b6c8 00000008H .tls$ZZZ                DATA
 0002:0000b6d0 000019e8H .xdata                  DATA
 0002:0000d0b8 00000150H .xdata$x                DATA
 0002:0000d208 00000008H ATL$__a                 DATA
 0002:0000d210 00000010H ATL$__z                 DATA
 0002:0000d220 000000b4H .edata                  DATA
 0002:0000d2d4 00000078H .idata$2                DATA
 0002:0000d34c 00000014H .idata$3                DATA
 0002:0000d360 00000638H .idata$4                DATA
 0002:0000d998 00000c5cH .idata$6                DATA
 0003:00000000 00000e28H .data                   DATA
 0003:00000e28 000000a8H .data$r                 DATA
 0003:00000ed0 00000020H .data$rs                DATA
 0003:00000ef0 000013ecH .bss                    DATA
 0004:00000000 000020f4H .pdata                  DATA
 0005:00000000 000000f4H _RDATA                  DATA
 0006:00000000 00000220H .rsrc$01                DATA
 0006:00000220 000056b0H .rsrc$02                DATA

  Address         Publics by Value              Rva+Base               Lib:Object

 0000:00000000       __guard_longjmp_table      0000000000000000     <absolute>
 0000:00000000       __x64_code_ranges_to_entry_points 0000000000000000     <absolute>
 0000:00000000       __x64_code_ranges_to_entry_points_count 0000000000000000     <absolute>
 0000:00000000       __guard_fids_count         0000000000000000     <absolute>
 0000:00000000       __arm64x_redirection_metadata 0000000000000000     <absolute>
 0000:00000000       __arm64x_extra_rfe_table   0000000000000000     <absolute>
 0000:00000000       __guard_iat_table          0000000000000000     <absolute>
 0000:00000000       __hybrid_code_map          0000000000000000     <absolute>
 0000:00000000       __arm64x_extra_rfe_table_size 0000000000000000     <absolute>
 0000:00000000       __guard_iat_count          0000000000000000     <absolute>
 0000:00000000       ___safe_se_handler_count   0000000000000000     <absolute>
 0000:00000000       __guard_longjmp_count      0000000000000000     <absolute>
 0000:00000000       ___safe_se_handler_table   0000000000000000     <absolute>
 0000:00000000       __dynamic_value_reloc_table 0000000000000000     <absolute>
 0000:00000000       __hybrid_auxiliary_iat     0000000000000000     <absolute>
 0000:00000000       __hybrid_auxiliary_iat_copy 0000000000000000     <absolute>
 0000:00000000       __AbsoluteZero             0000000000000000     <absolute>
 0000:00000000       __guard_eh_cont_count      0000000000000000     <absolute>
 0000:00000000       __guard_check_icall_a64n_fptr 0000000000000000     <absolute>
 0000:00000000       __guard_fids_table         0000000000000000     <absolute>
 0000:00000000       __arm64x_redirection_metadata_count 0000000000000000     <absolute>
 0000:00000000       __enclave_config           0000000000000000     <absolute>
 0000:00000000       __guard_eh_cont_table      0000000000000000     <absolute>
 0000:00000000       __arm64x_native_entrypoint 0000000000000000     <absolute>
 0000:00000000       __hybrid_code_map_count    0000000000000000     <absolute>
 0000:00000100       __guard_flags              0000000000000100     <absolute>
 0000:00000000       __ImageBase                0000000180000000     <linker-defined>
 0001:000000c0       ?DupWide@_CW@@AEAAXXZ      00000001800010c0 f   CWString.obj
 0001:000000e8       ?cw_dup@@YAXPEBDAEAHAEAPEA_W1@Z 00000001800010e8 f   CWString.obj
 0001:000001c8       ?cw_memcpy@@YAHPEA_WPEBDH@Z 00000001800011c8 f   CWString.obj
 0001:00000214       ?cw_strcpy@@YAHPEA_WPEBD@Z 0000000180001214 f   CWString.obj
 0001:00000228       ??0CAtlComModule@ATL@@QEAA@XZ 0000000180001228 f i OposVariant.obj
 0001:000002a8       ??0CAtlWinModule@ATL@@QEAA@XZ 00000001800012a8 f i OposVariant.obj
 0001:00000314       ??0OposDispParms@@QEAA@PEAVOposVariant@@H@Z 0000000180001314 f   OposVariant.obj
 0001:000003bc       ??1OposDispParms@@QEAA@XZ  00000001800013bc f   OposVariant.obj
 0001:000003d4       ??_Estringdispid@CComTypeInfoHolder@ATL@@QEAAPEAXI@Z 00000001800013d4 f i OposVariant.obj
 0001:00000478       ?AtlWinModuleTerm@ATL@@YAJPEAU_ATL_WIN_MODULE70@1@PEAUHINSTANCE__@@@Z 0000000180001478 f i OposVariant.obj
 0001:00000528       ?ChangeBSTR@OposVariant@@QEAAXPEAPEA_WAEAJ@Z 0000000180001528 f   OposVariant.obj
 0001:00000588       ?ChangeLONG@OposVariant@@QEAAXPEAJAEAJ@Z 0000000180001588 f   OposVariant.obj
 0001:000005e4       ?GetLONG@OposVariant@@QEAAJXZ 00000001800015e4 f   OposVariant.obj
 0001:00000608       ?SetBSTR@OposVariant@@QEAAXPEA_WAEAJ@Z 0000000180001608 f   OposVariant.obj
 0001:00000648       ?SetBSTR_Copy@OposVariant@@QEAAXPEA_WAEAJ@Z 0000000180001648 f   OposVariant.obj
 0001:000006b8       ?SetBSTR_InOutPtr@OposVariant@@QEAA_NPEAPEA_WAEAJ@Z 00000001800016b8 f   OposVariant.obj
 0001:00000708       ?SetDispatch_Ptr@OposVariant@@QEAAXPEAUIDispatch@@AEAJ@Z 0000000180001708 f   OposVariant.obj
 0001:00000760       ?SetLONG@OposVariant@@QEAAXJ@Z 0000000180001760 f   OposVariant.obj
 0001:00000790       ?SetLONG_Ptr@OposVariant@@QEAAXPEAJAEAJ@Z 0000000180001790 f   OposVariant.obj
 0001:000007dc       ?SetString@OposVariant@@QEAAXPEB_WAEAJ@Z 00000001800017dc f   OposVariant.obj
 0001:00000840       ?SetVARIANT_BOOL@OposVariant@@QEAAXF@Z 0000000180001840 f   OposVariant.obj
 0001:00000878       ?Term@CAtlComModule@ATL@@QEAAXXZ 0000000180001878 f i OposVariant.obj
 0001:000008e8       ?_AtlInitializeCriticalSectionEx@ATL@@YAHPEAU_RTL_CRITICAL_SECTION@@KK@Z 00000001800018e8 f i OposVariant.obj
 0001:000008f0       ?_AtlRaiseException@ATL@@YAXKK@Z 00000001800018f0 f i OposVariant.obj
 0001:00000900       ?Next@?$CComEnumImpl@UIEnumConnections@@$1?_GUID_b196b287_bab4_101a_b69c_00aa00341d07@@3U__s_GUID@@BUtagCONNECTDATA@@V?$_Copy@UtagCONNECTDATA@@@ATL@@@ATL@@UEAAJKPEAUtagCONNECTDATA@@PEAK@Z 0000000180001900 f i RemoteOrderDisplay.obj
 0001:000009c8       ?Skip@?$CComEnumImpl@UIEnumConnections@@$1?_GUID_b196b287_bab4_101a_b69c_00aa00341d07@@3U__s_GUID@@BUtagCONNECTDATA@@V?$_Copy@UtagCONNECTDATA@@@ATL@@@ATL@@UEAAJK@Z 00000001800019c8 f i RemoteOrderDisplay.obj
 0001:000009f4       ?Reset@?$CComEnumImpl@UIEnumConnectionPoints@@$1?_GUID_b196b285_bab4_101a_b69c_00aa00341d07@@3U__s_GUID@@BPEAUIConnectionPoint@@V?$_CopyInterface@UIConnectionPoint@@@ATL@@@ATL@@UEAAJXZ 00000001800019f4 f i RemoteOrderDisplay.obj
 0001:000009f4       ?Reset@?$CComEnumImpl@UIEnumConnections@@$1?_GUID_b196b287_bab4_101a_b69c_00aa00341d07@@3U__s_GUID@@BUtagCONNECTDATA@@V?$_Copy@UtagCONNECTDATA@@@ATL@@@ATL@@UEAAJXZ 00000001800019f4 f i RemoteOrderDisplay.obj
 0001:00000a00       ?Clone@?$CComEnumImpl@UIEnumConnections@@$1?_GUID_b196b287_bab4_101a_b69c_00aa00341d07@@3U__s_GUID@@BUtagCONNECTDATA@@V?$_Copy@UtagCONNECTDATA@@@ATL@@@ATL@@UEAAJPEAPEAUIEnumConnections@@@Z 0000000180001a00 f i RemoteOrderDisplay.obj
 0001:00000b2c       ?AddRef@?$CComObject@V?$CComEnum@UIEnumConnectionPoints@@$1?_GUID_b196b285_bab4_101a_b69c_00aa00341d07@@3U__s_GUID@@BPEAUIConnectionPoint@@V?$_CopyInterface@UIConnectionPoint@@@ATL@@VCComSingleThreadModel@6@@ATL@@@ATL@@UEAAKXZ 0000000180001b2c f i RemoteOrderDisplay.obj
 0001:00000b2c       ?AddRef@?$CComObject@V?$CComEnum@UIEnumConnections@@$1?_GUID_b196b287_bab4_101a_b69c_00aa00341d07@@3U__s_GUID@@BUtagCONNECTDATA@@V?$_Copy@UtagCONNECTDATA@@@ATL@@VCComSingleThreadModel@6@@ATL@@@ATL@@UEAAKXZ 0000000180001b2c f i RemoteOrderDisplay.obj
 0001:00000b38       ?Release@?$CComObject@V?$CComEnum@UIEnumConnections@@$1?_GUID_b196b287_bab4_101a_b69c_00aa00341d07@@3U__s_GUID@@BUtagCONNECTDATA@@V?$_Copy@UtagCONNECTDATA@@@ATL@@VCComSingleThreadModel@6@@ATL@@@ATL@@UEAAKXZ 0000000180001b38 f i RemoteOrderDisplay.obj
 0001:00000b38       ?Release@?$CComObject@V?$CComEnum@UIEnumConnectionPoints@@$1?_GUID_b196b285_bab4_101a_b69c_00aa00341d07@@3U__s_GUID@@BPEAUIConnectionPoint@@V?$_CopyInterface@UIConnectionPoint@@@ATL@@VCComSingleThreadModel@6@@ATL@@@ATL@@UEAAKXZ 0000000180001b38 f i RemoteOrderDisplay.obj
 0001:00000b8c       ?QueryInterface@?$CComObject@V?$CComEnum@UIEnumConnections@@$1?_GUID_b196b287_bab4_101a_b69c_00aa00341d07@@3U__s_GUID@@BUtagCONNECTDATA@@V?$_Copy@UtagCONNECTDATA@@@ATL@@VCComSingleThreadModel@6@@ATL@@@ATL@@UEAAJAEBU_GUID@@PEAPEAX@Z 0000000180001b8c f i RemoteOrderDisplay.obj
 0001:00000ba0       ??_E?$CComObject@V?$CComEnum@UIEnumConnections@@$1?_GUID_b196b287_bab4_101a_b69c_00aa00341d07@@3U__s_GUID@@BUtagCONNECTDATA@@V?$_Copy@UtagCONNECTDATA@@@ATL@@VCComSingleThreadModel@6@@ATL@@@ATL@@UEAAPEAXI@Z 0000000180001ba0 f i RemoteOrderDisplay.obj
 0001:00000ba0       ??_G?$CComObject@V?$CComEnum@UIEnumConnections@@$1?_GUID_b196b287_bab4_101a_b69c_00aa00341d07@@3U__s_GUID@@BUtagCONNECTDATA@@V?$_Copy@UtagCONNECTDATA@@@ATL@@VCComSingleThreadModel@6@@ATL@@@ATL@@UEAAPEAXI@Z 0000000180001ba0 f i RemoteOrderDisplay.obj
 0001:00000bf8       ?ObjectMain@CComObjectRootBase@ATL@@SAX_N@Z 0000000180001bf8 f i RemoteOrderDisplay.obj
 0001:00000bf8       _guard_check_icall_nop     0000000180001bf8 f i LIBCMT:guard_support.obj
 0001:00000bf8       ?OnFinalMessage@?$CWindowImplBaseT@VCWindow@ATL@@V?$CWinTraits@$0FGAAAAAA@$0A@@2@@ATL@@UEAAXPEAUHWND__@@@Z 0000000180001bf8 f i RemoteOrderDisplay.obj
 0001:00000bfc       ?IsUpToDate@?$IOleObjectImpl@VCOPOSRemoteOrderDisplay@@@ATL@@UEAAJXZ 0000000180001bfc f i RemoteOrderDisplay.obj
 0001:00000bfc       ?GetCategoryMap@CComObjectRootBase@ATL@@SAPEBU_ATL_CATMAP_ENTRY@2@XZ 0000000180001bfc f i RemoteOrderDisplay.obj
 0001:00000bfc       ?SetHostNames@?$IOleObjectImpl@VCOPOSRemoteOrderDisplay@@@ATL@@UEAAJPEB_W0@Z 0000000180001bfc f i RemoteOrderDisplay.obj
 0001:00000bfc       ?GetObjectDescription@?$CComCoClass@VCOPOSRemoteOrderDisplay@@$1?CLSID_OPOSRemoteOrderDisplay@@3U_GUID@@B@ATL@@SAPEB_WXZ 0000000180001bfc f i RemoteOrderDisplay.obj
 0001:00000bfc       ?EnableModeless@?$IOleInPlaceActiveObjectImpl@VCOPOSRemoteOrderDisplay@@@ATL@@UEAAJH@Z 0000000180001bfc f i RemoteOrderDisplay.obj
 0001:00000bfc       ?OnAmbientPropertyChange@?$IOleControlImpl@VCOPOSRemoteOrderDisplay@@@ATL@@UEAAJJ@Z 0000000180001bfc f i RemoteOrderDisplay.obj
 0001:00000bfc       ?ResizeBorder@?$IOleInPlaceActiveObjectImpl@VCOPOSRemoteOrderDisplay@@@ATL@@UEAAJPEBUtagRECT@@PEAUIOleInPlaceUIWindow@@H@Z 0000000180001bfc f i RemoteOrderDisplay.obj
 0001:00000bfc       ?OnFrameWindowActivate@?$IOleInPlaceActiveObjectImpl@VCOPOSRemoteOrderDisplay@@@ATL@@UEAAJH@Z 0000000180001bfc f i RemoteOrderDisplay.obj
 0001:00000bfc       ?Release@CRegObject@ATL@@UEAAKXZ 0000000180001bfc f i RemoteOrderDisplay.obj
 0001:00000bfc       ?SaveCompleted@?$IPersistStorageImpl@VCOPOSRemoteOrderDisplay@@@ATL@@UEAAJPEAUIStorage@@@Z 0000000180001bfc f i RemoteOrderDisplay.obj
 0001:00000bfc       ?Update@?$IOleObjectImpl@VCOPOSRemoteOrderDisplay@@@ATL@@UEAAJXZ 0000000180001bfc f i RemoteOrderDisplay.obj
 0001:00000bfc       ?HandsOffStorage@?$IPersistStorageImpl@VCOPOSRemoteOrderDisplay@@@ATL@@UEAAJXZ 0000000180001bfc f i RemoteOrderDisplay.obj
 0001:00000c00       ?CreateInstance@CComClassFactory@ATL@@UEAAJPEAUIUnknown@@AEBU_GUID@@PEAPEAX@Z 0000000180001c00 f i RemoteOrderDisplay.obj
 0001:00000c60       ?LockServer@CComClassFactory@ATL@@UEAAJH@Z 0000000180001c60 f i RemoteOrderDisplay.obj
 0001:00000c84       ??_GCComClassFactory@ATL@@UEAAPEAXI@Z 0000000180001c84 f i RemoteOrderDisplay.obj
 0001:00000c84       ??_ECComClassFactory@ATL@@UEAAPEAXI@Z 0000000180001c84 f i RemoteOrderDisplay.obj
 0001:00000cd4       ??_E?$CComObject@VCOPOSRemoteOrderDisplay@@@ATL@@W7EAAPEAXI@Z 0000000180001cd4 f i RemoteOrderDisplay.obj
 0001:00000ce0       ??_E?$CComObject@VCOPOSRemoteOrderDisplay@@@ATL@@WHA@EAAPEAXI@Z 0000000180001ce0 f i RemoteOrderDisplay.obj
 0001:00000cec       ?QueryInterface@?$CComObject@VCOPOSRemoteOrderDisplay@@@ATL@@WLI@EAAJAEBU_GUID@@PEAPEAX@Z 0000000180001cec f i RemoteOrderDisplay.obj
 0001:00000cf8       ?AddRef@?$CComObject@VCOPOSRemoteOrderDisplay@@@ATL@@WLI@EAAKXZ 0000000180001cf8 f i RemoteOrderDisplay.obj
 0001:00000d04       ?Release@?$CComObject@VCOPOSRemoteOrderDisplay@@@ATL@@WLI@EAAKXZ 0000000180001d04 f i RemoteOrderDisplay.obj
 0001:00000d10       ?QueryInterface@?$CComObject@VCOPOSRemoteOrderDisplay@@@ATL@@WMA@EAAJAEBU_GUID@@PEAPEAX@Z 0000000180001d10 f i RemoteOrderDisplay.obj
 0001:00000d1c       ?AddRef@?$CComObject@VCOPOSRemoteOrderDisplay@@@ATL@@WMA@EAAKXZ 0000000180001d1c f i RemoteOrderDisplay.obj
 0001:00000d28       ?Release@?$CComObject@VCOPOSRemoteOrderDisplay@@@ATL@@WMA@EAAKXZ 0000000180001d28 f i RemoteOrderDisplay.obj
 0001:00000d34       ?QueryInterface@?$CComObject@VCOPOSRemoteOrderDisplay@@@ATL@@WMI@EAAJAEBU_GUID@@PEAPEAX@Z 0000000180001d34 f i RemoteOrderDisplay.obj
 0001:00000d40       ?AddRef@?$CComObject@VCOPOSRemoteOrderDisplay@@@ATL@@WMI@EAAKXZ 0000000180001d40 f i RemoteOrderDisplay.obj
 0001:00000d4c       ?Release@?$CComObject@VCOPOSRemoteOrderDisplay@@@ATL@@WMI@EAAKXZ 0000000180001d4c f i RemoteOrderDisplay.obj
 0001:00000d58       ?QueryInterface@?$CComObject@VCOPOSRemoteOrderDisplay@@@ATL@@WNA@EAAJAEBU_GUID@@PEAPEAX@Z 0000000180001d58 f i RemoteOrderDisplay.obj
 0001:00000d64       ?AddRef@?$CComObject@VCOPOSRemoteOrderDisplay@@@ATL@@WNA@EAAKXZ 0000000180001d64 f i RemoteOrderDisplay.obj
 0001:00000d70       ?Release@?$CComObject@VCOPOSRemoteOrderDisplay@@@ATL@@WNA@EAAKXZ 0000000180001d70 f i RemoteOrderDisplay.obj
 0001:00000d7c       ?QueryInterface@?$CComObject@VCOPOSRemoteOrderDisplay@@@ATL@@WNI@EAAJAEBU_GUID@@PEAPEAX@Z 0000000180001d7c f i RemoteOrderDisplay.obj
 0001:00000d88       ?AddRef@?$CComObject@VCOPOSRemoteOrderDisplay@@@ATL@@WNI@EAAKXZ 0000000180001d88 f i RemoteOrderDisplay.obj
 0001:00000d94       ?Release@?$CComObject@VCOPOSRemoteOrderDisplay@@@ATL@@WNI@EAAKXZ 0000000180001d94 f i RemoteOrderDisplay.obj
 0001:00000da0       ?QueryInterface@?$CComObject@VCOPOSRemoteOrderDisplay@@@ATL@@WOA@EAAJAEBU_GUID@@PEAPEAX@Z 0000000180001da0 f i RemoteOrderDisplay.obj
 0001:00000dac       ?AddRef@?$CComObject@VCOPOSRemoteOrderDisplay@@@ATL@@WOA@EAAKXZ 0000000180001dac f i RemoteOrderDisplay.obj
 0001:00000db8       ?Release@?$CComObject@VCOPOSRemoteOrderDisplay@@@ATL@@WOA@EAAKXZ 0000000180001db8 f i RemoteOrderDisplay.obj
 0001:00000dc4       ?QueryInterface@?$CComObject@VCOPOSRemoteOrderDisplay@@@ATL@@WOI@EAAJAEBU_GUID@@PEAPEAX@Z 0000000180001dc4 f i RemoteOrderDisplay.obj
 0001:00000dd0       ?AddRef@?$CComObject@VCOPOSRemoteOrderDisplay@@@ATL@@WOI@EAAKXZ 0000000180001dd0 f i RemoteOrderDisplay.obj
 0001:00000ddc       ?Release@?$CComObject@VCOPOSRemoteOrderDisplay@@@ATL@@WOI@EAAKXZ 0000000180001ddc f i RemoteOrderDisplay.obj
 0001:00000de8       ?QueryInterface@?$CComObject@VCOPOSRemoteOrderDisplay@@@ATL@@WPA@EAAJAEBU_GUID@@PEAPEAX@Z 0000000180001de8 f i RemoteOrderDisplay.obj
 0001:00000df4       ?AddRef@?$CComObject@VCOPOSRemoteOrderDisplay@@@ATL@@WPA@EAAKXZ 0000000180001df4 f i RemoteOrderDisplay.obj
 0001:00000e00       ?Release@?$CComObject@VCOPOSRemoteOrderDisplay@@@ATL@@WPA@EAAKXZ 0000000180001e00 f i RemoteOrderDisplay.obj
 0001:00000e0c       ?QueryInterface@?$CComObject@VCOPOSRemoteOrderDisplay@@@ATL@@WPI@EAAJAEBU_GUID@@PEAPEAX@Z 0000000180001e0c f i RemoteOrderDisplay.obj
 0001:00000e18       ?AddRef@?$CComObject@VCOPOSRemoteOrderDisplay@@@ATL@@WPI@EAAKXZ 0000000180001e18 f i RemoteOrderDisplay.obj
 0001:00000e24       ?Release@?$CComObject@VCOPOSRemoteOrderDisplay@@@ATL@@WPI@EAAKXZ 0000000180001e24 f i RemoteOrderDisplay.obj
 0001:00000e30       ?QueryInterface@?$CComObject@VCOPOSRemoteOrderDisplay@@@ATL@@WBAA@EAAJAEBU_GUID@@PEAPEAX@Z 0000000180001e30 f i RemoteOrderDisplay.obj
 0001:00000e3c       ?AddRef@?$CComObject@VCOPOSRemoteOrderDisplay@@@ATL@@WBAA@EAAKXZ 0000000180001e3c f i RemoteOrderDisplay.obj
 0001:00000e48       ?Release@?$CComObject@VCOPOSRemoteOrderDisplay@@@ATL@@WBAA@EAAKXZ 0000000180001e48 f i RemoteOrderDisplay.obj
 0001:00000e54       ?QueryInterface@?$CComObject@VCOPOSRemoteOrderDisplay@@@ATL@@WBAI@EAAJAEBU_GUID@@PEAPEAX@Z 0000000180001e54 f i RemoteOrderDisplay.obj
 0001:00000e60       ?AddRef@?$CComObject@VCOPOSRemoteOrderDisplay@@@ATL@@WBAI@EAAKXZ 0000000180001e60 f i RemoteOrderDisplay.obj
 0001:00000e6c       ?Release@?$CComObject@VCOPOSRemoteOrderDisplay@@@ATL@@WBAI@EAAKXZ 0000000180001e6c f i RemoteOrderDisplay.obj
 0001:00000e78       ?QueryInterface@?$CComObject@VCOPOSRemoteOrderDisplay@@@ATL@@WBBA@EAAJAEBU_GUID@@PEAPEAX@Z 0000000180001e78 f i RemoteOrderDisplay.obj
 0001:00000e84       ?AddRef@?$CComObject@VCOPOSRemoteOrderDisplay@@@ATL@@WBBA@EAAKXZ 0000000180001e84 f i RemoteOrderDisplay.obj
 0001:00000e90       ?Release@?$CComObject@VCOPOSRemoteOrderDisplay@@@ATL@@WBBA@EAAKXZ 0000000180001e90 f i RemoteOrderDisplay.obj
 0001:00000e9c       ?QueryInterface@?$CComObject@VCOPOSRemoteOrderDisplay@@@ATL@@WBBI@EAAJAEBU_GUID@@PEAPEAX@Z 0000000180001e9c f i RemoteOrderDisplay.obj
 0001:00000ea8       ?AddRef@?$CComObject@VCOPOSRemoteOrderDisplay@@@ATL@@WBBI@EAAKXZ 0000000180001ea8 f i RemoteOrderDisplay.obj
 0001:00000eb4       ?Release@?$CComObject@VCOPOSRemoteOrderDisplay@@@ATL@@WBBI@EAAKXZ 0000000180001eb4 f i RemoteOrderDisplay.obj
 0001:00000ec0       ?AddRef@?$CComObject@VCOPOSRemoteOrderDisplay@@@ATL@@WBCI@EAAKXZ 0000000180001ec0 f i RemoteOrderDisplay.obj
 0001:00000ecc       ?Release@?$CComObject@VCOPOSRemoteOrderDisplay@@@ATL@@WBCI@EAAKXZ 0000000180001ecc f i RemoteOrderDisplay.obj
 0001:00000ed8       ?AddRef@?$CComObject@VCOPOSRemoteOrderDisplay@@@ATL@@WBEA@EAAKXZ 0000000180001ed8 f i RemoteOrderDisplay.obj
 0001:00000ee4       ?Release@?$CComObject@VCOPOSRemoteOrderDisplay@@@ATL@@WBEA@EAAKXZ 0000000180001ee4 f i RemoteOrderDisplay.obj
 0001:00000ef0       ??_E?$CComContainedObject@VCOPOSRemoteOrderDisplay@@@ATL@@W7EAAPEAXI@Z 0000000180001ef0 f i RemoteOrderDisplay.obj
 0001:00000efc       ??_E?$CComContainedObject@VCOPOSRemoteOrderDisplay@@@ATL@@WHA@EAAPEAXI@Z 0000000180001efc f i RemoteOrderDisplay.obj
 0001:00000f08       ?QueryInterface@?$CComContainedObject@VCOPOSRemoteOrderDisplay@@@ATL@@WLI@EAAJAEBU_GUID@@PEAPEAX@Z 0000000180001f08 f i RemoteOrderDisplay.obj
 0001:00000f14       ?AddRef@?$CComContainedObject@VCOPOSRemoteOrderDisplay@@@ATL@@WLI@EAAKXZ 0000000180001f14 f i RemoteOrderDisplay.obj
 0001:00000f20       ?Release@?$CComContainedObject@VCOPOSRemoteOrderDisplay@@@ATL@@WLI@EAAKXZ 0000000180001f20 f i RemoteOrderDisplay.obj
 0001:00000f2c       ?QueryInterface@?$CComContainedObject@VCOPOSRemoteOrderDisplay@@@ATL@@WMA@EAAJAEBU_GUID@@PEAPEAX@Z 0000000180001f2c f i RemoteOrderDisplay.obj
 0001:00000f38       ?AddRef@?$CComContainedObject@VCOPOSRemoteOrderDisplay@@@ATL@@WMA@EAAKXZ 0000000180001f38 f i RemoteOrderDisplay.obj
 0001:00000f44       ?Release@?$CComContainedObject@VCOPOSRemoteOrderDisplay@@@ATL@@WMA@EAAKXZ 0000000180001f44 f i RemoteOrderDisplay.obj
 0001:00000f50       ?QueryInterface@?$CComContainedObject@VCOPOSRemoteOrderDisplay@@@ATL@@WMI@EAAJAEBU_GUID@@PEAPEAX@Z 0000000180001f50 f i RemoteOrderDisplay.obj
 0001:00000f5c       ?AddRef@?$CComContainedObject@VCOPOSRemoteOrderDisplay@@@ATL@@WMI@EAAKXZ 0000000180001f5c f i RemoteOrderDisplay.obj
 0001:00000f68       ?Release@?$CComContainedObject@VCOPOSRemoteOrderDisplay@@@ATL@@WMI@EAAKXZ 0000000180001f68 f i RemoteOrderDisplay.obj
 0001:00000f74       ?QueryInterface@?$CComContainedObject@VCOPOSRemoteOrderDisplay@@@ATL@@WNA@EAAJAEBU_GUID@@PEAPEAX@Z 0000000180001f74 f i RemoteOrderDisplay.obj
 0001:00000f80       ?AddRef@?$CComContainedObject@VCOPOSRemoteOrderDisplay@@@ATL@@WNA@EAAKXZ 0000000180001f80 f i RemoteOrderDisplay.obj
 0001:00000f8c       ?Release@?$CComContainedObject@VCOPOSRemoteOrderDisplay@@@ATL@@WNA@EAAKXZ 0000000180001f8c f i RemoteOrderDisplay.obj
 0001:00000f98       ?QueryInterface@?$CComContainedObject@VCOPOSRemoteOrderDisplay@@@ATL@@WNI@EAAJAEBU_GUID@@PEAPEAX@Z 0000000180001f98 f i RemoteOrderDisplay.obj
 0001:00000fa4       ?AddRef@?$CComContainedObject@VCOPOSRemoteOrderDisplay@@@ATL@@WNI@EAAKXZ 0000000180001fa4 f i RemoteOrderDisplay.obj
 0001:00000fb0       ?Release@?$CComContainedObject@VCOPOSRemoteOrderDisplay@@@ATL@@WNI@EAAKXZ 0000000180001fb0 f i RemoteOrderDisplay.obj
 0001:00000fbc       ?QueryInterface@?$CComContainedObject@VCOPOSRemoteOrderDisplay@@@ATL@@WOA@EAAJAEBU_GUID@@PEAPEAX@Z 0000000180001fbc f i RemoteOrderDisplay.obj
 0001:00000fc8       ?AddRef@?$CComContainedObject@VCOPOSRemoteOrderDisplay@@@ATL@@WOA@EAAKXZ 0000000180001fc8 f i RemoteOrderDisplay.obj
 0001:00000fd4       ?Release@?$CComContainedObject@VCOPOSRemoteOrderDisplay@@@ATL@@WOA@EAAKXZ 0000000180001fd4 f i RemoteOrderDisplay.obj
 0001:00000fe0       ?QueryInterface@?$CComContainedObject@VCOPOSRemoteOrderDisplay@@@ATL@@WOI@EAAJAEBU_GUID@@PEAPEAX@Z 0000000180001fe0 f i RemoteOrderDisplay.obj
 0001:00000fec       ?AddRef@?$CComContainedObject@VCOPOSRemoteOrderDisplay@@@ATL@@WOI@EAAKXZ 0000000180001fec f i RemoteOrderDisplay.obj
 0001:00000ff8       ?Release@?$CComContainedObject@VCOPOSRemoteOrderDisplay@@@ATL@@WOI@EAAKXZ 0000000180001ff8 f i RemoteOrderDisplay.obj
 0001:00001004       ?QueryInterface@?$CComContainedObject@VCOPOSRemoteOrderDisplay@@@ATL@@WPA@EAAJAEBU_GUID@@PEAPEAX@Z 0000000180002004 f i RemoteOrderDisplay.obj
 0001:00001010       ?AddRef@?$CComContainedObject@VCOPOSRemoteOrderDisplay@@@ATL@@WPA@EAAKXZ 0000000180002010 f i RemoteOrderDisplay.obj
 0001:0000101c       ?Release@?$CComContainedObject@VCOPOSRemoteOrderDisplay@@@ATL@@WPA@EAAKXZ 000000018000201c f i RemoteOrderDisplay.obj
 0001:00001028       ?QueryInterface@?$CComContainedObject@VCOPOSRemoteOrderDisplay@@@ATL@@WPI@EAAJAEBU_GUID@@PEAPEAX@Z 0000000180002028 f i RemoteOrderDisplay.obj
 0001:00001034       ?AddRef@?$CComContainedObject@VCOPOSRemoteOrderDisplay@@@ATL@@WPI@EAAKXZ 0000000180002034 f i RemoteOrderDisplay.obj
 0001:00001040       ?Release@?$CComContainedObject@VCOPOSRemoteOrderDisplay@@@ATL@@WPI@EAAKXZ 0000000180002040 f i RemoteOrderDisplay.obj
 0001:0000104c       ?QueryInterface@?$CComContainedObject@VCOPOSRemoteOrderDisplay@@@ATL@@WBAA@EAAJAEBU_GUID@@PEAPEAX@Z 000000018000204c f i RemoteOrderDisplay.obj
 0001:00001058       ?AddRef@?$CComContainedObject@VCOPOSRemoteOrderDisplay@@@ATL@@WBAA@EAAKXZ 0000000180002058 f i RemoteOrderDisplay.obj
 0001:00001064       ?Release@?$CComContainedObject@VCOPOSRemoteOrderDisplay@@@ATL@@WBAA@EAAKXZ 0000000180002064 f i RemoteOrderDisplay.obj
 0001:00001070       ?QueryInterface@?$CComContainedObject@VCOPOSRemoteOrderDisplay@@@ATL@@WBAI@EAAJAEBU_GUID@@PEAPEAX@Z 0000000180002070 f i RemoteOrderDisplay.obj
 0001:0000107c       ?AddRef@?$CComContainedObject@VCOPOSRemoteOrderDisplay@@@ATL@@WBAI@EAAKXZ 000000018000207c f i RemoteOrderDisplay.obj
 0001:00001088       ?Release@?$CComContainedObject@VCOPOSRemoteOrderDisplay@@@ATL@@WBAI@EAAKXZ 0000000180002088 f i RemoteOrderDisplay.obj
 0001:00001094       ?QueryInterface@?$CComContainedObject@VCOPOSRemoteOrderDisplay@@@ATL@@WBBA@EAAJAEBU_GUID@@PEAPEAX@Z 0000000180002094 f i RemoteOrderDisplay.obj
 0001:000010a0       ?AddRef@?$CComContainedObject@VCOPOSRemoteOrderDisplay@@@ATL@@WBBA@EAAKXZ 00000001800020a0 f i RemoteOrderDisplay.obj
 0001:000010ac       ?Release@?$CComContainedObject@VCOPOSRemoteOrderDisplay@@@ATL@@WBBA@EAAKXZ 00000001800020ac f i RemoteOrderDisplay.obj
 0001:000010b8       ?QueryInterface@?$CComContainedObject@VCOPOSRemoteOrderDisplay@@@ATL@@WBBI@EAAJAEBU_GUID@@PEAPEAX@Z 00000001800020b8 f i RemoteOrderDisplay.obj
 0001:000010c4       ?AddRef@?$CComContainedObject@VCOPOSRemoteOrderDisplay@@@ATL@@WBBI@EAAKXZ 00000001800020c4 f i RemoteOrderDisplay.obj
 0001:000010d0       ?Release@?$CComContainedObject@VCOPOSRemoteOrderDisplay@@@ATL@@WBBI@EAAKXZ 00000001800020d0 f i RemoteOrderDisplay.obj
 0001:000010dc       ?AddRef@?$CComContainedObject@VCOPOSRemoteOrderDisplay@@@ATL@@WBCI@EAAKXZ 00000001800020dc f i RemoteOrderDisplay.obj
 0001:000010e8       ?Release@?$CComContainedObject@VCOPOSRemoteOrderDisplay@@@ATL@@WBCI@EAAKXZ 00000001800020e8 f i RemoteOrderDisplay.obj
 0001:000010f4       ?AddRef@?$CComContainedObject@VCOPOSRemoteOrderDisplay@@@ATL@@WBEA@EAAKXZ 00000001800020f4 f i RemoteOrderDisplay.obj
 0001:00001100       ?Release@?$CComContainedObject@VCOPOSRemoteOrderDisplay@@@ATL@@WBEA@EAAKXZ 0000000180002100 f i RemoteOrderDisplay.obj
 0001:0000110c       ?GetWindowProc@?$CWindowImplBaseT@VCWindow@ATL@@V?$CWinTraits@$0FGAAAAAA@$0A@@2@@ATL@@UEAAP6A_JPEAUHWND__@@I_K_J@ZXZ 000000018000210c f i RemoteOrderDisplay.obj
 0001:00001114       ?StartWindowProc@?$CWindowImplBaseT@VCWindow@ATL@@V?$CWinTraits@$0FGAAAAAA@$0A@@2@@ATL@@SA_JPEAUHWND__@@I_K_J@Z 0000000180002114 f i RemoteOrderDisplay.obj
 0001:000011c8       ?GetTypeInfoCount@?$IDispatchImpl@UIOPOSRemoteOrderDisplay@@$1?IID_IOPOSRemoteOrderDisplay@@3U_GUID@@B$1?LIBID_OposRemoteOrderDisplay_CCO@@3U3@B$00$0A@VCComTypeInfoHolder@ATL@@@ATL@@UEAAJPEAI@Z 00000001800021c8 f i RemoteOrderDisplay.obj
 0001:000011dc       ?GetTypeInfo@?$IDispatchImpl@UIOPOSRemoteOrderDisplay@@$1?IID_IOPOSRemoteOrderDisplay@@3U_GUID@@B$1?LIBID_OposRemoteOrderDisplay_CCO@@3U3@B$00$0A@VCComTypeInfoHolder@ATL@@@ATL@@UEAAJIKPEAPEAUITypeInfo@@@Z 00000001800021dc f i RemoteOrderDisplay.obj
 0001:00001240       ?GetIDsOfNames@?$IDispatchImpl@UIOPOSRemoteOrderDisplay@@$1?IID_IOPOSRemoteOrderDisplay@@3U_GUID@@B$1?LIBID_OposRemoteOrderDisplay_CCO@@3U3@B$00$0A@VCComTypeInfoHolder@ATL@@@ATL@@UEAAJAEBU_GUID@@PEAPEA_WIKPEAJ@Z 0000000180002240 f i RemoteOrderDisplay.obj
 0001:0000124c       ?Invoke@?$IDispatchImpl@UIOPOSRemoteOrderDisplay@@$1?IID_IOPOSRemoteOrderDisplay@@3U_GUID@@B$1?LIBID_OposRemoteOrderDisplay_CCO@@3U3@B$00$0A@VCComTypeInfoHolder@ATL@@@ATL@@UEAAJJAEBU_GUID@@KGPEAUtagDISPPARAMS@@PEAUtagVARIANT@@PEAUtagEXCEPINFO@@PEAI@Z 000000018000224c f i RemoteOrderDisplay.obj
 0001:000012dc       ?CreateControlWindow@?$CComControl@VCOPOSRemoteOrderDisplay@@V?$CWindowImpl@VCOPOSRemoteOrderDisplay@@VCWindow@ATL@@V?$CWinTraits@$0FGAAAAAA@$0A@@3@@ATL@@@ATL@@UEAAPEAUHWND__@@PEAU3@AEAUtagRECT@@@Z 00000001800022dc f i RemoteOrderDisplay.obj
 0001:00001314       ?ControlQueryInterface@?$CComControl@VCOPOSRemoteOrderDisplay@@V?$CWindowImpl@VCOPOSRemoteOrderDisplay@@VCWindow@ATL@@V?$CWinTraits@$0FGAAAAAA@$0A@@3@@ATL@@@ATL@@UEAAJAEBU_GUID@@PEAPEAX@Z 0000000180002314 f i RemoteOrderDisplay.obj
 0001:00001328       ?GetUserClassID@?$IOleObjectImpl@VCOPOSRemoteOrderDisplay@@@ATL@@UEAAJPEAU_GUID@@@Z 0000000180002328 f i RemoteOrderDisplay.obj
 0001:00001328       ?GetClassID@?$IPersistStreamInitImpl@VCOPOSRemoteOrderDisplay@@@ATL@@UEAAJPEAU_GUID@@@Z 0000000180002328 f i RemoteOrderDisplay.obj
 0001:00001328       ?GetClassID@?$IPersistStorageImpl@VCOPOSRemoteOrderDisplay@@@ATL@@UEAAJPEAU_GUID@@@Z 0000000180002328 f i RemoteOrderDisplay.obj
 0001:00001344       ?IsDirty@?$IPersistStreamInitImpl@VCOPOSRemoteOrderDisplay@@@ATL@@UEAAJXZ 0000000180002344 f i RemoteOrderDisplay.obj
 0001:00001360       ?Load@?$IPersistStreamInitImpl@VCOPOSRemoteOrderDisplay@@@ATL@@UEAAJPEAUIStream@@@Z 0000000180002360 f i RemoteOrderDisplay.obj
 0001:00001378       ?Save@?$IPersistStreamInitImpl@VCOPOSRemoteOrderDisplay@@@ATL@@UEAAJPEAUIStream@@H@Z 0000000180002378 f i RemoteOrderDisplay.obj
 0001:00001390       ?GetSizeMax@?$IPersistStreamInitImpl@VCOPOSRemoteOrderDisplay@@@ATL@@UEAAJPEAT_ULARGE_INTEGER@@@Z 0000000180002390 f i RemoteOrderDisplay.obj
 0001:000015b4       ?InitNew@?$IPersistStreamInitImpl@VCOPOSRemoteOrderDisplay@@@ATL@@UEAAJXZ 00000001800025b4 f i RemoteOrderDisplay.obj
 0001:000015cc       ?GetColorSet@?$IViewObjectExImpl@VCOPOSRemoteOrderDisplay@@@ATL@@UEAAJKJPEAXPEAUtagDVTARGETDEVICE@@PEAUHDC__@@PEAPEAUtagLOGPALETTE@@@Z 00000001800025cc f i RemoteOrderDisplay.obj
 0001:000015cc       ?ContextSensitiveHelp@?$IOleInPlaceActiveObjectImpl@VCOPOSRemoteOrderDisplay@@@ATL@@UEAAJH@Z 00000001800025cc f i RemoteOrderDisplay.obj
 0001:000015cc       ?QueryInterface@CRegObject@ATL@@UEAAJAEBU_GUID@@PEAPEAX@Z 00000001800025cc f i RemoteOrderDisplay.obj
 0001:000015cc       ?ReactivateAndUndo@?$IOleInPlaceObjectWindowlessImpl@VCOPOSRemoteOrderDisplay@@@ATL@@UEAAJXZ 00000001800025cc f i RemoteOrderDisplay.obj
 0001:000015cc       ?InitFromData@?$IOleObjectImpl@VCOPOSRemoteOrderDisplay@@@ATL@@UEAAJPEAUIDataObject@@HK@Z 00000001800025cc f i RemoteOrderDisplay.obj
 0001:000015cc       ?GetCanonicalFormatEtc@?$IDataObjectImpl@VCOPOSRemoteOrderDisplay@@@ATL@@UEAAJPEAUtagFORMATETC@@0@Z 00000001800025cc f i RemoteOrderDisplay.obj
 0001:000015cc       ?SetMoniker@?$IOleObjectImpl@VCOPOSRemoteOrderDisplay@@@ATL@@UEAAJKPEAUIMoniker@@@Z 00000001800025cc f i RemoteOrderDisplay.obj
 0001:000015cc       ?EnumFormatEtc@?$IDataObjectImpl@VCOPOSRemoteOrderDisplay@@@ATL@@UEAAJKPEAPEAUIEnumFORMATETC@@@Z 00000001800025cc f i RemoteOrderDisplay.obj
 0001:000015cc       ?GetClipboardData@?$IOleObjectImpl@VCOPOSRemoteOrderDisplay@@@ATL@@UEAAJKPEAPEAUIDataObject@@@Z 00000001800025cc f i RemoteOrderDisplay.obj
 0001:000015cc       ?Unfreeze@?$IViewObjectExImpl@VCOPOSRemoteOrderDisplay@@@ATL@@UEAAJK@Z 00000001800025cc f i RemoteOrderDisplay.obj
 0001:000015cc       ?GetMoniker@?$IOleObjectImpl@VCOPOSRemoteOrderDisplay@@@ATL@@UEAAJKKPEAPEAUIMoniker@@@Z 00000001800025cc f i RemoteOrderDisplay.obj
 0001:000015cc       ?OnMnemonic@?$IOleControlImpl@VCOPOSRemoteOrderDisplay@@@ATL@@UEAAJPEAUtagMSG@@@Z 00000001800025cc f i RemoteOrderDisplay.obj
 0001:000015cc       ?SetColorScheme@?$IOleObjectImpl@VCOPOSRemoteOrderDisplay@@@ATL@@UEAAJPEAUtagLOGPALETTE@@@Z 00000001800025cc f i RemoteOrderDisplay.obj
 0001:000015cc       ?QueryGetData@?$IDataObjectImpl@VCOPOSRemoteOrderDisplay@@@ATL@@UEAAJPEAUtagFORMATETC@@@Z 00000001800025cc f i RemoteOrderDisplay.obj
 0001:000015cc       ?GetDataHere@?$IDataObjectImpl@VCOPOSRemoteOrderDisplay@@@ATL@@UEAAJPEAUtagFORMATETC@@PEAUtagSTGMEDIUM@@@Z 00000001800025cc f i RemoteOrderDisplay.obj
 0001:000015cc       ?Freeze@?$IViewObjectExImpl@VCOPOSRemoteOrderDisplay@@@ATL@@UEAAJKJPEAXPEAK@Z 00000001800025cc f i RemoteOrderDisplay.obj
 0001:000015cc       ?ContextSensitiveHelp@?$IOleInPlaceObjectWindowlessImpl@VCOPOSRemoteOrderDisplay@@@ATL@@UEAAJH@Z 00000001800025cc f i RemoteOrderDisplay.obj
 0001:000015cc       ?GetDropTarget@?$IOleInPlaceObjectWindowlessImpl@VCOPOSRemoteOrderDisplay@@@ATL@@UEAAJPEAPEAUIDropTarget@@@Z 00000001800025cc f i RemoteOrderDisplay.obj
 0001:000015cc       ?GetRect@?$IViewObjectExImpl@VCOPOSRemoteOrderDisplay@@@ATL@@UEAAJKPEAU_RECTL@@@Z 00000001800025cc f i RemoteOrderDisplay.obj
 0001:000015cc       ?GetControlInfo@?$IOleControlImpl@VCOPOSRemoteOrderDisplay@@@ATL@@UEAAJPEAUtagCONTROLINFO@@@Z 00000001800025cc f i RemoteOrderDisplay.obj
 0001:000015cc       ?SetData@?$IDataObjectImpl@VCOPOSRemoteOrderDisplay@@@ATL@@UEAAJPEAUtagFORMATETC@@PEAUtagSTGMEDIUM@@H@Z 00000001800025cc f i RemoteOrderDisplay.obj
 0001:000015d4       ?SetClientSite@?$IOleObjectImpl@VCOPOSRemoteOrderDisplay@@@ATL@@UEAAJPEAUIOleClientSite@@@Z 00000001800025d4 f i RemoteOrderDisplay.obj
 0001:000015f0       ?GetClientSite@?$IOleObjectImpl@VCOPOSRemoteOrderDisplay@@@ATL@@UEAAJPEAPEAUIOleClientSite@@@Z 00000001800025f0 f i RemoteOrderDisplay.obj
 0001:00001638       ?Close@?$IOleObjectImpl@VCOPOSRemoteOrderDisplay@@@ATL@@UEAAJK@Z 0000000180002638 f i RemoteOrderDisplay.obj
 0001:00001654       ?DoVerb@?$IOleObjectImpl@VCOPOSRemoteOrderDisplay@@@ATL@@UEAAJJPEAUtagMSG@@PEAUIOleClientSite@@JPEAUHWND__@@PEBUtagRECT@@@Z 0000000180002654 f i RemoteOrderDisplay.obj
 0001:000017f8       ?EnumVerbs@?$IOleObjectImpl@VCOPOSRemoteOrderDisplay@@@ATL@@UEAAJPEAPEAUIEnumOLEVERB@@@Z 00000001800027f8 f i RemoteOrderDisplay.obj
 0001:00001814       ?GetUserType@?$IOleObjectImpl@VCOPOSRemoteOrderDisplay@@@ATL@@UEAAJKPEAPEA_W@Z 0000000180002814 f i RemoteOrderDisplay.obj
 0001:00001824       ?SetExtent@?$IOleObjectImpl@VCOPOSRemoteOrderDisplay@@@ATL@@UEAAJKPEAUtagSIZE@@@Z 0000000180002824 f i RemoteOrderDisplay.obj
 0001:00001840       ?GetExtent@?$IOleObjectImpl@VCOPOSRemoteOrderDisplay@@@ATL@@UEAAJKPEAUtagSIZE@@@Z 0000000180002840 f i RemoteOrderDisplay.obj
 0001:00001870       ?Advise@?$IOleObjectImpl@VCOPOSRemoteOrderDisplay@@@ATL@@UEAAJPEAUIAdviseSink@@PEAK@Z 0000000180002870 f i RemoteOrderDisplay.obj
 0001:000018cc       ?Unadvise@?$IOleObjectImpl@VCOPOSRemoteOrderDisplay@@@ATL@@UEAAJK@Z 00000001800028cc f i RemoteOrderDisplay.obj
 0001:00001904       ?EnumAdvise@?$IOleObjectImpl@VCOPOSRemoteOrderDisplay@@@ATL@@UEAAJPEAPEAUIEnumSTATDATA@@@Z 0000000180002904 f i RemoteOrderDisplay.obj
 0001:0000194c       ?GetMiscStatus@?$IOleObjectImpl@VCOPOSRemoteOrderDisplay@@@ATL@@UEAAJKPEAK@Z 000000018000294c f i RemoteOrderDisplay.obj
 0001:0000195c       ?GetWindow@?$IOleInPlaceActiveObjectImpl@VCOPOSRemoteOrderDisplay@@@ATL@@UEAAJPEAPEAUHWND__@@@Z 000000018000295c f i RemoteOrderDisplay.obj
 0001:000019b0       ?TranslateAcceleratorW@?$IOleInPlaceActiveObjectImpl@VCOPOSRemoteOrderDisplay@@@ATL@@UEAAJPEAUtagMSG@@@Z 00000001800029b0 f i RemoteOrderDisplay.obj
 0001:00001aa4       ?OnDocWindowActivate@?$IOleInPlaceActiveObjectImpl@VCOPOSRemoteOrderDisplay@@@ATL@@UEAAJH@Z 0000000180002aa4 f i RemoteOrderDisplay.obj
 0001:00001ad0       ?Draw@?$IViewObjectExImpl@VCOPOSRemoteOrderDisplay@@@ATL@@UEAAJKJPEAXPEAUtagDVTARGETDEVICE@@PEAUHDC__@@2PEBU_RECTL@@3P6AH_K@Z4@Z 0000000180002ad0 f i RemoteOrderDisplay.obj
 0001:00001b34       ?SetAdvise@?$IViewObjectExImpl@VCOPOSRemoteOrderDisplay@@@ATL@@UEAAJKKPEAUIAdviseSink@@@Z 0000000180002b34 f i RemoteOrderDisplay.obj
 0001:00001b88       ?GetAdvise@?$IViewObjectExImpl@VCOPOSRemoteOrderDisplay@@@ATL@@UEAAJPEAK0PEAPEAUIAdviseSink@@@Z 0000000180002b88 f i RemoteOrderDisplay.obj
 0001:00001bc4       ?GetExtent@?$IViewObjectExImpl@VCOPOSRemoteOrderDisplay@@@ATL@@UEAAJKJPEAUtagDVTARGETDEVICE@@PEAUtagSIZE@@@Z 0000000180002bc4 f i RemoteOrderDisplay.obj
 0001:00001bf4       ?GetViewStatus@?$IViewObjectExImpl@VCOPOSRemoteOrderDisplay@@@ATL@@UEAAJPEAK@Z 0000000180002bf4 f i RemoteOrderDisplay.obj
 0001:00001c08       ?QueryHitPoint@?$IViewObjectExImpl@VCOPOSRemoteOrderDisplay@@@ATL@@UEAAJKPEBUtagRECT@@UtagPOINT@@JPEAK@Z 0000000180002c08 f i RemoteOrderDisplay.obj
 0001:00001c4c       ?QueryHitRect@?$IViewObjectExImpl@VCOPOSRemoteOrderDisplay@@@ATL@@UEAAJKPEBUtagRECT@@0JPEAK@Z 0000000180002c4c f i RemoteOrderDisplay.obj
 0001:00001cb4       ?GetNaturalExtent@?$IViewObjectExImpl@VCOPOSRemoteOrderDisplay@@@ATL@@UEAAJKJPEAUtagDVTARGETDEVICE@@PEAUHDC__@@PEAUtagExtentInfo@@PEAUtagSIZE@@@Z 0000000180002cb4 f i RemoteOrderDisplay.obj
 0001:00001cfc       ?GetWindow@?$IOleInPlaceObjectWindowlessImpl@VCOPOSRemoteOrderDisplay@@@ATL@@UEAAJPEAPEAUHWND__@@@Z 0000000180002cfc f i RemoteOrderDisplay.obj
 0001:00001d50       ?InPlaceDeactivate@?$IOleInPlaceObjectWindowlessImpl@VCOPOSRemoteOrderDisplay@@@ATL@@UEAAJXZ 0000000180002d50 f i RemoteOrderDisplay.obj
 0001:00001d6c       ?UIDeactivate@?$IOleInPlaceObjectWindowlessImpl@VCOPOSRemoteOrderDisplay@@@ATL@@UEAAJXZ 0000000180002d6c f i RemoteOrderDisplay.obj
 0001:00001d88       ?SetObjectRects@?$IOleInPlaceObjectWindowlessImpl@VCOPOSRemoteOrderDisplay@@@ATL@@UEAAJPEBUtagRECT@@0@Z 0000000180002d88 f i RemoteOrderDisplay.obj
 0001:00001da4       ?OnWindowMessage@?$IOleInPlaceObjectWindowlessImpl@VCOPOSRemoteOrderDisplay@@@ATL@@UEAAJI_K_JPEA_J@Z 0000000180002da4 f i RemoteOrderDisplay.obj
 0001:00001e6c       ?EnumConnectionPoints@?$IConnectionPointContainerImpl@VCOPOSRemoteOrderDisplay@@@ATL@@UEAAJPEAPEAUIEnumConnectionPoints@@@Z 0000000180002e6c f i RemoteOrderDisplay.obj
 0001:000020b4       ?FindConnectionPoint@?$IConnectionPointContainerImpl@VCOPOSRemoteOrderDisplay@@@ATL@@UEAAJAEBU_GUID@@PEAPEAUIConnectionPoint@@@Z 00000001800030b4 f i RemoteOrderDisplay.obj
 0001:00002184       ?IsDirty@?$IPersistStorageImpl@VCOPOSRemoteOrderDisplay@@@ATL@@UEAAJXZ 0000000180003184 f i RemoteOrderDisplay.obj
 0001:000021c4       ?InitNew@?$IPersistStorageImpl@VCOPOSRemoteOrderDisplay@@@ATL@@UEAAJPEAUIStorage@@@Z 00000001800031c4 f i RemoteOrderDisplay.obj
 0001:00002204       ?Load@?$IPersistStorageImpl@VCOPOSRemoteOrderDisplay@@@ATL@@UEAAJPEAUIStorage@@@Z 0000000180003204 f i RemoteOrderDisplay.obj
 0001:000022a4       ?Save@?$IPersistStorageImpl@VCOPOSRemoteOrderDisplay@@@ATL@@UEAAJPEAUIStorage@@H@Z 00000001800032a4 f i RemoteOrderDisplay.obj
 0001:00002354       ?GetPages@?$ISpecifyPropertyPagesImpl@VCOPOSRemoteOrderDisplay@@@ATL@@UEAAJPEAUtagCAUUID@@@Z 0000000180003354 f i RemoteOrderDisplay.obj
 0001:00002360       ?QuickActivate@?$IQuickActivateImpl@VCOPOSRemoteOrderDisplay@@@ATL@@UEAAJPEAUtagQACONTAINER@@PEAUtagQACONTROL@@@Z 0000000180003360 f i RemoteOrderDisplay.obj
 0001:0000237c       ?SetContentExtent@?$IQuickActivateImpl@VCOPOSRemoteOrderDisplay@@@ATL@@UEAAJPEAUtagSIZE@@@Z 000000018000337c f i RemoteOrderDisplay.obj
 0001:000023b0       ?GetContentExtent@?$IQuickActivateImpl@VCOPOSRemoteOrderDisplay@@@ATL@@UEAAJPEAUtagSIZE@@@Z 00000001800033b0 f i RemoteOrderDisplay.obj
 0001:000023e8       ?GetData@?$IDataObjectImpl@VCOPOSRemoteOrderDisplay@@@ATL@@UEAAJPEAUtagFORMATETC@@PEAUtagSTGMEDIUM@@@Z 00000001800033e8 f i RemoteOrderDisplay.obj
 0001:00002404       ?DAdvise@?$IDataObjectImpl@VCOPOSRemoteOrderDisplay@@@ATL@@UEAAJPEAUtagFORMATETC@@KPEAUIAdviseSink@@PEAK@Z 0000000180003404 f i RemoteOrderDisplay.obj
 0001:0000248c       ?DUnadvise@?$IDataObjectImpl@VCOPOSRemoteOrderDisplay@@@ATL@@UEAAJK@Z 000000018000348c f i RemoteOrderDisplay.obj
 0001:000024b8       ?EnumDAdvise@?$IDataObjectImpl@VCOPOSRemoteOrderDisplay@@@ATL@@UEAAJPEAPEAUIEnumSTATDATA@@@Z 00000001800034b8 f i RemoteOrderDisplay.obj
 0001:000024f4       ?GetClassInfoW@?$IProvideClassInfo2Impl@$1?CLSID_OPOSRemoteOrderDisplay@@3U_GUID@@B$1?DIID__IOPOSRemoteOrderDisplayEvents@@3U2@B$1?LIBID_OposRemoteOrderDisplay_CCO@@3U2@B$00$0A@VCComTypeInfoHolder@ATL@@@ATL@@UEAAJPEAPEAUITypeInfo@@@Z 00000001800034f4 f i RemoteOrderDisplay.obj
 0001:0000254c       ?GetGUID@?$IProvideClassInfo2Impl@$1?CLSID_OPOSRemoteOrderDisplay@@3U_GUID@@B$1?DIID__IOPOSRemoteOrderDisplayEvents@@3U2@B$1?LIBID_OposRemoteOrderDisplay_CCO@@3U2@B$00$0A@VCComTypeInfoHolder@ATL@@@ATL@@UEAAJKPEAU_GUID@@@Z 000000018000354c f i RemoteOrderDisplay.obj
 0001:00002580       ?AddRef@CRegObject@ATL@@UEAAKXZ 0000000180003580 f i RemoteOrderDisplay.obj
 0001:00002580       _get_startup_argv_mode     0000000180003580 f i LIBCMT:argv_mode.obj
 0001:00002580       ?FAccessAllowed@?$IObjectSafetyImpl@VCOPOSRemoteOrderDisplay@@$02@ATL@@MEAAHXZ 0000000180003580 f i RemoteOrderDisplay.obj
 0001:00002588       ?GetInterfaceSafetyOptions@?$IObjectSafetyImpl@VCOPOSRemoteOrderDisplay@@$02@ATL@@UEAAJAEBU_GUID@@PEAK1@Z 0000000180003588 f i RemoteOrderDisplay.obj
 0001:0000261c       ?SetInterfaceSafetyOptions@?$IObjectSafetyImpl@VCOPOSRemoteOrderDisplay@@$02@ATL@@UEAAJAEBU_GUID@@KK@Z 000000018000361c f i RemoteOrderDisplay.obj
 0001:000026c0       ?_LocCPQueryInterface@?$IConnectionPointImpl@VCOPOSRemoteOrderDisplay@@$1?DIID__IOPOSRemoteOrderDisplayEvents@@3U_GUID@@BVCComDynamicUnkArray@ATL@@@ATL@@UEAAJAEBU_GUID@@PEAPEAX@Z 00000001800036c0 f i RemoteOrderDisplay.obj
 0001:000026c0       ?_LocCPQueryInterface@?$IConnectionPointImpl@VCOPOSRemoteOrderDisplay@@$1?IID_IPropertyNotifySink@@3U_GUID@@BVCComDynamicUnkArray@ATL@@@ATL@@UEAAJAEBU_GUID@@PEAPEAX@Z 00000001800036c0 f i RemoteOrderDisplay.obj
 0001:00002734       ?GetConnectionInterface@?$IConnectionPointImpl@VCOPOSRemoteOrderDisplay@@$1?IID_IPropertyNotifySink@@3U_GUID@@BVCComDynamicUnkArray@ATL@@@ATL@@UEAAJPEAU_GUID@@@Z 0000000180003734 f i RemoteOrderDisplay.obj
 0001:00002750       ?GetConnectionPointContainer@?$IConnectionPointImpl@VCOPOSRemoteOrderDisplay@@$1?IID_IPropertyNotifySink@@3U_GUID@@BVCComDynamicUnkArray@ATL@@@ATL@@UEAAJPEAPEAUIConnectionPointContainer@@@Z 0000000180003750 f i RemoteOrderDisplay.obj
 0001:00002770       ?Advise@?$IConnectionPointImpl@VCOPOSRemoteOrderDisplay@@$1?DIID__IOPOSRemoteOrderDisplayEvents@@3U_GUID@@BVCComDynamicUnkArray@ATL@@@ATL@@UEAAJPEAUIUnknown@@PEAK@Z 0000000180003770 f i RemoteOrderDisplay.obj
 0001:00002770       ?Advise@?$IConnectionPointImpl@VCOPOSRemoteOrderDisplay@@$1?IID_IPropertyNotifySink@@3U_GUID@@BVCComDynamicUnkArray@ATL@@@ATL@@UEAAJPEAUIUnknown@@PEAK@Z 0000000180003770 f i RemoteOrderDisplay.obj
 0001:0000282c       ?Unadvise@?$IConnectionPointImpl@VCOPOSRemoteOrderDisplay@@$1?DIID__IOPOSRemoteOrderDisplayEvents@@3U_GUID@@BVCComDynamicUnkArray@ATL@@@ATL@@UEAAJK@Z 000000018000382c f i RemoteOrderDisplay.obj
 0001:0000282c       ?Unadvise@?$IConnectionPointImpl@VCOPOSRemoteOrderDisplay@@$1?IID_IPropertyNotifySink@@3U_GUID@@BVCComDynamicUnkArray@ATL@@@ATL@@UEAAJK@Z 000000018000382c f i RemoteOrderDisplay.obj
 0001:00002894       ?EnumConnections@?$IConnectionPointImpl@VCOPOSRemoteOrderDisplay@@$1?DIID__IOPOSRemoteOrderDisplayEvents@@3U_GUID@@BVCComDynamicUnkArray@ATL@@@ATL@@UEAAJPEAPEAUIEnumConnections@@@Z 0000000180003894 f i RemoteOrderDisplay.obj
 0001:00002894       ?EnumConnections@?$IConnectionPointImpl@VCOPOSRemoteOrderDisplay@@$1?IID_IPropertyNotifySink@@3U_GUID@@BVCComDynamicUnkArray@ATL@@@ATL@@UEAAJPEAPEAUIEnumConnections@@@Z 0000000180003894 f i RemoteOrderDisplay.obj
 0001:00002a28       ?Lock@CAtlModule@ATL@@UEAAJXZ 0000000180003a28 f i RemoteOrderDisplay.obj
 0001:00002a38       ?Unlock@CAtlModule@ATL@@UEAAJXZ 0000000180003a38 f i RemoteOrderDisplay.obj
 0001:00002a44       ?GetLockCount@CAtlModule@ATL@@UEAAJXZ 0000000180003a44 f i RemoteOrderDisplay.obj
 0001:00002a48       ?GetGITPtr@CAtlModule@ATL@@UEAAJPEAPEAUIGlobalInterfaceTable@@@Z 0000000180003a48 f i RemoteOrderDisplay.obj
 0001:00002ab8       ?GetConnectionInterface@?$IConnectionPointImpl@VCOPOSRemoteOrderDisplay@@$1?DIID__IOPOSRemoteOrderDisplayEvents@@3U_GUID@@BVCComDynamicUnkArray@ATL@@@ATL@@UEAAJPEAU_GUID@@@Z 0000000180003ab8 f i RemoteOrderDisplay.obj
 0001:00002ad4       ?GetConnectionPointContainer@?$IConnectionPointImpl@VCOPOSRemoteOrderDisplay@@$1?DIID__IOPOSRemoteOrderDisplayEvents@@3U_GUID@@BVCComDynamicUnkArray@ATL@@@ATL@@UEAAJPEAPEAUIConnectionPointContainer@@@Z 0000000180003ad4 f i RemoteOrderDisplay.obj
 0001:00002af4       ?UpdateRegistry@COPOSRemoteOrderDisplay@@SAJH@Z 0000000180003af4 f i RemoteOrderDisplay.obj
 0001:00002b0c       ?ProcessWindowMessage@COPOSRemoteOrderDisplay@@UEAAHPEAUHWND__@@I_K_JAEA_JK@Z 0000000180003b0c f i RemoteOrderDisplay.obj
 0001:00002b9c       ?SOData@COPOSRemoteOrderDisplay@@MEAAJJ@Z 0000000180003b9c f i RemoteOrderDisplay.obj
 0001:00002bec       ?SODirectIO@COPOSRemoteOrderDisplay@@MEAAJJPEAJPEAPEA_W@Z 0000000180003bec f i RemoteOrderDisplay.obj
 0001:00002c64       ?SOError@COPOSRemoteOrderDisplay@@MEAAJJJJPEAJ@Z 0000000180003c64 f i RemoteOrderDisplay.obj
 0001:00002cec       ?SOOutputComplete@COPOSRemoteOrderDisplay@@MEAAJJ@Z 0000000180003cec f i RemoteOrderDisplay.obj
 0001:00002d3c       ?SOStatusUpdate@COPOSRemoteOrderDisplay@@MEAAJJ@Z 0000000180003d3c f i RemoteOrderDisplay.obj
 0001:00002d8c       ?AddCommonRGSReplacements@?$CAtlModuleT@VCComModule@ATL@@@ATL@@UEAAJPEAUIRegistrarBase@@@Z 0000000180003d8c f i RemoteOrderDisplay.obj
 0001:00002da4       ?UpdateRegistryFromResourceD@CComModule@ATL@@UEAAJPEB_WHPEAU_ATL_REGMAP_ENTRY@2@@Z 0000000180003da4 f i RemoteOrderDisplay.obj
 0001:00002da4       ?UpdateRegistryFromResourceD@CComModule@ATL@@UEAAJIHPEAU_ATL_REGMAP_ENTRY@2@@Z 0000000180003da4 f i RemoteOrderDisplay.obj
 0001:00002dac       ?UpdateRegistryFromResource@CComModule@ATL@@UEAAJPEB_WHPEAU_ATL_REGMAP_ENTRY@2@@Z 0000000180003dac f i RemoteOrderDisplay.obj
 0001:00002db4       ?UpdateRegistryFromResource@CComModule@ATL@@UEAAJIHPEAU_ATL_REGMAP_ENTRY@2@@Z 0000000180003db4 f i RemoteOrderDisplay.obj
 0001:00002dbc       ??_ECComModule@ATL@@UEAAPEAXI@Z 0000000180003dbc f i RemoteOrderDisplay.obj
 0001:00002dbc       ??_GCComModule@ATL@@UEAAPEAXI@Z 0000000180003dbc f i RemoteOrderDisplay.obj
 0001:00002dfc       ?CreateInstance@?$CComCreator@V?$CComObjectCached@VCComClassFactory@ATL@@@ATL@@@ATL@@SAJPEAXAEBU_GUID@@PEAPEAX@Z 0000000180003dfc f i RemoteOrderDisplay.obj
 0001:00002f20       ?CreateInstance@?$CComCreator2@V?$CComCreator@V?$CComObject@VCOPOSRemoteOrderDisplay@@@ATL@@@ATL@@V?$CComCreator@V?$CComAggObject@VCOPOSRemoteOrderDisplay@@@ATL@@@2@@ATL@@SAJPEAXAEBU_GUID@@PEAPEAX@Z 0000000180003f20 f i RemoteOrderDisplay.obj
 0001:00002f30       ?AddRef@?$CComObjectCached@VCComClassFactory@ATL@@@ATL@@UEAAKXZ 0000000180003f30 f i RemoteOrderDisplay.obj
 0001:00002f5c       ?Release@?$CComObjectCached@VCComClassFactory@ATL@@@ATL@@UEAAKXZ 0000000180003f5c f i RemoteOrderDisplay.obj
 0001:00002f9c       ?QueryInterface@?$CComObjectCached@VCComClassFactory@ATL@@@ATL@@UEAAJAEBU_GUID@@PEAPEAX@Z 0000000180003f9c f i RemoteOrderDisplay.obj
 0001:00002fb0       ??_E?$CComObjectCached@VCComClassFactory@ATL@@@ATL@@UEAAPEAXI@Z 0000000180003fb0 f i RemoteOrderDisplay.obj
 0001:00002fb0       ??_G?$CComObjectCached@VCComClassFactory@ATL@@@ATL@@UEAAPEAXI@Z 0000000180003fb0 f i RemoteOrderDisplay.obj
 0001:00003008       ?Next@?$CComEnumImpl@UIEnumConnectionPoints@@$1?_GUID_b196b285_bab4_101a_b69c_00aa00341d07@@3U__s_GUID@@BPEAUIConnectionPoint@@V?$_CopyInterface@UIConnectionPoint@@@ATL@@@ATL@@UEAAJKPEAPEAUIConnectionPoint@@PEAK@Z 0000000180004008 f i RemoteOrderDisplay.obj
 0001:000030cc       ?Skip@?$CComEnumImpl@UIEnumConnectionPoints@@$1?_GUID_b196b285_bab4_101a_b69c_00aa00341d07@@3U__s_GUID@@BPEAUIConnectionPoint@@V?$_CopyInterface@UIConnectionPoint@@@ATL@@@ATL@@UEAAJK@Z 00000001800040cc f i RemoteOrderDisplay.obj
 0001:000030f8       ?Clone@?$CComEnumImpl@UIEnumConnectionPoints@@$1?_GUID_b196b285_bab4_101a_b69c_00aa00341d07@@3U__s_GUID@@BPEAUIConnectionPoint@@V?$_CopyInterface@UIConnectionPoint@@@ATL@@@ATL@@UEAAJPEAPEAUIEnumConnectionPoints@@@Z 00000001800040f8 f i RemoteOrderDisplay.obj
 0001:00003224       ?QueryInterface@?$CComObject@V?$CComEnum@UIEnumConnectionPoints@@$1?_GUID_b196b285_bab4_101a_b69c_00aa00341d07@@3U__s_GUID@@BPEAUIConnectionPoint@@V?$_CopyInterface@UIConnectionPoint@@@ATL@@VCComSingleThreadModel@6@@ATL@@@ATL@@UEAAJAEBU_GUID@@PEAPEAX@Z 0000000180004224 f i RemoteOrderDisplay.obj
 0001:00003238       ??_E?$CComObject@V?$CComEnum@UIEnumConnectionPoints@@$1?_GUID_b196b285_bab4_101a_b69c_00aa00341d07@@3U__s_GUID@@BPEAUIConnectionPoint@@V?$_CopyInterface@UIConnectionPoint@@@ATL@@VCComSingleThreadModel@6@@ATL@@@ATL@@UEAAPEAXI@Z 0000000180004238 f i RemoteOrderDisplay.obj
 0001:00003238       ??_G?$CComObject@V?$CComEnum@UIEnumConnectionPoints@@$1?_GUID_b196b285_bab4_101a_b69c_00aa00341d07@@3U__s_GUID@@BPEAUIConnectionPoint@@V?$_CopyInterface@UIConnectionPoint@@@ATL@@VCComSingleThreadModel@6@@ATL@@@ATL@@UEAAPEAXI@Z 0000000180004238 f i RemoteOrderDisplay.obj
 0001:00003290       ?AddReplacement@CRegObject@ATL@@UEAAJPEB_W0@Z 0000000180004290 f i RemoteOrderDisplay.obj
 0001:000032c0       ?ClearReplacements@CRegObject@ATL@@UEAAJXZ 00000001800042c0 f i RemoteOrderDisplay.obj
 0001:000032cc       ??_ECRegObject@ATL@@UEAAPEAXI@Z 00000001800042cc f i RemoteOrderDisplay.obj
 0001:000032cc       ??_GCRegObject@ATL@@UEAAPEAXI@Z 00000001800042cc f i RemoteOrderDisplay.obj
 0001:0000334c       ?AddRef@?$CComAggObject@VCOPOSRemoteOrderDisplay@@@ATL@@UEAAKXZ 000000018000434c f i RemoteOrderDisplay.obj
 0001:00003358       ?Release@?$CComAggObject@VCOPOSRemoteOrderDisplay@@@ATL@@UEAAKXZ 0000000180004358 f i RemoteOrderDisplay.obj
 0001:000033ac       ?QueryInterface@?$CComAggObject@VCOPOSRemoteOrderDisplay@@@ATL@@UEAAJAEBU_GUID@@PEAPEAX@Z 00000001800043ac f i RemoteOrderDisplay.obj
 0001:0000340c       ?AddRef@?$CComContainedObject@VCOPOSRemoteOrderDisplay@@@ATL@@UEAAKXZ 000000018000440c f i RemoteOrderDisplay.obj
 0001:0000341c       ?Release@?$CComContainedObject@VCOPOSRemoteOrderDisplay@@@ATL@@UEAAKXZ 000000018000441c f i RemoteOrderDisplay.obj
 0001:0000342c       ?QueryInterface@?$CComContainedObject@VCOPOSRemoteOrderDisplay@@@ATL@@UEAAJAEBU_GUID@@PEAPEAX@Z 000000018000442c f i RemoteOrderDisplay.obj
 0001:0000343c       ??_G?$CComAggObject@VCOPOSRemoteOrderDisplay@@@ATL@@UEAAPEAXI@Z 000000018000443c f i RemoteOrderDisplay.obj
 0001:0000343c       ??_E?$CComAggObject@VCOPOSRemoteOrderDisplay@@@ATL@@UEAAPEAXI@Z 000000018000443c f i RemoteOrderDisplay.obj
 0001:00003494       ?AddRef@?$CComObject@VCOPOSRemoteOrderDisplay@@@ATL@@UEAAKXZ 0000000180004494 f i RemoteOrderDisplay.obj
 0001:000034a4       ?Release@?$CComObject@VCOPOSRemoteOrderDisplay@@@ATL@@UEAAKXZ 00000001800044a4 f i RemoteOrderDisplay.obj
 0001:000034fc       ?QueryInterface@?$CComObject@VCOPOSRemoteOrderDisplay@@@ATL@@UEAAJAEBU_GUID@@PEAPEAX@Z 00000001800044fc f i RemoteOrderDisplay.obj
 0001:00003510       ?OnDrawAdvanced@CComControlBase@ATL@@UEAAJAEAUATL_DRAWINFO@@@Z 0000000180004510 f i RemoteOrderDisplay.obj
 0001:0000369c       ??$AtlModuleRegisterWndClassInfoT@VAtlModuleRegisterWndClassInfoParamW@ATL@@@ATL@@YAGPEAU_ATL_BASE_MODULE70@0@PEAU_ATL_WIN_MODULE70@0@PEAU_ATL_WNDCLASSINFOW@0@PEAP6A_JPEAUHWND__@@I_K_J@ZVAtlModuleRegisterWndClassInfoParamW@0@@Z 000000018000469c f i RemoteOrderDisplay.obj
 0001:0000389c       ??0?$CComContainedObject@VCOPOSRemoteOrderDisplay@@@ATL@@QEAA@PEAX@Z 000000018000489c f i RemoteOrderDisplay.obj
 0001:000039b8       ??0?$CComObject@VCOPOSRemoteOrderDisplay@@@ATL@@QEAA@PEAX@Z 00000001800049b8 f i RemoteOrderDisplay.obj
 0001:00003ad0       ??0CAtlModule@ATL@@QEAA@XZ 0000000180004ad0 f i RemoteOrderDisplay.obj
 0001:00003b44       ??1?$CComEnumImpl@UIEnumConnectionPoints@@$1?_GUID_b196b285_bab4_101a_b69c_00aa00341d07@@3U__s_GUID@@BPEAUIConnectionPoint@@V?$_CopyInterface@UIConnectionPoint@@@ATL@@@ATL@@UEAA@XZ 0000000180004b44 f i RemoteOrderDisplay.obj
 0001:00003b9c       ??1?$CComEnumImpl@UIEnumConnections@@$1?_GUID_b196b287_bab4_101a_b69c_00aa00341d07@@3U__s_GUID@@BUtagCONNECTDATA@@V?$_Copy@UtagCONNECTDATA@@@ATL@@@ATL@@UEAA@XZ 0000000180004b9c f i RemoteOrderDisplay.obj
 0001:00003bf4       ??1?$CComObject@VCOPOSRemoteOrderDisplay@@@ATL@@UEAA@XZ 0000000180004bf4 f i RemoteOrderDisplay.obj
 0001:00003d14       ??_E?$CComContainedObject@VCOPOSRemoteOrderDisplay@@@ATL@@UEAAPEAXI@Z 0000000180004d14 f i RemoteOrderDisplay.obj
 0001:00003d14       ??_G?$CComContainedObject@VCOPOSRemoteOrderDisplay@@@ATL@@UEAAPEAXI@Z 0000000180004d14 f i RemoteOrderDisplay.obj
 0001:00003d48       ??_E?$CComObject@VCOPOSRemoteOrderDisplay@@@ATL@@UEAAPEAXI@Z 0000000180004d48 f i RemoteOrderDisplay.obj
 0001:00003d48       ??_G?$CComObject@VCOPOSRemoteOrderDisplay@@@ATL@@UEAAPEAXI@Z 0000000180004d48 f i RemoteOrderDisplay.obj
 0001:00003d7c       ?Add@?$CSimpleArray@GV?$CSimpleArrayEqualHelper@G@ATL@@@ATL@@QEAAHAEBG@Z 0000000180004d7c f i RemoteOrderDisplay.obj
 0001:00003e1c       ?Add@?$CSimpleMap@PEA_WPEA_WVCExpansionVectorEqualHelper@ATL@@@ATL@@QEAAHAEBQEA_W0@Z 0000000180004e1c f i RemoteOrderDisplay.obj
 0001:00003eb8       ?Add@CComDynamicUnkArray@ATL@@QEAAKPEAUIUnknown@@@Z 0000000180004eb8 f i RemoteOrderDisplay.obj
 0001:00003f9c       ?Add@CExpansionVector@ATL@@QEAAHPEB_W0@Z 0000000180004f9c f i RemoteOrderDisplay.obj
 0001:000040d0       ?AddTermFunc@CAtlModule@ATL@@QEAAJP6AX_K@Z0@Z 00000001800050d0 f i RemoteOrderDisplay.obj
 0001:0000416c       ?AddValue@CRegParser@ATL@@IEAAJAEAVCRegKey@2@PEB_WPEA_W@Z 000000018000516c f i RemoteOrderDisplay.obj
 0001:0000457c       ?AllocateHeap@?$CTempBuffer@_W$0EAA@VCCRTAllocator@ATL@@@ATL@@AEAAX_K@Z 000000018000557c f i RemoteOrderDisplay.obj
 0001:0000457c       ?AllocateHeap@?$CTempBuffer@E$0BAA@VCCRTAllocator@ATL@@@ATL@@AEAAX_K@Z 000000018000557c f i RemoteOrderDisplay.obj
 0001:0000457c       ?AllocateHeap@?$CTempBuffer@_W$0BAA@VCCRTAllocator@ATL@@@ATL@@AEAAX_K@Z 000000018000557c f i RemoteOrderDisplay.obj
 0001:000045a8       ?Append@CParseBuffer@CRegParser@ATL@@QEAAHPEB_WH@Z 00000001800055a8 f i RemoteOrderDisplay.obj
 0001:000046dc       ?AtlComModuleGetClassObject@ATL@@YAJPEAU_ATL_COM_MODULE70@1@AEBU_GUID@@1PEAPEAX@Z 00000001800056dc f i RemoteOrderDisplay.obj
 0001:00004818       ?AtlComModuleRegisterServer@ATL@@YAJPEAU_ATL_COM_MODULE70@1@HPEBU_GUID@@@Z 0000000180005818 f i RemoteOrderDisplay.obj
 0001:000048d8       ?AtlComModuleUnregisterServer@ATL@@YAJPEAU_ATL_COM_MODULE70@1@HPEBU_GUID@@@Z 00000001800058d8 f i RemoteOrderDisplay.obj
 0001:00004994       ?AtlHiMetricToPixel@ATL@@YAXPEBUtagSIZE@@PEAU2@@Z 0000000180005994 f i RemoteOrderDisplay.obj
 0001:00004a44       ?AtlHresultFromLastError@ATL@@YAJXZ 0000000180005a44 f i RemoteOrderDisplay.obj
 0001:00004a64       ?AtlHresultFromWin32@ATL@@YAJK@Z 0000000180005a64 f i RemoteOrderDisplay.obj
 0001:00004a74       ?AtlInternalOleLoadFromStream@ATL@@YAJPEAUIStream@@AEBU_GUID@@PEAPEAXTClassesAllowedInStream@1@K@Z 0000000180005a74 f i RemoteOrderDisplay.obj
 0001:00004bc4       ?AtlInternalQueryInterface@ATL@@YAJPEAXPEBU_ATL_INTMAP_ENTRY@1@AEBU_GUID@@PEAPEAX@Z 0000000180005bc4 f i RemoteOrderDisplay.obj
 0001:00004ccc       ?AtlLoadTypeLib@ATL@@YAJPEAUHINSTANCE__@@PEB_WPEAPEA_WPEAPEAUITypeLib@@@Z 0000000180005ccc f i RemoteOrderDisplay.obj
 0001:00004f28       ?AtlRegisterClassCategoriesHelper@ATL@@YAJAEBU_GUID@@PEBU_ATL_CATMAP_ENTRY@1@H@Z 0000000180005f28 f i RemoteOrderDisplay.obj
 0001:000053ac       ?AtlRegisterTypeLib@ATL@@YAJPEAUHINSTANCE__@@PEB_W@Z 00000001800063ac f i RemoteOrderDisplay.obj
 0001:000055a8       ?AtlThrowImpl@ATL@@YAXJ@Z  00000001800065a8 f i RemoteOrderDisplay.obj
 0001:000055cc       ?AtlUnRegisterTypeLib@ATL@@YAJPEAUHINSTANCE__@@PEB_W@Z 00000001800065cc f i RemoteOrderDisplay.obj
 0001:00005694       ?AtlWinModuleExtractCreateWndData@ATL@@YAPEAXPEAU_ATL_WIN_MODULE70@1@@Z 0000000180006694 f i RemoteOrderDisplay.obj
 0001:00005720       ?ChToByte@CRegParser@ATL@@KAE_W@Z 0000000180006720 f i RemoteOrderDisplay.obj
 0001:000057ac       ?Cleanup@CComTypeInfoHolder@ATL@@SAX_K@Z 00000001800067ac f i RemoteOrderDisplay.obj
 0001:000057ec       ?ClearReplacements@CExpansionVector@ATL@@QEAAJXZ 00000001800067ec f i RemoteOrderDisplay.obj
 0001:00005888       ?CreateInstance@?$CComCreator@V?$CComAggObject@VCOPOSRemoteOrderDisplay@@@ATL@@@ATL@@SAJPEAXAEBU_GUID@@PEAPEAX@Z 0000000180006888 f i RemoteOrderDisplay.obj
 0001:0000596c       ?CreateInstance@?$CComCreator@V?$CComObject@VCOPOSRemoteOrderDisplay@@@ATL@@@ATL@@SAJPEAXAEBU_GUID@@PEAPEAX@Z 000000018000696c f i RemoteOrderDisplay.obj
 0001:00005a2c       ?CreateInstance@?$CComObject@V?$CComEnum@UIEnumConnectionPoints@@$1?_GUID_b196b285_bab4_101a_b69c_00aa00341d07@@3U__s_GUID@@BPEAUIConnectionPoint@@V?$_CopyInterface@UIConnectionPoint@@@ATL@@VCComSingleThreadModel@6@@ATL@@@ATL@@SAJPEAPEAV12@@Z 0000000180006a2c f i RemoteOrderDisplay.obj
 0001:00005abc       ?CreateInstance@?$CComObject@V?$CComEnum@UIEnumConnections@@$1?_GUID_b196b287_bab4_101a_b69c_00aa00341d07@@3U__s_GUID@@BUtagCONNECTDATA@@V?$_Copy@UtagCONNECTDATA@@@ATL@@VCComSingleThreadModel@6@@ATL@@@ATL@@SAJPEAPEAV12@@Z 0000000180006abc f i RemoteOrderDisplay.obj
 0001:00005b4c       ?DefaultReflectionHandler@?$CWindowImplRoot@VCWindow@ATL@@@ATL@@SAHPEAUHWND__@@I_K_JAEA_J@Z 0000000180006b4c f i RemoteOrderDisplay.obj
 0001:00005be0       ?DeleteSubKey@CRegKey@ATL@@QEAAJPEB_W@Z 0000000180006be0 f i RemoteOrderDisplay.obj
 0001:00005c78       ?DoEvent@COPOSRemoteOrderDisplay@@IEAAXI_K_J@Z 0000000180006c78 f i RemoteOrderDisplay.obj
 0001:00005d2c       ?DoVerbPrimary@?$IOleObjectImpl@VCOPOSRemoteOrderDisplay@@@ATL@@QEAAJPEBUtagRECT@@PEAUHWND__@@@Z 0000000180006d2c f i RemoteOrderDisplay.obj
 0001:00005e58       ?DoVerbProperties@CComControlBase@ATL@@QEAAJPEBUtagRECT@@PEAUHWND__@@@Z 0000000180006e58 f i RemoteOrderDisplay.obj
 0001:00006080       ?FireTheEvent@?$CProxy_IOPOSEvents@VCOPOSRemoteOrderDisplay@@@@IEAAXPEAVOposVariant@@IAEAJPEB_WJ@Z 0000000180007080 f i RemoteOrderDisplay.obj
 0001:0000616c       ?FireViewChange@CComControlBase@ATL@@QEAAJXZ 000000018000716c f i RemoteOrderDisplay.obj
 0001:000061d0       ?Fire_DataEvent@?$CProxy_IOPOSEvents@VCOPOSRemoteOrderDisplay@@@@QEAAXJ@Z 00000001800071d0 f i RemoteOrderDisplay.obj
 0001:000062bc       ?Fire_DirectIOEvent@?$CProxy_IOPOSEvents@VCOPOSRemoteOrderDisplay@@@@QEAAXJPEAJPEAPEA_W@Z 00000001800072bc f i RemoteOrderDisplay.obj
 0001:0000641c       ?Fire_ErrorEvent@?$CProxy_IOPOSEvents@VCOPOSRemoteOrderDisplay@@@@QEAAXJJJPEAJ@Z 000000018000741c f i RemoteOrderDisplay.obj
 0001:00006590       ?Fire_OutputCompleteEvent@?$CProxy_IOPOSEvents@VCOPOSRemoteOrderDisplay@@@@QEAAXJ@Z 0000000180007590 f i RemoteOrderDisplay.obj
 0001:0000667c       ?Fire_StatusUpdateEvent@?$CProxy_IOPOSEvents@VCOPOSRemoteOrderDisplay@@@@QEAAXJ@Z 000000018000767c f i RemoteOrderDisplay.obj
 0001:00006768       ?FreeHeap@?$CTempBuffer@_W$0EAA@VCCRTAllocator@ATL@@@ATL@@AEAAXXZ 0000000180007768 f i RemoteOrderDisplay.obj
 0001:00006768       ?FreeHeap@?$CTempBuffer@E$0BAA@VCCRTAllocator@ATL@@@ATL@@AEAAXXZ 0000000180007768 f i RemoteOrderDisplay.obj
 0001:00006768       ?FreeHeap@?$CTempBuffer@_W$0BAA@VCCRTAllocator@ATL@@@ATL@@AEAAXXZ 0000000180007768 f i RemoteOrderDisplay.obj
 0001:00006770       ?GetAmbientLocaleID@CComControlBase@ATL@@QEAAJAEAK@Z 0000000180007770 f i RemoteOrderDisplay.obj
 0001:00006830       ?GetAmbientUserMode@CComControlBase@ATL@@QEAAJAEAH@Z 0000000180007830 f i RemoteOrderDisplay.obj
 0001:00006900       ?GetClassObject@CComModule@ATL@@QEAAJAEBU_GUID@@0PEAPEAX@Z 0000000180007900 f i RemoteOrderDisplay.obj
 0001:000069f4       ?GetConnMap@COPOSRemoteOrderDisplay@@SAPEBU_ATL_CONNMAP_ENTRY@ATL@@PEAH@Z 00000001800079f4 f i RemoteOrderDisplay.obj
 0001:00006a7c       ?GetIDsOfNames@CComTypeInfoHolder@ATL@@QEAAJAEBU_GUID@@PEAPEA_WIKPEAJ@Z 0000000180007a7c f i RemoteOrderDisplay.obj
 0001:00006bec       ?GetPagesHelper@?$ISpecifyPropertyPagesImpl@VCOPOSRemoteOrderDisplay@@@ATL@@IEAAJPEAUtagCAUUID@@PEBUATL_PROPMAP_ENTRY@2@@Z 0000000180007bec f i RemoteOrderDisplay.obj
 0001:00006d8c       ?GetSizeMax@CComVariant@ATL@@QEBAJPEAT_ULARGE_INTEGER@@@Z 0000000180007d8c f i RemoteOrderDisplay.obj
 0001:00006fbc       ?GetTI@CComTypeInfoHolder@ATL@@QEAAJK@Z 0000000180007fbc f i RemoteOrderDisplay.obj
 0001:000072a0       ?GetZoomInfo@CComControlBase@ATL@@QEAAXAEAUATL_DRAWINFO@@@Z 00000001800082a0 f i RemoteOrderDisplay.obj
 0001:00007344       ?HKeyFromString@CRegParser@ATL@@KAPEAUHKEY__@@PEA_W@Z 0000000180008344 f i RemoteOrderDisplay.obj
 0001:000073a8       ?IDataObject_GetData@CComControlBase@ATL@@QEAAJPEAUtagFORMATETC@@PEAUtagSTGMEDIUM@@@Z 00000001800083a8 f i RemoteOrderDisplay.obj
 0001:0000759c       ?IOleInPlaceObject_InPlaceDeactivate@CComControlBase@ATL@@QEAAJXZ 000000018000859c f i RemoteOrderDisplay.obj
 0001:0000763c       ?IOleInPlaceObject_SetObjectRects@CComControlBase@ATL@@QEAAJPEBUtagRECT@@0@Z 000000018000863c f i RemoteOrderDisplay.obj
 0001:0000772c       ?IOleInPlaceObject_UIDeactivate@CComControlBase@ATL@@QEAAJXZ 000000018000872c f i RemoteOrderDisplay.obj
 0001:00007838       ?IOleObject_Close@CComControlBase@ATL@@QEAAJK@Z 0000000180008838 f i RemoteOrderDisplay.obj
 0001:00007950       ?IOleObject_SetClientSite@CComControlBase@ATL@@QEAAJPEAUIOleClientSite@@@Z 0000000180008950 f i RemoteOrderDisplay.obj
 0001:000079c4       ?IOleObject_SetExtent@CComControlBase@ATL@@QEAAJKPEAUtagSIZE@@@Z 00000001800089c4 f i RemoteOrderDisplay.obj
 0001:00007a5c       ?IPSI_GetIPersistStreamInit@?$IPersistStorageImpl@VCOPOSRemoteOrderDisplay@@@ATL@@AEAAPEAUIPersistStreamInit@@XZ 0000000180008a5c f i RemoteOrderDisplay.obj
 0001:00007b44       ?IPersistStreamInit_Load@?$IPersistStreamInitImpl@VCOPOSRemoteOrderDisplay@@@ATL@@QEAAJPEAUIStream@@PEBUATL_PROPMAP_ENTRY@2@@Z 0000000180008b44 f i RemoteOrderDisplay.obj
 0001:00007e6c       ?IPersistStreamInit_Save@?$IPersistStreamInitImpl@VCOPOSRemoteOrderDisplay@@@ATL@@QEAAJPEAUIStream@@HPEBUATL_PROPMAP_ENTRY@2@@Z 0000000180008e6c f i RemoteOrderDisplay.obj
 0001:00008108       ?IQuickActivate_QuickActivate@CComControlBase@ATL@@QEAAJPEAUtagQACONTAINER@@PEAUtagQACONTROL@@@Z 0000000180009108 f i RemoteOrderDisplay.obj
 0001:000083cc       ?IViewObject_Draw@CComControlBase@ATL@@QEAAJKJPEAXPEAUtagDVTARGETDEVICE@@PEAUHDC__@@2PEBU_RECTL@@3@Z 00000001800093cc f i RemoteOrderDisplay.obj
 0001:000084e0       ?InPlaceActivate@CComControlBase@ATL@@QEAAJJPEBUtagRECT@@@Z 00000001800094e0 f i RemoteOrderDisplay.obj
 0001:00008810       ?Init@?$CComEnumImpl@UIEnumConnectionPoints@@$1?_GUID_b196b285_bab4_101a_b69c_00aa00341d07@@3U__s_GUID@@BPEAUIConnectionPoint@@V?$_CopyInterface@UIConnectionPoint@@@ATL@@@ATL@@QEAAJPEAPEAUIConnectionPoint@@0PEAUIUnknown@@W4CComEnumFlags@2@@Z 0000000180009810 f i RemoteOrderDisplay.obj
 0001:0000892c       ?Init@?$CComEnumImpl@UIEnumConnections@@$1?_GUID_b196b287_bab4_101a_b69c_00aa00341d07@@3U__s_GUID@@BUtagCONNECTDATA@@V?$_Copy@UtagCONNECTDATA@@@ATL@@@ATL@@QEAAJPEAUtagCONNECTDATA@@0PEAUIUnknown@@W4CComEnumFlags@2@@Z 000000018000992c f i RemoteOrderDisplay.obj
 0001:00008a4c       ?IsEqualObject@?$CComPtrBase@UIOleClientSite@@@ATL@@QEAA_NPEAUIUnknown@@@Z 0000000180009a4c f i RemoteOrderDisplay.obj
 0001:00008ad8       ?LoadNameCache@CComTypeInfoHolder@ATL@@QEAAJPEAUITypeInfo@@@Z 0000000180009ad8 f i RemoteOrderDisplay.obj
 0001:00008c68       ?Lookup@?$CSimpleMap@PEA_WPEA_WVCExpansionVectorEqualHelper@ATL@@@ATL@@QEBAPEA_WAEBQEA_W@Z 0000000180009c68 f i RemoteOrderDisplay.obj
 0001:00008cf0       ?NextToken@CRegParser@ATL@@IEAAJPEA_W@Z 0000000180009cf0 f i RemoteOrderDisplay.obj
 0001:00008e8c       ?OnKillFocus@CComControlBase@ATL@@QEAA_JI_K_JAEAH@Z 0000000180009e8c f i RemoteOrderDisplay.obj
 0001:00008f28       ?OnMouseActivate@CComControlBase@ATL@@QEAA_JI_K_JAEAH@Z 0000000180009f28 f i RemoteOrderDisplay.obj
 0001:00008fc8       ?OnPaint@CComControlBase@ATL@@QEAA_JI_K_JAEAH@Z 0000000180009fc8 f i RemoteOrderDisplay.obj
 0001:000090b4       ?OnSetFocus@CComControlBase@ATL@@QEAA_JI_K_JAEAH@Z 000000018000a0b4 f i RemoteOrderDisplay.obj
 0001:000091bc       ?PreProcessBuffer@CRegParser@ATL@@QEAAJPEA_WPEAPEA_W@Z 000000018000a1bc f i RemoteOrderDisplay.obj
 0001:00009544       ?ProcessWindowMessage@?$CComControl@VCOPOSRemoteOrderDisplay@@V?$CWindowImpl@VCOPOSRemoteOrderDisplay@@VCWindow@ATL@@V?$CWinTraits@$0FGAAAAAA@$0A@@3@@ATL@@@ATL@@UEAAHPEAUHWND__@@I_K_JAEA_JK@Z 000000018000a544 f i RemoteOrderDisplay.obj
 0001:00009630       ?ReadFromStream@CComBSTR@ATL@@QEAAJPEAUIStream@@@Z 000000018000a630 f i RemoteOrderDisplay.obj
 0001:00009780       ?ReadFromStream@CComVariant@ATL@@QEAAJPEAUIStream@@GTClassesAllowedInStream@2@K@Z 000000018000a780 f i RemoteOrderDisplay.obj
 0001:000099c4       ?RecurseDeleteKey@CRegKey@ATL@@QEAAJPEB_W@Z 000000018000a9c4 f i RemoteOrderDisplay.obj
 0001:00009b1c       ?RegCreateKeyExW@CAtlTransactionManager@ATL@@QEAAJPEAUHKEY__@@PEB_WKPEA_WKKQEAU_SECURITY_ATTRIBUTES@@PEAPEAU3@PEAK@Z 000000018000ab1c f i RemoteOrderDisplay.obj
 0001:00009c50       ?RegDeleteKeyW@CAtlTransactionManager@ATL@@QEAAJPEAUHKEY__@@PEB_W@Z 000000018000ac50 f i RemoteOrderDisplay.obj
 0001:00009cdc       ?RegOpenKeyExW@CAtlTransactionManager@ATL@@QEAAJPEAUHKEY__@@PEB_WKKPEAPEAU3@@Z 000000018000acdc f i RemoteOrderDisplay.obj
 0001:00009d94       ?RegisterBuffer@CRegParser@ATL@@QEAAJPEA_WH@Z 000000018000ad94 f i RemoteOrderDisplay.obj
 0001:00009f00       ?RegisterFromResource@CRegObject@ATL@@IEAAJPEB_W00H@Z 000000018000af00 f i RemoteOrderDisplay.obj
 0001:0000a0bc       ?RegisterServer@CComModule@ATL@@QEAAJHPEBU_GUID@@@Z 000000018000b0bc f i RemoteOrderDisplay.obj
 0001:0000a178       ?RegisterSubkeys@CRegParser@ATL@@IEAAJPEA_WPEAUHKEY__@@HH@Z 000000018000b178 f i RemoteOrderDisplay.obj
 0001:0000a9f8       ?SendOnDataChange@CComControlBase@ATL@@QEAAJK@Z 000000018000b9f8 f i RemoteOrderDisplay.obj
 0001:0000aa68       ?SetControlFocus@CComControlBase@ATL@@QEAAHH@Z 000000018000ba68 f i RemoteOrderDisplay.obj
 0001:0000ab38       ?SkipAssignment@CRegParser@ATL@@IEAAJPEA_W@Z 000000018000bb38 f i RemoteOrderDisplay.obj
 0001:0000abf0       ?Term@CAtlModule@ATL@@QEAAXXZ 000000018000bbf0 f i RemoteOrderDisplay.obj
 0001:0000aca8       ?Term@CComModule@ATL@@QEAAXXZ 000000018000bca8 f i RemoteOrderDisplay.obj
 0001:0000ad24       ?UnregisterServer@CComModule@ATL@@QEAAJHPEBU_GUID@@@Z 000000018000bd24 f i RemoteOrderDisplay.obj
 0001:0000add4       ?UpdateRegistryFromResource@CAtlModule@ATL@@QEAAJIHPEAU_ATL_REGMAP_ENTRY@2@@Z 000000018000bdd4 f i RemoteOrderDisplay.obj
 0001:0000b0e0       ?UpdateRegistryFromResource@CAtlModule@ATL@@QEAAJPEB_WHPEAU_ATL_REGMAP_ENTRY@2@@Z 000000018000c0e0 f i RemoteOrderDisplay.obj
 0001:0000b404       ?VTFromRegType@CRegParser@ATL@@KAHPEB_WAEAG@Z 000000018000c404 f i RemoteOrderDisplay.obj
 0001:0000b4a0       ?WindowProc@?$CWindowImplBaseT@VCWindow@ATL@@V?$CWinTraits@$0FGAAAAAA@$0A@@2@@ATL@@SA_JPEAUHWND__@@I_K_J@Z 000000018000c4a0 f i RemoteOrderDisplay.obj
 0001:0000b60c       ?WriteToStream@CComVariant@ATL@@QEAAJPEAUIStream@@@Z 000000018000c60c f i RemoteOrderDisplay.obj
 0001:0000b878       ?WriteToStream@CComVariant@ATL@@QEAAJPEAUIStream@@G@Z 000000018000c878 f i RemoteOrderDisplay.obj
 0001:0000b910       ?_AtlVerifyStackAvailable@_ATL_SAFE_ALLOCA_IMPL@ATL@@YA_N_K@Z 000000018000c910 f i RemoteOrderDisplay.obj
 0001:0000b994       ?atlCreate@?$CWindowImpl@VCOPOSRemoteOrderDisplay@@VCWindow@ATL@@V?$CWinTraits@$0FGAAAAAA@$0A@@3@@ATL@@QEAAPEAUHWND__@@PEAU3@V_U_RECT@2@PEB_WKKV_U_MENUorID@2@PEAX@Z 000000018000c994 f i RemoteOrderDisplay.obj
 0001:0000ba50       ?atlCreate@?$CWindowImplBaseT@VCWindow@ATL@@V?$CWinTraits@$0FGAAAAAA@$0A@@2@@ATL@@QEAAPEAUHWND__@@PEAU3@V_U_RECT@2@PEB_WKKV_U_MENUorID@2@GPEAX@Z 000000018000ca50 f i RemoteOrderDisplay.obj
 0001:0000bbc0       ?ocscpy_s@@YA_NPEA_W_KPEB_W@Z 000000018000cbc0 f i RemoteOrderDisplay.obj
 0001:0000bc70       DllCanUnloadNow            000000018000cc70 f   RemoteOrderDisplay.obj
 0001:0000bc7c       DllGetClassObject          000000018000cc7c f   RemoteOrderDisplay.obj
 0001:0000bc94       DllMain                    000000018000cc94 f   RemoteOrderDisplay.obj
 0001:0000bd3c       DllRegisterServer          000000018000cd3c f   RemoteOrderDisplay.obj
 0001:0000bd50       DllUnregisterServer        000000018000cd50 f   RemoteOrderDisplay.obj
 0001:0000bd64       __local_stdio_printf_options 000000018000cd64 f i RemoteOrderDisplay.obj
 0001:0000bd6c       swprintf_s                 000000018000cd6c f i RemoteOrderDisplay.obj
 0001:0000bdc0       ??0COPOSRemoteOrderDisplay@@QEAA@XZ 000000018000cdc0 f   RemoteOrderDisplayImpl.obj
 0001:0000be90       ??1?$IConnectionPointImpl@VCOPOSRemoteOrderDisplay@@$1?DIID__IOPOSRemoteOrderDisplayEvents@@3U_GUID@@BVCComDynamicUnkArray@ATL@@@ATL@@QEAA@XZ 000000018000ce90 f i RemoteOrderDisplayImpl.obj
 0001:0000be90       ??1?$IConnectionPointImpl@VCOPOSRemoteOrderDisplay@@$1?IID_IPropertyNotifySink@@3U_GUID@@BVCComDynamicUnkArray@ATL@@@ATL@@QEAA@XZ 000000018000ce90 f i RemoteOrderDisplayImpl.obj
 0001:0000beec       ??1CComControlBase@ATL@@UEAA@XZ 000000018000ceec f i RemoteOrderDisplayImpl.obj
 0001:0000bf68       ??1COPOSRemoteOrderDisplay@@UEAA@XZ 000000018000cf68 f   RemoteOrderDisplayImpl.obj
 0001:0000bfcc       ?CheckHealth@COPOSRemoteOrderDisplay@@UEAAJJPEAJ@Z 000000018000cfcc f   RemoteOrderDisplayImpl.obj
 0001:0000c048       ?ClaimDevice@COPOSRemoteOrderDisplay@@UEAAJJPEAJ@Z 000000018000d048 f   RemoteOrderDisplayImpl.obj
 0001:0000c0e8       ?ClearInput@COPOSRemoteOrderDisplay@@UEAAJPEAJ@Z 000000018000d0e8 f   RemoteOrderDisplayImpl.obj
 0001:0000c110       ?ClearOutput@COPOSRemoteOrderDisplay@@UEAAJPEAJ@Z 000000018000d110 f   RemoteOrderDisplayImpl.obj
 0001:0000c138       ?ClearVideo@COPOSRemoteOrderDisplay@@UEAAJJJPEAJ@Z 000000018000d138 f   RemoteOrderDisplayImpl.obj
 0001:0000c204       ?ClearVideoRegion@COPOSRemoteOrderDisplay@@UEAAJJJJJJJPEAJ@Z 000000018000d204 f   RemoteOrderDisplayImpl.obj
 0001:0000c328       ?Close@COPOSRemoteOrderDisplay@@UEAAJPEAJ@Z 000000018000d328 f   RemoteOrderDisplayImpl.obj
 0001:0000c3e0       ?CompareFirmwareVersion@COPOSRemoteOrderDisplay@@UEAAJPEA_WPEAJ1@Z 000000018000d3e0 f   RemoteOrderDisplayImpl.obj
 0001:0000c4bc       ?ControlClock@COPOSRemoteOrderDisplay@@UEAAJJJJJJJJJJJPEAJ@Z 000000018000d4bc f   RemoteOrderDisplayImpl.obj
 0001:0000c614       ?ControlCursor@COPOSRemoteOrderDisplay@@UEAAJJJPEAJ@Z 000000018000d614 f   RemoteOrderDisplayImpl.obj
 0001:0000c6e0       ?CopyVideoRegion@COPOSRemoteOrderDisplay@@UEAAJJJJJJJJPEAJ@Z 000000018000d6e0 f   RemoteOrderDisplayImpl.obj
 0001:0000c818       ?DirectIO@COPOSRemoteOrderDisplay@@UEAAJJPEAJPEAPEA_W0@Z 000000018000d818 f   RemoteOrderDisplayImpl.obj
 0001:0000c914       ?DisplayData@COPOSRemoteOrderDisplay@@UEAAJJJJJPEA_WPEAJ@Z 000000018000d914 f   RemoteOrderDisplayImpl.obj
 0001:0000ca24       ?DoInvoke@COPOSRemoteOrderDisplay@@IEAAJJPEAVOposVariant@@IHPEAJ_N@Z 000000018000da24 f   RemoteOrderDisplayImpl.obj
 0001:0000cb58       ?DrawBox@COPOSRemoteOrderDisplay@@UEAAJJJJJJJJPEAJ@Z 000000018000db58 f   RemoteOrderDisplayImpl.obj
 0001:0000cc90       ?EventInit@COPOSRemoteOrderDisplay@@IEAAJXZ 000000018000dc90 f i RemoteOrderDisplayImpl.obj
 0001:0000cde0       ?EventUninit@COPOSRemoteOrderDisplay@@IEAAXXZ 000000018000dde0 f i RemoteOrderDisplayImpl.obj
 0001:0000ce44       ?EventWindowProc@COPOSRemoteOrderDisplay@@IEAA_JI_K_J@Z 000000018000de44 f i RemoteOrderDisplayImpl.obj
 0001:0000d008       ?FinalConstruct@COPOSRemoteOrderDisplay@@QEAAJXZ 000000018000e008 f   RemoteOrderDisplayImpl.obj
 0001:0000d044       ?FreeVideoRegion@COPOSRemoteOrderDisplay@@UEAAJJJPEAJ@Z 000000018000e044 f   RemoteOrderDisplayImpl.obj
 0001:0000d110       ?FreezeEvents@COPOSRemoteOrderDisplay@@MEAAJH@Z 000000018000e110 f   RemoteOrderDisplayImpl.obj
 0001:0000d17c       ?GetOposProp@COPOSRemoteOrderDisplay@@IEAAJJPEAJJ@Z 000000018000e17c f   RemoteOrderDisplayImpl.obj
 0001:0000d298       ?GetOposProp@COPOSRemoteOrderDisplay@@IEAAJJPEAPEA_WJ@Z 000000018000e298 f   RemoteOrderDisplayImpl.obj
 0001:0000d3c4       ?OnDraw@COPOSRemoteOrderDisplay@@MEAAJAEAUATL_DRAWINFO@@@Z 000000018000e3c4 f   RemoteOrderDisplayImpl.obj
 0001:0000d4b0       ?Open@COPOSRemoteOrderDisplay@@UEAAJPEA_WPEAJ@Z 000000018000e4b0 f   RemoteOrderDisplayImpl.obj
 0001:0000dd28       ?ReleaseDevice@COPOSRemoteOrderDisplay@@UEAAJPEAJ@Z 000000018000ed28 f   RemoteOrderDisplayImpl.obj
 0001:0000dd94       ?ResetStatistics@COPOSRemoteOrderDisplay@@UEAAJPEA_WPEAJ@Z 000000018000ed94 f   RemoteOrderDisplayImpl.obj
 0001:0000de1c       ?ResetVideo@COPOSRemoteOrderDisplay@@UEAAJJPEAJ@Z 000000018000ee1c f   RemoteOrderDisplayImpl.obj
 0001:0000de98       ?RestoreVideoRegion@COPOSRemoteOrderDisplay@@UEAAJJJJJPEAJ@Z 000000018000ee98 f   RemoteOrderDisplayImpl.obj
 0001:0000df94       ?RetrieveStatistics@COPOSRemoteOrderDisplay@@UEAAJPEAPEA_WPEAJ@Z 000000018000ef94 f   RemoteOrderDisplayImpl.obj
 0001:0000e01c       ?SOProcessID@COPOSRemoteOrderDisplay@@UEAAJPEAJ@Z 000000018000f01c f   RemoteOrderDisplayImpl.obj
 0001:0000e038       ?SaveVideoRegion@COPOSRemoteOrderDisplay@@UEAAJJJJJJJPEAJ@Z 000000018000f038 f   RemoteOrderDisplayImpl.obj
 0001:0000e15c       ?SelectCharacterSet@COPOSRemoteOrderDisplay@@UEAAJJJPEAJ@Z 000000018000f15c f   RemoteOrderDisplayImpl.obj
 0001:0000e228       ?SetCOFreezeEvents@COPOSRemoteOrderDisplay@@IEAAXF@Z 000000018000f228 f   RemoteOrderDisplayImpl.obj
 0001:0000e30c       ?SetCursor@COPOSRemoteOrderDisplay@@UEAAJJJJPEAJ@Z 000000018000f30c f   RemoteOrderDisplayImpl.obj
 0001:0000e3f4       ?SetOposProp@COPOSRemoteOrderDisplay@@IEAAJJJJ@Z 000000018000f3f4 f   RemoteOrderDisplayImpl.obj
 0001:0000e554       ?TransactionDisplay@COPOSRemoteOrderDisplay@@UEAAJJJPEAJ@Z 000000018000f554 f   RemoteOrderDisplayImpl.obj
 0001:0000e620       ?UpdateFirmware@COPOSRemoteOrderDisplay@@UEAAJPEA_WPEAJ@Z 000000018000f620 f   RemoteOrderDisplayImpl.obj
 0001:0000e6a8       ?UpdateStatistics@COPOSRemoteOrderDisplay@@UEAAJPEA_WPEAJ@Z 000000018000f6a8 f   RemoteOrderDisplayImpl.obj
 0001:0000e730       ?UpdateVideoRegionAttribute@COPOSRemoteOrderDisplay@@UEAAJJJJJJJJPEAJ@Z 000000018000f730 f   RemoteOrderDisplayImpl.obj
 0001:0000e868       ?VideoSound@COPOSRemoteOrderDisplay@@UEAAJJJJJJPEAJ@Z 000000018000f868 f   RemoteOrderDisplayImpl.obj
 0001:0000e978       ?get_AsyncMode@COPOSRemoteOrderDisplay@@UEAAJPEAF@Z 000000018000f978 f   RemoteOrderDisplayImpl.obj
 0001:0000e9ac       ?get_AutoToneDuration@COPOSRemoteOrderDisplay@@UEAAJPEAJ@Z 000000018000f9ac f   RemoteOrderDisplayImpl.obj
 0001:0000e9c0       ?get_AutoToneFrequency@COPOSRemoteOrderDisplay@@UEAAJPEAJ@Z 000000018000f9c0 f   RemoteOrderDisplayImpl.obj
 0001:0000e9d4       ?get_BinaryConversion@COPOSRemoteOrderDisplay@@UEAAJPEAJ@Z 000000018000f9d4 f   RemoteOrderDisplayImpl.obj
 0001:0000e9e8       ?get_CapCompareFirmwareVersion@COPOSRemoteOrderDisplay@@UEAAJPEAF@Z 000000018000f9e8 f   RemoteOrderDisplayImpl.obj
 0001:0000ea1c       ?get_CapMapCharacterSet@COPOSRemoteOrderDisplay@@UEAAJPEAF@Z 000000018000fa1c f   RemoteOrderDisplayImpl.obj
 0001:0000ea50       ?get_CapPowerReporting@COPOSRemoteOrderDisplay@@UEAAJPEAJ@Z 000000018000fa50 f   RemoteOrderDisplayImpl.obj
 0001:0000ea64       ?get_CapSelectCharacterSet@COPOSRemoteOrderDisplay@@UEAAJPEAF@Z 000000018000fa64 f   RemoteOrderDisplayImpl.obj
 0001:0000ea98       ?get_CapStatisticsReporting@COPOSRemoteOrderDisplay@@UEAAJPEAF@Z 000000018000fa98 f   RemoteOrderDisplayImpl.obj
 0001:0000eacc       ?get_CapTone@COPOSRemoteOrderDisplay@@UEAAJPEAF@Z 000000018000facc f   RemoteOrderDisplayImpl.obj
 0001:0000eb00       ?get_CapTouch@COPOSRemoteOrderDisplay@@UEAAJPEAF@Z 000000018000fb00 f   RemoteOrderDisplayImpl.obj
 0001:0000eb34       ?get_CapTransaction@COPOSRemoteOrderDisplay@@UEAAJPEAF@Z 000000018000fb34 f   RemoteOrderDisplayImpl.obj
 0001:0000eb68       ?get_CapUpdateFirmware@COPOSRemoteOrderDisplay@@UEAAJPEAF@Z 000000018000fb68 f   RemoteOrderDisplayImpl.obj
 0001:0000eb9c       ?get_CapUpdateStatistics@COPOSRemoteOrderDisplay@@UEAAJPEAF@Z 000000018000fb9c f   RemoteOrderDisplayImpl.obj
 0001:0000ebd0       ?get_CharacterSet@COPOSRemoteOrderDisplay@@UEAAJPEAJ@Z 000000018000fbd0 f   RemoteOrderDisplayImpl.obj
 0001:0000ebe4       ?get_CharacterSetList@COPOSRemoteOrderDisplay@@UEAAJPEAPEA_W@Z 000000018000fbe4 f   RemoteOrderDisplayImpl.obj
 0001:0000ebf8       ?get_CheckHealthText@COPOSRemoteOrderDisplay@@UEAAJPEAPEA_W@Z 000000018000fbf8 f   RemoteOrderDisplayImpl.obj
 0001:0000ec0c       ?get_Claimed@COPOSRemoteOrderDisplay@@UEAAJPEAF@Z 000000018000fc0c f   RemoteOrderDisplayImpl.obj
 0001:0000ec40       ?get_Clocks@COPOSRemoteOrderDisplay@@UEAAJPEAJ@Z 000000018000fc40 f   RemoteOrderDisplayImpl.obj
 0001:0000ec54       ?get_ControlObjectDescription@COPOSRemoteOrderDisplay@@UEAAJPEAPEA_W@Z 000000018000fc54 f   RemoteOrderDisplayImpl.obj
 0001:0000ecb8       ?get_ControlObjectVersion@COPOSRemoteOrderDisplay@@UEAAJPEAJ@Z 000000018000fcb8 f   RemoteOrderDisplayImpl.obj
 0001:0000ecc4       ?get_CurrentUnitID@COPOSRemoteOrderDisplay@@UEAAJPEAJ@Z 000000018000fcc4 f   RemoteOrderDisplayImpl.obj
 0001:0000ecd8       ?get_DataCount@COPOSRemoteOrderDisplay@@UEAAJPEAJ@Z 000000018000fcd8 f   RemoteOrderDisplayImpl.obj
 0001:0000ecec       ?get_DataEventEnabled@COPOSRemoteOrderDisplay@@UEAAJPEAF@Z 000000018000fcec f   RemoteOrderDisplayImpl.obj
 0001:0000ed20       ?get_DeviceDescription@COPOSRemoteOrderDisplay@@UEAAJPEAPEA_W@Z 000000018000fd20 f   RemoteOrderDisplayImpl.obj
 0001:0000ed34       ?get_DeviceEnabled@COPOSRemoteOrderDisplay@@UEAAJPEAF@Z 000000018000fd34 f   RemoteOrderDisplayImpl.obj
 0001:0000ed64       ?get_DeviceName@COPOSRemoteOrderDisplay@@UEAAJPEAPEA_W@Z 000000018000fd64 f   RemoteOrderDisplayImpl.obj
 0001:0000ed78       ?get_ErrorString@COPOSRemoteOrderDisplay@@UEAAJPEAPEA_W@Z 000000018000fd78 f   RemoteOrderDisplayImpl.obj
 0001:0000ed8c       ?get_ErrorUnits@COPOSRemoteOrderDisplay@@UEAAJPEAJ@Z 000000018000fd8c f   RemoteOrderDisplayImpl.obj
 0001:0000eda0       ?get_EventString@COPOSRemoteOrderDisplay@@UEAAJPEAPEA_W@Z 000000018000fda0 f   RemoteOrderDisplayImpl.obj
 0001:0000edb4       ?get_EventType@COPOSRemoteOrderDisplay@@UEAAJPEAJ@Z 000000018000fdb4 f   RemoteOrderDisplayImpl.obj
 0001:0000edc8       ?get_EventUnitID@COPOSRemoteOrderDisplay@@UEAAJPEAJ@Z 000000018000fdc8 f   RemoteOrderDisplayImpl.obj
 0001:0000eddc       ?get_EventUnits@COPOSRemoteOrderDisplay@@UEAAJPEAJ@Z 000000018000fddc f   RemoteOrderDisplayImpl.obj
 0001:0000edf0       ?get_FreezeEvents@COPOSRemoteOrderDisplay@@UEAAJPEAF@Z 000000018000fdf0 f   RemoteOrderDisplayImpl.obj
 0001:0000ee20       ?get_MapCharacterSet@COPOSRemoteOrderDisplay@@UEAAJPEAF@Z 000000018000fe20 f   RemoteOrderDisplayImpl.obj
 0001:0000ee54       ?get_OpenResult@COPOSRemoteOrderDisplay@@UEAAJPEAJ@Z 000000018000fe54 f   RemoteOrderDisplayImpl.obj
 0001:0000ee60       ?get_OutputID@COPOSRemoteOrderDisplay@@UEAAJPEAJ@Z 000000018000fe60 f   RemoteOrderDisplayImpl.obj
 0001:0000ee74       ?get_PowerNotify@COPOSRemoteOrderDisplay@@UEAAJPEAJ@Z 000000018000fe74 f   RemoteOrderDisplayImpl.obj
 0001:0000ee88       ?get_PowerState@COPOSRemoteOrderDisplay@@UEAAJPEAJ@Z 000000018000fe88 f   RemoteOrderDisplayImpl.obj
 0001:0000ee9c       ?get_ResultCode@COPOSRemoteOrderDisplay@@UEAAJPEAJ@Z 000000018000fe9c f   RemoteOrderDisplayImpl.obj
 0001:0000eed8       ?get_ResultCodeExtended@COPOSRemoteOrderDisplay@@UEAAJPEAJ@Z 000000018000fed8 f   RemoteOrderDisplayImpl.obj
 0001:0000eeec       ?get_ServiceObjectDescription@COPOSRemoteOrderDisplay@@UEAAJPEAPEA_W@Z 000000018000feec f   RemoteOrderDisplayImpl.obj
 0001:0000ef00       ?get_ServiceObjectVersion@COPOSRemoteOrderDisplay@@UEAAJPEAJ@Z 000000018000ff00 f   RemoteOrderDisplayImpl.obj
 0001:0000ef14       ?get_State@COPOSRemoteOrderDisplay@@UEAAJPEAJ@Z 000000018000ff14 f   RemoteOrderDisplayImpl.obj
 0001:0000ef40       ?get_SystemClocks@COPOSRemoteOrderDisplay@@UEAAJPEAJ@Z 000000018000ff40 f   RemoteOrderDisplayImpl.obj
 0001:0000ef54       ?get_SystemVideoSaveBuffers@COPOSRemoteOrderDisplay@@UEAAJPEAJ@Z 000000018000ff54 f   RemoteOrderDisplayImpl.obj
 0001:0000ef68       ?get_Timeout@COPOSRemoteOrderDisplay@@UEAAJPEAJ@Z 000000018000ff68 f   RemoteOrderDisplayImpl.obj
 0001:0000ef7c       ?get_UnitsOnline@COPOSRemoteOrderDisplay@@UEAAJPEAJ@Z 000000018000ff7c f   RemoteOrderDisplayImpl.obj
 0001:0000ef90       ?get_VideoDataCount@COPOSRemoteOrderDisplay@@UEAAJPEAJ@Z 000000018000ff90 f   RemoteOrderDisplayImpl.obj
 0001:0000efa4       ?get_VideoMode@COPOSRemoteOrderDisplay@@UEAAJPEAJ@Z 000000018000ffa4 f   RemoteOrderDisplayImpl.obj
 0001:0000efb8       ?get_VideoModesList@COPOSRemoteOrderDisplay@@UEAAJPEAPEA_W@Z 000000018000ffb8 f   RemoteOrderDisplayImpl.obj
 0001:0000efcc       ?get_VideoSaveBuffers@COPOSRemoteOrderDisplay@@UEAAJPEAJ@Z 000000018000ffcc f   RemoteOrderDisplayImpl.obj
 0001:0000efe0       ?put_AsyncMode@COPOSRemoteOrderDisplay@@UEAAJF@Z 000000018000ffe0 f   RemoteOrderDisplayImpl.obj
 0001:0000effc       ?put_AutoToneDuration@COPOSRemoteOrderDisplay@@UEAAJJ@Z 000000018000fffc f   RemoteOrderDisplayImpl.obj
 0001:0000f010       ?put_AutoToneFrequency@COPOSRemoteOrderDisplay@@UEAAJJ@Z 0000000180010010 f   RemoteOrderDisplayImpl.obj
 0001:0000f024       ?put_BinaryConversion@COPOSRemoteOrderDisplay@@UEAAJJ@Z 0000000180010024 f   RemoteOrderDisplayImpl.obj
 0001:0000f038       ?put_CurrentUnitID@COPOSRemoteOrderDisplay@@UEAAJJ@Z 0000000180010038 f   RemoteOrderDisplayImpl.obj
 0001:0000f04c       ?put_DataEventEnabled@COPOSRemoteOrderDisplay@@UEAAJF@Z 000000018001004c f   RemoteOrderDisplayImpl.obj
 0001:0000f064       ?put_DeviceEnabled@COPOSRemoteOrderDisplay@@UEAAJF@Z 0000000180010064 f   RemoteOrderDisplayImpl.obj
 0001:0000f07c       ?put_EventType@COPOSRemoteOrderDisplay@@UEAAJJ@Z 000000018001007c f   RemoteOrderDisplayImpl.obj
 0001:0000f090       ?put_FreezeEvents@COPOSRemoteOrderDisplay@@UEAAJF@Z 0000000180010090 f   RemoteOrderDisplayImpl.obj
 0001:0000f0e0       ?put_MapCharacterSet@COPOSRemoteOrderDisplay@@UEAAJF@Z 00000001800100e0 f   RemoteOrderDisplayImpl.obj
 0001:0000f0fc       ?put_PowerNotify@COPOSRemoteOrderDisplay@@UEAAJJ@Z 00000001800100fc f   RemoteOrderDisplayImpl.obj
 0001:0000f110       ?put_Timeout@COPOSRemoteOrderDisplay@@UEAAJJ@Z 0000000180010110 f   RemoteOrderDisplayImpl.obj
 0001:0000f124       ?put_VideoMode@COPOSRemoteOrderDisplay@@UEAAJJ@Z 0000000180010124 f   RemoteOrderDisplayImpl.obj
 0001:0000f138       ?s_EventWindowProc@COPOSRemoteOrderDisplay@@KA_JPEAUHWND__@@I_K_J@Z 0000000180010138 f i RemoteOrderDisplayImpl.obj
 0001:0000f1b4       ??_U@YAPEAX_K@Z            00000001800101b4 f   LIBCMT:new_array.obj
 0001:0000f1bc       ??_V@YAXPEAX@Z             00000001800101bc f   LIBCMT:delete_array.obj
 0001:0000f1bc       ??3@YAXPEAX_K@Z            00000001800101bc f   LIBCMT:delete_scalar_size.obj
 0001:0000f1c4       ??_V@YAXPEAX_K@Z           00000001800101c4 f   LIBCMT:delete_array_size.obj
 0001:0000f1cc       __scrt_acquire_startup_lock 00000001800101cc f   LIBCMT:utility.obj
 0001:0000f208       __scrt_dllmain_after_initialize_c 0000000180010208 f   LIBCMT:utility.obj
 0001:0000f23c       __scrt_dllmain_before_initialize_c 000000018001023c f   LIBCMT:utility.obj
 0001:0000f254       __scrt_dllmain_crt_thread_attach 0000000180010254 f   LIBCMT:utility.obj
 0001:0000f27c       __scrt_dllmain_crt_thread_detach 000000018001027c f   LIBCMT:utility.obj
 0001:0000f294       __scrt_dllmain_exception_filter 0000000180010294 f   LIBCMT:utility.obj
 0001:0000f2f4       __scrt_dllmain_uninitialize_c 00000001800102f4 f   LIBCMT:utility.obj
 0001:0000f324       __scrt_dllmain_uninitialize_critical 0000000180010324 f   LIBCMT:utility.obj
 0001:0000f338       __scrt_initialize_crt      0000000180010338 f   LIBCMT:utility.obj
 0001:0000f384       __scrt_initialize_onexit_tables 0000000180010384 f   LIBCMT:utility.obj
 0001:0000f410       __scrt_is_nonwritable_in_current_image 0000000180010410 f   LIBCMT:utility.obj
 0001:0000f4a8       __scrt_release_startup_lock 00000001800104a8 f   LIBCMT:utility.obj
 0001:0000f4cc       __scrt_uninitialize_crt    00000001800104cc f   LIBCMT:utility.obj
 0001:0000f4f8       _onexit                    00000001800104f8 f   LIBCMT:utility.obj
 0001:0000f534       atexit                     0000000180010534 f   LIBCMT:utility.obj
 0001:0000f54c       ??3@YAXPEAX@Z              000000018001054c f   LIBCMT:delete_scalar.obj
 0001:0000f64c       _Init_thread_footer        000000018001064c f   LIBCMT:thread_safe_statics.obj
 0001:0000f6ac       _Init_thread_header        00000001800106ac f   LIBCMT:thread_safe_statics.obj
 0001:0000f714       _Init_thread_notify        0000000180010714 f   LIBCMT:thread_safe_statics.obj
 0001:0000f758       _Init_thread_wait          0000000180010758 f   LIBCMT:thread_safe_statics.obj
 0001:0000f7bc       __raise_securityfailure    00000001800107bc f   LIBCMT:gs_report.obj
 0001:0000f7f0       __report_gsfailure         00000001800107f0 f   LIBCMT:gs_report.obj
 0001:0000f8c4       __report_rangecheckfailure 00000001800108c4 f   LIBCMT:gs_report.obj
 0001:0000f8d8       __report_securityfailure   00000001800108d8 f   LIBCMT:gs_report.obj
 0001:0000fa58       ??2@YAPEAX_KAEBUnothrow_t@std@@@Z 0000000180010a58 f   LIBCMT:new_scalar_nothrow.obj
 0001:0000fa6c       ??_U@YAPEAX_KAEBUnothrow_t@std@@@Z 0000000180010a6c f   LIBCMT:new_array_nothrow.obj
 0001:0000fa74       __GSHandlerCheck           0000000180010a74 f   LIBCMT:gshandler.obj
 0001:0000fa94       __GSHandlerCheckCommon     0000000180010a94 f   LIBCMT:gshandler.obj
 0001:0000faf0       __GSHandlerCheck_SEH       0000000180010af0 f   LIBCMT:gshandlerseh.obj
 0001:0000fb90       _alloca_probe              0000000180010b90 f   LIBCMT:chkstk.obj
 0001:0000fb90       __chkstk                   0000000180010b90 f   LIBCMT:chkstk.obj
 0001:0000fbf0       __security_check_cookie    0000000180010bf0 f   LIBCMT:amdsecgs.obj
 0001:0000ff30       _DllMainCRTStartup         0000000180010f30 f   LIBCMT:dll_dllmain.obj
 0001:0000ff70       ??2@YAPEAX_K@Z             0000000180010f70 f   LIBCMT:new_scalar.obj
 0001:0000ffac       __isa_available_init       0000000180010fac f   LIBCMT:cpu_disp.obj
 0001:00010150       __scrt_is_ucrt_dll_in_use  0000000180011150 f   LIBCMT:ucrt_detection.obj
 0001:0001015c       __crt_debugger_hook        000000018001115c f   LIBCMT:utility_desktop.obj
 0001:00010164       __scrt_fastfail            0000000180011164 f   LIBCMT:utility_desktop.obj
 0001:000102b0       __security_init_cookie     00000001800112b0 f   LIBCMT:gs_support.obj
 0001:0001035c       ?__scrt_initialize_type_info@@YAXXZ 000000018001135c f   LIBCMT:tncleanup.obj
 0001:0001036c       ?__scrt_uninitialize_type_info@@YAXXZ 000000018001136c f   LIBCMT:tncleanup.obj
 0001:00010378       __local_stdio_scanf_options 0000000180011378 f i LIBCMT:default_local_stdio_options.obj
 0001:00010380       __scrt_initialize_default_local_stdio_options 0000000180011380 f   LIBCMT:default_local_stdio_options.obj
 0001:0001039c       __scrt_get_dyn_tls_init_callback 000000018001139c f   LIBCMT:dyn_tls_init.obj
 0001:000103a4       _RTC_Initialize            00000001800113a4 f   LIBCMT:initsect.obj
 0001:000103e0       _RTC_Terminate             00000001800113e0 f   LIBCMT:initsect.obj
 0001:0001041c       ??0bad_alloc@std@@QEAA@AEBV01@@Z 000000018001141c f i LIBCMT:throw_bad_alloc.obj
 0001:00010458       ??0bad_alloc@std@@QEAA@XZ  0000000180011458 f i LIBCMT:throw_bad_alloc.obj
 0001:00010478       ??0bad_array_new_length@std@@QEAA@AEBV01@@Z 0000000180011478 f i LIBCMT:throw_bad_alloc.obj
 0001:000104b4       ??0bad_array_new_length@std@@QEAA@XZ 00000001800114b4 f i LIBCMT:throw_bad_alloc.obj
 0001:000104d4       ??0exception@std@@QEAA@AEBV01@@Z 00000001800114d4 f i LIBCMT:throw_bad_alloc.obj
 0001:00010508       ??1bad_array_new_length@std@@UEAA@XZ 0000000180011508 f i LIBCMT:throw_bad_alloc.obj
 0001:00010508       ??1bad_alloc@std@@UEAA@XZ  0000000180011508 f i LIBCMT:throw_bad_alloc.obj
 0001:00010508       ??1bad_exception@std@@UEAA@XZ 0000000180011508 f i libvcruntime:frame.obj
 0001:0001051c       ??_Ebad_alloc@std@@UEAAPEAXI@Z 000000018001151c f i LIBCMT:throw_bad_alloc.obj
 0001:0001051c       ??_Gexception@std@@UEAAPEAXI@Z 000000018001151c f i LIBCMT:throw_bad_alloc.obj
 0001:0001051c       ??_Ebad_exception@std@@UEAAPEAXI@Z 000000018001151c f i libvcruntime:frame.obj
 0001:0001051c       ??_Gbad_alloc@std@@UEAAPEAXI@Z 000000018001151c f i LIBCMT:throw_bad_alloc.obj
 0001:0001051c       ??_Eexception@std@@UEAAPEAXI@Z 000000018001151c f i LIBCMT:throw_bad_alloc.obj
 0001:0001051c       ??_Gbad_array_new_length@std@@UEAAPEAXI@Z 000000018001151c f i LIBCMT:throw_bad_alloc.obj
 0001:0001051c       ??_Ebad_array_new_length@std@@UEAAPEAXI@Z 000000018001151c f i LIBCMT:throw_bad_alloc.obj
 0001:0001051c       ??_Gbad_exception@std@@UEAAPEAXI@Z 000000018001151c f i libvcruntime:frame.obj
 0001:00010560       ?__scrt_throw_std_bad_alloc@@YAXXZ 0000000180011560 f   LIBCMT:throw_bad_alloc.obj
 0001:00010580       ?__scrt_throw_std_bad_array_new_length@@YAXXZ 0000000180011580 f   LIBCMT:throw_bad_alloc.obj
 0001:000105a0       ?what@exception@std@@UEBAPEBDXZ 00000001800115a0 f i LIBCMT:throw_bad_alloc.obj
 0001:000105c0       ??_Etype_info@@UEAAPEAXI@Z 00000001800115c0 f i LIBCMT:std_type_info_static.obj
 0001:000105c0       ??_Gtype_info@@UEAAPEAXI@Z 00000001800115c0 f i LIBCMT:std_type_info_static.obj
 0001:000105ec       ??0CAtlBaseModule@ATL@@QEAA@XZ 00000001800115ec f   atls:atlbase.obj
 0001:00010694       ??1CAtlBaseModule@ATL@@QEAA@XZ 0000000180011694 f   atls:atlbase.obj
 0001:000107c8       ?__AllocStdCallThunk_cmn@@YAPEAXXZ 00000001800117c8 f   atls:atlthunk.obj
 0001:00010920       AtlThunk_AllocateData      0000000180011920 f   atls:atlthunk.obj
 0001:0001099c       AtlThunk_DataToCode        000000018001199c f   atls:atlthunk.obj
 0001:000109f0       AtlThunk_FreeData          00000001800119f0 f   atls:atlthunk.obj
 0001:00010a50       AtlThunk_InitData          0000000180011a50 f   atls:atlthunk.obj
 0001:00010af8       _get_purecall_handler      0000000180011af8 f   libvcruntime:purevirt.obj
 0001:00010b04       _purecall                  0000000180011b04 f   libvcruntime:purevirt.obj
 0001:00010b20       wcsstr                     0000000180011b20 f   libvcruntime:wcsstr.obj
 0001:00010d50       memcmp                     0000000180011d50 f   libvcruntime:memcmp.obj
 0001:00010e30       memcpy_repmovs             0000000180011e30 f   libvcruntime:memcpy.obj
 0001:00010e50       memmove                    0000000180011e50 f   libvcruntime:memcpy.obj
 0001:00010e50       memcpy                     0000000180011e50 f   libvcruntime:memcpy.obj
 0001:000114e0       memset_repmovs             00000001800124e0 f   libvcruntime:memset.obj
 0001:00011500       memset                     0000000180012500 f   libvcruntime:memset.obj
 0001:00011690       __vcrt_initialize          0000000180012690 f   libvcruntime:initialization.obj
 0001:000116b8       __vcrt_thread_attach       00000001800126b8 f   libvcruntime:initialization.obj
 0001:000116cc       __vcrt_thread_detach       00000001800126cc f   libvcruntime:initialization.obj
 0001:000116e0       __vcrt_uninitialize        00000001800126e0 f   libvcruntime:initialization.obj
 0001:000116fc       __vcrt_uninitialize_critical 00000001800126fc f   libvcruntime:initialization.obj
 0001:0001170c       __C_specific_handler       000000018001270c f   libvcruntime:riscchandler.obj
 0001:00011904       ??$_CallSETranslator@V__FrameHandler3@@@@YAHPEAUEHExceptionRecord@@PEA_KPEAU_CONTEXT@@PEAU_xDISPATCHER_CONTEXT@@PEBU_s_FuncInfo@@K1H@Z 0000000180012904 f i libvcruntime:risctrnsctrl.obj
 0001:00011958       ??$_CallSETranslator@V__FrameHandler4@@@@YAHPEAUEHExceptionRecord@@PEA_KPEAU_CONTEXT@@PEAU_xDISPATCHER_CONTEXT@@PEAUFuncInfo4@FH4@@K1H@Z 0000000180012958 f i libvcruntime:risctrnsctrl.obj
 0001:000119ac       ?CatchTryBlock@__FrameHandler3@@SAPEBU_s_TryBlockMapEntry@@PEBU_s_FuncInfo@@H@Z 00000001800129ac f   libvcruntime:risctrnsctrl.obj
 0001:00011a10       ?DecompFuncInfo@FH4@@YA_JPEAEAEAUFuncInfo4@1@_KH_N@Z 0000000180012a10 f i libvcruntime:risctrnsctrl.obj
 0001:00011b34       ?ExecutionInCatch@__FrameHandler3@@SA_NPEAU_xDISPATCHER_CONTEXT@@PEBU_s_FuncInfo@@@Z 0000000180012b34 f   libvcruntime:risctrnsctrl.obj
 0001:00011b60       ?ExecutionInCatch@__FrameHandler4@@SA_NPEAU_xDISPATCHER_CONTEXT@@PEAUFuncInfo4@FH4@@@Z 0000000180012b60 f   libvcruntime:risctrnsctrl.obj
 0001:00011b68       ?FrameUnwindToEmptyState@__FrameHandler3@@SAXPEA_KPEAU_xDISPATCHER_CONTEXT@@PEBU_s_FuncInfo@@@Z 0000000180012b68 f   libvcruntime:risctrnsctrl.obj
 0001:00011bcc       ?FrameUnwindToEmptyState@__FrameHandler4@@SAXPEA_KPEAU_xDISPATCHER_CONTEXT@@PEAUFuncInfo4@FH4@@@Z 0000000180012bcc f   libvcruntime:risctrnsctrl.obj
 0001:00011c00       ?GetEstablisherFrame@__FrameHandler3@@SAPEA_KPEA_KPEAU_xDISPATCHER_CONTEXT@@PEBU_s_FuncInfo@@0@Z 0000000180012c00 f   libvcruntime:risctrnsctrl.obj
 0001:00011ccc       ?GetEstablisherFrame@__FrameHandler4@@SAPEA_KPEA_KPEAU_xDISPATCHER_CONTEXT@@PEAUFuncInfo4@FH4@@0@Z 0000000180012ccc f   libvcruntime:risctrnsctrl.obj
 0001:00011cf0       ?GetRangeOfTrysToCheck@__FrameHandler3@@SA?AU?$pair@Viterator@TryBlockMap@__FrameHandler3@@V123@@std@@AEAVTryBlockMap@1@HPEAU_xDISPATCHER_CONTEXT@@PEBU_s_FuncInfo@@H@Z 0000000180012cf0 f   libvcruntime:risctrnsctrl.obj
 0001:00011e30       ?GetRangeOfTrysToCheck@__FrameHandler4@@SA?AU?$pair@Viterator@TryBlockMap4@FH4@@V123@@std@@AEAVTryBlockMap4@FH4@@HPEAU_xDISPATCHER_CONTEXT@@PEAUFuncInfo4@5@H@Z 0000000180012e30 f   libvcruntime:risctrnsctrl.obj
 0001:00011f9c       ?UnwindNestedFrames@__FrameHandler3@@SAXPEA_KPEAUEHExceptionRecord@@PEAU_CONTEXT@@0PEAXPEBU_s_FuncInfo@@HHPEBU_s_HandlerType@@PEAU_xDISPATCHER_CONTEXT@@E@Z 0000000180012f9c f   libvcruntime:risctrnsctrl.obj
 0001:000120a0       ?UnwindNestedFrames@__FrameHandler4@@SAXPEA_KPEAUEHExceptionRecord@@PEAU_CONTEXT@@0PEAXPEAUFuncInfo4@FH4@@HHPEAUHandlerType4@5@PEAU_xDISPATCHER_CONTEXT@@E@Z 00000001800130a0 f   libvcruntime:risctrnsctrl.obj
 0001:000121c0       ?setBuffer@TryBlockMap4@FH4@@QEAAXViterator@12@@Z 00000001800131c0 f i libvcruntime:risctrnsctrl.obj
 0001:00012384       _CreateFrameInfo           0000000180013384 f   libvcruntime:risctrnsctrl.obj
 0001:000123c0       _FindAndUnlinkFrame        00000001800133c0 f   libvcruntime:risctrnsctrl.obj
 0001:00012414       _GetImageBase              0000000180013414 f   libvcruntime:risctrnsctrl.obj
 0001:00012428       _GetThrowImageBase         0000000180013428 f   libvcruntime:risctrnsctrl.obj
 0001:0001243c       _SetImageBase              000000018001343c f   libvcruntime:risctrnsctrl.obj
 0001:00012454       _SetThrowImageBase         0000000180013454 f   libvcruntime:risctrnsctrl.obj
 0001:0001246c       __CxxFrameHandler3         000000018001346c f   libvcruntime:risctrnsctrl.obj
 0001:000124f4       __CxxFrameHandler4         00000001800134f4 f   libvcruntime:risctrnsctrl.obj
 0001:000125b4       __DestructExceptionObject  00000001800135b4 f   libvcruntime:ehhelpers.obj
 0001:00012624       ?_CallMemberFunction0@@YAXQEAX0@Z 0000000180013624 f i libvcruntime:ehhelpers.obj
 0001:00012628       _IsExceptionObjectToBeDestroyed 0000000180013628 f   libvcruntime:ehhelpers.obj
 0001:00012658       __AdjustPointer            0000000180013658 f   libvcruntime:ehhelpers.obj
 0001:0001267c       __FrameUnwindFilter        000000018001367c f   libvcruntime:ehhelpers.obj
 0001:000126e4       __std_terminate            00000001800136e4 f   libvcruntime:ehhelpers.obj
 0001:000126f0       __std_type_info_compare    00000001800136f0 f   libvcruntime:std_type_info.obj
 0001:00012718       __std_type_info_destroy_list 0000000180013718 f   libvcruntime:std_type_info.obj
 0001:00012744       __std_exception_copy       0000000180013744 f   libvcruntime:std_exception.obj
 0001:000127d4       __std_exception_destroy    00000001800137d4 f   libvcruntime:std_exception.obj
 0001:000127fc       _CxxThrowException         00000001800137fc f   libvcruntime:throw.obj
 0001:0001289c       __vcrt_freefls             000000018001389c f   libvcruntime:per_thread_data.obj
 0001:000128bc       __vcrt_freeptd             00000001800138bc f   libvcruntime:per_thread_data.obj
 0001:0001290c       __vcrt_getptd              000000018001390c f   libvcruntime:per_thread_data.obj
 0001:00012928       __vcrt_getptd_noexit       0000000180013928 f   libvcruntime:per_thread_data.obj
 0001:000129e8       __vcrt_initialize_ptd      00000001800139e8 f   libvcruntime:per_thread_data.obj
 0001:00012a30       __vcrt_uninitialize_ptd    0000000180013a30 f   libvcruntime:per_thread_data.obj
 0001:00012a54       __vcrt_initialize_locks    0000000180013a54 f   libvcruntime:locks.obj
 0001:00012a9c       __vcrt_uninitialize_locks  0000000180013a9c f   libvcruntime:locks.obj
 0001:00012af0       _NLG_Notify                0000000180013af0 f   libvcruntime:notify.obj
 0001:00012b10       __NLG_Dispatch2            0000000180013b10 f   libvcruntime:notify.obj
 0001:00012b20       __NLG_Return2              0000000180013b20 f   libvcruntime:notify.obj
 0001:00012b24       __except_validate_context_record 0000000180013b24 f   libvcruntime:jbcxrval.obj
 0001:00012b5c       ?GetCurrentState@__FrameHandler3@@SAHPEA_KPEAU_xDISPATCHER_CONTEXT@@PEBU_s_FuncInfo@@@Z 0000000180013b5c f   libvcruntime:ehstate.obj
 0001:00012b84       ?GetUnwindTryBlock@__FrameHandler3@@SAHPEA_KPEAU_xDISPATCHER_CONTEXT@@PEBU_s_FuncInfo@@@Z 0000000180013b84 f   libvcruntime:ehstate.obj
 0001:00012bb0       ?SetState@__FrameHandler3@@SAXPEA_KPEBU_s_FuncInfo@@H@Z 0000000180013bb0 f   libvcruntime:ehstate.obj
 0001:00012bbc       ?SetUnwindTryBlock@__FrameHandler3@@SAXPEA_KPEAU_xDISPATCHER_CONTEXT@@PEBU_s_FuncInfo@@H@Z 0000000180013bbc f   libvcruntime:ehstate.obj
 0001:00012bf8       ?StateFromControlPc@__FrameHandler3@@SAHPEBU_s_FuncInfo@@PEAU_xDISPATCHER_CONTEXT@@@Z 0000000180013bf8 f   libvcruntime:ehstate.obj
 0001:00012c00       ?StateFromControlPc@__FrameHandler4@@SAHPEAUFuncInfo4@FH4@@PEAU_xDISPATCHER_CONTEXT@@@Z 0000000180013c00 f   libvcruntime:ehstate.obj
 0001:00012c08       ?StateFromIp@__FrameHandler3@@SAHPEBU_s_FuncInfo@@PEAU_xDISPATCHER_CONTEXT@@_K@Z 0000000180013c08 f   libvcruntime:ehstate.obj
 0001:00012c70       ?StateFromIp@__FrameHandler4@@SAHPEAUFuncInfo4@FH4@@PEAU_xDISPATCHER_CONTEXT@@_K@Z 0000000180013c70 f   libvcruntime:ehstate.obj
 0001:00014370       ??$TypeMatchHelper@V__FrameHandler3@@@@YAHPEBU_s_HandlerType@@PEBU_s_CatchableType@@PEBU_s_ThrowInfo@@@Z 0000000180015370 f i libvcruntime:frame.obj
 0001:000144b0       ??$TypeMatchHelper@V__FrameHandler4@@@@YAHPEAUHandlerType4@FH4@@PEBU_s_CatchableType@@PEBU_s_ThrowInfo@@@Z 00000001800154b0 f i libvcruntime:frame.obj
 0001:000145f4       ??$__InternalCxxFrameHandler@V__FrameHandler3@@@@YA?AW4_EXCEPTION_DISPOSITION@@PEAUEHExceptionRecord@@PEA_KPEAU_CONTEXT@@PEAU_xDISPATCHER_CONTEXT@@PEBU_s_FuncInfo@@H1E@Z 00000001800155f4 f i libvcruntime:frame.obj
 0001:0001482c       ??$__InternalCxxFrameHandler@V__FrameHandler4@@@@YA?AW4_EXCEPTION_DISPOSITION@@PEAUEHExceptionRecord@@PEA_KPEAU_CONTEXT@@PEAU_xDISPATCHER_CONTEXT@@PEAUFuncInfo4@FH4@@H1E@Z 000000018001582c f i libvcruntime:frame.obj
 0001:00014ac0       ??0HandlerMap4@FH4@@QEAA@PEBUTryBlockMapEntry4@1@_KH@Z 0000000180015ac0 f i libvcruntime:frame.obj
 0001:00014b3c       ??0TryBlockMap4@FH4@@QEAA@PEBUFuncInfo4@1@_K@Z 0000000180015b3c f i libvcruntime:frame.obj
 0001:00014c14       ??0bad_exception@std@@QEAA@AEBV01@@Z 0000000180015c14 f i libvcruntime:frame.obj
 0001:00014c50       ??0bad_exception@std@@QEAA@XZ 0000000180015c50 f i libvcruntime:frame.obj
 0001:00014c70       ?CxxCallCatchBlock@__FrameHandler3@@SAPEAXPEAU_EXCEPTION_RECORD@@@Z 0000000180015c70 f   libvcruntime:frame.obj
 0001:00014e5c       ?CxxCallCatchBlock@__FrameHandler4@@SAPEAXPEAU_EXCEPTION_RECORD@@@Z 0000000180015e5c f   libvcruntime:frame.obj
 0001:000150ac       ?DecompHandler@HandlerMap4@FH4@@AEAAXXZ 00000001800160ac f i libvcruntime:frame.obj
 0001:000152f8       ?FrameUnwindToState@__FrameHandler3@@SAXPEA_KPEAU_xDISPATCHER_CONTEXT@@PEBU_s_FuncInfo@@H@Z 00000001800162f8 f   libvcruntime:frame.obj
 0001:00015484       ?FrameUnwindToState@__FrameHandler4@@SAXPEA_KPEAU_xDISPATCHER_CONTEXT@@PEAUFuncInfo4@FH4@@H@Z 0000000180016484 f   libvcruntime:frame.obj
 0001:00015780       ?GetHandlerSearchState@__FrameHandler3@@SAHPEA_KPEAU_xDISPATCHER_CONTEXT@@PEBU_s_FuncInfo@@@Z 0000000180016780 f i libvcruntime:frame.obj
 0001:00015990       ?ReadEntry@UWMap4@FH4@@AEAAXPEAPEAE@Z 0000000180016990 f i libvcruntime:frame.obj
 0001:00015a2c       ?_CallMemberFunction1@@YAXQEAX00@Z 0000000180016a2c f i libvcruntime:frame.obj
 0001:00015a38       ?_CallMemberFunction2@@YAXQEAX00H@Z 0000000180016a38 f i libvcruntime:frame.obj
 0001:00015a48       ?getStartStop@UWMap4@FH4@@QEAAXHHAEAViterator@12@0@Z 0000000180016a48 f i libvcruntime:frame.obj
 0001:00015b18       ?getStateFromIterators@UWMap4@FH4@@SAHAEBViterator@12@H0H0@Z 0000000180016b18 f i libvcruntime:frame.obj
 0001:00015d34       __vcrt_FlsAlloc            0000000180016d34 f   libvcruntime:winapi_downlevel.obj
 0001:00015d7c       __vcrt_FlsFree             0000000180016d7c f   libvcruntime:winapi_downlevel.obj
 0001:00015dc4       __vcrt_FlsGetValue         0000000180016dc4 f   libvcruntime:winapi_downlevel.obj
 0001:00015e0c       __vcrt_FlsSetValue         0000000180016e0c f   libvcruntime:winapi_downlevel.obj
 0001:00015e60       __vcrt_InitializeCriticalSectionEx 0000000180016e60 f   libvcruntime:winapi_downlevel.obj
 0001:00015ee0       _CallSettingFrame          0000000180016ee0 f   libvcruntime:handlers.obj
 0001:00015f30       _CallSettingFrame_LookupContinuationIndex 0000000180016f30 f   libvcruntime:handlers.obj
 0001:00015f60       _CallSettingFrame_NotifyContinuationAddr 0000000180016f60 f   libvcruntime:handlers.obj
 0001:00015f90       _CallSettingFrameEncoded   0000000180016f90 f   libvcruntime:handlers.obj
 0001:00015fd8       free                       0000000180016fd8 f   libucrt:free.obj
 0001:00015fec       ?get_raw_ptd@__crt_cached_ptd_host@@QEAAPEAU__acrt_ptd@@XZ 0000000180016fec f i libucrt:invalid_parameter.obj
 0001:00016054       ?get_raw_ptd_noexit@__crt_cached_ptd_host@@QEAAPEAU__acrt_ptd@@XZ 0000000180017054 f i libucrt:invalid_parameter.obj
 0001:000160c0       ?value@?$dual_state_global@P6AXPEB_W00I_K@Z@__crt_state_management@@QEAAAEAP6AXPEB_W00I_K@ZAEAV__crt_cached_ptd_host@@@Z 00000001800170c0 f i libucrt:invalid_parameter.obj
 0001:0001610c       __acrt_call_reportfault    000000018001710c f   libucrt:invalid_parameter.obj
 0001:00016268       __acrt_initialize_invalid_parameter_handler 0000000180017268 f   libucrt:invalid_parameter.obj
 0001:00016270       _invalid_parameter         0000000180017270 f   libucrt:invalid_parameter.obj
 0001:0001630c       _invalid_parameter_internal 000000018001730c f   libucrt:invalid_parameter.obj
 0001:000163dc       _invalid_parameter_noinfo  00000001800173dc f   libucrt:invalid_parameter.obj
 0001:000163fc       _invoke_watson             00000001800173fc f   libucrt:invalid_parameter.obj
 0001:00016444       __acrt_errno_from_os_error 0000000180017444 f   libucrt:errno.obj
 0001:0001648c       __acrt_errno_map_os_error  000000018001748c f   libucrt:errno.obj
 0001:000164d4       __acrt_errno_map_os_error_ptd 00000001800174d4 f   libucrt:errno.obj
 0001:000164f8       __doserrno                 00000001800174f8 f   libucrt:errno.obj
 0001:00016518       _errno                     0000000180017518 f   libucrt:errno.obj
 0001:00016538       calloc                     0000000180017538 f   libucrt:calloc.obj
 0001:00016540       malloc                     0000000180017540 f   libucrt:malloc.obj
 0001:00016548       _recalloc                  0000000180017548 f   libucrt:recalloc.obj
 0001:00016550       _recalloc_base             0000000180017550 f   libucrt:recalloc.obj
 0001:000165e8       _resetstkoflw              00000001800175e8 f   libucrt:resetstk.obj
 0001:00016714       wcscat_s                   0000000180017714 f   libucrt:wcscat_s.obj
 0001:00016798       wcscpy_s                   0000000180017798 f   libucrt:wcscpy_s.obj
 0001:00016800       wcsncpy_s                  0000000180017800 f   libucrt:wcsncpy_s.obj
 0001:00016ab4       ??$ensure_buffer_is_big_enough@D@formatting_buffer@__crt_stdio_output@@QEAA_N_KAEAV__crt_cached_ptd_host@@@Z 0000000180017ab4 f i libucrt:output.obj
 0001:00016b5c       ??$ensure_buffer_is_big_enough@_W@formatting_buffer@__crt_stdio_output@@QEAA_N_KAEAV__crt_cached_ptd_host@@@Z 0000000180017b5c f i libucrt:output.obj
 0001:00016c08       ??$is_wide_character_specifier@_W@__crt_stdio_output@@YA_N_K_WW4length_modifier@0@@Z 0000000180017c08 f i libucrt:output.obj
 0001:00016c48       ??$parse_integer@KV?$c_string_character_source@_W@__crt_strtox@@$0A@@__crt_strtox@@YAKAEAV__crt_cached_ptd_host@@V?$c_string_character_source@_W@0@H_N@Z 0000000180017c48 f i libucrt:output.obj
 0001:000173a0       ??$type_case_integer@$07@?$output_processor@_WV?$string_output_adapter@_W@__crt_stdio_output@@V?$format_validation_base@_WV?$string_output_adapter@_W@__crt_stdio_output@@@2@@__crt_stdio_output@@AEAA_N_N@Z 00000001800183a0 f i libucrt:output.obj
 0001:0001758c       ??$type_case_integer@$09@?$output_processor@_WV?$string_output_adapter@_W@__crt_stdio_output@@V?$format_validation_base@_WV?$string_output_adapter@_W@__crt_stdio_output@@@2@@__crt_stdio_output@@AEAA_N_N@Z 000000018001858c f i libucrt:output.obj
 0001:00017778       ??$type_case_integer@$0BA@@?$output_processor@_WV?$string_output_adapter@_W@__crt_stdio_output@@V?$format_validation_base@_WV?$string_output_adapter@_W@__crt_stdio_output@@@2@@__crt_stdio_output@@AEAA_N_N@Z 0000000180018778 f i libucrt:output.obj
 0001:00017964       ??$type_case_integer_parse_into_buffer@I$07@?$output_processor@_WV?$string_output_adapter@_W@__crt_stdio_output@@V?$format_validation_base@_WV?$string_output_adapter@_W@__crt_stdio_output@@@2@@__crt_stdio_output@@AEAAXI_N@Z 0000000180018964 f i libucrt:output.obj
 0001:000179ec       ??$type_case_integer_parse_into_buffer@I$09@?$output_processor@_WV?$string_output_adapter@_W@__crt_stdio_output@@V?$format_validation_base@_WV?$string_output_adapter@_W@__crt_stdio_output@@@2@@__crt_stdio_output@@AEAAXI_N@Z 00000001800189ec f i libucrt:output.obj
 0001:00017aa4       ??$type_case_integer_parse_into_buffer@I$0BA@@?$output_processor@_WV?$string_output_adapter@_W@__crt_stdio_output@@V?$format_validation_base@_WV?$string_output_adapter@_W@__crt_stdio_output@@@2@@__crt_stdio_output@@AEAAXI_N@Z 0000000180018aa4 f i libucrt:output.obj
 0001:00017b48       ??$type_case_integer_parse_into_buffer@_K$07@?$output_processor@_WV?$string_output_adapter@_W@__crt_stdio_output@@V?$format_validation_base@_WV?$string_output_adapter@_W@__crt_stdio_output@@@2@@__crt_stdio_output@@AEAAX_K_N@Z 0000000180018b48 f i libucrt:output.obj
 0001:00017bd0       ??$type_case_integer_parse_into_buffer@_K$09@?$output_processor@_WV?$string_output_adapter@_W@__crt_stdio_output@@V?$format_validation_base@_WV?$string_output_adapter@_W@__crt_stdio_output@@@2@@__crt_stdio_output@@AEAAX_K_N@Z 0000000180018bd0 f i libucrt:output.obj
 0001:00017c90       ??$type_case_integer_parse_into_buffer@_K$0BA@@?$output_processor@_WV?$string_output_adapter@_W@__crt_stdio_output@@V?$format_validation_base@_WV?$string_output_adapter@_W@__crt_stdio_output@@@2@@__crt_stdio_output@@AEAAX_K_N@Z 0000000180018c90 f i libucrt:output.obj
 0001:00017d34       ?crop_zeroes@__crt_stdio_output@@YAXPEADQEAU__crt_locale_pointers@@@Z 0000000180018d34 f i libucrt:output.obj
 0001:00017da0       ?parse_int_from_format_string@?$output_processor@_WV?$string_output_adapter@_W@__crt_stdio_output@@V?$format_validation_base@_WV?$string_output_adapter@_W@__crt_stdio_output@@@2@@__crt_stdio_output@@AEAA_NQEAH@Z 0000000180018da0 f i libucrt:output.obj
 0001:00017e30       ?process@?$output_processor@_WV?$string_output_adapter@_W@__crt_stdio_output@@V?$format_validation_base@_WV?$string_output_adapter@_W@__crt_stdio_output@@@2@@__crt_stdio_output@@QEAAHXZ 0000000180018e30 f i libucrt:output.obj
 0001:0001810c       ?state_case_size@?$output_processor@_WV?$string_output_adapter@_W@__crt_stdio_output@@V?$format_validation_base@_WV?$string_output_adapter@_W@__crt_stdio_output@@@2@@__crt_stdio_output@@AEAA_NXZ 000000018001910c f i libucrt:output.obj
 0001:000182b8       ?state_case_type@?$output_processor@_WV?$string_output_adapter@_W@__crt_stdio_output@@V?$format_validation_base@_WV?$string_output_adapter@_W@__crt_stdio_output@@@2@@__crt_stdio_output@@AEAA_NXZ 00000001800192b8 f i libucrt:output.obj
 0001:00018714       ?type_case_Z@?$output_processor@_WV?$string_output_adapter@_W@__crt_stdio_output@@V?$format_validation_base@_WV?$string_output_adapter@_W@__crt_stdio_output@@@2@@__crt_stdio_output@@AEAA_NXZ 0000000180019714 f i libucrt:output.obj
 0001:00018790       ?type_case_a@?$output_processor@_WV?$string_output_adapter@_W@__crt_stdio_output@@V?$format_validation_base@_WV?$string_output_adapter@_W@__crt_stdio_output@@@2@@__crt_stdio_output@@AEAA_NXZ 0000000180019790 f i libucrt:output.obj
 0001:000189f0       ?type_case_c_tchar@?$output_processor@_WV?$string_output_adapter@_W@__crt_stdio_output@@V?$format_validation_base@_WV?$string_output_adapter@_W@__crt_stdio_output@@@2@@__crt_stdio_output@@AEAA_N_W@Z 00000001800199f0 f i libucrt:output.obj
 0001:00018ab4       ?type_case_n@?$output_processor@_WV?$string_output_adapter@_W@__crt_stdio_output@@V?$format_validation_base@_WV?$string_output_adapter@_W@__crt_stdio_output@@@2@@__crt_stdio_output@@AEAA_NXZ 0000000180019ab4 f i libucrt:output.obj
 0001:00018b68       ?type_case_s@?$output_processor@_WV?$string_output_adapter@_W@__crt_stdio_output@@V?$format_validation_base@_WV?$string_output_adapter@_W@__crt_stdio_output@@@2@@__crt_stdio_output@@AEAA_NXZ 0000000180019b68 f i libucrt:output.obj
 0001:00018c00       ?type_case_s_compute_narrow_string_length@?$output_processor@_WV?$string_output_adapter@_W@__crt_stdio_output@@V?$format_validation_base@_WV?$string_output_adapter@_W@__crt_stdio_output@@@2@@__crt_stdio_output@@AEAAHH_W@Z 0000000180019c00 f i libucrt:output.obj
 0001:00018c80       ?update_locale_slow@__crt_cached_ptd_host@@AEAAXXZ 0000000180019c80 f i libucrt:output.obj
 0001:00018cf8       ?write_string@?$string_output_adapter@_W@__crt_stdio_output@@QEBAXQEB_WHQEAHAEAV__crt_cached_ptd_host@@@Z 0000000180019cf8 f i libucrt:output.obj
 0001:00018da0       __stdio_common_vswprintf_s 0000000180019da0 f   libucrt:output.obj
 0001:00018eb4       _seh_filter_dll            0000000180019eb4 f   libucrt:exception_filter.obj
 0001:00018ec8       _seh_filter_exe            0000000180019ec8 f   libucrt:exception_filter.obj
 0001:000192ec       __acrt_initialize_thread_local_exit_callback 000000018001a2ec f   libucrt:exit.obj
 0001:000192f4       _cexit                     000000018001a2f4 f   libucrt:exit.obj
 0001:00019304       _exit                      000000018001a304 f   libucrt:exit.obj
 0001:00019310       _is_c_termination_complete 000000018001a310 f   libucrt:exit.obj
 0001:000194d8       __acrt_allocate_buffer_for_argv 000000018001a4d8 f   libucrt:argv_parsing.obj
 0001:00019538       _configure_narrow_argv     000000018001a538 f   libucrt:argv_parsing.obj
 0001:000198c0       __dcrt_uninitialize_environments_nolock 000000018001a8c0 f   libucrt:environment_initialization.obj
 0001:00019904       _initialize_narrow_environment 000000018001a904 f   libucrt:environment_initialization.obj
 0001:00019c54       _crt_atexit                000000018001ac54 f   libucrt:onexit.obj
 0001:00019c64       _execute_onexit_table      000000018001ac64 f   libucrt:onexit.obj
 0001:00019ca8       _initialize_onexit_table   000000018001aca8 f   libucrt:onexit.obj
 0001:00019cd0       _register_onexit_function  000000018001acd0 f   libucrt:onexit.obj
 0001:00019d50       __acrt_uninitialize_command_line 000000018001ad50 f   libucrt:argv_data.obj
 0001:00019e48       __acrt_initialize          000000018001ae48 f   libucrt:initialization.obj
 0001:00019e5c       __acrt_thread_attach       000000018001ae5c f   libucrt:initialization.obj
 0001:00019e70       __acrt_thread_detach       000000018001ae70 f   libucrt:initialization.obj
 0001:00019e80       __acrt_uninitialize        000000018001ae80 f   libucrt:initialization.obj
 0001:00019eb8       __acrt_uninitialize_critical 000000018001aeb8 f   libucrt:initialization.obj
 0001:00019ec8       _initterm                  000000018001aec8 f   libucrt:initterm.obj
 0001:00019f0c       _initterm_e                000000018001af0c f   libucrt:initterm.obj
 0001:00019f54       __acrt_initialize_new_handler 000000018001af54 f   libucrt:new_handler.obj
 0001:00019f5c       _callnewh                  000000018001af5c f   libucrt:new_handler.obj
 0001:00019f98       _query_new_handler         000000018001af98 f   libucrt:new_handler.obj
 0001:00019fcc       terminate                  000000018001afcc f   libucrt:terminate.obj
 0001:00019ff8       abort                      000000018001aff8 f   libucrt:abort.obj
 0001:0001a050       strcpy_s                   000000018001b050 f   libucrt:strcpy_s.obj
 0001:0001a0c0       strncmp                    000000018001b0c0 f   libucrt:strncmp.obj
 0001:0001a140       wcsncmp                    000000018001b140 f   libucrt:wcsncmp.obj
 0001:0001a16c       _free_base                 000000018001b16c f   libucrt:free_base.obj
 0001:0001a520       __acrt_freeptd             000000018001b520 f   libucrt:per_thread_data.obj
 0001:0001a564       __acrt_getptd              000000018001b564 f   libucrt:per_thread_data.obj
 0001:0001a638       __acrt_getptd_head         000000018001b638 f   libucrt:per_thread_data.obj
 0001:0001a6dc       __acrt_getptd_noexit       000000018001b6dc f   libucrt:per_thread_data.obj
 0001:0001a7a4       __acrt_getptd_noexit_explicit 000000018001b7a4 f   libucrt:per_thread_data.obj
 0001:0001a864       __acrt_initialize_ptd      000000018001b864 f   libucrt:per_thread_data.obj
 0001:0001a8a0       __acrt_uninitialize_ptd    000000018001b8a0 f   libucrt:per_thread_data.obj
 0001:0001a934       __acrt_set_locale_changed  000000018001b934 f   libucrt:wsetlocale.obj
 0001:0001a940       __acrt_uninitialize_locale 000000018001b940 f   libucrt:wsetlocale.obj
 0001:0001a970       _calloc_base               000000018001b970 f   libucrt:calloc_base.obj
 0001:0001a9e8       _malloc_base               000000018001b9e8 f   libucrt:malloc_base.obj
 0001:0001aa48       _msize_base                000000018001ba48 f   libucrt:msize.obj
 0001:0001aa84       _realloc_base              000000018001ba84 f   libucrt:realloc_base.obj
 0001:0001acc0       __acrt_AppPolicyGetProcessTerminationMethodInternal 000000018001bcc0 f   libucrt:winapi_thunks.obj
 0001:0001ad18       __acrt_AreFileApisANSI     000000018001bd18 f   libucrt:winapi_thunks.obj
 0001:0001ad5c       __acrt_FlsAlloc            000000018001bd5c f   libucrt:winapi_thunks.obj
 0001:0001ad64       __acrt_FlsFree             000000018001bd64 f   libucrt:winapi_thunks.obj
 0001:0001ad6c       __acrt_FlsGetValue         000000018001bd6c f   libucrt:winapi_thunks.obj
 0001:0001ad74       __acrt_FlsSetValue         000000018001bd74 f   libucrt:winapi_thunks.obj
 0001:0001ad7c       __acrt_InitializeCriticalSectionEx 000000018001bd7c f   libucrt:winapi_thunks.obj
 0001:0001adec       __acrt_LCMapStringEx       000000018001bdec f   libucrt:winapi_thunks.obj
 0001:0001aed8       __acrt_LocaleNameToLCID    000000018001bed8 f   libucrt:winapi_thunks.obj
 0001:0001af38       __acrt_SetThreadStackGuarantee 000000018001bf38 f   libucrt:winapi_thunks.obj
 0001:0001af84       __acrt_initialize_winapi_thunks 000000018001bf84 f   libucrt:winapi_thunks.obj
 0001:0001afa8       __acrt_uninitialize_winapi_thunks 000000018001bfa8 f   libucrt:winapi_thunks.obj
 0001:0001afec       wcsnlen                    000000018001bfec f   libucrt:strnlen.obj
 0001:0001b1c4       __acrt_update_locale_info  000000018001c1c4 f   libucrt:locale_update.obj
 0001:0001b1f8       __acrt_update_locale_info_explicit 000000018001c1f8 f   libucrt:locale_update.obj
 0001:0001b230       __acrt_update_multibyte_info 000000018001c230 f   libucrt:locale_update.obj
 0001:0001b264       __acrt_update_multibyte_info_explicit 000000018001c264 f   libucrt:locale_update.obj
 0001:0001bdcc       __acrt_fp_format           000000018001cdcc f   libucrt:cvt.obj
 0001:0001c0b4       _mbtowc_internal           000000018001d0b4 f   libucrt:mbtowc.obj
 0001:0001c22c       _fileno                    000000018001d22c f   libucrt:fileno.obj
 0001:0001c254       __acrt_initialize_stdio    000000018001d254 f   libucrt:_file.obj
 0001:0001c374       __acrt_uninitialize_stdio  000000018001d374 f   libucrt:_file.obj
 0001:0001c3d0       _lock_file                 000000018001d3d0 f   libucrt:_file.obj
 0001:0001c3dc       _unlock_file               000000018001d3dc f   libucrt:_file.obj
 0001:0001c3e8       _get_printf_count_output   000000018001d3e8 f   libucrt:printf_count_output.obj
 0001:0001c5f8       __acrt_initialize_lowio    000000018001d5f8 f   libucrt:ioinit.obj
 0001:0001c634       __acrt_uninitialize_lowio  000000018001d634 f   libucrt:ioinit.obj
 0001:0001c674       __acrt_initialize_locks    000000018001d674 f   libucrt:locks.obj
 0001:0001c6bc       __acrt_lock                000000018001d6bc f   libucrt:locks.obj
 0001:0001c6d8       __acrt_uninitialize_locks  000000018001d6d8 f   libucrt:locks.obj
 0001:0001c710       __acrt_unlock              000000018001d710 f   libucrt:locks.obj
 0001:0001c72c       __acrt_get_process_end_policy 000000018001d72c f   libucrt:win_policies.obj
 0001:0001c77c       ??$__acrt_convert_wcs_mbs_cp@D_WV<lambda_7c9dea7b4ca7285d2cdb541a38da6275>@@U__crt_win32_buffer_internal_dynamic_resizing@@@@YAHQEBDAEAV?$__crt_win32_buffer@_WU__crt_win32_buffer_internal_dynamic_resizing@@@@AEBV<lambda_7c9dea7b4ca7285d2cdb541a38da6275>@@I@Z 000000018001d77c f i libucrt:argv_wildcards.obj
 0001:0001c8f8       ??$__acrt_convert_wcs_mbs_cp@_WDV<lambda_d8593a27d1aa8c02be35c86a17d324c4>@@U__crt_win32_buffer_internal_dynamic_resizing@@@@YAHQEB_WAEAV?$__crt_win32_buffer@DU__crt_win32_buffer_internal_dynamic_resizing@@@@AEBV<lambda_d8593a27d1aa8c02be35c86a17d324c4>@@I@Z 000000018001d8f8 f i libucrt:argv_wildcards.obj
 0001:0001d1a0       ??0_LocaleUpdate@@QEAA@QEAU__crt_locale_pointers@@@Z 000000018001e1a0 f i libucrt:argv_wildcards.obj
 0001:0001d23c       __acrt_expand_narrow_argv_wildcards 000000018001e23c f   libucrt:argv_wildcards.obj
 0001:0001d244       ??$__acrt_convert_wcs_mbs_cp@_WDV<lambda_f788ae46380686e8b737efdd8c720d07>@@U__crt_win32_buffer_no_resizing@@@@YAHQEB_WAEAV?$__crt_win32_buffer@DU__crt_win32_buffer_no_resizing@@@@AEBV<lambda_f788ae46380686e8b737efdd8c720d07>@@I@Z 000000018001e244 f i libucrt:getmodulefilenamea.obj
 0001:0001d360       __acrt_GetModuleFileNameA  000000018001e360 f   libucrt:getmodulefilenamea.obj
 0001:0001dc7c       __acrt_initialize_multibyte 000000018001ec7c f   libucrt:mbctype.obj
 0001:0001dcdc       __acrt_update_thread_multibyte_data 000000018001ecdc f   libucrt:mbctype.obj
 0001:0001dcf8       _setmbcp_nolock            000000018001ecf8 f   libucrt:mbctype.obj
 0001:0001e02c       _ismbblead                 000000018001f02c f   libucrt:ismbbyte.obj
 0001:0001e040       __acrt_initialize_command_line 000000018001f040 f   libucrt:argv_data.obj
 0001:0001e068       __acrt_MultiByteToWideChar 000000018001f068 f   libucrt:multibytetowidechar.obj
 0001:0001e0c4       __acrt_WideCharToMultiByte 000000018001f0c4 f   libucrt:widechartomultibyte.obj
 0001:0001e174       __dcrt_get_narrow_environment_from_os 000000018001f174 f   libucrt:get_environment_from_os.obj
 0001:0001e284       __acrt_initialize_heap     000000018001f284 f   libucrt:heap_handle.obj
 0001:0001e2a0       __acrt_uninitialize_heap   000000018001f2a0 f   libucrt:heap_handle.obj
 0001:0001e2ac       __acrt_execute_initializers 000000018001f2ac f   libucrt:shared_initialization.obj
 0001:0001e340       __acrt_execute_uninitializers 000000018001f340 f   libucrt:shared_initialization.obj
 0001:0001e3d0       __acrt_get_sigabrt_handler 000000018001f3d0 f   libucrt:signal.obj
 0001:0001e400       __acrt_initialize_signal_handlers 000000018001f400 f   libucrt:signal.obj
 0001:0001e420       raise                      000000018001f420 f   libucrt:signal.obj
 0001:0001e6a0       __acrt_has_user_matherr    000000018001f6a0 f   libucrt:matherr.obj
 0001:0001e6c0       __acrt_initialize_user_matherr 000000018001f6c0 f   libucrt:matherr.obj
 0001:0001e6c8       __acrt_invoke_user_matherr 000000018001f6c8 f   libucrt:matherr.obj
 0001:0001e8dc       __acrt_stdio_flush_nolock  000000018001f8dc f   libucrt:fflush.obj
 0001:0001e968       _fflush_nolock             000000018001f968 f   libucrt:fflush.obj
 0001:0001ea3c       _flushall                  000000018001fa3c f   libucrt:fflush.obj
 0001:0001ea44       __acrt_add_locale_ref      000000018001fa44 f   libucrt:locale_refcounting.obj
 0001:0001ead0       __acrt_free_locale         000000018001fad0 f   libucrt:locale_refcounting.obj
 0001:0001ec48       __acrt_locale_add_lc_time_reference 000000018001fc48 f   libucrt:locale_refcounting.obj
 0001:0001ec70       __acrt_locale_free_lc_time_if_unreferenced 000000018001fc70 f   libucrt:locale_refcounting.obj
 0001:0001eca8       __acrt_locale_release_lc_time_reference 000000018001fca8 f   libucrt:locale_refcounting.obj
 0001:0001ecd0       __acrt_release_locale_ref  000000018001fcd0 f   libucrt:locale_refcounting.obj
 0001:0001ed78       __acrt_update_thread_locale_data 000000018001fd78 f   libucrt:locale_refcounting.obj
 0001:0001ede8       _updatetlocinfoEx_nolock   000000018001fde8 f   libucrt:locale_refcounting.obj
 0001:0001ee50       __acrt_locale_free_monetary 000000018001fe50 f   libucrt:initmon.obj
 0001:0001ef5c       __acrt_locale_free_numeric 000000018001ff5c f   libucrt:initnum.obj
 0001:0001effc       __acrt_locale_free_time    000000018001fffc f   libucrt:inittime.obj
 0001:0001f104       __acrt_GetStringTypeA      0000000180020104 f   libucrt:getstringtypea.obj
 0001:0001f2a0       _query_new_mode            00000001800202a0 f   libucrt:new_mode.obj
 0001:0001f2a8       __acrt_DownlevelLocaleNameToLCID 00000001800202a8 f   libucrt:lcidtoname_downlevel.obj
 0001:0001f350       __acrt_fp_strflt_to_string 0000000180020350 f   libucrt:_fptostr.obj
 0001:0001f4e0       ?divide@__crt_strtox@@YA_KAEAUbig_integer@1@AEBU21@@Z 00000001800204e0 f i libucrt:cfout.obj
 0001:0001f96c       __acrt_fltout              000000018002096c f   libucrt:cfout.obj
 0001:00020c34       fegetround                 0000000180021c34 f   libucrt:fegetround.obj
 0001:00020c48       ?__mbrtowc_utf8@__crt_mbstring@@YA_KPEA_WPEBD_KPEAU_Mbstatet@@AEAV__crt_cached_ptd_host@@@Z 0000000180021c48 f   libucrt:mbrtowc.obj
 0001:00020c8c       ?__mbsrtowcs_utf8@__crt_mbstring@@YA_KPEA_WPEAPEBD_KPEAU_Mbstatet@@AEAV__crt_cached_ptd_host@@@Z 0000000180021c8c f   libucrt:mbrtowc.obj
 0001:00020e30       _fcloseall                 0000000180021e30 f   libucrt:closeall.obj
 0001:00020ee4       __acrt_stdio_free_buffer_nolock 0000000180021ee4 f   libucrt:_freebuf.obj
 0001:00020f24       _isatty                    0000000180021f24 f   libucrt:isatty.obj
 0001:00020f84       __acrt_lowio_create_handle_array 0000000180021f84 f   libucrt:osfinfo.obj
 0001:0002102c       __acrt_lowio_destroy_handle_array 000000018002202c f   libucrt:osfinfo.obj
 0001:0002107c       __acrt_lowio_ensure_fh_exists 000000018002207c f   libucrt:osfinfo.obj
 0001:00021124       __acrt_lowio_lock_fh       0000000180022124 f   libucrt:osfinfo.obj
 0001:0002114c       __acrt_lowio_unlock_fh     000000018002214c f   libucrt:osfinfo.obj
 0001:00021174       _free_osfhnd               0000000180022174 f   libucrt:osfinfo.obj
 0001:00021230       _get_osfhandle             0000000180022230 f   libucrt:osfinfo.obj
 0001:000212b0       qsort                      00000001800222b0 f   libucrt:qsort.obj
 0001:000216c0       strncpy_s                  00000001800226c0 f   libucrt:strncpy_s.obj
 0001:00021850       strpbrk                    0000000180022850 f   libucrt:strpbrk.obj
 0001:00021c18       _mbsdec                    0000000180022c18 f   libucrt:mbsdec.obj
 0001:00021c20       _mbsdec_l                  0000000180022c20 f   libucrt:mbsdec.obj
 0001:00021fd4       __acrt_LCMapStringA        0000000180022fd4 f   libucrt:lcmapstringa.obj
 0001:00022110       _commit                    0000000180023110 f   libucrt:commit.obj
 0001:000229c0       _write_internal            00000001800239c0 f   libucrt:write.obj
 0001:00022ae8       _write_nolock              0000000180023ae8 f   libucrt:write.obj
 0001:00022df8       __ascii_wcsnicmp           0000000180023df8 f   libucrt:wcsnicmp.obj
 0001:00022e44       _controlfp_s               0000000180023e44 f   libucrt:contrlfp.obj
 0001:00022ea8       fegetenv                   0000000180023ea8 f   libucrt:fegetenv.obj
 0001:00022ec8       fesetenv                   0000000180023ec8 f   libucrt:fesetenv.obj
 0001:00022f14       feholdexcept               0000000180023f14 f   libucrt:feholdexcept.obj
 0001:00022f64       ceil                       0000000180023f64 f   libucrt:ceil.obj
 0001:00023030       log10                      0000000180024030 f   libucrt:log10.obj
 0001:000235dc       __acrt_fenv_get_common_round_control 00000001800245dc f   libucrt:_fenvutils.obj
 0001:000235e8       __acrt_fenv_get_control    00000001800245e8 f   libucrt:_fenvutils.obj
 0001:000236cc       __acrt_fenv_get_status     00000001800246cc f   libucrt:_fenvutils.obj
 0001:00023724       __acrt_fenv_set_control    0000000180024724 f   libucrt:_fenvutils.obj
 0001:00023860       __acrt_fenv_set_status     0000000180024860 f   libucrt:_fenvutils.obj
 0001:000238d4       ?reset_and_return@__crt_mbstring@@YA_K_KPEAU_Mbstatet@@@Z 00000001800248d4 f   libucrt:common_utf8.obj
 0001:000238dc       ?return_illegal_sequence@__crt_mbstring@@YA_KPEAU_Mbstatet@@AEAV__crt_cached_ptd_host@@@Z 00000001800248dc f   libucrt:common_utf8.obj
 0001:000238f0       ?__mbrtoc32_utf8@__crt_mbstring@@YA_KPEA_UPEBD_KPEAU_Mbstatet@@AEAV__crt_cached_ptd_host@@@Z 00000001800248f0 f   libucrt:mbrtoc32.obj
 0001:00023bec       fclose                     0000000180024bec f   libucrt:fclose.obj
 0001:00023d30       _lseeki64_nolock_internal  0000000180024d30 f   libucrt:lseek.obj
 0001:00023d38       _query_app_type            0000000180024d38 f   libucrt:report_runtime_error.obj
 0001:00023d40       __strncnt                  0000000180024d40 f   libucrt:strncnt.obj
 0001:00023d58       _putwch_nolock             0000000180024d58 f   libucrt:putwch.obj
 0001:00023d94       _clearfp                   0000000180024d94 f   libucrt:ieee.obj
 0001:00023e04       _control87                 0000000180024e04 f   libucrt:ieee.obj
 0001:000241f0       _handle_error              00000001800251f0 f   libucrt:libm_error.obj
 0001:00024318       _handle_nan                0000000180025318 f   libucrt:libm_error.obj
 0001:00024340       __acrt_initialize_fma3     0000000180025340 f   libucrt:fma3_available.obj
 0001:000243b0       _log10_special             00000001800253b0 f   libucrt:log_special.obj
 0001:000244e0       _close_internal            00000001800254e0 f   libucrt:close.obj
 0001:000245a4       _close_nolock_internal     00000001800255a4 f   libucrt:close.obj
 0001:00024674       ?__acrt_stdio_free_stream@@YAXV__crt_stdio_stream@@@Z 0000000180025674 f   libucrt:stream.obj
 0001:00024690       __dcrt_lowio_ensure_console_output_initialized 0000000180025690 f   libucrt:initcon.obj
 0001:000246e4       __dcrt_terminate_console_output 00000001800256e4 f   libucrt:initcon.obj
 0001:00024700       __dcrt_write_console       0000000180025700 f   libucrt:initcon.obj
 0001:000247d0       _get_fpsr                  00000001800257d0 f   libucrt:fpsr.obj
 0001:000247e0       _set_fpsr                  00000001800257e0 f   libucrt:fpsr.obj
 0001:000247ea       _fclrf                     00000001800257ea f   libucrt:fpsr.obj
 0001:000247fe       _frnd                      00000001800257fe f   libucrt:fpsr.obj
 0001:00024820       _raise_exc                 0000000180025820 f   libucrt:fpexcept.obj
 0001:00024848       _raise_exc_ex              0000000180025848 f   libucrt:fpexcept.obj
 0001:00024b58       _set_errno_from_matherr    0000000180025b58 f   libucrt:fpexcept.obj
 0001:00024b88       _clrfp                     0000000180025b88 f   libucrt:fpctrl.obj
 0001:00024ba8       _ctrlfp                    0000000180025ba8 f   libucrt:fpctrl.obj
 0001:00024c24       _set_statfp                0000000180025c24 f   libucrt:fpctrl.obj
 0001:00024c44       _statfp                    0000000180025c44 f   libucrt:fpctrl.obj
 0001:00024c60       _FindPESection             0000000180025c60 f   LIBCMT:pesect.obj
 0001:00024cb0       _IsNonwritableInCurrentImage 0000000180025cb0 f   LIBCMT:pesect.obj
 0001:00024d00       _ValidateImageBase         0000000180025d00 f   LIBCMT:pesect.obj
 0001:00024d2c       __GSHandlerCheck_EH        0000000180025d2c f   LIBCMT:gshandlereh.obj
 0001:00024dac       __C_specific_handler_noexcept 0000000180025dac f   libvcruntime:chandler_noexcept.obj
 0001:00024df8       strrchr                    0000000180025df8 f   libvcruntime:strrchr.obj
 0001:00024f50       _guard_dispatch_icall_nop  0000000180025f50 f   LIBCMT:guard_dispatch.obj
 0001:00024f70       _guard_xfg_dispatch_icall_nop 0000000180025f70 f   LIBCMT:guard_xfg_dispatch.obj
 0002:00000000       __imp_RegQueryValueExW     0000000180027000     advapi32:ADVAPI32.dll
 0002:00000008       __imp_RegSetValueExW       0000000180027008     advapi32:ADVAPI32.dll
 0002:00000010       __imp_RegQueryInfoKeyW     0000000180027010     advapi32:ADVAPI32.dll
 0002:00000018       __imp_RegOpenKeyExW        0000000180027018     advapi32:ADVAPI32.dll
 0002:00000020       __imp_RegEnumKeyExW        0000000180027020     advapi32:ADVAPI32.dll
 0002:00000028       __imp_RegDeleteValueW      0000000180027028     advapi32:ADVAPI32.dll
 0002:00000030       __imp_RegDeleteKeyW        0000000180027030     advapi32:ADVAPI32.dll
 0002:00000038       __imp_RegCreateKeyExW      0000000180027038     advapi32:ADVAPI32.dll
 0002:00000040       __imp_RegCloseKey          0000000180027040     advapi32:ADVAPI32.dll
 0002:00000048       \177ADVAPI32_NULL_THUNK_DATA 0000000180027048     advapi32:ADVAPI32.dll
 0002:00000050       __imp_GetObjectW           0000000180027050     gdi32:GDI32.dll
 0002:00000058       __imp_SelectObject         0000000180027058     gdi32:GDI32.dll
 0002:00000060       __imp_DeleteObject         0000000180027060     gdi32:GDI32.dll
 0002:00000068       __imp_CreateCompatibleDC   0000000180027068     gdi32:GDI32.dll
 0002:00000070       __imp_BitBlt               0000000180027070     gdi32:GDI32.dll
 0002:00000078       __imp_SetWindowOrgEx       0000000180027078     gdi32:GDI32.dll
 0002:00000080       __imp_SetWindowExtEx       0000000180027080     gdi32:GDI32.dll
 0002:00000088       __imp_SetViewportOrgEx     0000000180027088     gdi32:GDI32.dll
 0002:00000090       __imp_LPtoDP               0000000180027090     gdi32:GDI32.dll
 0002:00000098       __imp_SetMapMode           0000000180027098     gdi32:GDI32.dll
 0002:000000a0       __imp_SaveDC               00000001800270a0     gdi32:GDI32.dll
 0002:000000a8       __imp_RestoreDC            00000001800270a8     gdi32:GDI32.dll
 0002:000000b0       __imp_GetDeviceCaps        00000001800270b0     gdi32:GDI32.dll
 0002:000000b8       __imp_DeleteMetaFile       00000001800270b8     gdi32:GDI32.dll
 0002:000000c0       __imp_DeleteDC             00000001800270c0     gdi32:GDI32.dll
 0002:000000c8       __imp_CreateRectRgnIndirect 00000001800270c8     gdi32:GDI32.dll
 0002:000000d0       __imp_CreateMetaFileW      00000001800270d0     gdi32:GDI32.dll
 0002:000000d8       __imp_CreateDCW            00000001800270d8     gdi32:GDI32.dll
 0002:000000e0       __imp_CloseMetaFile        00000001800270e0     gdi32:GDI32.dll
 0002:000000e8       \177GDI32_NULL_THUNK_DATA  00000001800270e8     gdi32:GDI32.dll
 0002:000000f0       __imp_CloseHandle          00000001800270f0     kernel32:KERNEL32.dll
 0002:000000f8       __imp_SetEvent             00000001800270f8     kernel32:KERNEL32.dll
 0002:00000100       __imp_CreateMutexW         0000000180027100     kernel32:KERNEL32.dll
 0002:00000108       __imp_CreateEventW         0000000180027108     kernel32:KERNEL32.dll
 0002:00000110       __imp_GetCurrentProcessId  0000000180027110     kernel32:KERNEL32.dll
 0002:00000118       __imp_WriteConsoleW        0000000180027118     kernel32:KERNEL32.dll
 0002:00000120       __imp_CreateFileW          0000000180027120     kernel32:KERNEL32.dll
 0002:00000128       __imp_GetConsoleMode       0000000180027128     kernel32:KERNEL32.dll
 0002:00000130       __imp_GetConsoleOutputCP   0000000180027130     kernel32:KERNEL32.dll
 0002:00000138       __imp_WriteFile            0000000180027138     kernel32:KERNEL32.dll
 0002:00000140       __imp_FlushFileBuffers     0000000180027140     kernel32:KERNEL32.dll
 0002:00000148       __imp_SetStdHandle         0000000180027148     kernel32:KERNEL32.dll
 0002:00000150       __imp_SetFilePointerEx     0000000180027150     kernel32:KERNEL32.dll
 0002:00000158       __imp_GetStringTypeW       0000000180027158     kernel32:KERNEL32.dll
 0002:00000160       __imp_FreeEnvironmentStringsW 0000000180027160     kernel32:KERNEL32.dll
 0002:00000168       __imp_lstrcmpiW            0000000180027168     kernel32:KERNEL32.dll
 0002:00000170       __imp_GetCommandLineW      0000000180027170     kernel32:KERNEL32.dll
 0002:00000178       __imp_GetCommandLineA      0000000180027178     kernel32:KERNEL32.dll
 0002:00000180       __imp_GetCPInfo            0000000180027180     kernel32:KERNEL32.dll
 0002:00000188       __imp_GetOEMCP             0000000180027188     kernel32:KERNEL32.dll
 0002:00000190       __imp_GetACP               0000000180027190     kernel32:KERNEL32.dll
 0002:00000198       __imp_IsValidCodePage      0000000180027198     kernel32:KERNEL32.dll
 0002:000001a0       __imp_FindNextFileW        00000001800271a0     kernel32:KERNEL32.dll
 0002:000001a8       __imp_FindFirstFileExW     00000001800271a8     kernel32:KERNEL32.dll
 0002:000001b0       __imp_FindClose            00000001800271b0     kernel32:KERNEL32.dll
 0002:000001b8       __imp_GetFileType          00000001800271b8     kernel32:KERNEL32.dll
 0002:000001c0       __imp_GetStdHandle         00000001800271c0     kernel32:KERNEL32.dll
 0002:000001c8       __imp_LCMapStringW         00000001800271c8     kernel32:KERNEL32.dll
 0002:000001d0       __imp_FlsFree              00000001800271d0     kernel32:KERNEL32.dll
 0002:000001d8       __imp_FlsSetValue          00000001800271d8     kernel32:KERNEL32.dll
 0002:000001e0       __imp_MulDiv               00000001800271e0     kernel32:KERNEL32.dll
 0002:000001e8       __imp_GlobalLock           00000001800271e8     kernel32:KERNEL32.dll
 0002:000001f0       __imp_GlobalUnlock         00000001800271f0     kernel32:KERNEL32.dll
 0002:000001f8       __imp_GlobalAlloc          00000001800271f8     kernel32:KERNEL32.dll
 0002:00000200       __imp_FindResourceW        0000000180027200     kernel32:KERNEL32.dll
 0002:00000208       __imp_SizeofResource       0000000180027208     kernel32:KERNEL32.dll
 0002:00000210       __imp_LoadResource         0000000180027210     kernel32:KERNEL32.dll
 0002:00000218       __imp_LoadLibraryExW       0000000180027218     kernel32:KERNEL32.dll
 0002:00000220       __imp_GetProcAddress       0000000180027220     kernel32:KERNEL32.dll
 0002:00000228       __imp_GetModuleHandleW     0000000180027228     kernel32:KERNEL32.dll
 0002:00000230       __imp_GetModuleFileNameW   0000000180027230     kernel32:KERNEL32.dll
 0002:00000238       __imp_FreeLibrary          0000000180027238     kernel32:KERNEL32.dll
 0002:00000240       __imp_DisableThreadLibraryCalls 0000000180027240     kernel32:KERNEL32.dll
 0002:00000248       __imp_GetCurrentThreadId   0000000180027248     kernel32:KERNEL32.dll
 0002:00000250       __imp_Sleep                0000000180027250     kernel32:KERNEL32.dll
 0002:00000258       __imp_WaitForSingleObject  0000000180027258     kernel32:KERNEL32.dll
 0002:00000260       __imp_ReleaseMutex         0000000180027260     kernel32:KERNEL32.dll
 0002:00000268       __imp_ResetEvent           0000000180027268     kernel32:KERNEL32.dll
 0002:00000270       __imp_EnterCriticalSection 0000000180027270     kernel32:KERNEL32.dll
 0002:00000278       __imp_LeaveCriticalSection 0000000180027278     kernel32:KERNEL32.dll
 0002:00000280       __imp_SetLastError         0000000180027280     kernel32:KERNEL32.dll
 0002:00000288       __imp_EncodePointer        0000000180027288     kernel32:KERNEL32.dll
 0002:00000290       __imp_DeleteCriticalSection 0000000180027290     kernel32:KERNEL32.dll
 0002:00000298       __imp_InitializeCriticalSectionEx 0000000180027298     kernel32:KERNEL32.dll
 0002:000002a0       __imp_GetLastError         00000001800272a0     kernel32:KERNEL32.dll
 0002:000002a8       __imp_RaiseException       00000001800272a8     kernel32:KERNEL32.dll
 0002:000002b0       __imp_DecodePointer        00000001800272b0     kernel32:KERNEL32.dll
 0002:000002b8       __imp_WideCharToMultiByte  00000001800272b8     kernel32:KERNEL32.dll
 0002:000002c0       __imp_GetEnvironmentStringsW 00000001800272c0     kernel32:KERNEL32.dll
 0002:000002c8       __imp_MultiByteToWideChar  00000001800272c8     kernel32:KERNEL32.dll
 0002:000002d0       __imp_FlsGetValue          00000001800272d0     kernel32:KERNEL32.dll
 0002:000002d8       __imp_FlsAlloc             00000001800272d8     kernel32:KERNEL32.dll
 0002:000002e0       __imp_HeapReAlloc          00000001800272e0     kernel32:KERNEL32.dll
 0002:000002e8       __imp_HeapSize             00000001800272e8     kernel32:KERNEL32.dll
 0002:000002f0       __imp_GetModuleHandleExW   00000001800272f0     kernel32:KERNEL32.dll
 0002:000002f8       __imp_ExitProcess          00000001800272f8     kernel32:KERNEL32.dll
 0002:00000300       __imp_VirtualQuery         0000000180027300     kernel32:KERNEL32.dll
 0002:00000308       __imp_VirtualProtect       0000000180027308     kernel32:KERNEL32.dll
 0002:00000310       __imp_GetSystemInfo        0000000180027310     kernel32:KERNEL32.dll
 0002:00000318       __imp_TlsFree              0000000180027318     kernel32:KERNEL32.dll
 0002:00000320       __imp_TlsSetValue          0000000180027320     kernel32:KERNEL32.dll
 0002:00000328       __imp_TlsGetValue          0000000180027328     kernel32:KERNEL32.dll
 0002:00000330       __imp_TlsAlloc             0000000180027330     kernel32:KERNEL32.dll
 0002:00000338       __imp_RtlPcToFileHeader    0000000180027338     kernel32:KERNEL32.dll
 0002:00000340       __imp_InterlockedFlushSList 0000000180027340     kernel32:KERNEL32.dll
 0002:00000348       __imp_RtlUnwindEx          0000000180027348     kernel32:KERNEL32.dll
 0002:00000350       __imp_LoadLibraryExA       0000000180027350     kernel32:KERNEL32.dll
 0002:00000358       __imp_VirtualFree          0000000180027358     kernel32:KERNEL32.dll
 0002:00000360       __imp_VirtualAlloc         0000000180027360     kernel32:KERNEL32.dll
 0002:00000368       __imp_FlushInstructionCache 0000000180027368     kernel32:KERNEL32.dll
 0002:00000370       __imp_InterlockedPushEntrySList 0000000180027370     kernel32:KERNEL32.dll
 0002:00000378       __imp_InterlockedPopEntrySList 0000000180027378     kernel32:KERNEL32.dll
 0002:00000380       __imp_GetProcessHeap       0000000180027380     kernel32:KERNEL32.dll
 0002:00000388       __imp_HeapFree             0000000180027388     kernel32:KERNEL32.dll
 0002:00000390       __imp_HeapAlloc            0000000180027390     kernel32:KERNEL32.dll
 0002:00000398       __imp_OutputDebugStringW   0000000180027398     kernel32:KERNEL32.dll
 0002:000003a0       __imp_InitializeSListHead  00000001800273a0     kernel32:KERNEL32.dll
 0002:000003a8       __imp_GetSystemTimeAsFileTime 00000001800273a8     kernel32:KERNEL32.dll
 0002:000003b0       __imp_QueryPerformanceCounter 00000001800273b0     kernel32:KERNEL32.dll
 0002:000003b8       __imp_GetStartupInfoW      00000001800273b8     kernel32:KERNEL32.dll
 0002:000003c0       __imp_InitializeCriticalSectionAndSpinCount 00000001800273c0     kernel32:KERNEL32.dll
 0002:000003c8       __imp_WaitForSingleObjectEx 00000001800273c8     kernel32:KERNEL32.dll
 0002:000003d0       __imp_RtlCaptureContext    00000001800273d0     kernel32:KERNEL32.dll
 0002:000003d8       __imp_RtlLookupFunctionEntry 00000001800273d8     kernel32:KERNEL32.dll
 0002:000003e0       __imp_RtlVirtualUnwind     00000001800273e0     kernel32:KERNEL32.dll
 0002:000003e8       __imp_UnhandledExceptionFilter 00000001800273e8     kernel32:KERNEL32.dll
 0002:000003f0       __imp_SetUnhandledExceptionFilter 00000001800273f0     kernel32:KERNEL32.dll
 0002:000003f8       __imp_GetCurrentProcess    00000001800273f8     kernel32:KERNEL32.dll
 0002:00000400       __imp_TerminateProcess     0000000180027400     kernel32:KERNEL32.dll
 0002:00000408       __imp_IsProcessorFeaturePresent 0000000180027408     kernel32:KERNEL32.dll
 0002:00000410       __imp_IsDebuggerPresent    0000000180027410     kernel32:KERNEL32.dll
 0002:00000418       \177KERNEL32_NULL_THUNK_DATA 0000000180027418     kernel32:KERNEL32.dll
 0002:00000420       __imp_OleCreatePropertyFrame 0000000180027420     oleaut32:OLEAUT32.dll
 0002:00000428       __imp_UnRegisterTypeLib    0000000180027428     oleaut32:OLEAUT32.dll
 0002:00000430       __imp_RegisterTypeLib      0000000180027430     oleaut32:OLEAUT32.dll
 0002:00000438       __imp_LoadRegTypeLib       0000000180027438     oleaut32:OLEAUT32.dll
 0002:00000440       __imp_LoadTypeLib          0000000180027440     oleaut32:OLEAUT32.dll
 0002:00000448       __imp_VarUI4FromStr        0000000180027448     oleaut32:OLEAUT32.dll
 0002:00000450       __imp_VariantInit          0000000180027450     oleaut32:OLEAUT32.dll
 0002:00000458       __imp_SysAllocStringByteLen 0000000180027458     oleaut32:OLEAUT32.dll
 0002:00000460       __imp_SysStringByteLen     0000000180027460     oleaut32:OLEAUT32.dll
 0002:00000468       __imp_VariantChangeType    0000000180027468     oleaut32:OLEAUT32.dll
 0002:00000470       __imp_VariantClear         0000000180027470     oleaut32:OLEAUT32.dll
 0002:00000478       __imp_SysStringLen         0000000180027478     oleaut32:OLEAUT32.dll
 0002:00000480       __imp_SysFreeString        0000000180027480     oleaut32:OLEAUT32.dll
 0002:00000488       __imp_SysAllocStringLen    0000000180027488     oleaut32:OLEAUT32.dll
 0002:00000490       __imp_SysAllocString       0000000180027490     oleaut32:OLEAUT32.dll
 0002:00000498       \177OLEAUT32_NULL_THUNK_DATA 0000000180027498     oleaut32:OLEAUT32.dll
 0002:000004a0       __imp_UnregisterClassW     00000001800274a0     user32:USER32.dll
 0002:000004a8       __imp_PostMessageW         00000001800274a8     user32:USER32.dll
 0002:000004b0       __imp_DefWindowProcW       00000001800274b0     user32:USER32.dll
 0002:000004b8       __imp_CallWindowProcW      00000001800274b8     user32:USER32.dll
 0002:000004c0       __imp_RegisterClassExW     00000001800274c0     user32:USER32.dll
 0002:000004c8       __imp_GetClassInfoExW      00000001800274c8     user32:USER32.dll
 0002:000004d0       __imp_CreateWindowExW      00000001800274d0     user32:USER32.dll
 0002:000004d8       __imp_IsWindow             00000001800274d8     user32:USER32.dll
 0002:000004e0       __imp_IsChild              00000001800274e0     user32:USER32.dll
 0002:000004e8       __imp_DestroyWindow        00000001800274e8     user32:USER32.dll
 0002:000004f0       __imp_ShowWindow           00000001800274f0     user32:USER32.dll
 0002:000004f8       __imp_SetWindowPos         00000001800274f8     user32:USER32.dll
 0002:00000500       __imp_CharNextW            0000000180027500     user32:USER32.dll
 0002:00000508       __imp_SetFocus             0000000180027508     user32:USER32.dll
 0002:00000510       __imp_LoadBitmapW          0000000180027510     user32:USER32.dll
 0002:00000518       __imp_RegisterClassW       0000000180027518     user32:USER32.dll
 0002:00000520       __imp_PeekMessageW         0000000180027520     user32:USER32.dll
 0002:00000528       __imp_LoadCursorW          0000000180027528     user32:USER32.dll
 0002:00000530       __imp_GetParent            0000000180027530     user32:USER32.dll
 0002:00000538       __imp_SetWindowLongPtrW    0000000180027538     user32:USER32.dll
 0002:00000540       __imp_GetWindowLongPtrW    0000000180027540     user32:USER32.dll
 0002:00000548       __imp_PtInRect             0000000180027548     user32:USER32.dll
 0002:00000550       __imp_EqualRect            0000000180027550     user32:USER32.dll
 0002:00000558       __imp_OffsetRect           0000000180027558     user32:USER32.dll
 0002:00000560       __imp_UnionRect            0000000180027560     user32:USER32.dll
 0002:00000568       __imp_IntersectRect        0000000180027568     user32:USER32.dll
 0002:00000570       __imp_GetClientRect        0000000180027570     user32:USER32.dll
 0002:00000578       __imp_InvalidateRect       0000000180027578     user32:USER32.dll
 0002:00000580       __imp_SetWindowRgn         0000000180027580     user32:USER32.dll
 0002:00000588       __imp_EndPaint             0000000180027588     user32:USER32.dll
 0002:00000590       __imp_BeginPaint           0000000180027590     user32:USER32.dll
 0002:00000598       __imp_ReleaseDC            0000000180027598     user32:USER32.dll
 0002:000005a0       __imp_GetDC                00000001800275a0     user32:USER32.dll
 0002:000005a8       __imp_GetKeyState          00000001800275a8     user32:USER32.dll
 0002:000005b0       __imp_GetFocus             00000001800275b0     user32:USER32.dll
 0002:000005b8       \177USER32_NULL_THUNK_DATA 00000001800275b8     user32:USER32.dll
 0002:000005c0       __imp_CoCreateInstance     00000001800275c0     ole32:ole32.dll
 0002:000005c8       __imp_StringFromGUID2      00000001800275c8     ole32:ole32.dll
 0002:000005d0       __imp_CoTaskMemAlloc       00000001800275d0     ole32:ole32.dll
 0002:000005d8       __imp_CoTaskMemRealloc     00000001800275d8     ole32:ole32.dll
 0002:000005e0       __imp_CoTaskMemFree        00000001800275e0     ole32:ole32.dll
 0002:000005e8       __imp_WriteClassStm        00000001800275e8     ole32:ole32.dll
 0002:000005f0       __imp_CreateDataAdviseHolder 00000001800275f0     ole32:ole32.dll
 0002:000005f8       __imp_OleSaveToStream      00000001800275f8     ole32:ole32.dll
 0002:00000600       __imp_CreateOleAdviseHolder 0000000180027600     ole32:ole32.dll
 0002:00000608       __imp_OleRegGetUserType    0000000180027608     ole32:ole32.dll
 0002:00000610       __imp_OleRegGetMiscStatus  0000000180027610     ole32:ole32.dll
 0002:00000618       __imp_OleRegEnumVerbs      0000000180027618     ole32:ole32.dll
 0002:00000620       __imp_CLSIDFromProgID      0000000180027620     ole32:ole32.dll
 0002:00000628       __imp_ReadClassStm         0000000180027628     ole32:ole32.dll
 0002:00000630       \177ole32_NULL_THUNK_DATA  0000000180027630     ole32:ole32.dll
 0002:00000638       __guard_check_icall_fptr   0000000180027638     LIBCMT:guard_support.obj
 0002:00000640       __guard_xfg_check_icall_fptr 0000000180027640     LIBCMT:guard_support.obj
 0002:00000648       __guard_dispatch_icall_fptr 0000000180027648     LIBCMT:guard_support.obj
 0002:00000650       __guard_xfg_dispatch_icall_fptr 0000000180027650     LIBCMT:guard_support.obj
 0002:00000658       __guard_xfg_table_dispatch_icall_fptr 0000000180027658     LIBCMT:guard_support.obj
 0002:00000660       __castguard_check_failure_os_handled_fptr 0000000180027660     LIBCMT:guard_support.obj
 0002:00000668       __xc_a                     0000000180027668     LIBCMT:initializers.obj
 0002:00000698       __xc_z                     0000000180027698     LIBCMT:initializers.obj
 0002:000006a0       __xi_a                     00000001800276a0     LIBCMT:initializers.obj
 0002:000006b0       __acrt_stdio_initializer   00000001800276b0     libucrt:stdio_initializer.obj
 0002:000006b8       __acrt_multibyte_initializer 00000001800276b8     libucrt:multibyte_initializer.obj
 0002:000006c0       __acrt_tran_fma3_initializer 00000001800276c0     libucrt:fma3_initializer.obj
 0002:000006c8       __xi_z                     00000001800276c8     LIBCMT:initializers.obj
 0002:000006d0       __xl_a                     00000001800276d0     LIBCMT:tlssup.obj
 0002:000006d8       __xl_z                     00000001800276d8     LIBCMT:tlssup.obj
 0002:000006e0       __xp_a                     00000001800276e0     LIBCMT:initializers.obj
 0002:000006e8       __acrt_locale_terminator   00000001800276e8     libucrt:locale_initializer.obj
 0002:000006f0       __dcrt_console_output_terminator 00000001800276f0     libucrt:console_output_initializer.obj
 0002:000006f8       __acrt_stdio_terminator    00000001800276f8     libucrt:stdio_initializer.obj
 0002:00000700       __xp_z                     0000000180027700     LIBCMT:initializers.obj
 0002:00000708       __xt_a                     0000000180027708     LIBCMT:initializers.obj
 0002:00000710       __xt_z                     0000000180027710     LIBCMT:initializers.obj
 0002:00000720       ??_C@_13HADIAKP@?$AAS@     0000000180027720     OposVariant.obj
 0002:00000724       ??_C@_13LHMFKAAD@?$AAM@    0000000180027724     OposVariant.obj
 0002:00000728       ??_C@_13MKMNOPIJ@?$AAD@    0000000180027728     OposVariant.obj
 0002:0000072c       ??_C@_13OPKGLAFF@?$AAB@    000000018002772c     OposVariant.obj
 0002:00000730       ??_C@_17LLMMEOJD@?$AAV?$AAa?$AAl@ 0000000180027730     OposVariant.obj
 0002:00000738       ??_C@_1BI@JFAIJMHL@?$AAF?$AAo?$AAr?$AAc?$AAe?$AAR?$AAe?$AAm?$AAo?$AAv?$AAe@ 0000000180027738     OposVariant.obj
 0002:00000750       ??_C@_1BC@GCKHIPE@?$AAN?$AAo?$AAR?$AAe?$AAm?$AAo?$AAv?$AAe@ 0000000180027750     OposVariant.obj
 0002:00000768       ??_C@_1O@JDLOHAN@?$AAD?$AAe?$AAl?$AAe?$AAt?$AAe@ 0000000180027768     OposVariant.obj
 0002:00000778       ??_C@_11LOCGONAA@@         0000000180027778     OposVariant.obj
 0002:00000780       _GUID_55980ba0_35aa_11cf_b671_00aa004cd6d8 0000000180027780     RemoteOrderDisplay.obj
 0002:00000790       _GUID_b196b28b_bab4_101a_b69c_00aa00341d07 0000000180027790     RemoteOrderDisplay.obj
 0002:000007a0       ??_7?$CComObject@V?$CComEnum@UIEnumConnections@@$1?_GUID_b196b287_bab4_101a_b69c_00aa00341d07@@3U__s_GUID@@BUtagCONNECTDATA@@V?$_Copy@UtagCONNECTDATA@@@ATL@@VCComSingleThreadModel@6@@ATL@@@ATL@@6B@ 00000001800277a0     RemoteOrderDisplay.obj
 0002:000007e0       ?_entries@?1??_GetEntries@?$CComEnum@UIEnumConnections@@$1?_GUID_b196b287_bab4_101a_b69c_00aa00341d07@@3U__s_GUID@@BUtagCONNECTDATA@@V?$_Copy@UtagCONNECTDATA@@@ATL@@VCComSingleThreadModel@6@@ATL@@SAPEBU_ATL_INTMAP_ENTRY@3@XZ@4QBU43@B 00000001800277e0     RemoteOrderDisplay.obj
 0002:00000810       ??_7CComClassFactory@ATL@@6B@ 0000000180027810     RemoteOrderDisplay.obj
 0002:00000840       ?_entries@?1??_GetEntries@CComClassFactory@ATL@@SAPEBU_ATL_INTMAP_ENTRY@3@XZ@4QBU43@B 0000000180027840     RemoteOrderDisplay.obj
 0002:00000870       _GUID_00000001_0000_0000_c000_000000000046 0000000180027870     RemoteOrderDisplay.obj
 0002:00000880       IID_IOPOSRemoteOrderDisplay_1_5 0000000180027880     RemoteOrderDisplay.obj
 0002:00000890       ??_C@_1BK@BIGILECK@?$AAA?$AAd?$AAv?$AAa?$AAp?$AAi?$AA3?$AA2?$AA?4?$AAd?$AAl?$AAl@ 0000000180027890     RemoteOrderDisplay.obj
 0002:000008b0       ??_C@_0BI@MNCFCPFK@RegCreateKeyTransactedW@ 00000001800278b0     RemoteOrderDisplay.obj
 0002:000008c8       IID_IOPOSRemoteOrderDisplay_1_7 00000001800278c8     RemoteOrderDisplay.obj
 0002:000008d8       IID_IOPOSRemoteOrderDisplay_1_8 00000001800278d8     RemoteOrderDisplay.obj
 0002:000008e8       IID_IOPOSRemoteOrderDisplay_1_9 00000001800278e8     RemoteOrderDisplay.obj
 0002:000008f8       IID_IOPOSRemoteOrderDisplay 00000001800278f8     RemoteOrderDisplay.obj
 0002:00000908       LIBID_OposRemoteOrderDisplay_CCO 0000000180027908     RemoteOrderDisplay.obj
 0002:00000918       DIID__IOPOSRemoteOrderDisplayEvents 0000000180027918     RemoteOrderDisplay.obj
 0002:00000928       _GUID_00000114_0000_0000_c000_000000000046 0000000180027928     RemoteOrderDisplay.obj
 0002:00000938       CLSID_OPOSRemoteOrderDisplay 0000000180027938     RemoteOrderDisplay.obj
 0002:00000948       _GUID_b196b287_bab4_101a_b69c_00aa00341d07 0000000180027948     RemoteOrderDisplay.obj
 0002:00000958       _GUID_b196b285_bab4_101a_b69c_00aa00341d07 0000000180027958     RemoteOrderDisplay.obj
 0002:00000968       _GUID_a6bc3ac0_dbaa_11ce_9de3_00aa004bb851 0000000180027968     RemoteOrderDisplay.obj
 0002:00000978       _GUID_0000010c_0000_0000_c000_000000000046 0000000180027978     RemoteOrderDisplay.obj
 0002:00000988       _GUID_00000146_0000_0000_c000_000000000046 0000000180027988     RemoteOrderDisplay.obj
 0002:00000998       ??_7CComModule@ATL@@6B@    0000000180027998     RemoteOrderDisplay.obj
 0002:000009e8       _GUID_00000000_0000_0000_c000_000000000046 00000001800279e8     RemoteOrderDisplay.obj
 0002:000009f8       _GUID_00020400_0000_0000_c000_000000000046 00000001800279f8     RemoteOrderDisplay.obj
 0002:00000a10       ?_entries@?1??_GetEntries@COPOSRemoteOrderDisplay@@SAPEBU_ATL_INTMAP_ENTRY@ATL@@XZ@4QBU34@B 0000000180027a10     RemoteOrderDisplay.obj
 0002:00000c98       _GUID_922eada0_3424_11cf_b670_00aa004cd6d8 0000000180027c98     RemoteOrderDisplay.obj
 0002:00000ca8       _GUID_9c2cad80_3424_11cf_b670_00aa004cd6d8 0000000180027ca8     RemoteOrderDisplay.obj
 0002:00000cb8       _GUID_00000119_0000_0000_c000_000000000046 0000000180027cb8     RemoteOrderDisplay.obj
 0002:00000cc8       _GUID_b196b289_bab4_101a_b69c_00aa00341d07 0000000180027cc8     RemoteOrderDisplay.obj
 0002:00000cd8       _GUID_cf51ed10_62fe_11cf_bf86_00a0c9034836 0000000180027cd8     RemoteOrderDisplay.obj
 0002:00000ce8       _GUID_0000010a_0000_0000_c000_000000000046 0000000180027ce8     RemoteOrderDisplay.obj
 0002:00000cf8       _GUID_b196b283_bab4_101a_b69c_00aa00341d07 0000000180027cf8     RemoteOrderDisplay.obj
 0002:00000d08       _GUID_cb5bdc81_93c1_11cf_8f20_00805f2cd064 0000000180027d08     RemoteOrderDisplay.obj
 0002:00000d20       ?pPropMap@?1??GetPropertyMap@COPOSRemoteOrderDisplay@@SAPEBUATL_PROPMAP_ENTRY@ATL@@XZ@4QBU34@B 0000000180027d20     RemoteOrderDisplay.obj
 0002:00000dc8       ??_C@_17DGDADEHL@?$AA_?$AAc?$AAx@ 0000000180027dc8     RemoteOrderDisplay.obj
 0002:00000dd0       ??_C@_17IOIMFDBO@?$AA_?$AAc?$AAy@ 0000000180027dd0     RemoteOrderDisplay.obj
 0002:00000dd8       _GUID_00000117_0000_0000_c000_000000000046 0000000180027dd8     RemoteOrderDisplay.obj
 0002:00000de8       ??_7?$CComObjectCached@VCComClassFactory@ATL@@@ATL@@6B@ 0000000180027de8     RemoteOrderDisplay.obj
 0002:00000e18       ??_C@_1CE@PGFMOFKI@?$AAS?$AAt?$AAa?$AAt?$AAu?$AAs?$AAU?$AAp?$AAd?$AAa?$AAt?$AAe?$AAE?$AAv?$AAe@ 0000000180027e18     RemoteOrderDisplay.obj
 0002:00000e40       ??_C@_1CI@HLBJDONE@?$AAO?$AAu?$AAt?$AAp?$AAu?$AAt?$AAC?$AAo?$AAm?$AAp?$AAl?$AAe?$AAt?$AAe?$AAE@ 0000000180027e40     RemoteOrderDisplay.obj
 0002:00000e68       ??_C@_1BG@LODEBHDD@?$AAE?$AAr?$AAr?$AAo?$AAr?$AAE?$AAv?$AAe?$AAn?$AAt@ 0000000180027e68     RemoteOrderDisplay.obj
 0002:00000e80       ??_C@_1BM@CBGEBBBJ@?$AAD?$AAi?$AAr?$AAe?$AAc?$AAt?$AAI?$AAO?$AAE?$AAv?$AAe?$AAn?$AAt@ 0000000180027e80     RemoteOrderDisplay.obj
 0002:00000ea0       ??_C@_1BE@IEBMACEM@?$AAD?$AAa?$AAt?$AAa?$AAE?$AAv?$AAe?$AAn?$AAt@ 0000000180027ea0     RemoteOrderDisplay.obj
 0002:00000eb8       _GUID_b196b286_bab4_101a_b69c_00aa00341d07 0000000180027eb8     RemoteOrderDisplay.obj
 0002:00000ec8       ??_C@_1BC@ENICKDH@?$AAC?$AAo?$AAn?$AAt?$AAe?$AAn?$AAt?$AAs@ 0000000180027ec8     RemoteOrderDisplay.obj
 0002:00000ee0       ??_C@_1M@KANJNLFF@?$AAC?$AAL?$AAS?$AAI?$AAD@ 0000000180027ee0     RemoteOrderDisplay.obj
 0002:00000ef0       ??_C@_1M@EJNEECMJ@?$AAA?$AAp?$AAp?$AAI?$AAD@ 0000000180027ef0     RemoteOrderDisplay.obj
 0002:00000f00       ??_7?$CComObject@V?$CComEnum@UIEnumConnectionPoints@@$1?_GUID_b196b285_bab4_101a_b69c_00aa00341d07@@3U__s_GUID@@BPEAUIConnectionPoint@@V?$_CopyInterface@UIConnectionPoint@@@ATL@@VCComSingleThreadModel@6@@ATL@@@ATL@@6B@ 0000000180027f00     RemoteOrderDisplay.obj
 0002:00000f40       _GUID_0000010e_0000_0000_c000_000000000046 0000000180027f40     RemoteOrderDisplay.obj
 0002:00000f50       ?rgszNeverDelete@CRegParser@ATL@@1QBQEB_WB 0000000180027f50     RemoteOrderDisplay.obj
 0002:00000fb0       _GUID_b196b288_bab4_101a_b69c_00aa00341d07 0000000180027fb0     RemoteOrderDisplay.obj
 0002:00000fc0       ??_7CRegObject@ATL@@6B@    0000000180027fc0     RemoteOrderDisplay.obj
 0002:00000ff0       _GUID_00000113_0000_0000_c000_000000000046 0000000180027ff0     RemoteOrderDisplay.obj
 0002:00001000       ??_C@_1CK@OEKPKBNA@?$AAC?$AAo?$AAm?$AAp?$AAo?$AAn?$AAe?$AAn?$AAt?$AA?5?$AAC?$AAa?$AAt?$AAe?$AAg@ 0000000180028000     RemoteOrderDisplay.obj
 0002:00001030       ??_C@_1BC@NKMMNMGL@?$AAF?$AAi?$AAl?$AAe?$AAT?$AAy?$AAp?$AAe@ 0000000180028030     RemoteOrderDisplay.obj
 0002:00001048       ??_C@_1BE@EKPAFMCP@?$AAI?$AAn?$AAt?$AAe?$AAr?$AAf?$AAa?$AAc?$AAe@ 0000000180028048     RemoteOrderDisplay.obj
 0002:00001060       ??_C@_1BC@MAICEHGI@?$AAH?$AAa?$AAr?$AAd?$AAw?$AAa?$AAr?$AAe@ 0000000180028060     RemoteOrderDisplay.obj
 0002:00001078       ??_C@_19HLLLM@?$AAM?$AAi?$AAm?$AAe@ 0000000180028078     RemoteOrderDisplay.obj
 0002:00001088       ??_C@_17OMAOINJK@?$AAS?$AAA?$AAM@ 0000000180028088     RemoteOrderDisplay.obj
 0002:00001090       ??_C@_1BC@IBECJAAI@?$AAS?$AAE?$AAC?$AAU?$AAR?$AAI?$AAT?$AAY@ 0000000180028090     RemoteOrderDisplay.obj
 0002:000010a8       ??_C@_1O@GBFINDKL@?$AAS?$AAY?$AAS?$AAT?$AAE?$AAM@ 00000001800280a8     RemoteOrderDisplay.obj
 0002:000010b8       ??_C@_1BC@EAHCMADO@?$AAS?$AAo?$AAf?$AAt?$AAw?$AAa?$AAr?$AAe@ 00000001800280b8     RemoteOrderDisplay.obj
 0002:000010d0       ??_C@_1BA@JIHHIEDE@?$AAT?$AAy?$AAp?$AAe?$AAL?$AAi?$AAb@ 00000001800280d0     RemoteOrderDisplay.obj
 0002:000010e0       _GUID_1c2056cc_5ef4_101b_8bc8_00aa003e3b29 00000001800280e0     RemoteOrderDisplay.obj
 0002:000010f0       ?map@?1??HKeyFromString@CRegParser@ATL@@KAPEAUHKEY__@@PEA_W@Z@4QBUkeymap@?1??123@KAPEAU4@0@Z@B 00000001800280f0     RemoteOrderDisplay.obj
 0002:000011d0       ??_C@_19NCHLBIN@?$AAH?$AAK?$AAC?$AAR@ 00000001800281d0     RemoteOrderDisplay.obj
 0002:000011e0       ??_C@_19JAPAIJDE@?$AAH?$AAK?$AAC?$AAU@ 00000001800281e0     RemoteOrderDisplay.obj
 0002:000011f0       ??_C@_19PEALEEJB@?$AAH?$AAK?$AAL?$AAM@ 00000001800281f0     RemoteOrderDisplay.obj
 0002:00001200       ??_C@_17PJOJPMPB@?$AAH?$AAK?$AAU@ 0000000180028200     RemoteOrderDisplay.obj
 0002:00001208       ??_C@_19PNBHMJPL@?$AAH?$AAK?$AAP?$AAD@ 0000000180028208     RemoteOrderDisplay.obj
 0002:00001218       ??_C@_19GFFAIJHG@?$AAH?$AAK?$AAD?$AAD@ 0000000180028218     RemoteOrderDisplay.obj
 0002:00001228       ??_C@_19OFICIBHH@?$AAH?$AAK?$AAC?$AAC@ 0000000180028228     RemoteOrderDisplay.obj
 0002:00001238       ??_C@_1CE@PACHPJFI@?$AAH?$AAK?$AAE?$AAY?$AA_?$AAC?$AAL?$AAA?$AAS?$AAS?$AAE?$AAS?$AA_?$AAR?$AAO@ 0000000180028238     RemoteOrderDisplay.obj
 0002:00001260       ??_C@_1CE@HLHNCBPM@?$AAH?$AAK?$AAE?$AAY?$AA_?$AAC?$AAU?$AAR?$AAR?$AAE?$AAN?$AAT?$AA_?$AAU?$AAS@ 0000000180028260     RemoteOrderDisplay.obj
 0002:00001288       ??_C@_1CG@GFBEANJL@?$AAH?$AAK?$AAE?$AAY?$AA_?$AAL?$AAO?$AAC?$AAA?$AAL?$AA_?$AAM?$AAA?$AAC?$AAH@ 0000000180028288     RemoteOrderDisplay.obj
 0002:000012b0       ??_C@_1BG@BGODANIO@?$AAH?$AAK?$AAE?$AAY?$AA_?$AAU?$AAS?$AAE?$AAR?$AAS@ 00000001800282b0     RemoteOrderDisplay.obj
 0002:000012c8       ??_C@_1CM@KHNNAOIC@?$AAH?$AAK?$AAE?$AAY?$AA_?$AAP?$AAE?$AAR?$AAF?$AAO?$AAR?$AAM?$AAA?$AAN?$AAC@ 00000001800282c8     RemoteOrderDisplay.obj
 0002:000012f8       ??_C@_1BM@HAGMMHIA@?$AAH?$AAK?$AAE?$AAY?$AA_?$AAD?$AAY?$AAN?$AA_?$AAD?$AAA?$AAT?$AAA@ 00000001800282f8     RemoteOrderDisplay.obj
 0002:00001318       ??_C@_1CI@BBJOACGG@?$AAH?$AAK?$AAE?$AAY?$AA_?$AAC?$AAU?$AAR?$AAR?$AAE?$AAN?$AAT?$AA_?$AAC?$AAO@ 0000000180028318     RemoteOrderDisplay.obj
 0002:00001340       _GUID_00000109_0000_0000_c000_000000000046 0000000180028340     RemoteOrderDisplay.obj
 0002:00001350       _GUID_7fd52380_4e07_101b_ae2d_08002b2ec713 0000000180028350     RemoteOrderDisplay.obj
 0002:00001360       _GUID_00000112_0000_0000_c000_000000000046 0000000180028360     RemoteOrderDisplay.obj
 0002:00001370       ??_C@_1EA@NHKLICFA@?$AAH?$AAK?$AAC?$AAU?$AA?$AN?$AA?6?$AA?$HL?$AA?7?$AAS?$AAo?$AAf?$AAt?$AAw?$AAa?$AAr@ 0000000180028370     RemoteOrderDisplay.obj
 0002:000013b0       ??_C@_1BE@LJOLIMEM@?$AA?$AN?$AA?6?$AA?7?$AA?$HN?$AA?$AN?$AA?6?$AA?$HN?$AA?$AN?$AA?6@ 00000001800283b0     RemoteOrderDisplay.obj
 0002:000013c8       _GUID_3af24292_0c96_11ce_a0cf_00aa00600ab8 00000001800283c8     RemoteOrderDisplay.obj
 0002:000013d8       _GUID_00000127_0000_0000_c000_000000000046 00000001800283d8     RemoteOrderDisplay.obj
 0002:000013e8       _GUID_0000010d_0000_0000_c000_000000000046 00000001800283e8     RemoteOrderDisplay.obj
 0002:000013f8       ??_C@_1O@MNLDABAF@?$AAM?$AAo?$AAd?$AAu?$AAl?$AAe@ 00000001800283f8     RemoteOrderDisplay.obj
 0002:00001408       ??_C@_1BG@JBACFMF@?$AAM?$AAo?$AAd?$AAu?$AAl?$AAe?$AA_?$AAR?$AAa?$AAw@ 0000000180028408     RemoteOrderDisplay.obj
 0002:00001420       ??_C@_1BC@KAILKFFG@?$AAR?$AAE?$AAG?$AAI?$AAS?$AAT?$AAR?$AAY@ 0000000180028420     RemoteOrderDisplay.obj
 0002:00001438       ??_C@_1M@PPPPCDEP@?$AAA?$AAP?$AAP?$AAI?$AAD@ 0000000180028438     RemoteOrderDisplay.obj
 0002:00001448       ??_7?$CComContainedObject@VCOPOSRemoteOrderDisplay@@@ATL@@6B?$IDispatchImpl@UIOPOSRemoteOrderDisplay@@$1?IID_IOPOSRemoteOrderDisplay@@3U_GUID@@B$1?LIBID_OposRemoteOrderDisplay_CCO@@3U3@B$00$0A@VCComTypeInfoHolder@ATL@@@1@@ 0000000180028448     RemoteOrderDisplay.obj
 0002:000017a0       ??_7?$CComContainedObject@VCOPOSRemoteOrderDisplay@@@ATL@@6BCComControlBase@1@@ 00000001800287a0     RemoteOrderDisplay.obj
 0002:000017c8       ??_7?$CComContainedObject@VCOPOSRemoteOrderDisplay@@@ATL@@6B?$CWindowImpl@VCOPOSRemoteOrderDisplay@@VCWindow@ATL@@V?$CWinTraits@$0FGAAAAAA@$0A@@3@@1@@ 00000001800287c8     RemoteOrderDisplay.obj
 0002:000017e8       ??_7?$CComContainedObject@VCOPOSRemoteOrderDisplay@@@ATL@@6B?$IPersistStreamInitImpl@VCOPOSRemoteOrderDisplay@@@1@@ 00000001800287e8     RemoteOrderDisplay.obj
 0002:00001830       ??_7?$CComContainedObject@VCOPOSRemoteOrderDisplay@@@ATL@@6B?$IOleControlImpl@VCOPOSRemoteOrderDisplay@@@1@@ 0000000180028830     RemoteOrderDisplay.obj
 0002:00001868       ??_7?$CComContainedObject@VCOPOSRemoteOrderDisplay@@@ATL@@6B?$IOleObjectImpl@VCOPOSRemoteOrderDisplay@@@1@@ 0000000180028868     RemoteOrderDisplay.obj
 0002:00001928       ??_7?$CComContainedObject@VCOPOSRemoteOrderDisplay@@@ATL@@6B?$IOleInPlaceActiveObjectImpl@VCOPOSRemoteOrderDisplay@@@1@@ 0000000180028928     RemoteOrderDisplay.obj
 0002:00001978       ??_7?$CComContainedObject@VCOPOSRemoteOrderDisplay@@@ATL@@6B?$IViewObjectExImpl@VCOPOSRemoteOrderDisplay@@@1@@ 0000000180028978     RemoteOrderDisplay.obj
 0002:000019f0       ??_7?$CComContainedObject@VCOPOSRemoteOrderDisplay@@@ATL@@6B?$IOleInPlaceObjectWindowlessImpl@VCOPOSRemoteOrderDisplay@@@1@@ 00000001800289f0     RemoteOrderDisplay.obj
 0002:00001a48       ??_7?$CComContainedObject@VCOPOSRemoteOrderDisplay@@@ATL@@6B?$IConnectionPointContainerImpl@VCOPOSRemoteOrderDisplay@@@1@@ 0000000180028a48     RemoteOrderDisplay.obj
 0002:00001a70       ??_7?$CComContainedObject@VCOPOSRemoteOrderDisplay@@@ATL@@6B?$IPersistStorageImpl@VCOPOSRemoteOrderDisplay@@@1@@ 0000000180028a70     RemoteOrderDisplay.obj
 0002:00001ac0       ??_7?$CComContainedObject@VCOPOSRemoteOrderDisplay@@@ATL@@6B?$ISpecifyPropertyPagesImpl@VCOPOSRemoteOrderDisplay@@@1@@ 0000000180028ac0     RemoteOrderDisplay.obj
 0002:00001ae0       ??_7?$CComContainedObject@VCOPOSRemoteOrderDisplay@@@ATL@@6B?$IQuickActivateImpl@VCOPOSRemoteOrderDisplay@@@1@@ 0000000180028ae0     RemoteOrderDisplay.obj
 0002:00001b10       ??_7?$CComContainedObject@VCOPOSRemoteOrderDisplay@@@ATL@@6B?$IDataObjectImpl@VCOPOSRemoteOrderDisplay@@@1@@ 0000000180028b10     RemoteOrderDisplay.obj
 0002:00001b70       ??_7?$CComContainedObject@VCOPOSRemoteOrderDisplay@@@ATL@@6B?$IProvideClassInfo2Impl@$1?CLSID_OPOSRemoteOrderDisplay@@3U_GUID@@B$1?DIID__IOPOSRemoteOrderDisplayEvents@@3U2@B$1?LIBID_OposRemoteOrderDisplay_CCO@@3U2@B$00$0A@VCComTypeInfoHolder@ATL@@@1@@ 0000000180028b70     RemoteOrderDisplay.obj
 0002:00001b98       ??_7?$CComContainedObject@VCOPOSRemoteOrderDisplay@@@ATL@@6B?$IObjectSafetyImpl@VCOPOSRemoteOrderDisplay@@$02@1@@ 0000000180028b98     RemoteOrderDisplay.obj
 0002:00001bc8       ??_7?$CComContainedObject@VCOPOSRemoteOrderDisplay@@@ATL@@6B?$IPropertyNotifySinkCP@VCOPOSRemoteOrderDisplay@@VCComDynamicUnkArray@ATL@@@1@@ 0000000180028bc8     RemoteOrderDisplay.obj
 0002:00001c08       ??_7?$CComContainedObject@VCOPOSRemoteOrderDisplay@@@ATL@@6B?$CProxy_IOPOSEvents@VCOPOSRemoteOrderDisplay@@@@@ 0000000180028c08     RemoteOrderDisplay.obj
 0002:00001c48       ??_7?$CComAggObject@VCOPOSRemoteOrderDisplay@@@ATL@@6B@ 0000000180028c48     RemoteOrderDisplay.obj
 0002:00001c68       ??_7?$CComObject@VCOPOSRemoteOrderDisplay@@@ATL@@6B?$IDispatchImpl@UIOPOSRemoteOrderDisplay@@$1?IID_IOPOSRemoteOrderDisplay@@3U_GUID@@B$1?LIBID_OposRemoteOrderDisplay_CCO@@3U3@B$00$0A@VCComTypeInfoHolder@ATL@@@1@@ 0000000180028c68     RemoteOrderDisplay.obj
 0002:00001fc0       ??_7?$CComObject@VCOPOSRemoteOrderDisplay@@@ATL@@6BCComControlBase@1@@ 0000000180028fc0     RemoteOrderDisplay.obj
 0002:00001fe8       ??_7?$CComObject@VCOPOSRemoteOrderDisplay@@@ATL@@6B?$CWindowImpl@VCOPOSRemoteOrderDisplay@@VCWindow@ATL@@V?$CWinTraits@$0FGAAAAAA@$0A@@3@@1@@ 0000000180028fe8     RemoteOrderDisplay.obj
 0002:00002008       ??_7?$CComObject@VCOPOSRemoteOrderDisplay@@@ATL@@6B?$IPersistStreamInitImpl@VCOPOSRemoteOrderDisplay@@@1@@ 0000000180029008     RemoteOrderDisplay.obj
 0002:00002050       ??_7?$CComObject@VCOPOSRemoteOrderDisplay@@@ATL@@6B?$IOleControlImpl@VCOPOSRemoteOrderDisplay@@@1@@ 0000000180029050     RemoteOrderDisplay.obj
 0002:00002088       ??_7?$CComObject@VCOPOSRemoteOrderDisplay@@@ATL@@6B?$IOleObjectImpl@VCOPOSRemoteOrderDisplay@@@1@@ 0000000180029088     RemoteOrderDisplay.obj
 0002:00002148       ??_7?$CComObject@VCOPOSRemoteOrderDisplay@@@ATL@@6B?$IOleInPlaceActiveObjectImpl@VCOPOSRemoteOrderDisplay@@@1@@ 0000000180029148     RemoteOrderDisplay.obj
 0002:00002198       ??_7?$CComObject@VCOPOSRemoteOrderDisplay@@@ATL@@6B?$IViewObjectExImpl@VCOPOSRemoteOrderDisplay@@@1@@ 0000000180029198     RemoteOrderDisplay.obj
 0002:00002210       ??_7?$CComObject@VCOPOSRemoteOrderDisplay@@@ATL@@6B?$IOleInPlaceObjectWindowlessImpl@VCOPOSRemoteOrderDisplay@@@1@@ 0000000180029210     RemoteOrderDisplay.obj
 0002:00002268       ??_7?$CComObject@VCOPOSRemoteOrderDisplay@@@ATL@@6B?$IConnectionPointContainerImpl@VCOPOSRemoteOrderDisplay@@@1@@ 0000000180029268     RemoteOrderDisplay.obj
 0002:00002290       ??_7?$CComObject@VCOPOSRemoteOrderDisplay@@@ATL@@6B?$IPersistStorageImpl@VCOPOSRemoteOrderDisplay@@@1@@ 0000000180029290     RemoteOrderDisplay.obj
 0002:000022e0       ??_7?$CComObject@VCOPOSRemoteOrderDisplay@@@ATL@@6B?$ISpecifyPropertyPagesImpl@VCOPOSRemoteOrderDisplay@@@1@@ 00000001800292e0     RemoteOrderDisplay.obj
 0002:00002300       ??_7?$CComObject@VCOPOSRemoteOrderDisplay@@@ATL@@6B?$IQuickActivateImpl@VCOPOSRemoteOrderDisplay@@@1@@ 0000000180029300     RemoteOrderDisplay.obj
 0002:00002330       ??_7?$CComObject@VCOPOSRemoteOrderDisplay@@@ATL@@6B?$IDataObjectImpl@VCOPOSRemoteOrderDisplay@@@1@@ 0000000180029330     RemoteOrderDisplay.obj
 0002:00002390       ??_7?$CComObject@VCOPOSRemoteOrderDisplay@@@ATL@@6B?$IProvideClassInfo2Impl@$1?CLSID_OPOSRemoteOrderDisplay@@3U_GUID@@B$1?DIID__IOPOSRemoteOrderDisplayEvents@@3U2@B$1?LIBID_OposRemoteOrderDisplay_CCO@@3U2@B$00$0A@VCComTypeInfoHolder@ATL@@@1@@ 0000000180029390     RemoteOrderDisplay.obj
 0002:000023b8       ??_7?$CComObject@VCOPOSRemoteOrderDisplay@@@ATL@@6B?$IObjectSafetyImpl@VCOPOSRemoteOrderDisplay@@$02@1@@ 00000001800293b8     RemoteOrderDisplay.obj
 0002:000023e8       ??_7?$CComObject@VCOPOSRemoteOrderDisplay@@@ATL@@6B?$IPropertyNotifySinkCP@VCOPOSRemoteOrderDisplay@@VCComDynamicUnkArray@ATL@@@1@@ 00000001800293e8     RemoteOrderDisplay.obj
 0002:00002428       ??_7?$CComObject@VCOPOSRemoteOrderDisplay@@@ATL@@6B?$CProxy_IOPOSEvents@VCOPOSRemoteOrderDisplay@@@@@ 0000000180029428     RemoteOrderDisplay.obj
 0002:00002468       ??_C@_1O@GBFKGNEO@?$AAA?$AAT?$AAL?$AA?3?$AA?$CF?$AAp@ 0000000180029468     RemoteOrderDisplay.obj
 0002:00002478       ??_C@_1BA@PICGEGJB@?$AAD?$AAI?$AAS?$AAP?$AAL?$AAA?$AAY@ 0000000180029478     RemoteOrderDisplay.obj
 0002:00002488       _GUID_b196b284_bab4_101a_b69c_00aa00341d07 0000000180029488     RemoteOrderDisplay.obj
 0002:00002498       _GUID_9bfbbc02_eff1_101a_84ed_00aa00341d07 0000000180029498     RemoteOrderDisplay.obj
 0002:000024a8       ?_entries@?1??_GetEntries@?$CComEnum@UIEnumConnectionPoints@@$1?_GUID_b196b285_bab4_101a_b69c_00aa00341d07@@3U__s_GUID@@BPEAUIConnectionPoint@@V?$_CopyInterface@UIConnectionPoint@@@ATL@@VCComSingleThreadModel@6@@ATL@@SAPEBU_ATL_INTMAP_ENTRY@3@XZ@4QBU43@B 00000001800294a8     RemoteOrderDisplay.obj
 0002:000024d8       _GUID_00020412_0000_0000_c000_000000000046 00000001800294d8     RemoteOrderDisplay.obj
 0002:000024e8       _GUID_00020401_0000_0000_c000_000000000046 00000001800294e8     RemoteOrderDisplay.obj
 0002:000024f8       ??_C@_0BG@EKFFMJIO@RegOpenKeyTransactedW@ 00000001800294f8     RemoteOrderDisplay.obj
 0002:00002510       ??_C@_0BI@HAKLOOGP@RegDeleteKeyTransactedW@ 0000000180029510     RemoteOrderDisplay.obj
 0002:00002528       ??_C@_0BA@LILAPHGE@RegDeleteKeyExW@ 0000000180029528     RemoteOrderDisplay.obj
 0002:00002538       ??_C@_19ILOCMLCJ@?$AA?4?$AAt?$AAl?$AAb@ 0000000180029538     RemoteOrderDisplay.obj
 0002:00002548       _GUID_0002e012_0000_0000_c000_000000000046 0000000180029548     RemoteOrderDisplay.obj
 0002:00002558       ??_C@_1O@FHBGLCIO@?$AAC?$AAL?$AAS?$AAI?$AAD?$AA?2@ 0000000180029558     RemoteOrderDisplay.obj
 0002:00002568       ??_C@_1CK@IFBKBFAA@?$AA?2?$AAR?$AAe?$AAq?$AAu?$AAi?$AAr?$AAe?$AAd?$AA?5?$AAC?$AAa?$AAt?$AAe?$AAg@ 0000000180029568     RemoteOrderDisplay.obj
 0002:00002598       ??_C@_1DA@BIHALFED@?$AA?2?$AAI?$AAm?$AAp?$AAl?$AAe?$AAm?$AAe?$AAn?$AAt?$AAe?$AAd?$AA?5?$AAC?$AAa@ 0000000180029598     RemoteOrderDisplay.obj
 0002:000025c8       ??_C@_1BK@EDKOLFBJ@?$AAO?$AAL?$AAE?$AAA?$AAU?$AAT?$AA3?$AA2?$AA?4?$AAD?$AAL?$AAL@ 00000001800295c8     RemoteOrderDisplay.obj
 0002:000025e8       ??_C@_0BJ@CNLFOMHB@UnRegisterTypeLibForUser@ 00000001800295e8     RemoteOrderDisplay.obj
 0002:00002608       ??_C@_0BH@LBOMMKPJ@RegisterTypeLibForUser@ 0000000180029608     RemoteOrderDisplay.obj
 0002:00002620       ??_C@_0P@MMNMMLGK@COFreezeEvents@ 0000000180029620     RemoteOrderDisplayImpl.obj
 0002:00002630       ??_C@_0BC@OGCGGIMP@GetPropertyNumber@ 0000000180029630     RemoteOrderDisplayImpl.obj
 0002:00002648       ??_C@_0BC@MDCNODNB@SetPropertyNumber@ 0000000180029648     RemoteOrderDisplayImpl.obj
 0002:00002660       ??_C@_0BC@CFCCMIMD@GetPropertyString@ 0000000180029660     RemoteOrderDisplayImpl.obj
 0002:00002678       ??_C@_0BC@CJEDNN@SetPropertyString@ 0000000180029678     RemoteOrderDisplayImpl.obj
 0002:00002690       ??_C@_0M@LNPKKKDA@OpenService@ 0000000180029690     RemoteOrderDisplayImpl.obj
 0002:000026a0       ??_C@_0M@PCMCHHMH@CheckHealth@ 00000001800296a0     RemoteOrderDisplayImpl.obj
 0002:000026b0       ??_C@_0M@JGMIDNEK@ClaimDevice@ 00000001800296b0     RemoteOrderDisplayImpl.obj
 0002:000026c0       ??_C@_0L@BNEIFEJC@ClearInput@ 00000001800296c0     RemoteOrderDisplayImpl.obj
 0002:000026d0       ??_C@_0M@JMBCPNGJ@ClearOutput@ 00000001800296d0     RemoteOrderDisplayImpl.obj
 0002:000026e0       ??_C@_0N@DDFIIBMP@CloseService@ 00000001800296e0     RemoteOrderDisplayImpl.obj
 0002:000026f0       ??_C@_08EEIHICPC@DirectIO@ 00000001800296f0     RemoteOrderDisplayImpl.obj
 0002:00002700       ??_C@_0O@BCPMENMJ@ReleaseDevice@ 0000000180029700     RemoteOrderDisplayImpl.obj
 0002:00002710       ??_C@_0L@DHIDJAOO@ClearVideo@ 0000000180029710     RemoteOrderDisplayImpl.obj
 0002:00002720       ??_C@_0BB@BKDKAILF@ClearVideoRegion@ 0000000180029720     RemoteOrderDisplayImpl.obj
 0002:00002738       ??_C@_0N@LGFBJCKG@ControlClock@ 0000000180029738     RemoteOrderDisplayImpl.obj
 0002:00002748       ??_C@_0O@MJLDLDBI@ControlCursor@ 0000000180029748     RemoteOrderDisplayImpl.obj
 0002:00002758       ??_C@_0BA@NDBMIPMF@CopyVideoRegion@ 0000000180029758     RemoteOrderDisplayImpl.obj
 0002:00002768       ??_C@_0M@PGFELKMF@DisplayData@ 0000000180029768     RemoteOrderDisplayImpl.obj
 0002:00002778       ??_C@_07FBNHCCPG@DrawBox@  0000000180029778     RemoteOrderDisplayImpl.obj
 0002:00002780       ??_C@_0BA@NNIFPCLA@FreeVideoRegion@ 0000000180029780     RemoteOrderDisplayImpl.obj
 0002:00002790       ??_C@_0L@JMKOKABE@ResetVideo@ 0000000180029790     RemoteOrderDisplayImpl.obj
 0002:000027a0       ??_C@_0BD@DIHMIGHG@RestoreVideoRegion@ 00000001800297a0     RemoteOrderDisplayImpl.obj
 0002:000027b8       ??_C@_0BA@ODHPNLJ@SaveVideoRegion@ 00000001800297b8     RemoteOrderDisplayImpl.obj
 0002:000027c8       ??_C@_0BD@JJMHLHNM@SelectCharacterSet@ 00000001800297c8     RemoteOrderDisplayImpl.obj
 0002:000027e0       ??_C@_09PKKOCJGB@SetCursor@ 00000001800297e0     RemoteOrderDisplayImpl.obj
 0002:000027f0       ??_C@_0BD@LPDOPKIP@TransactionDisplay@ 00000001800297f0     RemoteOrderDisplayImpl.obj
 0002:00002808       ??_C@_0BL@KJCKLOMA@UpdateVideoRegionAttribute@ 0000000180029808     RemoteOrderDisplayImpl.obj
 0002:00002828       ??_C@_0L@EDLKLGFH@VideoSound@ 0000000180029828     RemoteOrderDisplayImpl.obj
 0002:00002838       ??_C@_0BA@GFABKEEE@ResetStatistics@ 0000000180029838     RemoteOrderDisplayImpl.obj
 0002:00002848       ??_C@_0BD@DPALHJGC@RetrieveStatistics@ 0000000180029848     RemoteOrderDisplayImpl.obj
 0002:00002860       ??_C@_0BB@KOHIKNFC@UpdateStatistics@ 0000000180029860     RemoteOrderDisplayImpl.obj
 0002:00002878       ??_C@_0BH@PBKBNMGB@CompareFirmwareVersion@ 0000000180029878     RemoteOrderDisplayImpl.obj
 0002:00002890       ??_C@_0P@FBPDPIPA@UpdateFirmware@ 0000000180029890     RemoteOrderDisplayImpl.obj
 0002:000028a0       ??_7?$CProxy_IOPOSEvents@VCOPOSRemoteOrderDisplay@@@@6B@ 00000001800298a0     RemoteOrderDisplayImpl.obj
 0002:000028e0       ??_C@_1BA@IFHENID@?$AA?$FL?$AAE?$AAr?$AAr?$AAo?$AAr?$AA?$FN@ 00000001800298e0     RemoteOrderDisplayImpl.obj
 0002:000028f0       ??_C@_0DF@MMEIEIAP@SOFTWARE?2OLEforRetail?2ServiceOP@ 00000001800298f0     RemoteOrderDisplayImpl.obj
 0002:00002928       ??_C@_1M@IAIJHCCH@?$AAC?$AAl?$AAo?$AAs?$AAe@ 0000000180029928     RemoteOrderDisplayImpl.obj
 0002:00002938       ??_C@_1M@PCPKGJAH@?$AAC?$AAl?$AAa?$AAi?$AAm@ 0000000180029938     RemoteOrderDisplayImpl.obj
 0002:00002948       ??_C@_1BA@NDFKIOCP@?$AAR?$AAe?$AAl?$AAe?$AAa?$AAs?$AAe@ 0000000180029948     RemoteOrderDisplayImpl.obj
 0002:00002958       ??_C@_0BD@EAJOFGE@RemoteOrderDisplay@ 0000000180029958     RemoteOrderDisplayImpl.obj
 0002:00002970       ??_C@_1BM@IJMNMBPK@?$AAG?$AAe?$AAt?$AAO?$AAp?$AAe?$AAn?$AAR?$AAe?$AAs?$AAu?$AAl?$AAt@ 0000000180029970     RemoteOrderDisplayImpl.obj
 0002:00002990       IID_IDispatch              0000000180029990     uuid:oaidl_i.obj
 0002:000029a0       IID_IPropertyNotifySink    00000001800299a0     uuid:ocidl_i.obj
 0002:000029b0       GUID_NULL                  00000001800299b0     uuid:cguid_i.obj
 0002:000029c0       CLSID_StdGlobalInterfaceTable 00000001800299c0     uuid:cguid_i.obj
 0002:000029d0       CLSID_StdComponentCategoriesMgr 00000001800299d0     uuid:ieguids.obj
 0002:000029e0       IID_IUnknown               00000001800299e0     uuid:unknwn_i.obj
 0002:000029f0       __xmm@ffffffffffffffffffffffffffffffff 00000001800299f0     LIBCMT:utility.obj
 0002:00002a00       ??_C@_1EC@JIJBPKFM@?$AAa?$AAp?$AAi?$AA?9?$AAm?$AAs?$AA?9?$AAw?$AAi?$AAn?$AA?9?$AAc?$AAo?$AAr?$AAe@ 0000000180029a00     LIBCMT:thread_safe_statics.obj
 0002:00002a48       ??_C@_1BK@MGMFAEKH@?$AAk?$AAe?$AAr?$AAn?$AAe?$AAl?$AA3?$AA2?$AA?4?$AAd?$AAl?$AAl@ 0000000180029a48     LIBCMT:thread_safe_statics.obj
 0002:00002a68       ??_C@_0BJ@JEBJOJFJ@SleepConditionVariableCS@ 0000000180029a68     LIBCMT:thread_safe_statics.obj
 0002:00002a88       ??_C@_0BJ@PGPPEPCC@WakeAllConditionVariable@ 0000000180029a88     LIBCMT:thread_safe_statics.obj
 0002:00002aa1       ?nothrow@std@@3Unothrow_t@1@B 0000000180029aa1     LIBCMT:std_nothrow.obj
 0002:00002ab8       _pRawDllMain               0000000180029ab8     LIBCMT:dll_dllmain.obj
 0002:00002ab8       _pDefaultRawDllMain        0000000180029ab8     LIBCMT:dll_dllmain.obj
 0002:00002ac8       ??_7exception@std@@6B@     0000000180029ac8     LIBCMT:throw_bad_alloc.obj
 0002:00002ad8       ??_C@_0BC@EOODALEL@Unknown?5exception@ 0000000180029ad8     LIBCMT:throw_bad_alloc.obj
 0002:00002af8       ??_7bad_alloc@std@@6B@     0000000180029af8     LIBCMT:throw_bad_alloc.obj
 0002:00002b08       ??_C@_0P@GHFPNOJB@bad?5allocation@ 0000000180029b08     LIBCMT:throw_bad_alloc.obj
 0002:00002b20       ??_7bad_array_new_length@std@@6B@ 0000000180029b20     LIBCMT:throw_bad_alloc.obj
 0002:00002b30       ??_C@_0BF@KINCDENJ@bad?5array?5new?5length@ 0000000180029b30     LIBCMT:throw_bad_alloc.obj
 0002:00002b50       ??_7type_info@@6B@         0000000180029b50     LIBCMT:std_type_info_static.obj
 0002:00002b58       GUID_ATLVer110             0000000180029b58     atls:atlbase.obj
 0002:00002b70       ??_C@_1IC@ONKHOIDK@?$AAE?$AAR?$AAR?$AAO?$AAR?$AA?5?$AA?3?$AA?5?$AAU?$AAn?$AAa?$AAb?$AAl?$AAe?$AA?5@ 0000000180029b70     atls:atlbase.obj
 0002:00002bf8       ??_C@_0N@FJEPLCIH@atlthunk?4dll@ 0000000180029bf8     atls:atlthunk.obj
 0002:00002c08       ??_C@_0BG@GAKFHCBM@AtlThunk_AllocateData@ 0000000180029c08     atls:atlthunk.obj
 0002:00002c20       ??_C@_0BC@JKONFIAH@AtlThunk_InitData@ 0000000180029c20     atls:atlthunk.obj
 0002:00002c38       ??_C@_0BE@IAOEELAK@AtlThunk_DataToCode@ 0000000180029c38     atls:atlthunk.obj
 0002:00002c50       ??_C@_0BC@GBGKAIPI@AtlThunk_FreeData@ 0000000180029c50     atls:atlthunk.obj
 0002:00002c68       ?s_negLengthTab@FH4@@3QBCB 0000000180029c68     libvcruntime:risctrnsctrl.obj
 0002:00002c78       ?s_shiftTab@FH4@@3QBEB     0000000180029c78     libvcruntime:risctrnsctrl.obj
 0002:00002dc8       _pDestructExceptionObject  0000000180029dc8     libvcruntime:ehhelpers.obj
 0002:00002dd8       ??_7bad_exception@std@@6B@ 0000000180029dd8     libvcruntime:frame.obj
 0002:00002de8       ??_C@_0O@DPKOEFFH@bad?5exception@ 0000000180029de8     libvcruntime:frame.obj
 0002:00003510       ??_C@_08EHJDFFNH@__based?$CI@ 000000018002a510     libvcruntime:undname.obj
 0002:00003520       ??_C@_07KOLFKCDI@__cdecl@  000000018002a520     libvcruntime:undname.obj
 0002:00003528       ??_C@_08GHMPAG@__pascal@   000000018002a528     libvcruntime:undname.obj
 0002:00003538       ??_C@_09IFJBGAPI@__stdcall@ 000000018002a538     libvcruntime:undname.obj
 0002:00003548       ??_C@_0L@NPHFGOKO@__thiscall@ 000000018002a548     libvcruntime:undname.obj
 0002:00003558       ??_C@_0L@JMKHOMEK@__fastcall@ 000000018002a558     libvcruntime:undname.obj
 0002:00003568       ??_C@_0N@BCKKPABJ@__vectorcall@ 000000018002a568     libvcruntime:undname.obj
 0002:00003578       ??_C@_09HIJEGCPM@__clrcall@ 000000018002a578     libvcruntime:undname.obj
 0002:00003584       ??_C@_06GHPCKEAG@__eabi@   000000018002a584     libvcruntime:undname.obj
 0002:00003590       ??_C@_09IOPIDJLG@__swift_1@ 000000018002a590     libvcruntime:undname.obj
 0002:000035a0       ??_C@_09KFNFGKHF@__swift_2@ 000000018002a5a0     libvcruntime:undname.obj
 0002:000035b0       ??_C@_09LMMOFLDE@__swift_3@ 000000018002a5b0     libvcruntime:undname.obj
 0002:000035c0       ??_C@_07JOMMBBKO@__ptr64@  000000018002a5c0     libvcruntime:undname.obj
 0002:000035c8       ??_C@_0L@PILCLIHE@__restrict@ 000000018002a5c8     libvcruntime:undname.obj
 0002:000035d8       ??_C@_0M@GFIIJFMG@__unaligned@ 000000018002a5d8     libvcruntime:undname.obj
 0002:000035e8       ??_C@_09DHDLOLLB@restrict?$CI@ 000000018002a5e8     libvcruntime:undname.obj
 0002:000035f2       ??_C@_00CNPNBAHC@@         000000018002a5f2     libvcruntime:undname.obj
 0002:000035f4       ??_C@_04NIHEBCM@?5new@     000000018002a5f4     libvcruntime:undname.obj
 0002:00003600       ??_C@_07FPCDHGMM@?5delete@ 000000018002a600     libvcruntime:undname.obj
 0002:00003608       ??_C@_01NEMOKFLO@?$DN@     000000018002a608     libvcruntime:undname.obj
 0002:0000360c       ??_C@_02GPIOPFAK@?$DO?$DO@ 000000018002a60c     libvcruntime:undname.obj
 0002:00003610       ??_C@_02FODMEDOG@?$DM?$DM@ 000000018002a610     libvcruntime:undname.obj
 0002:00003614       ??_C@_01DCLJPIOD@?$CB@     000000018002a614     libvcruntime:undname.obj
 0002:00003618       ??_C@_02EGOFBIJA@?$DN?$DN@ 000000018002a618     libvcruntime:undname.obj
 0002:0000361c       ??_C@_02FDNJECIE@?$CB?$DN@ 000000018002a61c     libvcruntime:undname.obj
 0002:00003620       ??_C@_02GPECMEKF@?$FL?$FN@ 000000018002a620     libvcruntime:undname.obj
 0002:00003628       ??_C@_08LHJFAFGD@operator@ 000000018002a628     libvcruntime:undname.obj
 0002:00003634       ??_C@_02HBOOOICD@?9?$DO@   000000018002a634     libvcruntime:undname.obj
 0002:00003638       ??_C@_01NBENCBCI@?$CK@     000000018002a638     libvcruntime:undname.obj
 0002:0000363c       ??_C@_02ECNGHCIF@?$CL?$CL@ 000000018002a63c     libvcruntime:undname.obj
 0002:00003640       ??_C@_02BAABKJLB@?9?9@     000000018002a640     libvcruntime:undname.obj
 0002:00003644       ??_C@_01JOAMLHOP@?9@       000000018002a644     libvcruntime:undname.obj
 0002:00003648       ??_C@_01MIFGBAGJ@?$CL@     000000018002a648     libvcruntime:undname.obj
 0002:0000364c       ??_C@_01HNPIGOCE@?$CG@     000000018002a64c     libvcruntime:undname.obj
 0002:00003650       ??_C@_03MNHNFDLC@?9?$DO?$CK@ 000000018002a650     libvcruntime:undname.obj
 0002:00003654       ??_C@_01KMDKNFGN@?1@       000000018002a654     libvcruntime:undname.obj
 0002:00003658       ??_C@_01FGNFDNOH@?$CF@     000000018002a658     libvcruntime:undname.obj
 0002:0000365c       ??_C@_01MNNFJEPP@?$DM@     000000018002a65c     libvcruntime:undname.obj
 0002:00003660       ??_C@_02EHCHHCKH@?$DM?$DN@ 000000018002a660     libvcruntime:undname.obj
 0002:00003664       ??_C@_01PPODPGHN@?$DO@     000000018002a664     libvcruntime:undname.obj
 0002:00003668       ??_C@_02EEKDKGMJ@?$DO?$DN@ 000000018002a668     libvcruntime:undname.obj
 0002:0000366c       ??_C@_01IHBHIGKO@?0@       000000018002a66c     libvcruntime:undname.obj
 0002:00003670       ??_C@_02HCKGKOFO@?$CI?$CJ@ 000000018002a670     libvcruntime:undname.obj
 0002:00003674       ??_C@_01PJKLJHI@?$HO@      000000018002a674     libvcruntime:undname.obj
 0002:00003678       ??_C@_01JKBOJNNK@?$FO@     000000018002a678     libvcruntime:undname.obj
 0002:0000367c       ??_C@_01DNKMNLPK@?$HM@     000000018002a67c     libvcruntime:undname.obj
 0002:00003680       ??_C@_02PPKAJPJL@?$CG?$CG@ 000000018002a680     libvcruntime:undname.obj
 0002:00003684       ??_C@_02NONPIBCD@?$HM?$HM@ 000000018002a684     libvcruntime:undname.obj
 0002:00003688       ??_C@_02FPIMKNGF@?$CK?$DN@ 000000018002a688     libvcruntime:undname.obj
 0002:0000368c       ??_C@_02FOEOMHFC@?$CL?$DN@ 000000018002a68c     libvcruntime:undname.obj
 0002:00003690       ??_C@_02FKMDLLOA@?9?$DN@   000000018002a690     libvcruntime:undname.obj
 0002:00003694       ??_C@_02FJEHGPIO@?1?$DN@   000000018002a694     libvcruntime:undname.obj
 0002:00003698       ??_C@_02FENAOKFI@?$CF?$DN@ 000000018002a698     libvcruntime:undname.obj
 0002:0000369c       ??_C@_03IKFCCPFF@?$DO?$DO?$DN@ 000000018002a69c     libvcruntime:undname.obj
 0002:000036a0       ??_C@_03CDNPDDLA@?$DM?$DM?$DN@ 000000018002a6a0     libvcruntime:undname.obj
 0002:000036a4       ??_C@_02FGJGFEAB@?$CG?$DN@ 000000018002a6a4     libvcruntime:undname.obj
 0002:000036a8       ??_C@_02DHLNPPGH@?$HM?$DN@ 000000018002a6a8     libvcruntime:undname.obj
 0002:000036ac       ??_C@_02MHEGNOJ@?$FO?$DN@  000000018002a6ac     libvcruntime:undname.obj
 0002:000036b0       ??_C@_09IFPLHPGF@?$GAvftable?8@ 000000018002a6b0     libvcruntime:undname.obj
 0002:000036c0       ??_C@_09BLBHBJP@?$GAvbtable?8@ 000000018002a6c0     libvcruntime:undname.obj
 0002:000036d0       ??_C@_07FEEIOKP@?$GAvcall?8@ 000000018002a6d0     libvcruntime:undname.obj
 0002:000036d8       ??_C@_08LLFFHHDJ@?$GAtypeof?8@ 000000018002a6d8     libvcruntime:undname.obj
 0002:000036e8       ??_C@_0BF@KDPPACIK@?$GAlocal?5static?5guard?8@ 000000018002a6e8     libvcruntime:undname.obj
 0002:00003700       ??_C@_08OBABFOLI@?$GAstring?8@ 000000018002a700     libvcruntime:undname.obj
 0002:00003710       ??_C@_0BD@JDLKDPAB@?$GAvbase?5destructor?8@ 000000018002a710     libvcruntime:undname.obj
 0002:00003728       ??_C@_0BN@DEGPLNFK@?$GAvector?5deleting?5destructor?8@ 000000018002a728     libvcruntime:undname.obj
 0002:00003748       ??_C@_0BO@OBMKPJIG@?$GAdefault?5constructor?5closure?8@ 000000018002a748     libvcruntime:undname.obj
 0002:00003768       ??_C@_0BN@IMDCHIKM@?$GAscalar?5deleting?5destructor?8@ 000000018002a768     libvcruntime:undname.obj
 0002:00003788       ??_C@_0BO@PFGOCPJJ@?$GAvector?5constructor?5iterator?8@ 000000018002a788     libvcruntime:undname.obj
 0002:000037a8       ??_C@_0BN@LFPFMEDL@?$GAvector?5destructor?5iterator?8@ 000000018002a7a8     libvcruntime:undname.obj
 0002:000037c8       ??_C@_0CE@IKBNEHA@?$GAvector?5vbase?5constructor?5itera@ 000000018002a7c8     libvcruntime:undname.obj
 0002:000037f0       ??_C@_0BL@NILFHHPC@?$GAvirtual?5displacement?5map?8@ 000000018002a7f0     libvcruntime:undname.obj
 0002:00003810       ??_C@_0CB@JONCMFFK@?$GAeh?5vector?5constructor?5iterator@ 000000018002a810     libvcruntime:undname.obj
 0002:00003838       ??_C@_0CA@GCEOPDGL@?$GAeh?5vector?5destructor?5iterator?8@ 000000018002a838     libvcruntime:undname.obj
 0002:00003858       ??_C@_0CH@OOJPLCPH@?$GAeh?5vector?5vbase?5constructor?5it@ 000000018002a858     libvcruntime:undname.obj
 0002:00003880       ??_C@_0BL@LLKPOHJI@?$GAcopy?5constructor?5closure?8@ 000000018002a880     libvcruntime:undname.obj
 0002:000038a0       ??_C@_0BA@KBCDOMBN@?$GAudt?5returning?8@ 000000018002a8a0     libvcruntime:undname.obj
 0002:000038b0       ??_C@_03KLGMFNMG@?$GAEH@   000000018002a8b0     libvcruntime:undname.obj
 0002:000038b4       ??_C@_05KHLCHHI@?$GARTTI@  000000018002a8b4     libvcruntime:undname.obj
 0002:000038c0       ??_C@_0BA@KKLDJDLB@?$GAlocal?5vftable?8@ 000000018002a8c0     libvcruntime:undname.obj
 0002:000038d0       ??_C@_0CE@IIHCMGGL@?$GAlocal?5vftable?5constructor?5clos@ 000000018002a8d0     libvcruntime:undname.obj
 0002:000038f4       ??_C@_06FHBGPFGH@?5new?$FL?$FN@ 000000018002a8f4     libvcruntime:undname.obj
 0002:00003900       ??_C@_09LBNFPBCA@?5delete?$FL?$FN@ 000000018002a900     libvcruntime:undname.obj
 0002:00003910       ??_C@_0P@HJKNJFNN@?$GAomni?5callsig?8@ 000000018002a910     libvcruntime:undname.obj
 0002:00003920       ??_C@_0BL@CNOONJFP@?$GAplacement?5delete?5closure?8@ 000000018002a920     libvcruntime:undname.obj
 0002:00003940       ??_C@_0BN@CKNJLHMB@?$GAplacement?5delete?$FL?$FN?5closure?8@ 000000018002a940     libvcruntime:undname.obj
 0002:00003960       ??_C@_0CG@CFDHKGGD@?$GAmanaged?5vector?5constructor?5ite@ 000000018002a960     libvcruntime:undname.obj
 0002:00003988       ??_C@_0CF@IMGKMJNO@?$GAmanaged?5vector?5destructor?5iter@ 000000018002a988     libvcruntime:undname.obj
 0002:000039b0       ??_C@_0CG@HLDDJMAG@?$GAeh?5vector?5copy?5constructor?5ite@ 000000018002a9b0     libvcruntime:undname.obj
 0002:000039d8       ??_C@_0CM@FCBBDIGB@?$GAeh?5vector?5vbase?5copy?5construct@ 000000018002a9d8     libvcruntime:undname.obj
 0002:00003a08       ??_C@_0BL@CLIPGLGB@?$GAdynamic?5initializer?5for?5?8@ 000000018002aa08     libvcruntime:undname.obj
 0002:00003a28       ??_C@_0CB@PDBIFEP@?$GAdynamic?5atexit?5destructor?5for?5@ 000000018002aa28     libvcruntime:undname.obj
 0002:00003a50       ??_C@_0CD@CGAJBKEJ@?$GAvector?5copy?5constructor?5iterat@ 000000018002aa50     libvcruntime:undname.obj
 0002:00003a78       ??_C@_0CJ@GJELGAMM@?$GAvector?5vbase?5copy?5constructor?5@ 000000018002aa78     libvcruntime:undname.obj
 0002:00003aa8       ??_C@_0CL@FGIJHLCE@?$GAmanaged?5vector?5copy?5constructo@ 000000018002aaa8     libvcruntime:undname.obj
 0002:00003ad8       ??_C@_0BM@PMGGMLDN@?$GAlocal?5static?5thread?5guard?8@ 000000018002aad8     libvcruntime:undname.obj
 0002:00003af8       ??_C@_0N@BDNMDMOL@operator?5?$CC?$CC?5@ 000000018002aaf8     libvcruntime:undname.obj
 0002:00003b08       ??_C@_0BC@GGEBGALA@operator?5co_await@ 000000018002ab08     libvcruntime:undname.obj
 0002:00003b20       ??_C@_0M@GAAIMMOH@operator?$DM?$DN?$DO@ 000000018002ab20     libvcruntime:undname.obj
 0002:00003b30       ??_C@_0BC@DAFEJGAK@?5Type?5Descriptor?8@ 000000018002ab30     libvcruntime:undname.obj
 0002:00003b48       ??_C@_0BM@LDKODKLH@?5Base?5Class?5Descriptor?5at?5?$CI@ 000000018002ab48     libvcruntime:undname.obj
 0002:00003b68       ??_C@_0BD@LGICGFMM@?5Base?5Class?5Array?8@ 000000018002ab68     libvcruntime:undname.obj
 0002:00003b80       ??_C@_0BN@MECKDCOJ@?5Class?5Hierarchy?5Descriptor?8@ 000000018002ab80     libvcruntime:undname.obj
 0002:00003ba0       ??_C@_0BK@CFCOFLF@?5Complete?5Object?5Locator?8@ 000000018002aba0     libvcruntime:undname.obj
 0002:00003bc0       ??_C@_0BG@JNJLAMPM@?$GAanonymous?5namespace?8@ 000000018002abc0     libvcruntime:undname.obj
 0002:00003bf0       ??_C@_1DM@KHCHBNEB@?$AAa?$AAp?$AAi?$AA?9?$AAm?$AAs?$AA?9?$AAw?$AAi?$AAn?$AA?9?$AAc?$AAo?$AAr?$AAe@ 000000018002abf0     libvcruntime:winapi_downlevel.obj
 0002:00003c30       ??_C@_1DK@LPPGFMPP@?$AAa?$AAp?$AAi?$AA?9?$AAm?$AAs?$AA?9?$AAw?$AAi?$AAn?$AA?9?$AAc?$AAo?$AAr?$AAe@ 000000018002ac30     libvcruntime:winapi_downlevel.obj
 0002:00003c70       ??_C@_1BC@GDMECMAK@?$AAk?$AAe?$AAr?$AAn?$AAe?$AAl?$AA3?$AA2@ 000000018002ac70     libvcruntime:winapi_downlevel.obj
 0002:00003c88       ??_C@_1BA@PFFKHIOG@?$AAa?$AAp?$AAi?$AA?9?$AAm?$AAs?$AA?9@ 000000018002ac88     libvcruntime:winapi_downlevel.obj
 0002:00003ca0       ??_C@_08KNHFBNJ@FlsAlloc@  000000018002aca0     libvcruntime:winapi_downlevel.obj
 0002:00003cb8       ??_C@_07PEJMOBNF@FlsFree@  000000018002acb8     libvcruntime:winapi_downlevel.obj
 0002:00003cc8       ??_C@_0M@GDNOONDI@FlsGetValue@ 000000018002acc8     libvcruntime:winapi_downlevel.obj
 0002:00003ce0       ??_C@_0M@JCPCPOEF@FlsSetValue@ 000000018002ace0     libvcruntime:winapi_downlevel.obj
 0002:00003cf8       ??_C@_0BM@HCFOFFN@InitializeCriticalSectionEx@ 000000018002acf8     libvcruntime:winapi_downlevel.obj
 0002:00003e90       ?format_validation_lookup_table_spectre@__crt_stdio_output@@3V?$spectre_mitigated_lookup_table@Ustate_transition_pair@__crt_stdio_output@@$0IA@@1@B 000000018002ae90     libucrt:output.obj
 0002:00003f90       ??_C@_1O@CEDCILHN@?$AA?$CI?$AAn?$AAu?$AAl?$AAl?$AA?$CJ@ 000000018002af90     libucrt:output.obj
 0002:00003fa0       ??_C@_06OJHGLDPL@?$CInull?$CJ@ 000000018002afa0     libucrt:output.obj
 0002:00003fb0       __acrt_exception_action_table 000000018002afb0     libucrt:exception_filter.obj
 0002:00004070       __acrt_signal_action_table_count 000000018002b070     libucrt:exception_filter.obj
 0002:00004078       __acrt_signal_action_first_fpe_index 000000018002b078     libucrt:exception_filter.obj
 0002:00004080       __acrt_signal_action_fpe_count 000000018002b080     libucrt:exception_filter.obj
 0002:000040d8       ??_C@_1BI@BGOHAHKC@?$AAm?$AAs?$AAc?$AAo?$AAr?$AAe?$AAe?$AA?4?$AAd?$AAl?$AAl@ 000000018002b0d8     libucrt:exit.obj
 0002:000040f0       ??_C@_0P@MIGLKIOC@CorExitProcess@ 000000018002b0f0     libucrt:exit.obj
 0002:00004250       __lc_time_c                000000018002b250     libucrt:nlsdata.obj
 0002:00004510       ??_C@_03KOEHGMDN@Sun@      000000018002b510     libucrt:nlsdata.obj
 0002:00004514       ??_C@_03PDAGKDH@Mon@       000000018002b514     libucrt:nlsdata.obj
 0002:00004518       ??_C@_03NAGEINEP@Tue@      000000018002b518     libucrt:nlsdata.obj
 0002:0000451c       ??_C@_03MHOMLAJA@Wed@      000000018002b51c     libucrt:nlsdata.obj
 0002:00004520       ??_C@_03IOFIKPDN@Thu@      000000018002b520     libucrt:nlsdata.obj
 0002:00004524       ??_C@_03IDIOELNC@Fri@      000000018002b524     libucrt:nlsdata.obj
 0002:00004528       ??_C@_03FEFJNEK@Sat@       000000018002b528     libucrt:nlsdata.obj
 0002:0000452c       ??_C@_06OOPIFAJ@Sunday@    000000018002b52c     libucrt:nlsdata.obj
 0002:00004534       ??_C@_06JLEDEDGH@Monday@   000000018002b534     libucrt:nlsdata.obj
 0002:00004540       ??_C@_07BAAGCFCM@Tuesday@  000000018002b540     libucrt:nlsdata.obj
 0002:00004548       ??_C@_09DLIGFAKA@Wednesday@ 000000018002b548     libucrt:nlsdata.obj
 0002:00004558       ??_C@_08HACCIKIA@Thursday@ 000000018002b558     libucrt:nlsdata.obj
 0002:00004564       ??_C@_06JECMNKMI@Friday@   000000018002b564     libucrt:nlsdata.obj
 0002:00004570       ??_C@_08INBOOONO@Saturday@ 000000018002b570     libucrt:nlsdata.obj
 0002:0000457c       ??_C@_03JIHJHPIE@Jan@      000000018002b57c     libucrt:nlsdata.obj
 0002:00004580       ??_C@_03HJBDCHOM@Feb@      000000018002b580     libucrt:nlsdata.obj
 0002:00004584       ??_C@_03ODNJBKGA@Mar@      000000018002b584     libucrt:nlsdata.obj
 0002:00004588       ??_C@_03LEOLGMJP@Apr@      000000018002b588     libucrt:nlsdata.obj
 0002:0000458c       ??_C@_03CNMDKL@May@        000000018002b58c     libucrt:nlsdata.obj
 0002:00004590       ??_C@_03IDFGHECI@Jun@      000000018002b590     libucrt:nlsdata.obj
 0002:00004594       ??_C@_03LBGABGKK@Jul@      000000018002b594     libucrt:nlsdata.obj
 0002:00004598       ??_C@_03IFJFEIGA@Aug@      000000018002b598     libucrt:nlsdata.obj
 0002:0000459c       ??_C@_03GGCAPAJC@Sep@      000000018002b59c     libucrt:nlsdata.obj
 0002:000045a0       ??_C@_03BMAOKBAD@Oct@      000000018002b5a0     libucrt:nlsdata.obj
 0002:000045a4       ??_C@_03JPJOFNIA@Nov@      000000018002b5a4     libucrt:nlsdata.obj
 0002:000045a8       ??_C@_03MKABNOCG@Dec@      000000018002b5a8     libucrt:nlsdata.obj
 0002:000045b0       ??_C@_07CGJPFGJA@January@  000000018002b5b0     libucrt:nlsdata.obj
 0002:000045b8       ??_C@_08GNJGEPFN@February@ 000000018002b5b8     libucrt:nlsdata.obj
 0002:000045c4       ??_C@_05HPCKOFNC@March@    000000018002b5c4     libucrt:nlsdata.obj
 0002:000045cc       ??_C@_05DMJDNLEJ@April@    000000018002b5cc     libucrt:nlsdata.obj
 0002:000045d4       ??_C@_04CNLMGBGM@June@     000000018002b5d4     libucrt:nlsdata.obj
 0002:000045dc       ??_C@_04MIEPOIFP@July@     000000018002b5dc     libucrt:nlsdata.obj
 0002:000045e4       ??_C@_06LBBHFDDG@August@   000000018002b5e4     libucrt:nlsdata.obj
 0002:000045f0       ??_C@_09BHHEALKD@September@ 000000018002b5f0     libucrt:nlsdata.obj
 0002:00004600       ??_C@_07JJNFCEND@October@  000000018002b600     libucrt:nlsdata.obj
 0002:00004608       ??_C@_08HCHEGEOA@November@ 000000018002b608     libucrt:nlsdata.obj
 0002:00004618       ??_C@_08EDHMEBNP@December@ 000000018002b618     libucrt:nlsdata.obj
 0002:00004624       ??_C@_02DEDBPAFC@AM@       000000018002b624     libucrt:nlsdata.obj
 0002:00004628       ??_C@_02CJNFDJBF@PM@       000000018002b628     libucrt:nlsdata.obj
 0002:00004630       ??_C@_08BPBNCDIB@MM?1dd?1yy@ 000000018002b630     libucrt:nlsdata.obj
 0002:00004640       ??_C@_0BE@CKGJFCPC@dddd?0?5MMMM?5dd?0?5yyyy@ 000000018002b640     libucrt:nlsdata.obj
 0002:00004658       ??_C@_08JCCMCCIL@HH?3mm?3ss@ 000000018002b658     libucrt:nlsdata.obj
 0002:00004668       ??_C@_17MBGCMIPB@?$AAS?$AAu?$AAn@ 000000018002b668     libucrt:nlsdata.obj
 0002:00004670       ??_C@_17KBOMKBF@?$AAM?$AAo?$AAn@ 000000018002b670     libucrt:nlsdata.obj
 0002:00004678       ??_C@_17BMKGEGOJ@?$AAT?$AAu?$AAe@ 000000018002b678     libucrt:nlsdata.obj
 0002:00004680       ??_C@_17CJEDCEPE@?$AAW?$AAe?$AAd@ 000000018002b680     libucrt:nlsdata.obj
 0002:00004688       ??_C@_17PDPHAADD@?$AAT?$AAh?$AAu@ 000000018002b688     libucrt:nlsdata.obj
 0002:00004690       ??_C@_17HFOLPPLP@?$AAF?$AAr?$AAi@ 000000018002b690     libucrt:nlsdata.obj
 0002:00004698       ??_C@_17GGIBDPIH@?$AAS?$AAa?$AAt@ 000000018002b698     libucrt:nlsdata.obj
 0002:000046a0       ??_C@_1O@IHNHDHPB@?$AAS?$AAu?$AAn?$AAd?$AAa?$AAy@ 000000018002b6a0     libucrt:nlsdata.obj
 0002:000046b0       ??_C@_1O@MMNBFLIA@?$AAM?$AAo?$AAn?$AAd?$AAa?$AAy@ 000000018002b6b0     libucrt:nlsdata.obj
 0002:000046c0       ??_C@_1BA@ENFBFFEK@?$AAT?$AAu?$AAe?$AAs?$AAd?$AAa?$AAy@ 000000018002b6c0     libucrt:nlsdata.obj
 0002:000046d0       ??_C@_1BE@EBOGMDOH@?$AAW?$AAe?$AAd?$AAn?$AAe?$AAs?$AAd?$AAa?$AAy@ 000000018002b6d0     libucrt:nlsdata.obj
 0002:000046e8       ??_C@_1BC@HHMNLIHE@?$AAT?$AAh?$AAu?$AAr?$AAs?$AAd?$AAa?$AAy@ 000000018002b6e8     libucrt:nlsdata.obj
 0002:00004700       ??_C@_1O@PDICJHAG@?$AAF?$AAr?$AAi?$AAd?$AAa?$AAy@ 000000018002b700     libucrt:nlsdata.obj
 0002:00004710       ??_C@_1BC@ENMNNPAJ@?$AAS?$AAa?$AAt?$AAu?$AAr?$AAd?$AAa?$AAy@ 000000018002b710     libucrt:nlsdata.obj
 0002:00004728       ??_C@_17DKNBKCHM@?$AAJ?$AAa?$AAn@ 000000018002b728     libucrt:nlsdata.obj
 0002:00004730       ??_C@_17LMDJEKJN@?$AAF?$AAe?$AAb@ 000000018002b730     libucrt:nlsdata.obj
 0002:00004738       ??_C@_17CKNLEDEC@?$AAM?$AAa?$AAr@ 000000018002b738     libucrt:nlsdata.obj
 0002:00004740       ??_C@_17LFPOIHDD@?$AAA?$AAp?$AAr@ 000000018002b740     libucrt:nlsdata.obj
 0002:00004748       ??_C@_17PNNKMEED@?$AAM?$AAa?$AAy@ 000000018002b748     libucrt:nlsdata.obj
 0002:00004750       ??_C@_17KCJGOCPB@?$AAJ?$AAu?$AAn@ 000000018002b750     libucrt:nlsdata.obj
 0002:00004758       ??_C@_17IJPCKHK@?$AAJ?$AAu?$AAl@ 000000018002b758     libucrt:nlsdata.obj
 0002:00004760       ??_C@_17ICPELBCN@?$AAA?$AAu?$AAg@ 000000018002b760     libucrt:nlsdata.obj
 0002:00004768       ??_C@_17HCHCOKMG@?$AAS?$AAe?$AAp@ 000000018002b768     libucrt:nlsdata.obj
 0002:00004770       ??_C@_17FNLKOI@?$AAO?$AAc?$AAt@ 000000018002b770     libucrt:nlsdata.obj
 0002:00004778       ??_C@_17BBDMLCIG@?$AAN?$AAo?$AAv@ 000000018002b778     libucrt:nlsdata.obj
 0002:00004780       ??_C@_17EGKACKIF@?$AAD?$AAe?$AAc@ 000000018002b780     libucrt:nlsdata.obj
 0002:00004788       ??_C@_1BA@EFMEIEBA@?$AAJ?$AAa?$AAn?$AAu?$AAa?$AAr?$AAy@ 000000018002b788     libucrt:nlsdata.obj
 0002:00004798       ??_C@_1BC@JGDDFFAM@?$AAF?$AAe?$AAb?$AAr?$AAu?$AAa?$AAr?$AAy@ 000000018002b798     libucrt:nlsdata.obj
 0002:000047b0       ??_C@_1M@IKEENEDF@?$AAM?$AAa?$AAr?$AAc?$AAh@ 000000018002b7b0     libucrt:nlsdata.obj
 0002:000047c0       ??_C@_1M@GJNLMHFD@?$AAA?$AAp?$AAr?$AAi?$AAl@ 000000018002b7c0     libucrt:nlsdata.obj
 0002:000047d0       ??_C@_19EPFLPGAP@?$AAJ?$AAu?$AAn?$AAe@ 000000018002b7d0     libucrt:nlsdata.obj
 0002:000047e0       ??_C@_19BIFMLPCD@?$AAJ?$AAu?$AAl?$AAy@ 000000018002b7e0     libucrt:nlsdata.obj
 0002:000047f0       ??_C@_1O@PAHLKOAC@?$AAA?$AAu?$AAg?$AAu?$AAs?$AAt@ 000000018002b7f0     libucrt:nlsdata.obj
 0002:00004800       ??_C@_1BE@DKAAMBJL@?$AAS?$AAe?$AAp?$AAt?$AAe?$AAm?$AAb?$AAe?$AAr@ 000000018002b800     libucrt:nlsdata.obj
 0002:00004818       ??_C@_1BA@EPANDLNG@?$AAO?$AAc?$AAt?$AAo?$AAb?$AAe?$AAr@ 000000018002b818     libucrt:nlsdata.obj
 0002:00004828       ??_C@_1BC@BGLIFPF@?$AAN?$AAo?$AAv?$AAe?$AAm?$AAb?$AAe?$AAr@ 000000018002b828     libucrt:nlsdata.obj
 0002:00004840       ??_C@_1BC@FEMKIFH@?$AAD?$AAe?$AAc?$AAe?$AAm?$AAb?$AAe?$AAr@ 000000018002b840     libucrt:nlsdata.obj
 0002:00004854       ??_C@_15ODEHAHHF@?$AAA?$AAM@ 000000018002b854     libucrt:nlsdata.obj
 0002:0000485c       ??_C@_15CLMNNGEL@?$AAP?$AAM@ 000000018002b85c     libucrt:nlsdata.obj
 0002:00004868       ??_C@_1BC@IEBCMHCM@?$AAM?$AAM?$AA?1?$AAd?$AAd?$AA?1?$AAy?$AAy@ 000000018002b868     libucrt:nlsdata.obj
 0002:00004880       ??_C@_1CI@KNAKOEBC@?$AAd?$AAd?$AAd?$AAd?$AA?0?$AA?5?$AAM?$AAM?$AAM?$AAM?$AA?5?$AAd?$AAd?$AA?0?$AA?5@ 000000018002b880     libucrt:nlsdata.obj
 0002:000048a8       ??_C@_1BC@GDGBMEMK@?$AAH?$AAH?$AA?3?$AAm?$AAm?$AA?3?$AAs?$AAs@ 000000018002b8a8     libucrt:nlsdata.obj
 0002:000048c0       ??_C@_1M@BMHNFIME@?$AAe?$AAn?$AA?9?$AAU?$AAS@ 000000018002b8c0     libucrt:nlsdata.obj
 0002:00004970       ??_C@_1EA@JGEFHKEI@?$AAa?$AAp?$AAi?$AA?9?$AAm?$AAs?$AA?9?$AAw?$AAi?$AAn?$AA?9?$AAc?$AAo?$AAr?$AAe@ 000000018002b970     libucrt:winapi_thunks.obj
 0002:000049b0       ??_C@_1DI@IJCEHOCB@?$AAa?$AAp?$AAi?$AA?9?$AAm?$AAs?$AA?9?$AAw?$AAi?$AAn?$AA?9?$AAc?$AAo?$AAr?$AAe@ 000000018002b9b0     libucrt:winapi_thunks.obj
 0002:000049f0       ??_C@_1EI@MPIAOHOC@?$AAa?$AAp?$AAi?$AA?9?$AAm?$AAs?$AA?9?$AAw?$AAi?$AAn?$AA?9?$AAc?$AAo?$AAr?$AAe@ 000000018002b9f0     libucrt:winapi_thunks.obj
 0002:00004a40       ??_C@_1FK@FPHCKFIE@?$AAa?$AAp?$AAi?$AA?9?$AAm?$AAs?$AA?9?$AAw?$AAi?$AAn?$AA?9?$AAc?$AAo?$AAr?$AAe@ 000000018002ba40     libucrt:winapi_thunks.obj
 0002:00004aa0       ??_C@_1EM@DILCGIIO@?$AAa?$AAp?$AAi?$AA?9?$AAm?$AAs?$AA?9?$AAw?$AAi?$AAn?$AA?9?$AAc?$AAo?$AAr?$AAe@ 000000018002baa0     libucrt:winapi_thunks.obj
 0002:00004af0       ??_C@_1DM@LNCGDDPN@?$AAa?$AAp?$AAi?$AA?9?$AAm?$AAs?$AA?9?$AAw?$AAi?$AAn?$AA?9?$AAc?$AAo?$AAr?$AAe@ 000000018002baf0     libucrt:winapi_thunks.obj
 0002:00004b30       ??_C@_1DO@FPAPJEMD@?$AAa?$AAp?$AAi?$AA?9?$AAm?$AAs?$AA?9?$AAw?$AAi?$AAn?$AA?9?$AAc?$AAo?$AAr?$AAe@ 000000018002bb30     libucrt:winapi_thunks.obj
 0002:00004b70       ??_C@_1DK@NDHNAHIO@?$AAa?$AAp?$AAi?$AA?9?$AAm?$AAs?$AA?9?$AAw?$AAi?$AAn?$AA?9?$AAc?$AAo?$AAr?$AAe@ 000000018002bb70     libucrt:winapi_thunks.obj
 0002:00004bb0       ??_C@_1DM@KGHDGBCM@?$AAa?$AAp?$AAi?$AA?9?$AAm?$AAs?$AA?9?$AAw?$AAi?$AAn?$AA?9?$AAc?$AAo?$AAr?$AAe@ 000000018002bbb0     libucrt:winapi_thunks.obj
 0002:00004bf0       ??_C@_1EO@IJIOEFOH@?$AAa?$AAp?$AAi?$AA?9?$AAm?$AAs?$AA?9?$AAw?$AAi?$AAn?$AA?9?$AAr?$AAt?$AAc?$AAo@ 000000018002bbf0     libucrt:winapi_thunks.obj
 0002:00004c40       ??_C@_1FG@HHGEKANL@?$AAa?$AAp?$AAi?$AA?9?$AAm?$AAs?$AA?9?$AAw?$AAi?$AAn?$AA?9?$AAs?$AAe?$AAc?$AAu@ 000000018002bc40     libucrt:winapi_thunks.obj
 0002:00004ca0       ??_C@_1EG@DBIOJECG@?$AAe?$AAx?$AAt?$AA?9?$AAm?$AAs?$AA?9?$AAw?$AAi?$AAn?$AA?9?$AAn?$AAt?$AAu?$AAs@ 000000018002bca0     libucrt:winapi_thunks.obj
 0002:00004cf0       ??_C@_1EO@FIHMJCLF@?$AAe?$AAx?$AAt?$AA?9?$AAm?$AAs?$AA?9?$AAw?$AAi?$AAn?$AA?9?$AAn?$AAt?$AAu?$AAs@ 000000018002bcf0     libucrt:winapi_thunks.obj
 0002:00004d40       ??_C@_1BC@DNHGCMLG@?$AAa?$AAd?$AAv?$AAa?$AAp?$AAi?$AA3?$AA2@ 000000018002bd40     libucrt:winapi_thunks.obj
 0002:00004d58       ??_C@_1M@OAIMIKLP@?$AAn?$AAt?$AAd?$AAl?$AAl@ 000000018002bd58     libucrt:winapi_thunks.obj
 0002:00004d70       ??_C@_1EG@DPGNFKGC@?$AAa?$AAp?$AAi?$AA?9?$AAm?$AAs?$AA?9?$AAw?$AAi?$AAn?$AA?9?$AAa?$AAp?$AAp?$AAm@ 000000018002bd70     libucrt:winapi_thunks.obj
 0002:00004db8       ??_C@_1O@BCCLBEOE@?$AAu?$AAs?$AAe?$AAr?$AA3?$AA2@ 000000018002bdb8     libucrt:winapi_thunks.obj
 0002:00004dc8       ??_C@_1BA@IAIFMGEF@?$AAe?$AAx?$AAt?$AA?9?$AAm?$AAs?$AA?9@ 000000018002bdc8     libucrt:winapi_thunks.obj
 0002:00004de0       ??_C@_0BA@FHFNEAED@AreFileApisANSI@ 000000018002bde0     libucrt:winapi_thunks.obj
 0002:00004e00       ??_C@_0O@KKBNKAPF@LCMapStringEx@ 000000018002be00     libucrt:winapi_thunks.obj
 0002:00004e18       ??_C@_0BB@HBDEELFH@LocaleNameToLCID@ 000000018002be18     libucrt:winapi_thunks.obj
 0002:00004e30       ??_C@_0CF@OJOFEIGO@AppPolicyGetProcessTerminationM@ 000000018002be30     libucrt:winapi_thunks.obj
 0002:00004e60       ??_C@_0BI@BKLFFAPO@SetThreadStackGuarantee@ 000000018002be60     libucrt:winapi_thunks.obj
 0002:00004f00       ??_C@_03OEIAHPBN@INF@      000000018002bf00     libucrt:cvt.obj
 0002:00004f04       ??_C@_03OJHLLCGB@inf@      000000018002bf04     libucrt:cvt.obj
 0002:00004f08       ??_C@_03LKNCIKJB@NAN@      000000018002bf08     libucrt:cvt.obj
 0002:00004f0c       ??_C@_03LHCJEHON@nan@      000000018002bf0c     libucrt:cvt.obj
 0002:00004f10       ??_C@_09OFJJIMPC@NAN?$CISNAN?$CJ@ 000000018002bf10     libucrt:cvt.obj
 0002:00004f20       ??_C@_09IPFBKMDL@nan?$CIsnan?$CJ@ 000000018002bf20     libucrt:cvt.obj
 0002:00004f30       ??_C@_08IKHNHAJ@NAN?$CIIND?$CJ@ 000000018002bf30     libucrt:cvt.obj
 0002:00004f40       ??_C@_08OFCDMILK@nan?$CIind?$CJ@ 000000018002bf40     libucrt:cvt.obj
 0002:00004f4c       ??_C@_05KLBDPFGC@e?$CL000@ 000000018002bf4c     libucrt:cvt.obj
 0002:00004f78       ??_C@_1M@HPNHIDJI@?$AAj?$AAa?$AA?9?$AAJ?$AAP@ 000000018002bf78     libucrt:mbctype.obj
 0002:00004f88       ??_C@_1M@BIBDDEMK@?$AAz?$AAh?$AA?9?$AAC?$AAN@ 000000018002bf88     libucrt:mbctype.obj
 0002:00004f98       ??_C@_1M@JLOOOEGK@?$AAk?$AAo?$AA?9?$AAK?$AAR@ 000000018002bf98     libucrt:mbctype.obj
 0002:00004fa8       ??_C@_1M@CLNBBOPM@?$AAz?$AAh?$AA?9?$AAT?$AAW@ 000000018002bfa8     libucrt:mbctype.obj
 0002:00004fc0       __newctype                 000000018002bfc0     libucrt:ctype.obj
 0002:000052c0       __newclmap                 000000018002c2c0     libucrt:ctype.obj
 0002:00005440       __newcumap                 000000018002c440     libucrt:ctype.obj
 0002:000055c0       ??_C@_15PJPFLCCM@?$AAu?$AAk@ 000000018002c5c0     libucrt:get_qualified_locale.obj
 0002:00006410       ??_C@_15EMKDOKLE@?$AAa?$AAr@ 000000018002d410     libucrt:lcidtoname_downlevel.obj
 0002:00006418       ??_C@_15KNPADPLH@?$AAb?$AAg@ 000000018002d418     libucrt:lcidtoname_downlevel.obj
 0002:00006420       ??_C@_15EDMHLDMO@?$AAc?$AAa@ 000000018002d420     libucrt:lcidtoname_downlevel.obj
 0002:00006428       ??_C@_1O@BPEAJADD@?$AAz?$AAh?$AA?9?$AAC?$AAH?$AAS@ 000000018002d428     libucrt:lcidtoname_downlevel.obj
 0002:00006438       ??_C@_15LJNHCMNK@?$AAc?$AAs@ 000000018002d438     libucrt:lcidtoname_downlevel.obj
 0002:00006440       ??_C@_15FOMCIDHG@?$AAd?$AAa@ 000000018002d440     libucrt:lcidtoname_downlevel.obj
 0002:00006448       ??_C@_15NBKABECB@?$AAd?$AAe@ 000000018002d448     libucrt:lcidtoname_downlevel.obj
 0002:00006450       ??_C@_15GHPEIIAO@?$AAe?$AAl@ 000000018002d450     libucrt:lcidtoname_downlevel.obj
 0002:00006458       ??_C@_15MNPNEAIF@?$AAe?$AAn@ 000000018002d458     libucrt:lcidtoname_downlevel.obj
 0002:00006460       ??_C@_15GPIOMPMH@?$AAe?$AAs@ 000000018002d460     libucrt:lcidtoname_downlevel.obj
 0002:00006468       ??_C@_15NGLOAKJC@?$AAf?$AAi@ 000000018002d468     libucrt:lcidtoname_downlevel.obj
 0002:00006470       ??_C@_15FBKGNKAM@?$AAf?$AAr@ 000000018002d470     libucrt:lcidtoname_downlevel.obj
 0002:00006478       ??_C@_15KGGCNEFK@?$AAh?$AAe@ 000000018002d478     libucrt:lcidtoname_downlevel.obj
 0002:00006480       ??_C@_15PGHLIDMF@?$AAh?$AAu@ 000000018002d480     libucrt:lcidtoname_downlevel.obj
 0002:00006488       ??_C@_15BIEMAPLM@?$AAi?$AAs@ 000000018002d488     libucrt:lcidtoname_downlevel.obj
 0002:00006490       ??_C@_15IFJLDHAF@?$AAi?$AAt@ 000000018002d490     libucrt:lcidtoname_downlevel.obj
 0002:00006498       ??_C@_15GEMIOCAG@?$AAj?$AAa@ 000000018002d498     libucrt:lcidtoname_downlevel.obj
 0002:000064a0       ??_C@_15EPELEGJA@?$AAk?$AAo@ 000000018002d4a0     libucrt:lcidtoname_downlevel.obj
 0002:000064a8       ??_C@_15NDDHIMN@?$AAn?$AAl@ 000000018002d4a8     libucrt:lcidtoname_downlevel.obj
 0002:000064b0       ??_C@_15BPIGNHCD@?$AAn?$AAo@ 000000018002d4b0     libucrt:lcidtoname_downlevel.obj
 0002:000064b8       ??_C@_15DEOPBLCG@?$AAp?$AAl@ 000000018002d4b8     libucrt:lcidtoname_downlevel.obj
 0002:000064c0       ??_C@_15KBECGEFG@?$AAp?$AAt@ 000000018002d4c0     libucrt:lcidtoname_downlevel.obj
 0002:000064c8       ??_C@_15GLJCBFMD@?$AAr?$AAo@ 000000018002d4c8     libucrt:lcidtoname_downlevel.obj
 0002:000064d0       ??_C@_15FEDGKCDI@?$AAr?$AAu@ 000000018002d4d0     libucrt:lcidtoname_downlevel.obj
 0002:000064d8       ??_C@_15GLKMLLHM@?$AAh?$AAr@ 000000018002d4d8     libucrt:lcidtoname_downlevel.obj
 0002:000064e0       ??_C@_15CPKMFBDB@?$AAs?$AAk@ 000000018002d4e0     libucrt:lcidtoname_downlevel.obj
 0002:000064e8       ??_C@_15BAAIOGMK@?$AAs?$AAq@ 000000018002d4e8     libucrt:lcidtoname_downlevel.obj
 0002:000064f0       ??_C@_15INNPNOHD@?$AAs?$AAv@ 000000018002d4f0     libucrt:lcidtoname_downlevel.obj
 0002:000064f8       ??_C@_15CABMMOGH@?$AAt?$AAh@ 000000018002d4f8     libucrt:lcidtoname_downlevel.obj
 0002:00006500       ??_C@_15BPLIHJJM@?$AAt?$AAr@ 000000018002d500     libucrt:lcidtoname_downlevel.obj
 0002:00006508       ??_C@_15NEOEKKDJ@?$AAu?$AAr@ 000000018002d508     libucrt:lcidtoname_downlevel.obj
 0002:00006510       ??_C@_15NFICGAJK@?$AAi?$AAd@ 000000018002d510     libucrt:lcidtoname_downlevel.obj
 0002:00006518       ??_C@_15HPJPHDM@?$AAb?$AAe@ 000000018002d518     libucrt:lcidtoname_downlevel.obj
 0002:00006520       ??_C@_15LCHLGJII@?$AAs?$AAl@ 000000018002d520     libucrt:lcidtoname_downlevel.obj
 0002:00006528       ??_C@_15PCFJPHHO@?$AAe?$AAt@ 000000018002d528     libucrt:lcidtoname_downlevel.obj
 0002:00006530       ??_C@_15HPFPGODN@?$AAl?$AAv@ 000000018002d530     libucrt:lcidtoname_downlevel.obj
 0002:00006538       ??_C@_15NFFGKGLG@?$AAl?$AAt@ 000000018002d538     libucrt:lcidtoname_downlevel.obj
 0002:00006540       ??_C@_15BDAKCCHN@?$AAf?$AAa@ 000000018002d540     libucrt:lcidtoname_downlevel.obj
 0002:00006548       ??_C@_15NFGIAIAJ@?$AAv?$AAi@ 000000018002d548     libucrt:lcidtoname_downlevel.obj
 0002:00006550       ??_C@_15LMKNDMHN@?$AAh?$AAy@ 000000018002d550     libucrt:lcidtoname_downlevel.obj
 0002:00006558       ??_C@_15IJBHMCFL@?$AAa?$AAz@ 000000018002d558     libucrt:lcidtoname_downlevel.obj
 0002:00006560       ??_C@_15EKOFJABL@?$AAe?$AAu@ 000000018002d560     libucrt:lcidtoname_downlevel.obj
 0002:00006568       ??_C@_15BGHADCNK@?$AAm?$AAk@ 000000018002d568     libucrt:lcidtoname_downlevel.obj
 0002:00006570       ??_C@_15JDNICKHM@?$AAa?$AAf@ 000000018002d570     libucrt:lcidtoname_downlevel.obj
 0002:00006578       ??_C@_15KPJEDBKD@?$AAk?$AAa@ 000000018002d578     libucrt:lcidtoname_downlevel.obj
 0002:00006580       ??_C@_15PDNFFFEO@?$AAf?$AAo@ 000000018002d580     libucrt:lcidtoname_downlevel.obj
 0002:00006588       ??_C@_15OMLEGLOC@?$AAh?$AAi@ 000000018002d588     libucrt:lcidtoname_downlevel.obj
 0002:00006590       ??_C@_15IDNNENKK@?$AAm?$AAs@ 000000018002d590     libucrt:lcidtoname_downlevel.obj
 0002:00006598       ??_C@_15MACJNBMH@?$AAk?$AAk@ 000000018002d598     libucrt:lcidtoname_downlevel.obj
 0002:000065a0       ??_C@_15DKDJEOND@?$AAk?$AAy@ 000000018002d5a0     libucrt:lcidtoname_downlevel.obj
 0002:000065a8       ??_C@_15DFGDLJBG@?$AAs?$AAw@ 000000018002d5a8     libucrt:lcidtoname_downlevel.obj
 0002:000065b0       ??_C@_15BBFAICNG@?$AAu?$AAz@ 000000018002d5b0     libucrt:lcidtoname_downlevel.obj
 0002:000065b8       ??_C@_15DKNDCGEA@?$AAt?$AAt@ 000000018002d5b8     libucrt:lcidtoname_downlevel.obj
 0002:000065c0       ??_C@_15MGIFMDPL@?$AAp?$AAa@ 000000018002d5c0     libucrt:lcidtoname_downlevel.obj
 0002:000065c8       ??_C@_15HCNDBBA@?$AAg?$AAu@ 000000018002d5c8     libucrt:lcidtoname_downlevel.obj
 0002:000065d0       ??_C@_15FNBEIBON@?$AAt?$AAa@ 000000018002d5d0     libucrt:lcidtoname_downlevel.obj
 0002:000065d8       ??_C@_15NCHGBGLK@?$AAt?$AAe@ 000000018002d5d8     libucrt:lcidtoname_downlevel.obj
 0002:000065e0       ??_C@_15PHPHCBPF@?$AAk?$AAn@ 000000018002d5e0     libucrt:lcidtoname_downlevel.obj
 0002:000065e8       ??_C@_15DLGBCKMP@?$AAm?$AAr@ 000000018002d5e8     libucrt:lcidtoname_downlevel.obj
 0002:000065f0       ??_C@_15EABBLBFF@?$AAs?$AAa@ 000000018002d5f0     libucrt:lcidtoname_downlevel.obj
 0002:000065f8       ??_C@_15CBKOMCOI@?$AAm?$AAn@ 000000018002d5f8     libucrt:lcidtoname_downlevel.obj
 0002:00006600       ??_C@_15CKDMCJAF@?$AAg?$AAl@ 000000018002d600     libucrt:lcidtoname_downlevel.obj
 0002:00006608       ??_C@_17CNJFBPG@?$AAk?$AAo?$AAk@ 000000018002d608     libucrt:lcidtoname_downlevel.obj
 0002:00006610       ??_C@_17FFBJICPL@?$AAs?$AAy?$AAr@ 000000018002d610     libucrt:lcidtoname_downlevel.obj
 0002:00006618       ??_C@_17KPNDCPAF@?$AAd?$AAi?$AAv@ 000000018002d618     libucrt:lcidtoname_downlevel.obj
 0002:00006620       ??_C@_1M@OKAHONE@?$AAa?$AAr?$AA?9?$AAS?$AAA@ 000000018002d620     libucrt:lcidtoname_downlevel.obj
 0002:00006630       ??_C@_1M@FFFIGIGK@?$AAb?$AAg?$AA?9?$AAB?$AAG@ 000000018002d630     libucrt:lcidtoname_downlevel.obj
 0002:00006640       ??_C@_1M@BJNKEDC@?$AAc?$AAa?$AA?9?$AAE?$AAS@ 000000018002d640     libucrt:lcidtoname_downlevel.obj
 0002:00006650       ??_C@_1M@IJJHFJHA@?$AAc?$AAs?$AA?9?$AAC?$AAZ@ 000000018002d650     libucrt:lcidtoname_downlevel.obj
 0002:00006660       ??_C@_1M@CLPEOBGI@?$AAd?$AAa?$AA?9?$AAD?$AAK@ 000000018002d660     libucrt:lcidtoname_downlevel.obj
 0002:00006670       ??_C@_1M@MCMADGCB@?$AAd?$AAe?$AA?9?$AAD?$AAE@ 000000018002d670     libucrt:lcidtoname_downlevel.obj
 0002:00006680       ??_C@_1M@OOCKEMAM@?$AAe?$AAl?$AA?9?$AAG?$AAR@ 000000018002d680     libucrt:lcidtoname_downlevel.obj
 0002:00006690       ??_C@_1M@DDNJFGID@?$AAf?$AAi?$AA?9?$AAF?$AAI@ 000000018002d690     libucrt:lcidtoname_downlevel.obj
 0002:000066a0       ??_C@_1M@GLIPPMAC@?$AAf?$AAr?$AA?9?$AAF?$AAR@ 000000018002d6a0     libucrt:lcidtoname_downlevel.obj
 0002:000066b0       ??_C@_1M@GFMCHPE@?$AAh?$AAe?$AA?9?$AAI?$AAL@ 000000018002d6b0     libucrt:lcidtoname_downlevel.obj
 0002:000066c0       ??_C@_1M@MHLPGNKM@?$AAh?$AAu?$AA?9?$AAH?$AAU@ 000000018002d6c0     libucrt:lcidtoname_downlevel.obj
 0002:000066d0       ??_C@_1M@LPDDNNPN@?$AAi?$AAs?$AA?9?$AAI?$AAS@ 000000018002d6d0     libucrt:lcidtoname_downlevel.obj
 0002:000066e0       ??_C@_1M@MADIPODN@?$AAi?$AAt?$AA?9?$AAI?$AAT@ 000000018002d6e0     libucrt:lcidtoname_downlevel.obj
 0002:000066f0       ??_C@_1M@IHBJJGG@?$AAn?$AAl?$AA?9?$AAN?$AAL@ 000000018002d6f0     libucrt:lcidtoname_downlevel.obj
 0002:00006700       ??_C@_1M@EANAGDL@?$AAn?$AAb?$AA?9?$AAN?$AAO@ 000000018002d700     libucrt:lcidtoname_downlevel.obj
 0002:00006710       ??_C@_1M@NEIEMEGP@?$AAp?$AAl?$AA?9?$AAP?$AAL@ 000000018002d710     libucrt:lcidtoname_downlevel.obj
 0002:00006720       ??_C@_1M@BOCFIGEP@?$AAp?$AAt?$AA?9?$AAB?$AAR@ 000000018002d720     libucrt:lcidtoname_downlevel.obj
 0002:00006730       ??_C@_1M@IMPFOPBG@?$AAr?$AAo?$AA?9?$AAR?$AAO@ 000000018002d730     libucrt:lcidtoname_downlevel.obj
 0002:00006740       ??_C@_1M@IDNNEJMM@?$AAr?$AAu?$AA?9?$AAR?$AAU@ 000000018002d740     libucrt:lcidtoname_downlevel.obj
 0002:00006750       ??_C@_1M@LILEEOGM@?$AAh?$AAr?$AA?9?$AAH?$AAR@ 000000018002d750     libucrt:lcidtoname_downlevel.obj
 0002:00006760       ??_C@_1M@FKIFEHPB@?$AAs?$AAk?$AA?9?$AAS?$AAK@ 000000018002d760     libucrt:lcidtoname_downlevel.obj
 0002:00006770       ??_C@_1M@LJMAMNPJ@?$AAs?$AAq?$AA?9?$AAA?$AAL@ 000000018002d770     libucrt:lcidtoname_downlevel.obj
 0002:00006780       ??_C@_1M@GIAKDKJK@?$AAs?$AAv?$AA?9?$AAS?$AAE@ 000000018002d780     libucrt:lcidtoname_downlevel.obj
 0002:00006790       ??_C@_1M@MKJKIKCL@?$AAt?$AAh?$AA?9?$AAT?$AAH@ 000000018002d790     libucrt:lcidtoname_downlevel.obj
 0002:000067a0       ??_C@_1M@MFLCCMPB@?$AAt?$AAr?$AA?9?$AAT?$AAR@ 000000018002d7a0     libucrt:lcidtoname_downlevel.obj
 0002:000067b0       ??_C@_1M@OIJHDKJN@?$AAu?$AAr?$AA?9?$AAP?$AAK@ 000000018002d7b0     libucrt:lcidtoname_downlevel.obj
 0002:000067c0       ??_C@_1M@LHIPCIEK@?$AAi?$AAd?$AA?9?$AAI?$AAD@ 000000018002d7c0     libucrt:lcidtoname_downlevel.obj
 0002:000067d0       ??_C@_1M@MFMOBGI@?$AAu?$AAk?$AA?9?$AAU?$AAA@ 000000018002d7d0     libucrt:lcidtoname_downlevel.obj
 0002:000067e0       ??_C@_1M@OBGLJIPL@?$AAb?$AAe?$AA?9?$AAB?$AAY@ 000000018002d7e0     libucrt:lcidtoname_downlevel.obj
 0002:000067f0       ??_C@_1M@BCFAJEAD@?$AAs?$AAl?$AA?9?$AAS?$AAI@ 000000018002d7f0     libucrt:lcidtoname_downlevel.obj
 0002:00006800       ??_C@_1M@FKFFEDDN@?$AAe?$AAt?$AA?9?$AAE?$AAE@ 000000018002d800     libucrt:lcidtoname_downlevel.obj
 0002:00006810       ??_C@_1M@KGKKAACI@?$AAl?$AAv?$AA?9?$AAL?$AAV@ 000000018002d810     libucrt:lcidtoname_downlevel.obj
 0002:00006820       ??_C@_1M@IFGBIJO@?$AAl?$AAt?$AA?9?$AAL?$AAT@ 000000018002d820     libucrt:lcidtoname_downlevel.obj
 0002:00006830       ??_C@_1M@FGEAHEDM@?$AAf?$AAa?$AA?9?$AAI?$AAR@ 000000018002d830     libucrt:lcidtoname_downlevel.obj
 0002:00006840       ??_C@_1M@KBMAIBFN@?$AAv?$AAi?$AA?9?$AAV?$AAN@ 000000018002d840     libucrt:lcidtoname_downlevel.obj
 0002:00006850       ??_C@_1M@GPCBKDJK@?$AAh?$AAy?$AA?9?$AAA?$AAM@ 000000018002d850     libucrt:lcidtoname_downlevel.obj
 0002:00006860       ??_C@_1BG@BECMDDJB@?$AAa?$AAz?$AA?9?$AAA?$AAZ?$AA?9?$AAL?$AAa?$AAt?$AAn@ 000000018002d860     libucrt:lcidtoname_downlevel.obj
 0002:00006878       ??_C@_1M@MAOFCAEA@?$AAe?$AAu?$AA?9?$AAE?$AAS@ 000000018002d878     libucrt:lcidtoname_downlevel.obj
 0002:00006888       ??_C@_1M@IGHABKPI@?$AAm?$AAk?$AA?9?$AAM?$AAK@ 000000018002d888     libucrt:lcidtoname_downlevel.obj
 0002:00006898       ??_C@_1M@IAIGNEJG@?$AAt?$AAn?$AA?9?$AAZ?$AAA@ 000000018002d898     libucrt:lcidtoname_downlevel.obj
 0002:000068a8       ??_C@_1M@IIJCOJFA@?$AAx?$AAh?$AA?9?$AAZ?$AAA@ 000000018002d8a8     libucrt:lcidtoname_downlevel.obj
 0002:000068b8       ??_C@_1M@LGPJHNJH@?$AAz?$AAu?$AA?9?$AAZ?$AAA@ 000000018002d8b8     libucrt:lcidtoname_downlevel.obj
 0002:000068c8       ??_C@_1M@HOKAOIO@?$AAa?$AAf?$AA?9?$AAZ?$AAA@ 000000018002d8c8     libucrt:lcidtoname_downlevel.obj
 0002:000068d8       ??_C@_1M@DPCLHLIE@?$AAk?$AAa?$AA?9?$AAG?$AAE@ 000000018002d8d8     libucrt:lcidtoname_downlevel.obj
 0002:000068e8       ??_C@_1M@BLKMHJBI@?$AAf?$AAo?$AA?9?$AAF?$AAO@ 000000018002d8e8     libucrt:lcidtoname_downlevel.obj
 0002:000068f8       ??_C@_1M@LGGJAPPB@?$AAh?$AAi?$AA?9?$AAI?$AAN@ 000000018002d8f8     libucrt:lcidtoname_downlevel.obj
 0002:00006908       ??_C@_1M@FIKPIHFE@?$AAm?$AAt?$AA?9?$AAM?$AAT@ 000000018002d908     libucrt:lcidtoname_downlevel.obj
 0002:00006918       ??_C@_1M@HEGGPBFA@?$AAs?$AAe?$AA?9?$AAN?$AAO@ 000000018002d918     libucrt:lcidtoname_downlevel.obj
 0002:00006928       ??_C@_1M@EIBJEEPA@?$AAm?$AAs?$AA?9?$AAM?$AAY@ 000000018002d928     libucrt:lcidtoname_downlevel.obj
 0002:00006938       ??_C@_1M@FHLBGMPP@?$AAk?$AAk?$AA?9?$AAK?$AAZ@ 000000018002d938     libucrt:lcidtoname_downlevel.obj
 0002:00006948       ??_C@_1M@NGJJLCGI@?$AAk?$AAy?$AA?9?$AAK?$AAG@ 000000018002d948     libucrt:lcidtoname_downlevel.obj
 0002:00006958       ??_C@_1M@GIENNBFC@?$AAs?$AAw?$AA?9?$AAK?$AAE@ 000000018002d958     libucrt:lcidtoname_downlevel.obj
 0002:00006968       ??_C@_1BG@NDGMJIMJ@?$AAu?$AAz?$AA?9?$AAU?$AAZ?$AA?9?$AAL?$AAa?$AAt?$AAn@ 000000018002d968     libucrt:lcidtoname_downlevel.obj
 0002:00006980       ??_C@_1M@IDCCIHBC@?$AAt?$AAt?$AA?9?$AAR?$AAU@ 000000018002d980     libucrt:lcidtoname_downlevel.obj
 0002:00006990       ??_C@_1M@LOICPMOJ@?$AAb?$AAn?$AA?9?$AAI?$AAN@ 000000018002d990     libucrt:lcidtoname_downlevel.obj
 0002:000069a0       ??_C@_1M@KPKKNEAH@?$AAp?$AAa?$AA?9?$AAI?$AAN@ 000000018002d9a0     libucrt:lcidtoname_downlevel.obj
 0002:000069b0       ??_C@_1M@PJGPPBOG@?$AAg?$AAu?$AA?9?$AAI?$AAN@ 000000018002d9b0     libucrt:lcidtoname_downlevel.obj
 0002:000069c0       ??_C@_1M@KMKMOPHI@?$AAt?$AAa?$AA?9?$AAI?$AAN@ 000000018002d9c0     libucrt:lcidtoname_downlevel.obj
 0002:000069d0       ??_C@_1M@KFEHEPAC@?$AAt?$AAe?$AA?9?$AAI?$AAN@ 000000018002d9d0     libucrt:lcidtoname_downlevel.obj
 0002:000069e0       ??_C@_1M@CDCLMGHI@?$AAk?$AAn?$AA?9?$AAI?$AAN@ 000000018002d9e0     libucrt:lcidtoname_downlevel.obj
 0002:000069f0       ??_C@_1M@MIODLDKF@?$AAm?$AAl?$AA?9?$AAI?$AAN@ 000000018002d9f0     libucrt:lcidtoname_downlevel.obj
 0002:00006a00       ??_C@_1M@PBIEACPO@?$AAm?$AAr?$AA?9?$AAI?$AAN@ 000000018002da00     libucrt:lcidtoname_downlevel.obj
 0002:00006a10       ??_C@_1M@NIDEAGPH@?$AAs?$AAa?$AA?9?$AAI?$AAN@ 000000018002da10     libucrt:lcidtoname_downlevel.obj
 0002:00006a20       ??_C@_1M@FHIHCBIO@?$AAm?$AAn?$AA?9?$AAM?$AAN@ 000000018002da20     libucrt:lcidtoname_downlevel.obj
 0002:00006a30       ??_C@_1M@JAIJPENP@?$AAc?$AAy?$AA?9?$AAG?$AAB@ 000000018002da30     libucrt:lcidtoname_downlevel.obj
 0002:00006a40       ??_C@_1M@PHGFBEPN@?$AAg?$AAl?$AA?9?$AAE?$AAS@ 000000018002da40     libucrt:lcidtoname_downlevel.obj
 0002:00006a50       ??_C@_1O@KPIPDNCP@?$AAk?$AAo?$AAk?$AA?9?$AAI?$AAN@ 000000018002da50     libucrt:lcidtoname_downlevel.obj
 0002:00006a60       ??_C@_1O@KNHJLDJA@?$AAs?$AAy?$AAr?$AA?9?$AAS?$AAY@ 000000018002da60     libucrt:lcidtoname_downlevel.obj
 0002:00006a70       ??_C@_1O@MKEKBLAH@?$AAd?$AAi?$AAv?$AA?9?$AAM?$AAV@ 000000018002da70     libucrt:lcidtoname_downlevel.obj
 0002:00006a80       ??_C@_1O@OHDCKDDF@?$AAq?$AAu?$AAz?$AA?9?$AAB?$AAO@ 000000018002da80     libucrt:lcidtoname_downlevel.obj
 0002:00006a90       ??_C@_1M@LEPJNLFD@?$AAn?$AAs?$AA?9?$AAZ?$AAA@ 000000018002da90     libucrt:lcidtoname_downlevel.obj
 0002:00006aa0       ??_C@_1M@OMLEIIJB@?$AAm?$AAi?$AA?9?$AAN?$AAZ@ 000000018002daa0     libucrt:lcidtoname_downlevel.obj
 0002:00006ab0       ??_C@_1M@PMPEAILG@?$AAa?$AAr?$AA?9?$AAI?$AAQ@ 000000018002dab0     libucrt:lcidtoname_downlevel.obj
 0002:00006ac0       ??_C@_1M@CNKPNOEE@?$AAd?$AAe?$AA?9?$AAC?$AAH@ 000000018002dac0     libucrt:lcidtoname_downlevel.obj
 0002:00006ad0       ??_C@_1M@LKMGMLKO@?$AAe?$AAn?$AA?9?$AAG?$AAB@ 000000018002dad0     libucrt:lcidtoname_downlevel.obj
 0002:00006ae0       ??_C@_1M@PGKJFFGL@?$AAe?$AAs?$AA?9?$AAM?$AAX@ 000000018002dae0     libucrt:lcidtoname_downlevel.obj
 0002:00006af0       ??_C@_1M@DNNANBDC@?$AAf?$AAr?$AA?9?$AAB?$AAE@ 000000018002daf0     libucrt:lcidtoname_downlevel.obj
 0002:00006b00       ??_C@_1M@HLGMDFHM@?$AAi?$AAt?$AA?9?$AAC?$AAH@ 000000018002db00     libucrt:lcidtoname_downlevel.obj
 0002:00006b10       ??_C@_1M@CLLBGJH@?$AAn?$AAl?$AA?9?$AAB?$AAE@ 000000018002db10     libucrt:lcidtoname_downlevel.obj
 0002:00006b20       ??_C@_1M@BODBOGLF@?$AAn?$AAn?$AA?9?$AAN?$AAO@ 000000018002db20     libucrt:lcidtoname_downlevel.obj
 0002:00006b30       ??_C@_1M@HFFAHKAD@?$AAp?$AAt?$AA?9?$AAP?$AAT@ 000000018002db30     libucrt:lcidtoname_downlevel.obj
 0002:00006b40       ??_C@_1BG@LNOAKHIE@?$AAs?$AAr?$AA?9?$AAS?$AAP?$AA?9?$AAL?$AAa?$AAt?$AAn@ 000000018002db40     libucrt:lcidtoname_downlevel.obj
 0002:00006b58       ??_C@_1M@HBMHBGAK@?$AAs?$AAv?$AA?9?$AAF?$AAI@ 000000018002db58     libucrt:lcidtoname_downlevel.obj
 0002:00006b68       ??_C@_1BG@DGCJGJBE@?$AAa?$AAz?$AA?9?$AAA?$AAZ?$AA?9?$AAC?$AAy?$AAr?$AAl@ 000000018002db68     libucrt:lcidtoname_downlevel.obj
 0002:00006b80       ??_C@_1M@KEJDAAHB@?$AAs?$AAe?$AA?9?$AAS?$AAE@ 000000018002db80     libucrt:lcidtoname_downlevel.obj
 0002:00006b90       ??_C@_1M@HEIBJJAD@?$AAm?$AAs?$AA?9?$AAB?$AAN@ 000000018002db90     libucrt:lcidtoname_downlevel.obj
 0002:00006ba0       ??_C@_1BG@PBGJMCEM@?$AAu?$AAz?$AA?9?$AAU?$AAZ?$AA?9?$AAC?$AAy?$AAr?$AAl@ 000000018002dba0     libucrt:lcidtoname_downlevel.obj
 0002:00006bb8       ??_C@_1O@LAOBCMDF@?$AAq?$AAu?$AAz?$AA?9?$AAE?$AAC@ 000000018002dbb8     libucrt:lcidtoname_downlevel.obj
 0002:00006bc8       ??_C@_1M@POEEMAIO@?$AAa?$AAr?$AA?9?$AAE?$AAG@ 000000018002dbc8     libucrt:lcidtoname_downlevel.obj
 0002:00006bd8       ??_C@_1M@EFAKDEDL@?$AAz?$AAh?$AA?9?$AAH?$AAK@ 000000018002dbd8     libucrt:lcidtoname_downlevel.obj
 0002:00006be8       ??_C@_1M@HKKIJHGI@?$AAd?$AAe?$AA?9?$AAA?$AAT@ 000000018002dbe8     libucrt:lcidtoname_downlevel.obj
 0002:00006bf8       ??_C@_1M@KBFBEHJF@?$AAe?$AAn?$AA?9?$AAA?$AAU@ 000000018002dbf8     libucrt:lcidtoname_downlevel.obj
 0002:00006c08       ??_C@_1M@MNPLFAAH@?$AAe?$AAs?$AA?9?$AAE?$AAS@ 000000018002dc08     libucrt:lcidtoname_downlevel.obj
 0002:00006c18       ??_C@_1M@HJOOJFMA@?$AAf?$AAr?$AA?9?$AAC?$AAA@ 000000018002dc18     libucrt:lcidtoname_downlevel.obj
 0002:00006c28       ??_C@_1BG@JPOFPNAB@?$AAs?$AAr?$AA?9?$AAS?$AAP?$AA?9?$AAC?$AAy?$AAr?$AAl@ 000000018002dc28     libucrt:lcidtoname_downlevel.obj
 0002:00006c40       ??_C@_1M@LNFOCMOB@?$AAs?$AAe?$AA?9?$AAF?$AAI@ 000000018002dc40     libucrt:lcidtoname_downlevel.obj
 0002:00006c50       ??_C@_1O@MGJBOAMB@?$AAq?$AAu?$AAz?$AA?9?$AAP?$AAE@ 000000018002dc50     libucrt:lcidtoname_downlevel.obj
 0002:00006c60       ??_C@_1M@GJINLBOK@?$AAa?$AAr?$AA?9?$AAL?$AAY@ 000000018002dc60     libucrt:lcidtoname_downlevel.obj
 0002:00006c70       ??_C@_1M@GGMNHJNL@?$AAz?$AAh?$AA?9?$AAS?$AAG@ 000000018002dc70     libucrt:lcidtoname_downlevel.obj
 0002:00006c80       ??_C@_1M@HOIKODND@?$AAd?$AAe?$AA?9?$AAL?$AAU@ 000000018002dc80     libucrt:lcidtoname_downlevel.obj
 0002:00006c90       ??_C@_1M@DDOCCGFG@?$AAe?$AAn?$AA?9?$AAC?$AAA@ 000000018002dc90     libucrt:lcidtoname_downlevel.obj
 0002:00006ca0       ??_C@_1M@BNOEMJLF@?$AAe?$AAs?$AA?9?$AAG?$AAT@ 000000018002dca0     libucrt:lcidtoname_downlevel.obj
 0002:00006cb0       ??_C@_1M@EOGNKEK@?$AAf?$AAr?$AA?9?$AAC?$AAH@ 000000018002dcb0     libucrt:lcidtoname_downlevel.obj
 0002:00006cc0       ??_C@_1M@FLIDJFHL@?$AAh?$AAr?$AA?9?$AAB?$AAA@ 000000018002dcc0     libucrt:lcidtoname_downlevel.obj
 0002:00006cd0       ??_C@_1O@FMCELNAJ@?$AAs?$AAm?$AAj?$AA?9?$AAN?$AAO@ 000000018002dcd0     libucrt:lcidtoname_downlevel.obj
 0002:00006ce0       ??_C@_1M@JHGLJMGJ@?$AAa?$AAr?$AA?9?$AAD?$AAZ@ 000000018002dce0     libucrt:lcidtoname_downlevel.obj
 0002:00006cf0       ??_C@_1M@JKKFDCNP@?$AAz?$AAh?$AA?9?$AAM?$AAO@ 000000018002dcf0     libucrt:lcidtoname_downlevel.obj
 0002:00006d00       ??_C@_1M@GEEFALPE@?$AAd?$AAe?$AA?9?$AAL?$AAI@ 000000018002dd00     libucrt:lcidtoname_downlevel.obj
 0002:00006d10       ??_C@_1M@IGEOFBG@?$AAe?$AAn?$AA?9?$AAN?$AAZ@ 000000018002dd10     libucrt:lcidtoname_downlevel.obj
 0002:00006d20       ??_C@_1M@KDBONEHP@?$AAe?$AAs?$AA?9?$AAC?$AAR@ 000000018002dd20     libucrt:lcidtoname_downlevel.obj
 0002:00006d30       ??_C@_1M@FHMDOHNN@?$AAf?$AAr?$AA?9?$AAL?$AAU@ 000000018002dd30     libucrt:lcidtoname_downlevel.obj
 0002:00006d40       ??_C@_1BG@NFKKMAFG@?$AAb?$AAs?$AA?9?$AAB?$AAA?$AA?9?$AAL?$AAa?$AAt?$AAn@ 000000018002dd40     libucrt:lcidtoname_downlevel.obj
 0002:00006d58       ??_C@_1O@IMNBEMCI@?$AAs?$AAm?$AAj?$AA?9?$AAS?$AAE@ 000000018002dd58     libucrt:lcidtoname_downlevel.obj
 0002:00006d68       ??_C@_1M@DHHMBNDP@?$AAa?$AAr?$AA?9?$AAM?$AAA@ 000000018002dd68     libucrt:lcidtoname_downlevel.obj
 0002:00006d78       ??_C@_1M@BNBLJCGH@?$AAe?$AAn?$AA?9?$AAI?$AAE@ 000000018002dd78     libucrt:lcidtoname_downlevel.obj
 0002:00006d88       ??_C@_1M@GEPAFMDL@?$AAe?$AAs?$AA?9?$AAP?$AAA@ 000000018002dd88     libucrt:lcidtoname_downlevel.obj
 0002:00006d98       ??_C@_1M@OJONDMDL@?$AAf?$AAr?$AA?9?$AAM?$AAC@ 000000018002dd98     libucrt:lcidtoname_downlevel.obj
 0002:00006da8       ??_C@_1BG@OBCNFJB@?$AAs?$AAr?$AA?9?$AAB?$AAA?$AA?9?$AAL?$AAa?$AAt?$AAn@ 000000018002dda8     libucrt:lcidtoname_downlevel.obj
 0002:00006dc0       ??_C@_1O@KEMEEGPO@?$AAs?$AAm?$AAa?$AA?9?$AAN?$AAO@ 000000018002ddc0     libucrt:lcidtoname_downlevel.obj
 0002:00006dd0       ??_C@_1M@ELMGFODK@?$AAa?$AAr?$AA?9?$AAT?$AAN@ 000000018002ddd0     libucrt:lcidtoname_downlevel.obj
 0002:00006de0       ??_C@_1M@BHDLHFAF@?$AAe?$AAn?$AA?9?$AAZ?$AAA@ 000000018002dde0     libucrt:lcidtoname_downlevel.obj
 0002:00006df0       ??_C@_1M@BMGIGLIF@?$AAe?$AAs?$AA?9?$AAD?$AAO@ 000000018002ddf0     libucrt:lcidtoname_downlevel.obj
 0002:00006e00       ??_C@_1BG@CMBHIPBE@?$AAs?$AAr?$AA?9?$AAB?$AAA?$AA?9?$AAC?$AAy?$AAr?$AAl@ 000000018002de00     libucrt:lcidtoname_downlevel.obj
 0002:00006e18       ??_C@_1O@HEDBLHNP@?$AAs?$AAm?$AAa?$AA?9?$AAS?$AAE@ 000000018002de18     libucrt:lcidtoname_downlevel.obj
 0002:00006e28       ??_C@_1M@DAGCADIM@?$AAa?$AAr?$AA?9?$AAO?$AAM@ 000000018002de28     libucrt:lcidtoname_downlevel.obj
 0002:00006e38       ??_C@_1M@FODLMICG@?$AAe?$AAn?$AA?9?$AAJ?$AAM@ 000000018002de38     libucrt:lcidtoname_downlevel.obj
 0002:00006e48       ??_C@_1M@DNMLCIHB@?$AAe?$AAs?$AA?9?$AAV?$AAE@ 000000018002de48     libucrt:lcidtoname_downlevel.obj
 0002:00006e58       ??_C@_1O@EOKHMKJK@?$AAs?$AAm?$AAs?$AA?9?$AAF?$AAI@ 000000018002de58     libucrt:lcidtoname_downlevel.obj
 0002:00006e68       ??_C@_1M@CAFJMKOF@?$AAa?$AAr?$AA?9?$AAY?$AAE@ 000000018002de68     libucrt:lcidtoname_downlevel.obj
 0002:00006e78       ??_C@_1M@CBFHIJLI@?$AAe?$AAn?$AA?9?$AAC?$AAB@ 000000018002de78     libucrt:lcidtoname_downlevel.obj
 0002:00006e88       ??_C@_1M@BGNFLDN@?$AAe?$AAs?$AA?9?$AAC?$AAO@ 000000018002de88     libucrt:lcidtoname_downlevel.obj
 0002:00006e98       ??_C@_1O@JMPHMAMC@?$AAs?$AAm?$AAn?$AA?9?$AAF?$AAI@ 000000018002de98     libucrt:lcidtoname_downlevel.obj
 0002:00006ea8       ??_C@_1M@JLANABKE@?$AAa?$AAr?$AA?9?$AAS?$AAY@ 000000018002dea8     libucrt:lcidtoname_downlevel.obj
 0002:00006eb8       ??_C@_1M@HPKGCFGN@?$AAe?$AAn?$AA?9?$AAB?$AAZ@ 000000018002deb8     libucrt:lcidtoname_downlevel.obj
 0002:00006ec8       ??_C@_1M@OLJCMLGM@?$AAe?$AAs?$AA?9?$AAP?$AAE@ 000000018002dec8     libucrt:lcidtoname_downlevel.obj
 0002:00006ed8       ??_C@_1M@MKKGFKLE@?$AAa?$AAr?$AA?9?$AAJ?$AAO@ 000000018002ded8     libucrt:lcidtoname_downlevel.obj
 0002:00006ee8       ??_C@_1M@EKPGLDNI@?$AAe?$AAn?$AA?9?$AAT?$AAT@ 000000018002dee8     libucrt:lcidtoname_downlevel.obj
 0002:00006ef8       ??_C@_1M@OONGHFHE@?$AAe?$AAs?$AA?9?$AAA?$AAR@ 000000018002def8     libucrt:lcidtoname_downlevel.obj
 0002:00006f08       ??_C@_1M@OOJFGBHE@?$AAa?$AAr?$AA?9?$AAL?$AAB@ 000000018002df08     libucrt:lcidtoname_downlevel.obj
 0002:00006f18       ??_C@_1M@GCEJHNEG@?$AAe?$AAn?$AA?9?$AAZ?$AAW@ 000000018002df18     libucrt:lcidtoname_downlevel.obj
 0002:00006f28       ??_C@_1M@JNOCAHJI@?$AAe?$AAs?$AA?9?$AAE?$AAC@ 000000018002df28     libucrt:lcidtoname_downlevel.obj
 0002:00006f38       ??_C@_1M@JEFHPGGB@?$AAa?$AAr?$AA?9?$AAK?$AAW@ 000000018002df38     libucrt:lcidtoname_downlevel.obj
 0002:00006f48       ??_C@_1M@MLKIBJOJ@?$AAe?$AAn?$AA?9?$AAP?$AAH@ 000000018002df48     libucrt:lcidtoname_downlevel.obj
 0002:00006f58       ??_C@_1M@BDNIPEND@?$AAe?$AAs?$AA?9?$AAC?$AAL@ 000000018002df58     libucrt:lcidtoname_downlevel.obj
 0002:00006f68       ??_C@_1M@MPNMEKBD@?$AAa?$AAr?$AA?9?$AAA?$AAE@ 000000018002df68     libucrt:lcidtoname_downlevel.obj
 0002:00006f78       ??_C@_1M@KBJALCPI@?$AAe?$AAs?$AA?9?$AAU?$AAY@ 000000018002df78     libucrt:lcidtoname_downlevel.obj
 0002:00006f88       ??_C@_1M@LLCCOAGA@?$AAa?$AAr?$AA?9?$AAB?$AAH@ 000000018002df88     libucrt:lcidtoname_downlevel.obj
 0002:00006f98       ??_C@_1M@PBFNCDEL@?$AAe?$AAs?$AA?9?$AAP?$AAY@ 000000018002df98     libucrt:lcidtoname_downlevel.obj
 0002:00006fa8       ??_C@_1M@EDGINPNP@?$AAa?$AAr?$AA?9?$AAQ?$AAA@ 000000018002dfa8     libucrt:lcidtoname_downlevel.obj
 0002:00006fb8       ??_C@_1M@MKDBIIJI@?$AAe?$AAs?$AA?9?$AAB?$AAO@ 000000018002dfb8     libucrt:lcidtoname_downlevel.obj
 0002:00006fc8       ??_C@_1M@CPKKEBLD@?$AAe?$AAs?$AA?9?$AAS?$AAV@ 000000018002dfc8     libucrt:lcidtoname_downlevel.obj
 0002:00006fd8       ??_C@_1M@NDBGMMJL@?$AAe?$AAs?$AA?9?$AAH?$AAN@ 000000018002dfd8     libucrt:lcidtoname_downlevel.obj
 0002:00006fe8       ??_C@_1M@JIJIBHDP@?$AAe?$AAs?$AA?9?$AAN?$AAI@ 000000018002dfe8     libucrt:lcidtoname_downlevel.obj
 0002:00006ff8       ??_C@_1M@CGFMKEEK@?$AAe?$AAs?$AA?9?$AAP?$AAR@ 000000018002dff8     libucrt:lcidtoname_downlevel.obj
 0002:00007008       ??_C@_1O@ICJHKIIK@?$AAz?$AAh?$AA?9?$AAC?$AAH?$AAT@ 000000018002e008     libucrt:lcidtoname_downlevel.obj
 0002:00007018       ??_C@_15CLNEJCE@?$AAs?$AAr@ 000000018002e018     libucrt:lcidtoname_downlevel.obj
 0002:00007e60       ??_C@_1M@KAHEKEIG@?$AAa?$AAf?$AA?9?$AAz?$AAa@ 000000018002ee60     libucrt:lcidtoname_downlevel.obj
 0002:00007e70       ??_C@_1M@GIECOABL@?$AAa?$AAr?$AA?9?$AAa?$AAe@ 000000018002ee70     libucrt:lcidtoname_downlevel.obj
 0002:00007e80       ??_C@_1M@BMLMEKGI@?$AAa?$AAr?$AA?9?$AAb?$AAh@ 000000018002ee80     libucrt:lcidtoname_downlevel.obj
 0002:00007e90       ??_C@_1M@DAPFDGGB@?$AAa?$AAr?$AA?9?$AAd?$AAz@ 000000018002ee90     libucrt:lcidtoname_downlevel.obj
 0002:00007ea0       ??_C@_1M@FJNKGKIG@?$AAa?$AAr?$AA?9?$AAe?$AAg@ 000000018002eea0     libucrt:lcidtoname_downlevel.obj
 0002:00007eb0       ??_C@_1M@FLGKKCLO@?$AAa?$AAr?$AA?9?$AAi?$AAq@ 000000018002eeb0     libucrt:lcidtoname_downlevel.obj
 0002:00007ec0       ??_C@_1M@GNDIPALM@?$AAa?$AAr?$AA?9?$AAj?$AAo@ 000000018002eec0     libucrt:lcidtoname_downlevel.obj
 0002:00007ed0       ??_C@_1M@DDMJFMGJ@?$AAa?$AAr?$AA?9?$AAk?$AAw@ 000000018002eed0     libucrt:lcidtoname_downlevel.obj
 0002:00007ee0       ??_C@_1M@EJALMLHM@?$AAa?$AAr?$AA?9?$AAl?$AAb@ 000000018002eee0     libucrt:lcidtoname_downlevel.obj
 0002:00007ef0       ??_C@_1M@MOBDBLOC@?$AAa?$AAr?$AA?9?$AAl?$AAy@ 000000018002eef0     libucrt:lcidtoname_downlevel.obj
 0002:00007f00       ??_C@_1M@JAOCLHDH@?$AAa?$AAr?$AA?9?$AAm?$AAa@ 000000018002ef00     libucrt:lcidtoname_downlevel.obj
 0002:00007f10       ??_C@_1M@JHPMKJIE@?$AAa?$AAr?$AA?9?$AAo?$AAm@ 000000018002ef10     libucrt:lcidtoname_downlevel.obj
 0002:00007f20       ??_C@_1M@OEPGHFNH@?$AAa?$AAr?$AA?9?$AAq?$AAa@ 000000018002ef20     libucrt:lcidtoname_downlevel.obj
 0002:00007f30       ??_C@_1M@KJDONENM@?$AAa?$AAr?$AA?9?$AAs?$AAa@ 000000018002ef30     libucrt:lcidtoname_downlevel.obj
 0002:00007f40       ??_C@_1M@DMJDKLKM@?$AAa?$AAr?$AA?9?$AAs?$AAy@ 000000018002ef40     libucrt:lcidtoname_downlevel.obj
 0002:00007f50       ??_C@_1M@OMFIPEDC@?$AAa?$AAr?$AA?9?$AAt?$AAn@ 000000018002ef50     libucrt:lcidtoname_downlevel.obj
 0002:00007f60       ??_C@_1M@IHMHGAON@?$AAa?$AAr?$AA?9?$AAy?$AAe@ 000000018002ef60     libucrt:lcidtoname_downlevel.obj
 0002:00007f70       ??_C@_1BG@KDCPGJGB@?$AAa?$AAz?$AA?9?$AAa?$AAz?$AA?9?$AAc?$AAy?$AAr?$AAl@ 000000018002ef70     libucrt:lcidtoname_downlevel.obj
 0002:00007f88       ??_C@_1BG@IBCKDDOE@?$AAa?$AAz?$AA?9?$AAa?$AAz?$AA?9?$AAl?$AAa?$AAt?$AAn@ 000000018002ef88     libucrt:lcidtoname_downlevel.obj
 0002:00007fa0       ??_C@_1M@EGPFDCPD@?$AAb?$AAe?$AA?9?$AAb?$AAy@ 000000018002efa0     libucrt:lcidtoname_downlevel.obj
 0002:00007fb0       ??_C@_1M@PCMGMCGC@?$AAb?$AAg?$AA?9?$AAb?$AAg@ 000000018002efb0     libucrt:lcidtoname_downlevel.obj
 0002:00007fc0       ??_C@_1M@BJBMFGOB@?$AAb?$AAn?$AA?9?$AAi?$AAn@ 000000018002efc0     libucrt:lcidtoname_downlevel.obj
 0002:00007fd0       ??_C@_1BG@EAKMMACD@?$AAb?$AAs?$AA?9?$AAb?$AAa?$AA?9?$AAl?$AAa?$AAt?$AAn@ 000000018002efd0     libucrt:lcidtoname_downlevel.obj
 0002:00007fe8       ??_C@_1M@KGADAODK@?$AAc?$AAa?$AA?9?$AAe?$AAs@ 000000018002efe8     libucrt:lcidtoname_downlevel.obj
 0002:00007ff8       ??_C@_1M@COAJPDHI@?$AAc?$AAs?$AA?9?$AAc?$AAz@ 000000018002eff8     libucrt:lcidtoname_downlevel.obj
 0002:00008008       ??_C@_1M@DHBHFONH@?$AAc?$AAy?$AA?9?$AAg?$AAb@ 000000018002f008     libucrt:lcidtoname_downlevel.obj
 0002:00008018       ??_C@_1M@IMGKELGA@?$AAd?$AAa?$AA?9?$AAd?$AAk@ 000000018002f018     libucrt:lcidtoname_downlevel.obj
 0002:00008028       ??_C@_1M@NNDGDNGA@?$AAd?$AAe?$AA?9?$AAa?$AAt@ 000000018002f028     libucrt:lcidtoname_downlevel.obj
 0002:00008038       ??_C@_1M@IKDBHEEM@?$AAd?$AAe?$AA?9?$AAc?$AAh@ 000000018002f038     libucrt:lcidtoname_downlevel.obj
 0002:00008048       ??_C@_1M@GFFOJMCJ@?$AAd?$AAe?$AA?9?$AAd?$AAe@ 000000018002f048     libucrt:lcidtoname_downlevel.obj
 0002:00008058       ??_C@_1M@MDNLKBPM@?$AAd?$AAe?$AA?9?$AAl?$AAi@ 000000018002f058     libucrt:lcidtoname_downlevel.obj
 0002:00008068       ??_C@_1M@NJBEEJNL@?$AAd?$AAe?$AA?9?$AAl?$AAu@ 000000018002f068     libucrt:lcidtoname_downlevel.obj
 0002:00008078       ??_C@_1O@GNNELBAP@?$AAd?$AAi?$AAv?$AA?9?$AAm?$AAv@ 000000018002f078     libucrt:lcidtoname_downlevel.obj
 0002:00008088       ??_C@_1M@EJLEOGAE@?$AAe?$AAl?$AA?9?$AAg?$AAr@ 000000018002f088     libucrt:lcidtoname_downlevel.obj
 0002:00008098       ??_C@_1M@GMPONJN@?$AAe?$AAn?$AA?9?$AAa?$AAu@ 000000018002f098     libucrt:lcidtoname_downlevel.obj
 0002:000080a8       ??_C@_1M@NIDIIPGF@?$AAe?$AAn?$AA?9?$AAb?$AAz@ 000000018002f0a8     libucrt:lcidtoname_downlevel.obj
 0002:000080b8       ??_C@_1M@JEHMIMFO@?$AAe?$AAn?$AA?9?$AAc?$AAa@ 000000018002f0b8     libucrt:lcidtoname_downlevel.obj
 0002:000080c8       ??_C@_1M@IGMJCDLA@?$AAe?$AAn?$AA?9?$AAc?$AAb@ 000000018002f0c8     libucrt:lcidtoname_downlevel.obj
 0002:000080d8       ??_C@_1M@BNFIGBKG@?$AAe?$AAn?$AA?9?$AAg?$AAb@ 000000018002f0d8     libucrt:lcidtoname_downlevel.obj
 0002:000080e8       ??_C@_1M@LKIFDIGP@?$AAe?$AAn?$AA?9?$AAi?$AAe@ 000000018002f0e8     libucrt:lcidtoname_downlevel.obj
 0002:000080f8       ??_C@_1M@PJKFGCCO@?$AAe?$AAn?$AA?9?$AAj?$AAm@ 000000018002f0f8     libucrt:lcidtoname_downlevel.obj
 0002:00008108       ??_C@_1M@KPPKEPBO@?$AAe?$AAn?$AA?9?$AAn?$AAz@ 000000018002f108     libucrt:lcidtoname_downlevel.obj
 0002:00008118       ??_C@_1M@GMDGLDOB@?$AAe?$AAn?$AA?9?$AAp?$AAh@ 000000018002f118     libucrt:lcidtoname_downlevel.obj
 0002:00008128       ??_C@_1M@ONGIBJNA@?$AAe?$AAn?$AA?9?$AAt?$AAt@ 000000018002f128     libucrt:lcidtoname_downlevel.obj
 0002:00008138       ??_C@_1M@LLODPCMM@?$AAe?$AAn?$AA?9?$AAu?$AAs@ 000000018002f138     libucrt:lcidtoname_downlevel.obj
 0002:00008148       ??_C@_1M@LAKFNPAN@?$AAe?$AAn?$AA?9?$AAz?$AAa@ 000000018002f148     libucrt:lcidtoname_downlevel.obj
 0002:00008158       ??_C@_1M@MFNHNHEO@?$AAe?$AAn?$AA?9?$AAz?$AAw@ 000000018002f158     libucrt:lcidtoname_downlevel.obj
 0002:00008168       ??_C@_1M@EJEINPHM@?$AAe?$AAs?$AA?9?$AAa?$AAr@ 000000018002f168     libucrt:lcidtoname_downlevel.obj
 0002:00008178       ??_C@_1M@GNKPCCJA@?$AAe?$AAs?$AA?9?$AAb?$AAo@ 000000018002f178     libucrt:lcidtoname_downlevel.obj
 0002:00008188       ??_C@_1M@LEEGFONL@?$AAe?$AAs?$AA?9?$AAc?$AAl@ 000000018002f188     libucrt:lcidtoname_downlevel.obj
 0002:00008198       ??_C@_1M@KGPDPBDF@?$AAe?$AAs?$AA?9?$AAc?$AAo@ 000000018002f198     libucrt:lcidtoname_downlevel.obj
 0002:000081a8       ??_C@_1M@EIAHOHH@?$AAe?$AAs?$AA?9?$AAc?$AAr@ 000000018002f1a8     libucrt:lcidtoname_downlevel.obj
 0002:000081b8       ??_C@_1M@LLPGMBIN@?$AAe?$AAs?$AA?9?$AAd?$AAo@ 000000018002f1b8     libucrt:lcidtoname_downlevel.obj
 0002:000081c8       ??_C@_1M@DKHMKNJA@?$AAe?$AAs?$AA?9?$AAe?$AAc@ 000000018002f1c8     libucrt:lcidtoname_downlevel.obj
 0002:000081d8       ??_C@_1M@GKGFPKAP@?$AAe?$AAs?$AA?9?$AAe?$AAs@ 000000018002f1d8     libucrt:lcidtoname_downlevel.obj
 0002:000081e8       ??_C@_1M@LKHKGDLN@?$AAe?$AAs?$AA?9?$AAg?$AAt@ 000000018002f1e8     libucrt:lcidtoname_downlevel.obj
 0002:000081f8       ??_C@_1M@HEIIGGJD@?$AAe?$AAs?$AA?9?$AAh?$AAn@ 000000018002f1f8     libucrt:lcidtoname_downlevel.obj
 0002:00008208       ??_C@_1M@FBDHPPGD@?$AAe?$AAs?$AA?9?$AAm?$AAx@ 000000018002f208     libucrt:lcidtoname_downlevel.obj
 0002:00008218       ??_C@_1M@DPAGLNDH@?$AAe?$AAs?$AA?9?$AAn?$AAi@ 000000018002f218     libucrt:lcidtoname_downlevel.obj
 0002:00008228       ??_C@_1M@MDGOPGDD@?$AAe?$AAs?$AA?9?$AAp?$AAa@ 000000018002f228     libucrt:lcidtoname_downlevel.obj
 0002:00008238       ??_C@_1M@EMAMGBGE@?$AAe?$AAs?$AA?9?$AAp?$AAe@ 000000018002f238     libucrt:lcidtoname_downlevel.obj
 0002:00008248       ??_C@_1M@IBMCAOEC@?$AAe?$AAs?$AA?9?$AAp?$AAr@ 000000018002f248     libucrt:lcidtoname_downlevel.obj
 0002:00008258       ??_C@_1M@FGMDIJED@?$AAe?$AAs?$AA?9?$AAp?$AAy@ 000000018002f258     libucrt:lcidtoname_downlevel.obj
 0002:00008268       ??_C@_1M@IIDEOLLL@?$AAe?$AAs?$AA?9?$AAs?$AAv@ 000000018002f268     libucrt:lcidtoname_downlevel.obj
 0002:00008278       ??_C@_1M@GAOBIPA@?$AAe?$AAs?$AA?9?$AAu?$AAy@ 000000018002f278     libucrt:lcidtoname_downlevel.obj
 0002:00008288       ??_C@_1M@JKFFICHJ@?$AAe?$AAs?$AA?9?$AAv?$AAe@ 000000018002f288     libucrt:lcidtoname_downlevel.obj
 0002:00008298       ??_C@_1M@PNMLOJDF@?$AAe?$AAt?$AA?9?$AAe?$AAe@ 000000018002f298     libucrt:lcidtoname_downlevel.obj
 0002:000082a8       ??_C@_1M@GHHLIKEI@?$AAe?$AAu?$AA?9?$AAe?$AAs@ 000000018002f2a8     libucrt:lcidtoname_downlevel.obj
 0002:000082b8       ??_C@_1M@PBNONODE@?$AAf?$AAa?$AA?9?$AAi?$AAr@ 000000018002f2b8     libucrt:lcidtoname_downlevel.obj
 0002:000082c8       ??_C@_1M@JEEHPMIL@?$AAf?$AAi?$AA?9?$AAf?$AAi@ 000000018002f2c8     libucrt:lcidtoname_downlevel.obj
 0002:000082d8       ??_C@_1M@LMDCNDBA@?$AAf?$AAo?$AA?9?$AAf?$AAo@ 000000018002f2d8     libucrt:lcidtoname_downlevel.obj
 0002:000082e8       ??_C@_1M@JKEOHLDK@?$AAf?$AAr?$AA?9?$AAb?$AAe@ 000000018002f2e8     libucrt:lcidtoname_downlevel.obj
 0002:000082f8       ??_C@_1M@NOHADPMI@?$AAf?$AAr?$AA?9?$AAc?$AAa@ 000000018002f2f8     libucrt:lcidtoname_downlevel.obj
 0002:00008308       ??_C@_1M@KDHIHAEC@?$AAf?$AAr?$AA?9?$AAc?$AAh@ 000000018002f308     libucrt:lcidtoname_downlevel.obj
 0002:00008318       ??_C@_1M@MMBBFGAK@?$AAf?$AAr?$AA?9?$AAf?$AAr@ 000000018002f318     libucrt:lcidtoname_downlevel.obj
 0002:00008328       ??_C@_1M@PAFNENNF@?$AAf?$AAr?$AA?9?$AAl?$AAu@ 000000018002f328     libucrt:lcidtoname_downlevel.obj
 0002:00008338       ??_C@_1M@EOHDJGDD@?$AAf?$AAr?$AA?9?$AAm?$AAc@ 000000018002f338     libucrt:lcidtoname_downlevel.obj
 0002:00008348       ??_C@_1M@FAPLLOPF@?$AAg?$AAl?$AA?9?$AAe?$AAs@ 000000018002f348     libucrt:lcidtoname_downlevel.obj
 0002:00008358       ??_C@_1M@FOPBFLOO@?$AAg?$AAu?$AA?9?$AAi?$AAn@ 000000018002f358     libucrt:lcidtoname_downlevel.obj
 0002:00008368       ??_C@_1M@KBMCINPM@?$AAh?$AAe?$AA?9?$AAi?$AAl@ 000000018002f368     libucrt:lcidtoname_downlevel.obj
 0002:00008378       ??_C@_1M@BBPHKFPJ@?$AAh?$AAi?$AA?9?$AAi?$AAn@ 000000018002f378     libucrt:lcidtoname_downlevel.obj
 0002:00008388       ??_C@_1M@PMBNDPHD@?$AAh?$AAr?$AA?9?$AAb?$AAa@ 000000018002f388     libucrt:lcidtoname_downlevel.obj
 0002:00008398       ??_C@_1M@BPCKOEGE@?$AAh?$AAr?$AA?9?$AAh?$AAr@ 000000018002f398     libucrt:lcidtoname_downlevel.obj
 0002:000083a8       ??_C@_1M@GACBMHKE@?$AAh?$AAu?$AA?9?$AAh?$AAu@ 000000018002f3a8     libucrt:lcidtoname_downlevel.obj
 0002:000083b8       ??_C@_1M@MILPAJJC@?$AAh?$AAy?$AA?9?$AAa?$AAm@ 000000018002f3b8     libucrt:lcidtoname_downlevel.obj
 0002:000083c8       ??_C@_1M@BABBICEC@?$AAi?$AAd?$AA?9?$AAi?$AAd@ 000000018002f3c8     libucrt:lcidtoname_downlevel.obj
 0002:000083d8       ??_C@_1M@BIKNHHPF@?$AAi?$AAs?$AA?9?$AAi?$AAs@ 000000018002f3d8     libucrt:lcidtoname_downlevel.obj
 0002:000083e8       ??_C@_1M@NMPCJPHE@?$AAi?$AAt?$AA?9?$AAc?$AAh@ 000000018002f3e8     libucrt:lcidtoname_downlevel.obj
 0002:000083f8       ??_C@_1M@GHKGFEDF@?$AAi?$AAt?$AA?9?$AAi?$AAt@ 000000018002f3f8     libucrt:lcidtoname_downlevel.obj
 0002:00008408       ??_C@_1M@NIEJCJJA@?$AAj?$AAa?$AA?9?$AAj?$AAp@ 000000018002f408     libucrt:lcidtoname_downlevel.obj
 0002:00008418       ??_C@_1M@JILFNBIM@?$AAk?$AAa?$AA?9?$AAg?$AAe@ 000000018002f418     libucrt:lcidtoname_downlevel.obj
 0002:00008428       ??_C@_1M@PACPMGPH@?$AAk?$AAk?$AA?9?$AAk?$AAz@ 000000018002f428     libucrt:lcidtoname_downlevel.obj
 0002:00008438       ??_C@_1M@IELFGMHA@?$AAk?$AAn?$AA?9?$AAi?$AAn@ 000000018002f438     libucrt:lcidtoname_downlevel.obj
 0002:00008448       ??_C@_1O@IBBJHCH@?$AAk?$AAo?$AAk?$AA?9?$AAi?$AAn@ 000000018002f448     libucrt:lcidtoname_downlevel.obj
 0002:00008458       ??_C@_1M@DMHAEOGC@?$AAk?$AAo?$AA?9?$AAk?$AAr@ 000000018002f458     libucrt:lcidtoname_downlevel.obj
 0002:00008468       ??_C@_1M@HBAHBIGA@?$AAk?$AAy?$AA?9?$AAk?$AAg@ 000000018002f468     libucrt:lcidtoname_downlevel.obj
 0002:00008478       ??_C@_1M@KPMILCJG@?$AAl?$AAt?$AA?9?$AAl?$AAt@ 000000018002f478     libucrt:lcidtoname_downlevel.obj
 0002:00008488       ??_C@_1M@BDEKKCA@?$AAl?$AAv?$AA?9?$AAl?$AAv@ 000000018002f488     libucrt:lcidtoname_downlevel.obj
 0002:00008498       ??_C@_1M@ELCKCCJJ@?$AAm?$AAi?$AA?9?$AAn?$AAz@ 000000018002f498     libucrt:lcidtoname_downlevel.obj
 0002:000084a8       ??_C@_1M@CBOOLAPA@?$AAm?$AAk?$AA?9?$AAm?$AAk@ 000000018002f4a8     libucrt:lcidtoname_downlevel.obj
 0002:000084b8       ??_C@_1M@GPHNBJKN@?$AAm?$AAl?$AA?9?$AAi?$AAn@ 000000018002f4b8     libucrt:lcidtoname_downlevel.obj
 0002:000084c8       ??_C@_1M@PABJILIG@?$AAm?$AAn?$AA?9?$AAm?$AAn@ 000000018002f4c8     libucrt:lcidtoname_downlevel.obj
 0002:000084d8       ??_C@_1M@FGBKKIPG@?$AAm?$AAr?$AA?9?$AAi?$AAn@ 000000018002f4d8     libucrt:lcidtoname_downlevel.obj
 0002:000084e8       ??_C@_1M@NDBPDDAL@?$AAm?$AAs?$AA?9?$AAb?$AAn@ 000000018002f4e8     libucrt:lcidtoname_downlevel.obj
 0002:000084f8       ??_C@_1M@OPIHOOPI@?$AAm?$AAs?$AA?9?$AAm?$AAy@ 000000018002f4f8     libucrt:lcidtoname_downlevel.obj
 0002:00008508       ??_C@_1M@PPDBCNFM@?$AAm?$AAt?$AA?9?$AAm?$AAt@ 000000018002f508     libucrt:lcidtoname_downlevel.obj
 0002:00008518       ??_C@_1M@KDJDKMDD@?$AAn?$AAb?$AA?9?$AAn?$AAo@ 000000018002f518     libucrt:lcidtoname_downlevel.obj
 0002:00008528       ??_C@_1M@KFCFLMJP@?$AAn?$AAl?$AA?9?$AAb?$AAe@ 000000018002f528     libucrt:lcidtoname_downlevel.obj
 0002:00008538       ??_C@_1M@KPOPDDGO@?$AAn?$AAl?$AA?9?$AAn?$AAl@ 000000018002f538     libucrt:lcidtoname_downlevel.obj
 0002:00008548       ??_C@_1M@LJKPEMLN@?$AAn?$AAn?$AA?9?$AAn?$AAo@ 000000018002f548     libucrt:lcidtoname_downlevel.obj
 0002:00008558       ??_C@_1M@BDGHHBFL@?$AAn?$AAs?$AA?9?$AAz?$AAa@ 000000018002f558     libucrt:lcidtoname_downlevel.obj
 0002:00008568       ??_C@_1M@IDEHOAP@?$AAp?$AAa?$AA?9?$AAi?$AAn@ 000000018002f568     libucrt:lcidtoname_downlevel.obj
 0002:00008578       ??_C@_1M@HDBKGOGH@?$AAp?$AAl?$AA?9?$AAp?$AAl@ 000000018002f578     libucrt:lcidtoname_downlevel.obj
 0002:00008588       ??_C@_1M@LJLLCMEH@?$AAp?$AAt?$AA?9?$AAb?$AAr@ 000000018002f588     libucrt:lcidtoname_downlevel.obj
 0002:00008598       ??_C@_1M@NCMONAAL@?$AAp?$AAt?$AA?9?$AAp?$AAt@ 000000018002f598     libucrt:lcidtoname_downlevel.obj
 0002:000085a8       ??_C@_1O@EAKMAJDN@?$AAq?$AAu?$AAz?$AA?9?$AAb?$AAo@ 000000018002f5a8     libucrt:lcidtoname_downlevel.obj
 0002:000085b8       ??_C@_1O@BHHPIGDN@?$AAq?$AAu?$AAz?$AA?9?$AAe?$AAc@ 000000018002f5b8     libucrt:lcidtoname_downlevel.obj
 0002:000085c8       ??_C@_1O@GBAPEKMJ@?$AAq?$AAu?$AAz?$AA?9?$AAp?$AAe@ 000000018002f5c8     libucrt:lcidtoname_downlevel.obj
 0002:000085d8       ??_C@_1M@CLGLEFBO@?$AAr?$AAo?$AA?9?$AAr?$AAo@ 000000018002f5d8     libucrt:lcidtoname_downlevel.obj
 0002:000085e8       ??_C@_1M@CEEDODME@?$AAr?$AAu?$AA?9?$AAr?$AAu@ 000000018002f5e8     libucrt:lcidtoname_downlevel.obj
 0002:000085f8       ??_C@_1M@HPKKKMPP@?$AAs?$AAa?$AA?9?$AAi?$AAn@ 000000018002f5f8     libucrt:lcidtoname_downlevel.obj
 0002:00008608       ??_C@_1M@BKMAIGOJ@?$AAs?$AAe?$AA?9?$AAf?$AAi@ 000000018002f608     libucrt:lcidtoname_downlevel.obj
 0002:00008618       ??_C@_1M@NDPIFLFI@?$AAs?$AAe?$AA?9?$AAn?$AAo@ 000000018002f618     libucrt:lcidtoname_downlevel.obj
 0002:00008628       ??_C@_1M@DANKKHJ@?$AAs?$AAe?$AA?9?$AAs?$AAe@ 000000018002f628     libucrt:lcidtoname_downlevel.obj
 0002:00008638       ??_C@_1M@PNBLONPJ@?$AAs?$AAk?$AA?9?$AAs?$AAk@ 000000018002f638     libucrt:lcidtoname_downlevel.obj
 0002:00008648       ??_C@_1M@LFMODOAL@?$AAs?$AAl?$AA?9?$AAs?$AAi@ 000000018002f648     libucrt:lcidtoname_downlevel.obj
 0002:00008658       ??_C@_1O@DFKOMPG@?$AAs?$AAm?$AAa?$AA?9?$AAn?$AAo@ 000000018002f658     libucrt:lcidtoname_downlevel.obj
 0002:00008668       ??_C@_1O@NDKPBNNH@?$AAs?$AAm?$AAa?$AA?9?$AAs?$AAe@ 000000018002f668     libucrt:lcidtoname_downlevel.obj
 0002:00008678       ??_C@_1O@PLLKBHAB@?$AAs?$AAm?$AAj?$AA?9?$AAn?$AAo@ 000000018002f678     libucrt:lcidtoname_downlevel.obj
 0002:00008688       ??_C@_1O@CLEPOGCA@?$AAs?$AAm?$AAj?$AA?9?$AAs?$AAe@ 000000018002f688     libucrt:lcidtoname_downlevel.obj
 0002:00008698       ??_C@_1O@DLGJGKMK@?$AAs?$AAm?$AAn?$AA?9?$AAf?$AAi@ 000000018002f698     libucrt:lcidtoname_downlevel.obj
 0002:000086a8       ??_C@_1O@OJDJGAJC@?$AAs?$AAm?$AAs?$AA?9?$AAf?$AAi@ 000000018002f6a8     libucrt:lcidtoname_downlevel.obj
 0002:000086b8       ??_C@_1M@BOFOGHPB@?$AAs?$AAq?$AA?9?$AAa?$AAl@ 000000018002f6b8     libucrt:lcidtoname_downlevel.obj
 0002:000086c8       ??_C@_1BG@LJBBIPGB@?$AAs?$AAr?$AA?9?$AAb?$AAa?$AA?9?$AAc?$AAy?$AAr?$AAl@ 000000018002f6c8     libucrt:lcidtoname_downlevel.obj
 0002:000086e0       ??_C@_1BG@JLBENFOE@?$AAs?$AAr?$AA?9?$AAb?$AAa?$AA?9?$AAl?$AAa?$AAt?$AAn@ 000000018002f6e0     libucrt:lcidtoname_downlevel.obj
 0002:000086f8       ??_C@_1BG@KODPNHE@?$AAs?$AAr?$AA?9?$AAs?$AAp?$AA?9?$AAc?$AAy?$AAr?$AAl@ 000000018002f6f8     libucrt:lcidtoname_downlevel.obj
 0002:00008710       ??_C@_1BG@CIOGKHPB@?$AAs?$AAr?$AA?9?$AAs?$AAp?$AA?9?$AAl?$AAa?$AAt?$AAn@ 000000018002f710     libucrt:lcidtoname_downlevel.obj
 0002:00008728       ??_C@_1M@NGFJLMAC@?$AAs?$AAv?$AA?9?$AAf?$AAi@ 000000018002f728     libucrt:lcidtoname_downlevel.obj
 0002:00008738       ??_C@_1M@MPJEJAJC@?$AAs?$AAv?$AA?9?$AAs?$AAe@ 000000018002f738     libucrt:lcidtoname_downlevel.obj
 0002:00008748       ??_C@_1M@MPNDHLFK@?$AAs?$AAw?$AA?9?$AAk?$AAe@ 000000018002f748     libucrt:lcidtoname_downlevel.obj
 0002:00008758       ??_C@_1O@KOHBJJI@?$AAs?$AAy?$AAr?$AA?9?$AAs?$AAy@ 000000018002f758     libucrt:lcidtoname_downlevel.obj
 0002:00008768       ??_C@_1M@LDCEFHA@?$AAt?$AAa?$AA?9?$AAi?$AAn@ 000000018002f768     libucrt:lcidtoname_downlevel.obj
 0002:00008778       ??_C@_1M@CNJOFAK@?$AAt?$AAe?$AA?9?$AAi?$AAn@ 000000018002f778     libucrt:lcidtoname_downlevel.obj
 0002:00008788       ??_C@_1M@GNAECACD@?$AAt?$AAh?$AA?9?$AAt?$AAh@ 000000018002f788     libucrt:lcidtoname_downlevel.obj
 0002:00008798       ??_C@_1M@CHBIHOJO@?$AAt?$AAn?$AA?9?$AAz?$AAa@ 000000018002f798     libucrt:lcidtoname_downlevel.obj
 0002:000087a8       ??_C@_1M@GCCMIGPJ@?$AAt?$AAr?$AA?9?$AAt?$AAr@ 000000018002f7a8     libucrt:lcidtoname_downlevel.obj
 0002:000087b8       ??_C@_1M@CELMCNBK@?$AAt?$AAt?$AA?9?$AAr?$AAu@ 000000018002f7b8     libucrt:lcidtoname_downlevel.obj
 0002:000087c8       ??_C@_1M@KLMCELGA@?$AAu?$AAk?$AA?9?$AAu?$AAa@ 000000018002f7c8     libucrt:lcidtoname_downlevel.obj
 0002:000087d8       ??_C@_1M@EPAJJAJF@?$AAu?$AAr?$AA?9?$AAp?$AAk@ 000000018002f7d8     libucrt:lcidtoname_downlevel.obj
 0002:000087e8       ??_C@_1BG@GEGPMCDJ@?$AAu?$AAz?$AA?9?$AAu?$AAz?$AA?9?$AAc?$AAy?$AAr?$AAl@ 000000018002f7e8     libucrt:lcidtoname_downlevel.obj
 0002:00008800       ??_C@_1BG@EGGKJILM@?$AAu?$AAz?$AA?9?$AAu?$AAz?$AA?9?$AAl?$AAa?$AAt?$AAn@ 000000018002f800     libucrt:lcidtoname_downlevel.obj
 0002:00008818       ??_C@_1M@GFOCLFF@?$AAv?$AAi?$AA?9?$AAv?$AAn@ 000000018002f818     libucrt:lcidtoname_downlevel.obj
 0002:00008828       ??_C@_1M@CPAMEDFI@?$AAx?$AAh?$AA?9?$AAz?$AAa@ 000000018002f828     libucrt:lcidtoname_downlevel.obj
 0002:00008838       ??_C@_1O@EBKIFIGN@?$AAz?$AAh?$AA?9?$AAc?$AAh?$AAs@ 000000018002f838     libucrt:lcidtoname_downlevel.obj
 0002:00008848       ??_C@_1O@NMHPGANE@?$AAz?$AAh?$AA?9?$AAc?$AAh?$AAt@ 000000018002f848     libucrt:lcidtoname_downlevel.obj
 0002:00008858       ??_C@_1M@LPINJOMC@?$AAz?$AAh?$AA?9?$AAc?$AAn@ 000000018002f858     libucrt:lcidtoname_downlevel.obj
 0002:00008868       ??_C@_1M@OCJEJODD@?$AAz?$AAh?$AA?9?$AAh?$AAk@ 000000018002f868     libucrt:lcidtoname_downlevel.obj
 0002:00008878       ??_C@_1M@DNDLJINH@?$AAz?$AAh?$AA?9?$AAm?$AAo@ 000000018002f878     libucrt:lcidtoname_downlevel.obj
 0002:00008888       ??_C@_1M@MBFDNDND@?$AAz?$AAh?$AA?9?$AAs?$AAg@ 000000018002f888     libucrt:lcidtoname_downlevel.obj
 0002:00008898       ??_C@_1M@IMEPLEPE@?$AAz?$AAh?$AA?9?$AAt?$AAw@ 000000018002f898     libucrt:lcidtoname_downlevel.obj
 0002:000088a8       ??_C@_1M@BBGHNHJP@?$AAz?$AAu?$AA?9?$AAz?$AAa@ 000000018002f8a8     libucrt:lcidtoname_downlevel.obj
 0002:000088c0       ?large_power_data@?1??multiply_by_power_of_ten@__crt_strtox@@YA_NAEAUbig_integer@2@I@Z@4QBIB 000000018002f8c0     libucrt:cfout.obj
 0002:000091d0       ?large_power_indices@?1??multiply_by_power_of_ten@__crt_strtox@@YA_NAEAUbig_integer@2@I@Z@4QBUunpack_index@?1??12@YA_N0I@Z@B 00000001800301d0     libucrt:cfout.obj
 0002:00009268       ?small_powers_of_ten@?1??multiply_by_power_of_ten@__crt_strtox@@YA_NAEAUbig_integer@2@I@Z@4QBIB 0000000180030268     libucrt:cfout.obj
 0002:0000928c       ??_C@_01GBGANLPD@0@        000000018003028c     libucrt:cfout.obj
 0002:00009290       ??_C@_05DNEBIAHO@1?$CDINF@ 0000000180030290     libucrt:cfout.obj
 0002:00009298       ??_C@_06IMKFLFPG@1?$CDQNAN@ 0000000180030298     libucrt:cfout.obj
 0002:000092a0       ??_C@_06PGGFOGJG@1?$CDSNAN@ 00000001800302a0     libucrt:cfout.obj
 0002:000092a8       ??_C@_05PHHOCPM@1?$CDIND@  00000001800302a8     libucrt:cfout.obj
 0002:000092d8       __real@3ff0000000000000    00000001800302d8     libucrt:ceil.obj
 0002:00009530       __log10_256_lead           0000000180030530     libucrt:log10_256_lead_tail_table.obj
 0002:00009d40       __log10_256_tail           0000000180030d40     libucrt:log10_256_lead_tail_table.obj
 0002:0000a550       __log_F_inv_qword          0000000180031550     libucrt:log_f_inv_qword_table.obj
 0002:0000ad60       ??_C@_05HGHHAHAP@log10@    0000000180031d60     libucrt:log_special.obj
 0002:0000ad68       ??_C@_1BA@BALFACEM@?$AAC?$AAO?$AAN?$AAO?$AAU?$AAT?$AA$@ 0000000180031d68     libucrt:initcon.obj
 0002:0000adf0       _load_config_used          0000000180031df0     LIBCMT:loadcfg.obj
 0002:0000af80       _tls_used                  0000000180031f80     LIBCMT:tlssup.obj
 0002:0000afa8       ??_R4exception@std@@6B@    0000000180031fa8     LIBCMT:throw_bad_alloc.obj
 0002:0000afd0       ??_R3exception@std@@8      0000000180031fd0     LIBCMT:throw_bad_alloc.obj
 0002:0000afe8       ??_R2exception@std@@8      0000000180031fe8     LIBCMT:throw_bad_alloc.obj
 0002:0000aff8       ??_R1A@?0A@EA@exception@std@@8 0000000180031ff8     LIBCMT:throw_bad_alloc.obj
 0002:0000b020       ??_R4bad_alloc@std@@6B@    0000000180032020     LIBCMT:throw_bad_alloc.obj
 0002:0000b048       ??_R3bad_alloc@std@@8      0000000180032048     LIBCMT:throw_bad_alloc.obj
 0002:0000b060       ??_R2bad_alloc@std@@8      0000000180032060     LIBCMT:throw_bad_alloc.obj
 0002:0000b078       ??_R1A@?0A@EA@bad_alloc@std@@8 0000000180032078     LIBCMT:throw_bad_alloc.obj
 0002:0000b0a0       ??_R4bad_array_new_length@std@@6B@ 00000001800320a0     LIBCMT:throw_bad_alloc.obj
 0002:0000b0c8       ??_R3bad_array_new_length@std@@8 00000001800320c8     LIBCMT:throw_bad_alloc.obj
 0002:0000b0e0       ??_R2bad_array_new_length@std@@8 00000001800320e0     LIBCMT:throw_bad_alloc.obj
 0002:0000b100       ??_R1A@?0A@EA@bad_array_new_length@std@@8 0000000180032100     LIBCMT:throw_bad_alloc.obj
 0002:0000b128       ??_R4type_info@@6B@        0000000180032128     LIBCMT:std_type_info_static.obj
 0002:0000b150       ??_R3type_info@@8          0000000180032150     LIBCMT:std_type_info_static.obj
 0002:0000b168       ??_R2type_info@@8          0000000180032168     LIBCMT:std_type_info_static.obj
 0002:0000b178       ??_R1A@?0A@EA@type_info@@8 0000000180032178     LIBCMT:std_type_info_static.obj
 0002:0000b1a0       ??_R4bad_exception@std@@6B@ 00000001800321a0     libvcruntime:frame.obj
 0002:0000b1c8       ??_R3bad_exception@std@@8  00000001800321c8     libvcruntime:frame.obj
 0002:0000b1e0       ??_R2bad_exception@std@@8  00000001800321e0     libvcruntime:frame.obj
 0002:0000b1f8       ??_R1A@?0A@EA@bad_exception@std@@8 00000001800321f8     libvcruntime:frame.obj
 0002:0000b21c       __volatile_metadata        000000018003221c     <linker-defined>
 0002:0000b6a0       __rtc_iaa                  00000001800326a0     LIBCMT:initsect.obj
 0002:0000b6a8       __rtc_izz                  00000001800326a8     LIBCMT:initsect.obj
 0002:0000b6b0       __rtc_taa                  00000001800326b0     LIBCMT:initsect.obj
 0002:0000b6b8       __rtc_tzz                  00000001800326b8     LIBCMT:initsect.obj
 0002:0000b6c0       _tls_start                 00000001800326c0     LIBCMT:tlssup.obj
 0002:0000b6c4       _Init_thread_epoch         00000001800326c4     LIBCMT:thread_safe_statics.obj
 0002:0000b6c8       _tls_end                   00000001800326c8     LIBCMT:tlssup.obj
 0002:0000d0b8       _TI2?AVbad_alloc@std@@     00000001800340b8     LIBCMT:throw_bad_alloc.obj
 0002:0000d0d8       _CTA2?AVbad_alloc@std@@    00000001800340d8     LIBCMT:throw_bad_alloc.obj
 0002:0000d0f0       _CT??_R0?AVbad_alloc@std@@@8??0bad_alloc@std@@QEAA@AEBV01@@Z24 00000001800340f0     LIBCMT:throw_bad_alloc.obj
 0002:0000d118       _CT??_R0?AVexception@std@@@8??0exception@std@@QEAA@AEBV01@@Z24 0000000180034118     LIBCMT:throw_bad_alloc.obj
 0002:0000d140       _TI3?AVbad_array_new_length@std@@ 0000000180034140     LIBCMT:throw_bad_alloc.obj
 0002:0000d160       _CTA3?AVbad_array_new_length@std@@ 0000000180034160     LIBCMT:throw_bad_alloc.obj
 0002:0000d180       _CT??_R0?AVbad_array_new_length@std@@@8??0bad_array_new_length@std@@QEAA@AEBV01@@Z24 0000000180034180     LIBCMT:throw_bad_alloc.obj
 0002:0000d1a8       _TI2?AVbad_exception@std@@ 00000001800341a8     libvcruntime:frame.obj
 0002:0000d1c8       _CTA2?AVbad_exception@std@@ 00000001800341c8     libvcruntime:frame.obj
 0002:0000d1e0       _CT??_R0?AVbad_exception@std@@@8??0bad_exception@std@@QEAA@AEBV01@@Z24 00000001800341e0     libvcruntime:frame.obj
 0002:0000d208       __pobjMapEntryFirst        0000000180034208     OposVariant.obj
 0002:0000d210       __pobjMapEntryLast         0000000180034210     OposVariant.obj
 0002:0000d2d4       __IMPORT_DESCRIPTOR_KERNEL32 00000001800342d4     kernel32:KERNEL32.dll
 0002:0000d2e8       __IMPORT_DESCRIPTOR_USER32 00000001800342e8     user32:USER32.dll
 0002:0000d2fc       __IMPORT_DESCRIPTOR_GDI32  00000001800342fc     gdi32:GDI32.dll
 0002:0000d310       __IMPORT_DESCRIPTOR_ADVAPI32 0000000180034310     advapi32:ADVAPI32.dll
 0002:0000d324       __IMPORT_DESCRIPTOR_ole32  0000000180034324     ole32:ole32.dll
 0002:0000d338       __IMPORT_DESCRIPTOR_OLEAUT32 0000000180034338     oleaut32:OLEAUT32.dll
 0002:0000d34c       __NULL_IMPORT_DESCRIPTOR   000000018003434c     kernel32:KERNEL32.dll
 0003:00000000       ?rcDefault@CWindow@ATL@@2UtagRECT@@A 0000000180036000     RemoteOrderDisplay.obj
 0003:00000010       ?s_Claim@?7??GetIDsOfNames@CComTypeInfoHolder@ATL@@QEAAJAEBU_GUID@@PEAPEA_WIKPEAJ@Z@4PA_WA 0000000180036010     RemoteOrderDisplay.obj
 0003:00000028       ?s_Release@?7??GetIDsOfNames@CComTypeInfoHolder@ATL@@QEAAJAEBU_GUID@@PEAPEA_WIKPEAJ@Z@4PA_WA 0000000180036028     RemoteOrderDisplay.obj
 0003:00000048       ?_tih@?$IDispatchImpl@UIOPOSRemoteOrderDisplay@@$1?IID_IOPOSRemoteOrderDisplay@@3U_GUID@@B$1?LIBID_OposRemoteOrderDisplay_CCO@@3U3@B$00$0A@VCComTypeInfoHolder@ATL@@@ATL@@1VCComTypeInfoHolder@2@A 0000000180036048     RemoteOrderDisplay.obj
 0003:00000080       ?_tih@?$IProvideClassInfo2Impl@$1?CLSID_OPOSRemoteOrderDisplay@@3U_GUID@@B$1?DIID__IOPOSRemoteOrderDisplayEvents@@3U2@B$1?LIBID_OposRemoteOrderDisplay_CCO@@3U2@B$00$0A@VCComTypeInfoHolder@ATL@@@ATL@@1VCComTypeInfoHolder@2@A 0000000180036080     RemoteOrderDisplay.obj
 0003:000000b8       ?vszContents@?6??Save@?$IPersistStorageImpl@VCOPOSRemoteOrderDisplay@@@ATL@@UEAAJPEAUIStorage@@H@Z@4PEB_WEB 00000001800360b8     RemoteOrderDisplay.obj
 0003:000000c0       ?wc@?1??GetWndClassInfo@?$CWindowImpl@VCOPOSRemoteOrderDisplay@@VCWindow@ATL@@V?$CWinTraits@$0FGAAAAAA@$0A@@3@@ATL@@SAAEAU_ATL_WNDCLASSINFOW@3@XZ@4U43@A 00000001800360c0     RemoteOrderDisplay.obj
 0003:00000250       ?g_WindowName@@3PA_WA      0000000180036250     RemoteOrderDisplayImpl.obj
 0003:00000284       ?g_ControlVersion@@3JA     0000000180036284     RemoteOrderDisplayImpl.obj
 0003:00000290       ?g_ControlDescription@@3PADA 0000000180036290     RemoteOrderDisplayImpl.obj
 0003:00000424       __scrt_native_dllmain_reason 0000000180036424     LIBCMT:utility.obj
 0003:00000428       _Init_global_epoch         0000000180036428     LIBCMT:thread_safe_statics.obj
 0003:00000430       __security_cookie          0000000180036430     LIBCMT:gs_cookie.obj
 0003:00000438       __security_cookie_complement 0000000180036438     LIBCMT:gs_cookie.obj
 0003:00000440       __isa_available            0000000180036440     LIBCMT:cpu_disp.obj
 0003:00000444       __isa_enabled              0000000180036444     LIBCMT:cpu_disp.obj
 0003:00000448       __memcpy_nt_iters          0000000180036448     LIBCMT:cpu_disp.obj
 0003:00000450       __memset_nt_iters          0000000180036450     LIBCMT:cpu_disp.obj
 0003:00000478       __abort_behavior           0000000180036478     libucrt:abort.obj
 0003:00000490       __acrt_initial_locale_data 0000000180036490     libucrt:nlsdata.obj
 0003:000005e8       __acrt_initial_locale_pointers 00000001800365e8     libucrt:nlsdata.obj
 0003:000005f8       __acrt_wide_c_locale_string 00000001800365f8     libucrt:nlsdata.obj
 0003:00000600       _iob                       0000000180036600     libucrt:_file.obj
 0003:00000710       __acrt_initial_multibyte_data 0000000180036710     libucrt:mbctype.obj
 0003:00000c50       __acrt_lconv_c             0000000180036c50     libucrt:localeconv.obj
 0003:00000ce8       __acrt_lconv_static_decimal 0000000180036ce8     libucrt:localeconv.obj
 0003:00000cec       __acrt_lconv_static_W_decimal 0000000180036cec     libucrt:localeconv.obj
 0003:00000cf0       __globallocalestatus       0000000180036cf0     libucrt:glstatus.obj
 0003:00000d00       _lookuptrailbytes          0000000180036d00     libucrt:read.obj
 0003:00000e24       _fltused                   0000000180036e24     LIBCMT:fltused.obj
 0003:00000e28       ??_R0?AVbad_alloc@std@@@8  0000000180036e28     LIBCMT:throw_bad_alloc.obj
 0003:00000e50       ??_R0?AVexception@std@@@8  0000000180036e50     LIBCMT:throw_bad_alloc.obj
 0003:00000e78       ??_R0?AVbad_array_new_length@std@@@8 0000000180036e78     LIBCMT:throw_bad_alloc.obj
 0003:00000ea8       ??_R0?AVbad_exception@std@@@8 0000000180036ea8     libvcruntime:frame.obj
 0003:00000ed0       ??_R0?AVtype_info@@@8      0000000180036ed0     LIBCMT:std_type_info_static.obj
 0003:00000ef0       ?m_bInitFailed@CAtlBaseModule@ATL@@2_NA 0000000180036ef0     OposVariant.obj
 0003:00000ef8       ?_pPerfRegFunc@ATL@@3P6AJPEAUHINSTANCE__@@@ZEA 0000000180036ef8     OposVariant.obj
 0003:00000f00       ?_pPerfUnRegFunc@ATL@@3P6AJXZEA 0000000180036f00     OposVariant.obj
 0003:00000f08       ?_AtlRegisterPerUser@ATL@@3_NA 0000000180036f08     OposVariant.obj
 0003:00000f10       ?_pAtlModule@ATL@@3PEAVCAtlModule@1@EA 0000000180036f10     OposVariant.obj
 0003:00000f18       ?_pModule@ATL@@3PEAVCComModule@1@EA 0000000180036f18     OposVariant.obj
 0003:00000f20       ?_AtlComModule@ATL@@3VCAtlComModule@1@A 0000000180036f20     OposVariant.obj
 0003:00000f70       ?_AtlWinModule@ATL@@3VCAtlWinModule@1@A 0000000180036f70     OposVariant.obj
 0003:00000fb8       ?m_libid@CAtlModule@ATL@@2U_GUID@@A 0000000180036fb8     RemoteOrderDisplay.obj
 0003:00000fc8       ?_entries@?1??GetConnMap@COPOSRemoteOrderDisplay@@SAPEBU_ATL_CONNMAP_ENTRY@ATL@@PEAH@Z@4QBU34@B 0000000180036fc8     RemoteOrderDisplay.obj
 0003:00000fe0       ?$TSS0@?1??GetConnMap@COPOSRemoteOrderDisplay@@SAPEBU_ATL_CONNMAP_ENTRY@ATL@@PEAH@Z@4HA 0000000180036fe0     RemoteOrderDisplay.obj
 0003:00000fe8       ?_OptionsStorage@?1??__local_stdio_printf_options@@9@4_KA 0000000180036fe8     RemoteOrderDisplay.obj
 0003:00000ff0       ?pfnRegDeleteKeyEx@?1??DeleteSubKey@CRegKey@ATL@@QEAAJPEB_W@Z@4P6AJPEAUHKEY__@@0KK@ZEA 0000000180036ff0     RemoteOrderDisplay.obj
 0003:00000ff8       ?bInitialized@?1??DeleteSubKey@CRegKey@ATL@@QEAAJPEB_W@Z@4_NA 0000000180036ff8     RemoteOrderDisplay.obj
 0003:00001000       ?_Module@@3VCComModule@ATL@@A 0000000180037000     RemoteOrderDisplay.obj
 0003:00001050       ?pConnMap@?$IConnectionPointContainerImpl@VCOPOSRemoteOrderDisplay@@@ATL@@0PEBU_ATL_CONNMAP_ENTRY@2@EB 0000000180037050     RemoteOrderDisplay.obj
 0003:00001058       ?s_nInstances@COPOSRemoteOrderDisplay@@1HA 0000000180037058     RemoteOrderDisplayImpl.obj
 0003:00001060       __scrt_current_native_startup_state 0000000180037060     LIBCMT:utility.obj
 0003:00001068       __scrt_native_startup_lock 0000000180037068     LIBCMT:utility.obj
 0003:00001660       _tls_index                 0000000180037660     LIBCMT:tlssup.obj
 0003:00001668       __favor                    0000000180037668     LIBCMT:cpu_disp.obj
 0003:0000166c       __scrt_debugger_hook_flag  000000018003766c     LIBCMT:utility_desktop.obj
 0003:00001670       ?__type_info_root_node@@3U__type_info_node@@A 0000000180037670     LIBCMT:tncleanup.obj
 0003:00001680       ?_OptionsStorage@?1??__local_stdio_scanf_options@@9@4_KA 0000000180037680     LIBCMT:default_local_stdio_options.obj
 0003:00001690       ?_AtlBaseModule@ATL@@3VCAtlBaseModule@1@A 0000000180037690     atls:atlbase.obj
 0003:000016f0       ?__AtlThunkPool@@3PEAT_SLIST_HEADER@@EA 00000001800376f0     atls:atlthunk.obj
 0003:0000171c       __@@_PchSym_@00@UzABUPdlipUCAUhUrmgvinvwrzgvUexgllohUzgohOmzgrevkilqPBACIAJCBDBUlyqiUznwGEUhgwzucOlyq@4B2008FD98C1DD4 000000018003771c     atls:stdafx.obj
 0003:00001720       ?__WinRTOutOfMemoryExceptionCallback@@3P6APEAXXZEA 0000000180037720     libvcruntime:ehhelpers.obj
 0003:00001728       __pPurecall                0000000180037728     libvcruntime:purevirt_data.obj
 0003:000017e0       ?pArgList@UnDecorator@@0PEAVReplicator@@EA 00000001800377e0     libvcruntime:undname.obj
 0003:000017e8       ?pZNameList@UnDecorator@@0PEAVReplicator@@EA 00000001800377e8     libvcruntime:undname.obj
 0003:000017f0       ?pTemplateArgList@UnDecorator@@0PEAVReplicator@@EA 00000001800377f0     libvcruntime:undname.obj
 0003:000017f8       ?gName@UnDecorator@@0PEBDEB 00000001800377f8     libvcruntime:undname.obj
 0003:00001800       ?name@UnDecorator@@0PEBDEB 0000000180037800     libvcruntime:undname.obj
 0003:00001808       ?disableFlags@UnDecorator@@0KA 0000000180037808     libvcruntime:undname.obj
 0003:0000180c       ?fExplicitTemplateParams@UnDecorator@@0_NA 000000018003780c     libvcruntime:undname.obj
 0003:0000180d       ?fGetTemplateArgumentList@UnDecorator@@0_NA 000000018003780d     libvcruntime:undname.obj
 0003:00001810       ?m_pGetParameter@UnDecorator@@0P6APEADJ@ZEA 0000000180037810     libvcruntime:undname.obj
 0003:00001818       ?m_CHPENameOffset@UnDecorator@@0KA 0000000180037818     libvcruntime:undname.obj
 0003:0000181c       ?m_recursionLevel@UnDecorator@@0KA 000000018003781c     libvcruntime:undname.obj
 0003:000018a0       ?c_exit_complete@?1???R<lambda_6e4b09c48022b2350581041d5f6b0c4c>@@QEBA@XZ@4_NA 00000001800378a0     libucrt:exit.obj
 0003:000019b8       _environ_table             00000001800379b8     libucrt:environment_initialization.obj
 0003:000019c0       _wenviron_table            00000001800379c0     libucrt:environment_initialization.obj
 0003:000019c8       __dcrt_initial_wide_environment 00000001800379c8     libucrt:environment_initialization.obj
 0003:000019d0       __dcrt_initial_narrow_environment 00000001800379d0     libucrt:environment_initialization.obj
 0003:000019d8       __acrt_atexit_table        00000001800379d8     libucrt:onexit.obj
 0003:000019f0       __acrt_at_quick_exit_table 00000001800379f0     libucrt:onexit.obj
 0003:00001a10       __acrt_locale_changed_data 0000000180037a10     libucrt:wsetlocale.obj
 0003:00001a18       __acrt_current_locale_data 0000000180037a18     libucrt:nlsdata.obj
 0003:00001bb8       _nstream                   0000000180037bb8     libucrt:_file.obj
 0003:00001bc0       __piob                     0000000180037bc0     libucrt:_file.obj
 0003:00001bd0       __acrt_stdout_buffer       0000000180037bd0     libucrt:_sftbuf.obj
 0003:00001bd8       __acrt_stderr_buffer       0000000180037bd8     libucrt:_sftbuf.obj
 0003:00001be0       __pioinfo                  0000000180037be0     libucrt:ioinit.obj
 0003:00001fe0       _nhandle                   0000000180037fe0     libucrt:ioinit.obj
 0003:00002228       _mbctype                   0000000180038228     libucrt:mbctype.obj
 0003:00002230       _mbcasemap                 0000000180038230     libucrt:mbctype.obj
 0003:00002238       __acrt_current_multibyte_data 0000000180038238     libucrt:mbctype.obj
 0003:00002248       _pgmptr                    0000000180038248     libucrt:argv_data.obj
 0003:00002250       __argc                     0000000180038250     libucrt:argv_data.obj
 0003:00002258       __argv                     0000000180038258     libucrt:argv_data.obj
 0003:00002260       __wargv                    0000000180038260     libucrt:argv_data.obj
 0003:00002268       _acmdln                    0000000180038268     libucrt:argv_data.obj
 0003:00002270       _wcmdln                    0000000180038270     libucrt:argv_data.obj
 0003:00002278       __acrt_heap                0000000180038278     libucrt:heap_handle.obj
 0003:000022a8       __acrt_lconv_static_null   00000001800382a8     libucrt:localeconv.obj
 0003:000022ac       __acrt_lconv_static_W_null 00000001800382ac     libucrt:localeconv.obj
 0003:000022c4       __fma3_is_available        00000001800382c4     libucrt:fma3_available.obj
 0003:000022c8       __use_fma3_lib             00000001800382c8     libucrt:fma3_available.obj
 0003:000022d0       __dyn_tls_init_callback    00000001800382d0     <common>
 0003:000022d8       __scrt_ucrt_dll_is_in_use  00000001800382d8     <common>

 entry point at        0001:0000ff30

 Static symbols

 0000:fffbc000       .debug$S                   0000000180000000     OPOSRemoteOrderDisplay.exp
 0000:fffbc000       .debug$S                   0000000180000000     advapi32:ADVAPI32.dll
 0000:fffbc000       .debug$S                   0000000180000000     advapi32:ADVAPI32.dll
 0000:fffbc000       .debug$S                   0000000180000000     advapi32:ADVAPI32.dll
 0000:fffbc000       .debug$S                   0000000180000000     advapi32:ADVAPI32.dll
 0000:fffbc000       .debug$S                   0000000180000000     advapi32:ADVAPI32.dll
 0000:fffbc000       .debug$S                   0000000180000000     advapi32:ADVAPI32.dll
 0000:fffbc000       .debug$S                   0000000180000000     advapi32:ADVAPI32.dll
 0000:fffbc000       .debug$S                   0000000180000000     advapi32:ADVAPI32.dll
 0000:fffbc000       .debug$S                   0000000180000000     advapi32:ADVAPI32.dll
 0000:fffbc000       .debug$S                   0000000180000000     gdi32:GDI32.dll
 0000:fffbc000       .debug$S                   0000000180000000     gdi32:GDI32.dll
 0000:fffbc000       .debug$S                   0000000180000000     gdi32:GDI32.dll
 0000:fffbc000       .debug$S                   0000000180000000     gdi32:GDI32.dll
 0000:fffbc000       .debug$S                   0000000180000000     gdi32:GDI32.dll
 0000:fffbc000       .debug$S                   0000000180000000     gdi32:GDI32.dll
 0000:fffbc000       .debug$S                   0000000180000000     gdi32:GDI32.dll
 0000:fffbc000       .debug$S                   0000000180000000     gdi32:GDI32.dll
 0000:fffbc000       .debug$S                   0000000180000000     gdi32:GDI32.dll
 0000:fffbc000       .debug$S                   0000000180000000     gdi32:GDI32.dll
 0000:fffbc000       .debug$S                   0000000180000000     gdi32:GDI32.dll
 0000:fffbc000       .debug$S                   0000000180000000     gdi32:GDI32.dll
 0000:fffbc000       .debug$S                   0000000180000000     gdi32:GDI32.dll
 0000:fffbc000       .debug$S                   0000000180000000     gdi32:GDI32.dll
 0000:fffbc000       .debug$S                   0000000180000000     gdi32:GDI32.dll
 0000:fffbc000       .debug$S                   0000000180000000     gdi32:GDI32.dll
 0000:fffbc000       .debug$S                   0000000180000000     gdi32:GDI32.dll
 0000:fffbc000       .debug$S                   0000000180000000     gdi32:GDI32.dll
 0000:fffbc000       .debug$S                   0000000180000000     gdi32:GDI32.dll
 0000:fffbc000       .debug$S                   0000000180000000     kernel32:KERNEL32.dll
 0000:fffbc000       .debug$S                   0000000180000000     kernel32:KERNEL32.dll
 0000:fffbc000       .debug$S                   0000000180000000     kernel32:KERNEL32.dll
 0000:fffbc000       .debug$S                   0000000180000000     kernel32:KERNEL32.dll
 0000:fffbc000       .debug$S                   0000000180000000     kernel32:KERNEL32.dll
 0000:fffbc000       .debug$S                   0000000180000000     kernel32:KERNEL32.dll
 0000:fffbc000       .debug$S                   0000000180000000     kernel32:KERNEL32.dll
 0000:fffbc000       .debug$S                   0000000180000000     kernel32:KERNEL32.dll
 0000:fffbc000       .debug$S                   0000000180000000     kernel32:KERNEL32.dll
 0000:fffbc000       .debug$S                   0000000180000000     kernel32:KERNEL32.dll
 0000:fffbc000       .debug$S                   0000000180000000     kernel32:KERNEL32.dll
 0000:fffbc000       .debug$S                   0000000180000000     kernel32:KERNEL32.dll
 0000:fffbc000       .debug$S                   0000000180000000     kernel32:KERNEL32.dll
 0000:fffbc000       .debug$S                   0000000180000000     kernel32:KERNEL32.dll
 0000:fffbc000       .debug$S                   0000000180000000     kernel32:KERNEL32.dll
 0000:fffbc000       .debug$S                   0000000180000000     kernel32:KERNEL32.dll
 0000:fffbc000       .debug$S                   0000000180000000     kernel32:KERNEL32.dll
 0000:fffbc000       .debug$S                   0000000180000000     kernel32:KERNEL32.dll
 0000:fffbc000       .debug$S                   0000000180000000     kernel32:KERNEL32.dll
 0000:fffbc000       .debug$S                   0000000180000000     kernel32:KERNEL32.dll
 0000:fffbc000       .debug$S                   0000000180000000     kernel32:KERNEL32.dll
 0000:fffbc000       .debug$S                   0000000180000000     kernel32:KERNEL32.dll
 0000:fffbc000       .debug$S                   0000000180000000     kernel32:KERNEL32.dll
 0000:fffbc000       .debug$S                   0000000180000000     kernel32:KERNEL32.dll
 0000:fffbc000       .debug$S                   0000000180000000     kernel32:KERNEL32.dll
 0000:fffbc000       .debug$S                   0000000180000000     kernel32:KERNEL32.dll
 0000:fffbc000       .debug$S                   0000000180000000     kernel32:KERNEL32.dll
 0000:fffbc000       .debug$S                   0000000180000000     kernel32:KERNEL32.dll
 0000:fffbc000       .debug$S                   0000000180000000     kernel32:KERNEL32.dll
 0000:fffbc000       .debug$S                   0000000180000000     kernel32:KERNEL32.dll
 0000:fffbc000       .debug$S                   0000000180000000     kernel32:KERNEL32.dll
 0000:fffbc000       .debug$S                   0000000180000000     kernel32:KERNEL32.dll
 0000:fffbc000       .debug$S                   0000000180000000     kernel32:KERNEL32.dll
 0000:fffbc000       .debug$S                   0000000180000000     kernel32:KERNEL32.dll
 0000:fffbc000       .debug$S                   0000000180000000     kernel32:KERNEL32.dll
 0000:fffbc000       .debug$S                   0000000180000000     kernel32:KERNEL32.dll
 0000:fffbc000       .debug$S                   0000000180000000     kernel32:KERNEL32.dll
 0000:fffbc000       .debug$S                   0000000180000000     kernel32:KERNEL32.dll
 0000:fffbc000       .debug$S                   0000000180000000     kernel32:KERNEL32.dll
 0000:fffbc000       .debug$S                   0000000180000000     kernel32:KERNEL32.dll
 0000:fffbc000       .debug$S                   0000000180000000     kernel32:KERNEL32.dll
 0000:fffbc000       .debug$S                   0000000180000000     kernel32:KERNEL32.dll
 0000:fffbc000       .debug$S                   0000000180000000     kernel32:KERNEL32.dll
 0000:fffbc000       .debug$S                   0000000180000000     kernel32:KERNEL32.dll
 0000:fffbc000       .debug$S                   0000000180000000     kernel32:KERNEL32.dll
 0000:fffbc000       .debug$S                   0000000180000000     kernel32:KERNEL32.dll
 0000:fffbc000       .debug$S                   0000000180000000     kernel32:KERNEL32.dll
 0000:fffbc000       .debug$S                   0000000180000000     kernel32:KERNEL32.dll
 0000:fffbc000       .debug$S                   0000000180000000     kernel32:KERNEL32.dll
 0000:fffbc000       .debug$S                   0000000180000000     kernel32:KERNEL32.dll
 0000:fffbc000       .debug$S                   0000000180000000     kernel32:KERNEL32.dll
 0000:fffbc000       .debug$S                   0000000180000000     kernel32:KERNEL32.dll
 0000:fffbc000       .debug$S                   0000000180000000     kernel32:KERNEL32.dll
 0000:fffbc000       .debug$S                   0000000180000000     kernel32:KERNEL32.dll
 0000:fffbc000       .debug$S                   0000000180000000     kernel32:KERNEL32.dll
 0000:fffbc000       .debug$S                   0000000180000000     kernel32:KERNEL32.dll
 0000:fffbc000       .debug$S                   0000000180000000     kernel32:KERNEL32.dll
 0000:fffbc000       .debug$S                   0000000180000000     kernel32:KERNEL32.dll
 0000:fffbc000       .debug$S                   0000000180000000     kernel32:KERNEL32.dll
 0000:fffbc000       .debug$S                   0000000180000000     kernel32:KERNEL32.dll
 0000:fffbc000       .debug$S                   0000000180000000     kernel32:KERNEL32.dll
 0000:fffbc000       .debug$S                   0000000180000000     kernel32:KERNEL32.dll
 0000:fffbc000       .debug$S                   0000000180000000     kernel32:KERNEL32.dll
 0000:fffbc000       .debug$S                   0000000180000000     kernel32:KERNEL32.dll
 0000:fffbc000       .debug$S                   0000000180000000     kernel32:KERNEL32.dll
 0000:fffbc000       .debug$S                   0000000180000000     kernel32:KERNEL32.dll
 0000:fffbc000       .debug$S                   0000000180000000     kernel32:KERNEL32.dll
 0000:fffbc000       .debug$S                   0000000180000000     kernel32:KERNEL32.dll
 0000:fffbc000       .debug$S                   0000000180000000     kernel32:KERNEL32.dll
 0000:fffbc000       .debug$S                   0000000180000000     kernel32:KERNEL32.dll
 0000:fffbc000       .debug$S                   0000000180000000     kernel32:KERNEL32.dll
 0000:fffbc000       .debug$S                   0000000180000000     kernel32:KERNEL32.dll
 0000:fffbc000       .debug$S                   0000000180000000     kernel32:KERNEL32.dll
 0000:fffbc000       .debug$S                   0000000180000000     kernel32:KERNEL32.dll
 0000:fffbc000       .debug$S                   0000000180000000     kernel32:KERNEL32.dll
 0000:fffbc000       .debug$S                   0000000180000000     kernel32:KERNEL32.dll
 0000:fffbc000       .debug$S                   0000000180000000     kernel32:KERNEL32.dll
 0000:fffbc000       .debug$S                   0000000180000000     kernel32:KERNEL32.dll
 0000:fffbc000       .debug$S                   0000000180000000     kernel32:KERNEL32.dll
 0000:fffbc000       .debug$S                   0000000180000000     kernel32:KERNEL32.dll
 0000:fffbc000       .debug$S                   0000000180000000     kernel32:KERNEL32.dll
 0000:fffbc000       .debug$S                   0000000180000000     kernel32:KERNEL32.dll
 0000:fffbc000       .debug$S                   0000000180000000     kernel32:KERNEL32.dll
 0000:fffbc000       .debug$S                   0000000180000000     kernel32:KERNEL32.dll
 0000:fffbc000       .debug$S                   0000000180000000     kernel32:KERNEL32.dll
 0000:fffbc000       .debug$S                   0000000180000000     kernel32:KERNEL32.dll
 0000:fffbc000       .debug$S                   0000000180000000     kernel32:KERNEL32.dll
 0000:fffbc000       .debug$S                   0000000180000000     kernel32:KERNEL32.dll
 0000:fffbc000       .debug$S                   0000000180000000     kernel32:KERNEL32.dll
 0000:fffbc000       .debug$S                   0000000180000000     kernel32:KERNEL32.dll
 0000:fffbc000       .debug$S                   0000000180000000     kernel32:KERNEL32.dll
 0000:fffbc000       .debug$S                   0000000180000000     kernel32:KERNEL32.dll
 0000:fffbc000       .debug$S                   0000000180000000     kernel32:KERNEL32.dll
 0000:fffbc000       .debug$S                   0000000180000000     kernel32:KERNEL32.dll
 0000:fffbc000       .debug$S                   0000000180000000     kernel32:KERNEL32.dll
 0000:fffbc000       .debug$S                   0000000180000000     kernel32:KERNEL32.dll
 0000:fffbc000       .debug$S                   0000000180000000     kernel32:KERNEL32.dll
 0000:fffbc000       .debug$S                   0000000180000000     kernel32:KERNEL32.dll
 0000:fffbc000       .debug$S                   0000000180000000     kernel32:KERNEL32.dll
 0000:fffbc000       .debug$S                   0000000180000000     kernel32:KERNEL32.dll
 0000:fffbc000       .debug$S                   0000000180000000     kernel32:KERNEL32.dll
 0000:fffbc000       .debug$S                   0000000180000000     kernel32:KERNEL32.dll
 0000:fffbc000       .debug$S                   0000000180000000     kernel32:KERNEL32.dll
 0000:fffbc000       .debug$S                   0000000180000000     kernel32:KERNEL32.dll
 0000:fffbc000       .debug$S                   0000000180000000     kernel32:KERNEL32.dll
 0000:fffbc000       .debug$S                   0000000180000000     kernel32:KERNEL32.dll
 0000:fffbc000       .debug$S                   0000000180000000     kernel32:KERNEL32.dll
 0000:fffbc000       .debug$S                   0000000180000000     kernel32:KERNEL32.dll
 0000:fffbc000       .debug$S                   0000000180000000     kernel32:KERNEL32.dll
 0000:fffbc000       .debug$S                   0000000180000000     kernel32:KERNEL32.dll
 0000:fffbc000       .debug$S                   0000000180000000     kernel32:KERNEL32.dll
 0000:fffbc000       .debug$S                   0000000180000000     kernel32:KERNEL32.dll
 0000:fffbc000       .debug$S                   0000000180000000     kernel32:KERNEL32.dll
 0000:fffbc000       .debug$S                   0000000180000000     kernel32:KERNEL32.dll
 0000:fffbc000       .debug$S                   0000000180000000     kernel32:KERNEL32.dll
 0000:fffbc000       .debug$S                   0000000180000000     ole32:ole32.dll
 0000:fffbc000       .debug$S                   0000000180000000     ole32:ole32.dll
 0000:fffbc000       .debug$S                   0000000180000000     ole32:ole32.dll
 0000:fffbc000       .debug$S                   0000000180000000     ole32:ole32.dll
 0000:fffbc000       .debug$S                   0000000180000000     ole32:ole32.dll
 0000:fffbc000       .debug$S                   0000000180000000     ole32:ole32.dll
 0000:fffbc000       .debug$S                   0000000180000000     ole32:ole32.dll
 0000:fffbc000       .debug$S                   0000000180000000     ole32:ole32.dll
 0000:fffbc000       .debug$S                   0000000180000000     ole32:ole32.dll
 0000:fffbc000       .debug$S                   0000000180000000     ole32:ole32.dll
 0000:fffbc000       .debug$S                   0000000180000000     ole32:ole32.dll
 0000:fffbc000       .debug$S                   0000000180000000     ole32:ole32.dll
 0000:fffbc000       .debug$S                   0000000180000000     ole32:ole32.dll
 0000:fffbc000       .debug$S                   0000000180000000     ole32:ole32.dll
 0000:fffbc000       .debug$S                   0000000180000000     oleaut32:OLEAUT32.dll
 0000:fffbc000       .debug$S                   0000000180000000     oleaut32:OLEAUT32.dll
 0000:fffbc000       .debug$S                   0000000180000000     oleaut32:OLEAUT32.dll
 0000:fffbc000       .debug$S                   0000000180000000     oleaut32:OLEAUT32.dll
 0000:fffbc000       .debug$S                   0000000180000000     oleaut32:OLEAUT32.dll
 0000:fffbc000       .debug$S                   0000000180000000     oleaut32:OLEAUT32.dll
 0000:fffbc000       .debug$S                   0000000180000000     oleaut32:OLEAUT32.dll
 0000:fffbc000       .debug$S                   0000000180000000     oleaut32:OLEAUT32.dll
 0000:fffbc000       .debug$S                   0000000180000000     oleaut32:OLEAUT32.dll
 0000:fffbc000       .debug$S                   0000000180000000     oleaut32:OLEAUT32.dll
 0000:fffbc000       .debug$S                   0000000180000000     oleaut32:OLEAUT32.dll
 0000:fffbc000       .debug$S                   0000000180000000     oleaut32:OLEAUT32.dll
 0000:fffbc000       .debug$S                   0000000180000000     oleaut32:OLEAUT32.dll
 0000:fffbc000       .debug$S                   0000000180000000     oleaut32:OLEAUT32.dll
 0000:fffbc000       .debug$S                   0000000180000000     oleaut32:OLEAUT32.dll
 0000:fffbc000       .debug$S                   0000000180000000     oleaut32:OLEAUT32.dll
 0000:fffbc000       .debug$S                   0000000180000000     user32:USER32.dll
 0000:fffbc000       .debug$S                   0000000180000000     user32:USER32.dll
 0000:fffbc000       .debug$S                   0000000180000000     user32:USER32.dll
 0000:fffbc000       .debug$S                   0000000180000000     user32:USER32.dll
 0000:fffbc000       .debug$S                   0000000180000000     user32:USER32.dll
 0000:fffbc000       .debug$S                   0000000180000000     user32:USER32.dll
 0000:fffbc000       .debug$S                   0000000180000000     user32:USER32.dll
 0000:fffbc000       .debug$S                   0000000180000000     user32:USER32.dll
 0000:fffbc000       .debug$S                   0000000180000000     user32:USER32.dll
 0000:fffbc000       .debug$S                   0000000180000000     user32:USER32.dll
 0000:fffbc000       .debug$S                   0000000180000000     user32:USER32.dll
 0000:fffbc000       .debug$S                   0000000180000000     user32:USER32.dll
 0000:fffbc000       .debug$S                   0000000180000000     user32:USER32.dll
 0000:fffbc000       .debug$S                   0000000180000000     user32:USER32.dll
 0000:fffbc000       .debug$S                   0000000180000000     user32:USER32.dll
 0000:fffbc000       .debug$S                   0000000180000000     user32:USER32.dll
 0000:fffbc000       .debug$S                   0000000180000000     user32:USER32.dll
 0000:fffbc000       .debug$S                   0000000180000000     user32:USER32.dll
 0000:fffbc000       .debug$S                   0000000180000000     user32:USER32.dll
 0000:fffbc000       .debug$S                   0000000180000000     user32:USER32.dll
 0000:fffbc000       .debug$S                   0000000180000000     user32:USER32.dll
 0000:fffbc000       .debug$S                   0000000180000000     user32:USER32.dll
 0000:fffbc000       .debug$S                   0000000180000000     user32:USER32.dll
 0000:fffbc000       .debug$S                   0000000180000000     user32:USER32.dll
 0000:fffbc000       .debug$S                   0000000180000000     user32:USER32.dll
 0000:fffbc000       .debug$S                   0000000180000000     user32:USER32.dll
 0000:fffbc000       .debug$S                   0000000180000000     user32:USER32.dll
 0000:fffbc000       .debug$S                   0000000180000000     user32:USER32.dll
 0000:fffbc000       .debug$S                   0000000180000000     user32:USER32.dll
 0000:fffbc000       .debug$S                   0000000180000000     user32:USER32.dll
 0000:fffbc000       .debug$S                   0000000180000000     user32:USER32.dll
 0000:fffbc000       .debug$S                   0000000180000000     user32:USER32.dll
 0000:fffbc000       .debug$S                   0000000180000000     user32:USER32.dll
 0000:fffbc000       .debug$S                   0000000180000000     user32:USER32.dll
 0000:fffbc000       .debug$S                   0000000180000000     user32:USER32.dll
 0001:00000000       ??__E_AtlComModule@ATL@@YAXXZ 0000000180001000 f   OposVariant.obj
 0001:00000020       ??__E_AtlWinModule@ATL@@YAXXZ 0000000180001020 f   OposVariant.obj
 0001:00000040       ??__E?pConnMap@?$IConnectionPointContainerImpl@VCOPOSRemoteOrderDisplay@@@ATL@@0PEBU_ATL_CONNMAP_ENTRY@2@EB@@YAXXZ 0000000180001040 f   RemoteOrderDisplay.obj
 0001:00000058       ??__E_Module@@YAXXZ        0000000180001058 f   RemoteOrderDisplay.obj
 0001:00000094       ??__E_AtlBaseModule@ATL@@YAXXZ 0000000180001094 f   atls:atlbase.obj
 0001:0000f554       ?__scrt_initialize_thread_safe_statics@@YAHXZ 0000000180010554 f   LIBCMT:thread_safe_statics.obj
 0001:0000f624       ?__scrt_uninitialize_thread_safe_statics@@YAXXZ 0000000180010624 f   LIBCMT:thread_safe_statics.obj
 0001:0000f974       capture_current_context    0000000180010974 f   LIBCMT:gs_report.obj
 0001:0000f9e4       capture_previous_context   00000001800109e4 f   LIBCMT:gs_report.obj
 0001:0000fb80       $$000000                   0000000180010b80     LIBCMT:chkstk.obj
 0001:0000fbe0       $$000000                   0000000180010be0     LIBCMT:amdsecgs.obj
 0001:0000fc10       ?dllmain_crt_dispatch@@YAHQEAUHINSTANCE__@@KQEAX@Z 0000000180010c10 f   LIBCMT:dll_dllmain.obj
 0001:0000fc60       ?dllmain_crt_process_attach@@YAHQEAUHINSTANCE__@@QEAX@Z 0000000180010c60 f   LIBCMT:dll_dllmain.obj
 0001:0000fd78       ?dllmain_crt_process_detach@@YAH_N@Z 0000000180010d78 f   LIBCMT:dll_dllmain.obj
 0001:0000fdfc       ?dllmain_dispatch@@YAHQEAUHINSTANCE__@@KQEAX@Z 0000000180010dfc f   LIBCMT:dll_dllmain.obj
 0001:000106c8       ??$GetProcAddressAll@P6AP6A_JPEAUHWND__@@I_K_J@ZPEAUAtlThunkData_t@@@Z@@YAP6AP6A_JPEAUHWND__@@I_K_J@ZPEAUAtlThunkData_t@@@ZPEAP6AP6A_J0I12@Z3@Z@Z 00000001800116c8 f   atls:atlthunk.obj
 0001:000106c8       ??$GetProcAddressAll@P6APEAUAtlThunkData_t@@XZ@@YAP6APEAUAtlThunkData_t@@XZPEAP6APEAU0@XZ@Z 00000001800116c8 f   atls:atlthunk.obj
 0001:000106c8       ??$GetProcAddressAll@P6AXPEAUAtlThunkData_t@@@Z@@YAP6AXPEAUAtlThunkData_t@@@ZPEAP6AX0@Z@Z 00000001800116c8 f   atls:atlthunk.obj
 0001:000106c8       ??$GetProcAddressAll@P6AXPEAUAtlThunkData_t@@PEAX_K@Z@@YAP6AXPEAUAtlThunkData_t@@PEAX_K@ZPEAP6AX012@Z@Z 00000001800116c8 f   atls:atlthunk.obj
 0001:000108a0       ?__InitializeThunkPool@@YAHXZ 00000001800118a0 f   atls:atlthunk.obj
 0001:00010d40       $$000000                   0000000180011d40     libvcruntime:memcmp.obj
 0001:00010e20       $$000000                   0000000180011e20     libvcruntime:memcpy.obj
 0001:000114d0       $$000000                   00000001800124d0     libvcruntime:memset.obj
 0001:00012ae0       $$000000                   0000000180013ae0     libvcruntime:notify.obj
 0001:00012d60       ??$BuildCatchObjectHelperInternal@V__FrameHandler3@@@@YAHPEAUEHExceptionRecord@@PEAXPEBU_s_HandlerType@@PEBU_s_CatchableType@@@Z 0000000180013d60 f   libvcruntime:frame.obj
 0001:00012f60       ??$BuildCatchObjectHelperInternal@V__FrameHandler4@@@@YAHPEAUEHExceptionRecord@@PEAXPEAUHandlerType4@FH4@@PEBU_s_CatchableType@@@Z 0000000180013f60 f   libvcruntime:frame.obj
 0001:00013164       ??$BuildCatchObjectInternal@V__FrameHandler3@@@@YAXPEAUEHExceptionRecord@@PEAXPEBU_s_HandlerType@@PEBU_s_CatchableType@@@Z 0000000180014164 f   libvcruntime:frame.obj
 0001:00013224       ??$BuildCatchObjectInternal@V__FrameHandler4@@@@YAXPEAUEHExceptionRecord@@PEAXPEAUHandlerType4@FH4@@PEBU_s_CatchableType@@@Z 0000000180014224 f   libvcruntime:frame.obj
 0001:000132e8       ??$CatchIt@V__FrameHandler3@@@@YAXPEAUEHExceptionRecord@@PEA_KPEAU_CONTEXT@@PEAU_xDISPATCHER_CONTEXT@@PEBU_s_FuncInfo@@PEBU_s_HandlerType@@PEBU_s_CatchableType@@PEBU_s_TryBlockMapEntry@@H1EE@Z 00000001800142e8 f   libvcruntime:frame.obj
 0001:000133bc       ??$CatchIt@V__FrameHandler4@@@@YAXPEAUEHExceptionRecord@@PEA_KPEAU_CONTEXT@@PEAU_xDISPATCHER_CONTEXT@@PEAUFuncInfo4@FH4@@PEAUHandlerType4@4@PEBU_s_CatchableType@@PEAUTryBlockMapEntry4@4@H1EE@Z 00000001800143bc f   libvcruntime:frame.obj
 0001:00013490       ??$FindHandler@V__FrameHandler3@@@@YAXPEAUEHExceptionRecord@@PEA_KPEAU_CONTEXT@@PEAU_xDISPATCHER_CONTEXT@@PEBU_s_FuncInfo@@EH1@Z 0000000180014490 f   libvcruntime:frame.obj
 0001:00013968       ??$FindHandler@V__FrameHandler4@@@@YAXPEAUEHExceptionRecord@@PEA_KPEAU_CONTEXT@@PEAU_xDISPATCHER_CONTEXT@@PEAUFuncInfo4@FH4@@EH1@Z 0000000180014968 f   libvcruntime:frame.obj
 0001:00013e64       ??$FindHandlerForForeignException@V__FrameHandler3@@@@YAXPEAUEHExceptionRecord@@PEA_KPEAU_CONTEXT@@PEAU_xDISPATCHER_CONTEXT@@PEBU_s_FuncInfo@@HH1@Z 0000000180014e64 f   libvcruntime:frame.obj
 0001:00014080       ??$FindHandlerForForeignException@V__FrameHandler4@@@@YAXPEAUEHExceptionRecord@@PEA_KPEAU_CONTEXT@@PEAU_xDISPATCHER_CONTEXT@@PEAUFuncInfo4@FH4@@HH1@Z 0000000180015080 f   libvcruntime:frame.obj
 0001:00015240       ?ExFilterRethrow@@YAHPEAU_EXCEPTION_POINTERS@@PEAUEHExceptionRecord@@PEAH@Z 0000000180016240 f   libvcruntime:frame.obj
 0001:000152c8       ?ExFilterRethrowFH4@@YAHPEAU_EXCEPTION_POINTERS@@PEAUEHExceptionRecord@@HPEAH@Z 00000001800162c8 f   libvcruntime:frame.obj
 0001:00015818       ?IsInExceptionSpec@@YAEPEAUEHExceptionRecord@@PEBU_s_ESTypeList@@@Z 0000000180016818 f   libvcruntime:frame.obj
 0001:00015908       ?Is_bad_exception_allowed@@YAEPEBU_s_ESTypeList@@@Z 0000000180016908 f   libvcruntime:frame.obj
 0001:00015be4       ?try_get_function@@YAPEAXW4function_id@?A0xbc0cc709@@QEBDQEBW4module_id@2@2@Z 0000000180016be4 f   libvcruntime:winapi_downlevel.obj
 0001:00015ed0       $$000000                   0000000180016ed0     libvcruntime:handlers.obj
 0001:000168fc       ??$common_vsprintf@Vformat_validation_base@__crt_stdio_output@@_W@@YAH_KQEA_W0QEB_WAEAV__crt_cached_ptd_host@@QEAD@Z 00000001800178fc f   libucrt:output.obj
 0001:0001904c       ??$?RV<lambda_d80eeec6fff315bfe5c115232f3240e3>@@AEAV<lambda_6e4b09c48022b2350581041d5f6b0c4c>@@V<lambda_2358e3775559c9db80273638284d5e45>@@@?$__crt_seh_guarded_call@X@@QEAAX$$QEAV<lambda_d80eeec6fff315bfe5c115232f3240e3>@@AEAV<lambda_6e4b09c48022b2350581041d5f6b0c4c>@@$$QEAV<lambda_2358e3775559c9db80273638284d5e45>@@@Z 000000018001a04c f   libucrt:exit.obj
 0001:00019084       ??R<lambda_6e4b09c48022b2350581041d5f6b0c4c>@@QEBA@XZ 000000018001a084 f   libucrt:exit.obj
 0001:00019150       ?common_exit@@YAXHW4_crt_exit_cleanup_mode@@W4_crt_exit_return_mode@@@Z 000000018001a150 f   libucrt:exit.obj
 0001:00019218       ?exit_or_terminate_process@@YAXI@Z 000000018001a218 f   libucrt:exit.obj
 0001:0001924c       ?should_call_terminate_process@@YA_NXZ 000000018001a24c f   libucrt:exit.obj
 0001:0001927c       ?try_cor_exit_process@@YAXI@Z 000000018001a27c f   libucrt:exit.obj
 0001:00019318       ??$parse_command_line@D@@YAXPEADPEAPEAD0PEA_K2@Z 000000018001a318 f   libucrt:argv_parsing.obj
 0001:000196c0       ??$common_initialize_environment_nolock@D@@YAHXZ 000000018001a6c0 f   libucrt:environment_initialization.obj
 0001:00019734       ??$create_environment@D@@YAQEAPEADQEAD@Z 000000018001a734 f   libucrt:environment_initialization.obj
 0001:00019844       ??$free_environment@D@@YAXQEAPEAD@Z 000000018001a844 f   libucrt:environment_initialization.obj
 0001:00019844       ??$free_environment@_W@@YAXQEAPEA_W@Z 000000018001a844 f   libucrt:environment_initialization.obj
 0001:00019888       ??$uninitialize_environment_internal@D@@YAXAEAPEAPEAD@Z 000000018001a888 f   libucrt:environment_initialization.obj
 0001:000198a4       ??$uninitialize_environment_internal@_W@@YAXAEAPEAPEA_W@Z 000000018001a8a4 f   libucrt:environment_initialization.obj
 0001:0001990c       ??$?RV<lambda_638799b9deba96c50f710eeac98168cd>@@AEAV<lambda_22ebabd17bc4fa466a2aca6d8deb888d>@@V<lambda_a6f7d7db0129f75315ebf26d50c089f1>@@@?$__crt_seh_guarded_call@H@@QEAAH$$QEAV<lambda_638799b9deba96c50f710eeac98168cd>@@AEAV<lambda_22ebabd17bc4fa466a2aca6d8deb888d>@@$$QEAV<lambda_a6f7d7db0129f75315ebf26d50c089f1>@@@Z 000000018001a90c f   libucrt:onexit.obj
 0001:00019948       ??$?RV<lambda_7777bce6b2f8c936911f934f8298dc43>@@AEAV<lambda_f03950bc5685219e0bcd2087efbe011e>@@V<lambda_3883c3dff614d5e0c5f61bb1ac94921c>@@@?$__crt_seh_guarded_call@H@@QEAAH$$QEAV<lambda_7777bce6b2f8c936911f934f8298dc43>@@AEAV<lambda_f03950bc5685219e0bcd2087efbe011e>@@$$QEAV<lambda_3883c3dff614d5e0c5f61bb1ac94921c>@@@Z 000000018001a948 f   libucrt:onexit.obj
 0001:00019984       ??R<lambda_22ebabd17bc4fa466a2aca6d8deb888d>@@QEBAHXZ 000000018001a984 f   libucrt:onexit.obj
 0001:00019b34       ??R<lambda_f03950bc5685219e0bcd2087efbe011e>@@QEBAHXZ 000000018001ab34 f   libucrt:onexit.obj
 0001:00019d18       initialize_global_variables 000000018001ad18 f   libucrt:initialization.obj
 0001:00019d2c       initialize_c               000000018001ad2c f   libucrt:initialization.obj
 0001:00019d50       initialize_environment     000000018001ad50 f   libucrt:initialization.obj
 0001:00019d50       initialize_global_state_isolation 000000018001ad50 f   libucrt:initialization.obj
 0001:00019d50       report_memory_leaks        000000018001ad50 f   libucrt:initialization.obj
 0001:00019d50       uninitialize_c             000000018001ad50 f   libucrt:initialization.obj
 0001:00019d50       uninitialize_global_state_isolation 000000018001ad50 f   libucrt:initialization.obj
 0001:00019d54       uninitialize_environment   000000018001ad54 f   libucrt:initialization.obj
 0001:00019d64       initialize_pointers        000000018001ad64 f   libucrt:initialization.obj
 0001:00019da4       uninitialize_vcruntime     000000018001ada4 f   libucrt:initialization.obj
 0001:00019dac       uninitialize_allocated_memory 000000018001adac f   libucrt:initialization.obj
 0001:00019dec       uninitialize_allocated_io_buffers 000000018001adec f   libucrt:initialization.obj
 0001:0001a0b0       $$000000                   000000018001b0b0     libucrt:strncmp.obj
 0001:0001a1a8       ??$?RV<lambda_0ae27a3a962d80f24befdcbee591983d>@@AEAV<lambda_8d0ee55de4b1038c4002e0adecdf1839>@@V<lambda_dc504788e8f1664fe9b84e20bfb512f2>@@@?$__crt_seh_guarded_call@X@@QEAAX$$QEAV<lambda_0ae27a3a962d80f24befdcbee591983d>@@AEAV<lambda_8d0ee55de4b1038c4002e0adecdf1839>@@$$QEAV<lambda_dc504788e8f1664fe9b84e20bfb512f2>@@@Z 000000018001b1a8 f   libucrt:per_thread_data.obj
 0001:0001a1e8       ??$?RV<lambda_2d41944a1d46af3157314b8a01080d33>@@AEAV<lambda_8f455de75cd7d7f24b4096f044d8b9e6>@@V<lambda_aa500f224e6afead328df44964fe2772>@@@?$__crt_seh_guarded_call@X@@QEAAX$$QEAV<lambda_2d41944a1d46af3157314b8a01080d33>@@AEAV<lambda_8f455de75cd7d7f24b4096f044d8b9e6>@@$$QEAV<lambda_aa500f224e6afead328df44964fe2772>@@@Z 000000018001b1e8 f   libucrt:per_thread_data.obj
 0001:0001a228       ??$?RV<lambda_aa87e3671a710a21b5dc78c0bdf72e11>@@AEAV<lambda_92619d2358a28f41a33ba319515a20b9>@@V<lambda_6992ecaafeb10aed2b74cb1fae11a551>@@@?$__crt_seh_guarded_call@X@@QEAAX$$QEAV<lambda_aa87e3671a710a21b5dc78c0bdf72e11>@@AEAV<lambda_92619d2358a28f41a33ba319515a20b9>@@$$QEAV<lambda_6992ecaafeb10aed2b74cb1fae11a551>@@@Z 000000018001b228 f   libucrt:per_thread_data.obj
 0001:0001a270       ??$?RV<lambda_f2e299630e499de9f9a165e60fcd3db5>@@AEAV<lambda_2ae9d31cdba2644fcbeaf08da7c24588>@@V<lambda_40d01ff24d0e7b3814fdbdcee8eab3c7>@@@?$__crt_seh_guarded_call@X@@QEAAX$$QEAV<lambda_f2e299630e499de9f9a165e60fcd3db5>@@AEAV<lambda_2ae9d31cdba2644fcbeaf08da7c24588>@@$$QEAV<lambda_40d01ff24d0e7b3814fdbdcee8eab3c7>@@@Z 000000018001b270 f   libucrt:per_thread_data.obj
 0001:0001a2d0       ?construct_ptd_array@@YAXQEAU__acrt_ptd@@@Z 000000018001b2d0 f   libucrt:per_thread_data.obj
 0001:0001a3a0       ?destroy_fls@@YAXPEAX@Z    000000018001b3a0 f   libucrt:per_thread_data.obj
 0001:0001a3c0       ?destroy_ptd_array@@YAXQEAU__acrt_ptd@@@Z 000000018001b3c0 f   libucrt:per_thread_data.obj
 0001:0001a4b8       ?replace_current_thread_locale_nolock@@YAXQEAU__acrt_ptd@@QEAU__crt_locale_data@@@Z 000000018001b4b8 f   libucrt:per_thread_data.obj
 0001:0001a8c4       ??$?RV<lambda_410d79af7f07d98d83a3f525b3859a53>@@AEAV<lambda_3e16ef9562a7dcce91392c22ab16ea36>@@V<lambda_38119f0e861e05405d8a144b9b982f0a>@@@?$__crt_seh_guarded_call@X@@QEAAX$$QEAV<lambda_410d79af7f07d98d83a3f525b3859a53>@@AEAV<lambda_3e16ef9562a7dcce91392c22ab16ea36>@@$$QEAV<lambda_38119f0e861e05405d8a144b9b982f0a>@@@Z 000000018001b8c4 f   libucrt:wsetlocale.obj
 0001:0001ab00       ?try_get_function@@YAPEAXW4function_id@?A0x391cf84c@@QEBDQEBW4module_id@2@2@Z 000000018001bb00 f   libucrt:winapi_thunks.obj
 0001:0001b29c       ?fp_format_a@@YAHQEBNPEAD_KQEAD2H_NIW4__acrt_rounding_mode@@AEAV__crt_cached_ptd_host@@@Z 000000018001c29c f   libucrt:cvt.obj
 0001:0001b650       ?fp_format_e@@YAHQEBNQEAD_K12H_NIW4__acrt_rounding_mode@@AEAV__crt_cached_ptd_host@@@Z 000000018001c650 f   libucrt:cvt.obj
 0001:0001b74c       ?fp_format_e_internal@@YAHQEAD_KH_NIQEAU_strflt@@2AEAV__crt_cached_ptd_host@@@Z 000000018001c74c f   libucrt:cvt.obj
 0001:0001b930       ?fp_format_f@@YAHQEBNQEAD_K12HW4__acrt_rounding_mode@@AEAV__crt_cached_ptd_host@@@Z 000000018001c930 f   libucrt:cvt.obj
 0001:0001ba08       ?fp_format_f_internal@@YAHQEAD_KHQEAU_strflt@@_NAEAV__crt_cached_ptd_host@@@Z 000000018001ca08 f   libucrt:cvt.obj
 0001:0001bb60       ?fp_format_g@@YAHQEBNQEAD_K12H_NIW4__acrt_rounding_mode@@AEAV__crt_cached_ptd_host@@@Z 000000018001cb60 f   libucrt:cvt.obj
 0001:0001bcb4       ?should_round_up@@YA_NQEBN_KFW4__acrt_rounding_mode@@@Z 000000018001ccb4 f   libucrt:cvt.obj
 0001:0001c400       ?initialize_inherited_file_handles_nolock@@YAXXZ 000000018001d400 f   libucrt:ioinit.obj
 0001:0001c4f0       ?initialize_stdio_handles_nolock@@YAXXZ 000000018001d4f0 f   libucrt:ioinit.obj
 0001:0001c768       ?<lambda_invoker_cdecl>@<lambda_a1ce4c8ae42411fd470c77163914f50e>@@CAHPEBX0@Z 000000018001d768 f   libucrt:argv_wildcards.obj
 0001:0001ca84       ??$common_expand_argv_wildcards@D@@YAHQEAPEADQEAPEAPEAD@Z 000000018001da84 f   libucrt:argv_wildcards.obj
 0001:0001ccc8       ??$copy_and_add_argument_to_buffer@D@@YAHQEBD0_KAEAV?$argument_list@D@?A0x5f5c8891@@@Z 000000018001dcc8 f   libucrt:argv_wildcards.obj
 0001:0001ce50       ??$expand_argument_wildcards@D@@YAHQEAD0AEAV?$argument_list@D@?A0x5f5c8891@@@Z 000000018001de50 f   libucrt:argv_wildcards.obj
 0001:0001d484       ??$?RV<lambda_efdfa57d1f175319df784efa44bb7b81>@@AEAV<lambda_5f0a4c1567f8adc6734073e5d1e1b35c>@@V<lambda_2e8a7d3640ea6ccb4c2413664c2db6fd>@@@?$__crt_seh_guarded_call@X@@QEAAX$$QEAV<lambda_efdfa57d1f175319df784efa44bb7b81>@@AEAV<lambda_5f0a4c1567f8adc6734073e5d1e1b35c>@@$$QEAV<lambda_2e8a7d3640ea6ccb4c2413664c2db6fd>@@@Z 000000018001e484 f   libucrt:mbctype.obj
 0001:0001d654       ?getSystemCP@@YAHH@Z       000000018001e654 f   libucrt:mbctype.obj
 0001:0001d6d4       ?setSBCS@@YAXPEAU__crt_multibyte_data@@@Z 000000018001e6d4 f   libucrt:mbctype.obj
 0001:0001d76c       ?setSBUpLow@@YAXPEAU__crt_multibyte_data@@@Z 000000018001e76c f   libucrt:mbctype.obj
 0001:0001d954       ?setmbcp_internal@@YAHH_NQEAU__acrt_ptd@@QEAPEAU__crt_multibyte_data@@@Z 000000018001e954 f   libucrt:mbctype.obj
 0001:0001dbc4       ?update_thread_multibyte_data_internal@@YAPEAU__crt_multibyte_data@@QEAU__acrt_ptd@@QEAPEAU1@@Z 000000018001ebc4 f   libucrt:mbctype.obj
 0001:0001dfb8       ?x_ismbbtype_l@@YAHPEAU__crt_locale_pointers@@IHH@Z 000000018001efb8 f   libucrt:ismbbyte.obj
 0001:0001e388       ??$?RV<lambda_450d765d439847d4c735a33c368b5fc0>@@AEAV<lambda_44731a7d0e6d81c3e6aa82d741081786>@@V<lambda_601a2a7da3b7a96e9554ac7215c4b07c>@@@?$__crt_seh_guarded_call@P6AXH@Z@@QEAAP6AXH@Z$$QEAV<lambda_450d765d439847d4c735a33c368b5fc0>@@AEAV<lambda_44731a7d0e6d81c3e6aa82d741081786>@@$$QEAV<lambda_601a2a7da3b7a96e9554ac7215c4b07c>@@@Z 000000018001f388 f   libucrt:signal.obj
 0001:0001e700       ??$?RV<lambda_842d9ff0dc9ef11c61343bbaebe7f885>@@AEAV<lambda_c5860995281e5c4ce005b3de8f5874ee>@@V<lambda_d90129c13df834fdcbf8d2b88dafcf2d>@@@?$__crt_seh_guarded_call@X@@QEAAX$$QEAV<lambda_842d9ff0dc9ef11c61343bbaebe7f885>@@AEAV<lambda_c5860995281e5c4ce005b3de8f5874ee>@@$$QEAV<lambda_d90129c13df834fdcbf8d2b88dafcf2d>@@@Z 000000018001f700 f   libucrt:fflush.obj
 0001:0001e79c       ??$?RV<lambda_886d6c58226a84441f68b9f2b8217b83>@@AEAV<lambda_ab61a845afdef5b7c387490eaf3616ee>@@V<lambda_f7f22ab5edc0698d5f6905b0d3f44752>@@@?$__crt_seh_guarded_call@X@@QEAAX$$QEAV<lambda_886d6c58226a84441f68b9f2b8217b83>@@AEAV<lambda_ab61a845afdef5b7c387490eaf3616ee>@@$$QEAV<lambda_f7f22ab5edc0698d5f6905b0d3f44752>@@@Z 000000018001f79c f   libucrt:fflush.obj
 0001:0001e87c       ?common_flush_all@@YAH_N@Z 000000018001f87c f   libucrt:fflush.obj
 0001:0001efc8       ?free_crt_array_internal@@YAXQEAPEBX_K@Z 000000018001ffc8 f   libucrt:inittime.obj
 0001:00020bac       memcpy_s                   0000000180021bac f   libucrt:cfout.obj
 0001:000217b0       fallbackMethod             00000001800227b0 f   libucrt:strpbrk.obj
 0001:00021b5c       $LN78                      0000000180022b5c     libucrt:strpbrk.obj
 0001:00021b98       $LN77                      0000000180022b98     libucrt:strpbrk.obj
 0001:00021bd8       $LN76                      0000000180022bd8     libucrt:strpbrk.obj
 0001:00021cb4       ?__acrt_LCMapStringA_stat@@YAHPEAU__crt_locale_pointers@@PEB_WKPEBDHPEADHHH@Z 0000000180022cb4 f   libucrt:lcmapstringa.obj
 0001:0002206c       ?initialize_multibyte@@YAHXZ 000000018002306c f   libucrt:multibyte_initializer.obj
 0001:00022084       ??$?RV<lambda_a37b2b86f63e897a80ea819b0eb08c01>@@AEAV<lambda_38ce7e780aa69e748d6df282ebc68efe>@@V<lambda_99fb1378e971ab6e7edea83e3a7a83a2>@@@?$__crt_seh_guarded_call@H@@QEAAH$$QEAV<lambda_a37b2b86f63e897a80ea819b0eb08c01>@@AEAV<lambda_38ce7e780aa69e748d6df282ebc68efe>@@$$QEAV<lambda_99fb1378e971ab6e7edea83e3a7a83a2>@@@Z 0000000180023084 f   libucrt:commit.obj
 0001:000221a4       ?write_double_translated_ansi_nolock@@YA?AUwrite_result@?A0x17268360@@HQEBDIAEAV__crt_cached_ptd_host@@@Z 00000001800231a4 f   libucrt:write.obj
 0001:00022630       ?write_text_ansi_nolock@@YA?AUwrite_result@?A0x17268360@@HQEBDI@Z 0000000180023630 f   libucrt:write.obj
 0001:00022734       ?write_text_utf16le_nolock@@YA?AUwrite_result@?A0x17268360@@HQEBDI@Z 0000000180023734 f   libucrt:write.obj
 0001:00022850       ?write_text_utf8_nolock@@YA?AUwrite_result@?A0x17268360@@HQEBDI@Z 0000000180023850 f   libucrt:write.obj
 0001:00023030       $$000000                   0000000180024030     libucrt:log10.obj
 0001:00023acc       ?_fclose_internal@@YAHQEAU_iobuf@@AEAV__crt_cached_ptd_host@@@Z 0000000180024acc f   libucrt:fclose.obj
 0001:00023b48       ?_fclose_nolock_internal@@YAHQEAU_iobuf@@AEAV__crt_cached_ptd_host@@@Z 0000000180024b48 f   libucrt:fclose.obj
 0001:00023c84       ??$common_lseek_nolock@_J@@YA_JH_JHAEAV__crt_cached_ptd_host@@@Z 0000000180024c84 f   libucrt:lseek.obj
 0001:00023e0c       common_control87           0000000180024e0c f   libucrt:ieee.obj
 0001:000240cc       _call_matherr              00000001800250cc f   libucrt:libm_error.obj
 0001:00024134       _exception_enabled         0000000180025134 f   libucrt:libm_error.obj
 0001:000243d0       _log_special_common        00000001800253d0 f   libucrt:log_special.obj
 0001:00024468       ??$?RV<lambda_ad8af0d99a0adf03d037d7dffe354bb5>@@AEAV<lambda_c9ba49e555ba839a7b07aa3fbecb7617>@@V<lambda_2f1ebd5d68526518146ae959c9e734c8>@@@?$__crt_seh_guarded_call@H@@QEAAH$$QEAV<lambda_ad8af0d99a0adf03d037d7dffe354bb5>@@AEAV<lambda_c9ba49e555ba839a7b07aa3fbecb7617>@@$$QEAV<lambda_2f1ebd5d68526518146ae959c9e734c8>@@@Z 0000000180025468 f   libucrt:close.obj
 0001:000247c0       $$000000                   00000001800257c0     libucrt:fpsr.obj
 0001:00024f40       $$000000                   0000000180025f40     LIBCMT:guard_dispatch.obj
 0001:00024f60       $$000000                   0000000180025f60     LIBCMT:guard_xfg_dispatch.obj
 0001:00024f80       ?filt$0@?0??_AtlVerifyStackAvailable@_ATL_SAFE_ALLOCA_IMPL@ATL@@YA_N_K@Z@4HA 0000000180025f80 f   RemoteOrderDisplay.obj
 0001:00024fa1       __scrt_is_nonwritable_in_current_image$filt$0 0000000180025fa1 f   LIBCMT:utility.obj
 0001:00024fb9       ?catch$0@?0???2@YAPEAX_KAEBUnothrow_t@std@@@Z@4HA 0000000180025fb9 f   LIBCMT:new_scalar_nothrow.obj
 0001:00024fc6       __catch$??2@YAPEAX_KAEBUnothrow_t@std@@@Z$0 0000000180025fc6 f   LIBCMT:new_scalar_nothrow.obj
 0001:00024fd7       ?fin$0@?0??dllmain_crt_process_attach@@YAHQEAUHINSTANCE__@@QEAX@Z@4HA 0000000180025fd7 f   LIBCMT:dll_dllmain.obj
 0001:00024fee       ?fin$0@?0??dllmain_crt_process_detach@@YAH_N@Z@4HA 0000000180025fee f   LIBCMT:dll_dllmain.obj
 0001:00025007       ?fin$1@?0??dllmain_crt_process_detach@@YAH_N@Z@4HA 0000000180026007 f   LIBCMT:dll_dllmain.obj
 0001:0002501b       ?filt$0@?0??dllmain_dispatch@@YAHQEAUHINSTANCE__@@KQEAX@Z@4HA 000000018002601b f   LIBCMT:dll_dllmain.obj
 0001:00025051       ?filt$0@?0???$_CallSETranslator@V__FrameHandler3@@@@YAHPEAUEHExceptionRecord@@PEA_KPEAU_CONTEXT@@PEAU_xDISPATCHER_CONTEXT@@PEBU_s_FuncInfo@@K1H@Z@4HA 0000000180026051 f   libvcruntime:risctrnsctrl.obj
 0001:000250e2       ?filt$0@?0???$_CallSETranslator@V__FrameHandler4@@@@YAHPEAUEHExceptionRecord@@PEA_KPEAU_CONTEXT@@PEAU_xDISPATCHER_CONTEXT@@PEAUFuncInfo4@FH4@@K1H@Z@4HA 00000001800260e2 f   libvcruntime:risctrnsctrl.obj
 0001:00025181       __DestructExceptionObject$filt$0 0000000180026181 f   libvcruntime:ehhelpers.obj
 0001:00025217       ?filt$0@?0??CxxCallCatchBlock@__FrameHandler3@@SAPEAXPEAU_EXCEPTION_RECORD@@@Z@4HA 0000000180026217 f   libvcruntime:frame.obj
 0001:0002523c       ?fin$1@?0??CxxCallCatchBlock@__FrameHandler3@@SAPEAXPEAU_EXCEPTION_RECORD@@@Z@4HA 000000018002623c f   libvcruntime:frame.obj
 0001:000252c2       ?filt$0@?0??CxxCallCatchBlock@__FrameHandler4@@SAPEAXPEAU_EXCEPTION_RECORD@@@Z@4HA 00000001800262c2 f   libvcruntime:frame.obj
 0001:000252f1       ?fin$1@?0??CxxCallCatchBlock@__FrameHandler4@@SAPEAXPEAU_EXCEPTION_RECORD@@@Z@4HA 00000001800262f1 f   libvcruntime:frame.obj
 0001:00025382       ?filt$0@?0??FrameUnwindToState@__FrameHandler3@@SAXPEA_KPEAU_xDISPATCHER_CONTEXT@@PEBU_s_FuncInfo@@H@Z@4HA 0000000180026382 f   libvcruntime:frame.obj
 0001:00025398       ?fin$1@?0??FrameUnwindToState@__FrameHandler3@@SAXPEA_KPEAU_xDISPATCHER_CONTEXT@@PEBU_s_FuncInfo@@H@Z@4HA 0000000180026398 f   libvcruntime:frame.obj
 0001:000253bb       ?filt$0@?0??FrameUnwindToState@__FrameHandler4@@SAXPEA_KPEAU_xDISPATCHER_CONTEXT@@PEAUFuncInfo4@FH4@@H@Z@4HA 00000001800263bb f   libvcruntime:frame.obj
 0001:000253d1       ?fin$1@?0??FrameUnwindToState@__FrameHandler4@@SAXPEA_KPEAU_xDISPATCHER_CONTEXT@@PEAUFuncInfo4@FH4@@H@Z@4HA 00000001800263d1 f   libvcruntime:frame.obj
 0001:000253f4       ?fin$0@?0???$?RV<lambda_0ae27a3a962d80f24befdcbee591983d>@@AEAV<lambda_8d0ee55de4b1038c4002e0adecdf1839>@@V<lambda_dc504788e8f1664fe9b84e20bfb512f2>@@@?$__crt_seh_guarded_call@X@@QEAAX$$QEAV<lambda_0ae27a3a962d80f24befdcbee591983d>@@AEAV<lambda_8d0ee55de4b1038c4002e0adecdf1839>@@$$QEAV<lambda_dc504788e8f1664fe9b84e20bfb512f2>@@@Z@4HA 00000001800263f4 f   libucrt:per_thread_data.obj
 0001:000253f4       ?fin$0@?0???$?RV<lambda_2d41944a1d46af3157314b8a01080d33>@@AEAV<lambda_8f455de75cd7d7f24b4096f044d8b9e6>@@V<lambda_aa500f224e6afead328df44964fe2772>@@@?$__crt_seh_guarded_call@X@@QEAAX$$QEAV<lambda_2d41944a1d46af3157314b8a01080d33>@@AEAV<lambda_8f455de75cd7d7f24b4096f044d8b9e6>@@$$QEAV<lambda_aa500f224e6afead328df44964fe2772>@@@Z@4HA 00000001800263f4 f   libucrt:per_thread_data.obj
 0001:000253f4       ?fin$0@?0???$?RV<lambda_aa87e3671a710a21b5dc78c0bdf72e11>@@AEAV<lambda_92619d2358a28f41a33ba319515a20b9>@@V<lambda_6992ecaafeb10aed2b74cb1fae11a551>@@@?$__crt_seh_guarded_call@X@@QEAAX$$QEAV<lambda_aa87e3671a710a21b5dc78c0bdf72e11>@@AEAV<lambda_92619d2358a28f41a33ba319515a20b9>@@$$QEAV<lambda_6992ecaafeb10aed2b74cb1fae11a551>@@@Z@4HA 00000001800263f4 f   libucrt:per_thread_data.obj
 0001:000253f4       ?fin$0@?0???$?RV<lambda_f2e299630e499de9f9a165e60fcd3db5>@@AEAV<lambda_2ae9d31cdba2644fcbeaf08da7c24588>@@V<lambda_40d01ff24d0e7b3814fdbdcee8eab3c7>@@@?$__crt_seh_guarded_call@X@@QEAAX$$QEAV<lambda_f2e299630e499de9f9a165e60fcd3db5>@@AEAV<lambda_2ae9d31cdba2644fcbeaf08da7c24588>@@$$QEAV<lambda_40d01ff24d0e7b3814fdbdcee8eab3c7>@@@Z@4HA 00000001800263f4 f   libucrt:per_thread_data.obj
 0001:000253f4       ?fin$0@?0???$?RV<lambda_450d765d439847d4c735a33c368b5fc0>@@AEAV<lambda_44731a7d0e6d81c3e6aa82d741081786>@@V<lambda_601a2a7da3b7a96e9554ac7215c4b07c>@@@?$__crt_seh_guarded_call@P6AXH@Z@@QEAAP6AXH@Z$$QEAV<lambda_450d765d439847d4c735a33c368b5fc0>@@AEAV<lambda_44731a7d0e6d81c3e6aa82d741081786>@@$$QEAV<lambda_601a2a7da3b7a96e9554ac7215c4b07c>@@@Z@4HA 00000001800263f4 f   libucrt:signal.obj
 0001:000253f4       ?fin$0@?0???$?RV<lambda_d80eeec6fff315bfe5c115232f3240e3>@@AEAV<lambda_6e4b09c48022b2350581041d5f6b0c4c>@@V<lambda_2358e3775559c9db80273638284d5e45>@@@?$__crt_seh_guarded_call@X@@QEAAX$$QEAV<lambda_d80eeec6fff315bfe5c115232f3240e3>@@AEAV<lambda_6e4b09c48022b2350581041d5f6b0c4c>@@$$QEAV<lambda_2358e3775559c9db80273638284d5e45>@@@Z@4HA 00000001800263f4 f   libucrt:exit.obj
 0001:000253f4       ?fin$0@?0???$?RV<lambda_638799b9deba96c50f710eeac98168cd>@@AEAV<lambda_22ebabd17bc4fa466a2aca6d8deb888d>@@V<lambda_a6f7d7db0129f75315ebf26d50c089f1>@@@?$__crt_seh_guarded_call@H@@QEAAH$$QEAV<lambda_638799b9deba96c50f710eeac98168cd>@@AEAV<lambda_22ebabd17bc4fa466a2aca6d8deb888d>@@$$QEAV<lambda_a6f7d7db0129f75315ebf26d50c089f1>@@@Z@4HA 00000001800263f4 f   libucrt:onexit.obj
 0001:000253f4       ?fin$0@?0???$?RV<lambda_7777bce6b2f8c936911f934f8298dc43>@@AEAV<lambda_f03950bc5685219e0bcd2087efbe011e>@@V<lambda_3883c3dff614d5e0c5f61bb1ac94921c>@@@?$__crt_seh_guarded_call@H@@QEAAH$$QEAV<lambda_7777bce6b2f8c936911f934f8298dc43>@@AEAV<lambda_f03950bc5685219e0bcd2087efbe011e>@@$$QEAV<lambda_3883c3dff614d5e0c5f61bb1ac94921c>@@@Z@4HA 00000001800263f4 f   libucrt:onexit.obj
 0001:0002540e       ?filt$0@?0???R<lambda_6e4b09c48022b2350581041d5f6b0c4c>@@QEBA@XZ@4HA 000000018002640e f   libucrt:exit.obj
 0001:0002543b       _query_new_handler$fin$0   000000018002643b f   libucrt:new_handler.obj
 0001:00025451       ?fin$0@?0???$?RV<lambda_410d79af7f07d98d83a3f525b3859a53>@@AEAV<lambda_3e16ef9562a7dcce91392c22ab16ea36>@@V<lambda_38119f0e861e05405d8a144b9b982f0a>@@@?$__crt_seh_guarded_call@X@@QEAAX$$QEAV<lambda_410d79af7f07d98d83a3f525b3859a53>@@AEAV<lambda_3e16ef9562a7dcce91392c22ab16ea36>@@$$QEAV<lambda_38119f0e861e05405d8a144b9b982f0a>@@@Z@4HA 0000000180026451 f   libucrt:wsetlocale.obj
 0001:0002546b       __acrt_initialize_lowio$fin$0 000000018002646b f   libucrt:ioinit.obj
 0001:0002546b       __acrt_lowio_ensure_fh_exists$fin$0 000000018002646b f   libucrt:osfinfo.obj
 0001:00025484       ?fin$0@?0???$?RV<lambda_efdfa57d1f175319df784efa44bb7b81>@@AEAV<lambda_5f0a4c1567f8adc6734073e5d1e1b35c>@@V<lambda_2e8a7d3640ea6ccb4c2413664c2db6fd>@@@?$__crt_seh_guarded_call@X@@QEAAX$$QEAV<lambda_efdfa57d1f175319df784efa44bb7b81>@@AEAV<lambda_5f0a4c1567f8adc6734073e5d1e1b35c>@@$$QEAV<lambda_2e8a7d3640ea6ccb4c2413664c2db6fd>@@@Z@4HA 0000000180026484 f   libucrt:mbctype.obj
 0001:0002549e       ?fin$0@?0??update_thread_multibyte_data_internal@@YAPEAU__crt_multibyte_data@@QEAU__acrt_ptd@@QEAPEAU1@@Z@4HA 000000018002649e f   libucrt:mbctype.obj
 0001:000254b7       raise$fin$0                00000001800264b7 f   libucrt:signal.obj
 0001:000254d8       ?fin$0@?0???$?RV<lambda_842d9ff0dc9ef11c61343bbaebe7f885>@@AEAV<lambda_c5860995281e5c4ce005b3de8f5874ee>@@V<lambda_d90129c13df834fdcbf8d2b88dafcf2d>@@@?$__crt_seh_guarded_call@X@@QEAAX$$QEAV<lambda_842d9ff0dc9ef11c61343bbaebe7f885>@@AEAV<lambda_c5860995281e5c4ce005b3de8f5874ee>@@$$QEAV<lambda_d90129c13df834fdcbf8d2b88dafcf2d>@@@Z@4HA 00000001800264d8 f   libucrt:fflush.obj
 0001:000254f3       ?fin$0@?0???$?RV<lambda_886d6c58226a84441f68b9f2b8217b83>@@AEAV<lambda_ab61a845afdef5b7c387490eaf3616ee>@@V<lambda_f7f22ab5edc0698d5f6905b0d3f44752>@@@?$__crt_seh_guarded_call@X@@QEAAX$$QEAV<lambda_886d6c58226a84441f68b9f2b8217b83>@@AEAV<lambda_ab61a845afdef5b7c387490eaf3616ee>@@$$QEAV<lambda_f7f22ab5edc0698d5f6905b0d3f44752>@@@Z@4HA 00000001800264f3 f   libucrt:fflush.obj
 0001:00025510       __acrt_update_thread_locale_data$fin$0 0000000180026510 f   libucrt:locale_refcounting.obj
 0001:00025529       _fcloseall$fin$0           0000000180026529 f   libucrt:closeall.obj
 0001:00025542       ?fin$0@?0???$?RV<lambda_ad8af0d99a0adf03d037d7dffe354bb5>@@AEAV<lambda_c9ba49e555ba839a7b07aa3fbecb7617>@@V<lambda_2f1ebd5d68526518146ae959c9e734c8>@@@?$__crt_seh_guarded_call@H@@QEAAH$$QEAV<lambda_ad8af0d99a0adf03d037d7dffe354bb5>@@AEAV<lambda_c9ba49e555ba839a7b07aa3fbecb7617>@@$$QEAV<lambda_2f1ebd5d68526518146ae959c9e734c8>@@@Z@4HA 0000000180026542 f   libucrt:close.obj
 0001:00025542       ?fin$0@?0???$?RV<lambda_a37b2b86f63e897a80ea819b0eb08c01>@@AEAV<lambda_38ce7e780aa69e748d6df282ebc68efe>@@V<lambda_99fb1378e971ab6e7edea83e3a7a83a2>@@@?$__crt_seh_guarded_call@H@@QEAAH$$QEAV<lambda_a37b2b86f63e897a80ea819b0eb08c01>@@AEAV<lambda_38ce7e780aa69e748d6df282ebc68efe>@@$$QEAV<lambda_99fb1378e971ab6e7edea83e3a7a83a2>@@@Z@4HA 0000000180026542 f   libucrt:commit.obj
 0001:0002555c       _write_internal$fin$0      000000018002655c f   libucrt:write.obj
 0001:00025573       ?fin$0@?0??_fclose_internal@@YAHQEAU_iobuf@@AEAV__crt_cached_ptd_host@@@Z@4HA 0000000180026573 f   libucrt:fclose.obj
 0001:0002558b       _ctrlfp$filt$0             000000018002658b f   libucrt:fpctrl.obj
 0001:0002558b       common_control87$filt$0    000000018002658b f   libucrt:ieee.obj
 0001:000255c0       _IsNonwritableInCurrentImage$filt$0 00000001800265c0 f   LIBCMT:pesect.obj
 0001:000255e0       ??__F_AtlComModule@ATL@@YAXXZ 00000001800265e0 f   OposVariant.obj
 0001:000255ec       ??__F_AtlWinModule@ATL@@YAXXZ 00000001800265ec f   OposVariant.obj
 0001:00025630       ??__F_Module@@YAXXZ        0000000180026630 f   RemoteOrderDisplay.obj
 0001:0002564c       ??__F_AtlBaseModule@ATL@@YAXXZ 000000018002664c f   atls:atlbase.obj
 0002:00000670       ?_AtlBaseModule$initializer$@ATL@@3P6AXXZEA 0000000180027670     atls:atlbase.obj
 0002:00000678       ?_AtlComModule$initializer$@ATL@@3P6AXXZEA 0000000180027678     OposVariant.obj
 0002:00000680       ?_AtlWinModule$initializer$@ATL@@3P6AXXZEA 0000000180027680     OposVariant.obj
 0002:00000688       ?_Module$initializer$@@3P6AXXZEA 0000000180027688     RemoteOrderDisplay.obj
 0002:00000690       ??pConnMap$initializer$@?$IConnectionPointContainerImpl@VCOPOSRemoteOrderDisplay@@@ATL@@0P6AXXZEA@@3P6AXXZEA 0000000180027690     RemoteOrderDisplay.obj
 0002:000006a8       ?__scrt_initialize_tss_var@@3P6AHXZEA 00000001800276a8     LIBCMT:thread_safe_statics.obj
 0002:00002aa8       GS_ExceptionPointers       0000000180029aa8     LIBCMT:gs_report.obj
 0002:00002c90       ?ExceptionTemplate@?1??UnwindNestedFrames@__FrameHandler4@@SAXPEA_KPEAUEHExceptionRecord@@PEAU_CONTEXT@@0PEAXPEAUFuncInfo4@FH4@@HHPEAUHandlerType4@6@PEAU_xDISPATCHER_CONTEXT@@E@Z@4U_EXCEPTION_RECORD@@B 0000000180029c90     libvcruntime:risctrnsctrl.obj
 0002:00002d30       ?ExceptionTemplate@?1??UnwindNestedFrames@__FrameHandler3@@SAXPEA_KPEAUEHExceptionRecord@@PEAU_CONTEXT@@0PEAXPEBU_s_FuncInfo@@HHPEBU_s_HandlerType@@PEAU_xDISPATCHER_CONTEXT@@E@Z@4U_EXCEPTION_RECORD@@B 0000000180029d30     libvcruntime:risctrnsctrl.obj
 0002:00002e00       ?tokenTable@@3QBUStringLiteral@@B 0000000180029e00     libvcruntime:undname.obj
 0002:00002f10       ?nameTable@@3QBUStringLiteral@@B 0000000180029f10     libvcruntime:undname.obj
 0002:00003440       ?rttiTable@@3QBUStringLiteral@@B 000000018002a440     libvcruntime:undname.obj
 0002:00003490       ?IndirectionName@@3QBUStringLiteral@@B 000000018002a490     libvcruntime:undname.obj
 0002:000034f0       ?PrefixName@@3QBUStringLiteral@@B 000000018002a4f0     libvcruntime:undname.obj
 0002:00003bd8       ?module_names@?A0xbc0cc709@@3QBQEB_WB 000000018002abd8     libvcruntime:winapi_downlevel.obj
 0002:00003c98       ?candidate_modules@?1??try_get_FlsAlloc@@YAP6AKP6AXPEAX@Z@ZXZ@4QBW4module_id@?A0xbc0cc709@@B 000000018002ac98     libvcruntime:winapi_downlevel.obj
 0002:00003cb0       ?candidate_modules@?1??try_get_FlsFree@@YAP6AHK@ZXZ@4QBW4module_id@?A0xbc0cc709@@B 000000018002acb0     libvcruntime:winapi_downlevel.obj
 0002:00003cc0       ?candidate_modules@?1??try_get_FlsGetValue@@YAP6APEAXK@ZXZ@4QBW4module_id@?A0xbc0cc709@@B 000000018002acc0     libvcruntime:winapi_downlevel.obj
 0002:00003cd8       ?candidate_modules@?1??try_get_FlsSetValue@@YAP6AHKPEAX@ZXZ@4QBW4module_id@?A0xbc0cc709@@B 000000018002acd8     libvcruntime:winapi_downlevel.obj
 0002:00003cf0       ?candidate_modules@?1??try_get_InitializeCriticalSectionEx@@YAP6AHPEAU_RTL_CRITICAL_SECTION@@KK@ZXZ@4QBW4module_id@?A0xbc0cc709@@B 000000018002acf0     libvcruntime:winapi_downlevel.obj
 0002:00003d20       ?errtable@@3QBUerrentry@?A0x31fdb9ec@@B 000000018002ad20     libucrt:errno.obj
 0002:00004088       $cppxdata$?try_cor_exit_process@@YAXI@Z 000000018002b088     libucrt:exit.obj
 0002:000040b0       $cppxdata$?common_exit@@YAXHW4_crt_exit_cleanup_mode@@W4_crt_exit_return_mode@@@Z 000000018002b0b0     libucrt:exit.obj
 0002:00004100       $cppxdata$__dcrt_uninitialize_environments_nolock 000000018002b100     libucrt:environment_initialization.obj
 0002:00004128       $cppxdata$_execute_onexit_table 000000018002b128     libucrt:onexit.obj
 0002:00004150       __acrt_initializers        000000018002b150     libucrt:initialization.obj
 0002:000048d0       ?module_names@?A0x391cf84c@@3QBQEB_WB 000000018002b8d0     libucrt:winapi_thunks.obj
 0002:00004dd8       ?candidate_modules@?1??try_get_AreFileApisANSI@@YAP6AHXZXZ@4QBW4module_id@?A0x391cf84c@@B 000000018002bdd8     libucrt:winapi_thunks.obj
 0002:00004df0       ?candidate_modules@?1??try_get_InitializeCriticalSectionEx@@YAP6AHPEAU_RTL_CRITICAL_SECTION@@KK@ZXZ@4QBW4module_id@?A0x391cf84c@@B 000000018002bdf0     libucrt:winapi_thunks.obj
 0002:00004df8       ?candidate_modules@?1??try_get_LCMapStringEx@@YAP6AHPEB_WK0HPEA_WHPEAU_nlsversioninfo@@PEAX_J@ZXZ@4QBW4module_id@?A0x391cf84c@@B 000000018002bdf8     libucrt:winapi_thunks.obj
 0002:00004e10       ?candidate_modules@?1??try_get_LocaleNameToLCID@@YAP6AKPEB_WK@ZXZ@4QBW4module_id@?A0x391cf84c@@B 000000018002be10     libucrt:winapi_thunks.obj
 0002:00004e2c       ?candidate_modules@?1??try_get_AppPolicyGetProcessTerminationMethod@@YAP6AJPEAXPEAW4AppPolicyProcessTerminationMethod@@@ZXZ@4QBW4module_id@?A0x391cf84c@@B 000000018002be2c     libucrt:winapi_thunks.obj
 0002:00004e58       ?candidate_modules@?1??try_get_SetThreadStackGuarantee@@YAP6AHPEAK@ZXZ@4QBW4module_id@?A0x391cf84c@@B 000000018002be58     libucrt:winapi_thunks.obj
 0002:00004e80       ?strings@?1??fp_format_nan_or_infinity@@YAHW4__acrt_fp_class@@_NPEAD_K1@Z@4QAY03QEBDA 000000018002be80     libucrt:cvt.obj
 0002:00004f58       ?_mb_locale_names@@3QBQEB_WB 000000018002bf58     libucrt:mbctype.obj
 0002:000055d0       ?LcidToLocaleNameTable@?A0x881e4c05@@3QBULcidToLocaleName@1@B 000000018002c5d0     libucrt:lcidtoname_downlevel.obj
 0002:00007020       ?LocaleNameToIndexTable@?A0x881e4c05@@3QBULocaleNameIndex@1@B 000000018002e020     libucrt:lcidtoname_downlevel.obj
 0002:000092b0       $cppxdata$?write_double_translated_ansi_nolock@@YA?AUwrite_result@?A0x17268360@@HQEBDIAEAV__crt_cached_ptd_host@@@Z 00000001800302b0     libucrt:write.obj
 0002:000092e0       __real_ninf                00000001800302e0     libucrt:log10.obj
 0002:000092f0       __real_inf                 00000001800302f0     libucrt:log10.obj
 0002:00009300       __real_neg_qnan            0000000180030300     libucrt:log10.obj
 0002:00009310       __real_qnanbit             0000000180030310     libucrt:log10.obj
 0002:00009320       __int_1023                 0000000180030320     libucrt:log10.obj
 0002:00009330       __mask_001                 0000000180030330     libucrt:log10.obj
 0002:00009340       __mask_mant                0000000180030340     libucrt:log10.obj
 0002:00009350       __mask_mant_top8           0000000180030350     libucrt:log10.obj
 0002:00009360       __mask_mant9               0000000180030360     libucrt:log10.obj
 0002:00009370       __real_log10_e             0000000180030370     libucrt:log10.obj
 0002:00009380       __real_log10_e_lead        0000000180030380     libucrt:log10.obj
 0002:00009390       __real_log10_e_tail        0000000180030390     libucrt:log10.obj
 0002:000093a0       __real_log10_2_lead        00000001800303a0     libucrt:log10.obj
 0002:000093b0       __real_log10_2_tail        00000001800303b0     libucrt:log10.obj
 0002:000093c0       __real_two                 00000001800303c0     libucrt:log10.obj
 0002:000093d0       __real_one                 00000001800303d0     libucrt:log10.obj
 0002:000093e0       __real_half                00000001800303e0     libucrt:log10.obj
 0002:000093f0       __mask_100                 00000001800303f0     libucrt:log10.obj
 0002:00009400       __real_1_over_512          0000000180030400     libucrt:log10.obj
 0002:00009410       __real_1_over_2            0000000180030410     libucrt:log10.obj
 0002:00009420       __real_1_over_3            0000000180030420     libucrt:log10.obj
 0002:00009430       __real_1_over_4            0000000180030430     libucrt:log10.obj
 0002:00009440       __real_1_over_5            0000000180030440     libucrt:log10.obj
 0002:00009450       __real_1_over_6            0000000180030450     libucrt:log10.obj
 0002:00009460       __real_neg_1023            0000000180030460     libucrt:log10.obj
 0002:00009470       __mask_2045                0000000180030470     libucrt:log10.obj
 0002:00009480       __real_threshold           0000000180030480     libucrt:log10.obj
 0002:00009490       __real_near_one_lt         0000000180030490     libucrt:log10.obj
 0002:000094a0       __real_near_one_gt         00000001800304a0     libucrt:log10.obj
 0002:000094b0       __real_min_norm            00000001800304b0     libucrt:log10.obj
 0002:000094c0       __real_notsign             00000001800304c0     libucrt:log10.obj
 0002:000094d0       __real_ca1                 00000001800304d0     libucrt:log10.obj
 0002:000094e0       __real_ca2                 00000001800304e0     libucrt:log10.obj
 0002:000094f0       __real_ca3                 00000001800304f0     libucrt:log10.obj
 0002:00009500       __real_ca4                 0000000180030500     libucrt:log10.obj
 0002:00009510       __mask_lower               0000000180030510     libucrt:log10.obj
 0002:00009520       __flag_x_zero              0000000180030520     libucrt:log10.obj
 0002:00009524       __flag_x_neg               0000000180030524     libucrt:log10.obj
 0002:00009528       __flag_x_nan               0000000180030528     libucrt:log10.obj
 0002:0000ad80       __real@433fffffffffffff    0000000180031d80     libucrt:fpsr.obj
 0002:0000ad88       __real@c33fffffffffffff    0000000180031d88     libucrt:fpsr.obj
 0002:0000b6d0       $unwind$?cw_memcpy@@YAHPEA_WPEBDH@Z 00000001800326d0     CWString.obj
 0002:0000b6d0       $unwind$_invalid_parameter_noinfo 00000001800326d0     libucrt:invalid_parameter.obj
 0002:0000b6d0       $unwind$?state_case_size@?$output_processor@_WV?$string_output_adapter@_W@__crt_stdio_output@@V?$format_validation_base@_WV?$string_output_adapter@_W@__crt_stdio_output@@@2@@__crt_stdio_output@@AEAA_NXZ 00000001800326d0     libucrt:output.obj
 0002:0000b6d0       $unwind$_log10_special     00000001800326d0     libucrt:log_special.obj
 0002:0000b6d8       $unwind$?cw_strcpy@@YAHPEA_WPEBD@Z 00000001800326d8     CWString.obj
 0002:0000b6d8       $unwind$??1OposDispParms@@QEAA@XZ 00000001800326d8     OposVariant.obj
 0002:0000b6d8       $unwind$??__E_AtlComModule@ATL@@YAXXZ 00000001800326d8     OposVariant.obj
 0002:0000b6d8       $unwind$??__E_AtlWinModule@ATL@@YAXXZ 00000001800326d8     OposVariant.obj
 0002:0000b6d8       $unwind$??__F_AtlWinModule@ATL@@YAXXZ 00000001800326d8     OposVariant.obj
 0002:0000b6d8       $unwind$?GetLONG@OposVariant@@QEAAJXZ 00000001800326d8     OposVariant.obj
 0002:0000b6d8       $unwind$??__E?pConnMap@?$IConnectionPointContainerImpl@VCOPOSRemoteOrderDisplay@@@ATL@@0PEBU_ATL_CONNMAP_ENTRY@2@EB@@YAXXZ 00000001800326d8     RemoteOrderDisplay.obj
 0002:0000b6d8       $unwind$?AddReplacement@CRegObject@ATL@@UEAAJPEB_W0@Z 00000001800326d8     RemoteOrderDisplay.obj
 0002:0000b6d8       $unwind$?AtlHresultFromLastError@ATL@@YAJXZ 00000001800326d8     RemoteOrderDisplay.obj
 0002:0000b6d8       $unwind$?AtlThrowImpl@ATL@@YAXJ@Z 00000001800326d8     RemoteOrderDisplay.obj
 0002:0000b6d8       $unwind$?CreateInstance@CComClassFactory@ATL@@UEAAJPEAUIUnknown@@AEBU_GUID@@PEAPEAX@Z 00000001800326d8     RemoteOrderDisplay.obj
 0002:0000b6d8       $unwind$?DefaultReflectionHandler@?$CWindowImplRoot@VCWindow@ATL@@@ATL@@SAHPEAUHWND__@@I_K_JAEA_J@Z 00000001800326d8     RemoteOrderDisplay.obj
 0002:0000b6d8       $unwind$?EnumAdvise@?$IOleObjectImpl@VCOPOSRemoteOrderDisplay@@@ATL@@UEAAJPEAPEAUIEnumSTATDATA@@@Z 00000001800326d8     RemoteOrderDisplay.obj
 0002:0000b6d8       $unwind$?FireViewChange@CComControlBase@ATL@@QEAAJXZ 00000001800326d8     RemoteOrderDisplay.obj
 0002:0000b6d8       $unwind$?GetAdvise@?$IViewObjectExImpl@VCOPOSRemoteOrderDisplay@@@ATL@@UEAAJPEAK0PEAPEAUIAdviseSink@@@Z 00000001800326d8     RemoteOrderDisplay.obj
 0002:0000b6d8       $unwind$?LockServer@CComClassFactory@ATL@@UEAAJH@Z 00000001800326d8     RemoteOrderDisplay.obj
 0002:0000b6d8       $unwind$?OnDocWindowActivate@?$IOleInPlaceActiveObjectImpl@VCOPOSRemoteOrderDisplay@@@ATL@@UEAAJH@Z 00000001800326d8     RemoteOrderDisplay.obj
 0002:0000b6d8       $unwind$?Unadvise@?$IOleObjectImpl@VCOPOSRemoteOrderDisplay@@@ATL@@UEAAJK@Z 00000001800326d8     RemoteOrderDisplay.obj
 0002:0000b6d8       $unwind$?_LocCPQueryInterface@?$IConnectionPointImpl@VCOPOSRemoteOrderDisplay@@$1?DIID__IOPOSRemoteOrderDisplayEvents@@3U_GUID@@BVCComDynamicUnkArray@ATL@@@ATL@@UEAAJAEBU_GUID@@PEAPEAX@Z 00000001800326d8     RemoteOrderDisplay.obj
 0002:0000b6d8       $unwind$?_LocCPQueryInterface@?$IConnectionPointImpl@VCOPOSRemoteOrderDisplay@@$1?IID_IPropertyNotifySink@@3U_GUID@@BVCComDynamicUnkArray@ATL@@@ATL@@UEAAJAEBU_GUID@@PEAPEAX@Z 00000001800326d8     RemoteOrderDisplay.obj
 0002:0000b6d8       $unwind$?FinalConstruct@COPOSRemoteOrderDisplay@@QEAAJXZ 00000001800326d8     RemoteOrderDisplayImpl.obj
 0002:0000b6d8       $unwind$?get_ResultCode@COPOSRemoteOrderDisplay@@UEAAJPEAJ@Z 00000001800326d8     RemoteOrderDisplayImpl.obj
 0002:0000b6d8       $unwind$?get_State@COPOSRemoteOrderDisplay@@UEAAJPEAJ@Z 00000001800326d8     RemoteOrderDisplayImpl.obj
 0002:0000b6d8       $unwind$__dcrt_terminate_console_output 00000001800326d8     libucrt:initcon.obj
 0002:0000b6d8       $unwind$??$uninitialize_environment_internal@D@@YAXAEAPEAPEAD@Z 00000001800326d8     libucrt:environment_initialization.obj
 0002:0000b6d8       $unwind$??$uninitialize_environment_internal@_W@@YAXAEAPEAPEA_W@Z 00000001800326d8     libucrt:environment_initialization.obj
 0002:0000b6d8       $unwind$__acrt_initialize_heap 00000001800326d8     libucrt:heap_handle.obj
 0002:0000b6d8       $unwind$_msize_base        00000001800326d8     libucrt:msize.obj
 0002:0000b6d8       $unwind$?initialize_multibyte@@YAHXZ 00000001800326d8     libucrt:multibyte_initializer.obj
 0002:0000b6d8       $unwind$__acrt_thread_attach 00000001800326d8     libucrt:initialization.obj
 0002:0000b6d8       $unwind$__acrt_thread_detach 00000001800326d8     libucrt:initialization.obj
 0002:0000b6d8       $unwind$__acrt_uninitialize 00000001800326d8     libucrt:initialization.obj
 0002:0000b6d8       $unwind$__acrt_uninitialize_critical 00000001800326d8     libucrt:initialization.obj
 0002:0000b6d8       $unwind$initialize_c       00000001800326d8     libucrt:initialization.obj
 0002:0000b6d8       $unwind$uninitialize_allocated_io_buffers 00000001800326d8     libucrt:initialization.obj
 0002:0000b6d8       $unwind$uninitialize_environment 00000001800326d8     libucrt:initialization.obj
 0002:0000b6d8       $unwind$__acrt_initialize_ptd 00000001800326d8     libucrt:per_thread_data.obj
 0002:0000b6d8       $unwind$__acrt_uninitialize_ptd 00000001800326d8     libucrt:per_thread_data.obj
 0002:0000b6d8       $unwind$__acrt_AreFileApisANSI 00000001800326d8     libucrt:winapi_thunks.obj
 0002:0000b6d8       $unwind$__acrt_release_locale_ref 00000001800326d8     libucrt:locale_refcounting.obj
 0002:0000b6d8       $unwind$_isatty            00000001800326d8     libucrt:isatty.obj
 0002:0000b6d8       $unwind$_get_osfhandle     00000001800326d8     libucrt:osfinfo.obj
 0002:0000b6d8       $unwind$__acrt_initialize_multibyte 00000001800326d8     libucrt:mbctype.obj
 0002:0000b6d8       $unwind$__acrt_update_thread_multibyte_data 00000001800326d8     libucrt:mbctype.obj
 0002:0000b6d8       $unwind$__doserrno         00000001800326d8     libucrt:errno.obj
 0002:0000b6d8       $unwind$_errno             00000001800326d8     libucrt:errno.obj
 0002:0000b6d8       $unwind$_invoke_watson     00000001800326d8     libucrt:invalid_parameter.obj
 0002:0000b6d8       $unwind$abort              00000001800326d8     libucrt:abort.obj
 0002:0000b6d8       $unwind$__acrt_initialize_command_line 00000001800326d8     libucrt:argv_data.obj
 0002:0000b6d8       $unwind$?should_call_terminate_process@@YA_NXZ 00000001800326d8     libucrt:exit.obj
 0002:0000b6d8       $unwind$_fileno            00000001800326d8     libucrt:fileno.obj
 0002:0000b6d8       $unwind$_statfp            00000001800326d8     libucrt:fpctrl.obj
 0002:0000b6d8       $unwind$fegetround         00000001800326d8     libucrt:fegetround.obj
 0002:0000b6d8       $unwind$_set_errno_from_matherr 00000001800326d8     libucrt:fpexcept.obj
 0002:0000b6d8       $unwind$??__E_AtlBaseModule@ATL@@YAXXZ 00000001800326d8     atls:atlbase.obj
 0002:0000b6d8       $unwind$__scrt_initialize_default_local_stdio_options 00000001800326d8     LIBCMT:default_local_stdio_options.obj
 0002:0000b6d8       $unwind$?dllmain_crt_dispatch@@YAHQEAUHINSTANCE__@@KQEAX@Z 00000001800326d8     LIBCMT:dll_dllmain.obj
 0002:0000b6d8       $unwind$__report_rangecheckfailure 00000001800326d8     LIBCMT:gs_report.obj
 0002:0000b6d8       $unwind$__GSHandlerCheck   00000001800326d8     LIBCMT:gshandler.obj
 0002:0000b6d8       $unwind$?__scrt_uninitialize_thread_safe_statics@@YAXXZ 00000001800326d8     LIBCMT:thread_safe_statics.obj
 0002:0000b6d8       $unwind$_Init_thread_notify 00000001800326d8     LIBCMT:thread_safe_statics.obj
 0002:0000b6d8       $unwind$__scrt_acquire_startup_lock 00000001800326d8     LIBCMT:utility.obj
 0002:0000b6d8       $unwind$__scrt_dllmain_after_initialize_c 00000001800326d8     LIBCMT:utility.obj
 0002:0000b6d8       $unwind$__scrt_dllmain_before_initialize_c 00000001800326d8     LIBCMT:utility.obj
 0002:0000b6d8       $unwind$__scrt_dllmain_crt_thread_attach 00000001800326d8     LIBCMT:utility.obj
 0002:0000b6d8       $unwind$__scrt_dllmain_crt_thread_detach 00000001800326d8     LIBCMT:utility.obj
 0002:0000b6d8       $unwind$__scrt_dllmain_uninitialize_c 00000001800326d8     LIBCMT:utility.obj
 0002:0000b6d8       $unwind$__scrt_dllmain_uninitialize_critical 00000001800326d8     LIBCMT:utility.obj
 0002:0000b6d8       $unwind$atexit             00000001800326d8     LIBCMT:utility.obj
 0002:0000b6d8       $unwind$__std_terminate    00000001800326d8     libvcruntime:ehhelpers.obj
 0002:0000b6d8       $unwind$?GetCurrentState@__FrameHandler3@@SAHPEA_KPEAU_xDISPATCHER_CONTEXT@@PEBU_s_FuncInfo@@@Z 00000001800326d8     libvcruntime:ehstate.obj
 0002:0000b6d8       $unwind$__vcrt_initialize  00000001800326d8     libvcruntime:initialization.obj
 0002:0000b6d8       $unwind$__vcrt_thread_attach 00000001800326d8     libvcruntime:initialization.obj
 0002:0000b6d8       $unwind$__vcrt_thread_detach 00000001800326d8     libvcruntime:initialization.obj
 0002:0000b6d8       $unwind$__vcrt_uninitialize 00000001800326d8     libvcruntime:initialization.obj
 0002:0000b6d8       $unwind$__vcrt_uninitialize_critical 00000001800326d8     libvcruntime:initialization.obj
 0002:0000b6d8       $unwind$__vcrt_freefls     00000001800326d8     libvcruntime:per_thread_data.obj
 0002:0000b6d8       $unwind$__vcrt_getptd      00000001800326d8     libvcruntime:per_thread_data.obj
 0002:0000b6d8       $unwind$__vcrt_initialize_ptd 00000001800326d8     libvcruntime:per_thread_data.obj
 0002:0000b6d8       $unwind$__vcrt_uninitialize_ptd 00000001800326d8     libvcruntime:per_thread_data.obj
 0002:0000b6d8       $unwind$_purecall          00000001800326d8     libvcruntime:purevirt.obj
 0002:0000b6d8       $unwind$?FrameUnwindToEmptyState@__FrameHandler4@@SAXPEA_KPEAU_xDISPATCHER_CONTEXT@@PEAUFuncInfo4@FH4@@@Z 00000001800326d8     libvcruntime:risctrnsctrl.obj
 0002:0000b6d8       $unwind$_GetImageBase      00000001800326d8     libvcruntime:risctrnsctrl.obj
 0002:0000b6d8       $unwind$_GetThrowImageBase 00000001800326d8     libvcruntime:risctrnsctrl.obj
 0002:0000b6e0       $unwind$?cw_dup@@YAXPEBDAEAHAEAPEA_W1@Z 00000001800326e0     CWString.obj
 0002:0000b6e0       $unwind$?DAdvise@?$IDataObjectImpl@VCOPOSRemoteOrderDisplay@@@ATL@@UEAAJPEAUtagFORMATETC@@KPEAUIAdviseSink@@PEAK@Z 00000001800326e0     RemoteOrderDisplay.obj
 0002:0000b6e0       $unwind$??$create_environment@D@@YAQEAPEADQEAD@Z 00000001800326e0     libucrt:environment_initialization.obj
 0002:0000b6e0       $unwind$_mbtowc_internal   00000001800326e0     libucrt:mbtowc.obj
 0002:0000b6e0       $unwind$??$__acrt_convert_wcs_mbs_cp@D_WV<lambda_7c9dea7b4ca7285d2cdb541a38da6275>@@U__crt_win32_buffer_internal_dynamic_resizing@@@@YAHQEBDAEAV?$__crt_win32_buffer@_WU__crt_win32_buffer_internal_dynamic_resizing@@@@AEBV<lambda_7c9dea7b4ca7285d2cdb541a38da6275>@@I@Z 00000001800326e0     libucrt:argv_wildcards.obj
 0002:0000b6e0       $unwind$?process@?$output_processor@_WV?$string_output_adapter@_W@__crt_stdio_output@@V?$format_validation_base@_WV?$string_output_adapter@_W@__crt_stdio_output@@@2@@__crt_stdio_output@@QEAAHXZ 00000001800326e0     libucrt:output.obj
 0002:0000b6f8       $unwind$?DupWide@_CW@@AEAAXXZ 00000001800326f8     CWString.obj
 0002:0000b6f8       $unwind$??0CAtlComModule@ATL@@QEAA@XZ 00000001800326f8     OposVariant.obj
 0002:0000b6f8       $unwind$??0CAtlWinModule@ATL@@QEAA@XZ 00000001800326f8     OposVariant.obj
 0002:0000b6f8       $unwind$??0?$CComObject@VCOPOSRemoteOrderDisplay@@@ATL@@QEAA@PEAX@Z 00000001800326f8     RemoteOrderDisplay.obj
 0002:0000b6f8       $unwind$??0CAtlModule@ATL@@QEAA@XZ 00000001800326f8     RemoteOrderDisplay.obj
 0002:0000b6f8       $unwind$??1?$CComObject@VCOPOSRemoteOrderDisplay@@@ATL@@UEAA@XZ 00000001800326f8     RemoteOrderDisplay.obj
 0002:0000b6f8       $unwind$??__E_Module@@YAXXZ 00000001800326f8     RemoteOrderDisplay.obj
 0002:0000b6f8       $unwind$?AddRef@?$CComObjectCached@VCComClassFactory@ATL@@@ATL@@UEAAKXZ 00000001800326f8     RemoteOrderDisplay.obj
 0002:0000b6f8       $unwind$?AllocateHeap@?$CTempBuffer@E$0BAA@VCCRTAllocator@ATL@@@ATL@@AEAAX_K@Z 00000001800326f8     RemoteOrderDisplay.obj
 0002:0000b6f8       $unwind$?AllocateHeap@?$CTempBuffer@_W$0BAA@VCCRTAllocator@ATL@@@ATL@@AEAAX_K@Z 00000001800326f8     RemoteOrderDisplay.obj
 0002:0000b6f8       $unwind$?AllocateHeap@?$CTempBuffer@_W$0EAA@VCCRTAllocator@ATL@@@ATL@@AEAAX_K@Z 00000001800326f8     RemoteOrderDisplay.obj
 0002:0000b6f8       $unwind$?GetClassInfoW@?$IProvideClassInfo2Impl@$1?CLSID_OPOSRemoteOrderDisplay@@3U_GUID@@B$1?DIID__IOPOSRemoteOrderDisplayEvents@@3U2@B$1?LIBID_OposRemoteOrderDisplay_CCO@@3U2@B$00$0A@VCComTypeInfoHolder@ATL@@@ATL@@UEAAJPEAPEAUITypeInfo@@@Z 00000001800326f8     RemoteOrderDisplay.obj
 0002:0000b6f8       $unwind$?GetClientSite@?$IOleObjectImpl@VCOPOSRemoteOrderDisplay@@@ATL@@UEAAJPEAPEAUIOleClientSite@@@Z 00000001800326f8     RemoteOrderDisplay.obj
 0002:0000b6f8       $unwind$?GetConnMap@COPOSRemoteOrderDisplay@@SAPEBU_ATL_CONNMAP_ENTRY@ATL@@PEAH@Z 00000001800326f8     RemoteOrderDisplay.obj
 0002:0000b6f8       $unwind$?GetTypeInfo@?$IDispatchImpl@UIOPOSRemoteOrderDisplay@@$1?IID_IOPOSRemoteOrderDisplay@@3U_GUID@@B$1?LIBID_OposRemoteOrderDisplay_CCO@@3U3@B$00$0A@VCComTypeInfoHolder@ATL@@@ATL@@UEAAJIKPEAPEAUITypeInfo@@@Z 00000001800326f8     RemoteOrderDisplay.obj
 0002:0000b6f8       $unwind$?IOleInPlaceObject_InPlaceDeactivate@CComControlBase@ATL@@QEAAJXZ 00000001800326f8     RemoteOrderDisplay.obj
 0002:0000b6f8       $unwind$?IOleObject_SetExtent@CComControlBase@ATL@@QEAAJKPEAUtagSIZE@@@Z 00000001800326f8     RemoteOrderDisplay.obj
 0002:0000b6f8       $unwind$?IsEqualObject@?$CComPtrBase@UIOleClientSite@@@ATL@@QEAA_NPEAUIUnknown@@@Z 00000001800326f8     RemoteOrderDisplay.obj
 0002:0000b6f8       $unwind$?QueryHitPoint@?$IViewObjectExImpl@VCOPOSRemoteOrderDisplay@@@ATL@@UEAAJKPEBUtagRECT@@UtagPOINT@@JPEAK@Z 00000001800326f8     RemoteOrderDisplay.obj
 0002:0000b6f8       $unwind$?QueryInterface@?$CComAggObject@VCOPOSRemoteOrderDisplay@@@ATL@@UEAAJAEBU_GUID@@PEAPEAX@Z 00000001800326f8     RemoteOrderDisplay.obj
 0002:0000b6f8       $unwind$?Release@?$CComObjectCached@VCComClassFactory@ATL@@@ATL@@UEAAKXZ 00000001800326f8     RemoteOrderDisplay.obj
 0002:0000b6f8       $unwind$?Unadvise@?$IConnectionPointImpl@VCOPOSRemoteOrderDisplay@@$1?DIID__IOPOSRemoteOrderDisplayEvents@@3U_GUID@@BVCComDynamicUnkArray@ATL@@@ATL@@UEAAJK@Z 00000001800326f8     RemoteOrderDisplay.obj
 0002:0000b6f8       $unwind$?Unadvise@?$IConnectionPointImpl@VCOPOSRemoteOrderDisplay@@$1?IID_IPropertyNotifySink@@3U_GUID@@BVCComDynamicUnkArray@ATL@@@ATL@@UEAAJK@Z 00000001800326f8     RemoteOrderDisplay.obj
 0002:0000b6f8       $unwind$??1CComControlBase@ATL@@UEAA@XZ 00000001800326f8     RemoteOrderDisplayImpl.obj
 0002:0000b6f8       $unwind$??1COPOSRemoteOrderDisplay@@UEAA@XZ 00000001800326f8     RemoteOrderDisplayImpl.obj
 0002:0000b6f8       $unwind$?EventUninit@COPOSRemoteOrderDisplay@@IEAAXXZ 00000001800326f8     RemoteOrderDisplayImpl.obj
 0002:0000b6f8       $unwind$?FreezeEvents@COPOSRemoteOrderDisplay@@MEAAJH@Z 00000001800326f8     RemoteOrderDisplayImpl.obj
 0002:0000b6f8       $unwind$?SOProcessID@COPOSRemoteOrderDisplay@@UEAAJPEAJ@Z 00000001800326f8     RemoteOrderDisplayImpl.obj
 0002:0000b6f8       $unwind$?get_AsyncMode@COPOSRemoteOrderDisplay@@UEAAJPEAF@Z 00000001800326f8     RemoteOrderDisplayImpl.obj
 0002:0000b6f8       $unwind$?get_CapCompareFirmwareVersion@COPOSRemoteOrderDisplay@@UEAAJPEAF@Z 00000001800326f8     RemoteOrderDisplayImpl.obj
 0002:0000b6f8       $unwind$?get_CapMapCharacterSet@COPOSRemoteOrderDisplay@@UEAAJPEAF@Z 00000001800326f8     RemoteOrderDisplayImpl.obj
 0002:0000b6f8       $unwind$?get_CapSelectCharacterSet@COPOSRemoteOrderDisplay@@UEAAJPEAF@Z 00000001800326f8     RemoteOrderDisplayImpl.obj
 0002:0000b6f8       $unwind$?get_CapStatisticsReporting@COPOSRemoteOrderDisplay@@UEAAJPEAF@Z 00000001800326f8     RemoteOrderDisplayImpl.obj
 0002:0000b6f8       $unwind$?get_CapTone@COPOSRemoteOrderDisplay@@UEAAJPEAF@Z 00000001800326f8     RemoteOrderDisplayImpl.obj
 0002:0000b6f8       $unwind$?get_CapTouch@COPOSRemoteOrderDisplay@@UEAAJPEAF@Z 00000001800326f8     RemoteOrderDisplayImpl.obj
 0002:0000b6f8       $unwind$?get_CapTransaction@COPOSRemoteOrderDisplay@@UEAAJPEAF@Z 00000001800326f8     RemoteOrderDisplayImpl.obj
 0002:0000b6f8       $unwind$?get_CapUpdateFirmware@COPOSRemoteOrderDisplay@@UEAAJPEAF@Z 00000001800326f8     RemoteOrderDisplayImpl.obj
 0002:0000b6f8       $unwind$?get_CapUpdateStatistics@COPOSRemoteOrderDisplay@@UEAAJPEAF@Z 00000001800326f8     RemoteOrderDisplayImpl.obj
 0002:0000b6f8       $unwind$?get_Claimed@COPOSRemoteOrderDisplay@@UEAAJPEAF@Z 00000001800326f8     RemoteOrderDisplayImpl.obj
 0002:0000b6f8       $unwind$?get_DataEventEnabled@COPOSRemoteOrderDisplay@@UEAAJPEAF@Z 00000001800326f8     RemoteOrderDisplayImpl.obj
 0002:0000b6f8       $unwind$?get_DeviceEnabled@COPOSRemoteOrderDisplay@@UEAAJPEAF@Z 00000001800326f8     RemoteOrderDisplayImpl.obj
 0002:0000b6f8       $unwind$?get_FreezeEvents@COPOSRemoteOrderDisplay@@UEAAJPEAF@Z 00000001800326f8     RemoteOrderDisplayImpl.obj
 0002:0000b6f8       $unwind$?get_MapCharacterSet@COPOSRemoteOrderDisplay@@UEAAJPEAF@Z 00000001800326f8     RemoteOrderDisplayImpl.obj
 0002:0000b6f8       $unwind$?put_FreezeEvents@COPOSRemoteOrderDisplay@@UEAAJF@Z 00000001800326f8     RemoteOrderDisplayImpl.obj
 0002:0000b6f8       $unwind$_calloc_base       00000001800326f8     libucrt:calloc_base.obj
 0002:0000b6f8       $unwind$_malloc_base       00000001800326f8     libucrt:malloc_base.obj
 0002:0000b6f8       $unwind$_callnewh          00000001800326f8     libucrt:new_handler.obj
 0002:0000b6f8       $unwind$initialize_pointers 00000001800326f8     libucrt:initialization.obj
 0002:0000b6f8       $unwind$uninitialize_allocated_memory 00000001800326f8     libucrt:initialization.obj
 0002:0000b6f8       $unwind$__acrt_initialize_locks 00000001800326f8     libucrt:locks.obj
 0002:0000b6f8       $unwind$__acrt_uninitialize_locks 00000001800326f8     libucrt:locks.obj
 0002:0000b6f8       $unwind$__acrt_freeptd     00000001800326f8     libucrt:per_thread_data.obj
 0002:0000b6f8       $unwind$__acrt_getptd_head 00000001800326f8     libucrt:per_thread_data.obj
 0002:0000b6f8       $unwind$__acrt_get_process_end_policy 00000001800326f8     libucrt:win_policies.obj
 0002:0000b6f8       $unwind$__acrt_AppPolicyGetProcessTerminationMethodInternal 00000001800326f8     libucrt:winapi_thunks.obj
 0002:0000b6f8       $unwind$__acrt_SetThreadStackGuarantee 00000001800326f8     libucrt:winapi_thunks.obj
 0002:0000b6f8       $unwind$__acrt_uninitialize_winapi_thunks 00000001800326f8     libucrt:winapi_thunks.obj
 0002:0000b6f8       $unwind$__acrt_update_locale_info 00000001800326f8     libucrt:locale_update.obj
 0002:0000b6f8       $unwind$__acrt_update_locale_info_explicit 00000001800326f8     libucrt:locale_update.obj
 0002:0000b6f8       $unwind$__acrt_update_multibyte_info 00000001800326f8     libucrt:locale_update.obj
 0002:0000b6f8       $unwind$__acrt_update_multibyte_info_explicit 00000001800326f8     libucrt:locale_update.obj
 0002:0000b6f8       $unwind$__acrt_errno_map_os_error 00000001800326f8     libucrt:errno.obj
 0002:0000b6f8       $unwind$__acrt_errno_map_os_error_ptd 00000001800326f8     libucrt:errno.obj
 0002:0000b6f8       $unwind$__acrt_allocate_buffer_for_argv 00000001800326f8     libucrt:argv_parsing.obj
 0002:0000b6f8       $unwind$?exit_or_terminate_process@@YAXI@Z 00000001800326f8     libucrt:exit.obj
 0002:0000b6f8       $unwind$__acrt_uninitialize_stdio 00000001800326f8     libucrt:_file.obj
 0002:0000b6f8       $unwind$__acrt_stdio_free_buffer_nolock 00000001800326f8     libucrt:_freebuf.obj
 0002:0000b6f8       $unwind$strcpy_s           00000001800326f8     libucrt:strcpy_s.obj
 0002:0000b6f8       $unwind$wcscat_s           00000001800326f8     libucrt:wcscat_s.obj
 0002:0000b6f8       $unwind$wcscpy_s           00000001800326f8     libucrt:wcscpy_s.obj
 0002:0000b6f8       $unwind$_clrfp             00000001800326f8     libucrt:fpctrl.obj
 0002:0000b6f8       $unwind$_set_statfp        00000001800326f8     libucrt:fpctrl.obj
 0002:0000b6f8       $unwind$_clearfp           00000001800326f8     libucrt:ieee.obj
 0002:0000b6f8       $unwind$_controlfp_s       00000001800326f8     libucrt:contrlfp.obj
 0002:0000b6f8       $unwind$fegetenv           00000001800326f8     libucrt:fegetenv.obj
 0002:0000b6f8       $unwind$feholdexcept       00000001800326f8     libucrt:feholdexcept.obj
 0002:0000b6f8       $unwind$fesetenv           00000001800326f8     libucrt:fesetenv.obj
 0002:0000b6f8       $unwind$??1CAtlBaseModule@ATL@@QEAA@XZ 00000001800326f8     atls:atlbase.obj
 0002:0000b6f8       $unwind$AtlThunk_AllocateData 00000001800326f8     atls:atlthunk.obj
 0002:0000b6f8       $unwind$__raise_securityfailure 00000001800326f8     LIBCMT:gs_report.obj
 0002:0000b6f8       $unwind$??2@YAPEAX_K@Z     00000001800326f8     LIBCMT:new_scalar.obj
 0002:0000b6f8       $unwind$??_Gtype_info@@UEAAPEAXI@Z 00000001800326f8     LIBCMT:std_type_info_static.obj
 0002:0000b6f8       $unwind$_Init_thread_footer 00000001800326f8     LIBCMT:thread_safe_statics.obj
 0002:0000b6f8       $unwind$_Init_thread_header 00000001800326f8     LIBCMT:thread_safe_statics.obj
 0002:0000b6f8       $unwind$_Init_thread_wait  00000001800326f8     LIBCMT:thread_safe_statics.obj
 0002:0000b6f8       $unwind$??0bad_alloc@std@@QEAA@AEBV01@@Z 00000001800326f8     LIBCMT:throw_bad_alloc.obj
 0002:0000b6f8       $unwind$??0bad_array_new_length@std@@QEAA@AEBV01@@Z 00000001800326f8     LIBCMT:throw_bad_alloc.obj
 0002:0000b6f8       $unwind$??0exception@std@@QEAA@AEBV01@@Z 00000001800326f8     LIBCMT:throw_bad_alloc.obj
 0002:0000b6f8       $unwind$__scrt_initialize_crt 00000001800326f8     LIBCMT:utility.obj
 0002:0000b6f8       $unwind$__scrt_initialize_onexit_tables 00000001800326f8     LIBCMT:utility.obj
 0002:0000b6f8       $unwind$__scrt_release_startup_lock 00000001800326f8     LIBCMT:utility.obj
 0002:0000b6f8       $unwind$__scrt_uninitialize_crt 00000001800326f8     LIBCMT:utility.obj
 0002:0000b6f8       $unwind$_onexit            00000001800326f8     LIBCMT:utility.obj
 0002:0000b6f8       $unwind$_IsExceptionObjectToBeDestroyed 00000001800326f8     libvcruntime:ehhelpers.obj
 0002:0000b6f8       $unwind$?GetUnwindTryBlock@__FrameHandler3@@SAHPEA_KPEAU_xDISPATCHER_CONTEXT@@PEBU_s_FuncInfo@@@Z 00000001800326f8     libvcruntime:ehstate.obj
 0002:0000b6f8       $unwind$?StateFromIp@__FrameHandler3@@SAHPEBU_s_FuncInfo@@PEAU_xDISPATCHER_CONTEXT@@_K@Z 00000001800326f8     libvcruntime:ehstate.obj
 0002:0000b6f8       $unwind$??0HandlerMap4@FH4@@QEAA@PEBUTryBlockMapEntry4@1@_KH@Z 00000001800326f8     libvcruntime:frame.obj
 0002:0000b6f8       $unwind$??0bad_exception@std@@QEAA@AEBV01@@Z 00000001800326f8     libvcruntime:frame.obj
 0002:0000b6f8       $unwind$__vcrt_initialize_locks 00000001800326f8     libvcruntime:locks.obj
 0002:0000b6f8       $unwind$__vcrt_uninitialize_locks 00000001800326f8     libvcruntime:locks.obj
 0002:0000b6f8       $unwind$__vcrt_freeptd     00000001800326f8     libvcruntime:per_thread_data.obj
 0002:0000b6f8       $unwind$?ExecutionInCatch@__FrameHandler3@@SA_NPEAU_xDISPATCHER_CONTEXT@@PEBU_s_FuncInfo@@@Z 00000001800326f8     libvcruntime:risctrnsctrl.obj
 0002:0000b6f8       $unwind$_CreateFrameInfo   00000001800326f8     libvcruntime:risctrnsctrl.obj
 0002:0000b6f8       $unwind$_SetImageBase      00000001800326f8     libvcruntime:risctrnsctrl.obj
 0002:0000b6f8       $unwind$_SetThrowImageBase 00000001800326f8     libvcruntime:risctrnsctrl.obj
 0002:0000b6f8       $unwind$__std_exception_destroy 00000001800326f8     libvcruntime:std_exception.obj
 0002:0000b6f8       $unwind$__std_type_info_destroy_list 00000001800326f8     libvcruntime:std_type_info.obj
 0002:0000b6f8       $unwind$__vcrt_FlsAlloc    00000001800326f8     libvcruntime:winapi_downlevel.obj
 0002:0000b6f8       $unwind$__vcrt_FlsFree     00000001800326f8     libvcruntime:winapi_downlevel.obj
 0002:0000b6f8       $unwind$__vcrt_FlsGetValue 00000001800326f8     libvcruntime:winapi_downlevel.obj
 0002:0000b700       $unwind$?AtlWinModuleTerm@ATL@@YAJPEAU_ATL_WIN_MODULE70@1@PEAUHINSTANCE__@@@Z 0000000180032700     OposVariant.obj
 0002:0000b700       $unwind$?AtlWinModuleExtractCreateWndData@ATL@@YAPEAXPEAU_ATL_WIN_MODULE70@1@@Z 0000000180032700     RemoteOrderDisplay.obj
 0002:0000b700       $unwind$?CreateInstance@?$CComCreator@V?$CComObject@VCOPOSRemoteOrderDisplay@@@ATL@@@ATL@@SAJPEAXAEBU_GUID@@PEAPEAX@Z 0000000180032700     RemoteOrderDisplay.obj
 0002:0000b700       $unwind$?DoEvent@COPOSRemoteOrderDisplay@@IEAAXI_K_J@Z 0000000180032700     RemoteOrderDisplay.obj
 0002:0000b700       $unwind$?DoVerb@?$IOleObjectImpl@VCOPOSRemoteOrderDisplay@@@ATL@@UEAAJJPEAUtagMSG@@PEAUIOleClientSite@@JPEAUHWND__@@PEBUtagRECT@@@Z 0000000180032700     RemoteOrderDisplay.obj
 0002:0000b700       $unwind$?HKeyFromString@CRegParser@ATL@@KAPEAUHKEY__@@PEA_W@Z 0000000180032700     RemoteOrderDisplay.obj
 0002:0000b700       $unwind$?Next@?$CComEnumImpl@UIEnumConnectionPoints@@$1?_GUID_b196b285_bab4_101a_b69c_00aa00341d07@@3U__s_GUID@@BPEAUIConnectionPoint@@V?$_CopyInterface@UIConnectionPoint@@@ATL@@@ATL@@UEAAJKPEAPEAUIConnectionPoint@@PEAK@Z 0000000180032700     RemoteOrderDisplay.obj
 0002:0000b700       $unwind$?Next@?$CComEnumImpl@UIEnumConnections@@$1?_GUID_b196b287_bab4_101a_b69c_00aa00341d07@@3U__s_GUID@@BUtagCONNECTDATA@@V?$_Copy@UtagCONNECTDATA@@@ATL@@@ATL@@UEAAJKPEAUtagCONNECTDATA@@PEAK@Z 0000000180032700     RemoteOrderDisplay.obj
 0002:0000b700       $unwind$?SODirectIO@COPOSRemoteOrderDisplay@@MEAAJJPEAJPEAPEA_W@Z 0000000180032700     RemoteOrderDisplay.obj
 0002:0000b700       $unwind$?SetControlFocus@CComControlBase@ATL@@QEAAHH@Z 0000000180032700     RemoteOrderDisplay.obj
 0002:0000b700       $unwind$?ocscpy_s@@YA_NPEA_W_KPEB_W@Z 0000000180032700     RemoteOrderDisplay.obj
 0002:0000b700       $unwind$?s_EventWindowProc@COPOSRemoteOrderDisplay@@KA_JPEAUHWND__@@I_K_J@Z 0000000180032700     RemoteOrderDisplayImpl.obj
 0002:0000b700       $unwind$_recalloc_base     0000000180032700     libucrt:recalloc.obj
 0002:0000b700       $unwind$__acrt_free_locale 0000000180032700     libucrt:locale_refcounting.obj
 0002:0000b700       $unwind$__acrt_lowio_create_handle_array 0000000180032700     libucrt:osfinfo.obj
 0002:0000b700       $unwind$_seh_filter_exe    0000000180032700     libucrt:exception_filter.obj
 0002:0000b700       $unwind$__acrt_stdio_flush_nolock 0000000180032700     libucrt:fflush.obj
 0002:0000b700       $unwind$??$ensure_buffer_is_big_enough@D@formatting_buffer@__crt_stdio_output@@QEAA_N_KAEAV__crt_cached_ptd_host@@@Z 0000000180032700     libucrt:output.obj
 0002:0000b700       $unwind$??$ensure_buffer_is_big_enough@_W@formatting_buffer@__crt_stdio_output@@QEAA_N_KAEAV__crt_cached_ptd_host@@@Z 0000000180032700     libucrt:output.obj
 0002:0000b700       $unwind$__scrt_dllmain_exception_filter 0000000180032700     LIBCMT:utility.obj
 0002:0000b700       $unwind$?GetHandlerSearchState@__FrameHandler3@@SAHPEA_KPEAU_xDISPATCHER_CONTEXT@@PEBU_s_FuncInfo@@@Z 0000000180032700     libvcruntime:frame.obj
 0002:0000b700       $unwind$?Is_bad_exception_allowed@@YAEPEBU_s_ESTypeList@@@Z 0000000180032700     libvcruntime:frame.obj
 0002:0000b700       $unwind$?CatchTryBlock@__FrameHandler3@@SAPEBU_s_TryBlockMapEntry@@PEBU_s_FuncInfo@@H@Z 0000000180032700     libvcruntime:risctrnsctrl.obj
 0002:0000b714       $unwind$??0OposDispParms@@QEAA@PEAVOposVariant@@H@Z 0000000180032714     OposVariant.obj
 0002:0000b714       $unwind$?SetBSTR_Copy@OposVariant@@QEAAXPEA_WAEAJ@Z 0000000180032714     OposVariant.obj
 0002:0000b714       $unwind$?SetBSTR_InOutPtr@OposVariant@@QEAA_NPEAPEA_WAEAJ@Z 0000000180032714     OposVariant.obj
 0002:0000b714       $unwind$?SetDispatch_Ptr@OposVariant@@QEAAXPEAUIDispatch@@AEAJ@Z 0000000180032714     OposVariant.obj
 0002:0000b714       $unwind$?SetLONG_Ptr@OposVariant@@QEAAXPEAJAEAJ@Z 0000000180032714     OposVariant.obj
 0002:0000b714       $unwind$?SetString@OposVariant@@QEAAXPEB_WAEAJ@Z 0000000180032714     OposVariant.obj
 0002:0000b714       $unwind$?Term@CAtlComModule@ATL@@QEAAXXZ 0000000180032714     OposVariant.obj
 0002:0000b714       $unwind$??_GCRegObject@ATL@@UEAAPEAXI@Z 0000000180032714     RemoteOrderDisplay.obj
 0002:0000b714       $unwind$?Add@?$CSimpleArray@GV?$CSimpleArrayEqualHelper@G@ATL@@@ATL@@QEAAHAEBG@Z 0000000180032714     RemoteOrderDisplay.obj
 0002:0000b714       $unwind$?Add@?$CSimpleMap@PEA_WPEA_WVCExpansionVectorEqualHelper@ATL@@@ATL@@QEAAHAEBQEA_W0@Z 0000000180032714     RemoteOrderDisplay.obj
 0002:0000b714       $unwind$?Add@CComDynamicUnkArray@ATL@@QEAAKPEAUIUnknown@@@Z 0000000180032714     RemoteOrderDisplay.obj
 0002:0000b714       $unwind$?Advise@?$IOleObjectImpl@VCOPOSRemoteOrderDisplay@@@ATL@@UEAAJPEAUIAdviseSink@@PEAK@Z 0000000180032714     RemoteOrderDisplay.obj
 0002:0000b714       $unwind$?ClearReplacements@CExpansionVector@ATL@@QEAAJXZ 0000000180032714     RemoteOrderDisplay.obj
 0002:0000b714       $unwind$?CreateInstance@?$CComObject@V?$CComEnum@UIEnumConnectionPoints@@$1?_GUID_b196b285_bab4_101a_b69c_00aa00341d07@@3U__s_GUID@@BPEAUIConnectionPoint@@V?$_CopyInterface@UIConnectionPoint@@@ATL@@VCComSingleThreadModel@6@@ATL@@@ATL@@SAJPEAPEAV12@@Z 0000000180032714     RemoteOrderDisplay.obj
 0002:0000b714       $unwind$?CreateInstance@?$CComObject@V?$CComEnum@UIEnumConnections@@$1?_GUID_b196b287_bab4_101a_b69c_00aa00341d07@@3U__s_GUID@@BUtagCONNECTDATA@@V?$_Copy@UtagCONNECTDATA@@@ATL@@VCComSingleThreadModel@6@@ATL@@@ATL@@SAJPEAPEAV12@@Z 0000000180032714     RemoteOrderDisplay.obj
 0002:0000b714       $unwind$?RegisterServer@CComModule@ATL@@QEAAJHPEBU_GUID@@@Z 0000000180032714     RemoteOrderDisplay.obj
 0002:0000b714       $unwind$?UnregisterServer@CComModule@ATL@@QEAAJHPEBU_GUID@@@Z 0000000180032714     RemoteOrderDisplay.obj
 0002:0000b714       $unwind$?VTFromRegType@CRegParser@ATL@@KAHPEB_WAEAG@Z 0000000180032714     RemoteOrderDisplay.obj
 0002:0000b714       $unwind$memcpy_s           0000000180032714     libucrt:cfout.obj
 0002:0000b714       $unwind$__acrt_getptd      0000000180032714     libucrt:per_thread_data.obj
 0002:0000b714       $unwind$__acrt_getptd_noexit 0000000180032714     libucrt:per_thread_data.obj
 0002:0000b714       $unwind$__acrt_getptd_noexit_explicit 0000000180032714     libucrt:per_thread_data.obj
 0002:0000b714       $unwind$__acrt_execute_initializers 0000000180032714     libucrt:shared_initialization.obj
 0002:0000b714       $unwind$__acrt_InitializeCriticalSectionEx 0000000180032714     libucrt:winapi_thunks.obj
 0002:0000b714       $unwind$_close_nolock_internal 0000000180032714     libucrt:close.obj
 0002:0000b714       $unwind$?value@?$dual_state_global@P6AXPEB_W00I_K@Z@__crt_state_management@@QEAAAEAP6AXPEB_W00I_K@ZAEAV__crt_cached_ptd_host@@@Z 0000000180032714     libucrt:invalid_parameter.obj
 0002:0000b714       $unwind$??0_LocaleUpdate@@QEAA@QEAU__crt_locale_pointers@@@Z 0000000180032714     libucrt:argv_wildcards.obj
 0002:0000b714       $unwind$?type_case_Z@?$output_processor@_WV?$string_output_adapter@_W@__crt_stdio_output@@V?$format_validation_base@_WV?$string_output_adapter@_W@__crt_stdio_output@@@2@@__crt_stdio_output@@AEAA_NXZ 0000000180032714     libucrt:output.obj
 0002:0000b714       $unwind$?type_case_s@?$output_processor@_WV?$string_output_adapter@_W@__crt_stdio_output@@V?$format_validation_base@_WV?$string_output_adapter@_W@__crt_stdio_output@@@2@@__crt_stdio_output@@AEAA_NXZ 0000000180032714     libucrt:output.obj
 0002:0000b714       $unwind$?type_case_s_compute_narrow_string_length@?$output_processor@_WV?$string_output_adapter@_W@__crt_stdio_output@@V?$format_validation_base@_WV?$string_output_adapter@_W@__crt_stdio_output@@@2@@__crt_stdio_output@@AEAAHH_W@Z 0000000180032714     libucrt:output.obj
 0002:0000b714       $unwind$?update_locale_slow@__crt_cached_ptd_host@@AEAAXXZ 0000000180032714     libucrt:output.obj
 0002:0000b714       $unwind$strncpy_s          0000000180032714     libucrt:strncpy_s.obj
 0002:0000b714       $unwind$wcsncpy_s          0000000180032714     libucrt:wcsncpy_s.obj
 0002:0000b714       $unwind$_exception_enabled 0000000180032714     libucrt:libm_error.obj
 0002:0000b714       $unwind$_DllMainCRTStartup 0000000180032714     LIBCMT:dll_dllmain.obj
 0002:0000b714       $unwind$__vcrt_getptd_noexit 0000000180032714     libvcruntime:per_thread_data.obj
 0002:0000b714       $unwind$?FrameUnwindToEmptyState@__FrameHandler3@@SAXPEA_KPEAU_xDISPATCHER_CONTEXT@@PEBU_s_FuncInfo@@@Z 0000000180032714     libvcruntime:risctrnsctrl.obj
 0002:0000b714       $unwind$__vcrt_InitializeCriticalSectionEx 0000000180032714     libvcruntime:winapi_downlevel.obj
 0002:0000b724       $unwind$??_Estringdispid@CComTypeInfoHolder@ATL@@QEAAPEAXI@Z 0000000180032724     OposVariant.obj
 0002:0000b724       $unwind$?AddTermFunc@CAtlModule@ATL@@QEAAJP6AX_K@Z0@Z 0000000180032724     RemoteOrderDisplay.obj
 0002:0000b724       $unwind$?AtlComModuleRegisterServer@ATL@@YAJPEAU_ATL_COM_MODULE70@1@HPEBU_GUID@@@Z 0000000180032724     RemoteOrderDisplay.obj
 0002:0000b724       $unwind$?AtlComModuleUnregisterServer@ATL@@YAJPEAU_ATL_COM_MODULE70@1@HPEBU_GUID@@@Z 0000000180032724     RemoteOrderDisplay.obj
 0002:0000b724       $unwind$?CreateInstance@?$CComCreator@V?$CComAggObject@VCOPOSRemoteOrderDisplay@@@ATL@@@ATL@@SAJPEAXAEBU_GUID@@PEAPEAX@Z 0000000180032724     RemoteOrderDisplay.obj
 0002:0000b724       $unwind$?CreateInstance@?$CComCreator@V?$CComObjectCached@VCComClassFactory@ATL@@@ATL@@@ATL@@SAJPEAXAEBU_GUID@@PEAPEAX@Z 0000000180032724     RemoteOrderDisplay.obj
 0002:0000b724       $unwind$?GetPagesHelper@?$ISpecifyPropertyPagesImpl@VCOPOSRemoteOrderDisplay@@@ATL@@IEAAJPEAUtagCAUUID@@PEBUATL_PROPMAP_ENTRY@2@@Z 0000000180032724     RemoteOrderDisplay.obj
 0002:0000b724       $unwind$?Term@CAtlModule@ATL@@QEAAXXZ 0000000180032724     RemoteOrderDisplay.obj
 0002:0000b724       $unwind$?initialize_stdio_handles_nolock@@YAXXZ 0000000180032724     libucrt:ioinit.obj
 0002:0000b724       $unwind$__acrt_initialize_stdio 0000000180032724     libucrt:_file.obj
 0002:0000b724       $unwind$__GSHandlerCheck_EH 0000000180032724     LIBCMT:gshandlereh.obj
 0002:0000b724       $unwind$__GSHandlerCheck_SEH 0000000180032724     LIBCMT:gshandlerseh.obj
 0002:0000b724       $unwind$??$TypeMatchHelper@V__FrameHandler3@@@@YAHPEBU_s_HandlerType@@PEBU_s_CatchableType@@PEBU_s_ThrowInfo@@@Z 0000000180032724     libvcruntime:frame.obj
 0002:0000b724       $unwind$??$TypeMatchHelper@V__FrameHandler4@@@@YAHPEAUHandlerType4@FH4@@PEBU_s_CatchableType@@PEBU_s_ThrowInfo@@@Z 0000000180032724     libvcruntime:frame.obj
 0002:0000b73c       $unwind$?SetBSTR@OposVariant@@QEAAXPEA_WAEAJ@Z 000000018003273c     OposVariant.obj
 0002:0000b73c       $unwind$?SetLONG@OposVariant@@QEAAXJ@Z 000000018003273c     OposVariant.obj
 0002:0000b73c       $unwind$?SetVARIANT_BOOL@OposVariant@@QEAAXF@Z 000000018003273c     OposVariant.obj
 0002:0000b73c       $unwind$??0?$CComContainedObject@VCOPOSRemoteOrderDisplay@@@ATL@@QEAA@PEAX@Z 000000018003273c     RemoteOrderDisplay.obj
 0002:0000b73c       $unwind$??1?$CComEnumImpl@UIEnumConnectionPoints@@$1?_GUID_b196b285_bab4_101a_b69c_00aa00341d07@@3U__s_GUID@@BPEAUIConnectionPoint@@V?$_CopyInterface@UIConnectionPoint@@@ATL@@@ATL@@UEAA@XZ 000000018003273c     RemoteOrderDisplay.obj
 0002:0000b73c       $unwind$??1?$CComEnumImpl@UIEnumConnections@@$1?_GUID_b196b287_bab4_101a_b69c_00aa00341d07@@3U__s_GUID@@BUtagCONNECTDATA@@V?$_Copy@UtagCONNECTDATA@@@ATL@@@ATL@@UEAA@XZ 000000018003273c     RemoteOrderDisplay.obj
 0002:0000b73c       $unwind$??_G?$CComAggObject@VCOPOSRemoteOrderDisplay@@@ATL@@UEAAPEAXI@Z 000000018003273c     RemoteOrderDisplay.obj
 0002:0000b73c       $unwind$??_G?$CComContainedObject@VCOPOSRemoteOrderDisplay@@@ATL@@UEAAPEAXI@Z 000000018003273c     RemoteOrderDisplay.obj
 0002:0000b73c       $unwind$??_G?$CComObject@V?$CComEnum@UIEnumConnectionPoints@@$1?_GUID_b196b285_bab4_101a_b69c_00aa00341d07@@3U__s_GUID@@BPEAUIConnectionPoint@@V?$_CopyInterface@UIConnectionPoint@@@ATL@@VCComSingleThreadModel@6@@ATL@@@ATL@@UEAAPEAXI@Z 000000018003273c     RemoteOrderDisplay.obj
 0002:0000b73c       $unwind$??_G?$CComObject@V?$CComEnum@UIEnumConnections@@$1?_GUID_b196b287_bab4_101a_b69c_00aa00341d07@@3U__s_GUID@@BUtagCONNECTDATA@@V?$_Copy@UtagCONNECTDATA@@@ATL@@VCComSingleThreadModel@6@@ATL@@@ATL@@UEAAPEAXI@Z 000000018003273c     RemoteOrderDisplay.obj
 0002:0000b73c       $unwind$??_G?$CComObject@VCOPOSRemoteOrderDisplay@@@ATL@@UEAAPEAXI@Z 000000018003273c     RemoteOrderDisplay.obj
 0002:0000b73c       $unwind$??_G?$CComObjectCached@VCComClassFactory@ATL@@@ATL@@UEAAPEAXI@Z 000000018003273c     RemoteOrderDisplay.obj
 0002:0000b73c       $unwind$??_GCComClassFactory@ATL@@UEAAPEAXI@Z 000000018003273c     RemoteOrderDisplay.obj
 0002:0000b73c       $unwind$??_GCComModule@ATL@@UEAAPEAXI@Z 000000018003273c     RemoteOrderDisplay.obj
 0002:0000b73c       $unwind$?DeleteSubKey@CRegKey@ATL@@QEAAJPEB_W@Z 000000018003273c     RemoteOrderDisplay.obj
 0002:0000b73c       $unwind$?IOleObject_SetClientSite@CComControlBase@ATL@@QEAAJPEAUIOleClientSite@@@Z 000000018003273c     RemoteOrderDisplay.obj
 0002:0000b73c       $unwind$?InitNew@?$IPersistStorageImpl@VCOPOSRemoteOrderDisplay@@@ATL@@UEAAJPEAUIStorage@@@Z 000000018003273c     RemoteOrderDisplay.obj
 0002:0000b73c       $unwind$?IsDirty@?$IPersistStorageImpl@VCOPOSRemoteOrderDisplay@@@ATL@@UEAAJXZ 000000018003273c     RemoteOrderDisplay.obj
 0002:0000b73c       $unwind$?Release@?$CComAggObject@VCOPOSRemoteOrderDisplay@@@ATL@@UEAAKXZ 000000018003273c     RemoteOrderDisplay.obj
 0002:0000b73c       $unwind$?Release@?$CComObject@V?$CComEnum@UIEnumConnectionPoints@@$1?_GUID_b196b285_bab4_101a_b69c_00aa00341d07@@3U__s_GUID@@BPEAUIConnectionPoint@@V?$_CopyInterface@UIConnectionPoint@@@ATL@@VCComSingleThreadModel@6@@ATL@@@ATL@@UEAAKXZ 000000018003273c     RemoteOrderDisplay.obj
 0002:0000b73c       $unwind$?Release@?$CComObject@V?$CComEnum@UIEnumConnections@@$1?_GUID_b196b287_bab4_101a_b69c_00aa00341d07@@3U__s_GUID@@BUtagCONNECTDATA@@V?$_Copy@UtagCONNECTDATA@@@ATL@@VCComSingleThreadModel@6@@ATL@@@ATL@@UEAAKXZ 000000018003273c     RemoteOrderDisplay.obj
 0002:0000b73c       $unwind$?Release@?$CComObject@VCOPOSRemoteOrderDisplay@@@ATL@@UEAAKXZ 000000018003273c     RemoteOrderDisplay.obj
 0002:0000b73c       $unwind$?SOData@COPOSRemoteOrderDisplay@@MEAAJJ@Z 000000018003273c     RemoteOrderDisplay.obj
 0002:0000b73c       $unwind$?SOOutputComplete@COPOSRemoteOrderDisplay@@MEAAJJ@Z 000000018003273c     RemoteOrderDisplay.obj
 0002:0000b73c       $unwind$?SOStatusUpdate@COPOSRemoteOrderDisplay@@MEAAJJ@Z 000000018003273c     RemoteOrderDisplay.obj
 0002:0000b73c       $unwind$?SetAdvise@?$IViewObjectExImpl@VCOPOSRemoteOrderDisplay@@@ATL@@UEAAJKKPEAUIAdviseSink@@@Z 000000018003273c     RemoteOrderDisplay.obj
 0002:0000b73c       $unwind$?Term@CComModule@ATL@@QEAAXXZ 000000018003273c     RemoteOrderDisplay.obj
 0002:0000b73c       $unwind$DllMain            000000018003273c     RemoteOrderDisplay.obj
 0002:0000b73c       $unwind$??1?$IConnectionPointImpl@VCOPOSRemoteOrderDisplay@@$1?DIID__IOPOSRemoteOrderDisplayEvents@@3U_GUID@@BVCComDynamicUnkArray@ATL@@@ATL@@QEAA@XZ 000000018003273c     RemoteOrderDisplayImpl.obj
 0002:0000b73c       $unwind$??1?$IConnectionPointImpl@VCOPOSRemoteOrderDisplay@@$1?IID_IPropertyNotifySink@@3U_GUID@@BVCComDynamicUnkArray@ATL@@@ATL@@QEAA@XZ 000000018003273c     RemoteOrderDisplayImpl.obj
 0002:0000b73c       $unwind$??$common_initialize_environment_nolock@D@@YAHXZ 000000018003273c     libucrt:environment_initialization.obj
 0002:0000b73c       $unwind$_realloc_base      000000018003273c     libucrt:realloc_base.obj
 0002:0000b73c       $unwind$?replace_current_thread_locale_nolock@@YAXQEAU__acrt_ptd@@QEAU__crt_locale_data@@@Z 000000018003273c     libucrt:per_thread_data.obj
 0002:0000b73c       $unwind$__acrt_execute_uninitializers 000000018003273c     libucrt:shared_initialization.obj
 0002:0000b73c       $unwind$__acrt_LocaleNameToLCID 000000018003273c     libucrt:winapi_thunks.obj
 0002:0000b73c       $unwind$?free_crt_array_internal@@YAXQEAPEBX_K@Z 000000018003273c     libucrt:inittime.obj
 0002:0000b73c       $unwind$_updatetlocinfoEx_nolock 000000018003273c     libucrt:locale_refcounting.obj
 0002:0000b73c       $unwind$__acrt_uninitialize_lowio 000000018003273c     libucrt:ioinit.obj
 0002:0000b73c       $unwind$?setSBCS@@YAXPEAU__crt_multibyte_data@@@Z 000000018003273c     libucrt:mbctype.obj
 0002:0000b73c       $unwind$_initterm_e        000000018003273c     libucrt:initterm.obj
 0002:0000b73c       $unwind$??0CAtlBaseModule@ATL@@QEAA@XZ 000000018003273c     atls:atlbase.obj
 0002:0000b73c       $unwind$??$GetProcAddressAll@P6AP6A_JPEAUHWND__@@I_K_J@ZPEAUAtlThunkData_t@@@Z@@YAP6AP6A_JPEAUHWND__@@I_K_J@ZPEAUAtlThunkData_t@@@ZPEAP6AP6A_J0I12@Z3@Z@Z 000000018003273c     atls:atlthunk.obj
 0002:0000b73c       $unwind$??$GetProcAddressAll@P6APEAUAtlThunkData_t@@XZ@@YAP6APEAUAtlThunkData_t@@XZPEAP6APEAU0@XZ@Z 000000018003273c     atls:atlthunk.obj
 0002:0000b73c       $unwind$??$GetProcAddressAll@P6AXPEAUAtlThunkData_t@@@Z@@YAP6AXPEAUAtlThunkData_t@@@ZPEAP6AX0@Z@Z 000000018003273c     atls:atlthunk.obj
 0002:0000b73c       $unwind$??$GetProcAddressAll@P6AXPEAUAtlThunkData_t@@PEAX_K@Z@@YAP6AXPEAUAtlThunkData_t@@PEAX_K@ZPEAP6AX012@Z@Z 000000018003273c     atls:atlthunk.obj
 0002:0000b73c       $unwind$?__AllocStdCallThunk_cmn@@YAPEAXXZ 000000018003273c     atls:atlthunk.obj
 0002:0000b73c       $unwind$?__InitializeThunkPool@@YAHXZ 000000018003273c     atls:atlthunk.obj
 0002:0000b73c       $unwind$AtlThunk_DataToCode 000000018003273c     atls:atlthunk.obj
 0002:0000b73c       $unwind$_RTC_Initialize    000000018003273c     LIBCMT:initsect.obj
 0002:0000b73c       $unwind$_RTC_Terminate     000000018003273c     LIBCMT:initsect.obj
 0002:0000b73c       $unwind$?__scrt_initialize_thread_safe_statics@@YAHXZ 000000018003273c     LIBCMT:thread_safe_statics.obj
 0002:0000b73c       $unwind$??_Gbad_alloc@std@@UEAAPEAXI@Z 000000018003273c     LIBCMT:throw_bad_alloc.obj
 0002:0000b73c       $unwind$??_Gbad_array_new_length@std@@UEAAPEAXI@Z 000000018003273c     LIBCMT:throw_bad_alloc.obj
 0002:0000b73c       $unwind$??_Gexception@std@@UEAAPEAXI@Z 000000018003273c     LIBCMT:throw_bad_alloc.obj
 0002:0000b73c       $unwind$__C_specific_handler_noexcept 000000018003273c     libvcruntime:chandler_noexcept.obj
 0002:0000b73c       $unwind$__FrameUnwindFilter 000000018003273c     libvcruntime:ehhelpers.obj
 0002:0000b73c       $unwind$?SetUnwindTryBlock@__FrameHandler3@@SAXPEA_KPEAU_xDISPATCHER_CONTEXT@@PEBU_s_FuncInfo@@H@Z 000000018003273c     libvcruntime:ehstate.obj
 0002:0000b73c       $unwind$??_Gbad_exception@std@@UEAAPEAXI@Z 000000018003273c     libvcruntime:frame.obj
 0002:0000b73c       $unwind$?ExFilterRethrow@@YAHPEAU_EXCEPTION_POINTERS@@PEAUEHExceptionRecord@@PEAH@Z 000000018003273c     libvcruntime:frame.obj
 0002:0000b73c       $unwind$?ExFilterRethrowFH4@@YAHPEAU_EXCEPTION_POINTERS@@PEAUEHExceptionRecord@@HPEAH@Z 000000018003273c     libvcruntime:frame.obj
 0002:0000b73c       $unwind$_FindAndUnlinkFrame 000000018003273c     libvcruntime:risctrnsctrl.obj
 0002:0000b73c       $unwind$__vcrt_FlsSetValue 000000018003273c     libvcruntime:winapi_downlevel.obj
 0002:0000b748       $unwind$?ChangeBSTR@OposVariant@@QEAAXPEAPEA_WAEAJ@Z 0000000180032748     OposVariant.obj
 0002:0000b748       $unwind$?ChangeLONG@OposVariant@@QEAAXPEAJAEAJ@Z 0000000180032748     OposVariant.obj
 0002:0000b748       $unwind$?x_ismbbtype_l@@YAHPEAU__crt_locale_pointers@@IHH@Z 0000000180032748     libucrt:ismbbyte.obj
 0002:0000b758       $unwind$swprintf_s         0000000180032758     RemoteOrderDisplay.obj
 0002:0000b768       $unwind$?_AtlVerifyStackAvailable@_ATL_SAFE_ALLOCA_IMPL@ATL@@YA_N_K@Z 0000000180032768     RemoteOrderDisplay.obj
 0002:0000b794       $unwind$?filt$0@?0??_AtlVerifyStackAvailable@_ATL_SAFE_ALLOCA_IMPL@ATL@@YA_N_K@Z@4HA 0000000180032794     RemoteOrderDisplay.obj
 0002:0000b794       $unwind$_query_new_handler$fin$0 0000000180032794     libucrt:new_handler.obj
 0002:0000b794       $unwind$?fin$0@?0???$?RV<lambda_0ae27a3a962d80f24befdcbee591983d>@@AEAV<lambda_8d0ee55de4b1038c4002e0adecdf1839>@@V<lambda_dc504788e8f1664fe9b84e20bfb512f2>@@@?$__crt_seh_guarded_call@X@@QEAAX$$QEAV<lambda_0ae27a3a962d80f24befdcbee591983d>@@AEAV<lambda_8d0ee55de4b1038c4002e0adecdf1839>@@$$QEAV<lambda_dc504788e8f1664fe9b84e20bfb512f2>@@@Z@4HA 0000000180032794     libucrt:per_thread_data.obj
 0002:0000b794       $unwind$?fin$0@?0???$?RV<lambda_2d41944a1d46af3157314b8a01080d33>@@AEAV<lambda_8f455de75cd7d7f24b4096f044d8b9e6>@@V<lambda_aa500f224e6afead328df44964fe2772>@@@?$__crt_seh_guarded_call@X@@QEAAX$$QEAV<lambda_2d41944a1d46af3157314b8a01080d33>@@AEAV<lambda_8f455de75cd7d7f24b4096f044d8b9e6>@@$$QEAV<lambda_aa500f224e6afead328df44964fe2772>@@@Z@4HA 0000000180032794     libucrt:per_thread_data.obj
 0002:0000b794       $unwind$?fin$0@?0???$?RV<lambda_aa87e3671a710a21b5dc78c0bdf72e11>@@AEAV<lambda_92619d2358a28f41a33ba319515a20b9>@@V<lambda_6992ecaafeb10aed2b74cb1fae11a551>@@@?$__crt_seh_guarded_call@X@@QEAAX$$QEAV<lambda_aa87e3671a710a21b5dc78c0bdf72e11>@@AEAV<lambda_92619d2358a28f41a33ba319515a20b9>@@$$QEAV<lambda_6992ecaafeb10aed2b74cb1fae11a551>@@@Z@4HA 0000000180032794     libucrt:per_thread_data.obj
 0002:0000b794       $unwind$?fin$0@?0???$?RV<lambda_f2e299630e499de9f9a165e60fcd3db5>@@AEAV<lambda_2ae9d31cdba2644fcbeaf08da7c24588>@@V<lambda_40d01ff24d0e7b3814fdbdcee8eab3c7>@@@?$__crt_seh_guarded_call@X@@QEAAX$$QEAV<lambda_f2e299630e499de9f9a165e60fcd3db5>@@AEAV<lambda_2ae9d31cdba2644fcbeaf08da7c24588>@@$$QEAV<lambda_40d01ff24d0e7b3814fdbdcee8eab3c7>@@@Z@4HA 0000000180032794     libucrt:per_thread_data.obj
 0002:0000b794       $unwind$__acrt_update_thread_locale_data$fin$0 0000000180032794     libucrt:locale_refcounting.obj
 0002:0000b794       $unwind$?fin$0@?0???$?RV<lambda_410d79af7f07d98d83a3f525b3859a53>@@AEAV<lambda_3e16ef9562a7dcce91392c22ab16ea36>@@V<lambda_38119f0e861e05405d8a144b9b982f0a>@@@?$__crt_seh_guarded_call@X@@QEAAX$$QEAV<lambda_410d79af7f07d98d83a3f525b3859a53>@@AEAV<lambda_3e16ef9562a7dcce91392c22ab16ea36>@@$$QEAV<lambda_38119f0e861e05405d8a144b9b982f0a>@@@Z@4HA 0000000180032794     libucrt:wsetlocale.obj
 0002:0000b794       $unwind$?fin$0@?0???$?RV<lambda_ad8af0d99a0adf03d037d7dffe354bb5>@@AEAV<lambda_c9ba49e555ba839a7b07aa3fbecb7617>@@V<lambda_2f1ebd5d68526518146ae959c9e734c8>@@@?$__crt_seh_guarded_call@H@@QEAAH$$QEAV<lambda_ad8af0d99a0adf03d037d7dffe354bb5>@@AEAV<lambda_c9ba49e555ba839a7b07aa3fbecb7617>@@$$QEAV<lambda_2f1ebd5d68526518146ae959c9e734c8>@@@Z@4HA 0000000180032794     libucrt:close.obj
 0002:0000b794       $unwind$?fin$0@?0???$?RV<lambda_a37b2b86f63e897a80ea819b0eb08c01>@@AEAV<lambda_38ce7e780aa69e748d6df282ebc68efe>@@V<lambda_99fb1378e971ab6e7edea83e3a7a83a2>@@@?$__crt_seh_guarded_call@H@@QEAAH$$QEAV<lambda_a37b2b86f63e897a80ea819b0eb08c01>@@AEAV<lambda_38ce7e780aa69e748d6df282ebc68efe>@@$$QEAV<lambda_99fb1378e971ab6e7edea83e3a7a83a2>@@@Z@4HA 0000000180032794     libucrt:commit.obj
 0002:0000b794       $unwind$__acrt_initialize_lowio$fin$0 0000000180032794     libucrt:ioinit.obj
 0002:0000b794       $unwind$__acrt_lowio_ensure_fh_exists$fin$0 0000000180032794     libucrt:osfinfo.obj
 0002:0000b794       $unwind$?fin$0@?0???$?RV<lambda_efdfa57d1f175319df784efa44bb7b81>@@AEAV<lambda_5f0a4c1567f8adc6734073e5d1e1b35c>@@V<lambda_2e8a7d3640ea6ccb4c2413664c2db6fd>@@@?$__crt_seh_guarded_call@X@@QEAAX$$QEAV<lambda_efdfa57d1f175319df784efa44bb7b81>@@AEAV<lambda_5f0a4c1567f8adc6734073e5d1e1b35c>@@$$QEAV<lambda_2e8a7d3640ea6ccb4c2413664c2db6fd>@@@Z@4HA 0000000180032794     libucrt:mbctype.obj
 0002:0000b794       $unwind$?fin$0@?0??update_thread_multibyte_data_internal@@YAPEAU__crt_multibyte_data@@QEAU__acrt_ptd@@QEAPEAU1@@Z@4HA 0000000180032794     libucrt:mbctype.obj
 0002:0000b794       $unwind$?fin$0@?0???$?RV<lambda_450d765d439847d4c735a33c368b5fc0>@@AEAV<lambda_44731a7d0e6d81c3e6aa82d741081786>@@V<lambda_601a2a7da3b7a96e9554ac7215c4b07c>@@@?$__crt_seh_guarded_call@P6AXH@Z@@QEAAP6AXH@Z$$QEAV<lambda_450d765d439847d4c735a33c368b5fc0>@@AEAV<lambda_44731a7d0e6d81c3e6aa82d741081786>@@$$QEAV<lambda_601a2a7da3b7a96e9554ac7215c4b07c>@@@Z@4HA 0000000180032794     libucrt:signal.obj
 0002:0000b794       $unwind$raise$fin$0        0000000180032794     libucrt:signal.obj
 0002:0000b794       $unwind$?filt$0@?0???R<lambda_6e4b09c48022b2350581041d5f6b0c4c>@@QEBA@XZ@4HA 0000000180032794     libucrt:exit.obj
 0002:0000b794       $unwind$?fin$0@?0???$?RV<lambda_d80eeec6fff315bfe5c115232f3240e3>@@AEAV<lambda_6e4b09c48022b2350581041d5f6b0c4c>@@V<lambda_2358e3775559c9db80273638284d5e45>@@@?$__crt_seh_guarded_call@X@@QEAAX$$QEAV<lambda_d80eeec6fff315bfe5c115232f3240e3>@@AEAV<lambda_6e4b09c48022b2350581041d5f6b0c4c>@@$$QEAV<lambda_2358e3775559c9db80273638284d5e45>@@@Z@4HA 0000000180032794     libucrt:exit.obj
 0002:0000b794       $unwind$?fin$0@?0???$?RV<lambda_638799b9deba96c50f710eeac98168cd>@@AEAV<lambda_22ebabd17bc4fa466a2aca6d8deb888d>@@V<lambda_a6f7d7db0129f75315ebf26d50c089f1>@@@?$__crt_seh_guarded_call@H@@QEAAH$$QEAV<lambda_638799b9deba96c50f710eeac98168cd>@@AEAV<lambda_22ebabd17bc4fa466a2aca6d8deb888d>@@$$QEAV<lambda_a6f7d7db0129f75315ebf26d50c089f1>@@@Z@4HA 0000000180032794     libucrt:onexit.obj
 0002:0000b794       $unwind$?fin$0@?0???$?RV<lambda_7777bce6b2f8c936911f934f8298dc43>@@AEAV<lambda_f03950bc5685219e0bcd2087efbe011e>@@V<lambda_3883c3dff614d5e0c5f61bb1ac94921c>@@@?$__crt_seh_guarded_call@H@@QEAAH$$QEAV<lambda_7777bce6b2f8c936911f934f8298dc43>@@AEAV<lambda_f03950bc5685219e0bcd2087efbe011e>@@$$QEAV<lambda_3883c3dff614d5e0c5f61bb1ac94921c>@@@Z@4HA 0000000180032794     libucrt:onexit.obj
 0002:0000b794       $unwind$_fcloseall$fin$0   0000000180032794     libucrt:closeall.obj
 0002:0000b794       $unwind$?fin$0@?0???$?RV<lambda_842d9ff0dc9ef11c61343bbaebe7f885>@@AEAV<lambda_c5860995281e5c4ce005b3de8f5874ee>@@V<lambda_d90129c13df834fdcbf8d2b88dafcf2d>@@@?$__crt_seh_guarded_call@X@@QEAAX$$QEAV<lambda_842d9ff0dc9ef11c61343bbaebe7f885>@@AEAV<lambda_c5860995281e5c4ce005b3de8f5874ee>@@$$QEAV<lambda_d90129c13df834fdcbf8d2b88dafcf2d>@@@Z@4HA 0000000180032794     libucrt:fflush.obj
 0002:0000b794       $unwind$?fin$0@?0???$?RV<lambda_886d6c58226a84441f68b9f2b8217b83>@@AEAV<lambda_ab61a845afdef5b7c387490eaf3616ee>@@V<lambda_f7f22ab5edc0698d5f6905b0d3f44752>@@@?$__crt_seh_guarded_call@X@@QEAAX$$QEAV<lambda_886d6c58226a84441f68b9f2b8217b83>@@AEAV<lambda_ab61a845afdef5b7c387490eaf3616ee>@@$$QEAV<lambda_f7f22ab5edc0698d5f6905b0d3f44752>@@@Z@4HA 0000000180032794     libucrt:fflush.obj
 0002:0000b794       $unwind$_ctrlfp$filt$0     0000000180032794     libucrt:fpctrl.obj
 0002:0000b794       $unwind$common_control87$filt$0 0000000180032794     libucrt:ieee.obj
 0002:0000b794       $unwind$?fin$0@?0??dllmain_crt_process_attach@@YAHQEAUHINSTANCE__@@QEAX@Z@4HA 0000000180032794     LIBCMT:dll_dllmain.obj
 0002:0000b794       $unwind$?fin$0@?0??dllmain_crt_process_detach@@YAH_N@Z@4HA 0000000180032794     LIBCMT:dll_dllmain.obj
 0002:0000b794       $unwind$?fin$1@?0??dllmain_crt_process_detach@@YAH_N@Z@4HA 0000000180032794     LIBCMT:dll_dllmain.obj
 0002:0000b794       $unwind$_IsNonwritableInCurrentImage$filt$0 0000000180032794     LIBCMT:pesect.obj
 0002:0000b794       $unwind$?filt$0@?0??CxxCallCatchBlock@__FrameHandler3@@SAPEAXPEAU_EXCEPTION_RECORD@@@Z@4HA 0000000180032794     libvcruntime:frame.obj
 0002:0000b794       $unwind$?filt$0@?0??CxxCallCatchBlock@__FrameHandler4@@SAPEAXPEAU_EXCEPTION_RECORD@@@Z@4HA 0000000180032794     libvcruntime:frame.obj
 0002:0000b794       $unwind$?filt$0@?0??FrameUnwindToState@__FrameHandler3@@SAXPEA_KPEAU_xDISPATCHER_CONTEXT@@PEBU_s_FuncInfo@@H@Z@4HA 0000000180032794     libvcruntime:frame.obj
 0002:0000b794       $unwind$?fin$1@?0??FrameUnwindToState@__FrameHandler3@@SAXPEA_KPEAU_xDISPATCHER_CONTEXT@@PEBU_s_FuncInfo@@H@Z@4HA 0000000180032794     libvcruntime:frame.obj
 0002:0000b79c       $unwind$?AtlInternalOleLoadFromStream@ATL@@YAJPEAUIStream@@AEBU_GUID@@PEAPEAXTClassesAllowedInStream@1@K@Z 000000018003279c     RemoteOrderDisplay.obj
 0002:0000b7b8       $unwind$?ReadFromStream@CComBSTR@ATL@@QEAAJPEAUIStream@@@Z 00000001800327b8     RemoteOrderDisplay.obj
 0002:0000b7b8       $unwind$_configure_narrow_argv 00000001800327b8     libucrt:argv_parsing.obj
 0002:0000b7cc       $unwind$?WriteToStream@CComVariant@ATL@@QEAAJPEAUIStream@@@Z 00000001800327cc     RemoteOrderDisplay.obj
 0002:0000b7e0       $unwind$?RegOpenKeyExW@CAtlTransactionManager@ATL@@QEAAJPEAUHKEY__@@PEB_WKKPEAPEAU3@@Z 00000001800327e0     RemoteOrderDisplay.obj
 0002:0000b7e0       $unwind$?WriteToStream@CComVariant@ATL@@QEAAJPEAUIStream@@G@Z 00000001800327e0     RemoteOrderDisplay.obj
 0002:0000b7e0       $unwind$__dcrt_write_console 00000001800327e0     libucrt:initcon.obj
 0002:0000b7e0       $unwind$??$__acrt_convert_wcs_mbs_cp@_WDV<lambda_f788ae46380686e8b737efdd8c720d07>@@U__crt_win32_buffer_no_resizing@@@@YAHQEB_WAEAV?$__crt_win32_buffer@DU__crt_win32_buffer_no_resizing@@@@AEBV<lambda_f788ae46380686e8b737efdd8c720d07>@@I@Z 00000001800327e0     libucrt:getmodulefilenamea.obj
 0002:0000b7f4       $unwind$?ReadFromStream@CComVariant@ATL@@QEAAJPEAUIStream@@GTClassesAllowedInStream@2@K@Z 00000001800327f4     RemoteOrderDisplay.obj
 0002:0000b80c       $unwind$?GetSizeMax@CComVariant@ATL@@QEBAJPEAT_ULARGE_INTEGER@@@Z 000000018003280c     RemoteOrderDisplay.obj
 0002:0000b820       $unwind$?RegCreateKeyExW@CAtlTransactionManager@ATL@@QEAAJPEAUHKEY__@@PEB_WKPEA_WKKQEAU_SECURITY_ATTRIBUTES@@PEAPEAU3@PEAK@Z 0000000180032820     RemoteOrderDisplay.obj
 0002:0000b834       $unwind$?GetGITPtr@CAtlModule@ATL@@UEAAJPEAPEAUIGlobalInterfaceTable@@@Z 0000000180032834     RemoteOrderDisplay.obj
 0002:0000b834       $unwind$?RegDeleteKeyW@CAtlTransactionManager@ATL@@QEAAJPEAUHKEY__@@PEB_W@Z 0000000180032834     RemoteOrderDisplay.obj
 0002:0000b834       $unwind$?getStateFromIterators@UWMap4@FH4@@SAHAEBViterator@12@H0H0@Z 0000000180032834     libvcruntime:frame.obj
 0002:0000b844       $unwind$?AtlHiMetricToPixel@ATL@@YAXPEBUtagSIZE@@PEAU2@@Z 0000000180032844     RemoteOrderDisplay.obj
 0002:0000b844       $unwind$?AtlInternalQueryInterface@ATL@@YAJPEAXPEBU_ATL_INTMAP_ENTRY@1@AEBU_GUID@@PEAPEAX@Z 0000000180032844     RemoteOrderDisplay.obj
 0002:0000b85c       $unwind$?Append@CParseBuffer@CRegParser@ATL@@QEAAHPEB_WH@Z 000000018003285c     RemoteOrderDisplay.obj
 0002:0000b85c       $unwind$?AtlComModuleGetClassObject@ATL@@YAJPEAU_ATL_COM_MODULE70@1@AEBU_GUID@@1PEAPEAX@Z 000000018003285c     RemoteOrderDisplay.obj
 0002:0000b85c       $unwind$?GetClassObject@CComModule@ATL@@QEAAJAEBU_GUID@@0PEAPEAX@Z 000000018003285c     RemoteOrderDisplay.obj
 0002:0000b85c       $unwind$?NextToken@CRegParser@ATL@@IEAAJPEA_W@Z 000000018003285c     RemoteOrderDisplay.obj
 0002:0000b85c       $unwind$?StartWindowProc@?$CWindowImplBaseT@VCWindow@ATL@@V?$CWinTraits@$0FGAAAAAA@$0A@@2@@ATL@@SA_JPEAUHWND__@@I_K_J@Z 000000018003285c     RemoteOrderDisplay.obj
 0002:0000b85c       $unwind$?fp_format_f_internal@@YAHQEAD_KHQEAU_strflt@@_NAEAV__crt_cached_ptd_host@@@Z 000000018003285c     libucrt:cvt.obj
 0002:0000b85c       $unwind$__acrt_DownlevelLocaleNameToLCID 000000018003285c     libucrt:lcidtoname_downlevel.obj
 0002:0000b85c       $unwind$??R<lambda_f03950bc5685219e0bcd2087efbe011e>@@QEBAHXZ 000000018003285c     libucrt:onexit.obj
 0002:0000b874       $unwind$?AtlRegisterClassCategoriesHelper@ATL@@YAJAEBU_GUID@@PEBU_ATL_CATMAP_ENTRY@1@H@Z 0000000180032874     RemoteOrderDisplay.obj
 0002:0000b898       $unwind$?AtlLoadTypeLib@ATL@@YAJPEAUHINSTANCE__@@PEB_WPEAPEA_WPEAPEAUITypeLib@@@Z 0000000180032898     RemoteOrderDisplay.obj
 0002:0000b8b8       $unwind$?AtlRegisterTypeLib@ATL@@YAJPEAUHINSTANCE__@@PEB_W@Z 00000001800328b8     RemoteOrderDisplay.obj
 0002:0000b8d4       $unwind$?AtlUnRegisterTypeLib@ATL@@YAJPEAUHINSTANCE__@@PEB_W@Z 00000001800328d4     RemoteOrderDisplay.obj
 0002:0000b8dc       $unwind$?GetTI@CComTypeInfoHolder@ATL@@QEAAJK@Z 00000001800328dc     RemoteOrderDisplay.obj
 0002:0000b8dc       $unwind$?RecurseDeleteKey@CRegKey@ATL@@QEAAJPEB_W@Z 00000001800328dc     RemoteOrderDisplay.obj
 0002:0000b8fc       $unwind$?UpdateRegistryFromResource@CAtlModule@ATL@@QEAAJIHPEAU_ATL_REGMAP_ENTRY@2@@Z 00000001800328fc     RemoteOrderDisplay.obj
 0002:0000b8fc       $unwind$?UpdateRegistryFromResource@CAtlModule@ATL@@QEAAJPEB_WHPEAU_ATL_REGMAP_ENTRY@2@@Z 00000001800328fc     RemoteOrderDisplay.obj
 0002:0000b91c       $unwind$?Lookup@?$CSimpleMap@PEA_WPEA_WVCExpansionVectorEqualHelper@ATL@@@ATL@@QEBAPEA_WAEBQEA_W@Z 000000018003291c     RemoteOrderDisplay.obj
 0002:0000b91c       $unwind$_free_osfhnd       000000018003291c     libucrt:osfinfo.obj
 0002:0000b91c       $unwind$__std_exception_copy 000000018003291c     libvcruntime:std_exception.obj
 0002:0000b930       $unwind$?Add@CExpansionVector@ATL@@QEAAHPEB_W0@Z 0000000180032930     RemoteOrderDisplay.obj
 0002:0000b948       $unwind$?PreProcessBuffer@CRegParser@ATL@@QEAAJPEA_WPEAPEA_W@Z 0000000180032948     RemoteOrderDisplay.obj
 0002:0000b96c       $unwind$?RegisterBuffer@CRegParser@ATL@@QEAAJPEA_WH@Z 000000018003296c     RemoteOrderDisplay.obj
 0002:0000b98c       $unwind$?AddValue@CRegParser@ATL@@IEAAJAEAVCRegKey@2@PEB_WPEA_W@Z 000000018003298c     RemoteOrderDisplay.obj
 0002:0000b9ac       $unwind$?RegisterSubkeys@CRegParser@ATL@@IEAAJPEA_WPEAUHKEY__@@HH@Z 00000001800329ac     RemoteOrderDisplay.obj
 0002:0000b9cc       $unwind$?SkipAssignment@CRegParser@ATL@@IEAAJPEA_W@Z 00000001800329cc     RemoteOrderDisplay.obj
 0002:0000b9e8       $unwind$?RegisterFromResource@CRegObject@ATL@@IEAAJPEB_W00H@Z 00000001800329e8     RemoteOrderDisplay.obj
 0002:0000ba08       $unwind$?Cleanup@CComTypeInfoHolder@ATL@@SAX_K@Z 0000000180032a08     RemoteOrderDisplay.obj
 0002:0000ba08       $unwind$_free_base         0000000180032a08     libucrt:free_base.obj
 0002:0000ba08       $unwind$?destroy_fls@@YAXPEAX@Z 0000000180032a08     libucrt:per_thread_data.obj
 0002:0000ba08       $unwind$__acrt_locale_free_numeric 0000000180032a08     libucrt:initnum.obj
 0002:0000ba08       $unwind$__acrt_locale_free_lc_time_if_unreferenced 0000000180032a08     libucrt:locale_refcounting.obj
 0002:0000ba08       $unwind$AtlThunk_FreeData  0000000180032a08     atls:atlthunk.obj
 0002:0000ba10       $unwind$?GetIDsOfNames@CComTypeInfoHolder@ATL@@QEAAJAEBU_GUID@@PEAPEA_WIKPEAJ@Z 0000000180032a10     RemoteOrderDisplay.obj
 0002:0000ba2c       $unwind$?LoadNameCache@CComTypeInfoHolder@ATL@@QEAAJPEAUITypeInfo@@@Z 0000000180032a2c     RemoteOrderDisplay.obj
 0002:0000ba44       $unwind$?WindowProc@?$CWindowImplBaseT@VCWindow@ATL@@V?$CWinTraits@$0FGAAAAAA@$0A@@2@@ATL@@SA_JPEAUHWND__@@I_K_J@Z 0000000180032a44     RemoteOrderDisplay.obj
 0002:0000ba5c       $unwind$?atlCreate@?$CWindowImplBaseT@VCWindow@ATL@@V?$CWinTraits@$0FGAAAAAA@$0A@@2@@ATL@@QEAAPEAUHWND__@@PEAU3@V_U_RECT@2@PEB_WKKV_U_MENUorID@2@GPEAX@Z 0000000180032a5c     RemoteOrderDisplay.obj
 0002:0000ba74       $unwind$??$AtlModuleRegisterWndClassInfoT@VAtlModuleRegisterWndClassInfoParamW@ATL@@@ATL@@YAGPEAU_ATL_BASE_MODULE70@0@PEAU_ATL_WIN_MODULE70@0@PEAU_ATL_WNDCLASSINFOW@0@PEAP6A_JPEAUHWND__@@I_K_J@ZVAtlModuleRegisterWndClassInfoParamW@0@@Z 0000000180032a74     RemoteOrderDisplay.obj
 0002:0000ba94       $unwind$?GetZoomInfo@CComControlBase@ATL@@QEAAXAEAUATL_DRAWINFO@@@Z 0000000180032a94     RemoteOrderDisplay.obj
 0002:0000ba94       $unwind$?OnKillFocus@CComControlBase@ATL@@QEAA_JI_K_JAEAH@Z 0000000180032a94     RemoteOrderDisplay.obj
 0002:0000ba94       $unwind$?get_raw_ptd@__crt_cached_ptd_host@@QEAAPEAU__acrt_ptd@@XZ 0000000180032a94     libucrt:invalid_parameter.obj
 0002:0000baa0       $unwind$?SendOnDataChange@CComControlBase@ATL@@QEAAJK@Z 0000000180032aa0     RemoteOrderDisplay.obj
 0002:0000bab0       $unwind$?OnSetFocus@CComControlBase@ATL@@QEAA_JI_K_JAEAH@Z 0000000180032ab0     RemoteOrderDisplay.obj
 0002:0000bac4       $unwind$?OnMouseActivate@CComControlBase@ATL@@QEAA_JI_K_JAEAH@Z 0000000180032ac4     RemoteOrderDisplay.obj
 0002:0000bacc       $unwind$?GetAmbientLocaleID@CComControlBase@ATL@@QEAAJAEAK@Z 0000000180032acc     RemoteOrderDisplay.obj
 0002:0000bacc       $unwind$?GetAmbientUserMode@CComControlBase@ATL@@QEAAJAEAH@Z 0000000180032acc     RemoteOrderDisplay.obj
 0002:0000badc       $unwind$?IQuickActivate_QuickActivate@CComControlBase@ATL@@QEAAJPEAUtagQACONTAINER@@PEAUtagQACONTROL@@@Z 0000000180032adc     RemoteOrderDisplay.obj
 0002:0000baf4       $unwind$?DoVerbProperties@CComControlBase@ATL@@QEAAJPEBUtagRECT@@PEAUHWND__@@@Z 0000000180032af4     RemoteOrderDisplay.obj
 0002:0000bb0c       $unwind$?InPlaceActivate@CComControlBase@ATL@@QEAAJJPEBUtagRECT@@@Z 0000000180032b0c     RemoteOrderDisplay.obj
 0002:0000bb2c       $unwind$?IOleObject_Close@CComControlBase@ATL@@QEAAJK@Z 0000000180032b2c     RemoteOrderDisplay.obj
 0002:0000bb2c       $unwind$?get_raw_ptd_noexit@__crt_cached_ptd_host@@QEAAPEAU__acrt_ptd@@XZ 0000000180032b2c     libucrt:invalid_parameter.obj
 0002:0000bb2c       $unwind$?type_case_c_tchar@?$output_processor@_WV?$string_output_adapter@_W@__crt_stdio_output@@V?$format_validation_base@_WV?$string_output_adapter@_W@__crt_stdio_output@@@2@@__crt_stdio_output@@AEAA_N_W@Z 0000000180032b2c     libucrt:output.obj
 0002:0000bb3c       $unwind$?IOleInPlaceObject_UIDeactivate@CComControlBase@ATL@@QEAAJXZ 0000000180032b3c     RemoteOrderDisplay.obj
 0002:0000bb54       $unwind$?IOleInPlaceObject_SetObjectRects@CComControlBase@ATL@@QEAAJPEBUtagRECT@@0@Z 0000000180032b54     RemoteOrderDisplay.obj
 0002:0000bb68       $unwind$?IViewObject_Draw@CComControlBase@ATL@@QEAAJKJPEAXPEAUtagDVTARGETDEVICE@@PEAUHDC__@@2PEBU_RECTL@@3@Z 0000000180032b68     RemoteOrderDisplay.obj
 0002:0000bb84       $unwind$?IDataObject_GetData@CComControlBase@ATL@@QEAAJPEAUtagFORMATETC@@PEAUtagSTGMEDIUM@@@Z 0000000180032b84     RemoteOrderDisplay.obj
 0002:0000bba4       $unwind$?OnPaint@CComControlBase@ATL@@QEAA_JI_K_JAEAH@Z 0000000180032ba4     RemoteOrderDisplay.obj
 0002:0000bbc0       $unwind$?OnDrawAdvanced@CComControlBase@ATL@@UEAAJAEAUATL_DRAWINFO@@@Z 0000000180032bc0     RemoteOrderDisplay.obj
 0002:0000bbdc       $unwind$?Invoke@?$IDispatchImpl@UIOPOSRemoteOrderDisplay@@$1?IID_IOPOSRemoteOrderDisplay@@3U_GUID@@B$1?LIBID_OposRemoteOrderDisplay_CCO@@3U3@B$00$0A@VCComTypeInfoHolder@ATL@@@ATL@@UEAAJJAEBU_GUID@@KGPEAUtagDISPPARAMS@@PEAUtagVARIANT@@PEAUtagEXCEPINFO@@PEAI@Z 0000000180032bdc     RemoteOrderDisplay.obj
 0002:0000bbdc       $unwind$?ReleaseDevice@COPOSRemoteOrderDisplay@@UEAAJPEAJ@Z 0000000180032bdc     RemoteOrderDisplayImpl.obj
 0002:0000bbdc       $unwind$_mbsdec_l          0000000180032bdc     libucrt:mbsdec.obj
 0002:0000bbe8       $unwind$?atlCreate@?$CWindowImpl@VCOPOSRemoteOrderDisplay@@VCWindow@ATL@@V?$CWinTraits@$0FGAAAAAA@$0A@@3@@ATL@@QEAAPEAUHWND__@@PEAU3@V_U_RECT@2@PEB_WKKV_U_MENUorID@2@PEAX@Z 0000000180032be8     RemoteOrderDisplay.obj
 0002:0000bbe8       $unwind$?fp_format_f@@YAHQEBNQEAD_K12HW4__acrt_rounding_mode@@AEAV__crt_cached_ptd_host@@@Z 0000000180032be8     libucrt:cvt.obj
 0002:0000bbe8       $unwind$__acrt_LCMapStringEx 0000000180032be8     libucrt:winapi_thunks.obj
 0002:0000bbfc       $unwind$?CreateControlWindow@?$CComControl@VCOPOSRemoteOrderDisplay@@V?$CWindowImpl@VCOPOSRemoteOrderDisplay@@VCWindow@ATL@@V?$CWinTraits@$0FGAAAAAA@$0A@@3@@ATL@@@ATL@@UEAAPEAUHWND__@@PEAU3@AEAUtagRECT@@@Z 0000000180032bfc     RemoteOrderDisplay.obj
 0002:0000bbfc       $unwind$?ClearInput@COPOSRemoteOrderDisplay@@UEAAJPEAJ@Z 0000000180032bfc     RemoteOrderDisplayImpl.obj
 0002:0000bbfc       $unwind$?ClearOutput@COPOSRemoteOrderDisplay@@UEAAJPEAJ@Z 0000000180032bfc     RemoteOrderDisplayImpl.obj
 0002:0000bbfc       $unwind$_raise_exc         0000000180032bfc     libucrt:fpexcept.obj
 0002:0000bbfc       $unwind$?__scrt_throw_std_bad_alloc@@YAXXZ 0000000180032bfc     LIBCMT:throw_bad_alloc.obj
 0002:0000bbfc       $unwind$?__scrt_throw_std_bad_array_new_length@@YAXXZ 0000000180032bfc     LIBCMT:throw_bad_alloc.obj
 0002:0000bc04       $unwind$?ProcessWindowMessage@?$CComControl@VCOPOSRemoteOrderDisplay@@V?$CWindowImpl@VCOPOSRemoteOrderDisplay@@VCWindow@ATL@@V?$CWinTraits@$0FGAAAAAA@$0A@@3@@ATL@@@ATL@@UEAAHPEAUHWND__@@I_K_JAEA_JK@Z 0000000180032c04     RemoteOrderDisplay.obj
 0002:0000bc0c       $unwind$?GetSizeMax@?$IPersistStreamInitImpl@VCOPOSRemoteOrderDisplay@@@ATL@@UEAAJPEAT_ULARGE_INTEGER@@@Z 0000000180032c0c     RemoteOrderDisplay.obj
 0002:0000bc24       $unwind$?IPersistStreamInit_Load@?$IPersistStreamInitImpl@VCOPOSRemoteOrderDisplay@@@ATL@@QEAAJPEAUIStream@@PEBUATL_PROPMAP_ENTRY@2@@Z 0000000180032c24     RemoteOrderDisplay.obj
 0002:0000bc40       $unwind$?IPersistStreamInit_Save@?$IPersistStreamInitImpl@VCOPOSRemoteOrderDisplay@@@ATL@@QEAAJPEAUIStream@@HPEBUATL_PROPMAP_ENTRY@2@@Z 0000000180032c40     RemoteOrderDisplay.obj
 0002:0000bc5c       $unwind$?DoVerbPrimary@?$IOleObjectImpl@VCOPOSRemoteOrderDisplay@@@ATL@@QEAAJPEBUtagRECT@@PEAUHWND__@@@Z 0000000180032c5c     RemoteOrderDisplay.obj
 0002:0000bc5c       $unwind$?ClearVideo@COPOSRemoteOrderDisplay@@UEAAJJJPEAJ@Z 0000000180032c5c     RemoteOrderDisplayImpl.obj
 0002:0000bc5c       $unwind$?ControlCursor@COPOSRemoteOrderDisplay@@UEAAJJJPEAJ@Z 0000000180032c5c     RemoteOrderDisplayImpl.obj
 0002:0000bc5c       $unwind$?FreeVideoRegion@COPOSRemoteOrderDisplay@@UEAAJJJPEAJ@Z 0000000180032c5c     RemoteOrderDisplayImpl.obj
 0002:0000bc5c       $unwind$?SelectCharacterSet@COPOSRemoteOrderDisplay@@UEAAJJJPEAJ@Z 0000000180032c5c     RemoteOrderDisplayImpl.obj
 0002:0000bc5c       $unwind$?TransactionDisplay@COPOSRemoteOrderDisplay@@UEAAJJJPEAJ@Z 0000000180032c5c     RemoteOrderDisplayImpl.obj
 0002:0000bc74       $unwind$?TranslateAcceleratorW@?$IOleInPlaceActiveObjectImpl@VCOPOSRemoteOrderDisplay@@@ATL@@UEAAJPEAUtagMSG@@@Z 0000000180032c74     RemoteOrderDisplay.obj
 0002:0000bc80       $unwind$?Draw@?$IViewObjectExImpl@VCOPOSRemoteOrderDisplay@@@ATL@@UEAAJKJPEAXPEAUtagDVTARGETDEVICE@@PEAUHDC__@@2PEBU_RECTL@@3P6AH_K@Z4@Z 0000000180032c80     RemoteOrderDisplay.obj
 0002:0000bc88       $unwind$?QueryHitRect@?$IViewObjectExImpl@VCOPOSRemoteOrderDisplay@@@ATL@@UEAAJKPEBUtagRECT@@0JPEAK@Z 0000000180032c88     RemoteOrderDisplay.obj
 0002:0000bc98       $unwind$?OnWindowMessage@?$IOleInPlaceObjectWindowlessImpl@VCOPOSRemoteOrderDisplay@@@ATL@@UEAAJI_K_JPEA_J@Z 0000000180032c98     RemoteOrderDisplay.obj
 0002:0000bcac       $unwind$?EnumConnectionPoints@?$IConnectionPointContainerImpl@VCOPOSRemoteOrderDisplay@@@ATL@@UEAAJPEAPEAUIEnumConnectionPoints@@@Z 0000000180032cac     RemoteOrderDisplay.obj
 0002:0000bcd4       $unwind$?FindConnectionPoint@?$IConnectionPointContainerImpl@VCOPOSRemoteOrderDisplay@@@ATL@@UEAAJAEBU_GUID@@PEAPEAUIConnectionPoint@@@Z 0000000180032cd4     RemoteOrderDisplay.obj
 0002:0000bcf0       $unwind$?Load@?$IPersistStorageImpl@VCOPOSRemoteOrderDisplay@@@ATL@@UEAAJPEAUIStorage@@@Z 0000000180032cf0     RemoteOrderDisplay.obj
 0002:0000bd00       $unwind$?Save@?$IPersistStorageImpl@VCOPOSRemoteOrderDisplay@@@ATL@@UEAAJPEAUIStorage@@H@Z 0000000180032d00     RemoteOrderDisplay.obj
 0002:0000bd14       $unwind$?IPSI_GetIPersistStreamInit@?$IPersistStorageImpl@VCOPOSRemoteOrderDisplay@@@ATL@@AEAAPEAUIPersistStreamInit@@XZ 0000000180032d14     RemoteOrderDisplay.obj
 0002:0000bd28       $unwind$?GetInterfaceSafetyOptions@?$IObjectSafetyImpl@VCOPOSRemoteOrderDisplay@@$02@ATL@@UEAAJAEBU_GUID@@PEAK1@Z 0000000180032d28     RemoteOrderDisplay.obj
 0002:0000bd3c       $unwind$?SetInterfaceSafetyOptions@?$IObjectSafetyImpl@VCOPOSRemoteOrderDisplay@@$02@ATL@@UEAAJAEBU_GUID@@KK@Z 0000000180032d3c     RemoteOrderDisplay.obj
 0002:0000bd50       $unwind$?Advise@?$IConnectionPointImpl@VCOPOSRemoteOrderDisplay@@$1?DIID__IOPOSRemoteOrderDisplayEvents@@3U_GUID@@BVCComDynamicUnkArray@ATL@@@ATL@@UEAAJPEAUIUnknown@@PEAK@Z 0000000180032d50     RemoteOrderDisplay.obj
 0002:0000bd50       $unwind$?Advise@?$IConnectionPointImpl@VCOPOSRemoteOrderDisplay@@$1?IID_IPropertyNotifySink@@3U_GUID@@BVCComDynamicUnkArray@ATL@@@ATL@@UEAAJPEAUIUnknown@@PEAK@Z 0000000180032d50     RemoteOrderDisplay.obj
 0002:0000bd64       $unwind$?EnumConnections@?$IConnectionPointImpl@VCOPOSRemoteOrderDisplay@@$1?DIID__IOPOSRemoteOrderDisplayEvents@@3U_GUID@@BVCComDynamicUnkArray@ATL@@@ATL@@UEAAJPEAPEAUIEnumConnections@@@Z 0000000180032d64     RemoteOrderDisplay.obj
 0002:0000bd64       $unwind$?EnumConnections@?$IConnectionPointImpl@VCOPOSRemoteOrderDisplay@@$1?IID_IPropertyNotifySink@@3U_GUID@@BVCComDynamicUnkArray@ATL@@@ATL@@UEAAJPEAPEAUIEnumConnections@@@Z 0000000180032d64     RemoteOrderDisplay.obj
 0002:0000bd7c       $unwind$?Fire_DataEvent@?$CProxy_IOPOSEvents@VCOPOSRemoteOrderDisplay@@@@QEAAXJ@Z 0000000180032d7c     RemoteOrderDisplay.obj
 0002:0000bd7c       $unwind$?Fire_OutputCompleteEvent@?$CProxy_IOPOSEvents@VCOPOSRemoteOrderDisplay@@@@QEAAXJ@Z 0000000180032d7c     RemoteOrderDisplay.obj
 0002:0000bd7c       $unwind$?Fire_StatusUpdateEvent@?$CProxy_IOPOSEvents@VCOPOSRemoteOrderDisplay@@@@QEAAXJ@Z 0000000180032d7c     RemoteOrderDisplay.obj
 0002:0000bd7c       $unwind$?fp_format_e@@YAHQEBNQEAD_K12H_NIW4__acrt_rounding_mode@@AEAV__crt_cached_ptd_host@@@Z 0000000180032d7c     libucrt:cvt.obj
 0002:0000bd7c       $unwind$??$__InternalCxxFrameHandler@V__FrameHandler3@@@@YA?AW4_EXCEPTION_DISPOSITION@@PEAUEHExceptionRecord@@PEA_KPEAU_CONTEXT@@PEAU_xDISPATCHER_CONTEXT@@PEBU_s_FuncInfo@@H1E@Z 0000000180032d7c     libvcruntime:frame.obj
 0002:0000bd94       $unwind$?Fire_DirectIOEvent@?$CProxy_IOPOSEvents@VCOPOSRemoteOrderDisplay@@@@QEAAXJPEAJPEAPEA_W@Z 0000000180032d94     RemoteOrderDisplay.obj
 0002:0000bdb4       $unwind$?Fire_ErrorEvent@?$CProxy_IOPOSEvents@VCOPOSRemoteOrderDisplay@@@@QEAAXJJJPEAJ@Z 0000000180032db4     RemoteOrderDisplay.obj
 0002:0000bdd4       $unwind$?FireTheEvent@?$CProxy_IOPOSEvents@VCOPOSRemoteOrderDisplay@@@@IEAAXPEAVOposVariant@@IAEAJPEB_WJ@Z 0000000180032dd4     RemoteOrderDisplay.obj
 0002:0000bde4       $unwind$?ProcessWindowMessage@COPOSRemoteOrderDisplay@@UEAAHPEAUHWND__@@I_K_JAEA_JK@Z 0000000180032de4     RemoteOrderDisplay.obj
 0002:0000bdfc       $unwind$?SOError@COPOSRemoteOrderDisplay@@MEAAJJJJPEAJ@Z 0000000180032dfc     RemoteOrderDisplay.obj
 0002:0000bdfc       $unwind$??$common_lseek_nolock@_J@@YA_JH_JHAEAV__crt_cached_ptd_host@@@Z 0000000180032dfc     libucrt:lseek.obj
 0002:0000bdfc       $unwind$_invalid_parameter_internal 0000000180032dfc     libucrt:invalid_parameter.obj
 0002:0000bdfc       $unwind$??$type_case_integer@$07@?$output_processor@_WV?$string_output_adapter@_W@__crt_stdio_output@@V?$format_validation_base@_WV?$string_output_adapter@_W@__crt_stdio_output@@@2@@__crt_stdio_output@@AEAA_N_N@Z 0000000180032dfc     libucrt:output.obj
 0002:0000bdfc       $unwind$??$type_case_integer@$09@?$output_processor@_WV?$string_output_adapter@_W@__crt_stdio_output@@V?$format_validation_base@_WV?$string_output_adapter@_W@__crt_stdio_output@@@2@@__crt_stdio_output@@AEAA_N_N@Z 0000000180032dfc     libucrt:output.obj
 0002:0000bdfc       $unwind$??$type_case_integer@$0BA@@?$output_processor@_WV?$string_output_adapter@_W@__crt_stdio_output@@V?$format_validation_base@_WV?$string_output_adapter@_W@__crt_stdio_output@@@2@@__crt_stdio_output@@AEAA_N_N@Z 0000000180032dfc     libucrt:output.obj
 0002:0000be10       $unwind$?Clone@?$CComEnumImpl@UIEnumConnectionPoints@@$1?_GUID_b196b285_bab4_101a_b69c_00aa00341d07@@3U__s_GUID@@BPEAUIConnectionPoint@@V?$_CopyInterface@UIConnectionPoint@@@ATL@@@ATL@@UEAAJPEAPEAUIEnumConnectionPoints@@@Z 0000000180032e10     RemoteOrderDisplay.obj
 0002:0000be10       $unwind$?Clone@?$CComEnumImpl@UIEnumConnections@@$1?_GUID_b196b287_bab4_101a_b69c_00aa00341d07@@3U__s_GUID@@BUtagCONNECTDATA@@V?$_Copy@UtagCONNECTDATA@@@ATL@@@ATL@@UEAAJPEAPEAUIEnumConnections@@@Z 0000000180032e10     RemoteOrderDisplay.obj
 0002:0000be28       $unwind$?Init@?$CComEnumImpl@UIEnumConnectionPoints@@$1?_GUID_b196b285_bab4_101a_b69c_00aa00341d07@@3U__s_GUID@@BPEAUIConnectionPoint@@V?$_CopyInterface@UIConnectionPoint@@@ATL@@@ATL@@QEAAJPEAPEAUIConnectionPoint@@0PEAUIUnknown@@W4CComEnumFlags@2@@Z 0000000180032e28     RemoteOrderDisplay.obj
 0002:0000be28       $unwind$?Init@?$CComEnumImpl@UIEnumConnections@@$1?_GUID_b196b287_bab4_101a_b69c_00aa00341d07@@3U__s_GUID@@BUtagCONNECTDATA@@V?$_Copy@UtagCONNECTDATA@@@ATL@@@ATL@@QEAAJPEAUtagCONNECTDATA@@0PEAUIUnknown@@W4CComEnumFlags@2@@Z 0000000180032e28     RemoteOrderDisplay.obj
 0002:0000be28       $unwind$?should_round_up@@YA_NQEBN_KFW4__acrt_rounding_mode@@@Z 0000000180032e28     libucrt:cvt.obj
 0002:0000be28       $unwind$??$parse_command_line@D@@YAXPEADPEAPEAD0PEA_K2@Z 0000000180032e28     libucrt:argv_parsing.obj
 0002:0000be44       $unwind$?GetOposProp@COPOSRemoteOrderDisplay@@IEAAJJPEAJJ@Z 0000000180032e44     RemoteOrderDisplayImpl.obj
 0002:0000be44       $unwind$?GetOposProp@COPOSRemoteOrderDisplay@@IEAAJJPEAPEA_WJ@Z 0000000180032e44     RemoteOrderDisplayImpl.obj
 0002:0000be5c       $unwind$?SetOposProp@COPOSRemoteOrderDisplay@@IEAAJJJJ@Z 0000000180032e5c     RemoteOrderDisplayImpl.obj
 0002:0000be7c       $unwind$?DoInvoke@COPOSRemoteOrderDisplay@@IEAAJJPEAVOposVariant@@IHPEAJ_N@Z 0000000180032e7c     RemoteOrderDisplayImpl.obj
 0002:0000be94       $unwind$?SetCOFreezeEvents@COPOSRemoteOrderDisplay@@IEAAXF@Z 0000000180032e94     RemoteOrderDisplayImpl.obj
 0002:0000bea8       $unwind$?OnDraw@COPOSRemoteOrderDisplay@@MEAAJAEAUATL_DRAWINFO@@@Z 0000000180032ea8     RemoteOrderDisplayImpl.obj
 0002:0000bec0       $unwind$?EventInit@COPOSRemoteOrderDisplay@@IEAAJXZ 0000000180032ec0     RemoteOrderDisplayImpl.obj
 0002:0000bed4       $unwind$?EventWindowProc@COPOSRemoteOrderDisplay@@IEAA_JI_K_J@Z 0000000180032ed4     RemoteOrderDisplayImpl.obj
 0002:0000bed4       $unwind$?type_case_n@?$output_processor@_WV?$string_output_adapter@_W@__crt_stdio_output@@V?$format_validation_base@_WV?$string_output_adapter@_W@__crt_stdio_output@@@2@@__crt_stdio_output@@AEAA_NXZ 0000000180032ed4     libucrt:output.obj
 0002:0000bee0       $unwind$?get_ControlObjectDescription@COPOSRemoteOrderDisplay@@UEAAJPEAPEA_W@Z 0000000180032ee0     RemoteOrderDisplayImpl.obj
 0002:0000bee0       $unwind$__dcrt_lowio_ensure_console_output_initialized 0000000180032ee0     libucrt:initcon.obj
 0002:0000bee0       $unwind$?__mbrtowc_utf8@__crt_mbstring@@YA_KPEA_WPEBD_KPEAU_Mbstatet@@AEAV__crt_cached_ptd_host@@@Z 0000000180032ee0     libucrt:mbrtowc.obj
 0002:0000bee0       $unwind$?getSystemCP@@YAHH@Z 0000000180032ee0     libucrt:mbctype.obj
 0002:0000bee8       $unwind$?CheckHealth@COPOSRemoteOrderDisplay@@UEAAJJPEAJ@Z 0000000180032ee8     RemoteOrderDisplayImpl.obj
 0002:0000bee8       $unwind$?ResetStatistics@COPOSRemoteOrderDisplay@@UEAAJPEA_WPEAJ@Z 0000000180032ee8     RemoteOrderDisplayImpl.obj
 0002:0000bee8       $unwind$?ResetVideo@COPOSRemoteOrderDisplay@@UEAAJJPEAJ@Z 0000000180032ee8     RemoteOrderDisplayImpl.obj
 0002:0000bee8       $unwind$?RetrieveStatistics@COPOSRemoteOrderDisplay@@UEAAJPEAPEA_WPEAJ@Z 0000000180032ee8     RemoteOrderDisplayImpl.obj
 0002:0000bee8       $unwind$?UpdateFirmware@COPOSRemoteOrderDisplay@@UEAAJPEA_WPEAJ@Z 0000000180032ee8     RemoteOrderDisplayImpl.obj
 0002:0000bee8       $unwind$?UpdateStatistics@COPOSRemoteOrderDisplay@@UEAAJPEA_WPEAJ@Z 0000000180032ee8     RemoteOrderDisplayImpl.obj
 0002:0000bef8       $unwind$?ClaimDevice@COPOSRemoteOrderDisplay@@UEAAJJPEAJ@Z 0000000180032ef8     RemoteOrderDisplayImpl.obj
 0002:0000bf08       $unwind$?Close@COPOSRemoteOrderDisplay@@UEAAJPEAJ@Z 0000000180032f08     RemoteOrderDisplayImpl.obj
 0002:0000bf14       $unwind$?DirectIO@COPOSRemoteOrderDisplay@@UEAAJJPEAJPEAPEA_W0@Z 0000000180032f14     RemoteOrderDisplayImpl.obj
 0002:0000bf30       $unwind$?Open@COPOSRemoteOrderDisplay@@UEAAJPEA_WPEAJ@Z 0000000180032f30     RemoteOrderDisplayImpl.obj
 0002:0000bf54       $unwind$?ClearVideoRegion@COPOSRemoteOrderDisplay@@UEAAJJJJJJJPEAJ@Z 0000000180032f54     RemoteOrderDisplayImpl.obj
 0002:0000bf54       $unwind$?SaveVideoRegion@COPOSRemoteOrderDisplay@@UEAAJJJJJJJPEAJ@Z 0000000180032f54     RemoteOrderDisplayImpl.obj
 0002:0000bf70       $unwind$?ControlClock@COPOSRemoteOrderDisplay@@UEAAJJJJJJJJJJJPEAJ@Z 0000000180032f70     RemoteOrderDisplayImpl.obj
 0002:0000bf90       $unwind$?CopyVideoRegion@COPOSRemoteOrderDisplay@@UEAAJJJJJJJJPEAJ@Z 0000000180032f90     RemoteOrderDisplayImpl.obj
 0002:0000bf90       $unwind$?DrawBox@COPOSRemoteOrderDisplay@@UEAAJJJJJJJJPEAJ@Z 0000000180032f90     RemoteOrderDisplayImpl.obj
 0002:0000bf90       $unwind$?UpdateVideoRegionAttribute@COPOSRemoteOrderDisplay@@UEAAJJJJJJJJPEAJ@Z 0000000180032f90     RemoteOrderDisplayImpl.obj
 0002:0000bfac       $unwind$?DisplayData@COPOSRemoteOrderDisplay@@UEAAJJJJJPEA_WPEAJ@Z 0000000180032fac     RemoteOrderDisplayImpl.obj
 0002:0000bfcc       $unwind$?RestoreVideoRegion@COPOSRemoteOrderDisplay@@UEAAJJJJJPEAJ@Z 0000000180032fcc     RemoteOrderDisplayImpl.obj
 0002:0000bfe8       $unwind$?SetCursor@COPOSRemoteOrderDisplay@@UEAAJJJJPEAJ@Z 0000000180032fe8     RemoteOrderDisplayImpl.obj
 0002:0000c004       $unwind$?VideoSound@COPOSRemoteOrderDisplay@@UEAAJJJJJJPEAJ@Z 0000000180033004     RemoteOrderDisplayImpl.obj
 0002:0000c020       $unwind$?CompareFirmwareVersion@COPOSRemoteOrderDisplay@@UEAAJPEA_WPEAJ1@Z 0000000180033020     RemoteOrderDisplayImpl.obj
 0002:0000c020       $unwind$?initialize_inherited_file_handles_nolock@@YAXXZ 0000000180033020     libucrt:ioinit.obj
 0002:0000c03c       $unwind$__scrt_is_nonwritable_in_current_image 000000018003303c     LIBCMT:utility.obj
 0002:0000c05c       $unwind$__scrt_is_nonwritable_in_current_image$filt$0 000000018003305c     LIBCMT:utility.obj
 0002:0000c064       $unwind$__report_securityfailure 0000000180033064     LIBCMT:gs_report.obj
 0002:0000c06c       $unwind$__report_gsfailure 000000018003306c     LIBCMT:gs_report.obj
 0002:0000c074       $unwind$capture_current_context 0000000180033074     LIBCMT:gs_report.obj
 0002:0000c080       $unwind$capture_previous_context 0000000180033080     LIBCMT:gs_report.obj
 0002:0000c08c       $unwind$??2@YAPEAX_KAEBUnothrow_t@std@@@Z 000000018003308c     LIBCMT:new_scalar_nothrow.obj
 0002:0000c09c       $cppxdata$??2@YAPEAX_KAEBUnothrow_t@std@@@Z 000000018003309c     LIBCMT:new_scalar_nothrow.obj
 0002:0000c0a9       $stateUnwindMap$??2@YAPEAX_KAEBUnothrow_t@std@@@Z 00000001800330a9     LIBCMT:new_scalar_nothrow.obj
 0002:0000c0ac       $tryMap$??2@YAPEAX_KAEBUnothrow_t@std@@@Z 00000001800330ac     LIBCMT:new_scalar_nothrow.obj
 0002:0000c0b4       $handlerMap$??2@YAPEAX_KAEBUnothrow_t@std@@@Z 00000001800330b4     LIBCMT:new_scalar_nothrow.obj
 0002:0000c0bc       $ip2state$??2@YAPEAX_KAEBUnothrow_t@std@@@Z 00000001800330bc     LIBCMT:new_scalar_nothrow.obj
 0002:0000c0c0       $unwind$?catch$0@?0???2@YAPEAX_KAEBUnothrow_t@std@@@Z@4HA 00000001800330c0     LIBCMT:new_scalar_nothrow.obj
 0002:0000c0d0       $cppxdata$?catch$0@?0???2@YAPEAX_KAEBUnothrow_t@std@@@Z@4HA 00000001800330d0     LIBCMT:new_scalar_nothrow.obj
 0002:0000c0da       $stateUnwindMap$?catch$0@?0???2@YAPEAX_KAEBUnothrow_t@std@@@Z@4HA 00000001800330da     LIBCMT:new_scalar_nothrow.obj
 0002:0000c0dc       $ip2state$?catch$0@?0???2@YAPEAX_KAEBUnothrow_t@std@@@Z@4HA 00000001800330dc     LIBCMT:new_scalar_nothrow.obj
 0002:0000c0e0       $unwind$__GSHandlerCheckCommon 00000001800330e0     LIBCMT:gshandler.obj
 0002:0000c0e8       $xdatasym                  00000001800330e8     LIBCMT:chkstk.obj
 0002:0000c0f0       $xdatasym                  00000001800330f0     LIBCMT:amdsecgs.obj
 0002:0000c0f4       $unwind$?dllmain_crt_process_attach@@YAHQEAUHINSTANCE__@@QEAX@Z 00000001800330f4     LIBCMT:dll_dllmain.obj
 0002:0000c130       $unwind$?dllmain_crt_process_detach@@YAH_N@Z 0000000180033130     LIBCMT:dll_dllmain.obj
 0002:0000c184       $unwind$?dllmain_dispatch@@YAHQEAUHINSTANCE__@@KQEAX@Z 0000000180033184     LIBCMT:dll_dllmain.obj
 0002:0000c1ac       $unwind$_write_internal$fin$0 00000001800331ac     libucrt:write.obj
 0002:0000c1ac       $unwind$?fin$0@?0??_fclose_internal@@YAHQEAU_iobuf@@AEAV__crt_cached_ptd_host@@@Z@4HA 00000001800331ac     libucrt:fclose.obj
 0002:0000c1ac       $unwind$?filt$0@?0??dllmain_dispatch@@YAHQEAUHINSTANCE__@@KQEAX@Z@4HA 00000001800331ac     LIBCMT:dll_dllmain.obj
 0002:0000c1ac       $unwind$?filt$0@?0??FrameUnwindToState@__FrameHandler4@@SAXPEA_KPEAU_xDISPATCHER_CONTEXT@@PEAUFuncInfo4@FH4@@H@Z@4HA 00000001800331ac     libvcruntime:frame.obj
 0002:0000c1ac       $unwind$?fin$1@?0??FrameUnwindToState@__FrameHandler4@@SAXPEA_KPEAU_xDISPATCHER_CONTEXT@@PEAUFuncInfo4@FH4@@H@Z@4HA 00000001800331ac     libvcruntime:frame.obj
 0002:0000c1b4       $unwind$__isa_available_init 00000001800331b4     LIBCMT:cpu_disp.obj
 0002:0000c1c4       $unwind$__scrt_fastfail    00000001800331c4     LIBCMT:utility_desktop.obj
 0002:0000c1d4       $unwind$__security_init_cookie 00000001800331d4     LIBCMT:gs_support.obj
 0002:0000c1e0       $xdatasym                  00000001800331e0     LIBCMT:guard_dispatch.obj
 0002:0000c1e8       $xdatasym                  00000001800331e8     LIBCMT:guard_xfg_dispatch.obj
 0002:0000c1ec       $unwind$AtlThunk_InitData  00000001800331ec     atls:atlthunk.obj
 0002:0000c200       $unwind$wcsstr             0000000180033200     libvcruntime:wcsstr.obj
 0002:0000c218       $xdatasym                  0000000180033218     libvcruntime:memcmp.obj
 0002:0000c220       $xdatasym                  0000000180033220     libvcruntime:memcpy.obj
 0002:0000c230       $xdatasym                  0000000180033230     libvcruntime:memset.obj
 0002:0000c240       $unwind$__C_specific_handler 0000000180033240     libvcruntime:riscchandler.obj
 0002:0000c240       $unwind$?GetRangeOfTrysToCheck@__FrameHandler3@@SA?AU?$pair@Viterator@TryBlockMap@__FrameHandler3@@V123@@std@@AEAVTryBlockMap@1@HPEAU_xDISPATCHER_CONTEXT@@PEBU_s_FuncInfo@@H@Z 0000000180033240     libvcruntime:risctrnsctrl.obj
 0002:0000c25c       $unwind$?StateFromIp@__FrameHandler4@@SAHPEAUFuncInfo4@FH4@@PEAU_xDISPATCHER_CONTEXT@@_K@Z 000000018003325c     libvcruntime:ehstate.obj
 0002:0000c25c       $unwind$?DecompFuncInfo@FH4@@YA_JPEAEAEAUFuncInfo4@1@_KH_N@Z 000000018003325c     libvcruntime:risctrnsctrl.obj
 0002:0000c274       $unwind$?GetEstablisherFrame@__FrameHandler3@@SAPEA_KPEA_KPEAU_xDISPATCHER_CONTEXT@@PEBU_s_FuncInfo@@0@Z 0000000180033274     libvcruntime:risctrnsctrl.obj
 0002:0000c28c       $unwind$?UnwindNestedFrames@__FrameHandler3@@SAXPEA_KPEAUEHExceptionRecord@@PEAU_CONTEXT@@0PEAXPEBU_s_FuncInfo@@HHPEBU_s_HandlerType@@PEAU_xDISPATCHER_CONTEXT@@E@Z 000000018003328c     libvcruntime:risctrnsctrl.obj
 0002:0000c28c       $unwind$?UnwindNestedFrames@__FrameHandler4@@SAXPEA_KPEAUEHExceptionRecord@@PEAU_CONTEXT@@0PEAXPEAUFuncInfo4@FH4@@HHPEAUHandlerType4@5@PEAU_xDISPATCHER_CONTEXT@@E@Z 000000018003328c     libvcruntime:risctrnsctrl.obj
 0002:0000c2a0       $unwind$?GetRangeOfTrysToCheck@__FrameHandler4@@SA?AU?$pair@Viterator@TryBlockMap4@FH4@@V123@@std@@AEAVTryBlockMap4@FH4@@HPEAU_xDISPATCHER_CONTEXT@@PEAUFuncInfo4@5@H@Z 00000001800332a0     libvcruntime:risctrnsctrl.obj
 0002:0000c2bc       $unwind$__CxxFrameHandler3 00000001800332bc     libvcruntime:risctrnsctrl.obj
 0002:0000c2d0       $unwind$__CxxFrameHandler4 00000001800332d0     libvcruntime:risctrnsctrl.obj
 0002:0000c2e4       $unwind$??$_CallSETranslator@V__FrameHandler4@@@@YAHPEAUEHExceptionRecord@@PEA_KPEAU_CONTEXT@@PEAU_xDISPATCHER_CONTEXT@@PEAUFuncInfo4@FH4@@K1H@Z 00000001800332e4     libvcruntime:risctrnsctrl.obj
 0002:0000c304       $unwind$?filt$0@?0???$_CallSETranslator@V__FrameHandler3@@@@YAHPEAUEHExceptionRecord@@PEA_KPEAU_CONTEXT@@PEAU_xDISPATCHER_CONTEXT@@PEBU_s_FuncInfo@@K1H@Z@4HA 0000000180033304     libvcruntime:risctrnsctrl.obj
 0002:0000c304       $unwind$?filt$0@?0???$_CallSETranslator@V__FrameHandler4@@@@YAHPEAUEHExceptionRecord@@PEA_KPEAU_CONTEXT@@PEAU_xDISPATCHER_CONTEXT@@PEAUFuncInfo4@FH4@@K1H@Z@4HA 0000000180033304     libvcruntime:risctrnsctrl.obj
 0002:0000c310       $unwind$??$_CallSETranslator@V__FrameHandler3@@@@YAHPEAUEHExceptionRecord@@PEA_KPEAU_CONTEXT@@PEAU_xDISPATCHER_CONTEXT@@PEBU_s_FuncInfo@@K1H@Z 0000000180033310     libvcruntime:risctrnsctrl.obj
 0002:0000c330       $unwind$__DestructExceptionObject 0000000180033330     libvcruntime:ehhelpers.obj
 0002:0000c350       $unwind$__DestructExceptionObject$filt$0 0000000180033350     libvcruntime:ehhelpers.obj
 0002:0000c350       $unwind$?fin$1@?0??CxxCallCatchBlock@__FrameHandler3@@SAPEAXPEAU_EXCEPTION_RECORD@@@Z@4HA 0000000180033350     libvcruntime:frame.obj
 0002:0000c350       $unwind$?fin$1@?0??CxxCallCatchBlock@__FrameHandler4@@SAPEAXPEAU_EXCEPTION_RECORD@@@Z@4HA 0000000180033350     libvcruntime:frame.obj
 0002:0000c35c       $unwind$_CxxThrowException 000000018003335c     libvcruntime:throw.obj
 0002:0000c370       $xdatasym                  0000000180033370     libvcruntime:notify.obj
 0002:0000c37c       $unwind$?getStartStop@UWMap4@FH4@@QEAAXHHAEAViterator@12@0@Z 000000018003337c     libvcruntime:frame.obj
 0002:0000c394       $unwind$?FrameUnwindToState@__FrameHandler3@@SAXPEA_KPEAU_xDISPATCHER_CONTEXT@@PEBU_s_FuncInfo@@H@Z 0000000180033394     libvcruntime:frame.obj
 0002:0000c3e0       $unwind$?CxxCallCatchBlock@__FrameHandler3@@SAPEAXPEAU_EXCEPTION_RECORD@@@Z 00000001800333e0     libvcruntime:frame.obj
 0002:0000c41c       $unwind$?FrameUnwindToState@__FrameHandler4@@SAXPEA_KPEAU_xDISPATCHER_CONTEXT@@PEAUFuncInfo4@FH4@@H@Z 000000018003341c     libvcruntime:frame.obj
 0002:0000c464       $unwind$?CxxCallCatchBlock@__FrameHandler4@@SAPEAXPEAU_EXCEPTION_RECORD@@@Z 0000000180033464     libvcruntime:frame.obj
 0002:0000c4c0       $unwind$?IsInExceptionSpec@@YAEPEAUEHExceptionRecord@@PEBU_s_ESTypeList@@@Z 00000001800334c0     libvcruntime:frame.obj
 0002:0000c4dc       $unwind$??$__InternalCxxFrameHandler@V__FrameHandler4@@@@YA?AW4_EXCEPTION_DISPOSITION@@PEAUEHExceptionRecord@@PEA_KPEAU_CONTEXT@@PEAU_xDISPATCHER_CONTEXT@@PEAUFuncInfo4@FH4@@H1E@Z 00000001800334dc     libvcruntime:frame.obj
 0002:0000c4f4       $unwind$??$BuildCatchObjectHelperInternal@V__FrameHandler3@@@@YAHPEAUEHExceptionRecord@@PEAXPEBU_s_HandlerType@@PEBU_s_CatchableType@@@Z 00000001800334f4     libvcruntime:frame.obj
 0002:0000c534       $unwind$??$BuildCatchObjectHelperInternal@V__FrameHandler4@@@@YAHPEAUEHExceptionRecord@@PEAXPEAUHandlerType4@FH4@@PEBU_s_CatchableType@@@Z 0000000180033534     libvcruntime:frame.obj
 0002:0000c574       $unwind$??$BuildCatchObjectInternal@V__FrameHandler3@@@@YAXPEAUEHExceptionRecord@@PEAXPEBU_s_HandlerType@@PEBU_s_CatchableType@@@Z 0000000180033574     libvcruntime:frame.obj
 0002:0000c5a0       $unwind$??$BuildCatchObjectInternal@V__FrameHandler4@@@@YAXPEAUEHExceptionRecord@@PEAXPEAUHandlerType4@FH4@@PEBU_s_CatchableType@@@Z 00000001800335a0     libvcruntime:frame.obj
 0002:0000c5cc       $unwind$??$FindHandler@V__FrameHandler3@@@@YAXPEAUEHExceptionRecord@@PEA_KPEAU_CONTEXT@@PEAU_xDISPATCHER_CONTEXT@@PEBU_s_FuncInfo@@EH1@Z 00000001800335cc     libvcruntime:frame.obj
 0002:0000c5ec       $unwind$??$FindHandler@V__FrameHandler4@@@@YAXPEAUEHExceptionRecord@@PEA_KPEAU_CONTEXT@@PEAU_xDISPATCHER_CONTEXT@@PEAUFuncInfo4@FH4@@EH1@Z 00000001800335ec     libvcruntime:frame.obj
 0002:0000c60c       $unwind$??$CatchIt@V__FrameHandler3@@@@YAXPEAUEHExceptionRecord@@PEA_KPEAU_CONTEXT@@PEAU_xDISPATCHER_CONTEXT@@PEBU_s_FuncInfo@@PEBU_s_HandlerType@@PEBU_s_CatchableType@@PEBU_s_TryBlockMapEntry@@H1EE@Z 000000018003360c     libvcruntime:frame.obj
 0002:0000c60c       $unwind$??$CatchIt@V__FrameHandler4@@@@YAXPEAUEHExceptionRecord@@PEA_KPEAU_CONTEXT@@PEAU_xDISPATCHER_CONTEXT@@PEAUFuncInfo4@FH4@@PEAUHandlerType4@4@PEBU_s_CatchableType@@PEAUTryBlockMapEntry4@4@H1EE@Z 000000018003360c     libvcruntime:frame.obj
 0002:0000c624       $unwind$??$FindHandlerForForeignException@V__FrameHandler3@@@@YAXPEAUEHExceptionRecord@@PEA_KPEAU_CONTEXT@@PEAU_xDISPATCHER_CONTEXT@@PEBU_s_FuncInfo@@HH1@Z 0000000180033624     libvcruntime:frame.obj
 0002:0000c640       $unwind$??$FindHandlerForForeignException@V__FrameHandler4@@@@YAXPEAUEHExceptionRecord@@PEA_KPEAU_CONTEXT@@PEAU_xDISPATCHER_CONTEXT@@PEAUFuncInfo4@FH4@@HH1@Z 0000000180033640     libvcruntime:frame.obj
 0002:0000c660       $unwind$?try_get_function@@YAPEAXW4function_id@?A0x391cf84c@@QEBDQEBW4module_id@2@2@Z 0000000180033660     libucrt:winapi_thunks.obj
 0002:0000c660       $unwind$?try_get_function@@YAPEAXW4function_id@?A0xbc0cc709@@QEBDQEBW4module_id@2@2@Z 0000000180033660     libvcruntime:winapi_downlevel.obj
 0002:0000c680       $xdatasym                  0000000180033680     libvcruntime:handlers.obj
 0002:0000c6a0       $unwind$__acrt_call_reportfault 00000001800336a0     libucrt:invalid_parameter.obj
 0002:0000c6c0       $unwind$_invalid_parameter 00000001800336c0     libucrt:invalid_parameter.obj
 0002:0000c6cc       $unwind$_resetstkoflw      00000001800336cc     libucrt:resetstk.obj
 0002:0000c6f0       $unwind$__stdio_common_vswprintf_s 00000001800336f0     libucrt:output.obj
 0002:0000c704       $unwind$?write_string@?$string_output_adapter@_W@__crt_stdio_output@@QEBAXQEB_WHQEAHAEAV__crt_cached_ptd_host@@@Z 0000000180033704     libucrt:output.obj
 0002:0000c71c       $unwind$??$common_vsprintf@Vformat_validation_base@__crt_stdio_output@@_W@@YAH_KQEA_W0QEB_WAEAV__crt_cached_ptd_host@@QEAD@Z 000000018003371c     libucrt:output.obj
 0002:0000c73c       $unwind$?parse_int_from_format_string@?$output_processor@_WV?$string_output_adapter@_W@__crt_stdio_output@@V?$format_validation_base@_WV?$string_output_adapter@_W@__crt_stdio_output@@@2@@__crt_stdio_output@@AEAA_NQEAH@Z 000000018003373c     libucrt:output.obj
 0002:0000c750       $unwind$?state_case_type@?$output_processor@_WV?$string_output_adapter@_W@__crt_stdio_output@@V?$format_validation_base@_WV?$string_output_adapter@_W@__crt_stdio_output@@@2@@__crt_stdio_output@@AEAA_NXZ 0000000180033750     libucrt:output.obj
 0002:0000c774       $unwind$?type_case_a@?$output_processor@_WV?$string_output_adapter@_W@__crt_stdio_output@@V?$format_validation_base@_WV?$string_output_adapter@_W@__crt_stdio_output@@@2@@__crt_stdio_output@@AEAA_NXZ 0000000180033774     libucrt:output.obj
 0002:0000c788       $unwind$??$parse_integer@KV?$c_string_character_source@_W@__crt_strtox@@$0A@@__crt_strtox@@YAKAEAV__crt_cached_ptd_host@@V?$c_string_character_source@_W@0@H_N@Z 0000000180033788     libucrt:output.obj
 0002:0000c7a4       $unwind$?try_cor_exit_process@@YAXI@Z 00000001800337a4     libucrt:exit.obj
 0002:0000c7b8       $ip2state$?try_cor_exit_process@@YAXI@Z 00000001800337b8     libucrt:exit.obj
 0002:0000c7c0       $unwind$?common_exit@@YAXHW4_crt_exit_cleanup_mode@@W4_crt_exit_return_mode@@@Z 00000001800337c0     libucrt:exit.obj
 0002:0000c7d4       $stateUnwindMap$__dcrt_uninitialize_environments_nolock 00000001800337d4     libucrt:environment_initialization.obj
 0002:0000c7d4       $stateUnwindMap$?common_exit@@YAXHW4_crt_exit_cleanup_mode@@W4_crt_exit_return_mode@@@Z 00000001800337d4     libucrt:exit.obj
 0002:0000c7d4       $stateUnwindMap$_execute_onexit_table 00000001800337d4     libucrt:onexit.obj
 0002:0000c7e0       $ip2state$?common_exit@@YAXHW4_crt_exit_cleanup_mode@@W4_crt_exit_return_mode@@@Z 00000001800337e0     libucrt:exit.obj
 0002:0000c7e8       $unwind$??R<lambda_6e4b09c48022b2350581041d5f6b0c4c>@@QEBA@XZ 00000001800337e8     libucrt:exit.obj
 0002:0000c808       $unwind$??$?RV<lambda_d80eeec6fff315bfe5c115232f3240e3>@@AEAV<lambda_6e4b09c48022b2350581041d5f6b0c4c>@@V<lambda_2358e3775559c9db80273638284d5e45>@@@?$__crt_seh_guarded_call@X@@QEAAX$$QEAV<lambda_d80eeec6fff315bfe5c115232f3240e3>@@AEAV<lambda_6e4b09c48022b2350581041d5f6b0c4c>@@$$QEAV<lambda_2358e3775559c9db80273638284d5e45>@@@Z 0000000180033808     libucrt:exit.obj
 0002:0000c82c       $unwind$__dcrt_uninitialize_environments_nolock 000000018003382c     libucrt:environment_initialization.obj
 0002:0000c83c       $unwind$??$free_environment@D@@YAXQEAPEAD@Z 000000018003383c     libucrt:environment_initialization.obj
 0002:0000c83c       $unwind$??$free_environment@_W@@YAXQEAPEA_W@Z 000000018003383c     libucrt:environment_initialization.obj
 0002:0000c83c       $unwind$_initterm          000000018003383c     libucrt:initterm.obj
 0002:0000c848       $unwind$_register_onexit_function 0000000180033848     libucrt:onexit.obj
 0002:0000c850       $unwind$_execute_onexit_table 0000000180033850     libucrt:onexit.obj
 0002:0000c860       $ip2state$_execute_onexit_table 0000000180033860     libucrt:onexit.obj
 0002:0000c868       $unwind$??R<lambda_22ebabd17bc4fa466a2aca6d8deb888d>@@QEBAHXZ 0000000180033868     libucrt:onexit.obj
 0002:0000c880       $unwind$??$?RV<lambda_638799b9deba96c50f710eeac98168cd>@@AEAV<lambda_22ebabd17bc4fa466a2aca6d8deb888d>@@V<lambda_a6f7d7db0129f75315ebf26d50c089f1>@@@?$__crt_seh_guarded_call@H@@QEAAH$$QEAV<lambda_638799b9deba96c50f710eeac98168cd>@@AEAV<lambda_22ebabd17bc4fa466a2aca6d8deb888d>@@$$QEAV<lambda_a6f7d7db0129f75315ebf26d50c089f1>@@@Z 0000000180033880     libucrt:onexit.obj
 0002:0000c8a4       $unwind$??$?RV<lambda_7777bce6b2f8c936911f934f8298dc43>@@AEAV<lambda_f03950bc5685219e0bcd2087efbe011e>@@V<lambda_3883c3dff614d5e0c5f61bb1ac94921c>@@@?$__crt_seh_guarded_call@H@@QEAAH$$QEAV<lambda_7777bce6b2f8c936911f934f8298dc43>@@AEAV<lambda_f03950bc5685219e0bcd2087efbe011e>@@$$QEAV<lambda_3883c3dff614d5e0c5f61bb1ac94921c>@@@Z 00000001800338a4     libucrt:onexit.obj
 0002:0000c8c8       $unwind$_query_new_handler 00000001800338c8     libucrt:new_handler.obj
 0002:0000c8e8       $unwind$terminate          00000001800338e8     libucrt:terminate.obj
 0002:0000c908       $xdatasym                  0000000180033908     libucrt:strncmp.obj
 0002:0000c90c       $unwind$?construct_ptd_array@@YAXQEAU__acrt_ptd@@@Z 000000018003390c     libucrt:per_thread_data.obj
 0002:0000c914       $unwind$?destroy_ptd_array@@YAXQEAU__acrt_ptd@@@Z 0000000180033914     libucrt:per_thread_data.obj
 0002:0000c91c       $unwind$??$?RV<lambda_0ae27a3a962d80f24befdcbee591983d>@@AEAV<lambda_8d0ee55de4b1038c4002e0adecdf1839>@@V<lambda_dc504788e8f1664fe9b84e20bfb512f2>@@@?$__crt_seh_guarded_call@X@@QEAAX$$QEAV<lambda_0ae27a3a962d80f24befdcbee591983d>@@AEAV<lambda_8d0ee55de4b1038c4002e0adecdf1839>@@$$QEAV<lambda_dc504788e8f1664fe9b84e20bfb512f2>@@@Z 000000018003391c     libucrt:per_thread_data.obj
 0002:0000c940       $unwind$??$?RV<lambda_aa87e3671a710a21b5dc78c0bdf72e11>@@AEAV<lambda_92619d2358a28f41a33ba319515a20b9>@@V<lambda_6992ecaafeb10aed2b74cb1fae11a551>@@@?$__crt_seh_guarded_call@X@@QEAAX$$QEAV<lambda_aa87e3671a710a21b5dc78c0bdf72e11>@@AEAV<lambda_92619d2358a28f41a33ba319515a20b9>@@$$QEAV<lambda_6992ecaafeb10aed2b74cb1fae11a551>@@@Z 0000000180033940     libucrt:per_thread_data.obj
 0002:0000c964       $unwind$??$?RV<lambda_f2e299630e499de9f9a165e60fcd3db5>@@AEAV<lambda_2ae9d31cdba2644fcbeaf08da7c24588>@@V<lambda_40d01ff24d0e7b3814fdbdcee8eab3c7>@@@?$__crt_seh_guarded_call@X@@QEAAX$$QEAV<lambda_f2e299630e499de9f9a165e60fcd3db5>@@AEAV<lambda_2ae9d31cdba2644fcbeaf08da7c24588>@@$$QEAV<lambda_40d01ff24d0e7b3814fdbdcee8eab3c7>@@@Z 0000000180033964     libucrt:per_thread_data.obj
 0002:0000c988       $unwind$??$?RV<lambda_2d41944a1d46af3157314b8a01080d33>@@AEAV<lambda_8f455de75cd7d7f24b4096f044d8b9e6>@@V<lambda_aa500f224e6afead328df44964fe2772>@@@?$__crt_seh_guarded_call@X@@QEAAX$$QEAV<lambda_2d41944a1d46af3157314b8a01080d33>@@AEAV<lambda_8f455de75cd7d7f24b4096f044d8b9e6>@@$$QEAV<lambda_aa500f224e6afead328df44964fe2772>@@@Z 0000000180033988     libucrt:per_thread_data.obj
 0002:0000c9ac       $unwind$__acrt_uninitialize_locale 00000001800339ac     libucrt:wsetlocale.obj
 0002:0000c9ac       $unwind$__acrt_get_sigabrt_handler 00000001800339ac     libucrt:signal.obj
 0002:0000c9b4       $unwind$??$?RV<lambda_410d79af7f07d98d83a3f525b3859a53>@@AEAV<lambda_3e16ef9562a7dcce91392c22ab16ea36>@@V<lambda_38119f0e861e05405d8a144b9b982f0a>@@@?$__crt_seh_guarded_call@X@@QEAAX$$QEAV<lambda_410d79af7f07d98d83a3f525b3859a53>@@AEAV<lambda_3e16ef9562a7dcce91392c22ab16ea36>@@$$QEAV<lambda_38119f0e861e05405d8a144b9b982f0a>@@@Z 00000001800339b4     libucrt:wsetlocale.obj
 0002:0000c9dc       $unwind$__acrt_initialize_winapi_thunks 00000001800339dc     libucrt:winapi_thunks.obj
 0002:0000c9dc       $unwind$__acrt_fenv_get_control 00000001800339dc     libucrt:_fenvutils.obj
 0002:0000c9e4       $unwind$__acrt_fp_format   00000001800339e4     libucrt:cvt.obj
 0002:0000c9f4       $unwind$?fp_format_e_internal@@YAHQEAD_KH_NIQEAU_strflt@@2AEAV__crt_cached_ptd_host@@@Z 00000001800339f4     libucrt:cvt.obj
 0002:0000ca10       $unwind$?fp_format_a@@YAHQEBNPEAD_KQEAD2H_NIW4__acrt_rounding_mode@@AEAV__crt_cached_ptd_host@@@Z 0000000180033a10     libucrt:cvt.obj
 0002:0000ca2c       $unwind$?fp_format_g@@YAHQEBNQEAD_K12H_NIW4__acrt_rounding_mode@@AEAV__crt_cached_ptd_host@@@Z 0000000180033a2c     libucrt:cvt.obj
 0002:0000ca44       $unwind$__acrt_initialize_lowio 0000000180033a44     libucrt:ioinit.obj
 0002:0000ca64       $unwind$??$common_expand_argv_wildcards@D@@YAHQEAPEADQEAPEAPEAD@Z 0000000180033a64     libucrt:argv_wildcards.obj
 0002:0000ca7c       $unwind$__dcrt_get_narrow_environment_from_os 0000000180033a7c     libucrt:get_environment_from_os.obj
 0002:0000ca7c       $unwind$??$__acrt_convert_wcs_mbs_cp@_WDV<lambda_d8593a27d1aa8c02be35c86a17d324c4>@@U__crt_win32_buffer_internal_dynamic_resizing@@@@YAHQEB_WAEAV?$__crt_win32_buffer@DU__crt_win32_buffer_internal_dynamic_resizing@@@@AEBV<lambda_d8593a27d1aa8c02be35c86a17d324c4>@@I@Z 0000000180033a7c     libucrt:argv_wildcards.obj
 0002:0000ca94       $unwind$??$copy_and_add_argument_to_buffer@D@@YAHQEBD0_KAEAV?$argument_list@D@?A0x5f5c8891@@@Z 0000000180033a94     libucrt:argv_wildcards.obj
 0002:0000cab0       $unwind$??$expand_argument_wildcards@D@@YAHQEAD0AEAV?$argument_list@D@?A0x5f5c8891@@@Z 0000000180033ab0     libucrt:argv_wildcards.obj
 0002:0000cad0       $unwind$__acrt_GetModuleFileNameA 0000000180033ad0     libucrt:getmodulefilenamea.obj
 0002:0000caec       $unwind$_setmbcp_nolock    0000000180033aec     libucrt:mbctype.obj
 0002:0000cb0c       $unwind$?update_thread_multibyte_data_internal@@YAPEAU__crt_multibyte_data@@QEAU__acrt_ptd@@QEAPEAU1@@Z 0000000180033b0c     libucrt:mbctype.obj
 0002:0000cb34       $unwind$?setmbcp_internal@@YAHH_NQEAU__acrt_ptd@@QEAPEAU__crt_multibyte_data@@@Z 0000000180033b34     libucrt:mbctype.obj
 0002:0000cb4c       $unwind$?setSBUpLow@@YAXPEAU__crt_multibyte_data@@@Z 0000000180033b4c     libucrt:mbctype.obj
 0002:0000cb68       $unwind$??$?RV<lambda_efdfa57d1f175319df784efa44bb7b81>@@AEAV<lambda_5f0a4c1567f8adc6734073e5d1e1b35c>@@V<lambda_2e8a7d3640ea6ccb4c2413664c2db6fd>@@@?$__crt_seh_guarded_call@X@@QEAAX$$QEAV<lambda_efdfa57d1f175319df784efa44bb7b81>@@AEAV<lambda_5f0a4c1567f8adc6734073e5d1e1b35c>@@$$QEAV<lambda_2e8a7d3640ea6ccb4c2413664c2db6fd>@@@Z 0000000180033b68     libucrt:mbctype.obj
 0002:0000cb8c       $unwind$__acrt_WideCharToMultiByte 0000000180033b8c     libucrt:widechartomultibyte.obj
 0002:0000cb98       $unwind$raise              0000000180033b98     libucrt:signal.obj
 0002:0000cbd4       $unwind$??$?RV<lambda_450d765d439847d4c735a33c368b5fc0>@@AEAV<lambda_44731a7d0e6d81c3e6aa82d741081786>@@V<lambda_601a2a7da3b7a96e9554ac7215c4b07c>@@@?$__crt_seh_guarded_call@P6AXH@Z@@QEAAP6AXH@Z$$QEAV<lambda_450d765d439847d4c735a33c368b5fc0>@@AEAV<lambda_44731a7d0e6d81c3e6aa82d741081786>@@$$QEAV<lambda_601a2a7da3b7a96e9554ac7215c4b07c>@@@Z 0000000180033bd4     libucrt:signal.obj
 0002:0000cbf8       $unwind$fclose             0000000180033bf8     libucrt:fclose.obj
 0002:0000cbf8       $unwind$_fflush_nolock     0000000180033bf8     libucrt:fflush.obj
 0002:0000cc08       $unwind$?common_flush_all@@YAH_N@Z 0000000180033c08     libucrt:fflush.obj
 0002:0000cc10       $unwind$??$?RV<lambda_842d9ff0dc9ef11c61343bbaebe7f885>@@AEAV<lambda_c5860995281e5c4ce005b3de8f5874ee>@@V<lambda_d90129c13df834fdcbf8d2b88dafcf2d>@@@?$__crt_seh_guarded_call@X@@QEAAX$$QEAV<lambda_842d9ff0dc9ef11c61343bbaebe7f885>@@AEAV<lambda_c5860995281e5c4ce005b3de8f5874ee>@@$$QEAV<lambda_d90129c13df834fdcbf8d2b88dafcf2d>@@@Z 0000000180033c10     libucrt:fflush.obj
 0002:0000cc34       $unwind$??$?RV<lambda_886d6c58226a84441f68b9f2b8217b83>@@AEAV<lambda_ab61a845afdef5b7c387490eaf3616ee>@@V<lambda_f7f22ab5edc0698d5f6905b0d3f44752>@@@?$__crt_seh_guarded_call@X@@QEAAX$$QEAV<lambda_886d6c58226a84441f68b9f2b8217b83>@@AEAV<lambda_ab61a845afdef5b7c387490eaf3616ee>@@$$QEAV<lambda_f7f22ab5edc0698d5f6905b0d3f44752>@@@Z 0000000180033c34     libucrt:fflush.obj
 0002:0000cc5c       $unwind$__acrt_update_thread_locale_data 0000000180033c5c     libucrt:locale_refcounting.obj
 0002:0000cc80       $unwind$__acrt_locale_free_monetary 0000000180033c80     libucrt:initmon.obj
 0002:0000cc88       $unwind$__acrt_locale_free_time 0000000180033c88     libucrt:inittime.obj
 0002:0000cc98       $unwind$__acrt_GetStringTypeA 0000000180033c98     libucrt:getstringtypea.obj
 0002:0000ccc0       $unwind$__acrt_fp_strflt_to_string 0000000180033cc0     libucrt:_fptostr.obj
 0002:0000ccdc       $unwind$__acrt_fltout      0000000180033cdc     libucrt:cfout.obj
 0002:0000ccfc       $unwind$?divide@__crt_strtox@@YA_KAEAUbig_integer@1@AEBU21@@Z 0000000180033cfc     libucrt:cfout.obj
 0002:0000cd14       $chain$0$?divide@__crt_strtox@@YA_KAEAUbig_integer@1@AEBU21@@Z 0000000180033d14     libucrt:cfout.obj
 0002:0000cd28       $chain$1$?divide@__crt_strtox@@YA_KAEAUbig_integer@1@AEBU21@@Z 0000000180033d28     libucrt:cfout.obj
 0002:0000cd38       $unwind$?__mbsrtowcs_utf8@__crt_mbstring@@YA_KPEA_WPEAPEBD_KPEAU_Mbstatet@@AEAV__crt_cached_ptd_host@@@Z 0000000180033d38     libucrt:mbrtowc.obj
 0002:0000cd50       $unwind$_fcloseall         0000000180033d50     libucrt:closeall.obj
 0002:0000cd74       $unwind$__acrt_lowio_destroy_handle_array 0000000180033d74     libucrt:osfinfo.obj
 0002:0000cd84       $unwind$__acrt_lowio_ensure_fh_exists 0000000180033d84     libucrt:osfinfo.obj
 0002:0000cdb0       $unwind$qsort              0000000180033db0     libucrt:qsort.obj
 0002:0000cdc8       $chain$4$qsort             0000000180033dc8     libucrt:qsort.obj
 0002:0000cdec       $chain$5$qsort             0000000180033dec     libucrt:qsort.obj
 0002:0000cdfc       $unwind$strpbrk            0000000180033dfc     libucrt:strpbrk.obj
 0002:0000ce0c       $unwind$fallbackMethod     0000000180033e0c     libucrt:strpbrk.obj
 0002:0000ce1c       $unwind$__acrt_LCMapStringA 0000000180033e1c     libucrt:lcmapstringa.obj
 0002:0000ce2c       $unwind$?__acrt_LCMapStringA_stat@@YAHPEAU__crt_locale_pointers@@PEB_WKPEBDHPEADHHH@Z 0000000180033e2c     libucrt:lcmapstringa.obj
 0002:0000ce54       $unwind$_commit            0000000180033e54     libucrt:commit.obj
 0002:0000ce5c       $unwind$??$?RV<lambda_a37b2b86f63e897a80ea819b0eb08c01>@@AEAV<lambda_38ce7e780aa69e748d6df282ebc68efe>@@V<lambda_99fb1378e971ab6e7edea83e3a7a83a2>@@@?$__crt_seh_guarded_call@H@@QEAAH$$QEAV<lambda_a37b2b86f63e897a80ea819b0eb08c01>@@AEAV<lambda_38ce7e780aa69e748d6df282ebc68efe>@@$$QEAV<lambda_99fb1378e971ab6e7edea83e3a7a83a2>@@@Z 0000000180033e5c     libucrt:commit.obj
 0002:0000ce80       $unwind$_write_nolock      0000000180033e80     libucrt:write.obj
 0002:0000ce98       $unwind$_write_internal    0000000180033e98     libucrt:write.obj
 0002:0000cec8       $unwind$?write_double_translated_ansi_nolock@@YA?AUwrite_result@?A0x17268360@@HQEBDIAEAV__crt_cached_ptd_host@@@Z 0000000180033ec8     libucrt:write.obj
 0002:0000cef0       $ip2state$?write_double_translated_ansi_nolock@@YA?AUwrite_result@?A0x17268360@@HQEBDIAEAV__crt_cached_ptd_host@@@Z 0000000180033ef0     libucrt:write.obj
 0002:0000cef8       $unwind$?write_text_ansi_nolock@@YA?AUwrite_result@?A0x17268360@@HQEBDI@Z 0000000180033ef8     libucrt:write.obj
 0002:0000cef8       $unwind$?write_text_utf16le_nolock@@YA?AUwrite_result@?A0x17268360@@HQEBDI@Z 0000000180033ef8     libucrt:write.obj
 0002:0000cf18       $unwind$?write_text_utf8_nolock@@YA?AUwrite_result@?A0x17268360@@HQEBDI@Z 0000000180033f18     libucrt:write.obj
 0002:0000cf40       $xdatasym                  0000000180033f40     libucrt:log10.obj
 0002:0000cf4c       $unwind$__acrt_fenv_set_control 0000000180033f4c     libucrt:_fenvutils.obj
 0002:0000cf5c       $unwind$?__mbrtoc32_utf8@__crt_mbstring@@YA_KPEA_UPEBD_KPEAU_Mbstatet@@AEAV__crt_cached_ptd_host@@@Z 0000000180033f5c     libucrt:mbrtoc32.obj
 0002:0000cf78       $unwind$?_fclose_nolock_internal@@YAHQEAU_iobuf@@AEAV__crt_cached_ptd_host@@@Z 0000000180033f78     libucrt:fclose.obj
 0002:0000cf88       $unwind$?_fclose_internal@@YAHQEAU_iobuf@@AEAV__crt_cached_ptd_host@@@Z 0000000180033f88     libucrt:fclose.obj
 0002:0000cfac       $unwind$_putwch_nolock     0000000180033fac     libucrt:putwch.obj
 0002:0000cfb4       $unwind$common_control87   0000000180033fb4     libucrt:ieee.obj
 0002:0000cfe0       $unwind$_call_matherr      0000000180033fe0     libucrt:libm_error.obj
 0002:0000cfe8       $unwind$_handle_error      0000000180033fe8     libucrt:libm_error.obj
 0002:0000d008       $unwind$__acrt_initialize_fma3 0000000180034008     libucrt:fma3_available.obj
 0002:0000d010       $unwind$_log_special_common 0000000180034010     libucrt:log_special.obj
 0002:0000d01c       $unwind$_close_internal    000000018003401c     libucrt:close.obj
 0002:0000d024       $unwind$??$?RV<lambda_ad8af0d99a0adf03d037d7dffe354bb5>@@AEAV<lambda_c9ba49e555ba839a7b07aa3fbecb7617>@@V<lambda_2f1ebd5d68526518146ae959c9e734c8>@@@?$__crt_seh_guarded_call@H@@QEAAH$$QEAV<lambda_ad8af0d99a0adf03d037d7dffe354bb5>@@AEAV<lambda_c9ba49e555ba839a7b07aa3fbecb7617>@@$$QEAV<lambda_2f1ebd5d68526518146ae959c9e734c8>@@@Z 0000000180034024     libucrt:close.obj
 0002:0000d048       $xdatasym                  0000000180034048     libucrt:fpsr.obj
 0002:0000d050       $unwind$_raise_exc_ex      0000000180034050     libucrt:fpexcept.obj
 0002:0000d064       $unwind$_ctrlfp            0000000180034064     libucrt:fpctrl.obj
 0002:0000d08c       $unwind$_IsNonwritableInCurrentImage 000000018003408c     LIBCMT:pesect.obj
 0002:0000d0b0       $unwind$strrchr            00000001800340b0     libvcruntime:strrchr.obj
 0002:0000d220       .edata                     0000000180034220     OPOSRemoteOrderDisplay.exp
 0002:0000d248       rgpv                       0000000180034248     OPOSRemoteOrderDisplay.exp
 0002:0000d258       rgszName                   0000000180034258     OPOSRemoteOrderDisplay.exp
 0002:0000d268       rgwOrd                     0000000180034268     OPOSRemoteOrderDisplay.exp
 0002:0000d270       szName                     0000000180034270     OPOSRemoteOrderDisplay.exp
 0002:0000d28b       $N00001                    000000018003428b     OPOSRemoteOrderDisplay.exp
 0002:0000d29b       $N00002                    000000018003429b     OPOSRemoteOrderDisplay.exp
 0002:0000d2ad       $N00003                    00000001800342ad     OPOSRemoteOrderDisplay.exp
 0002:0000d2bf       $N00004                    00000001800342bf     OPOSRemoteOrderDisplay.exp
 0002:0000dc0a       .idata$6                   0000000180034c0a     kernel32:KERNEL32.dll
 0002:0000de22       .idata$6                   0000000180034e22     user32:USER32.dll
 0002:0000df56       .idata$6                   0000000180034f56     gdi32:GDI32.dll
 0002:0000dffc       .idata$6                   0000000180034ffc     advapi32:ADVAPI32.dll
 0002:0000e118       .idata$6                   0000000180035118     ole32:ole32.dll
 0002:0000e122       .idata$6                   0000000180035122     oleaut32:OLEAUT32.dll
 0003:000001c0       ?ObjectMap@@3PAU_ATL_OBJMAP_ENTRY30@ATL@@A 00000001800361c0     RemoteOrderDisplay.obj
 0003:000002f0       ?s_SOMethodNames@@3PAPEADA 00000001800362f0     RemoteOrderDisplayImpl.obj
 0003:00000408       ?s_RequiredMethodsPerRelease@@3PAHA 0000000180036408     RemoteOrderDisplayImpl.obj
 0003:00000460       ?__vcrt_flsindex@@3KA      0000000180036460     libvcruntime:per_thread_data.obj
 0003:00000470       ?errno_no_memory@@3HA      0000000180036470     libucrt:errno.obj
 0003:00000474       ?doserrno_no_memory@@3KA   0000000180036474     libucrt:errno.obj
 0003:00000480       ?__acrt_flsindex@@3KA      0000000180036480     libucrt:per_thread_data.obj
 0003:00000940       _mbctypes                  0000000180036940     libucrt:mbctype.obj
 0003:00000a50       _mbcasemaps                0000000180036a50     libucrt:mbctype.obj
 0003:00000b50       ?__rgctypeflag@@3PADA      0000000180036b50     libucrt:mbctype.obj
 0003:00000b60       ?__rgcode_page_info@@3PAUcode_page_info@@A 0000000180036b60     libucrt:mbctype.obj
 0003:00000e00       ?dazSupported@?1??common_control87@@9@9 0000000180036e00     libucrt:ieee.obj
 0003:00000e10       ?__dcrt_lowio_console_output_handle@@3PEAXEA 0000000180036e10     libucrt:initcon.obj
 0003:00000e20       ?dazSupported@?1??_ctrlfp@@9@9 0000000180036e20     libucrt:fpctrl.obj
 0003:00001070       ?is_initialized_as_dll@@3_NA 0000000180037070     LIBCMT:utility.obj
 0003:00001071       ?module_local_atexit_table_initialized@@3_NA 0000000180037071     LIBCMT:utility.obj
 0003:00001078       ?module_local_atexit_table@@3U_onexit_table_t@@A 0000000180037078     LIBCMT:utility.obj
 0003:00001090       ?module_local_at_quick_exit_table@@3U_onexit_table_t@@A 0000000180037090     LIBCMT:utility.obj
 0003:000010a8       ?g_tss_cv@@3U_RTL_CONDITION_VARIABLE@@A 00000001800370a8     LIBCMT:thread_safe_statics.obj
 0003:000010b0       ?g_tss_event@@3PEAXEA      00000001800370b0     LIBCMT:thread_safe_statics.obj
 0003:000010b8       ?g_tss_mutex@@3U_RTL_CRITICAL_SECTION@@A 00000001800370b8     LIBCMT:thread_safe_statics.obj
 0003:000010e0       ?g_sleep_condition_variable_cs@@3P6AHPEAU_RTL_CONDITION_VARIABLE@@PEAU_RTL_CRITICAL_SECTION@@K@ZEA 00000001800370e0     LIBCMT:thread_safe_statics.obj
 0003:000010e8       ?g_wake_all_condition_variable@@3P6AXPEAU_RTL_CONDITION_VARIABLE@@@ZEA 00000001800370e8     LIBCMT:thread_safe_statics.obj
 0003:000010f0       GS_ExceptionRecord         00000001800370f0     LIBCMT:gs_report.obj
 0003:00001190       GS_ContextRecord           0000000180037190     LIBCMT:gs_report.obj
 0003:00001664       ?__proc_attached@@3HA      0000000180037664     LIBCMT:dll_dllmain.obj
 0003:000016f8       ?AllocateData@@3P6APEAUAtlThunkData_t@@XZEA 00000001800376f8     atls:atlthunk.obj
 0003:00001700       ?InitData@@3P6AXPEAUAtlThunkData_t@@PEAX_K@ZEA 0000000180037700     atls:atlthunk.obj
 0003:00001708       ?DataToCode@@3P6AP6A_JPEAUHWND__@@I_K_J@ZPEAUAtlThunkData_t@@@ZEA 0000000180037708     atls:atlthunk.obj
 0003:00001710       ?FreeData@@3P6AXPEAUAtlThunkData_t@@@ZEA 0000000180037710     atls:atlthunk.obj
 0003:00001718       ?Initialized@@3_NA         0000000180037718     atls:atlthunk.obj
 0003:00001730       ?__vcrt_startup_thread_ptd@@3U__vcrt_ptd@@A 0000000180037730     libvcruntime:per_thread_data.obj
 0003:000017b0       __vcrt_lock_table          00000001800377b0     libvcruntime:locks.obj
 0003:000017d8       __vcrt_locks_initialized   00000001800377d8     libvcruntime:locks.obj
 0003:00001820       ?heap@@3V_HeapManager@@A   0000000180037820     libvcruntime:undname.obj
 0003:00001848       ?module_handles@@3PAPEAUHINSTANCE__@@A 0000000180037848     libvcruntime:winapi_downlevel.obj
 0003:00001860       ?function_pointers@@3PAPEAXA 0000000180037860     libvcruntime:winapi_downlevel.obj
 0003:00001888       ?__acrt_invalid_parameter_handler@@3V?$dual_state_global@P6AXPEB_W00I_K@Z@__crt_state_management@@A 0000000180037888     libucrt:invalid_parameter.obj
 0003:00001890       ?c_termination_complete@@3JA 0000000180037890     libucrt:exit.obj
 0003:00001898       ?thread_local_exit_callback_func@@3P6AXPEAXK0@ZEA 0000000180037898     libucrt:exit.obj
 0003:000018b0       ?program_name@?1???$common_configure_argv@D@@YAHW4_crt_argv_mode@@@Z@4PADA 00000001800378b0     libucrt:argv_parsing.obj
 0003:00001a08       ?__acrt_new_handler@@3V?$dual_state_global@P6AH_K@Z@__crt_state_management@@A 0000000180037a08     libucrt:new_handler.obj
 0003:00001a20       ?module_handles@@3PAPEAUHINSTANCE__@@A 0000000180037a20     libucrt:winapi_thunks.obj
 0003:00001ac0       ?encoded_function_pointers@@3PAPEAXA 0000000180037ac0     libucrt:winapi_thunks.obj
 0003:00001bb0       ?internal_state@?1??_mbtowc_internal@@9@4U_Mbstatet@@A 0000000180037bb0     libucrt:mbtowc.obj
 0003:00001bc8       ?enable_percent_n@@3_KA    0000000180037bc8     libucrt:printf_count_output.obj
 0003:00001ff0       ?__acrt_lock_table@@3PAU_RTL_CRITICAL_SECTION@@A 0000000180037ff0     libucrt:locks.obj
 0003:00002220       ?__acrt_locks_initialized@@3IA 0000000180038220     libucrt:locks.obj
 0003:00002240       ?fSystemSet@@3HA           0000000180038240     libucrt:mbctype.obj
 0003:00002244       ?initialized@?1??__acrt_initialize_multibyte@@9@4_NA 0000000180038244     libucrt:mbctype.obj
 0003:00002280       ?ctrlc_action@@3V?$dual_state_global@P6AXH@Z@__crt_state_management@@A 0000000180038280     libucrt:signal.obj
 0003:00002288       ?ctrlbreak_action@@3V?$dual_state_global@P6AXH@Z@__crt_state_management@@A 0000000180038288     libucrt:signal.obj
 0003:00002290       ?abort_action@@3V?$dual_state_global@P6AXH@Z@__crt_state_management@@A 0000000180038290     libucrt:signal.obj
 0003:00002298       ?term_action@@3V?$dual_state_global@P6AXH@Z@__crt_state_management@@A 0000000180038298     libucrt:signal.obj
 0003:000022a0       ?user_matherr@@3V?$dual_state_global@P6AHPEAU_exception@@@Z@__crt_state_management@@A 00000001800382a0     libucrt:matherr.obj
 0003:000022b0       ?__acrt_global_new_mode@@3V?$dual_state_global@J@__crt_state_management@@A 00000001800382b0     libucrt:new_mode.obj
 0003:000022b8       ?internal_pst@?1??__mbrtoc32_utf8@__crt_mbstring@@YA_KPEA_UPEBD_KPEAU_Mbstatet@@AEAV__crt_cached_ptd_host@@@Z@4U3@A 00000001800382b8     libucrt:mbrtoc32.obj
 0003:000022c0       ?__acrt_app_type@@3W4_crt_app_type@@A 00000001800382c0     libucrt:report_runtime_error.obj
 0005:00000000       MoveSmall                  000000018003c000     libvcruntime:memcpy.obj
 0005:00000040       MoveSmallYmm               000000018003c040     libvcruntime:memcpy.obj
 0005:00000064       MoveSmallYmmNT             000000018003c064     libvcruntime:memcpy.obj
 0005:00000088       MoveSmallXmm               000000018003c088     libvcruntime:memcpy.obj
 0005:000000b0       MsetTab                    000000018003c0b0     libvcruntime:memset.obj
 0006:00000220       $R000000                   000000018003d220     RemoteOrderDisplay.res
 0006:00000be8       $R0009C8                   000000018003dbe8     RemoteOrderDisplay.res
 0006:00000cd0       $R000AB0                   000000018003dcd0     RemoteOrderDisplay.res
 0006:00000f38       $R000D18                   000000018003df38     RemoteOrderDisplay.res
 0006:000014e0       $R0012C0                   000000018003e4e0     RemoteOrderDisplay.res
 0006:00005708       $R0054E8                   0000000180042708     RemoteOrderDisplay.res
 0006:00005750       $R005530                   0000000180042750     RemoteOrderDisplay.res
