 OPOSVideoCapture

 Timestamp is 61a757b4 (Wed Dec  1 20:08:36 2021)

 Preferred load address is 0000000180000000

 Start         Length     Name                   Class
 0001:00000000 000000c0H .text$di                CODE
 0001:000000c0 00024490H .text$mn                CODE
 0001:00024550 00000040H .text$mn$00             CODE
 0001:00024590 00000660H .text$x                 CODE
 0001:00024bf0 00000078H .text$yd                CODE
 0002:00000000 00000638H .idata$5                DATA
 0002:00000638 00000030H .00cfg                  DATA
 0002:00000668 00000008H .CRT$XCA                DATA
 0002:00000670 00000008H .CRT$XCL                DATA
 0002:00000678 00000020H .CRT$XCU                DATA
 0002:00000698 00000008H .CRT$XCZ                DATA
 0002:000006a0 00000008H .CRT$XIA                DATA
 0002:000006a8 00000020H .CRT$XIC                DATA
 0002:000006c8 00000008H .CRT$XIZ                DATA
 0002:000006d0 00000008H .CRT$XLA                DATA
 0002:000006d8 00000008H .CRT$XLZ                DATA
 0002:000006e0 00000008H .CRT$XPA                DATA
 0002:000006e8 00000010H .CRT$XPX                DATA
 0002:000006f8 00000008H .CRT$XPXA               DATA
 0002:00000700 00000008H .CRT$XPZ                DATA
 0002:00000708 00000008H .CRT$XTA                DATA
 0002:00000710 00000010H .CRT$XTZ                DATA
 0002:00000718 00000000H .gehcont$y              DATA
 0002:00000718 00000000H .gfids$y                DATA
 0002:00000720 0000a7e0H .rdata                  DATA
 0002:0000af00 00000000H .rdata$CastGuardVftablesA DATA
 0002:0000af00 00000000H .rdata$CastGuardVftablesC DATA
 0002:0000af00 00000028H .rdata$T                DATA
 0002:0000af28 00000274H .rdata$r                DATA
 0002:0000b19c 00000048H .rdata$voltmd           DATA
 0002:0000b1e4 0000043cH .rdata$zzzdbg           DATA
 0002:0000b620 00000008H .rtc$IAA                DATA
 0002:0000b628 00000008H .rtc$IZZ                DATA
 0002:0000b630 00000008H .rtc$TAA                DATA
 0002:0000b638 00000008H .rtc$TZZ                DATA
 0002:0000b640 00000004H .tls                    DATA
 0002:0000b644 00000004H .tls$                   DATA
 0002:0000b648 00000008H .tls$ZZZ                DATA
 0002:0000b650 00001938H .xdata                  DATA
 0002:0000cf88 00000150H .xdata$x                DATA
 0002:0000d0d8 00000008H ATL$__a                 DATA
 0002:0000d0e0 00000010H ATL$__z                 DATA
 0002:0000d0f0 000000b0H .edata                  DATA
 0002:0000d1a0 00000078H .idata$2                DATA
 0002:0000d218 00000018H .idata$3                DATA
 0002:0000d230 00000638H .idata$4                DATA
 0002:0000d868 00000c5cH .idata$6                DATA
 0003:00000000 00000d68H .data                   DATA
 0003:00000d68 000000a8H .data$r                 DATA
 0003:00000e10 00000020H .data$rs                DATA
 0003:00000e30 000013ecH .bss                    DATA
 0004:00000000 00002118H .pdata                  DATA
 0005:00000000 000000f4H _RDATA                  DATA
 0006:00000000 00000220H .rsrc$01                DATA
 0006:00000220 000057e8H .rsrc$02                DATA

  Address         Publics by Value              Rva+Base               Lib:Object

 0000:00000000       ___safe_se_handler_table   0000000000000000     <absolute>
 0000:00000000       __guard_longjmp_table      0000000000000000     <absolute>
 0000:00000000       __arm64x_redirection_metadata 0000000000000000     <absolute>
 0000:00000000       __x64_code_ranges_to_entry_points 0000000000000000     <absolute>
 0000:00000000       __guard_iat_table          0000000000000000     <absolute>
 0000:00000000       __guard_fids_count         0000000000000000     <absolute>
 0000:00000000       __guard_iat_count          0000000000000000     <absolute>
 0000:00000000       __guard_longjmp_count      0000000000000000     <absolute>
 0000:00000000       __arm64x_extra_rfe_table   0000000000000000     <absolute>
 0000:00000000       __dynamic_value_reloc_table 0000000000000000     <absolute>
 0000:00000000       __x64_code_ranges_to_entry_points_count 0000000000000000     <absolute>
 0000:00000000       __hybrid_auxiliary_iat     0000000000000000     <absolute>
 0000:00000000       __hybrid_code_map          0000000000000000     <absolute>
 0000:00000000       __hybrid_auxiliary_iat_copy 0000000000000000     <absolute>
 0000:00000000       __arm64x_extra_rfe_table_size 0000000000000000     <absolute>
 0000:00000000       ___safe_se_handler_count   0000000000000000     <absolute>
 0000:00000000       __AbsoluteZero             0000000000000000     <absolute>
 0000:00000000       __guard_check_icall_a64n_fptr 0000000000000000     <absolute>
 0000:00000000       __guard_eh_cont_count      0000000000000000     <absolute>
 0000:00000000       __guard_fids_table         0000000000000000     <absolute>
 0000:00000000       __arm64x_redirection_metadata_count 0000000000000000     <absolute>
 0000:00000000       __enclave_config           0000000000000000     <absolute>
 0000:00000000       __guard_eh_cont_table      0000000000000000     <absolute>
 0000:00000000       __arm64x_native_entrypoint 0000000000000000     <absolute>
 0000:00000000       __hybrid_code_map_count    0000000000000000     <absolute>
 0000:00000100       __guard_flags              0000000000000100     <absolute>
 0000:00000000       __ImageBase                0000000180000000     <linker-defined>
 0001:000000c0       ?DupWide@_CW@@AEAAXXZ      00000001800010c0 f   CWString.obj
 0001:000000e8       ?cw_dup@@YAXPEBDAEAHAEAPEA_W1@Z 00000001800010e8 f   CWString.obj
 0001:000001c8       ?cw_memcpy@@YAHPEA_WPEBDH@Z 00000001800011c8 f   CWString.obj
 0001:00000214       ?cw_strcpy@@YAHPEA_WPEBD@Z 0000000180001214 f   CWString.obj
 0001:00000228       ??0CAtlComModule@ATL@@QEAA@XZ 0000000180001228 f i OposVariant.obj
 0001:000002a8       ??0CAtlWinModule@ATL@@QEAA@XZ 00000001800012a8 f i OposVariant.obj
 0001:00000314       ??0OposDispParms@@QEAA@PEAVOposVariant@@H@Z 0000000180001314 f   OposVariant.obj
 0001:000003bc       ??1OposDispParms@@QEAA@XZ  00000001800013bc f   OposVariant.obj
 0001:000003d4       ??_Estringdispid@CComTypeInfoHolder@ATL@@QEAAPEAXI@Z 00000001800013d4 f i OposVariant.obj
 0001:00000478       ?AtlWinModuleTerm@ATL@@YAJPEAU_ATL_WIN_MODULE70@1@PEAUHINSTANCE__@@@Z 0000000180001478 f i OposVariant.obj
 0001:00000528       ?ChangeBSTR@OposVariant@@QEAAXPEAPEA_WAEAJ@Z 0000000180001528 f   OposVariant.obj
 0001:00000588       ?ChangeLONG@OposVariant@@QEAAXPEAJAEAJ@Z 0000000180001588 f   OposVariant.obj
 0001:000005e4       ?GetLONG@OposVariant@@QEAAJXZ 00000001800015e4 f   OposVariant.obj
 0001:00000608       ?SetBSTR@OposVariant@@QEAAXPEA_WAEAJ@Z 0000000180001608 f   OposVariant.obj
 0001:00000648       ?SetBSTR_Copy@OposVariant@@QEAAXPEA_WAEAJ@Z 0000000180001648 f   OposVariant.obj
 0001:000006b8       ?SetBSTR_InOutPtr@OposVariant@@QEAA_NPEAPEA_WAEAJ@Z 00000001800016b8 f   OposVariant.obj
 0001:00000708       ?SetDispatch_Ptr@OposVariant@@QEAAXPEAUIDispatch@@AEAJ@Z 0000000180001708 f   OposVariant.obj
 0001:00000760       ?SetLONG@OposVariant@@QEAAXJ@Z 0000000180001760 f   OposVariant.obj
 0001:00000790       ?SetLONG_Ptr@OposVariant@@QEAAXPEAJAEAJ@Z 0000000180001790 f   OposVariant.obj
 0001:000007dc       ?SetString@OposVariant@@QEAAXPEB_WAEAJ@Z 00000001800017dc f   OposVariant.obj
 0001:00000840       ?SetVARIANT_BOOL@OposVariant@@QEAAXF@Z 0000000180001840 f   OposVariant.obj
 0001:00000878       ?Term@CAtlComModule@ATL@@QEAAXXZ 0000000180001878 f i OposVariant.obj
 0001:000008e8       ?_AtlInitializeCriticalSectionEx@ATL@@YAHPEAU_RTL_CRITICAL_SECTION@@KK@Z 00000001800018e8 f i OposVariant.obj
 0001:000008f0       ?_AtlRaiseException@ATL@@YAXKK@Z 00000001800018f0 f i OposVariant.obj
 0001:00000900       ?Next@?$CComEnumImpl@UIEnumConnections@@$1?_GUID_b196b287_bab4_101a_b69c_00aa00341d07@@3U__s_GUID@@BUtagCONNECTDATA@@V?$_Copy@UtagCONNECTDATA@@@ATL@@@ATL@@UEAAJKPEAUtagCONNECTDATA@@PEAK@Z 0000000180001900 f i VideoCapture.obj
 0001:000009c8       ?Skip@?$CComEnumImpl@UIEnumConnections@@$1?_GUID_b196b287_bab4_101a_b69c_00aa00341d07@@3U__s_GUID@@BUtagCONNECTDATA@@V?$_Copy@UtagCONNECTDATA@@@ATL@@@ATL@@UEAAJK@Z 00000001800019c8 f i VideoCapture.obj
 0001:000009f4       ?Reset@?$CComEnumImpl@UIEnumConnectionPoints@@$1?_GUID_b196b285_bab4_101a_b69c_00aa00341d07@@3U__s_GUID@@BPEAUIConnectionPoint@@V?$_CopyInterface@UIConnectionPoint@@@ATL@@@ATL@@UEAAJXZ 00000001800019f4 f i VideoCapture.obj
 0001:000009f4       ?Reset@?$CComEnumImpl@UIEnumConnections@@$1?_GUID_b196b287_bab4_101a_b69c_00aa00341d07@@3U__s_GUID@@BUtagCONNECTDATA@@V?$_Copy@UtagCONNECTDATA@@@ATL@@@ATL@@UEAAJXZ 00000001800019f4 f i VideoCapture.obj
 0001:00000a00       ?Clone@?$CComEnumImpl@UIEnumConnections@@$1?_GUID_b196b287_bab4_101a_b69c_00aa00341d07@@3U__s_GUID@@BUtagCONNECTDATA@@V?$_Copy@UtagCONNECTDATA@@@ATL@@@ATL@@UEAAJPEAPEAUIEnumConnections@@@Z 0000000180001a00 f i VideoCapture.obj
 0001:00000b2c       ?AddRef@?$CComObject@V?$CComEnum@UIEnumConnections@@$1?_GUID_b196b287_bab4_101a_b69c_00aa00341d07@@3U__s_GUID@@BUtagCONNECTDATA@@V?$_Copy@UtagCONNECTDATA@@@ATL@@VCComSingleThreadModel@6@@ATL@@@ATL@@UEAAKXZ 0000000180001b2c f i VideoCapture.obj
 0001:00000b2c       ?AddRef@?$CComObject@V?$CComEnum@UIEnumConnectionPoints@@$1?_GUID_b196b285_bab4_101a_b69c_00aa00341d07@@3U__s_GUID@@BPEAUIConnectionPoint@@V?$_CopyInterface@UIConnectionPoint@@@ATL@@VCComSingleThreadModel@6@@ATL@@@ATL@@UEAAKXZ 0000000180001b2c f i VideoCapture.obj
 0001:00000b38       ?Release@?$CComObject@V?$CComEnum@UIEnumConnections@@$1?_GUID_b196b287_bab4_101a_b69c_00aa00341d07@@3U__s_GUID@@BUtagCONNECTDATA@@V?$_Copy@UtagCONNECTDATA@@@ATL@@VCComSingleThreadModel@6@@ATL@@@ATL@@UEAAKXZ 0000000180001b38 f i VideoCapture.obj
 0001:00000b38       ?Release@?$CComObject@V?$CComEnum@UIEnumConnectionPoints@@$1?_GUID_b196b285_bab4_101a_b69c_00aa00341d07@@3U__s_GUID@@BPEAUIConnectionPoint@@V?$_CopyInterface@UIConnectionPoint@@@ATL@@VCComSingleThreadModel@6@@ATL@@@ATL@@UEAAKXZ 0000000180001b38 f i VideoCapture.obj
 0001:00000b8c       ?QueryInterface@?$CComObject@V?$CComEnum@UIEnumConnections@@$1?_GUID_b196b287_bab4_101a_b69c_00aa00341d07@@3U__s_GUID@@BUtagCONNECTDATA@@V?$_Copy@UtagCONNECTDATA@@@ATL@@VCComSingleThreadModel@6@@ATL@@@ATL@@UEAAJAEBU_GUID@@PEAPEAX@Z 0000000180001b8c f i VideoCapture.obj
 0001:00000ba0       ??_E?$CComObject@V?$CComEnum@UIEnumConnections@@$1?_GUID_b196b287_bab4_101a_b69c_00aa00341d07@@3U__s_GUID@@BUtagCONNECTDATA@@V?$_Copy@UtagCONNECTDATA@@@ATL@@VCComSingleThreadModel@6@@ATL@@@ATL@@UEAAPEAXI@Z 0000000180001ba0 f i VideoCapture.obj
 0001:00000ba0       ??_G?$CComObject@V?$CComEnum@UIEnumConnections@@$1?_GUID_b196b287_bab4_101a_b69c_00aa00341d07@@3U__s_GUID@@BUtagCONNECTDATA@@V?$_Copy@UtagCONNECTDATA@@@ATL@@VCComSingleThreadModel@6@@ATL@@@ATL@@UEAAPEAXI@Z 0000000180001ba0 f i VideoCapture.obj
 0001:00000bf8       ?OnFinalMessage@?$CWindowImplBaseT@VCWindow@ATL@@V?$CWinTraits@$0FGAAAAAA@$0A@@2@@ATL@@UEAAXPEAUHWND__@@@Z 0000000180001bf8 f i VideoCapture.obj
 0001:00000bf8       _guard_check_icall_nop     0000000180001bf8 f i LIBCMT:guard_support.obj
 0001:00000bf8       ?ObjectMain@CComObjectRootBase@ATL@@SAX_N@Z 0000000180001bf8 f i VideoCapture.obj
 0001:00000bfc       ?ResizeBorder@?$IOleInPlaceActiveObjectImpl@VCOPOSVideoCapture@@@ATL@@UEAAJPEBUtagRECT@@PEAUIOleInPlaceUIWindow@@H@Z 0000000180001bfc f i VideoCapture.obj
 0001:00000bfc       ?SetHostNames@?$IOleObjectImpl@VCOPOSVideoCapture@@@ATL@@UEAAJPEB_W0@Z 0000000180001bfc f i VideoCapture.obj
 0001:00000bfc       ?HandsOffStorage@?$IPersistStorageImpl@VCOPOSVideoCapture@@@ATL@@UEAAJXZ 0000000180001bfc f i VideoCapture.obj
 0001:00000bfc       ?GetCategoryMap@CComObjectRootBase@ATL@@SAPEBU_ATL_CATMAP_ENTRY@2@XZ 0000000180001bfc f i VideoCapture.obj
 0001:00000bfc       ?EnableModeless@?$IOleInPlaceActiveObjectImpl@VCOPOSVideoCapture@@@ATL@@UEAAJH@Z 0000000180001bfc f i VideoCapture.obj
 0001:00000bfc       ?Update@?$IOleObjectImpl@VCOPOSVideoCapture@@@ATL@@UEAAJXZ 0000000180001bfc f i VideoCapture.obj
 0001:00000bfc       ?GetObjectDescription@?$CComCoClass@VCOPOSVideoCapture@@$1?CLSID_OPOSVideoCapture@@3U_GUID@@B@ATL@@SAPEB_WXZ 0000000180001bfc f i VideoCapture.obj
 0001:00000bfc       ?Release@CRegObject@ATL@@UEAAKXZ 0000000180001bfc f i VideoCapture.obj
 0001:00000bfc       ?IsUpToDate@?$IOleObjectImpl@VCOPOSVideoCapture@@@ATL@@UEAAJXZ 0000000180001bfc f i VideoCapture.obj
 0001:00000bfc       ?SaveCompleted@?$IPersistStorageImpl@VCOPOSVideoCapture@@@ATL@@UEAAJPEAUIStorage@@@Z 0000000180001bfc f i VideoCapture.obj
 0001:00000bfc       ?OnFrameWindowActivate@?$IOleInPlaceActiveObjectImpl@VCOPOSVideoCapture@@@ATL@@UEAAJH@Z 0000000180001bfc f i VideoCapture.obj
 0001:00000bfc       ?OnAmbientPropertyChange@?$IOleControlImpl@VCOPOSVideoCapture@@@ATL@@UEAAJJ@Z 0000000180001bfc f i VideoCapture.obj
 0001:00000c00       ?CreateInstance@CComClassFactory@ATL@@UEAAJPEAUIUnknown@@AEBU_GUID@@PEAPEAX@Z 0000000180001c00 f i VideoCapture.obj
 0001:00000c60       ?LockServer@CComClassFactory@ATL@@UEAAJH@Z 0000000180001c60 f i VideoCapture.obj
 0001:00000c84       ??_ECComClassFactory@ATL@@UEAAPEAXI@Z 0000000180001c84 f i VideoCapture.obj
 0001:00000c84       ??_GCComClassFactory@ATL@@UEAAPEAXI@Z 0000000180001c84 f i VideoCapture.obj
 0001:00000cd4       ??_E?$CComObject@VCOPOSVideoCapture@@@ATL@@W7EAAPEAXI@Z 0000000180001cd4 f i VideoCapture.obj
 0001:00000ce0       ??_E?$CComObject@VCOPOSVideoCapture@@@ATL@@WHA@EAAPEAXI@Z 0000000180001ce0 f i VideoCapture.obj
 0001:00000cec       ?QueryInterface@?$CComObject@VCOPOSVideoCapture@@@ATL@@WLI@EAAJAEBU_GUID@@PEAPEAX@Z 0000000180001cec f i VideoCapture.obj
 0001:00000cf8       ?AddRef@?$CComObject@VCOPOSVideoCapture@@@ATL@@WLI@EAAKXZ 0000000180001cf8 f i VideoCapture.obj
 0001:00000d04       ?Release@?$CComObject@VCOPOSVideoCapture@@@ATL@@WLI@EAAKXZ 0000000180001d04 f i VideoCapture.obj
 0001:00000d10       ?QueryInterface@?$CComObject@VCOPOSVideoCapture@@@ATL@@WMA@EAAJAEBU_GUID@@PEAPEAX@Z 0000000180001d10 f i VideoCapture.obj
 0001:00000d1c       ?AddRef@?$CComObject@VCOPOSVideoCapture@@@ATL@@WMA@EAAKXZ 0000000180001d1c f i VideoCapture.obj
 0001:00000d28       ?Release@?$CComObject@VCOPOSVideoCapture@@@ATL@@WMA@EAAKXZ 0000000180001d28 f i VideoCapture.obj
 0001:00000d34       ?QueryInterface@?$CComObject@VCOPOSVideoCapture@@@ATL@@WMI@EAAJAEBU_GUID@@PEAPEAX@Z 0000000180001d34 f i VideoCapture.obj
 0001:00000d40       ?AddRef@?$CComObject@VCOPOSVideoCapture@@@ATL@@WMI@EAAKXZ 0000000180001d40 f i VideoCapture.obj
 0001:00000d4c       ?Release@?$CComObject@VCOPOSVideoCapture@@@ATL@@WMI@EAAKXZ 0000000180001d4c f i VideoCapture.obj
 0001:00000d58       ?QueryInterface@?$CComObject@VCOPOSVideoCapture@@@ATL@@WNA@EAAJAEBU_GUID@@PEAPEAX@Z 0000000180001d58 f i VideoCapture.obj
 0001:00000d64       ?AddRef@?$CComObject@VCOPOSVideoCapture@@@ATL@@WNA@EAAKXZ 0000000180001d64 f i VideoCapture.obj
 0001:00000d70       ?Release@?$CComObject@VCOPOSVideoCapture@@@ATL@@WNA@EAAKXZ 0000000180001d70 f i VideoCapture.obj
 0001:00000d7c       ?QueryInterface@?$CComObject@VCOPOSVideoCapture@@@ATL@@WNI@EAAJAEBU_GUID@@PEAPEAX@Z 0000000180001d7c f i VideoCapture.obj
 0001:00000d88       ?AddRef@?$CComObject@VCOPOSVideoCapture@@@ATL@@WNI@EAAKXZ 0000000180001d88 f i VideoCapture.obj
 0001:00000d94       ?Release@?$CComObject@VCOPOSVideoCapture@@@ATL@@WNI@EAAKXZ 0000000180001d94 f i VideoCapture.obj
 0001:00000da0       ?QueryInterface@?$CComObject@VCOPOSVideoCapture@@@ATL@@WOA@EAAJAEBU_GUID@@PEAPEAX@Z 0000000180001da0 f i VideoCapture.obj
 0001:00000dac       ?AddRef@?$CComObject@VCOPOSVideoCapture@@@ATL@@WOA@EAAKXZ 0000000180001dac f i VideoCapture.obj
 0001:00000db8       ?Release@?$CComObject@VCOPOSVideoCapture@@@ATL@@WOA@EAAKXZ 0000000180001db8 f i VideoCapture.obj
 0001:00000dc4       ?QueryInterface@?$CComObject@VCOPOSVideoCapture@@@ATL@@WOI@EAAJAEBU_GUID@@PEAPEAX@Z 0000000180001dc4 f i VideoCapture.obj
 0001:00000dd0       ?AddRef@?$CComObject@VCOPOSVideoCapture@@@ATL@@WOI@EAAKXZ 0000000180001dd0 f i VideoCapture.obj
 0001:00000ddc       ?Release@?$CComObject@VCOPOSVideoCapture@@@ATL@@WOI@EAAKXZ 0000000180001ddc f i VideoCapture.obj
 0001:00000de8       ?QueryInterface@?$CComObject@VCOPOSVideoCapture@@@ATL@@WPA@EAAJAEBU_GUID@@PEAPEAX@Z 0000000180001de8 f i VideoCapture.obj
 0001:00000df4       ?AddRef@?$CComObject@VCOPOSVideoCapture@@@ATL@@WPA@EAAKXZ 0000000180001df4 f i VideoCapture.obj
 0001:00000e00       ?Release@?$CComObject@VCOPOSVideoCapture@@@ATL@@WPA@EAAKXZ 0000000180001e00 f i VideoCapture.obj
 0001:00000e0c       ?QueryInterface@?$CComObject@VCOPOSVideoCapture@@@ATL@@WPI@EAAJAEBU_GUID@@PEAPEAX@Z 0000000180001e0c f i VideoCapture.obj
 0001:00000e18       ?AddRef@?$CComObject@VCOPOSVideoCapture@@@ATL@@WPI@EAAKXZ 0000000180001e18 f i VideoCapture.obj
 0001:00000e24       ?Release@?$CComObject@VCOPOSVideoCapture@@@ATL@@WPI@EAAKXZ 0000000180001e24 f i VideoCapture.obj
 0001:00000e30       ?QueryInterface@?$CComObject@VCOPOSVideoCapture@@@ATL@@WBAA@EAAJAEBU_GUID@@PEAPEAX@Z 0000000180001e30 f i VideoCapture.obj
 0001:00000e3c       ?AddRef@?$CComObject@VCOPOSVideoCapture@@@ATL@@WBAA@EAAKXZ 0000000180001e3c f i VideoCapture.obj
 0001:00000e48       ?Release@?$CComObject@VCOPOSVideoCapture@@@ATL@@WBAA@EAAKXZ 0000000180001e48 f i VideoCapture.obj
 0001:00000e54       ?QueryInterface@?$CComObject@VCOPOSVideoCapture@@@ATL@@WBAI@EAAJAEBU_GUID@@PEAPEAX@Z 0000000180001e54 f i VideoCapture.obj
 0001:00000e60       ?AddRef@?$CComObject@VCOPOSVideoCapture@@@ATL@@WBAI@EAAKXZ 0000000180001e60 f i VideoCapture.obj
 0001:00000e6c       ?Release@?$CComObject@VCOPOSVideoCapture@@@ATL@@WBAI@EAAKXZ 0000000180001e6c f i VideoCapture.obj
 0001:00000e78       ?QueryInterface@?$CComObject@VCOPOSVideoCapture@@@ATL@@WBBA@EAAJAEBU_GUID@@PEAPEAX@Z 0000000180001e78 f i VideoCapture.obj
 0001:00000e84       ?AddRef@?$CComObject@VCOPOSVideoCapture@@@ATL@@WBBA@EAAKXZ 0000000180001e84 f i VideoCapture.obj
 0001:00000e90       ?Release@?$CComObject@VCOPOSVideoCapture@@@ATL@@WBBA@EAAKXZ 0000000180001e90 f i VideoCapture.obj
 0001:00000e9c       ?QueryInterface@?$CComObject@VCOPOSVideoCapture@@@ATL@@WBBI@EAAJAEBU_GUID@@PEAPEAX@Z 0000000180001e9c f i VideoCapture.obj
 0001:00000ea8       ?AddRef@?$CComObject@VCOPOSVideoCapture@@@ATL@@WBBI@EAAKXZ 0000000180001ea8 f i VideoCapture.obj
 0001:00000eb4       ?Release@?$CComObject@VCOPOSVideoCapture@@@ATL@@WBBI@EAAKXZ 0000000180001eb4 f i VideoCapture.obj
 0001:00000ec0       ?AddRef@?$CComObject@VCOPOSVideoCapture@@@ATL@@WBCI@EAAKXZ 0000000180001ec0 f i VideoCapture.obj
 0001:00000ecc       ?Release@?$CComObject@VCOPOSVideoCapture@@@ATL@@WBCI@EAAKXZ 0000000180001ecc f i VideoCapture.obj
 0001:00000ed8       ?AddRef@?$CComObject@VCOPOSVideoCapture@@@ATL@@WBEA@EAAKXZ 0000000180001ed8 f i VideoCapture.obj
 0001:00000ee4       ?Release@?$CComObject@VCOPOSVideoCapture@@@ATL@@WBEA@EAAKXZ 0000000180001ee4 f i VideoCapture.obj
 0001:00000ef0       ??_E?$CComContainedObject@VCOPOSVideoCapture@@@ATL@@W7EAAPEAXI@Z 0000000180001ef0 f i VideoCapture.obj
 0001:00000efc       ??_E?$CComContainedObject@VCOPOSVideoCapture@@@ATL@@WHA@EAAPEAXI@Z 0000000180001efc f i VideoCapture.obj
 0001:00000f08       ?QueryInterface@?$CComContainedObject@VCOPOSVideoCapture@@@ATL@@WLI@EAAJAEBU_GUID@@PEAPEAX@Z 0000000180001f08 f i VideoCapture.obj
 0001:00000f14       ?AddRef@?$CComContainedObject@VCOPOSVideoCapture@@@ATL@@WLI@EAAKXZ 0000000180001f14 f i VideoCapture.obj
 0001:00000f20       ?Release@?$CComContainedObject@VCOPOSVideoCapture@@@ATL@@WLI@EAAKXZ 0000000180001f20 f i VideoCapture.obj
 0001:00000f2c       ?QueryInterface@?$CComContainedObject@VCOPOSVideoCapture@@@ATL@@WMA@EAAJAEBU_GUID@@PEAPEAX@Z 0000000180001f2c f i VideoCapture.obj
 0001:00000f38       ?AddRef@?$CComContainedObject@VCOPOSVideoCapture@@@ATL@@WMA@EAAKXZ 0000000180001f38 f i VideoCapture.obj
 0001:00000f44       ?Release@?$CComContainedObject@VCOPOSVideoCapture@@@ATL@@WMA@EAAKXZ 0000000180001f44 f i VideoCapture.obj
 0001:00000f50       ?QueryInterface@?$CComContainedObject@VCOPOSVideoCapture@@@ATL@@WMI@EAAJAEBU_GUID@@PEAPEAX@Z 0000000180001f50 f i VideoCapture.obj
 0001:00000f5c       ?AddRef@?$CComContainedObject@VCOPOSVideoCapture@@@ATL@@WMI@EAAKXZ 0000000180001f5c f i VideoCapture.obj
 0001:00000f68       ?Release@?$CComContainedObject@VCOPOSVideoCapture@@@ATL@@WMI@EAAKXZ 0000000180001f68 f i VideoCapture.obj
 0001:00000f74       ?QueryInterface@?$CComContainedObject@VCOPOSVideoCapture@@@ATL@@WNA@EAAJAEBU_GUID@@PEAPEAX@Z 0000000180001f74 f i VideoCapture.obj
 0001:00000f80       ?AddRef@?$CComContainedObject@VCOPOSVideoCapture@@@ATL@@WNA@EAAKXZ 0000000180001f80 f i VideoCapture.obj
 0001:00000f8c       ?Release@?$CComContainedObject@VCOPOSVideoCapture@@@ATL@@WNA@EAAKXZ 0000000180001f8c f i VideoCapture.obj
 0001:00000f98       ?QueryInterface@?$CComContainedObject@VCOPOSVideoCapture@@@ATL@@WNI@EAAJAEBU_GUID@@PEAPEAX@Z 0000000180001f98 f i VideoCapture.obj
 0001:00000fa4       ?AddRef@?$CComContainedObject@VCOPOSVideoCapture@@@ATL@@WNI@EAAKXZ 0000000180001fa4 f i VideoCapture.obj
 0001:00000fb0       ?Release@?$CComContainedObject@VCOPOSVideoCapture@@@ATL@@WNI@EAAKXZ 0000000180001fb0 f i VideoCapture.obj
 0001:00000fbc       ?QueryInterface@?$CComContainedObject@VCOPOSVideoCapture@@@ATL@@WOA@EAAJAEBU_GUID@@PEAPEAX@Z 0000000180001fbc f i VideoCapture.obj
 0001:00000fc8       ?AddRef@?$CComContainedObject@VCOPOSVideoCapture@@@ATL@@WOA@EAAKXZ 0000000180001fc8 f i VideoCapture.obj
 0001:00000fd4       ?Release@?$CComContainedObject@VCOPOSVideoCapture@@@ATL@@WOA@EAAKXZ 0000000180001fd4 f i VideoCapture.obj
 0001:00000fe0       ?QueryInterface@?$CComContainedObject@VCOPOSVideoCapture@@@ATL@@WOI@EAAJAEBU_GUID@@PEAPEAX@Z 0000000180001fe0 f i VideoCapture.obj
 0001:00000fec       ?AddRef@?$CComContainedObject@VCOPOSVideoCapture@@@ATL@@WOI@EAAKXZ 0000000180001fec f i VideoCapture.obj
 0001:00000ff8       ?Release@?$CComContainedObject@VCOPOSVideoCapture@@@ATL@@WOI@EAAKXZ 0000000180001ff8 f i VideoCapture.obj
 0001:00001004       ?QueryInterface@?$CComContainedObject@VCOPOSVideoCapture@@@ATL@@WPA@EAAJAEBU_GUID@@PEAPEAX@Z 0000000180002004 f i VideoCapture.obj
 0001:00001010       ?AddRef@?$CComContainedObject@VCOPOSVideoCapture@@@ATL@@WPA@EAAKXZ 0000000180002010 f i VideoCapture.obj
 0001:0000101c       ?Release@?$CComContainedObject@VCOPOSVideoCapture@@@ATL@@WPA@EAAKXZ 000000018000201c f i VideoCapture.obj
 0001:00001028       ?QueryInterface@?$CComContainedObject@VCOPOSVideoCapture@@@ATL@@WPI@EAAJAEBU_GUID@@PEAPEAX@Z 0000000180002028 f i VideoCapture.obj
 0001:00001034       ?AddRef@?$CComContainedObject@VCOPOSVideoCapture@@@ATL@@WPI@EAAKXZ 0000000180002034 f i VideoCapture.obj
 0001:00001040       ?Release@?$CComContainedObject@VCOPOSVideoCapture@@@ATL@@WPI@EAAKXZ 0000000180002040 f i VideoCapture.obj
 0001:0000104c       ?QueryInterface@?$CComContainedObject@VCOPOSVideoCapture@@@ATL@@WBAA@EAAJAEBU_GUID@@PEAPEAX@Z 000000018000204c f i VideoCapture.obj
 0001:00001058       ?AddRef@?$CComContainedObject@VCOPOSVideoCapture@@@ATL@@WBAA@EAAKXZ 0000000180002058 f i VideoCapture.obj
 0001:00001064       ?Release@?$CComContainedObject@VCOPOSVideoCapture@@@ATL@@WBAA@EAAKXZ 0000000180002064 f i VideoCapture.obj
 0001:00001070       ?QueryInterface@?$CComContainedObject@VCOPOSVideoCapture@@@ATL@@WBAI@EAAJAEBU_GUID@@PEAPEAX@Z 0000000180002070 f i VideoCapture.obj
 0001:0000107c       ?AddRef@?$CComContainedObject@VCOPOSVideoCapture@@@ATL@@WBAI@EAAKXZ 000000018000207c f i VideoCapture.obj
 0001:00001088       ?Release@?$CComContainedObject@VCOPOSVideoCapture@@@ATL@@WBAI@EAAKXZ 0000000180002088 f i VideoCapture.obj
 0001:00001094       ?QueryInterface@?$CComContainedObject@VCOPOSVideoCapture@@@ATL@@WBBA@EAAJAEBU_GUID@@PEAPEAX@Z 0000000180002094 f i VideoCapture.obj
 0001:000010a0       ?AddRef@?$CComContainedObject@VCOPOSVideoCapture@@@ATL@@WBBA@EAAKXZ 00000001800020a0 f i VideoCapture.obj
 0001:000010ac       ?Release@?$CComContainedObject@VCOPOSVideoCapture@@@ATL@@WBBA@EAAKXZ 00000001800020ac f i VideoCapture.obj
 0001:000010b8       ?QueryInterface@?$CComContainedObject@VCOPOSVideoCapture@@@ATL@@WBBI@EAAJAEBU_GUID@@PEAPEAX@Z 00000001800020b8 f i VideoCapture.obj
 0001:000010c4       ?AddRef@?$CComContainedObject@VCOPOSVideoCapture@@@ATL@@WBBI@EAAKXZ 00000001800020c4 f i VideoCapture.obj
 0001:000010d0       ?Release@?$CComContainedObject@VCOPOSVideoCapture@@@ATL@@WBBI@EAAKXZ 00000001800020d0 f i VideoCapture.obj
 0001:000010dc       ?AddRef@?$CComContainedObject@VCOPOSVideoCapture@@@ATL@@WBCI@EAAKXZ 00000001800020dc f i VideoCapture.obj
 0001:000010e8       ?Release@?$CComContainedObject@VCOPOSVideoCapture@@@ATL@@WBCI@EAAKXZ 00000001800020e8 f i VideoCapture.obj
 0001:000010f4       ?AddRef@?$CComContainedObject@VCOPOSVideoCapture@@@ATL@@WBEA@EAAKXZ 00000001800020f4 f i VideoCapture.obj
 0001:00001100       ?Release@?$CComContainedObject@VCOPOSVideoCapture@@@ATL@@WBEA@EAAKXZ 0000000180002100 f i VideoCapture.obj
 0001:0000110c       ?GetWindowProc@?$CWindowImplBaseT@VCWindow@ATL@@V?$CWinTraits@$0FGAAAAAA@$0A@@2@@ATL@@UEAAP6A_JPEAUHWND__@@I_K_J@ZXZ 000000018000210c f i VideoCapture.obj
 0001:00001114       ?StartWindowProc@?$CWindowImplBaseT@VCWindow@ATL@@V?$CWinTraits@$0FGAAAAAA@$0A@@2@@ATL@@SA_JPEAUHWND__@@I_K_J@Z 0000000180002114 f i VideoCapture.obj
 0001:000011c8       ?GetTypeInfoCount@?$IDispatchImpl@UIOPOSVideoCapture@@$1?IID_IOPOSVideoCapture@@3U_GUID@@B$1?LIBID_OposVideoCapture_CCO@@3U3@B$00$0A@VCComTypeInfoHolder@ATL@@@ATL@@UEAAJPEAI@Z 00000001800021c8 f i VideoCapture.obj
 0001:000011dc       ?GetTypeInfo@?$IDispatchImpl@UIOPOSVideoCapture@@$1?IID_IOPOSVideoCapture@@3U_GUID@@B$1?LIBID_OposVideoCapture_CCO@@3U3@B$00$0A@VCComTypeInfoHolder@ATL@@@ATL@@UEAAJIKPEAPEAUITypeInfo@@@Z 00000001800021dc f i VideoCapture.obj
 0001:00001240       ?GetIDsOfNames@?$IDispatchImpl@UIOPOSVideoCapture@@$1?IID_IOPOSVideoCapture@@3U_GUID@@B$1?LIBID_OposVideoCapture_CCO@@3U3@B$00$0A@VCComTypeInfoHolder@ATL@@@ATL@@UEAAJAEBU_GUID@@PEAPEA_WIKPEAJ@Z 0000000180002240 f i VideoCapture.obj
 0001:0000124c       ?Invoke@?$IDispatchImpl@UIOPOSVideoCapture@@$1?IID_IOPOSVideoCapture@@3U_GUID@@B$1?LIBID_OposVideoCapture_CCO@@3U3@B$00$0A@VCComTypeInfoHolder@ATL@@@ATL@@UEAAJJAEBU_GUID@@KGPEAUtagDISPPARAMS@@PEAUtagVARIANT@@PEAUtagEXCEPINFO@@PEAI@Z 000000018000224c f i VideoCapture.obj
 0001:000012dc       ?CreateControlWindow@?$CComControl@VCOPOSVideoCapture@@V?$CWindowImpl@VCOPOSVideoCapture@@VCWindow@ATL@@V?$CWinTraits@$0FGAAAAAA@$0A@@3@@ATL@@@ATL@@UEAAPEAUHWND__@@PEAU3@AEAUtagRECT@@@Z 00000001800022dc f i VideoCapture.obj
 0001:00001314       ?ControlQueryInterface@?$CComControl@VCOPOSVideoCapture@@V?$CWindowImpl@VCOPOSVideoCapture@@VCWindow@ATL@@V?$CWinTraits@$0FGAAAAAA@$0A@@3@@ATL@@@ATL@@UEAAJAEBU_GUID@@PEAPEAX@Z 0000000180002314 f i VideoCapture.obj
 0001:00001328       ?GetUserClassID@?$IOleObjectImpl@VCOPOSVideoCapture@@@ATL@@UEAAJPEAU_GUID@@@Z 0000000180002328 f i VideoCapture.obj
 0001:00001328       ?GetClassID@?$IPersistStreamInitImpl@VCOPOSVideoCapture@@@ATL@@UEAAJPEAU_GUID@@@Z 0000000180002328 f i VideoCapture.obj
 0001:00001328       ?GetClassID@?$IPersistStorageImpl@VCOPOSVideoCapture@@@ATL@@UEAAJPEAU_GUID@@@Z 0000000180002328 f i VideoCapture.obj
 0001:00001344       ?IsDirty@?$IPersistStreamInitImpl@VCOPOSVideoCapture@@@ATL@@UEAAJXZ 0000000180002344 f i VideoCapture.obj
 0001:00001360       ?Load@?$IPersistStreamInitImpl@VCOPOSVideoCapture@@@ATL@@UEAAJPEAUIStream@@@Z 0000000180002360 f i VideoCapture.obj
 0001:00001378       ?Save@?$IPersistStreamInitImpl@VCOPOSVideoCapture@@@ATL@@UEAAJPEAUIStream@@H@Z 0000000180002378 f i VideoCapture.obj
 0001:00001390       ?GetSizeMax@?$IPersistStreamInitImpl@VCOPOSVideoCapture@@@ATL@@UEAAJPEAT_ULARGE_INTEGER@@@Z 0000000180002390 f i VideoCapture.obj
 0001:000015b4       ?InitNew@?$IPersistStreamInitImpl@VCOPOSVideoCapture@@@ATL@@UEAAJXZ 00000001800025b4 f i VideoCapture.obj
 0001:000015cc       ?GetDropTarget@?$IOleInPlaceObjectWindowlessImpl@VCOPOSVideoCapture@@@ATL@@UEAAJPEAPEAUIDropTarget@@@Z 00000001800025cc f i VideoCapture.obj
 0001:000015cc       ?SOOutputCompleteDummy@COPOSVideoCapture@@MEAAJJ@Z 00000001800025cc f i VideoCapture.obj
 0001:000015cc       ?GetRect@?$IViewObjectExImpl@VCOPOSVideoCapture@@@ATL@@UEAAJKPEAU_RECTL@@@Z 00000001800025cc f i VideoCapture.obj
 0001:000015cc       ?GetDataHere@?$IDataObjectImpl@VCOPOSVideoCapture@@@ATL@@UEAAJPEAUtagFORMATETC@@PEAUtagSTGMEDIUM@@@Z 00000001800025cc f i VideoCapture.obj
 0001:000015cc       ?OnMnemonic@?$IOleControlImpl@VCOPOSVideoCapture@@@ATL@@UEAAJPEAUtagMSG@@@Z 00000001800025cc f i VideoCapture.obj
 0001:000015cc       ?GetColorSet@?$IViewObjectExImpl@VCOPOSVideoCapture@@@ATL@@UEAAJKJPEAXPEAUtagDVTARGETDEVICE@@PEAUHDC__@@PEAPEAUtagLOGPALETTE@@@Z 00000001800025cc f i VideoCapture.obj
 0001:000015cc       ?SetColorScheme@?$IOleObjectImpl@VCOPOSVideoCapture@@@ATL@@UEAAJPEAUtagLOGPALETTE@@@Z 00000001800025cc f i VideoCapture.obj
 0001:000015cc       ?InitFromData@?$IOleObjectImpl@VCOPOSVideoCapture@@@ATL@@UEAAJPEAUIDataObject@@HK@Z 00000001800025cc f i VideoCapture.obj
 0001:000015cc       ?SODataDummy@COPOSVideoCapture@@MEAAJJ@Z 00000001800025cc f i VideoCapture.obj
 0001:000015cc       ?QueryInterface@CRegObject@ATL@@UEAAJAEBU_GUID@@PEAPEAX@Z 00000001800025cc f i VideoCapture.obj
 0001:000015cc       ?QueryGetData@?$IDataObjectImpl@VCOPOSVideoCapture@@@ATL@@UEAAJPEAUtagFORMATETC@@@Z 00000001800025cc f i VideoCapture.obj
 0001:000015cc       ?ContextSensitiveHelp@?$IOleInPlaceObjectWindowlessImpl@VCOPOSVideoCapture@@@ATL@@UEAAJH@Z 00000001800025cc f i VideoCapture.obj
 0001:000015cc       ?SetData@?$IDataObjectImpl@VCOPOSVideoCapture@@@ATL@@UEAAJPEAUtagFORMATETC@@PEAUtagSTGMEDIUM@@H@Z 00000001800025cc f i VideoCapture.obj
 0001:000015cc       ?Unfreeze@?$IViewObjectExImpl@VCOPOSVideoCapture@@@ATL@@UEAAJK@Z 00000001800025cc f i VideoCapture.obj
 0001:000015cc       ?ContextSensitiveHelp@?$IOleInPlaceActiveObjectImpl@VCOPOSVideoCapture@@@ATL@@UEAAJH@Z 00000001800025cc f i VideoCapture.obj
 0001:000015cc       ?SetMoniker@?$IOleObjectImpl@VCOPOSVideoCapture@@@ATL@@UEAAJKPEAUIMoniker@@@Z 00000001800025cc f i VideoCapture.obj
 0001:000015cc       ?EnumFormatEtc@?$IDataObjectImpl@VCOPOSVideoCapture@@@ATL@@UEAAJKPEAPEAUIEnumFORMATETC@@@Z 00000001800025cc f i VideoCapture.obj
 0001:000015cc       ?Freeze@?$IViewObjectExImpl@VCOPOSVideoCapture@@@ATL@@UEAAJKJPEAXPEAK@Z 00000001800025cc f i VideoCapture.obj
 0001:000015cc       ?GetClipboardData@?$IOleObjectImpl@VCOPOSVideoCapture@@@ATL@@UEAAJKPEAPEAUIDataObject@@@Z 00000001800025cc f i VideoCapture.obj
 0001:000015cc       ?ReactivateAndUndo@?$IOleInPlaceObjectWindowlessImpl@VCOPOSVideoCapture@@@ATL@@UEAAJXZ 00000001800025cc f i VideoCapture.obj
 0001:000015cc       ?GetCanonicalFormatEtc@?$IDataObjectImpl@VCOPOSVideoCapture@@@ATL@@UEAAJPEAUtagFORMATETC@@0@Z 00000001800025cc f i VideoCapture.obj
 0001:000015cc       ?GetControlInfo@?$IOleControlImpl@VCOPOSVideoCapture@@@ATL@@UEAAJPEAUtagCONTROLINFO@@@Z 00000001800025cc f i VideoCapture.obj
 0001:000015cc       ?GetMoniker@?$IOleObjectImpl@VCOPOSVideoCapture@@@ATL@@UEAAJKKPEAPEAUIMoniker@@@Z 00000001800025cc f i VideoCapture.obj
 0001:000015d4       ?SetClientSite@?$IOleObjectImpl@VCOPOSVideoCapture@@@ATL@@UEAAJPEAUIOleClientSite@@@Z 00000001800025d4 f i VideoCapture.obj
 0001:000015f0       ?GetClientSite@?$IOleObjectImpl@VCOPOSVideoCapture@@@ATL@@UEAAJPEAPEAUIOleClientSite@@@Z 00000001800025f0 f i VideoCapture.obj
 0001:00001638       ?Close@?$IOleObjectImpl@VCOPOSVideoCapture@@@ATL@@UEAAJK@Z 0000000180002638 f i VideoCapture.obj
 0001:00001654       ?DoVerb@?$IOleObjectImpl@VCOPOSVideoCapture@@@ATL@@UEAAJJPEAUtagMSG@@PEAUIOleClientSite@@JPEAUHWND__@@PEBUtagRECT@@@Z 0000000180002654 f i VideoCapture.obj
 0001:000017f8       ?EnumVerbs@?$IOleObjectImpl@VCOPOSVideoCapture@@@ATL@@UEAAJPEAPEAUIEnumOLEVERB@@@Z 00000001800027f8 f i VideoCapture.obj
 0001:00001814       ?GetUserType@?$IOleObjectImpl@VCOPOSVideoCapture@@@ATL@@UEAAJKPEAPEA_W@Z 0000000180002814 f i VideoCapture.obj
 0001:00001824       ?SetExtent@?$IOleObjectImpl@VCOPOSVideoCapture@@@ATL@@UEAAJKPEAUtagSIZE@@@Z 0000000180002824 f i VideoCapture.obj
 0001:00001840       ?GetExtent@?$IOleObjectImpl@VCOPOSVideoCapture@@@ATL@@UEAAJKPEAUtagSIZE@@@Z 0000000180002840 f i VideoCapture.obj
 0001:00001870       ?Advise@?$IOleObjectImpl@VCOPOSVideoCapture@@@ATL@@UEAAJPEAUIAdviseSink@@PEAK@Z 0000000180002870 f i VideoCapture.obj
 0001:000018cc       ?Unadvise@?$IOleObjectImpl@VCOPOSVideoCapture@@@ATL@@UEAAJK@Z 00000001800028cc f i VideoCapture.obj
 0001:00001904       ?EnumAdvise@?$IOleObjectImpl@VCOPOSVideoCapture@@@ATL@@UEAAJPEAPEAUIEnumSTATDATA@@@Z 0000000180002904 f i VideoCapture.obj
 0001:0000194c       ?GetMiscStatus@?$IOleObjectImpl@VCOPOSVideoCapture@@@ATL@@UEAAJKPEAK@Z 000000018000294c f i VideoCapture.obj
 0001:0000195c       ?GetWindow@?$IOleInPlaceActiveObjectImpl@VCOPOSVideoCapture@@@ATL@@UEAAJPEAPEAUHWND__@@@Z 000000018000295c f i VideoCapture.obj
 0001:000019b0       ?TranslateAcceleratorW@?$IOleInPlaceActiveObjectImpl@VCOPOSVideoCapture@@@ATL@@UEAAJPEAUtagMSG@@@Z 00000001800029b0 f i VideoCapture.obj
 0001:00001aa4       ?OnDocWindowActivate@?$IOleInPlaceActiveObjectImpl@VCOPOSVideoCapture@@@ATL@@UEAAJH@Z 0000000180002aa4 f i VideoCapture.obj
 0001:00001ad0       ?Draw@?$IViewObjectExImpl@VCOPOSVideoCapture@@@ATL@@UEAAJKJPEAXPEAUtagDVTARGETDEVICE@@PEAUHDC__@@2PEBU_RECTL@@3P6AH_K@Z4@Z 0000000180002ad0 f i VideoCapture.obj
 0001:00001b34       ?SetAdvise@?$IViewObjectExImpl@VCOPOSVideoCapture@@@ATL@@UEAAJKKPEAUIAdviseSink@@@Z 0000000180002b34 f i VideoCapture.obj
 0001:00001b88       ?GetAdvise@?$IViewObjectExImpl@VCOPOSVideoCapture@@@ATL@@UEAAJPEAK0PEAPEAUIAdviseSink@@@Z 0000000180002b88 f i VideoCapture.obj
 0001:00001bc4       ?GetExtent@?$IViewObjectExImpl@VCOPOSVideoCapture@@@ATL@@UEAAJKJPEAUtagDVTARGETDEVICE@@PEAUtagSIZE@@@Z 0000000180002bc4 f i VideoCapture.obj
 0001:00001bf4       ?GetViewStatus@?$IViewObjectExImpl@VCOPOSVideoCapture@@@ATL@@UEAAJPEAK@Z 0000000180002bf4 f i VideoCapture.obj
 0001:00001c08       ?QueryHitPoint@?$IViewObjectExImpl@VCOPOSVideoCapture@@@ATL@@UEAAJKPEBUtagRECT@@UtagPOINT@@JPEAK@Z 0000000180002c08 f i VideoCapture.obj
 0001:00001c4c       ?QueryHitRect@?$IViewObjectExImpl@VCOPOSVideoCapture@@@ATL@@UEAAJKPEBUtagRECT@@0JPEAK@Z 0000000180002c4c f i VideoCapture.obj
 0001:00001cb4       ?GetNaturalExtent@?$IViewObjectExImpl@VCOPOSVideoCapture@@@ATL@@UEAAJKJPEAUtagDVTARGETDEVICE@@PEAUHDC__@@PEAUtagExtentInfo@@PEAUtagSIZE@@@Z 0000000180002cb4 f i VideoCapture.obj
 0001:00001cfc       ?GetWindow@?$IOleInPlaceObjectWindowlessImpl@VCOPOSVideoCapture@@@ATL@@UEAAJPEAPEAUHWND__@@@Z 0000000180002cfc f i VideoCapture.obj
 0001:00001d50       ?InPlaceDeactivate@?$IOleInPlaceObjectWindowlessImpl@VCOPOSVideoCapture@@@ATL@@UEAAJXZ 0000000180002d50 f i VideoCapture.obj
 0001:00001d6c       ?UIDeactivate@?$IOleInPlaceObjectWindowlessImpl@VCOPOSVideoCapture@@@ATL@@UEAAJXZ 0000000180002d6c f i VideoCapture.obj
 0001:00001d88       ?SetObjectRects@?$IOleInPlaceObjectWindowlessImpl@VCOPOSVideoCapture@@@ATL@@UEAAJPEBUtagRECT@@0@Z 0000000180002d88 f i VideoCapture.obj
 0001:00001da4       ?OnWindowMessage@?$IOleInPlaceObjectWindowlessImpl@VCOPOSVideoCapture@@@ATL@@UEAAJI_K_JPEA_J@Z 0000000180002da4 f i VideoCapture.obj
 0001:00001e6c       ?EnumConnectionPoints@?$IConnectionPointContainerImpl@VCOPOSVideoCapture@@@ATL@@UEAAJPEAPEAUIEnumConnectionPoints@@@Z 0000000180002e6c f i VideoCapture.obj
 0001:000020b4       ?FindConnectionPoint@?$IConnectionPointContainerImpl@VCOPOSVideoCapture@@@ATL@@UEAAJAEBU_GUID@@PEAPEAUIConnectionPoint@@@Z 00000001800030b4 f i VideoCapture.obj
 0001:00002184       ?IsDirty@?$IPersistStorageImpl@VCOPOSVideoCapture@@@ATL@@UEAAJXZ 0000000180003184 f i VideoCapture.obj
 0001:000021c4       ?InitNew@?$IPersistStorageImpl@VCOPOSVideoCapture@@@ATL@@UEAAJPEAUIStorage@@@Z 00000001800031c4 f i VideoCapture.obj
 0001:00002204       ?Load@?$IPersistStorageImpl@VCOPOSVideoCapture@@@ATL@@UEAAJPEAUIStorage@@@Z 0000000180003204 f i VideoCapture.obj
 0001:000022a4       ?Save@?$IPersistStorageImpl@VCOPOSVideoCapture@@@ATL@@UEAAJPEAUIStorage@@H@Z 00000001800032a4 f i VideoCapture.obj
 0001:00002354       ?GetPages@?$ISpecifyPropertyPagesImpl@VCOPOSVideoCapture@@@ATL@@UEAAJPEAUtagCAUUID@@@Z 0000000180003354 f i VideoCapture.obj
 0001:00002360       ?QuickActivate@?$IQuickActivateImpl@VCOPOSVideoCapture@@@ATL@@UEAAJPEAUtagQACONTAINER@@PEAUtagQACONTROL@@@Z 0000000180003360 f i VideoCapture.obj
 0001:0000237c       ?SetContentExtent@?$IQuickActivateImpl@VCOPOSVideoCapture@@@ATL@@UEAAJPEAUtagSIZE@@@Z 000000018000337c f i VideoCapture.obj
 0001:000023b0       ?GetContentExtent@?$IQuickActivateImpl@VCOPOSVideoCapture@@@ATL@@UEAAJPEAUtagSIZE@@@Z 00000001800033b0 f i VideoCapture.obj
 0001:000023e8       ?GetData@?$IDataObjectImpl@VCOPOSVideoCapture@@@ATL@@UEAAJPEAUtagFORMATETC@@PEAUtagSTGMEDIUM@@@Z 00000001800033e8 f i VideoCapture.obj
 0001:00002404       ?DAdvise@?$IDataObjectImpl@VCOPOSVideoCapture@@@ATL@@UEAAJPEAUtagFORMATETC@@KPEAUIAdviseSink@@PEAK@Z 0000000180003404 f i VideoCapture.obj
 0001:0000248c       ?DUnadvise@?$IDataObjectImpl@VCOPOSVideoCapture@@@ATL@@UEAAJK@Z 000000018000348c f i VideoCapture.obj
 0001:000024b8       ?EnumDAdvise@?$IDataObjectImpl@VCOPOSVideoCapture@@@ATL@@UEAAJPEAPEAUIEnumSTATDATA@@@Z 00000001800034b8 f i VideoCapture.obj
 0001:000024f4       ?GetClassInfoW@?$IProvideClassInfo2Impl@$1?CLSID_OPOSVideoCapture@@3U_GUID@@B$1?DIID__IOPOSVideoCaptureEvents@@3U2@B$1?LIBID_OposVideoCapture_CCO@@3U2@B$00$0A@VCComTypeInfoHolder@ATL@@@ATL@@UEAAJPEAPEAUITypeInfo@@@Z 00000001800034f4 f i VideoCapture.obj
 0001:0000254c       ?GetGUID@?$IProvideClassInfo2Impl@$1?CLSID_OPOSVideoCapture@@3U_GUID@@B$1?DIID__IOPOSVideoCaptureEvents@@3U2@B$1?LIBID_OposVideoCapture_CCO@@3U2@B$00$0A@VCComTypeInfoHolder@ATL@@@ATL@@UEAAJKPEAU_GUID@@@Z 000000018000354c f i VideoCapture.obj
 0001:00002580       _get_startup_argv_mode     0000000180003580 f i LIBCMT:argv_mode.obj
 0001:00002580       ?FAccessAllowed@?$IObjectSafetyImpl@VCOPOSVideoCapture@@$02@ATL@@MEAAHXZ 0000000180003580 f i VideoCapture.obj
 0001:00002580       ?AddRef@CRegObject@ATL@@UEAAKXZ 0000000180003580 f i VideoCapture.obj
 0001:00002588       ?GetInterfaceSafetyOptions@?$IObjectSafetyImpl@VCOPOSVideoCapture@@$02@ATL@@UEAAJAEBU_GUID@@PEAK1@Z 0000000180003588 f i VideoCapture.obj
 0001:0000261c       ?SetInterfaceSafetyOptions@?$IObjectSafetyImpl@VCOPOSVideoCapture@@$02@ATL@@UEAAJAEBU_GUID@@KK@Z 000000018000361c f i VideoCapture.obj
 0001:000026c0       ?_LocCPQueryInterface@?$IConnectionPointImpl@VCOPOSVideoCapture@@$1?IID_IPropertyNotifySink@@3U_GUID@@BVCComDynamicUnkArray@ATL@@@ATL@@UEAAJAEBU_GUID@@PEAPEAX@Z 00000001800036c0 f i VideoCapture.obj
 0001:000026c0       ?_LocCPQueryInterface@?$IConnectionPointImpl@VCOPOSVideoCapture@@$1?DIID__IOPOSVideoCaptureEvents@@3U_GUID@@BVCComDynamicUnkArray@ATL@@@ATL@@UEAAJAEBU_GUID@@PEAPEAX@Z 00000001800036c0 f i VideoCapture.obj
 0001:00002734       ?GetConnectionInterface@?$IConnectionPointImpl@VCOPOSVideoCapture@@$1?IID_IPropertyNotifySink@@3U_GUID@@BVCComDynamicUnkArray@ATL@@@ATL@@UEAAJPEAU_GUID@@@Z 0000000180003734 f i VideoCapture.obj
 0001:00002750       ?GetConnectionPointContainer@?$IConnectionPointImpl@VCOPOSVideoCapture@@$1?IID_IPropertyNotifySink@@3U_GUID@@BVCComDynamicUnkArray@ATL@@@ATL@@UEAAJPEAPEAUIConnectionPointContainer@@@Z 0000000180003750 f i VideoCapture.obj
 0001:00002770       ?Advise@?$IConnectionPointImpl@VCOPOSVideoCapture@@$1?IID_IPropertyNotifySink@@3U_GUID@@BVCComDynamicUnkArray@ATL@@@ATL@@UEAAJPEAUIUnknown@@PEAK@Z 0000000180003770 f i VideoCapture.obj
 0001:00002770       ?Advise@?$IConnectionPointImpl@VCOPOSVideoCapture@@$1?DIID__IOPOSVideoCaptureEvents@@3U_GUID@@BVCComDynamicUnkArray@ATL@@@ATL@@UEAAJPEAUIUnknown@@PEAK@Z 0000000180003770 f i VideoCapture.obj
 0001:0000282c       ?Unadvise@?$IConnectionPointImpl@VCOPOSVideoCapture@@$1?DIID__IOPOSVideoCaptureEvents@@3U_GUID@@BVCComDynamicUnkArray@ATL@@@ATL@@UEAAJK@Z 000000018000382c f i VideoCapture.obj
 0001:0000282c       ?Unadvise@?$IConnectionPointImpl@VCOPOSVideoCapture@@$1?IID_IPropertyNotifySink@@3U_GUID@@BVCComDynamicUnkArray@ATL@@@ATL@@UEAAJK@Z 000000018000382c f i VideoCapture.obj
 0001:00002894       ?EnumConnections@?$IConnectionPointImpl@VCOPOSVideoCapture@@$1?IID_IPropertyNotifySink@@3U_GUID@@BVCComDynamicUnkArray@ATL@@@ATL@@UEAAJPEAPEAUIEnumConnections@@@Z 0000000180003894 f i VideoCapture.obj
 0001:00002894       ?EnumConnections@?$IConnectionPointImpl@VCOPOSVideoCapture@@$1?DIID__IOPOSVideoCaptureEvents@@3U_GUID@@BVCComDynamicUnkArray@ATL@@@ATL@@UEAAJPEAPEAUIEnumConnections@@@Z 0000000180003894 f i VideoCapture.obj
 0001:00002a28       ?Lock@CAtlModule@ATL@@UEAAJXZ 0000000180003a28 f i VideoCapture.obj
 0001:00002a38       ?Unlock@CAtlModule@ATL@@UEAAJXZ 0000000180003a38 f i VideoCapture.obj
 0001:00002a44       ?GetLockCount@CAtlModule@ATL@@UEAAJXZ 0000000180003a44 f i VideoCapture.obj
 0001:00002a48       ?GetGITPtr@CAtlModule@ATL@@UEAAJPEAPEAUIGlobalInterfaceTable@@@Z 0000000180003a48 f i VideoCapture.obj
 0001:00002ab8       ?GetConnectionInterface@?$IConnectionPointImpl@VCOPOSVideoCapture@@$1?DIID__IOPOSVideoCaptureEvents@@3U_GUID@@BVCComDynamicUnkArray@ATL@@@ATL@@UEAAJPEAU_GUID@@@Z 0000000180003ab8 f i VideoCapture.obj
 0001:00002ad4       ?GetConnectionPointContainer@?$IConnectionPointImpl@VCOPOSVideoCapture@@$1?DIID__IOPOSVideoCaptureEvents@@3U_GUID@@BVCComDynamicUnkArray@ATL@@@ATL@@UEAAJPEAPEAUIConnectionPointContainer@@@Z 0000000180003ad4 f i VideoCapture.obj
 0001:00002af4       ?UpdateRegistry@COPOSVideoCapture@@SAJH@Z 0000000180003af4 f i VideoCapture.obj
 0001:00002b0c       ?ProcessWindowMessage@COPOSVideoCapture@@UEAAHPEAUHWND__@@I_K_JAEA_JK@Z 0000000180003b0c f i VideoCapture.obj
 0001:00002b9c       ?SODirectIO@COPOSVideoCapture@@MEAAJJPEAJPEAPEA_W@Z 0000000180003b9c f i VideoCapture.obj
 0001:00002c14       ?SOError@COPOSVideoCapture@@MEAAJJJJPEAJ@Z 0000000180003c14 f i VideoCapture.obj
 0001:00002c9c       ?SOStatusUpdate@COPOSVideoCapture@@MEAAJJ@Z 0000000180003c9c f i VideoCapture.obj
 0001:00002cec       ?AddCommonRGSReplacements@?$CAtlModuleT@VCComModule@ATL@@@ATL@@UEAAJPEAUIRegistrarBase@@@Z 0000000180003cec f i VideoCapture.obj
 0001:00002d04       ?UpdateRegistryFromResourceD@CComModule@ATL@@UEAAJIHPEAU_ATL_REGMAP_ENTRY@2@@Z 0000000180003d04 f i VideoCapture.obj
 0001:00002d04       ?UpdateRegistryFromResourceD@CComModule@ATL@@UEAAJPEB_WHPEAU_ATL_REGMAP_ENTRY@2@@Z 0000000180003d04 f i VideoCapture.obj
 0001:00002d0c       ?UpdateRegistryFromResource@CComModule@ATL@@UEAAJPEB_WHPEAU_ATL_REGMAP_ENTRY@2@@Z 0000000180003d0c f i VideoCapture.obj
 0001:00002d14       ?UpdateRegistryFromResource@CComModule@ATL@@UEAAJIHPEAU_ATL_REGMAP_ENTRY@2@@Z 0000000180003d14 f i VideoCapture.obj
 0001:00002d1c       ??_GCComModule@ATL@@UEAAPEAXI@Z 0000000180003d1c f i VideoCapture.obj
 0001:00002d1c       ??_ECComModule@ATL@@UEAAPEAXI@Z 0000000180003d1c f i VideoCapture.obj
 0001:00002d5c       ?CreateInstance@?$CComCreator@V?$CComObjectCached@VCComClassFactory@ATL@@@ATL@@@ATL@@SAJPEAXAEBU_GUID@@PEAPEAX@Z 0000000180003d5c f i VideoCapture.obj
 0001:00002e80       ?CreateInstance@?$CComCreator2@V?$CComCreator@V?$CComObject@VCOPOSVideoCapture@@@ATL@@@ATL@@V?$CComCreator@V?$CComAggObject@VCOPOSVideoCapture@@@ATL@@@2@@ATL@@SAJPEAXAEBU_GUID@@PEAPEAX@Z 0000000180003e80 f i VideoCapture.obj
 0001:00002e90       ?AddRef@?$CComObjectCached@VCComClassFactory@ATL@@@ATL@@UEAAKXZ 0000000180003e90 f i VideoCapture.obj
 0001:00002ebc       ?Release@?$CComObjectCached@VCComClassFactory@ATL@@@ATL@@UEAAKXZ 0000000180003ebc f i VideoCapture.obj
 0001:00002efc       ?QueryInterface@?$CComObjectCached@VCComClassFactory@ATL@@@ATL@@UEAAJAEBU_GUID@@PEAPEAX@Z 0000000180003efc f i VideoCapture.obj
 0001:00002f10       ??_E?$CComObjectCached@VCComClassFactory@ATL@@@ATL@@UEAAPEAXI@Z 0000000180003f10 f i VideoCapture.obj
 0001:00002f10       ??_G?$CComObjectCached@VCComClassFactory@ATL@@@ATL@@UEAAPEAXI@Z 0000000180003f10 f i VideoCapture.obj
 0001:00002f68       ?Next@?$CComEnumImpl@UIEnumConnectionPoints@@$1?_GUID_b196b285_bab4_101a_b69c_00aa00341d07@@3U__s_GUID@@BPEAUIConnectionPoint@@V?$_CopyInterface@UIConnectionPoint@@@ATL@@@ATL@@UEAAJKPEAPEAUIConnectionPoint@@PEAK@Z 0000000180003f68 f i VideoCapture.obj
 0001:0000302c       ?Skip@?$CComEnumImpl@UIEnumConnectionPoints@@$1?_GUID_b196b285_bab4_101a_b69c_00aa00341d07@@3U__s_GUID@@BPEAUIConnectionPoint@@V?$_CopyInterface@UIConnectionPoint@@@ATL@@@ATL@@UEAAJK@Z 000000018000402c f i VideoCapture.obj
 0001:00003058       ?Clone@?$CComEnumImpl@UIEnumConnectionPoints@@$1?_GUID_b196b285_bab4_101a_b69c_00aa00341d07@@3U__s_GUID@@BPEAUIConnectionPoint@@V?$_CopyInterface@UIConnectionPoint@@@ATL@@@ATL@@UEAAJPEAPEAUIEnumConnectionPoints@@@Z 0000000180004058 f i VideoCapture.obj
 0001:00003184       ?QueryInterface@?$CComObject@V?$CComEnum@UIEnumConnectionPoints@@$1?_GUID_b196b285_bab4_101a_b69c_00aa00341d07@@3U__s_GUID@@BPEAUIConnectionPoint@@V?$_CopyInterface@UIConnectionPoint@@@ATL@@VCComSingleThreadModel@6@@ATL@@@ATL@@UEAAJAEBU_GUID@@PEAPEAX@Z 0000000180004184 f i VideoCapture.obj
 0001:00003198       ??_G?$CComObject@V?$CComEnum@UIEnumConnectionPoints@@$1?_GUID_b196b285_bab4_101a_b69c_00aa00341d07@@3U__s_GUID@@BPEAUIConnectionPoint@@V?$_CopyInterface@UIConnectionPoint@@@ATL@@VCComSingleThreadModel@6@@ATL@@@ATL@@UEAAPEAXI@Z 0000000180004198 f i VideoCapture.obj
 0001:00003198       ??_E?$CComObject@V?$CComEnum@UIEnumConnectionPoints@@$1?_GUID_b196b285_bab4_101a_b69c_00aa00341d07@@3U__s_GUID@@BPEAUIConnectionPoint@@V?$_CopyInterface@UIConnectionPoint@@@ATL@@VCComSingleThreadModel@6@@ATL@@@ATL@@UEAAPEAXI@Z 0000000180004198 f i VideoCapture.obj
 0001:000031f0       ?AddReplacement@CRegObject@ATL@@UEAAJPEB_W0@Z 00000001800041f0 f i VideoCapture.obj
 0001:00003220       ?ClearReplacements@CRegObject@ATL@@UEAAJXZ 0000000180004220 f i VideoCapture.obj
 0001:0000322c       ??_ECRegObject@ATL@@UEAAPEAXI@Z 000000018000422c f i VideoCapture.obj
 0001:0000322c       ??_GCRegObject@ATL@@UEAAPEAXI@Z 000000018000422c f i VideoCapture.obj
 0001:000032ac       ?AddRef@?$CComAggObject@VCOPOSVideoCapture@@@ATL@@UEAAKXZ 00000001800042ac f i VideoCapture.obj
 0001:000032b8       ?Release@?$CComAggObject@VCOPOSVideoCapture@@@ATL@@UEAAKXZ 00000001800042b8 f i VideoCapture.obj
 0001:0000330c       ?QueryInterface@?$CComAggObject@VCOPOSVideoCapture@@@ATL@@UEAAJAEBU_GUID@@PEAPEAX@Z 000000018000430c f i VideoCapture.obj
 0001:0000336c       ?AddRef@?$CComContainedObject@VCOPOSVideoCapture@@@ATL@@UEAAKXZ 000000018000436c f i VideoCapture.obj
 0001:0000337c       ?Release@?$CComContainedObject@VCOPOSVideoCapture@@@ATL@@UEAAKXZ 000000018000437c f i VideoCapture.obj
 0001:0000338c       ?QueryInterface@?$CComContainedObject@VCOPOSVideoCapture@@@ATL@@UEAAJAEBU_GUID@@PEAPEAX@Z 000000018000438c f i VideoCapture.obj
 0001:0000339c       ??_G?$CComAggObject@VCOPOSVideoCapture@@@ATL@@UEAAPEAXI@Z 000000018000439c f i VideoCapture.obj
 0001:0000339c       ??_E?$CComAggObject@VCOPOSVideoCapture@@@ATL@@UEAAPEAXI@Z 000000018000439c f i VideoCapture.obj
 0001:000033f4       ?AddRef@?$CComObject@VCOPOSVideoCapture@@@ATL@@UEAAKXZ 00000001800043f4 f i VideoCapture.obj
 0001:00003404       ?Release@?$CComObject@VCOPOSVideoCapture@@@ATL@@UEAAKXZ 0000000180004404 f i VideoCapture.obj
 0001:0000345c       ?QueryInterface@?$CComObject@VCOPOSVideoCapture@@@ATL@@UEAAJAEBU_GUID@@PEAPEAX@Z 000000018000445c f i VideoCapture.obj
 0001:00003470       ?OnDrawAdvanced@CComControlBase@ATL@@UEAAJAEAUATL_DRAWINFO@@@Z 0000000180004470 f i VideoCapture.obj
 0001:000035fc       ??$AtlModuleRegisterWndClassInfoT@VAtlModuleRegisterWndClassInfoParamW@ATL@@@ATL@@YAGPEAU_ATL_BASE_MODULE70@0@PEAU_ATL_WIN_MODULE70@0@PEAU_ATL_WNDCLASSINFOW@0@PEAP6A_JPEAUHWND__@@I_K_J@ZVAtlModuleRegisterWndClassInfoParamW@0@@Z 00000001800045fc f i VideoCapture.obj
 0001:000037fc       ??0?$CComContainedObject@VCOPOSVideoCapture@@@ATL@@QEAA@PEAX@Z 00000001800047fc f i VideoCapture.obj
 0001:00003918       ??0?$CComObject@VCOPOSVideoCapture@@@ATL@@QEAA@PEAX@Z 0000000180004918 f i VideoCapture.obj
 0001:00003a30       ??0CAtlModule@ATL@@QEAA@XZ 0000000180004a30 f i VideoCapture.obj
 0001:00003aa4       ??1?$CComEnumImpl@UIEnumConnectionPoints@@$1?_GUID_b196b285_bab4_101a_b69c_00aa00341d07@@3U__s_GUID@@BPEAUIConnectionPoint@@V?$_CopyInterface@UIConnectionPoint@@@ATL@@@ATL@@UEAA@XZ 0000000180004aa4 f i VideoCapture.obj
 0001:00003afc       ??1?$CComEnumImpl@UIEnumConnections@@$1?_GUID_b196b287_bab4_101a_b69c_00aa00341d07@@3U__s_GUID@@BUtagCONNECTDATA@@V?$_Copy@UtagCONNECTDATA@@@ATL@@@ATL@@UEAA@XZ 0000000180004afc f i VideoCapture.obj
 0001:00003b54       ??1?$CComObject@VCOPOSVideoCapture@@@ATL@@UEAA@XZ 0000000180004b54 f i VideoCapture.obj
 0001:00003c74       ??_E?$CComContainedObject@VCOPOSVideoCapture@@@ATL@@UEAAPEAXI@Z 0000000180004c74 f i VideoCapture.obj
 0001:00003c74       ??_G?$CComContainedObject@VCOPOSVideoCapture@@@ATL@@UEAAPEAXI@Z 0000000180004c74 f i VideoCapture.obj
 0001:00003ca8       ??_E?$CComObject@VCOPOSVideoCapture@@@ATL@@UEAAPEAXI@Z 0000000180004ca8 f i VideoCapture.obj
 0001:00003ca8       ??_G?$CComObject@VCOPOSVideoCapture@@@ATL@@UEAAPEAXI@Z 0000000180004ca8 f i VideoCapture.obj
 0001:00003cdc       ?Add@?$CSimpleArray@GV?$CSimpleArrayEqualHelper@G@ATL@@@ATL@@QEAAHAEBG@Z 0000000180004cdc f i VideoCapture.obj
 0001:00003d7c       ?Add@?$CSimpleMap@PEA_WPEA_WVCExpansionVectorEqualHelper@ATL@@@ATL@@QEAAHAEBQEA_W0@Z 0000000180004d7c f i VideoCapture.obj
 0001:00003e18       ?Add@CComDynamicUnkArray@ATL@@QEAAKPEAUIUnknown@@@Z 0000000180004e18 f i VideoCapture.obj
 0001:00003efc       ?Add@CExpansionVector@ATL@@QEAAHPEB_W0@Z 0000000180004efc f i VideoCapture.obj
 0001:00004030       ?AddTermFunc@CAtlModule@ATL@@QEAAJP6AX_K@Z0@Z 0000000180005030 f i VideoCapture.obj
 0001:000040cc       ?AddValue@CRegParser@ATL@@IEAAJAEAVCRegKey@2@PEB_WPEA_W@Z 00000001800050cc f i VideoCapture.obj
 0001:000044dc       ?AllocateHeap@?$CTempBuffer@_W$0BAA@VCCRTAllocator@ATL@@@ATL@@AEAAX_K@Z 00000001800054dc f i VideoCapture.obj
 0001:000044dc       ?AllocateHeap@?$CTempBuffer@E$0BAA@VCCRTAllocator@ATL@@@ATL@@AEAAX_K@Z 00000001800054dc f i VideoCapture.obj
 0001:000044dc       ?AllocateHeap@?$CTempBuffer@_W$0EAA@VCCRTAllocator@ATL@@@ATL@@AEAAX_K@Z 00000001800054dc f i VideoCapture.obj
 0001:00004508       ?Append@CParseBuffer@CRegParser@ATL@@QEAAHPEB_WH@Z 0000000180005508 f i VideoCapture.obj
 0001:0000463c       ?AtlComModuleGetClassObject@ATL@@YAJPEAU_ATL_COM_MODULE70@1@AEBU_GUID@@1PEAPEAX@Z 000000018000563c f i VideoCapture.obj
 0001:00004778       ?AtlComModuleRegisterServer@ATL@@YAJPEAU_ATL_COM_MODULE70@1@HPEBU_GUID@@@Z 0000000180005778 f i VideoCapture.obj
 0001:00004838       ?AtlComModuleUnregisterServer@ATL@@YAJPEAU_ATL_COM_MODULE70@1@HPEBU_GUID@@@Z 0000000180005838 f i VideoCapture.obj
 0001:000048f4       ?AtlHiMetricToPixel@ATL@@YAXPEBUtagSIZE@@PEAU2@@Z 00000001800058f4 f i VideoCapture.obj
 0001:000049a4       ?AtlHresultFromLastError@ATL@@YAJXZ 00000001800059a4 f i VideoCapture.obj
 0001:000049c4       ?AtlHresultFromWin32@ATL@@YAJK@Z 00000001800059c4 f i VideoCapture.obj
 0001:000049d4       ?AtlInternalOleLoadFromStream@ATL@@YAJPEAUIStream@@AEBU_GUID@@PEAPEAXTClassesAllowedInStream@1@K@Z 00000001800059d4 f i VideoCapture.obj
 0001:00004b24       ?AtlInternalQueryInterface@ATL@@YAJPEAXPEBU_ATL_INTMAP_ENTRY@1@AEBU_GUID@@PEAPEAX@Z 0000000180005b24 f i VideoCapture.obj
 0001:00004c2c       ?AtlLoadTypeLib@ATL@@YAJPEAUHINSTANCE__@@PEB_WPEAPEA_WPEAPEAUITypeLib@@@Z 0000000180005c2c f i VideoCapture.obj
 0001:00004e88       ?AtlRegisterClassCategoriesHelper@ATL@@YAJAEBU_GUID@@PEBU_ATL_CATMAP_ENTRY@1@H@Z 0000000180005e88 f i VideoCapture.obj
 0001:0000530c       ?AtlRegisterTypeLib@ATL@@YAJPEAUHINSTANCE__@@PEB_W@Z 000000018000630c f i VideoCapture.obj
 0001:00005508       ?AtlThrowImpl@ATL@@YAXJ@Z  0000000180006508 f i VideoCapture.obj
 0001:0000552c       ?AtlUnRegisterTypeLib@ATL@@YAJPEAUHINSTANCE__@@PEB_W@Z 000000018000652c f i VideoCapture.obj
 0001:000055f4       ?AtlWinModuleExtractCreateWndData@ATL@@YAPEAXPEAU_ATL_WIN_MODULE70@1@@Z 00000001800065f4 f i VideoCapture.obj
 0001:00005680       ?ChToByte@CRegParser@ATL@@KAE_W@Z 0000000180006680 f i VideoCapture.obj
 0001:0000570c       ?Cleanup@CComTypeInfoHolder@ATL@@SAX_K@Z 000000018000670c f i VideoCapture.obj
 0001:0000574c       ?ClearReplacements@CExpansionVector@ATL@@QEAAJXZ 000000018000674c f i VideoCapture.obj
 0001:000057e8       ?CreateInstance@?$CComCreator@V?$CComAggObject@VCOPOSVideoCapture@@@ATL@@@ATL@@SAJPEAXAEBU_GUID@@PEAPEAX@Z 00000001800067e8 f i VideoCapture.obj
 0001:000058cc       ?CreateInstance@?$CComCreator@V?$CComObject@VCOPOSVideoCapture@@@ATL@@@ATL@@SAJPEAXAEBU_GUID@@PEAPEAX@Z 00000001800068cc f i VideoCapture.obj
 0001:0000598c       ?CreateInstance@?$CComObject@V?$CComEnum@UIEnumConnectionPoints@@$1?_GUID_b196b285_bab4_101a_b69c_00aa00341d07@@3U__s_GUID@@BPEAUIConnectionPoint@@V?$_CopyInterface@UIConnectionPoint@@@ATL@@VCComSingleThreadModel@6@@ATL@@@ATL@@SAJPEAPEAV12@@Z 000000018000698c f i VideoCapture.obj
 0001:00005a1c       ?CreateInstance@?$CComObject@V?$CComEnum@UIEnumConnections@@$1?_GUID_b196b287_bab4_101a_b69c_00aa00341d07@@3U__s_GUID@@BUtagCONNECTDATA@@V?$_Copy@UtagCONNECTDATA@@@ATL@@VCComSingleThreadModel@6@@ATL@@@ATL@@SAJPEAPEAV12@@Z 0000000180006a1c f i VideoCapture.obj
 0001:00005aac       ?DefaultReflectionHandler@?$CWindowImplRoot@VCWindow@ATL@@@ATL@@SAHPEAUHWND__@@I_K_JAEA_J@Z 0000000180006aac f i VideoCapture.obj
 0001:00005b40       ?DeleteSubKey@CRegKey@ATL@@QEAAJPEB_W@Z 0000000180006b40 f i VideoCapture.obj
 0001:00005bd8       ?DoEvent@COPOSVideoCapture@@IEAAXI_K_J@Z 0000000180006bd8 f i VideoCapture.obj
 0001:00005c8c       ?DoVerbPrimary@?$IOleObjectImpl@VCOPOSVideoCapture@@@ATL@@QEAAJPEBUtagRECT@@PEAUHWND__@@@Z 0000000180006c8c f i VideoCapture.obj
 0001:00005db8       ?DoVerbProperties@CComControlBase@ATL@@QEAAJPEBUtagRECT@@PEAUHWND__@@@Z 0000000180006db8 f i VideoCapture.obj
 0001:00005fe0       ?FireTheEvent@?$CProxy_IOPOSEvents@VCOPOSVideoCapture@@@@IEAAXPEAVOposVariant@@IAEAJPEB_WJ@Z 0000000180006fe0 f i VideoCapture.obj
 0001:000060cc       ?FireViewChange@CComControlBase@ATL@@QEAAJXZ 00000001800070cc f i VideoCapture.obj
 0001:00006130       ?Fire_DirectIOEvent@?$CProxy_IOPOSEvents@VCOPOSVideoCapture@@@@QEAAXJPEAJPEAPEA_W@Z 0000000180007130 f i VideoCapture.obj
 0001:00006290       ?Fire_ErrorEvent@?$CProxy_IOPOSEvents@VCOPOSVideoCapture@@@@QEAAXJJJPEAJ@Z 0000000180007290 f i VideoCapture.obj
 0001:00006404       ?Fire_StatusUpdateEvent@?$CProxy_IOPOSEvents@VCOPOSVideoCapture@@@@QEAAXJ@Z 0000000180007404 f i VideoCapture.obj
 0001:000064f0       ?FreeHeap@?$CTempBuffer@_W$0EAA@VCCRTAllocator@ATL@@@ATL@@AEAAXXZ 00000001800074f0 f i VideoCapture.obj
 0001:000064f0       ?FreeHeap@?$CTempBuffer@E$0BAA@VCCRTAllocator@ATL@@@ATL@@AEAAXXZ 00000001800074f0 f i VideoCapture.obj
 0001:000064f0       ?FreeHeap@?$CTempBuffer@_W$0BAA@VCCRTAllocator@ATL@@@ATL@@AEAAXXZ 00000001800074f0 f i VideoCapture.obj
 0001:000064f8       ?GetAmbientLocaleID@CComControlBase@ATL@@QEAAJAEAK@Z 00000001800074f8 f i VideoCapture.obj
 0001:000065b8       ?GetAmbientUserMode@CComControlBase@ATL@@QEAAJAEAH@Z 00000001800075b8 f i VideoCapture.obj
 0001:00006688       ?GetClassObject@CComModule@ATL@@QEAAJAEBU_GUID@@0PEAPEAX@Z 0000000180007688 f i VideoCapture.obj
 0001:0000677c       ?GetConnMap@COPOSVideoCapture@@SAPEBU_ATL_CONNMAP_ENTRY@ATL@@PEAH@Z 000000018000777c f i VideoCapture.obj
 0001:00006804       ?GetIDsOfNames@CComTypeInfoHolder@ATL@@QEAAJAEBU_GUID@@PEAPEA_WIKPEAJ@Z 0000000180007804 f i VideoCapture.obj
 0001:00006974       ?GetPagesHelper@?$ISpecifyPropertyPagesImpl@VCOPOSVideoCapture@@@ATL@@IEAAJPEAUtagCAUUID@@PEBUATL_PROPMAP_ENTRY@2@@Z 0000000180007974 f i VideoCapture.obj
 0001:00006b14       ?GetSizeMax@CComVariant@ATL@@QEBAJPEAT_ULARGE_INTEGER@@@Z 0000000180007b14 f i VideoCapture.obj
 0001:00006d44       ?GetTI@CComTypeInfoHolder@ATL@@QEAAJK@Z 0000000180007d44 f i VideoCapture.obj
 0001:00007028       ?GetZoomInfo@CComControlBase@ATL@@QEAAXAEAUATL_DRAWINFO@@@Z 0000000180008028 f i VideoCapture.obj
 0001:000070cc       ?HKeyFromString@CRegParser@ATL@@KAPEAUHKEY__@@PEA_W@Z 00000001800080cc f i VideoCapture.obj
 0001:00007130       ?IDataObject_GetData@CComControlBase@ATL@@QEAAJPEAUtagFORMATETC@@PEAUtagSTGMEDIUM@@@Z 0000000180008130 f i VideoCapture.obj
 0001:00007324       ?IOleInPlaceObject_InPlaceDeactivate@CComControlBase@ATL@@QEAAJXZ 0000000180008324 f i VideoCapture.obj
 0001:000073c4       ?IOleInPlaceObject_SetObjectRects@CComControlBase@ATL@@QEAAJPEBUtagRECT@@0@Z 00000001800083c4 f i VideoCapture.obj
 0001:000074b4       ?IOleInPlaceObject_UIDeactivate@CComControlBase@ATL@@QEAAJXZ 00000001800084b4 f i VideoCapture.obj
 0001:000075c0       ?IOleObject_Close@CComControlBase@ATL@@QEAAJK@Z 00000001800085c0 f i VideoCapture.obj
 0001:000076d8       ?IOleObject_SetClientSite@CComControlBase@ATL@@QEAAJPEAUIOleClientSite@@@Z 00000001800086d8 f i VideoCapture.obj
 0001:0000774c       ?IOleObject_SetExtent@CComControlBase@ATL@@QEAAJKPEAUtagSIZE@@@Z 000000018000874c f i VideoCapture.obj
 0001:000077e4       ?IPSI_GetIPersistStreamInit@?$IPersistStorageImpl@VCOPOSVideoCapture@@@ATL@@AEAAPEAUIPersistStreamInit@@XZ 00000001800087e4 f i VideoCapture.obj
 0001:000078cc       ?IPersistStreamInit_Load@?$IPersistStreamInitImpl@VCOPOSVideoCapture@@@ATL@@QEAAJPEAUIStream@@PEBUATL_PROPMAP_ENTRY@2@@Z 00000001800088cc f i VideoCapture.obj
 0001:00007bf4       ?IPersistStreamInit_Save@?$IPersistStreamInitImpl@VCOPOSVideoCapture@@@ATL@@QEAAJPEAUIStream@@HPEBUATL_PROPMAP_ENTRY@2@@Z 0000000180008bf4 f i VideoCapture.obj
 0001:00007e90       ?IQuickActivate_QuickActivate@CComControlBase@ATL@@QEAAJPEAUtagQACONTAINER@@PEAUtagQACONTROL@@@Z 0000000180008e90 f i VideoCapture.obj
 0001:00008154       ?IViewObject_Draw@CComControlBase@ATL@@QEAAJKJPEAXPEAUtagDVTARGETDEVICE@@PEAUHDC__@@2PEBU_RECTL@@3@Z 0000000180009154 f i VideoCapture.obj
 0001:00008268       ?InPlaceActivate@CComControlBase@ATL@@QEAAJJPEBUtagRECT@@@Z 0000000180009268 f i VideoCapture.obj
 0001:00008598       ?Init@?$CComEnumImpl@UIEnumConnectionPoints@@$1?_GUID_b196b285_bab4_101a_b69c_00aa00341d07@@3U__s_GUID@@BPEAUIConnectionPoint@@V?$_CopyInterface@UIConnectionPoint@@@ATL@@@ATL@@QEAAJPEAPEAUIConnectionPoint@@0PEAUIUnknown@@W4CComEnumFlags@2@@Z 0000000180009598 f i VideoCapture.obj
 0001:000086b4       ?Init@?$CComEnumImpl@UIEnumConnections@@$1?_GUID_b196b287_bab4_101a_b69c_00aa00341d07@@3U__s_GUID@@BUtagCONNECTDATA@@V?$_Copy@UtagCONNECTDATA@@@ATL@@@ATL@@QEAAJPEAUtagCONNECTDATA@@0PEAUIUnknown@@W4CComEnumFlags@2@@Z 00000001800096b4 f i VideoCapture.obj
 0001:000087d4       ?IsEqualObject@?$CComPtrBase@UIOleClientSite@@@ATL@@QEAA_NPEAUIUnknown@@@Z 00000001800097d4 f i VideoCapture.obj
 0001:00008860       ?LoadNameCache@CComTypeInfoHolder@ATL@@QEAAJPEAUITypeInfo@@@Z 0000000180009860 f i VideoCapture.obj
 0001:000089f0       ?Lookup@?$CSimpleMap@PEA_WPEA_WVCExpansionVectorEqualHelper@ATL@@@ATL@@QEBAPEA_WAEBQEA_W@Z 00000001800099f0 f i VideoCapture.obj
 0001:00008a78       ?NextToken@CRegParser@ATL@@IEAAJPEA_W@Z 0000000180009a78 f i VideoCapture.obj
 0001:00008c14       ?OnKillFocus@CComControlBase@ATL@@QEAA_JI_K_JAEAH@Z 0000000180009c14 f i VideoCapture.obj
 0001:00008cb0       ?OnMouseActivate@CComControlBase@ATL@@QEAA_JI_K_JAEAH@Z 0000000180009cb0 f i VideoCapture.obj
 0001:00008d50       ?OnPaint@CComControlBase@ATL@@QEAA_JI_K_JAEAH@Z 0000000180009d50 f i VideoCapture.obj
 0001:00008e3c       ?OnSetFocus@CComControlBase@ATL@@QEAA_JI_K_JAEAH@Z 0000000180009e3c f i VideoCapture.obj
 0001:00008f44       ?PreProcessBuffer@CRegParser@ATL@@QEAAJPEA_WPEAPEA_W@Z 0000000180009f44 f i VideoCapture.obj
 0001:000092cc       ?ProcessWindowMessage@?$CComControl@VCOPOSVideoCapture@@V?$CWindowImpl@VCOPOSVideoCapture@@VCWindow@ATL@@V?$CWinTraits@$0FGAAAAAA@$0A@@3@@ATL@@@ATL@@UEAAHPEAUHWND__@@I_K_JAEA_JK@Z 000000018000a2cc f i VideoCapture.obj
 0001:000093b8       ?ReadFromStream@CComBSTR@ATL@@QEAAJPEAUIStream@@@Z 000000018000a3b8 f i VideoCapture.obj
 0001:00009508       ?ReadFromStream@CComVariant@ATL@@QEAAJPEAUIStream@@GTClassesAllowedInStream@2@K@Z 000000018000a508 f i VideoCapture.obj
 0001:0000974c       ?RecurseDeleteKey@CRegKey@ATL@@QEAAJPEB_W@Z 000000018000a74c f i VideoCapture.obj
 0001:000098a4       ?RegCreateKeyExW@CAtlTransactionManager@ATL@@QEAAJPEAUHKEY__@@PEB_WKPEA_WKKQEAU_SECURITY_ATTRIBUTES@@PEAPEAU3@PEAK@Z 000000018000a8a4 f i VideoCapture.obj
 0001:000099d8       ?RegDeleteKeyW@CAtlTransactionManager@ATL@@QEAAJPEAUHKEY__@@PEB_W@Z 000000018000a9d8 f i VideoCapture.obj
 0001:00009a64       ?RegOpenKeyExW@CAtlTransactionManager@ATL@@QEAAJPEAUHKEY__@@PEB_WKKPEAPEAU3@@Z 000000018000aa64 f i VideoCapture.obj
 0001:00009b1c       ?RegisterBuffer@CRegParser@ATL@@QEAAJPEA_WH@Z 000000018000ab1c f i VideoCapture.obj
 0001:00009c88       ?RegisterFromResource@CRegObject@ATL@@IEAAJPEB_W00H@Z 000000018000ac88 f i VideoCapture.obj
 0001:00009e44       ?RegisterServer@CComModule@ATL@@QEAAJHPEBU_GUID@@@Z 000000018000ae44 f i VideoCapture.obj
 0001:00009f00       ?RegisterSubkeys@CRegParser@ATL@@IEAAJPEA_WPEAUHKEY__@@HH@Z 000000018000af00 f i VideoCapture.obj
 0001:0000a780       ?SendOnDataChange@CComControlBase@ATL@@QEAAJK@Z 000000018000b780 f i VideoCapture.obj
 0001:0000a7f0       ?SetControlFocus@CComControlBase@ATL@@QEAAHH@Z 000000018000b7f0 f i VideoCapture.obj
 0001:0000a8c0       ?SkipAssignment@CRegParser@ATL@@IEAAJPEA_W@Z 000000018000b8c0 f i VideoCapture.obj
 0001:0000a978       ?Term@CAtlModule@ATL@@QEAAXXZ 000000018000b978 f i VideoCapture.obj
 0001:0000aa30       ?Term@CComModule@ATL@@QEAAXXZ 000000018000ba30 f i VideoCapture.obj
 0001:0000aaac       ?UnregisterServer@CComModule@ATL@@QEAAJHPEBU_GUID@@@Z 000000018000baac f i VideoCapture.obj
 0001:0000ab5c       ?UpdateRegistryFromResource@CAtlModule@ATL@@QEAAJIHPEAU_ATL_REGMAP_ENTRY@2@@Z 000000018000bb5c f i VideoCapture.obj
 0001:0000ae68       ?UpdateRegistryFromResource@CAtlModule@ATL@@QEAAJPEB_WHPEAU_ATL_REGMAP_ENTRY@2@@Z 000000018000be68 f i VideoCapture.obj
 0001:0000b18c       ?VTFromRegType@CRegParser@ATL@@KAHPEB_WAEAG@Z 000000018000c18c f i VideoCapture.obj
 0001:0000b228       ?WindowProc@?$CWindowImplBaseT@VCWindow@ATL@@V?$CWinTraits@$0FGAAAAAA@$0A@@2@@ATL@@SA_JPEAUHWND__@@I_K_J@Z 000000018000c228 f i VideoCapture.obj
 0001:0000b394       ?WriteToStream@CComVariant@ATL@@QEAAJPEAUIStream@@@Z 000000018000c394 f i VideoCapture.obj
 0001:0000b600       ?WriteToStream@CComVariant@ATL@@QEAAJPEAUIStream@@G@Z 000000018000c600 f i VideoCapture.obj
 0001:0000b698       ?_AtlVerifyStackAvailable@_ATL_SAFE_ALLOCA_IMPL@ATL@@YA_N_K@Z 000000018000c698 f i VideoCapture.obj
 0001:0000b71c       ?atlCreate@?$CWindowImpl@VCOPOSVideoCapture@@VCWindow@ATL@@V?$CWinTraits@$0FGAAAAAA@$0A@@3@@ATL@@QEAAPEAUHWND__@@PEAU3@V_U_RECT@2@PEB_WKKV_U_MENUorID@2@PEAX@Z 000000018000c71c f i VideoCapture.obj
 0001:0000b7d8       ?atlCreate@?$CWindowImplBaseT@VCWindow@ATL@@V?$CWinTraits@$0FGAAAAAA@$0A@@2@@ATL@@QEAAPEAUHWND__@@PEAU3@V_U_RECT@2@PEB_WKKV_U_MENUorID@2@GPEAX@Z 000000018000c7d8 f i VideoCapture.obj
 0001:0000b948       ?ocscpy_s@@YA_NPEA_W_KPEB_W@Z 000000018000c948 f i VideoCapture.obj
 0001:0000b9f8       DllCanUnloadNow            000000018000c9f8 f   VideoCapture.obj
 0001:0000ba04       DllGetClassObject          000000018000ca04 f   VideoCapture.obj
 0001:0000ba1c       DllMain                    000000018000ca1c f   VideoCapture.obj
 0001:0000bac4       DllRegisterServer          000000018000cac4 f   VideoCapture.obj
 0001:0000bad8       DllUnregisterServer        000000018000cad8 f   VideoCapture.obj
 0001:0000baec       __local_stdio_printf_options 000000018000caec f i VideoCapture.obj
 0001:0000baf4       swprintf_s                 000000018000caf4 f i VideoCapture.obj
 0001:0000bb48       ??0COPOSVideoCapture@@QEAA@XZ 000000018000cb48 f   VideoCaptureImpl.obj
 0001:0000bc18       ??1?$IConnectionPointImpl@VCOPOSVideoCapture@@$1?DIID__IOPOSVideoCaptureEvents@@3U_GUID@@BVCComDynamicUnkArray@ATL@@@ATL@@QEAA@XZ 000000018000cc18 f i VideoCaptureImpl.obj
 0001:0000bc18       ??1?$IConnectionPointImpl@VCOPOSVideoCapture@@$1?IID_IPropertyNotifySink@@3U_GUID@@BVCComDynamicUnkArray@ATL@@@ATL@@QEAA@XZ 000000018000cc18 f i VideoCaptureImpl.obj
 0001:0000bc74       ??1CComControlBase@ATL@@UEAA@XZ 000000018000cc74 f i VideoCaptureImpl.obj
 0001:0000bcf0       ??1COPOSVideoCapture@@UEAA@XZ 000000018000ccf0 f   VideoCaptureImpl.obj
 0001:0000bd54       ?CheckHealth@COPOSVideoCapture@@UEAAJJPEAJ@Z 000000018000cd54 f   VideoCaptureImpl.obj
 0001:0000bdd0       ?ClaimDevice@COPOSVideoCapture@@UEAAJJPEAJ@Z 000000018000cdd0 f   VideoCaptureImpl.obj
 0001:0000be70       ?ClearInput@COPOSVideoCapture@@UEAAJPEAJ@Z 000000018000ce70 f   VideoCaptureImpl.obj
 0001:0000be98       ?Close@COPOSVideoCapture@@UEAAJPEAJ@Z 000000018000ce98 f   VideoCaptureImpl.obj
 0001:0000bf50       ?CompareFirmwareVersion@COPOSVideoCapture@@UEAAJPEA_WPEAJ1@Z 000000018000cf50 f   VideoCaptureImpl.obj
 0001:0000c02c       ?DirectIO@COPOSVideoCapture@@UEAAJJPEAJPEAPEA_W0@Z 000000018000d02c f   VideoCaptureImpl.obj
 0001:0000c128       ?DoInvoke@COPOSVideoCapture@@IEAAJJPEAVOposVariant@@IHPEAJ_N@Z 000000018000d128 f   VideoCaptureImpl.obj
 0001:0000c25c       ?EventInit@COPOSVideoCapture@@IEAAJXZ 000000018000d25c f i VideoCaptureImpl.obj
 0001:0000c3ac       ?EventUninit@COPOSVideoCapture@@IEAAXXZ 000000018000d3ac f i VideoCaptureImpl.obj
 0001:0000c410       ?EventWindowProc@COPOSVideoCapture@@IEAA_JI_K_J@Z 000000018000d410 f i VideoCaptureImpl.obj
 0001:0000c540       ?FinalConstruct@COPOSVideoCapture@@QEAAJXZ 000000018000d540 f   VideoCaptureImpl.obj
 0001:0000c57c       ?FreezeEvents@COPOSVideoCapture@@MEAAJH@Z 000000018000d57c f   VideoCaptureImpl.obj
 0001:0000c5e8       ?GetOposProp@COPOSVideoCapture@@IEAAJJPEAJJ@Z 000000018000d5e8 f   VideoCaptureImpl.obj
 0001:0000c704       ?GetOposProp@COPOSVideoCapture@@IEAAJJPEAPEA_WJ@Z 000000018000d704 f   VideoCaptureImpl.obj
 0001:0000c830       ?OnDraw@COPOSVideoCapture@@MEAAJAEAUATL_DRAWINFO@@@Z 000000018000d830 f   VideoCaptureImpl.obj
 0001:0000c91c       ?Open@COPOSVideoCapture@@UEAAJPEA_WPEAJ@Z 000000018000d91c f   VideoCaptureImpl.obj
 0001:0000d18c       ?ReleaseDevice@COPOSVideoCapture@@UEAAJPEAJ@Z 000000018000e18c f   VideoCaptureImpl.obj
 0001:0000d1f8       ?ResetStatistics@COPOSVideoCapture@@UEAAJPEA_WPEAJ@Z 000000018000e1f8 f   VideoCaptureImpl.obj
 0001:0000d280       ?RetrieveStatistics@COPOSVideoCapture@@UEAAJPEAPEA_WPEAJ@Z 000000018000e280 f   VideoCaptureImpl.obj
 0001:0000d308       ?SOProcessID@COPOSVideoCapture@@UEAAJPEAJ@Z 000000018000e308 f   VideoCaptureImpl.obj
 0001:0000d324       ?SetCOFreezeEvents@COPOSVideoCapture@@IEAAXF@Z 000000018000e324 f   VideoCaptureImpl.obj
 0001:0000d408       ?SetOposProp@COPOSVideoCapture@@IEAAJJJJ@Z 000000018000e408 f   VideoCaptureImpl.obj
 0001:0000d568       ?SetOposProp@COPOSVideoCapture@@IEAAJJPEA_WJ@Z 000000018000e568 f   VideoCaptureImpl.obj
 0001:0000d6c0       ?StartVideo@COPOSVideoCapture@@UEAAJPEA_WFJPEAJ@Z 000000018000e6c0 f   VideoCaptureImpl.obj
 0001:0000d7b8       ?StopVideo@COPOSVideoCapture@@UEAAJPEAJ@Z 000000018000e7b8 f   VideoCaptureImpl.obj
 0001:0000d7e0       ?TakePhoto@COPOSVideoCapture@@UEAAJPEA_WFJPEAJ@Z 000000018000e7e0 f   VideoCaptureImpl.obj
 0001:0000d8dc       ?UpdateFirmware@COPOSVideoCapture@@UEAAJPEA_WPEAJ@Z 000000018000e8dc f   VideoCaptureImpl.obj
 0001:0000d964       ?UpdateStatistics@COPOSVideoCapture@@UEAAJPEA_WPEAJ@Z 000000018000e964 f   VideoCaptureImpl.obj
 0001:0000d9ec       ?get_AutoExposure@COPOSVideoCapture@@UEAAJPEAF@Z 000000018000e9ec f   VideoCaptureImpl.obj
 0001:0000da20       ?get_AutoFocus@COPOSVideoCapture@@UEAAJPEAF@Z 000000018000ea20 f   VideoCaptureImpl.obj
 0001:0000da54       ?get_AutoGain@COPOSVideoCapture@@UEAAJPEAF@Z 000000018000ea54 f   VideoCaptureImpl.obj
 0001:0000da88       ?get_AutoWhiteBalance@COPOSVideoCapture@@UEAAJPEAF@Z 000000018000ea88 f   VideoCaptureImpl.obj
 0001:0000dabc       ?get_BinaryConversion@COPOSVideoCapture@@UEAAJPEAJ@Z 000000018000eabc f   VideoCaptureImpl.obj
 0001:0000dad0       ?get_Brightness@COPOSVideoCapture@@UEAAJPEAJ@Z 000000018000ead0 f   VideoCaptureImpl.obj
 0001:0000dae4       ?get_CapAssociatedHardTotalsDevice@COPOSVideoCapture@@UEAAJPEAPEA_W@Z 000000018000eae4 f   VideoCaptureImpl.obj
 0001:0000daf8       ?get_CapAutoExposure@COPOSVideoCapture@@UEAAJPEAF@Z 000000018000eaf8 f   VideoCaptureImpl.obj
 0001:0000db2c       ?get_CapAutoFocus@COPOSVideoCapture@@UEAAJPEAF@Z 000000018000eb2c f   VideoCaptureImpl.obj
 0001:0000db60       ?get_CapAutoGain@COPOSVideoCapture@@UEAAJPEAF@Z 000000018000eb60 f   VideoCaptureImpl.obj
 0001:0000db94       ?get_CapAutoWhiteBalance@COPOSVideoCapture@@UEAAJPEAF@Z 000000018000eb94 f   VideoCaptureImpl.obj
 0001:0000dbc8       ?get_CapBrightness@COPOSVideoCapture@@UEAAJPEAF@Z 000000018000ebc8 f   VideoCaptureImpl.obj
 0001:0000dbfc       ?get_CapCompareFirmwareVersion@COPOSVideoCapture@@UEAAJPEAF@Z 000000018000ebfc f   VideoCaptureImpl.obj
 0001:0000dc30       ?get_CapContrast@COPOSVideoCapture@@UEAAJPEAF@Z 000000018000ec30 f   VideoCaptureImpl.obj
 0001:0000dc64       ?get_CapExposure@COPOSVideoCapture@@UEAAJPEAF@Z 000000018000ec64 f   VideoCaptureImpl.obj
 0001:0000dc98       ?get_CapGain@COPOSVideoCapture@@UEAAJPEAF@Z 000000018000ec98 f   VideoCaptureImpl.obj
 0001:0000dccc       ?get_CapHorizontalFlip@COPOSVideoCapture@@UEAAJPEAF@Z 000000018000eccc f   VideoCaptureImpl.obj
 0001:0000dd00       ?get_CapHue@COPOSVideoCapture@@UEAAJPEAF@Z 000000018000ed00 f   VideoCaptureImpl.obj
 0001:0000dd34       ?get_CapPhoto@COPOSVideoCapture@@UEAAJPEAF@Z 000000018000ed34 f   VideoCaptureImpl.obj
 0001:0000dd68       ?get_CapPhotoColorSpace@COPOSVideoCapture@@UEAAJPEAF@Z 000000018000ed68 f   VideoCaptureImpl.obj
 0001:0000dd9c       ?get_CapPhotoFrameRate@COPOSVideoCapture@@UEAAJPEAF@Z 000000018000ed9c f   VideoCaptureImpl.obj
 0001:0000ddd0       ?get_CapPhotoResolution@COPOSVideoCapture@@UEAAJPEAF@Z 000000018000edd0 f   VideoCaptureImpl.obj
 0001:0000de04       ?get_CapPhotoType@COPOSVideoCapture@@UEAAJPEAF@Z 000000018000ee04 f   VideoCaptureImpl.obj
 0001:0000de38       ?get_CapPowerReporting@COPOSVideoCapture@@UEAAJPEAJ@Z 000000018000ee38 f   VideoCaptureImpl.obj
 0001:0000de4c       ?get_CapSaturation@COPOSVideoCapture@@UEAAJPEAF@Z 000000018000ee4c f   VideoCaptureImpl.obj
 0001:0000de80       ?get_CapStatisticsReporting@COPOSVideoCapture@@UEAAJPEAF@Z 000000018000ee80 f   VideoCaptureImpl.obj
 0001:0000deb4       ?get_CapStorage@COPOSVideoCapture@@UEAAJPEAJ@Z 000000018000eeb4 f   VideoCaptureImpl.obj
 0001:0000dec8       ?get_CapUpdateFirmware@COPOSVideoCapture@@UEAAJPEAF@Z 000000018000eec8 f   VideoCaptureImpl.obj
 0001:0000defc       ?get_CapUpdateStatistics@COPOSVideoCapture@@UEAAJPEAF@Z 000000018000eefc f   VideoCaptureImpl.obj
 0001:0000df30       ?get_CapVerticalFlip@COPOSVideoCapture@@UEAAJPEAF@Z 000000018000ef30 f   VideoCaptureImpl.obj
 0001:0000df64       ?get_CapVideo@COPOSVideoCapture@@UEAAJPEAF@Z 000000018000ef64 f   VideoCaptureImpl.obj
 0001:0000df98       ?get_CapVideoColorSpace@COPOSVideoCapture@@UEAAJPEAF@Z 000000018000ef98 f   VideoCaptureImpl.obj
 0001:0000dfcc       ?get_CapVideoFrameRate@COPOSVideoCapture@@UEAAJPEAF@Z 000000018000efcc f   VideoCaptureImpl.obj
 0001:0000e000       ?get_CapVideoResolution@COPOSVideoCapture@@UEAAJPEAF@Z 000000018000f000 f   VideoCaptureImpl.obj
 0001:0000e034       ?get_CapVideoType@COPOSVideoCapture@@UEAAJPEAF@Z 000000018000f034 f   VideoCaptureImpl.obj
 0001:0000e068       ?get_CheckHealthText@COPOSVideoCapture@@UEAAJPEAPEA_W@Z 000000018000f068 f   VideoCaptureImpl.obj
 0001:0000e07c       ?get_Claimed@COPOSVideoCapture@@UEAAJPEAF@Z 000000018000f07c f   VideoCaptureImpl.obj
 0001:0000e0b0       ?get_Contrast@COPOSVideoCapture@@UEAAJPEAJ@Z 000000018000f0b0 f   VideoCaptureImpl.obj
 0001:0000e0c4       ?get_ControlObjectDescription@COPOSVideoCapture@@UEAAJPEAPEA_W@Z 000000018000f0c4 f   VideoCaptureImpl.obj
 0001:0000e128       ?get_ControlObjectVersion@COPOSVideoCapture@@UEAAJPEAJ@Z 000000018000f128 f   VideoCaptureImpl.obj
 0001:0000e134       ?get_DeviceDescription@COPOSVideoCapture@@UEAAJPEAPEA_W@Z 000000018000f134 f   VideoCaptureImpl.obj
 0001:0000e148       ?get_DeviceEnabled@COPOSVideoCapture@@UEAAJPEAF@Z 000000018000f148 f   VideoCaptureImpl.obj
 0001:0000e17c       ?get_DeviceName@COPOSVideoCapture@@UEAAJPEAPEA_W@Z 000000018000f17c f   VideoCaptureImpl.obj
 0001:0000e190       ?get_Exposure@COPOSVideoCapture@@UEAAJPEAJ@Z 000000018000f190 f   VideoCaptureImpl.obj
 0001:0000e1a4       ?get_FreezeEvents@COPOSVideoCapture@@UEAAJPEAF@Z 000000018000f1a4 f   VideoCaptureImpl.obj
 0001:0000e1d4       ?get_Gain@COPOSVideoCapture@@UEAAJPEAJ@Z 000000018000f1d4 f   VideoCaptureImpl.obj
 0001:0000e1e8       ?get_HorizontalFlip@COPOSVideoCapture@@UEAAJPEAF@Z 000000018000f1e8 f   VideoCaptureImpl.obj
 0001:0000e21c       ?get_Hue@COPOSVideoCapture@@UEAAJPEAJ@Z 000000018000f21c f   VideoCaptureImpl.obj
 0001:0000e230       ?get_OpenResult@COPOSVideoCapture@@UEAAJPEAJ@Z 000000018000f230 f   VideoCaptureImpl.obj
 0001:0000e23c       ?get_PhotoColorSpace@COPOSVideoCapture@@UEAAJPEAPEA_W@Z 000000018000f23c f   VideoCaptureImpl.obj
 0001:0000e250       ?get_PhotoColorSpaceList@COPOSVideoCapture@@UEAAJPEAPEA_W@Z 000000018000f250 f   VideoCaptureImpl.obj
 0001:0000e264       ?get_PhotoFrameRate@COPOSVideoCapture@@UEAAJPEAJ@Z 000000018000f264 f   VideoCaptureImpl.obj
 0001:0000e278       ?get_PhotoMaxFrameRate@COPOSVideoCapture@@UEAAJPEAJ@Z 000000018000f278 f   VideoCaptureImpl.obj
 0001:0000e28c       ?get_PhotoResolution@COPOSVideoCapture@@UEAAJPEAPEA_W@Z 000000018000f28c f   VideoCaptureImpl.obj
 0001:0000e2a0       ?get_PhotoResolutionList@COPOSVideoCapture@@UEAAJPEAPEA_W@Z 000000018000f2a0 f   VideoCaptureImpl.obj
 0001:0000e2b4       ?get_PhotoType@COPOSVideoCapture@@UEAAJPEAPEA_W@Z 000000018000f2b4 f   VideoCaptureImpl.obj
 0001:0000e2c8       ?get_PhotoTypeList@COPOSVideoCapture@@UEAAJPEAPEA_W@Z 000000018000f2c8 f   VideoCaptureImpl.obj
 0001:0000e2dc       ?get_PowerNotify@COPOSVideoCapture@@UEAAJPEAJ@Z 000000018000f2dc f   VideoCaptureImpl.obj
 0001:0000e2f0       ?get_PowerState@COPOSVideoCapture@@UEAAJPEAJ@Z 000000018000f2f0 f   VideoCaptureImpl.obj
 0001:0000e304       ?get_RemainingRecordingTimeInSec@COPOSVideoCapture@@UEAAJPEAJ@Z 000000018000f304 f   VideoCaptureImpl.obj
 0001:0000e318       ?get_ResultCode@COPOSVideoCapture@@UEAAJPEAJ@Z 000000018000f318 f   VideoCaptureImpl.obj
 0001:0000e354       ?get_ResultCodeExtended@COPOSVideoCapture@@UEAAJPEAJ@Z 000000018000f354 f   VideoCaptureImpl.obj
 0001:0000e368       ?get_Saturation@COPOSVideoCapture@@UEAAJPEAJ@Z 000000018000f368 f   VideoCaptureImpl.obj
 0001:0000e37c       ?get_ServiceObjectDescription@COPOSVideoCapture@@UEAAJPEAPEA_W@Z 000000018000f37c f   VideoCaptureImpl.obj
 0001:0000e390       ?get_ServiceObjectVersion@COPOSVideoCapture@@UEAAJPEAJ@Z 000000018000f390 f   VideoCaptureImpl.obj
 0001:0000e3a4       ?get_State@COPOSVideoCapture@@UEAAJPEAJ@Z 000000018000f3a4 f   VideoCaptureImpl.obj
 0001:0000e3d0       ?get_Storage@COPOSVideoCapture@@UEAAJPEAJ@Z 000000018000f3d0 f   VideoCaptureImpl.obj
 0001:0000e3e4       ?get_VerticalFlip@COPOSVideoCapture@@UEAAJPEAF@Z 000000018000f3e4 f   VideoCaptureImpl.obj
 0001:0000e418       ?get_VideoCaptureMode@COPOSVideoCapture@@UEAAJPEAJ@Z 000000018000f418 f   VideoCaptureImpl.obj
 0001:0000e42c       ?get_VideoColorSpace@COPOSVideoCapture@@UEAAJPEAPEA_W@Z 000000018000f42c f   VideoCaptureImpl.obj
 0001:0000e440       ?get_VideoColorSpaceList@COPOSVideoCapture@@UEAAJPEAPEA_W@Z 000000018000f440 f   VideoCaptureImpl.obj
 0001:0000e454       ?get_VideoFrameRate@COPOSVideoCapture@@UEAAJPEAJ@Z 000000018000f454 f   VideoCaptureImpl.obj
 0001:0000e468       ?get_VideoMaxFrameRate@COPOSVideoCapture@@UEAAJPEAJ@Z 000000018000f468 f   VideoCaptureImpl.obj
 0001:0000e47c       ?get_VideoResolution@COPOSVideoCapture@@UEAAJPEAPEA_W@Z 000000018000f47c f   VideoCaptureImpl.obj
 0001:0000e490       ?get_VideoResolutionList@COPOSVideoCapture@@UEAAJPEAPEA_W@Z 000000018000f490 f   VideoCaptureImpl.obj
 0001:0000e4a4       ?get_VideoType@COPOSVideoCapture@@UEAAJPEAPEA_W@Z 000000018000f4a4 f   VideoCaptureImpl.obj
 0001:0000e4b8       ?get_VideoTypeList@COPOSVideoCapture@@UEAAJPEAPEA_W@Z 000000018000f4b8 f   VideoCaptureImpl.obj
 0001:0000e4cc       ?put_AutoExposure@COPOSVideoCapture@@UEAAJF@Z 000000018000f4cc f   VideoCaptureImpl.obj
 0001:0000e4e8       ?put_AutoFocus@COPOSVideoCapture@@UEAAJF@Z 000000018000f4e8 f   VideoCaptureImpl.obj
 0001:0000e504       ?put_AutoGain@COPOSVideoCapture@@UEAAJF@Z 000000018000f504 f   VideoCaptureImpl.obj
 0001:0000e520       ?put_AutoWhiteBalance@COPOSVideoCapture@@UEAAJF@Z 000000018000f520 f   VideoCaptureImpl.obj
 0001:0000e53c       ?put_BinaryConversion@COPOSVideoCapture@@UEAAJJ@Z 000000018000f53c f   VideoCaptureImpl.obj
 0001:0000e550       ?put_Brightness@COPOSVideoCapture@@UEAAJJ@Z 000000018000f550 f   VideoCaptureImpl.obj
 0001:0000e564       ?put_Contrast@COPOSVideoCapture@@UEAAJJ@Z 000000018000f564 f   VideoCaptureImpl.obj
 0001:0000e578       ?put_DeviceEnabled@COPOSVideoCapture@@UEAAJF@Z 000000018000f578 f   VideoCaptureImpl.obj
 0001:0000e590       ?put_Exposure@COPOSVideoCapture@@UEAAJJ@Z 000000018000f590 f   VideoCaptureImpl.obj
 0001:0000e5a4       ?put_FreezeEvents@COPOSVideoCapture@@UEAAJF@Z 000000018000f5a4 f   VideoCaptureImpl.obj
 0001:0000e5f4       ?put_Gain@COPOSVideoCapture@@UEAAJJ@Z 000000018000f5f4 f   VideoCaptureImpl.obj
 0001:0000e608       ?put_HorizontalFlip@COPOSVideoCapture@@UEAAJF@Z 000000018000f608 f   VideoCaptureImpl.obj
 0001:0000e624       ?put_Hue@COPOSVideoCapture@@UEAAJJ@Z 000000018000f624 f   VideoCaptureImpl.obj
 0001:0000e638       ?put_PhotoColorSpace@COPOSVideoCapture@@UEAAJPEA_W@Z 000000018000f638 f   VideoCaptureImpl.obj
 0001:0000e64c       ?put_PhotoFrameRate@COPOSVideoCapture@@UEAAJJ@Z 000000018000f64c f   VideoCaptureImpl.obj
 0001:0000e660       ?put_PhotoResolution@COPOSVideoCapture@@UEAAJPEA_W@Z 000000018000f660 f   VideoCaptureImpl.obj
 0001:0000e674       ?put_PhotoType@COPOSVideoCapture@@UEAAJPEA_W@Z 000000018000f674 f   VideoCaptureImpl.obj
 0001:0000e688       ?put_PowerNotify@COPOSVideoCapture@@UEAAJJ@Z 000000018000f688 f   VideoCaptureImpl.obj
 0001:0000e69c       ?put_Saturation@COPOSVideoCapture@@UEAAJJ@Z 000000018000f69c f   VideoCaptureImpl.obj
 0001:0000e6b0       ?put_Storage@COPOSVideoCapture@@UEAAJJ@Z 000000018000f6b0 f   VideoCaptureImpl.obj
 0001:0000e6c4       ?put_VerticalFlip@COPOSVideoCapture@@UEAAJF@Z 000000018000f6c4 f   VideoCaptureImpl.obj
 0001:0000e6e0       ?put_VideoCaptureMode@COPOSVideoCapture@@UEAAJJ@Z 000000018000f6e0 f   VideoCaptureImpl.obj
 0001:0000e6f4       ?put_VideoColorSpace@COPOSVideoCapture@@UEAAJPEA_W@Z 000000018000f6f4 f   VideoCaptureImpl.obj
 0001:0000e708       ?put_VideoFrameRate@COPOSVideoCapture@@UEAAJJ@Z 000000018000f708 f   VideoCaptureImpl.obj
 0001:0000e71c       ?put_VideoResolution@COPOSVideoCapture@@UEAAJPEA_W@Z 000000018000f71c f   VideoCaptureImpl.obj
 0001:0000e730       ?put_VideoType@COPOSVideoCapture@@UEAAJPEA_W@Z 000000018000f730 f   VideoCaptureImpl.obj
 0001:0000e744       ?s_EventWindowProc@COPOSVideoCapture@@KA_JPEAUHWND__@@I_K_J@Z 000000018000f744 f i VideoCaptureImpl.obj
 0001:0000e7c0       ??_U@YAPEAX_K@Z            000000018000f7c0 f   LIBCMT:new_array.obj
 0001:0000e7c8       ??3@YAXPEAX_K@Z            000000018000f7c8 f   LIBCMT:delete_scalar_size.obj
 0001:0000e7c8       ??_V@YAXPEAX@Z             000000018000f7c8 f   LIBCMT:delete_array.obj
 0001:0000e7d0       ??_V@YAXPEAX_K@Z           000000018000f7d0 f   LIBCMT:delete_array_size.obj
 0001:0000e7d8       __scrt_acquire_startup_lock 000000018000f7d8 f   LIBCMT:utility.obj
 0001:0000e814       __scrt_dllmain_after_initialize_c 000000018000f814 f   LIBCMT:utility.obj
 0001:0000e848       __scrt_dllmain_before_initialize_c 000000018000f848 f   LIBCMT:utility.obj
 0001:0000e860       __scrt_dllmain_crt_thread_attach 000000018000f860 f   LIBCMT:utility.obj
 0001:0000e888       __scrt_dllmain_crt_thread_detach 000000018000f888 f   LIBCMT:utility.obj
 0001:0000e8a0       __scrt_dllmain_exception_filter 000000018000f8a0 f   LIBCMT:utility.obj
 0001:0000e900       __scrt_dllmain_uninitialize_c 000000018000f900 f   LIBCMT:utility.obj
 0001:0000e930       __scrt_dllmain_uninitialize_critical 000000018000f930 f   LIBCMT:utility.obj
 0001:0000e944       __scrt_initialize_crt      000000018000f944 f   LIBCMT:utility.obj
 0001:0000e990       __scrt_initialize_onexit_tables 000000018000f990 f   LIBCMT:utility.obj
 0001:0000ea1c       __scrt_is_nonwritable_in_current_image 000000018000fa1c f   LIBCMT:utility.obj
 0001:0000eab4       __scrt_release_startup_lock 000000018000fab4 f   LIBCMT:utility.obj
 0001:0000ead8       __scrt_uninitialize_crt    000000018000fad8 f   LIBCMT:utility.obj
 0001:0000eb04       _onexit                    000000018000fb04 f   LIBCMT:utility.obj
 0001:0000eb40       atexit                     000000018000fb40 f   LIBCMT:utility.obj
 0001:0000eb58       ??3@YAXPEAX@Z              000000018000fb58 f   LIBCMT:delete_scalar.obj
 0001:0000ec58       _Init_thread_footer        000000018000fc58 f   LIBCMT:thread_safe_statics.obj
 0001:0000ecb8       _Init_thread_header        000000018000fcb8 f   LIBCMT:thread_safe_statics.obj
 0001:0000ed20       _Init_thread_notify        000000018000fd20 f   LIBCMT:thread_safe_statics.obj
 0001:0000ed64       _Init_thread_wait          000000018000fd64 f   LIBCMT:thread_safe_statics.obj
 0001:0000edc8       __raise_securityfailure    000000018000fdc8 f   LIBCMT:gs_report.obj
 0001:0000edfc       __report_gsfailure         000000018000fdfc f   LIBCMT:gs_report.obj
 0001:0000eed0       __report_rangecheckfailure 000000018000fed0 f   LIBCMT:gs_report.obj
 0001:0000eee4       __report_securityfailure   000000018000fee4 f   LIBCMT:gs_report.obj
 0001:0000f064       ??2@YAPEAX_KAEBUnothrow_t@std@@@Z 0000000180010064 f   LIBCMT:new_scalar_nothrow.obj
 0001:0000f078       ??_U@YAPEAX_KAEBUnothrow_t@std@@@Z 0000000180010078 f   LIBCMT:new_array_nothrow.obj
 0001:0000f080       __GSHandlerCheck           0000000180010080 f   LIBCMT:gshandler.obj
 0001:0000f0a0       __GSHandlerCheckCommon     00000001800100a0 f   LIBCMT:gshandler.obj
 0001:0000f0fc       __GSHandlerCheck_SEH       00000001800100fc f   LIBCMT:gshandlerseh.obj
 0001:0000f1a0       _alloca_probe              00000001800101a0 f   LIBCMT:chkstk.obj
 0001:0000f1a0       __chkstk                   00000001800101a0 f   LIBCMT:chkstk.obj
 0001:0000f200       __security_check_cookie    0000000180010200 f   LIBCMT:amdsecgs.obj
 0001:0000f540       _DllMainCRTStartup         0000000180010540 f   LIBCMT:dll_dllmain.obj
 0001:0000f580       ??2@YAPEAX_K@Z             0000000180010580 f   LIBCMT:new_scalar.obj
 0001:0000f5bc       __isa_available_init       00000001800105bc f   LIBCMT:cpu_disp.obj
 0001:0000f760       __scrt_is_ucrt_dll_in_use  0000000180010760 f   LIBCMT:ucrt_detection.obj
 0001:0000f76c       __crt_debugger_hook        000000018001076c f   LIBCMT:utility_desktop.obj
 0001:0000f774       __scrt_fastfail            0000000180010774 f   LIBCMT:utility_desktop.obj
 0001:0000f8c0       __security_init_cookie     00000001800108c0 f   LIBCMT:gs_support.obj
 0001:0000f96c       ?__scrt_initialize_type_info@@YAXXZ 000000018001096c f   LIBCMT:tncleanup.obj
 0001:0000f97c       ?__scrt_uninitialize_type_info@@YAXXZ 000000018001097c f   LIBCMT:tncleanup.obj
 0001:0000f988       __local_stdio_scanf_options 0000000180010988 f i LIBCMT:default_local_stdio_options.obj
 0001:0000f990       __scrt_initialize_default_local_stdio_options 0000000180010990 f   LIBCMT:default_local_stdio_options.obj
 0001:0000f9ac       __scrt_get_dyn_tls_init_callback 00000001800109ac f   LIBCMT:dyn_tls_init.obj
 0001:0000f9b4       _RTC_Initialize            00000001800109b4 f   LIBCMT:initsect.obj
 0001:0000f9f0       _RTC_Terminate             00000001800109f0 f   LIBCMT:initsect.obj
 0001:0000fa2c       ??0bad_alloc@std@@QEAA@AEBV01@@Z 0000000180010a2c f i LIBCMT:throw_bad_alloc.obj
 0001:0000fa68       ??0bad_alloc@std@@QEAA@XZ  0000000180010a68 f i LIBCMT:throw_bad_alloc.obj
 0001:0000fa88       ??0bad_array_new_length@std@@QEAA@AEBV01@@Z 0000000180010a88 f i LIBCMT:throw_bad_alloc.obj
 0001:0000fac4       ??0bad_array_new_length@std@@QEAA@XZ 0000000180010ac4 f i LIBCMT:throw_bad_alloc.obj
 0001:0000fae4       ??0exception@std@@QEAA@AEBV01@@Z 0000000180010ae4 f i LIBCMT:throw_bad_alloc.obj
 0001:0000fb18       ??1bad_alloc@std@@UEAA@XZ  0000000180010b18 f i LIBCMT:throw_bad_alloc.obj
 0001:0000fb18       ??1bad_array_new_length@std@@UEAA@XZ 0000000180010b18 f i LIBCMT:throw_bad_alloc.obj
 0001:0000fb18       ??1bad_exception@std@@UEAA@XZ 0000000180010b18 f i libvcruntime:frame.obj
 0001:0000fb2c       ??_Gbad_exception@std@@UEAAPEAXI@Z 0000000180010b2c f i libvcruntime:frame.obj
 0001:0000fb2c       ??_Gbad_alloc@std@@UEAAPEAXI@Z 0000000180010b2c f i LIBCMT:throw_bad_alloc.obj
 0001:0000fb2c       ??_Ebad_exception@std@@UEAAPEAXI@Z 0000000180010b2c f i libvcruntime:frame.obj
 0001:0000fb2c       ??_Gbad_array_new_length@std@@UEAAPEAXI@Z 0000000180010b2c f i LIBCMT:throw_bad_alloc.obj
 0001:0000fb2c       ??_Eexception@std@@UEAAPEAXI@Z 0000000180010b2c f i LIBCMT:throw_bad_alloc.obj
 0001:0000fb2c       ??_Ebad_alloc@std@@UEAAPEAXI@Z 0000000180010b2c f i LIBCMT:throw_bad_alloc.obj
 0001:0000fb2c       ??_Gexception@std@@UEAAPEAXI@Z 0000000180010b2c f i LIBCMT:throw_bad_alloc.obj
 0001:0000fb2c       ??_Ebad_array_new_length@std@@UEAAPEAXI@Z 0000000180010b2c f i LIBCMT:throw_bad_alloc.obj
 0001:0000fb70       ?__scrt_throw_std_bad_alloc@@YAXXZ 0000000180010b70 f   LIBCMT:throw_bad_alloc.obj
 0001:0000fb90       ?__scrt_throw_std_bad_array_new_length@@YAXXZ 0000000180010b90 f   LIBCMT:throw_bad_alloc.obj
 0001:0000fbb0       ?what@exception@std@@UEBAPEBDXZ 0000000180010bb0 f i LIBCMT:throw_bad_alloc.obj
 0001:0000fbd0       ??_Etype_info@@UEAAPEAXI@Z 0000000180010bd0 f i LIBCMT:std_type_info_static.obj
 0001:0000fbd0       ??_Gtype_info@@UEAAPEAXI@Z 0000000180010bd0 f i LIBCMT:std_type_info_static.obj
 0001:0000fbfc       ??0CAtlBaseModule@ATL@@QEAA@XZ 0000000180010bfc f   atls:atlbase.obj
 0001:0000fca4       ??1CAtlBaseModule@ATL@@QEAA@XZ 0000000180010ca4 f   atls:atlbase.obj
 0001:0000fdd8       ?__AllocStdCallThunk_cmn@@YAPEAXXZ 0000000180010dd8 f   atls:atlthunk.obj
 0001:0000ff30       AtlThunk_AllocateData      0000000180010f30 f   atls:atlthunk.obj
 0001:0000ffac       AtlThunk_DataToCode        0000000180010fac f   atls:atlthunk.obj
 0001:00010000       AtlThunk_FreeData          0000000180011000 f   atls:atlthunk.obj
 0001:00010060       AtlThunk_InitData          0000000180011060 f   atls:atlthunk.obj
 0001:00010108       _get_purecall_handler      0000000180011108 f   libvcruntime:purevirt.obj
 0001:00010114       _purecall                  0000000180011114 f   libvcruntime:purevirt.obj
 0001:00010130       wcsstr                     0000000180011130 f   libvcruntime:wcsstr.obj
 0001:00010360       memcmp                     0000000180011360 f   libvcruntime:memcmp.obj
 0001:00010440       memcpy_repmovs             0000000180011440 f   libvcruntime:memcpy.obj
 0001:00010460       memmove                    0000000180011460 f   libvcruntime:memcpy.obj
 0001:00010460       memcpy                     0000000180011460 f   libvcruntime:memcpy.obj
 0001:00010af0       memset_repmovs             0000000180011af0 f   libvcruntime:memset.obj
 0001:00010b10       memset                     0000000180011b10 f   libvcruntime:memset.obj
 0001:00010ca0       __vcrt_initialize          0000000180011ca0 f   libvcruntime:initialization.obj
 0001:00010cc8       __vcrt_thread_attach       0000000180011cc8 f   libvcruntime:initialization.obj
 0001:00010cdc       __vcrt_thread_detach       0000000180011cdc f   libvcruntime:initialization.obj
 0001:00010cf0       __vcrt_uninitialize        0000000180011cf0 f   libvcruntime:initialization.obj
 0001:00010d0c       __vcrt_uninitialize_critical 0000000180011d0c f   libvcruntime:initialization.obj
 0001:00010d1c       __C_specific_handler       0000000180011d1c f   libvcruntime:riscchandler.obj
 0001:00010f14       ??$_CallSETranslator@V__FrameHandler3@@@@YAHPEAUEHExceptionRecord@@PEA_KPEAU_CONTEXT@@PEAU_xDISPATCHER_CONTEXT@@PEBU_s_FuncInfo@@K1H@Z 0000000180011f14 f i libvcruntime:risctrnsctrl.obj
 0001:00010f68       ??$_CallSETranslator@V__FrameHandler4@@@@YAHPEAUEHExceptionRecord@@PEA_KPEAU_CONTEXT@@PEAU_xDISPATCHER_CONTEXT@@PEAUFuncInfo4@FH4@@K1H@Z 0000000180011f68 f i libvcruntime:risctrnsctrl.obj
 0001:00010fbc       ?CatchTryBlock@__FrameHandler3@@SAPEBU_s_TryBlockMapEntry@@PEBU_s_FuncInfo@@H@Z 0000000180011fbc f   libvcruntime:risctrnsctrl.obj
 0001:00011020       ?DecompFuncInfo@FH4@@YA_JPEAEAEAUFuncInfo4@1@_KH_N@Z 0000000180012020 f i libvcruntime:risctrnsctrl.obj
 0001:00011144       ?ExecutionInCatch@__FrameHandler3@@SA_NPEAU_xDISPATCHER_CONTEXT@@PEBU_s_FuncInfo@@@Z 0000000180012144 f   libvcruntime:risctrnsctrl.obj
 0001:00011170       ?ExecutionInCatch@__FrameHandler4@@SA_NPEAU_xDISPATCHER_CONTEXT@@PEAUFuncInfo4@FH4@@@Z 0000000180012170 f   libvcruntime:risctrnsctrl.obj
 0001:00011178       ?FrameUnwindToEmptyState@__FrameHandler3@@SAXPEA_KPEAU_xDISPATCHER_CONTEXT@@PEBU_s_FuncInfo@@@Z 0000000180012178 f   libvcruntime:risctrnsctrl.obj
 0001:000111dc       ?FrameUnwindToEmptyState@__FrameHandler4@@SAXPEA_KPEAU_xDISPATCHER_CONTEXT@@PEAUFuncInfo4@FH4@@@Z 00000001800121dc f   libvcruntime:risctrnsctrl.obj
 0001:00011210       ?GetEstablisherFrame@__FrameHandler3@@SAPEA_KPEA_KPEAU_xDISPATCHER_CONTEXT@@PEBU_s_FuncInfo@@0@Z 0000000180012210 f   libvcruntime:risctrnsctrl.obj
 0001:000112dc       ?GetEstablisherFrame@__FrameHandler4@@SAPEA_KPEA_KPEAU_xDISPATCHER_CONTEXT@@PEAUFuncInfo4@FH4@@0@Z 00000001800122dc f   libvcruntime:risctrnsctrl.obj
 0001:00011300       ?GetRangeOfTrysToCheck@__FrameHandler3@@SA?AU?$pair@Viterator@TryBlockMap@__FrameHandler3@@V123@@std@@AEAVTryBlockMap@1@HPEAU_xDISPATCHER_CONTEXT@@PEBU_s_FuncInfo@@H@Z 0000000180012300 f   libvcruntime:risctrnsctrl.obj
 0001:00011440       ?GetRangeOfTrysToCheck@__FrameHandler4@@SA?AU?$pair@Viterator@TryBlockMap4@FH4@@V123@@std@@AEAVTryBlockMap4@FH4@@HPEAU_xDISPATCHER_CONTEXT@@PEAUFuncInfo4@5@H@Z 0000000180012440 f   libvcruntime:risctrnsctrl.obj
 0001:000115ac       ?UnwindNestedFrames@__FrameHandler3@@SAXPEA_KPEAUEHExceptionRecord@@PEAU_CONTEXT@@0PEAXPEBU_s_FuncInfo@@HHPEBU_s_HandlerType@@PEAU_xDISPATCHER_CONTEXT@@E@Z 00000001800125ac f   libvcruntime:risctrnsctrl.obj
 0001:000116b0       ?UnwindNestedFrames@__FrameHandler4@@SAXPEA_KPEAUEHExceptionRecord@@PEAU_CONTEXT@@0PEAXPEAUFuncInfo4@FH4@@HHPEAUHandlerType4@5@PEAU_xDISPATCHER_CONTEXT@@E@Z 00000001800126b0 f   libvcruntime:risctrnsctrl.obj
 0001:000117d0       ?setBuffer@TryBlockMap4@FH4@@QEAAXViterator@12@@Z 00000001800127d0 f i libvcruntime:risctrnsctrl.obj
 0001:00011994       _CreateFrameInfo           0000000180012994 f   libvcruntime:risctrnsctrl.obj
 0001:000119d0       _FindAndUnlinkFrame        00000001800129d0 f   libvcruntime:risctrnsctrl.obj
 0001:00011a24       _GetImageBase              0000000180012a24 f   libvcruntime:risctrnsctrl.obj
 0001:00011a38       _GetThrowImageBase         0000000180012a38 f   libvcruntime:risctrnsctrl.obj
 0001:00011a4c       _SetImageBase              0000000180012a4c f   libvcruntime:risctrnsctrl.obj
 0001:00011a64       _SetThrowImageBase         0000000180012a64 f   libvcruntime:risctrnsctrl.obj
 0001:00011a7c       __CxxFrameHandler3         0000000180012a7c f   libvcruntime:risctrnsctrl.obj
 0001:00011b04       __CxxFrameHandler4         0000000180012b04 f   libvcruntime:risctrnsctrl.obj
 0001:00011bc4       __DestructExceptionObject  0000000180012bc4 f   libvcruntime:ehhelpers.obj
 0001:00011c34       ?_CallMemberFunction0@@YAXQEAX0@Z 0000000180012c34 f i libvcruntime:ehhelpers.obj
 0001:00011c38       _IsExceptionObjectToBeDestroyed 0000000180012c38 f   libvcruntime:ehhelpers.obj
 0001:00011c68       __AdjustPointer            0000000180012c68 f   libvcruntime:ehhelpers.obj
 0001:00011c8c       __FrameUnwindFilter        0000000180012c8c f   libvcruntime:ehhelpers.obj
 0001:00011cf4       __std_terminate            0000000180012cf4 f   libvcruntime:ehhelpers.obj
 0001:00011d00       __std_type_info_compare    0000000180012d00 f   libvcruntime:std_type_info.obj
 0001:00011d28       __std_type_info_destroy_list 0000000180012d28 f   libvcruntime:std_type_info.obj
 0001:00011d54       __std_exception_copy       0000000180012d54 f   libvcruntime:std_exception.obj
 0001:00011de4       __std_exception_destroy    0000000180012de4 f   libvcruntime:std_exception.obj
 0001:00011e0c       _CxxThrowException         0000000180012e0c f   libvcruntime:throw.obj
 0001:00011eac       __vcrt_freefls             0000000180012eac f   libvcruntime:per_thread_data.obj
 0001:00011ecc       __vcrt_freeptd             0000000180012ecc f   libvcruntime:per_thread_data.obj
 0001:00011f1c       __vcrt_getptd              0000000180012f1c f   libvcruntime:per_thread_data.obj
 0001:00011f38       __vcrt_getptd_noexit       0000000180012f38 f   libvcruntime:per_thread_data.obj
 0001:00011ff8       __vcrt_initialize_ptd      0000000180012ff8 f   libvcruntime:per_thread_data.obj
 0001:00012040       __vcrt_uninitialize_ptd    0000000180013040 f   libvcruntime:per_thread_data.obj
 0001:00012064       __vcrt_initialize_locks    0000000180013064 f   libvcruntime:locks.obj
 0001:000120ac       __vcrt_uninitialize_locks  00000001800130ac f   libvcruntime:locks.obj
 0001:00012100       _NLG_Notify                0000000180013100 f   libvcruntime:notify.obj
 0001:00012120       __NLG_Dispatch2            0000000180013120 f   libvcruntime:notify.obj
 0001:00012130       __NLG_Return2              0000000180013130 f   libvcruntime:notify.obj
 0001:00012134       __except_validate_context_record 0000000180013134 f   libvcruntime:jbcxrval.obj
 0001:0001216c       ?GetCurrentState@__FrameHandler3@@SAHPEA_KPEAU_xDISPATCHER_CONTEXT@@PEBU_s_FuncInfo@@@Z 000000018001316c f   libvcruntime:ehstate.obj
 0001:00012194       ?GetUnwindTryBlock@__FrameHandler3@@SAHPEA_KPEAU_xDISPATCHER_CONTEXT@@PEBU_s_FuncInfo@@@Z 0000000180013194 f   libvcruntime:ehstate.obj
 0001:000121c0       ?SetState@__FrameHandler3@@SAXPEA_KPEBU_s_FuncInfo@@H@Z 00000001800131c0 f   libvcruntime:ehstate.obj
 0001:000121cc       ?SetUnwindTryBlock@__FrameHandler3@@SAXPEA_KPEAU_xDISPATCHER_CONTEXT@@PEBU_s_FuncInfo@@H@Z 00000001800131cc f   libvcruntime:ehstate.obj
 0001:00012208       ?StateFromControlPc@__FrameHandler3@@SAHPEBU_s_FuncInfo@@PEAU_xDISPATCHER_CONTEXT@@@Z 0000000180013208 f   libvcruntime:ehstate.obj
 0001:00012210       ?StateFromControlPc@__FrameHandler4@@SAHPEAUFuncInfo4@FH4@@PEAU_xDISPATCHER_CONTEXT@@@Z 0000000180013210 f   libvcruntime:ehstate.obj
 0001:00012218       ?StateFromIp@__FrameHandler3@@SAHPEBU_s_FuncInfo@@PEAU_xDISPATCHER_CONTEXT@@_K@Z 0000000180013218 f   libvcruntime:ehstate.obj
 0001:00012280       ?StateFromIp@__FrameHandler4@@SAHPEAUFuncInfo4@FH4@@PEAU_xDISPATCHER_CONTEXT@@_K@Z 0000000180013280 f   libvcruntime:ehstate.obj
 0001:00013980       ??$TypeMatchHelper@V__FrameHandler3@@@@YAHPEBU_s_HandlerType@@PEBU_s_CatchableType@@PEBU_s_ThrowInfo@@@Z 0000000180014980 f i libvcruntime:frame.obj
 0001:00013ac0       ??$TypeMatchHelper@V__FrameHandler4@@@@YAHPEAUHandlerType4@FH4@@PEBU_s_CatchableType@@PEBU_s_ThrowInfo@@@Z 0000000180014ac0 f i libvcruntime:frame.obj
 0001:00013c04       ??$__InternalCxxFrameHandler@V__FrameHandler3@@@@YA?AW4_EXCEPTION_DISPOSITION@@PEAUEHExceptionRecord@@PEA_KPEAU_CONTEXT@@PEAU_xDISPATCHER_CONTEXT@@PEBU_s_FuncInfo@@H1E@Z 0000000180014c04 f i libvcruntime:frame.obj
 0001:00013e3c       ??$__InternalCxxFrameHandler@V__FrameHandler4@@@@YA?AW4_EXCEPTION_DISPOSITION@@PEAUEHExceptionRecord@@PEA_KPEAU_CONTEXT@@PEAU_xDISPATCHER_CONTEXT@@PEAUFuncInfo4@FH4@@H1E@Z 0000000180014e3c f i libvcruntime:frame.obj
 0001:000140d0       ??0HandlerMap4@FH4@@QEAA@PEBUTryBlockMapEntry4@1@_KH@Z 00000001800150d0 f i libvcruntime:frame.obj
 0001:0001414c       ??0TryBlockMap4@FH4@@QEAA@PEBUFuncInfo4@1@_K@Z 000000018001514c f i libvcruntime:frame.obj
 0001:00014224       ??0bad_exception@std@@QEAA@AEBV01@@Z 0000000180015224 f i libvcruntime:frame.obj
 0001:00014260       ??0bad_exception@std@@QEAA@XZ 0000000180015260 f i libvcruntime:frame.obj
 0001:00014280       ?CxxCallCatchBlock@__FrameHandler3@@SAPEAXPEAU_EXCEPTION_RECORD@@@Z 0000000180015280 f   libvcruntime:frame.obj
 0001:0001446c       ?CxxCallCatchBlock@__FrameHandler4@@SAPEAXPEAU_EXCEPTION_RECORD@@@Z 000000018001546c f   libvcruntime:frame.obj
 0001:000146bc       ?DecompHandler@HandlerMap4@FH4@@AEAAXXZ 00000001800156bc f i libvcruntime:frame.obj
 0001:00014908       ?FrameUnwindToState@__FrameHandler3@@SAXPEA_KPEAU_xDISPATCHER_CONTEXT@@PEBU_s_FuncInfo@@H@Z 0000000180015908 f   libvcruntime:frame.obj
 0001:00014a94       ?FrameUnwindToState@__FrameHandler4@@SAXPEA_KPEAU_xDISPATCHER_CONTEXT@@PEAUFuncInfo4@FH4@@H@Z 0000000180015a94 f   libvcruntime:frame.obj
 0001:00014d90       ?GetHandlerSearchState@__FrameHandler3@@SAHPEA_KPEAU_xDISPATCHER_CONTEXT@@PEBU_s_FuncInfo@@@Z 0000000180015d90 f i libvcruntime:frame.obj
 0001:00014fa0       ?ReadEntry@UWMap4@FH4@@AEAAXPEAPEAE@Z 0000000180015fa0 f i libvcruntime:frame.obj
 0001:0001503c       ?_CallMemberFunction1@@YAXQEAX00@Z 000000018001603c f i libvcruntime:frame.obj
 0001:00015048       ?_CallMemberFunction2@@YAXQEAX00H@Z 0000000180016048 f i libvcruntime:frame.obj
 0001:00015058       ?getStartStop@UWMap4@FH4@@QEAAXHHAEAViterator@12@0@Z 0000000180016058 f i libvcruntime:frame.obj
 0001:00015128       ?getStateFromIterators@UWMap4@FH4@@SAHAEBViterator@12@H0H0@Z 0000000180016128 f i libvcruntime:frame.obj
 0001:00015344       __vcrt_FlsAlloc            0000000180016344 f   libvcruntime:winapi_downlevel.obj
 0001:0001538c       __vcrt_FlsFree             000000018001638c f   libvcruntime:winapi_downlevel.obj
 0001:000153d4       __vcrt_FlsGetValue         00000001800163d4 f   libvcruntime:winapi_downlevel.obj
 0001:0001541c       __vcrt_FlsSetValue         000000018001641c f   libvcruntime:winapi_downlevel.obj
 0001:00015470       __vcrt_InitializeCriticalSectionEx 0000000180016470 f   libvcruntime:winapi_downlevel.obj
 0001:000154f0       _CallSettingFrame          00000001800164f0 f   libvcruntime:handlers.obj
 0001:00015540       _CallSettingFrame_LookupContinuationIndex 0000000180016540 f   libvcruntime:handlers.obj
 0001:00015570       _CallSettingFrame_NotifyContinuationAddr 0000000180016570 f   libvcruntime:handlers.obj
 0001:000155a0       _CallSettingFrameEncoded   00000001800165a0 f   libvcruntime:handlers.obj
 0001:000155e8       free                       00000001800165e8 f   libucrt:free.obj
 0001:000155fc       ?get_raw_ptd@__crt_cached_ptd_host@@QEAAPEAU__acrt_ptd@@XZ 00000001800165fc f i libucrt:invalid_parameter.obj
 0001:00015664       ?get_raw_ptd_noexit@__crt_cached_ptd_host@@QEAAPEAU__acrt_ptd@@XZ 0000000180016664 f i libucrt:invalid_parameter.obj
 0001:000156d0       ?value@?$dual_state_global@P6AXPEB_W00I_K@Z@__crt_state_management@@QEAAAEAP6AXPEB_W00I_K@ZAEAV__crt_cached_ptd_host@@@Z 00000001800166d0 f i libucrt:invalid_parameter.obj
 0001:0001571c       __acrt_call_reportfault    000000018001671c f   libucrt:invalid_parameter.obj
 0001:00015878       __acrt_initialize_invalid_parameter_handler 0000000180016878 f   libucrt:invalid_parameter.obj
 0001:00015880       _invalid_parameter         0000000180016880 f   libucrt:invalid_parameter.obj
 0001:0001591c       _invalid_parameter_internal 000000018001691c f   libucrt:invalid_parameter.obj
 0001:000159ec       _invalid_parameter_noinfo  00000001800169ec f   libucrt:invalid_parameter.obj
 0001:00015a0c       _invoke_watson             0000000180016a0c f   libucrt:invalid_parameter.obj
 0001:00015a54       __acrt_errno_from_os_error 0000000180016a54 f   libucrt:errno.obj
 0001:00015a9c       __acrt_errno_map_os_error  0000000180016a9c f   libucrt:errno.obj
 0001:00015ae4       __acrt_errno_map_os_error_ptd 0000000180016ae4 f   libucrt:errno.obj
 0001:00015b08       __doserrno                 0000000180016b08 f   libucrt:errno.obj
 0001:00015b28       _errno                     0000000180016b28 f   libucrt:errno.obj
 0001:00015b48       calloc                     0000000180016b48 f   libucrt:calloc.obj
 0001:00015b50       malloc                     0000000180016b50 f   libucrt:malloc.obj
 0001:00015b58       _recalloc                  0000000180016b58 f   libucrt:recalloc.obj
 0001:00015b60       _recalloc_base             0000000180016b60 f   libucrt:recalloc.obj
 0001:00015bf8       _resetstkoflw              0000000180016bf8 f   libucrt:resetstk.obj
 0001:00015d24       wcscat_s                   0000000180016d24 f   libucrt:wcscat_s.obj
 0001:00015da8       wcscpy_s                   0000000180016da8 f   libucrt:wcscpy_s.obj
 0001:00015e10       wcsncpy_s                  0000000180016e10 f   libucrt:wcsncpy_s.obj
 0001:000160c4       ??$ensure_buffer_is_big_enough@D@formatting_buffer@__crt_stdio_output@@QEAA_N_KAEAV__crt_cached_ptd_host@@@Z 00000001800170c4 f i libucrt:output.obj
 0001:0001616c       ??$ensure_buffer_is_big_enough@_W@formatting_buffer@__crt_stdio_output@@QEAA_N_KAEAV__crt_cached_ptd_host@@@Z 000000018001716c f i libucrt:output.obj
 0001:00016218       ??$is_wide_character_specifier@_W@__crt_stdio_output@@YA_N_K_WW4length_modifier@0@@Z 0000000180017218 f i libucrt:output.obj
 0001:00016258       ??$parse_integer@KV?$c_string_character_source@_W@__crt_strtox@@$0A@@__crt_strtox@@YAKAEAV__crt_cached_ptd_host@@V?$c_string_character_source@_W@0@H_N@Z 0000000180017258 f i libucrt:output.obj
 0001:000169b0       ??$type_case_integer@$07@?$output_processor@_WV?$string_output_adapter@_W@__crt_stdio_output@@V?$format_validation_base@_WV?$string_output_adapter@_W@__crt_stdio_output@@@2@@__crt_stdio_output@@AEAA_N_N@Z 00000001800179b0 f i libucrt:output.obj
 0001:00016b9c       ??$type_case_integer@$09@?$output_processor@_WV?$string_output_adapter@_W@__crt_stdio_output@@V?$format_validation_base@_WV?$string_output_adapter@_W@__crt_stdio_output@@@2@@__crt_stdio_output@@AEAA_N_N@Z 0000000180017b9c f i libucrt:output.obj
 0001:00016d88       ??$type_case_integer@$0BA@@?$output_processor@_WV?$string_output_adapter@_W@__crt_stdio_output@@V?$format_validation_base@_WV?$string_output_adapter@_W@__crt_stdio_output@@@2@@__crt_stdio_output@@AEAA_N_N@Z 0000000180017d88 f i libucrt:output.obj
 0001:00016f74       ??$type_case_integer_parse_into_buffer@I$07@?$output_processor@_WV?$string_output_adapter@_W@__crt_stdio_output@@V?$format_validation_base@_WV?$string_output_adapter@_W@__crt_stdio_output@@@2@@__crt_stdio_output@@AEAAXI_N@Z 0000000180017f74 f i libucrt:output.obj
 0001:00016ffc       ??$type_case_integer_parse_into_buffer@I$09@?$output_processor@_WV?$string_output_adapter@_W@__crt_stdio_output@@V?$format_validation_base@_WV?$string_output_adapter@_W@__crt_stdio_output@@@2@@__crt_stdio_output@@AEAAXI_N@Z 0000000180017ffc f i libucrt:output.obj
 0001:000170b4       ??$type_case_integer_parse_into_buffer@I$0BA@@?$output_processor@_WV?$string_output_adapter@_W@__crt_stdio_output@@V?$format_validation_base@_WV?$string_output_adapter@_W@__crt_stdio_output@@@2@@__crt_stdio_output@@AEAAXI_N@Z 00000001800180b4 f i libucrt:output.obj
 0001:00017158       ??$type_case_integer_parse_into_buffer@_K$07@?$output_processor@_WV?$string_output_adapter@_W@__crt_stdio_output@@V?$format_validation_base@_WV?$string_output_adapter@_W@__crt_stdio_output@@@2@@__crt_stdio_output@@AEAAX_K_N@Z 0000000180018158 f i libucrt:output.obj
 0001:000171e0       ??$type_case_integer_parse_into_buffer@_K$09@?$output_processor@_WV?$string_output_adapter@_W@__crt_stdio_output@@V?$format_validation_base@_WV?$string_output_adapter@_W@__crt_stdio_output@@@2@@__crt_stdio_output@@AEAAX_K_N@Z 00000001800181e0 f i libucrt:output.obj
 0001:000172a0       ??$type_case_integer_parse_into_buffer@_K$0BA@@?$output_processor@_WV?$string_output_adapter@_W@__crt_stdio_output@@V?$format_validation_base@_WV?$string_output_adapter@_W@__crt_stdio_output@@@2@@__crt_stdio_output@@AEAAX_K_N@Z 00000001800182a0 f i libucrt:output.obj
 0001:00017344       ?crop_zeroes@__crt_stdio_output@@YAXPEADQEAU__crt_locale_pointers@@@Z 0000000180018344 f i libucrt:output.obj
 0001:000173b0       ?parse_int_from_format_string@?$output_processor@_WV?$string_output_adapter@_W@__crt_stdio_output@@V?$format_validation_base@_WV?$string_output_adapter@_W@__crt_stdio_output@@@2@@__crt_stdio_output@@AEAA_NQEAH@Z 00000001800183b0 f i libucrt:output.obj
 0001:00017440       ?process@?$output_processor@_WV?$string_output_adapter@_W@__crt_stdio_output@@V?$format_validation_base@_WV?$string_output_adapter@_W@__crt_stdio_output@@@2@@__crt_stdio_output@@QEAAHXZ 0000000180018440 f i libucrt:output.obj
 0001:0001771c       ?state_case_size@?$output_processor@_WV?$string_output_adapter@_W@__crt_stdio_output@@V?$format_validation_base@_WV?$string_output_adapter@_W@__crt_stdio_output@@@2@@__crt_stdio_output@@AEAA_NXZ 000000018001871c f i libucrt:output.obj
 0001:000178c8       ?state_case_type@?$output_processor@_WV?$string_output_adapter@_W@__crt_stdio_output@@V?$format_validation_base@_WV?$string_output_adapter@_W@__crt_stdio_output@@@2@@__crt_stdio_output@@AEAA_NXZ 00000001800188c8 f i libucrt:output.obj
 0001:00017d24       ?type_case_Z@?$output_processor@_WV?$string_output_adapter@_W@__crt_stdio_output@@V?$format_validation_base@_WV?$string_output_adapter@_W@__crt_stdio_output@@@2@@__crt_stdio_output@@AEAA_NXZ 0000000180018d24 f i libucrt:output.obj
 0001:00017da0       ?type_case_a@?$output_processor@_WV?$string_output_adapter@_W@__crt_stdio_output@@V?$format_validation_base@_WV?$string_output_adapter@_W@__crt_stdio_output@@@2@@__crt_stdio_output@@AEAA_NXZ 0000000180018da0 f i libucrt:output.obj
 0001:00018000       ?type_case_c_tchar@?$output_processor@_WV?$string_output_adapter@_W@__crt_stdio_output@@V?$format_validation_base@_WV?$string_output_adapter@_W@__crt_stdio_output@@@2@@__crt_stdio_output@@AEAA_N_W@Z 0000000180019000 f i libucrt:output.obj
 0001:000180c4       ?type_case_n@?$output_processor@_WV?$string_output_adapter@_W@__crt_stdio_output@@V?$format_validation_base@_WV?$string_output_adapter@_W@__crt_stdio_output@@@2@@__crt_stdio_output@@AEAA_NXZ 00000001800190c4 f i libucrt:output.obj
 0001:00018178       ?type_case_s@?$output_processor@_WV?$string_output_adapter@_W@__crt_stdio_output@@V?$format_validation_base@_WV?$string_output_adapter@_W@__crt_stdio_output@@@2@@__crt_stdio_output@@AEAA_NXZ 0000000180019178 f i libucrt:output.obj
 0001:00018210       ?type_case_s_compute_narrow_string_length@?$output_processor@_WV?$string_output_adapter@_W@__crt_stdio_output@@V?$format_validation_base@_WV?$string_output_adapter@_W@__crt_stdio_output@@@2@@__crt_stdio_output@@AEAAHH_W@Z 0000000180019210 f i libucrt:output.obj
 0001:00018290       ?update_locale_slow@__crt_cached_ptd_host@@AEAAXXZ 0000000180019290 f i libucrt:output.obj
 0001:00018308       ?write_string@?$string_output_adapter@_W@__crt_stdio_output@@QEBAXQEB_WHQEAHAEAV__crt_cached_ptd_host@@@Z 0000000180019308 f i libucrt:output.obj
 0001:000183b0       __stdio_common_vswprintf_s 00000001800193b0 f   libucrt:output.obj
 0001:000184c4       _seh_filter_dll            00000001800194c4 f   libucrt:exception_filter.obj
 0001:000184d8       _seh_filter_exe            00000001800194d8 f   libucrt:exception_filter.obj
 0001:000188fc       __acrt_initialize_thread_local_exit_callback 00000001800198fc f   libucrt:exit.obj
 0001:00018904       _cexit                     0000000180019904 f   libucrt:exit.obj
 0001:00018914       _exit                      0000000180019914 f   libucrt:exit.obj
 0001:00018920       _is_c_termination_complete 0000000180019920 f   libucrt:exit.obj
 0001:00018ae8       __acrt_allocate_buffer_for_argv 0000000180019ae8 f   libucrt:argv_parsing.obj
 0001:00018b48       _configure_narrow_argv     0000000180019b48 f   libucrt:argv_parsing.obj
 0001:00018ed0       __dcrt_uninitialize_environments_nolock 0000000180019ed0 f   libucrt:environment_initialization.obj
 0001:00018f14       _initialize_narrow_environment 0000000180019f14 f   libucrt:environment_initialization.obj
 0001:00019264       _crt_atexit                000000018001a264 f   libucrt:onexit.obj
 0001:00019274       _execute_onexit_table      000000018001a274 f   libucrt:onexit.obj
 0001:000192b8       _initialize_onexit_table   000000018001a2b8 f   libucrt:onexit.obj
 0001:000192e0       _register_onexit_function  000000018001a2e0 f   libucrt:onexit.obj
 0001:00019360       __acrt_uninitialize_command_line 000000018001a360 f   libucrt:argv_data.obj
 0001:00019458       __acrt_initialize          000000018001a458 f   libucrt:initialization.obj
 0001:0001946c       __acrt_thread_attach       000000018001a46c f   libucrt:initialization.obj
 0001:00019480       __acrt_thread_detach       000000018001a480 f   libucrt:initialization.obj
 0001:00019490       __acrt_uninitialize        000000018001a490 f   libucrt:initialization.obj
 0001:000194c8       __acrt_uninitialize_critical 000000018001a4c8 f   libucrt:initialization.obj
 0001:000194d8       _initterm                  000000018001a4d8 f   libucrt:initterm.obj
 0001:0001951c       _initterm_e                000000018001a51c f   libucrt:initterm.obj
 0001:00019564       __acrt_initialize_new_handler 000000018001a564 f   libucrt:new_handler.obj
 0001:0001956c       _callnewh                  000000018001a56c f   libucrt:new_handler.obj
 0001:000195a8       _query_new_handler         000000018001a5a8 f   libucrt:new_handler.obj
 0001:000195dc       terminate                  000000018001a5dc f   libucrt:terminate.obj
 0001:00019608       abort                      000000018001a608 f   libucrt:abort.obj
 0001:00019660       strcpy_s                   000000018001a660 f   libucrt:strcpy_s.obj
 0001:000196d0       strncmp                    000000018001a6d0 f   libucrt:strncmp.obj
 0001:00019750       wcsncmp                    000000018001a750 f   libucrt:wcsncmp.obj
 0001:0001977c       _free_base                 000000018001a77c f   libucrt:free_base.obj
 0001:00019b30       __acrt_freeptd             000000018001ab30 f   libucrt:per_thread_data.obj
 0001:00019b74       __acrt_getptd              000000018001ab74 f   libucrt:per_thread_data.obj
 0001:00019c48       __acrt_getptd_head         000000018001ac48 f   libucrt:per_thread_data.obj
 0001:00019cec       __acrt_getptd_noexit       000000018001acec f   libucrt:per_thread_data.obj
 0001:00019db4       __acrt_getptd_noexit_explicit 000000018001adb4 f   libucrt:per_thread_data.obj
 0001:00019e74       __acrt_initialize_ptd      000000018001ae74 f   libucrt:per_thread_data.obj
 0001:00019eb0       __acrt_uninitialize_ptd    000000018001aeb0 f   libucrt:per_thread_data.obj
 0001:00019f44       __acrt_set_locale_changed  000000018001af44 f   libucrt:wsetlocale.obj
 0001:00019f50       __acrt_uninitialize_locale 000000018001af50 f   libucrt:wsetlocale.obj
 0001:00019f80       _calloc_base               000000018001af80 f   libucrt:calloc_base.obj
 0001:00019ff8       _malloc_base               000000018001aff8 f   libucrt:malloc_base.obj
 0001:0001a058       _msize_base                000000018001b058 f   libucrt:msize.obj
 0001:0001a094       _realloc_base              000000018001b094 f   libucrt:realloc_base.obj
 0001:0001a2d0       __acrt_AppPolicyGetProcessTerminationMethodInternal 000000018001b2d0 f   libucrt:winapi_thunks.obj
 0001:0001a328       __acrt_AreFileApisANSI     000000018001b328 f   libucrt:winapi_thunks.obj
 0001:0001a36c       __acrt_FlsAlloc            000000018001b36c f   libucrt:winapi_thunks.obj
 0001:0001a374       __acrt_FlsFree             000000018001b374 f   libucrt:winapi_thunks.obj
 0001:0001a37c       __acrt_FlsGetValue         000000018001b37c f   libucrt:winapi_thunks.obj
 0001:0001a384       __acrt_FlsSetValue         000000018001b384 f   libucrt:winapi_thunks.obj
 0001:0001a38c       __acrt_InitializeCriticalSectionEx 000000018001b38c f   libucrt:winapi_thunks.obj
 0001:0001a3fc       __acrt_LCMapStringEx       000000018001b3fc f   libucrt:winapi_thunks.obj
 0001:0001a4e8       __acrt_LocaleNameToLCID    000000018001b4e8 f   libucrt:winapi_thunks.obj
 0001:0001a548       __acrt_SetThreadStackGuarantee 000000018001b548 f   libucrt:winapi_thunks.obj
 0001:0001a594       __acrt_initialize_winapi_thunks 000000018001b594 f   libucrt:winapi_thunks.obj
 0001:0001a5b8       __acrt_uninitialize_winapi_thunks 000000018001b5b8 f   libucrt:winapi_thunks.obj
 0001:0001a5fc       wcsnlen                    000000018001b5fc f   libucrt:strnlen.obj
 0001:0001a7d4       __acrt_update_locale_info  000000018001b7d4 f   libucrt:locale_update.obj
 0001:0001a808       __acrt_update_locale_info_explicit 000000018001b808 f   libucrt:locale_update.obj
 0001:0001a840       __acrt_update_multibyte_info 000000018001b840 f   libucrt:locale_update.obj
 0001:0001a874       __acrt_update_multibyte_info_explicit 000000018001b874 f   libucrt:locale_update.obj
 0001:0001b3dc       __acrt_fp_format           000000018001c3dc f   libucrt:cvt.obj
 0001:0001b6c4       _mbtowc_internal           000000018001c6c4 f   libucrt:mbtowc.obj
 0001:0001b83c       _fileno                    000000018001c83c f   libucrt:fileno.obj
 0001:0001b864       __acrt_initialize_stdio    000000018001c864 f   libucrt:_file.obj
 0001:0001b984       __acrt_uninitialize_stdio  000000018001c984 f   libucrt:_file.obj
 0001:0001b9e0       _lock_file                 000000018001c9e0 f   libucrt:_file.obj
 0001:0001b9ec       _unlock_file               000000018001c9ec f   libucrt:_file.obj
 0001:0001b9f8       _get_printf_count_output   000000018001c9f8 f   libucrt:printf_count_output.obj
 0001:0001bc08       __acrt_initialize_lowio    000000018001cc08 f   libucrt:ioinit.obj
 0001:0001bc44       __acrt_uninitialize_lowio  000000018001cc44 f   libucrt:ioinit.obj
 0001:0001bc84       __acrt_initialize_locks    000000018001cc84 f   libucrt:locks.obj
 0001:0001bccc       __acrt_lock                000000018001cccc f   libucrt:locks.obj
 0001:0001bce8       __acrt_uninitialize_locks  000000018001cce8 f   libucrt:locks.obj
 0001:0001bd20       __acrt_unlock              000000018001cd20 f   libucrt:locks.obj
 0001:0001bd3c       __acrt_get_process_end_policy 000000018001cd3c f   libucrt:win_policies.obj
 0001:0001bd8c       ??$__acrt_convert_wcs_mbs_cp@D_WV<lambda_7c9dea7b4ca7285d2cdb541a38da6275>@@U__crt_win32_buffer_internal_dynamic_resizing@@@@YAHQEBDAEAV?$__crt_win32_buffer@_WU__crt_win32_buffer_internal_dynamic_resizing@@@@AEBV<lambda_7c9dea7b4ca7285d2cdb541a38da6275>@@I@Z 000000018001cd8c f i libucrt:argv_wildcards.obj
 0001:0001bf08       ??$__acrt_convert_wcs_mbs_cp@_WDV<lambda_d8593a27d1aa8c02be35c86a17d324c4>@@U__crt_win32_buffer_internal_dynamic_resizing@@@@YAHQEB_WAEAV?$__crt_win32_buffer@DU__crt_win32_buffer_internal_dynamic_resizing@@@@AEBV<lambda_d8593a27d1aa8c02be35c86a17d324c4>@@I@Z 000000018001cf08 f i libucrt:argv_wildcards.obj
 0001:0001c7b0       ??0_LocaleUpdate@@QEAA@QEAU__crt_locale_pointers@@@Z 000000018001d7b0 f i libucrt:argv_wildcards.obj
 0001:0001c84c       __acrt_expand_narrow_argv_wildcards 000000018001d84c f   libucrt:argv_wildcards.obj
 0001:0001c854       ??$__acrt_convert_wcs_mbs_cp@_WDV<lambda_f788ae46380686e8b737efdd8c720d07>@@U__crt_win32_buffer_no_resizing@@@@YAHQEB_WAEAV?$__crt_win32_buffer@DU__crt_win32_buffer_no_resizing@@@@AEBV<lambda_f788ae46380686e8b737efdd8c720d07>@@I@Z 000000018001d854 f i libucrt:getmodulefilenamea.obj
 0001:0001c970       __acrt_GetModuleFileNameA  000000018001d970 f   libucrt:getmodulefilenamea.obj
 0001:0001d28c       __acrt_initialize_multibyte 000000018001e28c f   libucrt:mbctype.obj
 0001:0001d2ec       __acrt_update_thread_multibyte_data 000000018001e2ec f   libucrt:mbctype.obj
 0001:0001d308       _setmbcp_nolock            000000018001e308 f   libucrt:mbctype.obj
 0001:0001d63c       _ismbblead                 000000018001e63c f   libucrt:ismbbyte.obj
 0001:0001d650       __acrt_initialize_command_line 000000018001e650 f   libucrt:argv_data.obj
 0001:0001d678       __acrt_MultiByteToWideChar 000000018001e678 f   libucrt:multibytetowidechar.obj
 0001:0001d6d4       __acrt_WideCharToMultiByte 000000018001e6d4 f   libucrt:widechartomultibyte.obj
 0001:0001d784       __dcrt_get_narrow_environment_from_os 000000018001e784 f   libucrt:get_environment_from_os.obj
 0001:0001d894       __acrt_initialize_heap     000000018001e894 f   libucrt:heap_handle.obj
 0001:0001d8b0       __acrt_uninitialize_heap   000000018001e8b0 f   libucrt:heap_handle.obj
 0001:0001d8bc       __acrt_execute_initializers 000000018001e8bc f   libucrt:shared_initialization.obj
 0001:0001d950       __acrt_execute_uninitializers 000000018001e950 f   libucrt:shared_initialization.obj
 0001:0001d9e0       __acrt_get_sigabrt_handler 000000018001e9e0 f   libucrt:signal.obj
 0001:0001da10       __acrt_initialize_signal_handlers 000000018001ea10 f   libucrt:signal.obj
 0001:0001da30       raise                      000000018001ea30 f   libucrt:signal.obj
 0001:0001dcb0       __acrt_has_user_matherr    000000018001ecb0 f   libucrt:matherr.obj
 0001:0001dcd0       __acrt_initialize_user_matherr 000000018001ecd0 f   libucrt:matherr.obj
 0001:0001dcd8       __acrt_invoke_user_matherr 000000018001ecd8 f   libucrt:matherr.obj
 0001:0001deec       __acrt_stdio_flush_nolock  000000018001eeec f   libucrt:fflush.obj
 0001:0001df78       _fflush_nolock             000000018001ef78 f   libucrt:fflush.obj
 0001:0001e04c       _flushall                  000000018001f04c f   libucrt:fflush.obj
 0001:0001e054       __acrt_add_locale_ref      000000018001f054 f   libucrt:locale_refcounting.obj
 0001:0001e0e0       __acrt_free_locale         000000018001f0e0 f   libucrt:locale_refcounting.obj
 0001:0001e258       __acrt_locale_add_lc_time_reference 000000018001f258 f   libucrt:locale_refcounting.obj
 0001:0001e280       __acrt_locale_free_lc_time_if_unreferenced 000000018001f280 f   libucrt:locale_refcounting.obj
 0001:0001e2b8       __acrt_locale_release_lc_time_reference 000000018001f2b8 f   libucrt:locale_refcounting.obj
 0001:0001e2e0       __acrt_release_locale_ref  000000018001f2e0 f   libucrt:locale_refcounting.obj
 0001:0001e388       __acrt_update_thread_locale_data 000000018001f388 f   libucrt:locale_refcounting.obj
 0001:0001e3f8       _updatetlocinfoEx_nolock   000000018001f3f8 f   libucrt:locale_refcounting.obj
 0001:0001e460       __acrt_locale_free_monetary 000000018001f460 f   libucrt:initmon.obj
 0001:0001e56c       __acrt_locale_free_numeric 000000018001f56c f   libucrt:initnum.obj
 0001:0001e60c       __acrt_locale_free_time    000000018001f60c f   libucrt:inittime.obj
 0001:0001e714       __acrt_GetStringTypeA      000000018001f714 f   libucrt:getstringtypea.obj
 0001:0001e8b0       _query_new_mode            000000018001f8b0 f   libucrt:new_mode.obj
 0001:0001e8b8       __acrt_DownlevelLocaleNameToLCID 000000018001f8b8 f   libucrt:lcidtoname_downlevel.obj
 0001:0001e960       __acrt_fp_strflt_to_string 000000018001f960 f   libucrt:_fptostr.obj
 0001:0001eaf0       ?divide@__crt_strtox@@YA_KAEAUbig_integer@1@AEBU21@@Z 000000018001faf0 f i libucrt:cfout.obj
 0001:0001ef7c       __acrt_fltout              000000018001ff7c f   libucrt:cfout.obj
 0001:00020244       fegetround                 0000000180021244 f   libucrt:fegetround.obj
 0001:00020258       ?__mbrtowc_utf8@__crt_mbstring@@YA_KPEA_WPEBD_KPEAU_Mbstatet@@AEAV__crt_cached_ptd_host@@@Z 0000000180021258 f   libucrt:mbrtowc.obj
 0001:0002029c       ?__mbsrtowcs_utf8@__crt_mbstring@@YA_KPEA_WPEAPEBD_KPEAU_Mbstatet@@AEAV__crt_cached_ptd_host@@@Z 000000018002129c f   libucrt:mbrtowc.obj
 0001:00020440       _fcloseall                 0000000180021440 f   libucrt:closeall.obj
 0001:000204f4       __acrt_stdio_free_buffer_nolock 00000001800214f4 f   libucrt:_freebuf.obj
 0001:00020534       _isatty                    0000000180021534 f   libucrt:isatty.obj
 0001:00020594       __acrt_lowio_create_handle_array 0000000180021594 f   libucrt:osfinfo.obj
 0001:0002063c       __acrt_lowio_destroy_handle_array 000000018002163c f   libucrt:osfinfo.obj
 0001:0002068c       __acrt_lowio_ensure_fh_exists 000000018002168c f   libucrt:osfinfo.obj
 0001:00020734       __acrt_lowio_lock_fh       0000000180021734 f   libucrt:osfinfo.obj
 0001:0002075c       __acrt_lowio_unlock_fh     000000018002175c f   libucrt:osfinfo.obj
 0001:00020784       _free_osfhnd               0000000180021784 f   libucrt:osfinfo.obj
 0001:00020840       _get_osfhandle             0000000180021840 f   libucrt:osfinfo.obj
 0001:000208c0       qsort                      00000001800218c0 f   libucrt:qsort.obj
 0001:00020cd0       strncpy_s                  0000000180021cd0 f   libucrt:strncpy_s.obj
 0001:00020e60       strpbrk                    0000000180021e60 f   libucrt:strpbrk.obj
 0001:00021228       _mbsdec                    0000000180022228 f   libucrt:mbsdec.obj
 0001:00021230       _mbsdec_l                  0000000180022230 f   libucrt:mbsdec.obj
 0001:000215e4       __acrt_LCMapStringA        00000001800225e4 f   libucrt:lcmapstringa.obj
 0001:00021720       _commit                    0000000180022720 f   libucrt:commit.obj
 0001:00021fd0       _write_internal            0000000180022fd0 f   libucrt:write.obj
 0001:000220f8       _write_nolock              00000001800230f8 f   libucrt:write.obj
 0001:00022408       __ascii_wcsnicmp           0000000180023408 f   libucrt:wcsnicmp.obj
 0001:00022454       _controlfp_s               0000000180023454 f   libucrt:contrlfp.obj
 0001:000224b8       fegetenv                   00000001800234b8 f   libucrt:fegetenv.obj
 0001:000224d8       fesetenv                   00000001800234d8 f   libucrt:fesetenv.obj
 0001:00022524       feholdexcept               0000000180023524 f   libucrt:feholdexcept.obj
 0001:00022574       ceil                       0000000180023574 f   libucrt:ceil.obj
 0001:00022640       log10                      0000000180023640 f   libucrt:log10.obj
 0001:00022bec       __acrt_fenv_get_common_round_control 0000000180023bec f   libucrt:_fenvutils.obj
 0001:00022bf8       __acrt_fenv_get_control    0000000180023bf8 f   libucrt:_fenvutils.obj
 0001:00022cdc       __acrt_fenv_get_status     0000000180023cdc f   libucrt:_fenvutils.obj
 0001:00022d34       __acrt_fenv_set_control    0000000180023d34 f   libucrt:_fenvutils.obj
 0001:00022e70       __acrt_fenv_set_status     0000000180023e70 f   libucrt:_fenvutils.obj
 0001:00022ee4       ?reset_and_return@__crt_mbstring@@YA_K_KPEAU_Mbstatet@@@Z 0000000180023ee4 f   libucrt:common_utf8.obj
 0001:00022eec       ?return_illegal_sequence@__crt_mbstring@@YA_KPEAU_Mbstatet@@AEAV__crt_cached_ptd_host@@@Z 0000000180023eec f   libucrt:common_utf8.obj
 0001:00022f00       ?__mbrtoc32_utf8@__crt_mbstring@@YA_KPEA_UPEBD_KPEAU_Mbstatet@@AEAV__crt_cached_ptd_host@@@Z 0000000180023f00 f   libucrt:mbrtoc32.obj
 0001:000231fc       fclose                     00000001800241fc f   libucrt:fclose.obj
 0001:00023340       _lseeki64_nolock_internal  0000000180024340 f   libucrt:lseek.obj
 0001:00023348       _query_app_type            0000000180024348 f   libucrt:report_runtime_error.obj
 0001:00023350       __strncnt                  0000000180024350 f   libucrt:strncnt.obj
 0001:00023368       _putwch_nolock             0000000180024368 f   libucrt:putwch.obj
 0001:000233a4       _clearfp                   00000001800243a4 f   libucrt:ieee.obj
 0001:00023414       _control87                 0000000180024414 f   libucrt:ieee.obj
 0001:00023800       _handle_error              0000000180024800 f   libucrt:libm_error.obj
 0001:00023928       _handle_nan                0000000180024928 f   libucrt:libm_error.obj
 0001:00023950       __acrt_initialize_fma3     0000000180024950 f   libucrt:fma3_available.obj
 0001:000239c0       _log10_special             00000001800249c0 f   libucrt:log_special.obj
 0001:00023af0       _close_internal            0000000180024af0 f   libucrt:close.obj
 0001:00023bb4       _close_nolock_internal     0000000180024bb4 f   libucrt:close.obj
 0001:00023c84       ?__acrt_stdio_free_stream@@YAXV__crt_stdio_stream@@@Z 0000000180024c84 f   libucrt:stream.obj
 0001:00023ca0       __dcrt_lowio_ensure_console_output_initialized 0000000180024ca0 f   libucrt:initcon.obj
 0001:00023cf4       __dcrt_terminate_console_output 0000000180024cf4 f   libucrt:initcon.obj
 0001:00023d10       __dcrt_write_console       0000000180024d10 f   libucrt:initcon.obj
 0001:00023de0       _get_fpsr                  0000000180024de0 f   libucrt:fpsr.obj
 0001:00023df0       _set_fpsr                  0000000180024df0 f   libucrt:fpsr.obj
 0001:00023dfa       _fclrf                     0000000180024dfa f   libucrt:fpsr.obj
 0001:00023e0e       _frnd                      0000000180024e0e f   libucrt:fpsr.obj
 0001:00023e30       _raise_exc                 0000000180024e30 f   libucrt:fpexcept.obj
 0001:00023e58       _raise_exc_ex              0000000180024e58 f   libucrt:fpexcept.obj
 0001:00024168       _set_errno_from_matherr    0000000180025168 f   libucrt:fpexcept.obj
 0001:00024198       _clrfp                     0000000180025198 f   libucrt:fpctrl.obj
 0001:000241b8       _ctrlfp                    00000001800251b8 f   libucrt:fpctrl.obj
 0001:00024234       _set_statfp                0000000180025234 f   libucrt:fpctrl.obj
 0001:00024254       _statfp                    0000000180025254 f   libucrt:fpctrl.obj
 0001:00024270       _FindPESection             0000000180025270 f   LIBCMT:pesect.obj
 0001:000242c0       _IsNonwritableInCurrentImage 00000001800252c0 f   LIBCMT:pesect.obj
 0001:00024310       _ValidateImageBase         0000000180025310 f   LIBCMT:pesect.obj
 0001:0002433c       __GSHandlerCheck_EH        000000018002533c f   LIBCMT:gshandlereh.obj
 0001:000243bc       __C_specific_handler_noexcept 00000001800253bc f   libvcruntime:chandler_noexcept.obj
 0001:00024408       strrchr                    0000000180025408 f   libvcruntime:strrchr.obj
 0001:00024560       _guard_dispatch_icall_nop  0000000180025560 f   LIBCMT:guard_dispatch.obj
 0001:00024580       _guard_xfg_dispatch_icall_nop 0000000180025580 f   LIBCMT:guard_xfg_dispatch.obj
 0002:00000000       __imp_RegQueryValueExW     0000000180026000     advapi32:ADVAPI32.dll
 0002:00000008       __imp_RegSetValueExW       0000000180026008     advapi32:ADVAPI32.dll
 0002:00000010       __imp_RegQueryInfoKeyW     0000000180026010     advapi32:ADVAPI32.dll
 0002:00000018       __imp_RegOpenKeyExW        0000000180026018     advapi32:ADVAPI32.dll
 0002:00000020       __imp_RegEnumKeyExW        0000000180026020     advapi32:ADVAPI32.dll
 0002:00000028       __imp_RegDeleteValueW      0000000180026028     advapi32:ADVAPI32.dll
 0002:00000030       __imp_RegDeleteKeyW        0000000180026030     advapi32:ADVAPI32.dll
 0002:00000038       __imp_RegCreateKeyExW      0000000180026038     advapi32:ADVAPI32.dll
 0002:00000040       __imp_RegCloseKey          0000000180026040     advapi32:ADVAPI32.dll
 0002:00000048       \177ADVAPI32_NULL_THUNK_DATA 0000000180026048     advapi32:ADVAPI32.dll
 0002:00000050       __imp_GetObjectW           0000000180026050     gdi32:GDI32.dll
 0002:00000058       __imp_SelectObject         0000000180026058     gdi32:GDI32.dll
 0002:00000060       __imp_DeleteObject         0000000180026060     gdi32:GDI32.dll
 0002:00000068       __imp_CreateCompatibleDC   0000000180026068     gdi32:GDI32.dll
 0002:00000070       __imp_BitBlt               0000000180026070     gdi32:GDI32.dll
 0002:00000078       __imp_SetWindowOrgEx       0000000180026078     gdi32:GDI32.dll
 0002:00000080       __imp_SetWindowExtEx       0000000180026080     gdi32:GDI32.dll
 0002:00000088       __imp_SetViewportOrgEx     0000000180026088     gdi32:GDI32.dll
 0002:00000090       __imp_LPtoDP               0000000180026090     gdi32:GDI32.dll
 0002:00000098       __imp_SetMapMode           0000000180026098     gdi32:GDI32.dll
 0002:000000a0       __imp_SaveDC               00000001800260a0     gdi32:GDI32.dll
 0002:000000a8       __imp_RestoreDC            00000001800260a8     gdi32:GDI32.dll
 0002:000000b0       __imp_GetDeviceCaps        00000001800260b0     gdi32:GDI32.dll
 0002:000000b8       __imp_DeleteMetaFile       00000001800260b8     gdi32:GDI32.dll
 0002:000000c0       __imp_DeleteDC             00000001800260c0     gdi32:GDI32.dll
 0002:000000c8       __imp_CreateRectRgnIndirect 00000001800260c8     gdi32:GDI32.dll
 0002:000000d0       __imp_CreateMetaFileW      00000001800260d0     gdi32:GDI32.dll
 0002:000000d8       __imp_CreateDCW            00000001800260d8     gdi32:GDI32.dll
 0002:000000e0       __imp_CloseMetaFile        00000001800260e0     gdi32:GDI32.dll
 0002:000000e8       \177GDI32_NULL_THUNK_DATA  00000001800260e8     gdi32:GDI32.dll
 0002:000000f0       __imp_CloseHandle          00000001800260f0     kernel32:KERNEL32.dll
 0002:000000f8       __imp_SetEvent             00000001800260f8     kernel32:KERNEL32.dll
 0002:00000100       __imp_CreateMutexW         0000000180026100     kernel32:KERNEL32.dll
 0002:00000108       __imp_CreateEventW         0000000180026108     kernel32:KERNEL32.dll
 0002:00000110       __imp_GetCurrentProcessId  0000000180026110     kernel32:KERNEL32.dll
 0002:00000118       __imp_WriteConsoleW        0000000180026118     kernel32:KERNEL32.dll
 0002:00000120       __imp_CreateFileW          0000000180026120     kernel32:KERNEL32.dll
 0002:00000128       __imp_GetConsoleMode       0000000180026128     kernel32:KERNEL32.dll
 0002:00000130       __imp_GetConsoleOutputCP   0000000180026130     kernel32:KERNEL32.dll
 0002:00000138       __imp_WriteFile            0000000180026138     kernel32:KERNEL32.dll
 0002:00000140       __imp_FlushFileBuffers     0000000180026140     kernel32:KERNEL32.dll
 0002:00000148       __imp_SetStdHandle         0000000180026148     kernel32:KERNEL32.dll
 0002:00000150       __imp_SetFilePointerEx     0000000180026150     kernel32:KERNEL32.dll
 0002:00000158       __imp_GetStringTypeW       0000000180026158     kernel32:KERNEL32.dll
 0002:00000160       __imp_FreeEnvironmentStringsW 0000000180026160     kernel32:KERNEL32.dll
 0002:00000168       __imp_lstrcmpiW            0000000180026168     kernel32:KERNEL32.dll
 0002:00000170       __imp_GetCommandLineW      0000000180026170     kernel32:KERNEL32.dll
 0002:00000178       __imp_GetCommandLineA      0000000180026178     kernel32:KERNEL32.dll
 0002:00000180       __imp_GetCPInfo            0000000180026180     kernel32:KERNEL32.dll
 0002:00000188       __imp_GetOEMCP             0000000180026188     kernel32:KERNEL32.dll
 0002:00000190       __imp_GetACP               0000000180026190     kernel32:KERNEL32.dll
 0002:00000198       __imp_IsValidCodePage      0000000180026198     kernel32:KERNEL32.dll
 0002:000001a0       __imp_FindNextFileW        00000001800261a0     kernel32:KERNEL32.dll
 0002:000001a8       __imp_FindFirstFileExW     00000001800261a8     kernel32:KERNEL32.dll
 0002:000001b0       __imp_FindClose            00000001800261b0     kernel32:KERNEL32.dll
 0002:000001b8       __imp_GetFileType          00000001800261b8     kernel32:KERNEL32.dll
 0002:000001c0       __imp_GetStdHandle         00000001800261c0     kernel32:KERNEL32.dll
 0002:000001c8       __imp_LCMapStringW         00000001800261c8     kernel32:KERNEL32.dll
 0002:000001d0       __imp_FlsFree              00000001800261d0     kernel32:KERNEL32.dll
 0002:000001d8       __imp_FlsSetValue          00000001800261d8     kernel32:KERNEL32.dll
 0002:000001e0       __imp_MulDiv               00000001800261e0     kernel32:KERNEL32.dll
 0002:000001e8       __imp_GlobalLock           00000001800261e8     kernel32:KERNEL32.dll
 0002:000001f0       __imp_GlobalUnlock         00000001800261f0     kernel32:KERNEL32.dll
 0002:000001f8       __imp_GlobalAlloc          00000001800261f8     kernel32:KERNEL32.dll
 0002:00000200       __imp_FindResourceW        0000000180026200     kernel32:KERNEL32.dll
 0002:00000208       __imp_SizeofResource       0000000180026208     kernel32:KERNEL32.dll
 0002:00000210       __imp_LoadResource         0000000180026210     kernel32:KERNEL32.dll
 0002:00000218       __imp_LoadLibraryExW       0000000180026218     kernel32:KERNEL32.dll
 0002:00000220       __imp_GetProcAddress       0000000180026220     kernel32:KERNEL32.dll
 0002:00000228       __imp_GetModuleHandleW     0000000180026228     kernel32:KERNEL32.dll
 0002:00000230       __imp_GetModuleFileNameW   0000000180026230     kernel32:KERNEL32.dll
 0002:00000238       __imp_FreeLibrary          0000000180026238     kernel32:KERNEL32.dll
 0002:00000240       __imp_DisableThreadLibraryCalls 0000000180026240     kernel32:KERNEL32.dll
 0002:00000248       __imp_GetCurrentThreadId   0000000180026248     kernel32:KERNEL32.dll
 0002:00000250       __imp_Sleep                0000000180026250     kernel32:KERNEL32.dll
 0002:00000258       __imp_WaitForSingleObject  0000000180026258     kernel32:KERNEL32.dll
 0002:00000260       __imp_ReleaseMutex         0000000180026260     kernel32:KERNEL32.dll
 0002:00000268       __imp_ResetEvent           0000000180026268     kernel32:KERNEL32.dll
 0002:00000270       __imp_EnterCriticalSection 0000000180026270     kernel32:KERNEL32.dll
 0002:00000278       __imp_LeaveCriticalSection 0000000180026278     kernel32:KERNEL32.dll
 0002:00000280       __imp_SetLastError         0000000180026280     kernel32:KERNEL32.dll
 0002:00000288       __imp_EncodePointer        0000000180026288     kernel32:KERNEL32.dll
 0002:00000290       __imp_DeleteCriticalSection 0000000180026290     kernel32:KERNEL32.dll
 0002:00000298       __imp_InitializeCriticalSectionEx 0000000180026298     kernel32:KERNEL32.dll
 0002:000002a0       __imp_GetLastError         00000001800262a0     kernel32:KERNEL32.dll
 0002:000002a8       __imp_RaiseException       00000001800262a8     kernel32:KERNEL32.dll
 0002:000002b0       __imp_DecodePointer        00000001800262b0     kernel32:KERNEL32.dll
 0002:000002b8       __imp_WideCharToMultiByte  00000001800262b8     kernel32:KERNEL32.dll
 0002:000002c0       __imp_GetEnvironmentStringsW 00000001800262c0     kernel32:KERNEL32.dll
 0002:000002c8       __imp_MultiByteToWideChar  00000001800262c8     kernel32:KERNEL32.dll
 0002:000002d0       __imp_FlsGetValue          00000001800262d0     kernel32:KERNEL32.dll
 0002:000002d8       __imp_FlsAlloc             00000001800262d8     kernel32:KERNEL32.dll
 0002:000002e0       __imp_HeapReAlloc          00000001800262e0     kernel32:KERNEL32.dll
 0002:000002e8       __imp_HeapSize             00000001800262e8     kernel32:KERNEL32.dll
 0002:000002f0       __imp_GetModuleHandleExW   00000001800262f0     kernel32:KERNEL32.dll
 0002:000002f8       __imp_ExitProcess          00000001800262f8     kernel32:KERNEL32.dll
 0002:00000300       __imp_VirtualQuery         0000000180026300     kernel32:KERNEL32.dll
 0002:00000308       __imp_VirtualProtect       0000000180026308     kernel32:KERNEL32.dll
 0002:00000310       __imp_GetSystemInfo        0000000180026310     kernel32:KERNEL32.dll
 0002:00000318       __imp_TlsFree              0000000180026318     kernel32:KERNEL32.dll
 0002:00000320       __imp_TlsSetValue          0000000180026320     kernel32:KERNEL32.dll
 0002:00000328       __imp_TlsGetValue          0000000180026328     kernel32:KERNEL32.dll
 0002:00000330       __imp_TlsAlloc             0000000180026330     kernel32:KERNEL32.dll
 0002:00000338       __imp_RtlPcToFileHeader    0000000180026338     kernel32:KERNEL32.dll
 0002:00000340       __imp_InterlockedFlushSList 0000000180026340     kernel32:KERNEL32.dll
 0002:00000348       __imp_RtlUnwindEx          0000000180026348     kernel32:KERNEL32.dll
 0002:00000350       __imp_LoadLibraryExA       0000000180026350     kernel32:KERNEL32.dll
 0002:00000358       __imp_VirtualFree          0000000180026358     kernel32:KERNEL32.dll
 0002:00000360       __imp_VirtualAlloc         0000000180026360     kernel32:KERNEL32.dll
 0002:00000368       __imp_FlushInstructionCache 0000000180026368     kernel32:KERNEL32.dll
 0002:00000370       __imp_InterlockedPushEntrySList 0000000180026370     kernel32:KERNEL32.dll
 0002:00000378       __imp_InterlockedPopEntrySList 0000000180026378     kernel32:KERNEL32.dll
 0002:00000380       __imp_GetProcessHeap       0000000180026380     kernel32:KERNEL32.dll
 0002:00000388       __imp_HeapFree             0000000180026388     kernel32:KERNEL32.dll
 0002:00000390       __imp_HeapAlloc            0000000180026390     kernel32:KERNEL32.dll
 0002:00000398       __imp_OutputDebugStringW   0000000180026398     kernel32:KERNEL32.dll
 0002:000003a0       __imp_InitializeSListHead  00000001800263a0     kernel32:KERNEL32.dll
 0002:000003a8       __imp_GetSystemTimeAsFileTime 00000001800263a8     kernel32:KERNEL32.dll
 0002:000003b0       __imp_QueryPerformanceCounter 00000001800263b0     kernel32:KERNEL32.dll
 0002:000003b8       __imp_GetStartupInfoW      00000001800263b8     kernel32:KERNEL32.dll
 0002:000003c0       __imp_InitializeCriticalSectionAndSpinCount 00000001800263c0     kernel32:KERNEL32.dll
 0002:000003c8       __imp_WaitForSingleObjectEx 00000001800263c8     kernel32:KERNEL32.dll
 0002:000003d0       __imp_RtlCaptureContext    00000001800263d0     kernel32:KERNEL32.dll
 0002:000003d8       __imp_RtlLookupFunctionEntry 00000001800263d8     kernel32:KERNEL32.dll
 0002:000003e0       __imp_RtlVirtualUnwind     00000001800263e0     kernel32:KERNEL32.dll
 0002:000003e8       __imp_UnhandledExceptionFilter 00000001800263e8     kernel32:KERNEL32.dll
 0002:000003f0       __imp_SetUnhandledExceptionFilter 00000001800263f0     kernel32:KERNEL32.dll
 0002:000003f8       __imp_GetCurrentProcess    00000001800263f8     kernel32:KERNEL32.dll
 0002:00000400       __imp_TerminateProcess     0000000180026400     kernel32:KERNEL32.dll
 0002:00000408       __imp_IsProcessorFeaturePresent 0000000180026408     kernel32:KERNEL32.dll
 0002:00000410       __imp_IsDebuggerPresent    0000000180026410     kernel32:KERNEL32.dll
 0002:00000418       \177KERNEL32_NULL_THUNK_DATA 0000000180026418     kernel32:KERNEL32.dll
 0002:00000420       __imp_OleCreatePropertyFrame 0000000180026420     oleaut32:OLEAUT32.dll
 0002:00000428       __imp_UnRegisterTypeLib    0000000180026428     oleaut32:OLEAUT32.dll
 0002:00000430       __imp_RegisterTypeLib      0000000180026430     oleaut32:OLEAUT32.dll
 0002:00000438       __imp_LoadRegTypeLib       0000000180026438     oleaut32:OLEAUT32.dll
 0002:00000440       __imp_LoadTypeLib          0000000180026440     oleaut32:OLEAUT32.dll
 0002:00000448       __imp_VarUI4FromStr        0000000180026448     oleaut32:OLEAUT32.dll
 0002:00000450       __imp_VariantInit          0000000180026450     oleaut32:OLEAUT32.dll
 0002:00000458       __imp_SysAllocStringByteLen 0000000180026458     oleaut32:OLEAUT32.dll
 0002:00000460       __imp_SysStringByteLen     0000000180026460     oleaut32:OLEAUT32.dll
 0002:00000468       __imp_VariantChangeType    0000000180026468     oleaut32:OLEAUT32.dll
 0002:00000470       __imp_VariantClear         0000000180026470     oleaut32:OLEAUT32.dll
 0002:00000478       __imp_SysStringLen         0000000180026478     oleaut32:OLEAUT32.dll
 0002:00000480       __imp_SysFreeString        0000000180026480     oleaut32:OLEAUT32.dll
 0002:00000488       __imp_SysAllocStringLen    0000000180026488     oleaut32:OLEAUT32.dll
 0002:00000490       __imp_SysAllocString       0000000180026490     oleaut32:OLEAUT32.dll
 0002:00000498       \177OLEAUT32_NULL_THUNK_DATA 0000000180026498     oleaut32:OLEAUT32.dll
 0002:000004a0       __imp_UnregisterClassW     00000001800264a0     user32:USER32.dll
 0002:000004a8       __imp_PostMessageW         00000001800264a8     user32:USER32.dll
 0002:000004b0       __imp_DefWindowProcW       00000001800264b0     user32:USER32.dll
 0002:000004b8       __imp_CallWindowProcW      00000001800264b8     user32:USER32.dll
 0002:000004c0       __imp_RegisterClassExW     00000001800264c0     user32:USER32.dll
 0002:000004c8       __imp_GetClassInfoExW      00000001800264c8     user32:USER32.dll
 0002:000004d0       __imp_CreateWindowExW      00000001800264d0     user32:USER32.dll
 0002:000004d8       __imp_IsWindow             00000001800264d8     user32:USER32.dll
 0002:000004e0       __imp_IsChild              00000001800264e0     user32:USER32.dll
 0002:000004e8       __imp_DestroyWindow        00000001800264e8     user32:USER32.dll
 0002:000004f0       __imp_ShowWindow           00000001800264f0     user32:USER32.dll
 0002:000004f8       __imp_SetWindowPos         00000001800264f8     user32:USER32.dll
 0002:00000500       __imp_CharNextW            0000000180026500     user32:USER32.dll
 0002:00000508       __imp_SetFocus             0000000180026508     user32:USER32.dll
 0002:00000510       __imp_LoadBitmapW          0000000180026510     user32:USER32.dll
 0002:00000518       __imp_RegisterClassW       0000000180026518     user32:USER32.dll
 0002:00000520       __imp_PeekMessageW         0000000180026520     user32:USER32.dll
 0002:00000528       __imp_LoadCursorW          0000000180026528     user32:USER32.dll
 0002:00000530       __imp_GetParent            0000000180026530     user32:USER32.dll
 0002:00000538       __imp_SetWindowLongPtrW    0000000180026538     user32:USER32.dll
 0002:00000540       __imp_GetWindowLongPtrW    0000000180026540     user32:USER32.dll
 0002:00000548       __imp_PtInRect             0000000180026548     user32:USER32.dll
 0002:00000550       __imp_EqualRect            0000000180026550     user32:USER32.dll
 0002:00000558       __imp_OffsetRect           0000000180026558     user32:USER32.dll
 0002:00000560       __imp_UnionRect            0000000180026560     user32:USER32.dll
 0002:00000568       __imp_IntersectRect        0000000180026568     user32:USER32.dll
 0002:00000570       __imp_GetClientRect        0000000180026570     user32:USER32.dll
 0002:00000578       __imp_InvalidateRect       0000000180026578     user32:USER32.dll
 0002:00000580       __imp_SetWindowRgn         0000000180026580     user32:USER32.dll
 0002:00000588       __imp_EndPaint             0000000180026588     user32:USER32.dll
 0002:00000590       __imp_BeginPaint           0000000180026590     user32:USER32.dll
 0002:00000598       __imp_ReleaseDC            0000000180026598     user32:USER32.dll
 0002:000005a0       __imp_GetDC                00000001800265a0     user32:USER32.dll
 0002:000005a8       __imp_GetKeyState          00000001800265a8     user32:USER32.dll
 0002:000005b0       __imp_GetFocus             00000001800265b0     user32:USER32.dll
 0002:000005b8       \177USER32_NULL_THUNK_DATA 00000001800265b8     user32:USER32.dll
 0002:000005c0       __imp_CoCreateInstance     00000001800265c0     ole32:ole32.dll
 0002:000005c8       __imp_StringFromGUID2      00000001800265c8     ole32:ole32.dll
 0002:000005d0       __imp_CoTaskMemAlloc       00000001800265d0     ole32:ole32.dll
 0002:000005d8       __imp_CoTaskMemRealloc     00000001800265d8     ole32:ole32.dll
 0002:000005e0       __imp_CoTaskMemFree        00000001800265e0     ole32:ole32.dll
 0002:000005e8       __imp_WriteClassStm        00000001800265e8     ole32:ole32.dll
 0002:000005f0       __imp_CreateDataAdviseHolder 00000001800265f0     ole32:ole32.dll
 0002:000005f8       __imp_OleSaveToStream      00000001800265f8     ole32:ole32.dll
 0002:00000600       __imp_CreateOleAdviseHolder 0000000180026600     ole32:ole32.dll
 0002:00000608       __imp_OleRegGetUserType    0000000180026608     ole32:ole32.dll
 0002:00000610       __imp_OleRegGetMiscStatus  0000000180026610     ole32:ole32.dll
 0002:00000618       __imp_OleRegEnumVerbs      0000000180026618     ole32:ole32.dll
 0002:00000620       __imp_CLSIDFromProgID      0000000180026620     ole32:ole32.dll
 0002:00000628       __imp_ReadClassStm         0000000180026628     ole32:ole32.dll
 0002:00000630       \177ole32_NULL_THUNK_DATA  0000000180026630     ole32:ole32.dll
 0002:00000638       __guard_check_icall_fptr   0000000180026638     LIBCMT:guard_support.obj
 0002:00000640       __guard_xfg_check_icall_fptr 0000000180026640     LIBCMT:guard_support.obj
 0002:00000648       __guard_dispatch_icall_fptr 0000000180026648     LIBCMT:guard_support.obj
 0002:00000650       __guard_xfg_dispatch_icall_fptr 0000000180026650     LIBCMT:guard_support.obj
 0002:00000658       __guard_xfg_table_dispatch_icall_fptr 0000000180026658     LIBCMT:guard_support.obj
 0002:00000660       __castguard_check_failure_os_handled_fptr 0000000180026660     LIBCMT:guard_support.obj
 0002:00000668       __xc_a                     0000000180026668     LIBCMT:initializers.obj
 0002:00000698       __xc_z                     0000000180026698     LIBCMT:initializers.obj
 0002:000006a0       __xi_a                     00000001800266a0     LIBCMT:initializers.obj
 0002:000006b0       __acrt_stdio_initializer   00000001800266b0     libucrt:stdio_initializer.obj
 0002:000006b8       __acrt_multibyte_initializer 00000001800266b8     libucrt:multibyte_initializer.obj
 0002:000006c0       __acrt_tran_fma3_initializer 00000001800266c0     libucrt:fma3_initializer.obj
 0002:000006c8       __xi_z                     00000001800266c8     LIBCMT:initializers.obj
 0002:000006d0       __xl_a                     00000001800266d0     LIBCMT:tlssup.obj
 0002:000006d8       __xl_z                     00000001800266d8     LIBCMT:tlssup.obj
 0002:000006e0       __xp_a                     00000001800266e0     LIBCMT:initializers.obj
 0002:000006e8       __acrt_locale_terminator   00000001800266e8     libucrt:locale_initializer.obj
 0002:000006f0       __dcrt_console_output_terminator 00000001800266f0     libucrt:console_output_initializer.obj
 0002:000006f8       __acrt_stdio_terminator    00000001800266f8     libucrt:stdio_initializer.obj
 0002:00000700       __xp_z                     0000000180026700     LIBCMT:initializers.obj
 0002:00000708       __xt_a                     0000000180026708     LIBCMT:initializers.obj
 0002:00000710       __xt_z                     0000000180026710     LIBCMT:initializers.obj
 0002:00000720       ??_C@_13HADIAKP@?$AAS@     0000000180026720     OposVariant.obj
 0002:00000724       ??_C@_13LHMFKAAD@?$AAM@    0000000180026724     OposVariant.obj
 0002:00000728       ??_C@_13MKMNOPIJ@?$AAD@    0000000180026728     OposVariant.obj
 0002:0000072c       ??_C@_13OPKGLAFF@?$AAB@    000000018002672c     OposVariant.obj
 0002:00000730       ??_C@_17LLMMEOJD@?$AAV?$AAa?$AAl@ 0000000180026730     OposVariant.obj
 0002:00000738       ??_C@_1BI@JFAIJMHL@?$AAF?$AAo?$AAr?$AAc?$AAe?$AAR?$AAe?$AAm?$AAo?$AAv?$AAe@ 0000000180026738     OposVariant.obj
 0002:00000750       ??_C@_1BC@GCKHIPE@?$AAN?$AAo?$AAR?$AAe?$AAm?$AAo?$AAv?$AAe@ 0000000180026750     OposVariant.obj
 0002:00000768       ??_C@_1O@JDLOHAN@?$AAD?$AAe?$AAl?$AAe?$AAt?$AAe@ 0000000180026768     OposVariant.obj
 0002:00000778       ??_C@_11LOCGONAA@@         0000000180026778     OposVariant.obj
 0002:00000780       _GUID_55980ba0_35aa_11cf_b671_00aa004cd6d8 0000000180026780     VideoCapture.obj
 0002:00000790       _GUID_b196b28b_bab4_101a_b69c_00aa00341d07 0000000180026790     VideoCapture.obj
 0002:000007a0       ??_7?$CComObject@V?$CComEnum@UIEnumConnections@@$1?_GUID_b196b287_bab4_101a_b69c_00aa00341d07@@3U__s_GUID@@BUtagCONNECTDATA@@V?$_Copy@UtagCONNECTDATA@@@ATL@@VCComSingleThreadModel@6@@ATL@@@ATL@@6B@ 00000001800267a0     VideoCapture.obj
 0002:000007e0       ?_entries@?1??_GetEntries@?$CComEnum@UIEnumConnections@@$1?_GUID_b196b287_bab4_101a_b69c_00aa00341d07@@3U__s_GUID@@BUtagCONNECTDATA@@V?$_Copy@UtagCONNECTDATA@@@ATL@@VCComSingleThreadModel@6@@ATL@@SAPEBU_ATL_INTMAP_ENTRY@3@XZ@4QBU43@B 00000001800267e0     VideoCapture.obj
 0002:00000810       ??_7CComClassFactory@ATL@@6B@ 0000000180026810     VideoCapture.obj
 0002:00000840       ?_entries@?1??_GetEntries@CComClassFactory@ATL@@SAPEBU_ATL_INTMAP_ENTRY@3@XZ@4QBU43@B 0000000180026840     VideoCapture.obj
 0002:00000870       _GUID_00000001_0000_0000_c000_000000000046 0000000180026870     VideoCapture.obj
 0002:00000880       IID_IOPOSVideoCapture_1_16 0000000180026880     VideoCapture.obj
 0002:00000890       ??_C@_1BK@BIGILECK@?$AAA?$AAd?$AAv?$AAa?$AAp?$AAi?$AA3?$AA2?$AA?4?$AAd?$AAl?$AAl@ 0000000180026890     VideoCapture.obj
 0002:000008b0       ??_C@_0BI@MNCFCPFK@RegCreateKeyTransactedW@ 00000001800268b0     VideoCapture.obj
 0002:000008c8       IID_IOPOSVideoCapture      00000001800268c8     VideoCapture.obj
 0002:000008d8       LIBID_OposVideoCapture_CCO 00000001800268d8     VideoCapture.obj
 0002:000008e8       DIID__IOPOSVideoCaptureEvents 00000001800268e8     VideoCapture.obj
 0002:000008f8       CLSID_OPOSVideoCapture     00000001800268f8     VideoCapture.obj
 0002:00000908       _GUID_00000114_0000_0000_c000_000000000046 0000000180026908     VideoCapture.obj
 0002:00000918       _GUID_b196b287_bab4_101a_b69c_00aa00341d07 0000000180026918     VideoCapture.obj
 0002:00000928       _GUID_b196b285_bab4_101a_b69c_00aa00341d07 0000000180026928     VideoCapture.obj
 0002:00000938       _GUID_a6bc3ac0_dbaa_11ce_9de3_00aa004bb851 0000000180026938     VideoCapture.obj
 0002:00000948       _GUID_0000010c_0000_0000_c000_000000000046 0000000180026948     VideoCapture.obj
 0002:00000958       _GUID_00000146_0000_0000_c000_000000000046 0000000180026958     VideoCapture.obj
 0002:00000968       ??_7CComModule@ATL@@6B@    0000000180026968     VideoCapture.obj
 0002:000009b8       _GUID_00000000_0000_0000_c000_000000000046 00000001800269b8     VideoCapture.obj
 0002:000009c8       _GUID_00020400_0000_0000_c000_000000000046 00000001800269c8     VideoCapture.obj
 0002:000009e0       ?_entries@?1??_GetEntries@COPOSVideoCapture@@SAPEBU_ATL_INTMAP_ENTRY@ATL@@XZ@4QBU34@B 00000001800269e0     VideoCapture.obj
 0002:00000c20       _GUID_922eada0_3424_11cf_b670_00aa004cd6d8 0000000180026c20     VideoCapture.obj
 0002:00000c30       _GUID_9c2cad80_3424_11cf_b670_00aa004cd6d8 0000000180026c30     VideoCapture.obj
 0002:00000c40       _GUID_00000119_0000_0000_c000_000000000046 0000000180026c40     VideoCapture.obj
 0002:00000c50       _GUID_b196b289_bab4_101a_b69c_00aa00341d07 0000000180026c50     VideoCapture.obj
 0002:00000c60       _GUID_cf51ed10_62fe_11cf_bf86_00a0c9034836 0000000180026c60     VideoCapture.obj
 0002:00000c70       _GUID_0000010a_0000_0000_c000_000000000046 0000000180026c70     VideoCapture.obj
 0002:00000c80       _GUID_b196b283_bab4_101a_b69c_00aa00341d07 0000000180026c80     VideoCapture.obj
 0002:00000c90       _GUID_cb5bdc81_93c1_11cf_8f20_00805f2cd064 0000000180026c90     VideoCapture.obj
 0002:00000ca0       ?pPropMap@?1??GetPropertyMap@COPOSVideoCapture@@SAPEBUATL_PROPMAP_ENTRY@ATL@@XZ@4QBU34@B 0000000180026ca0     VideoCapture.obj
 0002:00000d48       ??_C@_17DGDADEHL@?$AA_?$AAc?$AAx@ 0000000180026d48     VideoCapture.obj
 0002:00000d50       ??_C@_17IOIMFDBO@?$AA_?$AAc?$AAy@ 0000000180026d50     VideoCapture.obj
 0002:00000d58       _GUID_00000117_0000_0000_c000_000000000046 0000000180026d58     VideoCapture.obj
 0002:00000d68       ??_7?$CComObjectCached@VCComClassFactory@ATL@@@ATL@@6B@ 0000000180026d68     VideoCapture.obj
 0002:00000d98       ??_C@_1CE@PGFMOFKI@?$AAS?$AAt?$AAa?$AAt?$AAu?$AAs?$AAU?$AAp?$AAd?$AAa?$AAt?$AAe?$AAE?$AAv?$AAe@ 0000000180026d98     VideoCapture.obj
 0002:00000dc0       ??_C@_1BG@LODEBHDD@?$AAE?$AAr?$AAr?$AAo?$AAr?$AAE?$AAv?$AAe?$AAn?$AAt@ 0000000180026dc0     VideoCapture.obj
 0002:00000dd8       ??_C@_1BM@CBGEBBBJ@?$AAD?$AAi?$AAr?$AAe?$AAc?$AAt?$AAI?$AAO?$AAE?$AAv?$AAe?$AAn?$AAt@ 0000000180026dd8     VideoCapture.obj
 0002:00000df8       _GUID_b196b286_bab4_101a_b69c_00aa00341d07 0000000180026df8     VideoCapture.obj
 0002:00000e08       ??_C@_1BC@ENICKDH@?$AAC?$AAo?$AAn?$AAt?$AAe?$AAn?$AAt?$AAs@ 0000000180026e08     VideoCapture.obj
 0002:00000e20       ??_7?$CComObject@V?$CComEnum@UIEnumConnectionPoints@@$1?_GUID_b196b285_bab4_101a_b69c_00aa00341d07@@3U__s_GUID@@BPEAUIConnectionPoint@@V?$_CopyInterface@UIConnectionPoint@@@ATL@@VCComSingleThreadModel@6@@ATL@@@ATL@@6B@ 0000000180026e20     VideoCapture.obj
 0002:00000e60       ??_C@_1M@KANJNLFF@?$AAC?$AAL?$AAS?$AAI?$AAD@ 0000000180026e60     VideoCapture.obj
 0002:00000e70       ??_C@_1M@EJNEECMJ@?$AAA?$AAp?$AAp?$AAI?$AAD@ 0000000180026e70     VideoCapture.obj
 0002:00000e80       _GUID_0000010e_0000_0000_c000_000000000046 0000000180026e80     VideoCapture.obj
 0002:00000e90       ?rgszNeverDelete@CRegParser@ATL@@1QBQEB_WB 0000000180026e90     VideoCapture.obj
 0002:00000ef0       _GUID_b196b288_bab4_101a_b69c_00aa00341d07 0000000180026ef0     VideoCapture.obj
 0002:00000f00       ??_7CRegObject@ATL@@6B@    0000000180026f00     VideoCapture.obj
 0002:00000f30       _GUID_00000113_0000_0000_c000_000000000046 0000000180026f30     VideoCapture.obj
 0002:00000f40       ??_C@_1CK@OEKPKBNA@?$AAC?$AAo?$AAm?$AAp?$AAo?$AAn?$AAe?$AAn?$AAt?$AA?5?$AAC?$AAa?$AAt?$AAe?$AAg@ 0000000180026f40     VideoCapture.obj
 0002:00000f70       ??_C@_1BC@NKMMNMGL@?$AAF?$AAi?$AAl?$AAe?$AAT?$AAy?$AAp?$AAe@ 0000000180026f70     VideoCapture.obj
 0002:00000f88       ??_C@_1BE@EKPAFMCP@?$AAI?$AAn?$AAt?$AAe?$AAr?$AAf?$AAa?$AAc?$AAe@ 0000000180026f88     VideoCapture.obj
 0002:00000fa0       ??_C@_1BC@MAICEHGI@?$AAH?$AAa?$AAr?$AAd?$AAw?$AAa?$AAr?$AAe@ 0000000180026fa0     VideoCapture.obj
 0002:00000fb8       ??_C@_19HLLLM@?$AAM?$AAi?$AAm?$AAe@ 0000000180026fb8     VideoCapture.obj
 0002:00000fc8       ??_C@_17OMAOINJK@?$AAS?$AAA?$AAM@ 0000000180026fc8     VideoCapture.obj
 0002:00000fd0       ??_C@_1BC@IBECJAAI@?$AAS?$AAE?$AAC?$AAU?$AAR?$AAI?$AAT?$AAY@ 0000000180026fd0     VideoCapture.obj
 0002:00000fe8       ??_C@_1O@GBFINDKL@?$AAS?$AAY?$AAS?$AAT?$AAE?$AAM@ 0000000180026fe8     VideoCapture.obj
 0002:00000ff8       ??_C@_1BC@EAHCMADO@?$AAS?$AAo?$AAf?$AAt?$AAw?$AAa?$AAr?$AAe@ 0000000180026ff8     VideoCapture.obj
 0002:00001010       ??_C@_1BA@JIHHIEDE@?$AAT?$AAy?$AAp?$AAe?$AAL?$AAi?$AAb@ 0000000180027010     VideoCapture.obj
 0002:00001020       _GUID_1c2056cc_5ef4_101b_8bc8_00aa003e3b29 0000000180027020     VideoCapture.obj
 0002:00001030       ?map@?1??HKeyFromString@CRegParser@ATL@@KAPEAUHKEY__@@PEA_W@Z@4QBUkeymap@?1??123@KAPEAU4@0@Z@B 0000000180027030     VideoCapture.obj
 0002:00001110       ??_C@_19NCHLBIN@?$AAH?$AAK?$AAC?$AAR@ 0000000180027110     VideoCapture.obj
 0002:00001120       ??_C@_19JAPAIJDE@?$AAH?$AAK?$AAC?$AAU@ 0000000180027120     VideoCapture.obj
 0002:00001130       ??_C@_19PEALEEJB@?$AAH?$AAK?$AAL?$AAM@ 0000000180027130     VideoCapture.obj
 0002:00001140       ??_C@_17PJOJPMPB@?$AAH?$AAK?$AAU@ 0000000180027140     VideoCapture.obj
 0002:00001148       ??_C@_19PNBHMJPL@?$AAH?$AAK?$AAP?$AAD@ 0000000180027148     VideoCapture.obj
 0002:00001158       ??_C@_19GFFAIJHG@?$AAH?$AAK?$AAD?$AAD@ 0000000180027158     VideoCapture.obj
 0002:00001168       ??_C@_19OFICIBHH@?$AAH?$AAK?$AAC?$AAC@ 0000000180027168     VideoCapture.obj
 0002:00001178       ??_C@_1CE@PACHPJFI@?$AAH?$AAK?$AAE?$AAY?$AA_?$AAC?$AAL?$AAA?$AAS?$AAS?$AAE?$AAS?$AA_?$AAR?$AAO@ 0000000180027178     VideoCapture.obj
 0002:000011a0       ??_C@_1CE@HLHNCBPM@?$AAH?$AAK?$AAE?$AAY?$AA_?$AAC?$AAU?$AAR?$AAR?$AAE?$AAN?$AAT?$AA_?$AAU?$AAS@ 00000001800271a0     VideoCapture.obj
 0002:000011c8       ??_C@_1CG@GFBEANJL@?$AAH?$AAK?$AAE?$AAY?$AA_?$AAL?$AAO?$AAC?$AAA?$AAL?$AA_?$AAM?$AAA?$AAC?$AAH@ 00000001800271c8     VideoCapture.obj
 0002:000011f0       ??_C@_1BG@BGODANIO@?$AAH?$AAK?$AAE?$AAY?$AA_?$AAU?$AAS?$AAE?$AAR?$AAS@ 00000001800271f0     VideoCapture.obj
 0002:00001208       ??_C@_1CM@KHNNAOIC@?$AAH?$AAK?$AAE?$AAY?$AA_?$AAP?$AAE?$AAR?$AAF?$AAO?$AAR?$AAM?$AAA?$AAN?$AAC@ 0000000180027208     VideoCapture.obj
 0002:00001238       ??_C@_1BM@HAGMMHIA@?$AAH?$AAK?$AAE?$AAY?$AA_?$AAD?$AAY?$AAN?$AA_?$AAD?$AAA?$AAT?$AAA@ 0000000180027238     VideoCapture.obj
 0002:00001258       ??_C@_1CI@BBJOACGG@?$AAH?$AAK?$AAE?$AAY?$AA_?$AAC?$AAU?$AAR?$AAR?$AAE?$AAN?$AAT?$AA_?$AAC?$AAO@ 0000000180027258     VideoCapture.obj
 0002:00001280       _GUID_00000109_0000_0000_c000_000000000046 0000000180027280     VideoCapture.obj
 0002:00001290       _GUID_7fd52380_4e07_101b_ae2d_08002b2ec713 0000000180027290     VideoCapture.obj
 0002:000012a0       _GUID_00000112_0000_0000_c000_000000000046 00000001800272a0     VideoCapture.obj
 0002:000012b0       ??_C@_1EA@NHKLICFA@?$AAH?$AAK?$AAC?$AAU?$AA?$AN?$AA?6?$AA?$HL?$AA?7?$AAS?$AAo?$AAf?$AAt?$AAw?$AAa?$AAr@ 00000001800272b0     VideoCapture.obj
 0002:000012f0       ??_C@_1BE@LJOLIMEM@?$AA?$AN?$AA?6?$AA?7?$AA?$HN?$AA?$AN?$AA?6?$AA?$HN?$AA?$AN?$AA?6@ 00000001800272f0     VideoCapture.obj
 0002:00001308       _GUID_3af24292_0c96_11ce_a0cf_00aa00600ab8 0000000180027308     VideoCapture.obj
 0002:00001318       _GUID_00000127_0000_0000_c000_000000000046 0000000180027318     VideoCapture.obj
 0002:00001328       _GUID_0000010d_0000_0000_c000_000000000046 0000000180027328     VideoCapture.obj
 0002:00001338       ??_C@_1O@MNLDABAF@?$AAM?$AAo?$AAd?$AAu?$AAl?$AAe@ 0000000180027338     VideoCapture.obj
 0002:00001348       ??_C@_1BG@JBACFMF@?$AAM?$AAo?$AAd?$AAu?$AAl?$AAe?$AA_?$AAR?$AAa?$AAw@ 0000000180027348     VideoCapture.obj
 0002:00001360       ??_C@_1BC@KAILKFFG@?$AAR?$AAE?$AAG?$AAI?$AAS?$AAT?$AAR?$AAY@ 0000000180027360     VideoCapture.obj
 0002:00001378       ??_C@_1M@PPPPCDEP@?$AAA?$AAP?$AAP?$AAI?$AAD@ 0000000180027378     VideoCapture.obj
 0002:00001388       ??_7?$CComContainedObject@VCOPOSVideoCapture@@@ATL@@6B?$IDispatchImpl@UIOPOSVideoCapture@@$1?IID_IOPOSVideoCapture@@3U_GUID@@B$1?LIBID_OposVideoCapture_CCO@@3U3@B$00$0A@VCComTypeInfoHolder@ATL@@@1@@ 0000000180027388     VideoCapture.obj
 0002:000017a0       ??_7?$CComContainedObject@VCOPOSVideoCapture@@@ATL@@6BCComControlBase@1@@ 00000001800277a0     VideoCapture.obj
 0002:000017c8       ??_7?$CComContainedObject@VCOPOSVideoCapture@@@ATL@@6B?$CWindowImpl@VCOPOSVideoCapture@@VCWindow@ATL@@V?$CWinTraits@$0FGAAAAAA@$0A@@3@@1@@ 00000001800277c8     VideoCapture.obj
 0002:000017e8       ??_7?$CComContainedObject@VCOPOSVideoCapture@@@ATL@@6B?$IPersistStreamInitImpl@VCOPOSVideoCapture@@@1@@ 00000001800277e8     VideoCapture.obj
 0002:00001830       ??_7?$CComContainedObject@VCOPOSVideoCapture@@@ATL@@6B?$IOleControlImpl@VCOPOSVideoCapture@@@1@@ 0000000180027830     VideoCapture.obj
 0002:00001868       ??_7?$CComContainedObject@VCOPOSVideoCapture@@@ATL@@6B?$IOleObjectImpl@VCOPOSVideoCapture@@@1@@ 0000000180027868     VideoCapture.obj
 0002:00001928       ??_7?$CComContainedObject@VCOPOSVideoCapture@@@ATL@@6B?$IOleInPlaceActiveObjectImpl@VCOPOSVideoCapture@@@1@@ 0000000180027928     VideoCapture.obj
 0002:00001978       ??_7?$CComContainedObject@VCOPOSVideoCapture@@@ATL@@6B?$IViewObjectExImpl@VCOPOSVideoCapture@@@1@@ 0000000180027978     VideoCapture.obj
 0002:000019f0       ??_7?$CComContainedObject@VCOPOSVideoCapture@@@ATL@@6B?$IOleInPlaceObjectWindowlessImpl@VCOPOSVideoCapture@@@1@@ 00000001800279f0     VideoCapture.obj
 0002:00001a48       ??_7?$CComContainedObject@VCOPOSVideoCapture@@@ATL@@6B?$IConnectionPointContainerImpl@VCOPOSVideoCapture@@@1@@ 0000000180027a48     VideoCapture.obj
 0002:00001a70       ??_7?$CComContainedObject@VCOPOSVideoCapture@@@ATL@@6B?$IPersistStorageImpl@VCOPOSVideoCapture@@@1@@ 0000000180027a70     VideoCapture.obj
 0002:00001ac0       ??_7?$CComContainedObject@VCOPOSVideoCapture@@@ATL@@6B?$ISpecifyPropertyPagesImpl@VCOPOSVideoCapture@@@1@@ 0000000180027ac0     VideoCapture.obj
 0002:00001ae0       ??_7?$CComContainedObject@VCOPOSVideoCapture@@@ATL@@6B?$IQuickActivateImpl@VCOPOSVideoCapture@@@1@@ 0000000180027ae0     VideoCapture.obj
 0002:00001b10       ??_7?$CComContainedObject@VCOPOSVideoCapture@@@ATL@@6B?$IDataObjectImpl@VCOPOSVideoCapture@@@1@@ 0000000180027b10     VideoCapture.obj
 0002:00001b70       ??_7?$CComContainedObject@VCOPOSVideoCapture@@@ATL@@6B?$IProvideClassInfo2Impl@$1?CLSID_OPOSVideoCapture@@3U_GUID@@B$1?DIID__IOPOSVideoCaptureEvents@@3U2@B$1?LIBID_OposVideoCapture_CCO@@3U2@B$00$0A@VCComTypeInfoHolder@ATL@@@1@@ 0000000180027b70     VideoCapture.obj
 0002:00001b98       ??_7?$CComContainedObject@VCOPOSVideoCapture@@@ATL@@6B?$IObjectSafetyImpl@VCOPOSVideoCapture@@$02@1@@ 0000000180027b98     VideoCapture.obj
 0002:00001bc8       ??_7?$CComContainedObject@VCOPOSVideoCapture@@@ATL@@6B?$IPropertyNotifySinkCP@VCOPOSVideoCapture@@VCComDynamicUnkArray@ATL@@@1@@ 0000000180027bc8     VideoCapture.obj
 0002:00001c08       ??_7?$CComContainedObject@VCOPOSVideoCapture@@@ATL@@6B?$CProxy_IOPOSEvents@VCOPOSVideoCapture@@@@@ 0000000180027c08     VideoCapture.obj
 0002:00001c48       ??_7?$CComAggObject@VCOPOSVideoCapture@@@ATL@@6B@ 0000000180027c48     VideoCapture.obj
 0002:00001c68       ??_7?$CComObject@VCOPOSVideoCapture@@@ATL@@6B?$IDispatchImpl@UIOPOSVideoCapture@@$1?IID_IOPOSVideoCapture@@3U_GUID@@B$1?LIBID_OposVideoCapture_CCO@@3U3@B$00$0A@VCComTypeInfoHolder@ATL@@@1@@ 0000000180027c68     VideoCapture.obj
 0002:00002080       ??_7?$CComObject@VCOPOSVideoCapture@@@ATL@@6BCComControlBase@1@@ 0000000180028080     VideoCapture.obj
 0002:000020a8       ??_7?$CComObject@VCOPOSVideoCapture@@@ATL@@6B?$CWindowImpl@VCOPOSVideoCapture@@VCWindow@ATL@@V?$CWinTraits@$0FGAAAAAA@$0A@@3@@1@@ 00000001800280a8     VideoCapture.obj
 0002:000020c8       ??_7?$CComObject@VCOPOSVideoCapture@@@ATL@@6B?$IPersistStreamInitImpl@VCOPOSVideoCapture@@@1@@ 00000001800280c8     VideoCapture.obj
 0002:00002110       ??_7?$CComObject@VCOPOSVideoCapture@@@ATL@@6B?$IOleControlImpl@VCOPOSVideoCapture@@@1@@ 0000000180028110     VideoCapture.obj
 0002:00002148       ??_7?$CComObject@VCOPOSVideoCapture@@@ATL@@6B?$IOleObjectImpl@VCOPOSVideoCapture@@@1@@ 0000000180028148     VideoCapture.obj
 0002:00002208       ??_7?$CComObject@VCOPOSVideoCapture@@@ATL@@6B?$IOleInPlaceActiveObjectImpl@VCOPOSVideoCapture@@@1@@ 0000000180028208     VideoCapture.obj
 0002:00002258       ??_7?$CComObject@VCOPOSVideoCapture@@@ATL@@6B?$IViewObjectExImpl@VCOPOSVideoCapture@@@1@@ 0000000180028258     VideoCapture.obj
 0002:000022d0       ??_7?$CComObject@VCOPOSVideoCapture@@@ATL@@6B?$IOleInPlaceObjectWindowlessImpl@VCOPOSVideoCapture@@@1@@ 00000001800282d0     VideoCapture.obj
 0002:00002328       ??_7?$CComObject@VCOPOSVideoCapture@@@ATL@@6B?$IConnectionPointContainerImpl@VCOPOSVideoCapture@@@1@@ 0000000180028328     VideoCapture.obj
 0002:00002350       ??_7?$CComObject@VCOPOSVideoCapture@@@ATL@@6B?$IPersistStorageImpl@VCOPOSVideoCapture@@@1@@ 0000000180028350     VideoCapture.obj
 0002:000023a0       ??_7?$CComObject@VCOPOSVideoCapture@@@ATL@@6B?$ISpecifyPropertyPagesImpl@VCOPOSVideoCapture@@@1@@ 00000001800283a0     VideoCapture.obj
 0002:000023c0       ??_7?$CComObject@VCOPOSVideoCapture@@@ATL@@6B?$IQuickActivateImpl@VCOPOSVideoCapture@@@1@@ 00000001800283c0     VideoCapture.obj
 0002:000023f0       ??_7?$CComObject@VCOPOSVideoCapture@@@ATL@@6B?$IDataObjectImpl@VCOPOSVideoCapture@@@1@@ 00000001800283f0     VideoCapture.obj
 0002:00002450       ??_7?$CComObject@VCOPOSVideoCapture@@@ATL@@6B?$IProvideClassInfo2Impl@$1?CLSID_OPOSVideoCapture@@3U_GUID@@B$1?DIID__IOPOSVideoCaptureEvents@@3U2@B$1?LIBID_OposVideoCapture_CCO@@3U2@B$00$0A@VCComTypeInfoHolder@ATL@@@1@@ 0000000180028450     VideoCapture.obj
 0002:00002478       ??_7?$CComObject@VCOPOSVideoCapture@@@ATL@@6B?$IObjectSafetyImpl@VCOPOSVideoCapture@@$02@1@@ 0000000180028478     VideoCapture.obj
 0002:000024a8       ??_7?$CComObject@VCOPOSVideoCapture@@@ATL@@6B?$IPropertyNotifySinkCP@VCOPOSVideoCapture@@VCComDynamicUnkArray@ATL@@@1@@ 00000001800284a8     VideoCapture.obj
 0002:000024e8       ??_7?$CComObject@VCOPOSVideoCapture@@@ATL@@6B?$CProxy_IOPOSEvents@VCOPOSVideoCapture@@@@@ 00000001800284e8     VideoCapture.obj
 0002:00002528       ??_C@_1O@GBFKGNEO@?$AAA?$AAT?$AAL?$AA?3?$AA?$CF?$AAp@ 0000000180028528     VideoCapture.obj
 0002:00002538       ??_C@_1BA@PICGEGJB@?$AAD?$AAI?$AAS?$AAP?$AAL?$AAA?$AAY@ 0000000180028538     VideoCapture.obj
 0002:00002548       _GUID_b196b284_bab4_101a_b69c_00aa00341d07 0000000180028548     VideoCapture.obj
 0002:00002558       _GUID_9bfbbc02_eff1_101a_84ed_00aa00341d07 0000000180028558     VideoCapture.obj
 0002:00002568       ?_entries@?1??_GetEntries@?$CComEnum@UIEnumConnectionPoints@@$1?_GUID_b196b285_bab4_101a_b69c_00aa00341d07@@3U__s_GUID@@BPEAUIConnectionPoint@@V?$_CopyInterface@UIConnectionPoint@@@ATL@@VCComSingleThreadModel@6@@ATL@@SAPEBU_ATL_INTMAP_ENTRY@3@XZ@4QBU43@B 0000000180028568     VideoCapture.obj
 0002:00002598       _GUID_00020412_0000_0000_c000_000000000046 0000000180028598     VideoCapture.obj
 0002:000025a8       _GUID_00020401_0000_0000_c000_000000000046 00000001800285a8     VideoCapture.obj
 0002:000025b8       ??_C@_0BG@EKFFMJIO@RegOpenKeyTransactedW@ 00000001800285b8     VideoCapture.obj
 0002:000025d0       ??_C@_0BI@HAKLOOGP@RegDeleteKeyTransactedW@ 00000001800285d0     VideoCapture.obj
 0002:000025e8       ??_C@_0BA@LILAPHGE@RegDeleteKeyExW@ 00000001800285e8     VideoCapture.obj
 0002:000025f8       ??_C@_19ILOCMLCJ@?$AA?4?$AAt?$AAl?$AAb@ 00000001800285f8     VideoCapture.obj
 0002:00002608       _GUID_0002e012_0000_0000_c000_000000000046 0000000180028608     VideoCapture.obj
 0002:00002618       ??_C@_1O@FHBGLCIO@?$AAC?$AAL?$AAS?$AAI?$AAD?$AA?2@ 0000000180028618     VideoCapture.obj
 0002:00002628       ??_C@_1CK@IFBKBFAA@?$AA?2?$AAR?$AAe?$AAq?$AAu?$AAi?$AAr?$AAe?$AAd?$AA?5?$AAC?$AAa?$AAt?$AAe?$AAg@ 0000000180028628     VideoCapture.obj
 0002:00002658       ??_C@_1DA@BIHALFED@?$AA?2?$AAI?$AAm?$AAp?$AAl?$AAe?$AAm?$AAe?$AAn?$AAt?$AAe?$AAd?$AA?5?$AAC?$AAa@ 0000000180028658     VideoCapture.obj
 0002:00002688       ??_C@_1BK@EDKOLFBJ@?$AAO?$AAL?$AAE?$AAA?$AAU?$AAT?$AA3?$AA2?$AA?4?$AAD?$AAL?$AAL@ 0000000180028688     VideoCapture.obj
 0002:000026a8       ??_C@_0BJ@CNLFOMHB@UnRegisterTypeLibForUser@ 00000001800286a8     VideoCapture.obj
 0002:000026c8       ??_C@_0BH@LBOMMKPJ@RegisterTypeLibForUser@ 00000001800286c8     VideoCapture.obj
 0002:000026e0       ??_C@_0P@MMNMMLGK@COFreezeEvents@ 00000001800286e0     VideoCaptureImpl.obj
 0002:000026f0       ??_C@_0BC@OGCGGIMP@GetPropertyNumber@ 00000001800286f0     VideoCaptureImpl.obj
 0002:00002708       ??_C@_0BC@MDCNODNB@SetPropertyNumber@ 0000000180028708     VideoCaptureImpl.obj
 0002:00002720       ??_C@_0BC@CFCCMIMD@GetPropertyString@ 0000000180028720     VideoCaptureImpl.obj
 0002:00002738       ??_C@_0BC@CJEDNN@SetPropertyString@ 0000000180028738     VideoCaptureImpl.obj
 0002:00002750       ??_C@_0M@LNPKKKDA@OpenService@ 0000000180028750     VideoCaptureImpl.obj
 0002:00002760       ??_C@_0M@PCMCHHMH@CheckHealth@ 0000000180028760     VideoCaptureImpl.obj
 0002:00002770       ??_C@_0M@JGMIDNEK@ClaimDevice@ 0000000180028770     VideoCaptureImpl.obj
 0002:00002780       ??_C@_0L@BNEIFEJC@ClearInput@ 0000000180028780     VideoCaptureImpl.obj
 0002:00002790       ??_C@_0N@DDFIIBMP@CloseService@ 0000000180028790     VideoCaptureImpl.obj
 0002:000027a0       ??_C@_08EEIHICPC@DirectIO@ 00000001800287a0     VideoCaptureImpl.obj
 0002:000027b0       ??_C@_0O@BCPMENMJ@ReleaseDevice@ 00000001800287b0     VideoCaptureImpl.obj
 0002:000027c0       ??_C@_0BA@GFABKEEE@ResetStatistics@ 00000001800287c0     VideoCaptureImpl.obj
 0002:000027d0       ??_C@_0BD@DPALHJGC@RetrieveStatistics@ 00000001800287d0     VideoCaptureImpl.obj
 0002:000027e8       ??_C@_0BB@KOHIKNFC@UpdateStatistics@ 00000001800287e8     VideoCaptureImpl.obj
 0002:00002800       ??_C@_0BH@PBKBNMGB@CompareFirmwareVersion@ 0000000180028800     VideoCaptureImpl.obj
 0002:00002818       ??_C@_0P@FBPDPIPA@UpdateFirmware@ 0000000180028818     VideoCaptureImpl.obj
 0002:00002828       ??_C@_0BE@BHCOAPAN@StartVideoRecording@ 0000000180028828     VideoCaptureImpl.obj
 0002:00002840       ??_C@_0BD@MPFJKNFO@StopVideoRecording@ 0000000180028840     VideoCaptureImpl.obj
 0002:00002858       ??_C@_0P@OEMMIMJE@TakePhotograph@ 0000000180028858     VideoCaptureImpl.obj
 0002:00002868       ??_7?$CProxy_IOPOSEvents@VCOPOSVideoCapture@@@@6B@ 0000000180028868     VideoCaptureImpl.obj
 0002:000028a8       ??_C@_1BA@IFHENID@?$AA?$FL?$AAE?$AAr?$AAr?$AAo?$AAr?$AA?$FN@ 00000001800288a8     VideoCaptureImpl.obj
 0002:000028b8       ??_C@_0CP@JCNNDKJL@SOFTWARE?2OLEforRetail?2ServiceOP@ 00000001800288b8     VideoCaptureImpl.obj
 0002:000028e8       ??_C@_1M@IAIJHCCH@?$AAC?$AAl?$AAo?$AAs?$AAe@ 00000001800288e8     VideoCaptureImpl.obj
 0002:000028f8       ??_C@_1M@PCPKGJAH@?$AAC?$AAl?$AAa?$AAi?$AAm@ 00000001800288f8     VideoCaptureImpl.obj
 0002:00002908       ??_C@_1BA@NDFKIOCP@?$AAR?$AAe?$AAl?$AAe?$AAa?$AAs?$AAe@ 0000000180028908     VideoCaptureImpl.obj
 0002:00002918       ??_C@_0N@CGLLNJFA@VideoCapture@ 0000000180028918     VideoCaptureImpl.obj
 0002:00002928       ??_C@_1BM@IJMNMBPK@?$AAG?$AAe?$AAt?$AAO?$AAp?$AAe?$AAn?$AAR?$AAe?$AAs?$AAu?$AAl?$AAt@ 0000000180028928     VideoCaptureImpl.obj
 0002:00002948       IID_IDispatch              0000000180028948     uuid:oaidl_i.obj
 0002:00002958       IID_IPropertyNotifySink    0000000180028958     uuid:ocidl_i.obj
 0002:00002968       GUID_NULL                  0000000180028968     uuid:cguid_i.obj
 0002:00002978       CLSID_StdGlobalInterfaceTable 0000000180028978     uuid:cguid_i.obj
 0002:00002988       CLSID_StdComponentCategoriesMgr 0000000180028988     uuid:ieguids.obj
 0002:00002998       IID_IUnknown               0000000180028998     uuid:unknwn_i.obj
 0002:000029b0       __xmm@ffffffffffffffffffffffffffffffff 00000001800289b0     LIBCMT:utility.obj
 0002:000029c0       ??_C@_1EC@JIJBPKFM@?$AAa?$AAp?$AAi?$AA?9?$AAm?$AAs?$AA?9?$AAw?$AAi?$AAn?$AA?9?$AAc?$AAo?$AAr?$AAe@ 00000001800289c0     LIBCMT:thread_safe_statics.obj
 0002:00002a08       ??_C@_1BK@MGMFAEKH@?$AAk?$AAe?$AAr?$AAn?$AAe?$AAl?$AA3?$AA2?$AA?4?$AAd?$AAl?$AAl@ 0000000180028a08     LIBCMT:thread_safe_statics.obj
 0002:00002a28       ??_C@_0BJ@JEBJOJFJ@SleepConditionVariableCS@ 0000000180028a28     LIBCMT:thread_safe_statics.obj
 0002:00002a48       ??_C@_0BJ@PGPPEPCC@WakeAllConditionVariable@ 0000000180028a48     LIBCMT:thread_safe_statics.obj
 0002:00002a61       ?nothrow@std@@3Unothrow_t@1@B 0000000180028a61     LIBCMT:std_nothrow.obj
 0002:00002a78       _pRawDllMain               0000000180028a78     LIBCMT:dll_dllmain.obj
 0002:00002a78       _pDefaultRawDllMain        0000000180028a78     LIBCMT:dll_dllmain.obj
 0002:00002a88       ??_7exception@std@@6B@     0000000180028a88     LIBCMT:throw_bad_alloc.obj
 0002:00002a98       ??_C@_0BC@EOODALEL@Unknown?5exception@ 0000000180028a98     LIBCMT:throw_bad_alloc.obj
 0002:00002ab8       ??_7bad_alloc@std@@6B@     0000000180028ab8     LIBCMT:throw_bad_alloc.obj
 0002:00002ac8       ??_C@_0P@GHFPNOJB@bad?5allocation@ 0000000180028ac8     LIBCMT:throw_bad_alloc.obj
 0002:00002ae0       ??_7bad_array_new_length@std@@6B@ 0000000180028ae0     LIBCMT:throw_bad_alloc.obj
 0002:00002af0       ??_C@_0BF@KINCDENJ@bad?5array?5new?5length@ 0000000180028af0     LIBCMT:throw_bad_alloc.obj
 0002:00002b10       ??_7type_info@@6B@         0000000180028b10     LIBCMT:std_type_info_static.obj
 0002:00002b18       GUID_ATLVer110             0000000180028b18     atls:atlbase.obj
 0002:00002b30       ??_C@_1IC@ONKHOIDK@?$AAE?$AAR?$AAR?$AAO?$AAR?$AA?5?$AA?3?$AA?5?$AAU?$AAn?$AAa?$AAb?$AAl?$AAe?$AA?5@ 0000000180028b30     atls:atlbase.obj
 0002:00002bb8       ??_C@_0N@FJEPLCIH@atlthunk?4dll@ 0000000180028bb8     atls:atlthunk.obj
 0002:00002bc8       ??_C@_0BG@GAKFHCBM@AtlThunk_AllocateData@ 0000000180028bc8     atls:atlthunk.obj
 0002:00002be0       ??_C@_0BC@JKONFIAH@AtlThunk_InitData@ 0000000180028be0     atls:atlthunk.obj
 0002:00002bf8       ??_C@_0BE@IAOEELAK@AtlThunk_DataToCode@ 0000000180028bf8     atls:atlthunk.obj
 0002:00002c10       ??_C@_0BC@GBGKAIPI@AtlThunk_FreeData@ 0000000180028c10     atls:atlthunk.obj
 0002:00002c28       ?s_negLengthTab@FH4@@3QBCB 0000000180028c28     libvcruntime:risctrnsctrl.obj
 0002:00002c38       ?s_shiftTab@FH4@@3QBEB     0000000180028c38     libvcruntime:risctrnsctrl.obj
 0002:00002d88       _pDestructExceptionObject  0000000180028d88     libvcruntime:ehhelpers.obj
 0002:00002d98       ??_7bad_exception@std@@6B@ 0000000180028d98     libvcruntime:frame.obj
 0002:00002da8       ??_C@_0O@DPKOEFFH@bad?5exception@ 0000000180028da8     libvcruntime:frame.obj
 0002:000034d0       ??_C@_08EHJDFFNH@__based?$CI@ 00000001800294d0     libvcruntime:undname.obj
 0002:000034e0       ??_C@_07KOLFKCDI@__cdecl@  00000001800294e0     libvcruntime:undname.obj
 0002:000034e8       ??_C@_08GHMPAG@__pascal@   00000001800294e8     libvcruntime:undname.obj
 0002:000034f8       ??_C@_09IFJBGAPI@__stdcall@ 00000001800294f8     libvcruntime:undname.obj
 0002:00003508       ??_C@_0L@NPHFGOKO@__thiscall@ 0000000180029508     libvcruntime:undname.obj
 0002:00003518       ??_C@_0L@JMKHOMEK@__fastcall@ 0000000180029518     libvcruntime:undname.obj
 0002:00003528       ??_C@_0N@BCKKPABJ@__vectorcall@ 0000000180029528     libvcruntime:undname.obj
 0002:00003538       ??_C@_09HIJEGCPM@__clrcall@ 0000000180029538     libvcruntime:undname.obj
 0002:00003544       ??_C@_06GHPCKEAG@__eabi@   0000000180029544     libvcruntime:undname.obj
 0002:00003550       ??_C@_09IOPIDJLG@__swift_1@ 0000000180029550     libvcruntime:undname.obj
 0002:00003560       ??_C@_09KFNFGKHF@__swift_2@ 0000000180029560     libvcruntime:undname.obj
 0002:00003570       ??_C@_09LMMOFLDE@__swift_3@ 0000000180029570     libvcruntime:undname.obj
 0002:00003580       ??_C@_07JOMMBBKO@__ptr64@  0000000180029580     libvcruntime:undname.obj
 0002:00003588       ??_C@_0L@PILCLIHE@__restrict@ 0000000180029588     libvcruntime:undname.obj
 0002:00003598       ??_C@_0M@GFIIJFMG@__unaligned@ 0000000180029598     libvcruntime:undname.obj
 0002:000035a8       ??_C@_09DHDLOLLB@restrict?$CI@ 00000001800295a8     libvcruntime:undname.obj
 0002:000035b2       ??_C@_00CNPNBAHC@@         00000001800295b2     libvcruntime:undname.obj
 0002:000035b4       ??_C@_04NIHEBCM@?5new@     00000001800295b4     libvcruntime:undname.obj
 0002:000035c0       ??_C@_07FPCDHGMM@?5delete@ 00000001800295c0     libvcruntime:undname.obj
 0002:000035c8       ??_C@_01NEMOKFLO@?$DN@     00000001800295c8     libvcruntime:undname.obj
 0002:000035cc       ??_C@_02GPIOPFAK@?$DO?$DO@ 00000001800295cc     libvcruntime:undname.obj
 0002:000035d0       ??_C@_02FODMEDOG@?$DM?$DM@ 00000001800295d0     libvcruntime:undname.obj
 0002:000035d4       ??_C@_01DCLJPIOD@?$CB@     00000001800295d4     libvcruntime:undname.obj
 0002:000035d8       ??_C@_02EGOFBIJA@?$DN?$DN@ 00000001800295d8     libvcruntime:undname.obj
 0002:000035dc       ??_C@_02FDNJECIE@?$CB?$DN@ 00000001800295dc     libvcruntime:undname.obj
 0002:000035e0       ??_C@_02GPECMEKF@?$FL?$FN@ 00000001800295e0     libvcruntime:undname.obj
 0002:000035e8       ??_C@_08LHJFAFGD@operator@ 00000001800295e8     libvcruntime:undname.obj
 0002:000035f4       ??_C@_02HBOOOICD@?9?$DO@   00000001800295f4     libvcruntime:undname.obj
 0002:000035f8       ??_C@_01NBENCBCI@?$CK@     00000001800295f8     libvcruntime:undname.obj
 0002:000035fc       ??_C@_02ECNGHCIF@?$CL?$CL@ 00000001800295fc     libvcruntime:undname.obj
 0002:00003600       ??_C@_02BAABKJLB@?9?9@     0000000180029600     libvcruntime:undname.obj
 0002:00003604       ??_C@_01JOAMLHOP@?9@       0000000180029604     libvcruntime:undname.obj
 0002:00003608       ??_C@_01MIFGBAGJ@?$CL@     0000000180029608     libvcruntime:undname.obj
 0002:0000360c       ??_C@_01HNPIGOCE@?$CG@     000000018002960c     libvcruntime:undname.obj
 0002:00003610       ??_C@_03MNHNFDLC@?9?$DO?$CK@ 0000000180029610     libvcruntime:undname.obj
 0002:00003614       ??_C@_01KMDKNFGN@?1@       0000000180029614     libvcruntime:undname.obj
 0002:00003618       ??_C@_01FGNFDNOH@?$CF@     0000000180029618     libvcruntime:undname.obj
 0002:0000361c       ??_C@_01MNNFJEPP@?$DM@     000000018002961c     libvcruntime:undname.obj
 0002:00003620       ??_C@_02EHCHHCKH@?$DM?$DN@ 0000000180029620     libvcruntime:undname.obj
 0002:00003624       ??_C@_01PPODPGHN@?$DO@     0000000180029624     libvcruntime:undname.obj
 0002:00003628       ??_C@_02EEKDKGMJ@?$DO?$DN@ 0000000180029628     libvcruntime:undname.obj
 0002:0000362c       ??_C@_01IHBHIGKO@?0@       000000018002962c     libvcruntime:undname.obj
 0002:00003630       ??_C@_02HCKGKOFO@?$CI?$CJ@ 0000000180029630     libvcruntime:undname.obj
 0002:00003634       ??_C@_01PJKLJHI@?$HO@      0000000180029634     libvcruntime:undname.obj
 0002:00003638       ??_C@_01JKBOJNNK@?$FO@     0000000180029638     libvcruntime:undname.obj
 0002:0000363c       ??_C@_01DNKMNLPK@?$HM@     000000018002963c     libvcruntime:undname.obj
 0002:00003640       ??_C@_02PPKAJPJL@?$CG?$CG@ 0000000180029640     libvcruntime:undname.obj
 0002:00003644       ??_C@_02NONPIBCD@?$HM?$HM@ 0000000180029644     libvcruntime:undname.obj
 0002:00003648       ??_C@_02FPIMKNGF@?$CK?$DN@ 0000000180029648     libvcruntime:undname.obj
 0002:0000364c       ??_C@_02FOEOMHFC@?$CL?$DN@ 000000018002964c     libvcruntime:undname.obj
 0002:00003650       ??_C@_02FKMDLLOA@?9?$DN@   0000000180029650     libvcruntime:undname.obj
 0002:00003654       ??_C@_02FJEHGPIO@?1?$DN@   0000000180029654     libvcruntime:undname.obj
 0002:00003658       ??_C@_02FENAOKFI@?$CF?$DN@ 0000000180029658     libvcruntime:undname.obj
 0002:0000365c       ??_C@_03IKFCCPFF@?$DO?$DO?$DN@ 000000018002965c     libvcruntime:undname.obj
 0002:00003660       ??_C@_03CDNPDDLA@?$DM?$DM?$DN@ 0000000180029660     libvcruntime:undname.obj
 0002:00003664       ??_C@_02FGJGFEAB@?$CG?$DN@ 0000000180029664     libvcruntime:undname.obj
 0002:00003668       ??_C@_02DHLNPPGH@?$HM?$DN@ 0000000180029668     libvcruntime:undname.obj
 0002:0000366c       ??_C@_02MHEGNOJ@?$FO?$DN@  000000018002966c     libvcruntime:undname.obj
 0002:00003670       ??_C@_09IFPLHPGF@?$GAvftable?8@ 0000000180029670     libvcruntime:undname.obj
 0002:00003680       ??_C@_09BLBHBJP@?$GAvbtable?8@ 0000000180029680     libvcruntime:undname.obj
 0002:00003690       ??_C@_07FEEIOKP@?$GAvcall?8@ 0000000180029690     libvcruntime:undname.obj
 0002:00003698       ??_C@_08LLFFHHDJ@?$GAtypeof?8@ 0000000180029698     libvcruntime:undname.obj
 0002:000036a8       ??_C@_0BF@KDPPACIK@?$GAlocal?5static?5guard?8@ 00000001800296a8     libvcruntime:undname.obj
 0002:000036c0       ??_C@_08OBABFOLI@?$GAstring?8@ 00000001800296c0     libvcruntime:undname.obj
 0002:000036d0       ??_C@_0BD@JDLKDPAB@?$GAvbase?5destructor?8@ 00000001800296d0     libvcruntime:undname.obj
 0002:000036e8       ??_C@_0BN@DEGPLNFK@?$GAvector?5deleting?5destructor?8@ 00000001800296e8     libvcruntime:undname.obj
 0002:00003708       ??_C@_0BO@OBMKPJIG@?$GAdefault?5constructor?5closure?8@ 0000000180029708     libvcruntime:undname.obj
 0002:00003728       ??_C@_0BN@IMDCHIKM@?$GAscalar?5deleting?5destructor?8@ 0000000180029728     libvcruntime:undname.obj
 0002:00003748       ??_C@_0BO@PFGOCPJJ@?$GAvector?5constructor?5iterator?8@ 0000000180029748     libvcruntime:undname.obj
 0002:00003768       ??_C@_0BN@LFPFMEDL@?$GAvector?5destructor?5iterator?8@ 0000000180029768     libvcruntime:undname.obj
 0002:00003788       ??_C@_0CE@IKBNEHA@?$GAvector?5vbase?5constructor?5itera@ 0000000180029788     libvcruntime:undname.obj
 0002:000037b0       ??_C@_0BL@NILFHHPC@?$GAvirtual?5displacement?5map?8@ 00000001800297b0     libvcruntime:undname.obj
 0002:000037d0       ??_C@_0CB@JONCMFFK@?$GAeh?5vector?5constructor?5iterator@ 00000001800297d0     libvcruntime:undname.obj
 0002:000037f8       ??_C@_0CA@GCEOPDGL@?$GAeh?5vector?5destructor?5iterator?8@ 00000001800297f8     libvcruntime:undname.obj
 0002:00003818       ??_C@_0CH@OOJPLCPH@?$GAeh?5vector?5vbase?5constructor?5it@ 0000000180029818     libvcruntime:undname.obj
 0002:00003840       ??_C@_0BL@LLKPOHJI@?$GAcopy?5constructor?5closure?8@ 0000000180029840     libvcruntime:undname.obj
 0002:00003860       ??_C@_0BA@KBCDOMBN@?$GAudt?5returning?8@ 0000000180029860     libvcruntime:undname.obj
 0002:00003870       ??_C@_03KLGMFNMG@?$GAEH@   0000000180029870     libvcruntime:undname.obj
 0002:00003874       ??_C@_05KHLCHHI@?$GARTTI@  0000000180029874     libvcruntime:undname.obj
 0002:00003880       ??_C@_0BA@KKLDJDLB@?$GAlocal?5vftable?8@ 0000000180029880     libvcruntime:undname.obj
 0002:00003890       ??_C@_0CE@IIHCMGGL@?$GAlocal?5vftable?5constructor?5clos@ 0000000180029890     libvcruntime:undname.obj
 0002:000038b4       ??_C@_06FHBGPFGH@?5new?$FL?$FN@ 00000001800298b4     libvcruntime:undname.obj
 0002:000038c0       ??_C@_09LBNFPBCA@?5delete?$FL?$FN@ 00000001800298c0     libvcruntime:undname.obj
 0002:000038d0       ??_C@_0P@HJKNJFNN@?$GAomni?5callsig?8@ 00000001800298d0     libvcruntime:undname.obj
 0002:000038e0       ??_C@_0BL@CNOONJFP@?$GAplacement?5delete?5closure?8@ 00000001800298e0     libvcruntime:undname.obj
 0002:00003900       ??_C@_0BN@CKNJLHMB@?$GAplacement?5delete?$FL?$FN?5closure?8@ 0000000180029900     libvcruntime:undname.obj
 0002:00003920       ??_C@_0CG@CFDHKGGD@?$GAmanaged?5vector?5constructor?5ite@ 0000000180029920     libvcruntime:undname.obj
 0002:00003948       ??_C@_0CF@IMGKMJNO@?$GAmanaged?5vector?5destructor?5iter@ 0000000180029948     libvcruntime:undname.obj
 0002:00003970       ??_C@_0CG@HLDDJMAG@?$GAeh?5vector?5copy?5constructor?5ite@ 0000000180029970     libvcruntime:undname.obj
 0002:00003998       ??_C@_0CM@FCBBDIGB@?$GAeh?5vector?5vbase?5copy?5construct@ 0000000180029998     libvcruntime:undname.obj
 0002:000039c8       ??_C@_0BL@CLIPGLGB@?$GAdynamic?5initializer?5for?5?8@ 00000001800299c8     libvcruntime:undname.obj
 0002:000039e8       ??_C@_0CB@PDBIFEP@?$GAdynamic?5atexit?5destructor?5for?5@ 00000001800299e8     libvcruntime:undname.obj
 0002:00003a10       ??_C@_0CD@CGAJBKEJ@?$GAvector?5copy?5constructor?5iterat@ 0000000180029a10     libvcruntime:undname.obj
 0002:00003a38       ??_C@_0CJ@GJELGAMM@?$GAvector?5vbase?5copy?5constructor?5@ 0000000180029a38     libvcruntime:undname.obj
 0002:00003a68       ??_C@_0CL@FGIJHLCE@?$GAmanaged?5vector?5copy?5constructo@ 0000000180029a68     libvcruntime:undname.obj
 0002:00003a98       ??_C@_0BM@PMGGMLDN@?$GAlocal?5static?5thread?5guard?8@ 0000000180029a98     libvcruntime:undname.obj
 0002:00003ab8       ??_C@_0N@BDNMDMOL@operator?5?$CC?$CC?5@ 0000000180029ab8     libvcruntime:undname.obj
 0002:00003ac8       ??_C@_0BC@GGEBGALA@operator?5co_await@ 0000000180029ac8     libvcruntime:undname.obj
 0002:00003ae0       ??_C@_0M@GAAIMMOH@operator?$DM?$DN?$DO@ 0000000180029ae0     libvcruntime:undname.obj
 0002:00003af0       ??_C@_0BC@DAFEJGAK@?5Type?5Descriptor?8@ 0000000180029af0     libvcruntime:undname.obj
 0002:00003b08       ??_C@_0BM@LDKODKLH@?5Base?5Class?5Descriptor?5at?5?$CI@ 0000000180029b08     libvcruntime:undname.obj
 0002:00003b28       ??_C@_0BD@LGICGFMM@?5Base?5Class?5Array?8@ 0000000180029b28     libvcruntime:undname.obj
 0002:00003b40       ??_C@_0BN@MECKDCOJ@?5Class?5Hierarchy?5Descriptor?8@ 0000000180029b40     libvcruntime:undname.obj
 0002:00003b60       ??_C@_0BK@CFCOFLF@?5Complete?5Object?5Locator?8@ 0000000180029b60     libvcruntime:undname.obj
 0002:00003b80       ??_C@_0BG@JNJLAMPM@?$GAanonymous?5namespace?8@ 0000000180029b80     libvcruntime:undname.obj
 0002:00003bb0       ??_C@_1DM@KHCHBNEB@?$AAa?$AAp?$AAi?$AA?9?$AAm?$AAs?$AA?9?$AAw?$AAi?$AAn?$AA?9?$AAc?$AAo?$AAr?$AAe@ 0000000180029bb0     libvcruntime:winapi_downlevel.obj
 0002:00003bf0       ??_C@_1DK@LPPGFMPP@?$AAa?$AAp?$AAi?$AA?9?$AAm?$AAs?$AA?9?$AAw?$AAi?$AAn?$AA?9?$AAc?$AAo?$AAr?$AAe@ 0000000180029bf0     libvcruntime:winapi_downlevel.obj
 0002:00003c30       ??_C@_1BC@GDMECMAK@?$AAk?$AAe?$AAr?$AAn?$AAe?$AAl?$AA3?$AA2@ 0000000180029c30     libvcruntime:winapi_downlevel.obj
 0002:00003c48       ??_C@_1BA@PFFKHIOG@?$AAa?$AAp?$AAi?$AA?9?$AAm?$AAs?$AA?9@ 0000000180029c48     libvcruntime:winapi_downlevel.obj
 0002:00003c60       ??_C@_08KNHFBNJ@FlsAlloc@  0000000180029c60     libvcruntime:winapi_downlevel.obj
 0002:00003c78       ??_C@_07PEJMOBNF@FlsFree@  0000000180029c78     libvcruntime:winapi_downlevel.obj
 0002:00003c88       ??_C@_0M@GDNOONDI@FlsGetValue@ 0000000180029c88     libvcruntime:winapi_downlevel.obj
 0002:00003ca0       ??_C@_0M@JCPCPOEF@FlsSetValue@ 0000000180029ca0     libvcruntime:winapi_downlevel.obj
 0002:00003cb8       ??_C@_0BM@HCFOFFN@InitializeCriticalSectionEx@ 0000000180029cb8     libvcruntime:winapi_downlevel.obj
 0002:00003e50       ?format_validation_lookup_table_spectre@__crt_stdio_output@@3V?$spectre_mitigated_lookup_table@Ustate_transition_pair@__crt_stdio_output@@$0IA@@1@B 0000000180029e50     libucrt:output.obj
 0002:00003f50       ??_C@_1O@CEDCILHN@?$AA?$CI?$AAn?$AAu?$AAl?$AAl?$AA?$CJ@ 0000000180029f50     libucrt:output.obj
 0002:00003f60       ??_C@_06OJHGLDPL@?$CInull?$CJ@ 0000000180029f60     libucrt:output.obj
 0002:00003f70       __acrt_exception_action_table 0000000180029f70     libucrt:exception_filter.obj
 0002:00004030       __acrt_signal_action_table_count 000000018002a030     libucrt:exception_filter.obj
 0002:00004038       __acrt_signal_action_first_fpe_index 000000018002a038     libucrt:exception_filter.obj
 0002:00004040       __acrt_signal_action_fpe_count 000000018002a040     libucrt:exception_filter.obj
 0002:00004098       ??_C@_1BI@BGOHAHKC@?$AAm?$AAs?$AAc?$AAo?$AAr?$AAe?$AAe?$AA?4?$AAd?$AAl?$AAl@ 000000018002a098     libucrt:exit.obj
 0002:000040b0       ??_C@_0P@MIGLKIOC@CorExitProcess@ 000000018002a0b0     libucrt:exit.obj
 0002:00004210       __lc_time_c                000000018002a210     libucrt:nlsdata.obj
 0002:000044d0       ??_C@_03KOEHGMDN@Sun@      000000018002a4d0     libucrt:nlsdata.obj
 0002:000044d4       ??_C@_03PDAGKDH@Mon@       000000018002a4d4     libucrt:nlsdata.obj
 0002:000044d8       ??_C@_03NAGEINEP@Tue@      000000018002a4d8     libucrt:nlsdata.obj
 0002:000044dc       ??_C@_03MHOMLAJA@Wed@      000000018002a4dc     libucrt:nlsdata.obj
 0002:000044e0       ??_C@_03IOFIKPDN@Thu@      000000018002a4e0     libucrt:nlsdata.obj
 0002:000044e4       ??_C@_03IDIOELNC@Fri@      000000018002a4e4     libucrt:nlsdata.obj
 0002:000044e8       ??_C@_03FEFJNEK@Sat@       000000018002a4e8     libucrt:nlsdata.obj
 0002:000044ec       ??_C@_06OOPIFAJ@Sunday@    000000018002a4ec     libucrt:nlsdata.obj
 0002:000044f4       ??_C@_06JLEDEDGH@Monday@   000000018002a4f4     libucrt:nlsdata.obj
 0002:00004500       ??_C@_07BAAGCFCM@Tuesday@  000000018002a500     libucrt:nlsdata.obj
 0002:00004508       ??_C@_09DLIGFAKA@Wednesday@ 000000018002a508     libucrt:nlsdata.obj
 0002:00004518       ??_C@_08HACCIKIA@Thursday@ 000000018002a518     libucrt:nlsdata.obj
 0002:00004524       ??_C@_06JECMNKMI@Friday@   000000018002a524     libucrt:nlsdata.obj
 0002:00004530       ??_C@_08INBOOONO@Saturday@ 000000018002a530     libucrt:nlsdata.obj
 0002:0000453c       ??_C@_03JIHJHPIE@Jan@      000000018002a53c     libucrt:nlsdata.obj
 0002:00004540       ??_C@_03HJBDCHOM@Feb@      000000018002a540     libucrt:nlsdata.obj
 0002:00004544       ??_C@_03ODNJBKGA@Mar@      000000018002a544     libucrt:nlsdata.obj
 0002:00004548       ??_C@_03LEOLGMJP@Apr@      000000018002a548     libucrt:nlsdata.obj
 0002:0000454c       ??_C@_03CNMDKL@May@        000000018002a54c     libucrt:nlsdata.obj
 0002:00004550       ??_C@_03IDFGHECI@Jun@      000000018002a550     libucrt:nlsdata.obj
 0002:00004554       ??_C@_03LBGABGKK@Jul@      000000018002a554     libucrt:nlsdata.obj
 0002:00004558       ??_C@_03IFJFEIGA@Aug@      000000018002a558     libucrt:nlsdata.obj
 0002:0000455c       ??_C@_03GGCAPAJC@Sep@      000000018002a55c     libucrt:nlsdata.obj
 0002:00004560       ??_C@_03BMAOKBAD@Oct@      000000018002a560     libucrt:nlsdata.obj
 0002:00004564       ??_C@_03JPJOFNIA@Nov@      000000018002a564     libucrt:nlsdata.obj
 0002:00004568       ??_C@_03MKABNOCG@Dec@      000000018002a568     libucrt:nlsdata.obj
 0002:00004570       ??_C@_07CGJPFGJA@January@  000000018002a570     libucrt:nlsdata.obj
 0002:00004578       ??_C@_08GNJGEPFN@February@ 000000018002a578     libucrt:nlsdata.obj
 0002:00004584       ??_C@_05HPCKOFNC@March@    000000018002a584     libucrt:nlsdata.obj
 0002:0000458c       ??_C@_05DMJDNLEJ@April@    000000018002a58c     libucrt:nlsdata.obj
 0002:00004594       ??_C@_04CNLMGBGM@June@     000000018002a594     libucrt:nlsdata.obj
 0002:0000459c       ??_C@_04MIEPOIFP@July@     000000018002a59c     libucrt:nlsdata.obj
 0002:000045a4       ??_C@_06LBBHFDDG@August@   000000018002a5a4     libucrt:nlsdata.obj
 0002:000045b0       ??_C@_09BHHEALKD@September@ 000000018002a5b0     libucrt:nlsdata.obj
 0002:000045c0       ??_C@_07JJNFCEND@October@  000000018002a5c0     libucrt:nlsdata.obj
 0002:000045c8       ??_C@_08HCHEGEOA@November@ 000000018002a5c8     libucrt:nlsdata.obj
 0002:000045d8       ??_C@_08EDHMEBNP@December@ 000000018002a5d8     libucrt:nlsdata.obj
 0002:000045e4       ??_C@_02DEDBPAFC@AM@       000000018002a5e4     libucrt:nlsdata.obj
 0002:000045e8       ??_C@_02CJNFDJBF@PM@       000000018002a5e8     libucrt:nlsdata.obj
 0002:000045f0       ??_C@_08BPBNCDIB@MM?1dd?1yy@ 000000018002a5f0     libucrt:nlsdata.obj
 0002:00004600       ??_C@_0BE@CKGJFCPC@dddd?0?5MMMM?5dd?0?5yyyy@ 000000018002a600     libucrt:nlsdata.obj
 0002:00004618       ??_C@_08JCCMCCIL@HH?3mm?3ss@ 000000018002a618     libucrt:nlsdata.obj
 0002:00004628       ??_C@_17MBGCMIPB@?$AAS?$AAu?$AAn@ 000000018002a628     libucrt:nlsdata.obj
 0002:00004630       ??_C@_17KBOMKBF@?$AAM?$AAo?$AAn@ 000000018002a630     libucrt:nlsdata.obj
 0002:00004638       ??_C@_17BMKGEGOJ@?$AAT?$AAu?$AAe@ 000000018002a638     libucrt:nlsdata.obj
 0002:00004640       ??_C@_17CJEDCEPE@?$AAW?$AAe?$AAd@ 000000018002a640     libucrt:nlsdata.obj
 0002:00004648       ??_C@_17PDPHAADD@?$AAT?$AAh?$AAu@ 000000018002a648     libucrt:nlsdata.obj
 0002:00004650       ??_C@_17HFOLPPLP@?$AAF?$AAr?$AAi@ 000000018002a650     libucrt:nlsdata.obj
 0002:00004658       ??_C@_17GGIBDPIH@?$AAS?$AAa?$AAt@ 000000018002a658     libucrt:nlsdata.obj
 0002:00004660       ??_C@_1O@IHNHDHPB@?$AAS?$AAu?$AAn?$AAd?$AAa?$AAy@ 000000018002a660     libucrt:nlsdata.obj
 0002:00004670       ??_C@_1O@MMNBFLIA@?$AAM?$AAo?$AAn?$AAd?$AAa?$AAy@ 000000018002a670     libucrt:nlsdata.obj
 0002:00004680       ??_C@_1BA@ENFBFFEK@?$AAT?$AAu?$AAe?$AAs?$AAd?$AAa?$AAy@ 000000018002a680     libucrt:nlsdata.obj
 0002:00004690       ??_C@_1BE@EBOGMDOH@?$AAW?$AAe?$AAd?$AAn?$AAe?$AAs?$AAd?$AAa?$AAy@ 000000018002a690     libucrt:nlsdata.obj
 0002:000046a8       ??_C@_1BC@HHMNLIHE@?$AAT?$AAh?$AAu?$AAr?$AAs?$AAd?$AAa?$AAy@ 000000018002a6a8     libucrt:nlsdata.obj
 0002:000046c0       ??_C@_1O@PDICJHAG@?$AAF?$AAr?$AAi?$AAd?$AAa?$AAy@ 000000018002a6c0     libucrt:nlsdata.obj
 0002:000046d0       ??_C@_1BC@ENMNNPAJ@?$AAS?$AAa?$AAt?$AAu?$AAr?$AAd?$AAa?$AAy@ 000000018002a6d0     libucrt:nlsdata.obj
 0002:000046e8       ??_C@_17DKNBKCHM@?$AAJ?$AAa?$AAn@ 000000018002a6e8     libucrt:nlsdata.obj
 0002:000046f0       ??_C@_17LMDJEKJN@?$AAF?$AAe?$AAb@ 000000018002a6f0     libucrt:nlsdata.obj
 0002:000046f8       ??_C@_17CKNLEDEC@?$AAM?$AAa?$AAr@ 000000018002a6f8     libucrt:nlsdata.obj
 0002:00004700       ??_C@_17LFPOIHDD@?$AAA?$AAp?$AAr@ 000000018002a700     libucrt:nlsdata.obj
 0002:00004708       ??_C@_17PNNKMEED@?$AAM?$AAa?$AAy@ 000000018002a708     libucrt:nlsdata.obj
 0002:00004710       ??_C@_17KCJGOCPB@?$AAJ?$AAu?$AAn@ 000000018002a710     libucrt:nlsdata.obj
 0002:00004718       ??_C@_17IJPCKHK@?$AAJ?$AAu?$AAl@ 000000018002a718     libucrt:nlsdata.obj
 0002:00004720       ??_C@_17ICPELBCN@?$AAA?$AAu?$AAg@ 000000018002a720     libucrt:nlsdata.obj
 0002:00004728       ??_C@_17HCHCOKMG@?$AAS?$AAe?$AAp@ 000000018002a728     libucrt:nlsdata.obj
 0002:00004730       ??_C@_17FNLKOI@?$AAO?$AAc?$AAt@ 000000018002a730     libucrt:nlsdata.obj
 0002:00004738       ??_C@_17BBDMLCIG@?$AAN?$AAo?$AAv@ 000000018002a738     libucrt:nlsdata.obj
 0002:00004740       ??_C@_17EGKACKIF@?$AAD?$AAe?$AAc@ 000000018002a740     libucrt:nlsdata.obj
 0002:00004748       ??_C@_1BA@EFMEIEBA@?$AAJ?$AAa?$AAn?$AAu?$AAa?$AAr?$AAy@ 000000018002a748     libucrt:nlsdata.obj
 0002:00004758       ??_C@_1BC@JGDDFFAM@?$AAF?$AAe?$AAb?$AAr?$AAu?$AAa?$AAr?$AAy@ 000000018002a758     libucrt:nlsdata.obj
 0002:00004770       ??_C@_1M@IKEENEDF@?$AAM?$AAa?$AAr?$AAc?$AAh@ 000000018002a770     libucrt:nlsdata.obj
 0002:00004780       ??_C@_1M@GJNLMHFD@?$AAA?$AAp?$AAr?$AAi?$AAl@ 000000018002a780     libucrt:nlsdata.obj
 0002:00004790       ??_C@_19EPFLPGAP@?$AAJ?$AAu?$AAn?$AAe@ 000000018002a790     libucrt:nlsdata.obj
 0002:000047a0       ??_C@_19BIFMLPCD@?$AAJ?$AAu?$AAl?$AAy@ 000000018002a7a0     libucrt:nlsdata.obj
 0002:000047b0       ??_C@_1O@PAHLKOAC@?$AAA?$AAu?$AAg?$AAu?$AAs?$AAt@ 000000018002a7b0     libucrt:nlsdata.obj
 0002:000047c0       ??_C@_1BE@DKAAMBJL@?$AAS?$AAe?$AAp?$AAt?$AAe?$AAm?$AAb?$AAe?$AAr@ 000000018002a7c0     libucrt:nlsdata.obj
 0002:000047d8       ??_C@_1BA@EPANDLNG@?$AAO?$AAc?$AAt?$AAo?$AAb?$AAe?$AAr@ 000000018002a7d8     libucrt:nlsdata.obj
 0002:000047e8       ??_C@_1BC@BGLIFPF@?$AAN?$AAo?$AAv?$AAe?$AAm?$AAb?$AAe?$AAr@ 000000018002a7e8     libucrt:nlsdata.obj
 0002:00004800       ??_C@_1BC@FEMKIFH@?$AAD?$AAe?$AAc?$AAe?$AAm?$AAb?$AAe?$AAr@ 000000018002a800     libucrt:nlsdata.obj
 0002:00004814       ??_C@_15ODEHAHHF@?$AAA?$AAM@ 000000018002a814     libucrt:nlsdata.obj
 0002:0000481c       ??_C@_15CLMNNGEL@?$AAP?$AAM@ 000000018002a81c     libucrt:nlsdata.obj
 0002:00004828       ??_C@_1BC@IEBCMHCM@?$AAM?$AAM?$AA?1?$AAd?$AAd?$AA?1?$AAy?$AAy@ 000000018002a828     libucrt:nlsdata.obj
 0002:00004840       ??_C@_1CI@KNAKOEBC@?$AAd?$AAd?$AAd?$AAd?$AA?0?$AA?5?$AAM?$AAM?$AAM?$AAM?$AA?5?$AAd?$AAd?$AA?0?$AA?5@ 000000018002a840     libucrt:nlsdata.obj
 0002:00004868       ??_C@_1BC@GDGBMEMK@?$AAH?$AAH?$AA?3?$AAm?$AAm?$AA?3?$AAs?$AAs@ 000000018002a868     libucrt:nlsdata.obj
 0002:00004880       ??_C@_1M@BMHNFIME@?$AAe?$AAn?$AA?9?$AAU?$AAS@ 000000018002a880     libucrt:nlsdata.obj
 0002:00004930       ??_C@_1EA@JGEFHKEI@?$AAa?$AAp?$AAi?$AA?9?$AAm?$AAs?$AA?9?$AAw?$AAi?$AAn?$AA?9?$AAc?$AAo?$AAr?$AAe@ 000000018002a930     libucrt:winapi_thunks.obj
 0002:00004970       ??_C@_1DI@IJCEHOCB@?$AAa?$AAp?$AAi?$AA?9?$AAm?$AAs?$AA?9?$AAw?$AAi?$AAn?$AA?9?$AAc?$AAo?$AAr?$AAe@ 000000018002a970     libucrt:winapi_thunks.obj
 0002:000049b0       ??_C@_1EI@MPIAOHOC@?$AAa?$AAp?$AAi?$AA?9?$AAm?$AAs?$AA?9?$AAw?$AAi?$AAn?$AA?9?$AAc?$AAo?$AAr?$AAe@ 000000018002a9b0     libucrt:winapi_thunks.obj
 0002:00004a00       ??_C@_1FK@FPHCKFIE@?$AAa?$AAp?$AAi?$AA?9?$AAm?$AAs?$AA?9?$AAw?$AAi?$AAn?$AA?9?$AAc?$AAo?$AAr?$AAe@ 000000018002aa00     libucrt:winapi_thunks.obj
 0002:00004a60       ??_C@_1EM@DILCGIIO@?$AAa?$AAp?$AAi?$AA?9?$AAm?$AAs?$AA?9?$AAw?$AAi?$AAn?$AA?9?$AAc?$AAo?$AAr?$AAe@ 000000018002aa60     libucrt:winapi_thunks.obj
 0002:00004ab0       ??_C@_1DM@LNCGDDPN@?$AAa?$AAp?$AAi?$AA?9?$AAm?$AAs?$AA?9?$AAw?$AAi?$AAn?$AA?9?$AAc?$AAo?$AAr?$AAe@ 000000018002aab0     libucrt:winapi_thunks.obj
 0002:00004af0       ??_C@_1DO@FPAPJEMD@?$AAa?$AAp?$AAi?$AA?9?$AAm?$AAs?$AA?9?$AAw?$AAi?$AAn?$AA?9?$AAc?$AAo?$AAr?$AAe@ 000000018002aaf0     libucrt:winapi_thunks.obj
 0002:00004b30       ??_C@_1DK@NDHNAHIO@?$AAa?$AAp?$AAi?$AA?9?$AAm?$AAs?$AA?9?$AAw?$AAi?$AAn?$AA?9?$AAc?$AAo?$AAr?$AAe@ 000000018002ab30     libucrt:winapi_thunks.obj
 0002:00004b70       ??_C@_1DM@KGHDGBCM@?$AAa?$AAp?$AAi?$AA?9?$AAm?$AAs?$AA?9?$AAw?$AAi?$AAn?$AA?9?$AAc?$AAo?$AAr?$AAe@ 000000018002ab70     libucrt:winapi_thunks.obj
 0002:00004bb0       ??_C@_1EO@IJIOEFOH@?$AAa?$AAp?$AAi?$AA?9?$AAm?$AAs?$AA?9?$AAw?$AAi?$AAn?$AA?9?$AAr?$AAt?$AAc?$AAo@ 000000018002abb0     libucrt:winapi_thunks.obj
 0002:00004c00       ??_C@_1FG@HHGEKANL@?$AAa?$AAp?$AAi?$AA?9?$AAm?$AAs?$AA?9?$AAw?$AAi?$AAn?$AA?9?$AAs?$AAe?$AAc?$AAu@ 000000018002ac00     libucrt:winapi_thunks.obj
 0002:00004c60       ??_C@_1EG@DBIOJECG@?$AAe?$AAx?$AAt?$AA?9?$AAm?$AAs?$AA?9?$AAw?$AAi?$AAn?$AA?9?$AAn?$AAt?$AAu?$AAs@ 000000018002ac60     libucrt:winapi_thunks.obj
 0002:00004cb0       ??_C@_1EO@FIHMJCLF@?$AAe?$AAx?$AAt?$AA?9?$AAm?$AAs?$AA?9?$AAw?$AAi?$AAn?$AA?9?$AAn?$AAt?$AAu?$AAs@ 000000018002acb0     libucrt:winapi_thunks.obj
 0002:00004d00       ??_C@_1BC@DNHGCMLG@?$AAa?$AAd?$AAv?$AAa?$AAp?$AAi?$AA3?$AA2@ 000000018002ad00     libucrt:winapi_thunks.obj
 0002:00004d18       ??_C@_1M@OAIMIKLP@?$AAn?$AAt?$AAd?$AAl?$AAl@ 000000018002ad18     libucrt:winapi_thunks.obj
 0002:00004d30       ??_C@_1EG@DPGNFKGC@?$AAa?$AAp?$AAi?$AA?9?$AAm?$AAs?$AA?9?$AAw?$AAi?$AAn?$AA?9?$AAa?$AAp?$AAp?$AAm@ 000000018002ad30     libucrt:winapi_thunks.obj
 0002:00004d78       ??_C@_1O@BCCLBEOE@?$AAu?$AAs?$AAe?$AAr?$AA3?$AA2@ 000000018002ad78     libucrt:winapi_thunks.obj
 0002:00004d88       ??_C@_1BA@IAIFMGEF@?$AAe?$AAx?$AAt?$AA?9?$AAm?$AAs?$AA?9@ 000000018002ad88     libucrt:winapi_thunks.obj
 0002:00004da0       ??_C@_0BA@FHFNEAED@AreFileApisANSI@ 000000018002ada0     libucrt:winapi_thunks.obj
 0002:00004dc0       ??_C@_0O@KKBNKAPF@LCMapStringEx@ 000000018002adc0     libucrt:winapi_thunks.obj
 0002:00004dd8       ??_C@_0BB@HBDEELFH@LocaleNameToLCID@ 000000018002add8     libucrt:winapi_thunks.obj
 0002:00004df0       ??_C@_0CF@OJOFEIGO@AppPolicyGetProcessTerminationM@ 000000018002adf0     libucrt:winapi_thunks.obj
 0002:00004e20       ??_C@_0BI@BKLFFAPO@SetThreadStackGuarantee@ 000000018002ae20     libucrt:winapi_thunks.obj
 0002:00004ec0       ??_C@_03OEIAHPBN@INF@      000000018002aec0     libucrt:cvt.obj
 0002:00004ec4       ??_C@_03OJHLLCGB@inf@      000000018002aec4     libucrt:cvt.obj
 0002:00004ec8       ??_C@_03LKNCIKJB@NAN@      000000018002aec8     libucrt:cvt.obj
 0002:00004ecc       ??_C@_03LHCJEHON@nan@      000000018002aecc     libucrt:cvt.obj
 0002:00004ed0       ??_C@_09OFJJIMPC@NAN?$CISNAN?$CJ@ 000000018002aed0     libucrt:cvt.obj
 0002:00004ee0       ??_C@_09IPFBKMDL@nan?$CIsnan?$CJ@ 000000018002aee0     libucrt:cvt.obj
 0002:00004ef0       ??_C@_08IKHNHAJ@NAN?$CIIND?$CJ@ 000000018002aef0     libucrt:cvt.obj
 0002:00004f00       ??_C@_08OFCDMILK@nan?$CIind?$CJ@ 000000018002af00     libucrt:cvt.obj
 0002:00004f0c       ??_C@_05KLBDPFGC@e?$CL000@ 000000018002af0c     libucrt:cvt.obj
 0002:00004f38       ??_C@_1M@HPNHIDJI@?$AAj?$AAa?$AA?9?$AAJ?$AAP@ 000000018002af38     libucrt:mbctype.obj
 0002:00004f48       ??_C@_1M@BIBDDEMK@?$AAz?$AAh?$AA?9?$AAC?$AAN@ 000000018002af48     libucrt:mbctype.obj
 0002:00004f58       ??_C@_1M@JLOOOEGK@?$AAk?$AAo?$AA?9?$AAK?$AAR@ 000000018002af58     libucrt:mbctype.obj
 0002:00004f68       ??_C@_1M@CLNBBOPM@?$AAz?$AAh?$AA?9?$AAT?$AAW@ 000000018002af68     libucrt:mbctype.obj
 0002:00004f80       __newctype                 000000018002af80     libucrt:ctype.obj
 0002:00005280       __newclmap                 000000018002b280     libucrt:ctype.obj
 0002:00005400       __newcumap                 000000018002b400     libucrt:ctype.obj
 0002:00005580       ??_C@_15PJPFLCCM@?$AAu?$AAk@ 000000018002b580     libucrt:get_qualified_locale.obj
 0002:000063d0       ??_C@_15EMKDOKLE@?$AAa?$AAr@ 000000018002c3d0     libucrt:lcidtoname_downlevel.obj
 0002:000063d8       ??_C@_15KNPADPLH@?$AAb?$AAg@ 000000018002c3d8     libucrt:lcidtoname_downlevel.obj
 0002:000063e0       ??_C@_15EDMHLDMO@?$AAc?$AAa@ 000000018002c3e0     libucrt:lcidtoname_downlevel.obj
 0002:000063e8       ??_C@_1O@BPEAJADD@?$AAz?$AAh?$AA?9?$AAC?$AAH?$AAS@ 000000018002c3e8     libucrt:lcidtoname_downlevel.obj
 0002:000063f8       ??_C@_15LJNHCMNK@?$AAc?$AAs@ 000000018002c3f8     libucrt:lcidtoname_downlevel.obj
 0002:00006400       ??_C@_15FOMCIDHG@?$AAd?$AAa@ 000000018002c400     libucrt:lcidtoname_downlevel.obj
 0002:00006408       ??_C@_15NBKABECB@?$AAd?$AAe@ 000000018002c408     libucrt:lcidtoname_downlevel.obj
 0002:00006410       ??_C@_15GHPEIIAO@?$AAe?$AAl@ 000000018002c410     libucrt:lcidtoname_downlevel.obj
 0002:00006418       ??_C@_15MNPNEAIF@?$AAe?$AAn@ 000000018002c418     libucrt:lcidtoname_downlevel.obj
 0002:00006420       ??_C@_15GPIOMPMH@?$AAe?$AAs@ 000000018002c420     libucrt:lcidtoname_downlevel.obj
 0002:00006428       ??_C@_15NGLOAKJC@?$AAf?$AAi@ 000000018002c428     libucrt:lcidtoname_downlevel.obj
 0002:00006430       ??_C@_15FBKGNKAM@?$AAf?$AAr@ 000000018002c430     libucrt:lcidtoname_downlevel.obj
 0002:00006438       ??_C@_15KGGCNEFK@?$AAh?$AAe@ 000000018002c438     libucrt:lcidtoname_downlevel.obj
 0002:00006440       ??_C@_15PGHLIDMF@?$AAh?$AAu@ 000000018002c440     libucrt:lcidtoname_downlevel.obj
 0002:00006448       ??_C@_15BIEMAPLM@?$AAi?$AAs@ 000000018002c448     libucrt:lcidtoname_downlevel.obj
 0002:00006450       ??_C@_15IFJLDHAF@?$AAi?$AAt@ 000000018002c450     libucrt:lcidtoname_downlevel.obj
 0002:00006458       ??_C@_15GEMIOCAG@?$AAj?$AAa@ 000000018002c458     libucrt:lcidtoname_downlevel.obj
 0002:00006460       ??_C@_15EPELEGJA@?$AAk?$AAo@ 000000018002c460     libucrt:lcidtoname_downlevel.obj
 0002:00006468       ??_C@_15NDDHIMN@?$AAn?$AAl@ 000000018002c468     libucrt:lcidtoname_downlevel.obj
 0002:00006470       ??_C@_15BPIGNHCD@?$AAn?$AAo@ 000000018002c470     libucrt:lcidtoname_downlevel.obj
 0002:00006478       ??_C@_15DEOPBLCG@?$AAp?$AAl@ 000000018002c478     libucrt:lcidtoname_downlevel.obj
 0002:00006480       ??_C@_15KBECGEFG@?$AAp?$AAt@ 000000018002c480     libucrt:lcidtoname_downlevel.obj
 0002:00006488       ??_C@_15GLJCBFMD@?$AAr?$AAo@ 000000018002c488     libucrt:lcidtoname_downlevel.obj
 0002:00006490       ??_C@_15FEDGKCDI@?$AAr?$AAu@ 000000018002c490     libucrt:lcidtoname_downlevel.obj
 0002:00006498       ??_C@_15GLKMLLHM@?$AAh?$AAr@ 000000018002c498     libucrt:lcidtoname_downlevel.obj
 0002:000064a0       ??_C@_15CPKMFBDB@?$AAs?$AAk@ 000000018002c4a0     libucrt:lcidtoname_downlevel.obj
 0002:000064a8       ??_C@_15BAAIOGMK@?$AAs?$AAq@ 000000018002c4a8     libucrt:lcidtoname_downlevel.obj
 0002:000064b0       ??_C@_15INNPNOHD@?$AAs?$AAv@ 000000018002c4b0     libucrt:lcidtoname_downlevel.obj
 0002:000064b8       ??_C@_15CABMMOGH@?$AAt?$AAh@ 000000018002c4b8     libucrt:lcidtoname_downlevel.obj
 0002:000064c0       ??_C@_15BPLIHJJM@?$AAt?$AAr@ 000000018002c4c0     libucrt:lcidtoname_downlevel.obj
 0002:000064c8       ??_C@_15NEOEKKDJ@?$AAu?$AAr@ 000000018002c4c8     libucrt:lcidtoname_downlevel.obj
 0002:000064d0       ??_C@_15NFICGAJK@?$AAi?$AAd@ 000000018002c4d0     libucrt:lcidtoname_downlevel.obj
 0002:000064d8       ??_C@_15HPJPHDM@?$AAb?$AAe@ 000000018002c4d8     libucrt:lcidtoname_downlevel.obj
 0002:000064e0       ??_C@_15LCHLGJII@?$AAs?$AAl@ 000000018002c4e0     libucrt:lcidtoname_downlevel.obj
 0002:000064e8       ??_C@_15PCFJPHHO@?$AAe?$AAt@ 000000018002c4e8     libucrt:lcidtoname_downlevel.obj
 0002:000064f0       ??_C@_15HPFPGODN@?$AAl?$AAv@ 000000018002c4f0     libucrt:lcidtoname_downlevel.obj
 0002:000064f8       ??_C@_15NFFGKGLG@?$AAl?$AAt@ 000000018002c4f8     libucrt:lcidtoname_downlevel.obj
 0002:00006500       ??_C@_15BDAKCCHN@?$AAf?$AAa@ 000000018002c500     libucrt:lcidtoname_downlevel.obj
 0002:00006508       ??_C@_15NFGIAIAJ@?$AAv?$AAi@ 000000018002c508     libucrt:lcidtoname_downlevel.obj
 0002:00006510       ??_C@_15LMKNDMHN@?$AAh?$AAy@ 000000018002c510     libucrt:lcidtoname_downlevel.obj
 0002:00006518       ??_C@_15IJBHMCFL@?$AAa?$AAz@ 000000018002c518     libucrt:lcidtoname_downlevel.obj
 0002:00006520       ??_C@_15EKOFJABL@?$AAe?$AAu@ 000000018002c520     libucrt:lcidtoname_downlevel.obj
 0002:00006528       ??_C@_15BGHADCNK@?$AAm?$AAk@ 000000018002c528     libucrt:lcidtoname_downlevel.obj
 0002:00006530       ??_C@_15JDNICKHM@?$AAa?$AAf@ 000000018002c530     libucrt:lcidtoname_downlevel.obj
 0002:00006538       ??_C@_15KPJEDBKD@?$AAk?$AAa@ 000000018002c538     libucrt:lcidtoname_downlevel.obj
 0002:00006540       ??_C@_15PDNFFFEO@?$AAf?$AAo@ 000000018002c540     libucrt:lcidtoname_downlevel.obj
 0002:00006548       ??_C@_15OMLEGLOC@?$AAh?$AAi@ 000000018002c548     libucrt:lcidtoname_downlevel.obj
 0002:00006550       ??_C@_15IDNNENKK@?$AAm?$AAs@ 000000018002c550     libucrt:lcidtoname_downlevel.obj
 0002:00006558       ??_C@_15MACJNBMH@?$AAk?$AAk@ 000000018002c558     libucrt:lcidtoname_downlevel.obj
 0002:00006560       ??_C@_15DKDJEOND@?$AAk?$AAy@ 000000018002c560     libucrt:lcidtoname_downlevel.obj
 0002:00006568       ??_C@_15DFGDLJBG@?$AAs?$AAw@ 000000018002c568     libucrt:lcidtoname_downlevel.obj
 0002:00006570       ??_C@_15BBFAICNG@?$AAu?$AAz@ 000000018002c570     libucrt:lcidtoname_downlevel.obj
 0002:00006578       ??_C@_15DKNDCGEA@?$AAt?$AAt@ 000000018002c578     libucrt:lcidtoname_downlevel.obj
 0002:00006580       ??_C@_15MGIFMDPL@?$AAp?$AAa@ 000000018002c580     libucrt:lcidtoname_downlevel.obj
 0002:00006588       ??_C@_15HCNDBBA@?$AAg?$AAu@ 000000018002c588     libucrt:lcidtoname_downlevel.obj
 0002:00006590       ??_C@_15FNBEIBON@?$AAt?$AAa@ 000000018002c590     libucrt:lcidtoname_downlevel.obj
 0002:00006598       ??_C@_15NCHGBGLK@?$AAt?$AAe@ 000000018002c598     libucrt:lcidtoname_downlevel.obj
 0002:000065a0       ??_C@_15PHPHCBPF@?$AAk?$AAn@ 000000018002c5a0     libucrt:lcidtoname_downlevel.obj
 0002:000065a8       ??_C@_15DLGBCKMP@?$AAm?$AAr@ 000000018002c5a8     libucrt:lcidtoname_downlevel.obj
 0002:000065b0       ??_C@_15EABBLBFF@?$AAs?$AAa@ 000000018002c5b0     libucrt:lcidtoname_downlevel.obj
 0002:000065b8       ??_C@_15CBKOMCOI@?$AAm?$AAn@ 000000018002c5b8     libucrt:lcidtoname_downlevel.obj
 0002:000065c0       ??_C@_15CKDMCJAF@?$AAg?$AAl@ 000000018002c5c0     libucrt:lcidtoname_downlevel.obj
 0002:000065c8       ??_C@_17CNJFBPG@?$AAk?$AAo?$AAk@ 000000018002c5c8     libucrt:lcidtoname_downlevel.obj
 0002:000065d0       ??_C@_17FFBJICPL@?$AAs?$AAy?$AAr@ 000000018002c5d0     libucrt:lcidtoname_downlevel.obj
 0002:000065d8       ??_C@_17KPNDCPAF@?$AAd?$AAi?$AAv@ 000000018002c5d8     libucrt:lcidtoname_downlevel.obj
 0002:000065e0       ??_C@_1M@OKAHONE@?$AAa?$AAr?$AA?9?$AAS?$AAA@ 000000018002c5e0     libucrt:lcidtoname_downlevel.obj
 0002:000065f0       ??_C@_1M@FFFIGIGK@?$AAb?$AAg?$AA?9?$AAB?$AAG@ 000000018002c5f0     libucrt:lcidtoname_downlevel.obj
 0002:00006600       ??_C@_1M@BJNKEDC@?$AAc?$AAa?$AA?9?$AAE?$AAS@ 000000018002c600     libucrt:lcidtoname_downlevel.obj
 0002:00006610       ??_C@_1M@IJJHFJHA@?$AAc?$AAs?$AA?9?$AAC?$AAZ@ 000000018002c610     libucrt:lcidtoname_downlevel.obj
 0002:00006620       ??_C@_1M@CLPEOBGI@?$AAd?$AAa?$AA?9?$AAD?$AAK@ 000000018002c620     libucrt:lcidtoname_downlevel.obj
 0002:00006630       ??_C@_1M@MCMADGCB@?$AAd?$AAe?$AA?9?$AAD?$AAE@ 000000018002c630     libucrt:lcidtoname_downlevel.obj
 0002:00006640       ??_C@_1M@OOCKEMAM@?$AAe?$AAl?$AA?9?$AAG?$AAR@ 000000018002c640     libucrt:lcidtoname_downlevel.obj
 0002:00006650       ??_C@_1M@DDNJFGID@?$AAf?$AAi?$AA?9?$AAF?$AAI@ 000000018002c650     libucrt:lcidtoname_downlevel.obj
 0002:00006660       ??_C@_1M@GLIPPMAC@?$AAf?$AAr?$AA?9?$AAF?$AAR@ 000000018002c660     libucrt:lcidtoname_downlevel.obj
 0002:00006670       ??_C@_1M@GFMCHPE@?$AAh?$AAe?$AA?9?$AAI?$AAL@ 000000018002c670     libucrt:lcidtoname_downlevel.obj
 0002:00006680       ??_C@_1M@MHLPGNKM@?$AAh?$AAu?$AA?9?$AAH?$AAU@ 000000018002c680     libucrt:lcidtoname_downlevel.obj
 0002:00006690       ??_C@_1M@LPDDNNPN@?$AAi?$AAs?$AA?9?$AAI?$AAS@ 000000018002c690     libucrt:lcidtoname_downlevel.obj
 0002:000066a0       ??_C@_1M@MADIPODN@?$AAi?$AAt?$AA?9?$AAI?$AAT@ 000000018002c6a0     libucrt:lcidtoname_downlevel.obj
 0002:000066b0       ??_C@_1M@IHBJJGG@?$AAn?$AAl?$AA?9?$AAN?$AAL@ 000000018002c6b0     libucrt:lcidtoname_downlevel.obj
 0002:000066c0       ??_C@_1M@EANAGDL@?$AAn?$AAb?$AA?9?$AAN?$AAO@ 000000018002c6c0     libucrt:lcidtoname_downlevel.obj
 0002:000066d0       ??_C@_1M@NEIEMEGP@?$AAp?$AAl?$AA?9?$AAP?$AAL@ 000000018002c6d0     libucrt:lcidtoname_downlevel.obj
 0002:000066e0       ??_C@_1M@BOCFIGEP@?$AAp?$AAt?$AA?9?$AAB?$AAR@ 000000018002c6e0     libucrt:lcidtoname_downlevel.obj
 0002:000066f0       ??_C@_1M@IMPFOPBG@?$AAr?$AAo?$AA?9?$AAR?$AAO@ 000000018002c6f0     libucrt:lcidtoname_downlevel.obj
 0002:00006700       ??_C@_1M@IDNNEJMM@?$AAr?$AAu?$AA?9?$AAR?$AAU@ 000000018002c700     libucrt:lcidtoname_downlevel.obj
 0002:00006710       ??_C@_1M@LILEEOGM@?$AAh?$AAr?$AA?9?$AAH?$AAR@ 000000018002c710     libucrt:lcidtoname_downlevel.obj
 0002:00006720       ??_C@_1M@FKIFEHPB@?$AAs?$AAk?$AA?9?$AAS?$AAK@ 000000018002c720     libucrt:lcidtoname_downlevel.obj
 0002:00006730       ??_C@_1M@LJMAMNPJ@?$AAs?$AAq?$AA?9?$AAA?$AAL@ 000000018002c730     libucrt:lcidtoname_downlevel.obj
 0002:00006740       ??_C@_1M@GIAKDKJK@?$AAs?$AAv?$AA?9?$AAS?$AAE@ 000000018002c740     libucrt:lcidtoname_downlevel.obj
 0002:00006750       ??_C@_1M@MKJKIKCL@?$AAt?$AAh?$AA?9?$AAT?$AAH@ 000000018002c750     libucrt:lcidtoname_downlevel.obj
 0002:00006760       ??_C@_1M@MFLCCMPB@?$AAt?$AAr?$AA?9?$AAT?$AAR@ 000000018002c760     libucrt:lcidtoname_downlevel.obj
 0002:00006770       ??_C@_1M@OIJHDKJN@?$AAu?$AAr?$AA?9?$AAP?$AAK@ 000000018002c770     libucrt:lcidtoname_downlevel.obj
 0002:00006780       ??_C@_1M@LHIPCIEK@?$AAi?$AAd?$AA?9?$AAI?$AAD@ 000000018002c780     libucrt:lcidtoname_downlevel.obj
 0002:00006790       ??_C@_1M@MFMOBGI@?$AAu?$AAk?$AA?9?$AAU?$AAA@ 000000018002c790     libucrt:lcidtoname_downlevel.obj
 0002:000067a0       ??_C@_1M@OBGLJIPL@?$AAb?$AAe?$AA?9?$AAB?$AAY@ 000000018002c7a0     libucrt:lcidtoname_downlevel.obj
 0002:000067b0       ??_C@_1M@BCFAJEAD@?$AAs?$AAl?$AA?9?$AAS?$AAI@ 000000018002c7b0     libucrt:lcidtoname_downlevel.obj
 0002:000067c0       ??_C@_1M@FKFFEDDN@?$AAe?$AAt?$AA?9?$AAE?$AAE@ 000000018002c7c0     libucrt:lcidtoname_downlevel.obj
 0002:000067d0       ??_C@_1M@KGKKAACI@?$AAl?$AAv?$AA?9?$AAL?$AAV@ 000000018002c7d0     libucrt:lcidtoname_downlevel.obj
 0002:000067e0       ??_C@_1M@IFGBIJO@?$AAl?$AAt?$AA?9?$AAL?$AAT@ 000000018002c7e0     libucrt:lcidtoname_downlevel.obj
 0002:000067f0       ??_C@_1M@FGEAHEDM@?$AAf?$AAa?$AA?9?$AAI?$AAR@ 000000018002c7f0     libucrt:lcidtoname_downlevel.obj
 0002:00006800       ??_C@_1M@KBMAIBFN@?$AAv?$AAi?$AA?9?$AAV?$AAN@ 000000018002c800     libucrt:lcidtoname_downlevel.obj
 0002:00006810       ??_C@_1M@GPCBKDJK@?$AAh?$AAy?$AA?9?$AAA?$AAM@ 000000018002c810     libucrt:lcidtoname_downlevel.obj
 0002:00006820       ??_C@_1BG@BECMDDJB@?$AAa?$AAz?$AA?9?$AAA?$AAZ?$AA?9?$AAL?$AAa?$AAt?$AAn@ 000000018002c820     libucrt:lcidtoname_downlevel.obj
 0002:00006838       ??_C@_1M@MAOFCAEA@?$AAe?$AAu?$AA?9?$AAE?$AAS@ 000000018002c838     libucrt:lcidtoname_downlevel.obj
 0002:00006848       ??_C@_1M@IGHABKPI@?$AAm?$AAk?$AA?9?$AAM?$AAK@ 000000018002c848     libucrt:lcidtoname_downlevel.obj
 0002:00006858       ??_C@_1M@IAIGNEJG@?$AAt?$AAn?$AA?9?$AAZ?$AAA@ 000000018002c858     libucrt:lcidtoname_downlevel.obj
 0002:00006868       ??_C@_1M@IIJCOJFA@?$AAx?$AAh?$AA?9?$AAZ?$AAA@ 000000018002c868     libucrt:lcidtoname_downlevel.obj
 0002:00006878       ??_C@_1M@LGPJHNJH@?$AAz?$AAu?$AA?9?$AAZ?$AAA@ 000000018002c878     libucrt:lcidtoname_downlevel.obj
 0002:00006888       ??_C@_1M@HOKAOIO@?$AAa?$AAf?$AA?9?$AAZ?$AAA@ 000000018002c888     libucrt:lcidtoname_downlevel.obj
 0002:00006898       ??_C@_1M@DPCLHLIE@?$AAk?$AAa?$AA?9?$AAG?$AAE@ 000000018002c898     libucrt:lcidtoname_downlevel.obj
 0002:000068a8       ??_C@_1M@BLKMHJBI@?$AAf?$AAo?$AA?9?$AAF?$AAO@ 000000018002c8a8     libucrt:lcidtoname_downlevel.obj
 0002:000068b8       ??_C@_1M@LGGJAPPB@?$AAh?$AAi?$AA?9?$AAI?$AAN@ 000000018002c8b8     libucrt:lcidtoname_downlevel.obj
 0002:000068c8       ??_C@_1M@FIKPIHFE@?$AAm?$AAt?$AA?9?$AAM?$AAT@ 000000018002c8c8     libucrt:lcidtoname_downlevel.obj
 0002:000068d8       ??_C@_1M@HEGGPBFA@?$AAs?$AAe?$AA?9?$AAN?$AAO@ 000000018002c8d8     libucrt:lcidtoname_downlevel.obj
 0002:000068e8       ??_C@_1M@EIBJEEPA@?$AAm?$AAs?$AA?9?$AAM?$AAY@ 000000018002c8e8     libucrt:lcidtoname_downlevel.obj
 0002:000068f8       ??_C@_1M@FHLBGMPP@?$AAk?$AAk?$AA?9?$AAK?$AAZ@ 000000018002c8f8     libucrt:lcidtoname_downlevel.obj
 0002:00006908       ??_C@_1M@NGJJLCGI@?$AAk?$AAy?$AA?9?$AAK?$AAG@ 000000018002c908     libucrt:lcidtoname_downlevel.obj
 0002:00006918       ??_C@_1M@GIENNBFC@?$AAs?$AAw?$AA?9?$AAK?$AAE@ 000000018002c918     libucrt:lcidtoname_downlevel.obj
 0002:00006928       ??_C@_1BG@NDGMJIMJ@?$AAu?$AAz?$AA?9?$AAU?$AAZ?$AA?9?$AAL?$AAa?$AAt?$AAn@ 000000018002c928     libucrt:lcidtoname_downlevel.obj
 0002:00006940       ??_C@_1M@IDCCIHBC@?$AAt?$AAt?$AA?9?$AAR?$AAU@ 000000018002c940     libucrt:lcidtoname_downlevel.obj
 0002:00006950       ??_C@_1M@LOICPMOJ@?$AAb?$AAn?$AA?9?$AAI?$AAN@ 000000018002c950     libucrt:lcidtoname_downlevel.obj
 0002:00006960       ??_C@_1M@KPKKNEAH@?$AAp?$AAa?$AA?9?$AAI?$AAN@ 000000018002c960     libucrt:lcidtoname_downlevel.obj
 0002:00006970       ??_C@_1M@PJGPPBOG@?$AAg?$AAu?$AA?9?$AAI?$AAN@ 000000018002c970     libucrt:lcidtoname_downlevel.obj
 0002:00006980       ??_C@_1M@KMKMOPHI@?$AAt?$AAa?$AA?9?$AAI?$AAN@ 000000018002c980     libucrt:lcidtoname_downlevel.obj
 0002:00006990       ??_C@_1M@KFEHEPAC@?$AAt?$AAe?$AA?9?$AAI?$AAN@ 000000018002c990     libucrt:lcidtoname_downlevel.obj
 0002:000069a0       ??_C@_1M@CDCLMGHI@?$AAk?$AAn?$AA?9?$AAI?$AAN@ 000000018002c9a0     libucrt:lcidtoname_downlevel.obj
 0002:000069b0       ??_C@_1M@MIODLDKF@?$AAm?$AAl?$AA?9?$AAI?$AAN@ 000000018002c9b0     libucrt:lcidtoname_downlevel.obj
 0002:000069c0       ??_C@_1M@PBIEACPO@?$AAm?$AAr?$AA?9?$AAI?$AAN@ 000000018002c9c0     libucrt:lcidtoname_downlevel.obj
 0002:000069d0       ??_C@_1M@NIDEAGPH@?$AAs?$AAa?$AA?9?$AAI?$AAN@ 000000018002c9d0     libucrt:lcidtoname_downlevel.obj
 0002:000069e0       ??_C@_1M@FHIHCBIO@?$AAm?$AAn?$AA?9?$AAM?$AAN@ 000000018002c9e0     libucrt:lcidtoname_downlevel.obj
 0002:000069f0       ??_C@_1M@JAIJPENP@?$AAc?$AAy?$AA?9?$AAG?$AAB@ 000000018002c9f0     libucrt:lcidtoname_downlevel.obj
 0002:00006a00       ??_C@_1M@PHGFBEPN@?$AAg?$AAl?$AA?9?$AAE?$AAS@ 000000018002ca00     libucrt:lcidtoname_downlevel.obj
 0002:00006a10       ??_C@_1O@KPIPDNCP@?$AAk?$AAo?$AAk?$AA?9?$AAI?$AAN@ 000000018002ca10     libucrt:lcidtoname_downlevel.obj
 0002:00006a20       ??_C@_1O@KNHJLDJA@?$AAs?$AAy?$AAr?$AA?9?$AAS?$AAY@ 000000018002ca20     libucrt:lcidtoname_downlevel.obj
 0002:00006a30       ??_C@_1O@MKEKBLAH@?$AAd?$AAi?$AAv?$AA?9?$AAM?$AAV@ 000000018002ca30     libucrt:lcidtoname_downlevel.obj
 0002:00006a40       ??_C@_1O@OHDCKDDF@?$AAq?$AAu?$AAz?$AA?9?$AAB?$AAO@ 000000018002ca40     libucrt:lcidtoname_downlevel.obj
 0002:00006a50       ??_C@_1M@LEPJNLFD@?$AAn?$AAs?$AA?9?$AAZ?$AAA@ 000000018002ca50     libucrt:lcidtoname_downlevel.obj
 0002:00006a60       ??_C@_1M@OMLEIIJB@?$AAm?$AAi?$AA?9?$AAN?$AAZ@ 000000018002ca60     libucrt:lcidtoname_downlevel.obj
 0002:00006a70       ??_C@_1M@PMPEAILG@?$AAa?$AAr?$AA?9?$AAI?$AAQ@ 000000018002ca70     libucrt:lcidtoname_downlevel.obj
 0002:00006a80       ??_C@_1M@CNKPNOEE@?$AAd?$AAe?$AA?9?$AAC?$AAH@ 000000018002ca80     libucrt:lcidtoname_downlevel.obj
 0002:00006a90       ??_C@_1M@LKMGMLKO@?$AAe?$AAn?$AA?9?$AAG?$AAB@ 000000018002ca90     libucrt:lcidtoname_downlevel.obj
 0002:00006aa0       ??_C@_1M@PGKJFFGL@?$AAe?$AAs?$AA?9?$AAM?$AAX@ 000000018002caa0     libucrt:lcidtoname_downlevel.obj
 0002:00006ab0       ??_C@_1M@DNNANBDC@?$AAf?$AAr?$AA?9?$AAB?$AAE@ 000000018002cab0     libucrt:lcidtoname_downlevel.obj
 0002:00006ac0       ??_C@_1M@HLGMDFHM@?$AAi?$AAt?$AA?9?$AAC?$AAH@ 000000018002cac0     libucrt:lcidtoname_downlevel.obj
 0002:00006ad0       ??_C@_1M@CLLBGJH@?$AAn?$AAl?$AA?9?$AAB?$AAE@ 000000018002cad0     libucrt:lcidtoname_downlevel.obj
 0002:00006ae0       ??_C@_1M@BODBOGLF@?$AAn?$AAn?$AA?9?$AAN?$AAO@ 000000018002cae0     libucrt:lcidtoname_downlevel.obj
 0002:00006af0       ??_C@_1M@HFFAHKAD@?$AAp?$AAt?$AA?9?$AAP?$AAT@ 000000018002caf0     libucrt:lcidtoname_downlevel.obj
 0002:00006b00       ??_C@_1BG@LNOAKHIE@?$AAs?$AAr?$AA?9?$AAS?$AAP?$AA?9?$AAL?$AAa?$AAt?$AAn@ 000000018002cb00     libucrt:lcidtoname_downlevel.obj
 0002:00006b18       ??_C@_1M@HBMHBGAK@?$AAs?$AAv?$AA?9?$AAF?$AAI@ 000000018002cb18     libucrt:lcidtoname_downlevel.obj
 0002:00006b28       ??_C@_1BG@DGCJGJBE@?$AAa?$AAz?$AA?9?$AAA?$AAZ?$AA?9?$AAC?$AAy?$AAr?$AAl@ 000000018002cb28     libucrt:lcidtoname_downlevel.obj
 0002:00006b40       ??_C@_1M@KEJDAAHB@?$AAs?$AAe?$AA?9?$AAS?$AAE@ 000000018002cb40     libucrt:lcidtoname_downlevel.obj
 0002:00006b50       ??_C@_1M@HEIBJJAD@?$AAm?$AAs?$AA?9?$AAB?$AAN@ 000000018002cb50     libucrt:lcidtoname_downlevel.obj
 0002:00006b60       ??_C@_1BG@PBGJMCEM@?$AAu?$AAz?$AA?9?$AAU?$AAZ?$AA?9?$AAC?$AAy?$AAr?$AAl@ 000000018002cb60     libucrt:lcidtoname_downlevel.obj
 0002:00006b78       ??_C@_1O@LAOBCMDF@?$AAq?$AAu?$AAz?$AA?9?$AAE?$AAC@ 000000018002cb78     libucrt:lcidtoname_downlevel.obj
 0002:00006b88       ??_C@_1M@POEEMAIO@?$AAa?$AAr?$AA?9?$AAE?$AAG@ 000000018002cb88     libucrt:lcidtoname_downlevel.obj
 0002:00006b98       ??_C@_1M@EFAKDEDL@?$AAz?$AAh?$AA?9?$AAH?$AAK@ 000000018002cb98     libucrt:lcidtoname_downlevel.obj
 0002:00006ba8       ??_C@_1M@HKKIJHGI@?$AAd?$AAe?$AA?9?$AAA?$AAT@ 000000018002cba8     libucrt:lcidtoname_downlevel.obj
 0002:00006bb8       ??_C@_1M@KBFBEHJF@?$AAe?$AAn?$AA?9?$AAA?$AAU@ 000000018002cbb8     libucrt:lcidtoname_downlevel.obj
 0002:00006bc8       ??_C@_1M@MNPLFAAH@?$AAe?$AAs?$AA?9?$AAE?$AAS@ 000000018002cbc8     libucrt:lcidtoname_downlevel.obj
 0002:00006bd8       ??_C@_1M@HJOOJFMA@?$AAf?$AAr?$AA?9?$AAC?$AAA@ 000000018002cbd8     libucrt:lcidtoname_downlevel.obj
 0002:00006be8       ??_C@_1BG@JPOFPNAB@?$AAs?$AAr?$AA?9?$AAS?$AAP?$AA?9?$AAC?$AAy?$AAr?$AAl@ 000000018002cbe8     libucrt:lcidtoname_downlevel.obj
 0002:00006c00       ??_C@_1M@LNFOCMOB@?$AAs?$AAe?$AA?9?$AAF?$AAI@ 000000018002cc00     libucrt:lcidtoname_downlevel.obj
 0002:00006c10       ??_C@_1O@MGJBOAMB@?$AAq?$AAu?$AAz?$AA?9?$AAP?$AAE@ 000000018002cc10     libucrt:lcidtoname_downlevel.obj
 0002:00006c20       ??_C@_1M@GJINLBOK@?$AAa?$AAr?$AA?9?$AAL?$AAY@ 000000018002cc20     libucrt:lcidtoname_downlevel.obj
 0002:00006c30       ??_C@_1M@GGMNHJNL@?$AAz?$AAh?$AA?9?$AAS?$AAG@ 000000018002cc30     libucrt:lcidtoname_downlevel.obj
 0002:00006c40       ??_C@_1M@HOIKODND@?$AAd?$AAe?$AA?9?$AAL?$AAU@ 000000018002cc40     libucrt:lcidtoname_downlevel.obj
 0002:00006c50       ??_C@_1M@DDOCCGFG@?$AAe?$AAn?$AA?9?$AAC?$AAA@ 000000018002cc50     libucrt:lcidtoname_downlevel.obj
 0002:00006c60       ??_C@_1M@BNOEMJLF@?$AAe?$AAs?$AA?9?$AAG?$AAT@ 000000018002cc60     libucrt:lcidtoname_downlevel.obj
 0002:00006c70       ??_C@_1M@EOGNKEK@?$AAf?$AAr?$AA?9?$AAC?$AAH@ 000000018002cc70     libucrt:lcidtoname_downlevel.obj
 0002:00006c80       ??_C@_1M@FLIDJFHL@?$AAh?$AAr?$AA?9?$AAB?$AAA@ 000000018002cc80     libucrt:lcidtoname_downlevel.obj
 0002:00006c90       ??_C@_1O@FMCELNAJ@?$AAs?$AAm?$AAj?$AA?9?$AAN?$AAO@ 000000018002cc90     libucrt:lcidtoname_downlevel.obj
 0002:00006ca0       ??_C@_1M@JHGLJMGJ@?$AAa?$AAr?$AA?9?$AAD?$AAZ@ 000000018002cca0     libucrt:lcidtoname_downlevel.obj
 0002:00006cb0       ??_C@_1M@JKKFDCNP@?$AAz?$AAh?$AA?9?$AAM?$AAO@ 000000018002ccb0     libucrt:lcidtoname_downlevel.obj
 0002:00006cc0       ??_C@_1M@GEEFALPE@?$AAd?$AAe?$AA?9?$AAL?$AAI@ 000000018002ccc0     libucrt:lcidtoname_downlevel.obj
 0002:00006cd0       ??_C@_1M@IGEOFBG@?$AAe?$AAn?$AA?9?$AAN?$AAZ@ 000000018002ccd0     libucrt:lcidtoname_downlevel.obj
 0002:00006ce0       ??_C@_1M@KDBONEHP@?$AAe?$AAs?$AA?9?$AAC?$AAR@ 000000018002cce0     libucrt:lcidtoname_downlevel.obj
 0002:00006cf0       ??_C@_1M@FHMDOHNN@?$AAf?$AAr?$AA?9?$AAL?$AAU@ 000000018002ccf0     libucrt:lcidtoname_downlevel.obj
 0002:00006d00       ??_C@_1BG@NFKKMAFG@?$AAb?$AAs?$AA?9?$AAB?$AAA?$AA?9?$AAL?$AAa?$AAt?$AAn@ 000000018002cd00     libucrt:lcidtoname_downlevel.obj
 0002:00006d18       ??_C@_1O@IMNBEMCI@?$AAs?$AAm?$AAj?$AA?9?$AAS?$AAE@ 000000018002cd18     libucrt:lcidtoname_downlevel.obj
 0002:00006d28       ??_C@_1M@DHHMBNDP@?$AAa?$AAr?$AA?9?$AAM?$AAA@ 000000018002cd28     libucrt:lcidtoname_downlevel.obj
 0002:00006d38       ??_C@_1M@BNBLJCGH@?$AAe?$AAn?$AA?9?$AAI?$AAE@ 000000018002cd38     libucrt:lcidtoname_downlevel.obj
 0002:00006d48       ??_C@_1M@GEPAFMDL@?$AAe?$AAs?$AA?9?$AAP?$AAA@ 000000018002cd48     libucrt:lcidtoname_downlevel.obj
 0002:00006d58       ??_C@_1M@OJONDMDL@?$AAf?$AAr?$AA?9?$AAM?$AAC@ 000000018002cd58     libucrt:lcidtoname_downlevel.obj
 0002:00006d68       ??_C@_1BG@OBCNFJB@?$AAs?$AAr?$AA?9?$AAB?$AAA?$AA?9?$AAL?$AAa?$AAt?$AAn@ 000000018002cd68     libucrt:lcidtoname_downlevel.obj
 0002:00006d80       ??_C@_1O@KEMEEGPO@?$AAs?$AAm?$AAa?$AA?9?$AAN?$AAO@ 000000018002cd80     libucrt:lcidtoname_downlevel.obj
 0002:00006d90       ??_C@_1M@ELMGFODK@?$AAa?$AAr?$AA?9?$AAT?$AAN@ 000000018002cd90     libucrt:lcidtoname_downlevel.obj
 0002:00006da0       ??_C@_1M@BHDLHFAF@?$AAe?$AAn?$AA?9?$AAZ?$AAA@ 000000018002cda0     libucrt:lcidtoname_downlevel.obj
 0002:00006db0       ??_C@_1M@BMGIGLIF@?$AAe?$AAs?$AA?9?$AAD?$AAO@ 000000018002cdb0     libucrt:lcidtoname_downlevel.obj
 0002:00006dc0       ??_C@_1BG@CMBHIPBE@?$AAs?$AAr?$AA?9?$AAB?$AAA?$AA?9?$AAC?$AAy?$AAr?$AAl@ 000000018002cdc0     libucrt:lcidtoname_downlevel.obj
 0002:00006dd8       ??_C@_1O@HEDBLHNP@?$AAs?$AAm?$AAa?$AA?9?$AAS?$AAE@ 000000018002cdd8     libucrt:lcidtoname_downlevel.obj
 0002:00006de8       ??_C@_1M@DAGCADIM@?$AAa?$AAr?$AA?9?$AAO?$AAM@ 000000018002cde8     libucrt:lcidtoname_downlevel.obj
 0002:00006df8       ??_C@_1M@FODLMICG@?$AAe?$AAn?$AA?9?$AAJ?$AAM@ 000000018002cdf8     libucrt:lcidtoname_downlevel.obj
 0002:00006e08       ??_C@_1M@DNMLCIHB@?$AAe?$AAs?$AA?9?$AAV?$AAE@ 000000018002ce08     libucrt:lcidtoname_downlevel.obj
 0002:00006e18       ??_C@_1O@EOKHMKJK@?$AAs?$AAm?$AAs?$AA?9?$AAF?$AAI@ 000000018002ce18     libucrt:lcidtoname_downlevel.obj
 0002:00006e28       ??_C@_1M@CAFJMKOF@?$AAa?$AAr?$AA?9?$AAY?$AAE@ 000000018002ce28     libucrt:lcidtoname_downlevel.obj
 0002:00006e38       ??_C@_1M@CBFHIJLI@?$AAe?$AAn?$AA?9?$AAC?$AAB@ 000000018002ce38     libucrt:lcidtoname_downlevel.obj
 0002:00006e48       ??_C@_1M@BGNFLDN@?$AAe?$AAs?$AA?9?$AAC?$AAO@ 000000018002ce48     libucrt:lcidtoname_downlevel.obj
 0002:00006e58       ??_C@_1O@JMPHMAMC@?$AAs?$AAm?$AAn?$AA?9?$AAF?$AAI@ 000000018002ce58     libucrt:lcidtoname_downlevel.obj
 0002:00006e68       ??_C@_1M@JLANABKE@?$AAa?$AAr?$AA?9?$AAS?$AAY@ 000000018002ce68     libucrt:lcidtoname_downlevel.obj
 0002:00006e78       ??_C@_1M@HPKGCFGN@?$AAe?$AAn?$AA?9?$AAB?$AAZ@ 000000018002ce78     libucrt:lcidtoname_downlevel.obj
 0002:00006e88       ??_C@_1M@OLJCMLGM@?$AAe?$AAs?$AA?9?$AAP?$AAE@ 000000018002ce88     libucrt:lcidtoname_downlevel.obj
 0002:00006e98       ??_C@_1M@MKKGFKLE@?$AAa?$AAr?$AA?9?$AAJ?$AAO@ 000000018002ce98     libucrt:lcidtoname_downlevel.obj
 0002:00006ea8       ??_C@_1M@EKPGLDNI@?$AAe?$AAn?$AA?9?$AAT?$AAT@ 000000018002cea8     libucrt:lcidtoname_downlevel.obj
 0002:00006eb8       ??_C@_1M@OONGHFHE@?$AAe?$AAs?$AA?9?$AAA?$AAR@ 000000018002ceb8     libucrt:lcidtoname_downlevel.obj
 0002:00006ec8       ??_C@_1M@OOJFGBHE@?$AAa?$AAr?$AA?9?$AAL?$AAB@ 000000018002cec8     libucrt:lcidtoname_downlevel.obj
 0002:00006ed8       ??_C@_1M@GCEJHNEG@?$AAe?$AAn?$AA?9?$AAZ?$AAW@ 000000018002ced8     libucrt:lcidtoname_downlevel.obj
 0002:00006ee8       ??_C@_1M@JNOCAHJI@?$AAe?$AAs?$AA?9?$AAE?$AAC@ 000000018002cee8     libucrt:lcidtoname_downlevel.obj
 0002:00006ef8       ??_C@_1M@JEFHPGGB@?$AAa?$AAr?$AA?9?$AAK?$AAW@ 000000018002cef8     libucrt:lcidtoname_downlevel.obj
 0002:00006f08       ??_C@_1M@MLKIBJOJ@?$AAe?$AAn?$AA?9?$AAP?$AAH@ 000000018002cf08     libucrt:lcidtoname_downlevel.obj
 0002:00006f18       ??_C@_1M@BDNIPEND@?$AAe?$AAs?$AA?9?$AAC?$AAL@ 000000018002cf18     libucrt:lcidtoname_downlevel.obj
 0002:00006f28       ??_C@_1M@MPNMEKBD@?$AAa?$AAr?$AA?9?$AAA?$AAE@ 000000018002cf28     libucrt:lcidtoname_downlevel.obj
 0002:00006f38       ??_C@_1M@KBJALCPI@?$AAe?$AAs?$AA?9?$AAU?$AAY@ 000000018002cf38     libucrt:lcidtoname_downlevel.obj
 0002:00006f48       ??_C@_1M@LLCCOAGA@?$AAa?$AAr?$AA?9?$AAB?$AAH@ 000000018002cf48     libucrt:lcidtoname_downlevel.obj
 0002:00006f58       ??_C@_1M@PBFNCDEL@?$AAe?$AAs?$AA?9?$AAP?$AAY@ 000000018002cf58     libucrt:lcidtoname_downlevel.obj
 0002:00006f68       ??_C@_1M@EDGINPNP@?$AAa?$AAr?$AA?9?$AAQ?$AAA@ 000000018002cf68     libucrt:lcidtoname_downlevel.obj
 0002:00006f78       ??_C@_1M@MKDBIIJI@?$AAe?$AAs?$AA?9?$AAB?$AAO@ 000000018002cf78     libucrt:lcidtoname_downlevel.obj
 0002:00006f88       ??_C@_1M@CPKKEBLD@?$AAe?$AAs?$AA?9?$AAS?$AAV@ 000000018002cf88     libucrt:lcidtoname_downlevel.obj
 0002:00006f98       ??_C@_1M@NDBGMMJL@?$AAe?$AAs?$AA?9?$AAH?$AAN@ 000000018002cf98     libucrt:lcidtoname_downlevel.obj
 0002:00006fa8       ??_C@_1M@JIJIBHDP@?$AAe?$AAs?$AA?9?$AAN?$AAI@ 000000018002cfa8     libucrt:lcidtoname_downlevel.obj
 0002:00006fb8       ??_C@_1M@CGFMKEEK@?$AAe?$AAs?$AA?9?$AAP?$AAR@ 000000018002cfb8     libucrt:lcidtoname_downlevel.obj
 0002:00006fc8       ??_C@_1O@ICJHKIIK@?$AAz?$AAh?$AA?9?$AAC?$AAH?$AAT@ 000000018002cfc8     libucrt:lcidtoname_downlevel.obj
 0002:00006fd8       ??_C@_15CLNEJCE@?$AAs?$AAr@ 000000018002cfd8     libucrt:lcidtoname_downlevel.obj
 0002:00007e20       ??_C@_1M@KAHEKEIG@?$AAa?$AAf?$AA?9?$AAz?$AAa@ 000000018002de20     libucrt:lcidtoname_downlevel.obj
 0002:00007e30       ??_C@_1M@GIECOABL@?$AAa?$AAr?$AA?9?$AAa?$AAe@ 000000018002de30     libucrt:lcidtoname_downlevel.obj
 0002:00007e40       ??_C@_1M@BMLMEKGI@?$AAa?$AAr?$AA?9?$AAb?$AAh@ 000000018002de40     libucrt:lcidtoname_downlevel.obj
 0002:00007e50       ??_C@_1M@DAPFDGGB@?$AAa?$AAr?$AA?9?$AAd?$AAz@ 000000018002de50     libucrt:lcidtoname_downlevel.obj
 0002:00007e60       ??_C@_1M@FJNKGKIG@?$AAa?$AAr?$AA?9?$AAe?$AAg@ 000000018002de60     libucrt:lcidtoname_downlevel.obj
 0002:00007e70       ??_C@_1M@FLGKKCLO@?$AAa?$AAr?$AA?9?$AAi?$AAq@ 000000018002de70     libucrt:lcidtoname_downlevel.obj
 0002:00007e80       ??_C@_1M@GNDIPALM@?$AAa?$AAr?$AA?9?$AAj?$AAo@ 000000018002de80     libucrt:lcidtoname_downlevel.obj
 0002:00007e90       ??_C@_1M@DDMJFMGJ@?$AAa?$AAr?$AA?9?$AAk?$AAw@ 000000018002de90     libucrt:lcidtoname_downlevel.obj
 0002:00007ea0       ??_C@_1M@EJALMLHM@?$AAa?$AAr?$AA?9?$AAl?$AAb@ 000000018002dea0     libucrt:lcidtoname_downlevel.obj
 0002:00007eb0       ??_C@_1M@MOBDBLOC@?$AAa?$AAr?$AA?9?$AAl?$AAy@ 000000018002deb0     libucrt:lcidtoname_downlevel.obj
 0002:00007ec0       ??_C@_1M@JAOCLHDH@?$AAa?$AAr?$AA?9?$AAm?$AAa@ 000000018002dec0     libucrt:lcidtoname_downlevel.obj
 0002:00007ed0       ??_C@_1M@JHPMKJIE@?$AAa?$AAr?$AA?9?$AAo?$AAm@ 000000018002ded0     libucrt:lcidtoname_downlevel.obj
 0002:00007ee0       ??_C@_1M@OEPGHFNH@?$AAa?$AAr?$AA?9?$AAq?$AAa@ 000000018002dee0     libucrt:lcidtoname_downlevel.obj
 0002:00007ef0       ??_C@_1M@KJDONENM@?$AAa?$AAr?$AA?9?$AAs?$AAa@ 000000018002def0     libucrt:lcidtoname_downlevel.obj
 0002:00007f00       ??_C@_1M@DMJDKLKM@?$AAa?$AAr?$AA?9?$AAs?$AAy@ 000000018002df00     libucrt:lcidtoname_downlevel.obj
 0002:00007f10       ??_C@_1M@OMFIPEDC@?$AAa?$AAr?$AA?9?$AAt?$AAn@ 000000018002df10     libucrt:lcidtoname_downlevel.obj
 0002:00007f20       ??_C@_1M@IHMHGAON@?$AAa?$AAr?$AA?9?$AAy?$AAe@ 000000018002df20     libucrt:lcidtoname_downlevel.obj
 0002:00007f30       ??_C@_1BG@KDCPGJGB@?$AAa?$AAz?$AA?9?$AAa?$AAz?$AA?9?$AAc?$AAy?$AAr?$AAl@ 000000018002df30     libucrt:lcidtoname_downlevel.obj
 0002:00007f48       ??_C@_1BG@IBCKDDOE@?$AAa?$AAz?$AA?9?$AAa?$AAz?$AA?9?$AAl?$AAa?$AAt?$AAn@ 000000018002df48     libucrt:lcidtoname_downlevel.obj
 0002:00007f60       ??_C@_1M@EGPFDCPD@?$AAb?$AAe?$AA?9?$AAb?$AAy@ 000000018002df60     libucrt:lcidtoname_downlevel.obj
 0002:00007f70       ??_C@_1M@PCMGMCGC@?$AAb?$AAg?$AA?9?$AAb?$AAg@ 000000018002df70     libucrt:lcidtoname_downlevel.obj
 0002:00007f80       ??_C@_1M@BJBMFGOB@?$AAb?$AAn?$AA?9?$AAi?$AAn@ 000000018002df80     libucrt:lcidtoname_downlevel.obj
 0002:00007f90       ??_C@_1BG@EAKMMACD@?$AAb?$AAs?$AA?9?$AAb?$AAa?$AA?9?$AAl?$AAa?$AAt?$AAn@ 000000018002df90     libucrt:lcidtoname_downlevel.obj
 0002:00007fa8       ??_C@_1M@KGADAODK@?$AAc?$AAa?$AA?9?$AAe?$AAs@ 000000018002dfa8     libucrt:lcidtoname_downlevel.obj
 0002:00007fb8       ??_C@_1M@COAJPDHI@?$AAc?$AAs?$AA?9?$AAc?$AAz@ 000000018002dfb8     libucrt:lcidtoname_downlevel.obj
 0002:00007fc8       ??_C@_1M@DHBHFONH@?$AAc?$AAy?$AA?9?$AAg?$AAb@ 000000018002dfc8     libucrt:lcidtoname_downlevel.obj
 0002:00007fd8       ??_C@_1M@IMGKELGA@?$AAd?$AAa?$AA?9?$AAd?$AAk@ 000000018002dfd8     libucrt:lcidtoname_downlevel.obj
 0002:00007fe8       ??_C@_1M@NNDGDNGA@?$AAd?$AAe?$AA?9?$AAa?$AAt@ 000000018002dfe8     libucrt:lcidtoname_downlevel.obj
 0002:00007ff8       ??_C@_1M@IKDBHEEM@?$AAd?$AAe?$AA?9?$AAc?$AAh@ 000000018002dff8     libucrt:lcidtoname_downlevel.obj
 0002:00008008       ??_C@_1M@GFFOJMCJ@?$AAd?$AAe?$AA?9?$AAd?$AAe@ 000000018002e008     libucrt:lcidtoname_downlevel.obj
 0002:00008018       ??_C@_1M@MDNLKBPM@?$AAd?$AAe?$AA?9?$AAl?$AAi@ 000000018002e018     libucrt:lcidtoname_downlevel.obj
 0002:00008028       ??_C@_1M@NJBEEJNL@?$AAd?$AAe?$AA?9?$AAl?$AAu@ 000000018002e028     libucrt:lcidtoname_downlevel.obj
 0002:00008038       ??_C@_1O@GNNELBAP@?$AAd?$AAi?$AAv?$AA?9?$AAm?$AAv@ 000000018002e038     libucrt:lcidtoname_downlevel.obj
 0002:00008048       ??_C@_1M@EJLEOGAE@?$AAe?$AAl?$AA?9?$AAg?$AAr@ 000000018002e048     libucrt:lcidtoname_downlevel.obj
 0002:00008058       ??_C@_1M@GMPONJN@?$AAe?$AAn?$AA?9?$AAa?$AAu@ 000000018002e058     libucrt:lcidtoname_downlevel.obj
 0002:00008068       ??_C@_1M@NIDIIPGF@?$AAe?$AAn?$AA?9?$AAb?$AAz@ 000000018002e068     libucrt:lcidtoname_downlevel.obj
 0002:00008078       ??_C@_1M@JEHMIMFO@?$AAe?$AAn?$AA?9?$AAc?$AAa@ 000000018002e078     libucrt:lcidtoname_downlevel.obj
 0002:00008088       ??_C@_1M@IGMJCDLA@?$AAe?$AAn?$AA?9?$AAc?$AAb@ 000000018002e088     libucrt:lcidtoname_downlevel.obj
 0002:00008098       ??_C@_1M@BNFIGBKG@?$AAe?$AAn?$AA?9?$AAg?$AAb@ 000000018002e098     libucrt:lcidtoname_downlevel.obj
 0002:000080a8       ??_C@_1M@LKIFDIGP@?$AAe?$AAn?$AA?9?$AAi?$AAe@ 000000018002e0a8     libucrt:lcidtoname_downlevel.obj
 0002:000080b8       ??_C@_1M@PJKFGCCO@?$AAe?$AAn?$AA?9?$AAj?$AAm@ 000000018002e0b8     libucrt:lcidtoname_downlevel.obj
 0002:000080c8       ??_C@_1M@KPPKEPBO@?$AAe?$AAn?$AA?9?$AAn?$AAz@ 000000018002e0c8     libucrt:lcidtoname_downlevel.obj
 0002:000080d8       ??_C@_1M@GMDGLDOB@?$AAe?$AAn?$AA?9?$AAp?$AAh@ 000000018002e0d8     libucrt:lcidtoname_downlevel.obj
 0002:000080e8       ??_C@_1M@ONGIBJNA@?$AAe?$AAn?$AA?9?$AAt?$AAt@ 000000018002e0e8     libucrt:lcidtoname_downlevel.obj
 0002:000080f8       ??_C@_1M@LLODPCMM@?$AAe?$AAn?$AA?9?$AAu?$AAs@ 000000018002e0f8     libucrt:lcidtoname_downlevel.obj
 0002:00008108       ??_C@_1M@LAKFNPAN@?$AAe?$AAn?$AA?9?$AAz?$AAa@ 000000018002e108     libucrt:lcidtoname_downlevel.obj
 0002:00008118       ??_C@_1M@MFNHNHEO@?$AAe?$AAn?$AA?9?$AAz?$AAw@ 000000018002e118     libucrt:lcidtoname_downlevel.obj
 0002:00008128       ??_C@_1M@EJEINPHM@?$AAe?$AAs?$AA?9?$AAa?$AAr@ 000000018002e128     libucrt:lcidtoname_downlevel.obj
 0002:00008138       ??_C@_1M@GNKPCCJA@?$AAe?$AAs?$AA?9?$AAb?$AAo@ 000000018002e138     libucrt:lcidtoname_downlevel.obj
 0002:00008148       ??_C@_1M@LEEGFONL@?$AAe?$AAs?$AA?9?$AAc?$AAl@ 000000018002e148     libucrt:lcidtoname_downlevel.obj
 0002:00008158       ??_C@_1M@KGPDPBDF@?$AAe?$AAs?$AA?9?$AAc?$AAo@ 000000018002e158     libucrt:lcidtoname_downlevel.obj
 0002:00008168       ??_C@_1M@EIAHOHH@?$AAe?$AAs?$AA?9?$AAc?$AAr@ 000000018002e168     libucrt:lcidtoname_downlevel.obj
 0002:00008178       ??_C@_1M@LLPGMBIN@?$AAe?$AAs?$AA?9?$AAd?$AAo@ 000000018002e178     libucrt:lcidtoname_downlevel.obj
 0002:00008188       ??_C@_1M@DKHMKNJA@?$AAe?$AAs?$AA?9?$AAe?$AAc@ 000000018002e188     libucrt:lcidtoname_downlevel.obj
 0002:00008198       ??_C@_1M@GKGFPKAP@?$AAe?$AAs?$AA?9?$AAe?$AAs@ 000000018002e198     libucrt:lcidtoname_downlevel.obj
 0002:000081a8       ??_C@_1M@LKHKGDLN@?$AAe?$AAs?$AA?9?$AAg?$AAt@ 000000018002e1a8     libucrt:lcidtoname_downlevel.obj
 0002:000081b8       ??_C@_1M@HEIIGGJD@?$AAe?$AAs?$AA?9?$AAh?$AAn@ 000000018002e1b8     libucrt:lcidtoname_downlevel.obj
 0002:000081c8       ??_C@_1M@FBDHPPGD@?$AAe?$AAs?$AA?9?$AAm?$AAx@ 000000018002e1c8     libucrt:lcidtoname_downlevel.obj
 0002:000081d8       ??_C@_1M@DPAGLNDH@?$AAe?$AAs?$AA?9?$AAn?$AAi@ 000000018002e1d8     libucrt:lcidtoname_downlevel.obj
 0002:000081e8       ??_C@_1M@MDGOPGDD@?$AAe?$AAs?$AA?9?$AAp?$AAa@ 000000018002e1e8     libucrt:lcidtoname_downlevel.obj
 0002:000081f8       ??_C@_1M@EMAMGBGE@?$AAe?$AAs?$AA?9?$AAp?$AAe@ 000000018002e1f8     libucrt:lcidtoname_downlevel.obj
 0002:00008208       ??_C@_1M@IBMCAOEC@?$AAe?$AAs?$AA?9?$AAp?$AAr@ 000000018002e208     libucrt:lcidtoname_downlevel.obj
 0002:00008218       ??_C@_1M@FGMDIJED@?$AAe?$AAs?$AA?9?$AAp?$AAy@ 000000018002e218     libucrt:lcidtoname_downlevel.obj
 0002:00008228       ??_C@_1M@IIDEOLLL@?$AAe?$AAs?$AA?9?$AAs?$AAv@ 000000018002e228     libucrt:lcidtoname_downlevel.obj
 0002:00008238       ??_C@_1M@GAOBIPA@?$AAe?$AAs?$AA?9?$AAu?$AAy@ 000000018002e238     libucrt:lcidtoname_downlevel.obj
 0002:00008248       ??_C@_1M@JKFFICHJ@?$AAe?$AAs?$AA?9?$AAv?$AAe@ 000000018002e248     libucrt:lcidtoname_downlevel.obj
 0002:00008258       ??_C@_1M@PNMLOJDF@?$AAe?$AAt?$AA?9?$AAe?$AAe@ 000000018002e258     libucrt:lcidtoname_downlevel.obj
 0002:00008268       ??_C@_1M@GHHLIKEI@?$AAe?$AAu?$AA?9?$AAe?$AAs@ 000000018002e268     libucrt:lcidtoname_downlevel.obj
 0002:00008278       ??_C@_1M@PBNONODE@?$AAf?$AAa?$AA?9?$AAi?$AAr@ 000000018002e278     libucrt:lcidtoname_downlevel.obj
 0002:00008288       ??_C@_1M@JEEHPMIL@?$AAf?$AAi?$AA?9?$AAf?$AAi@ 000000018002e288     libucrt:lcidtoname_downlevel.obj
 0002:00008298       ??_C@_1M@LMDCNDBA@?$AAf?$AAo?$AA?9?$AAf?$AAo@ 000000018002e298     libucrt:lcidtoname_downlevel.obj
 0002:000082a8       ??_C@_1M@JKEOHLDK@?$AAf?$AAr?$AA?9?$AAb?$AAe@ 000000018002e2a8     libucrt:lcidtoname_downlevel.obj
 0002:000082b8       ??_C@_1M@NOHADPMI@?$AAf?$AAr?$AA?9?$AAc?$AAa@ 000000018002e2b8     libucrt:lcidtoname_downlevel.obj
 0002:000082c8       ??_C@_1M@KDHIHAEC@?$AAf?$AAr?$AA?9?$AAc?$AAh@ 000000018002e2c8     libucrt:lcidtoname_downlevel.obj
 0002:000082d8       ??_C@_1M@MMBBFGAK@?$AAf?$AAr?$AA?9?$AAf?$AAr@ 000000018002e2d8     libucrt:lcidtoname_downlevel.obj
 0002:000082e8       ??_C@_1M@PAFNENNF@?$AAf?$AAr?$AA?9?$AAl?$AAu@ 000000018002e2e8     libucrt:lcidtoname_downlevel.obj
 0002:000082f8       ??_C@_1M@EOHDJGDD@?$AAf?$AAr?$AA?9?$AAm?$AAc@ 000000018002e2f8     libucrt:lcidtoname_downlevel.obj
 0002:00008308       ??_C@_1M@FAPLLOPF@?$AAg?$AAl?$AA?9?$AAe?$AAs@ 000000018002e308     libucrt:lcidtoname_downlevel.obj
 0002:00008318       ??_C@_1M@FOPBFLOO@?$AAg?$AAu?$AA?9?$AAi?$AAn@ 000000018002e318     libucrt:lcidtoname_downlevel.obj
 0002:00008328       ??_C@_1M@KBMCINPM@?$AAh?$AAe?$AA?9?$AAi?$AAl@ 000000018002e328     libucrt:lcidtoname_downlevel.obj
 0002:00008338       ??_C@_1M@BBPHKFPJ@?$AAh?$AAi?$AA?9?$AAi?$AAn@ 000000018002e338     libucrt:lcidtoname_downlevel.obj
 0002:00008348       ??_C@_1M@PMBNDPHD@?$AAh?$AAr?$AA?9?$AAb?$AAa@ 000000018002e348     libucrt:lcidtoname_downlevel.obj
 0002:00008358       ??_C@_1M@BPCKOEGE@?$AAh?$AAr?$AA?9?$AAh?$AAr@ 000000018002e358     libucrt:lcidtoname_downlevel.obj
 0002:00008368       ??_C@_1M@GACBMHKE@?$AAh?$AAu?$AA?9?$AAh?$AAu@ 000000018002e368     libucrt:lcidtoname_downlevel.obj
 0002:00008378       ??_C@_1M@MILPAJJC@?$AAh?$AAy?$AA?9?$AAa?$AAm@ 000000018002e378     libucrt:lcidtoname_downlevel.obj
 0002:00008388       ??_C@_1M@BABBICEC@?$AAi?$AAd?$AA?9?$AAi?$AAd@ 000000018002e388     libucrt:lcidtoname_downlevel.obj
 0002:00008398       ??_C@_1M@BIKNHHPF@?$AAi?$AAs?$AA?9?$AAi?$AAs@ 000000018002e398     libucrt:lcidtoname_downlevel.obj
 0002:000083a8       ??_C@_1M@NMPCJPHE@?$AAi?$AAt?$AA?9?$AAc?$AAh@ 000000018002e3a8     libucrt:lcidtoname_downlevel.obj
 0002:000083b8       ??_C@_1M@GHKGFEDF@?$AAi?$AAt?$AA?9?$AAi?$AAt@ 000000018002e3b8     libucrt:lcidtoname_downlevel.obj
 0002:000083c8       ??_C@_1M@NIEJCJJA@?$AAj?$AAa?$AA?9?$AAj?$AAp@ 000000018002e3c8     libucrt:lcidtoname_downlevel.obj
 0002:000083d8       ??_C@_1M@JILFNBIM@?$AAk?$AAa?$AA?9?$AAg?$AAe@ 000000018002e3d8     libucrt:lcidtoname_downlevel.obj
 0002:000083e8       ??_C@_1M@PACPMGPH@?$AAk?$AAk?$AA?9?$AAk?$AAz@ 000000018002e3e8     libucrt:lcidtoname_downlevel.obj
 0002:000083f8       ??_C@_1M@IELFGMHA@?$AAk?$AAn?$AA?9?$AAi?$AAn@ 000000018002e3f8     libucrt:lcidtoname_downlevel.obj
 0002:00008408       ??_C@_1O@IBBJHCH@?$AAk?$AAo?$AAk?$AA?9?$AAi?$AAn@ 000000018002e408     libucrt:lcidtoname_downlevel.obj
 0002:00008418       ??_C@_1M@DMHAEOGC@?$AAk?$AAo?$AA?9?$AAk?$AAr@ 000000018002e418     libucrt:lcidtoname_downlevel.obj
 0002:00008428       ??_C@_1M@HBAHBIGA@?$AAk?$AAy?$AA?9?$AAk?$AAg@ 000000018002e428     libucrt:lcidtoname_downlevel.obj
 0002:00008438       ??_C@_1M@KPMILCJG@?$AAl?$AAt?$AA?9?$AAl?$AAt@ 000000018002e438     libucrt:lcidtoname_downlevel.obj
 0002:00008448       ??_C@_1M@BDEKKCA@?$AAl?$AAv?$AA?9?$AAl?$AAv@ 000000018002e448     libucrt:lcidtoname_downlevel.obj
 0002:00008458       ??_C@_1M@ELCKCCJJ@?$AAm?$AAi?$AA?9?$AAn?$AAz@ 000000018002e458     libucrt:lcidtoname_downlevel.obj
 0002:00008468       ??_C@_1M@CBOOLAPA@?$AAm?$AAk?$AA?9?$AAm?$AAk@ 000000018002e468     libucrt:lcidtoname_downlevel.obj
 0002:00008478       ??_C@_1M@GPHNBJKN@?$AAm?$AAl?$AA?9?$AAi?$AAn@ 000000018002e478     libucrt:lcidtoname_downlevel.obj
 0002:00008488       ??_C@_1M@PABJILIG@?$AAm?$AAn?$AA?9?$AAm?$AAn@ 000000018002e488     libucrt:lcidtoname_downlevel.obj
 0002:00008498       ??_C@_1M@FGBKKIPG@?$AAm?$AAr?$AA?9?$AAi?$AAn@ 000000018002e498     libucrt:lcidtoname_downlevel.obj
 0002:000084a8       ??_C@_1M@NDBPDDAL@?$AAm?$AAs?$AA?9?$AAb?$AAn@ 000000018002e4a8     libucrt:lcidtoname_downlevel.obj
 0002:000084b8       ??_C@_1M@OPIHOOPI@?$AAm?$AAs?$AA?9?$AAm?$AAy@ 000000018002e4b8     libucrt:lcidtoname_downlevel.obj
 0002:000084c8       ??_C@_1M@PPDBCNFM@?$AAm?$AAt?$AA?9?$AAm?$AAt@ 000000018002e4c8     libucrt:lcidtoname_downlevel.obj
 0002:000084d8       ??_C@_1M@KDJDKMDD@?$AAn?$AAb?$AA?9?$AAn?$AAo@ 000000018002e4d8     libucrt:lcidtoname_downlevel.obj
 0002:000084e8       ??_C@_1M@KFCFLMJP@?$AAn?$AAl?$AA?9?$AAb?$AAe@ 000000018002e4e8     libucrt:lcidtoname_downlevel.obj
 0002:000084f8       ??_C@_1M@KPOPDDGO@?$AAn?$AAl?$AA?9?$AAn?$AAl@ 000000018002e4f8     libucrt:lcidtoname_downlevel.obj
 0002:00008508       ??_C@_1M@LJKPEMLN@?$AAn?$AAn?$AA?9?$AAn?$AAo@ 000000018002e508     libucrt:lcidtoname_downlevel.obj
 0002:00008518       ??_C@_1M@BDGHHBFL@?$AAn?$AAs?$AA?9?$AAz?$AAa@ 000000018002e518     libucrt:lcidtoname_downlevel.obj
 0002:00008528       ??_C@_1M@IDEHOAP@?$AAp?$AAa?$AA?9?$AAi?$AAn@ 000000018002e528     libucrt:lcidtoname_downlevel.obj
 0002:00008538       ??_C@_1M@HDBKGOGH@?$AAp?$AAl?$AA?9?$AAp?$AAl@ 000000018002e538     libucrt:lcidtoname_downlevel.obj
 0002:00008548       ??_C@_1M@LJLLCMEH@?$AAp?$AAt?$AA?9?$AAb?$AAr@ 000000018002e548     libucrt:lcidtoname_downlevel.obj
 0002:00008558       ??_C@_1M@NCMONAAL@?$AAp?$AAt?$AA?9?$AAp?$AAt@ 000000018002e558     libucrt:lcidtoname_downlevel.obj
 0002:00008568       ??_C@_1O@EAKMAJDN@?$AAq?$AAu?$AAz?$AA?9?$AAb?$AAo@ 000000018002e568     libucrt:lcidtoname_downlevel.obj
 0002:00008578       ??_C@_1O@BHHPIGDN@?$AAq?$AAu?$AAz?$AA?9?$AAe?$AAc@ 000000018002e578     libucrt:lcidtoname_downlevel.obj
 0002:00008588       ??_C@_1O@GBAPEKMJ@?$AAq?$AAu?$AAz?$AA?9?$AAp?$AAe@ 000000018002e588     libucrt:lcidtoname_downlevel.obj
 0002:00008598       ??_C@_1M@CLGLEFBO@?$AAr?$AAo?$AA?9?$AAr?$AAo@ 000000018002e598     libucrt:lcidtoname_downlevel.obj
 0002:000085a8       ??_C@_1M@CEEDODME@?$AAr?$AAu?$AA?9?$AAr?$AAu@ 000000018002e5a8     libucrt:lcidtoname_downlevel.obj
 0002:000085b8       ??_C@_1M@HPKKKMPP@?$AAs?$AAa?$AA?9?$AAi?$AAn@ 000000018002e5b8     libucrt:lcidtoname_downlevel.obj
 0002:000085c8       ??_C@_1M@BKMAIGOJ@?$AAs?$AAe?$AA?9?$AAf?$AAi@ 000000018002e5c8     libucrt:lcidtoname_downlevel.obj
 0002:000085d8       ??_C@_1M@NDPIFLFI@?$AAs?$AAe?$AA?9?$AAn?$AAo@ 000000018002e5d8     libucrt:lcidtoname_downlevel.obj
 0002:000085e8       ??_C@_1M@DANKKHJ@?$AAs?$AAe?$AA?9?$AAs?$AAe@ 000000018002e5e8     libucrt:lcidtoname_downlevel.obj
 0002:000085f8       ??_C@_1M@PNBLONPJ@?$AAs?$AAk?$AA?9?$AAs?$AAk@ 000000018002e5f8     libucrt:lcidtoname_downlevel.obj
 0002:00008608       ??_C@_1M@LFMODOAL@?$AAs?$AAl?$AA?9?$AAs?$AAi@ 000000018002e608     libucrt:lcidtoname_downlevel.obj
 0002:00008618       ??_C@_1O@DFKOMPG@?$AAs?$AAm?$AAa?$AA?9?$AAn?$AAo@ 000000018002e618     libucrt:lcidtoname_downlevel.obj
 0002:00008628       ??_C@_1O@NDKPBNNH@?$AAs?$AAm?$AAa?$AA?9?$AAs?$AAe@ 000000018002e628     libucrt:lcidtoname_downlevel.obj
 0002:00008638       ??_C@_1O@PLLKBHAB@?$AAs?$AAm?$AAj?$AA?9?$AAn?$AAo@ 000000018002e638     libucrt:lcidtoname_downlevel.obj
 0002:00008648       ??_C@_1O@CLEPOGCA@?$AAs?$AAm?$AAj?$AA?9?$AAs?$AAe@ 000000018002e648     libucrt:lcidtoname_downlevel.obj
 0002:00008658       ??_C@_1O@DLGJGKMK@?$AAs?$AAm?$AAn?$AA?9?$AAf?$AAi@ 000000018002e658     libucrt:lcidtoname_downlevel.obj
 0002:00008668       ??_C@_1O@OJDJGAJC@?$AAs?$AAm?$AAs?$AA?9?$AAf?$AAi@ 000000018002e668     libucrt:lcidtoname_downlevel.obj
 0002:00008678       ??_C@_1M@BOFOGHPB@?$AAs?$AAq?$AA?9?$AAa?$AAl@ 000000018002e678     libucrt:lcidtoname_downlevel.obj
 0002:00008688       ??_C@_1BG@LJBBIPGB@?$AAs?$AAr?$AA?9?$AAb?$AAa?$AA?9?$AAc?$AAy?$AAr?$AAl@ 000000018002e688     libucrt:lcidtoname_downlevel.obj
 0002:000086a0       ??_C@_1BG@JLBENFOE@?$AAs?$AAr?$AA?9?$AAb?$AAa?$AA?9?$AAl?$AAa?$AAt?$AAn@ 000000018002e6a0     libucrt:lcidtoname_downlevel.obj
 0002:000086b8       ??_C@_1BG@KODPNHE@?$AAs?$AAr?$AA?9?$AAs?$AAp?$AA?9?$AAc?$AAy?$AAr?$AAl@ 000000018002e6b8     libucrt:lcidtoname_downlevel.obj
 0002:000086d0       ??_C@_1BG@CIOGKHPB@?$AAs?$AAr?$AA?9?$AAs?$AAp?$AA?9?$AAl?$AAa?$AAt?$AAn@ 000000018002e6d0     libucrt:lcidtoname_downlevel.obj
 0002:000086e8       ??_C@_1M@NGFJLMAC@?$AAs?$AAv?$AA?9?$AAf?$AAi@ 000000018002e6e8     libucrt:lcidtoname_downlevel.obj
 0002:000086f8       ??_C@_1M@MPJEJAJC@?$AAs?$AAv?$AA?9?$AAs?$AAe@ 000000018002e6f8     libucrt:lcidtoname_downlevel.obj
 0002:00008708       ??_C@_1M@MPNDHLFK@?$AAs?$AAw?$AA?9?$AAk?$AAe@ 000000018002e708     libucrt:lcidtoname_downlevel.obj
 0002:00008718       ??_C@_1O@KOHBJJI@?$AAs?$AAy?$AAr?$AA?9?$AAs?$AAy@ 000000018002e718     libucrt:lcidtoname_downlevel.obj
 0002:00008728       ??_C@_1M@LDCEFHA@?$AAt?$AAa?$AA?9?$AAi?$AAn@ 000000018002e728     libucrt:lcidtoname_downlevel.obj
 0002:00008738       ??_C@_1M@CNJOFAK@?$AAt?$AAe?$AA?9?$AAi?$AAn@ 000000018002e738     libucrt:lcidtoname_downlevel.obj
 0002:00008748       ??_C@_1M@GNAECACD@?$AAt?$AAh?$AA?9?$AAt?$AAh@ 000000018002e748     libucrt:lcidtoname_downlevel.obj
 0002:00008758       ??_C@_1M@CHBIHOJO@?$AAt?$AAn?$AA?9?$AAz?$AAa@ 000000018002e758     libucrt:lcidtoname_downlevel.obj
 0002:00008768       ??_C@_1M@GCCMIGPJ@?$AAt?$AAr?$AA?9?$AAt?$AAr@ 000000018002e768     libucrt:lcidtoname_downlevel.obj
 0002:00008778       ??_C@_1M@CELMCNBK@?$AAt?$AAt?$AA?9?$AAr?$AAu@ 000000018002e778     libucrt:lcidtoname_downlevel.obj
 0002:00008788       ??_C@_1M@KLMCELGA@?$AAu?$AAk?$AA?9?$AAu?$AAa@ 000000018002e788     libucrt:lcidtoname_downlevel.obj
 0002:00008798       ??_C@_1M@EPAJJAJF@?$AAu?$AAr?$AA?9?$AAp?$AAk@ 000000018002e798     libucrt:lcidtoname_downlevel.obj
 0002:000087a8       ??_C@_1BG@GEGPMCDJ@?$AAu?$AAz?$AA?9?$AAu?$AAz?$AA?9?$AAc?$AAy?$AAr?$AAl@ 000000018002e7a8     libucrt:lcidtoname_downlevel.obj
 0002:000087c0       ??_C@_1BG@EGGKJILM@?$AAu?$AAz?$AA?9?$AAu?$AAz?$AA?9?$AAl?$AAa?$AAt?$AAn@ 000000018002e7c0     libucrt:lcidtoname_downlevel.obj
 0002:000087d8       ??_C@_1M@GFOCLFF@?$AAv?$AAi?$AA?9?$AAv?$AAn@ 000000018002e7d8     libucrt:lcidtoname_downlevel.obj
 0002:000087e8       ??_C@_1M@CPAMEDFI@?$AAx?$AAh?$AA?9?$AAz?$AAa@ 000000018002e7e8     libucrt:lcidtoname_downlevel.obj
 0002:000087f8       ??_C@_1O@EBKIFIGN@?$AAz?$AAh?$AA?9?$AAc?$AAh?$AAs@ 000000018002e7f8     libucrt:lcidtoname_downlevel.obj
 0002:00008808       ??_C@_1O@NMHPGANE@?$AAz?$AAh?$AA?9?$AAc?$AAh?$AAt@ 000000018002e808     libucrt:lcidtoname_downlevel.obj
 0002:00008818       ??_C@_1M@LPINJOMC@?$AAz?$AAh?$AA?9?$AAc?$AAn@ 000000018002e818     libucrt:lcidtoname_downlevel.obj
 0002:00008828       ??_C@_1M@OCJEJODD@?$AAz?$AAh?$AA?9?$AAh?$AAk@ 000000018002e828     libucrt:lcidtoname_downlevel.obj
 0002:00008838       ??_C@_1M@DNDLJINH@?$AAz?$AAh?$AA?9?$AAm?$AAo@ 000000018002e838     libucrt:lcidtoname_downlevel.obj
 0002:00008848       ??_C@_1M@MBFDNDND@?$AAz?$AAh?$AA?9?$AAs?$AAg@ 000000018002e848     libucrt:lcidtoname_downlevel.obj
 0002:00008858       ??_C@_1M@IMEPLEPE@?$AAz?$AAh?$AA?9?$AAt?$AAw@ 000000018002e858     libucrt:lcidtoname_downlevel.obj
 0002:00008868       ??_C@_1M@BBGHNHJP@?$AAz?$AAu?$AA?9?$AAz?$AAa@ 000000018002e868     libucrt:lcidtoname_downlevel.obj
 0002:00008880       ?large_power_data@?1??multiply_by_power_of_ten@__crt_strtox@@YA_NAEAUbig_integer@2@I@Z@4QBIB 000000018002e880     libucrt:cfout.obj
 0002:00009190       ?large_power_indices@?1??multiply_by_power_of_ten@__crt_strtox@@YA_NAEAUbig_integer@2@I@Z@4QBUunpack_index@?1??12@YA_N0I@Z@B 000000018002f190     libucrt:cfout.obj
 0002:00009228       ?small_powers_of_ten@?1??multiply_by_power_of_ten@__crt_strtox@@YA_NAEAUbig_integer@2@I@Z@4QBIB 000000018002f228     libucrt:cfout.obj
 0002:0000924c       ??_C@_01GBGANLPD@0@        000000018002f24c     libucrt:cfout.obj
 0002:00009250       ??_C@_05DNEBIAHO@1?$CDINF@ 000000018002f250     libucrt:cfout.obj
 0002:00009258       ??_C@_06IMKFLFPG@1?$CDQNAN@ 000000018002f258     libucrt:cfout.obj
 0002:00009260       ??_C@_06PGGFOGJG@1?$CDSNAN@ 000000018002f260     libucrt:cfout.obj
 0002:00009268       ??_C@_05PHHOCPM@1?$CDIND@  000000018002f268     libucrt:cfout.obj
 0002:00009298       __real@3ff0000000000000    000000018002f298     libucrt:ceil.obj
 0002:000094f0       __log10_256_lead           000000018002f4f0     libucrt:log10_256_lead_tail_table.obj
 0002:00009d00       __log10_256_tail           000000018002fd00     libucrt:log10_256_lead_tail_table.obj
 0002:0000a510       __log_F_inv_qword          0000000180030510     libucrt:log_f_inv_qword_table.obj
 0002:0000ad20       ??_C@_05HGHHAHAP@log10@    0000000180030d20     libucrt:log_special.obj
 0002:0000ad28       ??_C@_1BA@BALFACEM@?$AAC?$AAO?$AAN?$AAO?$AAU?$AAT?$AA$@ 0000000180030d28     libucrt:initcon.obj
 0002:0000adb0       _load_config_used          0000000180030db0     LIBCMT:loadcfg.obj
 0002:0000af00       _tls_used                  0000000180030f00     LIBCMT:tlssup.obj
 0002:0000af28       ??_R4exception@std@@6B@    0000000180030f28     LIBCMT:throw_bad_alloc.obj
 0002:0000af50       ??_R3exception@std@@8      0000000180030f50     LIBCMT:throw_bad_alloc.obj
 0002:0000af68       ??_R2exception@std@@8      0000000180030f68     LIBCMT:throw_bad_alloc.obj
 0002:0000af78       ??_R1A@?0A@EA@exception@std@@8 0000000180030f78     LIBCMT:throw_bad_alloc.obj
 0002:0000afa0       ??_R4bad_alloc@std@@6B@    0000000180030fa0     LIBCMT:throw_bad_alloc.obj
 0002:0000afc8       ??_R3bad_alloc@std@@8      0000000180030fc8     LIBCMT:throw_bad_alloc.obj
 0002:0000afe0       ??_R2bad_alloc@std@@8      0000000180030fe0     LIBCMT:throw_bad_alloc.obj
 0002:0000aff8       ??_R1A@?0A@EA@bad_alloc@std@@8 0000000180030ff8     LIBCMT:throw_bad_alloc.obj
 0002:0000b020       ??_R4bad_array_new_length@std@@6B@ 0000000180031020     LIBCMT:throw_bad_alloc.obj
 0002:0000b048       ??_R3bad_array_new_length@std@@8 0000000180031048     LIBCMT:throw_bad_alloc.obj
 0002:0000b060       ??_R2bad_array_new_length@std@@8 0000000180031060     LIBCMT:throw_bad_alloc.obj
 0002:0000b080       ??_R1A@?0A@EA@bad_array_new_length@std@@8 0000000180031080     LIBCMT:throw_bad_alloc.obj
 0002:0000b0a8       ??_R4type_info@@6B@        00000001800310a8     LIBCMT:std_type_info_static.obj
 0002:0000b0d0       ??_R3type_info@@8          00000001800310d0     LIBCMT:std_type_info_static.obj
 0002:0000b0e8       ??_R2type_info@@8          00000001800310e8     LIBCMT:std_type_info_static.obj
 0002:0000b0f8       ??_R1A@?0A@EA@type_info@@8 00000001800310f8     LIBCMT:std_type_info_static.obj
 0002:0000b120       ??_R4bad_exception@std@@6B@ 0000000180031120     libvcruntime:frame.obj
 0002:0000b148       ??_R3bad_exception@std@@8  0000000180031148     libvcruntime:frame.obj
 0002:0000b160       ??_R2bad_exception@std@@8  0000000180031160     libvcruntime:frame.obj
 0002:0000b178       ??_R1A@?0A@EA@bad_exception@std@@8 0000000180031178     libvcruntime:frame.obj
 0002:0000b19c       __volatile_metadata        000000018003119c     <linker-defined>
 0002:0000b620       __rtc_iaa                  0000000180031620     LIBCMT:initsect.obj
 0002:0000b628       __rtc_izz                  0000000180031628     LIBCMT:initsect.obj
 0002:0000b630       __rtc_taa                  0000000180031630     LIBCMT:initsect.obj
 0002:0000b638       __rtc_tzz                  0000000180031638     LIBCMT:initsect.obj
 0002:0000b640       _tls_start                 0000000180031640     LIBCMT:tlssup.obj
 0002:0000b644       _Init_thread_epoch         0000000180031644     LIBCMT:thread_safe_statics.obj
 0002:0000b648       _tls_end                   0000000180031648     LIBCMT:tlssup.obj
 0002:0000cf88       _TI2?AVbad_alloc@std@@     0000000180032f88     LIBCMT:throw_bad_alloc.obj
 0002:0000cfa8       _CTA2?AVbad_alloc@std@@    0000000180032fa8     LIBCMT:throw_bad_alloc.obj
 0002:0000cfc0       _CT??_R0?AVbad_alloc@std@@@8??0bad_alloc@std@@QEAA@AEBV01@@Z24 0000000180032fc0     LIBCMT:throw_bad_alloc.obj
 0002:0000cfe8       _CT??_R0?AVexception@std@@@8??0exception@std@@QEAA@AEBV01@@Z24 0000000180032fe8     LIBCMT:throw_bad_alloc.obj
 0002:0000d010       _TI3?AVbad_array_new_length@std@@ 0000000180033010     LIBCMT:throw_bad_alloc.obj
 0002:0000d030       _CTA3?AVbad_array_new_length@std@@ 0000000180033030     LIBCMT:throw_bad_alloc.obj
 0002:0000d050       _CT??_R0?AVbad_array_new_length@std@@@8??0bad_array_new_length@std@@QEAA@AEBV01@@Z24 0000000180033050     LIBCMT:throw_bad_alloc.obj
 0002:0000d078       _TI2?AVbad_exception@std@@ 0000000180033078     libvcruntime:frame.obj
 0002:0000d098       _CTA2?AVbad_exception@std@@ 0000000180033098     libvcruntime:frame.obj
 0002:0000d0b0       _CT??_R0?AVbad_exception@std@@@8??0bad_exception@std@@QEAA@AEBV01@@Z24 00000001800330b0     libvcruntime:frame.obj
 0002:0000d0d8       __pobjMapEntryFirst        00000001800330d8     OposVariant.obj
 0002:0000d0e0       __pobjMapEntryLast         00000001800330e0     OposVariant.obj
 0002:0000d1a0       __IMPORT_DESCRIPTOR_KERNEL32 00000001800331a0     kernel32:KERNEL32.dll
 0002:0000d1b4       __IMPORT_DESCRIPTOR_USER32 00000001800331b4     user32:USER32.dll
 0002:0000d1c8       __IMPORT_DESCRIPTOR_GDI32  00000001800331c8     gdi32:GDI32.dll
 0002:0000d1dc       __IMPORT_DESCRIPTOR_ADVAPI32 00000001800331dc     advapi32:ADVAPI32.dll
 0002:0000d1f0       __IMPORT_DESCRIPTOR_ole32  00000001800331f0     ole32:ole32.dll
 0002:0000d204       __IMPORT_DESCRIPTOR_OLEAUT32 0000000180033204     oleaut32:OLEAUT32.dll
 0002:0000d218       __NULL_IMPORT_DESCRIPTOR   0000000180033218     kernel32:KERNEL32.dll
 0003:00000000       ?rcDefault@CWindow@ATL@@2UtagRECT@@A 0000000180035000     VideoCapture.obj
 0003:00000010       ?s_Claim@?7??GetIDsOfNames@CComTypeInfoHolder@ATL@@QEAAJAEBU_GUID@@PEAPEA_WIKPEAJ@Z@4PA_WA 0000000180035010     VideoCapture.obj
 0003:00000028       ?s_Release@?7??GetIDsOfNames@CComTypeInfoHolder@ATL@@QEAAJAEBU_GUID@@PEAPEA_WIKPEAJ@Z@4PA_WA 0000000180035028     VideoCapture.obj
 0003:00000048       ?_tih@?$IDispatchImpl@UIOPOSVideoCapture@@$1?IID_IOPOSVideoCapture@@3U_GUID@@B$1?LIBID_OposVideoCapture_CCO@@3U3@B$00$0A@VCComTypeInfoHolder@ATL@@@ATL@@1VCComTypeInfoHolder@2@A 0000000180035048     VideoCapture.obj
 0003:00000080       ?_tih@?$IProvideClassInfo2Impl@$1?CLSID_OPOSVideoCapture@@3U_GUID@@B$1?DIID__IOPOSVideoCaptureEvents@@3U2@B$1?LIBID_OposVideoCapture_CCO@@3U2@B$00$0A@VCComTypeInfoHolder@ATL@@@ATL@@1VCComTypeInfoHolder@2@A 0000000180035080     VideoCapture.obj
 0003:000000b8       ?vszContents@?6??Save@?$IPersistStorageImpl@VCOPOSVideoCapture@@@ATL@@UEAAJPEAUIStorage@@H@Z@4PEB_WEB 00000001800350b8     VideoCapture.obj
 0003:000000c0       ?wc@?1??GetWndClassInfo@?$CWindowImpl@VCOPOSVideoCapture@@VCWindow@ATL@@V?$CWinTraits@$0FGAAAAAA@$0A@@3@@ATL@@SAAEAU_ATL_WNDCLASSINFOW@3@XZ@4U43@A 00000001800350c0     VideoCapture.obj
 0003:00000250       ?g_WindowName@@3PA_WA      0000000180035250     VideoCaptureImpl.obj
 0003:00000278       ?g_ControlDescription@@3PADA 0000000180035278     VideoCaptureImpl.obj
 0003:000002ac       ?g_ControlVersion@@3JA     00000001800352ac     VideoCaptureImpl.obj
 0003:0000035c       __scrt_native_dllmain_reason 000000018003535c     LIBCMT:utility.obj
 0003:00000360       _Init_global_epoch         0000000180035360     LIBCMT:thread_safe_statics.obj
 0003:00000370       __security_cookie          0000000180035370     LIBCMT:gs_cookie.obj
 0003:00000378       __security_cookie_complement 0000000180035378     LIBCMT:gs_cookie.obj
 0003:00000380       __isa_available            0000000180035380     LIBCMT:cpu_disp.obj
 0003:00000384       __isa_enabled              0000000180035384     LIBCMT:cpu_disp.obj
 0003:00000388       __memcpy_nt_iters          0000000180035388     LIBCMT:cpu_disp.obj
 0003:00000390       __memset_nt_iters          0000000180035390     LIBCMT:cpu_disp.obj
 0003:000003b8       __abort_behavior           00000001800353b8     libucrt:abort.obj
 0003:000003d0       __acrt_initial_locale_data 00000001800353d0     libucrt:nlsdata.obj
 0003:00000528       __acrt_initial_locale_pointers 0000000180035528     libucrt:nlsdata.obj
 0003:00000538       __acrt_wide_c_locale_string 0000000180035538     libucrt:nlsdata.obj
 0003:00000540       _iob                       0000000180035540     libucrt:_file.obj
 0003:00000650       __acrt_initial_multibyte_data 0000000180035650     libucrt:mbctype.obj
 0003:00000b90       __acrt_lconv_c             0000000180035b90     libucrt:localeconv.obj
 0003:00000c28       __acrt_lconv_static_decimal 0000000180035c28     libucrt:localeconv.obj
 0003:00000c2c       __acrt_lconv_static_W_decimal 0000000180035c2c     libucrt:localeconv.obj
 0003:00000c30       __globallocalestatus       0000000180035c30     libucrt:glstatus.obj
 0003:00000c40       _lookuptrailbytes          0000000180035c40     libucrt:read.obj
 0003:00000d64       _fltused                   0000000180035d64     LIBCMT:fltused.obj
 0003:00000d68       ??_R0?AVbad_alloc@std@@@8  0000000180035d68     LIBCMT:throw_bad_alloc.obj
 0003:00000d90       ??_R0?AVexception@std@@@8  0000000180035d90     LIBCMT:throw_bad_alloc.obj
 0003:00000db8       ??_R0?AVbad_array_new_length@std@@@8 0000000180035db8     LIBCMT:throw_bad_alloc.obj
 0003:00000de8       ??_R0?AVbad_exception@std@@@8 0000000180035de8     libvcruntime:frame.obj
 0003:00000e10       ??_R0?AVtype_info@@@8      0000000180035e10     LIBCMT:std_type_info_static.obj
 0003:00000e30       ?m_bInitFailed@CAtlBaseModule@ATL@@2_NA 0000000180035e30     OposVariant.obj
 0003:00000e38       ?_pPerfRegFunc@ATL@@3P6AJPEAUHINSTANCE__@@@ZEA 0000000180035e38     OposVariant.obj
 0003:00000e40       ?_pPerfUnRegFunc@ATL@@3P6AJXZEA 0000000180035e40     OposVariant.obj
 0003:00000e48       ?_AtlRegisterPerUser@ATL@@3_NA 0000000180035e48     OposVariant.obj
 0003:00000e50       ?_pAtlModule@ATL@@3PEAVCAtlModule@1@EA 0000000180035e50     OposVariant.obj
 0003:00000e58       ?_pModule@ATL@@3PEAVCComModule@1@EA 0000000180035e58     OposVariant.obj
 0003:00000e60       ?_AtlComModule@ATL@@3VCAtlComModule@1@A 0000000180035e60     OposVariant.obj
 0003:00000eb0       ?_AtlWinModule@ATL@@3VCAtlWinModule@1@A 0000000180035eb0     OposVariant.obj
 0003:00000ef8       ?m_libid@CAtlModule@ATL@@2U_GUID@@A 0000000180035ef8     VideoCapture.obj
 0003:00000f08       ?_entries@?1??GetConnMap@COPOSVideoCapture@@SAPEBU_ATL_CONNMAP_ENTRY@ATL@@PEAH@Z@4QBU34@B 0000000180035f08     VideoCapture.obj
 0003:00000f20       ?$TSS0@?1??GetConnMap@COPOSVideoCapture@@SAPEBU_ATL_CONNMAP_ENTRY@ATL@@PEAH@Z@4HA 0000000180035f20     VideoCapture.obj
 0003:00000f28       ?_OptionsStorage@?1??__local_stdio_printf_options@@9@4_KA 0000000180035f28     VideoCapture.obj
 0003:00000f30       ?pfnRegDeleteKeyEx@?1??DeleteSubKey@CRegKey@ATL@@QEAAJPEB_W@Z@4P6AJPEAUHKEY__@@0KK@ZEA 0000000180035f30     VideoCapture.obj
 0003:00000f38       ?bInitialized@?1??DeleteSubKey@CRegKey@ATL@@QEAAJPEB_W@Z@4_NA 0000000180035f38     VideoCapture.obj
 0003:00000f40       ?_Module@@3VCComModule@ATL@@A 0000000180035f40     VideoCapture.obj
 0003:00000f90       ?pConnMap@?$IConnectionPointContainerImpl@VCOPOSVideoCapture@@@ATL@@0PEBU_ATL_CONNMAP_ENTRY@2@EB 0000000180035f90     VideoCapture.obj
 0003:00000f98       ?s_nInstances@COPOSVideoCapture@@1HA 0000000180035f98     VideoCaptureImpl.obj
 0003:00000fa0       __scrt_current_native_startup_state 0000000180035fa0     LIBCMT:utility.obj
 0003:00000fa8       __scrt_native_startup_lock 0000000180035fa8     LIBCMT:utility.obj
 0003:000015a0       _tls_index                 00000001800365a0     LIBCMT:tlssup.obj
 0003:000015a8       __favor                    00000001800365a8     LIBCMT:cpu_disp.obj
 0003:000015ac       __scrt_debugger_hook_flag  00000001800365ac     LIBCMT:utility_desktop.obj
 0003:000015b0       ?__type_info_root_node@@3U__type_info_node@@A 00000001800365b0     LIBCMT:tncleanup.obj
 0003:000015c0       ?_OptionsStorage@?1??__local_stdio_scanf_options@@9@4_KA 00000001800365c0     LIBCMT:default_local_stdio_options.obj
 0003:000015d0       ?_AtlBaseModule@ATL@@3VCAtlBaseModule@1@A 00000001800365d0     atls:atlbase.obj
 0003:00001630       ?__AtlThunkPool@@3PEAT_SLIST_HEADER@@EA 0000000180036630     atls:atlthunk.obj
 0003:0000165c       __@@_PchSym_@00@UzABUPdlipUCAUhUrmgvinvwrzgvUexgllohUzgohOmzgrevkilqPBACIAJCBDBUlyqiUznwGEUhgwzucOlyq@4B2008FD98C1DD4 000000018003665c     atls:stdafx.obj
 0003:00001660       ?__WinRTOutOfMemoryExceptionCallback@@3P6APEAXXZEA 0000000180036660     libvcruntime:ehhelpers.obj
 0003:00001668       __pPurecall                0000000180036668     libvcruntime:purevirt_data.obj
 0003:00001720       ?pArgList@UnDecorator@@0PEAVReplicator@@EA 0000000180036720     libvcruntime:undname.obj
 0003:00001728       ?pZNameList@UnDecorator@@0PEAVReplicator@@EA 0000000180036728     libvcruntime:undname.obj
 0003:00001730       ?pTemplateArgList@UnDecorator@@0PEAVReplicator@@EA 0000000180036730     libvcruntime:undname.obj
 0003:00001738       ?gName@UnDecorator@@0PEBDEB 0000000180036738     libvcruntime:undname.obj
 0003:00001740       ?name@UnDecorator@@0PEBDEB 0000000180036740     libvcruntime:undname.obj
 0003:00001748       ?disableFlags@UnDecorator@@0KA 0000000180036748     libvcruntime:undname.obj
 0003:0000174c       ?fExplicitTemplateParams@UnDecorator@@0_NA 000000018003674c     libvcruntime:undname.obj
 0003:0000174d       ?fGetTemplateArgumentList@UnDecorator@@0_NA 000000018003674d     libvcruntime:undname.obj
 0003:00001750       ?m_pGetParameter@UnDecorator@@0P6APEADJ@ZEA 0000000180036750     libvcruntime:undname.obj
 0003:00001758       ?m_CHPENameOffset@UnDecorator@@0KA 0000000180036758     libvcruntime:undname.obj
 0003:0000175c       ?m_recursionLevel@UnDecorator@@0KA 000000018003675c     libvcruntime:undname.obj
 0003:000017e0       ?c_exit_complete@?1???R<lambda_6e4b09c48022b2350581041d5f6b0c4c>@@QEBA@XZ@4_NA 00000001800367e0     libucrt:exit.obj
 0003:000018f8       _environ_table             00000001800368f8     libucrt:environment_initialization.obj
 0003:00001900       _wenviron_table            0000000180036900     libucrt:environment_initialization.obj
 0003:00001908       __dcrt_initial_wide_environment 0000000180036908     libucrt:environment_initialization.obj
 0003:00001910       __dcrt_initial_narrow_environment 0000000180036910     libucrt:environment_initialization.obj
 0003:00001918       __acrt_atexit_table        0000000180036918     libucrt:onexit.obj
 0003:00001930       __acrt_at_quick_exit_table 0000000180036930     libucrt:onexit.obj
 0003:00001950       __acrt_locale_changed_data 0000000180036950     libucrt:wsetlocale.obj
 0003:00001958       __acrt_current_locale_data 0000000180036958     libucrt:nlsdata.obj
 0003:00001af8       _nstream                   0000000180036af8     libucrt:_file.obj
 0003:00001b00       __piob                     0000000180036b00     libucrt:_file.obj
 0003:00001b10       __acrt_stdout_buffer       0000000180036b10     libucrt:_sftbuf.obj
 0003:00001b18       __acrt_stderr_buffer       0000000180036b18     libucrt:_sftbuf.obj
 0003:00001b20       __pioinfo                  0000000180036b20     libucrt:ioinit.obj
 0003:00001f20       _nhandle                   0000000180036f20     libucrt:ioinit.obj
 0003:00002168       _mbctype                   0000000180037168     libucrt:mbctype.obj
 0003:00002170       _mbcasemap                 0000000180037170     libucrt:mbctype.obj
 0003:00002178       __acrt_current_multibyte_data 0000000180037178     libucrt:mbctype.obj
 0003:00002188       _pgmptr                    0000000180037188     libucrt:argv_data.obj
 0003:00002190       __argc                     0000000180037190     libucrt:argv_data.obj
 0003:00002198       __argv                     0000000180037198     libucrt:argv_data.obj
 0003:000021a0       __wargv                    00000001800371a0     libucrt:argv_data.obj
 0003:000021a8       _acmdln                    00000001800371a8     libucrt:argv_data.obj
 0003:000021b0       _wcmdln                    00000001800371b0     libucrt:argv_data.obj
 0003:000021b8       __acrt_heap                00000001800371b8     libucrt:heap_handle.obj
 0003:000021e8       __acrt_lconv_static_null   00000001800371e8     libucrt:localeconv.obj
 0003:000021ec       __acrt_lconv_static_W_null 00000001800371ec     libucrt:localeconv.obj
 0003:00002204       __fma3_is_available        0000000180037204     libucrt:fma3_available.obj
 0003:00002208       __use_fma3_lib             0000000180037208     libucrt:fma3_available.obj
 0003:00002210       __dyn_tls_init_callback    0000000180037210     <common>
 0003:00002218       __scrt_ucrt_dll_is_in_use  0000000180037218     <common>

 entry point at        0001:0000f540

 Static symbols

 0000:fffbd000       .debug$S                   0000000180000000     OPOSVideoCapture.exp
 0000:fffbd000       .debug$S                   0000000180000000     advapi32:ADVAPI32.dll
 0000:fffbd000       .debug$S                   0000000180000000     advapi32:ADVAPI32.dll
 0000:fffbd000       .debug$S                   0000000180000000     advapi32:ADVAPI32.dll
 0000:fffbd000       .debug$S                   0000000180000000     advapi32:ADVAPI32.dll
 0000:fffbd000       .debug$S                   0000000180000000     advapi32:ADVAPI32.dll
 0000:fffbd000       .debug$S                   0000000180000000     advapi32:ADVAPI32.dll
 0000:fffbd000       .debug$S                   0000000180000000     advapi32:ADVAPI32.dll
 0000:fffbd000       .debug$S                   0000000180000000     advapi32:ADVAPI32.dll
 0000:fffbd000       .debug$S                   0000000180000000     advapi32:ADVAPI32.dll
 0000:fffbd000       .debug$S                   0000000180000000     gdi32:GDI32.dll
 0000:fffbd000       .debug$S                   0000000180000000     gdi32:GDI32.dll
 0000:fffbd000       .debug$S                   0000000180000000     gdi32:GDI32.dll
 0000:fffbd000       .debug$S                   0000000180000000     gdi32:GDI32.dll
 0000:fffbd000       .debug$S                   0000000180000000     gdi32:GDI32.dll
 0000:fffbd000       .debug$S                   0000000180000000     gdi32:GDI32.dll
 0000:fffbd000       .debug$S                   0000000180000000     gdi32:GDI32.dll
 0000:fffbd000       .debug$S                   0000000180000000     gdi32:GDI32.dll
 0000:fffbd000       .debug$S                   0000000180000000     gdi32:GDI32.dll
 0000:fffbd000       .debug$S                   0000000180000000     gdi32:GDI32.dll
 0000:fffbd000       .debug$S                   0000000180000000     gdi32:GDI32.dll
 0000:fffbd000       .debug$S                   0000000180000000     gdi32:GDI32.dll
 0000:fffbd000       .debug$S                   0000000180000000     gdi32:GDI32.dll
 0000:fffbd000       .debug$S                   0000000180000000     gdi32:GDI32.dll
 0000:fffbd000       .debug$S                   0000000180000000     gdi32:GDI32.dll
 0000:fffbd000       .debug$S                   0000000180000000     gdi32:GDI32.dll
 0000:fffbd000       .debug$S                   0000000180000000     gdi32:GDI32.dll
 0000:fffbd000       .debug$S                   0000000180000000     gdi32:GDI32.dll
 0000:fffbd000       .debug$S                   0000000180000000     gdi32:GDI32.dll
 0000:fffbd000       .debug$S                   0000000180000000     kernel32:KERNEL32.dll
 0000:fffbd000       .debug$S                   0000000180000000     kernel32:KERNEL32.dll
 0000:fffbd000       .debug$S                   0000000180000000     kernel32:KERNEL32.dll
 0000:fffbd000       .debug$S                   0000000180000000     kernel32:KERNEL32.dll
 0000:fffbd000       .debug$S                   0000000180000000     kernel32:KERNEL32.dll
 0000:fffbd000       .debug$S                   0000000180000000     kernel32:KERNEL32.dll
 0000:fffbd000       .debug$S                   0000000180000000     kernel32:KERNEL32.dll
 0000:fffbd000       .debug$S                   0000000180000000     kernel32:KERNEL32.dll
 0000:fffbd000       .debug$S                   0000000180000000     kernel32:KERNEL32.dll
 0000:fffbd000       .debug$S                   0000000180000000     kernel32:KERNEL32.dll
 0000:fffbd000       .debug$S                   0000000180000000     kernel32:KERNEL32.dll
 0000:fffbd000       .debug$S                   0000000180000000     kernel32:KERNEL32.dll
 0000:fffbd000       .debug$S                   0000000180000000     kernel32:KERNEL32.dll
 0000:fffbd000       .debug$S                   0000000180000000     kernel32:KERNEL32.dll
 0000:fffbd000       .debug$S                   0000000180000000     kernel32:KERNEL32.dll
 0000:fffbd000       .debug$S                   0000000180000000     kernel32:KERNEL32.dll
 0000:fffbd000       .debug$S                   0000000180000000     kernel32:KERNEL32.dll
 0000:fffbd000       .debug$S                   0000000180000000     kernel32:KERNEL32.dll
 0000:fffbd000       .debug$S                   0000000180000000     kernel32:KERNEL32.dll
 0000:fffbd000       .debug$S                   0000000180000000     kernel32:KERNEL32.dll
 0000:fffbd000       .debug$S                   0000000180000000     kernel32:KERNEL32.dll
 0000:fffbd000       .debug$S                   0000000180000000     kernel32:KERNEL32.dll
 0000:fffbd000       .debug$S                   0000000180000000     kernel32:KERNEL32.dll
 0000:fffbd000       .debug$S                   0000000180000000     kernel32:KERNEL32.dll
 0000:fffbd000       .debug$S                   0000000180000000     kernel32:KERNEL32.dll
 0000:fffbd000       .debug$S                   0000000180000000     kernel32:KERNEL32.dll
 0000:fffbd000       .debug$S                   0000000180000000     kernel32:KERNEL32.dll
 0000:fffbd000       .debug$S                   0000000180000000     kernel32:KERNEL32.dll
 0000:fffbd000       .debug$S                   0000000180000000     kernel32:KERNEL32.dll
 0000:fffbd000       .debug$S                   0000000180000000     kernel32:KERNEL32.dll
 0000:fffbd000       .debug$S                   0000000180000000     kernel32:KERNEL32.dll
 0000:fffbd000       .debug$S                   0000000180000000     kernel32:KERNEL32.dll
 0000:fffbd000       .debug$S                   0000000180000000     kernel32:KERNEL32.dll
 0000:fffbd000       .debug$S                   0000000180000000     kernel32:KERNEL32.dll
 0000:fffbd000       .debug$S                   0000000180000000     kernel32:KERNEL32.dll
 0000:fffbd000       .debug$S                   0000000180000000     kernel32:KERNEL32.dll
 0000:fffbd000       .debug$S                   0000000180000000     kernel32:KERNEL32.dll
 0000:fffbd000       .debug$S                   0000000180000000     kernel32:KERNEL32.dll
 0000:fffbd000       .debug$S                   0000000180000000     kernel32:KERNEL32.dll
 0000:fffbd000       .debug$S                   0000000180000000     kernel32:KERNEL32.dll
 0000:fffbd000       .debug$S                   0000000180000000     kernel32:KERNEL32.dll
 0000:fffbd000       .debug$S                   0000000180000000     kernel32:KERNEL32.dll
 0000:fffbd000       .debug$S                   0000000180000000     kernel32:KERNEL32.dll
 0000:fffbd000       .debug$S                   0000000180000000     kernel32:KERNEL32.dll
 0000:fffbd000       .debug$S                   0000000180000000     kernel32:KERNEL32.dll
 0000:fffbd000       .debug$S                   0000000180000000     kernel32:KERNEL32.dll
 0000:fffbd000       .debug$S                   0000000180000000     kernel32:KERNEL32.dll
 0000:fffbd000       .debug$S                   0000000180000000     kernel32:KERNEL32.dll
 0000:fffbd000       .debug$S                   0000000180000000     kernel32:KERNEL32.dll
 0000:fffbd000       .debug$S                   0000000180000000     kernel32:KERNEL32.dll
 0000:fffbd000       .debug$S                   0000000180000000     kernel32:KERNEL32.dll
 0000:fffbd000       .debug$S                   0000000180000000     kernel32:KERNEL32.dll
 0000:fffbd000       .debug$S                   0000000180000000     kernel32:KERNEL32.dll
 0000:fffbd000       .debug$S                   0000000180000000     kernel32:KERNEL32.dll
 0000:fffbd000       .debug$S                   0000000180000000     kernel32:KERNEL32.dll
 0000:fffbd000       .debug$S                   0000000180000000     kernel32:KERNEL32.dll
 0000:fffbd000       .debug$S                   0000000180000000     kernel32:KERNEL32.dll
 0000:fffbd000       .debug$S                   0000000180000000     kernel32:KERNEL32.dll
 0000:fffbd000       .debug$S                   0000000180000000     kernel32:KERNEL32.dll
 0000:fffbd000       .debug$S                   0000000180000000     kernel32:KERNEL32.dll
 0000:fffbd000       .debug$S                   0000000180000000     kernel32:KERNEL32.dll
 0000:fffbd000       .debug$S                   0000000180000000     kernel32:KERNEL32.dll
 0000:fffbd000       .debug$S                   0000000180000000     kernel32:KERNEL32.dll
 0000:fffbd000       .debug$S                   0000000180000000     kernel32:KERNEL32.dll
 0000:fffbd000       .debug$S                   0000000180000000     kernel32:KERNEL32.dll
 0000:fffbd000       .debug$S                   0000000180000000     kernel32:KERNEL32.dll
 0000:fffbd000       .debug$S                   0000000180000000     kernel32:KERNEL32.dll
 0000:fffbd000       .debug$S                   0000000180000000     kernel32:KERNEL32.dll
 0000:fffbd000       .debug$S                   0000000180000000     kernel32:KERNEL32.dll
 0000:fffbd000       .debug$S                   0000000180000000     kernel32:KERNEL32.dll
 0000:fffbd000       .debug$S                   0000000180000000     kernel32:KERNEL32.dll
 0000:fffbd000       .debug$S                   0000000180000000     kernel32:KERNEL32.dll
 0000:fffbd000       .debug$S                   0000000180000000     kernel32:KERNEL32.dll
 0000:fffbd000       .debug$S                   0000000180000000     kernel32:KERNEL32.dll
 0000:fffbd000       .debug$S                   0000000180000000     kernel32:KERNEL32.dll
 0000:fffbd000       .debug$S                   0000000180000000     kernel32:KERNEL32.dll
 0000:fffbd000       .debug$S                   0000000180000000     kernel32:KERNEL32.dll
 0000:fffbd000       .debug$S                   0000000180000000     kernel32:KERNEL32.dll
 0000:fffbd000       .debug$S                   0000000180000000     kernel32:KERNEL32.dll
 0000:fffbd000       .debug$S                   0000000180000000     kernel32:KERNEL32.dll
 0000:fffbd000       .debug$S                   0000000180000000     kernel32:KERNEL32.dll
 0000:fffbd000       .debug$S                   0000000180000000     kernel32:KERNEL32.dll
 0000:fffbd000       .debug$S                   0000000180000000     kernel32:KERNEL32.dll
 0000:fffbd000       .debug$S                   0000000180000000     kernel32:KERNEL32.dll
 0000:fffbd000       .debug$S                   0000000180000000     kernel32:KERNEL32.dll
 0000:fffbd000       .debug$S                   0000000180000000     kernel32:KERNEL32.dll
 0000:fffbd000       .debug$S                   0000000180000000     kernel32:KERNEL32.dll
 0000:fffbd000       .debug$S                   0000000180000000     kernel32:KERNEL32.dll
 0000:fffbd000       .debug$S                   0000000180000000     kernel32:KERNEL32.dll
 0000:fffbd000       .debug$S                   0000000180000000     kernel32:KERNEL32.dll
 0000:fffbd000       .debug$S                   0000000180000000     kernel32:KERNEL32.dll
 0000:fffbd000       .debug$S                   0000000180000000     kernel32:KERNEL32.dll
 0000:fffbd000       .debug$S                   0000000180000000     kernel32:KERNEL32.dll
 0000:fffbd000       .debug$S                   0000000180000000     kernel32:KERNEL32.dll
 0000:fffbd000       .debug$S                   0000000180000000     kernel32:KERNEL32.dll
 0000:fffbd000       .debug$S                   0000000180000000     kernel32:KERNEL32.dll
 0000:fffbd000       .debug$S                   0000000180000000     kernel32:KERNEL32.dll
 0000:fffbd000       .debug$S                   0000000180000000     kernel32:KERNEL32.dll
 0000:fffbd000       .debug$S                   0000000180000000     kernel32:KERNEL32.dll
 0000:fffbd000       .debug$S                   0000000180000000     kernel32:KERNEL32.dll
 0000:fffbd000       .debug$S                   0000000180000000     kernel32:KERNEL32.dll
 0000:fffbd000       .debug$S                   0000000180000000     kernel32:KERNEL32.dll
 0000:fffbd000       .debug$S                   0000000180000000     kernel32:KERNEL32.dll
 0000:fffbd000       .debug$S                   0000000180000000     kernel32:KERNEL32.dll
 0000:fffbd000       .debug$S                   0000000180000000     kernel32:KERNEL32.dll
 0000:fffbd000       .debug$S                   0000000180000000     kernel32:KERNEL32.dll
 0000:fffbd000       .debug$S                   0000000180000000     kernel32:KERNEL32.dll
 0000:fffbd000       .debug$S                   0000000180000000     kernel32:KERNEL32.dll
 0000:fffbd000       .debug$S                   0000000180000000     kernel32:KERNEL32.dll
 0000:fffbd000       .debug$S                   0000000180000000     kernel32:KERNEL32.dll
 0000:fffbd000       .debug$S                   0000000180000000     kernel32:KERNEL32.dll
 0000:fffbd000       .debug$S                   0000000180000000     kernel32:KERNEL32.dll
 0000:fffbd000       .debug$S                   0000000180000000     kernel32:KERNEL32.dll
 0000:fffbd000       .debug$S                   0000000180000000     kernel32:KERNEL32.dll
 0000:fffbd000       .debug$S                   0000000180000000     kernel32:KERNEL32.dll
 0000:fffbd000       .debug$S                   0000000180000000     ole32:ole32.dll
 0000:fffbd000       .debug$S                   0000000180000000     ole32:ole32.dll
 0000:fffbd000       .debug$S                   0000000180000000     ole32:ole32.dll
 0000:fffbd000       .debug$S                   0000000180000000     ole32:ole32.dll
 0000:fffbd000       .debug$S                   0000000180000000     ole32:ole32.dll
 0000:fffbd000       .debug$S                   0000000180000000     ole32:ole32.dll
 0000:fffbd000       .debug$S                   0000000180000000     ole32:ole32.dll
 0000:fffbd000       .debug$S                   0000000180000000     ole32:ole32.dll
 0000:fffbd000       .debug$S                   0000000180000000     ole32:ole32.dll
 0000:fffbd000       .debug$S                   0000000180000000     ole32:ole32.dll
 0000:fffbd000       .debug$S                   0000000180000000     ole32:ole32.dll
 0000:fffbd000       .debug$S                   0000000180000000     ole32:ole32.dll
 0000:fffbd000       .debug$S                   0000000180000000     ole32:ole32.dll
 0000:fffbd000       .debug$S                   0000000180000000     ole32:ole32.dll
 0000:fffbd000       .debug$S                   0000000180000000     oleaut32:OLEAUT32.dll
 0000:fffbd000       .debug$S                   0000000180000000     oleaut32:OLEAUT32.dll
 0000:fffbd000       .debug$S                   0000000180000000     oleaut32:OLEAUT32.dll
 0000:fffbd000       .debug$S                   0000000180000000     oleaut32:OLEAUT32.dll
 0000:fffbd000       .debug$S                   0000000180000000     oleaut32:OLEAUT32.dll
 0000:fffbd000       .debug$S                   0000000180000000     oleaut32:OLEAUT32.dll
 0000:fffbd000       .debug$S                   0000000180000000     oleaut32:OLEAUT32.dll
 0000:fffbd000       .debug$S                   0000000180000000     oleaut32:OLEAUT32.dll
 0000:fffbd000       .debug$S                   0000000180000000     oleaut32:OLEAUT32.dll
 0000:fffbd000       .debug$S                   0000000180000000     oleaut32:OLEAUT32.dll
 0000:fffbd000       .debug$S                   0000000180000000     oleaut32:OLEAUT32.dll
 0000:fffbd000       .debug$S                   0000000180000000     oleaut32:OLEAUT32.dll
 0000:fffbd000       .debug$S                   0000000180000000     oleaut32:OLEAUT32.dll
 0000:fffbd000       .debug$S                   0000000180000000     oleaut32:OLEAUT32.dll
 0000:fffbd000       .debug$S                   0000000180000000     oleaut32:OLEAUT32.dll
 0000:fffbd000       .debug$S                   0000000180000000     oleaut32:OLEAUT32.dll
 0000:fffbd000       .debug$S                   0000000180000000     user32:USER32.dll
 0000:fffbd000       .debug$S                   0000000180000000     user32:USER32.dll
 0000:fffbd000       .debug$S                   0000000180000000     user32:USER32.dll
 0000:fffbd000       .debug$S                   0000000180000000     user32:USER32.dll
 0000:fffbd000       .debug$S                   0000000180000000     user32:USER32.dll
 0000:fffbd000       .debug$S                   0000000180000000     user32:USER32.dll
 0000:fffbd000       .debug$S                   0000000180000000     user32:USER32.dll
 0000:fffbd000       .debug$S                   0000000180000000     user32:USER32.dll
 0000:fffbd000       .debug$S                   0000000180000000     user32:USER32.dll
 0000:fffbd000       .debug$S                   0000000180000000     user32:USER32.dll
 0000:fffbd000       .debug$S                   0000000180000000     user32:USER32.dll
 0000:fffbd000       .debug$S                   0000000180000000     user32:USER32.dll
 0000:fffbd000       .debug$S                   0000000180000000     user32:USER32.dll
 0000:fffbd000       .debug$S                   0000000180000000     user32:USER32.dll
 0000:fffbd000       .debug$S                   0000000180000000     user32:USER32.dll
 0000:fffbd000       .debug$S                   0000000180000000     user32:USER32.dll
 0000:fffbd000       .debug$S                   0000000180000000     user32:USER32.dll
 0000:fffbd000       .debug$S                   0000000180000000     user32:USER32.dll
 0000:fffbd000       .debug$S                   0000000180000000     user32:USER32.dll
 0000:fffbd000       .debug$S                   0000000180000000     user32:USER32.dll
 0000:fffbd000       .debug$S                   0000000180000000     user32:USER32.dll
 0000:fffbd000       .debug$S                   0000000180000000     user32:USER32.dll
 0000:fffbd000       .debug$S                   0000000180000000     user32:USER32.dll
 0000:fffbd000       .debug$S                   0000000180000000     user32:USER32.dll
 0000:fffbd000       .debug$S                   0000000180000000     user32:USER32.dll
 0000:fffbd000       .debug$S                   0000000180000000     user32:USER32.dll
 0000:fffbd000       .debug$S                   0000000180000000     user32:USER32.dll
 0000:fffbd000       .debug$S                   0000000180000000     user32:USER32.dll
 0000:fffbd000       .debug$S                   0000000180000000     user32:USER32.dll
 0000:fffbd000       .debug$S                   0000000180000000     user32:USER32.dll
 0000:fffbd000       .debug$S                   0000000180000000     user32:USER32.dll
 0000:fffbd000       .debug$S                   0000000180000000     user32:USER32.dll
 0000:fffbd000       .debug$S                   0000000180000000     user32:USER32.dll
 0000:fffbd000       .debug$S                   0000000180000000     user32:USER32.dll
 0000:fffbd000       .debug$S                   0000000180000000     user32:USER32.dll
 0001:00000000       ??__E_AtlComModule@ATL@@YAXXZ 0000000180001000 f   OposVariant.obj
 0001:00000020       ??__E_AtlWinModule@ATL@@YAXXZ 0000000180001020 f   OposVariant.obj
 0001:00000040       ??__E?pConnMap@?$IConnectionPointContainerImpl@VCOPOSVideoCapture@@@ATL@@0PEBU_ATL_CONNMAP_ENTRY@2@EB@@YAXXZ 0000000180001040 f   VideoCapture.obj
 0001:00000058       ??__E_Module@@YAXXZ        0000000180001058 f   VideoCapture.obj
 0001:00000094       ??__E_AtlBaseModule@ATL@@YAXXZ 0000000180001094 f   atls:atlbase.obj
 0001:0000eb60       ?__scrt_initialize_thread_safe_statics@@YAHXZ 000000018000fb60 f   LIBCMT:thread_safe_statics.obj
 0001:0000ec30       ?__scrt_uninitialize_thread_safe_statics@@YAXXZ 000000018000fc30 f   LIBCMT:thread_safe_statics.obj
 0001:0000ef80       capture_current_context    000000018000ff80 f   LIBCMT:gs_report.obj
 0001:0000eff0       capture_previous_context   000000018000fff0 f   LIBCMT:gs_report.obj
 0001:0000f190       $$000000                   0000000180010190     LIBCMT:chkstk.obj
 0001:0000f1f0       $$000000                   00000001800101f0     LIBCMT:amdsecgs.obj
 0001:0000f220       ?dllmain_crt_dispatch@@YAHQEAUHINSTANCE__@@KQEAX@Z 0000000180010220 f   LIBCMT:dll_dllmain.obj
 0001:0000f270       ?dllmain_crt_process_attach@@YAHQEAUHINSTANCE__@@QEAX@Z 0000000180010270 f   LIBCMT:dll_dllmain.obj
 0001:0000f388       ?dllmain_crt_process_detach@@YAH_N@Z 0000000180010388 f   LIBCMT:dll_dllmain.obj
 0001:0000f40c       ?dllmain_dispatch@@YAHQEAUHINSTANCE__@@KQEAX@Z 000000018001040c f   LIBCMT:dll_dllmain.obj
 0001:0000fcd8       ??$GetProcAddressAll@P6AP6A_JPEAUHWND__@@I_K_J@ZPEAUAtlThunkData_t@@@Z@@YAP6AP6A_JPEAUHWND__@@I_K_J@ZPEAUAtlThunkData_t@@@ZPEAP6AP6A_J0I12@Z3@Z@Z 0000000180010cd8 f   atls:atlthunk.obj
 0001:0000fcd8       ??$GetProcAddressAll@P6APEAUAtlThunkData_t@@XZ@@YAP6APEAUAtlThunkData_t@@XZPEAP6APEAU0@XZ@Z 0000000180010cd8 f   atls:atlthunk.obj
 0001:0000fcd8       ??$GetProcAddressAll@P6AXPEAUAtlThunkData_t@@@Z@@YAP6AXPEAUAtlThunkData_t@@@ZPEAP6AX0@Z@Z 0000000180010cd8 f   atls:atlthunk.obj
 0001:0000fcd8       ??$GetProcAddressAll@P6AXPEAUAtlThunkData_t@@PEAX_K@Z@@YAP6AXPEAUAtlThunkData_t@@PEAX_K@ZPEAP6AX012@Z@Z 0000000180010cd8 f   atls:atlthunk.obj
 0001:0000feb0       ?__InitializeThunkPool@@YAHXZ 0000000180010eb0 f   atls:atlthunk.obj
 0001:00010350       $$000000                   0000000180011350     libvcruntime:memcmp.obj
 0001:00010430       $$000000                   0000000180011430     libvcruntime:memcpy.obj
 0001:00010ae0       $$000000                   0000000180011ae0     libvcruntime:memset.obj
 0001:000120f0       $$000000                   00000001800130f0     libvcruntime:notify.obj
 0001:00012370       ??$BuildCatchObjectHelperInternal@V__FrameHandler3@@@@YAHPEAUEHExceptionRecord@@PEAXPEBU_s_HandlerType@@PEBU_s_CatchableType@@@Z 0000000180013370 f   libvcruntime:frame.obj
 0001:00012570       ??$BuildCatchObjectHelperInternal@V__FrameHandler4@@@@YAHPEAUEHExceptionRecord@@PEAXPEAUHandlerType4@FH4@@PEBU_s_CatchableType@@@Z 0000000180013570 f   libvcruntime:frame.obj
 0001:00012774       ??$BuildCatchObjectInternal@V__FrameHandler3@@@@YAXPEAUEHExceptionRecord@@PEAXPEBU_s_HandlerType@@PEBU_s_CatchableType@@@Z 0000000180013774 f   libvcruntime:frame.obj
 0001:00012834       ??$BuildCatchObjectInternal@V__FrameHandler4@@@@YAXPEAUEHExceptionRecord@@PEAXPEAUHandlerType4@FH4@@PEBU_s_CatchableType@@@Z 0000000180013834 f   libvcruntime:frame.obj
 0001:000128f8       ??$CatchIt@V__FrameHandler3@@@@YAXPEAUEHExceptionRecord@@PEA_KPEAU_CONTEXT@@PEAU_xDISPATCHER_CONTEXT@@PEBU_s_FuncInfo@@PEBU_s_HandlerType@@PEBU_s_CatchableType@@PEBU_s_TryBlockMapEntry@@H1EE@Z 00000001800138f8 f   libvcruntime:frame.obj
 0001:000129cc       ??$CatchIt@V__FrameHandler4@@@@YAXPEAUEHExceptionRecord@@PEA_KPEAU_CONTEXT@@PEAU_xDISPATCHER_CONTEXT@@PEAUFuncInfo4@FH4@@PEAUHandlerType4@4@PEBU_s_CatchableType@@PEAUTryBlockMapEntry4@4@H1EE@Z 00000001800139cc f   libvcruntime:frame.obj
 0001:00012aa0       ??$FindHandler@V__FrameHandler3@@@@YAXPEAUEHExceptionRecord@@PEA_KPEAU_CONTEXT@@PEAU_xDISPATCHER_CONTEXT@@PEBU_s_FuncInfo@@EH1@Z 0000000180013aa0 f   libvcruntime:frame.obj
 0001:00012f78       ??$FindHandler@V__FrameHandler4@@@@YAXPEAUEHExceptionRecord@@PEA_KPEAU_CONTEXT@@PEAU_xDISPATCHER_CONTEXT@@PEAUFuncInfo4@FH4@@EH1@Z 0000000180013f78 f   libvcruntime:frame.obj
 0001:00013474       ??$FindHandlerForForeignException@V__FrameHandler3@@@@YAXPEAUEHExceptionRecord@@PEA_KPEAU_CONTEXT@@PEAU_xDISPATCHER_CONTEXT@@PEBU_s_FuncInfo@@HH1@Z 0000000180014474 f   libvcruntime:frame.obj
 0001:00013690       ??$FindHandlerForForeignException@V__FrameHandler4@@@@YAXPEAUEHExceptionRecord@@PEA_KPEAU_CONTEXT@@PEAU_xDISPATCHER_CONTEXT@@PEAUFuncInfo4@FH4@@HH1@Z 0000000180014690 f   libvcruntime:frame.obj
 0001:00014850       ?ExFilterRethrow@@YAHPEAU_EXCEPTION_POINTERS@@PEAUEHExceptionRecord@@PEAH@Z 0000000180015850 f   libvcruntime:frame.obj
 0001:000148d8       ?ExFilterRethrowFH4@@YAHPEAU_EXCEPTION_POINTERS@@PEAUEHExceptionRecord@@HPEAH@Z 00000001800158d8 f   libvcruntime:frame.obj
 0001:00014e28       ?IsInExceptionSpec@@YAEPEAUEHExceptionRecord@@PEBU_s_ESTypeList@@@Z 0000000180015e28 f   libvcruntime:frame.obj
 0001:00014f18       ?Is_bad_exception_allowed@@YAEPEBU_s_ESTypeList@@@Z 0000000180015f18 f   libvcruntime:frame.obj
 0001:000151f4       ?try_get_function@@YAPEAXW4function_id@?A0xbc0cc709@@QEBDQEBW4module_id@2@2@Z 00000001800161f4 f   libvcruntime:winapi_downlevel.obj
 0001:000154e0       $$000000                   00000001800164e0     libvcruntime:handlers.obj
 0001:00015f0c       ??$common_vsprintf@Vformat_validation_base@__crt_stdio_output@@_W@@YAH_KQEA_W0QEB_WAEAV__crt_cached_ptd_host@@QEAD@Z 0000000180016f0c f   libucrt:output.obj
 0001:0001865c       ??$?RV<lambda_d80eeec6fff315bfe5c115232f3240e3>@@AEAV<lambda_6e4b09c48022b2350581041d5f6b0c4c>@@V<lambda_2358e3775559c9db80273638284d5e45>@@@?$__crt_seh_guarded_call@X@@QEAAX$$QEAV<lambda_d80eeec6fff315bfe5c115232f3240e3>@@AEAV<lambda_6e4b09c48022b2350581041d5f6b0c4c>@@$$QEAV<lambda_2358e3775559c9db80273638284d5e45>@@@Z 000000018001965c f   libucrt:exit.obj
 0001:00018694       ??R<lambda_6e4b09c48022b2350581041d5f6b0c4c>@@QEBA@XZ 0000000180019694 f   libucrt:exit.obj
 0001:00018760       ?common_exit@@YAXHW4_crt_exit_cleanup_mode@@W4_crt_exit_return_mode@@@Z 0000000180019760 f   libucrt:exit.obj
 0001:00018828       ?exit_or_terminate_process@@YAXI@Z 0000000180019828 f   libucrt:exit.obj
 0001:0001885c       ?should_call_terminate_process@@YA_NXZ 000000018001985c f   libucrt:exit.obj
 0001:0001888c       ?try_cor_exit_process@@YAXI@Z 000000018001988c f   libucrt:exit.obj
 0001:00018928       ??$parse_command_line@D@@YAXPEADPEAPEAD0PEA_K2@Z 0000000180019928 f   libucrt:argv_parsing.obj
 0001:00018cd0       ??$common_initialize_environment_nolock@D@@YAHXZ 0000000180019cd0 f   libucrt:environment_initialization.obj
 0001:00018d44       ??$create_environment@D@@YAQEAPEADQEAD@Z 0000000180019d44 f   libucrt:environment_initialization.obj
 0001:00018e54       ??$free_environment@D@@YAXQEAPEAD@Z 0000000180019e54 f   libucrt:environment_initialization.obj
 0001:00018e54       ??$free_environment@_W@@YAXQEAPEA_W@Z 0000000180019e54 f   libucrt:environment_initialization.obj
 0001:00018e98       ??$uninitialize_environment_internal@D@@YAXAEAPEAPEAD@Z 0000000180019e98 f   libucrt:environment_initialization.obj
 0001:00018eb4       ??$uninitialize_environment_internal@_W@@YAXAEAPEAPEA_W@Z 0000000180019eb4 f   libucrt:environment_initialization.obj
 0001:00018f1c       ??$?RV<lambda_638799b9deba96c50f710eeac98168cd>@@AEAV<lambda_22ebabd17bc4fa466a2aca6d8deb888d>@@V<lambda_a6f7d7db0129f75315ebf26d50c089f1>@@@?$__crt_seh_guarded_call@H@@QEAAH$$QEAV<lambda_638799b9deba96c50f710eeac98168cd>@@AEAV<lambda_22ebabd17bc4fa466a2aca6d8deb888d>@@$$QEAV<lambda_a6f7d7db0129f75315ebf26d50c089f1>@@@Z 0000000180019f1c f   libucrt:onexit.obj
 0001:00018f58       ??$?RV<lambda_7777bce6b2f8c936911f934f8298dc43>@@AEAV<lambda_f03950bc5685219e0bcd2087efbe011e>@@V<lambda_3883c3dff614d5e0c5f61bb1ac94921c>@@@?$__crt_seh_guarded_call@H@@QEAAH$$QEAV<lambda_7777bce6b2f8c936911f934f8298dc43>@@AEAV<lambda_f03950bc5685219e0bcd2087efbe011e>@@$$QEAV<lambda_3883c3dff614d5e0c5f61bb1ac94921c>@@@Z 0000000180019f58 f   libucrt:onexit.obj
 0001:00018f94       ??R<lambda_22ebabd17bc4fa466a2aca6d8deb888d>@@QEBAHXZ 0000000180019f94 f   libucrt:onexit.obj
 0001:00019144       ??R<lambda_f03950bc5685219e0bcd2087efbe011e>@@QEBAHXZ 000000018001a144 f   libucrt:onexit.obj
 0001:00019328       initialize_global_variables 000000018001a328 f   libucrt:initialization.obj
 0001:0001933c       initialize_c               000000018001a33c f   libucrt:initialization.obj
 0001:00019360       initialize_environment     000000018001a360 f   libucrt:initialization.obj
 0001:00019360       initialize_global_state_isolation 000000018001a360 f   libucrt:initialization.obj
 0001:00019360       report_memory_leaks        000000018001a360 f   libucrt:initialization.obj
 0001:00019360       uninitialize_c             000000018001a360 f   libucrt:initialization.obj
 0001:00019360       uninitialize_global_state_isolation 000000018001a360 f   libucrt:initialization.obj
 0001:00019364       uninitialize_environment   000000018001a364 f   libucrt:initialization.obj
 0001:00019374       initialize_pointers        000000018001a374 f   libucrt:initialization.obj
 0001:000193b4       uninitialize_vcruntime     000000018001a3b4 f   libucrt:initialization.obj
 0001:000193bc       uninitialize_allocated_memory 000000018001a3bc f   libucrt:initialization.obj
 0001:000193fc       uninitialize_allocated_io_buffers 000000018001a3fc f   libucrt:initialization.obj
 0001:000196c0       $$000000                   000000018001a6c0     libucrt:strncmp.obj
 0001:000197b8       ??$?RV<lambda_0ae27a3a962d80f24befdcbee591983d>@@AEAV<lambda_8d0ee55de4b1038c4002e0adecdf1839>@@V<lambda_dc504788e8f1664fe9b84e20bfb512f2>@@@?$__crt_seh_guarded_call@X@@QEAAX$$QEAV<lambda_0ae27a3a962d80f24befdcbee591983d>@@AEAV<lambda_8d0ee55de4b1038c4002e0adecdf1839>@@$$QEAV<lambda_dc504788e8f1664fe9b84e20bfb512f2>@@@Z 000000018001a7b8 f   libucrt:per_thread_data.obj
 0001:000197f8       ??$?RV<lambda_2d41944a1d46af3157314b8a01080d33>@@AEAV<lambda_8f455de75cd7d7f24b4096f044d8b9e6>@@V<lambda_aa500f224e6afead328df44964fe2772>@@@?$__crt_seh_guarded_call@X@@QEAAX$$QEAV<lambda_2d41944a1d46af3157314b8a01080d33>@@AEAV<lambda_8f455de75cd7d7f24b4096f044d8b9e6>@@$$QEAV<lambda_aa500f224e6afead328df44964fe2772>@@@Z 000000018001a7f8 f   libucrt:per_thread_data.obj
 0001:00019838       ??$?RV<lambda_aa87e3671a710a21b5dc78c0bdf72e11>@@AEAV<lambda_92619d2358a28f41a33ba319515a20b9>@@V<lambda_6992ecaafeb10aed2b74cb1fae11a551>@@@?$__crt_seh_guarded_call@X@@QEAAX$$QEAV<lambda_aa87e3671a710a21b5dc78c0bdf72e11>@@AEAV<lambda_92619d2358a28f41a33ba319515a20b9>@@$$QEAV<lambda_6992ecaafeb10aed2b74cb1fae11a551>@@@Z 000000018001a838 f   libucrt:per_thread_data.obj
 0001:00019880       ??$?RV<lambda_f2e299630e499de9f9a165e60fcd3db5>@@AEAV<lambda_2ae9d31cdba2644fcbeaf08da7c24588>@@V<lambda_40d01ff24d0e7b3814fdbdcee8eab3c7>@@@?$__crt_seh_guarded_call@X@@QEAAX$$QEAV<lambda_f2e299630e499de9f9a165e60fcd3db5>@@AEAV<lambda_2ae9d31cdba2644fcbeaf08da7c24588>@@$$QEAV<lambda_40d01ff24d0e7b3814fdbdcee8eab3c7>@@@Z 000000018001a880 f   libucrt:per_thread_data.obj
 0001:000198e0       ?construct_ptd_array@@YAXQEAU__acrt_ptd@@@Z 000000018001a8e0 f   libucrt:per_thread_data.obj
 0001:000199b0       ?destroy_fls@@YAXPEAX@Z    000000018001a9b0 f   libucrt:per_thread_data.obj
 0001:000199d0       ?destroy_ptd_array@@YAXQEAU__acrt_ptd@@@Z 000000018001a9d0 f   libucrt:per_thread_data.obj
 0001:00019ac8       ?replace_current_thread_locale_nolock@@YAXQEAU__acrt_ptd@@QEAU__crt_locale_data@@@Z 000000018001aac8 f   libucrt:per_thread_data.obj
 0001:00019ed4       ??$?RV<lambda_410d79af7f07d98d83a3f525b3859a53>@@AEAV<lambda_3e16ef9562a7dcce91392c22ab16ea36>@@V<lambda_38119f0e861e05405d8a144b9b982f0a>@@@?$__crt_seh_guarded_call@X@@QEAAX$$QEAV<lambda_410d79af7f07d98d83a3f525b3859a53>@@AEAV<lambda_3e16ef9562a7dcce91392c22ab16ea36>@@$$QEAV<lambda_38119f0e861e05405d8a144b9b982f0a>@@@Z 000000018001aed4 f   libucrt:wsetlocale.obj
 0001:0001a110       ?try_get_function@@YAPEAXW4function_id@?A0x391cf84c@@QEBDQEBW4module_id@2@2@Z 000000018001b110 f   libucrt:winapi_thunks.obj
 0001:0001a8ac       ?fp_format_a@@YAHQEBNPEAD_KQEAD2H_NIW4__acrt_rounding_mode@@AEAV__crt_cached_ptd_host@@@Z 000000018001b8ac f   libucrt:cvt.obj
 0001:0001ac60       ?fp_format_e@@YAHQEBNQEAD_K12H_NIW4__acrt_rounding_mode@@AEAV__crt_cached_ptd_host@@@Z 000000018001bc60 f   libucrt:cvt.obj
 0001:0001ad5c       ?fp_format_e_internal@@YAHQEAD_KH_NIQEAU_strflt@@2AEAV__crt_cached_ptd_host@@@Z 000000018001bd5c f   libucrt:cvt.obj
 0001:0001af40       ?fp_format_f@@YAHQEBNQEAD_K12HW4__acrt_rounding_mode@@AEAV__crt_cached_ptd_host@@@Z 000000018001bf40 f   libucrt:cvt.obj
 0001:0001b018       ?fp_format_f_internal@@YAHQEAD_KHQEAU_strflt@@_NAEAV__crt_cached_ptd_host@@@Z 000000018001c018 f   libucrt:cvt.obj
 0001:0001b170       ?fp_format_g@@YAHQEBNQEAD_K12H_NIW4__acrt_rounding_mode@@AEAV__crt_cached_ptd_host@@@Z 000000018001c170 f   libucrt:cvt.obj
 0001:0001b2c4       ?should_round_up@@YA_NQEBN_KFW4__acrt_rounding_mode@@@Z 000000018001c2c4 f   libucrt:cvt.obj
 0001:0001ba10       ?initialize_inherited_file_handles_nolock@@YAXXZ 000000018001ca10 f   libucrt:ioinit.obj
 0001:0001bb00       ?initialize_stdio_handles_nolock@@YAXXZ 000000018001cb00 f   libucrt:ioinit.obj
 0001:0001bd78       ?<lambda_invoker_cdecl>@<lambda_a1ce4c8ae42411fd470c77163914f50e>@@CAHPEBX0@Z 000000018001cd78 f   libucrt:argv_wildcards.obj
 0001:0001c094       ??$common_expand_argv_wildcards@D@@YAHQEAPEADQEAPEAPEAD@Z 000000018001d094 f   libucrt:argv_wildcards.obj
 0001:0001c2d8       ??$copy_and_add_argument_to_buffer@D@@YAHQEBD0_KAEAV?$argument_list@D@?A0x5f5c8891@@@Z 000000018001d2d8 f   libucrt:argv_wildcards.obj
 0001:0001c460       ??$expand_argument_wildcards@D@@YAHQEAD0AEAV?$argument_list@D@?A0x5f5c8891@@@Z 000000018001d460 f   libucrt:argv_wildcards.obj
 0001:0001ca94       ??$?RV<lambda_efdfa57d1f175319df784efa44bb7b81>@@AEAV<lambda_5f0a4c1567f8adc6734073e5d1e1b35c>@@V<lambda_2e8a7d3640ea6ccb4c2413664c2db6fd>@@@?$__crt_seh_guarded_call@X@@QEAAX$$QEAV<lambda_efdfa57d1f175319df784efa44bb7b81>@@AEAV<lambda_5f0a4c1567f8adc6734073e5d1e1b35c>@@$$QEAV<lambda_2e8a7d3640ea6ccb4c2413664c2db6fd>@@@Z 000000018001da94 f   libucrt:mbctype.obj
 0001:0001cc64       ?getSystemCP@@YAHH@Z       000000018001dc64 f   libucrt:mbctype.obj
 0001:0001cce4       ?setSBCS@@YAXPEAU__crt_multibyte_data@@@Z 000000018001dce4 f   libucrt:mbctype.obj
 0001:0001cd7c       ?setSBUpLow@@YAXPEAU__crt_multibyte_data@@@Z 000000018001dd7c f   libucrt:mbctype.obj
 0001:0001cf64       ?setmbcp_internal@@YAHH_NQEAU__acrt_ptd@@QEAPEAU__crt_multibyte_data@@@Z 000000018001df64 f   libucrt:mbctype.obj
 0001:0001d1d4       ?update_thread_multibyte_data_internal@@YAPEAU__crt_multibyte_data@@QEAU__acrt_ptd@@QEAPEAU1@@Z 000000018001e1d4 f   libucrt:mbctype.obj
 0001:0001d5c8       ?x_ismbbtype_l@@YAHPEAU__crt_locale_pointers@@IHH@Z 000000018001e5c8 f   libucrt:ismbbyte.obj
 0001:0001d998       ??$?RV<lambda_450d765d439847d4c735a33c368b5fc0>@@AEAV<lambda_44731a7d0e6d81c3e6aa82d741081786>@@V<lambda_601a2a7da3b7a96e9554ac7215c4b07c>@@@?$__crt_seh_guarded_call@P6AXH@Z@@QEAAP6AXH@Z$$QEAV<lambda_450d765d439847d4c735a33c368b5fc0>@@AEAV<lambda_44731a7d0e6d81c3e6aa82d741081786>@@$$QEAV<lambda_601a2a7da3b7a96e9554ac7215c4b07c>@@@Z 000000018001e998 f   libucrt:signal.obj
 0001:0001dd10       ??$?RV<lambda_842d9ff0dc9ef11c61343bbaebe7f885>@@AEAV<lambda_c5860995281e5c4ce005b3de8f5874ee>@@V<lambda_d90129c13df834fdcbf8d2b88dafcf2d>@@@?$__crt_seh_guarded_call@X@@QEAAX$$QEAV<lambda_842d9ff0dc9ef11c61343bbaebe7f885>@@AEAV<lambda_c5860995281e5c4ce005b3de8f5874ee>@@$$QEAV<lambda_d90129c13df834fdcbf8d2b88dafcf2d>@@@Z 000000018001ed10 f   libucrt:fflush.obj
 0001:0001ddac       ??$?RV<lambda_886d6c58226a84441f68b9f2b8217b83>@@AEAV<lambda_ab61a845afdef5b7c387490eaf3616ee>@@V<lambda_f7f22ab5edc0698d5f6905b0d3f44752>@@@?$__crt_seh_guarded_call@X@@QEAAX$$QEAV<lambda_886d6c58226a84441f68b9f2b8217b83>@@AEAV<lambda_ab61a845afdef5b7c387490eaf3616ee>@@$$QEAV<lambda_f7f22ab5edc0698d5f6905b0d3f44752>@@@Z 000000018001edac f   libucrt:fflush.obj
 0001:0001de8c       ?common_flush_all@@YAH_N@Z 000000018001ee8c f   libucrt:fflush.obj
 0001:0001e5d8       ?free_crt_array_internal@@YAXQEAPEBX_K@Z 000000018001f5d8 f   libucrt:inittime.obj
 0001:000201bc       memcpy_s                   00000001800211bc f   libucrt:cfout.obj
 0001:00020dc0       fallbackMethod             0000000180021dc0 f   libucrt:strpbrk.obj
 0001:0002116c       $LN78                      000000018002216c     libucrt:strpbrk.obj
 0001:000211a8       $LN77                      00000001800221a8     libucrt:strpbrk.obj
 0001:000211e8       $LN76                      00000001800221e8     libucrt:strpbrk.obj
 0001:000212c4       ?__acrt_LCMapStringA_stat@@YAHPEAU__crt_locale_pointers@@PEB_WKPEBDHPEADHHH@Z 00000001800222c4 f   libucrt:lcmapstringa.obj
 0001:0002167c       ?initialize_multibyte@@YAHXZ 000000018002267c f   libucrt:multibyte_initializer.obj
 0001:00021694       ??$?RV<lambda_a37b2b86f63e897a80ea819b0eb08c01>@@AEAV<lambda_38ce7e780aa69e748d6df282ebc68efe>@@V<lambda_99fb1378e971ab6e7edea83e3a7a83a2>@@@?$__crt_seh_guarded_call@H@@QEAAH$$QEAV<lambda_a37b2b86f63e897a80ea819b0eb08c01>@@AEAV<lambda_38ce7e780aa69e748d6df282ebc68efe>@@$$QEAV<lambda_99fb1378e971ab6e7edea83e3a7a83a2>@@@Z 0000000180022694 f   libucrt:commit.obj
 0001:000217b4       ?write_double_translated_ansi_nolock@@YA?AUwrite_result@?A0x17268360@@HQEBDIAEAV__crt_cached_ptd_host@@@Z 00000001800227b4 f   libucrt:write.obj
 0001:00021c40       ?write_text_ansi_nolock@@YA?AUwrite_result@?A0x17268360@@HQEBDI@Z 0000000180022c40 f   libucrt:write.obj
 0001:00021d44       ?write_text_utf16le_nolock@@YA?AUwrite_result@?A0x17268360@@HQEBDI@Z 0000000180022d44 f   libucrt:write.obj
 0001:00021e60       ?write_text_utf8_nolock@@YA?AUwrite_result@?A0x17268360@@HQEBDI@Z 0000000180022e60 f   libucrt:write.obj
 0001:00022640       $$000000                   0000000180023640     libucrt:log10.obj
 0001:000230dc       ?_fclose_internal@@YAHQEAU_iobuf@@AEAV__crt_cached_ptd_host@@@Z 00000001800240dc f   libucrt:fclose.obj
 0001:00023158       ?_fclose_nolock_internal@@YAHQEAU_iobuf@@AEAV__crt_cached_ptd_host@@@Z 0000000180024158 f   libucrt:fclose.obj
 0001:00023294       ??$common_lseek_nolock@_J@@YA_JH_JHAEAV__crt_cached_ptd_host@@@Z 0000000180024294 f   libucrt:lseek.obj
 0001:0002341c       common_control87           000000018002441c f   libucrt:ieee.obj
 0001:000236dc       _call_matherr              00000001800246dc f   libucrt:libm_error.obj
 0001:00023744       _exception_enabled         0000000180024744 f   libucrt:libm_error.obj
 0001:000239e0       _log_special_common        00000001800249e0 f   libucrt:log_special.obj
 0001:00023a78       ??$?RV<lambda_ad8af0d99a0adf03d037d7dffe354bb5>@@AEAV<lambda_c9ba49e555ba839a7b07aa3fbecb7617>@@V<lambda_2f1ebd5d68526518146ae959c9e734c8>@@@?$__crt_seh_guarded_call@H@@QEAAH$$QEAV<lambda_ad8af0d99a0adf03d037d7dffe354bb5>@@AEAV<lambda_c9ba49e555ba839a7b07aa3fbecb7617>@@$$QEAV<lambda_2f1ebd5d68526518146ae959c9e734c8>@@@Z 0000000180024a78 f   libucrt:close.obj
 0001:00023dd0       $$000000                   0000000180024dd0     libucrt:fpsr.obj
 0001:00024550       $$000000                   0000000180025550     LIBCMT:guard_dispatch.obj
 0001:00024570       $$000000                   0000000180025570     LIBCMT:guard_xfg_dispatch.obj
 0001:00024590       ?filt$0@?0??_AtlVerifyStackAvailable@_ATL_SAFE_ALLOCA_IMPL@ATL@@YA_N_K@Z@4HA 0000000180025590 f   VideoCapture.obj
 0001:000245b1       __scrt_is_nonwritable_in_current_image$filt$0 00000001800255b1 f   LIBCMT:utility.obj
 0001:000245c9       ?catch$0@?0???2@YAPEAX_KAEBUnothrow_t@std@@@Z@4HA 00000001800255c9 f   LIBCMT:new_scalar_nothrow.obj
 0001:000245d6       __catch$??2@YAPEAX_KAEBUnothrow_t@std@@@Z$0 00000001800255d6 f   LIBCMT:new_scalar_nothrow.obj
 0001:000245e7       ?fin$0@?0??dllmain_crt_process_attach@@YAHQEAUHINSTANCE__@@QEAX@Z@4HA 00000001800255e7 f   LIBCMT:dll_dllmain.obj
 0001:000245fe       ?fin$0@?0??dllmain_crt_process_detach@@YAH_N@Z@4HA 00000001800255fe f   LIBCMT:dll_dllmain.obj
 0001:00024617       ?fin$1@?0??dllmain_crt_process_detach@@YAH_N@Z@4HA 0000000180025617 f   LIBCMT:dll_dllmain.obj
 0001:0002462b       ?filt$0@?0??dllmain_dispatch@@YAHQEAUHINSTANCE__@@KQEAX@Z@4HA 000000018002562b f   LIBCMT:dll_dllmain.obj
 0001:00024661       ?filt$0@?0???$_CallSETranslator@V__FrameHandler3@@@@YAHPEAUEHExceptionRecord@@PEA_KPEAU_CONTEXT@@PEAU_xDISPATCHER_CONTEXT@@PEBU_s_FuncInfo@@K1H@Z@4HA 0000000180025661 f   libvcruntime:risctrnsctrl.obj
 0001:000246f2       ?filt$0@?0???$_CallSETranslator@V__FrameHandler4@@@@YAHPEAUEHExceptionRecord@@PEA_KPEAU_CONTEXT@@PEAU_xDISPATCHER_CONTEXT@@PEAUFuncInfo4@FH4@@K1H@Z@4HA 00000001800256f2 f   libvcruntime:risctrnsctrl.obj
 0001:00024791       __DestructExceptionObject$filt$0 0000000180025791 f   libvcruntime:ehhelpers.obj
 0001:00024827       ?filt$0@?0??CxxCallCatchBlock@__FrameHandler3@@SAPEAXPEAU_EXCEPTION_RECORD@@@Z@4HA 0000000180025827 f   libvcruntime:frame.obj
 0001:0002484c       ?fin$1@?0??CxxCallCatchBlock@__FrameHandler3@@SAPEAXPEAU_EXCEPTION_RECORD@@@Z@4HA 000000018002584c f   libvcruntime:frame.obj
 0001:000248d2       ?filt$0@?0??CxxCallCatchBlock@__FrameHandler4@@SAPEAXPEAU_EXCEPTION_RECORD@@@Z@4HA 00000001800258d2 f   libvcruntime:frame.obj
 0001:00024901       ?fin$1@?0??CxxCallCatchBlock@__FrameHandler4@@SAPEAXPEAU_EXCEPTION_RECORD@@@Z@4HA 0000000180025901 f   libvcruntime:frame.obj
 0001:00024992       ?filt$0@?0??FrameUnwindToState@__FrameHandler3@@SAXPEA_KPEAU_xDISPATCHER_CONTEXT@@PEBU_s_FuncInfo@@H@Z@4HA 0000000180025992 f   libvcruntime:frame.obj
 0001:000249a8       ?fin$1@?0??FrameUnwindToState@__FrameHandler3@@SAXPEA_KPEAU_xDISPATCHER_CONTEXT@@PEBU_s_FuncInfo@@H@Z@4HA 00000001800259a8 f   libvcruntime:frame.obj
 0001:000249cb       ?filt$0@?0??FrameUnwindToState@__FrameHandler4@@SAXPEA_KPEAU_xDISPATCHER_CONTEXT@@PEAUFuncInfo4@FH4@@H@Z@4HA 00000001800259cb f   libvcruntime:frame.obj
 0001:000249e1       ?fin$1@?0??FrameUnwindToState@__FrameHandler4@@SAXPEA_KPEAU_xDISPATCHER_CONTEXT@@PEAUFuncInfo4@FH4@@H@Z@4HA 00000001800259e1 f   libvcruntime:frame.obj
 0001:00024a04       ?fin$0@?0???$?RV<lambda_0ae27a3a962d80f24befdcbee591983d>@@AEAV<lambda_8d0ee55de4b1038c4002e0adecdf1839>@@V<lambda_dc504788e8f1664fe9b84e20bfb512f2>@@@?$__crt_seh_guarded_call@X@@QEAAX$$QEAV<lambda_0ae27a3a962d80f24befdcbee591983d>@@AEAV<lambda_8d0ee55de4b1038c4002e0adecdf1839>@@$$QEAV<lambda_dc504788e8f1664fe9b84e20bfb512f2>@@@Z@4HA 0000000180025a04 f   libucrt:per_thread_data.obj
 0001:00024a04       ?fin$0@?0???$?RV<lambda_2d41944a1d46af3157314b8a01080d33>@@AEAV<lambda_8f455de75cd7d7f24b4096f044d8b9e6>@@V<lambda_aa500f224e6afead328df44964fe2772>@@@?$__crt_seh_guarded_call@X@@QEAAX$$QEAV<lambda_2d41944a1d46af3157314b8a01080d33>@@AEAV<lambda_8f455de75cd7d7f24b4096f044d8b9e6>@@$$QEAV<lambda_aa500f224e6afead328df44964fe2772>@@@Z@4HA 0000000180025a04 f   libucrt:per_thread_data.obj
 0001:00024a04       ?fin$0@?0???$?RV<lambda_aa87e3671a710a21b5dc78c0bdf72e11>@@AEAV<lambda_92619d2358a28f41a33ba319515a20b9>@@V<lambda_6992ecaafeb10aed2b74cb1fae11a551>@@@?$__crt_seh_guarded_call@X@@QEAAX$$QEAV<lambda_aa87e3671a710a21b5dc78c0bdf72e11>@@AEAV<lambda_92619d2358a28f41a33ba319515a20b9>@@$$QEAV<lambda_6992ecaafeb10aed2b74cb1fae11a551>@@@Z@4HA 0000000180025a04 f   libucrt:per_thread_data.obj
 0001:00024a04       ?fin$0@?0???$?RV<lambda_f2e299630e499de9f9a165e60fcd3db5>@@AEAV<lambda_2ae9d31cdba2644fcbeaf08da7c24588>@@V<lambda_40d01ff24d0e7b3814fdbdcee8eab3c7>@@@?$__crt_seh_guarded_call@X@@QEAAX$$QEAV<lambda_f2e299630e499de9f9a165e60fcd3db5>@@AEAV<lambda_2ae9d31cdba2644fcbeaf08da7c24588>@@$$QEAV<lambda_40d01ff24d0e7b3814fdbdcee8eab3c7>@@@Z@4HA 0000000180025a04 f   libucrt:per_thread_data.obj
 0001:00024a04       ?fin$0@?0???$?RV<lambda_450d765d439847d4c735a33c368b5fc0>@@AEAV<lambda_44731a7d0e6d81c3e6aa82d741081786>@@V<lambda_601a2a7da3b7a96e9554ac7215c4b07c>@@@?$__crt_seh_guarded_call@P6AXH@Z@@QEAAP6AXH@Z$$QEAV<lambda_450d765d439847d4c735a33c368b5fc0>@@AEAV<lambda_44731a7d0e6d81c3e6aa82d741081786>@@$$QEAV<lambda_601a2a7da3b7a96e9554ac7215c4b07c>@@@Z@4HA 0000000180025a04 f   libucrt:signal.obj
 0001:00024a04       ?fin$0@?0???$?RV<lambda_d80eeec6fff315bfe5c115232f3240e3>@@AEAV<lambda_6e4b09c48022b2350581041d5f6b0c4c>@@V<lambda_2358e3775559c9db80273638284d5e45>@@@?$__crt_seh_guarded_call@X@@QEAAX$$QEAV<lambda_d80eeec6fff315bfe5c115232f3240e3>@@AEAV<lambda_6e4b09c48022b2350581041d5f6b0c4c>@@$$QEAV<lambda_2358e3775559c9db80273638284d5e45>@@@Z@4HA 0000000180025a04 f   libucrt:exit.obj
 0001:00024a04       ?fin$0@?0???$?RV<lambda_638799b9deba96c50f710eeac98168cd>@@AEAV<lambda_22ebabd17bc4fa466a2aca6d8deb888d>@@V<lambda_a6f7d7db0129f75315ebf26d50c089f1>@@@?$__crt_seh_guarded_call@H@@QEAAH$$QEAV<lambda_638799b9deba96c50f710eeac98168cd>@@AEAV<lambda_22ebabd17bc4fa466a2aca6d8deb888d>@@$$QEAV<lambda_a6f7d7db0129f75315ebf26d50c089f1>@@@Z@4HA 0000000180025a04 f   libucrt:onexit.obj
 0001:00024a04       ?fin$0@?0???$?RV<lambda_7777bce6b2f8c936911f934f8298dc43>@@AEAV<lambda_f03950bc5685219e0bcd2087efbe011e>@@V<lambda_3883c3dff614d5e0c5f61bb1ac94921c>@@@?$__crt_seh_guarded_call@H@@QEAAH$$QEAV<lambda_7777bce6b2f8c936911f934f8298dc43>@@AEAV<lambda_f03950bc5685219e0bcd2087efbe011e>@@$$QEAV<lambda_3883c3dff614d5e0c5f61bb1ac94921c>@@@Z@4HA 0000000180025a04 f   libucrt:onexit.obj
 0001:00024a1e       ?filt$0@?0???R<lambda_6e4b09c48022b2350581041d5f6b0c4c>@@QEBA@XZ@4HA 0000000180025a1e f   libucrt:exit.obj
 0001:00024a4b       _query_new_handler$fin$0   0000000180025a4b f   libucrt:new_handler.obj
 0001:00024a61       ?fin$0@?0???$?RV<lambda_410d79af7f07d98d83a3f525b3859a53>@@AEAV<lambda_3e16ef9562a7dcce91392c22ab16ea36>@@V<lambda_38119f0e861e05405d8a144b9b982f0a>@@@?$__crt_seh_guarded_call@X@@QEAAX$$QEAV<lambda_410d79af7f07d98d83a3f525b3859a53>@@AEAV<lambda_3e16ef9562a7dcce91392c22ab16ea36>@@$$QEAV<lambda_38119f0e861e05405d8a144b9b982f0a>@@@Z@4HA 0000000180025a61 f   libucrt:wsetlocale.obj
 0001:00024a7b       __acrt_initialize_lowio$fin$0 0000000180025a7b f   libucrt:ioinit.obj
 0001:00024a7b       __acrt_lowio_ensure_fh_exists$fin$0 0000000180025a7b f   libucrt:osfinfo.obj
 0001:00024a94       ?fin$0@?0???$?RV<lambda_efdfa57d1f175319df784efa44bb7b81>@@AEAV<lambda_5f0a4c1567f8adc6734073e5d1e1b35c>@@V<lambda_2e8a7d3640ea6ccb4c2413664c2db6fd>@@@?$__crt_seh_guarded_call@X@@QEAAX$$QEAV<lambda_efdfa57d1f175319df784efa44bb7b81>@@AEAV<lambda_5f0a4c1567f8adc6734073e5d1e1b35c>@@$$QEAV<lambda_2e8a7d3640ea6ccb4c2413664c2db6fd>@@@Z@4HA 0000000180025a94 f   libucrt:mbctype.obj
 0001:00024aae       ?fin$0@?0??update_thread_multibyte_data_internal@@YAPEAU__crt_multibyte_data@@QEAU__acrt_ptd@@QEAPEAU1@@Z@4HA 0000000180025aae f   libucrt:mbctype.obj
 0001:00024ac7       raise$fin$0                0000000180025ac7 f   libucrt:signal.obj
 0001:00024ae8       ?fin$0@?0???$?RV<lambda_842d9ff0dc9ef11c61343bbaebe7f885>@@AEAV<lambda_c5860995281e5c4ce005b3de8f5874ee>@@V<lambda_d90129c13df834fdcbf8d2b88dafcf2d>@@@?$__crt_seh_guarded_call@X@@QEAAX$$QEAV<lambda_842d9ff0dc9ef11c61343bbaebe7f885>@@AEAV<lambda_c5860995281e5c4ce005b3de8f5874ee>@@$$QEAV<lambda_d90129c13df834fdcbf8d2b88dafcf2d>@@@Z@4HA 0000000180025ae8 f   libucrt:fflush.obj
 0001:00024b03       ?fin$0@?0???$?RV<lambda_886d6c58226a84441f68b9f2b8217b83>@@AEAV<lambda_ab61a845afdef5b7c387490eaf3616ee>@@V<lambda_f7f22ab5edc0698d5f6905b0d3f44752>@@@?$__crt_seh_guarded_call@X@@QEAAX$$QEAV<lambda_886d6c58226a84441f68b9f2b8217b83>@@AEAV<lambda_ab61a845afdef5b7c387490eaf3616ee>@@$$QEAV<lambda_f7f22ab5edc0698d5f6905b0d3f44752>@@@Z@4HA 0000000180025b03 f   libucrt:fflush.obj
 0001:00024b20       __acrt_update_thread_locale_data$fin$0 0000000180025b20 f   libucrt:locale_refcounting.obj
 0001:00024b39       _fcloseall$fin$0           0000000180025b39 f   libucrt:closeall.obj
 0001:00024b52       ?fin$0@?0???$?RV<lambda_ad8af0d99a0adf03d037d7dffe354bb5>@@AEAV<lambda_c9ba49e555ba839a7b07aa3fbecb7617>@@V<lambda_2f1ebd5d68526518146ae959c9e734c8>@@@?$__crt_seh_guarded_call@H@@QEAAH$$QEAV<lambda_ad8af0d99a0adf03d037d7dffe354bb5>@@AEAV<lambda_c9ba49e555ba839a7b07aa3fbecb7617>@@$$QEAV<lambda_2f1ebd5d68526518146ae959c9e734c8>@@@Z@4HA 0000000180025b52 f   libucrt:close.obj
 0001:00024b52       ?fin$0@?0???$?RV<lambda_a37b2b86f63e897a80ea819b0eb08c01>@@AEAV<lambda_38ce7e780aa69e748d6df282ebc68efe>@@V<lambda_99fb1378e971ab6e7edea83e3a7a83a2>@@@?$__crt_seh_guarded_call@H@@QEAAH$$QEAV<lambda_a37b2b86f63e897a80ea819b0eb08c01>@@AEAV<lambda_38ce7e780aa69e748d6df282ebc68efe>@@$$QEAV<lambda_99fb1378e971ab6e7edea83e3a7a83a2>@@@Z@4HA 0000000180025b52 f   libucrt:commit.obj
 0001:00024b6c       _write_internal$fin$0      0000000180025b6c f   libucrt:write.obj
 0001:00024b83       ?fin$0@?0??_fclose_internal@@YAHQEAU_iobuf@@AEAV__crt_cached_ptd_host@@@Z@4HA 0000000180025b83 f   libucrt:fclose.obj
 0001:00024b9b       _ctrlfp$filt$0             0000000180025b9b f   libucrt:fpctrl.obj
 0001:00024b9b       common_control87$filt$0    0000000180025b9b f   libucrt:ieee.obj
 0001:00024bd0       _IsNonwritableInCurrentImage$filt$0 0000000180025bd0 f   LIBCMT:pesect.obj
 0001:00024bf0       ??__F_AtlComModule@ATL@@YAXXZ 0000000180025bf0 f   OposVariant.obj
 0001:00024bfc       ??__F_AtlWinModule@ATL@@YAXXZ 0000000180025bfc f   OposVariant.obj
 0001:00024c40       ??__F_Module@@YAXXZ        0000000180025c40 f   VideoCapture.obj
 0001:00024c5c       ??__F_AtlBaseModule@ATL@@YAXXZ 0000000180025c5c f   atls:atlbase.obj
 0002:00000670       ?_AtlBaseModule$initializer$@ATL@@3P6AXXZEA 0000000180026670     atls:atlbase.obj
 0002:00000678       ?_AtlComModule$initializer$@ATL@@3P6AXXZEA 0000000180026678     OposVariant.obj
 0002:00000680       ?_AtlWinModule$initializer$@ATL@@3P6AXXZEA 0000000180026680     OposVariant.obj
 0002:00000688       ?_Module$initializer$@@3P6AXXZEA 0000000180026688     VideoCapture.obj
 0002:00000690       ??pConnMap$initializer$@?$IConnectionPointContainerImpl@VCOPOSVideoCapture@@@ATL@@0P6AXXZEA@@3P6AXXZEA 0000000180026690     VideoCapture.obj
 0002:000006a8       ?__scrt_initialize_tss_var@@3P6AHXZEA 00000001800266a8     LIBCMT:thread_safe_statics.obj
 0002:00002a68       GS_ExceptionPointers       0000000180028a68     LIBCMT:gs_report.obj
 0002:00002c50       ?ExceptionTemplate@?1??UnwindNestedFrames@__FrameHandler4@@SAXPEA_KPEAUEHExceptionRecord@@PEAU_CONTEXT@@0PEAXPEAUFuncInfo4@FH4@@HHPEAUHandlerType4@6@PEAU_xDISPATCHER_CONTEXT@@E@Z@4U_EXCEPTION_RECORD@@B 0000000180028c50     libvcruntime:risctrnsctrl.obj
 0002:00002cf0       ?ExceptionTemplate@?1??UnwindNestedFrames@__FrameHandler3@@SAXPEA_KPEAUEHExceptionRecord@@PEAU_CONTEXT@@0PEAXPEBU_s_FuncInfo@@HHPEBU_s_HandlerType@@PEAU_xDISPATCHER_CONTEXT@@E@Z@4U_EXCEPTION_RECORD@@B 0000000180028cf0     libvcruntime:risctrnsctrl.obj
 0002:00002dc0       ?tokenTable@@3QBUStringLiteral@@B 0000000180028dc0     libvcruntime:undname.obj
 0002:00002ed0       ?nameTable@@3QBUStringLiteral@@B 0000000180028ed0     libvcruntime:undname.obj
 0002:00003400       ?rttiTable@@3QBUStringLiteral@@B 0000000180029400     libvcruntime:undname.obj
 0002:00003450       ?IndirectionName@@3QBUStringLiteral@@B 0000000180029450     libvcruntime:undname.obj
 0002:000034b0       ?PrefixName@@3QBUStringLiteral@@B 00000001800294b0     libvcruntime:undname.obj
 0002:00003b98       ?module_names@?A0xbc0cc709@@3QBQEB_WB 0000000180029b98     libvcruntime:winapi_downlevel.obj
 0002:00003c58       ?candidate_modules@?1??try_get_FlsAlloc@@YAP6AKP6AXPEAX@Z@ZXZ@4QBW4module_id@?A0xbc0cc709@@B 0000000180029c58     libvcruntime:winapi_downlevel.obj
 0002:00003c70       ?candidate_modules@?1??try_get_FlsFree@@YAP6AHK@ZXZ@4QBW4module_id@?A0xbc0cc709@@B 0000000180029c70     libvcruntime:winapi_downlevel.obj
 0002:00003c80       ?candidate_modules@?1??try_get_FlsGetValue@@YAP6APEAXK@ZXZ@4QBW4module_id@?A0xbc0cc709@@B 0000000180029c80     libvcruntime:winapi_downlevel.obj
 0002:00003c98       ?candidate_modules@?1??try_get_FlsSetValue@@YAP6AHKPEAX@ZXZ@4QBW4module_id@?A0xbc0cc709@@B 0000000180029c98     libvcruntime:winapi_downlevel.obj
 0002:00003cb0       ?candidate_modules@?1??try_get_InitializeCriticalSectionEx@@YAP6AHPEAU_RTL_CRITICAL_SECTION@@KK@ZXZ@4QBW4module_id@?A0xbc0cc709@@B 0000000180029cb0     libvcruntime:winapi_downlevel.obj
 0002:00003ce0       ?errtable@@3QBUerrentry@?A0x31fdb9ec@@B 0000000180029ce0     libucrt:errno.obj
 0002:00004048       $cppxdata$?try_cor_exit_process@@YAXI@Z 000000018002a048     libucrt:exit.obj
 0002:00004070       $cppxdata$?common_exit@@YAXHW4_crt_exit_cleanup_mode@@W4_crt_exit_return_mode@@@Z 000000018002a070     libucrt:exit.obj
 0002:000040c0       $cppxdata$__dcrt_uninitialize_environments_nolock 000000018002a0c0     libucrt:environment_initialization.obj
 0002:000040e8       $cppxdata$_execute_onexit_table 000000018002a0e8     libucrt:onexit.obj
 0002:00004110       __acrt_initializers        000000018002a110     libucrt:initialization.obj
 0002:00004890       ?module_names@?A0x391cf84c@@3QBQEB_WB 000000018002a890     libucrt:winapi_thunks.obj
 0002:00004d98       ?candidate_modules@?1??try_get_AreFileApisANSI@@YAP6AHXZXZ@4QBW4module_id@?A0x391cf84c@@B 000000018002ad98     libucrt:winapi_thunks.obj
 0002:00004db0       ?candidate_modules@?1??try_get_InitializeCriticalSectionEx@@YAP6AHPEAU_RTL_CRITICAL_SECTION@@KK@ZXZ@4QBW4module_id@?A0x391cf84c@@B 000000018002adb0     libucrt:winapi_thunks.obj
 0002:00004db8       ?candidate_modules@?1??try_get_LCMapStringEx@@YAP6AHPEB_WK0HPEA_WHPEAU_nlsversioninfo@@PEAX_J@ZXZ@4QBW4module_id@?A0x391cf84c@@B 000000018002adb8     libucrt:winapi_thunks.obj
 0002:00004dd0       ?candidate_modules@?1??try_get_LocaleNameToLCID@@YAP6AKPEB_WK@ZXZ@4QBW4module_id@?A0x391cf84c@@B 000000018002add0     libucrt:winapi_thunks.obj
 0002:00004dec       ?candidate_modules@?1??try_get_AppPolicyGetProcessTerminationMethod@@YAP6AJPEAXPEAW4AppPolicyProcessTerminationMethod@@@ZXZ@4QBW4module_id@?A0x391cf84c@@B 000000018002adec     libucrt:winapi_thunks.obj
 0002:00004e18       ?candidate_modules@?1??try_get_SetThreadStackGuarantee@@YAP6AHPEAK@ZXZ@4QBW4module_id@?A0x391cf84c@@B 000000018002ae18     libucrt:winapi_thunks.obj
 0002:00004e40       ?strings@?1??fp_format_nan_or_infinity@@YAHW4__acrt_fp_class@@_NPEAD_K1@Z@4QAY03QEBDA 000000018002ae40     libucrt:cvt.obj
 0002:00004f18       ?_mb_locale_names@@3QBQEB_WB 000000018002af18     libucrt:mbctype.obj
 0002:00005590       ?LcidToLocaleNameTable@?A0x881e4c05@@3QBULcidToLocaleName@1@B 000000018002b590     libucrt:lcidtoname_downlevel.obj
 0002:00006fe0       ?LocaleNameToIndexTable@?A0x881e4c05@@3QBULocaleNameIndex@1@B 000000018002cfe0     libucrt:lcidtoname_downlevel.obj
 0002:00009270       $cppxdata$?write_double_translated_ansi_nolock@@YA?AUwrite_result@?A0x17268360@@HQEBDIAEAV__crt_cached_ptd_host@@@Z 000000018002f270     libucrt:write.obj
 0002:000092a0       __real_ninf                000000018002f2a0     libucrt:log10.obj
 0002:000092b0       __real_inf                 000000018002f2b0     libucrt:log10.obj
 0002:000092c0       __real_neg_qnan            000000018002f2c0     libucrt:log10.obj
 0002:000092d0       __real_qnanbit             000000018002f2d0     libucrt:log10.obj
 0002:000092e0       __int_1023                 000000018002f2e0     libucrt:log10.obj
 0002:000092f0       __mask_001                 000000018002f2f0     libucrt:log10.obj
 0002:00009300       __mask_mant                000000018002f300     libucrt:log10.obj
 0002:00009310       __mask_mant_top8           000000018002f310     libucrt:log10.obj
 0002:00009320       __mask_mant9               000000018002f320     libucrt:log10.obj
 0002:00009330       __real_log10_e             000000018002f330     libucrt:log10.obj
 0002:00009340       __real_log10_e_lead        000000018002f340     libucrt:log10.obj
 0002:00009350       __real_log10_e_tail        000000018002f350     libucrt:log10.obj
 0002:00009360       __real_log10_2_lead        000000018002f360     libucrt:log10.obj
 0002:00009370       __real_log10_2_tail        000000018002f370     libucrt:log10.obj
 0002:00009380       __real_two                 000000018002f380     libucrt:log10.obj
 0002:00009390       __real_one                 000000018002f390     libucrt:log10.obj
 0002:000093a0       __real_half                000000018002f3a0     libucrt:log10.obj
 0002:000093b0       __mask_100                 000000018002f3b0     libucrt:log10.obj
 0002:000093c0       __real_1_over_512          000000018002f3c0     libucrt:log10.obj
 0002:000093d0       __real_1_over_2            000000018002f3d0     libucrt:log10.obj
 0002:000093e0       __real_1_over_3            000000018002f3e0     libucrt:log10.obj
 0002:000093f0       __real_1_over_4            000000018002f3f0     libucrt:log10.obj
 0002:00009400       __real_1_over_5            000000018002f400     libucrt:log10.obj
 0002:00009410       __real_1_over_6            000000018002f410     libucrt:log10.obj
 0002:00009420       __real_neg_1023            000000018002f420     libucrt:log10.obj
 0002:00009430       __mask_2045                000000018002f430     libucrt:log10.obj
 0002:00009440       __real_threshold           000000018002f440     libucrt:log10.obj
 0002:00009450       __real_near_one_lt         000000018002f450     libucrt:log10.obj
 0002:00009460       __real_near_one_gt         000000018002f460     libucrt:log10.obj
 0002:00009470       __real_min_norm            000000018002f470     libucrt:log10.obj
 0002:00009480       __real_notsign             000000018002f480     libucrt:log10.obj
 0002:00009490       __real_ca1                 000000018002f490     libucrt:log10.obj
 0002:000094a0       __real_ca2                 000000018002f4a0     libucrt:log10.obj
 0002:000094b0       __real_ca3                 000000018002f4b0     libucrt:log10.obj
 0002:000094c0       __real_ca4                 000000018002f4c0     libucrt:log10.obj
 0002:000094d0       __mask_lower               000000018002f4d0     libucrt:log10.obj
 0002:000094e0       __flag_x_zero              000000018002f4e0     libucrt:log10.obj
 0002:000094e4       __flag_x_neg               000000018002f4e4     libucrt:log10.obj
 0002:000094e8       __flag_x_nan               000000018002f4e8     libucrt:log10.obj
 0002:0000ad40       __real@433fffffffffffff    0000000180030d40     libucrt:fpsr.obj
 0002:0000ad48       __real@c33fffffffffffff    0000000180030d48     libucrt:fpsr.obj
 0002:0000b650       $unwind$?cw_memcpy@@YAHPEA_WPEBDH@Z 0000000180031650     CWString.obj
 0002:0000b650       $unwind$_invalid_parameter_noinfo 0000000180031650     libucrt:invalid_parameter.obj
 0002:0000b650       $unwind$?state_case_size@?$output_processor@_WV?$string_output_adapter@_W@__crt_stdio_output@@V?$format_validation_base@_WV?$string_output_adapter@_W@__crt_stdio_output@@@2@@__crt_stdio_output@@AEAA_NXZ 0000000180031650     libucrt:output.obj
 0002:0000b650       $unwind$_log10_special     0000000180031650     libucrt:log_special.obj
 0002:0000b658       $unwind$?cw_strcpy@@YAHPEA_WPEBD@Z 0000000180031658     CWString.obj
 0002:0000b658       $unwind$??1OposDispParms@@QEAA@XZ 0000000180031658     OposVariant.obj
 0002:0000b658       $unwind$??__E_AtlComModule@ATL@@YAXXZ 0000000180031658     OposVariant.obj
 0002:0000b658       $unwind$??__E_AtlWinModule@ATL@@YAXXZ 0000000180031658     OposVariant.obj
 0002:0000b658       $unwind$??__F_AtlWinModule@ATL@@YAXXZ 0000000180031658     OposVariant.obj
 0002:0000b658       $unwind$?GetLONG@OposVariant@@QEAAJXZ 0000000180031658     OposVariant.obj
 0002:0000b658       $unwind$??__E?pConnMap@?$IConnectionPointContainerImpl@VCOPOSVideoCapture@@@ATL@@0PEBU_ATL_CONNMAP_ENTRY@2@EB@@YAXXZ 0000000180031658     VideoCapture.obj
 0002:0000b658       $unwind$?AddReplacement@CRegObject@ATL@@UEAAJPEB_W0@Z 0000000180031658     VideoCapture.obj
 0002:0000b658       $unwind$?AtlHresultFromLastError@ATL@@YAJXZ 0000000180031658     VideoCapture.obj
 0002:0000b658       $unwind$?AtlThrowImpl@ATL@@YAXJ@Z 0000000180031658     VideoCapture.obj
 0002:0000b658       $unwind$?CreateInstance@CComClassFactory@ATL@@UEAAJPEAUIUnknown@@AEBU_GUID@@PEAPEAX@Z 0000000180031658     VideoCapture.obj
 0002:0000b658       $unwind$?DefaultReflectionHandler@?$CWindowImplRoot@VCWindow@ATL@@@ATL@@SAHPEAUHWND__@@I_K_JAEA_J@Z 0000000180031658     VideoCapture.obj
 0002:0000b658       $unwind$?EnumAdvise@?$IOleObjectImpl@VCOPOSVideoCapture@@@ATL@@UEAAJPEAPEAUIEnumSTATDATA@@@Z 0000000180031658     VideoCapture.obj
 0002:0000b658       $unwind$?FireViewChange@CComControlBase@ATL@@QEAAJXZ 0000000180031658     VideoCapture.obj
 0002:0000b658       $unwind$?GetAdvise@?$IViewObjectExImpl@VCOPOSVideoCapture@@@ATL@@UEAAJPEAK0PEAPEAUIAdviseSink@@@Z 0000000180031658     VideoCapture.obj
 0002:0000b658       $unwind$?LockServer@CComClassFactory@ATL@@UEAAJH@Z 0000000180031658     VideoCapture.obj
 0002:0000b658       $unwind$?OnDocWindowActivate@?$IOleInPlaceActiveObjectImpl@VCOPOSVideoCapture@@@ATL@@UEAAJH@Z 0000000180031658     VideoCapture.obj
 0002:0000b658       $unwind$?Unadvise@?$IOleObjectImpl@VCOPOSVideoCapture@@@ATL@@UEAAJK@Z 0000000180031658     VideoCapture.obj
 0002:0000b658       $unwind$?_LocCPQueryInterface@?$IConnectionPointImpl@VCOPOSVideoCapture@@$1?DIID__IOPOSVideoCaptureEvents@@3U_GUID@@BVCComDynamicUnkArray@ATL@@@ATL@@UEAAJAEBU_GUID@@PEAPEAX@Z 0000000180031658     VideoCapture.obj
 0002:0000b658       $unwind$?_LocCPQueryInterface@?$IConnectionPointImpl@VCOPOSVideoCapture@@$1?IID_IPropertyNotifySink@@3U_GUID@@BVCComDynamicUnkArray@ATL@@@ATL@@UEAAJAEBU_GUID@@PEAPEAX@Z 0000000180031658     VideoCapture.obj
 0002:0000b658       $unwind$?FinalConstruct@COPOSVideoCapture@@QEAAJXZ 0000000180031658     VideoCaptureImpl.obj
 0002:0000b658       $unwind$?get_ResultCode@COPOSVideoCapture@@UEAAJPEAJ@Z 0000000180031658     VideoCaptureImpl.obj
 0002:0000b658       $unwind$?get_State@COPOSVideoCapture@@UEAAJPEAJ@Z 0000000180031658     VideoCaptureImpl.obj
 0002:0000b658       $unwind$__dcrt_terminate_console_output 0000000180031658     libucrt:initcon.obj
 0002:0000b658       $unwind$??$uninitialize_environment_internal@D@@YAXAEAPEAPEAD@Z 0000000180031658     libucrt:environment_initialization.obj
 0002:0000b658       $unwind$??$uninitialize_environment_internal@_W@@YAXAEAPEAPEA_W@Z 0000000180031658     libucrt:environment_initialization.obj
 0002:0000b658       $unwind$__acrt_initialize_heap 0000000180031658     libucrt:heap_handle.obj
 0002:0000b658       $unwind$_msize_base        0000000180031658     libucrt:msize.obj
 0002:0000b658       $unwind$?initialize_multibyte@@YAHXZ 0000000180031658     libucrt:multibyte_initializer.obj
 0002:0000b658       $unwind$__acrt_thread_attach 0000000180031658     libucrt:initialization.obj
 0002:0000b658       $unwind$__acrt_thread_detach 0000000180031658     libucrt:initialization.obj
 0002:0000b658       $unwind$__acrt_uninitialize 0000000180031658     libucrt:initialization.obj
 0002:0000b658       $unwind$__acrt_uninitialize_critical 0000000180031658     libucrt:initialization.obj
 0002:0000b658       $unwind$initialize_c       0000000180031658     libucrt:initialization.obj
 0002:0000b658       $unwind$uninitialize_allocated_io_buffers 0000000180031658     libucrt:initialization.obj
 0002:0000b658       $unwind$uninitialize_environment 0000000180031658     libucrt:initialization.obj
 0002:0000b658       $unwind$__acrt_initialize_ptd 0000000180031658     libucrt:per_thread_data.obj
 0002:0000b658       $unwind$__acrt_uninitialize_ptd 0000000180031658     libucrt:per_thread_data.obj
 0002:0000b658       $unwind$__acrt_AreFileApisANSI 0000000180031658     libucrt:winapi_thunks.obj
 0002:0000b658       $unwind$__acrt_release_locale_ref 0000000180031658     libucrt:locale_refcounting.obj
 0002:0000b658       $unwind$_isatty            0000000180031658     libucrt:isatty.obj
 0002:0000b658       $unwind$_get_osfhandle     0000000180031658     libucrt:osfinfo.obj
 0002:0000b658       $unwind$__acrt_initialize_multibyte 0000000180031658     libucrt:mbctype.obj
 0002:0000b658       $unwind$__acrt_update_thread_multibyte_data 0000000180031658     libucrt:mbctype.obj
 0002:0000b658       $unwind$__doserrno         0000000180031658     libucrt:errno.obj
 0002:0000b658       $unwind$_errno             0000000180031658     libucrt:errno.obj
 0002:0000b658       $unwind$_invoke_watson     0000000180031658     libucrt:invalid_parameter.obj
 0002:0000b658       $unwind$abort              0000000180031658     libucrt:abort.obj
 0002:0000b658       $unwind$__acrt_initialize_command_line 0000000180031658     libucrt:argv_data.obj
 0002:0000b658       $unwind$?should_call_terminate_process@@YA_NXZ 0000000180031658     libucrt:exit.obj
 0002:0000b658       $unwind$_fileno            0000000180031658     libucrt:fileno.obj
 0002:0000b658       $unwind$_statfp            0000000180031658     libucrt:fpctrl.obj
 0002:0000b658       $unwind$fegetround         0000000180031658     libucrt:fegetround.obj
 0002:0000b658       $unwind$_set_errno_from_matherr 0000000180031658     libucrt:fpexcept.obj
 0002:0000b658       $unwind$??__E_AtlBaseModule@ATL@@YAXXZ 0000000180031658     atls:atlbase.obj
 0002:0000b658       $unwind$__scrt_initialize_default_local_stdio_options 0000000180031658     LIBCMT:default_local_stdio_options.obj
 0002:0000b658       $unwind$?dllmain_crt_dispatch@@YAHQEAUHINSTANCE__@@KQEAX@Z 0000000180031658     LIBCMT:dll_dllmain.obj
 0002:0000b658       $unwind$__report_rangecheckfailure 0000000180031658     LIBCMT:gs_report.obj
 0002:0000b658       $unwind$__GSHandlerCheck   0000000180031658     LIBCMT:gshandler.obj
 0002:0000b658       $unwind$?__scrt_uninitialize_thread_safe_statics@@YAXXZ 0000000180031658     LIBCMT:thread_safe_statics.obj
 0002:0000b658       $unwind$_Init_thread_notify 0000000180031658     LIBCMT:thread_safe_statics.obj
 0002:0000b658       $unwind$__scrt_acquire_startup_lock 0000000180031658     LIBCMT:utility.obj
 0002:0000b658       $unwind$__scrt_dllmain_after_initialize_c 0000000180031658     LIBCMT:utility.obj
 0002:0000b658       $unwind$__scrt_dllmain_before_initialize_c 0000000180031658     LIBCMT:utility.obj
 0002:0000b658       $unwind$__scrt_dllmain_crt_thread_attach 0000000180031658     LIBCMT:utility.obj
 0002:0000b658       $unwind$__scrt_dllmain_crt_thread_detach 0000000180031658     LIBCMT:utility.obj
 0002:0000b658       $unwind$__scrt_dllmain_uninitialize_c 0000000180031658     LIBCMT:utility.obj
 0002:0000b658       $unwind$__scrt_dllmain_uninitialize_critical 0000000180031658     LIBCMT:utility.obj
 0002:0000b658       $unwind$atexit             0000000180031658     LIBCMT:utility.obj
 0002:0000b658       $unwind$__std_terminate    0000000180031658     libvcruntime:ehhelpers.obj
 0002:0000b658       $unwind$?GetCurrentState@__FrameHandler3@@SAHPEA_KPEAU_xDISPATCHER_CONTEXT@@PEBU_s_FuncInfo@@@Z 0000000180031658     libvcruntime:ehstate.obj
 0002:0000b658       $unwind$__vcrt_initialize  0000000180031658     libvcruntime:initialization.obj
 0002:0000b658       $unwind$__vcrt_thread_attach 0000000180031658     libvcruntime:initialization.obj
 0002:0000b658       $unwind$__vcrt_thread_detach 0000000180031658     libvcruntime:initialization.obj
 0002:0000b658       $unwind$__vcrt_uninitialize 0000000180031658     libvcruntime:initialization.obj
 0002:0000b658       $unwind$__vcrt_uninitialize_critical 0000000180031658     libvcruntime:initialization.obj
 0002:0000b658       $unwind$__vcrt_freefls     0000000180031658     libvcruntime:per_thread_data.obj
 0002:0000b658       $unwind$__vcrt_getptd      0000000180031658     libvcruntime:per_thread_data.obj
 0002:0000b658       $unwind$__vcrt_initialize_ptd 0000000180031658     libvcruntime:per_thread_data.obj
 0002:0000b658       $unwind$__vcrt_uninitialize_ptd 0000000180031658     libvcruntime:per_thread_data.obj
 0002:0000b658       $unwind$_purecall          0000000180031658     libvcruntime:purevirt.obj
 0002:0000b658       $unwind$?FrameUnwindToEmptyState@__FrameHandler4@@SAXPEA_KPEAU_xDISPATCHER_CONTEXT@@PEAUFuncInfo4@FH4@@@Z 0000000180031658     libvcruntime:risctrnsctrl.obj
 0002:0000b658       $unwind$_GetImageBase      0000000180031658     libvcruntime:risctrnsctrl.obj
 0002:0000b658       $unwind$_GetThrowImageBase 0000000180031658     libvcruntime:risctrnsctrl.obj
 0002:0000b660       $unwind$?cw_dup@@YAXPEBDAEAHAEAPEA_W1@Z 0000000180031660     CWString.obj
 0002:0000b660       $unwind$?DAdvise@?$IDataObjectImpl@VCOPOSVideoCapture@@@ATL@@UEAAJPEAUtagFORMATETC@@KPEAUIAdviseSink@@PEAK@Z 0000000180031660     VideoCapture.obj
 0002:0000b660       $unwind$??$create_environment@D@@YAQEAPEADQEAD@Z 0000000180031660     libucrt:environment_initialization.obj
 0002:0000b660       $unwind$_mbtowc_internal   0000000180031660     libucrt:mbtowc.obj
 0002:0000b660       $unwind$??$__acrt_convert_wcs_mbs_cp@D_WV<lambda_7c9dea7b4ca7285d2cdb541a38da6275>@@U__crt_win32_buffer_internal_dynamic_resizing@@@@YAHQEBDAEAV?$__crt_win32_buffer@_WU__crt_win32_buffer_internal_dynamic_resizing@@@@AEBV<lambda_7c9dea7b4ca7285d2cdb541a38da6275>@@I@Z 0000000180031660     libucrt:argv_wildcards.obj
 0002:0000b660       $unwind$?process@?$output_processor@_WV?$string_output_adapter@_W@__crt_stdio_output@@V?$format_validation_base@_WV?$string_output_adapter@_W@__crt_stdio_output@@@2@@__crt_stdio_output@@QEAAHXZ 0000000180031660     libucrt:output.obj
 0002:0000b678       $unwind$?DupWide@_CW@@AEAAXXZ 0000000180031678     CWString.obj
 0002:0000b678       $unwind$??0CAtlComModule@ATL@@QEAA@XZ 0000000180031678     OposVariant.obj
 0002:0000b678       $unwind$??0CAtlWinModule@ATL@@QEAA@XZ 0000000180031678     OposVariant.obj
 0002:0000b678       $unwind$??0?$CComObject@VCOPOSVideoCapture@@@ATL@@QEAA@PEAX@Z 0000000180031678     VideoCapture.obj
 0002:0000b678       $unwind$??0CAtlModule@ATL@@QEAA@XZ 0000000180031678     VideoCapture.obj
 0002:0000b678       $unwind$??1?$CComObject@VCOPOSVideoCapture@@@ATL@@UEAA@XZ 0000000180031678     VideoCapture.obj
 0002:0000b678       $unwind$??__E_Module@@YAXXZ 0000000180031678     VideoCapture.obj
 0002:0000b678       $unwind$?AddRef@?$CComObjectCached@VCComClassFactory@ATL@@@ATL@@UEAAKXZ 0000000180031678     VideoCapture.obj
 0002:0000b678       $unwind$?AllocateHeap@?$CTempBuffer@E$0BAA@VCCRTAllocator@ATL@@@ATL@@AEAAX_K@Z 0000000180031678     VideoCapture.obj
 0002:0000b678       $unwind$?AllocateHeap@?$CTempBuffer@_W$0BAA@VCCRTAllocator@ATL@@@ATL@@AEAAX_K@Z 0000000180031678     VideoCapture.obj
 0002:0000b678       $unwind$?AllocateHeap@?$CTempBuffer@_W$0EAA@VCCRTAllocator@ATL@@@ATL@@AEAAX_K@Z 0000000180031678     VideoCapture.obj
 0002:0000b678       $unwind$?GetClassInfoW@?$IProvideClassInfo2Impl@$1?CLSID_OPOSVideoCapture@@3U_GUID@@B$1?DIID__IOPOSVideoCaptureEvents@@3U2@B$1?LIBID_OposVideoCapture_CCO@@3U2@B$00$0A@VCComTypeInfoHolder@ATL@@@ATL@@UEAAJPEAPEAUITypeInfo@@@Z 0000000180031678     VideoCapture.obj
 0002:0000b678       $unwind$?GetClientSite@?$IOleObjectImpl@VCOPOSVideoCapture@@@ATL@@UEAAJPEAPEAUIOleClientSite@@@Z 0000000180031678     VideoCapture.obj
 0002:0000b678       $unwind$?GetConnMap@COPOSVideoCapture@@SAPEBU_ATL_CONNMAP_ENTRY@ATL@@PEAH@Z 0000000180031678     VideoCapture.obj
 0002:0000b678       $unwind$?GetTypeInfo@?$IDispatchImpl@UIOPOSVideoCapture@@$1?IID_IOPOSVideoCapture@@3U_GUID@@B$1?LIBID_OposVideoCapture_CCO@@3U3@B$00$0A@VCComTypeInfoHolder@ATL@@@ATL@@UEAAJIKPEAPEAUITypeInfo@@@Z 0000000180031678     VideoCapture.obj
 0002:0000b678       $unwind$?IOleInPlaceObject_InPlaceDeactivate@CComControlBase@ATL@@QEAAJXZ 0000000180031678     VideoCapture.obj
 0002:0000b678       $unwind$?IOleObject_SetExtent@CComControlBase@ATL@@QEAAJKPEAUtagSIZE@@@Z 0000000180031678     VideoCapture.obj
 0002:0000b678       $unwind$?IsEqualObject@?$CComPtrBase@UIOleClientSite@@@ATL@@QEAA_NPEAUIUnknown@@@Z 0000000180031678     VideoCapture.obj
 0002:0000b678       $unwind$?QueryHitPoint@?$IViewObjectExImpl@VCOPOSVideoCapture@@@ATL@@UEAAJKPEBUtagRECT@@UtagPOINT@@JPEAK@Z 0000000180031678     VideoCapture.obj
 0002:0000b678       $unwind$?QueryInterface@?$CComAggObject@VCOPOSVideoCapture@@@ATL@@UEAAJAEBU_GUID@@PEAPEAX@Z 0000000180031678     VideoCapture.obj
 0002:0000b678       $unwind$?Release@?$CComObjectCached@VCComClassFactory@ATL@@@ATL@@UEAAKXZ 0000000180031678     VideoCapture.obj
 0002:0000b678       $unwind$?Unadvise@?$IConnectionPointImpl@VCOPOSVideoCapture@@$1?DIID__IOPOSVideoCaptureEvents@@3U_GUID@@BVCComDynamicUnkArray@ATL@@@ATL@@UEAAJK@Z 0000000180031678     VideoCapture.obj
 0002:0000b678       $unwind$?Unadvise@?$IConnectionPointImpl@VCOPOSVideoCapture@@$1?IID_IPropertyNotifySink@@3U_GUID@@BVCComDynamicUnkArray@ATL@@@ATL@@UEAAJK@Z 0000000180031678     VideoCapture.obj
 0002:0000b678       $unwind$??1CComControlBase@ATL@@UEAA@XZ 0000000180031678     VideoCaptureImpl.obj
 0002:0000b678       $unwind$??1COPOSVideoCapture@@UEAA@XZ 0000000180031678     VideoCaptureImpl.obj
 0002:0000b678       $unwind$?EventUninit@COPOSVideoCapture@@IEAAXXZ 0000000180031678     VideoCaptureImpl.obj
 0002:0000b678       $unwind$?FreezeEvents@COPOSVideoCapture@@MEAAJH@Z 0000000180031678     VideoCaptureImpl.obj
 0002:0000b678       $unwind$?SOProcessID@COPOSVideoCapture@@UEAAJPEAJ@Z 0000000180031678     VideoCaptureImpl.obj
 0002:0000b678       $unwind$?get_AutoExposure@COPOSVideoCapture@@UEAAJPEAF@Z 0000000180031678     VideoCaptureImpl.obj
 0002:0000b678       $unwind$?get_AutoFocus@COPOSVideoCapture@@UEAAJPEAF@Z 0000000180031678     VideoCaptureImpl.obj
 0002:0000b678       $unwind$?get_AutoGain@COPOSVideoCapture@@UEAAJPEAF@Z 0000000180031678     VideoCaptureImpl.obj
 0002:0000b678       $unwind$?get_AutoWhiteBalance@COPOSVideoCapture@@UEAAJPEAF@Z 0000000180031678     VideoCaptureImpl.obj
 0002:0000b678       $unwind$?get_CapAutoExposure@COPOSVideoCapture@@UEAAJPEAF@Z 0000000180031678     VideoCaptureImpl.obj
 0002:0000b678       $unwind$?get_CapAutoFocus@COPOSVideoCapture@@UEAAJPEAF@Z 0000000180031678     VideoCaptureImpl.obj
 0002:0000b678       $unwind$?get_CapAutoGain@COPOSVideoCapture@@UEAAJPEAF@Z 0000000180031678     VideoCaptureImpl.obj
 0002:0000b678       $unwind$?get_CapAutoWhiteBalance@COPOSVideoCapture@@UEAAJPEAF@Z 0000000180031678     VideoCaptureImpl.obj
 0002:0000b678       $unwind$?get_CapBrightness@COPOSVideoCapture@@UEAAJPEAF@Z 0000000180031678     VideoCaptureImpl.obj
 0002:0000b678       $unwind$?get_CapCompareFirmwareVersion@COPOSVideoCapture@@UEAAJPEAF@Z 0000000180031678     VideoCaptureImpl.obj
 0002:0000b678       $unwind$?get_CapContrast@COPOSVideoCapture@@UEAAJPEAF@Z 0000000180031678     VideoCaptureImpl.obj
 0002:0000b678       $unwind$?get_CapExposure@COPOSVideoCapture@@UEAAJPEAF@Z 0000000180031678     VideoCaptureImpl.obj
 0002:0000b678       $unwind$?get_CapGain@COPOSVideoCapture@@UEAAJPEAF@Z 0000000180031678     VideoCaptureImpl.obj
 0002:0000b678       $unwind$?get_CapHorizontalFlip@COPOSVideoCapture@@UEAAJPEAF@Z 0000000180031678     VideoCaptureImpl.obj
 0002:0000b678       $unwind$?get_CapHue@COPOSVideoCapture@@UEAAJPEAF@Z 0000000180031678     VideoCaptureImpl.obj
 0002:0000b678       $unwind$?get_CapPhoto@COPOSVideoCapture@@UEAAJPEAF@Z 0000000180031678     VideoCaptureImpl.obj
 0002:0000b678       $unwind$?get_CapPhotoColorSpace@COPOSVideoCapture@@UEAAJPEAF@Z 0000000180031678     VideoCaptureImpl.obj
 0002:0000b678       $unwind$?get_CapPhotoFrameRate@COPOSVideoCapture@@UEAAJPEAF@Z 0000000180031678     VideoCaptureImpl.obj
 0002:0000b678       $unwind$?get_CapPhotoResolution@COPOSVideoCapture@@UEAAJPEAF@Z 0000000180031678     VideoCaptureImpl.obj
 0002:0000b678       $unwind$?get_CapPhotoType@COPOSVideoCapture@@UEAAJPEAF@Z 0000000180031678     VideoCaptureImpl.obj
 0002:0000b678       $unwind$?get_CapSaturation@COPOSVideoCapture@@UEAAJPEAF@Z 0000000180031678     VideoCaptureImpl.obj
 0002:0000b678       $unwind$?get_CapStatisticsReporting@COPOSVideoCapture@@UEAAJPEAF@Z 0000000180031678     VideoCaptureImpl.obj
 0002:0000b678       $unwind$?get_CapUpdateFirmware@COPOSVideoCapture@@UEAAJPEAF@Z 0000000180031678     VideoCaptureImpl.obj
 0002:0000b678       $unwind$?get_CapUpdateStatistics@COPOSVideoCapture@@UEAAJPEAF@Z 0000000180031678     VideoCaptureImpl.obj
 0002:0000b678       $unwind$?get_CapVerticalFlip@COPOSVideoCapture@@UEAAJPEAF@Z 0000000180031678     VideoCaptureImpl.obj
 0002:0000b678       $unwind$?get_CapVideo@COPOSVideoCapture@@UEAAJPEAF@Z 0000000180031678     VideoCaptureImpl.obj
 0002:0000b678       $unwind$?get_CapVideoColorSpace@COPOSVideoCapture@@UEAAJPEAF@Z 0000000180031678     VideoCaptureImpl.obj
 0002:0000b678       $unwind$?get_CapVideoFrameRate@COPOSVideoCapture@@UEAAJPEAF@Z 0000000180031678     VideoCaptureImpl.obj
 0002:0000b678       $unwind$?get_CapVideoResolution@COPOSVideoCapture@@UEAAJPEAF@Z 0000000180031678     VideoCaptureImpl.obj
 0002:0000b678       $unwind$?get_CapVideoType@COPOSVideoCapture@@UEAAJPEAF@Z 0000000180031678     VideoCaptureImpl.obj
 0002:0000b678       $unwind$?get_Claimed@COPOSVideoCapture@@UEAAJPEAF@Z 0000000180031678     VideoCaptureImpl.obj
 0002:0000b678       $unwind$?get_DeviceEnabled@COPOSVideoCapture@@UEAAJPEAF@Z 0000000180031678     VideoCaptureImpl.obj
 0002:0000b678       $unwind$?get_FreezeEvents@COPOSVideoCapture@@UEAAJPEAF@Z 0000000180031678     VideoCaptureImpl.obj
 0002:0000b678       $unwind$?get_HorizontalFlip@COPOSVideoCapture@@UEAAJPEAF@Z 0000000180031678     VideoCaptureImpl.obj
 0002:0000b678       $unwind$?get_VerticalFlip@COPOSVideoCapture@@UEAAJPEAF@Z 0000000180031678     VideoCaptureImpl.obj
 0002:0000b678       $unwind$?put_FreezeEvents@COPOSVideoCapture@@UEAAJF@Z 0000000180031678     VideoCaptureImpl.obj
 0002:0000b678       $unwind$_calloc_base       0000000180031678     libucrt:calloc_base.obj
 0002:0000b678       $unwind$_malloc_base       0000000180031678     libucrt:malloc_base.obj
 0002:0000b678       $unwind$_callnewh          0000000180031678     libucrt:new_handler.obj
 0002:0000b678       $unwind$initialize_pointers 0000000180031678     libucrt:initialization.obj
 0002:0000b678       $unwind$uninitialize_allocated_memory 0000000180031678     libucrt:initialization.obj
 0002:0000b678       $unwind$__acrt_initialize_locks 0000000180031678     libucrt:locks.obj
 0002:0000b678       $unwind$__acrt_uninitialize_locks 0000000180031678     libucrt:locks.obj
 0002:0000b678       $unwind$__acrt_freeptd     0000000180031678     libucrt:per_thread_data.obj
 0002:0000b678       $unwind$__acrt_getptd_head 0000000180031678     libucrt:per_thread_data.obj
 0002:0000b678       $unwind$__acrt_get_process_end_policy 0000000180031678     libucrt:win_policies.obj
 0002:0000b678       $unwind$__acrt_AppPolicyGetProcessTerminationMethodInternal 0000000180031678     libucrt:winapi_thunks.obj
 0002:0000b678       $unwind$__acrt_SetThreadStackGuarantee 0000000180031678     libucrt:winapi_thunks.obj
 0002:0000b678       $unwind$__acrt_uninitialize_winapi_thunks 0000000180031678     libucrt:winapi_thunks.obj
 0002:0000b678       $unwind$__acrt_update_locale_info 0000000180031678     libucrt:locale_update.obj
 0002:0000b678       $unwind$__acrt_update_locale_info_explicit 0000000180031678     libucrt:locale_update.obj
 0002:0000b678       $unwind$__acrt_update_multibyte_info 0000000180031678     libucrt:locale_update.obj
 0002:0000b678       $unwind$__acrt_update_multibyte_info_explicit 0000000180031678     libucrt:locale_update.obj
 0002:0000b678       $unwind$__acrt_errno_map_os_error 0000000180031678     libucrt:errno.obj
 0002:0000b678       $unwind$__acrt_errno_map_os_error_ptd 0000000180031678     libucrt:errno.obj
 0002:0000b678       $unwind$__acrt_allocate_buffer_for_argv 0000000180031678     libucrt:argv_parsing.obj
 0002:0000b678       $unwind$?exit_or_terminate_process@@YAXI@Z 0000000180031678     libucrt:exit.obj
 0002:0000b678       $unwind$__acrt_uninitialize_stdio 0000000180031678     libucrt:_file.obj
 0002:0000b678       $unwind$__acrt_stdio_free_buffer_nolock 0000000180031678     libucrt:_freebuf.obj
 0002:0000b678       $unwind$strcpy_s           0000000180031678     libucrt:strcpy_s.obj
 0002:0000b678       $unwind$wcscat_s           0000000180031678     libucrt:wcscat_s.obj
 0002:0000b678       $unwind$wcscpy_s           0000000180031678     libucrt:wcscpy_s.obj
 0002:0000b678       $unwind$_clrfp             0000000180031678     libucrt:fpctrl.obj
 0002:0000b678       $unwind$_set_statfp        0000000180031678     libucrt:fpctrl.obj
 0002:0000b678       $unwind$_clearfp           0000000180031678     libucrt:ieee.obj
 0002:0000b678       $unwind$_controlfp_s       0000000180031678     libucrt:contrlfp.obj
 0002:0000b678       $unwind$fegetenv           0000000180031678     libucrt:fegetenv.obj
 0002:0000b678       $unwind$feholdexcept       0000000180031678     libucrt:feholdexcept.obj
 0002:0000b678       $unwind$fesetenv           0000000180031678     libucrt:fesetenv.obj
 0002:0000b678       $unwind$??1CAtlBaseModule@ATL@@QEAA@XZ 0000000180031678     atls:atlbase.obj
 0002:0000b678       $unwind$AtlThunk_AllocateData 0000000180031678     atls:atlthunk.obj
 0002:0000b678       $unwind$__raise_securityfailure 0000000180031678     LIBCMT:gs_report.obj
 0002:0000b678       $unwind$??2@YAPEAX_K@Z     0000000180031678     LIBCMT:new_scalar.obj
 0002:0000b678       $unwind$??_Gtype_info@@UEAAPEAXI@Z 0000000180031678     LIBCMT:std_type_info_static.obj
 0002:0000b678       $unwind$_Init_thread_footer 0000000180031678     LIBCMT:thread_safe_statics.obj
 0002:0000b678       $unwind$_Init_thread_header 0000000180031678     LIBCMT:thread_safe_statics.obj
 0002:0000b678       $unwind$_Init_thread_wait  0000000180031678     LIBCMT:thread_safe_statics.obj
 0002:0000b678       $unwind$??0bad_alloc@std@@QEAA@AEBV01@@Z 0000000180031678     LIBCMT:throw_bad_alloc.obj
 0002:0000b678       $unwind$??0bad_array_new_length@std@@QEAA@AEBV01@@Z 0000000180031678     LIBCMT:throw_bad_alloc.obj
 0002:0000b678       $unwind$??0exception@std@@QEAA@AEBV01@@Z 0000000180031678     LIBCMT:throw_bad_alloc.obj
 0002:0000b678       $unwind$__scrt_initialize_crt 0000000180031678     LIBCMT:utility.obj
 0002:0000b678       $unwind$__scrt_initialize_onexit_tables 0000000180031678     LIBCMT:utility.obj
 0002:0000b678       $unwind$__scrt_release_startup_lock 0000000180031678     LIBCMT:utility.obj
 0002:0000b678       $unwind$__scrt_uninitialize_crt 0000000180031678     LIBCMT:utility.obj
 0002:0000b678       $unwind$_onexit            0000000180031678     LIBCMT:utility.obj
 0002:0000b678       $unwind$_IsExceptionObjectToBeDestroyed 0000000180031678     libvcruntime:ehhelpers.obj
 0002:0000b678       $unwind$?GetUnwindTryBlock@__FrameHandler3@@SAHPEA_KPEAU_xDISPATCHER_CONTEXT@@PEBU_s_FuncInfo@@@Z 0000000180031678     libvcruntime:ehstate.obj
 0002:0000b678       $unwind$?StateFromIp@__FrameHandler3@@SAHPEBU_s_FuncInfo@@PEAU_xDISPATCHER_CONTEXT@@_K@Z 0000000180031678     libvcruntime:ehstate.obj
 0002:0000b678       $unwind$??0HandlerMap4@FH4@@QEAA@PEBUTryBlockMapEntry4@1@_KH@Z 0000000180031678     libvcruntime:frame.obj
 0002:0000b678       $unwind$??0bad_exception@std@@QEAA@AEBV01@@Z 0000000180031678     libvcruntime:frame.obj
 0002:0000b678       $unwind$__vcrt_initialize_locks 0000000180031678     libvcruntime:locks.obj
 0002:0000b678       $unwind$__vcrt_uninitialize_locks 0000000180031678     libvcruntime:locks.obj
 0002:0000b678       $unwind$__vcrt_freeptd     0000000180031678     libvcruntime:per_thread_data.obj
 0002:0000b678       $unwind$?ExecutionInCatch@__FrameHandler3@@SA_NPEAU_xDISPATCHER_CONTEXT@@PEBU_s_FuncInfo@@@Z 0000000180031678     libvcruntime:risctrnsctrl.obj
 0002:0000b678       $unwind$_CreateFrameInfo   0000000180031678     libvcruntime:risctrnsctrl.obj
 0002:0000b678       $unwind$_SetImageBase      0000000180031678     libvcruntime:risctrnsctrl.obj
 0002:0000b678       $unwind$_SetThrowImageBase 0000000180031678     libvcruntime:risctrnsctrl.obj
 0002:0000b678       $unwind$__std_exception_destroy 0000000180031678     libvcruntime:std_exception.obj
 0002:0000b678       $unwind$__std_type_info_destroy_list 0000000180031678     libvcruntime:std_type_info.obj
 0002:0000b678       $unwind$__vcrt_FlsAlloc    0000000180031678     libvcruntime:winapi_downlevel.obj
 0002:0000b678       $unwind$__vcrt_FlsFree     0000000180031678     libvcruntime:winapi_downlevel.obj
 0002:0000b678       $unwind$__vcrt_FlsGetValue 0000000180031678     libvcruntime:winapi_downlevel.obj
 0002:0000b680       $unwind$?AtlWinModuleTerm@ATL@@YAJPEAU_ATL_WIN_MODULE70@1@PEAUHINSTANCE__@@@Z 0000000180031680     OposVariant.obj
 0002:0000b680       $unwind$?AtlWinModuleExtractCreateWndData@ATL@@YAPEAXPEAU_ATL_WIN_MODULE70@1@@Z 0000000180031680     VideoCapture.obj
 0002:0000b680       $unwind$?CreateInstance@?$CComCreator@V?$CComObject@VCOPOSVideoCapture@@@ATL@@@ATL@@SAJPEAXAEBU_GUID@@PEAPEAX@Z 0000000180031680     VideoCapture.obj
 0002:0000b680       $unwind$?DoEvent@COPOSVideoCapture@@IEAAXI_K_J@Z 0000000180031680     VideoCapture.obj
 0002:0000b680       $unwind$?DoVerb@?$IOleObjectImpl@VCOPOSVideoCapture@@@ATL@@UEAAJJPEAUtagMSG@@PEAUIOleClientSite@@JPEAUHWND__@@PEBUtagRECT@@@Z 0000000180031680     VideoCapture.obj
 0002:0000b680       $unwind$?HKeyFromString@CRegParser@ATL@@KAPEAUHKEY__@@PEA_W@Z 0000000180031680     VideoCapture.obj
 0002:0000b680       $unwind$?Next@?$CComEnumImpl@UIEnumConnectionPoints@@$1?_GUID_b196b285_bab4_101a_b69c_00aa00341d07@@3U__s_GUID@@BPEAUIConnectionPoint@@V?$_CopyInterface@UIConnectionPoint@@@ATL@@@ATL@@UEAAJKPEAPEAUIConnectionPoint@@PEAK@Z 0000000180031680     VideoCapture.obj
 0002:0000b680       $unwind$?Next@?$CComEnumImpl@UIEnumConnections@@$1?_GUID_b196b287_bab4_101a_b69c_00aa00341d07@@3U__s_GUID@@BUtagCONNECTDATA@@V?$_Copy@UtagCONNECTDATA@@@ATL@@@ATL@@UEAAJKPEAUtagCONNECTDATA@@PEAK@Z 0000000180031680     VideoCapture.obj
 0002:0000b680       $unwind$?SODirectIO@COPOSVideoCapture@@MEAAJJPEAJPEAPEA_W@Z 0000000180031680     VideoCapture.obj
 0002:0000b680       $unwind$?SetControlFocus@CComControlBase@ATL@@QEAAHH@Z 0000000180031680     VideoCapture.obj
 0002:0000b680       $unwind$?ocscpy_s@@YA_NPEA_W_KPEB_W@Z 0000000180031680     VideoCapture.obj
 0002:0000b680       $unwind$?s_EventWindowProc@COPOSVideoCapture@@KA_JPEAUHWND__@@I_K_J@Z 0000000180031680     VideoCaptureImpl.obj
 0002:0000b680       $unwind$_recalloc_base     0000000180031680     libucrt:recalloc.obj
 0002:0000b680       $unwind$__acrt_free_locale 0000000180031680     libucrt:locale_refcounting.obj
 0002:0000b680       $unwind$__acrt_lowio_create_handle_array 0000000180031680     libucrt:osfinfo.obj
 0002:0000b680       $unwind$_seh_filter_exe    0000000180031680     libucrt:exception_filter.obj
 0002:0000b680       $unwind$__acrt_stdio_flush_nolock 0000000180031680     libucrt:fflush.obj
 0002:0000b680       $unwind$??$ensure_buffer_is_big_enough@D@formatting_buffer@__crt_stdio_output@@QEAA_N_KAEAV__crt_cached_ptd_host@@@Z 0000000180031680     libucrt:output.obj
 0002:0000b680       $unwind$??$ensure_buffer_is_big_enough@_W@formatting_buffer@__crt_stdio_output@@QEAA_N_KAEAV__crt_cached_ptd_host@@@Z 0000000180031680     libucrt:output.obj
 0002:0000b680       $unwind$__scrt_dllmain_exception_filter 0000000180031680     LIBCMT:utility.obj
 0002:0000b680       $unwind$?GetHandlerSearchState@__FrameHandler3@@SAHPEA_KPEAU_xDISPATCHER_CONTEXT@@PEBU_s_FuncInfo@@@Z 0000000180031680     libvcruntime:frame.obj
 0002:0000b680       $unwind$?Is_bad_exception_allowed@@YAEPEBU_s_ESTypeList@@@Z 0000000180031680     libvcruntime:frame.obj
 0002:0000b680       $unwind$?CatchTryBlock@__FrameHandler3@@SAPEBU_s_TryBlockMapEntry@@PEBU_s_FuncInfo@@H@Z 0000000180031680     libvcruntime:risctrnsctrl.obj
 0002:0000b694       $unwind$??0OposDispParms@@QEAA@PEAVOposVariant@@H@Z 0000000180031694     OposVariant.obj
 0002:0000b694       $unwind$?SetBSTR_Copy@OposVariant@@QEAAXPEA_WAEAJ@Z 0000000180031694     OposVariant.obj
 0002:0000b694       $unwind$?SetBSTR_InOutPtr@OposVariant@@QEAA_NPEAPEA_WAEAJ@Z 0000000180031694     OposVariant.obj
 0002:0000b694       $unwind$?SetDispatch_Ptr@OposVariant@@QEAAXPEAUIDispatch@@AEAJ@Z 0000000180031694     OposVariant.obj
 0002:0000b694       $unwind$?SetLONG_Ptr@OposVariant@@QEAAXPEAJAEAJ@Z 0000000180031694     OposVariant.obj
 0002:0000b694       $unwind$?SetString@OposVariant@@QEAAXPEB_WAEAJ@Z 0000000180031694     OposVariant.obj
 0002:0000b694       $unwind$?Term@CAtlComModule@ATL@@QEAAXXZ 0000000180031694     OposVariant.obj
 0002:0000b694       $unwind$??_GCRegObject@ATL@@UEAAPEAXI@Z 0000000180031694     VideoCapture.obj
 0002:0000b694       $unwind$?Add@?$CSimpleArray@GV?$CSimpleArrayEqualHelper@G@ATL@@@ATL@@QEAAHAEBG@Z 0000000180031694     VideoCapture.obj
 0002:0000b694       $unwind$?Add@?$CSimpleMap@PEA_WPEA_WVCExpansionVectorEqualHelper@ATL@@@ATL@@QEAAHAEBQEA_W0@Z 0000000180031694     VideoCapture.obj
 0002:0000b694       $unwind$?Add@CComDynamicUnkArray@ATL@@QEAAKPEAUIUnknown@@@Z 0000000180031694     VideoCapture.obj
 0002:0000b694       $unwind$?Advise@?$IOleObjectImpl@VCOPOSVideoCapture@@@ATL@@UEAAJPEAUIAdviseSink@@PEAK@Z 0000000180031694     VideoCapture.obj
 0002:0000b694       $unwind$?ClearReplacements@CExpansionVector@ATL@@QEAAJXZ 0000000180031694     VideoCapture.obj
 0002:0000b694       $unwind$?CreateInstance@?$CComObject@V?$CComEnum@UIEnumConnectionPoints@@$1?_GUID_b196b285_bab4_101a_b69c_00aa00341d07@@3U__s_GUID@@BPEAUIConnectionPoint@@V?$_CopyInterface@UIConnectionPoint@@@ATL@@VCComSingleThreadModel@6@@ATL@@@ATL@@SAJPEAPEAV12@@Z 0000000180031694     VideoCapture.obj
 0002:0000b694       $unwind$?CreateInstance@?$CComObject@V?$CComEnum@UIEnumConnections@@$1?_GUID_b196b287_bab4_101a_b69c_00aa00341d07@@3U__s_GUID@@BUtagCONNECTDATA@@V?$_Copy@UtagCONNECTDATA@@@ATL@@VCComSingleThreadModel@6@@ATL@@@ATL@@SAJPEAPEAV12@@Z 0000000180031694     VideoCapture.obj
 0002:0000b694       $unwind$?RegisterServer@CComModule@ATL@@QEAAJHPEBU_GUID@@@Z 0000000180031694     VideoCapture.obj
 0002:0000b694       $unwind$?UnregisterServer@CComModule@ATL@@QEAAJHPEBU_GUID@@@Z 0000000180031694     VideoCapture.obj
 0002:0000b694       $unwind$?VTFromRegType@CRegParser@ATL@@KAHPEB_WAEAG@Z 0000000180031694     VideoCapture.obj
 0002:0000b694       $unwind$memcpy_s           0000000180031694     libucrt:cfout.obj
 0002:0000b694       $unwind$__acrt_getptd      0000000180031694     libucrt:per_thread_data.obj
 0002:0000b694       $unwind$__acrt_getptd_noexit 0000000180031694     libucrt:per_thread_data.obj
 0002:0000b694       $unwind$__acrt_getptd_noexit_explicit 0000000180031694     libucrt:per_thread_data.obj
 0002:0000b694       $unwind$__acrt_execute_initializers 0000000180031694     libucrt:shared_initialization.obj
 0002:0000b694       $unwind$__acrt_InitializeCriticalSectionEx 0000000180031694     libucrt:winapi_thunks.obj
 0002:0000b694       $unwind$_close_nolock_internal 0000000180031694     libucrt:close.obj
 0002:0000b694       $unwind$?value@?$dual_state_global@P6AXPEB_W00I_K@Z@__crt_state_management@@QEAAAEAP6AXPEB_W00I_K@ZAEAV__crt_cached_ptd_host@@@Z 0000000180031694     libucrt:invalid_parameter.obj
 0002:0000b694       $unwind$??0_LocaleUpdate@@QEAA@QEAU__crt_locale_pointers@@@Z 0000000180031694     libucrt:argv_wildcards.obj
 0002:0000b694       $unwind$?type_case_Z@?$output_processor@_WV?$string_output_adapter@_W@__crt_stdio_output@@V?$format_validation_base@_WV?$string_output_adapter@_W@__crt_stdio_output@@@2@@__crt_stdio_output@@AEAA_NXZ 0000000180031694     libucrt:output.obj
 0002:0000b694       $unwind$?type_case_s@?$output_processor@_WV?$string_output_adapter@_W@__crt_stdio_output@@V?$format_validation_base@_WV?$string_output_adapter@_W@__crt_stdio_output@@@2@@__crt_stdio_output@@AEAA_NXZ 0000000180031694     libucrt:output.obj
 0002:0000b694       $unwind$?type_case_s_compute_narrow_string_length@?$output_processor@_WV?$string_output_adapter@_W@__crt_stdio_output@@V?$format_validation_base@_WV?$string_output_adapter@_W@__crt_stdio_output@@@2@@__crt_stdio_output@@AEAAHH_W@Z 0000000180031694     libucrt:output.obj
 0002:0000b694       $unwind$?update_locale_slow@__crt_cached_ptd_host@@AEAAXXZ 0000000180031694     libucrt:output.obj
 0002:0000b694       $unwind$strncpy_s          0000000180031694     libucrt:strncpy_s.obj
 0002:0000b694       $unwind$wcsncpy_s          0000000180031694     libucrt:wcsncpy_s.obj
 0002:0000b694       $unwind$_exception_enabled 0000000180031694     libucrt:libm_error.obj
 0002:0000b694       $unwind$_DllMainCRTStartup 0000000180031694     LIBCMT:dll_dllmain.obj
 0002:0000b694       $unwind$__vcrt_getptd_noexit 0000000180031694     libvcruntime:per_thread_data.obj
 0002:0000b694       $unwind$?FrameUnwindToEmptyState@__FrameHandler3@@SAXPEA_KPEAU_xDISPATCHER_CONTEXT@@PEBU_s_FuncInfo@@@Z 0000000180031694     libvcruntime:risctrnsctrl.obj
 0002:0000b694       $unwind$__vcrt_InitializeCriticalSectionEx 0000000180031694     libvcruntime:winapi_downlevel.obj
 0002:0000b6a4       $unwind$??_Estringdispid@CComTypeInfoHolder@ATL@@QEAAPEAXI@Z 00000001800316a4     OposVariant.obj
 0002:0000b6a4       $unwind$?AddTermFunc@CAtlModule@ATL@@QEAAJP6AX_K@Z0@Z 00000001800316a4     VideoCapture.obj
 0002:0000b6a4       $unwind$?AtlComModuleRegisterServer@ATL@@YAJPEAU_ATL_COM_MODULE70@1@HPEBU_GUID@@@Z 00000001800316a4     VideoCapture.obj
 0002:0000b6a4       $unwind$?AtlComModuleUnregisterServer@ATL@@YAJPEAU_ATL_COM_MODULE70@1@HPEBU_GUID@@@Z 00000001800316a4     VideoCapture.obj
 0002:0000b6a4       $unwind$?CreateInstance@?$CComCreator@V?$CComAggObject@VCOPOSVideoCapture@@@ATL@@@ATL@@SAJPEAXAEBU_GUID@@PEAPEAX@Z 00000001800316a4     VideoCapture.obj
 0002:0000b6a4       $unwind$?CreateInstance@?$CComCreator@V?$CComObjectCached@VCComClassFactory@ATL@@@ATL@@@ATL@@SAJPEAXAEBU_GUID@@PEAPEAX@Z 00000001800316a4     VideoCapture.obj
 0002:0000b6a4       $unwind$?GetPagesHelper@?$ISpecifyPropertyPagesImpl@VCOPOSVideoCapture@@@ATL@@IEAAJPEAUtagCAUUID@@PEBUATL_PROPMAP_ENTRY@2@@Z 00000001800316a4     VideoCapture.obj
 0002:0000b6a4       $unwind$?Term@CAtlModule@ATL@@QEAAXXZ 00000001800316a4     VideoCapture.obj
 0002:0000b6a4       $unwind$?initialize_stdio_handles_nolock@@YAXXZ 00000001800316a4     libucrt:ioinit.obj
 0002:0000b6a4       $unwind$__acrt_initialize_stdio 00000001800316a4     libucrt:_file.obj
 0002:0000b6a4       $unwind$__GSHandlerCheck_EH 00000001800316a4     LIBCMT:gshandlereh.obj
 0002:0000b6a4       $unwind$__GSHandlerCheck_SEH 00000001800316a4     LIBCMT:gshandlerseh.obj
 0002:0000b6a4       $unwind$??$TypeMatchHelper@V__FrameHandler3@@@@YAHPEBU_s_HandlerType@@PEBU_s_CatchableType@@PEBU_s_ThrowInfo@@@Z 00000001800316a4     libvcruntime:frame.obj
 0002:0000b6a4       $unwind$??$TypeMatchHelper@V__FrameHandler4@@@@YAHPEAUHandlerType4@FH4@@PEBU_s_CatchableType@@PEBU_s_ThrowInfo@@@Z 00000001800316a4     libvcruntime:frame.obj
 0002:0000b6bc       $unwind$?SetBSTR@OposVariant@@QEAAXPEA_WAEAJ@Z 00000001800316bc     OposVariant.obj
 0002:0000b6bc       $unwind$?SetLONG@OposVariant@@QEAAXJ@Z 00000001800316bc     OposVariant.obj
 0002:0000b6bc       $unwind$?SetVARIANT_BOOL@OposVariant@@QEAAXF@Z 00000001800316bc     OposVariant.obj
 0002:0000b6bc       $unwind$??0?$CComContainedObject@VCOPOSVideoCapture@@@ATL@@QEAA@PEAX@Z 00000001800316bc     VideoCapture.obj
 0002:0000b6bc       $unwind$??1?$CComEnumImpl@UIEnumConnectionPoints@@$1?_GUID_b196b285_bab4_101a_b69c_00aa00341d07@@3U__s_GUID@@BPEAUIConnectionPoint@@V?$_CopyInterface@UIConnectionPoint@@@ATL@@@ATL@@UEAA@XZ 00000001800316bc     VideoCapture.obj
 0002:0000b6bc       $unwind$??1?$CComEnumImpl@UIEnumConnections@@$1?_GUID_b196b287_bab4_101a_b69c_00aa00341d07@@3U__s_GUID@@BUtagCONNECTDATA@@V?$_Copy@UtagCONNECTDATA@@@ATL@@@ATL@@UEAA@XZ 00000001800316bc     VideoCapture.obj
 0002:0000b6bc       $unwind$??_G?$CComAggObject@VCOPOSVideoCapture@@@ATL@@UEAAPEAXI@Z 00000001800316bc     VideoCapture.obj
 0002:0000b6bc       $unwind$??_G?$CComContainedObject@VCOPOSVideoCapture@@@ATL@@UEAAPEAXI@Z 00000001800316bc     VideoCapture.obj
 0002:0000b6bc       $unwind$??_G?$CComObject@V?$CComEnum@UIEnumConnectionPoints@@$1?_GUID_b196b285_bab4_101a_b69c_00aa00341d07@@3U__s_GUID@@BPEAUIConnectionPoint@@V?$_CopyInterface@UIConnectionPoint@@@ATL@@VCComSingleThreadModel@6@@ATL@@@ATL@@UEAAPEAXI@Z 00000001800316bc     VideoCapture.obj
 0002:0000b6bc       $unwind$??_G?$CComObject@V?$CComEnum@UIEnumConnections@@$1?_GUID_b196b287_bab4_101a_b69c_00aa00341d07@@3U__s_GUID@@BUtagCONNECTDATA@@V?$_Copy@UtagCONNECTDATA@@@ATL@@VCComSingleThreadModel@6@@ATL@@@ATL@@UEAAPEAXI@Z 00000001800316bc     VideoCapture.obj
 0002:0000b6bc       $unwind$??_G?$CComObject@VCOPOSVideoCapture@@@ATL@@UEAAPEAXI@Z 00000001800316bc     VideoCapture.obj
 0002:0000b6bc       $unwind$??_G?$CComObjectCached@VCComClassFactory@ATL@@@ATL@@UEAAPEAXI@Z 00000001800316bc     VideoCapture.obj
 0002:0000b6bc       $unwind$??_GCComClassFactory@ATL@@UEAAPEAXI@Z 00000001800316bc     VideoCapture.obj
 0002:0000b6bc       $unwind$??_GCComModule@ATL@@UEAAPEAXI@Z 00000001800316bc     VideoCapture.obj
 0002:0000b6bc       $unwind$?DeleteSubKey@CRegKey@ATL@@QEAAJPEB_W@Z 00000001800316bc     VideoCapture.obj
 0002:0000b6bc       $unwind$?IOleObject_SetClientSite@CComControlBase@ATL@@QEAAJPEAUIOleClientSite@@@Z 00000001800316bc     VideoCapture.obj
 0002:0000b6bc       $unwind$?InitNew@?$IPersistStorageImpl@VCOPOSVideoCapture@@@ATL@@UEAAJPEAUIStorage@@@Z 00000001800316bc     VideoCapture.obj
 0002:0000b6bc       $unwind$?IsDirty@?$IPersistStorageImpl@VCOPOSVideoCapture@@@ATL@@UEAAJXZ 00000001800316bc     VideoCapture.obj
 0002:0000b6bc       $unwind$?Release@?$CComAggObject@VCOPOSVideoCapture@@@ATL@@UEAAKXZ 00000001800316bc     VideoCapture.obj
 0002:0000b6bc       $unwind$?Release@?$CComObject@V?$CComEnum@UIEnumConnectionPoints@@$1?_GUID_b196b285_bab4_101a_b69c_00aa00341d07@@3U__s_GUID@@BPEAUIConnectionPoint@@V?$_CopyInterface@UIConnectionPoint@@@ATL@@VCComSingleThreadModel@6@@ATL@@@ATL@@UEAAKXZ 00000001800316bc     VideoCapture.obj
 0002:0000b6bc       $unwind$?Release@?$CComObject@V?$CComEnum@UIEnumConnections@@$1?_GUID_b196b287_bab4_101a_b69c_00aa00341d07@@3U__s_GUID@@BUtagCONNECTDATA@@V?$_Copy@UtagCONNECTDATA@@@ATL@@VCComSingleThreadModel@6@@ATL@@@ATL@@UEAAKXZ 00000001800316bc     VideoCapture.obj
 0002:0000b6bc       $unwind$?Release@?$CComObject@VCOPOSVideoCapture@@@ATL@@UEAAKXZ 00000001800316bc     VideoCapture.obj
 0002:0000b6bc       $unwind$?SOStatusUpdate@COPOSVideoCapture@@MEAAJJ@Z 00000001800316bc     VideoCapture.obj
 0002:0000b6bc       $unwind$?SetAdvise@?$IViewObjectExImpl@VCOPOSVideoCapture@@@ATL@@UEAAJKKPEAUIAdviseSink@@@Z 00000001800316bc     VideoCapture.obj
 0002:0000b6bc       $unwind$?Term@CComModule@ATL@@QEAAXXZ 00000001800316bc     VideoCapture.obj
 0002:0000b6bc       $unwind$DllMain            00000001800316bc     VideoCapture.obj
 0002:0000b6bc       $unwind$??1?$IConnectionPointImpl@VCOPOSVideoCapture@@$1?DIID__IOPOSVideoCaptureEvents@@3U_GUID@@BVCComDynamicUnkArray@ATL@@@ATL@@QEAA@XZ 00000001800316bc     VideoCaptureImpl.obj
 0002:0000b6bc       $unwind$??1?$IConnectionPointImpl@VCOPOSVideoCapture@@$1?IID_IPropertyNotifySink@@3U_GUID@@BVCComDynamicUnkArray@ATL@@@ATL@@QEAA@XZ 00000001800316bc     VideoCaptureImpl.obj
 0002:0000b6bc       $unwind$??$common_initialize_environment_nolock@D@@YAHXZ 00000001800316bc     libucrt:environment_initialization.obj
 0002:0000b6bc       $unwind$_realloc_base      00000001800316bc     libucrt:realloc_base.obj
 0002:0000b6bc       $unwind$?replace_current_thread_locale_nolock@@YAXQEAU__acrt_ptd@@QEAU__crt_locale_data@@@Z 00000001800316bc     libucrt:per_thread_data.obj
 0002:0000b6bc       $unwind$__acrt_execute_uninitializers 00000001800316bc     libucrt:shared_initialization.obj
 0002:0000b6bc       $unwind$__acrt_LocaleNameToLCID 00000001800316bc     libucrt:winapi_thunks.obj
 0002:0000b6bc       $unwind$?free_crt_array_internal@@YAXQEAPEBX_K@Z 00000001800316bc     libucrt:inittime.obj
 0002:0000b6bc       $unwind$_updatetlocinfoEx_nolock 00000001800316bc     libucrt:locale_refcounting.obj
 0002:0000b6bc       $unwind$__acrt_uninitialize_lowio 00000001800316bc     libucrt:ioinit.obj
 0002:0000b6bc       $unwind$?setSBCS@@YAXPEAU__crt_multibyte_data@@@Z 00000001800316bc     libucrt:mbctype.obj
 0002:0000b6bc       $unwind$_initterm_e        00000001800316bc     libucrt:initterm.obj
 0002:0000b6bc       $unwind$??0CAtlBaseModule@ATL@@QEAA@XZ 00000001800316bc     atls:atlbase.obj
 0002:0000b6bc       $unwind$??$GetProcAddressAll@P6AP6A_JPEAUHWND__@@I_K_J@ZPEAUAtlThunkData_t@@@Z@@YAP6AP6A_JPEAUHWND__@@I_K_J@ZPEAUAtlThunkData_t@@@ZPEAP6AP6A_J0I12@Z3@Z@Z 00000001800316bc     atls:atlthunk.obj
 0002:0000b6bc       $unwind$??$GetProcAddressAll@P6APEAUAtlThunkData_t@@XZ@@YAP6APEAUAtlThunkData_t@@XZPEAP6APEAU0@XZ@Z 00000001800316bc     atls:atlthunk.obj
 0002:0000b6bc       $unwind$??$GetProcAddressAll@P6AXPEAUAtlThunkData_t@@@Z@@YAP6AXPEAUAtlThunkData_t@@@ZPEAP6AX0@Z@Z 00000001800316bc     atls:atlthunk.obj
 0002:0000b6bc       $unwind$??$GetProcAddressAll@P6AXPEAUAtlThunkData_t@@PEAX_K@Z@@YAP6AXPEAUAtlThunkData_t@@PEAX_K@ZPEAP6AX012@Z@Z 00000001800316bc     atls:atlthunk.obj
 0002:0000b6bc       $unwind$?__AllocStdCallThunk_cmn@@YAPEAXXZ 00000001800316bc     atls:atlthunk.obj
 0002:0000b6bc       $unwind$?__InitializeThunkPool@@YAHXZ 00000001800316bc     atls:atlthunk.obj
 0002:0000b6bc       $unwind$AtlThunk_DataToCode 00000001800316bc     atls:atlthunk.obj
 0002:0000b6bc       $unwind$_RTC_Initialize    00000001800316bc     LIBCMT:initsect.obj
 0002:0000b6bc       $unwind$_RTC_Terminate     00000001800316bc     LIBCMT:initsect.obj
 0002:0000b6bc       $unwind$?__scrt_initialize_thread_safe_statics@@YAHXZ 00000001800316bc     LIBCMT:thread_safe_statics.obj
 0002:0000b6bc       $unwind$??_Gbad_alloc@std@@UEAAPEAXI@Z 00000001800316bc     LIBCMT:throw_bad_alloc.obj
 0002:0000b6bc       $unwind$??_Gbad_array_new_length@std@@UEAAPEAXI@Z 00000001800316bc     LIBCMT:throw_bad_alloc.obj
 0002:0000b6bc       $unwind$??_Gexception@std@@UEAAPEAXI@Z 00000001800316bc     LIBCMT:throw_bad_alloc.obj
 0002:0000b6bc       $unwind$__C_specific_handler_noexcept 00000001800316bc     libvcruntime:chandler_noexcept.obj
 0002:0000b6bc       $unwind$__FrameUnwindFilter 00000001800316bc     libvcruntime:ehhelpers.obj
 0002:0000b6bc       $unwind$?SetUnwindTryBlock@__FrameHandler3@@SAXPEA_KPEAU_xDISPATCHER_CONTEXT@@PEBU_s_FuncInfo@@H@Z 00000001800316bc     libvcruntime:ehstate.obj
 0002:0000b6bc       $unwind$??_Gbad_exception@std@@UEAAPEAXI@Z 00000001800316bc     libvcruntime:frame.obj
 0002:0000b6bc       $unwind$?ExFilterRethrow@@YAHPEAU_EXCEPTION_POINTERS@@PEAUEHExceptionRecord@@PEAH@Z 00000001800316bc     libvcruntime:frame.obj
 0002:0000b6bc       $unwind$?ExFilterRethrowFH4@@YAHPEAU_EXCEPTION_POINTERS@@PEAUEHExceptionRecord@@HPEAH@Z 00000001800316bc     libvcruntime:frame.obj
 0002:0000b6bc       $unwind$_FindAndUnlinkFrame 00000001800316bc     libvcruntime:risctrnsctrl.obj
 0002:0000b6bc       $unwind$__vcrt_FlsSetValue 00000001800316bc     libvcruntime:winapi_downlevel.obj
 0002:0000b6c8       $unwind$?ChangeBSTR@OposVariant@@QEAAXPEAPEA_WAEAJ@Z 00000001800316c8     OposVariant.obj
 0002:0000b6c8       $unwind$?ChangeLONG@OposVariant@@QEAAXPEAJAEAJ@Z 00000001800316c8     OposVariant.obj
 0002:0000b6c8       $unwind$?x_ismbbtype_l@@YAHPEAU__crt_locale_pointers@@IHH@Z 00000001800316c8     libucrt:ismbbyte.obj
 0002:0000b6d8       $unwind$swprintf_s         00000001800316d8     VideoCapture.obj
 0002:0000b6e8       $unwind$?_AtlVerifyStackAvailable@_ATL_SAFE_ALLOCA_IMPL@ATL@@YA_N_K@Z 00000001800316e8     VideoCapture.obj
 0002:0000b714       $unwind$?filt$0@?0??_AtlVerifyStackAvailable@_ATL_SAFE_ALLOCA_IMPL@ATL@@YA_N_K@Z@4HA 0000000180031714     VideoCapture.obj
 0002:0000b714       $unwind$_query_new_handler$fin$0 0000000180031714     libucrt:new_handler.obj
 0002:0000b714       $unwind$?fin$0@?0???$?RV<lambda_0ae27a3a962d80f24befdcbee591983d>@@AEAV<lambda_8d0ee55de4b1038c4002e0adecdf1839>@@V<lambda_dc504788e8f1664fe9b84e20bfb512f2>@@@?$__crt_seh_guarded_call@X@@QEAAX$$QEAV<lambda_0ae27a3a962d80f24befdcbee591983d>@@AEAV<lambda_8d0ee55de4b1038c4002e0adecdf1839>@@$$QEAV<lambda_dc504788e8f1664fe9b84e20bfb512f2>@@@Z@4HA 0000000180031714     libucrt:per_thread_data.obj
 0002:0000b714       $unwind$?fin$0@?0???$?RV<lambda_2d41944a1d46af3157314b8a01080d33>@@AEAV<lambda_8f455de75cd7d7f24b4096f044d8b9e6>@@V<lambda_aa500f224e6afead328df44964fe2772>@@@?$__crt_seh_guarded_call@X@@QEAAX$$QEAV<lambda_2d41944a1d46af3157314b8a01080d33>@@AEAV<lambda_8f455de75cd7d7f24b4096f044d8b9e6>@@$$QEAV<lambda_aa500f224e6afead328df44964fe2772>@@@Z@4HA 0000000180031714     libucrt:per_thread_data.obj
 0002:0000b714       $unwind$?fin$0@?0???$?RV<lambda_aa87e3671a710a21b5dc78c0bdf72e11>@@AEAV<lambda_92619d2358a28f41a33ba319515a20b9>@@V<lambda_6992ecaafeb10aed2b74cb1fae11a551>@@@?$__crt_seh_guarded_call@X@@QEAAX$$QEAV<lambda_aa87e3671a710a21b5dc78c0bdf72e11>@@AEAV<lambda_92619d2358a28f41a33ba319515a20b9>@@$$QEAV<lambda_6992ecaafeb10aed2b74cb1fae11a551>@@@Z@4HA 0000000180031714     libucrt:per_thread_data.obj
 0002:0000b714       $unwind$?fin$0@?0???$?RV<lambda_f2e299630e499de9f9a165e60fcd3db5>@@AEAV<lambda_2ae9d31cdba2644fcbeaf08da7c24588>@@V<lambda_40d01ff24d0e7b3814fdbdcee8eab3c7>@@@?$__crt_seh_guarded_call@X@@QEAAX$$QEAV<lambda_f2e299630e499de9f9a165e60fcd3db5>@@AEAV<lambda_2ae9d31cdba2644fcbeaf08da7c24588>@@$$QEAV<lambda_40d01ff24d0e7b3814fdbdcee8eab3c7>@@@Z@4HA 0000000180031714     libucrt:per_thread_data.obj
 0002:0000b714       $unwind$__acrt_update_thread_locale_data$fin$0 0000000180031714     libucrt:locale_refcounting.obj
 0002:0000b714       $unwind$?fin$0@?0???$?RV<lambda_410d79af7f07d98d83a3f525b3859a53>@@AEAV<lambda_3e16ef9562a7dcce91392c22ab16ea36>@@V<lambda_38119f0e861e05405d8a144b9b982f0a>@@@?$__crt_seh_guarded_call@X@@QEAAX$$QEAV<lambda_410d79af7f07d98d83a3f525b3859a53>@@AEAV<lambda_3e16ef9562a7dcce91392c22ab16ea36>@@$$QEAV<lambda_38119f0e861e05405d8a144b9b982f0a>@@@Z@4HA 0000000180031714     libucrt:wsetlocale.obj
 0002:0000b714       $unwind$?fin$0@?0???$?RV<lambda_ad8af0d99a0adf03d037d7dffe354bb5>@@AEAV<lambda_c9ba49e555ba839a7b07aa3fbecb7617>@@V<lambda_2f1ebd5d68526518146ae959c9e734c8>@@@?$__crt_seh_guarded_call@H@@QEAAH$$QEAV<lambda_ad8af0d99a0adf03d037d7dffe354bb5>@@AEAV<lambda_c9ba49e555ba839a7b07aa3fbecb7617>@@$$QEAV<lambda_2f1ebd5d68526518146ae959c9e734c8>@@@Z@4HA 0000000180031714     libucrt:close.obj
 0002:0000b714       $unwind$?fin$0@?0???$?RV<lambda_a37b2b86f63e897a80ea819b0eb08c01>@@AEAV<lambda_38ce7e780aa69e748d6df282ebc68efe>@@V<lambda_99fb1378e971ab6e7edea83e3a7a83a2>@@@?$__crt_seh_guarded_call@H@@QEAAH$$QEAV<lambda_a37b2b86f63e897a80ea819b0eb08c01>@@AEAV<lambda_38ce7e780aa69e748d6df282ebc68efe>@@$$QEAV<lambda_99fb1378e971ab6e7edea83e3a7a83a2>@@@Z@4HA 0000000180031714     libucrt:commit.obj
 0002:0000b714       $unwind$__acrt_initialize_lowio$fin$0 0000000180031714     libucrt:ioinit.obj
 0002:0000b714       $unwind$__acrt_lowio_ensure_fh_exists$fin$0 0000000180031714     libucrt:osfinfo.obj
 0002:0000b714       $unwind$?fin$0@?0???$?RV<lambda_efdfa57d1f175319df784efa44bb7b81>@@AEAV<lambda_5f0a4c1567f8adc6734073e5d1e1b35c>@@V<lambda_2e8a7d3640ea6ccb4c2413664c2db6fd>@@@?$__crt_seh_guarded_call@X@@QEAAX$$QEAV<lambda_efdfa57d1f175319df784efa44bb7b81>@@AEAV<lambda_5f0a4c1567f8adc6734073e5d1e1b35c>@@$$QEAV<lambda_2e8a7d3640ea6ccb4c2413664c2db6fd>@@@Z@4HA 0000000180031714     libucrt:mbctype.obj
 0002:0000b714       $unwind$?fin$0@?0??update_thread_multibyte_data_internal@@YAPEAU__crt_multibyte_data@@QEAU__acrt_ptd@@QEAPEAU1@@Z@4HA 0000000180031714     libucrt:mbctype.obj
 0002:0000b714       $unwind$?fin$0@?0???$?RV<lambda_450d765d439847d4c735a33c368b5fc0>@@AEAV<lambda_44731a7d0e6d81c3e6aa82d741081786>@@V<lambda_601a2a7da3b7a96e9554ac7215c4b07c>@@@?$__crt_seh_guarded_call@P6AXH@Z@@QEAAP6AXH@Z$$QEAV<lambda_450d765d439847d4c735a33c368b5fc0>@@AEAV<lambda_44731a7d0e6d81c3e6aa82d741081786>@@$$QEAV<lambda_601a2a7da3b7a96e9554ac7215c4b07c>@@@Z@4HA 0000000180031714     libucrt:signal.obj
 0002:0000b714       $unwind$raise$fin$0        0000000180031714     libucrt:signal.obj
 0002:0000b714       $unwind$?filt$0@?0???R<lambda_6e4b09c48022b2350581041d5f6b0c4c>@@QEBA@XZ@4HA 0000000180031714     libucrt:exit.obj
 0002:0000b714       $unwind$?fin$0@?0???$?RV<lambda_d80eeec6fff315bfe5c115232f3240e3>@@AEAV<lambda_6e4b09c48022b2350581041d5f6b0c4c>@@V<lambda_2358e3775559c9db80273638284d5e45>@@@?$__crt_seh_guarded_call@X@@QEAAX$$QEAV<lambda_d80eeec6fff315bfe5c115232f3240e3>@@AEAV<lambda_6e4b09c48022b2350581041d5f6b0c4c>@@$$QEAV<lambda_2358e3775559c9db80273638284d5e45>@@@Z@4HA 0000000180031714     libucrt:exit.obj
 0002:0000b714       $unwind$?fin$0@?0???$?RV<lambda_638799b9deba96c50f710eeac98168cd>@@AEAV<lambda_22ebabd17bc4fa466a2aca6d8deb888d>@@V<lambda_a6f7d7db0129f75315ebf26d50c089f1>@@@?$__crt_seh_guarded_call@H@@QEAAH$$QEAV<lambda_638799b9deba96c50f710eeac98168cd>@@AEAV<lambda_22ebabd17bc4fa466a2aca6d8deb888d>@@$$QEAV<lambda_a6f7d7db0129f75315ebf26d50c089f1>@@@Z@4HA 0000000180031714     libucrt:onexit.obj
 0002:0000b714       $unwind$?fin$0@?0???$?RV<lambda_7777bce6b2f8c936911f934f8298dc43>@@AEAV<lambda_f03950bc5685219e0bcd2087efbe011e>@@V<lambda_3883c3dff614d5e0c5f61bb1ac94921c>@@@?$__crt_seh_guarded_call@H@@QEAAH$$QEAV<lambda_7777bce6b2f8c936911f934f8298dc43>@@AEAV<lambda_f03950bc5685219e0bcd2087efbe011e>@@$$QEAV<lambda_3883c3dff614d5e0c5f61bb1ac94921c>@@@Z@4HA 0000000180031714     libucrt:onexit.obj
 0002:0000b714       $unwind$_fcloseall$fin$0   0000000180031714     libucrt:closeall.obj
 0002:0000b714       $unwind$?fin$0@?0???$?RV<lambda_842d9ff0dc9ef11c61343bbaebe7f885>@@AEAV<lambda_c5860995281e5c4ce005b3de8f5874ee>@@V<lambda_d90129c13df834fdcbf8d2b88dafcf2d>@@@?$__crt_seh_guarded_call@X@@QEAAX$$QEAV<lambda_842d9ff0dc9ef11c61343bbaebe7f885>@@AEAV<lambda_c5860995281e5c4ce005b3de8f5874ee>@@$$QEAV<lambda_d90129c13df834fdcbf8d2b88dafcf2d>@@@Z@4HA 0000000180031714     libucrt:fflush.obj
 0002:0000b714       $unwind$?fin$0@?0???$?RV<lambda_886d6c58226a84441f68b9f2b8217b83>@@AEAV<lambda_ab61a845afdef5b7c387490eaf3616ee>@@V<lambda_f7f22ab5edc0698d5f6905b0d3f44752>@@@?$__crt_seh_guarded_call@X@@QEAAX$$QEAV<lambda_886d6c58226a84441f68b9f2b8217b83>@@AEAV<lambda_ab61a845afdef5b7c387490eaf3616ee>@@$$QEAV<lambda_f7f22ab5edc0698d5f6905b0d3f44752>@@@Z@4HA 0000000180031714     libucrt:fflush.obj
 0002:0000b714       $unwind$_ctrlfp$filt$0     0000000180031714     libucrt:fpctrl.obj
 0002:0000b714       $unwind$common_control87$filt$0 0000000180031714     libucrt:ieee.obj
 0002:0000b714       $unwind$?fin$0@?0??dllmain_crt_process_attach@@YAHQEAUHINSTANCE__@@QEAX@Z@4HA 0000000180031714     LIBCMT:dll_dllmain.obj
 0002:0000b714       $unwind$?fin$0@?0??dllmain_crt_process_detach@@YAH_N@Z@4HA 0000000180031714     LIBCMT:dll_dllmain.obj
 0002:0000b714       $unwind$?fin$1@?0??dllmain_crt_process_detach@@YAH_N@Z@4HA 0000000180031714     LIBCMT:dll_dllmain.obj
 0002:0000b714       $unwind$_IsNonwritableInCurrentImage$filt$0 0000000180031714     LIBCMT:pesect.obj
 0002:0000b714       $unwind$?filt$0@?0??CxxCallCatchBlock@__FrameHandler3@@SAPEAXPEAU_EXCEPTION_RECORD@@@Z@4HA 0000000180031714     libvcruntime:frame.obj
 0002:0000b714       $unwind$?filt$0@?0??CxxCallCatchBlock@__FrameHandler4@@SAPEAXPEAU_EXCEPTION_RECORD@@@Z@4HA 0000000180031714     libvcruntime:frame.obj
 0002:0000b714       $unwind$?filt$0@?0??FrameUnwindToState@__FrameHandler3@@SAXPEA_KPEAU_xDISPATCHER_CONTEXT@@PEBU_s_FuncInfo@@H@Z@4HA 0000000180031714     libvcruntime:frame.obj
 0002:0000b714       $unwind$?fin$1@?0??FrameUnwindToState@__FrameHandler3@@SAXPEA_KPEAU_xDISPATCHER_CONTEXT@@PEBU_s_FuncInfo@@H@Z@4HA 0000000180031714     libvcruntime:frame.obj
 0002:0000b71c       $unwind$?AtlInternalOleLoadFromStream@ATL@@YAJPEAUIStream@@AEBU_GUID@@PEAPEAXTClassesAllowedInStream@1@K@Z 000000018003171c     VideoCapture.obj
 0002:0000b738       $unwind$?ReadFromStream@CComBSTR@ATL@@QEAAJPEAUIStream@@@Z 0000000180031738     VideoCapture.obj
 0002:0000b738       $unwind$_configure_narrow_argv 0000000180031738     libucrt:argv_parsing.obj
 0002:0000b74c       $unwind$?WriteToStream@CComVariant@ATL@@QEAAJPEAUIStream@@@Z 000000018003174c     VideoCapture.obj
 0002:0000b760       $unwind$?RegOpenKeyExW@CAtlTransactionManager@ATL@@QEAAJPEAUHKEY__@@PEB_WKKPEAPEAU3@@Z 0000000180031760     VideoCapture.obj
 0002:0000b760       $unwind$?WriteToStream@CComVariant@ATL@@QEAAJPEAUIStream@@G@Z 0000000180031760     VideoCapture.obj
 0002:0000b760       $unwind$__dcrt_write_console 0000000180031760     libucrt:initcon.obj
 0002:0000b760       $unwind$??$__acrt_convert_wcs_mbs_cp@_WDV<lambda_f788ae46380686e8b737efdd8c720d07>@@U__crt_win32_buffer_no_resizing@@@@YAHQEB_WAEAV?$__crt_win32_buffer@DU__crt_win32_buffer_no_resizing@@@@AEBV<lambda_f788ae46380686e8b737efdd8c720d07>@@I@Z 0000000180031760     libucrt:getmodulefilenamea.obj
 0002:0000b774       $unwind$?ReadFromStream@CComVariant@ATL@@QEAAJPEAUIStream@@GTClassesAllowedInStream@2@K@Z 0000000180031774     VideoCapture.obj
 0002:0000b78c       $unwind$?GetSizeMax@CComVariant@ATL@@QEBAJPEAT_ULARGE_INTEGER@@@Z 000000018003178c     VideoCapture.obj
 0002:0000b7a0       $unwind$?RegCreateKeyExW@CAtlTransactionManager@ATL@@QEAAJPEAUHKEY__@@PEB_WKPEA_WKKQEAU_SECURITY_ATTRIBUTES@@PEAPEAU3@PEAK@Z 00000001800317a0     VideoCapture.obj
 0002:0000b7b4       $unwind$?GetGITPtr@CAtlModule@ATL@@UEAAJPEAPEAUIGlobalInterfaceTable@@@Z 00000001800317b4     VideoCapture.obj
 0002:0000b7b4       $unwind$?RegDeleteKeyW@CAtlTransactionManager@ATL@@QEAAJPEAUHKEY__@@PEB_W@Z 00000001800317b4     VideoCapture.obj
 0002:0000b7b4       $unwind$?getStateFromIterators@UWMap4@FH4@@SAHAEBViterator@12@H0H0@Z 00000001800317b4     libvcruntime:frame.obj
 0002:0000b7c4       $unwind$?AtlHiMetricToPixel@ATL@@YAXPEBUtagSIZE@@PEAU2@@Z 00000001800317c4     VideoCapture.obj
 0002:0000b7c4       $unwind$?AtlInternalQueryInterface@ATL@@YAJPEAXPEBU_ATL_INTMAP_ENTRY@1@AEBU_GUID@@PEAPEAX@Z 00000001800317c4     VideoCapture.obj
 0002:0000b7dc       $unwind$?Append@CParseBuffer@CRegParser@ATL@@QEAAHPEB_WH@Z 00000001800317dc     VideoCapture.obj
 0002:0000b7dc       $unwind$?AtlComModuleGetClassObject@ATL@@YAJPEAU_ATL_COM_MODULE70@1@AEBU_GUID@@1PEAPEAX@Z 00000001800317dc     VideoCapture.obj
 0002:0000b7dc       $unwind$?GetClassObject@CComModule@ATL@@QEAAJAEBU_GUID@@0PEAPEAX@Z 00000001800317dc     VideoCapture.obj
 0002:0000b7dc       $unwind$?NextToken@CRegParser@ATL@@IEAAJPEA_W@Z 00000001800317dc     VideoCapture.obj
 0002:0000b7dc       $unwind$?StartWindowProc@?$CWindowImplBaseT@VCWindow@ATL@@V?$CWinTraits@$0FGAAAAAA@$0A@@2@@ATL@@SA_JPEAUHWND__@@I_K_J@Z 00000001800317dc     VideoCapture.obj
 0002:0000b7dc       $unwind$?fp_format_f_internal@@YAHQEAD_KHQEAU_strflt@@_NAEAV__crt_cached_ptd_host@@@Z 00000001800317dc     libucrt:cvt.obj
 0002:0000b7dc       $unwind$__acrt_DownlevelLocaleNameToLCID 00000001800317dc     libucrt:lcidtoname_downlevel.obj
 0002:0000b7dc       $unwind$??R<lambda_f03950bc5685219e0bcd2087efbe011e>@@QEBAHXZ 00000001800317dc     libucrt:onexit.obj
 0002:0000b7f4       $unwind$?AtlRegisterClassCategoriesHelper@ATL@@YAJAEBU_GUID@@PEBU_ATL_CATMAP_ENTRY@1@H@Z 00000001800317f4     VideoCapture.obj
 0002:0000b818       $unwind$?AtlLoadTypeLib@ATL@@YAJPEAUHINSTANCE__@@PEB_WPEAPEA_WPEAPEAUITypeLib@@@Z 0000000180031818     VideoCapture.obj
 0002:0000b838       $unwind$?AtlRegisterTypeLib@ATL@@YAJPEAUHINSTANCE__@@PEB_W@Z 0000000180031838     VideoCapture.obj
 0002:0000b854       $unwind$?AtlUnRegisterTypeLib@ATL@@YAJPEAUHINSTANCE__@@PEB_W@Z 0000000180031854     VideoCapture.obj
 0002:0000b85c       $unwind$?GetTI@CComTypeInfoHolder@ATL@@QEAAJK@Z 000000018003185c     VideoCapture.obj
 0002:0000b85c       $unwind$?RecurseDeleteKey@CRegKey@ATL@@QEAAJPEB_W@Z 000000018003185c     VideoCapture.obj
 0002:0000b87c       $unwind$?UpdateRegistryFromResource@CAtlModule@ATL@@QEAAJIHPEAU_ATL_REGMAP_ENTRY@2@@Z 000000018003187c     VideoCapture.obj
 0002:0000b87c       $unwind$?UpdateRegistryFromResource@CAtlModule@ATL@@QEAAJPEB_WHPEAU_ATL_REGMAP_ENTRY@2@@Z 000000018003187c     VideoCapture.obj
 0002:0000b89c       $unwind$?Lookup@?$CSimpleMap@PEA_WPEA_WVCExpansionVectorEqualHelper@ATL@@@ATL@@QEBAPEA_WAEBQEA_W@Z 000000018003189c     VideoCapture.obj
 0002:0000b89c       $unwind$_free_osfhnd       000000018003189c     libucrt:osfinfo.obj
 0002:0000b89c       $unwind$__std_exception_copy 000000018003189c     libvcruntime:std_exception.obj
 0002:0000b8b0       $unwind$?Add@CExpansionVector@ATL@@QEAAHPEB_W0@Z 00000001800318b0     VideoCapture.obj
 0002:0000b8c8       $unwind$?PreProcessBuffer@CRegParser@ATL@@QEAAJPEA_WPEAPEA_W@Z 00000001800318c8     VideoCapture.obj
 0002:0000b8ec       $unwind$?RegisterBuffer@CRegParser@ATL@@QEAAJPEA_WH@Z 00000001800318ec     VideoCapture.obj
 0002:0000b90c       $unwind$?AddValue@CRegParser@ATL@@IEAAJAEAVCRegKey@2@PEB_WPEA_W@Z 000000018003190c     VideoCapture.obj
 0002:0000b92c       $unwind$?RegisterSubkeys@CRegParser@ATL@@IEAAJPEA_WPEAUHKEY__@@HH@Z 000000018003192c     VideoCapture.obj
 0002:0000b94c       $unwind$?SkipAssignment@CRegParser@ATL@@IEAAJPEA_W@Z 000000018003194c     VideoCapture.obj
 0002:0000b968       $unwind$?RegisterFromResource@CRegObject@ATL@@IEAAJPEB_W00H@Z 0000000180031968     VideoCapture.obj
 0002:0000b988       $unwind$?Cleanup@CComTypeInfoHolder@ATL@@SAX_K@Z 0000000180031988     VideoCapture.obj
 0002:0000b988       $unwind$_free_base         0000000180031988     libucrt:free_base.obj
 0002:0000b988       $unwind$?destroy_fls@@YAXPEAX@Z 0000000180031988     libucrt:per_thread_data.obj
 0002:0000b988       $unwind$__acrt_locale_free_numeric 0000000180031988     libucrt:initnum.obj
 0002:0000b988       $unwind$__acrt_locale_free_lc_time_if_unreferenced 0000000180031988     libucrt:locale_refcounting.obj
 0002:0000b988       $unwind$AtlThunk_FreeData  0000000180031988     atls:atlthunk.obj
 0002:0000b990       $unwind$?GetIDsOfNames@CComTypeInfoHolder@ATL@@QEAAJAEBU_GUID@@PEAPEA_WIKPEAJ@Z 0000000180031990     VideoCapture.obj
 0002:0000b9ac       $unwind$?LoadNameCache@CComTypeInfoHolder@ATL@@QEAAJPEAUITypeInfo@@@Z 00000001800319ac     VideoCapture.obj
 0002:0000b9c4       $unwind$?WindowProc@?$CWindowImplBaseT@VCWindow@ATL@@V?$CWinTraits@$0FGAAAAAA@$0A@@2@@ATL@@SA_JPEAUHWND__@@I_K_J@Z 00000001800319c4     VideoCapture.obj
 0002:0000b9dc       $unwind$?atlCreate@?$CWindowImplBaseT@VCWindow@ATL@@V?$CWinTraits@$0FGAAAAAA@$0A@@2@@ATL@@QEAAPEAUHWND__@@PEAU3@V_U_RECT@2@PEB_WKKV_U_MENUorID@2@GPEAX@Z 00000001800319dc     VideoCapture.obj
 0002:0000b9f4       $unwind$??$AtlModuleRegisterWndClassInfoT@VAtlModuleRegisterWndClassInfoParamW@ATL@@@ATL@@YAGPEAU_ATL_BASE_MODULE70@0@PEAU_ATL_WIN_MODULE70@0@PEAU_ATL_WNDCLASSINFOW@0@PEAP6A_JPEAUHWND__@@I_K_J@ZVAtlModuleRegisterWndClassInfoParamW@0@@Z 00000001800319f4     VideoCapture.obj
 0002:0000ba14       $unwind$?GetZoomInfo@CComControlBase@ATL@@QEAAXAEAUATL_DRAWINFO@@@Z 0000000180031a14     VideoCapture.obj
 0002:0000ba14       $unwind$?OnKillFocus@CComControlBase@ATL@@QEAA_JI_K_JAEAH@Z 0000000180031a14     VideoCapture.obj
 0002:0000ba14       $unwind$?get_raw_ptd@__crt_cached_ptd_host@@QEAAPEAU__acrt_ptd@@XZ 0000000180031a14     libucrt:invalid_parameter.obj
 0002:0000ba20       $unwind$?SendOnDataChange@CComControlBase@ATL@@QEAAJK@Z 0000000180031a20     VideoCapture.obj
 0002:0000ba30       $unwind$?OnSetFocus@CComControlBase@ATL@@QEAA_JI_K_JAEAH@Z 0000000180031a30     VideoCapture.obj
 0002:0000ba44       $unwind$?OnMouseActivate@CComControlBase@ATL@@QEAA_JI_K_JAEAH@Z 0000000180031a44     VideoCapture.obj
 0002:0000ba4c       $unwind$?GetAmbientLocaleID@CComControlBase@ATL@@QEAAJAEAK@Z 0000000180031a4c     VideoCapture.obj
 0002:0000ba4c       $unwind$?GetAmbientUserMode@CComControlBase@ATL@@QEAAJAEAH@Z 0000000180031a4c     VideoCapture.obj
 0002:0000ba5c       $unwind$?IQuickActivate_QuickActivate@CComControlBase@ATL@@QEAAJPEAUtagQACONTAINER@@PEAUtagQACONTROL@@@Z 0000000180031a5c     VideoCapture.obj
 0002:0000ba74       $unwind$?DoVerbProperties@CComControlBase@ATL@@QEAAJPEBUtagRECT@@PEAUHWND__@@@Z 0000000180031a74     VideoCapture.obj
 0002:0000ba8c       $unwind$?InPlaceActivate@CComControlBase@ATL@@QEAAJJPEBUtagRECT@@@Z 0000000180031a8c     VideoCapture.obj
 0002:0000baac       $unwind$?IOleObject_Close@CComControlBase@ATL@@QEAAJK@Z 0000000180031aac     VideoCapture.obj
 0002:0000baac       $unwind$?get_raw_ptd_noexit@__crt_cached_ptd_host@@QEAAPEAU__acrt_ptd@@XZ 0000000180031aac     libucrt:invalid_parameter.obj
 0002:0000baac       $unwind$?type_case_c_tchar@?$output_processor@_WV?$string_output_adapter@_W@__crt_stdio_output@@V?$format_validation_base@_WV?$string_output_adapter@_W@__crt_stdio_output@@@2@@__crt_stdio_output@@AEAA_N_W@Z 0000000180031aac     libucrt:output.obj
 0002:0000babc       $unwind$?IOleInPlaceObject_UIDeactivate@CComControlBase@ATL@@QEAAJXZ 0000000180031abc     VideoCapture.obj
 0002:0000bad4       $unwind$?IOleInPlaceObject_SetObjectRects@CComControlBase@ATL@@QEAAJPEBUtagRECT@@0@Z 0000000180031ad4     VideoCapture.obj
 0002:0000bae8       $unwind$?IViewObject_Draw@CComControlBase@ATL@@QEAAJKJPEAXPEAUtagDVTARGETDEVICE@@PEAUHDC__@@2PEBU_RECTL@@3@Z 0000000180031ae8     VideoCapture.obj
 0002:0000bb04       $unwind$?IDataObject_GetData@CComControlBase@ATL@@QEAAJPEAUtagFORMATETC@@PEAUtagSTGMEDIUM@@@Z 0000000180031b04     VideoCapture.obj
 0002:0000bb24       $unwind$?OnPaint@CComControlBase@ATL@@QEAA_JI_K_JAEAH@Z 0000000180031b24     VideoCapture.obj
 0002:0000bb40       $unwind$?OnDrawAdvanced@CComControlBase@ATL@@UEAAJAEAUATL_DRAWINFO@@@Z 0000000180031b40     VideoCapture.obj
 0002:0000bb5c       $unwind$?Invoke@?$IDispatchImpl@UIOPOSVideoCapture@@$1?IID_IOPOSVideoCapture@@3U_GUID@@B$1?LIBID_OposVideoCapture_CCO@@3U3@B$00$0A@VCComTypeInfoHolder@ATL@@@ATL@@UEAAJJAEBU_GUID@@KGPEAUtagDISPPARAMS@@PEAUtagVARIANT@@PEAUtagEXCEPINFO@@PEAI@Z 0000000180031b5c     VideoCapture.obj
 0002:0000bb5c       $unwind$?ReleaseDevice@COPOSVideoCapture@@UEAAJPEAJ@Z 0000000180031b5c     VideoCaptureImpl.obj
 0002:0000bb5c       $unwind$_mbsdec_l          0000000180031b5c     libucrt:mbsdec.obj
 0002:0000bb68       $unwind$?atlCreate@?$CWindowImpl@VCOPOSVideoCapture@@VCWindow@ATL@@V?$CWinTraits@$0FGAAAAAA@$0A@@3@@ATL@@QEAAPEAUHWND__@@PEAU3@V_U_RECT@2@PEB_WKKV_U_MENUorID@2@PEAX@Z 0000000180031b68     VideoCapture.obj
 0002:0000bb68       $unwind$?fp_format_f@@YAHQEBNQEAD_K12HW4__acrt_rounding_mode@@AEAV__crt_cached_ptd_host@@@Z 0000000180031b68     libucrt:cvt.obj
 0002:0000bb68       $unwind$__acrt_LCMapStringEx 0000000180031b68     libucrt:winapi_thunks.obj
 0002:0000bb7c       $unwind$?CreateControlWindow@?$CComControl@VCOPOSVideoCapture@@V?$CWindowImpl@VCOPOSVideoCapture@@VCWindow@ATL@@V?$CWinTraits@$0FGAAAAAA@$0A@@3@@ATL@@@ATL@@UEAAPEAUHWND__@@PEAU3@AEAUtagRECT@@@Z 0000000180031b7c     VideoCapture.obj
 0002:0000bb7c       $unwind$?ClearInput@COPOSVideoCapture@@UEAAJPEAJ@Z 0000000180031b7c     VideoCaptureImpl.obj
 0002:0000bb7c       $unwind$?StopVideo@COPOSVideoCapture@@UEAAJPEAJ@Z 0000000180031b7c     VideoCaptureImpl.obj
 0002:0000bb7c       $unwind$_raise_exc         0000000180031b7c     libucrt:fpexcept.obj
 0002:0000bb7c       $unwind$?__scrt_throw_std_bad_alloc@@YAXXZ 0000000180031b7c     LIBCMT:throw_bad_alloc.obj
 0002:0000bb7c       $unwind$?__scrt_throw_std_bad_array_new_length@@YAXXZ 0000000180031b7c     LIBCMT:throw_bad_alloc.obj
 0002:0000bb84       $unwind$?ProcessWindowMessage@?$CComControl@VCOPOSVideoCapture@@V?$CWindowImpl@VCOPOSVideoCapture@@VCWindow@ATL@@V?$CWinTraits@$0FGAAAAAA@$0A@@3@@ATL@@@ATL@@UEAAHPEAUHWND__@@I_K_JAEA_JK@Z 0000000180031b84     VideoCapture.obj
 0002:0000bb8c       $unwind$?GetSizeMax@?$IPersistStreamInitImpl@VCOPOSVideoCapture@@@ATL@@UEAAJPEAT_ULARGE_INTEGER@@@Z 0000000180031b8c     VideoCapture.obj
 0002:0000bba4       $unwind$?IPersistStreamInit_Load@?$IPersistStreamInitImpl@VCOPOSVideoCapture@@@ATL@@QEAAJPEAUIStream@@PEBUATL_PROPMAP_ENTRY@2@@Z 0000000180031ba4     VideoCapture.obj
 0002:0000bbc0       $unwind$?IPersistStreamInit_Save@?$IPersistStreamInitImpl@VCOPOSVideoCapture@@@ATL@@QEAAJPEAUIStream@@HPEBUATL_PROPMAP_ENTRY@2@@Z 0000000180031bc0     VideoCapture.obj
 0002:0000bbdc       $unwind$?DoVerbPrimary@?$IOleObjectImpl@VCOPOSVideoCapture@@@ATL@@QEAAJPEBUtagRECT@@PEAUHWND__@@@Z 0000000180031bdc     VideoCapture.obj
 0002:0000bbf4       $unwind$?TranslateAcceleratorW@?$IOleInPlaceActiveObjectImpl@VCOPOSVideoCapture@@@ATL@@UEAAJPEAUtagMSG@@@Z 0000000180031bf4     VideoCapture.obj
 0002:0000bc00       $unwind$?Draw@?$IViewObjectExImpl@VCOPOSVideoCapture@@@ATL@@UEAAJKJPEAXPEAUtagDVTARGETDEVICE@@PEAUHDC__@@2PEBU_RECTL@@3P6AH_K@Z4@Z 0000000180031c00     VideoCapture.obj
 0002:0000bc08       $unwind$?QueryHitRect@?$IViewObjectExImpl@VCOPOSVideoCapture@@@ATL@@UEAAJKPEBUtagRECT@@0JPEAK@Z 0000000180031c08     VideoCapture.obj
 0002:0000bc18       $unwind$?OnWindowMessage@?$IOleInPlaceObjectWindowlessImpl@VCOPOSVideoCapture@@@ATL@@UEAAJI_K_JPEA_J@Z 0000000180031c18     VideoCapture.obj
 0002:0000bc2c       $unwind$?EnumConnectionPoints@?$IConnectionPointContainerImpl@VCOPOSVideoCapture@@@ATL@@UEAAJPEAPEAUIEnumConnectionPoints@@@Z 0000000180031c2c     VideoCapture.obj
 0002:0000bc54       $unwind$?FindConnectionPoint@?$IConnectionPointContainerImpl@VCOPOSVideoCapture@@@ATL@@UEAAJAEBU_GUID@@PEAPEAUIConnectionPoint@@@Z 0000000180031c54     VideoCapture.obj
 0002:0000bc70       $unwind$?Load@?$IPersistStorageImpl@VCOPOSVideoCapture@@@ATL@@UEAAJPEAUIStorage@@@Z 0000000180031c70     VideoCapture.obj
 0002:0000bc80       $unwind$?Save@?$IPersistStorageImpl@VCOPOSVideoCapture@@@ATL@@UEAAJPEAUIStorage@@H@Z 0000000180031c80     VideoCapture.obj
 0002:0000bc94       $unwind$?IPSI_GetIPersistStreamInit@?$IPersistStorageImpl@VCOPOSVideoCapture@@@ATL@@AEAAPEAUIPersistStreamInit@@XZ 0000000180031c94     VideoCapture.obj
 0002:0000bca8       $unwind$?GetInterfaceSafetyOptions@?$IObjectSafetyImpl@VCOPOSVideoCapture@@$02@ATL@@UEAAJAEBU_GUID@@PEAK1@Z 0000000180031ca8     VideoCapture.obj
 0002:0000bcbc       $unwind$?SetInterfaceSafetyOptions@?$IObjectSafetyImpl@VCOPOSVideoCapture@@$02@ATL@@UEAAJAEBU_GUID@@KK@Z 0000000180031cbc     VideoCapture.obj
 0002:0000bcd0       $unwind$?Advise@?$IConnectionPointImpl@VCOPOSVideoCapture@@$1?DIID__IOPOSVideoCaptureEvents@@3U_GUID@@BVCComDynamicUnkArray@ATL@@@ATL@@UEAAJPEAUIUnknown@@PEAK@Z 0000000180031cd0     VideoCapture.obj
 0002:0000bcd0       $unwind$?Advise@?$IConnectionPointImpl@VCOPOSVideoCapture@@$1?IID_IPropertyNotifySink@@3U_GUID@@BVCComDynamicUnkArray@ATL@@@ATL@@UEAAJPEAUIUnknown@@PEAK@Z 0000000180031cd0     VideoCapture.obj
 0002:0000bce4       $unwind$?EnumConnections@?$IConnectionPointImpl@VCOPOSVideoCapture@@$1?DIID__IOPOSVideoCaptureEvents@@3U_GUID@@BVCComDynamicUnkArray@ATL@@@ATL@@UEAAJPEAPEAUIEnumConnections@@@Z 0000000180031ce4     VideoCapture.obj
 0002:0000bce4       $unwind$?EnumConnections@?$IConnectionPointImpl@VCOPOSVideoCapture@@$1?IID_IPropertyNotifySink@@3U_GUID@@BVCComDynamicUnkArray@ATL@@@ATL@@UEAAJPEAPEAUIEnumConnections@@@Z 0000000180031ce4     VideoCapture.obj
 0002:0000bcfc       $unwind$?Fire_DirectIOEvent@?$CProxy_IOPOSEvents@VCOPOSVideoCapture@@@@QEAAXJPEAJPEAPEA_W@Z 0000000180031cfc     VideoCapture.obj
 0002:0000bd1c       $unwind$?Fire_ErrorEvent@?$CProxy_IOPOSEvents@VCOPOSVideoCapture@@@@QEAAXJJJPEAJ@Z 0000000180031d1c     VideoCapture.obj
 0002:0000bd3c       $unwind$?Fire_StatusUpdateEvent@?$CProxy_IOPOSEvents@VCOPOSVideoCapture@@@@QEAAXJ@Z 0000000180031d3c     VideoCapture.obj
 0002:0000bd3c       $unwind$?fp_format_e@@YAHQEBNQEAD_K12H_NIW4__acrt_rounding_mode@@AEAV__crt_cached_ptd_host@@@Z 0000000180031d3c     libucrt:cvt.obj
 0002:0000bd3c       $unwind$??$__InternalCxxFrameHandler@V__FrameHandler3@@@@YA?AW4_EXCEPTION_DISPOSITION@@PEAUEHExceptionRecord@@PEA_KPEAU_CONTEXT@@PEAU_xDISPATCHER_CONTEXT@@PEBU_s_FuncInfo@@H1E@Z 0000000180031d3c     libvcruntime:frame.obj
 0002:0000bd54       $unwind$?FireTheEvent@?$CProxy_IOPOSEvents@VCOPOSVideoCapture@@@@IEAAXPEAVOposVariant@@IAEAJPEB_WJ@Z 0000000180031d54     VideoCapture.obj
 0002:0000bd64       $unwind$?ProcessWindowMessage@COPOSVideoCapture@@UEAAHPEAUHWND__@@I_K_JAEA_JK@Z 0000000180031d64     VideoCapture.obj
 0002:0000bd7c       $unwind$?SOError@COPOSVideoCapture@@MEAAJJJJPEAJ@Z 0000000180031d7c     VideoCapture.obj
 0002:0000bd7c       $unwind$??$common_lseek_nolock@_J@@YA_JH_JHAEAV__crt_cached_ptd_host@@@Z 0000000180031d7c     libucrt:lseek.obj
 0002:0000bd7c       $unwind$_invalid_parameter_internal 0000000180031d7c     libucrt:invalid_parameter.obj
 0002:0000bd7c       $unwind$??$type_case_integer@$07@?$output_processor@_WV?$string_output_adapter@_W@__crt_stdio_output@@V?$format_validation_base@_WV?$string_output_adapter@_W@__crt_stdio_output@@@2@@__crt_stdio_output@@AEAA_N_N@Z 0000000180031d7c     libucrt:output.obj
 0002:0000bd7c       $unwind$??$type_case_integer@$09@?$output_processor@_WV?$string_output_adapter@_W@__crt_stdio_output@@V?$format_validation_base@_WV?$string_output_adapter@_W@__crt_stdio_output@@@2@@__crt_stdio_output@@AEAA_N_N@Z 0000000180031d7c     libucrt:output.obj
 0002:0000bd7c       $unwind$??$type_case_integer@$0BA@@?$output_processor@_WV?$string_output_adapter@_W@__crt_stdio_output@@V?$format_validation_base@_WV?$string_output_adapter@_W@__crt_stdio_output@@@2@@__crt_stdio_output@@AEAA_N_N@Z 0000000180031d7c     libucrt:output.obj
 0002:0000bd90       $unwind$?Clone@?$CComEnumImpl@UIEnumConnectionPoints@@$1?_GUID_b196b285_bab4_101a_b69c_00aa00341d07@@3U__s_GUID@@BPEAUIConnectionPoint@@V?$_CopyInterface@UIConnectionPoint@@@ATL@@@ATL@@UEAAJPEAPEAUIEnumConnectionPoints@@@Z 0000000180031d90     VideoCapture.obj
 0002:0000bd90       $unwind$?Clone@?$CComEnumImpl@UIEnumConnections@@$1?_GUID_b196b287_bab4_101a_b69c_00aa00341d07@@3U__s_GUID@@BUtagCONNECTDATA@@V?$_Copy@UtagCONNECTDATA@@@ATL@@@ATL@@UEAAJPEAPEAUIEnumConnections@@@Z 0000000180031d90     VideoCapture.obj
 0002:0000bda8       $unwind$?Init@?$CComEnumImpl@UIEnumConnectionPoints@@$1?_GUID_b196b285_bab4_101a_b69c_00aa00341d07@@3U__s_GUID@@BPEAUIConnectionPoint@@V?$_CopyInterface@UIConnectionPoint@@@ATL@@@ATL@@QEAAJPEAPEAUIConnectionPoint@@0PEAUIUnknown@@W4CComEnumFlags@2@@Z 0000000180031da8     VideoCapture.obj
 0002:0000bda8       $unwind$?Init@?$CComEnumImpl@UIEnumConnections@@$1?_GUID_b196b287_bab4_101a_b69c_00aa00341d07@@3U__s_GUID@@BUtagCONNECTDATA@@V?$_Copy@UtagCONNECTDATA@@@ATL@@@ATL@@QEAAJPEAUtagCONNECTDATA@@0PEAUIUnknown@@W4CComEnumFlags@2@@Z 0000000180031da8     VideoCapture.obj
 0002:0000bda8       $unwind$?should_round_up@@YA_NQEBN_KFW4__acrt_rounding_mode@@@Z 0000000180031da8     libucrt:cvt.obj
 0002:0000bda8       $unwind$??$parse_command_line@D@@YAXPEADPEAPEAD0PEA_K2@Z 0000000180031da8     libucrt:argv_parsing.obj
 0002:0000bdc4       $unwind$?GetOposProp@COPOSVideoCapture@@IEAAJJPEAJJ@Z 0000000180031dc4     VideoCaptureImpl.obj
 0002:0000bdc4       $unwind$?GetOposProp@COPOSVideoCapture@@IEAAJJPEAPEA_WJ@Z 0000000180031dc4     VideoCaptureImpl.obj
 0002:0000bddc       $unwind$?SetOposProp@COPOSVideoCapture@@IEAAJJJJ@Z 0000000180031ddc     VideoCaptureImpl.obj
 0002:0000bdfc       $unwind$?SetOposProp@COPOSVideoCapture@@IEAAJJPEA_WJ@Z 0000000180031dfc     VideoCaptureImpl.obj
 0002:0000be18       $unwind$?DoInvoke@COPOSVideoCapture@@IEAAJJPEAVOposVariant@@IHPEAJ_N@Z 0000000180031e18     VideoCaptureImpl.obj
 0002:0000be30       $unwind$?SetCOFreezeEvents@COPOSVideoCapture@@IEAAXF@Z 0000000180031e30     VideoCaptureImpl.obj
 0002:0000be44       $unwind$?OnDraw@COPOSVideoCapture@@MEAAJAEAUATL_DRAWINFO@@@Z 0000000180031e44     VideoCaptureImpl.obj
 0002:0000be5c       $unwind$?EventInit@COPOSVideoCapture@@IEAAJXZ 0000000180031e5c     VideoCaptureImpl.obj
 0002:0000be70       $unwind$?EventWindowProc@COPOSVideoCapture@@IEAA_JI_K_J@Z 0000000180031e70     VideoCaptureImpl.obj
 0002:0000be70       $unwind$?type_case_n@?$output_processor@_WV?$string_output_adapter@_W@__crt_stdio_output@@V?$format_validation_base@_WV?$string_output_adapter@_W@__crt_stdio_output@@@2@@__crt_stdio_output@@AEAA_NXZ 0000000180031e70     libucrt:output.obj
 0002:0000be7c       $unwind$?get_ControlObjectDescription@COPOSVideoCapture@@UEAAJPEAPEA_W@Z 0000000180031e7c     VideoCaptureImpl.obj
 0002:0000be7c       $unwind$__dcrt_lowio_ensure_console_output_initialized 0000000180031e7c     libucrt:initcon.obj
 0002:0000be7c       $unwind$?__mbrtowc_utf8@__crt_mbstring@@YA_KPEA_WPEBD_KPEAU_Mbstatet@@AEAV__crt_cached_ptd_host@@@Z 0000000180031e7c     libucrt:mbrtowc.obj
 0002:0000be7c       $unwind$?getSystemCP@@YAHH@Z 0000000180031e7c     libucrt:mbctype.obj
 0002:0000be84       $unwind$?CheckHealth@COPOSVideoCapture@@UEAAJJPEAJ@Z 0000000180031e84     VideoCaptureImpl.obj
 0002:0000be84       $unwind$?ResetStatistics@COPOSVideoCapture@@UEAAJPEA_WPEAJ@Z 0000000180031e84     VideoCaptureImpl.obj
 0002:0000be84       $unwind$?RetrieveStatistics@COPOSVideoCapture@@UEAAJPEAPEA_WPEAJ@Z 0000000180031e84     VideoCaptureImpl.obj
 0002:0000be84       $unwind$?UpdateFirmware@COPOSVideoCapture@@UEAAJPEA_WPEAJ@Z 0000000180031e84     VideoCaptureImpl.obj
 0002:0000be84       $unwind$?UpdateStatistics@COPOSVideoCapture@@UEAAJPEA_WPEAJ@Z 0000000180031e84     VideoCaptureImpl.obj
 0002:0000be94       $unwind$?ClaimDevice@COPOSVideoCapture@@UEAAJJPEAJ@Z 0000000180031e94     VideoCaptureImpl.obj
 0002:0000bea4       $unwind$?Close@COPOSVideoCapture@@UEAAJPEAJ@Z 0000000180031ea4     VideoCaptureImpl.obj
 0002:0000beb0       $unwind$?DirectIO@COPOSVideoCapture@@UEAAJJPEAJPEAPEA_W0@Z 0000000180031eb0     VideoCaptureImpl.obj
 0002:0000beb0       $unwind$?StartVideo@COPOSVideoCapture@@UEAAJPEA_WFJPEAJ@Z 0000000180031eb0     VideoCaptureImpl.obj
 0002:0000beb0       $unwind$?TakePhoto@COPOSVideoCapture@@UEAAJPEA_WFJPEAJ@Z 0000000180031eb0     VideoCaptureImpl.obj
 0002:0000becc       $unwind$?Open@COPOSVideoCapture@@UEAAJPEA_WPEAJ@Z 0000000180031ecc     VideoCaptureImpl.obj
 0002:0000bef0       $unwind$?CompareFirmwareVersion@COPOSVideoCapture@@UEAAJPEA_WPEAJ1@Z 0000000180031ef0     VideoCaptureImpl.obj
 0002:0000bef0       $unwind$?initialize_inherited_file_handles_nolock@@YAXXZ 0000000180031ef0     libucrt:ioinit.obj
 0002:0000bf0c       $unwind$__scrt_is_nonwritable_in_current_image 0000000180031f0c     LIBCMT:utility.obj
 0002:0000bf2c       $unwind$__scrt_is_nonwritable_in_current_image$filt$0 0000000180031f2c     LIBCMT:utility.obj
 0002:0000bf34       $unwind$__report_securityfailure 0000000180031f34     LIBCMT:gs_report.obj
 0002:0000bf3c       $unwind$__report_gsfailure 0000000180031f3c     LIBCMT:gs_report.obj
 0002:0000bf44       $unwind$capture_current_context 0000000180031f44     LIBCMT:gs_report.obj
 0002:0000bf50       $unwind$capture_previous_context 0000000180031f50     LIBCMT:gs_report.obj
 0002:0000bf5c       $unwind$??2@YAPEAX_KAEBUnothrow_t@std@@@Z 0000000180031f5c     LIBCMT:new_scalar_nothrow.obj
 0002:0000bf6c       $cppxdata$??2@YAPEAX_KAEBUnothrow_t@std@@@Z 0000000180031f6c     LIBCMT:new_scalar_nothrow.obj
 0002:0000bf79       $stateUnwindMap$??2@YAPEAX_KAEBUnothrow_t@std@@@Z 0000000180031f79     LIBCMT:new_scalar_nothrow.obj
 0002:0000bf7c       $tryMap$??2@YAPEAX_KAEBUnothrow_t@std@@@Z 0000000180031f7c     LIBCMT:new_scalar_nothrow.obj
 0002:0000bf84       $handlerMap$??2@YAPEAX_KAEBUnothrow_t@std@@@Z 0000000180031f84     LIBCMT:new_scalar_nothrow.obj
 0002:0000bf8c       $ip2state$??2@YAPEAX_KAEBUnothrow_t@std@@@Z 0000000180031f8c     LIBCMT:new_scalar_nothrow.obj
 0002:0000bf90       $unwind$?catch$0@?0???2@YAPEAX_KAEBUnothrow_t@std@@@Z@4HA 0000000180031f90     LIBCMT:new_scalar_nothrow.obj
 0002:0000bfa0       $cppxdata$?catch$0@?0???2@YAPEAX_KAEBUnothrow_t@std@@@Z@4HA 0000000180031fa0     LIBCMT:new_scalar_nothrow.obj
 0002:0000bfaa       $stateUnwindMap$?catch$0@?0???2@YAPEAX_KAEBUnothrow_t@std@@@Z@4HA 0000000180031faa     LIBCMT:new_scalar_nothrow.obj
 0002:0000bfac       $ip2state$?catch$0@?0???2@YAPEAX_KAEBUnothrow_t@std@@@Z@4HA 0000000180031fac     LIBCMT:new_scalar_nothrow.obj
 0002:0000bfb0       $unwind$__GSHandlerCheckCommon 0000000180031fb0     LIBCMT:gshandler.obj
 0002:0000bfb8       $xdatasym                  0000000180031fb8     LIBCMT:chkstk.obj
 0002:0000bfc0       $xdatasym                  0000000180031fc0     LIBCMT:amdsecgs.obj
 0002:0000bfc4       $unwind$?dllmain_crt_process_attach@@YAHQEAUHINSTANCE__@@QEAX@Z 0000000180031fc4     LIBCMT:dll_dllmain.obj
 0002:0000c000       $unwind$?dllmain_crt_process_detach@@YAH_N@Z 0000000180032000     LIBCMT:dll_dllmain.obj
 0002:0000c054       $unwind$?dllmain_dispatch@@YAHQEAUHINSTANCE__@@KQEAX@Z 0000000180032054     LIBCMT:dll_dllmain.obj
 0002:0000c07c       $unwind$_write_internal$fin$0 000000018003207c     libucrt:write.obj
 0002:0000c07c       $unwind$?fin$0@?0??_fclose_internal@@YAHQEAU_iobuf@@AEAV__crt_cached_ptd_host@@@Z@4HA 000000018003207c     libucrt:fclose.obj
 0002:0000c07c       $unwind$?filt$0@?0??dllmain_dispatch@@YAHQEAUHINSTANCE__@@KQEAX@Z@4HA 000000018003207c     LIBCMT:dll_dllmain.obj
 0002:0000c07c       $unwind$?filt$0@?0??FrameUnwindToState@__FrameHandler4@@SAXPEA_KPEAU_xDISPATCHER_CONTEXT@@PEAUFuncInfo4@FH4@@H@Z@4HA 000000018003207c     libvcruntime:frame.obj
 0002:0000c07c       $unwind$?fin$1@?0??FrameUnwindToState@__FrameHandler4@@SAXPEA_KPEAU_xDISPATCHER_CONTEXT@@PEAUFuncInfo4@FH4@@H@Z@4HA 000000018003207c     libvcruntime:frame.obj
 0002:0000c084       $unwind$__isa_available_init 0000000180032084     LIBCMT:cpu_disp.obj
 0002:0000c094       $unwind$__scrt_fastfail    0000000180032094     LIBCMT:utility_desktop.obj
 0002:0000c0a4       $unwind$__security_init_cookie 00000001800320a4     LIBCMT:gs_support.obj
 0002:0000c0b0       $xdatasym                  00000001800320b0     LIBCMT:guard_dispatch.obj
 0002:0000c0b8       $xdatasym                  00000001800320b8     LIBCMT:guard_xfg_dispatch.obj
 0002:0000c0bc       $unwind$AtlThunk_InitData  00000001800320bc     atls:atlthunk.obj
 0002:0000c0d0       $unwind$wcsstr             00000001800320d0     libvcruntime:wcsstr.obj
 0002:0000c0e8       $xdatasym                  00000001800320e8     libvcruntime:memcmp.obj
 0002:0000c0f0       $xdatasym                  00000001800320f0     libvcruntime:memcpy.obj
 0002:0000c100       $xdatasym                  0000000180032100     libvcruntime:memset.obj
 0002:0000c110       $unwind$__C_specific_handler 0000000180032110     libvcruntime:riscchandler.obj
 0002:0000c110       $unwind$?GetRangeOfTrysToCheck@__FrameHandler3@@SA?AU?$pair@Viterator@TryBlockMap@__FrameHandler3@@V123@@std@@AEAVTryBlockMap@1@HPEAU_xDISPATCHER_CONTEXT@@PEBU_s_FuncInfo@@H@Z 0000000180032110     libvcruntime:risctrnsctrl.obj
 0002:0000c12c       $unwind$?StateFromIp@__FrameHandler4@@SAHPEAUFuncInfo4@FH4@@PEAU_xDISPATCHER_CONTEXT@@_K@Z 000000018003212c     libvcruntime:ehstate.obj
 0002:0000c12c       $unwind$?DecompFuncInfo@FH4@@YA_JPEAEAEAUFuncInfo4@1@_KH_N@Z 000000018003212c     libvcruntime:risctrnsctrl.obj
 0002:0000c144       $unwind$?GetEstablisherFrame@__FrameHandler3@@SAPEA_KPEA_KPEAU_xDISPATCHER_CONTEXT@@PEBU_s_FuncInfo@@0@Z 0000000180032144     libvcruntime:risctrnsctrl.obj
 0002:0000c15c       $unwind$?UnwindNestedFrames@__FrameHandler3@@SAXPEA_KPEAUEHExceptionRecord@@PEAU_CONTEXT@@0PEAXPEBU_s_FuncInfo@@HHPEBU_s_HandlerType@@PEAU_xDISPATCHER_CONTEXT@@E@Z 000000018003215c     libvcruntime:risctrnsctrl.obj
 0002:0000c15c       $unwind$?UnwindNestedFrames@__FrameHandler4@@SAXPEA_KPEAUEHExceptionRecord@@PEAU_CONTEXT@@0PEAXPEAUFuncInfo4@FH4@@HHPEAUHandlerType4@5@PEAU_xDISPATCHER_CONTEXT@@E@Z 000000018003215c     libvcruntime:risctrnsctrl.obj
 0002:0000c170       $unwind$?GetRangeOfTrysToCheck@__FrameHandler4@@SA?AU?$pair@Viterator@TryBlockMap4@FH4@@V123@@std@@AEAVTryBlockMap4@FH4@@HPEAU_xDISPATCHER_CONTEXT@@PEAUFuncInfo4@5@H@Z 0000000180032170     libvcruntime:risctrnsctrl.obj
 0002:0000c18c       $unwind$__CxxFrameHandler3 000000018003218c     libvcruntime:risctrnsctrl.obj
 0002:0000c1a0       $unwind$__CxxFrameHandler4 00000001800321a0     libvcruntime:risctrnsctrl.obj
 0002:0000c1b4       $unwind$??$_CallSETranslator@V__FrameHandler4@@@@YAHPEAUEHExceptionRecord@@PEA_KPEAU_CONTEXT@@PEAU_xDISPATCHER_CONTEXT@@PEAUFuncInfo4@FH4@@K1H@Z 00000001800321b4     libvcruntime:risctrnsctrl.obj
 0002:0000c1d4       $unwind$?filt$0@?0???$_CallSETranslator@V__FrameHandler3@@@@YAHPEAUEHExceptionRecord@@PEA_KPEAU_CONTEXT@@PEAU_xDISPATCHER_CONTEXT@@PEBU_s_FuncInfo@@K1H@Z@4HA 00000001800321d4     libvcruntime:risctrnsctrl.obj
 0002:0000c1d4       $unwind$?filt$0@?0???$_CallSETranslator@V__FrameHandler4@@@@YAHPEAUEHExceptionRecord@@PEA_KPEAU_CONTEXT@@PEAU_xDISPATCHER_CONTEXT@@PEAUFuncInfo4@FH4@@K1H@Z@4HA 00000001800321d4     libvcruntime:risctrnsctrl.obj
 0002:0000c1e0       $unwind$??$_CallSETranslator@V__FrameHandler3@@@@YAHPEAUEHExceptionRecord@@PEA_KPEAU_CONTEXT@@PEAU_xDISPATCHER_CONTEXT@@PEBU_s_FuncInfo@@K1H@Z 00000001800321e0     libvcruntime:risctrnsctrl.obj
 0002:0000c200       $unwind$__DestructExceptionObject 0000000180032200     libvcruntime:ehhelpers.obj
 0002:0000c220       $unwind$__DestructExceptionObject$filt$0 0000000180032220     libvcruntime:ehhelpers.obj
 0002:0000c220       $unwind$?fin$1@?0??CxxCallCatchBlock@__FrameHandler3@@SAPEAXPEAU_EXCEPTION_RECORD@@@Z@4HA 0000000180032220     libvcruntime:frame.obj
 0002:0000c220       $unwind$?fin$1@?0??CxxCallCatchBlock@__FrameHandler4@@SAPEAXPEAU_EXCEPTION_RECORD@@@Z@4HA 0000000180032220     libvcruntime:frame.obj
 0002:0000c22c       $unwind$_CxxThrowException 000000018003222c     libvcruntime:throw.obj
 0002:0000c240       $xdatasym                  0000000180032240     libvcruntime:notify.obj
 0002:0000c24c       $unwind$?getStartStop@UWMap4@FH4@@QEAAXHHAEAViterator@12@0@Z 000000018003224c     libvcruntime:frame.obj
 0002:0000c264       $unwind$?FrameUnwindToState@__FrameHandler3@@SAXPEA_KPEAU_xDISPATCHER_CONTEXT@@PEBU_s_FuncInfo@@H@Z 0000000180032264     libvcruntime:frame.obj
 0002:0000c2b0       $unwind$?CxxCallCatchBlock@__FrameHandler3@@SAPEAXPEAU_EXCEPTION_RECORD@@@Z 00000001800322b0     libvcruntime:frame.obj
 0002:0000c2ec       $unwind$?FrameUnwindToState@__FrameHandler4@@SAXPEA_KPEAU_xDISPATCHER_CONTEXT@@PEAUFuncInfo4@FH4@@H@Z 00000001800322ec     libvcruntime:frame.obj
 0002:0000c334       $unwind$?CxxCallCatchBlock@__FrameHandler4@@SAPEAXPEAU_EXCEPTION_RECORD@@@Z 0000000180032334     libvcruntime:frame.obj
 0002:0000c390       $unwind$?IsInExceptionSpec@@YAEPEAUEHExceptionRecord@@PEBU_s_ESTypeList@@@Z 0000000180032390     libvcruntime:frame.obj
 0002:0000c3ac       $unwind$??$__InternalCxxFrameHandler@V__FrameHandler4@@@@YA?AW4_EXCEPTION_DISPOSITION@@PEAUEHExceptionRecord@@PEA_KPEAU_CONTEXT@@PEAU_xDISPATCHER_CONTEXT@@PEAUFuncInfo4@FH4@@H1E@Z 00000001800323ac     libvcruntime:frame.obj
 0002:0000c3c4       $unwind$??$BuildCatchObjectHelperInternal@V__FrameHandler3@@@@YAHPEAUEHExceptionRecord@@PEAXPEBU_s_HandlerType@@PEBU_s_CatchableType@@@Z 00000001800323c4     libvcruntime:frame.obj
 0002:0000c404       $unwind$??$BuildCatchObjectHelperInternal@V__FrameHandler4@@@@YAHPEAUEHExceptionRecord@@PEAXPEAUHandlerType4@FH4@@PEBU_s_CatchableType@@@Z 0000000180032404     libvcruntime:frame.obj
 0002:0000c444       $unwind$??$BuildCatchObjectInternal@V__FrameHandler3@@@@YAXPEAUEHExceptionRecord@@PEAXPEBU_s_HandlerType@@PEBU_s_CatchableType@@@Z 0000000180032444     libvcruntime:frame.obj
 0002:0000c470       $unwind$??$BuildCatchObjectInternal@V__FrameHandler4@@@@YAXPEAUEHExceptionRecord@@PEAXPEAUHandlerType4@FH4@@PEBU_s_CatchableType@@@Z 0000000180032470     libvcruntime:frame.obj
 0002:0000c49c       $unwind$??$FindHandler@V__FrameHandler3@@@@YAXPEAUEHExceptionRecord@@PEA_KPEAU_CONTEXT@@PEAU_xDISPATCHER_CONTEXT@@PEBU_s_FuncInfo@@EH1@Z 000000018003249c     libvcruntime:frame.obj
 0002:0000c4bc       $unwind$??$FindHandler@V__FrameHandler4@@@@YAXPEAUEHExceptionRecord@@PEA_KPEAU_CONTEXT@@PEAU_xDISPATCHER_CONTEXT@@PEAUFuncInfo4@FH4@@EH1@Z 00000001800324bc     libvcruntime:frame.obj
 0002:0000c4dc       $unwind$??$CatchIt@V__FrameHandler3@@@@YAXPEAUEHExceptionRecord@@PEA_KPEAU_CONTEXT@@PEAU_xDISPATCHER_CONTEXT@@PEBU_s_FuncInfo@@PEBU_s_HandlerType@@PEBU_s_CatchableType@@PEBU_s_TryBlockMapEntry@@H1EE@Z 00000001800324dc     libvcruntime:frame.obj
 0002:0000c4dc       $unwind$??$CatchIt@V__FrameHandler4@@@@YAXPEAUEHExceptionRecord@@PEA_KPEAU_CONTEXT@@PEAU_xDISPATCHER_CONTEXT@@PEAUFuncInfo4@FH4@@PEAUHandlerType4@4@PEBU_s_CatchableType@@PEAUTryBlockMapEntry4@4@H1EE@Z 00000001800324dc     libvcruntime:frame.obj
 0002:0000c4f4       $unwind$??$FindHandlerForForeignException@V__FrameHandler3@@@@YAXPEAUEHExceptionRecord@@PEA_KPEAU_CONTEXT@@PEAU_xDISPATCHER_CONTEXT@@PEBU_s_FuncInfo@@HH1@Z 00000001800324f4     libvcruntime:frame.obj
 0002:0000c510       $unwind$??$FindHandlerForForeignException@V__FrameHandler4@@@@YAXPEAUEHExceptionRecord@@PEA_KPEAU_CONTEXT@@PEAU_xDISPATCHER_CONTEXT@@PEAUFuncInfo4@FH4@@HH1@Z 0000000180032510     libvcruntime:frame.obj
 0002:0000c530       $unwind$?try_get_function@@YAPEAXW4function_id@?A0x391cf84c@@QEBDQEBW4module_id@2@2@Z 0000000180032530     libucrt:winapi_thunks.obj
 0002:0000c530       $unwind$?try_get_function@@YAPEAXW4function_id@?A0xbc0cc709@@QEBDQEBW4module_id@2@2@Z 0000000180032530     libvcruntime:winapi_downlevel.obj
 0002:0000c550       $xdatasym                  0000000180032550     libvcruntime:handlers.obj
 0002:0000c570       $unwind$__acrt_call_reportfault 0000000180032570     libucrt:invalid_parameter.obj
 0002:0000c590       $unwind$_invalid_parameter 0000000180032590     libucrt:invalid_parameter.obj
 0002:0000c59c       $unwind$_resetstkoflw      000000018003259c     libucrt:resetstk.obj
 0002:0000c5c0       $unwind$__stdio_common_vswprintf_s 00000001800325c0     libucrt:output.obj
 0002:0000c5d4       $unwind$?write_string@?$string_output_adapter@_W@__crt_stdio_output@@QEBAXQEB_WHQEAHAEAV__crt_cached_ptd_host@@@Z 00000001800325d4     libucrt:output.obj
 0002:0000c5ec       $unwind$??$common_vsprintf@Vformat_validation_base@__crt_stdio_output@@_W@@YAH_KQEA_W0QEB_WAEAV__crt_cached_ptd_host@@QEAD@Z 00000001800325ec     libucrt:output.obj
 0002:0000c60c       $unwind$?parse_int_from_format_string@?$output_processor@_WV?$string_output_adapter@_W@__crt_stdio_output@@V?$format_validation_base@_WV?$string_output_adapter@_W@__crt_stdio_output@@@2@@__crt_stdio_output@@AEAA_NQEAH@Z 000000018003260c     libucrt:output.obj
 0002:0000c620       $unwind$?state_case_type@?$output_processor@_WV?$string_output_adapter@_W@__crt_stdio_output@@V?$format_validation_base@_WV?$string_output_adapter@_W@__crt_stdio_output@@@2@@__crt_stdio_output@@AEAA_NXZ 0000000180032620     libucrt:output.obj
 0002:0000c644       $unwind$?type_case_a@?$output_processor@_WV?$string_output_adapter@_W@__crt_stdio_output@@V?$format_validation_base@_WV?$string_output_adapter@_W@__crt_stdio_output@@@2@@__crt_stdio_output@@AEAA_NXZ 0000000180032644     libucrt:output.obj
 0002:0000c658       $unwind$??$parse_integer@KV?$c_string_character_source@_W@__crt_strtox@@$0A@@__crt_strtox@@YAKAEAV__crt_cached_ptd_host@@V?$c_string_character_source@_W@0@H_N@Z 0000000180032658     libucrt:output.obj
 0002:0000c674       $unwind$?try_cor_exit_process@@YAXI@Z 0000000180032674     libucrt:exit.obj
 0002:0000c688       $ip2state$?try_cor_exit_process@@YAXI@Z 0000000180032688     libucrt:exit.obj
 0002:0000c690       $unwind$?common_exit@@YAXHW4_crt_exit_cleanup_mode@@W4_crt_exit_return_mode@@@Z 0000000180032690     libucrt:exit.obj
 0002:0000c6a4       $stateUnwindMap$__dcrt_uninitialize_environments_nolock 00000001800326a4     libucrt:environment_initialization.obj
 0002:0000c6a4       $stateUnwindMap$?common_exit@@YAXHW4_crt_exit_cleanup_mode@@W4_crt_exit_return_mode@@@Z 00000001800326a4     libucrt:exit.obj
 0002:0000c6a4       $stateUnwindMap$_execute_onexit_table 00000001800326a4     libucrt:onexit.obj
 0002:0000c6b0       $ip2state$?common_exit@@YAXHW4_crt_exit_cleanup_mode@@W4_crt_exit_return_mode@@@Z 00000001800326b0     libucrt:exit.obj
 0002:0000c6b8       $unwind$??R<lambda_6e4b09c48022b2350581041d5f6b0c4c>@@QEBA@XZ 00000001800326b8     libucrt:exit.obj
 0002:0000c6d8       $unwind$??$?RV<lambda_d80eeec6fff315bfe5c115232f3240e3>@@AEAV<lambda_6e4b09c48022b2350581041d5f6b0c4c>@@V<lambda_2358e3775559c9db80273638284d5e45>@@@?$__crt_seh_guarded_call@X@@QEAAX$$QEAV<lambda_d80eeec6fff315bfe5c115232f3240e3>@@AEAV<lambda_6e4b09c48022b2350581041d5f6b0c4c>@@$$QEAV<lambda_2358e3775559c9db80273638284d5e45>@@@Z 00000001800326d8     libucrt:exit.obj
 0002:0000c6fc       $unwind$__dcrt_uninitialize_environments_nolock 00000001800326fc     libucrt:environment_initialization.obj
 0002:0000c70c       $unwind$??$free_environment@D@@YAXQEAPEAD@Z 000000018003270c     libucrt:environment_initialization.obj
 0002:0000c70c       $unwind$??$free_environment@_W@@YAXQEAPEA_W@Z 000000018003270c     libucrt:environment_initialization.obj
 0002:0000c70c       $unwind$_initterm          000000018003270c     libucrt:initterm.obj
 0002:0000c718       $unwind$_register_onexit_function 0000000180032718     libucrt:onexit.obj
 0002:0000c720       $unwind$_execute_onexit_table 0000000180032720     libucrt:onexit.obj
 0002:0000c730       $ip2state$_execute_onexit_table 0000000180032730     libucrt:onexit.obj
 0002:0000c738       $unwind$??R<lambda_22ebabd17bc4fa466a2aca6d8deb888d>@@QEBAHXZ 0000000180032738     libucrt:onexit.obj
 0002:0000c750       $unwind$??$?RV<lambda_638799b9deba96c50f710eeac98168cd>@@AEAV<lambda_22ebabd17bc4fa466a2aca6d8deb888d>@@V<lambda_a6f7d7db0129f75315ebf26d50c089f1>@@@?$__crt_seh_guarded_call@H@@QEAAH$$QEAV<lambda_638799b9deba96c50f710eeac98168cd>@@AEAV<lambda_22ebabd17bc4fa466a2aca6d8deb888d>@@$$QEAV<lambda_a6f7d7db0129f75315ebf26d50c089f1>@@@Z 0000000180032750     libucrt:onexit.obj
 0002:0000c774       $unwind$??$?RV<lambda_7777bce6b2f8c936911f934f8298dc43>@@AEAV<lambda_f03950bc5685219e0bcd2087efbe011e>@@V<lambda_3883c3dff614d5e0c5f61bb1ac94921c>@@@?$__crt_seh_guarded_call@H@@QEAAH$$QEAV<lambda_7777bce6b2f8c936911f934f8298dc43>@@AEAV<lambda_f03950bc5685219e0bcd2087efbe011e>@@$$QEAV<lambda_3883c3dff614d5e0c5f61bb1ac94921c>@@@Z 0000000180032774     libucrt:onexit.obj
 0002:0000c798       $unwind$_query_new_handler 0000000180032798     libucrt:new_handler.obj
 0002:0000c7b8       $unwind$terminate          00000001800327b8     libucrt:terminate.obj
 0002:0000c7d8       $xdatasym                  00000001800327d8     libucrt:strncmp.obj
 0002:0000c7dc       $unwind$?construct_ptd_array@@YAXQEAU__acrt_ptd@@@Z 00000001800327dc     libucrt:per_thread_data.obj
 0002:0000c7e4       $unwind$?destroy_ptd_array@@YAXQEAU__acrt_ptd@@@Z 00000001800327e4     libucrt:per_thread_data.obj
 0002:0000c7ec       $unwind$??$?RV<lambda_0ae27a3a962d80f24befdcbee591983d>@@AEAV<lambda_8d0ee55de4b1038c4002e0adecdf1839>@@V<lambda_dc504788e8f1664fe9b84e20bfb512f2>@@@?$__crt_seh_guarded_call@X@@QEAAX$$QEAV<lambda_0ae27a3a962d80f24befdcbee591983d>@@AEAV<lambda_8d0ee55de4b1038c4002e0adecdf1839>@@$$QEAV<lambda_dc504788e8f1664fe9b84e20bfb512f2>@@@Z 00000001800327ec     libucrt:per_thread_data.obj
 0002:0000c810       $unwind$??$?RV<lambda_aa87e3671a710a21b5dc78c0bdf72e11>@@AEAV<lambda_92619d2358a28f41a33ba319515a20b9>@@V<lambda_6992ecaafeb10aed2b74cb1fae11a551>@@@?$__crt_seh_guarded_call@X@@QEAAX$$QEAV<lambda_aa87e3671a710a21b5dc78c0bdf72e11>@@AEAV<lambda_92619d2358a28f41a33ba319515a20b9>@@$$QEAV<lambda_6992ecaafeb10aed2b74cb1fae11a551>@@@Z 0000000180032810     libucrt:per_thread_data.obj
 0002:0000c834       $unwind$??$?RV<lambda_f2e299630e499de9f9a165e60fcd3db5>@@AEAV<lambda_2ae9d31cdba2644fcbeaf08da7c24588>@@V<lambda_40d01ff24d0e7b3814fdbdcee8eab3c7>@@@?$__crt_seh_guarded_call@X@@QEAAX$$QEAV<lambda_f2e299630e499de9f9a165e60fcd3db5>@@AEAV<lambda_2ae9d31cdba2644fcbeaf08da7c24588>@@$$QEAV<lambda_40d01ff24d0e7b3814fdbdcee8eab3c7>@@@Z 0000000180032834     libucrt:per_thread_data.obj
 0002:0000c858       $unwind$??$?RV<lambda_2d41944a1d46af3157314b8a01080d33>@@AEAV<lambda_8f455de75cd7d7f24b4096f044d8b9e6>@@V<lambda_aa500f224e6afead328df44964fe2772>@@@?$__crt_seh_guarded_call@X@@QEAAX$$QEAV<lambda_2d41944a1d46af3157314b8a01080d33>@@AEAV<lambda_8f455de75cd7d7f24b4096f044d8b9e6>@@$$QEAV<lambda_aa500f224e6afead328df44964fe2772>@@@Z 0000000180032858     libucrt:per_thread_data.obj
 0002:0000c87c       $unwind$__acrt_uninitialize_locale 000000018003287c     libucrt:wsetlocale.obj
 0002:0000c87c       $unwind$__acrt_get_sigabrt_handler 000000018003287c     libucrt:signal.obj
 0002:0000c884       $unwind$??$?RV<lambda_410d79af7f07d98d83a3f525b3859a53>@@AEAV<lambda_3e16ef9562a7dcce91392c22ab16ea36>@@V<lambda_38119f0e861e05405d8a144b9b982f0a>@@@?$__crt_seh_guarded_call@X@@QEAAX$$QEAV<lambda_410d79af7f07d98d83a3f525b3859a53>@@AEAV<lambda_3e16ef9562a7dcce91392c22ab16ea36>@@$$QEAV<lambda_38119f0e861e05405d8a144b9b982f0a>@@@Z 0000000180032884     libucrt:wsetlocale.obj
 0002:0000c8ac       $unwind$__acrt_initialize_winapi_thunks 00000001800328ac     libucrt:winapi_thunks.obj
 0002:0000c8ac       $unwind$__acrt_fenv_get_control 00000001800328ac     libucrt:_fenvutils.obj
 0002:0000c8b4       $unwind$__acrt_fp_format   00000001800328b4     libucrt:cvt.obj
 0002:0000c8c4       $unwind$?fp_format_e_internal@@YAHQEAD_KH_NIQEAU_strflt@@2AEAV__crt_cached_ptd_host@@@Z 00000001800328c4     libucrt:cvt.obj
 0002:0000c8e0       $unwind$?fp_format_a@@YAHQEBNPEAD_KQEAD2H_NIW4__acrt_rounding_mode@@AEAV__crt_cached_ptd_host@@@Z 00000001800328e0     libucrt:cvt.obj
 0002:0000c8fc       $unwind$?fp_format_g@@YAHQEBNQEAD_K12H_NIW4__acrt_rounding_mode@@AEAV__crt_cached_ptd_host@@@Z 00000001800328fc     libucrt:cvt.obj
 0002:0000c914       $unwind$__acrt_initialize_lowio 0000000180032914     libucrt:ioinit.obj
 0002:0000c934       $unwind$??$common_expand_argv_wildcards@D@@YAHQEAPEADQEAPEAPEAD@Z 0000000180032934     libucrt:argv_wildcards.obj
 0002:0000c94c       $unwind$__dcrt_get_narrow_environment_from_os 000000018003294c     libucrt:get_environment_from_os.obj
 0002:0000c94c       $unwind$??$__acrt_convert_wcs_mbs_cp@_WDV<lambda_d8593a27d1aa8c02be35c86a17d324c4>@@U__crt_win32_buffer_internal_dynamic_resizing@@@@YAHQEB_WAEAV?$__crt_win32_buffer@DU__crt_win32_buffer_internal_dynamic_resizing@@@@AEBV<lambda_d8593a27d1aa8c02be35c86a17d324c4>@@I@Z 000000018003294c     libucrt:argv_wildcards.obj
 0002:0000c964       $unwind$??$copy_and_add_argument_to_buffer@D@@YAHQEBD0_KAEAV?$argument_list@D@?A0x5f5c8891@@@Z 0000000180032964     libucrt:argv_wildcards.obj
 0002:0000c980       $unwind$??$expand_argument_wildcards@D@@YAHQEAD0AEAV?$argument_list@D@?A0x5f5c8891@@@Z 0000000180032980     libucrt:argv_wildcards.obj
 0002:0000c9a0       $unwind$__acrt_GetModuleFileNameA 00000001800329a0     libucrt:getmodulefilenamea.obj
 0002:0000c9bc       $unwind$_setmbcp_nolock    00000001800329bc     libucrt:mbctype.obj
 0002:0000c9dc       $unwind$?update_thread_multibyte_data_internal@@YAPEAU__crt_multibyte_data@@QEAU__acrt_ptd@@QEAPEAU1@@Z 00000001800329dc     libucrt:mbctype.obj
 0002:0000ca04       $unwind$?setmbcp_internal@@YAHH_NQEAU__acrt_ptd@@QEAPEAU__crt_multibyte_data@@@Z 0000000180032a04     libucrt:mbctype.obj
 0002:0000ca1c       $unwind$?setSBUpLow@@YAXPEAU__crt_multibyte_data@@@Z 0000000180032a1c     libucrt:mbctype.obj
 0002:0000ca38       $unwind$??$?RV<lambda_efdfa57d1f175319df784efa44bb7b81>@@AEAV<lambda_5f0a4c1567f8adc6734073e5d1e1b35c>@@V<lambda_2e8a7d3640ea6ccb4c2413664c2db6fd>@@@?$__crt_seh_guarded_call@X@@QEAAX$$QEAV<lambda_efdfa57d1f175319df784efa44bb7b81>@@AEAV<lambda_5f0a4c1567f8adc6734073e5d1e1b35c>@@$$QEAV<lambda_2e8a7d3640ea6ccb4c2413664c2db6fd>@@@Z 0000000180032a38     libucrt:mbctype.obj
 0002:0000ca5c       $unwind$__acrt_WideCharToMultiByte 0000000180032a5c     libucrt:widechartomultibyte.obj
 0002:0000ca68       $unwind$raise              0000000180032a68     libucrt:signal.obj
 0002:0000caa4       $unwind$??$?RV<lambda_450d765d439847d4c735a33c368b5fc0>@@AEAV<lambda_44731a7d0e6d81c3e6aa82d741081786>@@V<lambda_601a2a7da3b7a96e9554ac7215c4b07c>@@@?$__crt_seh_guarded_call@P6AXH@Z@@QEAAP6AXH@Z$$QEAV<lambda_450d765d439847d4c735a33c368b5fc0>@@AEAV<lambda_44731a7d0e6d81c3e6aa82d741081786>@@$$QEAV<lambda_601a2a7da3b7a96e9554ac7215c4b07c>@@@Z 0000000180032aa4     libucrt:signal.obj
 0002:0000cac8       $unwind$fclose             0000000180032ac8     libucrt:fclose.obj
 0002:0000cac8       $unwind$_fflush_nolock     0000000180032ac8     libucrt:fflush.obj
 0002:0000cad8       $unwind$?common_flush_all@@YAH_N@Z 0000000180032ad8     libucrt:fflush.obj
 0002:0000cae0       $unwind$??$?RV<lambda_842d9ff0dc9ef11c61343bbaebe7f885>@@AEAV<lambda_c5860995281e5c4ce005b3de8f5874ee>@@V<lambda_d90129c13df834fdcbf8d2b88dafcf2d>@@@?$__crt_seh_guarded_call@X@@QEAAX$$QEAV<lambda_842d9ff0dc9ef11c61343bbaebe7f885>@@AEAV<lambda_c5860995281e5c4ce005b3de8f5874ee>@@$$QEAV<lambda_d90129c13df834fdcbf8d2b88dafcf2d>@@@Z 0000000180032ae0     libucrt:fflush.obj
 0002:0000cb04       $unwind$??$?RV<lambda_886d6c58226a84441f68b9f2b8217b83>@@AEAV<lambda_ab61a845afdef5b7c387490eaf3616ee>@@V<lambda_f7f22ab5edc0698d5f6905b0d3f44752>@@@?$__crt_seh_guarded_call@X@@QEAAX$$QEAV<lambda_886d6c58226a84441f68b9f2b8217b83>@@AEAV<lambda_ab61a845afdef5b7c387490eaf3616ee>@@$$QEAV<lambda_f7f22ab5edc0698d5f6905b0d3f44752>@@@Z 0000000180032b04     libucrt:fflush.obj
 0002:0000cb2c       $unwind$__acrt_update_thread_locale_data 0000000180032b2c     libucrt:locale_refcounting.obj
 0002:0000cb50       $unwind$__acrt_locale_free_monetary 0000000180032b50     libucrt:initmon.obj
 0002:0000cb58       $unwind$__acrt_locale_free_time 0000000180032b58     libucrt:inittime.obj
 0002:0000cb68       $unwind$__acrt_GetStringTypeA 0000000180032b68     libucrt:getstringtypea.obj
 0002:0000cb90       $unwind$__acrt_fp_strflt_to_string 0000000180032b90     libucrt:_fptostr.obj
 0002:0000cbac       $unwind$__acrt_fltout      0000000180032bac     libucrt:cfout.obj
 0002:0000cbcc       $unwind$?divide@__crt_strtox@@YA_KAEAUbig_integer@1@AEBU21@@Z 0000000180032bcc     libucrt:cfout.obj
 0002:0000cbe4       $chain$0$?divide@__crt_strtox@@YA_KAEAUbig_integer@1@AEBU21@@Z 0000000180032be4     libucrt:cfout.obj
 0002:0000cbf8       $chain$1$?divide@__crt_strtox@@YA_KAEAUbig_integer@1@AEBU21@@Z 0000000180032bf8     libucrt:cfout.obj
 0002:0000cc08       $unwind$?__mbsrtowcs_utf8@__crt_mbstring@@YA_KPEA_WPEAPEBD_KPEAU_Mbstatet@@AEAV__crt_cached_ptd_host@@@Z 0000000180032c08     libucrt:mbrtowc.obj
 0002:0000cc20       $unwind$_fcloseall         0000000180032c20     libucrt:closeall.obj
 0002:0000cc44       $unwind$__acrt_lowio_destroy_handle_array 0000000180032c44     libucrt:osfinfo.obj
 0002:0000cc54       $unwind$__acrt_lowio_ensure_fh_exists 0000000180032c54     libucrt:osfinfo.obj
 0002:0000cc80       $unwind$qsort              0000000180032c80     libucrt:qsort.obj
 0002:0000cc98       $chain$4$qsort             0000000180032c98     libucrt:qsort.obj
 0002:0000ccbc       $chain$5$qsort             0000000180032cbc     libucrt:qsort.obj
 0002:0000cccc       $unwind$strpbrk            0000000180032ccc     libucrt:strpbrk.obj
 0002:0000ccdc       $unwind$fallbackMethod     0000000180032cdc     libucrt:strpbrk.obj
 0002:0000ccec       $unwind$__acrt_LCMapStringA 0000000180032cec     libucrt:lcmapstringa.obj
 0002:0000ccfc       $unwind$?__acrt_LCMapStringA_stat@@YAHPEAU__crt_locale_pointers@@PEB_WKPEBDHPEADHHH@Z 0000000180032cfc     libucrt:lcmapstringa.obj
 0002:0000cd24       $unwind$_commit            0000000180032d24     libucrt:commit.obj
 0002:0000cd2c       $unwind$??$?RV<lambda_a37b2b86f63e897a80ea819b0eb08c01>@@AEAV<lambda_38ce7e780aa69e748d6df282ebc68efe>@@V<lambda_99fb1378e971ab6e7edea83e3a7a83a2>@@@?$__crt_seh_guarded_call@H@@QEAAH$$QEAV<lambda_a37b2b86f63e897a80ea819b0eb08c01>@@AEAV<lambda_38ce7e780aa69e748d6df282ebc68efe>@@$$QEAV<lambda_99fb1378e971ab6e7edea83e3a7a83a2>@@@Z 0000000180032d2c     libucrt:commit.obj
 0002:0000cd50       $unwind$_write_nolock      0000000180032d50     libucrt:write.obj
 0002:0000cd68       $unwind$_write_internal    0000000180032d68     libucrt:write.obj
 0002:0000cd98       $unwind$?write_double_translated_ansi_nolock@@YA?AUwrite_result@?A0x17268360@@HQEBDIAEAV__crt_cached_ptd_host@@@Z 0000000180032d98     libucrt:write.obj
 0002:0000cdc0       $ip2state$?write_double_translated_ansi_nolock@@YA?AUwrite_result@?A0x17268360@@HQEBDIAEAV__crt_cached_ptd_host@@@Z 0000000180032dc0     libucrt:write.obj
 0002:0000cdc8       $unwind$?write_text_ansi_nolock@@YA?AUwrite_result@?A0x17268360@@HQEBDI@Z 0000000180032dc8     libucrt:write.obj
 0002:0000cdc8       $unwind$?write_text_utf16le_nolock@@YA?AUwrite_result@?A0x17268360@@HQEBDI@Z 0000000180032dc8     libucrt:write.obj
 0002:0000cde8       $unwind$?write_text_utf8_nolock@@YA?AUwrite_result@?A0x17268360@@HQEBDI@Z 0000000180032de8     libucrt:write.obj
 0002:0000ce10       $xdatasym                  0000000180032e10     libucrt:log10.obj
 0002:0000ce1c       $unwind$__acrt_fenv_set_control 0000000180032e1c     libucrt:_fenvutils.obj
 0002:0000ce2c       $unwind$?__mbrtoc32_utf8@__crt_mbstring@@YA_KPEA_UPEBD_KPEAU_Mbstatet@@AEAV__crt_cached_ptd_host@@@Z 0000000180032e2c     libucrt:mbrtoc32.obj
 0002:0000ce48       $unwind$?_fclose_nolock_internal@@YAHQEAU_iobuf@@AEAV__crt_cached_ptd_host@@@Z 0000000180032e48     libucrt:fclose.obj
 0002:0000ce58       $unwind$?_fclose_internal@@YAHQEAU_iobuf@@AEAV__crt_cached_ptd_host@@@Z 0000000180032e58     libucrt:fclose.obj
 0002:0000ce7c       $unwind$_putwch_nolock     0000000180032e7c     libucrt:putwch.obj
 0002:0000ce84       $unwind$common_control87   0000000180032e84     libucrt:ieee.obj
 0002:0000ceb0       $unwind$_call_matherr      0000000180032eb0     libucrt:libm_error.obj
 0002:0000ceb8       $unwind$_handle_error      0000000180032eb8     libucrt:libm_error.obj
 0002:0000ced8       $unwind$__acrt_initialize_fma3 0000000180032ed8     libucrt:fma3_available.obj
 0002:0000cee0       $unwind$_log_special_common 0000000180032ee0     libucrt:log_special.obj
 0002:0000ceec       $unwind$_close_internal    0000000180032eec     libucrt:close.obj
 0002:0000cef4       $unwind$??$?RV<lambda_ad8af0d99a0adf03d037d7dffe354bb5>@@AEAV<lambda_c9ba49e555ba839a7b07aa3fbecb7617>@@V<lambda_2f1ebd5d68526518146ae959c9e734c8>@@@?$__crt_seh_guarded_call@H@@QEAAH$$QEAV<lambda_ad8af0d99a0adf03d037d7dffe354bb5>@@AEAV<lambda_c9ba49e555ba839a7b07aa3fbecb7617>@@$$QEAV<lambda_2f1ebd5d68526518146ae959c9e734c8>@@@Z 0000000180032ef4     libucrt:close.obj
 0002:0000cf18       $xdatasym                  0000000180032f18     libucrt:fpsr.obj
 0002:0000cf20       $unwind$_raise_exc_ex      0000000180032f20     libucrt:fpexcept.obj
 0002:0000cf34       $unwind$_ctrlfp            0000000180032f34     libucrt:fpctrl.obj
 0002:0000cf5c       $unwind$_IsNonwritableInCurrentImage 0000000180032f5c     LIBCMT:pesect.obj
 0002:0000cf80       $unwind$strrchr            0000000180032f80     libvcruntime:strrchr.obj
 0002:0000d0f0       .edata                     00000001800330f0     OPOSVideoCapture.exp
 0002:0000d118       rgpv                       0000000180033118     OPOSVideoCapture.exp
 0002:0000d128       rgszName                   0000000180033128     OPOSVideoCapture.exp
 0002:0000d138       rgwOrd                     0000000180033138     OPOSVideoCapture.exp
 0002:0000d140       szName                     0000000180033140     OPOSVideoCapture.exp
 0002:0000d155       $N00001                    0000000180033155     OPOSVideoCapture.exp
 0002:0000d165       $N00002                    0000000180033165     OPOSVideoCapture.exp
 0002:0000d177       $N00003                    0000000180033177     OPOSVideoCapture.exp
 0002:0000d189       $N00004                    0000000180033189     OPOSVideoCapture.exp
 0002:0000dada       .idata$6                   0000000180033ada     kernel32:KERNEL32.dll
 0002:0000dcf2       .idata$6                   0000000180033cf2     user32:USER32.dll
 0002:0000de26       .idata$6                   0000000180033e26     gdi32:GDI32.dll
 0002:0000decc       .idata$6                   0000000180033ecc     advapi32:ADVAPI32.dll
 0002:0000dfe8       .idata$6                   0000000180033fe8     ole32:ole32.dll
 0002:0000dff2       .idata$6                   0000000180033ff2     oleaut32:OLEAUT32.dll
 0003:000001c0       ?ObjectMap@@3PAU_ATL_OBJMAP_ENTRY30@ATL@@A 00000001800351c0     VideoCapture.obj
 0003:000002b0       ?s_SOMethodNames@@3PAPEADA 00000001800352b0     VideoCaptureImpl.obj
 0003:00000358       ?s_RequiredMethodsPerRelease@@3PAHA 0000000180035358     VideoCaptureImpl.obj
 0003:000003a0       ?__vcrt_flsindex@@3KA      00000001800353a0     libvcruntime:per_thread_data.obj
 0003:000003b0       ?errno_no_memory@@3HA      00000001800353b0     libucrt:errno.obj
 0003:000003b4       ?doserrno_no_memory@@3KA   00000001800353b4     libucrt:errno.obj
 0003:000003c0       ?__acrt_flsindex@@3KA      00000001800353c0     libucrt:per_thread_data.obj
 0003:00000880       _mbctypes                  0000000180035880     libucrt:mbctype.obj
 0003:00000990       _mbcasemaps                0000000180035990     libucrt:mbctype.obj
 0003:00000a90       ?__rgctypeflag@@3PADA      0000000180035a90     libucrt:mbctype.obj
 0003:00000aa0       ?__rgcode_page_info@@3PAUcode_page_info@@A 0000000180035aa0     libucrt:mbctype.obj
 0003:00000d40       ?dazSupported@?1??common_control87@@9@9 0000000180035d40     libucrt:ieee.obj
 0003:00000d50       ?__dcrt_lowio_console_output_handle@@3PEAXEA 0000000180035d50     libucrt:initcon.obj
 0003:00000d60       ?dazSupported@?1??_ctrlfp@@9@9 0000000180035d60     libucrt:fpctrl.obj
 0003:00000fb0       ?is_initialized_as_dll@@3_NA 0000000180035fb0     LIBCMT:utility.obj
 0003:00000fb1       ?module_local_atexit_table_initialized@@3_NA 0000000180035fb1     LIBCMT:utility.obj
 0003:00000fb8       ?module_local_atexit_table@@3U_onexit_table_t@@A 0000000180035fb8     LIBCMT:utility.obj
 0003:00000fd0       ?module_local_at_quick_exit_table@@3U_onexit_table_t@@A 0000000180035fd0     LIBCMT:utility.obj
 0003:00000fe8       ?g_tss_cv@@3U_RTL_CONDITION_VARIABLE@@A 0000000180035fe8     LIBCMT:thread_safe_statics.obj
 0003:00000ff0       ?g_tss_event@@3PEAXEA      0000000180035ff0     LIBCMT:thread_safe_statics.obj
 0003:00000ff8       ?g_tss_mutex@@3U_RTL_CRITICAL_SECTION@@A 0000000180035ff8     LIBCMT:thread_safe_statics.obj
 0003:00001020       ?g_sleep_condition_variable_cs@@3P6AHPEAU_RTL_CONDITION_VARIABLE@@PEAU_RTL_CRITICAL_SECTION@@K@ZEA 0000000180036020     LIBCMT:thread_safe_statics.obj
 0003:00001028       ?g_wake_all_condition_variable@@3P6AXPEAU_RTL_CONDITION_VARIABLE@@@ZEA 0000000180036028     LIBCMT:thread_safe_statics.obj
 0003:00001030       GS_ExceptionRecord         0000000180036030     LIBCMT:gs_report.obj
 0003:000010d0       GS_ContextRecord           00000001800360d0     LIBCMT:gs_report.obj
 0003:000015a4       ?__proc_attached@@3HA      00000001800365a4     LIBCMT:dll_dllmain.obj
 0003:00001638       ?AllocateData@@3P6APEAUAtlThunkData_t@@XZEA 0000000180036638     atls:atlthunk.obj
 0003:00001640       ?InitData@@3P6AXPEAUAtlThunkData_t@@PEAX_K@ZEA 0000000180036640     atls:atlthunk.obj
 0003:00001648       ?DataToCode@@3P6AP6A_JPEAUHWND__@@I_K_J@ZPEAUAtlThunkData_t@@@ZEA 0000000180036648     atls:atlthunk.obj
 0003:00001650       ?FreeData@@3P6AXPEAUAtlThunkData_t@@@ZEA 0000000180036650     atls:atlthunk.obj
 0003:00001658       ?Initialized@@3_NA         0000000180036658     atls:atlthunk.obj
 0003:00001670       ?__vcrt_startup_thread_ptd@@3U__vcrt_ptd@@A 0000000180036670     libvcruntime:per_thread_data.obj
 0003:000016f0       __vcrt_lock_table          00000001800366f0     libvcruntime:locks.obj
 0003:00001718       __vcrt_locks_initialized   0000000180036718     libvcruntime:locks.obj
 0003:00001760       ?heap@@3V_HeapManager@@A   0000000180036760     libvcruntime:undname.obj
 0003:00001788       ?module_handles@@3PAPEAUHINSTANCE__@@A 0000000180036788     libvcruntime:winapi_downlevel.obj
 0003:000017a0       ?function_pointers@@3PAPEAXA 00000001800367a0     libvcruntime:winapi_downlevel.obj
 0003:000017c8       ?__acrt_invalid_parameter_handler@@3V?$dual_state_global@P6AXPEB_W00I_K@Z@__crt_state_management@@A 00000001800367c8     libucrt:invalid_parameter.obj
 0003:000017d0       ?c_termination_complete@@3JA 00000001800367d0     libucrt:exit.obj
 0003:000017d8       ?thread_local_exit_callback_func@@3P6AXPEAXK0@ZEA 00000001800367d8     libucrt:exit.obj
 0003:000017f0       ?program_name@?1???$common_configure_argv@D@@YAHW4_crt_argv_mode@@@Z@4PADA 00000001800367f0     libucrt:argv_parsing.obj
 0003:00001948       ?__acrt_new_handler@@3V?$dual_state_global@P6AH_K@Z@__crt_state_management@@A 0000000180036948     libucrt:new_handler.obj
 0003:00001960       ?module_handles@@3PAPEAUHINSTANCE__@@A 0000000180036960     libucrt:winapi_thunks.obj
 0003:00001a00       ?encoded_function_pointers@@3PAPEAXA 0000000180036a00     libucrt:winapi_thunks.obj
 0003:00001af0       ?internal_state@?1??_mbtowc_internal@@9@4U_Mbstatet@@A 0000000180036af0     libucrt:mbtowc.obj
 0003:00001b08       ?enable_percent_n@@3_KA    0000000180036b08     libucrt:printf_count_output.obj
 0003:00001f30       ?__acrt_lock_table@@3PAU_RTL_CRITICAL_SECTION@@A 0000000180036f30     libucrt:locks.obj
 0003:00002160       ?__acrt_locks_initialized@@3IA 0000000180037160     libucrt:locks.obj
 0003:00002180       ?fSystemSet@@3HA           0000000180037180     libucrt:mbctype.obj
 0003:00002184       ?initialized@?1??__acrt_initialize_multibyte@@9@4_NA 0000000180037184     libucrt:mbctype.obj
 0003:000021c0       ?ctrlc_action@@3V?$dual_state_global@P6AXH@Z@__crt_state_management@@A 00000001800371c0     libucrt:signal.obj
 0003:000021c8       ?ctrlbreak_action@@3V?$dual_state_global@P6AXH@Z@__crt_state_management@@A 00000001800371c8     libucrt:signal.obj
 0003:000021d0       ?abort_action@@3V?$dual_state_global@P6AXH@Z@__crt_state_management@@A 00000001800371d0     libucrt:signal.obj
 0003:000021d8       ?term_action@@3V?$dual_state_global@P6AXH@Z@__crt_state_management@@A 00000001800371d8     libucrt:signal.obj
 0003:000021e0       ?user_matherr@@3V?$dual_state_global@P6AHPEAU_exception@@@Z@__crt_state_management@@A 00000001800371e0     libucrt:matherr.obj
 0003:000021f0       ?__acrt_global_new_mode@@3V?$dual_state_global@J@__crt_state_management@@A 00000001800371f0     libucrt:new_mode.obj
 0003:000021f8       ?internal_pst@?1??__mbrtoc32_utf8@__crt_mbstring@@YA_KPEA_UPEBD_KPEAU_Mbstatet@@AEAV__crt_cached_ptd_host@@@Z@4U3@A 00000001800371f8     libucrt:mbrtoc32.obj
 0003:00002200       ?__acrt_app_type@@3W4_crt_app_type@@A 0000000180037200     libucrt:report_runtime_error.obj
 0005:00000000       MoveSmall                  000000018003b000     libvcruntime:memcpy.obj
 0005:00000040       MoveSmallYmm               000000018003b040     libvcruntime:memcpy.obj
 0005:00000064       MoveSmallYmmNT             000000018003b064     libvcruntime:memcpy.obj
 0005:00000088       MoveSmallXmm               000000018003b088     libvcruntime:memcpy.obj
 0005:000000b0       MsetTab                    000000018003b0b0     libvcruntime:memset.obj
 0006:00000220       $R000000                   000000018003c220     VideoCapture.res
 0006:00000b68       $R000948                   000000018003cb68     VideoCapture.res
 0006:00000c50       $R000A30                   000000018003cc50     VideoCapture.res
 0006:00000eb8       $R000C98                   000000018003ceb8     VideoCapture.res
 0006:00001388       $R001168                   000000018003d388     VideoCapture.res
 0006:00005850       $R005630                   0000000180041850     VideoCapture.res
 0006:00005888       $R005668                   0000000180041888     VideoCapture.res
