 OPOSCAT

 Timestamp is 61a758ba (Wed Dec  1 20:12:58 2021)

 Preferred load address is 0000000180000000

 Start         Length     Name                   Class
 0001:00000000 000000c0H .text$di                CODE
 0001:000000c0 00024b10H .text$mn                CODE
 0001:00024bd0 00000040H .text$mn$00             CODE
 0001:00024c10 00000660H .text$x                 CODE
 0001:00025270 00000078H .text$yd                CODE
 0002:00000000 00000638H .idata$5                DATA
 0002:00000638 00000030H .00cfg                  DATA
 0002:00000668 00000008H .CRT$XCA                DATA
 0002:00000670 00000008H .CRT$XCL                DATA
 0002:00000678 00000020H .CRT$XCU                DATA
 0002:00000698 00000008H .CRT$XCZ                DATA
 0002:000006a0 00000008H .CRT$XIA                DATA
 0002:000006a8 00000020H .CRT$XIC                DATA
 0002:000006c8 00000008H .CRT$XIZ                DATA
 0002:000006d0 00000008H .CRT$XLA                DATA
 0002:000006d8 00000008H .CRT$XLZ                DATA
 0002:000006e0 00000008H .CRT$XPA                DATA
 0002:000006e8 00000010H .CRT$XPX                DATA
 0002:000006f8 00000008H .CRT$XPXA               DATA
 0002:00000700 00000008H .CRT$XPZ                DATA
 0002:00000708 00000008H .CRT$XTA                DATA
 0002:00000710 00000010H .CRT$XTZ                DATA
 0002:00000718 00000000H .gehcont$y              DATA
 0002:00000718 00000000H .gfids$y                DATA
 0002:00000720 0000a760H .rdata                  DATA
 0002:0000ae80 00000000H .rdata$CastGuardVftablesA DATA
 0002:0000ae80 00000000H .rdata$CastGuardVftablesC DATA
 0002:0000ae80 00000028H .rdata$T                DATA
 0002:0000aea8 00000274H .rdata$r                DATA
 0002:0000b11c 00000048H .rdata$voltmd           DATA
 0002:0000b164 0000042cH .rdata$zzzdbg           DATA
 0002:0000b590 00000008H .rtc$IAA                DATA
 0002:0000b598 00000008H .rtc$IZZ                DATA
 0002:0000b5a0 00000008H .rtc$TAA                DATA
 0002:0000b5a8 00000008H .rtc$TZZ                DATA
 0002:0000b5b0 00000004H .tls                    DATA
 0002:0000b5b4 00000004H .tls$                   DATA
 0002:0000b5b8 00000008H .tls$ZZZ                DATA
 0002:0000b5c0 00001988H .xdata                  DATA
 0002:0000cf48 00000150H .xdata$x                DATA
 0002:0000d098 00000008H ATL$__a                 DATA
 0002:0000d0a0 00000010H ATL$__z                 DATA
 0002:0000d0b0 000000a4H .edata                  DATA
 0002:0000d154 00000078H .idata$2                DATA
 0002:0000d1cc 00000014H .idata$3                DATA
 0002:0000d1e0 00000638H .idata$4                DATA
 0002:0000d818 00000c5cH .idata$6                DATA
 0003:00000000 00000dc8H .data                   DATA
 0003:00000dc8 000000a8H .data$r                 DATA
 0003:00000e70 00000020H .data$rs                DATA
 0003:00000e90 000013ecH .bss                    DATA
 0004:00000000 00002154H .pdata                  DATA
 0005:00000000 000000f4H _RDATA                  DATA
 0006:00000000 00000220H .rsrc$01                DATA
 0006:00000220 000051d0H .rsrc$02                DATA

  Address         Publics by Value              Rva+Base               Lib:Object

 0000:00000000       ___safe_se_handler_table   0000000000000000     <absolute>
 0000:00000000       __guard_longjmp_table      0000000000000000     <absolute>
 0000:00000000       __arm64x_redirection_metadata 0000000000000000     <absolute>
 0000:00000000       __x64_code_ranges_to_entry_points 0000000000000000     <absolute>
 0000:00000000       __guard_iat_table          0000000000000000     <absolute>
 0000:00000000       __guard_fids_count         0000000000000000     <absolute>
 0000:00000000       __guard_iat_count          0000000000000000     <absolute>
 0000:00000000       __guard_longjmp_count      0000000000000000     <absolute>
 0000:00000000       __arm64x_extra_rfe_table   0000000000000000     <absolute>
 0000:00000000       __dynamic_value_reloc_table 0000000000000000     <absolute>
 0000:00000000       __x64_code_ranges_to_entry_points_count 0000000000000000     <absolute>
 0000:00000000       __hybrid_auxiliary_iat     0000000000000000     <absolute>
 0000:00000000       __hybrid_code_map          0000000000000000     <absolute>
 0000:00000000       __hybrid_auxiliary_iat_copy 0000000000000000     <absolute>
 0000:00000000       __arm64x_extra_rfe_table_size 0000000000000000     <absolute>
 0000:00000000       ___safe_se_handler_count   0000000000000000     <absolute>
 0000:00000000       __AbsoluteZero             0000000000000000     <absolute>
 0000:00000000       __guard_check_icall_a64n_fptr 0000000000000000     <absolute>
 0000:00000000       __guard_eh_cont_count      0000000000000000     <absolute>
 0000:00000000       __guard_fids_table         0000000000000000     <absolute>
 0000:00000000       __arm64x_redirection_metadata_count 0000000000000000     <absolute>
 0000:00000000       __enclave_config           0000000000000000     <absolute>
 0000:00000000       __guard_eh_cont_table      0000000000000000     <absolute>
 0000:00000000       __arm64x_native_entrypoint 0000000000000000     <absolute>
 0000:00000000       __hybrid_code_map_count    0000000000000000     <absolute>
 0000:00000100       __guard_flags              0000000000000100     <absolute>
 0000:00000000       __ImageBase                0000000180000000     <linker-defined>
 0001:000000c0       ?DupWide@_CW@@AEAAXXZ      00000001800010c0 f   CWString.obj
 0001:000000e8       ?cw_dup@@YAXPEBDAEAHAEAPEA_W1@Z 00000001800010e8 f   CWString.obj
 0001:000001c8       ?cw_memcpy@@YAHPEA_WPEBDH@Z 00000001800011c8 f   CWString.obj
 0001:00000214       ?cw_strcpy@@YAHPEA_WPEBD@Z 0000000180001214 f   CWString.obj
 0001:00000228       ??0CAtlComModule@ATL@@QEAA@XZ 0000000180001228 f i OposVariant.obj
 0001:000002a8       ??0CAtlWinModule@ATL@@QEAA@XZ 00000001800012a8 f i OposVariant.obj
 0001:00000314       ??0OposDispParms@@QEAA@PEAVOposVariant@@H@Z 0000000180001314 f   OposVariant.obj
 0001:000003bc       ??1OposDispParms@@QEAA@XZ  00000001800013bc f   OposVariant.obj
 0001:000003d4       ??_Estringdispid@CComTypeInfoHolder@ATL@@QEAAPEAXI@Z 00000001800013d4 f i OposVariant.obj
 0001:00000478       ?AtlWinModuleTerm@ATL@@YAJPEAU_ATL_WIN_MODULE70@1@PEAUHINSTANCE__@@@Z 0000000180001478 f i OposVariant.obj
 0001:00000528       ?ChangeBSTR@OposVariant@@QEAAXPEAPEA_WAEAJ@Z 0000000180001528 f   OposVariant.obj
 0001:00000588       ?ChangeCURRENCY@OposVariant@@QEAAXPEATtagCY@@AEAJ@Z 0000000180001588 f   OposVariant.obj
 0001:000005e8       ?ChangeLONG@OposVariant@@QEAAXPEAJAEAJ@Z 00000001800015e8 f   OposVariant.obj
 0001:00000644       ?GetLONG@OposVariant@@QEAAJXZ 0000000180001644 f   OposVariant.obj
 0001:00000668       ?SetBSTR@OposVariant@@QEAAXPEA_WAEAJ@Z 0000000180001668 f   OposVariant.obj
 0001:000006a8       ?SetBSTR_Copy@OposVariant@@QEAAXPEA_WAEAJ@Z 00000001800016a8 f   OposVariant.obj
 0001:00000718       ?SetBSTR_InOutPtr@OposVariant@@QEAA_NPEAPEA_WAEAJ@Z 0000000180001718 f   OposVariant.obj
 0001:00000768       ?SetCURRENCY@OposVariant@@QEAAXTtagCY@@@Z 0000000180001768 f   OposVariant.obj
 0001:0000079c       ?SetDispatch_Ptr@OposVariant@@QEAAXPEAUIDispatch@@AEAJ@Z 000000018000179c f   OposVariant.obj
 0001:000007f4       ?SetLONG@OposVariant@@QEAAXJ@Z 00000001800017f4 f   OposVariant.obj
 0001:00000824       ?SetLONG_Ptr@OposVariant@@QEAAXPEAJAEAJ@Z 0000000180001824 f   OposVariant.obj
 0001:00000870       ?SetString@OposVariant@@QEAAXPEB_WAEAJ@Z 0000000180001870 f   OposVariant.obj
 0001:000008d4       ?SetVARIANT_BOOL@OposVariant@@QEAAXF@Z 00000001800018d4 f   OposVariant.obj
 0001:0000090c       ?Term@CAtlComModule@ATL@@QEAAXXZ 000000018000190c f i OposVariant.obj
 0001:0000097c       ?_AtlInitializeCriticalSectionEx@ATL@@YAHPEAU_RTL_CRITICAL_SECTION@@KK@Z 000000018000197c f i OposVariant.obj
 0001:00000984       ?_AtlRaiseException@ATL@@YAXKK@Z 0000000180001984 f i OposVariant.obj
 0001:00000994       ?Next@?$CComEnumImpl@UIEnumConnections@@$1?_GUID_b196b287_bab4_101a_b69c_00aa00341d07@@3U__s_GUID@@BUtagCONNECTDATA@@V?$_Copy@UtagCONNECTDATA@@@ATL@@@ATL@@UEAAJKPEAUtagCONNECTDATA@@PEAK@Z 0000000180001994 f i CAT.obj
 0001:00000a5c       ?Skip@?$CComEnumImpl@UIEnumConnections@@$1?_GUID_b196b287_bab4_101a_b69c_00aa00341d07@@3U__s_GUID@@BUtagCONNECTDATA@@V?$_Copy@UtagCONNECTDATA@@@ATL@@@ATL@@UEAAJK@Z 0000000180001a5c f i CAT.obj
 0001:00000a88       ?Reset@?$CComEnumImpl@UIEnumConnections@@$1?_GUID_b196b287_bab4_101a_b69c_00aa00341d07@@3U__s_GUID@@BUtagCONNECTDATA@@V?$_Copy@UtagCONNECTDATA@@@ATL@@@ATL@@UEAAJXZ 0000000180001a88 f i CAT.obj
 0001:00000a88       ?Reset@?$CComEnumImpl@UIEnumConnectionPoints@@$1?_GUID_b196b285_bab4_101a_b69c_00aa00341d07@@3U__s_GUID@@BPEAUIConnectionPoint@@V?$_CopyInterface@UIConnectionPoint@@@ATL@@@ATL@@UEAAJXZ 0000000180001a88 f i CAT.obj
 0001:00000a94       ?Clone@?$CComEnumImpl@UIEnumConnections@@$1?_GUID_b196b287_bab4_101a_b69c_00aa00341d07@@3U__s_GUID@@BUtagCONNECTDATA@@V?$_Copy@UtagCONNECTDATA@@@ATL@@@ATL@@UEAAJPEAPEAUIEnumConnections@@@Z 0000000180001a94 f i CAT.obj
 0001:00000bc0       ?AddRef@?$CComObject@V?$CComEnum@UIEnumConnectionPoints@@$1?_GUID_b196b285_bab4_101a_b69c_00aa00341d07@@3U__s_GUID@@BPEAUIConnectionPoint@@V?$_CopyInterface@UIConnectionPoint@@@ATL@@VCComSingleThreadModel@6@@ATL@@@ATL@@UEAAKXZ 0000000180001bc0 f i CAT.obj
 0001:00000bc0       ?AddRef@?$CComObject@V?$CComEnum@UIEnumConnections@@$1?_GUID_b196b287_bab4_101a_b69c_00aa00341d07@@3U__s_GUID@@BUtagCONNECTDATA@@V?$_Copy@UtagCONNECTDATA@@@ATL@@VCComSingleThreadModel@6@@ATL@@@ATL@@UEAAKXZ 0000000180001bc0 f i CAT.obj
 0001:00000bcc       ?Release@?$CComObject@V?$CComEnum@UIEnumConnections@@$1?_GUID_b196b287_bab4_101a_b69c_00aa00341d07@@3U__s_GUID@@BUtagCONNECTDATA@@V?$_Copy@UtagCONNECTDATA@@@ATL@@VCComSingleThreadModel@6@@ATL@@@ATL@@UEAAKXZ 0000000180001bcc f i CAT.obj
 0001:00000bcc       ?Release@?$CComObject@V?$CComEnum@UIEnumConnectionPoints@@$1?_GUID_b196b285_bab4_101a_b69c_00aa00341d07@@3U__s_GUID@@BPEAUIConnectionPoint@@V?$_CopyInterface@UIConnectionPoint@@@ATL@@VCComSingleThreadModel@6@@ATL@@@ATL@@UEAAKXZ 0000000180001bcc f i CAT.obj
 0001:00000c20       ?QueryInterface@?$CComObject@V?$CComEnum@UIEnumConnections@@$1?_GUID_b196b287_bab4_101a_b69c_00aa00341d07@@3U__s_GUID@@BUtagCONNECTDATA@@V?$_Copy@UtagCONNECTDATA@@@ATL@@VCComSingleThreadModel@6@@ATL@@@ATL@@UEAAJAEBU_GUID@@PEAPEAX@Z 0000000180001c20 f i CAT.obj
 0001:00000c34       ??_G?$CComObject@V?$CComEnum@UIEnumConnections@@$1?_GUID_b196b287_bab4_101a_b69c_00aa00341d07@@3U__s_GUID@@BUtagCONNECTDATA@@V?$_Copy@UtagCONNECTDATA@@@ATL@@VCComSingleThreadModel@6@@ATL@@@ATL@@UEAAPEAXI@Z 0000000180001c34 f i CAT.obj
 0001:00000c34       ??_E?$CComObject@V?$CComEnum@UIEnumConnections@@$1?_GUID_b196b287_bab4_101a_b69c_00aa00341d07@@3U__s_GUID@@BUtagCONNECTDATA@@V?$_Copy@UtagCONNECTDATA@@@ATL@@VCComSingleThreadModel@6@@ATL@@@ATL@@UEAAPEAXI@Z 0000000180001c34 f i CAT.obj
 0001:00000c8c       ?OnFinalMessage@?$CWindowImplBaseT@VCWindow@ATL@@V?$CWinTraits@$0FGAAAAAA@$0A@@2@@ATL@@UEAAXPEAUHWND__@@@Z 0000000180001c8c f i CAT.obj
 0001:00000c8c       ?ObjectMain@CComObjectRootBase@ATL@@SAX_N@Z 0000000180001c8c f i CAT.obj
 0001:00000c8c       _guard_check_icall_nop     0000000180001c8c f i LIBCMT:guard_support.obj
 0001:00000c90       ?Release@CRegObject@ATL@@UEAAKXZ 0000000180001c90 f i CAT.obj
 0001:00000c90       ?SetHostNames@?$IOleObjectImpl@VCOPOSCAT@@@ATL@@UEAAJPEB_W0@Z 0000000180001c90 f i CAT.obj
 0001:00000c90       ?ResizeBorder@?$IOleInPlaceActiveObjectImpl@VCOPOSCAT@@@ATL@@UEAAJPEBUtagRECT@@PEAUIOleInPlaceUIWindow@@H@Z 0000000180001c90 f i CAT.obj
 0001:00000c90       ?Update@?$IOleObjectImpl@VCOPOSCAT@@@ATL@@UEAAJXZ 0000000180001c90 f i CAT.obj
 0001:00000c90       ?HandsOffStorage@?$IPersistStorageImpl@VCOPOSCAT@@@ATL@@UEAAJXZ 0000000180001c90 f i CAT.obj
 0001:00000c90       ?SaveCompleted@?$IPersistStorageImpl@VCOPOSCAT@@@ATL@@UEAAJPEAUIStorage@@@Z 0000000180001c90 f i CAT.obj
 0001:00000c90       ?GetCategoryMap@CComObjectRootBase@ATL@@SAPEBU_ATL_CATMAP_ENTRY@2@XZ 0000000180001c90 f i CAT.obj
 0001:00000c90       ?GetObjectDescription@?$CComCoClass@VCOPOSCAT@@$1?CLSID_OPOSCAT@@3U_GUID@@B@ATL@@SAPEB_WXZ 0000000180001c90 f i CAT.obj
 0001:00000c90       ?EnableModeless@?$IOleInPlaceActiveObjectImpl@VCOPOSCAT@@@ATL@@UEAAJH@Z 0000000180001c90 f i CAT.obj
 0001:00000c90       ?OnAmbientPropertyChange@?$IOleControlImpl@VCOPOSCAT@@@ATL@@UEAAJJ@Z 0000000180001c90 f i CAT.obj
 0001:00000c90       ?OnFrameWindowActivate@?$IOleInPlaceActiveObjectImpl@VCOPOSCAT@@@ATL@@UEAAJH@Z 0000000180001c90 f i CAT.obj
 0001:00000c90       ?IsUpToDate@?$IOleObjectImpl@VCOPOSCAT@@@ATL@@UEAAJXZ 0000000180001c90 f i CAT.obj
 0001:00000c94       ?CreateInstance@CComClassFactory@ATL@@UEAAJPEAUIUnknown@@AEBU_GUID@@PEAPEAX@Z 0000000180001c94 f i CAT.obj
 0001:00000cf4       ?LockServer@CComClassFactory@ATL@@UEAAJH@Z 0000000180001cf4 f i CAT.obj
 0001:00000d18       ??_ECComClassFactory@ATL@@UEAAPEAXI@Z 0000000180001d18 f i CAT.obj
 0001:00000d18       ??_GCComClassFactory@ATL@@UEAAPEAXI@Z 0000000180001d18 f i CAT.obj
 0001:00000d68       ??_E?$CComObject@VCOPOSCAT@@@ATL@@W7EAAPEAXI@Z 0000000180001d68 f i CAT.obj
 0001:00000d74       ??_E?$CComObject@VCOPOSCAT@@@ATL@@WHA@EAAPEAXI@Z 0000000180001d74 f i CAT.obj
 0001:00000d80       ?QueryInterface@?$CComObject@VCOPOSCAT@@@ATL@@WLI@EAAJAEBU_GUID@@PEAPEAX@Z 0000000180001d80 f i CAT.obj
 0001:00000d8c       ?AddRef@?$CComObject@VCOPOSCAT@@@ATL@@WLI@EAAKXZ 0000000180001d8c f i CAT.obj
 0001:00000d98       ?Release@?$CComObject@VCOPOSCAT@@@ATL@@WLI@EAAKXZ 0000000180001d98 f i CAT.obj
 0001:00000da4       ?QueryInterface@?$CComObject@VCOPOSCAT@@@ATL@@WMA@EAAJAEBU_GUID@@PEAPEAX@Z 0000000180001da4 f i CAT.obj
 0001:00000db0       ?AddRef@?$CComObject@VCOPOSCAT@@@ATL@@WMA@EAAKXZ 0000000180001db0 f i CAT.obj
 0001:00000dbc       ?Release@?$CComObject@VCOPOSCAT@@@ATL@@WMA@EAAKXZ 0000000180001dbc f i CAT.obj
 0001:00000dc8       ?QueryInterface@?$CComObject@VCOPOSCAT@@@ATL@@WMI@EAAJAEBU_GUID@@PEAPEAX@Z 0000000180001dc8 f i CAT.obj
 0001:00000dd4       ?AddRef@?$CComObject@VCOPOSCAT@@@ATL@@WMI@EAAKXZ 0000000180001dd4 f i CAT.obj
 0001:00000de0       ?Release@?$CComObject@VCOPOSCAT@@@ATL@@WMI@EAAKXZ 0000000180001de0 f i CAT.obj
 0001:00000dec       ?QueryInterface@?$CComObject@VCOPOSCAT@@@ATL@@WNA@EAAJAEBU_GUID@@PEAPEAX@Z 0000000180001dec f i CAT.obj
 0001:00000df8       ?AddRef@?$CComObject@VCOPOSCAT@@@ATL@@WNA@EAAKXZ 0000000180001df8 f i CAT.obj
 0001:00000e04       ?Release@?$CComObject@VCOPOSCAT@@@ATL@@WNA@EAAKXZ 0000000180001e04 f i CAT.obj
 0001:00000e10       ?QueryInterface@?$CComObject@VCOPOSCAT@@@ATL@@WNI@EAAJAEBU_GUID@@PEAPEAX@Z 0000000180001e10 f i CAT.obj
 0001:00000e1c       ?AddRef@?$CComObject@VCOPOSCAT@@@ATL@@WNI@EAAKXZ 0000000180001e1c f i CAT.obj
 0001:00000e28       ?Release@?$CComObject@VCOPOSCAT@@@ATL@@WNI@EAAKXZ 0000000180001e28 f i CAT.obj
 0001:00000e34       ?QueryInterface@?$CComObject@VCOPOSCAT@@@ATL@@WOA@EAAJAEBU_GUID@@PEAPEAX@Z 0000000180001e34 f i CAT.obj
 0001:00000e40       ?AddRef@?$CComObject@VCOPOSCAT@@@ATL@@WOA@EAAKXZ 0000000180001e40 f i CAT.obj
 0001:00000e4c       ?Release@?$CComObject@VCOPOSCAT@@@ATL@@WOA@EAAKXZ 0000000180001e4c f i CAT.obj
 0001:00000e58       ?QueryInterface@?$CComObject@VCOPOSCAT@@@ATL@@WOI@EAAJAEBU_GUID@@PEAPEAX@Z 0000000180001e58 f i CAT.obj
 0001:00000e64       ?AddRef@?$CComObject@VCOPOSCAT@@@ATL@@WOI@EAAKXZ 0000000180001e64 f i CAT.obj
 0001:00000e70       ?Release@?$CComObject@VCOPOSCAT@@@ATL@@WOI@EAAKXZ 0000000180001e70 f i CAT.obj
 0001:00000e7c       ?QueryInterface@?$CComObject@VCOPOSCAT@@@ATL@@WPA@EAAJAEBU_GUID@@PEAPEAX@Z 0000000180001e7c f i CAT.obj
 0001:00000e88       ?AddRef@?$CComObject@VCOPOSCAT@@@ATL@@WPA@EAAKXZ 0000000180001e88 f i CAT.obj
 0001:00000e94       ?Release@?$CComObject@VCOPOSCAT@@@ATL@@WPA@EAAKXZ 0000000180001e94 f i CAT.obj
 0001:00000ea0       ?QueryInterface@?$CComObject@VCOPOSCAT@@@ATL@@WPI@EAAJAEBU_GUID@@PEAPEAX@Z 0000000180001ea0 f i CAT.obj
 0001:00000eac       ?AddRef@?$CComObject@VCOPOSCAT@@@ATL@@WPI@EAAKXZ 0000000180001eac f i CAT.obj
 0001:00000eb8       ?Release@?$CComObject@VCOPOSCAT@@@ATL@@WPI@EAAKXZ 0000000180001eb8 f i CAT.obj
 0001:00000ec4       ?QueryInterface@?$CComObject@VCOPOSCAT@@@ATL@@WBAA@EAAJAEBU_GUID@@PEAPEAX@Z 0000000180001ec4 f i CAT.obj
 0001:00000ed0       ?AddRef@?$CComObject@VCOPOSCAT@@@ATL@@WBAA@EAAKXZ 0000000180001ed0 f i CAT.obj
 0001:00000edc       ?Release@?$CComObject@VCOPOSCAT@@@ATL@@WBAA@EAAKXZ 0000000180001edc f i CAT.obj
 0001:00000ee8       ?QueryInterface@?$CComObject@VCOPOSCAT@@@ATL@@WBAI@EAAJAEBU_GUID@@PEAPEAX@Z 0000000180001ee8 f i CAT.obj
 0001:00000ef4       ?AddRef@?$CComObject@VCOPOSCAT@@@ATL@@WBAI@EAAKXZ 0000000180001ef4 f i CAT.obj
 0001:00000f00       ?Release@?$CComObject@VCOPOSCAT@@@ATL@@WBAI@EAAKXZ 0000000180001f00 f i CAT.obj
 0001:00000f0c       ?QueryInterface@?$CComObject@VCOPOSCAT@@@ATL@@WBBA@EAAJAEBU_GUID@@PEAPEAX@Z 0000000180001f0c f i CAT.obj
 0001:00000f18       ?AddRef@?$CComObject@VCOPOSCAT@@@ATL@@WBBA@EAAKXZ 0000000180001f18 f i CAT.obj
 0001:00000f24       ?Release@?$CComObject@VCOPOSCAT@@@ATL@@WBBA@EAAKXZ 0000000180001f24 f i CAT.obj
 0001:00000f30       ?QueryInterface@?$CComObject@VCOPOSCAT@@@ATL@@WBBI@EAAJAEBU_GUID@@PEAPEAX@Z 0000000180001f30 f i CAT.obj
 0001:00000f3c       ?AddRef@?$CComObject@VCOPOSCAT@@@ATL@@WBBI@EAAKXZ 0000000180001f3c f i CAT.obj
 0001:00000f48       ?Release@?$CComObject@VCOPOSCAT@@@ATL@@WBBI@EAAKXZ 0000000180001f48 f i CAT.obj
 0001:00000f54       ?AddRef@?$CComObject@VCOPOSCAT@@@ATL@@WBCI@EAAKXZ 0000000180001f54 f i CAT.obj
 0001:00000f60       ?Release@?$CComObject@VCOPOSCAT@@@ATL@@WBCI@EAAKXZ 0000000180001f60 f i CAT.obj
 0001:00000f6c       ?AddRef@?$CComObject@VCOPOSCAT@@@ATL@@WBEA@EAAKXZ 0000000180001f6c f i CAT.obj
 0001:00000f78       ?Release@?$CComObject@VCOPOSCAT@@@ATL@@WBEA@EAAKXZ 0000000180001f78 f i CAT.obj
 0001:00000f84       ??_E?$CComContainedObject@VCOPOSCAT@@@ATL@@W7EAAPEAXI@Z 0000000180001f84 f i CAT.obj
 0001:00000f90       ??_E?$CComContainedObject@VCOPOSCAT@@@ATL@@WHA@EAAPEAXI@Z 0000000180001f90 f i CAT.obj
 0001:00000f9c       ?QueryInterface@?$CComContainedObject@VCOPOSCAT@@@ATL@@WLI@EAAJAEBU_GUID@@PEAPEAX@Z 0000000180001f9c f i CAT.obj
 0001:00000fa8       ?AddRef@?$CComContainedObject@VCOPOSCAT@@@ATL@@WLI@EAAKXZ 0000000180001fa8 f i CAT.obj
 0001:00000fb4       ?Release@?$CComContainedObject@VCOPOSCAT@@@ATL@@WLI@EAAKXZ 0000000180001fb4 f i CAT.obj
 0001:00000fc0       ?QueryInterface@?$CComContainedObject@VCOPOSCAT@@@ATL@@WMA@EAAJAEBU_GUID@@PEAPEAX@Z 0000000180001fc0 f i CAT.obj
 0001:00000fcc       ?AddRef@?$CComContainedObject@VCOPOSCAT@@@ATL@@WMA@EAAKXZ 0000000180001fcc f i CAT.obj
 0001:00000fd8       ?Release@?$CComContainedObject@VCOPOSCAT@@@ATL@@WMA@EAAKXZ 0000000180001fd8 f i CAT.obj
 0001:00000fe4       ?QueryInterface@?$CComContainedObject@VCOPOSCAT@@@ATL@@WMI@EAAJAEBU_GUID@@PEAPEAX@Z 0000000180001fe4 f i CAT.obj
 0001:00000ff0       ?AddRef@?$CComContainedObject@VCOPOSCAT@@@ATL@@WMI@EAAKXZ 0000000180001ff0 f i CAT.obj
 0001:00000ffc       ?Release@?$CComContainedObject@VCOPOSCAT@@@ATL@@WMI@EAAKXZ 0000000180001ffc f i CAT.obj
 0001:00001008       ?QueryInterface@?$CComContainedObject@VCOPOSCAT@@@ATL@@WNA@EAAJAEBU_GUID@@PEAPEAX@Z 0000000180002008 f i CAT.obj
 0001:00001014       ?AddRef@?$CComContainedObject@VCOPOSCAT@@@ATL@@WNA@EAAKXZ 0000000180002014 f i CAT.obj
 0001:00001020       ?Release@?$CComContainedObject@VCOPOSCAT@@@ATL@@WNA@EAAKXZ 0000000180002020 f i CAT.obj
 0001:0000102c       ?QueryInterface@?$CComContainedObject@VCOPOSCAT@@@ATL@@WNI@EAAJAEBU_GUID@@PEAPEAX@Z 000000018000202c f i CAT.obj
 0001:00001038       ?AddRef@?$CComContainedObject@VCOPOSCAT@@@ATL@@WNI@EAAKXZ 0000000180002038 f i CAT.obj
 0001:00001044       ?Release@?$CComContainedObject@VCOPOSCAT@@@ATL@@WNI@EAAKXZ 0000000180002044 f i CAT.obj
 0001:00001050       ?QueryInterface@?$CComContainedObject@VCOPOSCAT@@@ATL@@WOA@EAAJAEBU_GUID@@PEAPEAX@Z 0000000180002050 f i CAT.obj
 0001:0000105c       ?AddRef@?$CComContainedObject@VCOPOSCAT@@@ATL@@WOA@EAAKXZ 000000018000205c f i CAT.obj
 0001:00001068       ?Release@?$CComContainedObject@VCOPOSCAT@@@ATL@@WOA@EAAKXZ 0000000180002068 f i CAT.obj
 0001:00001074       ?QueryInterface@?$CComContainedObject@VCOPOSCAT@@@ATL@@WOI@EAAJAEBU_GUID@@PEAPEAX@Z 0000000180002074 f i CAT.obj
 0001:00001080       ?AddRef@?$CComContainedObject@VCOPOSCAT@@@ATL@@WOI@EAAKXZ 0000000180002080 f i CAT.obj
 0001:0000108c       ?Release@?$CComContainedObject@VCOPOSCAT@@@ATL@@WOI@EAAKXZ 000000018000208c f i CAT.obj
 0001:00001098       ?QueryInterface@?$CComContainedObject@VCOPOSCAT@@@ATL@@WPA@EAAJAEBU_GUID@@PEAPEAX@Z 0000000180002098 f i CAT.obj
 0001:000010a4       ?AddRef@?$CComContainedObject@VCOPOSCAT@@@ATL@@WPA@EAAKXZ 00000001800020a4 f i CAT.obj
 0001:000010b0       ?Release@?$CComContainedObject@VCOPOSCAT@@@ATL@@WPA@EAAKXZ 00000001800020b0 f i CAT.obj
 0001:000010bc       ?QueryInterface@?$CComContainedObject@VCOPOSCAT@@@ATL@@WPI@EAAJAEBU_GUID@@PEAPEAX@Z 00000001800020bc f i CAT.obj
 0001:000010c8       ?AddRef@?$CComContainedObject@VCOPOSCAT@@@ATL@@WPI@EAAKXZ 00000001800020c8 f i CAT.obj
 0001:000010d4       ?Release@?$CComContainedObject@VCOPOSCAT@@@ATL@@WPI@EAAKXZ 00000001800020d4 f i CAT.obj
 0001:000010e0       ?QueryInterface@?$CComContainedObject@VCOPOSCAT@@@ATL@@WBAA@EAAJAEBU_GUID@@PEAPEAX@Z 00000001800020e0 f i CAT.obj
 0001:000010ec       ?AddRef@?$CComContainedObject@VCOPOSCAT@@@ATL@@WBAA@EAAKXZ 00000001800020ec f i CAT.obj
 0001:000010f8       ?Release@?$CComContainedObject@VCOPOSCAT@@@ATL@@WBAA@EAAKXZ 00000001800020f8 f i CAT.obj
 0001:00001104       ?QueryInterface@?$CComContainedObject@VCOPOSCAT@@@ATL@@WBAI@EAAJAEBU_GUID@@PEAPEAX@Z 0000000180002104 f i CAT.obj
 0001:00001110       ?AddRef@?$CComContainedObject@VCOPOSCAT@@@ATL@@WBAI@EAAKXZ 0000000180002110 f i CAT.obj
 0001:0000111c       ?Release@?$CComContainedObject@VCOPOSCAT@@@ATL@@WBAI@EAAKXZ 000000018000211c f i CAT.obj
 0001:00001128       ?QueryInterface@?$CComContainedObject@VCOPOSCAT@@@ATL@@WBBA@EAAJAEBU_GUID@@PEAPEAX@Z 0000000180002128 f i CAT.obj
 0001:00001134       ?AddRef@?$CComContainedObject@VCOPOSCAT@@@ATL@@WBBA@EAAKXZ 0000000180002134 f i CAT.obj
 0001:00001140       ?Release@?$CComContainedObject@VCOPOSCAT@@@ATL@@WBBA@EAAKXZ 0000000180002140 f i CAT.obj
 0001:0000114c       ?QueryInterface@?$CComContainedObject@VCOPOSCAT@@@ATL@@WBBI@EAAJAEBU_GUID@@PEAPEAX@Z 000000018000214c f i CAT.obj
 0001:00001158       ?AddRef@?$CComContainedObject@VCOPOSCAT@@@ATL@@WBBI@EAAKXZ 0000000180002158 f i CAT.obj
 0001:00001164       ?Release@?$CComContainedObject@VCOPOSCAT@@@ATL@@WBBI@EAAKXZ 0000000180002164 f i CAT.obj
 0001:00001170       ?AddRef@?$CComContainedObject@VCOPOSCAT@@@ATL@@WBCI@EAAKXZ 0000000180002170 f i CAT.obj
 0001:0000117c       ?Release@?$CComContainedObject@VCOPOSCAT@@@ATL@@WBCI@EAAKXZ 000000018000217c f i CAT.obj
 0001:00001188       ?AddRef@?$CComContainedObject@VCOPOSCAT@@@ATL@@WBEA@EAAKXZ 0000000180002188 f i CAT.obj
 0001:00001194       ?Release@?$CComContainedObject@VCOPOSCAT@@@ATL@@WBEA@EAAKXZ 0000000180002194 f i CAT.obj
 0001:000011a0       ?GetWindowProc@?$CWindowImplBaseT@VCWindow@ATL@@V?$CWinTraits@$0FGAAAAAA@$0A@@2@@ATL@@UEAAP6A_JPEAUHWND__@@I_K_J@ZXZ 00000001800021a0 f i CAT.obj
 0001:000011a8       ?StartWindowProc@?$CWindowImplBaseT@VCWindow@ATL@@V?$CWinTraits@$0FGAAAAAA@$0A@@2@@ATL@@SA_JPEAUHWND__@@I_K_J@Z 00000001800021a8 f i CAT.obj
 0001:0000125c       ?GetTypeInfoCount@?$IDispatchImpl@UIOPOSCAT@@$1?IID_IOPOSCAT@@3U_GUID@@B$1?LIBID_OposCAT_CCO@@3U3@B$00$0A@VCComTypeInfoHolder@ATL@@@ATL@@UEAAJPEAI@Z 000000018000225c f i CAT.obj
 0001:00001270       ?GetTypeInfo@?$IDispatchImpl@UIOPOSCAT@@$1?IID_IOPOSCAT@@3U_GUID@@B$1?LIBID_OposCAT_CCO@@3U3@B$00$0A@VCComTypeInfoHolder@ATL@@@ATL@@UEAAJIKPEAPEAUITypeInfo@@@Z 0000000180002270 f i CAT.obj
 0001:000012d4       ?GetIDsOfNames@?$IDispatchImpl@UIOPOSCAT@@$1?IID_IOPOSCAT@@3U_GUID@@B$1?LIBID_OposCAT_CCO@@3U3@B$00$0A@VCComTypeInfoHolder@ATL@@@ATL@@UEAAJAEBU_GUID@@PEAPEA_WIKPEAJ@Z 00000001800022d4 f i CAT.obj
 0001:000012e0       ?Invoke@?$IDispatchImpl@UIOPOSCAT@@$1?IID_IOPOSCAT@@3U_GUID@@B$1?LIBID_OposCAT_CCO@@3U3@B$00$0A@VCComTypeInfoHolder@ATL@@@ATL@@UEAAJJAEBU_GUID@@KGPEAUtagDISPPARAMS@@PEAUtagVARIANT@@PEAUtagEXCEPINFO@@PEAI@Z 00000001800022e0 f i CAT.obj
 0001:00001370       ?CreateControlWindow@?$CComControl@VCOPOSCAT@@V?$CWindowImpl@VCOPOSCAT@@VCWindow@ATL@@V?$CWinTraits@$0FGAAAAAA@$0A@@3@@ATL@@@ATL@@UEAAPEAUHWND__@@PEAU3@AEAUtagRECT@@@Z 0000000180002370 f i CAT.obj
 0001:000013a8       ?ControlQueryInterface@?$CComControl@VCOPOSCAT@@V?$CWindowImpl@VCOPOSCAT@@VCWindow@ATL@@V?$CWinTraits@$0FGAAAAAA@$0A@@3@@ATL@@@ATL@@UEAAJAEBU_GUID@@PEAPEAX@Z 00000001800023a8 f i CAT.obj
 0001:000013bc       ?GetUserClassID@?$IOleObjectImpl@VCOPOSCAT@@@ATL@@UEAAJPEAU_GUID@@@Z 00000001800023bc f i CAT.obj
 0001:000013bc       ?GetClassID@?$IPersistStorageImpl@VCOPOSCAT@@@ATL@@UEAAJPEAU_GUID@@@Z 00000001800023bc f i CAT.obj
 0001:000013bc       ?GetClassID@?$IPersistStreamInitImpl@VCOPOSCAT@@@ATL@@UEAAJPEAU_GUID@@@Z 00000001800023bc f i CAT.obj
 0001:000013d8       ?IsDirty@?$IPersistStreamInitImpl@VCOPOSCAT@@@ATL@@UEAAJXZ 00000001800023d8 f i CAT.obj
 0001:000013f4       ?Load@?$IPersistStreamInitImpl@VCOPOSCAT@@@ATL@@UEAAJPEAUIStream@@@Z 00000001800023f4 f i CAT.obj
 0001:0000140c       ?Save@?$IPersistStreamInitImpl@VCOPOSCAT@@@ATL@@UEAAJPEAUIStream@@H@Z 000000018000240c f i CAT.obj
 0001:00001424       ?GetSizeMax@?$IPersistStreamInitImpl@VCOPOSCAT@@@ATL@@UEAAJPEAT_ULARGE_INTEGER@@@Z 0000000180002424 f i CAT.obj
 0001:00001648       ?InitNew@?$IPersistStreamInitImpl@VCOPOSCAT@@@ATL@@UEAAJXZ 0000000180002648 f i CAT.obj
 0001:00001660       ?OnMnemonic@?$IOleControlImpl@VCOPOSCAT@@@ATL@@UEAAJPEAUtagMSG@@@Z 0000000180002660 f i CAT.obj
 0001:00001660       ?GetClipboardData@?$IOleObjectImpl@VCOPOSCAT@@@ATL@@UEAAJKPEAPEAUIDataObject@@@Z 0000000180002660 f i CAT.obj
 0001:00001660       ?GetRect@?$IViewObjectExImpl@VCOPOSCAT@@@ATL@@UEAAJKPEAU_RECTL@@@Z 0000000180002660 f i CAT.obj
 0001:00001660       ?QueryInterface@CRegObject@ATL@@UEAAJAEBU_GUID@@PEAPEAX@Z 0000000180002660 f i CAT.obj
 0001:00001660       ?EnumFormatEtc@?$IDataObjectImpl@VCOPOSCAT@@@ATL@@UEAAJKPEAPEAUIEnumFORMATETC@@@Z 0000000180002660 f i CAT.obj
 0001:00001660       ?GetControlInfo@?$IOleControlImpl@VCOPOSCAT@@@ATL@@UEAAJPEAUtagCONTROLINFO@@@Z 0000000180002660 f i CAT.obj
 0001:00001660       ?GetColorSet@?$IViewObjectExImpl@VCOPOSCAT@@@ATL@@UEAAJKJPEAXPEAUtagDVTARGETDEVICE@@PEAUHDC__@@PEAPEAUtagLOGPALETTE@@@Z 0000000180002660 f i CAT.obj
 0001:00001660       ?ReactivateAndUndo@?$IOleInPlaceObjectWindowlessImpl@VCOPOSCAT@@@ATL@@UEAAJXZ 0000000180002660 f i CAT.obj
 0001:00001660       ?Freeze@?$IViewObjectExImpl@VCOPOSCAT@@@ATL@@UEAAJKJPEAXPEAK@Z 0000000180002660 f i CAT.obj
 0001:00001660       ?SetMoniker@?$IOleObjectImpl@VCOPOSCAT@@@ATL@@UEAAJKPEAUIMoniker@@@Z 0000000180002660 f i CAT.obj
 0001:00001660       ?SetData@?$IDataObjectImpl@VCOPOSCAT@@@ATL@@UEAAJPEAUtagFORMATETC@@PEAUtagSTGMEDIUM@@H@Z 0000000180002660 f i CAT.obj
 0001:00001660       ?GetDataHere@?$IDataObjectImpl@VCOPOSCAT@@@ATL@@UEAAJPEAUtagFORMATETC@@PEAUtagSTGMEDIUM@@@Z 0000000180002660 f i CAT.obj
 0001:00001660       ?SetColorScheme@?$IOleObjectImpl@VCOPOSCAT@@@ATL@@UEAAJPEAUtagLOGPALETTE@@@Z 0000000180002660 f i CAT.obj
 0001:00001660       ?GetDropTarget@?$IOleInPlaceObjectWindowlessImpl@VCOPOSCAT@@@ATL@@UEAAJPEAPEAUIDropTarget@@@Z 0000000180002660 f i CAT.obj
 0001:00001660       ?InitFromData@?$IOleObjectImpl@VCOPOSCAT@@@ATL@@UEAAJPEAUIDataObject@@HK@Z 0000000180002660 f i CAT.obj
 0001:00001660       ?SODataDummy@COPOSCAT@@MEAAJJ@Z 0000000180002660 f i CAT.obj
 0001:00001660       ?ContextSensitiveHelp@?$IOleInPlaceActiveObjectImpl@VCOPOSCAT@@@ATL@@UEAAJH@Z 0000000180002660 f i CAT.obj
 0001:00001660       ?GetCanonicalFormatEtc@?$IDataObjectImpl@VCOPOSCAT@@@ATL@@UEAAJPEAUtagFORMATETC@@0@Z 0000000180002660 f i CAT.obj
 0001:00001660       ?GetMoniker@?$IOleObjectImpl@VCOPOSCAT@@@ATL@@UEAAJKKPEAPEAUIMoniker@@@Z 0000000180002660 f i CAT.obj
 0001:00001660       ?ContextSensitiveHelp@?$IOleInPlaceObjectWindowlessImpl@VCOPOSCAT@@@ATL@@UEAAJH@Z 0000000180002660 f i CAT.obj
 0001:00001660       ?QueryGetData@?$IDataObjectImpl@VCOPOSCAT@@@ATL@@UEAAJPEAUtagFORMATETC@@@Z 0000000180002660 f i CAT.obj
 0001:00001660       ?Unfreeze@?$IViewObjectExImpl@VCOPOSCAT@@@ATL@@UEAAJK@Z 0000000180002660 f i CAT.obj
 0001:00001668       ?SetClientSite@?$IOleObjectImpl@VCOPOSCAT@@@ATL@@UEAAJPEAUIOleClientSite@@@Z 0000000180002668 f i CAT.obj
 0001:00001684       ?GetClientSite@?$IOleObjectImpl@VCOPOSCAT@@@ATL@@UEAAJPEAPEAUIOleClientSite@@@Z 0000000180002684 f i CAT.obj
 0001:000016cc       ?Close@?$IOleObjectImpl@VCOPOSCAT@@@ATL@@UEAAJK@Z 00000001800026cc f i CAT.obj
 0001:000016e8       ?DoVerb@?$IOleObjectImpl@VCOPOSCAT@@@ATL@@UEAAJJPEAUtagMSG@@PEAUIOleClientSite@@JPEAUHWND__@@PEBUtagRECT@@@Z 00000001800026e8 f i CAT.obj
 0001:0000188c       ?EnumVerbs@?$IOleObjectImpl@VCOPOSCAT@@@ATL@@UEAAJPEAPEAUIEnumOLEVERB@@@Z 000000018000288c f i CAT.obj
 0001:000018a8       ?GetUserType@?$IOleObjectImpl@VCOPOSCAT@@@ATL@@UEAAJKPEAPEA_W@Z 00000001800028a8 f i CAT.obj
 0001:000018b8       ?SetExtent@?$IOleObjectImpl@VCOPOSCAT@@@ATL@@UEAAJKPEAUtagSIZE@@@Z 00000001800028b8 f i CAT.obj
 0001:000018d4       ?GetExtent@?$IOleObjectImpl@VCOPOSCAT@@@ATL@@UEAAJKPEAUtagSIZE@@@Z 00000001800028d4 f i CAT.obj
 0001:00001904       ?Advise@?$IOleObjectImpl@VCOPOSCAT@@@ATL@@UEAAJPEAUIAdviseSink@@PEAK@Z 0000000180002904 f i CAT.obj
 0001:00001960       ?Unadvise@?$IOleObjectImpl@VCOPOSCAT@@@ATL@@UEAAJK@Z 0000000180002960 f i CAT.obj
 0001:00001998       ?EnumAdvise@?$IOleObjectImpl@VCOPOSCAT@@@ATL@@UEAAJPEAPEAUIEnumSTATDATA@@@Z 0000000180002998 f i CAT.obj
 0001:000019e0       ?GetMiscStatus@?$IOleObjectImpl@VCOPOSCAT@@@ATL@@UEAAJKPEAK@Z 00000001800029e0 f i CAT.obj
 0001:000019f0       ?GetWindow@?$IOleInPlaceActiveObjectImpl@VCOPOSCAT@@@ATL@@UEAAJPEAPEAUHWND__@@@Z 00000001800029f0 f i CAT.obj
 0001:00001a44       ?TranslateAcceleratorW@?$IOleInPlaceActiveObjectImpl@VCOPOSCAT@@@ATL@@UEAAJPEAUtagMSG@@@Z 0000000180002a44 f i CAT.obj
 0001:00001b38       ?OnDocWindowActivate@?$IOleInPlaceActiveObjectImpl@VCOPOSCAT@@@ATL@@UEAAJH@Z 0000000180002b38 f i CAT.obj
 0001:00001b64       ?Draw@?$IViewObjectExImpl@VCOPOSCAT@@@ATL@@UEAAJKJPEAXPEAUtagDVTARGETDEVICE@@PEAUHDC__@@2PEBU_RECTL@@3P6AH_K@Z4@Z 0000000180002b64 f i CAT.obj
 0001:00001bc8       ?SetAdvise@?$IViewObjectExImpl@VCOPOSCAT@@@ATL@@UEAAJKKPEAUIAdviseSink@@@Z 0000000180002bc8 f i CAT.obj
 0001:00001c1c       ?GetAdvise@?$IViewObjectExImpl@VCOPOSCAT@@@ATL@@UEAAJPEAK0PEAPEAUIAdviseSink@@@Z 0000000180002c1c f i CAT.obj
 0001:00001c58       ?GetExtent@?$IViewObjectExImpl@VCOPOSCAT@@@ATL@@UEAAJKJPEAUtagDVTARGETDEVICE@@PEAUtagSIZE@@@Z 0000000180002c58 f i CAT.obj
 0001:00001c88       ?GetViewStatus@?$IViewObjectExImpl@VCOPOSCAT@@@ATL@@UEAAJPEAK@Z 0000000180002c88 f i CAT.obj
 0001:00001c9c       ?QueryHitPoint@?$IViewObjectExImpl@VCOPOSCAT@@@ATL@@UEAAJKPEBUtagRECT@@UtagPOINT@@JPEAK@Z 0000000180002c9c f i CAT.obj
 0001:00001ce0       ?QueryHitRect@?$IViewObjectExImpl@VCOPOSCAT@@@ATL@@UEAAJKPEBUtagRECT@@0JPEAK@Z 0000000180002ce0 f i CAT.obj
 0001:00001d48       ?GetNaturalExtent@?$IViewObjectExImpl@VCOPOSCAT@@@ATL@@UEAAJKJPEAUtagDVTARGETDEVICE@@PEAUHDC__@@PEAUtagExtentInfo@@PEAUtagSIZE@@@Z 0000000180002d48 f i CAT.obj
 0001:00001d90       ?GetWindow@?$IOleInPlaceObjectWindowlessImpl@VCOPOSCAT@@@ATL@@UEAAJPEAPEAUHWND__@@@Z 0000000180002d90 f i CAT.obj
 0001:00001de4       ?InPlaceDeactivate@?$IOleInPlaceObjectWindowlessImpl@VCOPOSCAT@@@ATL@@UEAAJXZ 0000000180002de4 f i CAT.obj
 0001:00001e00       ?UIDeactivate@?$IOleInPlaceObjectWindowlessImpl@VCOPOSCAT@@@ATL@@UEAAJXZ 0000000180002e00 f i CAT.obj
 0001:00001e1c       ?SetObjectRects@?$IOleInPlaceObjectWindowlessImpl@VCOPOSCAT@@@ATL@@UEAAJPEBUtagRECT@@0@Z 0000000180002e1c f i CAT.obj
 0001:00001e38       ?OnWindowMessage@?$IOleInPlaceObjectWindowlessImpl@VCOPOSCAT@@@ATL@@UEAAJI_K_JPEA_J@Z 0000000180002e38 f i CAT.obj
 0001:00001f00       ?EnumConnectionPoints@?$IConnectionPointContainerImpl@VCOPOSCAT@@@ATL@@UEAAJPEAPEAUIEnumConnectionPoints@@@Z 0000000180002f00 f i CAT.obj
 0001:00002148       ?FindConnectionPoint@?$IConnectionPointContainerImpl@VCOPOSCAT@@@ATL@@UEAAJAEBU_GUID@@PEAPEAUIConnectionPoint@@@Z 0000000180003148 f i CAT.obj
 0001:00002218       ?IsDirty@?$IPersistStorageImpl@VCOPOSCAT@@@ATL@@UEAAJXZ 0000000180003218 f i CAT.obj
 0001:00002258       ?InitNew@?$IPersistStorageImpl@VCOPOSCAT@@@ATL@@UEAAJPEAUIStorage@@@Z 0000000180003258 f i CAT.obj
 0001:00002298       ?Load@?$IPersistStorageImpl@VCOPOSCAT@@@ATL@@UEAAJPEAUIStorage@@@Z 0000000180003298 f i CAT.obj
 0001:00002338       ?Save@?$IPersistStorageImpl@VCOPOSCAT@@@ATL@@UEAAJPEAUIStorage@@H@Z 0000000180003338 f i CAT.obj
 0001:000023e8       ?GetPages@?$ISpecifyPropertyPagesImpl@VCOPOSCAT@@@ATL@@UEAAJPEAUtagCAUUID@@@Z 00000001800033e8 f i CAT.obj
 0001:000023f4       ?QuickActivate@?$IQuickActivateImpl@VCOPOSCAT@@@ATL@@UEAAJPEAUtagQACONTAINER@@PEAUtagQACONTROL@@@Z 00000001800033f4 f i CAT.obj
 0001:00002410       ?SetContentExtent@?$IQuickActivateImpl@VCOPOSCAT@@@ATL@@UEAAJPEAUtagSIZE@@@Z 0000000180003410 f i CAT.obj
 0001:00002444       ?GetContentExtent@?$IQuickActivateImpl@VCOPOSCAT@@@ATL@@UEAAJPEAUtagSIZE@@@Z 0000000180003444 f i CAT.obj
 0001:0000247c       ?GetData@?$IDataObjectImpl@VCOPOSCAT@@@ATL@@UEAAJPEAUtagFORMATETC@@PEAUtagSTGMEDIUM@@@Z 000000018000347c f i CAT.obj
 0001:00002498       ?DAdvise@?$IDataObjectImpl@VCOPOSCAT@@@ATL@@UEAAJPEAUtagFORMATETC@@KPEAUIAdviseSink@@PEAK@Z 0000000180003498 f i CAT.obj
 0001:00002520       ?DUnadvise@?$IDataObjectImpl@VCOPOSCAT@@@ATL@@UEAAJK@Z 0000000180003520 f i CAT.obj
 0001:0000254c       ?EnumDAdvise@?$IDataObjectImpl@VCOPOSCAT@@@ATL@@UEAAJPEAPEAUIEnumSTATDATA@@@Z 000000018000354c f i CAT.obj
 0001:00002588       ?GetClassInfoW@?$IProvideClassInfo2Impl@$1?CLSID_OPOSCAT@@3U_GUID@@B$1?DIID__IOPOSCATEvents@@3U2@B$1?LIBID_OposCAT_CCO@@3U2@B$00$0A@VCComTypeInfoHolder@ATL@@@ATL@@UEAAJPEAPEAUITypeInfo@@@Z 0000000180003588 f i CAT.obj
 0001:000025e0       ?GetGUID@?$IProvideClassInfo2Impl@$1?CLSID_OPOSCAT@@3U_GUID@@B$1?DIID__IOPOSCATEvents@@3U2@B$1?LIBID_OposCAT_CCO@@3U2@B$00$0A@VCComTypeInfoHolder@ATL@@@ATL@@UEAAJKPEAU_GUID@@@Z 00000001800035e0 f i CAT.obj
 0001:00002614       ?AddRef@CRegObject@ATL@@UEAAKXZ 0000000180003614 f i CAT.obj
 0001:00002614       ?FAccessAllowed@?$IObjectSafetyImpl@VCOPOSCAT@@$02@ATL@@MEAAHXZ 0000000180003614 f i CAT.obj
 0001:00002614       _get_startup_argv_mode     0000000180003614 f i LIBCMT:argv_mode.obj
 0001:0000261c       ?GetInterfaceSafetyOptions@?$IObjectSafetyImpl@VCOPOSCAT@@$02@ATL@@UEAAJAEBU_GUID@@PEAK1@Z 000000018000361c f i CAT.obj
 0001:000026b0       ?SetInterfaceSafetyOptions@?$IObjectSafetyImpl@VCOPOSCAT@@$02@ATL@@UEAAJAEBU_GUID@@KK@Z 00000001800036b0 f i CAT.obj
 0001:00002754       ?_LocCPQueryInterface@?$IConnectionPointImpl@VCOPOSCAT@@$1?IID_IPropertyNotifySink@@3U_GUID@@BVCComDynamicUnkArray@ATL@@@ATL@@UEAAJAEBU_GUID@@PEAPEAX@Z 0000000180003754 f i CAT.obj
 0001:00002754       ?_LocCPQueryInterface@?$IConnectionPointImpl@VCOPOSCAT@@$1?DIID__IOPOSCATEvents@@3U_GUID@@BVCComDynamicUnkArray@ATL@@@ATL@@UEAAJAEBU_GUID@@PEAPEAX@Z 0000000180003754 f i CAT.obj
 0001:000027c8       ?GetConnectionInterface@?$IConnectionPointImpl@VCOPOSCAT@@$1?IID_IPropertyNotifySink@@3U_GUID@@BVCComDynamicUnkArray@ATL@@@ATL@@UEAAJPEAU_GUID@@@Z 00000001800037c8 f i CAT.obj
 0001:000027e4       ?GetConnectionPointContainer@?$IConnectionPointImpl@VCOPOSCAT@@$1?IID_IPropertyNotifySink@@3U_GUID@@BVCComDynamicUnkArray@ATL@@@ATL@@UEAAJPEAPEAUIConnectionPointContainer@@@Z 00000001800037e4 f i CAT.obj
 0001:00002804       ?Advise@?$IConnectionPointImpl@VCOPOSCAT@@$1?DIID__IOPOSCATEvents@@3U_GUID@@BVCComDynamicUnkArray@ATL@@@ATL@@UEAAJPEAUIUnknown@@PEAK@Z 0000000180003804 f i CAT.obj
 0001:00002804       ?Advise@?$IConnectionPointImpl@VCOPOSCAT@@$1?IID_IPropertyNotifySink@@3U_GUID@@BVCComDynamicUnkArray@ATL@@@ATL@@UEAAJPEAUIUnknown@@PEAK@Z 0000000180003804 f i CAT.obj
 0001:000028c0       ?Unadvise@?$IConnectionPointImpl@VCOPOSCAT@@$1?DIID__IOPOSCATEvents@@3U_GUID@@BVCComDynamicUnkArray@ATL@@@ATL@@UEAAJK@Z 00000001800038c0 f i CAT.obj
 0001:000028c0       ?Unadvise@?$IConnectionPointImpl@VCOPOSCAT@@$1?IID_IPropertyNotifySink@@3U_GUID@@BVCComDynamicUnkArray@ATL@@@ATL@@UEAAJK@Z 00000001800038c0 f i CAT.obj
 0001:00002928       ?EnumConnections@?$IConnectionPointImpl@VCOPOSCAT@@$1?IID_IPropertyNotifySink@@3U_GUID@@BVCComDynamicUnkArray@ATL@@@ATL@@UEAAJPEAPEAUIEnumConnections@@@Z 0000000180003928 f i CAT.obj
 0001:00002928       ?EnumConnections@?$IConnectionPointImpl@VCOPOSCAT@@$1?DIID__IOPOSCATEvents@@3U_GUID@@BVCComDynamicUnkArray@ATL@@@ATL@@UEAAJPEAPEAUIEnumConnections@@@Z 0000000180003928 f i CAT.obj
 0001:00002abc       ?Lock@CAtlModule@ATL@@UEAAJXZ 0000000180003abc f i CAT.obj
 0001:00002acc       ?Unlock@CAtlModule@ATL@@UEAAJXZ 0000000180003acc f i CAT.obj
 0001:00002ad8       ?GetLockCount@CAtlModule@ATL@@UEAAJXZ 0000000180003ad8 f i CAT.obj
 0001:00002adc       ?GetGITPtr@CAtlModule@ATL@@UEAAJPEAPEAUIGlobalInterfaceTable@@@Z 0000000180003adc f i CAT.obj
 0001:00002b4c       ?GetConnectionInterface@?$IConnectionPointImpl@VCOPOSCAT@@$1?DIID__IOPOSCATEvents@@3U_GUID@@BVCComDynamicUnkArray@ATL@@@ATL@@UEAAJPEAU_GUID@@@Z 0000000180003b4c f i CAT.obj
 0001:00002b68       ?GetConnectionPointContainer@?$IConnectionPointImpl@VCOPOSCAT@@$1?DIID__IOPOSCATEvents@@3U_GUID@@BVCComDynamicUnkArray@ATL@@@ATL@@UEAAJPEAPEAUIConnectionPointContainer@@@Z 0000000180003b68 f i CAT.obj
 0001:00002b88       ?UpdateRegistry@COPOSCAT@@SAJH@Z 0000000180003b88 f i CAT.obj
 0001:00002ba0       ?ProcessWindowMessage@COPOSCAT@@UEAAHPEAUHWND__@@I_K_JAEA_JK@Z 0000000180003ba0 f i CAT.obj
 0001:00002c30       ?SODirectIO@COPOSCAT@@MEAAJJPEAJPEAPEA_W@Z 0000000180003c30 f i CAT.obj
 0001:00002ca8       ?SOError@COPOSCAT@@MEAAJJJJPEAJ@Z 0000000180003ca8 f i CAT.obj
 0001:00002d30       ?SOOutputComplete@COPOSCAT@@MEAAJJ@Z 0000000180003d30 f i CAT.obj
 0001:00002d80       ?SOStatusUpdate@COPOSCAT@@MEAAJJ@Z 0000000180003d80 f i CAT.obj
 0001:00002dd0       ?AddCommonRGSReplacements@?$CAtlModuleT@VCComModule@ATL@@@ATL@@UEAAJPEAUIRegistrarBase@@@Z 0000000180003dd0 f i CAT.obj
 0001:00002de8       ?UpdateRegistryFromResourceD@CComModule@ATL@@UEAAJIHPEAU_ATL_REGMAP_ENTRY@2@@Z 0000000180003de8 f i CAT.obj
 0001:00002de8       ?UpdateRegistryFromResourceD@CComModule@ATL@@UEAAJPEB_WHPEAU_ATL_REGMAP_ENTRY@2@@Z 0000000180003de8 f i CAT.obj
 0001:00002df0       ?UpdateRegistryFromResource@CComModule@ATL@@UEAAJPEB_WHPEAU_ATL_REGMAP_ENTRY@2@@Z 0000000180003df0 f i CAT.obj
 0001:00002df8       ?UpdateRegistryFromResource@CComModule@ATL@@UEAAJIHPEAU_ATL_REGMAP_ENTRY@2@@Z 0000000180003df8 f i CAT.obj
 0001:00002e00       ??_ECComModule@ATL@@UEAAPEAXI@Z 0000000180003e00 f i CAT.obj
 0001:00002e00       ??_GCComModule@ATL@@UEAAPEAXI@Z 0000000180003e00 f i CAT.obj
 0001:00002e40       ?CreateInstance@?$CComCreator@V?$CComObjectCached@VCComClassFactory@ATL@@@ATL@@@ATL@@SAJPEAXAEBU_GUID@@PEAPEAX@Z 0000000180003e40 f i CAT.obj
 0001:00002f64       ?CreateInstance@?$CComCreator2@V?$CComCreator@V?$CComObject@VCOPOSCAT@@@ATL@@@ATL@@V?$CComCreator@V?$CComAggObject@VCOPOSCAT@@@ATL@@@2@@ATL@@SAJPEAXAEBU_GUID@@PEAPEAX@Z 0000000180003f64 f i CAT.obj
 0001:00002f74       ?AddRef@?$CComObjectCached@VCComClassFactory@ATL@@@ATL@@UEAAKXZ 0000000180003f74 f i CAT.obj
 0001:00002fa0       ?Release@?$CComObjectCached@VCComClassFactory@ATL@@@ATL@@UEAAKXZ 0000000180003fa0 f i CAT.obj
 0001:00002fe0       ?QueryInterface@?$CComObjectCached@VCComClassFactory@ATL@@@ATL@@UEAAJAEBU_GUID@@PEAPEAX@Z 0000000180003fe0 f i CAT.obj
 0001:00002ff4       ??_E?$CComObjectCached@VCComClassFactory@ATL@@@ATL@@UEAAPEAXI@Z 0000000180003ff4 f i CAT.obj
 0001:00002ff4       ??_G?$CComObjectCached@VCComClassFactory@ATL@@@ATL@@UEAAPEAXI@Z 0000000180003ff4 f i CAT.obj
 0001:0000304c       ?Next@?$CComEnumImpl@UIEnumConnectionPoints@@$1?_GUID_b196b285_bab4_101a_b69c_00aa00341d07@@3U__s_GUID@@BPEAUIConnectionPoint@@V?$_CopyInterface@UIConnectionPoint@@@ATL@@@ATL@@UEAAJKPEAPEAUIConnectionPoint@@PEAK@Z 000000018000404c f i CAT.obj
 0001:00003110       ?Skip@?$CComEnumImpl@UIEnumConnectionPoints@@$1?_GUID_b196b285_bab4_101a_b69c_00aa00341d07@@3U__s_GUID@@BPEAUIConnectionPoint@@V?$_CopyInterface@UIConnectionPoint@@@ATL@@@ATL@@UEAAJK@Z 0000000180004110 f i CAT.obj
 0001:0000313c       ?Clone@?$CComEnumImpl@UIEnumConnectionPoints@@$1?_GUID_b196b285_bab4_101a_b69c_00aa00341d07@@3U__s_GUID@@BPEAUIConnectionPoint@@V?$_CopyInterface@UIConnectionPoint@@@ATL@@@ATL@@UEAAJPEAPEAUIEnumConnectionPoints@@@Z 000000018000413c f i CAT.obj
 0001:00003268       ?QueryInterface@?$CComObject@V?$CComEnum@UIEnumConnectionPoints@@$1?_GUID_b196b285_bab4_101a_b69c_00aa00341d07@@3U__s_GUID@@BPEAUIConnectionPoint@@V?$_CopyInterface@UIConnectionPoint@@@ATL@@VCComSingleThreadModel@6@@ATL@@@ATL@@UEAAJAEBU_GUID@@PEAPEAX@Z 0000000180004268 f i CAT.obj
 0001:0000327c       ??_G?$CComObject@V?$CComEnum@UIEnumConnectionPoints@@$1?_GUID_b196b285_bab4_101a_b69c_00aa00341d07@@3U__s_GUID@@BPEAUIConnectionPoint@@V?$_CopyInterface@UIConnectionPoint@@@ATL@@VCComSingleThreadModel@6@@ATL@@@ATL@@UEAAPEAXI@Z 000000018000427c f i CAT.obj
 0001:0000327c       ??_E?$CComObject@V?$CComEnum@UIEnumConnectionPoints@@$1?_GUID_b196b285_bab4_101a_b69c_00aa00341d07@@3U__s_GUID@@BPEAUIConnectionPoint@@V?$_CopyInterface@UIConnectionPoint@@@ATL@@VCComSingleThreadModel@6@@ATL@@@ATL@@UEAAPEAXI@Z 000000018000427c f i CAT.obj
 0001:000032d4       ?AddReplacement@CRegObject@ATL@@UEAAJPEB_W0@Z 00000001800042d4 f i CAT.obj
 0001:00003304       ?ClearReplacements@CRegObject@ATL@@UEAAJXZ 0000000180004304 f i CAT.obj
 0001:00003310       ??_GCRegObject@ATL@@UEAAPEAXI@Z 0000000180004310 f i CAT.obj
 0001:00003310       ??_ECRegObject@ATL@@UEAAPEAXI@Z 0000000180004310 f i CAT.obj
 0001:00003390       ?AddRef@?$CComAggObject@VCOPOSCAT@@@ATL@@UEAAKXZ 0000000180004390 f i CAT.obj
 0001:0000339c       ?Release@?$CComAggObject@VCOPOSCAT@@@ATL@@UEAAKXZ 000000018000439c f i CAT.obj
 0001:000033f0       ?QueryInterface@?$CComAggObject@VCOPOSCAT@@@ATL@@UEAAJAEBU_GUID@@PEAPEAX@Z 00000001800043f0 f i CAT.obj
 0001:00003450       ?AddRef@?$CComContainedObject@VCOPOSCAT@@@ATL@@UEAAKXZ 0000000180004450 f i CAT.obj
 0001:00003460       ?Release@?$CComContainedObject@VCOPOSCAT@@@ATL@@UEAAKXZ 0000000180004460 f i CAT.obj
 0001:00003470       ?QueryInterface@?$CComContainedObject@VCOPOSCAT@@@ATL@@UEAAJAEBU_GUID@@PEAPEAX@Z 0000000180004470 f i CAT.obj
 0001:00003480       ??_G?$CComAggObject@VCOPOSCAT@@@ATL@@UEAAPEAXI@Z 0000000180004480 f i CAT.obj
 0001:00003480       ??_E?$CComAggObject@VCOPOSCAT@@@ATL@@UEAAPEAXI@Z 0000000180004480 f i CAT.obj
 0001:000034d8       ?AddRef@?$CComObject@VCOPOSCAT@@@ATL@@UEAAKXZ 00000001800044d8 f i CAT.obj
 0001:000034e8       ?Release@?$CComObject@VCOPOSCAT@@@ATL@@UEAAKXZ 00000001800044e8 f i CAT.obj
 0001:00003540       ?QueryInterface@?$CComObject@VCOPOSCAT@@@ATL@@UEAAJAEBU_GUID@@PEAPEAX@Z 0000000180004540 f i CAT.obj
 0001:00003554       ?OnDrawAdvanced@CComControlBase@ATL@@UEAAJAEAUATL_DRAWINFO@@@Z 0000000180004554 f i CAT.obj
 0001:000036e0       ??$AtlModuleRegisterWndClassInfoT@VAtlModuleRegisterWndClassInfoParamW@ATL@@@ATL@@YAGPEAU_ATL_BASE_MODULE70@0@PEAU_ATL_WIN_MODULE70@0@PEAU_ATL_WNDCLASSINFOW@0@PEAP6A_JPEAUHWND__@@I_K_J@ZVAtlModuleRegisterWndClassInfoParamW@0@@Z 00000001800046e0 f i CAT.obj
 0001:000038e0       ??0?$CComContainedObject@VCOPOSCAT@@@ATL@@QEAA@PEAX@Z 00000001800048e0 f i CAT.obj
 0001:000039fc       ??0?$CComObject@VCOPOSCAT@@@ATL@@QEAA@PEAX@Z 00000001800049fc f i CAT.obj
 0001:00003b14       ??0CAtlModule@ATL@@QEAA@XZ 0000000180004b14 f i CAT.obj
 0001:00003b88       ??1?$CComEnumImpl@UIEnumConnectionPoints@@$1?_GUID_b196b285_bab4_101a_b69c_00aa00341d07@@3U__s_GUID@@BPEAUIConnectionPoint@@V?$_CopyInterface@UIConnectionPoint@@@ATL@@@ATL@@UEAA@XZ 0000000180004b88 f i CAT.obj
 0001:00003be0       ??1?$CComEnumImpl@UIEnumConnections@@$1?_GUID_b196b287_bab4_101a_b69c_00aa00341d07@@3U__s_GUID@@BUtagCONNECTDATA@@V?$_Copy@UtagCONNECTDATA@@@ATL@@@ATL@@UEAA@XZ 0000000180004be0 f i CAT.obj
 0001:00003c38       ??1?$CComObject@VCOPOSCAT@@@ATL@@UEAA@XZ 0000000180004c38 f i CAT.obj
 0001:00003d58       ??_E?$CComContainedObject@VCOPOSCAT@@@ATL@@UEAAPEAXI@Z 0000000180004d58 f i CAT.obj
 0001:00003d58       ??_G?$CComContainedObject@VCOPOSCAT@@@ATL@@UEAAPEAXI@Z 0000000180004d58 f i CAT.obj
 0001:00003d8c       ??_E?$CComObject@VCOPOSCAT@@@ATL@@UEAAPEAXI@Z 0000000180004d8c f i CAT.obj
 0001:00003d8c       ??_G?$CComObject@VCOPOSCAT@@@ATL@@UEAAPEAXI@Z 0000000180004d8c f i CAT.obj
 0001:00003dc0       ?Add@?$CSimpleArray@GV?$CSimpleArrayEqualHelper@G@ATL@@@ATL@@QEAAHAEBG@Z 0000000180004dc0 f i CAT.obj
 0001:00003e60       ?Add@?$CSimpleMap@PEA_WPEA_WVCExpansionVectorEqualHelper@ATL@@@ATL@@QEAAHAEBQEA_W0@Z 0000000180004e60 f i CAT.obj
 0001:00003efc       ?Add@CComDynamicUnkArray@ATL@@QEAAKPEAUIUnknown@@@Z 0000000180004efc f i CAT.obj
 0001:00003fe0       ?Add@CExpansionVector@ATL@@QEAAHPEB_W0@Z 0000000180004fe0 f i CAT.obj
 0001:00004114       ?AddTermFunc@CAtlModule@ATL@@QEAAJP6AX_K@Z0@Z 0000000180005114 f i CAT.obj
 0001:000041b0       ?AddValue@CRegParser@ATL@@IEAAJAEAVCRegKey@2@PEB_WPEA_W@Z 00000001800051b0 f i CAT.obj
 0001:000045c0       ?AllocateHeap@?$CTempBuffer@E$0BAA@VCCRTAllocator@ATL@@@ATL@@AEAAX_K@Z 00000001800055c0 f i CAT.obj
 0001:000045c0       ?AllocateHeap@?$CTempBuffer@_W$0BAA@VCCRTAllocator@ATL@@@ATL@@AEAAX_K@Z 00000001800055c0 f i CAT.obj
 0001:000045c0       ?AllocateHeap@?$CTempBuffer@_W$0EAA@VCCRTAllocator@ATL@@@ATL@@AEAAX_K@Z 00000001800055c0 f i CAT.obj
 0001:000045ec       ?Append@CParseBuffer@CRegParser@ATL@@QEAAHPEB_WH@Z 00000001800055ec f i CAT.obj
 0001:00004720       ?AtlComModuleGetClassObject@ATL@@YAJPEAU_ATL_COM_MODULE70@1@AEBU_GUID@@1PEAPEAX@Z 0000000180005720 f i CAT.obj
 0001:0000485c       ?AtlComModuleRegisterServer@ATL@@YAJPEAU_ATL_COM_MODULE70@1@HPEBU_GUID@@@Z 000000018000585c f i CAT.obj
 0001:0000491c       ?AtlComModuleUnregisterServer@ATL@@YAJPEAU_ATL_COM_MODULE70@1@HPEBU_GUID@@@Z 000000018000591c f i CAT.obj
 0001:000049d8       ?AtlHiMetricToPixel@ATL@@YAXPEBUtagSIZE@@PEAU2@@Z 00000001800059d8 f i CAT.obj
 0001:00004a88       ?AtlHresultFromLastError@ATL@@YAJXZ 0000000180005a88 f i CAT.obj
 0001:00004aa8       ?AtlHresultFromWin32@ATL@@YAJK@Z 0000000180005aa8 f i CAT.obj
 0001:00004ab8       ?AtlInternalOleLoadFromStream@ATL@@YAJPEAUIStream@@AEBU_GUID@@PEAPEAXTClassesAllowedInStream@1@K@Z 0000000180005ab8 f i CAT.obj
 0001:00004c08       ?AtlInternalQueryInterface@ATL@@YAJPEAXPEBU_ATL_INTMAP_ENTRY@1@AEBU_GUID@@PEAPEAX@Z 0000000180005c08 f i CAT.obj
 0001:00004d10       ?AtlLoadTypeLib@ATL@@YAJPEAUHINSTANCE__@@PEB_WPEAPEA_WPEAPEAUITypeLib@@@Z 0000000180005d10 f i CAT.obj
 0001:00004f6c       ?AtlRegisterClassCategoriesHelper@ATL@@YAJAEBU_GUID@@PEBU_ATL_CATMAP_ENTRY@1@H@Z 0000000180005f6c f i CAT.obj
 0001:000053f0       ?AtlRegisterTypeLib@ATL@@YAJPEAUHINSTANCE__@@PEB_W@Z 00000001800063f0 f i CAT.obj
 0001:000055ec       ?AtlThrowImpl@ATL@@YAXJ@Z  00000001800065ec f i CAT.obj
 0001:00005610       ?AtlUnRegisterTypeLib@ATL@@YAJPEAUHINSTANCE__@@PEB_W@Z 0000000180006610 f i CAT.obj
 0001:000056d8       ?AtlWinModuleExtractCreateWndData@ATL@@YAPEAXPEAU_ATL_WIN_MODULE70@1@@Z 00000001800066d8 f i CAT.obj
 0001:00005764       ?ChToByte@CRegParser@ATL@@KAE_W@Z 0000000180006764 f i CAT.obj
 0001:000057f0       ?Cleanup@CComTypeInfoHolder@ATL@@SAX_K@Z 00000001800067f0 f i CAT.obj
 0001:00005830       ?ClearReplacements@CExpansionVector@ATL@@QEAAJXZ 0000000180006830 f i CAT.obj
 0001:000058cc       ?CreateInstance@?$CComCreator@V?$CComAggObject@VCOPOSCAT@@@ATL@@@ATL@@SAJPEAXAEBU_GUID@@PEAPEAX@Z 00000001800068cc f i CAT.obj
 0001:000059b0       ?CreateInstance@?$CComCreator@V?$CComObject@VCOPOSCAT@@@ATL@@@ATL@@SAJPEAXAEBU_GUID@@PEAPEAX@Z 00000001800069b0 f i CAT.obj
 0001:00005a70       ?CreateInstance@?$CComObject@V?$CComEnum@UIEnumConnectionPoints@@$1?_GUID_b196b285_bab4_101a_b69c_00aa00341d07@@3U__s_GUID@@BPEAUIConnectionPoint@@V?$_CopyInterface@UIConnectionPoint@@@ATL@@VCComSingleThreadModel@6@@ATL@@@ATL@@SAJPEAPEAV12@@Z 0000000180006a70 f i CAT.obj
 0001:00005b00       ?CreateInstance@?$CComObject@V?$CComEnum@UIEnumConnections@@$1?_GUID_b196b287_bab4_101a_b69c_00aa00341d07@@3U__s_GUID@@BUtagCONNECTDATA@@V?$_Copy@UtagCONNECTDATA@@@ATL@@VCComSingleThreadModel@6@@ATL@@@ATL@@SAJPEAPEAV12@@Z 0000000180006b00 f i CAT.obj
 0001:00005b90       ?DefaultReflectionHandler@?$CWindowImplRoot@VCWindow@ATL@@@ATL@@SAHPEAUHWND__@@I_K_JAEA_J@Z 0000000180006b90 f i CAT.obj
 0001:00005c24       ?DeleteSubKey@CRegKey@ATL@@QEAAJPEB_W@Z 0000000180006c24 f i CAT.obj
 0001:00005cbc       ?DoEvent@COPOSCAT@@IEAAXI_K_J@Z 0000000180006cbc f i CAT.obj
 0001:00005d70       ?DoVerbPrimary@?$IOleObjectImpl@VCOPOSCAT@@@ATL@@QEAAJPEBUtagRECT@@PEAUHWND__@@@Z 0000000180006d70 f i CAT.obj
 0001:00005e9c       ?DoVerbProperties@CComControlBase@ATL@@QEAAJPEBUtagRECT@@PEAUHWND__@@@Z 0000000180006e9c f i CAT.obj
 0001:000060c4       ?FireTheEvent@?$CProxy_IOPOSEvents@VCOPOSCAT@@@@IEAAXPEAVOposVariant@@IAEAJPEB_WJ@Z 00000001800070c4 f i CAT.obj
 0001:000061b0       ?FireViewChange@CComControlBase@ATL@@QEAAJXZ 00000001800071b0 f i CAT.obj
 0001:00006214       ?Fire_DirectIOEvent@?$CProxy_IOPOSEvents@VCOPOSCAT@@@@QEAAXJPEAJPEAPEA_W@Z 0000000180007214 f i CAT.obj
 0001:00006374       ?Fire_ErrorEvent@?$CProxy_IOPOSEvents@VCOPOSCAT@@@@QEAAXJJJPEAJ@Z 0000000180007374 f i CAT.obj
 0001:000064e8       ?Fire_OutputCompleteEvent@?$CProxy_IOPOSEvents@VCOPOSCAT@@@@QEAAXJ@Z 00000001800074e8 f i CAT.obj
 0001:000065d4       ?Fire_StatusUpdateEvent@?$CProxy_IOPOSEvents@VCOPOSCAT@@@@QEAAXJ@Z 00000001800075d4 f i CAT.obj
 0001:000066c0       ?FreeHeap@?$CTempBuffer@_W$0BAA@VCCRTAllocator@ATL@@@ATL@@AEAAXXZ 00000001800076c0 f i CAT.obj
 0001:000066c0       ?FreeHeap@?$CTempBuffer@_W$0EAA@VCCRTAllocator@ATL@@@ATL@@AEAAXXZ 00000001800076c0 f i CAT.obj
 0001:000066c0       ?FreeHeap@?$CTempBuffer@E$0BAA@VCCRTAllocator@ATL@@@ATL@@AEAAXXZ 00000001800076c0 f i CAT.obj
 0001:000066c8       ?GetAmbientLocaleID@CComControlBase@ATL@@QEAAJAEAK@Z 00000001800076c8 f i CAT.obj
 0001:00006788       ?GetAmbientUserMode@CComControlBase@ATL@@QEAAJAEAH@Z 0000000180007788 f i CAT.obj
 0001:00006858       ?GetClassObject@CComModule@ATL@@QEAAJAEBU_GUID@@0PEAPEAX@Z 0000000180007858 f i CAT.obj
 0001:0000694c       ?GetConnMap@COPOSCAT@@SAPEBU_ATL_CONNMAP_ENTRY@ATL@@PEAH@Z 000000018000794c f i CAT.obj
 0001:000069d4       ?GetIDsOfNames@CComTypeInfoHolder@ATL@@QEAAJAEBU_GUID@@PEAPEA_WIKPEAJ@Z 00000001800079d4 f i CAT.obj
 0001:00006b44       ?GetPagesHelper@?$ISpecifyPropertyPagesImpl@VCOPOSCAT@@@ATL@@IEAAJPEAUtagCAUUID@@PEBUATL_PROPMAP_ENTRY@2@@Z 0000000180007b44 f i CAT.obj
 0001:00006ce4       ?GetSizeMax@CComVariant@ATL@@QEBAJPEAT_ULARGE_INTEGER@@@Z 0000000180007ce4 f i CAT.obj
 0001:00006f14       ?GetTI@CComTypeInfoHolder@ATL@@QEAAJK@Z 0000000180007f14 f i CAT.obj
 0001:000071f8       ?GetZoomInfo@CComControlBase@ATL@@QEAAXAEAUATL_DRAWINFO@@@Z 00000001800081f8 f i CAT.obj
 0001:0000729c       ?HKeyFromString@CRegParser@ATL@@KAPEAUHKEY__@@PEA_W@Z 000000018000829c f i CAT.obj
 0001:00007300       ?IDataObject_GetData@CComControlBase@ATL@@QEAAJPEAUtagFORMATETC@@PEAUtagSTGMEDIUM@@@Z 0000000180008300 f i CAT.obj
 0001:000074f4       ?IOleInPlaceObject_InPlaceDeactivate@CComControlBase@ATL@@QEAAJXZ 00000001800084f4 f i CAT.obj
 0001:00007594       ?IOleInPlaceObject_SetObjectRects@CComControlBase@ATL@@QEAAJPEBUtagRECT@@0@Z 0000000180008594 f i CAT.obj
 0001:00007684       ?IOleInPlaceObject_UIDeactivate@CComControlBase@ATL@@QEAAJXZ 0000000180008684 f i CAT.obj
 0001:00007790       ?IOleObject_Close@CComControlBase@ATL@@QEAAJK@Z 0000000180008790 f i CAT.obj
 0001:000078a8       ?IOleObject_SetClientSite@CComControlBase@ATL@@QEAAJPEAUIOleClientSite@@@Z 00000001800088a8 f i CAT.obj
 0001:0000791c       ?IOleObject_SetExtent@CComControlBase@ATL@@QEAAJKPEAUtagSIZE@@@Z 000000018000891c f i CAT.obj
 0001:000079b4       ?IPSI_GetIPersistStreamInit@?$IPersistStorageImpl@VCOPOSCAT@@@ATL@@AEAAPEAUIPersistStreamInit@@XZ 00000001800089b4 f i CAT.obj
 0001:00007a9c       ?IPersistStreamInit_Load@?$IPersistStreamInitImpl@VCOPOSCAT@@@ATL@@QEAAJPEAUIStream@@PEBUATL_PROPMAP_ENTRY@2@@Z 0000000180008a9c f i CAT.obj
 0001:00007dc4       ?IPersistStreamInit_Save@?$IPersistStreamInitImpl@VCOPOSCAT@@@ATL@@QEAAJPEAUIStream@@HPEBUATL_PROPMAP_ENTRY@2@@Z 0000000180008dc4 f i CAT.obj
 0001:00008060       ?IQuickActivate_QuickActivate@CComControlBase@ATL@@QEAAJPEAUtagQACONTAINER@@PEAUtagQACONTROL@@@Z 0000000180009060 f i CAT.obj
 0001:00008324       ?IViewObject_Draw@CComControlBase@ATL@@QEAAJKJPEAXPEAUtagDVTARGETDEVICE@@PEAUHDC__@@2PEBU_RECTL@@3@Z 0000000180009324 f i CAT.obj
 0001:00008438       ?InPlaceActivate@CComControlBase@ATL@@QEAAJJPEBUtagRECT@@@Z 0000000180009438 f i CAT.obj
 0001:00008768       ?Init@?$CComEnumImpl@UIEnumConnectionPoints@@$1?_GUID_b196b285_bab4_101a_b69c_00aa00341d07@@3U__s_GUID@@BPEAUIConnectionPoint@@V?$_CopyInterface@UIConnectionPoint@@@ATL@@@ATL@@QEAAJPEAPEAUIConnectionPoint@@0PEAUIUnknown@@W4CComEnumFlags@2@@Z 0000000180009768 f i CAT.obj
 0001:00008884       ?Init@?$CComEnumImpl@UIEnumConnections@@$1?_GUID_b196b287_bab4_101a_b69c_00aa00341d07@@3U__s_GUID@@BUtagCONNECTDATA@@V?$_Copy@UtagCONNECTDATA@@@ATL@@@ATL@@QEAAJPEAUtagCONNECTDATA@@0PEAUIUnknown@@W4CComEnumFlags@2@@Z 0000000180009884 f i CAT.obj
 0001:000089a4       ?IsEqualObject@?$CComPtrBase@UIOleClientSite@@@ATL@@QEAA_NPEAUIUnknown@@@Z 00000001800099a4 f i CAT.obj
 0001:00008a30       ?LoadNameCache@CComTypeInfoHolder@ATL@@QEAAJPEAUITypeInfo@@@Z 0000000180009a30 f i CAT.obj
 0001:00008bc0       ?Lookup@?$CSimpleMap@PEA_WPEA_WVCExpansionVectorEqualHelper@ATL@@@ATL@@QEBAPEA_WAEBQEA_W@Z 0000000180009bc0 f i CAT.obj
 0001:00008c48       ?NextToken@CRegParser@ATL@@IEAAJPEA_W@Z 0000000180009c48 f i CAT.obj
 0001:00008de4       ?OnKillFocus@CComControlBase@ATL@@QEAA_JI_K_JAEAH@Z 0000000180009de4 f i CAT.obj
 0001:00008e80       ?OnMouseActivate@CComControlBase@ATL@@QEAA_JI_K_JAEAH@Z 0000000180009e80 f i CAT.obj
 0001:00008f20       ?OnPaint@CComControlBase@ATL@@QEAA_JI_K_JAEAH@Z 0000000180009f20 f i CAT.obj
 0001:0000900c       ?OnSetFocus@CComControlBase@ATL@@QEAA_JI_K_JAEAH@Z 000000018000a00c f i CAT.obj
 0001:00009114       ?PreProcessBuffer@CRegParser@ATL@@QEAAJPEA_WPEAPEA_W@Z 000000018000a114 f i CAT.obj
 0001:0000949c       ?ProcessWindowMessage@?$CComControl@VCOPOSCAT@@V?$CWindowImpl@VCOPOSCAT@@VCWindow@ATL@@V?$CWinTraits@$0FGAAAAAA@$0A@@3@@ATL@@@ATL@@UEAAHPEAUHWND__@@I_K_JAEA_JK@Z 000000018000a49c f i CAT.obj
 0001:00009588       ?ReadFromStream@CComBSTR@ATL@@QEAAJPEAUIStream@@@Z 000000018000a588 f i CAT.obj
 0001:000096d8       ?ReadFromStream@CComVariant@ATL@@QEAAJPEAUIStream@@GTClassesAllowedInStream@2@K@Z 000000018000a6d8 f i CAT.obj
 0001:0000991c       ?RecurseDeleteKey@CRegKey@ATL@@QEAAJPEB_W@Z 000000018000a91c f i CAT.obj
 0001:00009a74       ?RegCreateKeyExW@CAtlTransactionManager@ATL@@QEAAJPEAUHKEY__@@PEB_WKPEA_WKKQEAU_SECURITY_ATTRIBUTES@@PEAPEAU3@PEAK@Z 000000018000aa74 f i CAT.obj
 0001:00009ba8       ?RegDeleteKeyW@CAtlTransactionManager@ATL@@QEAAJPEAUHKEY__@@PEB_W@Z 000000018000aba8 f i CAT.obj
 0001:00009c34       ?RegOpenKeyExW@CAtlTransactionManager@ATL@@QEAAJPEAUHKEY__@@PEB_WKKPEAPEAU3@@Z 000000018000ac34 f i CAT.obj
 0001:00009cec       ?RegisterBuffer@CRegParser@ATL@@QEAAJPEA_WH@Z 000000018000acec f i CAT.obj
 0001:00009e58       ?RegisterFromResource@CRegObject@ATL@@IEAAJPEB_W00H@Z 000000018000ae58 f i CAT.obj
 0001:0000a014       ?RegisterServer@CComModule@ATL@@QEAAJHPEBU_GUID@@@Z 000000018000b014 f i CAT.obj
 0001:0000a0d0       ?RegisterSubkeys@CRegParser@ATL@@IEAAJPEA_WPEAUHKEY__@@HH@Z 000000018000b0d0 f i CAT.obj
 0001:0000a950       ?SendOnDataChange@CComControlBase@ATL@@QEAAJK@Z 000000018000b950 f i CAT.obj
 0001:0000a9c0       ?SetControlFocus@CComControlBase@ATL@@QEAAHH@Z 000000018000b9c0 f i CAT.obj
 0001:0000aa90       ?SkipAssignment@CRegParser@ATL@@IEAAJPEA_W@Z 000000018000ba90 f i CAT.obj
 0001:0000ab48       ?Term@CAtlModule@ATL@@QEAAXXZ 000000018000bb48 f i CAT.obj
 0001:0000ac00       ?Term@CComModule@ATL@@QEAAXXZ 000000018000bc00 f i CAT.obj
 0001:0000ac7c       ?UnregisterServer@CComModule@ATL@@QEAAJHPEBU_GUID@@@Z 000000018000bc7c f i CAT.obj
 0001:0000ad2c       ?UpdateRegistryFromResource@CAtlModule@ATL@@QEAAJIHPEAU_ATL_REGMAP_ENTRY@2@@Z 000000018000bd2c f i CAT.obj
 0001:0000b038       ?UpdateRegistryFromResource@CAtlModule@ATL@@QEAAJPEB_WHPEAU_ATL_REGMAP_ENTRY@2@@Z 000000018000c038 f i CAT.obj
 0001:0000b35c       ?VTFromRegType@CRegParser@ATL@@KAHPEB_WAEAG@Z 000000018000c35c f i CAT.obj
 0001:0000b3f8       ?WindowProc@?$CWindowImplBaseT@VCWindow@ATL@@V?$CWinTraits@$0FGAAAAAA@$0A@@2@@ATL@@SA_JPEAUHWND__@@I_K_J@Z 000000018000c3f8 f i CAT.obj
 0001:0000b564       ?WriteToStream@CComVariant@ATL@@QEAAJPEAUIStream@@@Z 000000018000c564 f i CAT.obj
 0001:0000b7d0       ?WriteToStream@CComVariant@ATL@@QEAAJPEAUIStream@@G@Z 000000018000c7d0 f i CAT.obj
 0001:0000b868       ?_AtlVerifyStackAvailable@_ATL_SAFE_ALLOCA_IMPL@ATL@@YA_N_K@Z 000000018000c868 f i CAT.obj
 0001:0000b8ec       ?atlCreate@?$CWindowImpl@VCOPOSCAT@@VCWindow@ATL@@V?$CWinTraits@$0FGAAAAAA@$0A@@3@@ATL@@QEAAPEAUHWND__@@PEAU3@V_U_RECT@2@PEB_WKKV_U_MENUorID@2@PEAX@Z 000000018000c8ec f i CAT.obj
 0001:0000b9a8       ?atlCreate@?$CWindowImplBaseT@VCWindow@ATL@@V?$CWinTraits@$0FGAAAAAA@$0A@@2@@ATL@@QEAAPEAUHWND__@@PEAU3@V_U_RECT@2@PEB_WKKV_U_MENUorID@2@GPEAX@Z 000000018000c9a8 f i CAT.obj
 0001:0000bb18       ?ocscpy_s@@YA_NPEA_W_KPEB_W@Z 000000018000cb18 f i CAT.obj
 0001:0000bbc8       DllCanUnloadNow            000000018000cbc8 f   CAT.obj
 0001:0000bbd4       DllGetClassObject          000000018000cbd4 f   CAT.obj
 0001:0000bbec       DllMain                    000000018000cbec f   CAT.obj
 0001:0000bc94       DllRegisterServer          000000018000cc94 f   CAT.obj
 0001:0000bca8       DllUnregisterServer        000000018000cca8 f   CAT.obj
 0001:0000bcbc       __local_stdio_printf_options 000000018000ccbc f i CAT.obj
 0001:0000bcc4       swprintf_s                 000000018000ccc4 f i CAT.obj
 0001:0000bd18       ??0COPOSCAT@@QEAA@XZ       000000018000cd18 f   CATImpl.obj
 0001:0000bde0       ??1?$IConnectionPointImpl@VCOPOSCAT@@$1?IID_IPropertyNotifySink@@3U_GUID@@BVCComDynamicUnkArray@ATL@@@ATL@@QEAA@XZ 000000018000cde0 f i CATImpl.obj
 0001:0000bde0       ??1?$IConnectionPointImpl@VCOPOSCAT@@$1?DIID__IOPOSCATEvents@@3U_GUID@@BVCComDynamicUnkArray@ATL@@@ATL@@QEAA@XZ 000000018000cde0 f i CATImpl.obj
 0001:0000be3c       ??1CComControlBase@ATL@@UEAA@XZ 000000018000ce3c f i CATImpl.obj
 0001:0000beb8       ??1COPOSCAT@@UEAA@XZ       000000018000ceb8 f   CATImpl.obj
 0001:0000bf1c       ?AccessDailyLog@COPOSCAT@@UEAAJJJJPEAJ@Z 000000018000cf1c f   CATImpl.obj
 0001:0000c004       ?AuthorizeCompletion@COPOSCAT@@UEAAJJTtagCY@@0JPEAJ@Z 000000018000d004 f   CATImpl.obj
 0001:0000c104       ?AuthorizePreSales@COPOSCAT@@UEAAJJTtagCY@@0JPEAJ@Z 000000018000d104 f   CATImpl.obj
 0001:0000c204       ?AuthorizeRefund@COPOSCAT@@UEAAJJTtagCY@@0JPEAJ@Z 000000018000d204 f   CATImpl.obj
 0001:0000c304       ?AuthorizeSales@COPOSCAT@@UEAAJJTtagCY@@0JPEAJ@Z 000000018000d304 f   CATImpl.obj
 0001:0000c404       ?AuthorizeVoid@COPOSCAT@@UEAAJJTtagCY@@0JPEAJ@Z 000000018000d404 f   CATImpl.obj
 0001:0000c504       ?AuthorizeVoidPreSales@COPOSCAT@@UEAAJJTtagCY@@0JPEAJ@Z 000000018000d504 f   CATImpl.obj
 0001:0000c604       ?CashDeposit@COPOSCAT@@UEAAJJTtagCY@@JPEAJ@Z 000000018000d604 f   CATImpl.obj
 0001:0000c6f0       ?CheckCard@COPOSCAT@@UEAAJJJPEAJ@Z 000000018000d6f0 f   CATImpl.obj
 0001:0000c7bc       ?CheckHealth@COPOSCAT@@UEAAJJPEAJ@Z 000000018000d7bc f   CATImpl.obj
 0001:0000c838       ?ClaimDevice@COPOSCAT@@UEAAJJPEAJ@Z 000000018000d838 f   CATImpl.obj
 0001:0000c8d8       ?ClearOutput@COPOSCAT@@UEAAJPEAJ@Z 000000018000d8d8 f   CATImpl.obj
 0001:0000c900       ?Close@COPOSCAT@@UEAAJPEAJ@Z 000000018000d900 f   CATImpl.obj
 0001:0000c9b8       ?CompareFirmwareVersion@COPOSCAT@@UEAAJPEA_WPEAJ1@Z 000000018000d9b8 f   CATImpl.obj
 0001:0000ca94       ?DirectIO@COPOSCAT@@UEAAJJPEAJPEAPEA_W0@Z 000000018000da94 f   CATImpl.obj
 0001:0000cb90       ?DoInvoke@COPOSCAT@@IEAAJJPEAVOposVariant@@IHPEAJ_N@Z 000000018000db90 f   CATImpl.obj
 0001:0000ccc4       ?EventInit@COPOSCAT@@IEAAJXZ 000000018000dcc4 f i CATImpl.obj
 0001:0000ce14       ?EventUninit@COPOSCAT@@IEAAXXZ 000000018000de14 f i CATImpl.obj
 0001:0000ce78       ?EventWindowProc@COPOSCAT@@IEAA_JI_K_J@Z 000000018000de78 f i CATImpl.obj
 0001:0000cff4       ?FinalConstruct@COPOSCAT@@QEAAJXZ 000000018000dff4 f   CATImpl.obj
 0001:0000d030       ?FreezeEvents@COPOSCAT@@MEAAJH@Z 000000018000e030 f   CATImpl.obj
 0001:0000d09c       ?GetOposProp@COPOSCAT@@IEAAJJPEAJJ@Z 000000018000e09c f   CATImpl.obj
 0001:0000d1b8       ?GetOposProp@COPOSCAT@@IEAAJJPEAPEA_WJ@Z 000000018000e1b8 f   CATImpl.obj
 0001:0000d2e4       ?LockTerminal@COPOSCAT@@UEAAJPEAJ@Z 000000018000e2e4 f   CATImpl.obj
 0001:0000d30c       ?OnDraw@COPOSCAT@@MEAAJAEAUATL_DRAWINFO@@@Z 000000018000e30c f   CATImpl.obj
 0001:0000d3f8       ?Open@COPOSCAT@@UEAAJPEA_WPEAJ@Z 000000018000e3f8 f   CATImpl.obj
 0001:0000dc80       ?ReleaseDevice@COPOSCAT@@UEAAJPEAJ@Z 000000018000ec80 f   CATImpl.obj
 0001:0000dcec       ?ResetStatistics@COPOSCAT@@UEAAJPEA_WPEAJ@Z 000000018000ecec f   CATImpl.obj
 0001:0000dd74       ?RetrieveStatistics@COPOSCAT@@UEAAJPEAPEA_WPEAJ@Z 000000018000ed74 f   CATImpl.obj
 0001:0000ddfc       ?SOProcessID@COPOSCAT@@UEAAJPEAJ@Z 000000018000edfc f   CATImpl.obj
 0001:0000de18       ?SetCOFreezeEvents@COPOSCAT@@IEAAXF@Z 000000018000ee18 f   CATImpl.obj
 0001:0000defc       ?SetOposProp@COPOSCAT@@IEAAJJJJ@Z 000000018000eefc f   CATImpl.obj
 0001:0000e05c       ?SetOposProp@COPOSCAT@@IEAAJJPEA_WJ@Z 000000018000f05c f   CATImpl.obj
 0001:0000e1b4       ?UnlockTerminal@COPOSCAT@@UEAAJPEAJ@Z 000000018000f1b4 f   CATImpl.obj
 0001:0000e1dc       ?UpdateFirmware@COPOSCAT@@UEAAJPEA_WPEAJ@Z 000000018000f1dc f   CATImpl.obj
 0001:0000e264       ?UpdateStatistics@COPOSCAT@@UEAAJPEA_WPEAJ@Z 000000018000f264 f   CATImpl.obj
 0001:0000e2ec       ?get_AccountNumber@COPOSCAT@@UEAAJPEAPEA_W@Z 000000018000f2ec f   CATImpl.obj
 0001:0000e300       ?get_AdditionalSecurityInformation@COPOSCAT@@UEAAJPEAPEA_W@Z 000000018000f300 f   CATImpl.obj
 0001:0000e314       ?get_ApprovalCode@COPOSCAT@@UEAAJPEAPEA_W@Z 000000018000f314 f   CATImpl.obj
 0001:0000e328       ?get_AsyncMode@COPOSCAT@@UEAAJPEAF@Z 000000018000f328 f   CATImpl.obj
 0001:0000e35c       ?get_Balance@COPOSCAT@@UEAAJPEATtagCY@@@Z 000000018000f35c f   CATImpl.obj
 0001:0000e43c       ?get_BinaryConversion@COPOSCAT@@UEAAJPEAJ@Z 000000018000f43c f   CATImpl.obj
 0001:0000e450       ?get_CapAdditionalSecurityInformation@COPOSCAT@@UEAAJPEAF@Z 000000018000f450 f   CATImpl.obj
 0001:0000e484       ?get_CapAuthorizeCompletion@COPOSCAT@@UEAAJPEAF@Z 000000018000f484 f   CATImpl.obj
 0001:0000e4b8       ?get_CapAuthorizePreSales@COPOSCAT@@UEAAJPEAF@Z 000000018000f4b8 f   CATImpl.obj
 0001:0000e4ec       ?get_CapAuthorizeRefund@COPOSCAT@@UEAAJPEAF@Z 000000018000f4ec f   CATImpl.obj
 0001:0000e520       ?get_CapAuthorizeVoid@COPOSCAT@@UEAAJPEAF@Z 000000018000f520 f   CATImpl.obj
 0001:0000e554       ?get_CapAuthorizeVoidPreSales@COPOSCAT@@UEAAJPEAF@Z 000000018000f554 f   CATImpl.obj
 0001:0000e588       ?get_CapCashDeposit@COPOSCAT@@UEAAJPEAF@Z 000000018000f588 f   CATImpl.obj
 0001:0000e5bc       ?get_CapCenterResultCode@COPOSCAT@@UEAAJPEAF@Z 000000018000f5bc f   CATImpl.obj
 0001:0000e5f0       ?get_CapCheckCard@COPOSCAT@@UEAAJPEAF@Z 000000018000f5f0 f   CATImpl.obj
 0001:0000e624       ?get_CapCompareFirmwareVersion@COPOSCAT@@UEAAJPEAF@Z 000000018000f624 f   CATImpl.obj
 0001:0000e658       ?get_CapDailyLog@COPOSCAT@@UEAAJPEAJ@Z 000000018000f658 f   CATImpl.obj
 0001:0000e66c       ?get_CapInstallments@COPOSCAT@@UEAAJPEAF@Z 000000018000f66c f   CATImpl.obj
 0001:0000e6a0       ?get_CapLockTerminal@COPOSCAT@@UEAAJPEAF@Z 000000018000f6a0 f   CATImpl.obj
 0001:0000e6d4       ?get_CapLogStatus@COPOSCAT@@UEAAJPEAF@Z 000000018000f6d4 f   CATImpl.obj
 0001:0000e708       ?get_CapPaymentDetail@COPOSCAT@@UEAAJPEAF@Z 000000018000f708 f   CATImpl.obj
 0001:0000e73c       ?get_CapPowerReporting@COPOSCAT@@UEAAJPEAJ@Z 000000018000f73c f   CATImpl.obj
 0001:0000e750       ?get_CapStatisticsReporting@COPOSCAT@@UEAAJPEAF@Z 000000018000f750 f   CATImpl.obj
 0001:0000e784       ?get_CapTaxOthers@COPOSCAT@@UEAAJPEAF@Z 000000018000f784 f   CATImpl.obj
 0001:0000e7b8       ?get_CapTrainingMode@COPOSCAT@@UEAAJPEAF@Z 000000018000f7b8 f   CATImpl.obj
 0001:0000e7ec       ?get_CapTransactionNumber@COPOSCAT@@UEAAJPEAF@Z 000000018000f7ec f   CATImpl.obj
 0001:0000e820       ?get_CapUnlockTerminal@COPOSCAT@@UEAAJPEAF@Z 000000018000f820 f   CATImpl.obj
 0001:0000e854       ?get_CapUpdateFirmware@COPOSCAT@@UEAAJPEAF@Z 000000018000f854 f   CATImpl.obj
 0001:0000e888       ?get_CapUpdateStatistics@COPOSCAT@@UEAAJPEAF@Z 000000018000f888 f   CATImpl.obj
 0001:0000e8bc       ?get_CardCompanyID@COPOSCAT@@UEAAJPEAPEA_W@Z 000000018000f8bc f   CATImpl.obj
 0001:0000e8d0       ?get_CenterResultCode@COPOSCAT@@UEAAJPEAPEA_W@Z 000000018000f8d0 f   CATImpl.obj
 0001:0000e8e4       ?get_CheckHealthText@COPOSCAT@@UEAAJPEAPEA_W@Z 000000018000f8e4 f   CATImpl.obj
 0001:0000e8f8       ?get_Claimed@COPOSCAT@@UEAAJPEAF@Z 000000018000f8f8 f   CATImpl.obj
 0001:0000e92c       ?get_ControlObjectDescription@COPOSCAT@@UEAAJPEAPEA_W@Z 000000018000f92c f   CATImpl.obj
 0001:0000e990       ?get_ControlObjectVersion@COPOSCAT@@UEAAJPEAJ@Z 000000018000f990 f   CATImpl.obj
 0001:0000e99c       ?get_DailyLog@COPOSCAT@@UEAAJPEAPEA_W@Z 000000018000f99c f   CATImpl.obj
 0001:0000e9b0       ?get_DeviceDescription@COPOSCAT@@UEAAJPEAPEA_W@Z 000000018000f9b0 f   CATImpl.obj
 0001:0000e9c4       ?get_DeviceEnabled@COPOSCAT@@UEAAJPEAF@Z 000000018000f9c4 f   CATImpl.obj
 0001:0000e9f8       ?get_DeviceName@COPOSCAT@@UEAAJPEAPEA_W@Z 000000018000f9f8 f   CATImpl.obj
 0001:0000ea0c       ?get_FreezeEvents@COPOSCAT@@UEAAJPEAF@Z 000000018000fa0c f   CATImpl.obj
 0001:0000ea3c       ?get_LogStatus@COPOSCAT@@UEAAJPEAJ@Z 000000018000fa3c f   CATImpl.obj
 0001:0000ea50       ?get_OpenResult@COPOSCAT@@UEAAJPEAJ@Z 000000018000fa50 f   CATImpl.obj
 0001:0000ea5c       ?get_OutputID@COPOSCAT@@UEAAJPEAJ@Z 000000018000fa5c f   CATImpl.obj
 0001:0000ea70       ?get_PaymentCondition@COPOSCAT@@UEAAJPEAJ@Z 000000018000fa70 f   CATImpl.obj
 0001:0000ea84       ?get_PaymentDetail@COPOSCAT@@UEAAJPEAPEA_W@Z 000000018000fa84 f   CATImpl.obj
 0001:0000ea98       ?get_PaymentMedia@COPOSCAT@@UEAAJPEAJ@Z 000000018000fa98 f   CATImpl.obj
 0001:0000eaac       ?get_PowerNotify@COPOSCAT@@UEAAJPEAJ@Z 000000018000faac f   CATImpl.obj
 0001:0000eac0       ?get_PowerState@COPOSCAT@@UEAAJPEAJ@Z 000000018000fac0 f   CATImpl.obj
 0001:0000ead4       ?get_ResultCode@COPOSCAT@@UEAAJPEAJ@Z 000000018000fad4 f   CATImpl.obj
 0001:0000eb10       ?get_ResultCodeExtended@COPOSCAT@@UEAAJPEAJ@Z 000000018000fb10 f   CATImpl.obj
 0001:0000eb24       ?get_SequenceNumber@COPOSCAT@@UEAAJPEAJ@Z 000000018000fb24 f   CATImpl.obj
 0001:0000eb38       ?get_ServiceObjectDescription@COPOSCAT@@UEAAJPEAPEA_W@Z 000000018000fb38 f   CATImpl.obj
 0001:0000eb4c       ?get_ServiceObjectVersion@COPOSCAT@@UEAAJPEAJ@Z 000000018000fb4c f   CATImpl.obj
 0001:0000eb60       ?get_SettledAmount@COPOSCAT@@UEAAJPEATtagCY@@@Z 000000018000fb60 f   CATImpl.obj
 0001:0000ec40       ?get_SlipNumber@COPOSCAT@@UEAAJPEAPEA_W@Z 000000018000fc40 f   CATImpl.obj
 0001:0000ec54       ?get_State@COPOSCAT@@UEAAJPEAJ@Z 000000018000fc54 f   CATImpl.obj
 0001:0000ec80       ?get_TrainingMode@COPOSCAT@@UEAAJPEAF@Z 000000018000fc80 f   CATImpl.obj
 0001:0000ecb4       ?get_TransactionNumber@COPOSCAT@@UEAAJPEAPEA_W@Z 000000018000fcb4 f   CATImpl.obj
 0001:0000ecc8       ?get_TransactionType@COPOSCAT@@UEAAJPEAJ@Z 000000018000fcc8 f   CATImpl.obj
 0001:0000ecdc       ?put_AdditionalSecurityInformation@COPOSCAT@@UEAAJPEA_W@Z 000000018000fcdc f   CATImpl.obj
 0001:0000ecf0       ?put_AsyncMode@COPOSCAT@@UEAAJF@Z 000000018000fcf0 f   CATImpl.obj
 0001:0000ed0c       ?put_BinaryConversion@COPOSCAT@@UEAAJJ@Z 000000018000fd0c f   CATImpl.obj
 0001:0000ed20       ?put_DeviceEnabled@COPOSCAT@@UEAAJF@Z 000000018000fd20 f   CATImpl.obj
 0001:0000ed38       ?put_FreezeEvents@COPOSCAT@@UEAAJF@Z 000000018000fd38 f   CATImpl.obj
 0001:0000ed88       ?put_PaymentMedia@COPOSCAT@@UEAAJJ@Z 000000018000fd88 f   CATImpl.obj
 0001:0000ed9c       ?put_PowerNotify@COPOSCAT@@UEAAJJ@Z 000000018000fd9c f   CATImpl.obj
 0001:0000edb0       ?put_TrainingMode@COPOSCAT@@UEAAJF@Z 000000018000fdb0 f   CATImpl.obj
 0001:0000edcc       ?s_EventWindowProc@COPOSCAT@@KA_JPEAUHWND__@@I_K_J@Z 000000018000fdcc f i CATImpl.obj
 0001:0000ee48       ??_U@YAPEAX_K@Z            000000018000fe48 f   LIBCMT:new_array.obj
 0001:0000ee50       ??_V@YAXPEAX@Z             000000018000fe50 f   LIBCMT:delete_array.obj
 0001:0000ee50       ??3@YAXPEAX_K@Z            000000018000fe50 f   LIBCMT:delete_scalar_size.obj
 0001:0000ee58       ??_V@YAXPEAX_K@Z           000000018000fe58 f   LIBCMT:delete_array_size.obj
 0001:0000ee60       __scrt_acquire_startup_lock 000000018000fe60 f   LIBCMT:utility.obj
 0001:0000ee9c       __scrt_dllmain_after_initialize_c 000000018000fe9c f   LIBCMT:utility.obj
 0001:0000eed0       __scrt_dllmain_before_initialize_c 000000018000fed0 f   LIBCMT:utility.obj
 0001:0000eee8       __scrt_dllmain_crt_thread_attach 000000018000fee8 f   LIBCMT:utility.obj
 0001:0000ef10       __scrt_dllmain_crt_thread_detach 000000018000ff10 f   LIBCMT:utility.obj
 0001:0000ef28       __scrt_dllmain_exception_filter 000000018000ff28 f   LIBCMT:utility.obj
 0001:0000ef88       __scrt_dllmain_uninitialize_c 000000018000ff88 f   LIBCMT:utility.obj
 0001:0000efb8       __scrt_dllmain_uninitialize_critical 000000018000ffb8 f   LIBCMT:utility.obj
 0001:0000efcc       __scrt_initialize_crt      000000018000ffcc f   LIBCMT:utility.obj
 0001:0000f018       __scrt_initialize_onexit_tables 0000000180010018 f   LIBCMT:utility.obj
 0001:0000f0a4       __scrt_is_nonwritable_in_current_image 00000001800100a4 f   LIBCMT:utility.obj
 0001:0000f13c       __scrt_release_startup_lock 000000018001013c f   LIBCMT:utility.obj
 0001:0000f160       __scrt_uninitialize_crt    0000000180010160 f   LIBCMT:utility.obj
 0001:0000f18c       _onexit                    000000018001018c f   LIBCMT:utility.obj
 0001:0000f1c8       atexit                     00000001800101c8 f   LIBCMT:utility.obj
 0001:0000f1e0       ??3@YAXPEAX@Z              00000001800101e0 f   LIBCMT:delete_scalar.obj
 0001:0000f2e0       _Init_thread_footer        00000001800102e0 f   LIBCMT:thread_safe_statics.obj
 0001:0000f340       _Init_thread_header        0000000180010340 f   LIBCMT:thread_safe_statics.obj
 0001:0000f3a8       _Init_thread_notify        00000001800103a8 f   LIBCMT:thread_safe_statics.obj
 0001:0000f3ec       _Init_thread_wait          00000001800103ec f   LIBCMT:thread_safe_statics.obj
 0001:0000f450       __raise_securityfailure    0000000180010450 f   LIBCMT:gs_report.obj
 0001:0000f484       __report_gsfailure         0000000180010484 f   LIBCMT:gs_report.obj
 0001:0000f558       __report_rangecheckfailure 0000000180010558 f   LIBCMT:gs_report.obj
 0001:0000f56c       __report_securityfailure   000000018001056c f   LIBCMT:gs_report.obj
 0001:0000f6ec       ??2@YAPEAX_KAEBUnothrow_t@std@@@Z 00000001800106ec f   LIBCMT:new_scalar_nothrow.obj
 0001:0000f700       ??_U@YAPEAX_KAEBUnothrow_t@std@@@Z 0000000180010700 f   LIBCMT:new_array_nothrow.obj
 0001:0000f708       __GSHandlerCheck           0000000180010708 f   LIBCMT:gshandler.obj
 0001:0000f728       __GSHandlerCheckCommon     0000000180010728 f   LIBCMT:gshandler.obj
 0001:0000f784       __GSHandlerCheck_SEH       0000000180010784 f   LIBCMT:gshandlerseh.obj
 0001:0000f820       _alloca_probe              0000000180010820 f   LIBCMT:chkstk.obj
 0001:0000f820       __chkstk                   0000000180010820 f   LIBCMT:chkstk.obj
 0001:0000f880       __security_check_cookie    0000000180010880 f   LIBCMT:amdsecgs.obj
 0001:0000fbc0       _DllMainCRTStartup         0000000180010bc0 f   LIBCMT:dll_dllmain.obj
 0001:0000fc00       ??2@YAPEAX_K@Z             0000000180010c00 f   LIBCMT:new_scalar.obj
 0001:0000fc3c       __isa_available_init       0000000180010c3c f   LIBCMT:cpu_disp.obj
 0001:0000fde0       __scrt_is_ucrt_dll_in_use  0000000180010de0 f   LIBCMT:ucrt_detection.obj
 0001:0000fdec       __crt_debugger_hook        0000000180010dec f   LIBCMT:utility_desktop.obj
 0001:0000fdf4       __scrt_fastfail            0000000180010df4 f   LIBCMT:utility_desktop.obj
 0001:0000ff40       __security_init_cookie     0000000180010f40 f   LIBCMT:gs_support.obj
 0001:0000ffec       ?__scrt_initialize_type_info@@YAXXZ 0000000180010fec f   LIBCMT:tncleanup.obj
 0001:0000fffc       ?__scrt_uninitialize_type_info@@YAXXZ 0000000180010ffc f   LIBCMT:tncleanup.obj
 0001:00010008       __local_stdio_scanf_options 0000000180011008 f i LIBCMT:default_local_stdio_options.obj
 0001:00010010       __scrt_initialize_default_local_stdio_options 0000000180011010 f   LIBCMT:default_local_stdio_options.obj
 0001:0001002c       __scrt_get_dyn_tls_init_callback 000000018001102c f   LIBCMT:dyn_tls_init.obj
 0001:00010034       _RTC_Initialize            0000000180011034 f   LIBCMT:initsect.obj
 0001:00010070       _RTC_Terminate             0000000180011070 f   LIBCMT:initsect.obj
 0001:000100ac       ??0bad_alloc@std@@QEAA@AEBV01@@Z 00000001800110ac f i LIBCMT:throw_bad_alloc.obj
 0001:000100e8       ??0bad_alloc@std@@QEAA@XZ  00000001800110e8 f i LIBCMT:throw_bad_alloc.obj
 0001:00010108       ??0bad_array_new_length@std@@QEAA@AEBV01@@Z 0000000180011108 f i LIBCMT:throw_bad_alloc.obj
 0001:00010144       ??0bad_array_new_length@std@@QEAA@XZ 0000000180011144 f i LIBCMT:throw_bad_alloc.obj
 0001:00010164       ??0exception@std@@QEAA@AEBV01@@Z 0000000180011164 f i LIBCMT:throw_bad_alloc.obj
 0001:00010198       ??1bad_array_new_length@std@@UEAA@XZ 0000000180011198 f i LIBCMT:throw_bad_alloc.obj
 0001:00010198       ??1bad_alloc@std@@UEAA@XZ  0000000180011198 f i LIBCMT:throw_bad_alloc.obj
 0001:00010198       ??1bad_exception@std@@UEAA@XZ 0000000180011198 f i libvcruntime:frame.obj
 0001:000101ac       ??_Gbad_array_new_length@std@@UEAAPEAXI@Z 00000001800111ac f i LIBCMT:throw_bad_alloc.obj
 0001:000101ac       ??_Gexception@std@@UEAAPEAXI@Z 00000001800111ac f i LIBCMT:throw_bad_alloc.obj
 0001:000101ac       ??_Ebad_alloc@std@@UEAAPEAXI@Z 00000001800111ac f i LIBCMT:throw_bad_alloc.obj
 0001:000101ac       ??_Gbad_exception@std@@UEAAPEAXI@Z 00000001800111ac f i libvcruntime:frame.obj
 0001:000101ac       ??_Ebad_array_new_length@std@@UEAAPEAXI@Z 00000001800111ac f i LIBCMT:throw_bad_alloc.obj
 0001:000101ac       ??_Ebad_exception@std@@UEAAPEAXI@Z 00000001800111ac f i libvcruntime:frame.obj
 0001:000101ac       ??_Eexception@std@@UEAAPEAXI@Z 00000001800111ac f i LIBCMT:throw_bad_alloc.obj
 0001:000101ac       ??_Gbad_alloc@std@@UEAAPEAXI@Z 00000001800111ac f i LIBCMT:throw_bad_alloc.obj
 0001:000101f0       ?__scrt_throw_std_bad_alloc@@YAXXZ 00000001800111f0 f   LIBCMT:throw_bad_alloc.obj
 0001:00010210       ?__scrt_throw_std_bad_array_new_length@@YAXXZ 0000000180011210 f   LIBCMT:throw_bad_alloc.obj
 0001:00010230       ?what@exception@std@@UEBAPEBDXZ 0000000180011230 f i LIBCMT:throw_bad_alloc.obj
 0001:00010250       ??_Etype_info@@UEAAPEAXI@Z 0000000180011250 f i LIBCMT:std_type_info_static.obj
 0001:00010250       ??_Gtype_info@@UEAAPEAXI@Z 0000000180011250 f i LIBCMT:std_type_info_static.obj
 0001:0001027c       ??0CAtlBaseModule@ATL@@QEAA@XZ 000000018001127c f   atls:atlbase.obj
 0001:00010324       ??1CAtlBaseModule@ATL@@QEAA@XZ 0000000180011324 f   atls:atlbase.obj
 0001:00010458       ?__AllocStdCallThunk_cmn@@YAPEAXXZ 0000000180011458 f   atls:atlthunk.obj
 0001:000105b0       AtlThunk_AllocateData      00000001800115b0 f   atls:atlthunk.obj
 0001:0001062c       AtlThunk_DataToCode        000000018001162c f   atls:atlthunk.obj
 0001:00010680       AtlThunk_FreeData          0000000180011680 f   atls:atlthunk.obj
 0001:000106e0       AtlThunk_InitData          00000001800116e0 f   atls:atlthunk.obj
 0001:00010788       _get_purecall_handler      0000000180011788 f   libvcruntime:purevirt.obj
 0001:00010794       _purecall                  0000000180011794 f   libvcruntime:purevirt.obj
 0001:000107b0       wcsstr                     00000001800117b0 f   libvcruntime:wcsstr.obj
 0001:000109e0       memcmp                     00000001800119e0 f   libvcruntime:memcmp.obj
 0001:00010ac0       memcpy_repmovs             0000000180011ac0 f   libvcruntime:memcpy.obj
 0001:00010ae0       memcpy                     0000000180011ae0 f   libvcruntime:memcpy.obj
 0001:00010ae0       memmove                    0000000180011ae0 f   libvcruntime:memcpy.obj
 0001:00011170       memset_repmovs             0000000180012170 f   libvcruntime:memset.obj
 0001:00011190       memset                     0000000180012190 f   libvcruntime:memset.obj
 0001:00011320       __vcrt_initialize          0000000180012320 f   libvcruntime:initialization.obj
 0001:00011348       __vcrt_thread_attach       0000000180012348 f   libvcruntime:initialization.obj
 0001:0001135c       __vcrt_thread_detach       000000018001235c f   libvcruntime:initialization.obj
 0001:00011370       __vcrt_uninitialize        0000000180012370 f   libvcruntime:initialization.obj
 0001:0001138c       __vcrt_uninitialize_critical 000000018001238c f   libvcruntime:initialization.obj
 0001:0001139c       __C_specific_handler       000000018001239c f   libvcruntime:riscchandler.obj
 0001:00011594       ??$_CallSETranslator@V__FrameHandler3@@@@YAHPEAUEHExceptionRecord@@PEA_KPEAU_CONTEXT@@PEAU_xDISPATCHER_CONTEXT@@PEBU_s_FuncInfo@@K1H@Z 0000000180012594 f i libvcruntime:risctrnsctrl.obj
 0001:000115e8       ??$_CallSETranslator@V__FrameHandler4@@@@YAHPEAUEHExceptionRecord@@PEA_KPEAU_CONTEXT@@PEAU_xDISPATCHER_CONTEXT@@PEAUFuncInfo4@FH4@@K1H@Z 00000001800125e8 f i libvcruntime:risctrnsctrl.obj
 0001:0001163c       ?CatchTryBlock@__FrameHandler3@@SAPEBU_s_TryBlockMapEntry@@PEBU_s_FuncInfo@@H@Z 000000018001263c f   libvcruntime:risctrnsctrl.obj
 0001:000116a0       ?DecompFuncInfo@FH4@@YA_JPEAEAEAUFuncInfo4@1@_KH_N@Z 00000001800126a0 f i libvcruntime:risctrnsctrl.obj
 0001:000117c4       ?ExecutionInCatch@__FrameHandler3@@SA_NPEAU_xDISPATCHER_CONTEXT@@PEBU_s_FuncInfo@@@Z 00000001800127c4 f   libvcruntime:risctrnsctrl.obj
 0001:000117f0       ?ExecutionInCatch@__FrameHandler4@@SA_NPEAU_xDISPATCHER_CONTEXT@@PEAUFuncInfo4@FH4@@@Z 00000001800127f0 f   libvcruntime:risctrnsctrl.obj
 0001:000117f8       ?FrameUnwindToEmptyState@__FrameHandler3@@SAXPEA_KPEAU_xDISPATCHER_CONTEXT@@PEBU_s_FuncInfo@@@Z 00000001800127f8 f   libvcruntime:risctrnsctrl.obj
 0001:0001185c       ?FrameUnwindToEmptyState@__FrameHandler4@@SAXPEA_KPEAU_xDISPATCHER_CONTEXT@@PEAUFuncInfo4@FH4@@@Z 000000018001285c f   libvcruntime:risctrnsctrl.obj
 0001:00011890       ?GetEstablisherFrame@__FrameHandler3@@SAPEA_KPEA_KPEAU_xDISPATCHER_CONTEXT@@PEBU_s_FuncInfo@@0@Z 0000000180012890 f   libvcruntime:risctrnsctrl.obj
 0001:0001195c       ?GetEstablisherFrame@__FrameHandler4@@SAPEA_KPEA_KPEAU_xDISPATCHER_CONTEXT@@PEAUFuncInfo4@FH4@@0@Z 000000018001295c f   libvcruntime:risctrnsctrl.obj
 0001:00011980       ?GetRangeOfTrysToCheck@__FrameHandler3@@SA?AU?$pair@Viterator@TryBlockMap@__FrameHandler3@@V123@@std@@AEAVTryBlockMap@1@HPEAU_xDISPATCHER_CONTEXT@@PEBU_s_FuncInfo@@H@Z 0000000180012980 f   libvcruntime:risctrnsctrl.obj
 0001:00011ac0       ?GetRangeOfTrysToCheck@__FrameHandler4@@SA?AU?$pair@Viterator@TryBlockMap4@FH4@@V123@@std@@AEAVTryBlockMap4@FH4@@HPEAU_xDISPATCHER_CONTEXT@@PEAUFuncInfo4@5@H@Z 0000000180012ac0 f   libvcruntime:risctrnsctrl.obj
 0001:00011c2c       ?UnwindNestedFrames@__FrameHandler3@@SAXPEA_KPEAUEHExceptionRecord@@PEAU_CONTEXT@@0PEAXPEBU_s_FuncInfo@@HHPEBU_s_HandlerType@@PEAU_xDISPATCHER_CONTEXT@@E@Z 0000000180012c2c f   libvcruntime:risctrnsctrl.obj
 0001:00011d30       ?UnwindNestedFrames@__FrameHandler4@@SAXPEA_KPEAUEHExceptionRecord@@PEAU_CONTEXT@@0PEAXPEAUFuncInfo4@FH4@@HHPEAUHandlerType4@5@PEAU_xDISPATCHER_CONTEXT@@E@Z 0000000180012d30 f   libvcruntime:risctrnsctrl.obj
 0001:00011e50       ?setBuffer@TryBlockMap4@FH4@@QEAAXViterator@12@@Z 0000000180012e50 f i libvcruntime:risctrnsctrl.obj
 0001:00012014       _CreateFrameInfo           0000000180013014 f   libvcruntime:risctrnsctrl.obj
 0001:00012050       _FindAndUnlinkFrame        0000000180013050 f   libvcruntime:risctrnsctrl.obj
 0001:000120a4       _GetImageBase              00000001800130a4 f   libvcruntime:risctrnsctrl.obj
 0001:000120b8       _GetThrowImageBase         00000001800130b8 f   libvcruntime:risctrnsctrl.obj
 0001:000120cc       _SetImageBase              00000001800130cc f   libvcruntime:risctrnsctrl.obj
 0001:000120e4       _SetThrowImageBase         00000001800130e4 f   libvcruntime:risctrnsctrl.obj
 0001:000120fc       __CxxFrameHandler3         00000001800130fc f   libvcruntime:risctrnsctrl.obj
 0001:00012184       __CxxFrameHandler4         0000000180013184 f   libvcruntime:risctrnsctrl.obj
 0001:00012244       __DestructExceptionObject  0000000180013244 f   libvcruntime:ehhelpers.obj
 0001:000122b4       ?_CallMemberFunction0@@YAXQEAX0@Z 00000001800132b4 f i libvcruntime:ehhelpers.obj
 0001:000122b8       _IsExceptionObjectToBeDestroyed 00000001800132b8 f   libvcruntime:ehhelpers.obj
 0001:000122e8       __AdjustPointer            00000001800132e8 f   libvcruntime:ehhelpers.obj
 0001:0001230c       __FrameUnwindFilter        000000018001330c f   libvcruntime:ehhelpers.obj
 0001:00012374       __std_terminate            0000000180013374 f   libvcruntime:ehhelpers.obj
 0001:00012380       __std_type_info_compare    0000000180013380 f   libvcruntime:std_type_info.obj
 0001:000123a8       __std_type_info_destroy_list 00000001800133a8 f   libvcruntime:std_type_info.obj
 0001:000123d4       __std_exception_copy       00000001800133d4 f   libvcruntime:std_exception.obj
 0001:00012464       __std_exception_destroy    0000000180013464 f   libvcruntime:std_exception.obj
 0001:0001248c       _CxxThrowException         000000018001348c f   libvcruntime:throw.obj
 0001:0001252c       __vcrt_freefls             000000018001352c f   libvcruntime:per_thread_data.obj
 0001:0001254c       __vcrt_freeptd             000000018001354c f   libvcruntime:per_thread_data.obj
 0001:0001259c       __vcrt_getptd              000000018001359c f   libvcruntime:per_thread_data.obj
 0001:000125b8       __vcrt_getptd_noexit       00000001800135b8 f   libvcruntime:per_thread_data.obj
 0001:00012678       __vcrt_initialize_ptd      0000000180013678 f   libvcruntime:per_thread_data.obj
 0001:000126c0       __vcrt_uninitialize_ptd    00000001800136c0 f   libvcruntime:per_thread_data.obj
 0001:000126e4       __vcrt_initialize_locks    00000001800136e4 f   libvcruntime:locks.obj
 0001:0001272c       __vcrt_uninitialize_locks  000000018001372c f   libvcruntime:locks.obj
 0001:00012780       _NLG_Notify                0000000180013780 f   libvcruntime:notify.obj
 0001:000127a0       __NLG_Dispatch2            00000001800137a0 f   libvcruntime:notify.obj
 0001:000127b0       __NLG_Return2              00000001800137b0 f   libvcruntime:notify.obj
 0001:000127b4       __except_validate_context_record 00000001800137b4 f   libvcruntime:jbcxrval.obj
 0001:000127ec       ?GetCurrentState@__FrameHandler3@@SAHPEA_KPEAU_xDISPATCHER_CONTEXT@@PEBU_s_FuncInfo@@@Z 00000001800137ec f   libvcruntime:ehstate.obj
 0001:00012814       ?GetUnwindTryBlock@__FrameHandler3@@SAHPEA_KPEAU_xDISPATCHER_CONTEXT@@PEBU_s_FuncInfo@@@Z 0000000180013814 f   libvcruntime:ehstate.obj
 0001:00012840       ?SetState@__FrameHandler3@@SAXPEA_KPEBU_s_FuncInfo@@H@Z 0000000180013840 f   libvcruntime:ehstate.obj
 0001:0001284c       ?SetUnwindTryBlock@__FrameHandler3@@SAXPEA_KPEAU_xDISPATCHER_CONTEXT@@PEBU_s_FuncInfo@@H@Z 000000018001384c f   libvcruntime:ehstate.obj
 0001:00012888       ?StateFromControlPc@__FrameHandler3@@SAHPEBU_s_FuncInfo@@PEAU_xDISPATCHER_CONTEXT@@@Z 0000000180013888 f   libvcruntime:ehstate.obj
 0001:00012890       ?StateFromControlPc@__FrameHandler4@@SAHPEAUFuncInfo4@FH4@@PEAU_xDISPATCHER_CONTEXT@@@Z 0000000180013890 f   libvcruntime:ehstate.obj
 0001:00012898       ?StateFromIp@__FrameHandler3@@SAHPEBU_s_FuncInfo@@PEAU_xDISPATCHER_CONTEXT@@_K@Z 0000000180013898 f   libvcruntime:ehstate.obj
 0001:00012900       ?StateFromIp@__FrameHandler4@@SAHPEAUFuncInfo4@FH4@@PEAU_xDISPATCHER_CONTEXT@@_K@Z 0000000180013900 f   libvcruntime:ehstate.obj
 0001:00014000       ??$TypeMatchHelper@V__FrameHandler3@@@@YAHPEBU_s_HandlerType@@PEBU_s_CatchableType@@PEBU_s_ThrowInfo@@@Z 0000000180015000 f i libvcruntime:frame.obj
 0001:00014140       ??$TypeMatchHelper@V__FrameHandler4@@@@YAHPEAUHandlerType4@FH4@@PEBU_s_CatchableType@@PEBU_s_ThrowInfo@@@Z 0000000180015140 f i libvcruntime:frame.obj
 0001:00014284       ??$__InternalCxxFrameHandler@V__FrameHandler3@@@@YA?AW4_EXCEPTION_DISPOSITION@@PEAUEHExceptionRecord@@PEA_KPEAU_CONTEXT@@PEAU_xDISPATCHER_CONTEXT@@PEBU_s_FuncInfo@@H1E@Z 0000000180015284 f i libvcruntime:frame.obj
 0001:000144bc       ??$__InternalCxxFrameHandler@V__FrameHandler4@@@@YA?AW4_EXCEPTION_DISPOSITION@@PEAUEHExceptionRecord@@PEA_KPEAU_CONTEXT@@PEAU_xDISPATCHER_CONTEXT@@PEAUFuncInfo4@FH4@@H1E@Z 00000001800154bc f i libvcruntime:frame.obj
 0001:00014750       ??0HandlerMap4@FH4@@QEAA@PEBUTryBlockMapEntry4@1@_KH@Z 0000000180015750 f i libvcruntime:frame.obj
 0001:000147cc       ??0TryBlockMap4@FH4@@QEAA@PEBUFuncInfo4@1@_K@Z 00000001800157cc f i libvcruntime:frame.obj
 0001:000148a4       ??0bad_exception@std@@QEAA@AEBV01@@Z 00000001800158a4 f i libvcruntime:frame.obj
 0001:000148e0       ??0bad_exception@std@@QEAA@XZ 00000001800158e0 f i libvcruntime:frame.obj
 0001:00014900       ?CxxCallCatchBlock@__FrameHandler3@@SAPEAXPEAU_EXCEPTION_RECORD@@@Z 0000000180015900 f   libvcruntime:frame.obj
 0001:00014aec       ?CxxCallCatchBlock@__FrameHandler4@@SAPEAXPEAU_EXCEPTION_RECORD@@@Z 0000000180015aec f   libvcruntime:frame.obj
 0001:00014d3c       ?DecompHandler@HandlerMap4@FH4@@AEAAXXZ 0000000180015d3c f i libvcruntime:frame.obj
 0001:00014f88       ?FrameUnwindToState@__FrameHandler3@@SAXPEA_KPEAU_xDISPATCHER_CONTEXT@@PEBU_s_FuncInfo@@H@Z 0000000180015f88 f   libvcruntime:frame.obj
 0001:00015114       ?FrameUnwindToState@__FrameHandler4@@SAXPEA_KPEAU_xDISPATCHER_CONTEXT@@PEAUFuncInfo4@FH4@@H@Z 0000000180016114 f   libvcruntime:frame.obj
 0001:00015410       ?GetHandlerSearchState@__FrameHandler3@@SAHPEA_KPEAU_xDISPATCHER_CONTEXT@@PEBU_s_FuncInfo@@@Z 0000000180016410 f i libvcruntime:frame.obj
 0001:00015620       ?ReadEntry@UWMap4@FH4@@AEAAXPEAPEAE@Z 0000000180016620 f i libvcruntime:frame.obj
 0001:000156bc       ?_CallMemberFunction1@@YAXQEAX00@Z 00000001800166bc f i libvcruntime:frame.obj
 0001:000156c8       ?_CallMemberFunction2@@YAXQEAX00H@Z 00000001800166c8 f i libvcruntime:frame.obj
 0001:000156d8       ?getStartStop@UWMap4@FH4@@QEAAXHHAEAViterator@12@0@Z 00000001800166d8 f i libvcruntime:frame.obj
 0001:000157a8       ?getStateFromIterators@UWMap4@FH4@@SAHAEBViterator@12@H0H0@Z 00000001800167a8 f i libvcruntime:frame.obj
 0001:000159c4       __vcrt_FlsAlloc            00000001800169c4 f   libvcruntime:winapi_downlevel.obj
 0001:00015a0c       __vcrt_FlsFree             0000000180016a0c f   libvcruntime:winapi_downlevel.obj
 0001:00015a54       __vcrt_FlsGetValue         0000000180016a54 f   libvcruntime:winapi_downlevel.obj
 0001:00015a9c       __vcrt_FlsSetValue         0000000180016a9c f   libvcruntime:winapi_downlevel.obj
 0001:00015af0       __vcrt_InitializeCriticalSectionEx 0000000180016af0 f   libvcruntime:winapi_downlevel.obj
 0001:00015b70       _CallSettingFrame          0000000180016b70 f   libvcruntime:handlers.obj
 0001:00015bc0       _CallSettingFrame_LookupContinuationIndex 0000000180016bc0 f   libvcruntime:handlers.obj
 0001:00015bf0       _CallSettingFrame_NotifyContinuationAddr 0000000180016bf0 f   libvcruntime:handlers.obj
 0001:00015c20       _CallSettingFrameEncoded   0000000180016c20 f   libvcruntime:handlers.obj
 0001:00015c68       free                       0000000180016c68 f   libucrt:free.obj
 0001:00015c7c       ?get_raw_ptd@__crt_cached_ptd_host@@QEAAPEAU__acrt_ptd@@XZ 0000000180016c7c f i libucrt:invalid_parameter.obj
 0001:00015ce4       ?get_raw_ptd_noexit@__crt_cached_ptd_host@@QEAAPEAU__acrt_ptd@@XZ 0000000180016ce4 f i libucrt:invalid_parameter.obj
 0001:00015d50       ?value@?$dual_state_global@P6AXPEB_W00I_K@Z@__crt_state_management@@QEAAAEAP6AXPEB_W00I_K@ZAEAV__crt_cached_ptd_host@@@Z 0000000180016d50 f i libucrt:invalid_parameter.obj
 0001:00015d9c       __acrt_call_reportfault    0000000180016d9c f   libucrt:invalid_parameter.obj
 0001:00015ef8       __acrt_initialize_invalid_parameter_handler 0000000180016ef8 f   libucrt:invalid_parameter.obj
 0001:00015f00       _invalid_parameter         0000000180016f00 f   libucrt:invalid_parameter.obj
 0001:00015f9c       _invalid_parameter_internal 0000000180016f9c f   libucrt:invalid_parameter.obj
 0001:0001606c       _invalid_parameter_noinfo  000000018001706c f   libucrt:invalid_parameter.obj
 0001:0001608c       _invoke_watson             000000018001708c f   libucrt:invalid_parameter.obj
 0001:000160d4       __acrt_errno_from_os_error 00000001800170d4 f   libucrt:errno.obj
 0001:0001611c       __acrt_errno_map_os_error  000000018001711c f   libucrt:errno.obj
 0001:00016164       __acrt_errno_map_os_error_ptd 0000000180017164 f   libucrt:errno.obj
 0001:00016188       __doserrno                 0000000180017188 f   libucrt:errno.obj
 0001:000161a8       _errno                     00000001800171a8 f   libucrt:errno.obj
 0001:000161c8       calloc                     00000001800171c8 f   libucrt:calloc.obj
 0001:000161d0       malloc                     00000001800171d0 f   libucrt:malloc.obj
 0001:000161d8       _recalloc                  00000001800171d8 f   libucrt:recalloc.obj
 0001:000161e0       _recalloc_base             00000001800171e0 f   libucrt:recalloc.obj
 0001:00016278       _resetstkoflw              0000000180017278 f   libucrt:resetstk.obj
 0001:000163a4       wcscat_s                   00000001800173a4 f   libucrt:wcscat_s.obj
 0001:00016428       wcscpy_s                   0000000180017428 f   libucrt:wcscpy_s.obj
 0001:00016490       wcsncpy_s                  0000000180017490 f   libucrt:wcsncpy_s.obj
 0001:00016744       ??$ensure_buffer_is_big_enough@D@formatting_buffer@__crt_stdio_output@@QEAA_N_KAEAV__crt_cached_ptd_host@@@Z 0000000180017744 f i libucrt:output.obj
 0001:000167ec       ??$ensure_buffer_is_big_enough@_W@formatting_buffer@__crt_stdio_output@@QEAA_N_KAEAV__crt_cached_ptd_host@@@Z 00000001800177ec f i libucrt:output.obj
 0001:00016898       ??$is_wide_character_specifier@_W@__crt_stdio_output@@YA_N_K_WW4length_modifier@0@@Z 0000000180017898 f i libucrt:output.obj
 0001:000168d8       ??$parse_integer@KV?$c_string_character_source@_W@__crt_strtox@@$0A@@__crt_strtox@@YAKAEAV__crt_cached_ptd_host@@V?$c_string_character_source@_W@0@H_N@Z 00000001800178d8 f i libucrt:output.obj
 0001:00017030       ??$type_case_integer@$07@?$output_processor@_WV?$string_output_adapter@_W@__crt_stdio_output@@V?$format_validation_base@_WV?$string_output_adapter@_W@__crt_stdio_output@@@2@@__crt_stdio_output@@AEAA_N_N@Z 0000000180018030 f i libucrt:output.obj
 0001:0001721c       ??$type_case_integer@$09@?$output_processor@_WV?$string_output_adapter@_W@__crt_stdio_output@@V?$format_validation_base@_WV?$string_output_adapter@_W@__crt_stdio_output@@@2@@__crt_stdio_output@@AEAA_N_N@Z 000000018001821c f i libucrt:output.obj
 0001:00017408       ??$type_case_integer@$0BA@@?$output_processor@_WV?$string_output_adapter@_W@__crt_stdio_output@@V?$format_validation_base@_WV?$string_output_adapter@_W@__crt_stdio_output@@@2@@__crt_stdio_output@@AEAA_N_N@Z 0000000180018408 f i libucrt:output.obj
 0001:000175f4       ??$type_case_integer_parse_into_buffer@I$07@?$output_processor@_WV?$string_output_adapter@_W@__crt_stdio_output@@V?$format_validation_base@_WV?$string_output_adapter@_W@__crt_stdio_output@@@2@@__crt_stdio_output@@AEAAXI_N@Z 00000001800185f4 f i libucrt:output.obj
 0001:0001767c       ??$type_case_integer_parse_into_buffer@I$09@?$output_processor@_WV?$string_output_adapter@_W@__crt_stdio_output@@V?$format_validation_base@_WV?$string_output_adapter@_W@__crt_stdio_output@@@2@@__crt_stdio_output@@AEAAXI_N@Z 000000018001867c f i libucrt:output.obj
 0001:00017734       ??$type_case_integer_parse_into_buffer@I$0BA@@?$output_processor@_WV?$string_output_adapter@_W@__crt_stdio_output@@V?$format_validation_base@_WV?$string_output_adapter@_W@__crt_stdio_output@@@2@@__crt_stdio_output@@AEAAXI_N@Z 0000000180018734 f i libucrt:output.obj
 0001:000177d8       ??$type_case_integer_parse_into_buffer@_K$07@?$output_processor@_WV?$string_output_adapter@_W@__crt_stdio_output@@V?$format_validation_base@_WV?$string_output_adapter@_W@__crt_stdio_output@@@2@@__crt_stdio_output@@AEAAX_K_N@Z 00000001800187d8 f i libucrt:output.obj
 0001:00017860       ??$type_case_integer_parse_into_buffer@_K$09@?$output_processor@_WV?$string_output_adapter@_W@__crt_stdio_output@@V?$format_validation_base@_WV?$string_output_adapter@_W@__crt_stdio_output@@@2@@__crt_stdio_output@@AEAAX_K_N@Z 0000000180018860 f i libucrt:output.obj
 0001:00017920       ??$type_case_integer_parse_into_buffer@_K$0BA@@?$output_processor@_WV?$string_output_adapter@_W@__crt_stdio_output@@V?$format_validation_base@_WV?$string_output_adapter@_W@__crt_stdio_output@@@2@@__crt_stdio_output@@AEAAX_K_N@Z 0000000180018920 f i libucrt:output.obj
 0001:000179c4       ?crop_zeroes@__crt_stdio_output@@YAXPEADQEAU__crt_locale_pointers@@@Z 00000001800189c4 f i libucrt:output.obj
 0001:00017a30       ?parse_int_from_format_string@?$output_processor@_WV?$string_output_adapter@_W@__crt_stdio_output@@V?$format_validation_base@_WV?$string_output_adapter@_W@__crt_stdio_output@@@2@@__crt_stdio_output@@AEAA_NQEAH@Z 0000000180018a30 f i libucrt:output.obj
 0001:00017ac0       ?process@?$output_processor@_WV?$string_output_adapter@_W@__crt_stdio_output@@V?$format_validation_base@_WV?$string_output_adapter@_W@__crt_stdio_output@@@2@@__crt_stdio_output@@QEAAHXZ 0000000180018ac0 f i libucrt:output.obj
 0001:00017d9c       ?state_case_size@?$output_processor@_WV?$string_output_adapter@_W@__crt_stdio_output@@V?$format_validation_base@_WV?$string_output_adapter@_W@__crt_stdio_output@@@2@@__crt_stdio_output@@AEAA_NXZ 0000000180018d9c f i libucrt:output.obj
 0001:00017f48       ?state_case_type@?$output_processor@_WV?$string_output_adapter@_W@__crt_stdio_output@@V?$format_validation_base@_WV?$string_output_adapter@_W@__crt_stdio_output@@@2@@__crt_stdio_output@@AEAA_NXZ 0000000180018f48 f i libucrt:output.obj
 0001:000183a4       ?type_case_Z@?$output_processor@_WV?$string_output_adapter@_W@__crt_stdio_output@@V?$format_validation_base@_WV?$string_output_adapter@_W@__crt_stdio_output@@@2@@__crt_stdio_output@@AEAA_NXZ 00000001800193a4 f i libucrt:output.obj
 0001:00018420       ?type_case_a@?$output_processor@_WV?$string_output_adapter@_W@__crt_stdio_output@@V?$format_validation_base@_WV?$string_output_adapter@_W@__crt_stdio_output@@@2@@__crt_stdio_output@@AEAA_NXZ 0000000180019420 f i libucrt:output.obj
 0001:00018680       ?type_case_c_tchar@?$output_processor@_WV?$string_output_adapter@_W@__crt_stdio_output@@V?$format_validation_base@_WV?$string_output_adapter@_W@__crt_stdio_output@@@2@@__crt_stdio_output@@AEAA_N_W@Z 0000000180019680 f i libucrt:output.obj
 0001:00018744       ?type_case_n@?$output_processor@_WV?$string_output_adapter@_W@__crt_stdio_output@@V?$format_validation_base@_WV?$string_output_adapter@_W@__crt_stdio_output@@@2@@__crt_stdio_output@@AEAA_NXZ 0000000180019744 f i libucrt:output.obj
 0001:000187f8       ?type_case_s@?$output_processor@_WV?$string_output_adapter@_W@__crt_stdio_output@@V?$format_validation_base@_WV?$string_output_adapter@_W@__crt_stdio_output@@@2@@__crt_stdio_output@@AEAA_NXZ 00000001800197f8 f i libucrt:output.obj
 0001:00018890       ?type_case_s_compute_narrow_string_length@?$output_processor@_WV?$string_output_adapter@_W@__crt_stdio_output@@V?$format_validation_base@_WV?$string_output_adapter@_W@__crt_stdio_output@@@2@@__crt_stdio_output@@AEAAHH_W@Z 0000000180019890 f i libucrt:output.obj
 0001:00018910       ?update_locale_slow@__crt_cached_ptd_host@@AEAAXXZ 0000000180019910 f i libucrt:output.obj
 0001:00018988       ?write_string@?$string_output_adapter@_W@__crt_stdio_output@@QEBAXQEB_WHQEAHAEAV__crt_cached_ptd_host@@@Z 0000000180019988 f i libucrt:output.obj
 0001:00018a30       __stdio_common_vswprintf_s 0000000180019a30 f   libucrt:output.obj
 0001:00018b44       _seh_filter_dll            0000000180019b44 f   libucrt:exception_filter.obj
 0001:00018b58       _seh_filter_exe            0000000180019b58 f   libucrt:exception_filter.obj
 0001:00018f7c       __acrt_initialize_thread_local_exit_callback 0000000180019f7c f   libucrt:exit.obj
 0001:00018f84       _cexit                     0000000180019f84 f   libucrt:exit.obj
 0001:00018f94       _exit                      0000000180019f94 f   libucrt:exit.obj
 0001:00018fa0       _is_c_termination_complete 0000000180019fa0 f   libucrt:exit.obj
 0001:00019168       __acrt_allocate_buffer_for_argv 000000018001a168 f   libucrt:argv_parsing.obj
 0001:000191c8       _configure_narrow_argv     000000018001a1c8 f   libucrt:argv_parsing.obj
 0001:00019550       __dcrt_uninitialize_environments_nolock 000000018001a550 f   libucrt:environment_initialization.obj
 0001:00019594       _initialize_narrow_environment 000000018001a594 f   libucrt:environment_initialization.obj
 0001:000198e4       _crt_atexit                000000018001a8e4 f   libucrt:onexit.obj
 0001:000198f4       _execute_onexit_table      000000018001a8f4 f   libucrt:onexit.obj
 0001:00019938       _initialize_onexit_table   000000018001a938 f   libucrt:onexit.obj
 0001:00019960       _register_onexit_function  000000018001a960 f   libucrt:onexit.obj
 0001:000199e0       __acrt_uninitialize_command_line 000000018001a9e0 f   libucrt:argv_data.obj
 0001:00019ad8       __acrt_initialize          000000018001aad8 f   libucrt:initialization.obj
 0001:00019aec       __acrt_thread_attach       000000018001aaec f   libucrt:initialization.obj
 0001:00019b00       __acrt_thread_detach       000000018001ab00 f   libucrt:initialization.obj
 0001:00019b10       __acrt_uninitialize        000000018001ab10 f   libucrt:initialization.obj
 0001:00019b48       __acrt_uninitialize_critical 000000018001ab48 f   libucrt:initialization.obj
 0001:00019b58       _initterm                  000000018001ab58 f   libucrt:initterm.obj
 0001:00019b9c       _initterm_e                000000018001ab9c f   libucrt:initterm.obj
 0001:00019be4       __acrt_initialize_new_handler 000000018001abe4 f   libucrt:new_handler.obj
 0001:00019bec       _callnewh                  000000018001abec f   libucrt:new_handler.obj
 0001:00019c28       _query_new_handler         000000018001ac28 f   libucrt:new_handler.obj
 0001:00019c5c       terminate                  000000018001ac5c f   libucrt:terminate.obj
 0001:00019c88       abort                      000000018001ac88 f   libucrt:abort.obj
 0001:00019ce0       strcpy_s                   000000018001ace0 f   libucrt:strcpy_s.obj
 0001:00019d50       strncmp                    000000018001ad50 f   libucrt:strncmp.obj
 0001:00019dd0       wcsncmp                    000000018001add0 f   libucrt:wcsncmp.obj
 0001:00019dfc       _free_base                 000000018001adfc f   libucrt:free_base.obj
 0001:0001a1b0       __acrt_freeptd             000000018001b1b0 f   libucrt:per_thread_data.obj
 0001:0001a1f4       __acrt_getptd              000000018001b1f4 f   libucrt:per_thread_data.obj
 0001:0001a2c8       __acrt_getptd_head         000000018001b2c8 f   libucrt:per_thread_data.obj
 0001:0001a36c       __acrt_getptd_noexit       000000018001b36c f   libucrt:per_thread_data.obj
 0001:0001a434       __acrt_getptd_noexit_explicit 000000018001b434 f   libucrt:per_thread_data.obj
 0001:0001a4f4       __acrt_initialize_ptd      000000018001b4f4 f   libucrt:per_thread_data.obj
 0001:0001a530       __acrt_uninitialize_ptd    000000018001b530 f   libucrt:per_thread_data.obj
 0001:0001a5c4       __acrt_set_locale_changed  000000018001b5c4 f   libucrt:wsetlocale.obj
 0001:0001a5d0       __acrt_uninitialize_locale 000000018001b5d0 f   libucrt:wsetlocale.obj
 0001:0001a600       _calloc_base               000000018001b600 f   libucrt:calloc_base.obj
 0001:0001a678       _malloc_base               000000018001b678 f   libucrt:malloc_base.obj
 0001:0001a6d8       _msize_base                000000018001b6d8 f   libucrt:msize.obj
 0001:0001a714       _realloc_base              000000018001b714 f   libucrt:realloc_base.obj
 0001:0001a950       __acrt_AppPolicyGetProcessTerminationMethodInternal 000000018001b950 f   libucrt:winapi_thunks.obj
 0001:0001a9a8       __acrt_AreFileApisANSI     000000018001b9a8 f   libucrt:winapi_thunks.obj
 0001:0001a9ec       __acrt_FlsAlloc            000000018001b9ec f   libucrt:winapi_thunks.obj
 0001:0001a9f4       __acrt_FlsFree             000000018001b9f4 f   libucrt:winapi_thunks.obj
 0001:0001a9fc       __acrt_FlsGetValue         000000018001b9fc f   libucrt:winapi_thunks.obj
 0001:0001aa04       __acrt_FlsSetValue         000000018001ba04 f   libucrt:winapi_thunks.obj
 0001:0001aa0c       __acrt_InitializeCriticalSectionEx 000000018001ba0c f   libucrt:winapi_thunks.obj
 0001:0001aa7c       __acrt_LCMapStringEx       000000018001ba7c f   libucrt:winapi_thunks.obj
 0001:0001ab68       __acrt_LocaleNameToLCID    000000018001bb68 f   libucrt:winapi_thunks.obj
 0001:0001abc8       __acrt_SetThreadStackGuarantee 000000018001bbc8 f   libucrt:winapi_thunks.obj
 0001:0001ac14       __acrt_initialize_winapi_thunks 000000018001bc14 f   libucrt:winapi_thunks.obj
 0001:0001ac38       __acrt_uninitialize_winapi_thunks 000000018001bc38 f   libucrt:winapi_thunks.obj
 0001:0001ac7c       wcsnlen                    000000018001bc7c f   libucrt:strnlen.obj
 0001:0001ae54       __acrt_update_locale_info  000000018001be54 f   libucrt:locale_update.obj
 0001:0001ae88       __acrt_update_locale_info_explicit 000000018001be88 f   libucrt:locale_update.obj
 0001:0001aec0       __acrt_update_multibyte_info 000000018001bec0 f   libucrt:locale_update.obj
 0001:0001aef4       __acrt_update_multibyte_info_explicit 000000018001bef4 f   libucrt:locale_update.obj
 0001:0001ba5c       __acrt_fp_format           000000018001ca5c f   libucrt:cvt.obj
 0001:0001bd44       _mbtowc_internal           000000018001cd44 f   libucrt:mbtowc.obj
 0001:0001bebc       _fileno                    000000018001cebc f   libucrt:fileno.obj
 0001:0001bee4       __acrt_initialize_stdio    000000018001cee4 f   libucrt:_file.obj
 0001:0001c004       __acrt_uninitialize_stdio  000000018001d004 f   libucrt:_file.obj
 0001:0001c060       _lock_file                 000000018001d060 f   libucrt:_file.obj
 0001:0001c06c       _unlock_file               000000018001d06c f   libucrt:_file.obj
 0001:0001c078       _get_printf_count_output   000000018001d078 f   libucrt:printf_count_output.obj
 0001:0001c288       __acrt_initialize_lowio    000000018001d288 f   libucrt:ioinit.obj
 0001:0001c2c4       __acrt_uninitialize_lowio  000000018001d2c4 f   libucrt:ioinit.obj
 0001:0001c304       __acrt_initialize_locks    000000018001d304 f   libucrt:locks.obj
 0001:0001c34c       __acrt_lock                000000018001d34c f   libucrt:locks.obj
 0001:0001c368       __acrt_uninitialize_locks  000000018001d368 f   libucrt:locks.obj
 0001:0001c3a0       __acrt_unlock              000000018001d3a0 f   libucrt:locks.obj
 0001:0001c3bc       __acrt_get_process_end_policy 000000018001d3bc f   libucrt:win_policies.obj
 0001:0001c40c       ??$__acrt_convert_wcs_mbs_cp@D_WV<lambda_7c9dea7b4ca7285d2cdb541a38da6275>@@U__crt_win32_buffer_internal_dynamic_resizing@@@@YAHQEBDAEAV?$__crt_win32_buffer@_WU__crt_win32_buffer_internal_dynamic_resizing@@@@AEBV<lambda_7c9dea7b4ca7285d2cdb541a38da6275>@@I@Z 000000018001d40c f i libucrt:argv_wildcards.obj
 0001:0001c588       ??$__acrt_convert_wcs_mbs_cp@_WDV<lambda_d8593a27d1aa8c02be35c86a17d324c4>@@U__crt_win32_buffer_internal_dynamic_resizing@@@@YAHQEB_WAEAV?$__crt_win32_buffer@DU__crt_win32_buffer_internal_dynamic_resizing@@@@AEBV<lambda_d8593a27d1aa8c02be35c86a17d324c4>@@I@Z 000000018001d588 f i libucrt:argv_wildcards.obj
 0001:0001ce30       ??0_LocaleUpdate@@QEAA@QEAU__crt_locale_pointers@@@Z 000000018001de30 f i libucrt:argv_wildcards.obj
 0001:0001cecc       __acrt_expand_narrow_argv_wildcards 000000018001decc f   libucrt:argv_wildcards.obj
 0001:0001ced4       ??$__acrt_convert_wcs_mbs_cp@_WDV<lambda_f788ae46380686e8b737efdd8c720d07>@@U__crt_win32_buffer_no_resizing@@@@YAHQEB_WAEAV?$__crt_win32_buffer@DU__crt_win32_buffer_no_resizing@@@@AEBV<lambda_f788ae46380686e8b737efdd8c720d07>@@I@Z 000000018001ded4 f i libucrt:getmodulefilenamea.obj
 0001:0001cff0       __acrt_GetModuleFileNameA  000000018001dff0 f   libucrt:getmodulefilenamea.obj
 0001:0001d90c       __acrt_initialize_multibyte 000000018001e90c f   libucrt:mbctype.obj
 0001:0001d96c       __acrt_update_thread_multibyte_data 000000018001e96c f   libucrt:mbctype.obj
 0001:0001d988       _setmbcp_nolock            000000018001e988 f   libucrt:mbctype.obj
 0001:0001dcbc       _ismbblead                 000000018001ecbc f   libucrt:ismbbyte.obj
 0001:0001dcd0       __acrt_initialize_command_line 000000018001ecd0 f   libucrt:argv_data.obj
 0001:0001dcf8       __acrt_MultiByteToWideChar 000000018001ecf8 f   libucrt:multibytetowidechar.obj
 0001:0001dd54       __acrt_WideCharToMultiByte 000000018001ed54 f   libucrt:widechartomultibyte.obj
 0001:0001de04       __dcrt_get_narrow_environment_from_os 000000018001ee04 f   libucrt:get_environment_from_os.obj
 0001:0001df14       __acrt_initialize_heap     000000018001ef14 f   libucrt:heap_handle.obj
 0001:0001df30       __acrt_uninitialize_heap   000000018001ef30 f   libucrt:heap_handle.obj
 0001:0001df3c       __acrt_execute_initializers 000000018001ef3c f   libucrt:shared_initialization.obj
 0001:0001dfd0       __acrt_execute_uninitializers 000000018001efd0 f   libucrt:shared_initialization.obj
 0001:0001e060       __acrt_get_sigabrt_handler 000000018001f060 f   libucrt:signal.obj
 0001:0001e090       __acrt_initialize_signal_handlers 000000018001f090 f   libucrt:signal.obj
 0001:0001e0b0       raise                      000000018001f0b0 f   libucrt:signal.obj
 0001:0001e330       __acrt_has_user_matherr    000000018001f330 f   libucrt:matherr.obj
 0001:0001e350       __acrt_initialize_user_matherr 000000018001f350 f   libucrt:matherr.obj
 0001:0001e358       __acrt_invoke_user_matherr 000000018001f358 f   libucrt:matherr.obj
 0001:0001e56c       __acrt_stdio_flush_nolock  000000018001f56c f   libucrt:fflush.obj
 0001:0001e5f8       _fflush_nolock             000000018001f5f8 f   libucrt:fflush.obj
 0001:0001e6cc       _flushall                  000000018001f6cc f   libucrt:fflush.obj
 0001:0001e6d4       __acrt_add_locale_ref      000000018001f6d4 f   libucrt:locale_refcounting.obj
 0001:0001e760       __acrt_free_locale         000000018001f760 f   libucrt:locale_refcounting.obj
 0001:0001e8d8       __acrt_locale_add_lc_time_reference 000000018001f8d8 f   libucrt:locale_refcounting.obj
 0001:0001e900       __acrt_locale_free_lc_time_if_unreferenced 000000018001f900 f   libucrt:locale_refcounting.obj
 0001:0001e938       __acrt_locale_release_lc_time_reference 000000018001f938 f   libucrt:locale_refcounting.obj
 0001:0001e960       __acrt_release_locale_ref  000000018001f960 f   libucrt:locale_refcounting.obj
 0001:0001ea08       __acrt_update_thread_locale_data 000000018001fa08 f   libucrt:locale_refcounting.obj
 0001:0001ea78       _updatetlocinfoEx_nolock   000000018001fa78 f   libucrt:locale_refcounting.obj
 0001:0001eae0       __acrt_locale_free_monetary 000000018001fae0 f   libucrt:initmon.obj
 0001:0001ebec       __acrt_locale_free_numeric 000000018001fbec f   libucrt:initnum.obj
 0001:0001ec8c       __acrt_locale_free_time    000000018001fc8c f   libucrt:inittime.obj
 0001:0001ed94       __acrt_GetStringTypeA      000000018001fd94 f   libucrt:getstringtypea.obj
 0001:0001ef30       _query_new_mode            000000018001ff30 f   libucrt:new_mode.obj
 0001:0001ef38       __acrt_DownlevelLocaleNameToLCID 000000018001ff38 f   libucrt:lcidtoname_downlevel.obj
 0001:0001efe0       __acrt_fp_strflt_to_string 000000018001ffe0 f   libucrt:_fptostr.obj
 0001:0001f170       ?divide@__crt_strtox@@YA_KAEAUbig_integer@1@AEBU21@@Z 0000000180020170 f i libucrt:cfout.obj
 0001:0001f5fc       __acrt_fltout              00000001800205fc f   libucrt:cfout.obj
 0001:000208c4       fegetround                 00000001800218c4 f   libucrt:fegetround.obj
 0001:000208d8       ?__mbrtowc_utf8@__crt_mbstring@@YA_KPEA_WPEBD_KPEAU_Mbstatet@@AEAV__crt_cached_ptd_host@@@Z 00000001800218d8 f   libucrt:mbrtowc.obj
 0001:0002091c       ?__mbsrtowcs_utf8@__crt_mbstring@@YA_KPEA_WPEAPEBD_KPEAU_Mbstatet@@AEAV__crt_cached_ptd_host@@@Z 000000018002191c f   libucrt:mbrtowc.obj
 0001:00020ac0       _fcloseall                 0000000180021ac0 f   libucrt:closeall.obj
 0001:00020b74       __acrt_stdio_free_buffer_nolock 0000000180021b74 f   libucrt:_freebuf.obj
 0001:00020bb4       _isatty                    0000000180021bb4 f   libucrt:isatty.obj
 0001:00020c14       __acrt_lowio_create_handle_array 0000000180021c14 f   libucrt:osfinfo.obj
 0001:00020cbc       __acrt_lowio_destroy_handle_array 0000000180021cbc f   libucrt:osfinfo.obj
 0001:00020d0c       __acrt_lowio_ensure_fh_exists 0000000180021d0c f   libucrt:osfinfo.obj
 0001:00020db4       __acrt_lowio_lock_fh       0000000180021db4 f   libucrt:osfinfo.obj
 0001:00020ddc       __acrt_lowio_unlock_fh     0000000180021ddc f   libucrt:osfinfo.obj
 0001:00020e04       _free_osfhnd               0000000180021e04 f   libucrt:osfinfo.obj
 0001:00020ec0       _get_osfhandle             0000000180021ec0 f   libucrt:osfinfo.obj
 0001:00020f40       qsort                      0000000180021f40 f   libucrt:qsort.obj
 0001:00021350       strncpy_s                  0000000180022350 f   libucrt:strncpy_s.obj
 0001:000214e0       strpbrk                    00000001800224e0 f   libucrt:strpbrk.obj
 0001:000218a8       _mbsdec                    00000001800228a8 f   libucrt:mbsdec.obj
 0001:000218b0       _mbsdec_l                  00000001800228b0 f   libucrt:mbsdec.obj
 0001:00021c64       __acrt_LCMapStringA        0000000180022c64 f   libucrt:lcmapstringa.obj
 0001:00021da0       _commit                    0000000180022da0 f   libucrt:commit.obj
 0001:00022650       _write_internal            0000000180023650 f   libucrt:write.obj
 0001:00022778       _write_nolock              0000000180023778 f   libucrt:write.obj
 0001:00022a88       __ascii_wcsnicmp           0000000180023a88 f   libucrt:wcsnicmp.obj
 0001:00022ad4       _controlfp_s               0000000180023ad4 f   libucrt:contrlfp.obj
 0001:00022b38       fegetenv                   0000000180023b38 f   libucrt:fegetenv.obj
 0001:00022b58       fesetenv                   0000000180023b58 f   libucrt:fesetenv.obj
 0001:00022ba4       feholdexcept               0000000180023ba4 f   libucrt:feholdexcept.obj
 0001:00022bf4       ceil                       0000000180023bf4 f   libucrt:ceil.obj
 0001:00022cc0       log10                      0000000180023cc0 f   libucrt:log10.obj
 0001:0002326c       __acrt_fenv_get_common_round_control 000000018002426c f   libucrt:_fenvutils.obj
 0001:00023278       __acrt_fenv_get_control    0000000180024278 f   libucrt:_fenvutils.obj
 0001:0002335c       __acrt_fenv_get_status     000000018002435c f   libucrt:_fenvutils.obj
 0001:000233b4       __acrt_fenv_set_control    00000001800243b4 f   libucrt:_fenvutils.obj
 0001:000234f0       __acrt_fenv_set_status     00000001800244f0 f   libucrt:_fenvutils.obj
 0001:00023564       ?reset_and_return@__crt_mbstring@@YA_K_KPEAU_Mbstatet@@@Z 0000000180024564 f   libucrt:common_utf8.obj
 0001:0002356c       ?return_illegal_sequence@__crt_mbstring@@YA_KPEAU_Mbstatet@@AEAV__crt_cached_ptd_host@@@Z 000000018002456c f   libucrt:common_utf8.obj
 0001:00023580       ?__mbrtoc32_utf8@__crt_mbstring@@YA_KPEA_UPEBD_KPEAU_Mbstatet@@AEAV__crt_cached_ptd_host@@@Z 0000000180024580 f   libucrt:mbrtoc32.obj
 0001:0002387c       fclose                     000000018002487c f   libucrt:fclose.obj
 0001:000239c0       _lseeki64_nolock_internal  00000001800249c0 f   libucrt:lseek.obj
 0001:000239c8       _query_app_type            00000001800249c8 f   libucrt:report_runtime_error.obj
 0001:000239d0       __strncnt                  00000001800249d0 f   libucrt:strncnt.obj
 0001:000239e8       _putwch_nolock             00000001800249e8 f   libucrt:putwch.obj
 0001:00023a24       _clearfp                   0000000180024a24 f   libucrt:ieee.obj
 0001:00023a94       _control87                 0000000180024a94 f   libucrt:ieee.obj
 0001:00023e80       _handle_error              0000000180024e80 f   libucrt:libm_error.obj
 0001:00023fa8       _handle_nan                0000000180024fa8 f   libucrt:libm_error.obj
 0001:00023fd0       __acrt_initialize_fma3     0000000180024fd0 f   libucrt:fma3_available.obj
 0001:00024040       _log10_special             0000000180025040 f   libucrt:log_special.obj
 0001:00024170       _close_internal            0000000180025170 f   libucrt:close.obj
 0001:00024234       _close_nolock_internal     0000000180025234 f   libucrt:close.obj
 0001:00024304       ?__acrt_stdio_free_stream@@YAXV__crt_stdio_stream@@@Z 0000000180025304 f   libucrt:stream.obj
 0001:00024320       __dcrt_lowio_ensure_console_output_initialized 0000000180025320 f   libucrt:initcon.obj
 0001:00024374       __dcrt_terminate_console_output 0000000180025374 f   libucrt:initcon.obj
 0001:00024390       __dcrt_write_console       0000000180025390 f   libucrt:initcon.obj
 0001:00024460       _get_fpsr                  0000000180025460 f   libucrt:fpsr.obj
 0001:00024470       _set_fpsr                  0000000180025470 f   libucrt:fpsr.obj
 0001:0002447a       _fclrf                     000000018002547a f   libucrt:fpsr.obj
 0001:0002448e       _frnd                      000000018002548e f   libucrt:fpsr.obj
 0001:000244b0       _raise_exc                 00000001800254b0 f   libucrt:fpexcept.obj
 0001:000244d8       _raise_exc_ex              00000001800254d8 f   libucrt:fpexcept.obj
 0001:000247e8       _set_errno_from_matherr    00000001800257e8 f   libucrt:fpexcept.obj
 0001:00024818       _clrfp                     0000000180025818 f   libucrt:fpctrl.obj
 0001:00024838       _ctrlfp                    0000000180025838 f   libucrt:fpctrl.obj
 0001:000248b4       _set_statfp                00000001800258b4 f   libucrt:fpctrl.obj
 0001:000248d4       _statfp                    00000001800258d4 f   libucrt:fpctrl.obj
 0001:000248f0       _FindPESection             00000001800258f0 f   LIBCMT:pesect.obj
 0001:00024940       _IsNonwritableInCurrentImage 0000000180025940 f   LIBCMT:pesect.obj
 0001:00024990       _ValidateImageBase         0000000180025990 f   LIBCMT:pesect.obj
 0001:000249bc       __GSHandlerCheck_EH        00000001800259bc f   LIBCMT:gshandlereh.obj
 0001:00024a3c       __C_specific_handler_noexcept 0000000180025a3c f   libvcruntime:chandler_noexcept.obj
 0001:00024a88       strrchr                    0000000180025a88 f   libvcruntime:strrchr.obj
 0001:00024be0       _guard_dispatch_icall_nop  0000000180025be0 f   LIBCMT:guard_dispatch.obj
 0001:00024c00       _guard_xfg_dispatch_icall_nop 0000000180025c00 f   LIBCMT:guard_xfg_dispatch.obj
 0002:00000000       __imp_RegQueryValueExW     0000000180027000     advapi32:ADVAPI32.dll
 0002:00000008       __imp_RegSetValueExW       0000000180027008     advapi32:ADVAPI32.dll
 0002:00000010       __imp_RegQueryInfoKeyW     0000000180027010     advapi32:ADVAPI32.dll
 0002:00000018       __imp_RegOpenKeyExW        0000000180027018     advapi32:ADVAPI32.dll
 0002:00000020       __imp_RegEnumKeyExW        0000000180027020     advapi32:ADVAPI32.dll
 0002:00000028       __imp_RegDeleteValueW      0000000180027028     advapi32:ADVAPI32.dll
 0002:00000030       __imp_RegDeleteKeyW        0000000180027030     advapi32:ADVAPI32.dll
 0002:00000038       __imp_RegCreateKeyExW      0000000180027038     advapi32:ADVAPI32.dll
 0002:00000040       __imp_RegCloseKey          0000000180027040     advapi32:ADVAPI32.dll
 0002:00000048       \177ADVAPI32_NULL_THUNK_DATA 0000000180027048     advapi32:ADVAPI32.dll
 0002:00000050       __imp_GetObjectW           0000000180027050     gdi32:GDI32.dll
 0002:00000058       __imp_SelectObject         0000000180027058     gdi32:GDI32.dll
 0002:00000060       __imp_DeleteObject         0000000180027060     gdi32:GDI32.dll
 0002:00000068       __imp_CreateCompatibleDC   0000000180027068     gdi32:GDI32.dll
 0002:00000070       __imp_BitBlt               0000000180027070     gdi32:GDI32.dll
 0002:00000078       __imp_SetWindowOrgEx       0000000180027078     gdi32:GDI32.dll
 0002:00000080       __imp_SetWindowExtEx       0000000180027080     gdi32:GDI32.dll
 0002:00000088       __imp_SetViewportOrgEx     0000000180027088     gdi32:GDI32.dll
 0002:00000090       __imp_LPtoDP               0000000180027090     gdi32:GDI32.dll
 0002:00000098       __imp_SetMapMode           0000000180027098     gdi32:GDI32.dll
 0002:000000a0       __imp_SaveDC               00000001800270a0     gdi32:GDI32.dll
 0002:000000a8       __imp_RestoreDC            00000001800270a8     gdi32:GDI32.dll
 0002:000000b0       __imp_GetDeviceCaps        00000001800270b0     gdi32:GDI32.dll
 0002:000000b8       __imp_DeleteMetaFile       00000001800270b8     gdi32:GDI32.dll
 0002:000000c0       __imp_DeleteDC             00000001800270c0     gdi32:GDI32.dll
 0002:000000c8       __imp_CreateRectRgnIndirect 00000001800270c8     gdi32:GDI32.dll
 0002:000000d0       __imp_CreateMetaFileW      00000001800270d0     gdi32:GDI32.dll
 0002:000000d8       __imp_CreateDCW            00000001800270d8     gdi32:GDI32.dll
 0002:000000e0       __imp_CloseMetaFile        00000001800270e0     gdi32:GDI32.dll
 0002:000000e8       \177GDI32_NULL_THUNK_DATA  00000001800270e8     gdi32:GDI32.dll
 0002:000000f0       __imp_CloseHandle          00000001800270f0     kernel32:KERNEL32.dll
 0002:000000f8       __imp_SetEvent             00000001800270f8     kernel32:KERNEL32.dll
 0002:00000100       __imp_CreateMutexW         0000000180027100     kernel32:KERNEL32.dll
 0002:00000108       __imp_CreateEventW         0000000180027108     kernel32:KERNEL32.dll
 0002:00000110       __imp_GetCurrentProcessId  0000000180027110     kernel32:KERNEL32.dll
 0002:00000118       __imp_WriteConsoleW        0000000180027118     kernel32:KERNEL32.dll
 0002:00000120       __imp_CreateFileW          0000000180027120     kernel32:KERNEL32.dll
 0002:00000128       __imp_GetConsoleMode       0000000180027128     kernel32:KERNEL32.dll
 0002:00000130       __imp_GetConsoleOutputCP   0000000180027130     kernel32:KERNEL32.dll
 0002:00000138       __imp_WriteFile            0000000180027138     kernel32:KERNEL32.dll
 0002:00000140       __imp_FlushFileBuffers     0000000180027140     kernel32:KERNEL32.dll
 0002:00000148       __imp_SetStdHandle         0000000180027148     kernel32:KERNEL32.dll
 0002:00000150       __imp_SetFilePointerEx     0000000180027150     kernel32:KERNEL32.dll
 0002:00000158       __imp_GetStringTypeW       0000000180027158     kernel32:KERNEL32.dll
 0002:00000160       __imp_FreeEnvironmentStringsW 0000000180027160     kernel32:KERNEL32.dll
 0002:00000168       __imp_lstrcmpiW            0000000180027168     kernel32:KERNEL32.dll
 0002:00000170       __imp_GetCommandLineW      0000000180027170     kernel32:KERNEL32.dll
 0002:00000178       __imp_GetCommandLineA      0000000180027178     kernel32:KERNEL32.dll
 0002:00000180       __imp_GetCPInfo            0000000180027180     kernel32:KERNEL32.dll
 0002:00000188       __imp_GetOEMCP             0000000180027188     kernel32:KERNEL32.dll
 0002:00000190       __imp_GetACP               0000000180027190     kernel32:KERNEL32.dll
 0002:00000198       __imp_IsValidCodePage      0000000180027198     kernel32:KERNEL32.dll
 0002:000001a0       __imp_FindNextFileW        00000001800271a0     kernel32:KERNEL32.dll
 0002:000001a8       __imp_FindFirstFileExW     00000001800271a8     kernel32:KERNEL32.dll
 0002:000001b0       __imp_FindClose            00000001800271b0     kernel32:KERNEL32.dll
 0002:000001b8       __imp_GetFileType          00000001800271b8     kernel32:KERNEL32.dll
 0002:000001c0       __imp_GetStdHandle         00000001800271c0     kernel32:KERNEL32.dll
 0002:000001c8       __imp_LCMapStringW         00000001800271c8     kernel32:KERNEL32.dll
 0002:000001d0       __imp_FlsFree              00000001800271d0     kernel32:KERNEL32.dll
 0002:000001d8       __imp_FlsSetValue          00000001800271d8     kernel32:KERNEL32.dll
 0002:000001e0       __imp_MulDiv               00000001800271e0     kernel32:KERNEL32.dll
 0002:000001e8       __imp_GlobalLock           00000001800271e8     kernel32:KERNEL32.dll
 0002:000001f0       __imp_GlobalUnlock         00000001800271f0     kernel32:KERNEL32.dll
 0002:000001f8       __imp_GlobalAlloc          00000001800271f8     kernel32:KERNEL32.dll
 0002:00000200       __imp_FindResourceW        0000000180027200     kernel32:KERNEL32.dll
 0002:00000208       __imp_SizeofResource       0000000180027208     kernel32:KERNEL32.dll
 0002:00000210       __imp_LoadResource         0000000180027210     kernel32:KERNEL32.dll
 0002:00000218       __imp_LoadLibraryExW       0000000180027218     kernel32:KERNEL32.dll
 0002:00000220       __imp_GetProcAddress       0000000180027220     kernel32:KERNEL32.dll
 0002:00000228       __imp_GetModuleHandleW     0000000180027228     kernel32:KERNEL32.dll
 0002:00000230       __imp_GetModuleFileNameW   0000000180027230     kernel32:KERNEL32.dll
 0002:00000238       __imp_FreeLibrary          0000000180027238     kernel32:KERNEL32.dll
 0002:00000240       __imp_DisableThreadLibraryCalls 0000000180027240     kernel32:KERNEL32.dll
 0002:00000248       __imp_GetCurrentThreadId   0000000180027248     kernel32:KERNEL32.dll
 0002:00000250       __imp_Sleep                0000000180027250     kernel32:KERNEL32.dll
 0002:00000258       __imp_WaitForSingleObject  0000000180027258     kernel32:KERNEL32.dll
 0002:00000260       __imp_ReleaseMutex         0000000180027260     kernel32:KERNEL32.dll
 0002:00000268       __imp_ResetEvent           0000000180027268     kernel32:KERNEL32.dll
 0002:00000270       __imp_EnterCriticalSection 0000000180027270     kernel32:KERNEL32.dll
 0002:00000278       __imp_LeaveCriticalSection 0000000180027278     kernel32:KERNEL32.dll
 0002:00000280       __imp_SetLastError         0000000180027280     kernel32:KERNEL32.dll
 0002:00000288       __imp_EncodePointer        0000000180027288     kernel32:KERNEL32.dll
 0002:00000290       __imp_DeleteCriticalSection 0000000180027290     kernel32:KERNEL32.dll
 0002:00000298       __imp_InitializeCriticalSectionEx 0000000180027298     kernel32:KERNEL32.dll
 0002:000002a0       __imp_GetLastError         00000001800272a0     kernel32:KERNEL32.dll
 0002:000002a8       __imp_RaiseException       00000001800272a8     kernel32:KERNEL32.dll
 0002:000002b0       __imp_DecodePointer        00000001800272b0     kernel32:KERNEL32.dll
 0002:000002b8       __imp_WideCharToMultiByte  00000001800272b8     kernel32:KERNEL32.dll
 0002:000002c0       __imp_GetEnvironmentStringsW 00000001800272c0     kernel32:KERNEL32.dll
 0002:000002c8       __imp_MultiByteToWideChar  00000001800272c8     kernel32:KERNEL32.dll
 0002:000002d0       __imp_FlsGetValue          00000001800272d0     kernel32:KERNEL32.dll
 0002:000002d8       __imp_FlsAlloc             00000001800272d8     kernel32:KERNEL32.dll
 0002:000002e0       __imp_HeapReAlloc          00000001800272e0     kernel32:KERNEL32.dll
 0002:000002e8       __imp_HeapSize             00000001800272e8     kernel32:KERNEL32.dll
 0002:000002f0       __imp_GetModuleHandleExW   00000001800272f0     kernel32:KERNEL32.dll
 0002:000002f8       __imp_ExitProcess          00000001800272f8     kernel32:KERNEL32.dll
 0002:00000300       __imp_VirtualQuery         0000000180027300     kernel32:KERNEL32.dll
 0002:00000308       __imp_VirtualProtect       0000000180027308     kernel32:KERNEL32.dll
 0002:00000310       __imp_GetSystemInfo        0000000180027310     kernel32:KERNEL32.dll
 0002:00000318       __imp_TlsFree              0000000180027318     kernel32:KERNEL32.dll
 0002:00000320       __imp_TlsSetValue          0000000180027320     kernel32:KERNEL32.dll
 0002:00000328       __imp_TlsGetValue          0000000180027328     kernel32:KERNEL32.dll
 0002:00000330       __imp_TlsAlloc             0000000180027330     kernel32:KERNEL32.dll
 0002:00000338       __imp_RtlPcToFileHeader    0000000180027338     kernel32:KERNEL32.dll
 0002:00000340       __imp_InterlockedFlushSList 0000000180027340     kernel32:KERNEL32.dll
 0002:00000348       __imp_RtlUnwindEx          0000000180027348     kernel32:KERNEL32.dll
 0002:00000350       __imp_LoadLibraryExA       0000000180027350     kernel32:KERNEL32.dll
 0002:00000358       __imp_VirtualFree          0000000180027358     kernel32:KERNEL32.dll
 0002:00000360       __imp_VirtualAlloc         0000000180027360     kernel32:KERNEL32.dll
 0002:00000368       __imp_FlushInstructionCache 0000000180027368     kernel32:KERNEL32.dll
 0002:00000370       __imp_InterlockedPushEntrySList 0000000180027370     kernel32:KERNEL32.dll
 0002:00000378       __imp_InterlockedPopEntrySList 0000000180027378     kernel32:KERNEL32.dll
 0002:00000380       __imp_GetProcessHeap       0000000180027380     kernel32:KERNEL32.dll
 0002:00000388       __imp_HeapFree             0000000180027388     kernel32:KERNEL32.dll
 0002:00000390       __imp_HeapAlloc            0000000180027390     kernel32:KERNEL32.dll
 0002:00000398       __imp_OutputDebugStringW   0000000180027398     kernel32:KERNEL32.dll
 0002:000003a0       __imp_InitializeSListHead  00000001800273a0     kernel32:KERNEL32.dll
 0002:000003a8       __imp_GetSystemTimeAsFileTime 00000001800273a8     kernel32:KERNEL32.dll
 0002:000003b0       __imp_QueryPerformanceCounter 00000001800273b0     kernel32:KERNEL32.dll
 0002:000003b8       __imp_GetStartupInfoW      00000001800273b8     kernel32:KERNEL32.dll
 0002:000003c0       __imp_InitializeCriticalSectionAndSpinCount 00000001800273c0     kernel32:KERNEL32.dll
 0002:000003c8       __imp_WaitForSingleObjectEx 00000001800273c8     kernel32:KERNEL32.dll
 0002:000003d0       __imp_RtlCaptureContext    00000001800273d0     kernel32:KERNEL32.dll
 0002:000003d8       __imp_RtlLookupFunctionEntry 00000001800273d8     kernel32:KERNEL32.dll
 0002:000003e0       __imp_RtlVirtualUnwind     00000001800273e0     kernel32:KERNEL32.dll
 0002:000003e8       __imp_UnhandledExceptionFilter 00000001800273e8     kernel32:KERNEL32.dll
 0002:000003f0       __imp_SetUnhandledExceptionFilter 00000001800273f0     kernel32:KERNEL32.dll
 0002:000003f8       __imp_GetCurrentProcess    00000001800273f8     kernel32:KERNEL32.dll
 0002:00000400       __imp_TerminateProcess     0000000180027400     kernel32:KERNEL32.dll
 0002:00000408       __imp_IsProcessorFeaturePresent 0000000180027408     kernel32:KERNEL32.dll
 0002:00000410       __imp_IsDebuggerPresent    0000000180027410     kernel32:KERNEL32.dll
 0002:00000418       \177KERNEL32_NULL_THUNK_DATA 0000000180027418     kernel32:KERNEL32.dll
 0002:00000420       __imp_OleCreatePropertyFrame 0000000180027420     oleaut32:OLEAUT32.dll
 0002:00000428       __imp_UnRegisterTypeLib    0000000180027428     oleaut32:OLEAUT32.dll
 0002:00000430       __imp_RegisterTypeLib      0000000180027430     oleaut32:OLEAUT32.dll
 0002:00000438       __imp_LoadRegTypeLib       0000000180027438     oleaut32:OLEAUT32.dll
 0002:00000440       __imp_LoadTypeLib          0000000180027440     oleaut32:OLEAUT32.dll
 0002:00000448       __imp_VarUI4FromStr        0000000180027448     oleaut32:OLEAUT32.dll
 0002:00000450       __imp_VariantInit          0000000180027450     oleaut32:OLEAUT32.dll
 0002:00000458       __imp_SysAllocStringByteLen 0000000180027458     oleaut32:OLEAUT32.dll
 0002:00000460       __imp_SysStringByteLen     0000000180027460     oleaut32:OLEAUT32.dll
 0002:00000468       __imp_VariantChangeType    0000000180027468     oleaut32:OLEAUT32.dll
 0002:00000470       __imp_VariantClear         0000000180027470     oleaut32:OLEAUT32.dll
 0002:00000478       __imp_SysStringLen         0000000180027478     oleaut32:OLEAUT32.dll
 0002:00000480       __imp_SysFreeString        0000000180027480     oleaut32:OLEAUT32.dll
 0002:00000488       __imp_SysAllocStringLen    0000000180027488     oleaut32:OLEAUT32.dll
 0002:00000490       __imp_SysAllocString       0000000180027490     oleaut32:OLEAUT32.dll
 0002:00000498       \177OLEAUT32_NULL_THUNK_DATA 0000000180027498     oleaut32:OLEAUT32.dll
 0002:000004a0       __imp_UnregisterClassW     00000001800274a0     user32:USER32.dll
 0002:000004a8       __imp_PostMessageW         00000001800274a8     user32:USER32.dll
 0002:000004b0       __imp_DefWindowProcW       00000001800274b0     user32:USER32.dll
 0002:000004b8       __imp_CallWindowProcW      00000001800274b8     user32:USER32.dll
 0002:000004c0       __imp_RegisterClassExW     00000001800274c0     user32:USER32.dll
 0002:000004c8       __imp_GetClassInfoExW      00000001800274c8     user32:USER32.dll
 0002:000004d0       __imp_CreateWindowExW      00000001800274d0     user32:USER32.dll
 0002:000004d8       __imp_IsWindow             00000001800274d8     user32:USER32.dll
 0002:000004e0       __imp_IsChild              00000001800274e0     user32:USER32.dll
 0002:000004e8       __imp_DestroyWindow        00000001800274e8     user32:USER32.dll
 0002:000004f0       __imp_ShowWindow           00000001800274f0     user32:USER32.dll
 0002:000004f8       __imp_SetWindowPos         00000001800274f8     user32:USER32.dll
 0002:00000500       __imp_CharNextW            0000000180027500     user32:USER32.dll
 0002:00000508       __imp_SetFocus             0000000180027508     user32:USER32.dll
 0002:00000510       __imp_LoadBitmapW          0000000180027510     user32:USER32.dll
 0002:00000518       __imp_RegisterClassW       0000000180027518     user32:USER32.dll
 0002:00000520       __imp_PeekMessageW         0000000180027520     user32:USER32.dll
 0002:00000528       __imp_LoadCursorW          0000000180027528     user32:USER32.dll
 0002:00000530       __imp_GetParent            0000000180027530     user32:USER32.dll
 0002:00000538       __imp_SetWindowLongPtrW    0000000180027538     user32:USER32.dll
 0002:00000540       __imp_GetWindowLongPtrW    0000000180027540     user32:USER32.dll
 0002:00000548       __imp_PtInRect             0000000180027548     user32:USER32.dll
 0002:00000550       __imp_EqualRect            0000000180027550     user32:USER32.dll
 0002:00000558       __imp_OffsetRect           0000000180027558     user32:USER32.dll
 0002:00000560       __imp_UnionRect            0000000180027560     user32:USER32.dll
 0002:00000568       __imp_IntersectRect        0000000180027568     user32:USER32.dll
 0002:00000570       __imp_GetClientRect        0000000180027570     user32:USER32.dll
 0002:00000578       __imp_InvalidateRect       0000000180027578     user32:USER32.dll
 0002:00000580       __imp_SetWindowRgn         0000000180027580     user32:USER32.dll
 0002:00000588       __imp_EndPaint             0000000180027588     user32:USER32.dll
 0002:00000590       __imp_BeginPaint           0000000180027590     user32:USER32.dll
 0002:00000598       __imp_ReleaseDC            0000000180027598     user32:USER32.dll
 0002:000005a0       __imp_GetDC                00000001800275a0     user32:USER32.dll
 0002:000005a8       __imp_GetKeyState          00000001800275a8     user32:USER32.dll
 0002:000005b0       __imp_GetFocus             00000001800275b0     user32:USER32.dll
 0002:000005b8       \177USER32_NULL_THUNK_DATA 00000001800275b8     user32:USER32.dll
 0002:000005c0       __imp_CoCreateInstance     00000001800275c0     ole32:ole32.dll
 0002:000005c8       __imp_StringFromGUID2      00000001800275c8     ole32:ole32.dll
 0002:000005d0       __imp_CoTaskMemAlloc       00000001800275d0     ole32:ole32.dll
 0002:000005d8       __imp_CoTaskMemRealloc     00000001800275d8     ole32:ole32.dll
 0002:000005e0       __imp_CoTaskMemFree        00000001800275e0     ole32:ole32.dll
 0002:000005e8       __imp_WriteClassStm        00000001800275e8     ole32:ole32.dll
 0002:000005f0       __imp_CreateDataAdviseHolder 00000001800275f0     ole32:ole32.dll
 0002:000005f8       __imp_OleSaveToStream      00000001800275f8     ole32:ole32.dll
 0002:00000600       __imp_CreateOleAdviseHolder 0000000180027600     ole32:ole32.dll
 0002:00000608       __imp_OleRegGetUserType    0000000180027608     ole32:ole32.dll
 0002:00000610       __imp_OleRegGetMiscStatus  0000000180027610     ole32:ole32.dll
 0002:00000618       __imp_OleRegEnumVerbs      0000000180027618     ole32:ole32.dll
 0002:00000620       __imp_CLSIDFromProgID      0000000180027620     ole32:ole32.dll
 0002:00000628       __imp_ReadClassStm         0000000180027628     ole32:ole32.dll
 0002:00000630       \177ole32_NULL_THUNK_DATA  0000000180027630     ole32:ole32.dll
 0002:00000638       __guard_check_icall_fptr   0000000180027638     LIBCMT:guard_support.obj
 0002:00000640       __guard_xfg_check_icall_fptr 0000000180027640     LIBCMT:guard_support.obj
 0002:00000648       __guard_dispatch_icall_fptr 0000000180027648     LIBCMT:guard_support.obj
 0002:00000650       __guard_xfg_dispatch_icall_fptr 0000000180027650     LIBCMT:guard_support.obj
 0002:00000658       __guard_xfg_table_dispatch_icall_fptr 0000000180027658     LIBCMT:guard_support.obj
 0002:00000660       __castguard_check_failure_os_handled_fptr 0000000180027660     LIBCMT:guard_support.obj
 0002:00000668       __xc_a                     0000000180027668     LIBCMT:initializers.obj
 0002:00000698       __xc_z                     0000000180027698     LIBCMT:initializers.obj
 0002:000006a0       __xi_a                     00000001800276a0     LIBCMT:initializers.obj
 0002:000006b0       __acrt_stdio_initializer   00000001800276b0     libucrt:stdio_initializer.obj
 0002:000006b8       __acrt_multibyte_initializer 00000001800276b8     libucrt:multibyte_initializer.obj
 0002:000006c0       __acrt_tran_fma3_initializer 00000001800276c0     libucrt:fma3_initializer.obj
 0002:000006c8       __xi_z                     00000001800276c8     LIBCMT:initializers.obj
 0002:000006d0       __xl_a                     00000001800276d0     LIBCMT:tlssup.obj
 0002:000006d8       __xl_z                     00000001800276d8     LIBCMT:tlssup.obj
 0002:000006e0       __xp_a                     00000001800276e0     LIBCMT:initializers.obj
 0002:000006e8       __acrt_locale_terminator   00000001800276e8     libucrt:locale_initializer.obj
 0002:000006f0       __dcrt_console_output_terminator 00000001800276f0     libucrt:console_output_initializer.obj
 0002:000006f8       __acrt_stdio_terminator    00000001800276f8     libucrt:stdio_initializer.obj
 0002:00000700       __xp_z                     0000000180027700     LIBCMT:initializers.obj
 0002:00000708       __xt_a                     0000000180027708     LIBCMT:initializers.obj
 0002:00000710       __xt_z                     0000000180027710     LIBCMT:initializers.obj
 0002:00000720       ??_C@_13HADIAKP@?$AAS@     0000000180027720     OposVariant.obj
 0002:00000724       ??_C@_13LHMFKAAD@?$AAM@    0000000180027724     OposVariant.obj
 0002:00000728       ??_C@_13MKMNOPIJ@?$AAD@    0000000180027728     OposVariant.obj
 0002:0000072c       ??_C@_13OPKGLAFF@?$AAB@    000000018002772c     OposVariant.obj
 0002:00000730       ??_C@_17LLMMEOJD@?$AAV?$AAa?$AAl@ 0000000180027730     OposVariant.obj
 0002:00000738       ??_C@_1BI@JFAIJMHL@?$AAF?$AAo?$AAr?$AAc?$AAe?$AAR?$AAe?$AAm?$AAo?$AAv?$AAe@ 0000000180027738     OposVariant.obj
 0002:00000750       ??_C@_1BC@GCKHIPE@?$AAN?$AAo?$AAR?$AAe?$AAm?$AAo?$AAv?$AAe@ 0000000180027750     OposVariant.obj
 0002:00000768       ??_C@_1O@JDLOHAN@?$AAD?$AAe?$AAl?$AAe?$AAt?$AAe@ 0000000180027768     OposVariant.obj
 0002:00000778       ??_C@_11LOCGONAA@@         0000000180027778     OposVariant.obj
 0002:00000780       _GUID_55980ba0_35aa_11cf_b671_00aa004cd6d8 0000000180027780     CAT.obj
 0002:00000790       _GUID_b196b28b_bab4_101a_b69c_00aa00341d07 0000000180027790     CAT.obj
 0002:000007a0       ??_7?$CComObject@V?$CComEnum@UIEnumConnections@@$1?_GUID_b196b287_bab4_101a_b69c_00aa00341d07@@3U__s_GUID@@BUtagCONNECTDATA@@V?$_Copy@UtagCONNECTDATA@@@ATL@@VCComSingleThreadModel@6@@ATL@@@ATL@@6B@ 00000001800277a0     CAT.obj
 0002:000007e0       ?_entries@?1??_GetEntries@?$CComEnum@UIEnumConnections@@$1?_GUID_b196b287_bab4_101a_b69c_00aa00341d07@@3U__s_GUID@@BUtagCONNECTDATA@@V?$_Copy@UtagCONNECTDATA@@@ATL@@VCComSingleThreadModel@6@@ATL@@SAPEBU_ATL_INTMAP_ENTRY@3@XZ@4QBU43@B 00000001800277e0     CAT.obj
 0002:00000810       ??_7CComClassFactory@ATL@@6B@ 0000000180027810     CAT.obj
 0002:00000840       ?_entries@?1??_GetEntries@CComClassFactory@ATL@@SAPEBU_ATL_INTMAP_ENTRY@3@XZ@4QBU43@B 0000000180027840     CAT.obj
 0002:00000870       _GUID_00000001_0000_0000_c000_000000000046 0000000180027870     CAT.obj
 0002:00000880       IID_IOPOSCAT_1_5           0000000180027880     CAT.obj
 0002:00000890       IID_IOPOSCAT_1_8           0000000180027890     CAT.obj
 0002:000008a0       ??_C@_1BK@BIGILECK@?$AAA?$AAd?$AAv?$AAa?$AAp?$AAi?$AA3?$AA2?$AA?4?$AAd?$AAl?$AAl@ 00000001800278a0     CAT.obj
 0002:000008c0       IID_IOPOSCAT_1_9           00000001800278c0     CAT.obj
 0002:000008d0       ??_C@_0BI@MNCFCPFK@RegCreateKeyTransactedW@ 00000001800278d0     CAT.obj
 0002:000008e8       IID_IOPOSCAT               00000001800278e8     CAT.obj
 0002:000008f8       LIBID_OposCAT_CCO          00000001800278f8     CAT.obj
 0002:00000908       DIID__IOPOSCATEvents       0000000180027908     CAT.obj
 0002:00000918       CLSID_OPOSCAT              0000000180027918     CAT.obj
 0002:00000928       _GUID_00000114_0000_0000_c000_000000000046 0000000180027928     CAT.obj
 0002:00000938       _GUID_b196b287_bab4_101a_b69c_00aa00341d07 0000000180027938     CAT.obj
 0002:00000948       _GUID_b196b285_bab4_101a_b69c_00aa00341d07 0000000180027948     CAT.obj
 0002:00000958       _GUID_a6bc3ac0_dbaa_11ce_9de3_00aa004bb851 0000000180027958     CAT.obj
 0002:00000968       _GUID_0000010c_0000_0000_c000_000000000046 0000000180027968     CAT.obj
 0002:00000978       _GUID_00000146_0000_0000_c000_000000000046 0000000180027978     CAT.obj
 0002:00000988       ??_7CComModule@ATL@@6B@    0000000180027988     CAT.obj
 0002:000009e0       ?_entries@?1??_GetEntries@COPOSCAT@@SAPEBU_ATL_INTMAP_ENTRY@ATL@@XZ@4QBU34@B 00000001800279e0     CAT.obj
 0002:00000c50       _GUID_00000000_0000_0000_c000_000000000046 0000000180027c50     CAT.obj
 0002:00000c60       _GUID_00020400_0000_0000_c000_000000000046 0000000180027c60     CAT.obj
 0002:00000c70       _GUID_cf51ed10_62fe_11cf_bf86_00a0c9034836 0000000180027c70     CAT.obj
 0002:00000c80       _GUID_0000010a_0000_0000_c000_000000000046 0000000180027c80     CAT.obj
 0002:00000c90       _GUID_b196b283_bab4_101a_b69c_00aa00341d07 0000000180027c90     CAT.obj
 0002:00000ca0       _GUID_cb5bdc81_93c1_11cf_8f20_00805f2cd064 0000000180027ca0     CAT.obj
 0002:00000cb0       _GUID_922eada0_3424_11cf_b670_00aa004cd6d8 0000000180027cb0     CAT.obj
 0002:00000cc0       _GUID_9c2cad80_3424_11cf_b670_00aa004cd6d8 0000000180027cc0     CAT.obj
 0002:00000cd0       ?pPropMap@?1??GetPropertyMap@COPOSCAT@@SAPEBUATL_PROPMAP_ENTRY@ATL@@XZ@4QBU34@B 0000000180027cd0     CAT.obj
 0002:00000d78       _GUID_00000119_0000_0000_c000_000000000046 0000000180027d78     CAT.obj
 0002:00000d88       ??_C@_17DGDADEHL@?$AA_?$AAc?$AAx@ 0000000180027d88     CAT.obj
 0002:00000d90       ??_C@_17IOIMFDBO@?$AA_?$AAc?$AAy@ 0000000180027d90     CAT.obj
 0002:00000d98       _GUID_b196b289_bab4_101a_b69c_00aa00341d07 0000000180027d98     CAT.obj
 0002:00000da8       _GUID_00000117_0000_0000_c000_000000000046 0000000180027da8     CAT.obj
 0002:00000db8       ??_7?$CComObjectCached@VCComClassFactory@ATL@@@ATL@@6B@ 0000000180027db8     CAT.obj
 0002:00000de8       ??_C@_1CE@PGFMOFKI@?$AAS?$AAt?$AAa?$AAt?$AAu?$AAs?$AAU?$AAp?$AAd?$AAa?$AAt?$AAe?$AAE?$AAv?$AAe@ 0000000180027de8     CAT.obj
 0002:00000e10       ??_C@_1CI@HLBJDONE@?$AAO?$AAu?$AAt?$AAp?$AAu?$AAt?$AAC?$AAo?$AAm?$AAp?$AAl?$AAe?$AAt?$AAe?$AAE@ 0000000180027e10     CAT.obj
 0002:00000e38       ??_C@_1BG@LODEBHDD@?$AAE?$AAr?$AAr?$AAo?$AAr?$AAE?$AAv?$AAe?$AAn?$AAt@ 0000000180027e38     CAT.obj
 0002:00000e50       ??_C@_1BM@CBGEBBBJ@?$AAD?$AAi?$AAr?$AAe?$AAc?$AAt?$AAI?$AAO?$AAE?$AAv?$AAe?$AAn?$AAt@ 0000000180027e50     CAT.obj
 0002:00000e70       _GUID_b196b286_bab4_101a_b69c_00aa00341d07 0000000180027e70     CAT.obj
 0002:00000e80       ??_C@_1BC@ENICKDH@?$AAC?$AAo?$AAn?$AAt?$AAe?$AAn?$AAt?$AAs@ 0000000180027e80     CAT.obj
 0002:00000e98       ??_7?$CComObject@V?$CComEnum@UIEnumConnectionPoints@@$1?_GUID_b196b285_bab4_101a_b69c_00aa00341d07@@3U__s_GUID@@BPEAUIConnectionPoint@@V?$_CopyInterface@UIConnectionPoint@@@ATL@@VCComSingleThreadModel@6@@ATL@@@ATL@@6B@ 0000000180027e98     CAT.obj
 0002:00000ed8       ??_C@_1M@KANJNLFF@?$AAC?$AAL?$AAS?$AAI?$AAD@ 0000000180027ed8     CAT.obj
 0002:00000ee8       ??_C@_1M@EJNEECMJ@?$AAA?$AAp?$AAp?$AAI?$AAD@ 0000000180027ee8     CAT.obj
 0002:00000ef8       _GUID_0000010e_0000_0000_c000_000000000046 0000000180027ef8     CAT.obj
 0002:00000f10       ?rgszNeverDelete@CRegParser@ATL@@1QBQEB_WB 0000000180027f10     CAT.obj
 0002:00000f70       _GUID_b196b288_bab4_101a_b69c_00aa00341d07 0000000180027f70     CAT.obj
 0002:00000f80       ??_7CRegObject@ATL@@6B@    0000000180027f80     CAT.obj
 0002:00000fb0       _GUID_00000113_0000_0000_c000_000000000046 0000000180027fb0     CAT.obj
 0002:00000fc0       ??_C@_1CK@OEKPKBNA@?$AAC?$AAo?$AAm?$AAp?$AAo?$AAn?$AAe?$AAn?$AAt?$AA?5?$AAC?$AAa?$AAt?$AAe?$AAg@ 0000000180027fc0     CAT.obj
 0002:00000ff0       ??_C@_1BC@NKMMNMGL@?$AAF?$AAi?$AAl?$AAe?$AAT?$AAy?$AAp?$AAe@ 0000000180027ff0     CAT.obj
 0002:00001008       ??_C@_1BE@EKPAFMCP@?$AAI?$AAn?$AAt?$AAe?$AAr?$AAf?$AAa?$AAc?$AAe@ 0000000180028008     CAT.obj
 0002:00001020       ??_C@_1BC@MAICEHGI@?$AAH?$AAa?$AAr?$AAd?$AAw?$AAa?$AAr?$AAe@ 0000000180028020     CAT.obj
 0002:00001038       ??_C@_19HLLLM@?$AAM?$AAi?$AAm?$AAe@ 0000000180028038     CAT.obj
 0002:00001048       ??_C@_17OMAOINJK@?$AAS?$AAA?$AAM@ 0000000180028048     CAT.obj
 0002:00001050       ??_C@_1BC@IBECJAAI@?$AAS?$AAE?$AAC?$AAU?$AAR?$AAI?$AAT?$AAY@ 0000000180028050     CAT.obj
 0002:00001068       ??_C@_1O@GBFINDKL@?$AAS?$AAY?$AAS?$AAT?$AAE?$AAM@ 0000000180028068     CAT.obj
 0002:00001078       ??_C@_1BC@EAHCMADO@?$AAS?$AAo?$AAf?$AAt?$AAw?$AAa?$AAr?$AAe@ 0000000180028078     CAT.obj
 0002:00001090       ??_C@_1BA@JIHHIEDE@?$AAT?$AAy?$AAp?$AAe?$AAL?$AAi?$AAb@ 0000000180028090     CAT.obj
 0002:000010a0       _GUID_1c2056cc_5ef4_101b_8bc8_00aa003e3b29 00000001800280a0     CAT.obj
 0002:000010b0       ?map@?1??HKeyFromString@CRegParser@ATL@@KAPEAUHKEY__@@PEA_W@Z@4QBUkeymap@?1??123@KAPEAU4@0@Z@B 00000001800280b0     CAT.obj
 0002:00001190       ??_C@_19NCHLBIN@?$AAH?$AAK?$AAC?$AAR@ 0000000180028190     CAT.obj
 0002:000011a0       ??_C@_19JAPAIJDE@?$AAH?$AAK?$AAC?$AAU@ 00000001800281a0     CAT.obj
 0002:000011b0       ??_C@_19PEALEEJB@?$AAH?$AAK?$AAL?$AAM@ 00000001800281b0     CAT.obj
 0002:000011c0       ??_C@_17PJOJPMPB@?$AAH?$AAK?$AAU@ 00000001800281c0     CAT.obj
 0002:000011c8       ??_C@_19PNBHMJPL@?$AAH?$AAK?$AAP?$AAD@ 00000001800281c8     CAT.obj
 0002:000011d8       ??_C@_19GFFAIJHG@?$AAH?$AAK?$AAD?$AAD@ 00000001800281d8     CAT.obj
 0002:000011e8       ??_C@_19OFICIBHH@?$AAH?$AAK?$AAC?$AAC@ 00000001800281e8     CAT.obj
 0002:000011f8       ??_C@_1CE@PACHPJFI@?$AAH?$AAK?$AAE?$AAY?$AA_?$AAC?$AAL?$AAA?$AAS?$AAS?$AAE?$AAS?$AA_?$AAR?$AAO@ 00000001800281f8     CAT.obj
 0002:00001220       ??_C@_1CE@HLHNCBPM@?$AAH?$AAK?$AAE?$AAY?$AA_?$AAC?$AAU?$AAR?$AAR?$AAE?$AAN?$AAT?$AA_?$AAU?$AAS@ 0000000180028220     CAT.obj
 0002:00001248       ??_C@_1CG@GFBEANJL@?$AAH?$AAK?$AAE?$AAY?$AA_?$AAL?$AAO?$AAC?$AAA?$AAL?$AA_?$AAM?$AAA?$AAC?$AAH@ 0000000180028248     CAT.obj
 0002:00001270       ??_C@_1BG@BGODANIO@?$AAH?$AAK?$AAE?$AAY?$AA_?$AAU?$AAS?$AAE?$AAR?$AAS@ 0000000180028270     CAT.obj
 0002:00001288       ??_C@_1CM@KHNNAOIC@?$AAH?$AAK?$AAE?$AAY?$AA_?$AAP?$AAE?$AAR?$AAF?$AAO?$AAR?$AAM?$AAA?$AAN?$AAC@ 0000000180028288     CAT.obj
 0002:000012b8       ??_C@_1BM@HAGMMHIA@?$AAH?$AAK?$AAE?$AAY?$AA_?$AAD?$AAY?$AAN?$AA_?$AAD?$AAA?$AAT?$AAA@ 00000001800282b8     CAT.obj
 0002:000012d8       ??_C@_1CI@BBJOACGG@?$AAH?$AAK?$AAE?$AAY?$AA_?$AAC?$AAU?$AAR?$AAR?$AAE?$AAN?$AAT?$AA_?$AAC?$AAO@ 00000001800282d8     CAT.obj
 0002:00001300       _GUID_00000109_0000_0000_c000_000000000046 0000000180028300     CAT.obj
 0002:00001310       _GUID_7fd52380_4e07_101b_ae2d_08002b2ec713 0000000180028310     CAT.obj
 0002:00001320       _GUID_00000112_0000_0000_c000_000000000046 0000000180028320     CAT.obj
 0002:00001330       ??_C@_1EA@NHKLICFA@?$AAH?$AAK?$AAC?$AAU?$AA?$AN?$AA?6?$AA?$HL?$AA?7?$AAS?$AAo?$AAf?$AAt?$AAw?$AAa?$AAr@ 0000000180028330     CAT.obj
 0002:00001370       ??_C@_1BE@LJOLIMEM@?$AA?$AN?$AA?6?$AA?7?$AA?$HN?$AA?$AN?$AA?6?$AA?$HN?$AA?$AN?$AA?6@ 0000000180028370     CAT.obj
 0002:00001388       _GUID_3af24292_0c96_11ce_a0cf_00aa00600ab8 0000000180028388     CAT.obj
 0002:00001398       _GUID_00000127_0000_0000_c000_000000000046 0000000180028398     CAT.obj
 0002:000013a8       _GUID_0000010d_0000_0000_c000_000000000046 00000001800283a8     CAT.obj
 0002:000013b8       ??_C@_1O@MNLDABAF@?$AAM?$AAo?$AAd?$AAu?$AAl?$AAe@ 00000001800283b8     CAT.obj
 0002:000013c8       ??_C@_1BG@JBACFMF@?$AAM?$AAo?$AAd?$AAu?$AAl?$AAe?$AA_?$AAR?$AAa?$AAw@ 00000001800283c8     CAT.obj
 0002:000013e0       ??_C@_1BC@KAILKFFG@?$AAR?$AAE?$AAG?$AAI?$AAS?$AAT?$AAR?$AAY@ 00000001800283e0     CAT.obj
 0002:000013f8       ??_C@_1M@PPPPCDEP@?$AAA?$AAP?$AAP?$AAI?$AAD@ 00000001800283f8     CAT.obj
 0002:00001408       ??_7?$CComContainedObject@VCOPOSCAT@@@ATL@@6B?$IDispatchImpl@UIOPOSCAT@@$1?IID_IOPOSCAT@@3U_GUID@@B$1?LIBID_OposCAT_CCO@@3U3@B$00$0A@VCComTypeInfoHolder@ATL@@@1@@ 0000000180028408     CAT.obj
 0002:00001740       ??_7?$CComContainedObject@VCOPOSCAT@@@ATL@@6BCComControlBase@1@@ 0000000180028740     CAT.obj
 0002:00001768       ??_7?$CComContainedObject@VCOPOSCAT@@@ATL@@6B?$CWindowImpl@VCOPOSCAT@@VCWindow@ATL@@V?$CWinTraits@$0FGAAAAAA@$0A@@3@@1@@ 0000000180028768     CAT.obj
 0002:00001788       ??_7?$CComContainedObject@VCOPOSCAT@@@ATL@@6B?$IPersistStreamInitImpl@VCOPOSCAT@@@1@@ 0000000180028788     CAT.obj
 0002:000017d0       ??_7?$CComContainedObject@VCOPOSCAT@@@ATL@@6B?$IOleControlImpl@VCOPOSCAT@@@1@@ 00000001800287d0     CAT.obj
 0002:00001808       ??_7?$CComContainedObject@VCOPOSCAT@@@ATL@@6B?$IOleObjectImpl@VCOPOSCAT@@@1@@ 0000000180028808     CAT.obj
 0002:000018c8       ??_7?$CComContainedObject@VCOPOSCAT@@@ATL@@6B?$IOleInPlaceActiveObjectImpl@VCOPOSCAT@@@1@@ 00000001800288c8     CAT.obj
 0002:00001918       ??_7?$CComContainedObject@VCOPOSCAT@@@ATL@@6B?$IViewObjectExImpl@VCOPOSCAT@@@1@@ 0000000180028918     CAT.obj
 0002:00001990       ??_7?$CComContainedObject@VCOPOSCAT@@@ATL@@6B?$IOleInPlaceObjectWindowlessImpl@VCOPOSCAT@@@1@@ 0000000180028990     CAT.obj
 0002:000019e8       ??_7?$CComContainedObject@VCOPOSCAT@@@ATL@@6B?$IConnectionPointContainerImpl@VCOPOSCAT@@@1@@ 00000001800289e8     CAT.obj
 0002:00001a10       ??_7?$CComContainedObject@VCOPOSCAT@@@ATL@@6B?$IPersistStorageImpl@VCOPOSCAT@@@1@@ 0000000180028a10     CAT.obj
 0002:00001a60       ??_7?$CComContainedObject@VCOPOSCAT@@@ATL@@6B?$ISpecifyPropertyPagesImpl@VCOPOSCAT@@@1@@ 0000000180028a60     CAT.obj
 0002:00001a80       ??_7?$CComContainedObject@VCOPOSCAT@@@ATL@@6B?$IQuickActivateImpl@VCOPOSCAT@@@1@@ 0000000180028a80     CAT.obj
 0002:00001ab0       ??_7?$CComContainedObject@VCOPOSCAT@@@ATL@@6B?$IDataObjectImpl@VCOPOSCAT@@@1@@ 0000000180028ab0     CAT.obj
 0002:00001b10       ??_7?$CComContainedObject@VCOPOSCAT@@@ATL@@6B?$IProvideClassInfo2Impl@$1?CLSID_OPOSCAT@@3U_GUID@@B$1?DIID__IOPOSCATEvents@@3U2@B$1?LIBID_OposCAT_CCO@@3U2@B$00$0A@VCComTypeInfoHolder@ATL@@@1@@ 0000000180028b10     CAT.obj
 0002:00001b38       ??_7?$CComContainedObject@VCOPOSCAT@@@ATL@@6B?$IObjectSafetyImpl@VCOPOSCAT@@$02@1@@ 0000000180028b38     CAT.obj
 0002:00001b68       ??_7?$CComContainedObject@VCOPOSCAT@@@ATL@@6B?$IPropertyNotifySinkCP@VCOPOSCAT@@VCComDynamicUnkArray@ATL@@@1@@ 0000000180028b68     CAT.obj
 0002:00001ba8       ??_7?$CComContainedObject@VCOPOSCAT@@@ATL@@6B?$CProxy_IOPOSEvents@VCOPOSCAT@@@@@ 0000000180028ba8     CAT.obj
 0002:00001be8       ??_7?$CComAggObject@VCOPOSCAT@@@ATL@@6B@ 0000000180028be8     CAT.obj
 0002:00001c08       ??_7?$CComObject@VCOPOSCAT@@@ATL@@6B?$IDispatchImpl@UIOPOSCAT@@$1?IID_IOPOSCAT@@3U_GUID@@B$1?LIBID_OposCAT_CCO@@3U3@B$00$0A@VCComTypeInfoHolder@ATL@@@1@@ 0000000180028c08     CAT.obj
 0002:00001f40       ??_7?$CComObject@VCOPOSCAT@@@ATL@@6BCComControlBase@1@@ 0000000180028f40     CAT.obj
 0002:00001f68       ??_7?$CComObject@VCOPOSCAT@@@ATL@@6B?$CWindowImpl@VCOPOSCAT@@VCWindow@ATL@@V?$CWinTraits@$0FGAAAAAA@$0A@@3@@1@@ 0000000180028f68     CAT.obj
 0002:00001f88       ??_7?$CComObject@VCOPOSCAT@@@ATL@@6B?$IPersistStreamInitImpl@VCOPOSCAT@@@1@@ 0000000180028f88     CAT.obj
 0002:00001fd0       ??_7?$CComObject@VCOPOSCAT@@@ATL@@6B?$IOleControlImpl@VCOPOSCAT@@@1@@ 0000000180028fd0     CAT.obj
 0002:00002008       ??_7?$CComObject@VCOPOSCAT@@@ATL@@6B?$IOleObjectImpl@VCOPOSCAT@@@1@@ 0000000180029008     CAT.obj
 0002:000020c8       ??_7?$CComObject@VCOPOSCAT@@@ATL@@6B?$IOleInPlaceActiveObjectImpl@VCOPOSCAT@@@1@@ 00000001800290c8     CAT.obj
 0002:00002118       ??_7?$CComObject@VCOPOSCAT@@@ATL@@6B?$IViewObjectExImpl@VCOPOSCAT@@@1@@ 0000000180029118     CAT.obj
 0002:00002190       ??_7?$CComObject@VCOPOSCAT@@@ATL@@6B?$IOleInPlaceObjectWindowlessImpl@VCOPOSCAT@@@1@@ 0000000180029190     CAT.obj
 0002:000021e8       ??_7?$CComObject@VCOPOSCAT@@@ATL@@6B?$IConnectionPointContainerImpl@VCOPOSCAT@@@1@@ 00000001800291e8     CAT.obj
 0002:00002210       ??_7?$CComObject@VCOPOSCAT@@@ATL@@6B?$IPersistStorageImpl@VCOPOSCAT@@@1@@ 0000000180029210     CAT.obj
 0002:00002260       ??_7?$CComObject@VCOPOSCAT@@@ATL@@6B?$ISpecifyPropertyPagesImpl@VCOPOSCAT@@@1@@ 0000000180029260     CAT.obj
 0002:00002280       ??_7?$CComObject@VCOPOSCAT@@@ATL@@6B?$IQuickActivateImpl@VCOPOSCAT@@@1@@ 0000000180029280     CAT.obj
 0002:000022b0       ??_7?$CComObject@VCOPOSCAT@@@ATL@@6B?$IDataObjectImpl@VCOPOSCAT@@@1@@ 00000001800292b0     CAT.obj
 0002:00002310       ??_7?$CComObject@VCOPOSCAT@@@ATL@@6B?$IProvideClassInfo2Impl@$1?CLSID_OPOSCAT@@3U_GUID@@B$1?DIID__IOPOSCATEvents@@3U2@B$1?LIBID_OposCAT_CCO@@3U2@B$00$0A@VCComTypeInfoHolder@ATL@@@1@@ 0000000180029310     CAT.obj
 0002:00002338       ??_7?$CComObject@VCOPOSCAT@@@ATL@@6B?$IObjectSafetyImpl@VCOPOSCAT@@$02@1@@ 0000000180029338     CAT.obj
 0002:00002368       ??_7?$CComObject@VCOPOSCAT@@@ATL@@6B?$IPropertyNotifySinkCP@VCOPOSCAT@@VCComDynamicUnkArray@ATL@@@1@@ 0000000180029368     CAT.obj
 0002:000023a8       ??_7?$CComObject@VCOPOSCAT@@@ATL@@6B?$CProxy_IOPOSEvents@VCOPOSCAT@@@@@ 00000001800293a8     CAT.obj
 0002:000023e8       ??_C@_1O@GBFKGNEO@?$AAA?$AAT?$AAL?$AA?3?$AA?$CF?$AAp@ 00000001800293e8     CAT.obj
 0002:000023f8       ??_C@_1BA@PICGEGJB@?$AAD?$AAI?$AAS?$AAP?$AAL?$AAA?$AAY@ 00000001800293f8     CAT.obj
 0002:00002408       _GUID_b196b284_bab4_101a_b69c_00aa00341d07 0000000180029408     CAT.obj
 0002:00002418       _GUID_9bfbbc02_eff1_101a_84ed_00aa00341d07 0000000180029418     CAT.obj
 0002:00002428       ?_entries@?1??_GetEntries@?$CComEnum@UIEnumConnectionPoints@@$1?_GUID_b196b285_bab4_101a_b69c_00aa00341d07@@3U__s_GUID@@BPEAUIConnectionPoint@@V?$_CopyInterface@UIConnectionPoint@@@ATL@@VCComSingleThreadModel@6@@ATL@@SAPEBU_ATL_INTMAP_ENTRY@3@XZ@4QBU43@B 0000000180029428     CAT.obj
 0002:00002458       _GUID_00020412_0000_0000_c000_000000000046 0000000180029458     CAT.obj
 0002:00002468       _GUID_00020401_0000_0000_c000_000000000046 0000000180029468     CAT.obj
 0002:00002478       ??_C@_0BG@EKFFMJIO@RegOpenKeyTransactedW@ 0000000180029478     CAT.obj
 0002:00002490       ??_C@_0BI@HAKLOOGP@RegDeleteKeyTransactedW@ 0000000180029490     CAT.obj
 0002:000024a8       ??_C@_0BA@LILAPHGE@RegDeleteKeyExW@ 00000001800294a8     CAT.obj
 0002:000024b8       ??_C@_19ILOCMLCJ@?$AA?4?$AAt?$AAl?$AAb@ 00000001800294b8     CAT.obj
 0002:000024c8       _GUID_0002e012_0000_0000_c000_000000000046 00000001800294c8     CAT.obj
 0002:000024d8       ??_C@_1O@FHBGLCIO@?$AAC?$AAL?$AAS?$AAI?$AAD?$AA?2@ 00000001800294d8     CAT.obj
 0002:000024e8       ??_C@_1CK@IFBKBFAA@?$AA?2?$AAR?$AAe?$AAq?$AAu?$AAi?$AAr?$AAe?$AAd?$AA?5?$AAC?$AAa?$AAt?$AAe?$AAg@ 00000001800294e8     CAT.obj
 0002:00002518       ??_C@_1DA@BIHALFED@?$AA?2?$AAI?$AAm?$AAp?$AAl?$AAe?$AAm?$AAe?$AAn?$AAt?$AAe?$AAd?$AA?5?$AAC?$AAa@ 0000000180029518     CAT.obj
 0002:00002548       ??_C@_1BK@EDKOLFBJ@?$AAO?$AAL?$AAE?$AAA?$AAU?$AAT?$AA3?$AA2?$AA?4?$AAD?$AAL?$AAL@ 0000000180029548     CAT.obj
 0002:00002568       ??_C@_0BJ@CNLFOMHB@UnRegisterTypeLibForUser@ 0000000180029568     CAT.obj
 0002:00002588       ??_C@_0BH@LBOMMKPJ@RegisterTypeLibForUser@ 0000000180029588     CAT.obj
 0002:000025a0       ??_C@_0P@MMNMMLGK@COFreezeEvents@ 00000001800295a0     CATImpl.obj
 0002:000025b0       ??_C@_0BC@OGCGGIMP@GetPropertyNumber@ 00000001800295b0     CATImpl.obj
 0002:000025c8       ??_C@_0BC@MDCNODNB@SetPropertyNumber@ 00000001800295c8     CATImpl.obj
 0002:000025e0       ??_C@_0BC@CFCCMIMD@GetPropertyString@ 00000001800295e0     CATImpl.obj
 0002:000025f8       ??_C@_0BC@CJEDNN@SetPropertyString@ 00000001800295f8     CATImpl.obj
 0002:00002610       ??_C@_0M@LNPKKKDA@OpenService@ 0000000180029610     CATImpl.obj
 0002:00002620       ??_C@_0M@PCMCHHMH@CheckHealth@ 0000000180029620     CATImpl.obj
 0002:00002630       ??_C@_0M@JGMIDNEK@ClaimDevice@ 0000000180029630     CATImpl.obj
 0002:00002640       ??_C@_0M@JMBCPNGJ@ClearOutput@ 0000000180029640     CATImpl.obj
 0002:00002650       ??_C@_0N@DDFIIBMP@CloseService@ 0000000180029650     CATImpl.obj
 0002:00002660       ??_C@_08EEIHICPC@DirectIO@ 0000000180029660     CATImpl.obj
 0002:00002670       ??_C@_0O@BCPMENMJ@ReleaseDevice@ 0000000180029670     CATImpl.obj
 0002:00002680       ??_C@_0P@GAPGHBOB@AccessDailyLog@ 0000000180029680     CATImpl.obj
 0002:00002690       ??_C@_0BE@DCPICDJJ@AuthorizeCompletion@ 0000000180029690     CATImpl.obj
 0002:000026a8       ??_C@_0BC@BFIHDIME@AuthorizePreSales@ 00000001800296a8     CATImpl.obj
 0002:000026c0       ??_C@_0BA@MIHOKOFD@AuthorizeRefund@ 00000001800296c0     CATImpl.obj
 0002:000026d0       ??_C@_0P@FBALCMBO@AuthorizeSales@ 00000001800296d0     CATImpl.obj
 0002:000026e0       ??_C@_0O@CLMPAPFO@AuthorizeVoid@ 00000001800296e0     CATImpl.obj
 0002:000026f0       ??_C@_0BG@LAFENIFB@AuthorizeVoidPreSales@ 00000001800296f0     CATImpl.obj
 0002:00002708       ??_C@_09EAIKPMK@CheckCard@ 0000000180029708     CATImpl.obj
 0002:00002718       ??_C@_0BA@GFABKEEE@ResetStatistics@ 0000000180029718     CATImpl.obj
 0002:00002728       ??_C@_0BD@DPALHJGC@RetrieveStatistics@ 0000000180029728     CATImpl.obj
 0002:00002740       ??_C@_0BB@KOHIKNFC@UpdateStatistics@ 0000000180029740     CATImpl.obj
 0002:00002758       ??_C@_0BH@PBKBNMGB@CompareFirmwareVersion@ 0000000180029758     CATImpl.obj
 0002:00002770       ??_C@_0P@FBPDPIPA@UpdateFirmware@ 0000000180029770     CATImpl.obj
 0002:00002780       ??_C@_0L@OFHFGGCE@GetBalance@ 0000000180029780     CATImpl.obj
 0002:00002790       ??_C@_0BB@DEPMOCKF@GetSettledAmount@ 0000000180029790     CATImpl.obj
 0002:000027a8       ??_C@_0M@LJIOAJGI@CashDeposit@ 00000001800297a8     CATImpl.obj
 0002:000027b8       ??_C@_0N@NKOFBOHJ@LockTerminal@ 00000001800297b8     CATImpl.obj
 0002:000027c8       ??_C@_0P@ELGEJAPJ@UnlockTerminal@ 00000001800297c8     CATImpl.obj
 0002:000027d8       ??_7?$CProxy_IOPOSEvents@VCOPOSCAT@@@@6B@ 00000001800297d8     CATImpl.obj
 0002:00002818       ??_C@_1BA@IFHENID@?$AA?$FL?$AAE?$AAr?$AAr?$AAo?$AAr?$AA?$FN@ 0000000180029818     CATImpl.obj
 0002:00002828       ??_C@_0CG@FIJDADJE@SOFTWARE?2OLEforRetail?2ServiceOP@ 0000000180029828     CATImpl.obj
 0002:00002850       ??_C@_1M@IAIJHCCH@?$AAC?$AAl?$AAo?$AAs?$AAe@ 0000000180029850     CATImpl.obj
 0002:00002860       ??_C@_1M@PCPKGJAH@?$AAC?$AAl?$AAa?$AAi?$AAm@ 0000000180029860     CATImpl.obj
 0002:00002870       ??_C@_1BA@NDFKIOCP@?$AAR?$AAe?$AAl?$AAe?$AAa?$AAs?$AAe@ 0000000180029870     CATImpl.obj
 0002:00002880       ??_C@_03PIJFKIJH@CAT@      0000000180029880     CATImpl.obj
 0002:00002888       ??_C@_1BM@IJMNMBPK@?$AAG?$AAe?$AAt?$AAO?$AAp?$AAe?$AAn?$AAR?$AAe?$AAs?$AAu?$AAl?$AAt@ 0000000180029888     CATImpl.obj
 0002:000028a8       IID_IDispatch              00000001800298a8     uuid:oaidl_i.obj
 0002:000028b8       IID_IPropertyNotifySink    00000001800298b8     uuid:ocidl_i.obj
 0002:000028c8       GUID_NULL                  00000001800298c8     uuid:cguid_i.obj
 0002:000028d8       CLSID_StdGlobalInterfaceTable 00000001800298d8     uuid:cguid_i.obj
 0002:000028e8       CLSID_StdComponentCategoriesMgr 00000001800298e8     uuid:ieguids.obj
 0002:000028f8       IID_IUnknown               00000001800298f8     uuid:unknwn_i.obj
 0002:00002910       __xmm@ffffffffffffffffffffffffffffffff 0000000180029910     LIBCMT:utility.obj
 0002:00002920       ??_C@_1EC@JIJBPKFM@?$AAa?$AAp?$AAi?$AA?9?$AAm?$AAs?$AA?9?$AAw?$AAi?$AAn?$AA?9?$AAc?$AAo?$AAr?$AAe@ 0000000180029920     LIBCMT:thread_safe_statics.obj
 0002:00002968       ??_C@_1BK@MGMFAEKH@?$AAk?$AAe?$AAr?$AAn?$AAe?$AAl?$AA3?$AA2?$AA?4?$AAd?$AAl?$AAl@ 0000000180029968     LIBCMT:thread_safe_statics.obj
 0002:00002988       ??_C@_0BJ@JEBJOJFJ@SleepConditionVariableCS@ 0000000180029988     LIBCMT:thread_safe_statics.obj
 0002:000029a8       ??_C@_0BJ@PGPPEPCC@WakeAllConditionVariable@ 00000001800299a8     LIBCMT:thread_safe_statics.obj
 0002:000029c1       ?nothrow@std@@3Unothrow_t@1@B 00000001800299c1     LIBCMT:std_nothrow.obj
 0002:000029d8       _pRawDllMain               00000001800299d8     LIBCMT:dll_dllmain.obj
 0002:000029d8       _pDefaultRawDllMain        00000001800299d8     LIBCMT:dll_dllmain.obj
 0002:000029e8       ??_7exception@std@@6B@     00000001800299e8     LIBCMT:throw_bad_alloc.obj
 0002:000029f8       ??_C@_0BC@EOODALEL@Unknown?5exception@ 00000001800299f8     LIBCMT:throw_bad_alloc.obj
 0002:00002a18       ??_7bad_alloc@std@@6B@     0000000180029a18     LIBCMT:throw_bad_alloc.obj
 0002:00002a28       ??_C@_0P@GHFPNOJB@bad?5allocation@ 0000000180029a28     LIBCMT:throw_bad_alloc.obj
 0002:00002a40       ??_7bad_array_new_length@std@@6B@ 0000000180029a40     LIBCMT:throw_bad_alloc.obj
 0002:00002a50       ??_C@_0BF@KINCDENJ@bad?5array?5new?5length@ 0000000180029a50     LIBCMT:throw_bad_alloc.obj
 0002:00002a70       ??_7type_info@@6B@         0000000180029a70     LIBCMT:std_type_info_static.obj
 0002:00002a78       GUID_ATLVer110             0000000180029a78     atls:atlbase.obj
 0002:00002a90       ??_C@_1IC@ONKHOIDK@?$AAE?$AAR?$AAR?$AAO?$AAR?$AA?5?$AA?3?$AA?5?$AAU?$AAn?$AAa?$AAb?$AAl?$AAe?$AA?5@ 0000000180029a90     atls:atlbase.obj
 0002:00002b18       ??_C@_0N@FJEPLCIH@atlthunk?4dll@ 0000000180029b18     atls:atlthunk.obj
 0002:00002b28       ??_C@_0BG@GAKFHCBM@AtlThunk_AllocateData@ 0000000180029b28     atls:atlthunk.obj
 0002:00002b40       ??_C@_0BC@JKONFIAH@AtlThunk_InitData@ 0000000180029b40     atls:atlthunk.obj
 0002:00002b58       ??_C@_0BE@IAOEELAK@AtlThunk_DataToCode@ 0000000180029b58     atls:atlthunk.obj
 0002:00002b70       ??_C@_0BC@GBGKAIPI@AtlThunk_FreeData@ 0000000180029b70     atls:atlthunk.obj
 0002:00002b88       ?s_negLengthTab@FH4@@3QBCB 0000000180029b88     libvcruntime:risctrnsctrl.obj
 0002:00002b98       ?s_shiftTab@FH4@@3QBEB     0000000180029b98     libvcruntime:risctrnsctrl.obj
 0002:00002ce8       _pDestructExceptionObject  0000000180029ce8     libvcruntime:ehhelpers.obj
 0002:00002cf8       ??_7bad_exception@std@@6B@ 0000000180029cf8     libvcruntime:frame.obj
 0002:00002d08       ??_C@_0O@DPKOEFFH@bad?5exception@ 0000000180029d08     libvcruntime:frame.obj
 0002:00003430       ??_C@_08EHJDFFNH@__based?$CI@ 000000018002a430     libvcruntime:undname.obj
 0002:00003440       ??_C@_07KOLFKCDI@__cdecl@  000000018002a440     libvcruntime:undname.obj
 0002:00003448       ??_C@_08GHMPAG@__pascal@   000000018002a448     libvcruntime:undname.obj
 0002:00003458       ??_C@_09IFJBGAPI@__stdcall@ 000000018002a458     libvcruntime:undname.obj
 0002:00003468       ??_C@_0L@NPHFGOKO@__thiscall@ 000000018002a468     libvcruntime:undname.obj
 0002:00003478       ??_C@_0L@JMKHOMEK@__fastcall@ 000000018002a478     libvcruntime:undname.obj
 0002:00003488       ??_C@_0N@BCKKPABJ@__vectorcall@ 000000018002a488     libvcruntime:undname.obj
 0002:00003498       ??_C@_09HIJEGCPM@__clrcall@ 000000018002a498     libvcruntime:undname.obj
 0002:000034a4       ??_C@_06GHPCKEAG@__eabi@   000000018002a4a4     libvcruntime:undname.obj
 0002:000034b0       ??_C@_09IOPIDJLG@__swift_1@ 000000018002a4b0     libvcruntime:undname.obj
 0002:000034c0       ??_C@_09KFNFGKHF@__swift_2@ 000000018002a4c0     libvcruntime:undname.obj
 0002:000034d0       ??_C@_09LMMOFLDE@__swift_3@ 000000018002a4d0     libvcruntime:undname.obj
 0002:000034e0       ??_C@_07JOMMBBKO@__ptr64@  000000018002a4e0     libvcruntime:undname.obj
 0002:000034e8       ??_C@_0L@PILCLIHE@__restrict@ 000000018002a4e8     libvcruntime:undname.obj
 0002:000034f8       ??_C@_0M@GFIIJFMG@__unaligned@ 000000018002a4f8     libvcruntime:undname.obj
 0002:00003508       ??_C@_09DHDLOLLB@restrict?$CI@ 000000018002a508     libvcruntime:undname.obj
 0002:00003512       ??_C@_00CNPNBAHC@@         000000018002a512     libvcruntime:undname.obj
 0002:00003514       ??_C@_04NIHEBCM@?5new@     000000018002a514     libvcruntime:undname.obj
 0002:00003520       ??_C@_07FPCDHGMM@?5delete@ 000000018002a520     libvcruntime:undname.obj
 0002:00003528       ??_C@_01NEMOKFLO@?$DN@     000000018002a528     libvcruntime:undname.obj
 0002:0000352c       ??_C@_02GPIOPFAK@?$DO?$DO@ 000000018002a52c     libvcruntime:undname.obj
 0002:00003530       ??_C@_02FODMEDOG@?$DM?$DM@ 000000018002a530     libvcruntime:undname.obj
 0002:00003534       ??_C@_01DCLJPIOD@?$CB@     000000018002a534     libvcruntime:undname.obj
 0002:00003538       ??_C@_02EGOFBIJA@?$DN?$DN@ 000000018002a538     libvcruntime:undname.obj
 0002:0000353c       ??_C@_02FDNJECIE@?$CB?$DN@ 000000018002a53c     libvcruntime:undname.obj
 0002:00003540       ??_C@_02GPECMEKF@?$FL?$FN@ 000000018002a540     libvcruntime:undname.obj
 0002:00003548       ??_C@_08LHJFAFGD@operator@ 000000018002a548     libvcruntime:undname.obj
 0002:00003554       ??_C@_02HBOOOICD@?9?$DO@   000000018002a554     libvcruntime:undname.obj
 0002:00003558       ??_C@_01NBENCBCI@?$CK@     000000018002a558     libvcruntime:undname.obj
 0002:0000355c       ??_C@_02ECNGHCIF@?$CL?$CL@ 000000018002a55c     libvcruntime:undname.obj
 0002:00003560       ??_C@_02BAABKJLB@?9?9@     000000018002a560     libvcruntime:undname.obj
 0002:00003564       ??_C@_01JOAMLHOP@?9@       000000018002a564     libvcruntime:undname.obj
 0002:00003568       ??_C@_01MIFGBAGJ@?$CL@     000000018002a568     libvcruntime:undname.obj
 0002:0000356c       ??_C@_01HNPIGOCE@?$CG@     000000018002a56c     libvcruntime:undname.obj
 0002:00003570       ??_C@_03MNHNFDLC@?9?$DO?$CK@ 000000018002a570     libvcruntime:undname.obj
 0002:00003574       ??_C@_01KMDKNFGN@?1@       000000018002a574     libvcruntime:undname.obj
 0002:00003578       ??_C@_01FGNFDNOH@?$CF@     000000018002a578     libvcruntime:undname.obj
 0002:0000357c       ??_C@_01MNNFJEPP@?$DM@     000000018002a57c     libvcruntime:undname.obj
 0002:00003580       ??_C@_02EHCHHCKH@?$DM?$DN@ 000000018002a580     libvcruntime:undname.obj
 0002:00003584       ??_C@_01PPODPGHN@?$DO@     000000018002a584     libvcruntime:undname.obj
 0002:00003588       ??_C@_02EEKDKGMJ@?$DO?$DN@ 000000018002a588     libvcruntime:undname.obj
 0002:0000358c       ??_C@_01IHBHIGKO@?0@       000000018002a58c     libvcruntime:undname.obj
 0002:00003590       ??_C@_02HCKGKOFO@?$CI?$CJ@ 000000018002a590     libvcruntime:undname.obj
 0002:00003594       ??_C@_01PJKLJHI@?$HO@      000000018002a594     libvcruntime:undname.obj
 0002:00003598       ??_C@_01JKBOJNNK@?$FO@     000000018002a598     libvcruntime:undname.obj
 0002:0000359c       ??_C@_01DNKMNLPK@?$HM@     000000018002a59c     libvcruntime:undname.obj
 0002:000035a0       ??_C@_02PPKAJPJL@?$CG?$CG@ 000000018002a5a0     libvcruntime:undname.obj
 0002:000035a4       ??_C@_02NONPIBCD@?$HM?$HM@ 000000018002a5a4     libvcruntime:undname.obj
 0002:000035a8       ??_C@_02FPIMKNGF@?$CK?$DN@ 000000018002a5a8     libvcruntime:undname.obj
 0002:000035ac       ??_C@_02FOEOMHFC@?$CL?$DN@ 000000018002a5ac     libvcruntime:undname.obj
 0002:000035b0       ??_C@_02FKMDLLOA@?9?$DN@   000000018002a5b0     libvcruntime:undname.obj
 0002:000035b4       ??_C@_02FJEHGPIO@?1?$DN@   000000018002a5b4     libvcruntime:undname.obj
 0002:000035b8       ??_C@_02FENAOKFI@?$CF?$DN@ 000000018002a5b8     libvcruntime:undname.obj
 0002:000035bc       ??_C@_03IKFCCPFF@?$DO?$DO?$DN@ 000000018002a5bc     libvcruntime:undname.obj
 0002:000035c0       ??_C@_03CDNPDDLA@?$DM?$DM?$DN@ 000000018002a5c0     libvcruntime:undname.obj
 0002:000035c4       ??_C@_02FGJGFEAB@?$CG?$DN@ 000000018002a5c4     libvcruntime:undname.obj
 0002:000035c8       ??_C@_02DHLNPPGH@?$HM?$DN@ 000000018002a5c8     libvcruntime:undname.obj
 0002:000035cc       ??_C@_02MHEGNOJ@?$FO?$DN@  000000018002a5cc     libvcruntime:undname.obj
 0002:000035d0       ??_C@_09IFPLHPGF@?$GAvftable?8@ 000000018002a5d0     libvcruntime:undname.obj
 0002:000035e0       ??_C@_09BLBHBJP@?$GAvbtable?8@ 000000018002a5e0     libvcruntime:undname.obj
 0002:000035f0       ??_C@_07FEEIOKP@?$GAvcall?8@ 000000018002a5f0     libvcruntime:undname.obj
 0002:000035f8       ??_C@_08LLFFHHDJ@?$GAtypeof?8@ 000000018002a5f8     libvcruntime:undname.obj
 0002:00003608       ??_C@_0BF@KDPPACIK@?$GAlocal?5static?5guard?8@ 000000018002a608     libvcruntime:undname.obj
 0002:00003620       ??_C@_08OBABFOLI@?$GAstring?8@ 000000018002a620     libvcruntime:undname.obj
 0002:00003630       ??_C@_0BD@JDLKDPAB@?$GAvbase?5destructor?8@ 000000018002a630     libvcruntime:undname.obj
 0002:00003648       ??_C@_0BN@DEGPLNFK@?$GAvector?5deleting?5destructor?8@ 000000018002a648     libvcruntime:undname.obj
 0002:00003668       ??_C@_0BO@OBMKPJIG@?$GAdefault?5constructor?5closure?8@ 000000018002a668     libvcruntime:undname.obj
 0002:00003688       ??_C@_0BN@IMDCHIKM@?$GAscalar?5deleting?5destructor?8@ 000000018002a688     libvcruntime:undname.obj
 0002:000036a8       ??_C@_0BO@PFGOCPJJ@?$GAvector?5constructor?5iterator?8@ 000000018002a6a8     libvcruntime:undname.obj
 0002:000036c8       ??_C@_0BN@LFPFMEDL@?$GAvector?5destructor?5iterator?8@ 000000018002a6c8     libvcruntime:undname.obj
 0002:000036e8       ??_C@_0CE@IKBNEHA@?$GAvector?5vbase?5constructor?5itera@ 000000018002a6e8     libvcruntime:undname.obj
 0002:00003710       ??_C@_0BL@NILFHHPC@?$GAvirtual?5displacement?5map?8@ 000000018002a710     libvcruntime:undname.obj
 0002:00003730       ??_C@_0CB@JONCMFFK@?$GAeh?5vector?5constructor?5iterator@ 000000018002a730     libvcruntime:undname.obj
 0002:00003758       ??_C@_0CA@GCEOPDGL@?$GAeh?5vector?5destructor?5iterator?8@ 000000018002a758     libvcruntime:undname.obj
 0002:00003778       ??_C@_0CH@OOJPLCPH@?$GAeh?5vector?5vbase?5constructor?5it@ 000000018002a778     libvcruntime:undname.obj
 0002:000037a0       ??_C@_0BL@LLKPOHJI@?$GAcopy?5constructor?5closure?8@ 000000018002a7a0     libvcruntime:undname.obj
 0002:000037c0       ??_C@_0BA@KBCDOMBN@?$GAudt?5returning?8@ 000000018002a7c0     libvcruntime:undname.obj
 0002:000037d0       ??_C@_03KLGMFNMG@?$GAEH@   000000018002a7d0     libvcruntime:undname.obj
 0002:000037d4       ??_C@_05KHLCHHI@?$GARTTI@  000000018002a7d4     libvcruntime:undname.obj
 0002:000037e0       ??_C@_0BA@KKLDJDLB@?$GAlocal?5vftable?8@ 000000018002a7e0     libvcruntime:undname.obj
 0002:000037f0       ??_C@_0CE@IIHCMGGL@?$GAlocal?5vftable?5constructor?5clos@ 000000018002a7f0     libvcruntime:undname.obj
 0002:00003814       ??_C@_06FHBGPFGH@?5new?$FL?$FN@ 000000018002a814     libvcruntime:undname.obj
 0002:00003820       ??_C@_09LBNFPBCA@?5delete?$FL?$FN@ 000000018002a820     libvcruntime:undname.obj
 0002:00003830       ??_C@_0P@HJKNJFNN@?$GAomni?5callsig?8@ 000000018002a830     libvcruntime:undname.obj
 0002:00003840       ??_C@_0BL@CNOONJFP@?$GAplacement?5delete?5closure?8@ 000000018002a840     libvcruntime:undname.obj
 0002:00003860       ??_C@_0BN@CKNJLHMB@?$GAplacement?5delete?$FL?$FN?5closure?8@ 000000018002a860     libvcruntime:undname.obj
 0002:00003880       ??_C@_0CG@CFDHKGGD@?$GAmanaged?5vector?5constructor?5ite@ 000000018002a880     libvcruntime:undname.obj
 0002:000038a8       ??_C@_0CF@IMGKMJNO@?$GAmanaged?5vector?5destructor?5iter@ 000000018002a8a8     libvcruntime:undname.obj
 0002:000038d0       ??_C@_0CG@HLDDJMAG@?$GAeh?5vector?5copy?5constructor?5ite@ 000000018002a8d0     libvcruntime:undname.obj
 0002:000038f8       ??_C@_0CM@FCBBDIGB@?$GAeh?5vector?5vbase?5copy?5construct@ 000000018002a8f8     libvcruntime:undname.obj
 0002:00003928       ??_C@_0BL@CLIPGLGB@?$GAdynamic?5initializer?5for?5?8@ 000000018002a928     libvcruntime:undname.obj
 0002:00003948       ??_C@_0CB@PDBIFEP@?$GAdynamic?5atexit?5destructor?5for?5@ 000000018002a948     libvcruntime:undname.obj
 0002:00003970       ??_C@_0CD@CGAJBKEJ@?$GAvector?5copy?5constructor?5iterat@ 000000018002a970     libvcruntime:undname.obj
 0002:00003998       ??_C@_0CJ@GJELGAMM@?$GAvector?5vbase?5copy?5constructor?5@ 000000018002a998     libvcruntime:undname.obj
 0002:000039c8       ??_C@_0CL@FGIJHLCE@?$GAmanaged?5vector?5copy?5constructo@ 000000018002a9c8     libvcruntime:undname.obj
 0002:000039f8       ??_C@_0BM@PMGGMLDN@?$GAlocal?5static?5thread?5guard?8@ 000000018002a9f8     libvcruntime:undname.obj
 0002:00003a18       ??_C@_0N@BDNMDMOL@operator?5?$CC?$CC?5@ 000000018002aa18     libvcruntime:undname.obj
 0002:00003a28       ??_C@_0BC@GGEBGALA@operator?5co_await@ 000000018002aa28     libvcruntime:undname.obj
 0002:00003a40       ??_C@_0M@GAAIMMOH@operator?$DM?$DN?$DO@ 000000018002aa40     libvcruntime:undname.obj
 0002:00003a50       ??_C@_0BC@DAFEJGAK@?5Type?5Descriptor?8@ 000000018002aa50     libvcruntime:undname.obj
 0002:00003a68       ??_C@_0BM@LDKODKLH@?5Base?5Class?5Descriptor?5at?5?$CI@ 000000018002aa68     libvcruntime:undname.obj
 0002:00003a88       ??_C@_0BD@LGICGFMM@?5Base?5Class?5Array?8@ 000000018002aa88     libvcruntime:undname.obj
 0002:00003aa0       ??_C@_0BN@MECKDCOJ@?5Class?5Hierarchy?5Descriptor?8@ 000000018002aaa0     libvcruntime:undname.obj
 0002:00003ac0       ??_C@_0BK@CFCOFLF@?5Complete?5Object?5Locator?8@ 000000018002aac0     libvcruntime:undname.obj
 0002:00003ae0       ??_C@_0BG@JNJLAMPM@?$GAanonymous?5namespace?8@ 000000018002aae0     libvcruntime:undname.obj
 0002:00003b10       ??_C@_1DM@KHCHBNEB@?$AAa?$AAp?$AAi?$AA?9?$AAm?$AAs?$AA?9?$AAw?$AAi?$AAn?$AA?9?$AAc?$AAo?$AAr?$AAe@ 000000018002ab10     libvcruntime:winapi_downlevel.obj
 0002:00003b50       ??_C@_1DK@LPPGFMPP@?$AAa?$AAp?$AAi?$AA?9?$AAm?$AAs?$AA?9?$AAw?$AAi?$AAn?$AA?9?$AAc?$AAo?$AAr?$AAe@ 000000018002ab50     libvcruntime:winapi_downlevel.obj
 0002:00003b90       ??_C@_1BC@GDMECMAK@?$AAk?$AAe?$AAr?$AAn?$AAe?$AAl?$AA3?$AA2@ 000000018002ab90     libvcruntime:winapi_downlevel.obj
 0002:00003ba8       ??_C@_1BA@PFFKHIOG@?$AAa?$AAp?$AAi?$AA?9?$AAm?$AAs?$AA?9@ 000000018002aba8     libvcruntime:winapi_downlevel.obj
 0002:00003bc0       ??_C@_08KNHFBNJ@FlsAlloc@  000000018002abc0     libvcruntime:winapi_downlevel.obj
 0002:00003bd8       ??_C@_07PEJMOBNF@FlsFree@  000000018002abd8     libvcruntime:winapi_downlevel.obj
 0002:00003be8       ??_C@_0M@GDNOONDI@FlsGetValue@ 000000018002abe8     libvcruntime:winapi_downlevel.obj
 0002:00003c00       ??_C@_0M@JCPCPOEF@FlsSetValue@ 000000018002ac00     libvcruntime:winapi_downlevel.obj
 0002:00003c18       ??_C@_0BM@HCFOFFN@InitializeCriticalSectionEx@ 000000018002ac18     libvcruntime:winapi_downlevel.obj
 0002:00003db0       ?format_validation_lookup_table_spectre@__crt_stdio_output@@3V?$spectre_mitigated_lookup_table@Ustate_transition_pair@__crt_stdio_output@@$0IA@@1@B 000000018002adb0     libucrt:output.obj
 0002:00003eb0       ??_C@_1O@CEDCILHN@?$AA?$CI?$AAn?$AAu?$AAl?$AAl?$AA?$CJ@ 000000018002aeb0     libucrt:output.obj
 0002:00003ec0       ??_C@_06OJHGLDPL@?$CInull?$CJ@ 000000018002aec0     libucrt:output.obj
 0002:00003ed0       __acrt_exception_action_table 000000018002aed0     libucrt:exception_filter.obj
 0002:00003f90       __acrt_signal_action_table_count 000000018002af90     libucrt:exception_filter.obj
 0002:00003f98       __acrt_signal_action_first_fpe_index 000000018002af98     libucrt:exception_filter.obj
 0002:00003fa0       __acrt_signal_action_fpe_count 000000018002afa0     libucrt:exception_filter.obj
 0002:00003ff8       ??_C@_1BI@BGOHAHKC@?$AAm?$AAs?$AAc?$AAo?$AAr?$AAe?$AAe?$AA?4?$AAd?$AAl?$AAl@ 000000018002aff8     libucrt:exit.obj
 0002:00004010       ??_C@_0P@MIGLKIOC@CorExitProcess@ 000000018002b010     libucrt:exit.obj
 0002:00004170       __lc_time_c                000000018002b170     libucrt:nlsdata.obj
 0002:00004430       ??_C@_03KOEHGMDN@Sun@      000000018002b430     libucrt:nlsdata.obj
 0002:00004434       ??_C@_03PDAGKDH@Mon@       000000018002b434     libucrt:nlsdata.obj
 0002:00004438       ??_C@_03NAGEINEP@Tue@      000000018002b438     libucrt:nlsdata.obj
 0002:0000443c       ??_C@_03MHOMLAJA@Wed@      000000018002b43c     libucrt:nlsdata.obj
 0002:00004440       ??_C@_03IOFIKPDN@Thu@      000000018002b440     libucrt:nlsdata.obj
 0002:00004444       ??_C@_03IDIOELNC@Fri@      000000018002b444     libucrt:nlsdata.obj
 0002:00004448       ??_C@_03FEFJNEK@Sat@       000000018002b448     libucrt:nlsdata.obj
 0002:0000444c       ??_C@_06OOPIFAJ@Sunday@    000000018002b44c     libucrt:nlsdata.obj
 0002:00004454       ??_C@_06JLEDEDGH@Monday@   000000018002b454     libucrt:nlsdata.obj
 0002:00004460       ??_C@_07BAAGCFCM@Tuesday@  000000018002b460     libucrt:nlsdata.obj
 0002:00004468       ??_C@_09DLIGFAKA@Wednesday@ 000000018002b468     libucrt:nlsdata.obj
 0002:00004478       ??_C@_08HACCIKIA@Thursday@ 000000018002b478     libucrt:nlsdata.obj
 0002:00004484       ??_C@_06JECMNKMI@Friday@   000000018002b484     libucrt:nlsdata.obj
 0002:00004490       ??_C@_08INBOOONO@Saturday@ 000000018002b490     libucrt:nlsdata.obj
 0002:0000449c       ??_C@_03JIHJHPIE@Jan@      000000018002b49c     libucrt:nlsdata.obj
 0002:000044a0       ??_C@_03HJBDCHOM@Feb@      000000018002b4a0     libucrt:nlsdata.obj
 0002:000044a4       ??_C@_03ODNJBKGA@Mar@      000000018002b4a4     libucrt:nlsdata.obj
 0002:000044a8       ??_C@_03LEOLGMJP@Apr@      000000018002b4a8     libucrt:nlsdata.obj
 0002:000044ac       ??_C@_03CNMDKL@May@        000000018002b4ac     libucrt:nlsdata.obj
 0002:000044b0       ??_C@_03IDFGHECI@Jun@      000000018002b4b0     libucrt:nlsdata.obj
 0002:000044b4       ??_C@_03LBGABGKK@Jul@      000000018002b4b4     libucrt:nlsdata.obj
 0002:000044b8       ??_C@_03IFJFEIGA@Aug@      000000018002b4b8     libucrt:nlsdata.obj
 0002:000044bc       ??_C@_03GGCAPAJC@Sep@      000000018002b4bc     libucrt:nlsdata.obj
 0002:000044c0       ??_C@_03BMAOKBAD@Oct@      000000018002b4c0     libucrt:nlsdata.obj
 0002:000044c4       ??_C@_03JPJOFNIA@Nov@      000000018002b4c4     libucrt:nlsdata.obj
 0002:000044c8       ??_C@_03MKABNOCG@Dec@      000000018002b4c8     libucrt:nlsdata.obj
 0002:000044d0       ??_C@_07CGJPFGJA@January@  000000018002b4d0     libucrt:nlsdata.obj
 0002:000044d8       ??_C@_08GNJGEPFN@February@ 000000018002b4d8     libucrt:nlsdata.obj
 0002:000044e4       ??_C@_05HPCKOFNC@March@    000000018002b4e4     libucrt:nlsdata.obj
 0002:000044ec       ??_C@_05DMJDNLEJ@April@    000000018002b4ec     libucrt:nlsdata.obj
 0002:000044f4       ??_C@_04CNLMGBGM@June@     000000018002b4f4     libucrt:nlsdata.obj
 0002:000044fc       ??_C@_04MIEPOIFP@July@     000000018002b4fc     libucrt:nlsdata.obj
 0002:00004504       ??_C@_06LBBHFDDG@August@   000000018002b504     libucrt:nlsdata.obj
 0002:00004510       ??_C@_09BHHEALKD@September@ 000000018002b510     libucrt:nlsdata.obj
 0002:00004520       ??_C@_07JJNFCEND@October@  000000018002b520     libucrt:nlsdata.obj
 0002:00004528       ??_C@_08HCHEGEOA@November@ 000000018002b528     libucrt:nlsdata.obj
 0002:00004538       ??_C@_08EDHMEBNP@December@ 000000018002b538     libucrt:nlsdata.obj
 0002:00004544       ??_C@_02DEDBPAFC@AM@       000000018002b544     libucrt:nlsdata.obj
 0002:00004548       ??_C@_02CJNFDJBF@PM@       000000018002b548     libucrt:nlsdata.obj
 0002:00004550       ??_C@_08BPBNCDIB@MM?1dd?1yy@ 000000018002b550     libucrt:nlsdata.obj
 0002:00004560       ??_C@_0BE@CKGJFCPC@dddd?0?5MMMM?5dd?0?5yyyy@ 000000018002b560     libucrt:nlsdata.obj
 0002:00004578       ??_C@_08JCCMCCIL@HH?3mm?3ss@ 000000018002b578     libucrt:nlsdata.obj
 0002:00004588       ??_C@_17MBGCMIPB@?$AAS?$AAu?$AAn@ 000000018002b588     libucrt:nlsdata.obj
 0002:00004590       ??_C@_17KBOMKBF@?$AAM?$AAo?$AAn@ 000000018002b590     libucrt:nlsdata.obj
 0002:00004598       ??_C@_17BMKGEGOJ@?$AAT?$AAu?$AAe@ 000000018002b598     libucrt:nlsdata.obj
 0002:000045a0       ??_C@_17CJEDCEPE@?$AAW?$AAe?$AAd@ 000000018002b5a0     libucrt:nlsdata.obj
 0002:000045a8       ??_C@_17PDPHAADD@?$AAT?$AAh?$AAu@ 000000018002b5a8     libucrt:nlsdata.obj
 0002:000045b0       ??_C@_17HFOLPPLP@?$AAF?$AAr?$AAi@ 000000018002b5b0     libucrt:nlsdata.obj
 0002:000045b8       ??_C@_17GGIBDPIH@?$AAS?$AAa?$AAt@ 000000018002b5b8     libucrt:nlsdata.obj
 0002:000045c0       ??_C@_1O@IHNHDHPB@?$AAS?$AAu?$AAn?$AAd?$AAa?$AAy@ 000000018002b5c0     libucrt:nlsdata.obj
 0002:000045d0       ??_C@_1O@MMNBFLIA@?$AAM?$AAo?$AAn?$AAd?$AAa?$AAy@ 000000018002b5d0     libucrt:nlsdata.obj
 0002:000045e0       ??_C@_1BA@ENFBFFEK@?$AAT?$AAu?$AAe?$AAs?$AAd?$AAa?$AAy@ 000000018002b5e0     libucrt:nlsdata.obj
 0002:000045f0       ??_C@_1BE@EBOGMDOH@?$AAW?$AAe?$AAd?$AAn?$AAe?$AAs?$AAd?$AAa?$AAy@ 000000018002b5f0     libucrt:nlsdata.obj
 0002:00004608       ??_C@_1BC@HHMNLIHE@?$AAT?$AAh?$AAu?$AAr?$AAs?$AAd?$AAa?$AAy@ 000000018002b608     libucrt:nlsdata.obj
 0002:00004620       ??_C@_1O@PDICJHAG@?$AAF?$AAr?$AAi?$AAd?$AAa?$AAy@ 000000018002b620     libucrt:nlsdata.obj
 0002:00004630       ??_C@_1BC@ENMNNPAJ@?$AAS?$AAa?$AAt?$AAu?$AAr?$AAd?$AAa?$AAy@ 000000018002b630     libucrt:nlsdata.obj
 0002:00004648       ??_C@_17DKNBKCHM@?$AAJ?$AAa?$AAn@ 000000018002b648     libucrt:nlsdata.obj
 0002:00004650       ??_C@_17LMDJEKJN@?$AAF?$AAe?$AAb@ 000000018002b650     libucrt:nlsdata.obj
 0002:00004658       ??_C@_17CKNLEDEC@?$AAM?$AAa?$AAr@ 000000018002b658     libucrt:nlsdata.obj
 0002:00004660       ??_C@_17LFPOIHDD@?$AAA?$AAp?$AAr@ 000000018002b660     libucrt:nlsdata.obj
 0002:00004668       ??_C@_17PNNKMEED@?$AAM?$AAa?$AAy@ 000000018002b668     libucrt:nlsdata.obj
 0002:00004670       ??_C@_17KCJGOCPB@?$AAJ?$AAu?$AAn@ 000000018002b670     libucrt:nlsdata.obj
 0002:00004678       ??_C@_17IJPCKHK@?$AAJ?$AAu?$AAl@ 000000018002b678     libucrt:nlsdata.obj
 0002:00004680       ??_C@_17ICPELBCN@?$AAA?$AAu?$AAg@ 000000018002b680     libucrt:nlsdata.obj
 0002:00004688       ??_C@_17HCHCOKMG@?$AAS?$AAe?$AAp@ 000000018002b688     libucrt:nlsdata.obj
 0002:00004690       ??_C@_17FNLKOI@?$AAO?$AAc?$AAt@ 000000018002b690     libucrt:nlsdata.obj
 0002:00004698       ??_C@_17BBDMLCIG@?$AAN?$AAo?$AAv@ 000000018002b698     libucrt:nlsdata.obj
 0002:000046a0       ??_C@_17EGKACKIF@?$AAD?$AAe?$AAc@ 000000018002b6a0     libucrt:nlsdata.obj
 0002:000046a8       ??_C@_1BA@EFMEIEBA@?$AAJ?$AAa?$AAn?$AAu?$AAa?$AAr?$AAy@ 000000018002b6a8     libucrt:nlsdata.obj
 0002:000046b8       ??_C@_1BC@JGDDFFAM@?$AAF?$AAe?$AAb?$AAr?$AAu?$AAa?$AAr?$AAy@ 000000018002b6b8     libucrt:nlsdata.obj
 0002:000046d0       ??_C@_1M@IKEENEDF@?$AAM?$AAa?$AAr?$AAc?$AAh@ 000000018002b6d0     libucrt:nlsdata.obj
 0002:000046e0       ??_C@_1M@GJNLMHFD@?$AAA?$AAp?$AAr?$AAi?$AAl@ 000000018002b6e0     libucrt:nlsdata.obj
 0002:000046f0       ??_C@_19EPFLPGAP@?$AAJ?$AAu?$AAn?$AAe@ 000000018002b6f0     libucrt:nlsdata.obj
 0002:00004700       ??_C@_19BIFMLPCD@?$AAJ?$AAu?$AAl?$AAy@ 000000018002b700     libucrt:nlsdata.obj
 0002:00004710       ??_C@_1O@PAHLKOAC@?$AAA?$AAu?$AAg?$AAu?$AAs?$AAt@ 000000018002b710     libucrt:nlsdata.obj
 0002:00004720       ??_C@_1BE@DKAAMBJL@?$AAS?$AAe?$AAp?$AAt?$AAe?$AAm?$AAb?$AAe?$AAr@ 000000018002b720     libucrt:nlsdata.obj
 0002:00004738       ??_C@_1BA@EPANDLNG@?$AAO?$AAc?$AAt?$AAo?$AAb?$AAe?$AAr@ 000000018002b738     libucrt:nlsdata.obj
 0002:00004748       ??_C@_1BC@BGLIFPF@?$AAN?$AAo?$AAv?$AAe?$AAm?$AAb?$AAe?$AAr@ 000000018002b748     libucrt:nlsdata.obj
 0002:00004760       ??_C@_1BC@FEMKIFH@?$AAD?$AAe?$AAc?$AAe?$AAm?$AAb?$AAe?$AAr@ 000000018002b760     libucrt:nlsdata.obj
 0002:00004774       ??_C@_15ODEHAHHF@?$AAA?$AAM@ 000000018002b774     libucrt:nlsdata.obj
 0002:0000477c       ??_C@_15CLMNNGEL@?$AAP?$AAM@ 000000018002b77c     libucrt:nlsdata.obj
 0002:00004788       ??_C@_1BC@IEBCMHCM@?$AAM?$AAM?$AA?1?$AAd?$AAd?$AA?1?$AAy?$AAy@ 000000018002b788     libucrt:nlsdata.obj
 0002:000047a0       ??_C@_1CI@KNAKOEBC@?$AAd?$AAd?$AAd?$AAd?$AA?0?$AA?5?$AAM?$AAM?$AAM?$AAM?$AA?5?$AAd?$AAd?$AA?0?$AA?5@ 000000018002b7a0     libucrt:nlsdata.obj
 0002:000047c8       ??_C@_1BC@GDGBMEMK@?$AAH?$AAH?$AA?3?$AAm?$AAm?$AA?3?$AAs?$AAs@ 000000018002b7c8     libucrt:nlsdata.obj
 0002:000047e0       ??_C@_1M@BMHNFIME@?$AAe?$AAn?$AA?9?$AAU?$AAS@ 000000018002b7e0     libucrt:nlsdata.obj
 0002:00004890       ??_C@_1EA@JGEFHKEI@?$AAa?$AAp?$AAi?$AA?9?$AAm?$AAs?$AA?9?$AAw?$AAi?$AAn?$AA?9?$AAc?$AAo?$AAr?$AAe@ 000000018002b890     libucrt:winapi_thunks.obj
 0002:000048d0       ??_C@_1DI@IJCEHOCB@?$AAa?$AAp?$AAi?$AA?9?$AAm?$AAs?$AA?9?$AAw?$AAi?$AAn?$AA?9?$AAc?$AAo?$AAr?$AAe@ 000000018002b8d0     libucrt:winapi_thunks.obj
 0002:00004910       ??_C@_1EI@MPIAOHOC@?$AAa?$AAp?$AAi?$AA?9?$AAm?$AAs?$AA?9?$AAw?$AAi?$AAn?$AA?9?$AAc?$AAo?$AAr?$AAe@ 000000018002b910     libucrt:winapi_thunks.obj
 0002:00004960       ??_C@_1FK@FPHCKFIE@?$AAa?$AAp?$AAi?$AA?9?$AAm?$AAs?$AA?9?$AAw?$AAi?$AAn?$AA?9?$AAc?$AAo?$AAr?$AAe@ 000000018002b960     libucrt:winapi_thunks.obj
 0002:000049c0       ??_C@_1EM@DILCGIIO@?$AAa?$AAp?$AAi?$AA?9?$AAm?$AAs?$AA?9?$AAw?$AAi?$AAn?$AA?9?$AAc?$AAo?$AAr?$AAe@ 000000018002b9c0     libucrt:winapi_thunks.obj
 0002:00004a10       ??_C@_1DM@LNCGDDPN@?$AAa?$AAp?$AAi?$AA?9?$AAm?$AAs?$AA?9?$AAw?$AAi?$AAn?$AA?9?$AAc?$AAo?$AAr?$AAe@ 000000018002ba10     libucrt:winapi_thunks.obj
 0002:00004a50       ??_C@_1DO@FPAPJEMD@?$AAa?$AAp?$AAi?$AA?9?$AAm?$AAs?$AA?9?$AAw?$AAi?$AAn?$AA?9?$AAc?$AAo?$AAr?$AAe@ 000000018002ba50     libucrt:winapi_thunks.obj
 0002:00004a90       ??_C@_1DK@NDHNAHIO@?$AAa?$AAp?$AAi?$AA?9?$AAm?$AAs?$AA?9?$AAw?$AAi?$AAn?$AA?9?$AAc?$AAo?$AAr?$AAe@ 000000018002ba90     libucrt:winapi_thunks.obj
 0002:00004ad0       ??_C@_1DM@KGHDGBCM@?$AAa?$AAp?$AAi?$AA?9?$AAm?$AAs?$AA?9?$AAw?$AAi?$AAn?$AA?9?$AAc?$AAo?$AAr?$AAe@ 000000018002bad0     libucrt:winapi_thunks.obj
 0002:00004b10       ??_C@_1EO@IJIOEFOH@?$AAa?$AAp?$AAi?$AA?9?$AAm?$AAs?$AA?9?$AAw?$AAi?$AAn?$AA?9?$AAr?$AAt?$AAc?$AAo@ 000000018002bb10     libucrt:winapi_thunks.obj
 0002:00004b60       ??_C@_1FG@HHGEKANL@?$AAa?$AAp?$AAi?$AA?9?$AAm?$AAs?$AA?9?$AAw?$AAi?$AAn?$AA?9?$AAs?$AAe?$AAc?$AAu@ 000000018002bb60     libucrt:winapi_thunks.obj
 0002:00004bc0       ??_C@_1EG@DBIOJECG@?$AAe?$AAx?$AAt?$AA?9?$AAm?$AAs?$AA?9?$AAw?$AAi?$AAn?$AA?9?$AAn?$AAt?$AAu?$AAs@ 000000018002bbc0     libucrt:winapi_thunks.obj
 0002:00004c10       ??_C@_1EO@FIHMJCLF@?$AAe?$AAx?$AAt?$AA?9?$AAm?$AAs?$AA?9?$AAw?$AAi?$AAn?$AA?9?$AAn?$AAt?$AAu?$AAs@ 000000018002bc10     libucrt:winapi_thunks.obj
 0002:00004c60       ??_C@_1BC@DNHGCMLG@?$AAa?$AAd?$AAv?$AAa?$AAp?$AAi?$AA3?$AA2@ 000000018002bc60     libucrt:winapi_thunks.obj
 0002:00004c78       ??_C@_1M@OAIMIKLP@?$AAn?$AAt?$AAd?$AAl?$AAl@ 000000018002bc78     libucrt:winapi_thunks.obj
 0002:00004c90       ??_C@_1EG@DPGNFKGC@?$AAa?$AAp?$AAi?$AA?9?$AAm?$AAs?$AA?9?$AAw?$AAi?$AAn?$AA?9?$AAa?$AAp?$AAp?$AAm@ 000000018002bc90     libucrt:winapi_thunks.obj
 0002:00004cd8       ??_C@_1O@BCCLBEOE@?$AAu?$AAs?$AAe?$AAr?$AA3?$AA2@ 000000018002bcd8     libucrt:winapi_thunks.obj
 0002:00004ce8       ??_C@_1BA@IAIFMGEF@?$AAe?$AAx?$AAt?$AA?9?$AAm?$AAs?$AA?9@ 000000018002bce8     libucrt:winapi_thunks.obj
 0002:00004d00       ??_C@_0BA@FHFNEAED@AreFileApisANSI@ 000000018002bd00     libucrt:winapi_thunks.obj
 0002:00004d20       ??_C@_0O@KKBNKAPF@LCMapStringEx@ 000000018002bd20     libucrt:winapi_thunks.obj
 0002:00004d38       ??_C@_0BB@HBDEELFH@LocaleNameToLCID@ 000000018002bd38     libucrt:winapi_thunks.obj
 0002:00004d50       ??_C@_0CF@OJOFEIGO@AppPolicyGetProcessTerminationM@ 000000018002bd50     libucrt:winapi_thunks.obj
 0002:00004d80       ??_C@_0BI@BKLFFAPO@SetThreadStackGuarantee@ 000000018002bd80     libucrt:winapi_thunks.obj
 0002:00004e20       ??_C@_03OEIAHPBN@INF@      000000018002be20     libucrt:cvt.obj
 0002:00004e24       ??_C@_03OJHLLCGB@inf@      000000018002be24     libucrt:cvt.obj
 0002:00004e28       ??_C@_03LKNCIKJB@NAN@      000000018002be28     libucrt:cvt.obj
 0002:00004e2c       ??_C@_03LHCJEHON@nan@      000000018002be2c     libucrt:cvt.obj
 0002:00004e30       ??_C@_09OFJJIMPC@NAN?$CISNAN?$CJ@ 000000018002be30     libucrt:cvt.obj
 0002:00004e40       ??_C@_09IPFBKMDL@nan?$CIsnan?$CJ@ 000000018002be40     libucrt:cvt.obj
 0002:00004e50       ??_C@_08IKHNHAJ@NAN?$CIIND?$CJ@ 000000018002be50     libucrt:cvt.obj
 0002:00004e60       ??_C@_08OFCDMILK@nan?$CIind?$CJ@ 000000018002be60     libucrt:cvt.obj
 0002:00004e6c       ??_C@_05KLBDPFGC@e?$CL000@ 000000018002be6c     libucrt:cvt.obj
 0002:00004e98       ??_C@_1M@HPNHIDJI@?$AAj?$AAa?$AA?9?$AAJ?$AAP@ 000000018002be98     libucrt:mbctype.obj
 0002:00004ea8       ??_C@_1M@BIBDDEMK@?$AAz?$AAh?$AA?9?$AAC?$AAN@ 000000018002bea8     libucrt:mbctype.obj
 0002:00004eb8       ??_C@_1M@JLOOOEGK@?$AAk?$AAo?$AA?9?$AAK?$AAR@ 000000018002beb8     libucrt:mbctype.obj
 0002:00004ec8       ??_C@_1M@CLNBBOPM@?$AAz?$AAh?$AA?9?$AAT?$AAW@ 000000018002bec8     libucrt:mbctype.obj
 0002:00004ee0       __newctype                 000000018002bee0     libucrt:ctype.obj
 0002:000051e0       __newclmap                 000000018002c1e0     libucrt:ctype.obj
 0002:00005360       __newcumap                 000000018002c360     libucrt:ctype.obj
 0002:000054e0       ??_C@_15PJPFLCCM@?$AAu?$AAk@ 000000018002c4e0     libucrt:get_qualified_locale.obj
 0002:00006330       ??_C@_15EMKDOKLE@?$AAa?$AAr@ 000000018002d330     libucrt:lcidtoname_downlevel.obj
 0002:00006338       ??_C@_15KNPADPLH@?$AAb?$AAg@ 000000018002d338     libucrt:lcidtoname_downlevel.obj
 0002:00006340       ??_C@_15EDMHLDMO@?$AAc?$AAa@ 000000018002d340     libucrt:lcidtoname_downlevel.obj
 0002:00006348       ??_C@_1O@BPEAJADD@?$AAz?$AAh?$AA?9?$AAC?$AAH?$AAS@ 000000018002d348     libucrt:lcidtoname_downlevel.obj
 0002:00006358       ??_C@_15LJNHCMNK@?$AAc?$AAs@ 000000018002d358     libucrt:lcidtoname_downlevel.obj
 0002:00006360       ??_C@_15FOMCIDHG@?$AAd?$AAa@ 000000018002d360     libucrt:lcidtoname_downlevel.obj
 0002:00006368       ??_C@_15NBKABECB@?$AAd?$AAe@ 000000018002d368     libucrt:lcidtoname_downlevel.obj
 0002:00006370       ??_C@_15GHPEIIAO@?$AAe?$AAl@ 000000018002d370     libucrt:lcidtoname_downlevel.obj
 0002:00006378       ??_C@_15MNPNEAIF@?$AAe?$AAn@ 000000018002d378     libucrt:lcidtoname_downlevel.obj
 0002:00006380       ??_C@_15GPIOMPMH@?$AAe?$AAs@ 000000018002d380     libucrt:lcidtoname_downlevel.obj
 0002:00006388       ??_C@_15NGLOAKJC@?$AAf?$AAi@ 000000018002d388     libucrt:lcidtoname_downlevel.obj
 0002:00006390       ??_C@_15FBKGNKAM@?$AAf?$AAr@ 000000018002d390     libucrt:lcidtoname_downlevel.obj
 0002:00006398       ??_C@_15KGGCNEFK@?$AAh?$AAe@ 000000018002d398     libucrt:lcidtoname_downlevel.obj
 0002:000063a0       ??_C@_15PGHLIDMF@?$AAh?$AAu@ 000000018002d3a0     libucrt:lcidtoname_downlevel.obj
 0002:000063a8       ??_C@_15BIEMAPLM@?$AAi?$AAs@ 000000018002d3a8     libucrt:lcidtoname_downlevel.obj
 0002:000063b0       ??_C@_15IFJLDHAF@?$AAi?$AAt@ 000000018002d3b0     libucrt:lcidtoname_downlevel.obj
 0002:000063b8       ??_C@_15GEMIOCAG@?$AAj?$AAa@ 000000018002d3b8     libucrt:lcidtoname_downlevel.obj
 0002:000063c0       ??_C@_15EPELEGJA@?$AAk?$AAo@ 000000018002d3c0     libucrt:lcidtoname_downlevel.obj
 0002:000063c8       ??_C@_15NDDHIMN@?$AAn?$AAl@ 000000018002d3c8     libucrt:lcidtoname_downlevel.obj
 0002:000063d0       ??_C@_15BPIGNHCD@?$AAn?$AAo@ 000000018002d3d0     libucrt:lcidtoname_downlevel.obj
 0002:000063d8       ??_C@_15DEOPBLCG@?$AAp?$AAl@ 000000018002d3d8     libucrt:lcidtoname_downlevel.obj
 0002:000063e0       ??_C@_15KBECGEFG@?$AAp?$AAt@ 000000018002d3e0     libucrt:lcidtoname_downlevel.obj
 0002:000063e8       ??_C@_15GLJCBFMD@?$AAr?$AAo@ 000000018002d3e8     libucrt:lcidtoname_downlevel.obj
 0002:000063f0       ??_C@_15FEDGKCDI@?$AAr?$AAu@ 000000018002d3f0     libucrt:lcidtoname_downlevel.obj
 0002:000063f8       ??_C@_15GLKMLLHM@?$AAh?$AAr@ 000000018002d3f8     libucrt:lcidtoname_downlevel.obj
 0002:00006400       ??_C@_15CPKMFBDB@?$AAs?$AAk@ 000000018002d400     libucrt:lcidtoname_downlevel.obj
 0002:00006408       ??_C@_15BAAIOGMK@?$AAs?$AAq@ 000000018002d408     libucrt:lcidtoname_downlevel.obj
 0002:00006410       ??_C@_15INNPNOHD@?$AAs?$AAv@ 000000018002d410     libucrt:lcidtoname_downlevel.obj
 0002:00006418       ??_C@_15CABMMOGH@?$AAt?$AAh@ 000000018002d418     libucrt:lcidtoname_downlevel.obj
 0002:00006420       ??_C@_15BPLIHJJM@?$AAt?$AAr@ 000000018002d420     libucrt:lcidtoname_downlevel.obj
 0002:00006428       ??_C@_15NEOEKKDJ@?$AAu?$AAr@ 000000018002d428     libucrt:lcidtoname_downlevel.obj
 0002:00006430       ??_C@_15NFICGAJK@?$AAi?$AAd@ 000000018002d430     libucrt:lcidtoname_downlevel.obj
 0002:00006438       ??_C@_15HPJPHDM@?$AAb?$AAe@ 000000018002d438     libucrt:lcidtoname_downlevel.obj
 0002:00006440       ??_C@_15LCHLGJII@?$AAs?$AAl@ 000000018002d440     libucrt:lcidtoname_downlevel.obj
 0002:00006448       ??_C@_15PCFJPHHO@?$AAe?$AAt@ 000000018002d448     libucrt:lcidtoname_downlevel.obj
 0002:00006450       ??_C@_15HPFPGODN@?$AAl?$AAv@ 000000018002d450     libucrt:lcidtoname_downlevel.obj
 0002:00006458       ??_C@_15NFFGKGLG@?$AAl?$AAt@ 000000018002d458     libucrt:lcidtoname_downlevel.obj
 0002:00006460       ??_C@_15BDAKCCHN@?$AAf?$AAa@ 000000018002d460     libucrt:lcidtoname_downlevel.obj
 0002:00006468       ??_C@_15NFGIAIAJ@?$AAv?$AAi@ 000000018002d468     libucrt:lcidtoname_downlevel.obj
 0002:00006470       ??_C@_15LMKNDMHN@?$AAh?$AAy@ 000000018002d470     libucrt:lcidtoname_downlevel.obj
 0002:00006478       ??_C@_15IJBHMCFL@?$AAa?$AAz@ 000000018002d478     libucrt:lcidtoname_downlevel.obj
 0002:00006480       ??_C@_15EKOFJABL@?$AAe?$AAu@ 000000018002d480     libucrt:lcidtoname_downlevel.obj
 0002:00006488       ??_C@_15BGHADCNK@?$AAm?$AAk@ 000000018002d488     libucrt:lcidtoname_downlevel.obj
 0002:00006490       ??_C@_15JDNICKHM@?$AAa?$AAf@ 000000018002d490     libucrt:lcidtoname_downlevel.obj
 0002:00006498       ??_C@_15KPJEDBKD@?$AAk?$AAa@ 000000018002d498     libucrt:lcidtoname_downlevel.obj
 0002:000064a0       ??_C@_15PDNFFFEO@?$AAf?$AAo@ 000000018002d4a0     libucrt:lcidtoname_downlevel.obj
 0002:000064a8       ??_C@_15OMLEGLOC@?$AAh?$AAi@ 000000018002d4a8     libucrt:lcidtoname_downlevel.obj
 0002:000064b0       ??_C@_15IDNNENKK@?$AAm?$AAs@ 000000018002d4b0     libucrt:lcidtoname_downlevel.obj
 0002:000064b8       ??_C@_15MACJNBMH@?$AAk?$AAk@ 000000018002d4b8     libucrt:lcidtoname_downlevel.obj
 0002:000064c0       ??_C@_15DKDJEOND@?$AAk?$AAy@ 000000018002d4c0     libucrt:lcidtoname_downlevel.obj
 0002:000064c8       ??_C@_15DFGDLJBG@?$AAs?$AAw@ 000000018002d4c8     libucrt:lcidtoname_downlevel.obj
 0002:000064d0       ??_C@_15BBFAICNG@?$AAu?$AAz@ 000000018002d4d0     libucrt:lcidtoname_downlevel.obj
 0002:000064d8       ??_C@_15DKNDCGEA@?$AAt?$AAt@ 000000018002d4d8     libucrt:lcidtoname_downlevel.obj
 0002:000064e0       ??_C@_15MGIFMDPL@?$AAp?$AAa@ 000000018002d4e0     libucrt:lcidtoname_downlevel.obj
 0002:000064e8       ??_C@_15HCNDBBA@?$AAg?$AAu@ 000000018002d4e8     libucrt:lcidtoname_downlevel.obj
 0002:000064f0       ??_C@_15FNBEIBON@?$AAt?$AAa@ 000000018002d4f0     libucrt:lcidtoname_downlevel.obj
 0002:000064f8       ??_C@_15NCHGBGLK@?$AAt?$AAe@ 000000018002d4f8     libucrt:lcidtoname_downlevel.obj
 0002:00006500       ??_C@_15PHPHCBPF@?$AAk?$AAn@ 000000018002d500     libucrt:lcidtoname_downlevel.obj
 0002:00006508       ??_C@_15DLGBCKMP@?$AAm?$AAr@ 000000018002d508     libucrt:lcidtoname_downlevel.obj
 0002:00006510       ??_C@_15EABBLBFF@?$AAs?$AAa@ 000000018002d510     libucrt:lcidtoname_downlevel.obj
 0002:00006518       ??_C@_15CBKOMCOI@?$AAm?$AAn@ 000000018002d518     libucrt:lcidtoname_downlevel.obj
 0002:00006520       ??_C@_15CKDMCJAF@?$AAg?$AAl@ 000000018002d520     libucrt:lcidtoname_downlevel.obj
 0002:00006528       ??_C@_17CNJFBPG@?$AAk?$AAo?$AAk@ 000000018002d528     libucrt:lcidtoname_downlevel.obj
 0002:00006530       ??_C@_17FFBJICPL@?$AAs?$AAy?$AAr@ 000000018002d530     libucrt:lcidtoname_downlevel.obj
 0002:00006538       ??_C@_17KPNDCPAF@?$AAd?$AAi?$AAv@ 000000018002d538     libucrt:lcidtoname_downlevel.obj
 0002:00006540       ??_C@_1M@OKAHONE@?$AAa?$AAr?$AA?9?$AAS?$AAA@ 000000018002d540     libucrt:lcidtoname_downlevel.obj
 0002:00006550       ??_C@_1M@FFFIGIGK@?$AAb?$AAg?$AA?9?$AAB?$AAG@ 000000018002d550     libucrt:lcidtoname_downlevel.obj
 0002:00006560       ??_C@_1M@BJNKEDC@?$AAc?$AAa?$AA?9?$AAE?$AAS@ 000000018002d560     libucrt:lcidtoname_downlevel.obj
 0002:00006570       ??_C@_1M@IJJHFJHA@?$AAc?$AAs?$AA?9?$AAC?$AAZ@ 000000018002d570     libucrt:lcidtoname_downlevel.obj
 0002:00006580       ??_C@_1M@CLPEOBGI@?$AAd?$AAa?$AA?9?$AAD?$AAK@ 000000018002d580     libucrt:lcidtoname_downlevel.obj
 0002:00006590       ??_C@_1M@MCMADGCB@?$AAd?$AAe?$AA?9?$AAD?$AAE@ 000000018002d590     libucrt:lcidtoname_downlevel.obj
 0002:000065a0       ??_C@_1M@OOCKEMAM@?$AAe?$AAl?$AA?9?$AAG?$AAR@ 000000018002d5a0     libucrt:lcidtoname_downlevel.obj
 0002:000065b0       ??_C@_1M@DDNJFGID@?$AAf?$AAi?$AA?9?$AAF?$AAI@ 000000018002d5b0     libucrt:lcidtoname_downlevel.obj
 0002:000065c0       ??_C@_1M@GLIPPMAC@?$AAf?$AAr?$AA?9?$AAF?$AAR@ 000000018002d5c0     libucrt:lcidtoname_downlevel.obj
 0002:000065d0       ??_C@_1M@GFMCHPE@?$AAh?$AAe?$AA?9?$AAI?$AAL@ 000000018002d5d0     libucrt:lcidtoname_downlevel.obj
 0002:000065e0       ??_C@_1M@MHLPGNKM@?$AAh?$AAu?$AA?9?$AAH?$AAU@ 000000018002d5e0     libucrt:lcidtoname_downlevel.obj
 0002:000065f0       ??_C@_1M@LPDDNNPN@?$AAi?$AAs?$AA?9?$AAI?$AAS@ 000000018002d5f0     libucrt:lcidtoname_downlevel.obj
 0002:00006600       ??_C@_1M@MADIPODN@?$AAi?$AAt?$AA?9?$AAI?$AAT@ 000000018002d600     libucrt:lcidtoname_downlevel.obj
 0002:00006610       ??_C@_1M@IHBJJGG@?$AAn?$AAl?$AA?9?$AAN?$AAL@ 000000018002d610     libucrt:lcidtoname_downlevel.obj
 0002:00006620       ??_C@_1M@EANAGDL@?$AAn?$AAb?$AA?9?$AAN?$AAO@ 000000018002d620     libucrt:lcidtoname_downlevel.obj
 0002:00006630       ??_C@_1M@NEIEMEGP@?$AAp?$AAl?$AA?9?$AAP?$AAL@ 000000018002d630     libucrt:lcidtoname_downlevel.obj
 0002:00006640       ??_C@_1M@BOCFIGEP@?$AAp?$AAt?$AA?9?$AAB?$AAR@ 000000018002d640     libucrt:lcidtoname_downlevel.obj
 0002:00006650       ??_C@_1M@IMPFOPBG@?$AAr?$AAo?$AA?9?$AAR?$AAO@ 000000018002d650     libucrt:lcidtoname_downlevel.obj
 0002:00006660       ??_C@_1M@IDNNEJMM@?$AAr?$AAu?$AA?9?$AAR?$AAU@ 000000018002d660     libucrt:lcidtoname_downlevel.obj
 0002:00006670       ??_C@_1M@LILEEOGM@?$AAh?$AAr?$AA?9?$AAH?$AAR@ 000000018002d670     libucrt:lcidtoname_downlevel.obj
 0002:00006680       ??_C@_1M@FKIFEHPB@?$AAs?$AAk?$AA?9?$AAS?$AAK@ 000000018002d680     libucrt:lcidtoname_downlevel.obj
 0002:00006690       ??_C@_1M@LJMAMNPJ@?$AAs?$AAq?$AA?9?$AAA?$AAL@ 000000018002d690     libucrt:lcidtoname_downlevel.obj
 0002:000066a0       ??_C@_1M@GIAKDKJK@?$AAs?$AAv?$AA?9?$AAS?$AAE@ 000000018002d6a0     libucrt:lcidtoname_downlevel.obj
 0002:000066b0       ??_C@_1M@MKJKIKCL@?$AAt?$AAh?$AA?9?$AAT?$AAH@ 000000018002d6b0     libucrt:lcidtoname_downlevel.obj
 0002:000066c0       ??_C@_1M@MFLCCMPB@?$AAt?$AAr?$AA?9?$AAT?$AAR@ 000000018002d6c0     libucrt:lcidtoname_downlevel.obj
 0002:000066d0       ??_C@_1M@OIJHDKJN@?$AAu?$AAr?$AA?9?$AAP?$AAK@ 000000018002d6d0     libucrt:lcidtoname_downlevel.obj
 0002:000066e0       ??_C@_1M@LHIPCIEK@?$AAi?$AAd?$AA?9?$AAI?$AAD@ 000000018002d6e0     libucrt:lcidtoname_downlevel.obj
 0002:000066f0       ??_C@_1M@MFMOBGI@?$AAu?$AAk?$AA?9?$AAU?$AAA@ 000000018002d6f0     libucrt:lcidtoname_downlevel.obj
 0002:00006700       ??_C@_1M@OBGLJIPL@?$AAb?$AAe?$AA?9?$AAB?$AAY@ 000000018002d700     libucrt:lcidtoname_downlevel.obj
 0002:00006710       ??_C@_1M@BCFAJEAD@?$AAs?$AAl?$AA?9?$AAS?$AAI@ 000000018002d710     libucrt:lcidtoname_downlevel.obj
 0002:00006720       ??_C@_1M@FKFFEDDN@?$AAe?$AAt?$AA?9?$AAE?$AAE@ 000000018002d720     libucrt:lcidtoname_downlevel.obj
 0002:00006730       ??_C@_1M@KGKKAACI@?$AAl?$AAv?$AA?9?$AAL?$AAV@ 000000018002d730     libucrt:lcidtoname_downlevel.obj
 0002:00006740       ??_C@_1M@IFGBIJO@?$AAl?$AAt?$AA?9?$AAL?$AAT@ 000000018002d740     libucrt:lcidtoname_downlevel.obj
 0002:00006750       ??_C@_1M@FGEAHEDM@?$AAf?$AAa?$AA?9?$AAI?$AAR@ 000000018002d750     libucrt:lcidtoname_downlevel.obj
 0002:00006760       ??_C@_1M@KBMAIBFN@?$AAv?$AAi?$AA?9?$AAV?$AAN@ 000000018002d760     libucrt:lcidtoname_downlevel.obj
 0002:00006770       ??_C@_1M@GPCBKDJK@?$AAh?$AAy?$AA?9?$AAA?$AAM@ 000000018002d770     libucrt:lcidtoname_downlevel.obj
 0002:00006780       ??_C@_1BG@BECMDDJB@?$AAa?$AAz?$AA?9?$AAA?$AAZ?$AA?9?$AAL?$AAa?$AAt?$AAn@ 000000018002d780     libucrt:lcidtoname_downlevel.obj
 0002:00006798       ??_C@_1M@MAOFCAEA@?$AAe?$AAu?$AA?9?$AAE?$AAS@ 000000018002d798     libucrt:lcidtoname_downlevel.obj
 0002:000067a8       ??_C@_1M@IGHABKPI@?$AAm?$AAk?$AA?9?$AAM?$AAK@ 000000018002d7a8     libucrt:lcidtoname_downlevel.obj
 0002:000067b8       ??_C@_1M@IAIGNEJG@?$AAt?$AAn?$AA?9?$AAZ?$AAA@ 000000018002d7b8     libucrt:lcidtoname_downlevel.obj
 0002:000067c8       ??_C@_1M@IIJCOJFA@?$AAx?$AAh?$AA?9?$AAZ?$AAA@ 000000018002d7c8     libucrt:lcidtoname_downlevel.obj
 0002:000067d8       ??_C@_1M@LGPJHNJH@?$AAz?$AAu?$AA?9?$AAZ?$AAA@ 000000018002d7d8     libucrt:lcidtoname_downlevel.obj
 0002:000067e8       ??_C@_1M@HOKAOIO@?$AAa?$AAf?$AA?9?$AAZ?$AAA@ 000000018002d7e8     libucrt:lcidtoname_downlevel.obj
 0002:000067f8       ??_C@_1M@DPCLHLIE@?$AAk?$AAa?$AA?9?$AAG?$AAE@ 000000018002d7f8     libucrt:lcidtoname_downlevel.obj
 0002:00006808       ??_C@_1M@BLKMHJBI@?$AAf?$AAo?$AA?9?$AAF?$AAO@ 000000018002d808     libucrt:lcidtoname_downlevel.obj
 0002:00006818       ??_C@_1M@LGGJAPPB@?$AAh?$AAi?$AA?9?$AAI?$AAN@ 000000018002d818     libucrt:lcidtoname_downlevel.obj
 0002:00006828       ??_C@_1M@FIKPIHFE@?$AAm?$AAt?$AA?9?$AAM?$AAT@ 000000018002d828     libucrt:lcidtoname_downlevel.obj
 0002:00006838       ??_C@_1M@HEGGPBFA@?$AAs?$AAe?$AA?9?$AAN?$AAO@ 000000018002d838     libucrt:lcidtoname_downlevel.obj
 0002:00006848       ??_C@_1M@EIBJEEPA@?$AAm?$AAs?$AA?9?$AAM?$AAY@ 000000018002d848     libucrt:lcidtoname_downlevel.obj
 0002:00006858       ??_C@_1M@FHLBGMPP@?$AAk?$AAk?$AA?9?$AAK?$AAZ@ 000000018002d858     libucrt:lcidtoname_downlevel.obj
 0002:00006868       ??_C@_1M@NGJJLCGI@?$AAk?$AAy?$AA?9?$AAK?$AAG@ 000000018002d868     libucrt:lcidtoname_downlevel.obj
 0002:00006878       ??_C@_1M@GIENNBFC@?$AAs?$AAw?$AA?9?$AAK?$AAE@ 000000018002d878     libucrt:lcidtoname_downlevel.obj
 0002:00006888       ??_C@_1BG@NDGMJIMJ@?$AAu?$AAz?$AA?9?$AAU?$AAZ?$AA?9?$AAL?$AAa?$AAt?$AAn@ 000000018002d888     libucrt:lcidtoname_downlevel.obj
 0002:000068a0       ??_C@_1M@IDCCIHBC@?$AAt?$AAt?$AA?9?$AAR?$AAU@ 000000018002d8a0     libucrt:lcidtoname_downlevel.obj
 0002:000068b0       ??_C@_1M@LOICPMOJ@?$AAb?$AAn?$AA?9?$AAI?$AAN@ 000000018002d8b0     libucrt:lcidtoname_downlevel.obj
 0002:000068c0       ??_C@_1M@KPKKNEAH@?$AAp?$AAa?$AA?9?$AAI?$AAN@ 000000018002d8c0     libucrt:lcidtoname_downlevel.obj
 0002:000068d0       ??_C@_1M@PJGPPBOG@?$AAg?$AAu?$AA?9?$AAI?$AAN@ 000000018002d8d0     libucrt:lcidtoname_downlevel.obj
 0002:000068e0       ??_C@_1M@KMKMOPHI@?$AAt?$AAa?$AA?9?$AAI?$AAN@ 000000018002d8e0     libucrt:lcidtoname_downlevel.obj
 0002:000068f0       ??_C@_1M@KFEHEPAC@?$AAt?$AAe?$AA?9?$AAI?$AAN@ 000000018002d8f0     libucrt:lcidtoname_downlevel.obj
 0002:00006900       ??_C@_1M@CDCLMGHI@?$AAk?$AAn?$AA?9?$AAI?$AAN@ 000000018002d900     libucrt:lcidtoname_downlevel.obj
 0002:00006910       ??_C@_1M@MIODLDKF@?$AAm?$AAl?$AA?9?$AAI?$AAN@ 000000018002d910     libucrt:lcidtoname_downlevel.obj
 0002:00006920       ??_C@_1M@PBIEACPO@?$AAm?$AAr?$AA?9?$AAI?$AAN@ 000000018002d920     libucrt:lcidtoname_downlevel.obj
 0002:00006930       ??_C@_1M@NIDEAGPH@?$AAs?$AAa?$AA?9?$AAI?$AAN@ 000000018002d930     libucrt:lcidtoname_downlevel.obj
 0002:00006940       ??_C@_1M@FHIHCBIO@?$AAm?$AAn?$AA?9?$AAM?$AAN@ 000000018002d940     libucrt:lcidtoname_downlevel.obj
 0002:00006950       ??_C@_1M@JAIJPENP@?$AAc?$AAy?$AA?9?$AAG?$AAB@ 000000018002d950     libucrt:lcidtoname_downlevel.obj
 0002:00006960       ??_C@_1M@PHGFBEPN@?$AAg?$AAl?$AA?9?$AAE?$AAS@ 000000018002d960     libucrt:lcidtoname_downlevel.obj
 0002:00006970       ??_C@_1O@KPIPDNCP@?$AAk?$AAo?$AAk?$AA?9?$AAI?$AAN@ 000000018002d970     libucrt:lcidtoname_downlevel.obj
 0002:00006980       ??_C@_1O@KNHJLDJA@?$AAs?$AAy?$AAr?$AA?9?$AAS?$AAY@ 000000018002d980     libucrt:lcidtoname_downlevel.obj
 0002:00006990       ??_C@_1O@MKEKBLAH@?$AAd?$AAi?$AAv?$AA?9?$AAM?$AAV@ 000000018002d990     libucrt:lcidtoname_downlevel.obj
 0002:000069a0       ??_C@_1O@OHDCKDDF@?$AAq?$AAu?$AAz?$AA?9?$AAB?$AAO@ 000000018002d9a0     libucrt:lcidtoname_downlevel.obj
 0002:000069b0       ??_C@_1M@LEPJNLFD@?$AAn?$AAs?$AA?9?$AAZ?$AAA@ 000000018002d9b0     libucrt:lcidtoname_downlevel.obj
 0002:000069c0       ??_C@_1M@OMLEIIJB@?$AAm?$AAi?$AA?9?$AAN?$AAZ@ 000000018002d9c0     libucrt:lcidtoname_downlevel.obj
 0002:000069d0       ??_C@_1M@PMPEAILG@?$AAa?$AAr?$AA?9?$AAI?$AAQ@ 000000018002d9d0     libucrt:lcidtoname_downlevel.obj
 0002:000069e0       ??_C@_1M@CNKPNOEE@?$AAd?$AAe?$AA?9?$AAC?$AAH@ 000000018002d9e0     libucrt:lcidtoname_downlevel.obj
 0002:000069f0       ??_C@_1M@LKMGMLKO@?$AAe?$AAn?$AA?9?$AAG?$AAB@ 000000018002d9f0     libucrt:lcidtoname_downlevel.obj
 0002:00006a00       ??_C@_1M@PGKJFFGL@?$AAe?$AAs?$AA?9?$AAM?$AAX@ 000000018002da00     libucrt:lcidtoname_downlevel.obj
 0002:00006a10       ??_C@_1M@DNNANBDC@?$AAf?$AAr?$AA?9?$AAB?$AAE@ 000000018002da10     libucrt:lcidtoname_downlevel.obj
 0002:00006a20       ??_C@_1M@HLGMDFHM@?$AAi?$AAt?$AA?9?$AAC?$AAH@ 000000018002da20     libucrt:lcidtoname_downlevel.obj
 0002:00006a30       ??_C@_1M@CLLBGJH@?$AAn?$AAl?$AA?9?$AAB?$AAE@ 000000018002da30     libucrt:lcidtoname_downlevel.obj
 0002:00006a40       ??_C@_1M@BODBOGLF@?$AAn?$AAn?$AA?9?$AAN?$AAO@ 000000018002da40     libucrt:lcidtoname_downlevel.obj
 0002:00006a50       ??_C@_1M@HFFAHKAD@?$AAp?$AAt?$AA?9?$AAP?$AAT@ 000000018002da50     libucrt:lcidtoname_downlevel.obj
 0002:00006a60       ??_C@_1BG@LNOAKHIE@?$AAs?$AAr?$AA?9?$AAS?$AAP?$AA?9?$AAL?$AAa?$AAt?$AAn@ 000000018002da60     libucrt:lcidtoname_downlevel.obj
 0002:00006a78       ??_C@_1M@HBMHBGAK@?$AAs?$AAv?$AA?9?$AAF?$AAI@ 000000018002da78     libucrt:lcidtoname_downlevel.obj
 0002:00006a88       ??_C@_1BG@DGCJGJBE@?$AAa?$AAz?$AA?9?$AAA?$AAZ?$AA?9?$AAC?$AAy?$AAr?$AAl@ 000000018002da88     libucrt:lcidtoname_downlevel.obj
 0002:00006aa0       ??_C@_1M@KEJDAAHB@?$AAs?$AAe?$AA?9?$AAS?$AAE@ 000000018002daa0     libucrt:lcidtoname_downlevel.obj
 0002:00006ab0       ??_C@_1M@HEIBJJAD@?$AAm?$AAs?$AA?9?$AAB?$AAN@ 000000018002dab0     libucrt:lcidtoname_downlevel.obj
 0002:00006ac0       ??_C@_1BG@PBGJMCEM@?$AAu?$AAz?$AA?9?$AAU?$AAZ?$AA?9?$AAC?$AAy?$AAr?$AAl@ 000000018002dac0     libucrt:lcidtoname_downlevel.obj
 0002:00006ad8       ??_C@_1O@LAOBCMDF@?$AAq?$AAu?$AAz?$AA?9?$AAE?$AAC@ 000000018002dad8     libucrt:lcidtoname_downlevel.obj
 0002:00006ae8       ??_C@_1M@POEEMAIO@?$AAa?$AAr?$AA?9?$AAE?$AAG@ 000000018002dae8     libucrt:lcidtoname_downlevel.obj
 0002:00006af8       ??_C@_1M@EFAKDEDL@?$AAz?$AAh?$AA?9?$AAH?$AAK@ 000000018002daf8     libucrt:lcidtoname_downlevel.obj
 0002:00006b08       ??_C@_1M@HKKIJHGI@?$AAd?$AAe?$AA?9?$AAA?$AAT@ 000000018002db08     libucrt:lcidtoname_downlevel.obj
 0002:00006b18       ??_C@_1M@KBFBEHJF@?$AAe?$AAn?$AA?9?$AAA?$AAU@ 000000018002db18     libucrt:lcidtoname_downlevel.obj
 0002:00006b28       ??_C@_1M@MNPLFAAH@?$AAe?$AAs?$AA?9?$AAE?$AAS@ 000000018002db28     libucrt:lcidtoname_downlevel.obj
 0002:00006b38       ??_C@_1M@HJOOJFMA@?$AAf?$AAr?$AA?9?$AAC?$AAA@ 000000018002db38     libucrt:lcidtoname_downlevel.obj
 0002:00006b48       ??_C@_1BG@JPOFPNAB@?$AAs?$AAr?$AA?9?$AAS?$AAP?$AA?9?$AAC?$AAy?$AAr?$AAl@ 000000018002db48     libucrt:lcidtoname_downlevel.obj
 0002:00006b60       ??_C@_1M@LNFOCMOB@?$AAs?$AAe?$AA?9?$AAF?$AAI@ 000000018002db60     libucrt:lcidtoname_downlevel.obj
 0002:00006b70       ??_C@_1O@MGJBOAMB@?$AAq?$AAu?$AAz?$AA?9?$AAP?$AAE@ 000000018002db70     libucrt:lcidtoname_downlevel.obj
 0002:00006b80       ??_C@_1M@GJINLBOK@?$AAa?$AAr?$AA?9?$AAL?$AAY@ 000000018002db80     libucrt:lcidtoname_downlevel.obj
 0002:00006b90       ??_C@_1M@GGMNHJNL@?$AAz?$AAh?$AA?9?$AAS?$AAG@ 000000018002db90     libucrt:lcidtoname_downlevel.obj
 0002:00006ba0       ??_C@_1M@HOIKODND@?$AAd?$AAe?$AA?9?$AAL?$AAU@ 000000018002dba0     libucrt:lcidtoname_downlevel.obj
 0002:00006bb0       ??_C@_1M@DDOCCGFG@?$AAe?$AAn?$AA?9?$AAC?$AAA@ 000000018002dbb0     libucrt:lcidtoname_downlevel.obj
 0002:00006bc0       ??_C@_1M@BNOEMJLF@?$AAe?$AAs?$AA?9?$AAG?$AAT@ 000000018002dbc0     libucrt:lcidtoname_downlevel.obj
 0002:00006bd0       ??_C@_1M@EOGNKEK@?$AAf?$AAr?$AA?9?$AAC?$AAH@ 000000018002dbd0     libucrt:lcidtoname_downlevel.obj
 0002:00006be0       ??_C@_1M@FLIDJFHL@?$AAh?$AAr?$AA?9?$AAB?$AAA@ 000000018002dbe0     libucrt:lcidtoname_downlevel.obj
 0002:00006bf0       ??_C@_1O@FMCELNAJ@?$AAs?$AAm?$AAj?$AA?9?$AAN?$AAO@ 000000018002dbf0     libucrt:lcidtoname_downlevel.obj
 0002:00006c00       ??_C@_1M@JHGLJMGJ@?$AAa?$AAr?$AA?9?$AAD?$AAZ@ 000000018002dc00     libucrt:lcidtoname_downlevel.obj
 0002:00006c10       ??_C@_1M@JKKFDCNP@?$AAz?$AAh?$AA?9?$AAM?$AAO@ 000000018002dc10     libucrt:lcidtoname_downlevel.obj
 0002:00006c20       ??_C@_1M@GEEFALPE@?$AAd?$AAe?$AA?9?$AAL?$AAI@ 000000018002dc20     libucrt:lcidtoname_downlevel.obj
 0002:00006c30       ??_C@_1M@IGEOFBG@?$AAe?$AAn?$AA?9?$AAN?$AAZ@ 000000018002dc30     libucrt:lcidtoname_downlevel.obj
 0002:00006c40       ??_C@_1M@KDBONEHP@?$AAe?$AAs?$AA?9?$AAC?$AAR@ 000000018002dc40     libucrt:lcidtoname_downlevel.obj
 0002:00006c50       ??_C@_1M@FHMDOHNN@?$AAf?$AAr?$AA?9?$AAL?$AAU@ 000000018002dc50     libucrt:lcidtoname_downlevel.obj
 0002:00006c60       ??_C@_1BG@NFKKMAFG@?$AAb?$AAs?$AA?9?$AAB?$AAA?$AA?9?$AAL?$AAa?$AAt?$AAn@ 000000018002dc60     libucrt:lcidtoname_downlevel.obj
 0002:00006c78       ??_C@_1O@IMNBEMCI@?$AAs?$AAm?$AAj?$AA?9?$AAS?$AAE@ 000000018002dc78     libucrt:lcidtoname_downlevel.obj
 0002:00006c88       ??_C@_1M@DHHMBNDP@?$AAa?$AAr?$AA?9?$AAM?$AAA@ 000000018002dc88     libucrt:lcidtoname_downlevel.obj
 0002:00006c98       ??_C@_1M@BNBLJCGH@?$AAe?$AAn?$AA?9?$AAI?$AAE@ 000000018002dc98     libucrt:lcidtoname_downlevel.obj
 0002:00006ca8       ??_C@_1M@GEPAFMDL@?$AAe?$AAs?$AA?9?$AAP?$AAA@ 000000018002dca8     libucrt:lcidtoname_downlevel.obj
 0002:00006cb8       ??_C@_1M@OJONDMDL@?$AAf?$AAr?$AA?9?$AAM?$AAC@ 000000018002dcb8     libucrt:lcidtoname_downlevel.obj
 0002:00006cc8       ??_C@_1BG@OBCNFJB@?$AAs?$AAr?$AA?9?$AAB?$AAA?$AA?9?$AAL?$AAa?$AAt?$AAn@ 000000018002dcc8     libucrt:lcidtoname_downlevel.obj
 0002:00006ce0       ??_C@_1O@KEMEEGPO@?$AAs?$AAm?$AAa?$AA?9?$AAN?$AAO@ 000000018002dce0     libucrt:lcidtoname_downlevel.obj
 0002:00006cf0       ??_C@_1M@ELMGFODK@?$AAa?$AAr?$AA?9?$AAT?$AAN@ 000000018002dcf0     libucrt:lcidtoname_downlevel.obj
 0002:00006d00       ??_C@_1M@BHDLHFAF@?$AAe?$AAn?$AA?9?$AAZ?$AAA@ 000000018002dd00     libucrt:lcidtoname_downlevel.obj
 0002:00006d10       ??_C@_1M@BMGIGLIF@?$AAe?$AAs?$AA?9?$AAD?$AAO@ 000000018002dd10     libucrt:lcidtoname_downlevel.obj
 0002:00006d20       ??_C@_1BG@CMBHIPBE@?$AAs?$AAr?$AA?9?$AAB?$AAA?$AA?9?$AAC?$AAy?$AAr?$AAl@ 000000018002dd20     libucrt:lcidtoname_downlevel.obj
 0002:00006d38       ??_C@_1O@HEDBLHNP@?$AAs?$AAm?$AAa?$AA?9?$AAS?$AAE@ 000000018002dd38     libucrt:lcidtoname_downlevel.obj
 0002:00006d48       ??_C@_1M@DAGCADIM@?$AAa?$AAr?$AA?9?$AAO?$AAM@ 000000018002dd48     libucrt:lcidtoname_downlevel.obj
 0002:00006d58       ??_C@_1M@FODLMICG@?$AAe?$AAn?$AA?9?$AAJ?$AAM@ 000000018002dd58     libucrt:lcidtoname_downlevel.obj
 0002:00006d68       ??_C@_1M@DNMLCIHB@?$AAe?$AAs?$AA?9?$AAV?$AAE@ 000000018002dd68     libucrt:lcidtoname_downlevel.obj
 0002:00006d78       ??_C@_1O@EOKHMKJK@?$AAs?$AAm?$AAs?$AA?9?$AAF?$AAI@ 000000018002dd78     libucrt:lcidtoname_downlevel.obj
 0002:00006d88       ??_C@_1M@CAFJMKOF@?$AAa?$AAr?$AA?9?$AAY?$AAE@ 000000018002dd88     libucrt:lcidtoname_downlevel.obj
 0002:00006d98       ??_C@_1M@CBFHIJLI@?$AAe?$AAn?$AA?9?$AAC?$AAB@ 000000018002dd98     libucrt:lcidtoname_downlevel.obj
 0002:00006da8       ??_C@_1M@BGNFLDN@?$AAe?$AAs?$AA?9?$AAC?$AAO@ 000000018002dda8     libucrt:lcidtoname_downlevel.obj
 0002:00006db8       ??_C@_1O@JMPHMAMC@?$AAs?$AAm?$AAn?$AA?9?$AAF?$AAI@ 000000018002ddb8     libucrt:lcidtoname_downlevel.obj
 0002:00006dc8       ??_C@_1M@JLANABKE@?$AAa?$AAr?$AA?9?$AAS?$AAY@ 000000018002ddc8     libucrt:lcidtoname_downlevel.obj
 0002:00006dd8       ??_C@_1M@HPKGCFGN@?$AAe?$AAn?$AA?9?$AAB?$AAZ@ 000000018002ddd8     libucrt:lcidtoname_downlevel.obj
 0002:00006de8       ??_C@_1M@OLJCMLGM@?$AAe?$AAs?$AA?9?$AAP?$AAE@ 000000018002dde8     libucrt:lcidtoname_downlevel.obj
 0002:00006df8       ??_C@_1M@MKKGFKLE@?$AAa?$AAr?$AA?9?$AAJ?$AAO@ 000000018002ddf8     libucrt:lcidtoname_downlevel.obj
 0002:00006e08       ??_C@_1M@EKPGLDNI@?$AAe?$AAn?$AA?9?$AAT?$AAT@ 000000018002de08     libucrt:lcidtoname_downlevel.obj
 0002:00006e18       ??_C@_1M@OONGHFHE@?$AAe?$AAs?$AA?9?$AAA?$AAR@ 000000018002de18     libucrt:lcidtoname_downlevel.obj
 0002:00006e28       ??_C@_1M@OOJFGBHE@?$AAa?$AAr?$AA?9?$AAL?$AAB@ 000000018002de28     libucrt:lcidtoname_downlevel.obj
 0002:00006e38       ??_C@_1M@GCEJHNEG@?$AAe?$AAn?$AA?9?$AAZ?$AAW@ 000000018002de38     libucrt:lcidtoname_downlevel.obj
 0002:00006e48       ??_C@_1M@JNOCAHJI@?$AAe?$AAs?$AA?9?$AAE?$AAC@ 000000018002de48     libucrt:lcidtoname_downlevel.obj
 0002:00006e58       ??_C@_1M@JEFHPGGB@?$AAa?$AAr?$AA?9?$AAK?$AAW@ 000000018002de58     libucrt:lcidtoname_downlevel.obj
 0002:00006e68       ??_C@_1M@MLKIBJOJ@?$AAe?$AAn?$AA?9?$AAP?$AAH@ 000000018002de68     libucrt:lcidtoname_downlevel.obj
 0002:00006e78       ??_C@_1M@BDNIPEND@?$AAe?$AAs?$AA?9?$AAC?$AAL@ 000000018002de78     libucrt:lcidtoname_downlevel.obj
 0002:00006e88       ??_C@_1M@MPNMEKBD@?$AAa?$AAr?$AA?9?$AAA?$AAE@ 000000018002de88     libucrt:lcidtoname_downlevel.obj
 0002:00006e98       ??_C@_1M@KBJALCPI@?$AAe?$AAs?$AA?9?$AAU?$AAY@ 000000018002de98     libucrt:lcidtoname_downlevel.obj
 0002:00006ea8       ??_C@_1M@LLCCOAGA@?$AAa?$AAr?$AA?9?$AAB?$AAH@ 000000018002dea8     libucrt:lcidtoname_downlevel.obj
 0002:00006eb8       ??_C@_1M@PBFNCDEL@?$AAe?$AAs?$AA?9?$AAP?$AAY@ 000000018002deb8     libucrt:lcidtoname_downlevel.obj
 0002:00006ec8       ??_C@_1M@EDGINPNP@?$AAa?$AAr?$AA?9?$AAQ?$AAA@ 000000018002dec8     libucrt:lcidtoname_downlevel.obj
 0002:00006ed8       ??_C@_1M@MKDBIIJI@?$AAe?$AAs?$AA?9?$AAB?$AAO@ 000000018002ded8     libucrt:lcidtoname_downlevel.obj
 0002:00006ee8       ??_C@_1M@CPKKEBLD@?$AAe?$AAs?$AA?9?$AAS?$AAV@ 000000018002dee8     libucrt:lcidtoname_downlevel.obj
 0002:00006ef8       ??_C@_1M@NDBGMMJL@?$AAe?$AAs?$AA?9?$AAH?$AAN@ 000000018002def8     libucrt:lcidtoname_downlevel.obj
 0002:00006f08       ??_C@_1M@JIJIBHDP@?$AAe?$AAs?$AA?9?$AAN?$AAI@ 000000018002df08     libucrt:lcidtoname_downlevel.obj
 0002:00006f18       ??_C@_1M@CGFMKEEK@?$AAe?$AAs?$AA?9?$AAP?$AAR@ 000000018002df18     libucrt:lcidtoname_downlevel.obj
 0002:00006f28       ??_C@_1O@ICJHKIIK@?$AAz?$AAh?$AA?9?$AAC?$AAH?$AAT@ 000000018002df28     libucrt:lcidtoname_downlevel.obj
 0002:00006f38       ??_C@_15CLNEJCE@?$AAs?$AAr@ 000000018002df38     libucrt:lcidtoname_downlevel.obj
 0002:00007d80       ??_C@_1M@KAHEKEIG@?$AAa?$AAf?$AA?9?$AAz?$AAa@ 000000018002ed80     libucrt:lcidtoname_downlevel.obj
 0002:00007d90       ??_C@_1M@GIECOABL@?$AAa?$AAr?$AA?9?$AAa?$AAe@ 000000018002ed90     libucrt:lcidtoname_downlevel.obj
 0002:00007da0       ??_C@_1M@BMLMEKGI@?$AAa?$AAr?$AA?9?$AAb?$AAh@ 000000018002eda0     libucrt:lcidtoname_downlevel.obj
 0002:00007db0       ??_C@_1M@DAPFDGGB@?$AAa?$AAr?$AA?9?$AAd?$AAz@ 000000018002edb0     libucrt:lcidtoname_downlevel.obj
 0002:00007dc0       ??_C@_1M@FJNKGKIG@?$AAa?$AAr?$AA?9?$AAe?$AAg@ 000000018002edc0     libucrt:lcidtoname_downlevel.obj
 0002:00007dd0       ??_C@_1M@FLGKKCLO@?$AAa?$AAr?$AA?9?$AAi?$AAq@ 000000018002edd0     libucrt:lcidtoname_downlevel.obj
 0002:00007de0       ??_C@_1M@GNDIPALM@?$AAa?$AAr?$AA?9?$AAj?$AAo@ 000000018002ede0     libucrt:lcidtoname_downlevel.obj
 0002:00007df0       ??_C@_1M@DDMJFMGJ@?$AAa?$AAr?$AA?9?$AAk?$AAw@ 000000018002edf0     libucrt:lcidtoname_downlevel.obj
 0002:00007e00       ??_C@_1M@EJALMLHM@?$AAa?$AAr?$AA?9?$AAl?$AAb@ 000000018002ee00     libucrt:lcidtoname_downlevel.obj
 0002:00007e10       ??_C@_1M@MOBDBLOC@?$AAa?$AAr?$AA?9?$AAl?$AAy@ 000000018002ee10     libucrt:lcidtoname_downlevel.obj
 0002:00007e20       ??_C@_1M@JAOCLHDH@?$AAa?$AAr?$AA?9?$AAm?$AAa@ 000000018002ee20     libucrt:lcidtoname_downlevel.obj
 0002:00007e30       ??_C@_1M@JHPMKJIE@?$AAa?$AAr?$AA?9?$AAo?$AAm@ 000000018002ee30     libucrt:lcidtoname_downlevel.obj
 0002:00007e40       ??_C@_1M@OEPGHFNH@?$AAa?$AAr?$AA?9?$AAq?$AAa@ 000000018002ee40     libucrt:lcidtoname_downlevel.obj
 0002:00007e50       ??_C@_1M@KJDONENM@?$AAa?$AAr?$AA?9?$AAs?$AAa@ 000000018002ee50     libucrt:lcidtoname_downlevel.obj
 0002:00007e60       ??_C@_1M@DMJDKLKM@?$AAa?$AAr?$AA?9?$AAs?$AAy@ 000000018002ee60     libucrt:lcidtoname_downlevel.obj
 0002:00007e70       ??_C@_1M@OMFIPEDC@?$AAa?$AAr?$AA?9?$AAt?$AAn@ 000000018002ee70     libucrt:lcidtoname_downlevel.obj
 0002:00007e80       ??_C@_1M@IHMHGAON@?$AAa?$AAr?$AA?9?$AAy?$AAe@ 000000018002ee80     libucrt:lcidtoname_downlevel.obj
 0002:00007e90       ??_C@_1BG@KDCPGJGB@?$AAa?$AAz?$AA?9?$AAa?$AAz?$AA?9?$AAc?$AAy?$AAr?$AAl@ 000000018002ee90     libucrt:lcidtoname_downlevel.obj
 0002:00007ea8       ??_C@_1BG@IBCKDDOE@?$AAa?$AAz?$AA?9?$AAa?$AAz?$AA?9?$AAl?$AAa?$AAt?$AAn@ 000000018002eea8     libucrt:lcidtoname_downlevel.obj
 0002:00007ec0       ??_C@_1M@EGPFDCPD@?$AAb?$AAe?$AA?9?$AAb?$AAy@ 000000018002eec0     libucrt:lcidtoname_downlevel.obj
 0002:00007ed0       ??_C@_1M@PCMGMCGC@?$AAb?$AAg?$AA?9?$AAb?$AAg@ 000000018002eed0     libucrt:lcidtoname_downlevel.obj
 0002:00007ee0       ??_C@_1M@BJBMFGOB@?$AAb?$AAn?$AA?9?$AAi?$AAn@ 000000018002eee0     libucrt:lcidtoname_downlevel.obj
 0002:00007ef0       ??_C@_1BG@EAKMMACD@?$AAb?$AAs?$AA?9?$AAb?$AAa?$AA?9?$AAl?$AAa?$AAt?$AAn@ 000000018002eef0     libucrt:lcidtoname_downlevel.obj
 0002:00007f08       ??_C@_1M@KGADAODK@?$AAc?$AAa?$AA?9?$AAe?$AAs@ 000000018002ef08     libucrt:lcidtoname_downlevel.obj
 0002:00007f18       ??_C@_1M@COAJPDHI@?$AAc?$AAs?$AA?9?$AAc?$AAz@ 000000018002ef18     libucrt:lcidtoname_downlevel.obj
 0002:00007f28       ??_C@_1M@DHBHFONH@?$AAc?$AAy?$AA?9?$AAg?$AAb@ 000000018002ef28     libucrt:lcidtoname_downlevel.obj
 0002:00007f38       ??_C@_1M@IMGKELGA@?$AAd?$AAa?$AA?9?$AAd?$AAk@ 000000018002ef38     libucrt:lcidtoname_downlevel.obj
 0002:00007f48       ??_C@_1M@NNDGDNGA@?$AAd?$AAe?$AA?9?$AAa?$AAt@ 000000018002ef48     libucrt:lcidtoname_downlevel.obj
 0002:00007f58       ??_C@_1M@IKDBHEEM@?$AAd?$AAe?$AA?9?$AAc?$AAh@ 000000018002ef58     libucrt:lcidtoname_downlevel.obj
 0002:00007f68       ??_C@_1M@GFFOJMCJ@?$AAd?$AAe?$AA?9?$AAd?$AAe@ 000000018002ef68     libucrt:lcidtoname_downlevel.obj
 0002:00007f78       ??_C@_1M@MDNLKBPM@?$AAd?$AAe?$AA?9?$AAl?$AAi@ 000000018002ef78     libucrt:lcidtoname_downlevel.obj
 0002:00007f88       ??_C@_1M@NJBEEJNL@?$AAd?$AAe?$AA?9?$AAl?$AAu@ 000000018002ef88     libucrt:lcidtoname_downlevel.obj
 0002:00007f98       ??_C@_1O@GNNELBAP@?$AAd?$AAi?$AAv?$AA?9?$AAm?$AAv@ 000000018002ef98     libucrt:lcidtoname_downlevel.obj
 0002:00007fa8       ??_C@_1M@EJLEOGAE@?$AAe?$AAl?$AA?9?$AAg?$AAr@ 000000018002efa8     libucrt:lcidtoname_downlevel.obj
 0002:00007fb8       ??_C@_1M@GMPONJN@?$AAe?$AAn?$AA?9?$AAa?$AAu@ 000000018002efb8     libucrt:lcidtoname_downlevel.obj
 0002:00007fc8       ??_C@_1M@NIDIIPGF@?$AAe?$AAn?$AA?9?$AAb?$AAz@ 000000018002efc8     libucrt:lcidtoname_downlevel.obj
 0002:00007fd8       ??_C@_1M@JEHMIMFO@?$AAe?$AAn?$AA?9?$AAc?$AAa@ 000000018002efd8     libucrt:lcidtoname_downlevel.obj
 0002:00007fe8       ??_C@_1M@IGMJCDLA@?$AAe?$AAn?$AA?9?$AAc?$AAb@ 000000018002efe8     libucrt:lcidtoname_downlevel.obj
 0002:00007ff8       ??_C@_1M@BNFIGBKG@?$AAe?$AAn?$AA?9?$AAg?$AAb@ 000000018002eff8     libucrt:lcidtoname_downlevel.obj
 0002:00008008       ??_C@_1M@LKIFDIGP@?$AAe?$AAn?$AA?9?$AAi?$AAe@ 000000018002f008     libucrt:lcidtoname_downlevel.obj
 0002:00008018       ??_C@_1M@PJKFGCCO@?$AAe?$AAn?$AA?9?$AAj?$AAm@ 000000018002f018     libucrt:lcidtoname_downlevel.obj
 0002:00008028       ??_C@_1M@KPPKEPBO@?$AAe?$AAn?$AA?9?$AAn?$AAz@ 000000018002f028     libucrt:lcidtoname_downlevel.obj
 0002:00008038       ??_C@_1M@GMDGLDOB@?$AAe?$AAn?$AA?9?$AAp?$AAh@ 000000018002f038     libucrt:lcidtoname_downlevel.obj
 0002:00008048       ??_C@_1M@ONGIBJNA@?$AAe?$AAn?$AA?9?$AAt?$AAt@ 000000018002f048     libucrt:lcidtoname_downlevel.obj
 0002:00008058       ??_C@_1M@LLODPCMM@?$AAe?$AAn?$AA?9?$AAu?$AAs@ 000000018002f058     libucrt:lcidtoname_downlevel.obj
 0002:00008068       ??_C@_1M@LAKFNPAN@?$AAe?$AAn?$AA?9?$AAz?$AAa@ 000000018002f068     libucrt:lcidtoname_downlevel.obj
 0002:00008078       ??_C@_1M@MFNHNHEO@?$AAe?$AAn?$AA?9?$AAz?$AAw@ 000000018002f078     libucrt:lcidtoname_downlevel.obj
 0002:00008088       ??_C@_1M@EJEINPHM@?$AAe?$AAs?$AA?9?$AAa?$AAr@ 000000018002f088     libucrt:lcidtoname_downlevel.obj
 0002:00008098       ??_C@_1M@GNKPCCJA@?$AAe?$AAs?$AA?9?$AAb?$AAo@ 000000018002f098     libucrt:lcidtoname_downlevel.obj
 0002:000080a8       ??_C@_1M@LEEGFONL@?$AAe?$AAs?$AA?9?$AAc?$AAl@ 000000018002f0a8     libucrt:lcidtoname_downlevel.obj
 0002:000080b8       ??_C@_1M@KGPDPBDF@?$AAe?$AAs?$AA?9?$AAc?$AAo@ 000000018002f0b8     libucrt:lcidtoname_downlevel.obj
 0002:000080c8       ??_C@_1M@EIAHOHH@?$AAe?$AAs?$AA?9?$AAc?$AAr@ 000000018002f0c8     libucrt:lcidtoname_downlevel.obj
 0002:000080d8       ??_C@_1M@LLPGMBIN@?$AAe?$AAs?$AA?9?$AAd?$AAo@ 000000018002f0d8     libucrt:lcidtoname_downlevel.obj
 0002:000080e8       ??_C@_1M@DKHMKNJA@?$AAe?$AAs?$AA?9?$AAe?$AAc@ 000000018002f0e8     libucrt:lcidtoname_downlevel.obj
 0002:000080f8       ??_C@_1M@GKGFPKAP@?$AAe?$AAs?$AA?9?$AAe?$AAs@ 000000018002f0f8     libucrt:lcidtoname_downlevel.obj
 0002:00008108       ??_C@_1M@LKHKGDLN@?$AAe?$AAs?$AA?9?$AAg?$AAt@ 000000018002f108     libucrt:lcidtoname_downlevel.obj
 0002:00008118       ??_C@_1M@HEIIGGJD@?$AAe?$AAs?$AA?9?$AAh?$AAn@ 000000018002f118     libucrt:lcidtoname_downlevel.obj
 0002:00008128       ??_C@_1M@FBDHPPGD@?$AAe?$AAs?$AA?9?$AAm?$AAx@ 000000018002f128     libucrt:lcidtoname_downlevel.obj
 0002:00008138       ??_C@_1M@DPAGLNDH@?$AAe?$AAs?$AA?9?$AAn?$AAi@ 000000018002f138     libucrt:lcidtoname_downlevel.obj
 0002:00008148       ??_C@_1M@MDGOPGDD@?$AAe?$AAs?$AA?9?$AAp?$AAa@ 000000018002f148     libucrt:lcidtoname_downlevel.obj
 0002:00008158       ??_C@_1M@EMAMGBGE@?$AAe?$AAs?$AA?9?$AAp?$AAe@ 000000018002f158     libucrt:lcidtoname_downlevel.obj
 0002:00008168       ??_C@_1M@IBMCAOEC@?$AAe?$AAs?$AA?9?$AAp?$AAr@ 000000018002f168     libucrt:lcidtoname_downlevel.obj
 0002:00008178       ??_C@_1M@FGMDIJED@?$AAe?$AAs?$AA?9?$AAp?$AAy@ 000000018002f178     libucrt:lcidtoname_downlevel.obj
 0002:00008188       ??_C@_1M@IIDEOLLL@?$AAe?$AAs?$AA?9?$AAs?$AAv@ 000000018002f188     libucrt:lcidtoname_downlevel.obj
 0002:00008198       ??_C@_1M@GAOBIPA@?$AAe?$AAs?$AA?9?$AAu?$AAy@ 000000018002f198     libucrt:lcidtoname_downlevel.obj
 0002:000081a8       ??_C@_1M@JKFFICHJ@?$AAe?$AAs?$AA?9?$AAv?$AAe@ 000000018002f1a8     libucrt:lcidtoname_downlevel.obj
 0002:000081b8       ??_C@_1M@PNMLOJDF@?$AAe?$AAt?$AA?9?$AAe?$AAe@ 000000018002f1b8     libucrt:lcidtoname_downlevel.obj
 0002:000081c8       ??_C@_1M@GHHLIKEI@?$AAe?$AAu?$AA?9?$AAe?$AAs@ 000000018002f1c8     libucrt:lcidtoname_downlevel.obj
 0002:000081d8       ??_C@_1M@PBNONODE@?$AAf?$AAa?$AA?9?$AAi?$AAr@ 000000018002f1d8     libucrt:lcidtoname_downlevel.obj
 0002:000081e8       ??_C@_1M@JEEHPMIL@?$AAf?$AAi?$AA?9?$AAf?$AAi@ 000000018002f1e8     libucrt:lcidtoname_downlevel.obj
 0002:000081f8       ??_C@_1M@LMDCNDBA@?$AAf?$AAo?$AA?9?$AAf?$AAo@ 000000018002f1f8     libucrt:lcidtoname_downlevel.obj
 0002:00008208       ??_C@_1M@JKEOHLDK@?$AAf?$AAr?$AA?9?$AAb?$AAe@ 000000018002f208     libucrt:lcidtoname_downlevel.obj
 0002:00008218       ??_C@_1M@NOHADPMI@?$AAf?$AAr?$AA?9?$AAc?$AAa@ 000000018002f218     libucrt:lcidtoname_downlevel.obj
 0002:00008228       ??_C@_1M@KDHIHAEC@?$AAf?$AAr?$AA?9?$AAc?$AAh@ 000000018002f228     libucrt:lcidtoname_downlevel.obj
 0002:00008238       ??_C@_1M@MMBBFGAK@?$AAf?$AAr?$AA?9?$AAf?$AAr@ 000000018002f238     libucrt:lcidtoname_downlevel.obj
 0002:00008248       ??_C@_1M@PAFNENNF@?$AAf?$AAr?$AA?9?$AAl?$AAu@ 000000018002f248     libucrt:lcidtoname_downlevel.obj
 0002:00008258       ??_C@_1M@EOHDJGDD@?$AAf?$AAr?$AA?9?$AAm?$AAc@ 000000018002f258     libucrt:lcidtoname_downlevel.obj
 0002:00008268       ??_C@_1M@FAPLLOPF@?$AAg?$AAl?$AA?9?$AAe?$AAs@ 000000018002f268     libucrt:lcidtoname_downlevel.obj
 0002:00008278       ??_C@_1M@FOPBFLOO@?$AAg?$AAu?$AA?9?$AAi?$AAn@ 000000018002f278     libucrt:lcidtoname_downlevel.obj
 0002:00008288       ??_C@_1M@KBMCINPM@?$AAh?$AAe?$AA?9?$AAi?$AAl@ 000000018002f288     libucrt:lcidtoname_downlevel.obj
 0002:00008298       ??_C@_1M@BBPHKFPJ@?$AAh?$AAi?$AA?9?$AAi?$AAn@ 000000018002f298     libucrt:lcidtoname_downlevel.obj
 0002:000082a8       ??_C@_1M@PMBNDPHD@?$AAh?$AAr?$AA?9?$AAb?$AAa@ 000000018002f2a8     libucrt:lcidtoname_downlevel.obj
 0002:000082b8       ??_C@_1M@BPCKOEGE@?$AAh?$AAr?$AA?9?$AAh?$AAr@ 000000018002f2b8     libucrt:lcidtoname_downlevel.obj
 0002:000082c8       ??_C@_1M@GACBMHKE@?$AAh?$AAu?$AA?9?$AAh?$AAu@ 000000018002f2c8     libucrt:lcidtoname_downlevel.obj
 0002:000082d8       ??_C@_1M@MILPAJJC@?$AAh?$AAy?$AA?9?$AAa?$AAm@ 000000018002f2d8     libucrt:lcidtoname_downlevel.obj
 0002:000082e8       ??_C@_1M@BABBICEC@?$AAi?$AAd?$AA?9?$AAi?$AAd@ 000000018002f2e8     libucrt:lcidtoname_downlevel.obj
 0002:000082f8       ??_C@_1M@BIKNHHPF@?$AAi?$AAs?$AA?9?$AAi?$AAs@ 000000018002f2f8     libucrt:lcidtoname_downlevel.obj
 0002:00008308       ??_C@_1M@NMPCJPHE@?$AAi?$AAt?$AA?9?$AAc?$AAh@ 000000018002f308     libucrt:lcidtoname_downlevel.obj
 0002:00008318       ??_C@_1M@GHKGFEDF@?$AAi?$AAt?$AA?9?$AAi?$AAt@ 000000018002f318     libucrt:lcidtoname_downlevel.obj
 0002:00008328       ??_C@_1M@NIEJCJJA@?$AAj?$AAa?$AA?9?$AAj?$AAp@ 000000018002f328     libucrt:lcidtoname_downlevel.obj
 0002:00008338       ??_C@_1M@JILFNBIM@?$AAk?$AAa?$AA?9?$AAg?$AAe@ 000000018002f338     libucrt:lcidtoname_downlevel.obj
 0002:00008348       ??_C@_1M@PACPMGPH@?$AAk?$AAk?$AA?9?$AAk?$AAz@ 000000018002f348     libucrt:lcidtoname_downlevel.obj
 0002:00008358       ??_C@_1M@IELFGMHA@?$AAk?$AAn?$AA?9?$AAi?$AAn@ 000000018002f358     libucrt:lcidtoname_downlevel.obj
 0002:00008368       ??_C@_1O@IBBJHCH@?$AAk?$AAo?$AAk?$AA?9?$AAi?$AAn@ 000000018002f368     libucrt:lcidtoname_downlevel.obj
 0002:00008378       ??_C@_1M@DMHAEOGC@?$AAk?$AAo?$AA?9?$AAk?$AAr@ 000000018002f378     libucrt:lcidtoname_downlevel.obj
 0002:00008388       ??_C@_1M@HBAHBIGA@?$AAk?$AAy?$AA?9?$AAk?$AAg@ 000000018002f388     libucrt:lcidtoname_downlevel.obj
 0002:00008398       ??_C@_1M@KPMILCJG@?$AAl?$AAt?$AA?9?$AAl?$AAt@ 000000018002f398     libucrt:lcidtoname_downlevel.obj
 0002:000083a8       ??_C@_1M@BDEKKCA@?$AAl?$AAv?$AA?9?$AAl?$AAv@ 000000018002f3a8     libucrt:lcidtoname_downlevel.obj
 0002:000083b8       ??_C@_1M@ELCKCCJJ@?$AAm?$AAi?$AA?9?$AAn?$AAz@ 000000018002f3b8     libucrt:lcidtoname_downlevel.obj
 0002:000083c8       ??_C@_1M@CBOOLAPA@?$AAm?$AAk?$AA?9?$AAm?$AAk@ 000000018002f3c8     libucrt:lcidtoname_downlevel.obj
 0002:000083d8       ??_C@_1M@GPHNBJKN@?$AAm?$AAl?$AA?9?$AAi?$AAn@ 000000018002f3d8     libucrt:lcidtoname_downlevel.obj
 0002:000083e8       ??_C@_1M@PABJILIG@?$AAm?$AAn?$AA?9?$AAm?$AAn@ 000000018002f3e8     libucrt:lcidtoname_downlevel.obj
 0002:000083f8       ??_C@_1M@FGBKKIPG@?$AAm?$AAr?$AA?9?$AAi?$AAn@ 000000018002f3f8     libucrt:lcidtoname_downlevel.obj
 0002:00008408       ??_C@_1M@NDBPDDAL@?$AAm?$AAs?$AA?9?$AAb?$AAn@ 000000018002f408     libucrt:lcidtoname_downlevel.obj
 0002:00008418       ??_C@_1M@OPIHOOPI@?$AAm?$AAs?$AA?9?$AAm?$AAy@ 000000018002f418     libucrt:lcidtoname_downlevel.obj
 0002:00008428       ??_C@_1M@PPDBCNFM@?$AAm?$AAt?$AA?9?$AAm?$AAt@ 000000018002f428     libucrt:lcidtoname_downlevel.obj
 0002:00008438       ??_C@_1M@KDJDKMDD@?$AAn?$AAb?$AA?9?$AAn?$AAo@ 000000018002f438     libucrt:lcidtoname_downlevel.obj
 0002:00008448       ??_C@_1M@KFCFLMJP@?$AAn?$AAl?$AA?9?$AAb?$AAe@ 000000018002f448     libucrt:lcidtoname_downlevel.obj
 0002:00008458       ??_C@_1M@KPOPDDGO@?$AAn?$AAl?$AA?9?$AAn?$AAl@ 000000018002f458     libucrt:lcidtoname_downlevel.obj
 0002:00008468       ??_C@_1M@LJKPEMLN@?$AAn?$AAn?$AA?9?$AAn?$AAo@ 000000018002f468     libucrt:lcidtoname_downlevel.obj
 0002:00008478       ??_C@_1M@BDGHHBFL@?$AAn?$AAs?$AA?9?$AAz?$AAa@ 000000018002f478     libucrt:lcidtoname_downlevel.obj
 0002:00008488       ??_C@_1M@IDEHOAP@?$AAp?$AAa?$AA?9?$AAi?$AAn@ 000000018002f488     libucrt:lcidtoname_downlevel.obj
 0002:00008498       ??_C@_1M@HDBKGOGH@?$AAp?$AAl?$AA?9?$AAp?$AAl@ 000000018002f498     libucrt:lcidtoname_downlevel.obj
 0002:000084a8       ??_C@_1M@LJLLCMEH@?$AAp?$AAt?$AA?9?$AAb?$AAr@ 000000018002f4a8     libucrt:lcidtoname_downlevel.obj
 0002:000084b8       ??_C@_1M@NCMONAAL@?$AAp?$AAt?$AA?9?$AAp?$AAt@ 000000018002f4b8     libucrt:lcidtoname_downlevel.obj
 0002:000084c8       ??_C@_1O@EAKMAJDN@?$AAq?$AAu?$AAz?$AA?9?$AAb?$AAo@ 000000018002f4c8     libucrt:lcidtoname_downlevel.obj
 0002:000084d8       ??_C@_1O@BHHPIGDN@?$AAq?$AAu?$AAz?$AA?9?$AAe?$AAc@ 000000018002f4d8     libucrt:lcidtoname_downlevel.obj
 0002:000084e8       ??_C@_1O@GBAPEKMJ@?$AAq?$AAu?$AAz?$AA?9?$AAp?$AAe@ 000000018002f4e8     libucrt:lcidtoname_downlevel.obj
 0002:000084f8       ??_C@_1M@CLGLEFBO@?$AAr?$AAo?$AA?9?$AAr?$AAo@ 000000018002f4f8     libucrt:lcidtoname_downlevel.obj
 0002:00008508       ??_C@_1M@CEEDODME@?$AAr?$AAu?$AA?9?$AAr?$AAu@ 000000018002f508     libucrt:lcidtoname_downlevel.obj
 0002:00008518       ??_C@_1M@HPKKKMPP@?$AAs?$AAa?$AA?9?$AAi?$AAn@ 000000018002f518     libucrt:lcidtoname_downlevel.obj
 0002:00008528       ??_C@_1M@BKMAIGOJ@?$AAs?$AAe?$AA?9?$AAf?$AAi@ 000000018002f528     libucrt:lcidtoname_downlevel.obj
 0002:00008538       ??_C@_1M@NDPIFLFI@?$AAs?$AAe?$AA?9?$AAn?$AAo@ 000000018002f538     libucrt:lcidtoname_downlevel.obj
 0002:00008548       ??_C@_1M@DANKKHJ@?$AAs?$AAe?$AA?9?$AAs?$AAe@ 000000018002f548     libucrt:lcidtoname_downlevel.obj
 0002:00008558       ??_C@_1M@PNBLONPJ@?$AAs?$AAk?$AA?9?$AAs?$AAk@ 000000018002f558     libucrt:lcidtoname_downlevel.obj
 0002:00008568       ??_C@_1M@LFMODOAL@?$AAs?$AAl?$AA?9?$AAs?$AAi@ 000000018002f568     libucrt:lcidtoname_downlevel.obj
 0002:00008578       ??_C@_1O@DFKOMPG@?$AAs?$AAm?$AAa?$AA?9?$AAn?$AAo@ 000000018002f578     libucrt:lcidtoname_downlevel.obj
 0002:00008588       ??_C@_1O@NDKPBNNH@?$AAs?$AAm?$AAa?$AA?9?$AAs?$AAe@ 000000018002f588     libucrt:lcidtoname_downlevel.obj
 0002:00008598       ??_C@_1O@PLLKBHAB@?$AAs?$AAm?$AAj?$AA?9?$AAn?$AAo@ 000000018002f598     libucrt:lcidtoname_downlevel.obj
 0002:000085a8       ??_C@_1O@CLEPOGCA@?$AAs?$AAm?$AAj?$AA?9?$AAs?$AAe@ 000000018002f5a8     libucrt:lcidtoname_downlevel.obj
 0002:000085b8       ??_C@_1O@DLGJGKMK@?$AAs?$AAm?$AAn?$AA?9?$AAf?$AAi@ 000000018002f5b8     libucrt:lcidtoname_downlevel.obj
 0002:000085c8       ??_C@_1O@OJDJGAJC@?$AAs?$AAm?$AAs?$AA?9?$AAf?$AAi@ 000000018002f5c8     libucrt:lcidtoname_downlevel.obj
 0002:000085d8       ??_C@_1M@BOFOGHPB@?$AAs?$AAq?$AA?9?$AAa?$AAl@ 000000018002f5d8     libucrt:lcidtoname_downlevel.obj
 0002:000085e8       ??_C@_1BG@LJBBIPGB@?$AAs?$AAr?$AA?9?$AAb?$AAa?$AA?9?$AAc?$AAy?$AAr?$AAl@ 000000018002f5e8     libucrt:lcidtoname_downlevel.obj
 0002:00008600       ??_C@_1BG@JLBENFOE@?$AAs?$AAr?$AA?9?$AAb?$AAa?$AA?9?$AAl?$AAa?$AAt?$AAn@ 000000018002f600     libucrt:lcidtoname_downlevel.obj
 0002:00008618       ??_C@_1BG@KODPNHE@?$AAs?$AAr?$AA?9?$AAs?$AAp?$AA?9?$AAc?$AAy?$AAr?$AAl@ 000000018002f618     libucrt:lcidtoname_downlevel.obj
 0002:00008630       ??_C@_1BG@CIOGKHPB@?$AAs?$AAr?$AA?9?$AAs?$AAp?$AA?9?$AAl?$AAa?$AAt?$AAn@ 000000018002f630     libucrt:lcidtoname_downlevel.obj
 0002:00008648       ??_C@_1M@NGFJLMAC@?$AAs?$AAv?$AA?9?$AAf?$AAi@ 000000018002f648     libucrt:lcidtoname_downlevel.obj
 0002:00008658       ??_C@_1M@MPJEJAJC@?$AAs?$AAv?$AA?9?$AAs?$AAe@ 000000018002f658     libucrt:lcidtoname_downlevel.obj
 0002:00008668       ??_C@_1M@MPNDHLFK@?$AAs?$AAw?$AA?9?$AAk?$AAe@ 000000018002f668     libucrt:lcidtoname_downlevel.obj
 0002:00008678       ??_C@_1O@KOHBJJI@?$AAs?$AAy?$AAr?$AA?9?$AAs?$AAy@ 000000018002f678     libucrt:lcidtoname_downlevel.obj
 0002:00008688       ??_C@_1M@LDCEFHA@?$AAt?$AAa?$AA?9?$AAi?$AAn@ 000000018002f688     libucrt:lcidtoname_downlevel.obj
 0002:00008698       ??_C@_1M@CNJOFAK@?$AAt?$AAe?$AA?9?$AAi?$AAn@ 000000018002f698     libucrt:lcidtoname_downlevel.obj
 0002:000086a8       ??_C@_1M@GNAECACD@?$AAt?$AAh?$AA?9?$AAt?$AAh@ 000000018002f6a8     libucrt:lcidtoname_downlevel.obj
 0002:000086b8       ??_C@_1M@CHBIHOJO@?$AAt?$AAn?$AA?9?$AAz?$AAa@ 000000018002f6b8     libucrt:lcidtoname_downlevel.obj
 0002:000086c8       ??_C@_1M@GCCMIGPJ@?$AAt?$AAr?$AA?9?$AAt?$AAr@ 000000018002f6c8     libucrt:lcidtoname_downlevel.obj
 0002:000086d8       ??_C@_1M@CELMCNBK@?$AAt?$AAt?$AA?9?$AAr?$AAu@ 000000018002f6d8     libucrt:lcidtoname_downlevel.obj
 0002:000086e8       ??_C@_1M@KLMCELGA@?$AAu?$AAk?$AA?9?$AAu?$AAa@ 000000018002f6e8     libucrt:lcidtoname_downlevel.obj
 0002:000086f8       ??_C@_1M@EPAJJAJF@?$AAu?$AAr?$AA?9?$AAp?$AAk@ 000000018002f6f8     libucrt:lcidtoname_downlevel.obj
 0002:00008708       ??_C@_1BG@GEGPMCDJ@?$AAu?$AAz?$AA?9?$AAu?$AAz?$AA?9?$AAc?$AAy?$AAr?$AAl@ 000000018002f708     libucrt:lcidtoname_downlevel.obj
 0002:00008720       ??_C@_1BG@EGGKJILM@?$AAu?$AAz?$AA?9?$AAu?$AAz?$AA?9?$AAl?$AAa?$AAt?$AAn@ 000000018002f720     libucrt:lcidtoname_downlevel.obj
 0002:00008738       ??_C@_1M@GFOCLFF@?$AAv?$AAi?$AA?9?$AAv?$AAn@ 000000018002f738     libucrt:lcidtoname_downlevel.obj
 0002:00008748       ??_C@_1M@CPAMEDFI@?$AAx?$AAh?$AA?9?$AAz?$AAa@ 000000018002f748     libucrt:lcidtoname_downlevel.obj
 0002:00008758       ??_C@_1O@EBKIFIGN@?$AAz?$AAh?$AA?9?$AAc?$AAh?$AAs@ 000000018002f758     libucrt:lcidtoname_downlevel.obj
 0002:00008768       ??_C@_1O@NMHPGANE@?$AAz?$AAh?$AA?9?$AAc?$AAh?$AAt@ 000000018002f768     libucrt:lcidtoname_downlevel.obj
 0002:00008778       ??_C@_1M@LPINJOMC@?$AAz?$AAh?$AA?9?$AAc?$AAn@ 000000018002f778     libucrt:lcidtoname_downlevel.obj
 0002:00008788       ??_C@_1M@OCJEJODD@?$AAz?$AAh?$AA?9?$AAh?$AAk@ 000000018002f788     libucrt:lcidtoname_downlevel.obj
 0002:00008798       ??_C@_1M@DNDLJINH@?$AAz?$AAh?$AA?9?$AAm?$AAo@ 000000018002f798     libucrt:lcidtoname_downlevel.obj
 0002:000087a8       ??_C@_1M@MBFDNDND@?$AAz?$AAh?$AA?9?$AAs?$AAg@ 000000018002f7a8     libucrt:lcidtoname_downlevel.obj
 0002:000087b8       ??_C@_1M@IMEPLEPE@?$AAz?$AAh?$AA?9?$AAt?$AAw@ 000000018002f7b8     libucrt:lcidtoname_downlevel.obj
 0002:000087c8       ??_C@_1M@BBGHNHJP@?$AAz?$AAu?$AA?9?$AAz?$AAa@ 000000018002f7c8     libucrt:lcidtoname_downlevel.obj
 0002:000087e0       ?large_power_data@?1??multiply_by_power_of_ten@__crt_strtox@@YA_NAEAUbig_integer@2@I@Z@4QBIB 000000018002f7e0     libucrt:cfout.obj
 0002:000090f0       ?large_power_indices@?1??multiply_by_power_of_ten@__crt_strtox@@YA_NAEAUbig_integer@2@I@Z@4QBUunpack_index@?1??12@YA_N0I@Z@B 00000001800300f0     libucrt:cfout.obj
 0002:00009188       ?small_powers_of_ten@?1??multiply_by_power_of_ten@__crt_strtox@@YA_NAEAUbig_integer@2@I@Z@4QBIB 0000000180030188     libucrt:cfout.obj
 0002:000091ac       ??_C@_01GBGANLPD@0@        00000001800301ac     libucrt:cfout.obj
 0002:000091b0       ??_C@_05DNEBIAHO@1?$CDINF@ 00000001800301b0     libucrt:cfout.obj
 0002:000091b8       ??_C@_06IMKFLFPG@1?$CDQNAN@ 00000001800301b8     libucrt:cfout.obj
 0002:000091c0       ??_C@_06PGGFOGJG@1?$CDSNAN@ 00000001800301c0     libucrt:cfout.obj
 0002:000091c8       ??_C@_05PHHOCPM@1?$CDIND@  00000001800301c8     libucrt:cfout.obj
 0002:000091f8       __real@3ff0000000000000    00000001800301f8     libucrt:ceil.obj
 0002:00009450       __log10_256_lead           0000000180030450     libucrt:log10_256_lead_tail_table.obj
 0002:00009c60       __log10_256_tail           0000000180030c60     libucrt:log10_256_lead_tail_table.obj
 0002:0000a470       __log_F_inv_qword          0000000180031470     libucrt:log_f_inv_qword_table.obj
 0002:0000ac80       ??_C@_05HGHHAHAP@log10@    0000000180031c80     libucrt:log_special.obj
 0002:0000ac88       ??_C@_1BA@BALFACEM@?$AAC?$AAO?$AAN?$AAO?$AAU?$AAT?$AA$@ 0000000180031c88     libucrt:initcon.obj
 0002:0000ad10       _load_config_used          0000000180031d10     LIBCMT:loadcfg.obj
 0002:0000ae80       _tls_used                  0000000180031e80     LIBCMT:tlssup.obj
 0002:0000aea8       ??_R4exception@std@@6B@    0000000180031ea8     LIBCMT:throw_bad_alloc.obj
 0002:0000aed0       ??_R3exception@std@@8      0000000180031ed0     LIBCMT:throw_bad_alloc.obj
 0002:0000aee8       ??_R2exception@std@@8      0000000180031ee8     LIBCMT:throw_bad_alloc.obj
 0002:0000aef8       ??_R1A@?0A@EA@exception@std@@8 0000000180031ef8     LIBCMT:throw_bad_alloc.obj
 0002:0000af20       ??_R4bad_alloc@std@@6B@    0000000180031f20     LIBCMT:throw_bad_alloc.obj
 0002:0000af48       ??_R3bad_alloc@std@@8      0000000180031f48     LIBCMT:throw_bad_alloc.obj
 0002:0000af60       ??_R2bad_alloc@std@@8      0000000180031f60     LIBCMT:throw_bad_alloc.obj
 0002:0000af78       ??_R1A@?0A@EA@bad_alloc@std@@8 0000000180031f78     LIBCMT:throw_bad_alloc.obj
 0002:0000afa0       ??_R4bad_array_new_length@std@@6B@ 0000000180031fa0     LIBCMT:throw_bad_alloc.obj
 0002:0000afc8       ??_R3bad_array_new_length@std@@8 0000000180031fc8     LIBCMT:throw_bad_alloc.obj
 0002:0000afe0       ??_R2bad_array_new_length@std@@8 0000000180031fe0     LIBCMT:throw_bad_alloc.obj
 0002:0000b000       ??_R1A@?0A@EA@bad_array_new_length@std@@8 0000000180032000     LIBCMT:throw_bad_alloc.obj
 0002:0000b028       ??_R4type_info@@6B@        0000000180032028     LIBCMT:std_type_info_static.obj
 0002:0000b050       ??_R3type_info@@8          0000000180032050     LIBCMT:std_type_info_static.obj
 0002:0000b068       ??_R2type_info@@8          0000000180032068     LIBCMT:std_type_info_static.obj
 0002:0000b078       ??_R1A@?0A@EA@type_info@@8 0000000180032078     LIBCMT:std_type_info_static.obj
 0002:0000b0a0       ??_R4bad_exception@std@@6B@ 00000001800320a0     libvcruntime:frame.obj
 0002:0000b0c8       ??_R3bad_exception@std@@8  00000001800320c8     libvcruntime:frame.obj
 0002:0000b0e0       ??_R2bad_exception@std@@8  00000001800320e0     libvcruntime:frame.obj
 0002:0000b0f8       ??_R1A@?0A@EA@bad_exception@std@@8 00000001800320f8     libvcruntime:frame.obj
 0002:0000b11c       __volatile_metadata        000000018003211c     <linker-defined>
 0002:0000b590       __rtc_iaa                  0000000180032590     LIBCMT:initsect.obj
 0002:0000b598       __rtc_izz                  0000000180032598     LIBCMT:initsect.obj
 0002:0000b5a0       __rtc_taa                  00000001800325a0     LIBCMT:initsect.obj
 0002:0000b5a8       __rtc_tzz                  00000001800325a8     LIBCMT:initsect.obj
 0002:0000b5b0       _tls_start                 00000001800325b0     LIBCMT:tlssup.obj
 0002:0000b5b4       _Init_thread_epoch         00000001800325b4     LIBCMT:thread_safe_statics.obj
 0002:0000b5b8       _tls_end                   00000001800325b8     LIBCMT:tlssup.obj
 0002:0000cf48       _TI2?AVbad_alloc@std@@     0000000180033f48     LIBCMT:throw_bad_alloc.obj
 0002:0000cf68       _CTA2?AVbad_alloc@std@@    0000000180033f68     LIBCMT:throw_bad_alloc.obj
 0002:0000cf80       _CT??_R0?AVbad_alloc@std@@@8??0bad_alloc@std@@QEAA@AEBV01@@Z24 0000000180033f80     LIBCMT:throw_bad_alloc.obj
 0002:0000cfa8       _CT??_R0?AVexception@std@@@8??0exception@std@@QEAA@AEBV01@@Z24 0000000180033fa8     LIBCMT:throw_bad_alloc.obj
 0002:0000cfd0       _TI3?AVbad_array_new_length@std@@ 0000000180033fd0     LIBCMT:throw_bad_alloc.obj
 0002:0000cff0       _CTA3?AVbad_array_new_length@std@@ 0000000180033ff0     LIBCMT:throw_bad_alloc.obj
 0002:0000d010       _CT??_R0?AVbad_array_new_length@std@@@8??0bad_array_new_length@std@@QEAA@AEBV01@@Z24 0000000180034010     LIBCMT:throw_bad_alloc.obj
 0002:0000d038       _TI2?AVbad_exception@std@@ 0000000180034038     libvcruntime:frame.obj
 0002:0000d058       _CTA2?AVbad_exception@std@@ 0000000180034058     libvcruntime:frame.obj
 0002:0000d070       _CT??_R0?AVbad_exception@std@@@8??0bad_exception@std@@QEAA@AEBV01@@Z24 0000000180034070     libvcruntime:frame.obj
 0002:0000d098       __pobjMapEntryFirst        0000000180034098     OposVariant.obj
 0002:0000d0a0       __pobjMapEntryLast         00000001800340a0     OposVariant.obj
 0002:0000d154       __IMPORT_DESCRIPTOR_KERNEL32 0000000180034154     kernel32:KERNEL32.dll
 0002:0000d168       __IMPORT_DESCRIPTOR_USER32 0000000180034168     user32:USER32.dll
 0002:0000d17c       __IMPORT_DESCRIPTOR_GDI32  000000018003417c     gdi32:GDI32.dll
 0002:0000d190       __IMPORT_DESCRIPTOR_ADVAPI32 0000000180034190     advapi32:ADVAPI32.dll
 0002:0000d1a4       __IMPORT_DESCRIPTOR_ole32  00000001800341a4     ole32:ole32.dll
 0002:0000d1b8       __IMPORT_DESCRIPTOR_OLEAUT32 00000001800341b8     oleaut32:OLEAUT32.dll
 0002:0000d1cc       __NULL_IMPORT_DESCRIPTOR   00000001800341cc     kernel32:KERNEL32.dll
 0003:00000000       ?rcDefault@CWindow@ATL@@2UtagRECT@@A 0000000180036000     CAT.obj
 0003:00000010       ?s_Claim@?7??GetIDsOfNames@CComTypeInfoHolder@ATL@@QEAAJAEBU_GUID@@PEAPEA_WIKPEAJ@Z@4PA_WA 0000000180036010     CAT.obj
 0003:00000028       ?s_Release@?7??GetIDsOfNames@CComTypeInfoHolder@ATL@@QEAAJAEBU_GUID@@PEAPEA_WIKPEAJ@Z@4PA_WA 0000000180036028     CAT.obj
 0003:00000048       ?_tih@?$IDispatchImpl@UIOPOSCAT@@$1?IID_IOPOSCAT@@3U_GUID@@B$1?LIBID_OposCAT_CCO@@3U3@B$00$0A@VCComTypeInfoHolder@ATL@@@ATL@@1VCComTypeInfoHolder@2@A 0000000180036048     CAT.obj
 0003:00000080       ?_tih@?$IProvideClassInfo2Impl@$1?CLSID_OPOSCAT@@3U_GUID@@B$1?DIID__IOPOSCATEvents@@3U2@B$1?LIBID_OposCAT_CCO@@3U2@B$00$0A@VCComTypeInfoHolder@ATL@@@ATL@@1VCComTypeInfoHolder@2@A 0000000180036080     CAT.obj
 0003:000000b8       ?vszContents@?6??Save@?$IPersistStorageImpl@VCOPOSCAT@@@ATL@@UEAAJPEAUIStorage@@H@Z@4PEB_WEB 00000001800360b8     CAT.obj
 0003:000000c0       ?wc@?1??GetWndClassInfo@?$CWindowImpl@VCOPOSCAT@@VCWindow@ATL@@V?$CWinTraits@$0FGAAAAAA@$0A@@3@@ATL@@SAAEAU_ATL_WNDCLASSINFOW@3@XZ@4U43@A 00000001800360c0     CAT.obj
 0003:00000250       ?g_WindowName@@3PA_WA      0000000180036250     CATImpl.obj
 0003:00000270       ?g_ControlDescription@@3PADA 0000000180036270     CATImpl.obj
 0003:000002b4       ?g_ControlVersion@@3JA     00000001800362b4     CATImpl.obj
 0003:000003c8       __scrt_native_dllmain_reason 00000001800363c8     LIBCMT:utility.obj
 0003:000003cc       _Init_global_epoch         00000001800363cc     LIBCMT:thread_safe_statics.obj
 0003:000003d0       __security_cookie          00000001800363d0     LIBCMT:gs_cookie.obj
 0003:000003d8       __security_cookie_complement 00000001800363d8     LIBCMT:gs_cookie.obj
 0003:000003e0       __isa_available            00000001800363e0     LIBCMT:cpu_disp.obj
 0003:000003e4       __isa_enabled              00000001800363e4     LIBCMT:cpu_disp.obj
 0003:000003e8       __memcpy_nt_iters          00000001800363e8     LIBCMT:cpu_disp.obj
 0003:000003f0       __memset_nt_iters          00000001800363f0     LIBCMT:cpu_disp.obj
 0003:00000418       __abort_behavior           0000000180036418     libucrt:abort.obj
 0003:00000430       __acrt_initial_locale_data 0000000180036430     libucrt:nlsdata.obj
 0003:00000588       __acrt_initial_locale_pointers 0000000180036588     libucrt:nlsdata.obj
 0003:00000598       __acrt_wide_c_locale_string 0000000180036598     libucrt:nlsdata.obj
 0003:000005a0       _iob                       00000001800365a0     libucrt:_file.obj
 0003:000006b0       __acrt_initial_multibyte_data 00000001800366b0     libucrt:mbctype.obj
 0003:00000bf0       __acrt_lconv_c             0000000180036bf0     libucrt:localeconv.obj
 0003:00000c88       __acrt_lconv_static_decimal 0000000180036c88     libucrt:localeconv.obj
 0003:00000c8c       __acrt_lconv_static_W_decimal 0000000180036c8c     libucrt:localeconv.obj
 0003:00000c90       __globallocalestatus       0000000180036c90     libucrt:glstatus.obj
 0003:00000ca0       _lookuptrailbytes          0000000180036ca0     libucrt:read.obj
 0003:00000dc4       _fltused                   0000000180036dc4     LIBCMT:fltused.obj
 0003:00000dc8       ??_R0?AVbad_alloc@std@@@8  0000000180036dc8     LIBCMT:throw_bad_alloc.obj
 0003:00000df0       ??_R0?AVexception@std@@@8  0000000180036df0     LIBCMT:throw_bad_alloc.obj
 0003:00000e18       ??_R0?AVbad_array_new_length@std@@@8 0000000180036e18     LIBCMT:throw_bad_alloc.obj
 0003:00000e48       ??_R0?AVbad_exception@std@@@8 0000000180036e48     libvcruntime:frame.obj
 0003:00000e70       ??_R0?AVtype_info@@@8      0000000180036e70     LIBCMT:std_type_info_static.obj
 0003:00000e90       ?m_bInitFailed@CAtlBaseModule@ATL@@2_NA 0000000180036e90     OposVariant.obj
 0003:00000e98       ?_pPerfRegFunc@ATL@@3P6AJPEAUHINSTANCE__@@@ZEA 0000000180036e98     OposVariant.obj
 0003:00000ea0       ?_pPerfUnRegFunc@ATL@@3P6AJXZEA 0000000180036ea0     OposVariant.obj
 0003:00000ea8       ?_AtlRegisterPerUser@ATL@@3_NA 0000000180036ea8     OposVariant.obj
 0003:00000eb0       ?_pAtlModule@ATL@@3PEAVCAtlModule@1@EA 0000000180036eb0     OposVariant.obj
 0003:00000eb8       ?_pModule@ATL@@3PEAVCComModule@1@EA 0000000180036eb8     OposVariant.obj
 0003:00000ec0       ?_AtlComModule@ATL@@3VCAtlComModule@1@A 0000000180036ec0     OposVariant.obj
 0003:00000f10       ?_AtlWinModule@ATL@@3VCAtlWinModule@1@A 0000000180036f10     OposVariant.obj
 0003:00000f58       ?m_libid@CAtlModule@ATL@@2U_GUID@@A 0000000180036f58     CAT.obj
 0003:00000f68       ?_entries@?1??GetConnMap@COPOSCAT@@SAPEBU_ATL_CONNMAP_ENTRY@ATL@@PEAH@Z@4QBU34@B 0000000180036f68     CAT.obj
 0003:00000f80       ?$TSS0@?1??GetConnMap@COPOSCAT@@SAPEBU_ATL_CONNMAP_ENTRY@ATL@@PEAH@Z@4HA 0000000180036f80     CAT.obj
 0003:00000f88       ?_OptionsStorage@?1??__local_stdio_printf_options@@9@4_KA 0000000180036f88     CAT.obj
 0003:00000f90       ?pfnRegDeleteKeyEx@?1??DeleteSubKey@CRegKey@ATL@@QEAAJPEB_W@Z@4P6AJPEAUHKEY__@@0KK@ZEA 0000000180036f90     CAT.obj
 0003:00000f98       ?bInitialized@?1??DeleteSubKey@CRegKey@ATL@@QEAAJPEB_W@Z@4_NA 0000000180036f98     CAT.obj
 0003:00000fa0       ?_Module@@3VCComModule@ATL@@A 0000000180036fa0     CAT.obj
 0003:00000ff0       ?pConnMap@?$IConnectionPointContainerImpl@VCOPOSCAT@@@ATL@@0PEBU_ATL_CONNMAP_ENTRY@2@EB 0000000180036ff0     CAT.obj
 0003:00000ff8       ?s_nInstances@COPOSCAT@@1HA 0000000180036ff8     CATImpl.obj
 0003:00001000       __scrt_current_native_startup_state 0000000180037000     LIBCMT:utility.obj
 0003:00001008       __scrt_native_startup_lock 0000000180037008     LIBCMT:utility.obj
 0003:00001600       _tls_index                 0000000180037600     LIBCMT:tlssup.obj
 0003:00001608       __favor                    0000000180037608     LIBCMT:cpu_disp.obj
 0003:0000160c       __scrt_debugger_hook_flag  000000018003760c     LIBCMT:utility_desktop.obj
 0003:00001610       ?__type_info_root_node@@3U__type_info_node@@A 0000000180037610     LIBCMT:tncleanup.obj
 0003:00001620       ?_OptionsStorage@?1??__local_stdio_scanf_options@@9@4_KA 0000000180037620     LIBCMT:default_local_stdio_options.obj
 0003:00001630       ?_AtlBaseModule@ATL@@3VCAtlBaseModule@1@A 0000000180037630     atls:atlbase.obj
 0003:00001690       ?__AtlThunkPool@@3PEAT_SLIST_HEADER@@EA 0000000180037690     atls:atlthunk.obj
 0003:000016bc       __@@_PchSym_@00@UzABUPdlipUCAUhUrmgvinvwrzgvUexgllohUzgohOmzgrevkilqPBACIAJCBDBUlyqiUznwGEUhgwzucOlyq@4B2008FD98C1DD4 00000001800376bc     atls:stdafx.obj
 0003:000016c0       ?__WinRTOutOfMemoryExceptionCallback@@3P6APEAXXZEA 00000001800376c0     libvcruntime:ehhelpers.obj
 0003:000016c8       __pPurecall                00000001800376c8     libvcruntime:purevirt_data.obj
 0003:00001780       ?pArgList@UnDecorator@@0PEAVReplicator@@EA 0000000180037780     libvcruntime:undname.obj
 0003:00001788       ?pZNameList@UnDecorator@@0PEAVReplicator@@EA 0000000180037788     libvcruntime:undname.obj
 0003:00001790       ?pTemplateArgList@UnDecorator@@0PEAVReplicator@@EA 0000000180037790     libvcruntime:undname.obj
 0003:00001798       ?gName@UnDecorator@@0PEBDEB 0000000180037798     libvcruntime:undname.obj
 0003:000017a0       ?name@UnDecorator@@0PEBDEB 00000001800377a0     libvcruntime:undname.obj
 0003:000017a8       ?disableFlags@UnDecorator@@0KA 00000001800377a8     libvcruntime:undname.obj
 0003:000017ac       ?fExplicitTemplateParams@UnDecorator@@0_NA 00000001800377ac     libvcruntime:undname.obj
 0003:000017ad       ?fGetTemplateArgumentList@UnDecorator@@0_NA 00000001800377ad     libvcruntime:undname.obj
 0003:000017b0       ?m_pGetParameter@UnDecorator@@0P6APEADJ@ZEA 00000001800377b0     libvcruntime:undname.obj
 0003:000017b8       ?m_CHPENameOffset@UnDecorator@@0KA 00000001800377b8     libvcruntime:undname.obj
 0003:000017bc       ?m_recursionLevel@UnDecorator@@0KA 00000001800377bc     libvcruntime:undname.obj
 0003:00001840       ?c_exit_complete@?1???R<lambda_6e4b09c48022b2350581041d5f6b0c4c>@@QEBA@XZ@4_NA 0000000180037840     libucrt:exit.obj
 0003:00001958       _environ_table             0000000180037958     libucrt:environment_initialization.obj
 0003:00001960       _wenviron_table            0000000180037960     libucrt:environment_initialization.obj
 0003:00001968       __dcrt_initial_wide_environment 0000000180037968     libucrt:environment_initialization.obj
 0003:00001970       __dcrt_initial_narrow_environment 0000000180037970     libucrt:environment_initialization.obj
 0003:00001978       __acrt_atexit_table        0000000180037978     libucrt:onexit.obj
 0003:00001990       __acrt_at_quick_exit_table 0000000180037990     libucrt:onexit.obj
 0003:000019b0       __acrt_locale_changed_data 00000001800379b0     libucrt:wsetlocale.obj
 0003:000019b8       __acrt_current_locale_data 00000001800379b8     libucrt:nlsdata.obj
 0003:00001b58       _nstream                   0000000180037b58     libucrt:_file.obj
 0003:00001b60       __piob                     0000000180037b60     libucrt:_file.obj
 0003:00001b70       __acrt_stdout_buffer       0000000180037b70     libucrt:_sftbuf.obj
 0003:00001b78       __acrt_stderr_buffer       0000000180037b78     libucrt:_sftbuf.obj
 0003:00001b80       __pioinfo                  0000000180037b80     libucrt:ioinit.obj
 0003:00001f80       _nhandle                   0000000180037f80     libucrt:ioinit.obj
 0003:000021c8       _mbctype                   00000001800381c8     libucrt:mbctype.obj
 0003:000021d0       _mbcasemap                 00000001800381d0     libucrt:mbctype.obj
 0003:000021d8       __acrt_current_multibyte_data 00000001800381d8     libucrt:mbctype.obj
 0003:000021e8       _pgmptr                    00000001800381e8     libucrt:argv_data.obj
 0003:000021f0       __argc                     00000001800381f0     libucrt:argv_data.obj
 0003:000021f8       __argv                     00000001800381f8     libucrt:argv_data.obj
 0003:00002200       __wargv                    0000000180038200     libucrt:argv_data.obj
 0003:00002208       _acmdln                    0000000180038208     libucrt:argv_data.obj
 0003:00002210       _wcmdln                    0000000180038210     libucrt:argv_data.obj
 0003:00002218       __acrt_heap                0000000180038218     libucrt:heap_handle.obj
 0003:00002248       __acrt_lconv_static_null   0000000180038248     libucrt:localeconv.obj
 0003:0000224c       __acrt_lconv_static_W_null 000000018003824c     libucrt:localeconv.obj
 0003:00002264       __fma3_is_available        0000000180038264     libucrt:fma3_available.obj
 0003:00002268       __use_fma3_lib             0000000180038268     libucrt:fma3_available.obj
 0003:00002270       __dyn_tls_init_callback    0000000180038270     <common>
 0003:00002278       __scrt_ucrt_dll_is_in_use  0000000180038278     <common>

 entry point at        0001:0000fbc0

 Static symbols

 0000:fffbc000       .debug$S                   0000000180000000     OPOSCAT.exp
 0000:fffbc000       .debug$S                   0000000180000000     advapi32:ADVAPI32.dll
 0000:fffbc000       .debug$S                   0000000180000000     advapi32:ADVAPI32.dll
 0000:fffbc000       .debug$S                   0000000180000000     advapi32:ADVAPI32.dll
 0000:fffbc000       .debug$S                   0000000180000000     advapi32:ADVAPI32.dll
 0000:fffbc000       .debug$S                   0000000180000000     advapi32:ADVAPI32.dll
 0000:fffbc000       .debug$S                   0000000180000000     advapi32:ADVAPI32.dll
 0000:fffbc000       .debug$S                   0000000180000000     advapi32:ADVAPI32.dll
 0000:fffbc000       .debug$S                   0000000180000000     advapi32:ADVAPI32.dll
 0000:fffbc000       .debug$S                   0000000180000000     advapi32:ADVAPI32.dll
 0000:fffbc000       .debug$S                   0000000180000000     gdi32:GDI32.dll
 0000:fffbc000       .debug$S                   0000000180000000     gdi32:GDI32.dll
 0000:fffbc000       .debug$S                   0000000180000000     gdi32:GDI32.dll
 0000:fffbc000       .debug$S                   0000000180000000     gdi32:GDI32.dll
 0000:fffbc000       .debug$S                   0000000180000000     gdi32:GDI32.dll
 0000:fffbc000       .debug$S                   0000000180000000     gdi32:GDI32.dll
 0000:fffbc000       .debug$S                   0000000180000000     gdi32:GDI32.dll
 0000:fffbc000       .debug$S                   0000000180000000     gdi32:GDI32.dll
 0000:fffbc000       .debug$S                   0000000180000000     gdi32:GDI32.dll
 0000:fffbc000       .debug$S                   0000000180000000     gdi32:GDI32.dll
 0000:fffbc000       .debug$S                   0000000180000000     gdi32:GDI32.dll
 0000:fffbc000       .debug$S                   0000000180000000     gdi32:GDI32.dll
 0000:fffbc000       .debug$S                   0000000180000000     gdi32:GDI32.dll
 0000:fffbc000       .debug$S                   0000000180000000     gdi32:GDI32.dll
 0000:fffbc000       .debug$S                   0000000180000000     gdi32:GDI32.dll
 0000:fffbc000       .debug$S                   0000000180000000     gdi32:GDI32.dll
 0000:fffbc000       .debug$S                   0000000180000000     gdi32:GDI32.dll
 0000:fffbc000       .debug$S                   0000000180000000     gdi32:GDI32.dll
 0000:fffbc000       .debug$S                   0000000180000000     gdi32:GDI32.dll
 0000:fffbc000       .debug$S                   0000000180000000     kernel32:KERNEL32.dll
 0000:fffbc000       .debug$S                   0000000180000000     kernel32:KERNEL32.dll
 0000:fffbc000       .debug$S                   0000000180000000     kernel32:KERNEL32.dll
 0000:fffbc000       .debug$S                   0000000180000000     kernel32:KERNEL32.dll
 0000:fffbc000       .debug$S                   0000000180000000     kernel32:KERNEL32.dll
 0000:fffbc000       .debug$S                   0000000180000000     kernel32:KERNEL32.dll
 0000:fffbc000       .debug$S                   0000000180000000     kernel32:KERNEL32.dll
 0000:fffbc000       .debug$S                   0000000180000000     kernel32:KERNEL32.dll
 0000:fffbc000       .debug$S                   0000000180000000     kernel32:KERNEL32.dll
 0000:fffbc000       .debug$S                   0000000180000000     kernel32:KERNEL32.dll
 0000:fffbc000       .debug$S                   0000000180000000     kernel32:KERNEL32.dll
 0000:fffbc000       .debug$S                   0000000180000000     kernel32:KERNEL32.dll
 0000:fffbc000       .debug$S                   0000000180000000     kernel32:KERNEL32.dll
 0000:fffbc000       .debug$S                   0000000180000000     kernel32:KERNEL32.dll
 0000:fffbc000       .debug$S                   0000000180000000     kernel32:KERNEL32.dll
 0000:fffbc000       .debug$S                   0000000180000000     kernel32:KERNEL32.dll
 0000:fffbc000       .debug$S                   0000000180000000     kernel32:KERNEL32.dll
 0000:fffbc000       .debug$S                   0000000180000000     kernel32:KERNEL32.dll
 0000:fffbc000       .debug$S                   0000000180000000     kernel32:KERNEL32.dll
 0000:fffbc000       .debug$S                   0000000180000000     kernel32:KERNEL32.dll
 0000:fffbc000       .debug$S                   0000000180000000     kernel32:KERNEL32.dll
 0000:fffbc000       .debug$S                   0000000180000000     kernel32:KERNEL32.dll
 0000:fffbc000       .debug$S                   0000000180000000     kernel32:KERNEL32.dll
 0000:fffbc000       .debug$S                   0000000180000000     kernel32:KERNEL32.dll
 0000:fffbc000       .debug$S                   0000000180000000     kernel32:KERNEL32.dll
 0000:fffbc000       .debug$S                   0000000180000000     kernel32:KERNEL32.dll
 0000:fffbc000       .debug$S                   0000000180000000     kernel32:KERNEL32.dll
 0000:fffbc000       .debug$S                   0000000180000000     kernel32:KERNEL32.dll
 0000:fffbc000       .debug$S                   0000000180000000     kernel32:KERNEL32.dll
 0000:fffbc000       .debug$S                   0000000180000000     kernel32:KERNEL32.dll
 0000:fffbc000       .debug$S                   0000000180000000     kernel32:KERNEL32.dll
 0000:fffbc000       .debug$S                   0000000180000000     kernel32:KERNEL32.dll
 0000:fffbc000       .debug$S                   0000000180000000     kernel32:KERNEL32.dll
 0000:fffbc000       .debug$S                   0000000180000000     kernel32:KERNEL32.dll
 0000:fffbc000       .debug$S                   0000000180000000     kernel32:KERNEL32.dll
 0000:fffbc000       .debug$S                   0000000180000000     kernel32:KERNEL32.dll
 0000:fffbc000       .debug$S                   0000000180000000     kernel32:KERNEL32.dll
 0000:fffbc000       .debug$S                   0000000180000000     kernel32:KERNEL32.dll
 0000:fffbc000       .debug$S                   0000000180000000     kernel32:KERNEL32.dll
 0000:fffbc000       .debug$S                   0000000180000000     kernel32:KERNEL32.dll
 0000:fffbc000       .debug$S                   0000000180000000     kernel32:KERNEL32.dll
 0000:fffbc000       .debug$S                   0000000180000000     kernel32:KERNEL32.dll
 0000:fffbc000       .debug$S                   0000000180000000     kernel32:KERNEL32.dll
 0000:fffbc000       .debug$S                   0000000180000000     kernel32:KERNEL32.dll
 0000:fffbc000       .debug$S                   0000000180000000     kernel32:KERNEL32.dll
 0000:fffbc000       .debug$S                   0000000180000000     kernel32:KERNEL32.dll
 0000:fffbc000       .debug$S                   0000000180000000     kernel32:KERNEL32.dll
 0000:fffbc000       .debug$S                   0000000180000000     kernel32:KERNEL32.dll
 0000:fffbc000       .debug$S                   0000000180000000     kernel32:KERNEL32.dll
 0000:fffbc000       .debug$S                   0000000180000000     kernel32:KERNEL32.dll
 0000:fffbc000       .debug$S                   0000000180000000     kernel32:KERNEL32.dll
 0000:fffbc000       .debug$S                   0000000180000000     kernel32:KERNEL32.dll
 0000:fffbc000       .debug$S                   0000000180000000     kernel32:KERNEL32.dll
 0000:fffbc000       .debug$S                   0000000180000000     kernel32:KERNEL32.dll
 0000:fffbc000       .debug$S                   0000000180000000     kernel32:KERNEL32.dll
 0000:fffbc000       .debug$S                   0000000180000000     kernel32:KERNEL32.dll
 0000:fffbc000       .debug$S                   0000000180000000     kernel32:KERNEL32.dll
 0000:fffbc000       .debug$S                   0000000180000000     kernel32:KERNEL32.dll
 0000:fffbc000       .debug$S                   0000000180000000     kernel32:KERNEL32.dll
 0000:fffbc000       .debug$S                   0000000180000000     kernel32:KERNEL32.dll
 0000:fffbc000       .debug$S                   0000000180000000     kernel32:KERNEL32.dll
 0000:fffbc000       .debug$S                   0000000180000000     kernel32:KERNEL32.dll
 0000:fffbc000       .debug$S                   0000000180000000     kernel32:KERNEL32.dll
 0000:fffbc000       .debug$S                   0000000180000000     kernel32:KERNEL32.dll
 0000:fffbc000       .debug$S                   0000000180000000     kernel32:KERNEL32.dll
 0000:fffbc000       .debug$S                   0000000180000000     kernel32:KERNEL32.dll
 0000:fffbc000       .debug$S                   0000000180000000     kernel32:KERNEL32.dll
 0000:fffbc000       .debug$S                   0000000180000000     kernel32:KERNEL32.dll
 0000:fffbc000       .debug$S                   0000000180000000     kernel32:KERNEL32.dll
 0000:fffbc000       .debug$S                   0000000180000000     kernel32:KERNEL32.dll
 0000:fffbc000       .debug$S                   0000000180000000     kernel32:KERNEL32.dll
 0000:fffbc000       .debug$S                   0000000180000000     kernel32:KERNEL32.dll
 0000:fffbc000       .debug$S                   0000000180000000     kernel32:KERNEL32.dll
 0000:fffbc000       .debug$S                   0000000180000000     kernel32:KERNEL32.dll
 0000:fffbc000       .debug$S                   0000000180000000     kernel32:KERNEL32.dll
 0000:fffbc000       .debug$S                   0000000180000000     kernel32:KERNEL32.dll
 0000:fffbc000       .debug$S                   0000000180000000     kernel32:KERNEL32.dll
 0000:fffbc000       .debug$S                   0000000180000000     kernel32:KERNEL32.dll
 0000:fffbc000       .debug$S                   0000000180000000     kernel32:KERNEL32.dll
 0000:fffbc000       .debug$S                   0000000180000000     kernel32:KERNEL32.dll
 0000:fffbc000       .debug$S                   0000000180000000     kernel32:KERNEL32.dll
 0000:fffbc000       .debug$S                   0000000180000000     kernel32:KERNEL32.dll
 0000:fffbc000       .debug$S                   0000000180000000     kernel32:KERNEL32.dll
 0000:fffbc000       .debug$S                   0000000180000000     kernel32:KERNEL32.dll
 0000:fffbc000       .debug$S                   0000000180000000     kernel32:KERNEL32.dll
 0000:fffbc000       .debug$S                   0000000180000000     kernel32:KERNEL32.dll
 0000:fffbc000       .debug$S                   0000000180000000     kernel32:KERNEL32.dll
 0000:fffbc000       .debug$S                   0000000180000000     kernel32:KERNEL32.dll
 0000:fffbc000       .debug$S                   0000000180000000     kernel32:KERNEL32.dll
 0000:fffbc000       .debug$S                   0000000180000000     kernel32:KERNEL32.dll
 0000:fffbc000       .debug$S                   0000000180000000     kernel32:KERNEL32.dll
 0000:fffbc000       .debug$S                   0000000180000000     kernel32:KERNEL32.dll
 0000:fffbc000       .debug$S                   0000000180000000     kernel32:KERNEL32.dll
 0000:fffbc000       .debug$S                   0000000180000000     kernel32:KERNEL32.dll
 0000:fffbc000       .debug$S                   0000000180000000     kernel32:KERNEL32.dll
 0000:fffbc000       .debug$S                   0000000180000000     kernel32:KERNEL32.dll
 0000:fffbc000       .debug$S                   0000000180000000     kernel32:KERNEL32.dll
 0000:fffbc000       .debug$S                   0000000180000000     kernel32:KERNEL32.dll
 0000:fffbc000       .debug$S                   0000000180000000     kernel32:KERNEL32.dll
 0000:fffbc000       .debug$S                   0000000180000000     kernel32:KERNEL32.dll
 0000:fffbc000       .debug$S                   0000000180000000     kernel32:KERNEL32.dll
 0000:fffbc000       .debug$S                   0000000180000000     kernel32:KERNEL32.dll
 0000:fffbc000       .debug$S                   0000000180000000     kernel32:KERNEL32.dll
 0000:fffbc000       .debug$S                   0000000180000000     kernel32:KERNEL32.dll
 0000:fffbc000       .debug$S                   0000000180000000     kernel32:KERNEL32.dll
 0000:fffbc000       .debug$S                   0000000180000000     kernel32:KERNEL32.dll
 0000:fffbc000       .debug$S                   0000000180000000     kernel32:KERNEL32.dll
 0000:fffbc000       .debug$S                   0000000180000000     kernel32:KERNEL32.dll
 0000:fffbc000       .debug$S                   0000000180000000     kernel32:KERNEL32.dll
 0000:fffbc000       .debug$S                   0000000180000000     kernel32:KERNEL32.dll
 0000:fffbc000       .debug$S                   0000000180000000     kernel32:KERNEL32.dll
 0000:fffbc000       .debug$S                   0000000180000000     kernel32:KERNEL32.dll
 0000:fffbc000       .debug$S                   0000000180000000     kernel32:KERNEL32.dll
 0000:fffbc000       .debug$S                   0000000180000000     kernel32:KERNEL32.dll
 0000:fffbc000       .debug$S                   0000000180000000     kernel32:KERNEL32.dll
 0000:fffbc000       .debug$S                   0000000180000000     ole32:ole32.dll
 0000:fffbc000       .debug$S                   0000000180000000     ole32:ole32.dll
 0000:fffbc000       .debug$S                   0000000180000000     ole32:ole32.dll
 0000:fffbc000       .debug$S                   0000000180000000     ole32:ole32.dll
 0000:fffbc000       .debug$S                   0000000180000000     ole32:ole32.dll
 0000:fffbc000       .debug$S                   0000000180000000     ole32:ole32.dll
 0000:fffbc000       .debug$S                   0000000180000000     ole32:ole32.dll
 0000:fffbc000       .debug$S                   0000000180000000     ole32:ole32.dll
 0000:fffbc000       .debug$S                   0000000180000000     ole32:ole32.dll
 0000:fffbc000       .debug$S                   0000000180000000     ole32:ole32.dll
 0000:fffbc000       .debug$S                   0000000180000000     ole32:ole32.dll
 0000:fffbc000       .debug$S                   0000000180000000     ole32:ole32.dll
 0000:fffbc000       .debug$S                   0000000180000000     ole32:ole32.dll
 0000:fffbc000       .debug$S                   0000000180000000     ole32:ole32.dll
 0000:fffbc000       .debug$S                   0000000180000000     oleaut32:OLEAUT32.dll
 0000:fffbc000       .debug$S                   0000000180000000     oleaut32:OLEAUT32.dll
 0000:fffbc000       .debug$S                   0000000180000000     oleaut32:OLEAUT32.dll
 0000:fffbc000       .debug$S                   0000000180000000     oleaut32:OLEAUT32.dll
 0000:fffbc000       .debug$S                   0000000180000000     oleaut32:OLEAUT32.dll
 0000:fffbc000       .debug$S                   0000000180000000     oleaut32:OLEAUT32.dll
 0000:fffbc000       .debug$S                   0000000180000000     oleaut32:OLEAUT32.dll
 0000:fffbc000       .debug$S                   0000000180000000     oleaut32:OLEAUT32.dll
 0000:fffbc000       .debug$S                   0000000180000000     oleaut32:OLEAUT32.dll
 0000:fffbc000       .debug$S                   0000000180000000     oleaut32:OLEAUT32.dll
 0000:fffbc000       .debug$S                   0000000180000000     oleaut32:OLEAUT32.dll
 0000:fffbc000       .debug$S                   0000000180000000     oleaut32:OLEAUT32.dll
 0000:fffbc000       .debug$S                   0000000180000000     oleaut32:OLEAUT32.dll
 0000:fffbc000       .debug$S                   0000000180000000     oleaut32:OLEAUT32.dll
 0000:fffbc000       .debug$S                   0000000180000000     oleaut32:OLEAUT32.dll
 0000:fffbc000       .debug$S                   0000000180000000     oleaut32:OLEAUT32.dll
 0000:fffbc000       .debug$S                   0000000180000000     user32:USER32.dll
 0000:fffbc000       .debug$S                   0000000180000000     user32:USER32.dll
 0000:fffbc000       .debug$S                   0000000180000000     user32:USER32.dll
 0000:fffbc000       .debug$S                   0000000180000000     user32:USER32.dll
 0000:fffbc000       .debug$S                   0000000180000000     user32:USER32.dll
 0000:fffbc000       .debug$S                   0000000180000000     user32:USER32.dll
 0000:fffbc000       .debug$S                   0000000180000000     user32:USER32.dll
 0000:fffbc000       .debug$S                   0000000180000000     user32:USER32.dll
 0000:fffbc000       .debug$S                   0000000180000000     user32:USER32.dll
 0000:fffbc000       .debug$S                   0000000180000000     user32:USER32.dll
 0000:fffbc000       .debug$S                   0000000180000000     user32:USER32.dll
 0000:fffbc000       .debug$S                   0000000180000000     user32:USER32.dll
 0000:fffbc000       .debug$S                   0000000180000000     user32:USER32.dll
 0000:fffbc000       .debug$S                   0000000180000000     user32:USER32.dll
 0000:fffbc000       .debug$S                   0000000180000000     user32:USER32.dll
 0000:fffbc000       .debug$S                   0000000180000000     user32:USER32.dll
 0000:fffbc000       .debug$S                   0000000180000000     user32:USER32.dll
 0000:fffbc000       .debug$S                   0000000180000000     user32:USER32.dll
 0000:fffbc000       .debug$S                   0000000180000000     user32:USER32.dll
 0000:fffbc000       .debug$S                   0000000180000000     user32:USER32.dll
 0000:fffbc000       .debug$S                   0000000180000000     user32:USER32.dll
 0000:fffbc000       .debug$S                   0000000180000000     user32:USER32.dll
 0000:fffbc000       .debug$S                   0000000180000000     user32:USER32.dll
 0000:fffbc000       .debug$S                   0000000180000000     user32:USER32.dll
 0000:fffbc000       .debug$S                   0000000180000000     user32:USER32.dll
 0000:fffbc000       .debug$S                   0000000180000000     user32:USER32.dll
 0000:fffbc000       .debug$S                   0000000180000000     user32:USER32.dll
 0000:fffbc000       .debug$S                   0000000180000000     user32:USER32.dll
 0000:fffbc000       .debug$S                   0000000180000000     user32:USER32.dll
 0000:fffbc000       .debug$S                   0000000180000000     user32:USER32.dll
 0000:fffbc000       .debug$S                   0000000180000000     user32:USER32.dll
 0000:fffbc000       .debug$S                   0000000180000000     user32:USER32.dll
 0000:fffbc000       .debug$S                   0000000180000000     user32:USER32.dll
 0000:fffbc000       .debug$S                   0000000180000000     user32:USER32.dll
 0000:fffbc000       .debug$S                   0000000180000000     user32:USER32.dll
 0001:00000000       ??__E_AtlComModule@ATL@@YAXXZ 0000000180001000 f   OposVariant.obj
 0001:00000020       ??__E_AtlWinModule@ATL@@YAXXZ 0000000180001020 f   OposVariant.obj
 0001:00000040       ??__E?pConnMap@?$IConnectionPointContainerImpl@VCOPOSCAT@@@ATL@@0PEBU_ATL_CONNMAP_ENTRY@2@EB@@YAXXZ 0000000180001040 f   CAT.obj
 0001:00000058       ??__E_Module@@YAXXZ        0000000180001058 f   CAT.obj
 0001:00000094       ??__E_AtlBaseModule@ATL@@YAXXZ 0000000180001094 f   atls:atlbase.obj
 0001:0000f1e8       ?__scrt_initialize_thread_safe_statics@@YAHXZ 00000001800101e8 f   LIBCMT:thread_safe_statics.obj
 0001:0000f2b8       ?__scrt_uninitialize_thread_safe_statics@@YAXXZ 00000001800102b8 f   LIBCMT:thread_safe_statics.obj
 0001:0000f608       capture_current_context    0000000180010608 f   LIBCMT:gs_report.obj
 0001:0000f678       capture_previous_context   0000000180010678 f   LIBCMT:gs_report.obj
 0001:0000f810       $$000000                   0000000180010810     LIBCMT:chkstk.obj
 0001:0000f870       $$000000                   0000000180010870     LIBCMT:amdsecgs.obj
 0001:0000f8a0       ?dllmain_crt_dispatch@@YAHQEAUHINSTANCE__@@KQEAX@Z 00000001800108a0 f   LIBCMT:dll_dllmain.obj
 0001:0000f8f0       ?dllmain_crt_process_attach@@YAHQEAUHINSTANCE__@@QEAX@Z 00000001800108f0 f   LIBCMT:dll_dllmain.obj
 0001:0000fa08       ?dllmain_crt_process_detach@@YAH_N@Z 0000000180010a08 f   LIBCMT:dll_dllmain.obj
 0001:0000fa8c       ?dllmain_dispatch@@YAHQEAUHINSTANCE__@@KQEAX@Z 0000000180010a8c f   LIBCMT:dll_dllmain.obj
 0001:00010358       ??$GetProcAddressAll@P6AP6A_JPEAUHWND__@@I_K_J@ZPEAUAtlThunkData_t@@@Z@@YAP6AP6A_JPEAUHWND__@@I_K_J@ZPEAUAtlThunkData_t@@@ZPEAP6AP6A_J0I12@Z3@Z@Z 0000000180011358 f   atls:atlthunk.obj
 0001:00010358       ??$GetProcAddressAll@P6APEAUAtlThunkData_t@@XZ@@YAP6APEAUAtlThunkData_t@@XZPEAP6APEAU0@XZ@Z 0000000180011358 f   atls:atlthunk.obj
 0001:00010358       ??$GetProcAddressAll@P6AXPEAUAtlThunkData_t@@@Z@@YAP6AXPEAUAtlThunkData_t@@@ZPEAP6AX0@Z@Z 0000000180011358 f   atls:atlthunk.obj
 0001:00010358       ??$GetProcAddressAll@P6AXPEAUAtlThunkData_t@@PEAX_K@Z@@YAP6AXPEAUAtlThunkData_t@@PEAX_K@ZPEAP6AX012@Z@Z 0000000180011358 f   atls:atlthunk.obj
 0001:00010530       ?__InitializeThunkPool@@YAHXZ 0000000180011530 f   atls:atlthunk.obj
 0001:000109d0       $$000000                   00000001800119d0     libvcruntime:memcmp.obj
 0001:00010ab0       $$000000                   0000000180011ab0     libvcruntime:memcpy.obj
 0001:00011160       $$000000                   0000000180012160     libvcruntime:memset.obj
 0001:00012770       $$000000                   0000000180013770     libvcruntime:notify.obj
 0001:000129f0       ??$BuildCatchObjectHelperInternal@V__FrameHandler3@@@@YAHPEAUEHExceptionRecord@@PEAXPEBU_s_HandlerType@@PEBU_s_CatchableType@@@Z 00000001800139f0 f   libvcruntime:frame.obj
 0001:00012bf0       ??$BuildCatchObjectHelperInternal@V__FrameHandler4@@@@YAHPEAUEHExceptionRecord@@PEAXPEAUHandlerType4@FH4@@PEBU_s_CatchableType@@@Z 0000000180013bf0 f   libvcruntime:frame.obj
 0001:00012df4       ??$BuildCatchObjectInternal@V__FrameHandler3@@@@YAXPEAUEHExceptionRecord@@PEAXPEBU_s_HandlerType@@PEBU_s_CatchableType@@@Z 0000000180013df4 f   libvcruntime:frame.obj
 0001:00012eb4       ??$BuildCatchObjectInternal@V__FrameHandler4@@@@YAXPEAUEHExceptionRecord@@PEAXPEAUHandlerType4@FH4@@PEBU_s_CatchableType@@@Z 0000000180013eb4 f   libvcruntime:frame.obj
 0001:00012f78       ??$CatchIt@V__FrameHandler3@@@@YAXPEAUEHExceptionRecord@@PEA_KPEAU_CONTEXT@@PEAU_xDISPATCHER_CONTEXT@@PEBU_s_FuncInfo@@PEBU_s_HandlerType@@PEBU_s_CatchableType@@PEBU_s_TryBlockMapEntry@@H1EE@Z 0000000180013f78 f   libvcruntime:frame.obj
 0001:0001304c       ??$CatchIt@V__FrameHandler4@@@@YAXPEAUEHExceptionRecord@@PEA_KPEAU_CONTEXT@@PEAU_xDISPATCHER_CONTEXT@@PEAUFuncInfo4@FH4@@PEAUHandlerType4@4@PEBU_s_CatchableType@@PEAUTryBlockMapEntry4@4@H1EE@Z 000000018001404c f   libvcruntime:frame.obj
 0001:00013120       ??$FindHandler@V__FrameHandler3@@@@YAXPEAUEHExceptionRecord@@PEA_KPEAU_CONTEXT@@PEAU_xDISPATCHER_CONTEXT@@PEBU_s_FuncInfo@@EH1@Z 0000000180014120 f   libvcruntime:frame.obj
 0001:000135f8       ??$FindHandler@V__FrameHandler4@@@@YAXPEAUEHExceptionRecord@@PEA_KPEAU_CONTEXT@@PEAU_xDISPATCHER_CONTEXT@@PEAUFuncInfo4@FH4@@EH1@Z 00000001800145f8 f   libvcruntime:frame.obj
 0001:00013af4       ??$FindHandlerForForeignException@V__FrameHandler3@@@@YAXPEAUEHExceptionRecord@@PEA_KPEAU_CONTEXT@@PEAU_xDISPATCHER_CONTEXT@@PEBU_s_FuncInfo@@HH1@Z 0000000180014af4 f   libvcruntime:frame.obj
 0001:00013d10       ??$FindHandlerForForeignException@V__FrameHandler4@@@@YAXPEAUEHExceptionRecord@@PEA_KPEAU_CONTEXT@@PEAU_xDISPATCHER_CONTEXT@@PEAUFuncInfo4@FH4@@HH1@Z 0000000180014d10 f   libvcruntime:frame.obj
 0001:00014ed0       ?ExFilterRethrow@@YAHPEAU_EXCEPTION_POINTERS@@PEAUEHExceptionRecord@@PEAH@Z 0000000180015ed0 f   libvcruntime:frame.obj
 0001:00014f58       ?ExFilterRethrowFH4@@YAHPEAU_EXCEPTION_POINTERS@@PEAUEHExceptionRecord@@HPEAH@Z 0000000180015f58 f   libvcruntime:frame.obj
 0001:000154a8       ?IsInExceptionSpec@@YAEPEAUEHExceptionRecord@@PEBU_s_ESTypeList@@@Z 00000001800164a8 f   libvcruntime:frame.obj
 0001:00015598       ?Is_bad_exception_allowed@@YAEPEBU_s_ESTypeList@@@Z 0000000180016598 f   libvcruntime:frame.obj
 0001:00015874       ?try_get_function@@YAPEAXW4function_id@?A0xbc0cc709@@QEBDQEBW4module_id@2@2@Z 0000000180016874 f   libvcruntime:winapi_downlevel.obj
 0001:00015b60       $$000000                   0000000180016b60     libvcruntime:handlers.obj
 0001:0001658c       ??$common_vsprintf@Vformat_validation_base@__crt_stdio_output@@_W@@YAH_KQEA_W0QEB_WAEAV__crt_cached_ptd_host@@QEAD@Z 000000018001758c f   libucrt:output.obj
 0001:00018cdc       ??$?RV<lambda_d80eeec6fff315bfe5c115232f3240e3>@@AEAV<lambda_6e4b09c48022b2350581041d5f6b0c4c>@@V<lambda_2358e3775559c9db80273638284d5e45>@@@?$__crt_seh_guarded_call@X@@QEAAX$$QEAV<lambda_d80eeec6fff315bfe5c115232f3240e3>@@AEAV<lambda_6e4b09c48022b2350581041d5f6b0c4c>@@$$QEAV<lambda_2358e3775559c9db80273638284d5e45>@@@Z 0000000180019cdc f   libucrt:exit.obj
 0001:00018d14       ??R<lambda_6e4b09c48022b2350581041d5f6b0c4c>@@QEBA@XZ 0000000180019d14 f   libucrt:exit.obj
 0001:00018de0       ?common_exit@@YAXHW4_crt_exit_cleanup_mode@@W4_crt_exit_return_mode@@@Z 0000000180019de0 f   libucrt:exit.obj
 0001:00018ea8       ?exit_or_terminate_process@@YAXI@Z 0000000180019ea8 f   libucrt:exit.obj
 0001:00018edc       ?should_call_terminate_process@@YA_NXZ 0000000180019edc f   libucrt:exit.obj
 0001:00018f0c       ?try_cor_exit_process@@YAXI@Z 0000000180019f0c f   libucrt:exit.obj
 0001:00018fa8       ??$parse_command_line@D@@YAXPEADPEAPEAD0PEA_K2@Z 0000000180019fa8 f   libucrt:argv_parsing.obj
 0001:00019350       ??$common_initialize_environment_nolock@D@@YAHXZ 000000018001a350 f   libucrt:environment_initialization.obj
 0001:000193c4       ??$create_environment@D@@YAQEAPEADQEAD@Z 000000018001a3c4 f   libucrt:environment_initialization.obj
 0001:000194d4       ??$free_environment@D@@YAXQEAPEAD@Z 000000018001a4d4 f   libucrt:environment_initialization.obj
 0001:000194d4       ??$free_environment@_W@@YAXQEAPEA_W@Z 000000018001a4d4 f   libucrt:environment_initialization.obj
 0001:00019518       ??$uninitialize_environment_internal@D@@YAXAEAPEAPEAD@Z 000000018001a518 f   libucrt:environment_initialization.obj
 0001:00019534       ??$uninitialize_environment_internal@_W@@YAXAEAPEAPEA_W@Z 000000018001a534 f   libucrt:environment_initialization.obj
 0001:0001959c       ??$?RV<lambda_638799b9deba96c50f710eeac98168cd>@@AEAV<lambda_22ebabd17bc4fa466a2aca6d8deb888d>@@V<lambda_a6f7d7db0129f75315ebf26d50c089f1>@@@?$__crt_seh_guarded_call@H@@QEAAH$$QEAV<lambda_638799b9deba96c50f710eeac98168cd>@@AEAV<lambda_22ebabd17bc4fa466a2aca6d8deb888d>@@$$QEAV<lambda_a6f7d7db0129f75315ebf26d50c089f1>@@@Z 000000018001a59c f   libucrt:onexit.obj
 0001:000195d8       ??$?RV<lambda_7777bce6b2f8c936911f934f8298dc43>@@AEAV<lambda_f03950bc5685219e0bcd2087efbe011e>@@V<lambda_3883c3dff614d5e0c5f61bb1ac94921c>@@@?$__crt_seh_guarded_call@H@@QEAAH$$QEAV<lambda_7777bce6b2f8c936911f934f8298dc43>@@AEAV<lambda_f03950bc5685219e0bcd2087efbe011e>@@$$QEAV<lambda_3883c3dff614d5e0c5f61bb1ac94921c>@@@Z 000000018001a5d8 f   libucrt:onexit.obj
 0001:00019614       ??R<lambda_22ebabd17bc4fa466a2aca6d8deb888d>@@QEBAHXZ 000000018001a614 f   libucrt:onexit.obj
 0001:000197c4       ??R<lambda_f03950bc5685219e0bcd2087efbe011e>@@QEBAHXZ 000000018001a7c4 f   libucrt:onexit.obj
 0001:000199a8       initialize_global_variables 000000018001a9a8 f   libucrt:initialization.obj
 0001:000199bc       initialize_c               000000018001a9bc f   libucrt:initialization.obj
 0001:000199e0       initialize_environment     000000018001a9e0 f   libucrt:initialization.obj
 0001:000199e0       initialize_global_state_isolation 000000018001a9e0 f   libucrt:initialization.obj
 0001:000199e0       report_memory_leaks        000000018001a9e0 f   libucrt:initialization.obj
 0001:000199e0       uninitialize_c             000000018001a9e0 f   libucrt:initialization.obj
 0001:000199e0       uninitialize_global_state_isolation 000000018001a9e0 f   libucrt:initialization.obj
 0001:000199e4       uninitialize_environment   000000018001a9e4 f   libucrt:initialization.obj
 0001:000199f4       initialize_pointers        000000018001a9f4 f   libucrt:initialization.obj
 0001:00019a34       uninitialize_vcruntime     000000018001aa34 f   libucrt:initialization.obj
 0001:00019a3c       uninitialize_allocated_memory 000000018001aa3c f   libucrt:initialization.obj
 0001:00019a7c       uninitialize_allocated_io_buffers 000000018001aa7c f   libucrt:initialization.obj
 0001:00019d40       $$000000                   000000018001ad40     libucrt:strncmp.obj
 0001:00019e38       ??$?RV<lambda_0ae27a3a962d80f24befdcbee591983d>@@AEAV<lambda_8d0ee55de4b1038c4002e0adecdf1839>@@V<lambda_dc504788e8f1664fe9b84e20bfb512f2>@@@?$__crt_seh_guarded_call@X@@QEAAX$$QEAV<lambda_0ae27a3a962d80f24befdcbee591983d>@@AEAV<lambda_8d0ee55de4b1038c4002e0adecdf1839>@@$$QEAV<lambda_dc504788e8f1664fe9b84e20bfb512f2>@@@Z 000000018001ae38 f   libucrt:per_thread_data.obj
 0001:00019e78       ??$?RV<lambda_2d41944a1d46af3157314b8a01080d33>@@AEAV<lambda_8f455de75cd7d7f24b4096f044d8b9e6>@@V<lambda_aa500f224e6afead328df44964fe2772>@@@?$__crt_seh_guarded_call@X@@QEAAX$$QEAV<lambda_2d41944a1d46af3157314b8a01080d33>@@AEAV<lambda_8f455de75cd7d7f24b4096f044d8b9e6>@@$$QEAV<lambda_aa500f224e6afead328df44964fe2772>@@@Z 000000018001ae78 f   libucrt:per_thread_data.obj
 0001:00019eb8       ??$?RV<lambda_aa87e3671a710a21b5dc78c0bdf72e11>@@AEAV<lambda_92619d2358a28f41a33ba319515a20b9>@@V<lambda_6992ecaafeb10aed2b74cb1fae11a551>@@@?$__crt_seh_guarded_call@X@@QEAAX$$QEAV<lambda_aa87e3671a710a21b5dc78c0bdf72e11>@@AEAV<lambda_92619d2358a28f41a33ba319515a20b9>@@$$QEAV<lambda_6992ecaafeb10aed2b74cb1fae11a551>@@@Z 000000018001aeb8 f   libucrt:per_thread_data.obj
 0001:00019f00       ??$?RV<lambda_f2e299630e499de9f9a165e60fcd3db5>@@AEAV<lambda_2ae9d31cdba2644fcbeaf08da7c24588>@@V<lambda_40d01ff24d0e7b3814fdbdcee8eab3c7>@@@?$__crt_seh_guarded_call@X@@QEAAX$$QEAV<lambda_f2e299630e499de9f9a165e60fcd3db5>@@AEAV<lambda_2ae9d31cdba2644fcbeaf08da7c24588>@@$$QEAV<lambda_40d01ff24d0e7b3814fdbdcee8eab3c7>@@@Z 000000018001af00 f   libucrt:per_thread_data.obj
 0001:00019f60       ?construct_ptd_array@@YAXQEAU__acrt_ptd@@@Z 000000018001af60 f   libucrt:per_thread_data.obj
 0001:0001a030       ?destroy_fls@@YAXPEAX@Z    000000018001b030 f   libucrt:per_thread_data.obj
 0001:0001a050       ?destroy_ptd_array@@YAXQEAU__acrt_ptd@@@Z 000000018001b050 f   libucrt:per_thread_data.obj
 0001:0001a148       ?replace_current_thread_locale_nolock@@YAXQEAU__acrt_ptd@@QEAU__crt_locale_data@@@Z 000000018001b148 f   libucrt:per_thread_data.obj
 0001:0001a554       ??$?RV<lambda_410d79af7f07d98d83a3f525b3859a53>@@AEAV<lambda_3e16ef9562a7dcce91392c22ab16ea36>@@V<lambda_38119f0e861e05405d8a144b9b982f0a>@@@?$__crt_seh_guarded_call@X@@QEAAX$$QEAV<lambda_410d79af7f07d98d83a3f525b3859a53>@@AEAV<lambda_3e16ef9562a7dcce91392c22ab16ea36>@@$$QEAV<lambda_38119f0e861e05405d8a144b9b982f0a>@@@Z 000000018001b554 f   libucrt:wsetlocale.obj
 0001:0001a790       ?try_get_function@@YAPEAXW4function_id@?A0x391cf84c@@QEBDQEBW4module_id@2@2@Z 000000018001b790 f   libucrt:winapi_thunks.obj
 0001:0001af2c       ?fp_format_a@@YAHQEBNPEAD_KQEAD2H_NIW4__acrt_rounding_mode@@AEAV__crt_cached_ptd_host@@@Z 000000018001bf2c f   libucrt:cvt.obj
 0001:0001b2e0       ?fp_format_e@@YAHQEBNQEAD_K12H_NIW4__acrt_rounding_mode@@AEAV__crt_cached_ptd_host@@@Z 000000018001c2e0 f   libucrt:cvt.obj
 0001:0001b3dc       ?fp_format_e_internal@@YAHQEAD_KH_NIQEAU_strflt@@2AEAV__crt_cached_ptd_host@@@Z 000000018001c3dc f   libucrt:cvt.obj
 0001:0001b5c0       ?fp_format_f@@YAHQEBNQEAD_K12HW4__acrt_rounding_mode@@AEAV__crt_cached_ptd_host@@@Z 000000018001c5c0 f   libucrt:cvt.obj
 0001:0001b698       ?fp_format_f_internal@@YAHQEAD_KHQEAU_strflt@@_NAEAV__crt_cached_ptd_host@@@Z 000000018001c698 f   libucrt:cvt.obj
 0001:0001b7f0       ?fp_format_g@@YAHQEBNQEAD_K12H_NIW4__acrt_rounding_mode@@AEAV__crt_cached_ptd_host@@@Z 000000018001c7f0 f   libucrt:cvt.obj
 0001:0001b944       ?should_round_up@@YA_NQEBN_KFW4__acrt_rounding_mode@@@Z 000000018001c944 f   libucrt:cvt.obj
 0001:0001c090       ?initialize_inherited_file_handles_nolock@@YAXXZ 000000018001d090 f   libucrt:ioinit.obj
 0001:0001c180       ?initialize_stdio_handles_nolock@@YAXXZ 000000018001d180 f   libucrt:ioinit.obj
 0001:0001c3f8       ?<lambda_invoker_cdecl>@<lambda_a1ce4c8ae42411fd470c77163914f50e>@@CAHPEBX0@Z 000000018001d3f8 f   libucrt:argv_wildcards.obj
 0001:0001c714       ??$common_expand_argv_wildcards@D@@YAHQEAPEADQEAPEAPEAD@Z 000000018001d714 f   libucrt:argv_wildcards.obj
 0001:0001c958       ??$copy_and_add_argument_to_buffer@D@@YAHQEBD0_KAEAV?$argument_list@D@?A0x5f5c8891@@@Z 000000018001d958 f   libucrt:argv_wildcards.obj
 0001:0001cae0       ??$expand_argument_wildcards@D@@YAHQEAD0AEAV?$argument_list@D@?A0x5f5c8891@@@Z 000000018001dae0 f   libucrt:argv_wildcards.obj
 0001:0001d114       ??$?RV<lambda_efdfa57d1f175319df784efa44bb7b81>@@AEAV<lambda_5f0a4c1567f8adc6734073e5d1e1b35c>@@V<lambda_2e8a7d3640ea6ccb4c2413664c2db6fd>@@@?$__crt_seh_guarded_call@X@@QEAAX$$QEAV<lambda_efdfa57d1f175319df784efa44bb7b81>@@AEAV<lambda_5f0a4c1567f8adc6734073e5d1e1b35c>@@$$QEAV<lambda_2e8a7d3640ea6ccb4c2413664c2db6fd>@@@Z 000000018001e114 f   libucrt:mbctype.obj
 0001:0001d2e4       ?getSystemCP@@YAHH@Z       000000018001e2e4 f   libucrt:mbctype.obj
 0001:0001d364       ?setSBCS@@YAXPEAU__crt_multibyte_data@@@Z 000000018001e364 f   libucrt:mbctype.obj
 0001:0001d3fc       ?setSBUpLow@@YAXPEAU__crt_multibyte_data@@@Z 000000018001e3fc f   libucrt:mbctype.obj
 0001:0001d5e4       ?setmbcp_internal@@YAHH_NQEAU__acrt_ptd@@QEAPEAU__crt_multibyte_data@@@Z 000000018001e5e4 f   libucrt:mbctype.obj
 0001:0001d854       ?update_thread_multibyte_data_internal@@YAPEAU__crt_multibyte_data@@QEAU__acrt_ptd@@QEAPEAU1@@Z 000000018001e854 f   libucrt:mbctype.obj
 0001:0001dc48       ?x_ismbbtype_l@@YAHPEAU__crt_locale_pointers@@IHH@Z 000000018001ec48 f   libucrt:ismbbyte.obj
 0001:0001e018       ??$?RV<lambda_450d765d439847d4c735a33c368b5fc0>@@AEAV<lambda_44731a7d0e6d81c3e6aa82d741081786>@@V<lambda_601a2a7da3b7a96e9554ac7215c4b07c>@@@?$__crt_seh_guarded_call@P6AXH@Z@@QEAAP6AXH@Z$$QEAV<lambda_450d765d439847d4c735a33c368b5fc0>@@AEAV<lambda_44731a7d0e6d81c3e6aa82d741081786>@@$$QEAV<lambda_601a2a7da3b7a96e9554ac7215c4b07c>@@@Z 000000018001f018 f   libucrt:signal.obj
 0001:0001e390       ??$?RV<lambda_842d9ff0dc9ef11c61343bbaebe7f885>@@AEAV<lambda_c5860995281e5c4ce005b3de8f5874ee>@@V<lambda_d90129c13df834fdcbf8d2b88dafcf2d>@@@?$__crt_seh_guarded_call@X@@QEAAX$$QEAV<lambda_842d9ff0dc9ef11c61343bbaebe7f885>@@AEAV<lambda_c5860995281e5c4ce005b3de8f5874ee>@@$$QEAV<lambda_d90129c13df834fdcbf8d2b88dafcf2d>@@@Z 000000018001f390 f   libucrt:fflush.obj
 0001:0001e42c       ??$?RV<lambda_886d6c58226a84441f68b9f2b8217b83>@@AEAV<lambda_ab61a845afdef5b7c387490eaf3616ee>@@V<lambda_f7f22ab5edc0698d5f6905b0d3f44752>@@@?$__crt_seh_guarded_call@X@@QEAAX$$QEAV<lambda_886d6c58226a84441f68b9f2b8217b83>@@AEAV<lambda_ab61a845afdef5b7c387490eaf3616ee>@@$$QEAV<lambda_f7f22ab5edc0698d5f6905b0d3f44752>@@@Z 000000018001f42c f   libucrt:fflush.obj
 0001:0001e50c       ?common_flush_all@@YAH_N@Z 000000018001f50c f   libucrt:fflush.obj
 0001:0001ec58       ?free_crt_array_internal@@YAXQEAPEBX_K@Z 000000018001fc58 f   libucrt:inittime.obj
 0001:0002083c       memcpy_s                   000000018002183c f   libucrt:cfout.obj
 0001:00021440       fallbackMethod             0000000180022440 f   libucrt:strpbrk.obj
 0001:000217ec       $LN78                      00000001800227ec     libucrt:strpbrk.obj
 0001:00021828       $LN77                      0000000180022828     libucrt:strpbrk.obj
 0001:00021868       $LN76                      0000000180022868     libucrt:strpbrk.obj
 0001:00021944       ?__acrt_LCMapStringA_stat@@YAHPEAU__crt_locale_pointers@@PEB_WKPEBDHPEADHHH@Z 0000000180022944 f   libucrt:lcmapstringa.obj
 0001:00021cfc       ?initialize_multibyte@@YAHXZ 0000000180022cfc f   libucrt:multibyte_initializer.obj
 0001:00021d14       ??$?RV<lambda_a37b2b86f63e897a80ea819b0eb08c01>@@AEAV<lambda_38ce7e780aa69e748d6df282ebc68efe>@@V<lambda_99fb1378e971ab6e7edea83e3a7a83a2>@@@?$__crt_seh_guarded_call@H@@QEAAH$$QEAV<lambda_a37b2b86f63e897a80ea819b0eb08c01>@@AEAV<lambda_38ce7e780aa69e748d6df282ebc68efe>@@$$QEAV<lambda_99fb1378e971ab6e7edea83e3a7a83a2>@@@Z 0000000180022d14 f   libucrt:commit.obj
 0001:00021e34       ?write_double_translated_ansi_nolock@@YA?AUwrite_result@?A0x17268360@@HQEBDIAEAV__crt_cached_ptd_host@@@Z 0000000180022e34 f   libucrt:write.obj
 0001:000222c0       ?write_text_ansi_nolock@@YA?AUwrite_result@?A0x17268360@@HQEBDI@Z 00000001800232c0 f   libucrt:write.obj
 0001:000223c4       ?write_text_utf16le_nolock@@YA?AUwrite_result@?A0x17268360@@HQEBDI@Z 00000001800233c4 f   libucrt:write.obj
 0001:000224e0       ?write_text_utf8_nolock@@YA?AUwrite_result@?A0x17268360@@HQEBDI@Z 00000001800234e0 f   libucrt:write.obj
 0001:00022cc0       $$000000                   0000000180023cc0     libucrt:log10.obj
 0001:0002375c       ?_fclose_internal@@YAHQEAU_iobuf@@AEAV__crt_cached_ptd_host@@@Z 000000018002475c f   libucrt:fclose.obj
 0001:000237d8       ?_fclose_nolock_internal@@YAHQEAU_iobuf@@AEAV__crt_cached_ptd_host@@@Z 00000001800247d8 f   libucrt:fclose.obj
 0001:00023914       ??$common_lseek_nolock@_J@@YA_JH_JHAEAV__crt_cached_ptd_host@@@Z 0000000180024914 f   libucrt:lseek.obj
 0001:00023a9c       common_control87           0000000180024a9c f   libucrt:ieee.obj
 0001:00023d5c       _call_matherr              0000000180024d5c f   libucrt:libm_error.obj
 0001:00023dc4       _exception_enabled         0000000180024dc4 f   libucrt:libm_error.obj
 0001:00024060       _log_special_common        0000000180025060 f   libucrt:log_special.obj
 0001:000240f8       ??$?RV<lambda_ad8af0d99a0adf03d037d7dffe354bb5>@@AEAV<lambda_c9ba49e555ba839a7b07aa3fbecb7617>@@V<lambda_2f1ebd5d68526518146ae959c9e734c8>@@@?$__crt_seh_guarded_call@H@@QEAAH$$QEAV<lambda_ad8af0d99a0adf03d037d7dffe354bb5>@@AEAV<lambda_c9ba49e555ba839a7b07aa3fbecb7617>@@$$QEAV<lambda_2f1ebd5d68526518146ae959c9e734c8>@@@Z 00000001800250f8 f   libucrt:close.obj
 0001:00024450       $$000000                   0000000180025450     libucrt:fpsr.obj
 0001:00024bd0       $$000000                   0000000180025bd0     LIBCMT:guard_dispatch.obj
 0001:00024bf0       $$000000                   0000000180025bf0     LIBCMT:guard_xfg_dispatch.obj
 0001:00024c10       ?filt$0@?0??_AtlVerifyStackAvailable@_ATL_SAFE_ALLOCA_IMPL@ATL@@YA_N_K@Z@4HA 0000000180025c10 f   CAT.obj
 0001:00024c31       __scrt_is_nonwritable_in_current_image$filt$0 0000000180025c31 f   LIBCMT:utility.obj
 0001:00024c49       ?catch$0@?0???2@YAPEAX_KAEBUnothrow_t@std@@@Z@4HA 0000000180025c49 f   LIBCMT:new_scalar_nothrow.obj
 0001:00024c56       __catch$??2@YAPEAX_KAEBUnothrow_t@std@@@Z$0 0000000180025c56 f   LIBCMT:new_scalar_nothrow.obj
 0001:00024c67       ?fin$0@?0??dllmain_crt_process_attach@@YAHQEAUHINSTANCE__@@QEAX@Z@4HA 0000000180025c67 f   LIBCMT:dll_dllmain.obj
 0001:00024c7e       ?fin$0@?0??dllmain_crt_process_detach@@YAH_N@Z@4HA 0000000180025c7e f   LIBCMT:dll_dllmain.obj
 0001:00024c97       ?fin$1@?0??dllmain_crt_process_detach@@YAH_N@Z@4HA 0000000180025c97 f   LIBCMT:dll_dllmain.obj
 0001:00024cab       ?filt$0@?0??dllmain_dispatch@@YAHQEAUHINSTANCE__@@KQEAX@Z@4HA 0000000180025cab f   LIBCMT:dll_dllmain.obj
 0001:00024ce1       ?filt$0@?0???$_CallSETranslator@V__FrameHandler3@@@@YAHPEAUEHExceptionRecord@@PEA_KPEAU_CONTEXT@@PEAU_xDISPATCHER_CONTEXT@@PEBU_s_FuncInfo@@K1H@Z@4HA 0000000180025ce1 f   libvcruntime:risctrnsctrl.obj
 0001:00024d72       ?filt$0@?0???$_CallSETranslator@V__FrameHandler4@@@@YAHPEAUEHExceptionRecord@@PEA_KPEAU_CONTEXT@@PEAU_xDISPATCHER_CONTEXT@@PEAUFuncInfo4@FH4@@K1H@Z@4HA 0000000180025d72 f   libvcruntime:risctrnsctrl.obj
 0001:00024e11       __DestructExceptionObject$filt$0 0000000180025e11 f   libvcruntime:ehhelpers.obj
 0001:00024ea7       ?filt$0@?0??CxxCallCatchBlock@__FrameHandler3@@SAPEAXPEAU_EXCEPTION_RECORD@@@Z@4HA 0000000180025ea7 f   libvcruntime:frame.obj
 0001:00024ecc       ?fin$1@?0??CxxCallCatchBlock@__FrameHandler3@@SAPEAXPEAU_EXCEPTION_RECORD@@@Z@4HA 0000000180025ecc f   libvcruntime:frame.obj
 0001:00024f52       ?filt$0@?0??CxxCallCatchBlock@__FrameHandler4@@SAPEAXPEAU_EXCEPTION_RECORD@@@Z@4HA 0000000180025f52 f   libvcruntime:frame.obj
 0001:00024f81       ?fin$1@?0??CxxCallCatchBlock@__FrameHandler4@@SAPEAXPEAU_EXCEPTION_RECORD@@@Z@4HA 0000000180025f81 f   libvcruntime:frame.obj
 0001:00025012       ?filt$0@?0??FrameUnwindToState@__FrameHandler3@@SAXPEA_KPEAU_xDISPATCHER_CONTEXT@@PEBU_s_FuncInfo@@H@Z@4HA 0000000180026012 f   libvcruntime:frame.obj
 0001:00025028       ?fin$1@?0??FrameUnwindToState@__FrameHandler3@@SAXPEA_KPEAU_xDISPATCHER_CONTEXT@@PEBU_s_FuncInfo@@H@Z@4HA 0000000180026028 f   libvcruntime:frame.obj
 0001:0002504b       ?filt$0@?0??FrameUnwindToState@__FrameHandler4@@SAXPEA_KPEAU_xDISPATCHER_CONTEXT@@PEAUFuncInfo4@FH4@@H@Z@4HA 000000018002604b f   libvcruntime:frame.obj
 0001:00025061       ?fin$1@?0??FrameUnwindToState@__FrameHandler4@@SAXPEA_KPEAU_xDISPATCHER_CONTEXT@@PEAUFuncInfo4@FH4@@H@Z@4HA 0000000180026061 f   libvcruntime:frame.obj
 0001:00025084       ?fin$0@?0???$?RV<lambda_0ae27a3a962d80f24befdcbee591983d>@@AEAV<lambda_8d0ee55de4b1038c4002e0adecdf1839>@@V<lambda_dc504788e8f1664fe9b84e20bfb512f2>@@@?$__crt_seh_guarded_call@X@@QEAAX$$QEAV<lambda_0ae27a3a962d80f24befdcbee591983d>@@AEAV<lambda_8d0ee55de4b1038c4002e0adecdf1839>@@$$QEAV<lambda_dc504788e8f1664fe9b84e20bfb512f2>@@@Z@4HA 0000000180026084 f   libucrt:per_thread_data.obj
 0001:00025084       ?fin$0@?0???$?RV<lambda_2d41944a1d46af3157314b8a01080d33>@@AEAV<lambda_8f455de75cd7d7f24b4096f044d8b9e6>@@V<lambda_aa500f224e6afead328df44964fe2772>@@@?$__crt_seh_guarded_call@X@@QEAAX$$QEAV<lambda_2d41944a1d46af3157314b8a01080d33>@@AEAV<lambda_8f455de75cd7d7f24b4096f044d8b9e6>@@$$QEAV<lambda_aa500f224e6afead328df44964fe2772>@@@Z@4HA 0000000180026084 f   libucrt:per_thread_data.obj
 0001:00025084       ?fin$0@?0???$?RV<lambda_aa87e3671a710a21b5dc78c0bdf72e11>@@AEAV<lambda_92619d2358a28f41a33ba319515a20b9>@@V<lambda_6992ecaafeb10aed2b74cb1fae11a551>@@@?$__crt_seh_guarded_call@X@@QEAAX$$QEAV<lambda_aa87e3671a710a21b5dc78c0bdf72e11>@@AEAV<lambda_92619d2358a28f41a33ba319515a20b9>@@$$QEAV<lambda_6992ecaafeb10aed2b74cb1fae11a551>@@@Z@4HA 0000000180026084 f   libucrt:per_thread_data.obj
 0001:00025084       ?fin$0@?0???$?RV<lambda_f2e299630e499de9f9a165e60fcd3db5>@@AEAV<lambda_2ae9d31cdba2644fcbeaf08da7c24588>@@V<lambda_40d01ff24d0e7b3814fdbdcee8eab3c7>@@@?$__crt_seh_guarded_call@X@@QEAAX$$QEAV<lambda_f2e299630e499de9f9a165e60fcd3db5>@@AEAV<lambda_2ae9d31cdba2644fcbeaf08da7c24588>@@$$QEAV<lambda_40d01ff24d0e7b3814fdbdcee8eab3c7>@@@Z@4HA 0000000180026084 f   libucrt:per_thread_data.obj
 0001:00025084       ?fin$0@?0???$?RV<lambda_450d765d439847d4c735a33c368b5fc0>@@AEAV<lambda_44731a7d0e6d81c3e6aa82d741081786>@@V<lambda_601a2a7da3b7a96e9554ac7215c4b07c>@@@?$__crt_seh_guarded_call@P6AXH@Z@@QEAAP6AXH@Z$$QEAV<lambda_450d765d439847d4c735a33c368b5fc0>@@AEAV<lambda_44731a7d0e6d81c3e6aa82d741081786>@@$$QEAV<lambda_601a2a7da3b7a96e9554ac7215c4b07c>@@@Z@4HA 0000000180026084 f   libucrt:signal.obj
 0001:00025084       ?fin$0@?0???$?RV<lambda_d80eeec6fff315bfe5c115232f3240e3>@@AEAV<lambda_6e4b09c48022b2350581041d5f6b0c4c>@@V<lambda_2358e3775559c9db80273638284d5e45>@@@?$__crt_seh_guarded_call@X@@QEAAX$$QEAV<lambda_d80eeec6fff315bfe5c115232f3240e3>@@AEAV<lambda_6e4b09c48022b2350581041d5f6b0c4c>@@$$QEAV<lambda_2358e3775559c9db80273638284d5e45>@@@Z@4HA 0000000180026084 f   libucrt:exit.obj
 0001:00025084       ?fin$0@?0???$?RV<lambda_638799b9deba96c50f710eeac98168cd>@@AEAV<lambda_22ebabd17bc4fa466a2aca6d8deb888d>@@V<lambda_a6f7d7db0129f75315ebf26d50c089f1>@@@?$__crt_seh_guarded_call@H@@QEAAH$$QEAV<lambda_638799b9deba96c50f710eeac98168cd>@@AEAV<lambda_22ebabd17bc4fa466a2aca6d8deb888d>@@$$QEAV<lambda_a6f7d7db0129f75315ebf26d50c089f1>@@@Z@4HA 0000000180026084 f   libucrt:onexit.obj
 0001:00025084       ?fin$0@?0???$?RV<lambda_7777bce6b2f8c936911f934f8298dc43>@@AEAV<lambda_f03950bc5685219e0bcd2087efbe011e>@@V<lambda_3883c3dff614d5e0c5f61bb1ac94921c>@@@?$__crt_seh_guarded_call@H@@QEAAH$$QEAV<lambda_7777bce6b2f8c936911f934f8298dc43>@@AEAV<lambda_f03950bc5685219e0bcd2087efbe011e>@@$$QEAV<lambda_3883c3dff614d5e0c5f61bb1ac94921c>@@@Z@4HA 0000000180026084 f   libucrt:onexit.obj
 0001:0002509e       ?filt$0@?0???R<lambda_6e4b09c48022b2350581041d5f6b0c4c>@@QEBA@XZ@4HA 000000018002609e f   libucrt:exit.obj
 0001:000250cb       _query_new_handler$fin$0   00000001800260cb f   libucrt:new_handler.obj
 0001:000250e1       ?fin$0@?0???$?RV<lambda_410d79af7f07d98d83a3f525b3859a53>@@AEAV<lambda_3e16ef9562a7dcce91392c22ab16ea36>@@V<lambda_38119f0e861e05405d8a144b9b982f0a>@@@?$__crt_seh_guarded_call@X@@QEAAX$$QEAV<lambda_410d79af7f07d98d83a3f525b3859a53>@@AEAV<lambda_3e16ef9562a7dcce91392c22ab16ea36>@@$$QEAV<lambda_38119f0e861e05405d8a144b9b982f0a>@@@Z@4HA 00000001800260e1 f   libucrt:wsetlocale.obj
 0001:000250fb       __acrt_initialize_lowio$fin$0 00000001800260fb f   libucrt:ioinit.obj
 0001:000250fb       __acrt_lowio_ensure_fh_exists$fin$0 00000001800260fb f   libucrt:osfinfo.obj
 0001:00025114       ?fin$0@?0???$?RV<lambda_efdfa57d1f175319df784efa44bb7b81>@@AEAV<lambda_5f0a4c1567f8adc6734073e5d1e1b35c>@@V<lambda_2e8a7d3640ea6ccb4c2413664c2db6fd>@@@?$__crt_seh_guarded_call@X@@QEAAX$$QEAV<lambda_efdfa57d1f175319df784efa44bb7b81>@@AEAV<lambda_5f0a4c1567f8adc6734073e5d1e1b35c>@@$$QEAV<lambda_2e8a7d3640ea6ccb4c2413664c2db6fd>@@@Z@4HA 0000000180026114 f   libucrt:mbctype.obj
 0001:0002512e       ?fin$0@?0??update_thread_multibyte_data_internal@@YAPEAU__crt_multibyte_data@@QEAU__acrt_ptd@@QEAPEAU1@@Z@4HA 000000018002612e f   libucrt:mbctype.obj
 0001:00025147       raise$fin$0                0000000180026147 f   libucrt:signal.obj
 0001:00025168       ?fin$0@?0???$?RV<lambda_842d9ff0dc9ef11c61343bbaebe7f885>@@AEAV<lambda_c5860995281e5c4ce005b3de8f5874ee>@@V<lambda_d90129c13df834fdcbf8d2b88dafcf2d>@@@?$__crt_seh_guarded_call@X@@QEAAX$$QEAV<lambda_842d9ff0dc9ef11c61343bbaebe7f885>@@AEAV<lambda_c5860995281e5c4ce005b3de8f5874ee>@@$$QEAV<lambda_d90129c13df834fdcbf8d2b88dafcf2d>@@@Z@4HA 0000000180026168 f   libucrt:fflush.obj
 0001:00025183       ?fin$0@?0???$?RV<lambda_886d6c58226a84441f68b9f2b8217b83>@@AEAV<lambda_ab61a845afdef5b7c387490eaf3616ee>@@V<lambda_f7f22ab5edc0698d5f6905b0d3f44752>@@@?$__crt_seh_guarded_call@X@@QEAAX$$QEAV<lambda_886d6c58226a84441f68b9f2b8217b83>@@AEAV<lambda_ab61a845afdef5b7c387490eaf3616ee>@@$$QEAV<lambda_f7f22ab5edc0698d5f6905b0d3f44752>@@@Z@4HA 0000000180026183 f   libucrt:fflush.obj
 0001:000251a0       __acrt_update_thread_locale_data$fin$0 00000001800261a0 f   libucrt:locale_refcounting.obj
 0001:000251b9       _fcloseall$fin$0           00000001800261b9 f   libucrt:closeall.obj
 0001:000251d2       ?fin$0@?0???$?RV<lambda_ad8af0d99a0adf03d037d7dffe354bb5>@@AEAV<lambda_c9ba49e555ba839a7b07aa3fbecb7617>@@V<lambda_2f1ebd5d68526518146ae959c9e734c8>@@@?$__crt_seh_guarded_call@H@@QEAAH$$QEAV<lambda_ad8af0d99a0adf03d037d7dffe354bb5>@@AEAV<lambda_c9ba49e555ba839a7b07aa3fbecb7617>@@$$QEAV<lambda_2f1ebd5d68526518146ae959c9e734c8>@@@Z@4HA 00000001800261d2 f   libucrt:close.obj
 0001:000251d2       ?fin$0@?0???$?RV<lambda_a37b2b86f63e897a80ea819b0eb08c01>@@AEAV<lambda_38ce7e780aa69e748d6df282ebc68efe>@@V<lambda_99fb1378e971ab6e7edea83e3a7a83a2>@@@?$__crt_seh_guarded_call@H@@QEAAH$$QEAV<lambda_a37b2b86f63e897a80ea819b0eb08c01>@@AEAV<lambda_38ce7e780aa69e748d6df282ebc68efe>@@$$QEAV<lambda_99fb1378e971ab6e7edea83e3a7a83a2>@@@Z@4HA 00000001800261d2 f   libucrt:commit.obj
 0001:000251ec       _write_internal$fin$0      00000001800261ec f   libucrt:write.obj
 0001:00025203       ?fin$0@?0??_fclose_internal@@YAHQEAU_iobuf@@AEAV__crt_cached_ptd_host@@@Z@4HA 0000000180026203 f   libucrt:fclose.obj
 0001:0002521b       _ctrlfp$filt$0             000000018002621b f   libucrt:fpctrl.obj
 0001:0002521b       common_control87$filt$0    000000018002621b f   libucrt:ieee.obj
 0001:00025250       _IsNonwritableInCurrentImage$filt$0 0000000180026250 f   LIBCMT:pesect.obj
 0001:00025270       ??__F_AtlComModule@ATL@@YAXXZ 0000000180026270 f   OposVariant.obj
 0001:0002527c       ??__F_AtlWinModule@ATL@@YAXXZ 000000018002627c f   OposVariant.obj
 0001:000252c0       ??__F_Module@@YAXXZ        00000001800262c0 f   CAT.obj
 0001:000252dc       ??__F_AtlBaseModule@ATL@@YAXXZ 00000001800262dc f   atls:atlbase.obj
 0002:00000670       ?_AtlBaseModule$initializer$@ATL@@3P6AXXZEA 0000000180027670     atls:atlbase.obj
 0002:00000678       ?_AtlComModule$initializer$@ATL@@3P6AXXZEA 0000000180027678     OposVariant.obj
 0002:00000680       ?_AtlWinModule$initializer$@ATL@@3P6AXXZEA 0000000180027680     OposVariant.obj
 0002:00000688       ?_Module$initializer$@@3P6AXXZEA 0000000180027688     CAT.obj
 0002:00000690       ??pConnMap$initializer$@?$IConnectionPointContainerImpl@VCOPOSCAT@@@ATL@@0P6AXXZEA@@3P6AXXZEA 0000000180027690     CAT.obj
 0002:000006a8       ?__scrt_initialize_tss_var@@3P6AHXZEA 00000001800276a8     LIBCMT:thread_safe_statics.obj
 0002:000029c8       GS_ExceptionPointers       00000001800299c8     LIBCMT:gs_report.obj
 0002:00002bb0       ?ExceptionTemplate@?1??UnwindNestedFrames@__FrameHandler4@@SAXPEA_KPEAUEHExceptionRecord@@PEAU_CONTEXT@@0PEAXPEAUFuncInfo4@FH4@@HHPEAUHandlerType4@6@PEAU_xDISPATCHER_CONTEXT@@E@Z@4U_EXCEPTION_RECORD@@B 0000000180029bb0     libvcruntime:risctrnsctrl.obj
 0002:00002c50       ?ExceptionTemplate@?1??UnwindNestedFrames@__FrameHandler3@@SAXPEA_KPEAUEHExceptionRecord@@PEAU_CONTEXT@@0PEAXPEBU_s_FuncInfo@@HHPEBU_s_HandlerType@@PEAU_xDISPATCHER_CONTEXT@@E@Z@4U_EXCEPTION_RECORD@@B 0000000180029c50     libvcruntime:risctrnsctrl.obj
 0002:00002d20       ?tokenTable@@3QBUStringLiteral@@B 0000000180029d20     libvcruntime:undname.obj
 0002:00002e30       ?nameTable@@3QBUStringLiteral@@B 0000000180029e30     libvcruntime:undname.obj
 0002:00003360       ?rttiTable@@3QBUStringLiteral@@B 000000018002a360     libvcruntime:undname.obj
 0002:000033b0       ?IndirectionName@@3QBUStringLiteral@@B 000000018002a3b0     libvcruntime:undname.obj
 0002:00003410       ?PrefixName@@3QBUStringLiteral@@B 000000018002a410     libvcruntime:undname.obj
 0002:00003af8       ?module_names@?A0xbc0cc709@@3QBQEB_WB 000000018002aaf8     libvcruntime:winapi_downlevel.obj
 0002:00003bb8       ?candidate_modules@?1??try_get_FlsAlloc@@YAP6AKP6AXPEAX@Z@ZXZ@4QBW4module_id@?A0xbc0cc709@@B 000000018002abb8     libvcruntime:winapi_downlevel.obj
 0002:00003bd0       ?candidate_modules@?1??try_get_FlsFree@@YAP6AHK@ZXZ@4QBW4module_id@?A0xbc0cc709@@B 000000018002abd0     libvcruntime:winapi_downlevel.obj
 0002:00003be0       ?candidate_modules@?1??try_get_FlsGetValue@@YAP6APEAXK@ZXZ@4QBW4module_id@?A0xbc0cc709@@B 000000018002abe0     libvcruntime:winapi_downlevel.obj
 0002:00003bf8       ?candidate_modules@?1??try_get_FlsSetValue@@YAP6AHKPEAX@ZXZ@4QBW4module_id@?A0xbc0cc709@@B 000000018002abf8     libvcruntime:winapi_downlevel.obj
 0002:00003c10       ?candidate_modules@?1??try_get_InitializeCriticalSectionEx@@YAP6AHPEAU_RTL_CRITICAL_SECTION@@KK@ZXZ@4QBW4module_id@?A0xbc0cc709@@B 000000018002ac10     libvcruntime:winapi_downlevel.obj
 0002:00003c40       ?errtable@@3QBUerrentry@?A0x31fdb9ec@@B 000000018002ac40     libucrt:errno.obj
 0002:00003fa8       $cppxdata$?try_cor_exit_process@@YAXI@Z 000000018002afa8     libucrt:exit.obj
 0002:00003fd0       $cppxdata$?common_exit@@YAXHW4_crt_exit_cleanup_mode@@W4_crt_exit_return_mode@@@Z 000000018002afd0     libucrt:exit.obj
 0002:00004020       $cppxdata$__dcrt_uninitialize_environments_nolock 000000018002b020     libucrt:environment_initialization.obj
 0002:00004048       $cppxdata$_execute_onexit_table 000000018002b048     libucrt:onexit.obj
 0002:00004070       __acrt_initializers        000000018002b070     libucrt:initialization.obj
 0002:000047f0       ?module_names@?A0x391cf84c@@3QBQEB_WB 000000018002b7f0     libucrt:winapi_thunks.obj
 0002:00004cf8       ?candidate_modules@?1??try_get_AreFileApisANSI@@YAP6AHXZXZ@4QBW4module_id@?A0x391cf84c@@B 000000018002bcf8     libucrt:winapi_thunks.obj
 0002:00004d10       ?candidate_modules@?1??try_get_InitializeCriticalSectionEx@@YAP6AHPEAU_RTL_CRITICAL_SECTION@@KK@ZXZ@4QBW4module_id@?A0x391cf84c@@B 000000018002bd10     libucrt:winapi_thunks.obj
 0002:00004d18       ?candidate_modules@?1??try_get_LCMapStringEx@@YAP6AHPEB_WK0HPEA_WHPEAU_nlsversioninfo@@PEAX_J@ZXZ@4QBW4module_id@?A0x391cf84c@@B 000000018002bd18     libucrt:winapi_thunks.obj
 0002:00004d30       ?candidate_modules@?1??try_get_LocaleNameToLCID@@YAP6AKPEB_WK@ZXZ@4QBW4module_id@?A0x391cf84c@@B 000000018002bd30     libucrt:winapi_thunks.obj
 0002:00004d4c       ?candidate_modules@?1??try_get_AppPolicyGetProcessTerminationMethod@@YAP6AJPEAXPEAW4AppPolicyProcessTerminationMethod@@@ZXZ@4QBW4module_id@?A0x391cf84c@@B 000000018002bd4c     libucrt:winapi_thunks.obj
 0002:00004d78       ?candidate_modules@?1??try_get_SetThreadStackGuarantee@@YAP6AHPEAK@ZXZ@4QBW4module_id@?A0x391cf84c@@B 000000018002bd78     libucrt:winapi_thunks.obj
 0002:00004da0       ?strings@?1??fp_format_nan_or_infinity@@YAHW4__acrt_fp_class@@_NPEAD_K1@Z@4QAY03QEBDA 000000018002bda0     libucrt:cvt.obj
 0002:00004e78       ?_mb_locale_names@@3QBQEB_WB 000000018002be78     libucrt:mbctype.obj
 0002:000054f0       ?LcidToLocaleNameTable@?A0x881e4c05@@3QBULcidToLocaleName@1@B 000000018002c4f0     libucrt:lcidtoname_downlevel.obj
 0002:00006f40       ?LocaleNameToIndexTable@?A0x881e4c05@@3QBULocaleNameIndex@1@B 000000018002df40     libucrt:lcidtoname_downlevel.obj
 0002:000091d0       $cppxdata$?write_double_translated_ansi_nolock@@YA?AUwrite_result@?A0x17268360@@HQEBDIAEAV__crt_cached_ptd_host@@@Z 00000001800301d0     libucrt:write.obj
 0002:00009200       __real_ninf                0000000180030200     libucrt:log10.obj
 0002:00009210       __real_inf                 0000000180030210     libucrt:log10.obj
 0002:00009220       __real_neg_qnan            0000000180030220     libucrt:log10.obj
 0002:00009230       __real_qnanbit             0000000180030230     libucrt:log10.obj
 0002:00009240       __int_1023                 0000000180030240     libucrt:log10.obj
 0002:00009250       __mask_001                 0000000180030250     libucrt:log10.obj
 0002:00009260       __mask_mant                0000000180030260     libucrt:log10.obj
 0002:00009270       __mask_mant_top8           0000000180030270     libucrt:log10.obj
 0002:00009280       __mask_mant9               0000000180030280     libucrt:log10.obj
 0002:00009290       __real_log10_e             0000000180030290     libucrt:log10.obj
 0002:000092a0       __real_log10_e_lead        00000001800302a0     libucrt:log10.obj
 0002:000092b0       __real_log10_e_tail        00000001800302b0     libucrt:log10.obj
 0002:000092c0       __real_log10_2_lead        00000001800302c0     libucrt:log10.obj
 0002:000092d0       __real_log10_2_tail        00000001800302d0     libucrt:log10.obj
 0002:000092e0       __real_two                 00000001800302e0     libucrt:log10.obj
 0002:000092f0       __real_one                 00000001800302f0     libucrt:log10.obj
 0002:00009300       __real_half                0000000180030300     libucrt:log10.obj
 0002:00009310       __mask_100                 0000000180030310     libucrt:log10.obj
 0002:00009320       __real_1_over_512          0000000180030320     libucrt:log10.obj
 0002:00009330       __real_1_over_2            0000000180030330     libucrt:log10.obj
 0002:00009340       __real_1_over_3            0000000180030340     libucrt:log10.obj
 0002:00009350       __real_1_over_4            0000000180030350     libucrt:log10.obj
 0002:00009360       __real_1_over_5            0000000180030360     libucrt:log10.obj
 0002:00009370       __real_1_over_6            0000000180030370     libucrt:log10.obj
 0002:00009380       __real_neg_1023            0000000180030380     libucrt:log10.obj
 0002:00009390       __mask_2045                0000000180030390     libucrt:log10.obj
 0002:000093a0       __real_threshold           00000001800303a0     libucrt:log10.obj
 0002:000093b0       __real_near_one_lt         00000001800303b0     libucrt:log10.obj
 0002:000093c0       __real_near_one_gt         00000001800303c0     libucrt:log10.obj
 0002:000093d0       __real_min_norm            00000001800303d0     libucrt:log10.obj
 0002:000093e0       __real_notsign             00000001800303e0     libucrt:log10.obj
 0002:000093f0       __real_ca1                 00000001800303f0     libucrt:log10.obj
 0002:00009400       __real_ca2                 0000000180030400     libucrt:log10.obj
 0002:00009410       __real_ca3                 0000000180030410     libucrt:log10.obj
 0002:00009420       __real_ca4                 0000000180030420     libucrt:log10.obj
 0002:00009430       __mask_lower               0000000180030430     libucrt:log10.obj
 0002:00009440       __flag_x_zero              0000000180030440     libucrt:log10.obj
 0002:00009444       __flag_x_neg               0000000180030444     libucrt:log10.obj
 0002:00009448       __flag_x_nan               0000000180030448     libucrt:log10.obj
 0002:0000aca0       __real@433fffffffffffff    0000000180031ca0     libucrt:fpsr.obj
 0002:0000aca8       __real@c33fffffffffffff    0000000180031ca8     libucrt:fpsr.obj
 0002:0000b5c0       $unwind$?cw_memcpy@@YAHPEA_WPEBDH@Z 00000001800325c0     CWString.obj
 0002:0000b5c0       $unwind$_invalid_parameter_noinfo 00000001800325c0     libucrt:invalid_parameter.obj
 0002:0000b5c0       $unwind$?state_case_size@?$output_processor@_WV?$string_output_adapter@_W@__crt_stdio_output@@V?$format_validation_base@_WV?$string_output_adapter@_W@__crt_stdio_output@@@2@@__crt_stdio_output@@AEAA_NXZ 00000001800325c0     libucrt:output.obj
 0002:0000b5c0       $unwind$_log10_special     00000001800325c0     libucrt:log_special.obj
 0002:0000b5c8       $unwind$??__E?pConnMap@?$IConnectionPointContainerImpl@VCOPOSCAT@@@ATL@@0PEBU_ATL_CONNMAP_ENTRY@2@EB@@YAXXZ 00000001800325c8     CAT.obj
 0002:0000b5c8       $unwind$?AddReplacement@CRegObject@ATL@@UEAAJPEB_W0@Z 00000001800325c8     CAT.obj
 0002:0000b5c8       $unwind$?AtlHresultFromLastError@ATL@@YAJXZ 00000001800325c8     CAT.obj
 0002:0000b5c8       $unwind$?AtlThrowImpl@ATL@@YAXJ@Z 00000001800325c8     CAT.obj
 0002:0000b5c8       $unwind$?CreateInstance@CComClassFactory@ATL@@UEAAJPEAUIUnknown@@AEBU_GUID@@PEAPEAX@Z 00000001800325c8     CAT.obj
 0002:0000b5c8       $unwind$?DefaultReflectionHandler@?$CWindowImplRoot@VCWindow@ATL@@@ATL@@SAHPEAUHWND__@@I_K_JAEA_J@Z 00000001800325c8     CAT.obj
 0002:0000b5c8       $unwind$?EnumAdvise@?$IOleObjectImpl@VCOPOSCAT@@@ATL@@UEAAJPEAPEAUIEnumSTATDATA@@@Z 00000001800325c8     CAT.obj
 0002:0000b5c8       $unwind$?FireViewChange@CComControlBase@ATL@@QEAAJXZ 00000001800325c8     CAT.obj
 0002:0000b5c8       $unwind$?GetAdvise@?$IViewObjectExImpl@VCOPOSCAT@@@ATL@@UEAAJPEAK0PEAPEAUIAdviseSink@@@Z 00000001800325c8     CAT.obj
 0002:0000b5c8       $unwind$?LockServer@CComClassFactory@ATL@@UEAAJH@Z 00000001800325c8     CAT.obj
 0002:0000b5c8       $unwind$?OnDocWindowActivate@?$IOleInPlaceActiveObjectImpl@VCOPOSCAT@@@ATL@@UEAAJH@Z 00000001800325c8     CAT.obj
 0002:0000b5c8       $unwind$?Unadvise@?$IOleObjectImpl@VCOPOSCAT@@@ATL@@UEAAJK@Z 00000001800325c8     CAT.obj
 0002:0000b5c8       $unwind$?_LocCPQueryInterface@?$IConnectionPointImpl@VCOPOSCAT@@$1?DIID__IOPOSCATEvents@@3U_GUID@@BVCComDynamicUnkArray@ATL@@@ATL@@UEAAJAEBU_GUID@@PEAPEAX@Z 00000001800325c8     CAT.obj
 0002:0000b5c8       $unwind$?_LocCPQueryInterface@?$IConnectionPointImpl@VCOPOSCAT@@$1?IID_IPropertyNotifySink@@3U_GUID@@BVCComDynamicUnkArray@ATL@@@ATL@@UEAAJAEBU_GUID@@PEAPEAX@Z 00000001800325c8     CAT.obj
 0002:0000b5c8       $unwind$?FinalConstruct@COPOSCAT@@QEAAJXZ 00000001800325c8     CATImpl.obj
 0002:0000b5c8       $unwind$?get_ResultCode@COPOSCAT@@UEAAJPEAJ@Z 00000001800325c8     CATImpl.obj
 0002:0000b5c8       $unwind$?get_State@COPOSCAT@@UEAAJPEAJ@Z 00000001800325c8     CATImpl.obj
 0002:0000b5c8       $unwind$?cw_strcpy@@YAHPEA_WPEBD@Z 00000001800325c8     CWString.obj
 0002:0000b5c8       $unwind$??1OposDispParms@@QEAA@XZ 00000001800325c8     OposVariant.obj
 0002:0000b5c8       $unwind$??__E_AtlComModule@ATL@@YAXXZ 00000001800325c8     OposVariant.obj
 0002:0000b5c8       $unwind$??__E_AtlWinModule@ATL@@YAXXZ 00000001800325c8     OposVariant.obj
 0002:0000b5c8       $unwind$??__F_AtlWinModule@ATL@@YAXXZ 00000001800325c8     OposVariant.obj
 0002:0000b5c8       $unwind$?GetLONG@OposVariant@@QEAAJXZ 00000001800325c8     OposVariant.obj
 0002:0000b5c8       $unwind$__dcrt_terminate_console_output 00000001800325c8     libucrt:initcon.obj
 0002:0000b5c8       $unwind$??$uninitialize_environment_internal@D@@YAXAEAPEAPEAD@Z 00000001800325c8     libucrt:environment_initialization.obj
 0002:0000b5c8       $unwind$??$uninitialize_environment_internal@_W@@YAXAEAPEAPEA_W@Z 00000001800325c8     libucrt:environment_initialization.obj
 0002:0000b5c8       $unwind$__acrt_initialize_heap 00000001800325c8     libucrt:heap_handle.obj
 0002:0000b5c8       $unwind$_msize_base        00000001800325c8     libucrt:msize.obj
 0002:0000b5c8       $unwind$?initialize_multibyte@@YAHXZ 00000001800325c8     libucrt:multibyte_initializer.obj
 0002:0000b5c8       $unwind$__acrt_thread_attach 00000001800325c8     libucrt:initialization.obj
 0002:0000b5c8       $unwind$__acrt_thread_detach 00000001800325c8     libucrt:initialization.obj
 0002:0000b5c8       $unwind$__acrt_uninitialize 00000001800325c8     libucrt:initialization.obj
 0002:0000b5c8       $unwind$__acrt_uninitialize_critical 00000001800325c8     libucrt:initialization.obj
 0002:0000b5c8       $unwind$initialize_c       00000001800325c8     libucrt:initialization.obj
 0002:0000b5c8       $unwind$uninitialize_allocated_io_buffers 00000001800325c8     libucrt:initialization.obj
 0002:0000b5c8       $unwind$uninitialize_environment 00000001800325c8     libucrt:initialization.obj
 0002:0000b5c8       $unwind$__acrt_initialize_ptd 00000001800325c8     libucrt:per_thread_data.obj
 0002:0000b5c8       $unwind$__acrt_uninitialize_ptd 00000001800325c8     libucrt:per_thread_data.obj
 0002:0000b5c8       $unwind$__acrt_AreFileApisANSI 00000001800325c8     libucrt:winapi_thunks.obj
 0002:0000b5c8       $unwind$__acrt_release_locale_ref 00000001800325c8     libucrt:locale_refcounting.obj
 0002:0000b5c8       $unwind$_isatty            00000001800325c8     libucrt:isatty.obj
 0002:0000b5c8       $unwind$_get_osfhandle     00000001800325c8     libucrt:osfinfo.obj
 0002:0000b5c8       $unwind$__acrt_initialize_multibyte 00000001800325c8     libucrt:mbctype.obj
 0002:0000b5c8       $unwind$__acrt_update_thread_multibyte_data 00000001800325c8     libucrt:mbctype.obj
 0002:0000b5c8       $unwind$__doserrno         00000001800325c8     libucrt:errno.obj
 0002:0000b5c8       $unwind$_errno             00000001800325c8     libucrt:errno.obj
 0002:0000b5c8       $unwind$_invoke_watson     00000001800325c8     libucrt:invalid_parameter.obj
 0002:0000b5c8       $unwind$abort              00000001800325c8     libucrt:abort.obj
 0002:0000b5c8       $unwind$__acrt_initialize_command_line 00000001800325c8     libucrt:argv_data.obj
 0002:0000b5c8       $unwind$?should_call_terminate_process@@YA_NXZ 00000001800325c8     libucrt:exit.obj
 0002:0000b5c8       $unwind$_fileno            00000001800325c8     libucrt:fileno.obj
 0002:0000b5c8       $unwind$_statfp            00000001800325c8     libucrt:fpctrl.obj
 0002:0000b5c8       $unwind$fegetround         00000001800325c8     libucrt:fegetround.obj
 0002:0000b5c8       $unwind$_set_errno_from_matherr 00000001800325c8     libucrt:fpexcept.obj
 0002:0000b5c8       $unwind$??__E_AtlBaseModule@ATL@@YAXXZ 00000001800325c8     atls:atlbase.obj
 0002:0000b5c8       $unwind$__scrt_initialize_default_local_stdio_options 00000001800325c8     LIBCMT:default_local_stdio_options.obj
 0002:0000b5c8       $unwind$?dllmain_crt_dispatch@@YAHQEAUHINSTANCE__@@KQEAX@Z 00000001800325c8     LIBCMT:dll_dllmain.obj
 0002:0000b5c8       $unwind$__report_rangecheckfailure 00000001800325c8     LIBCMT:gs_report.obj
 0002:0000b5c8       $unwind$__GSHandlerCheck   00000001800325c8     LIBCMT:gshandler.obj
 0002:0000b5c8       $unwind$?__scrt_uninitialize_thread_safe_statics@@YAXXZ 00000001800325c8     LIBCMT:thread_safe_statics.obj
 0002:0000b5c8       $unwind$_Init_thread_notify 00000001800325c8     LIBCMT:thread_safe_statics.obj
 0002:0000b5c8       $unwind$__scrt_acquire_startup_lock 00000001800325c8     LIBCMT:utility.obj
 0002:0000b5c8       $unwind$__scrt_dllmain_after_initialize_c 00000001800325c8     LIBCMT:utility.obj
 0002:0000b5c8       $unwind$__scrt_dllmain_before_initialize_c 00000001800325c8     LIBCMT:utility.obj
 0002:0000b5c8       $unwind$__scrt_dllmain_crt_thread_attach 00000001800325c8     LIBCMT:utility.obj
 0002:0000b5c8       $unwind$__scrt_dllmain_crt_thread_detach 00000001800325c8     LIBCMT:utility.obj
 0002:0000b5c8       $unwind$__scrt_dllmain_uninitialize_c 00000001800325c8     LIBCMT:utility.obj
 0002:0000b5c8       $unwind$__scrt_dllmain_uninitialize_critical 00000001800325c8     LIBCMT:utility.obj
 0002:0000b5c8       $unwind$atexit             00000001800325c8     LIBCMT:utility.obj
 0002:0000b5c8       $unwind$__std_terminate    00000001800325c8     libvcruntime:ehhelpers.obj
 0002:0000b5c8       $unwind$?GetCurrentState@__FrameHandler3@@SAHPEA_KPEAU_xDISPATCHER_CONTEXT@@PEBU_s_FuncInfo@@@Z 00000001800325c8     libvcruntime:ehstate.obj
 0002:0000b5c8       $unwind$__vcrt_initialize  00000001800325c8     libvcruntime:initialization.obj
 0002:0000b5c8       $unwind$__vcrt_thread_attach 00000001800325c8     libvcruntime:initialization.obj
 0002:0000b5c8       $unwind$__vcrt_thread_detach 00000001800325c8     libvcruntime:initialization.obj
 0002:0000b5c8       $unwind$__vcrt_uninitialize 00000001800325c8     libvcruntime:initialization.obj
 0002:0000b5c8       $unwind$__vcrt_uninitialize_critical 00000001800325c8     libvcruntime:initialization.obj
 0002:0000b5c8       $unwind$__vcrt_freefls     00000001800325c8     libvcruntime:per_thread_data.obj
 0002:0000b5c8       $unwind$__vcrt_getptd      00000001800325c8     libvcruntime:per_thread_data.obj
 0002:0000b5c8       $unwind$__vcrt_initialize_ptd 00000001800325c8     libvcruntime:per_thread_data.obj
 0002:0000b5c8       $unwind$__vcrt_uninitialize_ptd 00000001800325c8     libvcruntime:per_thread_data.obj
 0002:0000b5c8       $unwind$_purecall          00000001800325c8     libvcruntime:purevirt.obj
 0002:0000b5c8       $unwind$?FrameUnwindToEmptyState@__FrameHandler4@@SAXPEA_KPEAU_xDISPATCHER_CONTEXT@@PEAUFuncInfo4@FH4@@@Z 00000001800325c8     libvcruntime:risctrnsctrl.obj
 0002:0000b5c8       $unwind$_GetImageBase      00000001800325c8     libvcruntime:risctrnsctrl.obj
 0002:0000b5c8       $unwind$_GetThrowImageBase 00000001800325c8     libvcruntime:risctrnsctrl.obj
 0002:0000b5d0       $unwind$?DAdvise@?$IDataObjectImpl@VCOPOSCAT@@@ATL@@UEAAJPEAUtagFORMATETC@@KPEAUIAdviseSink@@PEAK@Z 00000001800325d0     CAT.obj
 0002:0000b5d0       $unwind$?cw_dup@@YAXPEBDAEAHAEAPEA_W1@Z 00000001800325d0     CWString.obj
 0002:0000b5d0       $unwind$??$create_environment@D@@YAQEAPEADQEAD@Z 00000001800325d0     libucrt:environment_initialization.obj
 0002:0000b5d0       $unwind$_mbtowc_internal   00000001800325d0     libucrt:mbtowc.obj
 0002:0000b5d0       $unwind$??$__acrt_convert_wcs_mbs_cp@D_WV<lambda_7c9dea7b4ca7285d2cdb541a38da6275>@@U__crt_win32_buffer_internal_dynamic_resizing@@@@YAHQEBDAEAV?$__crt_win32_buffer@_WU__crt_win32_buffer_internal_dynamic_resizing@@@@AEBV<lambda_7c9dea7b4ca7285d2cdb541a38da6275>@@I@Z 00000001800325d0     libucrt:argv_wildcards.obj
 0002:0000b5d0       $unwind$?process@?$output_processor@_WV?$string_output_adapter@_W@__crt_stdio_output@@V?$format_validation_base@_WV?$string_output_adapter@_W@__crt_stdio_output@@@2@@__crt_stdio_output@@QEAAHXZ 00000001800325d0     libucrt:output.obj
 0002:0000b5e8       $unwind$??0?$CComObject@VCOPOSCAT@@@ATL@@QEAA@PEAX@Z 00000001800325e8     CAT.obj
 0002:0000b5e8       $unwind$??0CAtlModule@ATL@@QEAA@XZ 00000001800325e8     CAT.obj
 0002:0000b5e8       $unwind$??1?$CComObject@VCOPOSCAT@@@ATL@@UEAA@XZ 00000001800325e8     CAT.obj
 0002:0000b5e8       $unwind$??__E_Module@@YAXXZ 00000001800325e8     CAT.obj
 0002:0000b5e8       $unwind$?AddRef@?$CComObjectCached@VCComClassFactory@ATL@@@ATL@@UEAAKXZ 00000001800325e8     CAT.obj
 0002:0000b5e8       $unwind$?AllocateHeap@?$CTempBuffer@E$0BAA@VCCRTAllocator@ATL@@@ATL@@AEAAX_K@Z 00000001800325e8     CAT.obj
 0002:0000b5e8       $unwind$?AllocateHeap@?$CTempBuffer@_W$0BAA@VCCRTAllocator@ATL@@@ATL@@AEAAX_K@Z 00000001800325e8     CAT.obj
 0002:0000b5e8       $unwind$?AllocateHeap@?$CTempBuffer@_W$0EAA@VCCRTAllocator@ATL@@@ATL@@AEAAX_K@Z 00000001800325e8     CAT.obj
 0002:0000b5e8       $unwind$?GetClassInfoW@?$IProvideClassInfo2Impl@$1?CLSID_OPOSCAT@@3U_GUID@@B$1?DIID__IOPOSCATEvents@@3U2@B$1?LIBID_OposCAT_CCO@@3U2@B$00$0A@VCComTypeInfoHolder@ATL@@@ATL@@UEAAJPEAPEAUITypeInfo@@@Z 00000001800325e8     CAT.obj
 0002:0000b5e8       $unwind$?GetClientSite@?$IOleObjectImpl@VCOPOSCAT@@@ATL@@UEAAJPEAPEAUIOleClientSite@@@Z 00000001800325e8     CAT.obj
 0002:0000b5e8       $unwind$?GetConnMap@COPOSCAT@@SAPEBU_ATL_CONNMAP_ENTRY@ATL@@PEAH@Z 00000001800325e8     CAT.obj
 0002:0000b5e8       $unwind$?GetTypeInfo@?$IDispatchImpl@UIOPOSCAT@@$1?IID_IOPOSCAT@@3U_GUID@@B$1?LIBID_OposCAT_CCO@@3U3@B$00$0A@VCComTypeInfoHolder@ATL@@@ATL@@UEAAJIKPEAPEAUITypeInfo@@@Z 00000001800325e8     CAT.obj
 0002:0000b5e8       $unwind$?IOleInPlaceObject_InPlaceDeactivate@CComControlBase@ATL@@QEAAJXZ 00000001800325e8     CAT.obj
 0002:0000b5e8       $unwind$?IOleObject_SetExtent@CComControlBase@ATL@@QEAAJKPEAUtagSIZE@@@Z 00000001800325e8     CAT.obj
 0002:0000b5e8       $unwind$?IsEqualObject@?$CComPtrBase@UIOleClientSite@@@ATL@@QEAA_NPEAUIUnknown@@@Z 00000001800325e8     CAT.obj
 0002:0000b5e8       $unwind$?QueryHitPoint@?$IViewObjectExImpl@VCOPOSCAT@@@ATL@@UEAAJKPEBUtagRECT@@UtagPOINT@@JPEAK@Z 00000001800325e8     CAT.obj
 0002:0000b5e8       $unwind$?QueryInterface@?$CComAggObject@VCOPOSCAT@@@ATL@@UEAAJAEBU_GUID@@PEAPEAX@Z 00000001800325e8     CAT.obj
 0002:0000b5e8       $unwind$?Release@?$CComObjectCached@VCComClassFactory@ATL@@@ATL@@UEAAKXZ 00000001800325e8     CAT.obj
 0002:0000b5e8       $unwind$?Unadvise@?$IConnectionPointImpl@VCOPOSCAT@@$1?DIID__IOPOSCATEvents@@3U_GUID@@BVCComDynamicUnkArray@ATL@@@ATL@@UEAAJK@Z 00000001800325e8     CAT.obj
 0002:0000b5e8       $unwind$?Unadvise@?$IConnectionPointImpl@VCOPOSCAT@@$1?IID_IPropertyNotifySink@@3U_GUID@@BVCComDynamicUnkArray@ATL@@@ATL@@UEAAJK@Z 00000001800325e8     CAT.obj
 0002:0000b5e8       $unwind$??1CComControlBase@ATL@@UEAA@XZ 00000001800325e8     CATImpl.obj
 0002:0000b5e8       $unwind$??1COPOSCAT@@UEAA@XZ 00000001800325e8     CATImpl.obj
 0002:0000b5e8       $unwind$?EventUninit@COPOSCAT@@IEAAXXZ 00000001800325e8     CATImpl.obj
 0002:0000b5e8       $unwind$?FreezeEvents@COPOSCAT@@MEAAJH@Z 00000001800325e8     CATImpl.obj
 0002:0000b5e8       $unwind$?SOProcessID@COPOSCAT@@UEAAJPEAJ@Z 00000001800325e8     CATImpl.obj
 0002:0000b5e8       $unwind$?get_AsyncMode@COPOSCAT@@UEAAJPEAF@Z 00000001800325e8     CATImpl.obj
 0002:0000b5e8       $unwind$?get_CapAdditionalSecurityInformation@COPOSCAT@@UEAAJPEAF@Z 00000001800325e8     CATImpl.obj
 0002:0000b5e8       $unwind$?get_CapAuthorizeCompletion@COPOSCAT@@UEAAJPEAF@Z 00000001800325e8     CATImpl.obj
 0002:0000b5e8       $unwind$?get_CapAuthorizePreSales@COPOSCAT@@UEAAJPEAF@Z 00000001800325e8     CATImpl.obj
 0002:0000b5e8       $unwind$?get_CapAuthorizeRefund@COPOSCAT@@UEAAJPEAF@Z 00000001800325e8     CATImpl.obj
 0002:0000b5e8       $unwind$?get_CapAuthorizeVoid@COPOSCAT@@UEAAJPEAF@Z 00000001800325e8     CATImpl.obj
 0002:0000b5e8       $unwind$?get_CapAuthorizeVoidPreSales@COPOSCAT@@UEAAJPEAF@Z 00000001800325e8     CATImpl.obj
 0002:0000b5e8       $unwind$?get_CapCashDeposit@COPOSCAT@@UEAAJPEAF@Z 00000001800325e8     CATImpl.obj
 0002:0000b5e8       $unwind$?get_CapCenterResultCode@COPOSCAT@@UEAAJPEAF@Z 00000001800325e8     CATImpl.obj
 0002:0000b5e8       $unwind$?get_CapCheckCard@COPOSCAT@@UEAAJPEAF@Z 00000001800325e8     CATImpl.obj
 0002:0000b5e8       $unwind$?get_CapCompareFirmwareVersion@COPOSCAT@@UEAAJPEAF@Z 00000001800325e8     CATImpl.obj
 0002:0000b5e8       $unwind$?get_CapInstallments@COPOSCAT@@UEAAJPEAF@Z 00000001800325e8     CATImpl.obj
 0002:0000b5e8       $unwind$?get_CapLockTerminal@COPOSCAT@@UEAAJPEAF@Z 00000001800325e8     CATImpl.obj
 0002:0000b5e8       $unwind$?get_CapLogStatus@COPOSCAT@@UEAAJPEAF@Z 00000001800325e8     CATImpl.obj
 0002:0000b5e8       $unwind$?get_CapPaymentDetail@COPOSCAT@@UEAAJPEAF@Z 00000001800325e8     CATImpl.obj
 0002:0000b5e8       $unwind$?get_CapStatisticsReporting@COPOSCAT@@UEAAJPEAF@Z 00000001800325e8     CATImpl.obj
 0002:0000b5e8       $unwind$?get_CapTaxOthers@COPOSCAT@@UEAAJPEAF@Z 00000001800325e8     CATImpl.obj
 0002:0000b5e8       $unwind$?get_CapTrainingMode@COPOSCAT@@UEAAJPEAF@Z 00000001800325e8     CATImpl.obj
 0002:0000b5e8       $unwind$?get_CapTransactionNumber@COPOSCAT@@UEAAJPEAF@Z 00000001800325e8     CATImpl.obj
 0002:0000b5e8       $unwind$?get_CapUnlockTerminal@COPOSCAT@@UEAAJPEAF@Z 00000001800325e8     CATImpl.obj
 0002:0000b5e8       $unwind$?get_CapUpdateFirmware@COPOSCAT@@UEAAJPEAF@Z 00000001800325e8     CATImpl.obj
 0002:0000b5e8       $unwind$?get_CapUpdateStatistics@COPOSCAT@@UEAAJPEAF@Z 00000001800325e8     CATImpl.obj
 0002:0000b5e8       $unwind$?get_Claimed@COPOSCAT@@UEAAJPEAF@Z 00000001800325e8     CATImpl.obj
 0002:0000b5e8       $unwind$?get_DeviceEnabled@COPOSCAT@@UEAAJPEAF@Z 00000001800325e8     CATImpl.obj
 0002:0000b5e8       $unwind$?get_FreezeEvents@COPOSCAT@@UEAAJPEAF@Z 00000001800325e8     CATImpl.obj
 0002:0000b5e8       $unwind$?get_TrainingMode@COPOSCAT@@UEAAJPEAF@Z 00000001800325e8     CATImpl.obj
 0002:0000b5e8       $unwind$?put_FreezeEvents@COPOSCAT@@UEAAJF@Z 00000001800325e8     CATImpl.obj
 0002:0000b5e8       $unwind$?DupWide@_CW@@AEAAXXZ 00000001800325e8     CWString.obj
 0002:0000b5e8       $unwind$??0CAtlComModule@ATL@@QEAA@XZ 00000001800325e8     OposVariant.obj
 0002:0000b5e8       $unwind$??0CAtlWinModule@ATL@@QEAA@XZ 00000001800325e8     OposVariant.obj
 0002:0000b5e8       $unwind$_calloc_base       00000001800325e8     libucrt:calloc_base.obj
 0002:0000b5e8       $unwind$_malloc_base       00000001800325e8     libucrt:malloc_base.obj
 0002:0000b5e8       $unwind$_callnewh          00000001800325e8     libucrt:new_handler.obj
 0002:0000b5e8       $unwind$initialize_pointers 00000001800325e8     libucrt:initialization.obj
 0002:0000b5e8       $unwind$uninitialize_allocated_memory 00000001800325e8     libucrt:initialization.obj
 0002:0000b5e8       $unwind$__acrt_initialize_locks 00000001800325e8     libucrt:locks.obj
 0002:0000b5e8       $unwind$__acrt_uninitialize_locks 00000001800325e8     libucrt:locks.obj
 0002:0000b5e8       $unwind$__acrt_freeptd     00000001800325e8     libucrt:per_thread_data.obj
 0002:0000b5e8       $unwind$__acrt_getptd_head 00000001800325e8     libucrt:per_thread_data.obj
 0002:0000b5e8       $unwind$__acrt_get_process_end_policy 00000001800325e8     libucrt:win_policies.obj
 0002:0000b5e8       $unwind$__acrt_AppPolicyGetProcessTerminationMethodInternal 00000001800325e8     libucrt:winapi_thunks.obj
 0002:0000b5e8       $unwind$__acrt_SetThreadStackGuarantee 00000001800325e8     libucrt:winapi_thunks.obj
 0002:0000b5e8       $unwind$__acrt_uninitialize_winapi_thunks 00000001800325e8     libucrt:winapi_thunks.obj
 0002:0000b5e8       $unwind$__acrt_update_locale_info 00000001800325e8     libucrt:locale_update.obj
 0002:0000b5e8       $unwind$__acrt_update_locale_info_explicit 00000001800325e8     libucrt:locale_update.obj
 0002:0000b5e8       $unwind$__acrt_update_multibyte_info 00000001800325e8     libucrt:locale_update.obj
 0002:0000b5e8       $unwind$__acrt_update_multibyte_info_explicit 00000001800325e8     libucrt:locale_update.obj
 0002:0000b5e8       $unwind$__acrt_errno_map_os_error 00000001800325e8     libucrt:errno.obj
 0002:0000b5e8       $unwind$__acrt_errno_map_os_error_ptd 00000001800325e8     libucrt:errno.obj
 0002:0000b5e8       $unwind$__acrt_allocate_buffer_for_argv 00000001800325e8     libucrt:argv_parsing.obj
 0002:0000b5e8       $unwind$?exit_or_terminate_process@@YAXI@Z 00000001800325e8     libucrt:exit.obj
 0002:0000b5e8       $unwind$__acrt_uninitialize_stdio 00000001800325e8     libucrt:_file.obj
 0002:0000b5e8       $unwind$__acrt_stdio_free_buffer_nolock 00000001800325e8     libucrt:_freebuf.obj
 0002:0000b5e8       $unwind$strcpy_s           00000001800325e8     libucrt:strcpy_s.obj
 0002:0000b5e8       $unwind$wcscat_s           00000001800325e8     libucrt:wcscat_s.obj
 0002:0000b5e8       $unwind$wcscpy_s           00000001800325e8     libucrt:wcscpy_s.obj
 0002:0000b5e8       $unwind$_clrfp             00000001800325e8     libucrt:fpctrl.obj
 0002:0000b5e8       $unwind$_set_statfp        00000001800325e8     libucrt:fpctrl.obj
 0002:0000b5e8       $unwind$_clearfp           00000001800325e8     libucrt:ieee.obj
 0002:0000b5e8       $unwind$_controlfp_s       00000001800325e8     libucrt:contrlfp.obj
 0002:0000b5e8       $unwind$fegetenv           00000001800325e8     libucrt:fegetenv.obj
 0002:0000b5e8       $unwind$feholdexcept       00000001800325e8     libucrt:feholdexcept.obj
 0002:0000b5e8       $unwind$fesetenv           00000001800325e8     libucrt:fesetenv.obj
 0002:0000b5e8       $unwind$??1CAtlBaseModule@ATL@@QEAA@XZ 00000001800325e8     atls:atlbase.obj
 0002:0000b5e8       $unwind$AtlThunk_AllocateData 00000001800325e8     atls:atlthunk.obj
 0002:0000b5e8       $unwind$__raise_securityfailure 00000001800325e8     LIBCMT:gs_report.obj
 0002:0000b5e8       $unwind$??2@YAPEAX_K@Z     00000001800325e8     LIBCMT:new_scalar.obj
 0002:0000b5e8       $unwind$??_Gtype_info@@UEAAPEAXI@Z 00000001800325e8     LIBCMT:std_type_info_static.obj
 0002:0000b5e8       $unwind$_Init_thread_footer 00000001800325e8     LIBCMT:thread_safe_statics.obj
 0002:0000b5e8       $unwind$_Init_thread_header 00000001800325e8     LIBCMT:thread_safe_statics.obj
 0002:0000b5e8       $unwind$_Init_thread_wait  00000001800325e8     LIBCMT:thread_safe_statics.obj
 0002:0000b5e8       $unwind$??0bad_alloc@std@@QEAA@AEBV01@@Z 00000001800325e8     LIBCMT:throw_bad_alloc.obj
 0002:0000b5e8       $unwind$??0bad_array_new_length@std@@QEAA@AEBV01@@Z 00000001800325e8     LIBCMT:throw_bad_alloc.obj
 0002:0000b5e8       $unwind$??0exception@std@@QEAA@AEBV01@@Z 00000001800325e8     LIBCMT:throw_bad_alloc.obj
 0002:0000b5e8       $unwind$__scrt_initialize_crt 00000001800325e8     LIBCMT:utility.obj
 0002:0000b5e8       $unwind$__scrt_initialize_onexit_tables 00000001800325e8     LIBCMT:utility.obj
 0002:0000b5e8       $unwind$__scrt_release_startup_lock 00000001800325e8     LIBCMT:utility.obj
 0002:0000b5e8       $unwind$__scrt_uninitialize_crt 00000001800325e8     LIBCMT:utility.obj
 0002:0000b5e8       $unwind$_onexit            00000001800325e8     LIBCMT:utility.obj
 0002:0000b5e8       $unwind$_IsExceptionObjectToBeDestroyed 00000001800325e8     libvcruntime:ehhelpers.obj
 0002:0000b5e8       $unwind$?GetUnwindTryBlock@__FrameHandler3@@SAHPEA_KPEAU_xDISPATCHER_CONTEXT@@PEBU_s_FuncInfo@@@Z 00000001800325e8     libvcruntime:ehstate.obj
 0002:0000b5e8       $unwind$?StateFromIp@__FrameHandler3@@SAHPEBU_s_FuncInfo@@PEAU_xDISPATCHER_CONTEXT@@_K@Z 00000001800325e8     libvcruntime:ehstate.obj
 0002:0000b5e8       $unwind$??0HandlerMap4@FH4@@QEAA@PEBUTryBlockMapEntry4@1@_KH@Z 00000001800325e8     libvcruntime:frame.obj
 0002:0000b5e8       $unwind$??0bad_exception@std@@QEAA@AEBV01@@Z 00000001800325e8     libvcruntime:frame.obj
 0002:0000b5e8       $unwind$__vcrt_initialize_locks 00000001800325e8     libvcruntime:locks.obj
 0002:0000b5e8       $unwind$__vcrt_uninitialize_locks 00000001800325e8     libvcruntime:locks.obj
 0002:0000b5e8       $unwind$__vcrt_freeptd     00000001800325e8     libvcruntime:per_thread_data.obj
 0002:0000b5e8       $unwind$?ExecutionInCatch@__FrameHandler3@@SA_NPEAU_xDISPATCHER_CONTEXT@@PEBU_s_FuncInfo@@@Z 00000001800325e8     libvcruntime:risctrnsctrl.obj
 0002:0000b5e8       $unwind$_CreateFrameInfo   00000001800325e8     libvcruntime:risctrnsctrl.obj
 0002:0000b5e8       $unwind$_SetImageBase      00000001800325e8     libvcruntime:risctrnsctrl.obj
 0002:0000b5e8       $unwind$_SetThrowImageBase 00000001800325e8     libvcruntime:risctrnsctrl.obj
 0002:0000b5e8       $unwind$__std_exception_destroy 00000001800325e8     libvcruntime:std_exception.obj
 0002:0000b5e8       $unwind$__std_type_info_destroy_list 00000001800325e8     libvcruntime:std_type_info.obj
 0002:0000b5e8       $unwind$__vcrt_FlsAlloc    00000001800325e8     libvcruntime:winapi_downlevel.obj
 0002:0000b5e8       $unwind$__vcrt_FlsFree     00000001800325e8     libvcruntime:winapi_downlevel.obj
 0002:0000b5e8       $unwind$__vcrt_FlsGetValue 00000001800325e8     libvcruntime:winapi_downlevel.obj
 0002:0000b5f0       $unwind$?AtlWinModuleExtractCreateWndData@ATL@@YAPEAXPEAU_ATL_WIN_MODULE70@1@@Z 00000001800325f0     CAT.obj
 0002:0000b5f0       $unwind$?CreateInstance@?$CComCreator@V?$CComObject@VCOPOSCAT@@@ATL@@@ATL@@SAJPEAXAEBU_GUID@@PEAPEAX@Z 00000001800325f0     CAT.obj
 0002:0000b5f0       $unwind$?DoEvent@COPOSCAT@@IEAAXI_K_J@Z 00000001800325f0     CAT.obj
 0002:0000b5f0       $unwind$?DoVerb@?$IOleObjectImpl@VCOPOSCAT@@@ATL@@UEAAJJPEAUtagMSG@@PEAUIOleClientSite@@JPEAUHWND__@@PEBUtagRECT@@@Z 00000001800325f0     CAT.obj
 0002:0000b5f0       $unwind$?HKeyFromString@CRegParser@ATL@@KAPEAUHKEY__@@PEA_W@Z 00000001800325f0     CAT.obj
 0002:0000b5f0       $unwind$?Next@?$CComEnumImpl@UIEnumConnectionPoints@@$1?_GUID_b196b285_bab4_101a_b69c_00aa00341d07@@3U__s_GUID@@BPEAUIConnectionPoint@@V?$_CopyInterface@UIConnectionPoint@@@ATL@@@ATL@@UEAAJKPEAPEAUIConnectionPoint@@PEAK@Z 00000001800325f0     CAT.obj
 0002:0000b5f0       $unwind$?Next@?$CComEnumImpl@UIEnumConnections@@$1?_GUID_b196b287_bab4_101a_b69c_00aa00341d07@@3U__s_GUID@@BUtagCONNECTDATA@@V?$_Copy@UtagCONNECTDATA@@@ATL@@@ATL@@UEAAJKPEAUtagCONNECTDATA@@PEAK@Z 00000001800325f0     CAT.obj
 0002:0000b5f0       $unwind$?SODirectIO@COPOSCAT@@MEAAJJPEAJPEAPEA_W@Z 00000001800325f0     CAT.obj
 0002:0000b5f0       $unwind$?SetControlFocus@CComControlBase@ATL@@QEAAHH@Z 00000001800325f0     CAT.obj
 0002:0000b5f0       $unwind$?ocscpy_s@@YA_NPEA_W_KPEB_W@Z 00000001800325f0     CAT.obj
 0002:0000b5f0       $unwind$?s_EventWindowProc@COPOSCAT@@KA_JPEAUHWND__@@I_K_J@Z 00000001800325f0     CATImpl.obj
 0002:0000b5f0       $unwind$?AtlWinModuleTerm@ATL@@YAJPEAU_ATL_WIN_MODULE70@1@PEAUHINSTANCE__@@@Z 00000001800325f0     OposVariant.obj
 0002:0000b5f0       $unwind$_recalloc_base     00000001800325f0     libucrt:recalloc.obj
 0002:0000b5f0       $unwind$__acrt_free_locale 00000001800325f0     libucrt:locale_refcounting.obj
 0002:0000b5f0       $unwind$__acrt_lowio_create_handle_array 00000001800325f0     libucrt:osfinfo.obj
 0002:0000b5f0       $unwind$_seh_filter_exe    00000001800325f0     libucrt:exception_filter.obj
 0002:0000b5f0       $unwind$__acrt_stdio_flush_nolock 00000001800325f0     libucrt:fflush.obj
 0002:0000b5f0       $unwind$??$ensure_buffer_is_big_enough@D@formatting_buffer@__crt_stdio_output@@QEAA_N_KAEAV__crt_cached_ptd_host@@@Z 00000001800325f0     libucrt:output.obj
 0002:0000b5f0       $unwind$??$ensure_buffer_is_big_enough@_W@formatting_buffer@__crt_stdio_output@@QEAA_N_KAEAV__crt_cached_ptd_host@@@Z 00000001800325f0     libucrt:output.obj
 0002:0000b5f0       $unwind$__scrt_dllmain_exception_filter 00000001800325f0     LIBCMT:utility.obj
 0002:0000b5f0       $unwind$?GetHandlerSearchState@__FrameHandler3@@SAHPEA_KPEAU_xDISPATCHER_CONTEXT@@PEBU_s_FuncInfo@@@Z 00000001800325f0     libvcruntime:frame.obj
 0002:0000b5f0       $unwind$?Is_bad_exception_allowed@@YAEPEBU_s_ESTypeList@@@Z 00000001800325f0     libvcruntime:frame.obj
 0002:0000b5f0       $unwind$?CatchTryBlock@__FrameHandler3@@SAPEBU_s_TryBlockMapEntry@@PEBU_s_FuncInfo@@H@Z 00000001800325f0     libvcruntime:risctrnsctrl.obj
 0002:0000b604       $unwind$??_GCRegObject@ATL@@UEAAPEAXI@Z 0000000180032604     CAT.obj
 0002:0000b604       $unwind$?Add@?$CSimpleArray@GV?$CSimpleArrayEqualHelper@G@ATL@@@ATL@@QEAAHAEBG@Z 0000000180032604     CAT.obj
 0002:0000b604       $unwind$?Add@?$CSimpleMap@PEA_WPEA_WVCExpansionVectorEqualHelper@ATL@@@ATL@@QEAAHAEBQEA_W0@Z 0000000180032604     CAT.obj
 0002:0000b604       $unwind$?Add@CComDynamicUnkArray@ATL@@QEAAKPEAUIUnknown@@@Z 0000000180032604     CAT.obj
 0002:0000b604       $unwind$?Advise@?$IOleObjectImpl@VCOPOSCAT@@@ATL@@UEAAJPEAUIAdviseSink@@PEAK@Z 0000000180032604     CAT.obj
 0002:0000b604       $unwind$?ClearReplacements@CExpansionVector@ATL@@QEAAJXZ 0000000180032604     CAT.obj
 0002:0000b604       $unwind$?CreateInstance@?$CComObject@V?$CComEnum@UIEnumConnectionPoints@@$1?_GUID_b196b285_bab4_101a_b69c_00aa00341d07@@3U__s_GUID@@BPEAUIConnectionPoint@@V?$_CopyInterface@UIConnectionPoint@@@ATL@@VCComSingleThreadModel@6@@ATL@@@ATL@@SAJPEAPEAV12@@Z 0000000180032604     CAT.obj
 0002:0000b604       $unwind$?CreateInstance@?$CComObject@V?$CComEnum@UIEnumConnections@@$1?_GUID_b196b287_bab4_101a_b69c_00aa00341d07@@3U__s_GUID@@BUtagCONNECTDATA@@V?$_Copy@UtagCONNECTDATA@@@ATL@@VCComSingleThreadModel@6@@ATL@@@ATL@@SAJPEAPEAV12@@Z 0000000180032604     CAT.obj
 0002:0000b604       $unwind$?RegisterServer@CComModule@ATL@@QEAAJHPEBU_GUID@@@Z 0000000180032604     CAT.obj
 0002:0000b604       $unwind$?UnregisterServer@CComModule@ATL@@QEAAJHPEBU_GUID@@@Z 0000000180032604     CAT.obj
 0002:0000b604       $unwind$?VTFromRegType@CRegParser@ATL@@KAHPEB_WAEAG@Z 0000000180032604     CAT.obj
 0002:0000b604       $unwind$??0OposDispParms@@QEAA@PEAVOposVariant@@H@Z 0000000180032604     OposVariant.obj
 0002:0000b604       $unwind$?SetBSTR_Copy@OposVariant@@QEAAXPEA_WAEAJ@Z 0000000180032604     OposVariant.obj
 0002:0000b604       $unwind$?SetBSTR_InOutPtr@OposVariant@@QEAA_NPEAPEA_WAEAJ@Z 0000000180032604     OposVariant.obj
 0002:0000b604       $unwind$?SetDispatch_Ptr@OposVariant@@QEAAXPEAUIDispatch@@AEAJ@Z 0000000180032604     OposVariant.obj
 0002:0000b604       $unwind$?SetLONG_Ptr@OposVariant@@QEAAXPEAJAEAJ@Z 0000000180032604     OposVariant.obj
 0002:0000b604       $unwind$?SetString@OposVariant@@QEAAXPEB_WAEAJ@Z 0000000180032604     OposVariant.obj
 0002:0000b604       $unwind$?Term@CAtlComModule@ATL@@QEAAXXZ 0000000180032604     OposVariant.obj
 0002:0000b604       $unwind$memcpy_s           0000000180032604     libucrt:cfout.obj
 0002:0000b604       $unwind$__acrt_getptd      0000000180032604     libucrt:per_thread_data.obj
 0002:0000b604       $unwind$__acrt_getptd_noexit 0000000180032604     libucrt:per_thread_data.obj
 0002:0000b604       $unwind$__acrt_getptd_noexit_explicit 0000000180032604     libucrt:per_thread_data.obj
 0002:0000b604       $unwind$__acrt_execute_initializers 0000000180032604     libucrt:shared_initialization.obj
 0002:0000b604       $unwind$__acrt_InitializeCriticalSectionEx 0000000180032604     libucrt:winapi_thunks.obj
 0002:0000b604       $unwind$_close_nolock_internal 0000000180032604     libucrt:close.obj
 0002:0000b604       $unwind$?value@?$dual_state_global@P6AXPEB_W00I_K@Z@__crt_state_management@@QEAAAEAP6AXPEB_W00I_K@ZAEAV__crt_cached_ptd_host@@@Z 0000000180032604     libucrt:invalid_parameter.obj
 0002:0000b604       $unwind$??0_LocaleUpdate@@QEAA@QEAU__crt_locale_pointers@@@Z 0000000180032604     libucrt:argv_wildcards.obj
 0002:0000b604       $unwind$?type_case_Z@?$output_processor@_WV?$string_output_adapter@_W@__crt_stdio_output@@V?$format_validation_base@_WV?$string_output_adapter@_W@__crt_stdio_output@@@2@@__crt_stdio_output@@AEAA_NXZ 0000000180032604     libucrt:output.obj
 0002:0000b604       $unwind$?type_case_s@?$output_processor@_WV?$string_output_adapter@_W@__crt_stdio_output@@V?$format_validation_base@_WV?$string_output_adapter@_W@__crt_stdio_output@@@2@@__crt_stdio_output@@AEAA_NXZ 0000000180032604     libucrt:output.obj
 0002:0000b604       $unwind$?type_case_s_compute_narrow_string_length@?$output_processor@_WV?$string_output_adapter@_W@__crt_stdio_output@@V?$format_validation_base@_WV?$string_output_adapter@_W@__crt_stdio_output@@@2@@__crt_stdio_output@@AEAAHH_W@Z 0000000180032604     libucrt:output.obj
 0002:0000b604       $unwind$?update_locale_slow@__crt_cached_ptd_host@@AEAAXXZ 0000000180032604     libucrt:output.obj
 0002:0000b604       $unwind$strncpy_s          0000000180032604     libucrt:strncpy_s.obj
 0002:0000b604       $unwind$wcsncpy_s          0000000180032604     libucrt:wcsncpy_s.obj
 0002:0000b604       $unwind$_exception_enabled 0000000180032604     libucrt:libm_error.obj
 0002:0000b604       $unwind$_DllMainCRTStartup 0000000180032604     LIBCMT:dll_dllmain.obj
 0002:0000b604       $unwind$__vcrt_getptd_noexit 0000000180032604     libvcruntime:per_thread_data.obj
 0002:0000b604       $unwind$?FrameUnwindToEmptyState@__FrameHandler3@@SAXPEA_KPEAU_xDISPATCHER_CONTEXT@@PEBU_s_FuncInfo@@@Z 0000000180032604     libvcruntime:risctrnsctrl.obj
 0002:0000b604       $unwind$__vcrt_InitializeCriticalSectionEx 0000000180032604     libvcruntime:winapi_downlevel.obj
 0002:0000b614       $unwind$?AddTermFunc@CAtlModule@ATL@@QEAAJP6AX_K@Z0@Z 0000000180032614     CAT.obj
 0002:0000b614       $unwind$?AtlComModuleRegisterServer@ATL@@YAJPEAU_ATL_COM_MODULE70@1@HPEBU_GUID@@@Z 0000000180032614     CAT.obj
 0002:0000b614       $unwind$?AtlComModuleUnregisterServer@ATL@@YAJPEAU_ATL_COM_MODULE70@1@HPEBU_GUID@@@Z 0000000180032614     CAT.obj
 0002:0000b614       $unwind$?CreateInstance@?$CComCreator@V?$CComAggObject@VCOPOSCAT@@@ATL@@@ATL@@SAJPEAXAEBU_GUID@@PEAPEAX@Z 0000000180032614     CAT.obj
 0002:0000b614       $unwind$?CreateInstance@?$CComCreator@V?$CComObjectCached@VCComClassFactory@ATL@@@ATL@@@ATL@@SAJPEAXAEBU_GUID@@PEAPEAX@Z 0000000180032614     CAT.obj
 0002:0000b614       $unwind$?GetPagesHelper@?$ISpecifyPropertyPagesImpl@VCOPOSCAT@@@ATL@@IEAAJPEAUtagCAUUID@@PEBUATL_PROPMAP_ENTRY@2@@Z 0000000180032614     CAT.obj
 0002:0000b614       $unwind$?Term@CAtlModule@ATL@@QEAAXXZ 0000000180032614     CAT.obj
 0002:0000b614       $unwind$??_Estringdispid@CComTypeInfoHolder@ATL@@QEAAPEAXI@Z 0000000180032614     OposVariant.obj
 0002:0000b614       $unwind$?initialize_stdio_handles_nolock@@YAXXZ 0000000180032614     libucrt:ioinit.obj
 0002:0000b614       $unwind$__acrt_initialize_stdio 0000000180032614     libucrt:_file.obj
 0002:0000b614       $unwind$__GSHandlerCheck_EH 0000000180032614     LIBCMT:gshandlereh.obj
 0002:0000b614       $unwind$__GSHandlerCheck_SEH 0000000180032614     LIBCMT:gshandlerseh.obj
 0002:0000b614       $unwind$??$TypeMatchHelper@V__FrameHandler3@@@@YAHPEBU_s_HandlerType@@PEBU_s_CatchableType@@PEBU_s_ThrowInfo@@@Z 0000000180032614     libvcruntime:frame.obj
 0002:0000b614       $unwind$??$TypeMatchHelper@V__FrameHandler4@@@@YAHPEAUHandlerType4@FH4@@PEBU_s_CatchableType@@PEBU_s_ThrowInfo@@@Z 0000000180032614     libvcruntime:frame.obj
 0002:0000b62c       $unwind$??0?$CComContainedObject@VCOPOSCAT@@@ATL@@QEAA@PEAX@Z 000000018003262c     CAT.obj
 0002:0000b62c       $unwind$??1?$CComEnumImpl@UIEnumConnectionPoints@@$1?_GUID_b196b285_bab4_101a_b69c_00aa00341d07@@3U__s_GUID@@BPEAUIConnectionPoint@@V?$_CopyInterface@UIConnectionPoint@@@ATL@@@ATL@@UEAA@XZ 000000018003262c     CAT.obj
 0002:0000b62c       $unwind$??1?$CComEnumImpl@UIEnumConnections@@$1?_GUID_b196b287_bab4_101a_b69c_00aa00341d07@@3U__s_GUID@@BUtagCONNECTDATA@@V?$_Copy@UtagCONNECTDATA@@@ATL@@@ATL@@UEAA@XZ 000000018003262c     CAT.obj
 0002:0000b62c       $unwind$??_G?$CComAggObject@VCOPOSCAT@@@ATL@@UEAAPEAXI@Z 000000018003262c     CAT.obj
 0002:0000b62c       $unwind$??_G?$CComContainedObject@VCOPOSCAT@@@ATL@@UEAAPEAXI@Z 000000018003262c     CAT.obj
 0002:0000b62c       $unwind$??_G?$CComObject@V?$CComEnum@UIEnumConnectionPoints@@$1?_GUID_b196b285_bab4_101a_b69c_00aa00341d07@@3U__s_GUID@@BPEAUIConnectionPoint@@V?$_CopyInterface@UIConnectionPoint@@@ATL@@VCComSingleThreadModel@6@@ATL@@@ATL@@UEAAPEAXI@Z 000000018003262c     CAT.obj
 0002:0000b62c       $unwind$??_G?$CComObject@V?$CComEnum@UIEnumConnections@@$1?_GUID_b196b287_bab4_101a_b69c_00aa00341d07@@3U__s_GUID@@BUtagCONNECTDATA@@V?$_Copy@UtagCONNECTDATA@@@ATL@@VCComSingleThreadModel@6@@ATL@@@ATL@@UEAAPEAXI@Z 000000018003262c     CAT.obj
 0002:0000b62c       $unwind$??_G?$CComObject@VCOPOSCAT@@@ATL@@UEAAPEAXI@Z 000000018003262c     CAT.obj
 0002:0000b62c       $unwind$??_G?$CComObjectCached@VCComClassFactory@ATL@@@ATL@@UEAAPEAXI@Z 000000018003262c     CAT.obj
 0002:0000b62c       $unwind$??_GCComClassFactory@ATL@@UEAAPEAXI@Z 000000018003262c     CAT.obj
 0002:0000b62c       $unwind$??_GCComModule@ATL@@UEAAPEAXI@Z 000000018003262c     CAT.obj
 0002:0000b62c       $unwind$?DeleteSubKey@CRegKey@ATL@@QEAAJPEB_W@Z 000000018003262c     CAT.obj
 0002:0000b62c       $unwind$?IOleObject_SetClientSite@CComControlBase@ATL@@QEAAJPEAUIOleClientSite@@@Z 000000018003262c     CAT.obj
 0002:0000b62c       $unwind$?InitNew@?$IPersistStorageImpl@VCOPOSCAT@@@ATL@@UEAAJPEAUIStorage@@@Z 000000018003262c     CAT.obj
 0002:0000b62c       $unwind$?IsDirty@?$IPersistStorageImpl@VCOPOSCAT@@@ATL@@UEAAJXZ 000000018003262c     CAT.obj
 0002:0000b62c       $unwind$?Release@?$CComAggObject@VCOPOSCAT@@@ATL@@UEAAKXZ 000000018003262c     CAT.obj
 0002:0000b62c       $unwind$?Release@?$CComObject@V?$CComEnum@UIEnumConnectionPoints@@$1?_GUID_b196b285_bab4_101a_b69c_00aa00341d07@@3U__s_GUID@@BPEAUIConnectionPoint@@V?$_CopyInterface@UIConnectionPoint@@@ATL@@VCComSingleThreadModel@6@@ATL@@@ATL@@UEAAKXZ 000000018003262c     CAT.obj
 0002:0000b62c       $unwind$?Release@?$CComObject@V?$CComEnum@UIEnumConnections@@$1?_GUID_b196b287_bab4_101a_b69c_00aa00341d07@@3U__s_GUID@@BUtagCONNECTDATA@@V?$_Copy@UtagCONNECTDATA@@@ATL@@VCComSingleThreadModel@6@@ATL@@@ATL@@UEAAKXZ 000000018003262c     CAT.obj
 0002:0000b62c       $unwind$?Release@?$CComObject@VCOPOSCAT@@@ATL@@UEAAKXZ 000000018003262c     CAT.obj
 0002:0000b62c       $unwind$?SOOutputComplete@COPOSCAT@@MEAAJJ@Z 000000018003262c     CAT.obj
 0002:0000b62c       $unwind$?SOStatusUpdate@COPOSCAT@@MEAAJJ@Z 000000018003262c     CAT.obj
 0002:0000b62c       $unwind$?SetAdvise@?$IViewObjectExImpl@VCOPOSCAT@@@ATL@@UEAAJKKPEAUIAdviseSink@@@Z 000000018003262c     CAT.obj
 0002:0000b62c       $unwind$?Term@CComModule@ATL@@QEAAXXZ 000000018003262c     CAT.obj
 0002:0000b62c       $unwind$DllMain            000000018003262c     CAT.obj
 0002:0000b62c       $unwind$??1?$IConnectionPointImpl@VCOPOSCAT@@$1?DIID__IOPOSCATEvents@@3U_GUID@@BVCComDynamicUnkArray@ATL@@@ATL@@QEAA@XZ 000000018003262c     CATImpl.obj
 0002:0000b62c       $unwind$??1?$IConnectionPointImpl@VCOPOSCAT@@$1?IID_IPropertyNotifySink@@3U_GUID@@BVCComDynamicUnkArray@ATL@@@ATL@@QEAA@XZ 000000018003262c     CATImpl.obj
 0002:0000b62c       $unwind$?SetBSTR@OposVariant@@QEAAXPEA_WAEAJ@Z 000000018003262c     OposVariant.obj
 0002:0000b62c       $unwind$?SetCURRENCY@OposVariant@@QEAAXTtagCY@@@Z 000000018003262c     OposVariant.obj
 0002:0000b62c       $unwind$?SetLONG@OposVariant@@QEAAXJ@Z 000000018003262c     OposVariant.obj
 0002:0000b62c       $unwind$?SetVARIANT_BOOL@OposVariant@@QEAAXF@Z 000000018003262c     OposVariant.obj
 0002:0000b62c       $unwind$??$common_initialize_environment_nolock@D@@YAHXZ 000000018003262c     libucrt:environment_initialization.obj
 0002:0000b62c       $unwind$_realloc_base      000000018003262c     libucrt:realloc_base.obj
 0002:0000b62c       $unwind$?replace_current_thread_locale_nolock@@YAXQEAU__acrt_ptd@@QEAU__crt_locale_data@@@Z 000000018003262c     libucrt:per_thread_data.obj
 0002:0000b62c       $unwind$__acrt_execute_uninitializers 000000018003262c     libucrt:shared_initialization.obj
 0002:0000b62c       $unwind$__acrt_LocaleNameToLCID 000000018003262c     libucrt:winapi_thunks.obj
 0002:0000b62c       $unwind$?free_crt_array_internal@@YAXQEAPEBX_K@Z 000000018003262c     libucrt:inittime.obj
 0002:0000b62c       $unwind$_updatetlocinfoEx_nolock 000000018003262c     libucrt:locale_refcounting.obj
 0002:0000b62c       $unwind$__acrt_uninitialize_lowio 000000018003262c     libucrt:ioinit.obj
 0002:0000b62c       $unwind$?setSBCS@@YAXPEAU__crt_multibyte_data@@@Z 000000018003262c     libucrt:mbctype.obj
 0002:0000b62c       $unwind$_initterm_e        000000018003262c     libucrt:initterm.obj
 0002:0000b62c       $unwind$??0CAtlBaseModule@ATL@@QEAA@XZ 000000018003262c     atls:atlbase.obj
 0002:0000b62c       $unwind$??$GetProcAddressAll@P6AP6A_JPEAUHWND__@@I_K_J@ZPEAUAtlThunkData_t@@@Z@@YAP6AP6A_JPEAUHWND__@@I_K_J@ZPEAUAtlThunkData_t@@@ZPEAP6AP6A_J0I12@Z3@Z@Z 000000018003262c     atls:atlthunk.obj
 0002:0000b62c       $unwind$??$GetProcAddressAll@P6APEAUAtlThunkData_t@@XZ@@YAP6APEAUAtlThunkData_t@@XZPEAP6APEAU0@XZ@Z 000000018003262c     atls:atlthunk.obj
 0002:0000b62c       $unwind$??$GetProcAddressAll@P6AXPEAUAtlThunkData_t@@@Z@@YAP6AXPEAUAtlThunkData_t@@@ZPEAP6AX0@Z@Z 000000018003262c     atls:atlthunk.obj
 0002:0000b62c       $unwind$??$GetProcAddressAll@P6AXPEAUAtlThunkData_t@@PEAX_K@Z@@YAP6AXPEAUAtlThunkData_t@@PEAX_K@ZPEAP6AX012@Z@Z 000000018003262c     atls:atlthunk.obj
 0002:0000b62c       $unwind$?__AllocStdCallThunk_cmn@@YAPEAXXZ 000000018003262c     atls:atlthunk.obj
 0002:0000b62c       $unwind$?__InitializeThunkPool@@YAHXZ 000000018003262c     atls:atlthunk.obj
 0002:0000b62c       $unwind$AtlThunk_DataToCode 000000018003262c     atls:atlthunk.obj
 0002:0000b62c       $unwind$_RTC_Initialize    000000018003262c     LIBCMT:initsect.obj
 0002:0000b62c       $unwind$_RTC_Terminate     000000018003262c     LIBCMT:initsect.obj
 0002:0000b62c       $unwind$?__scrt_initialize_thread_safe_statics@@YAHXZ 000000018003262c     LIBCMT:thread_safe_statics.obj
 0002:0000b62c       $unwind$??_Gbad_alloc@std@@UEAAPEAXI@Z 000000018003262c     LIBCMT:throw_bad_alloc.obj
 0002:0000b62c       $unwind$??_Gbad_array_new_length@std@@UEAAPEAXI@Z 000000018003262c     LIBCMT:throw_bad_alloc.obj
 0002:0000b62c       $unwind$??_Gexception@std@@UEAAPEAXI@Z 000000018003262c     LIBCMT:throw_bad_alloc.obj
 0002:0000b62c       $unwind$__C_specific_handler_noexcept 000000018003262c     libvcruntime:chandler_noexcept.obj
 0002:0000b62c       $unwind$__FrameUnwindFilter 000000018003262c     libvcruntime:ehhelpers.obj
 0002:0000b62c       $unwind$?SetUnwindTryBlock@__FrameHandler3@@SAXPEA_KPEAU_xDISPATCHER_CONTEXT@@PEBU_s_FuncInfo@@H@Z 000000018003262c     libvcruntime:ehstate.obj
 0002:0000b62c       $unwind$??_Gbad_exception@std@@UEAAPEAXI@Z 000000018003262c     libvcruntime:frame.obj
 0002:0000b62c       $unwind$?ExFilterRethrow@@YAHPEAU_EXCEPTION_POINTERS@@PEAUEHExceptionRecord@@PEAH@Z 000000018003262c     libvcruntime:frame.obj
 0002:0000b62c       $unwind$?ExFilterRethrowFH4@@YAHPEAU_EXCEPTION_POINTERS@@PEAUEHExceptionRecord@@HPEAH@Z 000000018003262c     libvcruntime:frame.obj
 0002:0000b62c       $unwind$_FindAndUnlinkFrame 000000018003262c     libvcruntime:risctrnsctrl.obj
 0002:0000b62c       $unwind$__vcrt_FlsSetValue 000000018003262c     libvcruntime:winapi_downlevel.obj
 0002:0000b638       $unwind$?ChangeBSTR@OposVariant@@QEAAXPEAPEA_WAEAJ@Z 0000000180032638     OposVariant.obj
 0002:0000b638       $unwind$?ChangeCURRENCY@OposVariant@@QEAAXPEATtagCY@@AEAJ@Z 0000000180032638     OposVariant.obj
 0002:0000b638       $unwind$?ChangeLONG@OposVariant@@QEAAXPEAJAEAJ@Z 0000000180032638     OposVariant.obj
 0002:0000b638       $unwind$?x_ismbbtype_l@@YAHPEAU__crt_locale_pointers@@IHH@Z 0000000180032638     libucrt:ismbbyte.obj
 0002:0000b648       $unwind$swprintf_s         0000000180032648     CAT.obj
 0002:0000b658       $unwind$?_AtlVerifyStackAvailable@_ATL_SAFE_ALLOCA_IMPL@ATL@@YA_N_K@Z 0000000180032658     CAT.obj
 0002:0000b684       $unwind$?filt$0@?0??_AtlVerifyStackAvailable@_ATL_SAFE_ALLOCA_IMPL@ATL@@YA_N_K@Z@4HA 0000000180032684     CAT.obj
 0002:0000b684       $unwind$_query_new_handler$fin$0 0000000180032684     libucrt:new_handler.obj
 0002:0000b684       $unwind$?fin$0@?0???$?RV<lambda_0ae27a3a962d80f24befdcbee591983d>@@AEAV<lambda_8d0ee55de4b1038c4002e0adecdf1839>@@V<lambda_dc504788e8f1664fe9b84e20bfb512f2>@@@?$__crt_seh_guarded_call@X@@QEAAX$$QEAV<lambda_0ae27a3a962d80f24befdcbee591983d>@@AEAV<lambda_8d0ee55de4b1038c4002e0adecdf1839>@@$$QEAV<lambda_dc504788e8f1664fe9b84e20bfb512f2>@@@Z@4HA 0000000180032684     libucrt:per_thread_data.obj
 0002:0000b684       $unwind$?fin$0@?0???$?RV<lambda_2d41944a1d46af3157314b8a01080d33>@@AEAV<lambda_8f455de75cd7d7f24b4096f044d8b9e6>@@V<lambda_aa500f224e6afead328df44964fe2772>@@@?$__crt_seh_guarded_call@X@@QEAAX$$QEAV<lambda_2d41944a1d46af3157314b8a01080d33>@@AEAV<lambda_8f455de75cd7d7f24b4096f044d8b9e6>@@$$QEAV<lambda_aa500f224e6afead328df44964fe2772>@@@Z@4HA 0000000180032684     libucrt:per_thread_data.obj
 0002:0000b684       $unwind$?fin$0@?0???$?RV<lambda_aa87e3671a710a21b5dc78c0bdf72e11>@@AEAV<lambda_92619d2358a28f41a33ba319515a20b9>@@V<lambda_6992ecaafeb10aed2b74cb1fae11a551>@@@?$__crt_seh_guarded_call@X@@QEAAX$$QEAV<lambda_aa87e3671a710a21b5dc78c0bdf72e11>@@AEAV<lambda_92619d2358a28f41a33ba319515a20b9>@@$$QEAV<lambda_6992ecaafeb10aed2b74cb1fae11a551>@@@Z@4HA 0000000180032684     libucrt:per_thread_data.obj
 0002:0000b684       $unwind$?fin$0@?0???$?RV<lambda_f2e299630e499de9f9a165e60fcd3db5>@@AEAV<lambda_2ae9d31cdba2644fcbeaf08da7c24588>@@V<lambda_40d01ff24d0e7b3814fdbdcee8eab3c7>@@@?$__crt_seh_guarded_call@X@@QEAAX$$QEAV<lambda_f2e299630e499de9f9a165e60fcd3db5>@@AEAV<lambda_2ae9d31cdba2644fcbeaf08da7c24588>@@$$QEAV<lambda_40d01ff24d0e7b3814fdbdcee8eab3c7>@@@Z@4HA 0000000180032684     libucrt:per_thread_data.obj
 0002:0000b684       $unwind$__acrt_update_thread_locale_data$fin$0 0000000180032684     libucrt:locale_refcounting.obj
 0002:0000b684       $unwind$?fin$0@?0???$?RV<lambda_410d79af7f07d98d83a3f525b3859a53>@@AEAV<lambda_3e16ef9562a7dcce91392c22ab16ea36>@@V<lambda_38119f0e861e05405d8a144b9b982f0a>@@@?$__crt_seh_guarded_call@X@@QEAAX$$QEAV<lambda_410d79af7f07d98d83a3f525b3859a53>@@AEAV<lambda_3e16ef9562a7dcce91392c22ab16ea36>@@$$QEAV<lambda_38119f0e861e05405d8a144b9b982f0a>@@@Z@4HA 0000000180032684     libucrt:wsetlocale.obj
 0002:0000b684       $unwind$?fin$0@?0???$?RV<lambda_ad8af0d99a0adf03d037d7dffe354bb5>@@AEAV<lambda_c9ba49e555ba839a7b07aa3fbecb7617>@@V<lambda_2f1ebd5d68526518146ae959c9e734c8>@@@?$__crt_seh_guarded_call@H@@QEAAH$$QEAV<lambda_ad8af0d99a0adf03d037d7dffe354bb5>@@AEAV<lambda_c9ba49e555ba839a7b07aa3fbecb7617>@@$$QEAV<lambda_2f1ebd5d68526518146ae959c9e734c8>@@@Z@4HA 0000000180032684     libucrt:close.obj
 0002:0000b684       $unwind$?fin$0@?0???$?RV<lambda_a37b2b86f63e897a80ea819b0eb08c01>@@AEAV<lambda_38ce7e780aa69e748d6df282ebc68efe>@@V<lambda_99fb1378e971ab6e7edea83e3a7a83a2>@@@?$__crt_seh_guarded_call@H@@QEAAH$$QEAV<lambda_a37b2b86f63e897a80ea819b0eb08c01>@@AEAV<lambda_38ce7e780aa69e748d6df282ebc68efe>@@$$QEAV<lambda_99fb1378e971ab6e7edea83e3a7a83a2>@@@Z@4HA 0000000180032684     libucrt:commit.obj
 0002:0000b684       $unwind$__acrt_initialize_lowio$fin$0 0000000180032684     libucrt:ioinit.obj
 0002:0000b684       $unwind$__acrt_lowio_ensure_fh_exists$fin$0 0000000180032684     libucrt:osfinfo.obj
 0002:0000b684       $unwind$?fin$0@?0???$?RV<lambda_efdfa57d1f175319df784efa44bb7b81>@@AEAV<lambda_5f0a4c1567f8adc6734073e5d1e1b35c>@@V<lambda_2e8a7d3640ea6ccb4c2413664c2db6fd>@@@?$__crt_seh_guarded_call@X@@QEAAX$$QEAV<lambda_efdfa57d1f175319df784efa44bb7b81>@@AEAV<lambda_5f0a4c1567f8adc6734073e5d1e1b35c>@@$$QEAV<lambda_2e8a7d3640ea6ccb4c2413664c2db6fd>@@@Z@4HA 0000000180032684     libucrt:mbctype.obj
 0002:0000b684       $unwind$?fin$0@?0??update_thread_multibyte_data_internal@@YAPEAU__crt_multibyte_data@@QEAU__acrt_ptd@@QEAPEAU1@@Z@4HA 0000000180032684     libucrt:mbctype.obj
 0002:0000b684       $unwind$?fin$0@?0???$?RV<lambda_450d765d439847d4c735a33c368b5fc0>@@AEAV<lambda_44731a7d0e6d81c3e6aa82d741081786>@@V<lambda_601a2a7da3b7a96e9554ac7215c4b07c>@@@?$__crt_seh_guarded_call@P6AXH@Z@@QEAAP6AXH@Z$$QEAV<lambda_450d765d439847d4c735a33c368b5fc0>@@AEAV<lambda_44731a7d0e6d81c3e6aa82d741081786>@@$$QEAV<lambda_601a2a7da3b7a96e9554ac7215c4b07c>@@@Z@4HA 0000000180032684     libucrt:signal.obj
 0002:0000b684       $unwind$raise$fin$0        0000000180032684     libucrt:signal.obj
 0002:0000b684       $unwind$?filt$0@?0???R<lambda_6e4b09c48022b2350581041d5f6b0c4c>@@QEBA@XZ@4HA 0000000180032684     libucrt:exit.obj
 0002:0000b684       $unwind$?fin$0@?0???$?RV<lambda_d80eeec6fff315bfe5c115232f3240e3>@@AEAV<lambda_6e4b09c48022b2350581041d5f6b0c4c>@@V<lambda_2358e3775559c9db80273638284d5e45>@@@?$__crt_seh_guarded_call@X@@QEAAX$$QEAV<lambda_d80eeec6fff315bfe5c115232f3240e3>@@AEAV<lambda_6e4b09c48022b2350581041d5f6b0c4c>@@$$QEAV<lambda_2358e3775559c9db80273638284d5e45>@@@Z@4HA 0000000180032684     libucrt:exit.obj
 0002:0000b684       $unwind$?fin$0@?0???$?RV<lambda_638799b9deba96c50f710eeac98168cd>@@AEAV<lambda_22ebabd17bc4fa466a2aca6d8deb888d>@@V<lambda_a6f7d7db0129f75315ebf26d50c089f1>@@@?$__crt_seh_guarded_call@H@@QEAAH$$QEAV<lambda_638799b9deba96c50f710eeac98168cd>@@AEAV<lambda_22ebabd17bc4fa466a2aca6d8deb888d>@@$$QEAV<lambda_a6f7d7db0129f75315ebf26d50c089f1>@@@Z@4HA 0000000180032684     libucrt:onexit.obj
 0002:0000b684       $unwind$?fin$0@?0???$?RV<lambda_7777bce6b2f8c936911f934f8298dc43>@@AEAV<lambda_f03950bc5685219e0bcd2087efbe011e>@@V<lambda_3883c3dff614d5e0c5f61bb1ac94921c>@@@?$__crt_seh_guarded_call@H@@QEAAH$$QEAV<lambda_7777bce6b2f8c936911f934f8298dc43>@@AEAV<lambda_f03950bc5685219e0bcd2087efbe011e>@@$$QEAV<lambda_3883c3dff614d5e0c5f61bb1ac94921c>@@@Z@4HA 0000000180032684     libucrt:onexit.obj
 0002:0000b684       $unwind$_fcloseall$fin$0   0000000180032684     libucrt:closeall.obj
 0002:0000b684       $unwind$?fin$0@?0???$?RV<lambda_842d9ff0dc9ef11c61343bbaebe7f885>@@AEAV<lambda_c5860995281e5c4ce005b3de8f5874ee>@@V<lambda_d90129c13df834fdcbf8d2b88dafcf2d>@@@?$__crt_seh_guarded_call@X@@QEAAX$$QEAV<lambda_842d9ff0dc9ef11c61343bbaebe7f885>@@AEAV<lambda_c5860995281e5c4ce005b3de8f5874ee>@@$$QEAV<lambda_d90129c13df834fdcbf8d2b88dafcf2d>@@@Z@4HA 0000000180032684     libucrt:fflush.obj
 0002:0000b684       $unwind$?fin$0@?0???$?RV<lambda_886d6c58226a84441f68b9f2b8217b83>@@AEAV<lambda_ab61a845afdef5b7c387490eaf3616ee>@@V<lambda_f7f22ab5edc0698d5f6905b0d3f44752>@@@?$__crt_seh_guarded_call@X@@QEAAX$$QEAV<lambda_886d6c58226a84441f68b9f2b8217b83>@@AEAV<lambda_ab61a845afdef5b7c387490eaf3616ee>@@$$QEAV<lambda_f7f22ab5edc0698d5f6905b0d3f44752>@@@Z@4HA 0000000180032684     libucrt:fflush.obj
 0002:0000b684       $unwind$_ctrlfp$filt$0     0000000180032684     libucrt:fpctrl.obj
 0002:0000b684       $unwind$common_control87$filt$0 0000000180032684     libucrt:ieee.obj
 0002:0000b684       $unwind$?fin$0@?0??dllmain_crt_process_attach@@YAHQEAUHINSTANCE__@@QEAX@Z@4HA 0000000180032684     LIBCMT:dll_dllmain.obj
 0002:0000b684       $unwind$?fin$0@?0??dllmain_crt_process_detach@@YAH_N@Z@4HA 0000000180032684     LIBCMT:dll_dllmain.obj
 0002:0000b684       $unwind$?fin$1@?0??dllmain_crt_process_detach@@YAH_N@Z@4HA 0000000180032684     LIBCMT:dll_dllmain.obj
 0002:0000b684       $unwind$_IsNonwritableInCurrentImage$filt$0 0000000180032684     LIBCMT:pesect.obj
 0002:0000b684       $unwind$?filt$0@?0??CxxCallCatchBlock@__FrameHandler3@@SAPEAXPEAU_EXCEPTION_RECORD@@@Z@4HA 0000000180032684     libvcruntime:frame.obj
 0002:0000b684       $unwind$?filt$0@?0??CxxCallCatchBlock@__FrameHandler4@@SAPEAXPEAU_EXCEPTION_RECORD@@@Z@4HA 0000000180032684     libvcruntime:frame.obj
 0002:0000b684       $unwind$?filt$0@?0??FrameUnwindToState@__FrameHandler3@@SAXPEA_KPEAU_xDISPATCHER_CONTEXT@@PEBU_s_FuncInfo@@H@Z@4HA 0000000180032684     libvcruntime:frame.obj
 0002:0000b684       $unwind$?fin$1@?0??FrameUnwindToState@__FrameHandler3@@SAXPEA_KPEAU_xDISPATCHER_CONTEXT@@PEBU_s_FuncInfo@@H@Z@4HA 0000000180032684     libvcruntime:frame.obj
 0002:0000b68c       $unwind$?AtlInternalOleLoadFromStream@ATL@@YAJPEAUIStream@@AEBU_GUID@@PEAPEAXTClassesAllowedInStream@1@K@Z 000000018003268c     CAT.obj
 0002:0000b6a8       $unwind$?ReadFromStream@CComBSTR@ATL@@QEAAJPEAUIStream@@@Z 00000001800326a8     CAT.obj
 0002:0000b6a8       $unwind$_configure_narrow_argv 00000001800326a8     libucrt:argv_parsing.obj
 0002:0000b6bc       $unwind$?WriteToStream@CComVariant@ATL@@QEAAJPEAUIStream@@@Z 00000001800326bc     CAT.obj
 0002:0000b6d0       $unwind$?RegOpenKeyExW@CAtlTransactionManager@ATL@@QEAAJPEAUHKEY__@@PEB_WKKPEAPEAU3@@Z 00000001800326d0     CAT.obj
 0002:0000b6d0       $unwind$?WriteToStream@CComVariant@ATL@@QEAAJPEAUIStream@@G@Z 00000001800326d0     CAT.obj
 0002:0000b6d0       $unwind$__dcrt_write_console 00000001800326d0     libucrt:initcon.obj
 0002:0000b6d0       $unwind$??$__acrt_convert_wcs_mbs_cp@_WDV<lambda_f788ae46380686e8b737efdd8c720d07>@@U__crt_win32_buffer_no_resizing@@@@YAHQEB_WAEAV?$__crt_win32_buffer@DU__crt_win32_buffer_no_resizing@@@@AEBV<lambda_f788ae46380686e8b737efdd8c720d07>@@I@Z 00000001800326d0     libucrt:getmodulefilenamea.obj
 0002:0000b6e4       $unwind$?ReadFromStream@CComVariant@ATL@@QEAAJPEAUIStream@@GTClassesAllowedInStream@2@K@Z 00000001800326e4     CAT.obj
 0002:0000b6fc       $unwind$?GetSizeMax@CComVariant@ATL@@QEBAJPEAT_ULARGE_INTEGER@@@Z 00000001800326fc     CAT.obj
 0002:0000b710       $unwind$?RegCreateKeyExW@CAtlTransactionManager@ATL@@QEAAJPEAUHKEY__@@PEB_WKPEA_WKKQEAU_SECURITY_ATTRIBUTES@@PEAPEAU3@PEAK@Z 0000000180032710     CAT.obj
 0002:0000b724       $unwind$?GetGITPtr@CAtlModule@ATL@@UEAAJPEAPEAUIGlobalInterfaceTable@@@Z 0000000180032724     CAT.obj
 0002:0000b724       $unwind$?RegDeleteKeyW@CAtlTransactionManager@ATL@@QEAAJPEAUHKEY__@@PEB_W@Z 0000000180032724     CAT.obj
 0002:0000b724       $unwind$?getStateFromIterators@UWMap4@FH4@@SAHAEBViterator@12@H0H0@Z 0000000180032724     libvcruntime:frame.obj
 0002:0000b734       $unwind$?AtlHiMetricToPixel@ATL@@YAXPEBUtagSIZE@@PEAU2@@Z 0000000180032734     CAT.obj
 0002:0000b734       $unwind$?AtlInternalQueryInterface@ATL@@YAJPEAXPEBU_ATL_INTMAP_ENTRY@1@AEBU_GUID@@PEAPEAX@Z 0000000180032734     CAT.obj
 0002:0000b74c       $unwind$?Append@CParseBuffer@CRegParser@ATL@@QEAAHPEB_WH@Z 000000018003274c     CAT.obj
 0002:0000b74c       $unwind$?AtlComModuleGetClassObject@ATL@@YAJPEAU_ATL_COM_MODULE70@1@AEBU_GUID@@1PEAPEAX@Z 000000018003274c     CAT.obj
 0002:0000b74c       $unwind$?GetClassObject@CComModule@ATL@@QEAAJAEBU_GUID@@0PEAPEAX@Z 000000018003274c     CAT.obj
 0002:0000b74c       $unwind$?NextToken@CRegParser@ATL@@IEAAJPEA_W@Z 000000018003274c     CAT.obj
 0002:0000b74c       $unwind$?StartWindowProc@?$CWindowImplBaseT@VCWindow@ATL@@V?$CWinTraits@$0FGAAAAAA@$0A@@2@@ATL@@SA_JPEAUHWND__@@I_K_J@Z 000000018003274c     CAT.obj
 0002:0000b74c       $unwind$?fp_format_f_internal@@YAHQEAD_KHQEAU_strflt@@_NAEAV__crt_cached_ptd_host@@@Z 000000018003274c     libucrt:cvt.obj
 0002:0000b74c       $unwind$__acrt_DownlevelLocaleNameToLCID 000000018003274c     libucrt:lcidtoname_downlevel.obj
 0002:0000b74c       $unwind$??R<lambda_f03950bc5685219e0bcd2087efbe011e>@@QEBAHXZ 000000018003274c     libucrt:onexit.obj
 0002:0000b764       $unwind$?AtlRegisterClassCategoriesHelper@ATL@@YAJAEBU_GUID@@PEBU_ATL_CATMAP_ENTRY@1@H@Z 0000000180032764     CAT.obj
 0002:0000b788       $unwind$?AtlLoadTypeLib@ATL@@YAJPEAUHINSTANCE__@@PEB_WPEAPEA_WPEAPEAUITypeLib@@@Z 0000000180032788     CAT.obj
 0002:0000b7a8       $unwind$?AtlRegisterTypeLib@ATL@@YAJPEAUHINSTANCE__@@PEB_W@Z 00000001800327a8     CAT.obj
 0002:0000b7c4       $unwind$?AtlUnRegisterTypeLib@ATL@@YAJPEAUHINSTANCE__@@PEB_W@Z 00000001800327c4     CAT.obj
 0002:0000b7cc       $unwind$?GetTI@CComTypeInfoHolder@ATL@@QEAAJK@Z 00000001800327cc     CAT.obj
 0002:0000b7cc       $unwind$?RecurseDeleteKey@CRegKey@ATL@@QEAAJPEB_W@Z 00000001800327cc     CAT.obj
 0002:0000b7ec       $unwind$?UpdateRegistryFromResource@CAtlModule@ATL@@QEAAJIHPEAU_ATL_REGMAP_ENTRY@2@@Z 00000001800327ec     CAT.obj
 0002:0000b7ec       $unwind$?UpdateRegistryFromResource@CAtlModule@ATL@@QEAAJPEB_WHPEAU_ATL_REGMAP_ENTRY@2@@Z 00000001800327ec     CAT.obj
 0002:0000b80c       $unwind$?Lookup@?$CSimpleMap@PEA_WPEA_WVCExpansionVectorEqualHelper@ATL@@@ATL@@QEBAPEA_WAEBQEA_W@Z 000000018003280c     CAT.obj
 0002:0000b80c       $unwind$_free_osfhnd       000000018003280c     libucrt:osfinfo.obj
 0002:0000b80c       $unwind$__std_exception_copy 000000018003280c     libvcruntime:std_exception.obj
 0002:0000b820       $unwind$?Add@CExpansionVector@ATL@@QEAAHPEB_W0@Z 0000000180032820     CAT.obj
 0002:0000b838       $unwind$?PreProcessBuffer@CRegParser@ATL@@QEAAJPEA_WPEAPEA_W@Z 0000000180032838     CAT.obj
 0002:0000b85c       $unwind$?RegisterBuffer@CRegParser@ATL@@QEAAJPEA_WH@Z 000000018003285c     CAT.obj
 0002:0000b87c       $unwind$?AddValue@CRegParser@ATL@@IEAAJAEAVCRegKey@2@PEB_WPEA_W@Z 000000018003287c     CAT.obj
 0002:0000b89c       $unwind$?RegisterSubkeys@CRegParser@ATL@@IEAAJPEA_WPEAUHKEY__@@HH@Z 000000018003289c     CAT.obj
 0002:0000b8bc       $unwind$?SkipAssignment@CRegParser@ATL@@IEAAJPEA_W@Z 00000001800328bc     CAT.obj
 0002:0000b8d8       $unwind$?RegisterFromResource@CRegObject@ATL@@IEAAJPEB_W00H@Z 00000001800328d8     CAT.obj
 0002:0000b8f8       $unwind$?Cleanup@CComTypeInfoHolder@ATL@@SAX_K@Z 00000001800328f8     CAT.obj
 0002:0000b8f8       $unwind$_free_base         00000001800328f8     libucrt:free_base.obj
 0002:0000b8f8       $unwind$?destroy_fls@@YAXPEAX@Z 00000001800328f8     libucrt:per_thread_data.obj
 0002:0000b8f8       $unwind$__acrt_locale_free_numeric 00000001800328f8     libucrt:initnum.obj
 0002:0000b8f8       $unwind$__acrt_locale_free_lc_time_if_unreferenced 00000001800328f8     libucrt:locale_refcounting.obj
 0002:0000b8f8       $unwind$AtlThunk_FreeData  00000001800328f8     atls:atlthunk.obj
 0002:0000b900       $unwind$?GetIDsOfNames@CComTypeInfoHolder@ATL@@QEAAJAEBU_GUID@@PEAPEA_WIKPEAJ@Z 0000000180032900     CAT.obj
 0002:0000b91c       $unwind$?LoadNameCache@CComTypeInfoHolder@ATL@@QEAAJPEAUITypeInfo@@@Z 000000018003291c     CAT.obj
 0002:0000b934       $unwind$?WindowProc@?$CWindowImplBaseT@VCWindow@ATL@@V?$CWinTraits@$0FGAAAAAA@$0A@@2@@ATL@@SA_JPEAUHWND__@@I_K_J@Z 0000000180032934     CAT.obj
 0002:0000b94c       $unwind$?atlCreate@?$CWindowImplBaseT@VCWindow@ATL@@V?$CWinTraits@$0FGAAAAAA@$0A@@2@@ATL@@QEAAPEAUHWND__@@PEAU3@V_U_RECT@2@PEB_WKKV_U_MENUorID@2@GPEAX@Z 000000018003294c     CAT.obj
 0002:0000b964       $unwind$??$AtlModuleRegisterWndClassInfoT@VAtlModuleRegisterWndClassInfoParamW@ATL@@@ATL@@YAGPEAU_ATL_BASE_MODULE70@0@PEAU_ATL_WIN_MODULE70@0@PEAU_ATL_WNDCLASSINFOW@0@PEAP6A_JPEAUHWND__@@I_K_J@ZVAtlModuleRegisterWndClassInfoParamW@0@@Z 0000000180032964     CAT.obj
 0002:0000b984       $unwind$?GetZoomInfo@CComControlBase@ATL@@QEAAXAEAUATL_DRAWINFO@@@Z 0000000180032984     CAT.obj
 0002:0000b984       $unwind$?OnKillFocus@CComControlBase@ATL@@QEAA_JI_K_JAEAH@Z 0000000180032984     CAT.obj
 0002:0000b984       $unwind$?get_raw_ptd@__crt_cached_ptd_host@@QEAAPEAU__acrt_ptd@@XZ 0000000180032984     libucrt:invalid_parameter.obj
 0002:0000b990       $unwind$?SendOnDataChange@CComControlBase@ATL@@QEAAJK@Z 0000000180032990     CAT.obj
 0002:0000b9a0       $unwind$?OnSetFocus@CComControlBase@ATL@@QEAA_JI_K_JAEAH@Z 00000001800329a0     CAT.obj
 0002:0000b9b4       $unwind$?OnMouseActivate@CComControlBase@ATL@@QEAA_JI_K_JAEAH@Z 00000001800329b4     CAT.obj
 0002:0000b9bc       $unwind$?GetAmbientLocaleID@CComControlBase@ATL@@QEAAJAEAK@Z 00000001800329bc     CAT.obj
 0002:0000b9bc       $unwind$?GetAmbientUserMode@CComControlBase@ATL@@QEAAJAEAH@Z 00000001800329bc     CAT.obj
 0002:0000b9cc       $unwind$?IQuickActivate_QuickActivate@CComControlBase@ATL@@QEAAJPEAUtagQACONTAINER@@PEAUtagQACONTROL@@@Z 00000001800329cc     CAT.obj
 0002:0000b9e4       $unwind$?DoVerbProperties@CComControlBase@ATL@@QEAAJPEBUtagRECT@@PEAUHWND__@@@Z 00000001800329e4     CAT.obj
 0002:0000b9fc       $unwind$?InPlaceActivate@CComControlBase@ATL@@QEAAJJPEBUtagRECT@@@Z 00000001800329fc     CAT.obj
 0002:0000ba1c       $unwind$?IOleObject_Close@CComControlBase@ATL@@QEAAJK@Z 0000000180032a1c     CAT.obj
 0002:0000ba1c       $unwind$?get_raw_ptd_noexit@__crt_cached_ptd_host@@QEAAPEAU__acrt_ptd@@XZ 0000000180032a1c     libucrt:invalid_parameter.obj
 0002:0000ba1c       $unwind$?type_case_c_tchar@?$output_processor@_WV?$string_output_adapter@_W@__crt_stdio_output@@V?$format_validation_base@_WV?$string_output_adapter@_W@__crt_stdio_output@@@2@@__crt_stdio_output@@AEAA_N_W@Z 0000000180032a1c     libucrt:output.obj
 0002:0000ba2c       $unwind$?IOleInPlaceObject_UIDeactivate@CComControlBase@ATL@@QEAAJXZ 0000000180032a2c     CAT.obj
 0002:0000ba44       $unwind$?IOleInPlaceObject_SetObjectRects@CComControlBase@ATL@@QEAAJPEBUtagRECT@@0@Z 0000000180032a44     CAT.obj
 0002:0000ba58       $unwind$?IViewObject_Draw@CComControlBase@ATL@@QEAAJKJPEAXPEAUtagDVTARGETDEVICE@@PEAUHDC__@@2PEBU_RECTL@@3@Z 0000000180032a58     CAT.obj
 0002:0000ba74       $unwind$?IDataObject_GetData@CComControlBase@ATL@@QEAAJPEAUtagFORMATETC@@PEAUtagSTGMEDIUM@@@Z 0000000180032a74     CAT.obj
 0002:0000ba94       $unwind$?OnPaint@CComControlBase@ATL@@QEAA_JI_K_JAEAH@Z 0000000180032a94     CAT.obj
 0002:0000bab0       $unwind$?OnDrawAdvanced@CComControlBase@ATL@@UEAAJAEAUATL_DRAWINFO@@@Z 0000000180032ab0     CAT.obj
 0002:0000bacc       $unwind$?Invoke@?$IDispatchImpl@UIOPOSCAT@@$1?IID_IOPOSCAT@@3U_GUID@@B$1?LIBID_OposCAT_CCO@@3U3@B$00$0A@VCComTypeInfoHolder@ATL@@@ATL@@UEAAJJAEBU_GUID@@KGPEAUtagDISPPARAMS@@PEAUtagVARIANT@@PEAUtagEXCEPINFO@@PEAI@Z 0000000180032acc     CAT.obj
 0002:0000bacc       $unwind$?ReleaseDevice@COPOSCAT@@UEAAJPEAJ@Z 0000000180032acc     CATImpl.obj
 0002:0000bacc       $unwind$_mbsdec_l          0000000180032acc     libucrt:mbsdec.obj
 0002:0000bad8       $unwind$?atlCreate@?$CWindowImpl@VCOPOSCAT@@VCWindow@ATL@@V?$CWinTraits@$0FGAAAAAA@$0A@@3@@ATL@@QEAAPEAUHWND__@@PEAU3@V_U_RECT@2@PEB_WKKV_U_MENUorID@2@PEAX@Z 0000000180032ad8     CAT.obj
 0002:0000bad8       $unwind$?fp_format_f@@YAHQEBNQEAD_K12HW4__acrt_rounding_mode@@AEAV__crt_cached_ptd_host@@@Z 0000000180032ad8     libucrt:cvt.obj
 0002:0000bad8       $unwind$__acrt_LCMapStringEx 0000000180032ad8     libucrt:winapi_thunks.obj
 0002:0000baec       $unwind$?CreateControlWindow@?$CComControl@VCOPOSCAT@@V?$CWindowImpl@VCOPOSCAT@@VCWindow@ATL@@V?$CWinTraits@$0FGAAAAAA@$0A@@3@@ATL@@@ATL@@UEAAPEAUHWND__@@PEAU3@AEAUtagRECT@@@Z 0000000180032aec     CAT.obj
 0002:0000baec       $unwind$?ClearOutput@COPOSCAT@@UEAAJPEAJ@Z 0000000180032aec     CATImpl.obj
 0002:0000baec       $unwind$?LockTerminal@COPOSCAT@@UEAAJPEAJ@Z 0000000180032aec     CATImpl.obj
 0002:0000baec       $unwind$?UnlockTerminal@COPOSCAT@@UEAAJPEAJ@Z 0000000180032aec     CATImpl.obj
 0002:0000baec       $unwind$_raise_exc         0000000180032aec     libucrt:fpexcept.obj
 0002:0000baec       $unwind$?__scrt_throw_std_bad_alloc@@YAXXZ 0000000180032aec     LIBCMT:throw_bad_alloc.obj
 0002:0000baec       $unwind$?__scrt_throw_std_bad_array_new_length@@YAXXZ 0000000180032aec     LIBCMT:throw_bad_alloc.obj
 0002:0000baf4       $unwind$?ProcessWindowMessage@?$CComControl@VCOPOSCAT@@V?$CWindowImpl@VCOPOSCAT@@VCWindow@ATL@@V?$CWinTraits@$0FGAAAAAA@$0A@@3@@ATL@@@ATL@@UEAAHPEAUHWND__@@I_K_JAEA_JK@Z 0000000180032af4     CAT.obj
 0002:0000bafc       $unwind$?GetSizeMax@?$IPersistStreamInitImpl@VCOPOSCAT@@@ATL@@UEAAJPEAT_ULARGE_INTEGER@@@Z 0000000180032afc     CAT.obj
 0002:0000bb14       $unwind$?IPersistStreamInit_Load@?$IPersistStreamInitImpl@VCOPOSCAT@@@ATL@@QEAAJPEAUIStream@@PEBUATL_PROPMAP_ENTRY@2@@Z 0000000180032b14     CAT.obj
 0002:0000bb30       $unwind$?IPersistStreamInit_Save@?$IPersistStreamInitImpl@VCOPOSCAT@@@ATL@@QEAAJPEAUIStream@@HPEBUATL_PROPMAP_ENTRY@2@@Z 0000000180032b30     CAT.obj
 0002:0000bb4c       $unwind$?DoVerbPrimary@?$IOleObjectImpl@VCOPOSCAT@@@ATL@@QEAAJPEBUtagRECT@@PEAUHWND__@@@Z 0000000180032b4c     CAT.obj
 0002:0000bb4c       $unwind$?CheckCard@COPOSCAT@@UEAAJJJPEAJ@Z 0000000180032b4c     CATImpl.obj
 0002:0000bb64       $unwind$?TranslateAcceleratorW@?$IOleInPlaceActiveObjectImpl@VCOPOSCAT@@@ATL@@UEAAJPEAUtagMSG@@@Z 0000000180032b64     CAT.obj
 0002:0000bb70       $unwind$?Draw@?$IViewObjectExImpl@VCOPOSCAT@@@ATL@@UEAAJKJPEAXPEAUtagDVTARGETDEVICE@@PEAUHDC__@@2PEBU_RECTL@@3P6AH_K@Z4@Z 0000000180032b70     CAT.obj
 0002:0000bb78       $unwind$?QueryHitRect@?$IViewObjectExImpl@VCOPOSCAT@@@ATL@@UEAAJKPEBUtagRECT@@0JPEAK@Z 0000000180032b78     CAT.obj
 0002:0000bb88       $unwind$?OnWindowMessage@?$IOleInPlaceObjectWindowlessImpl@VCOPOSCAT@@@ATL@@UEAAJI_K_JPEA_J@Z 0000000180032b88     CAT.obj
 0002:0000bb9c       $unwind$?EnumConnectionPoints@?$IConnectionPointContainerImpl@VCOPOSCAT@@@ATL@@UEAAJPEAPEAUIEnumConnectionPoints@@@Z 0000000180032b9c     CAT.obj
 0002:0000bbc4       $unwind$?FindConnectionPoint@?$IConnectionPointContainerImpl@VCOPOSCAT@@@ATL@@UEAAJAEBU_GUID@@PEAPEAUIConnectionPoint@@@Z 0000000180032bc4     CAT.obj
 0002:0000bbe0       $unwind$?Load@?$IPersistStorageImpl@VCOPOSCAT@@@ATL@@UEAAJPEAUIStorage@@@Z 0000000180032be0     CAT.obj
 0002:0000bbf0       $unwind$?Save@?$IPersistStorageImpl@VCOPOSCAT@@@ATL@@UEAAJPEAUIStorage@@H@Z 0000000180032bf0     CAT.obj
 0002:0000bc04       $unwind$?IPSI_GetIPersistStreamInit@?$IPersistStorageImpl@VCOPOSCAT@@@ATL@@AEAAPEAUIPersistStreamInit@@XZ 0000000180032c04     CAT.obj
 0002:0000bc18       $unwind$?GetInterfaceSafetyOptions@?$IObjectSafetyImpl@VCOPOSCAT@@$02@ATL@@UEAAJAEBU_GUID@@PEAK1@Z 0000000180032c18     CAT.obj
 0002:0000bc2c       $unwind$?SetInterfaceSafetyOptions@?$IObjectSafetyImpl@VCOPOSCAT@@$02@ATL@@UEAAJAEBU_GUID@@KK@Z 0000000180032c2c     CAT.obj
 0002:0000bc40       $unwind$?Advise@?$IConnectionPointImpl@VCOPOSCAT@@$1?DIID__IOPOSCATEvents@@3U_GUID@@BVCComDynamicUnkArray@ATL@@@ATL@@UEAAJPEAUIUnknown@@PEAK@Z 0000000180032c40     CAT.obj
 0002:0000bc40       $unwind$?Advise@?$IConnectionPointImpl@VCOPOSCAT@@$1?IID_IPropertyNotifySink@@3U_GUID@@BVCComDynamicUnkArray@ATL@@@ATL@@UEAAJPEAUIUnknown@@PEAK@Z 0000000180032c40     CAT.obj
 0002:0000bc54       $unwind$?EnumConnections@?$IConnectionPointImpl@VCOPOSCAT@@$1?DIID__IOPOSCATEvents@@3U_GUID@@BVCComDynamicUnkArray@ATL@@@ATL@@UEAAJPEAPEAUIEnumConnections@@@Z 0000000180032c54     CAT.obj
 0002:0000bc54       $unwind$?EnumConnections@?$IConnectionPointImpl@VCOPOSCAT@@$1?IID_IPropertyNotifySink@@3U_GUID@@BVCComDynamicUnkArray@ATL@@@ATL@@UEAAJPEAPEAUIEnumConnections@@@Z 0000000180032c54     CAT.obj
 0002:0000bc6c       $unwind$?Fire_DirectIOEvent@?$CProxy_IOPOSEvents@VCOPOSCAT@@@@QEAAXJPEAJPEAPEA_W@Z 0000000180032c6c     CAT.obj
 0002:0000bc8c       $unwind$?Fire_ErrorEvent@?$CProxy_IOPOSEvents@VCOPOSCAT@@@@QEAAXJJJPEAJ@Z 0000000180032c8c     CAT.obj
 0002:0000bcac       $unwind$?Fire_OutputCompleteEvent@?$CProxy_IOPOSEvents@VCOPOSCAT@@@@QEAAXJ@Z 0000000180032cac     CAT.obj
 0002:0000bcac       $unwind$?Fire_StatusUpdateEvent@?$CProxy_IOPOSEvents@VCOPOSCAT@@@@QEAAXJ@Z 0000000180032cac     CAT.obj
 0002:0000bcac       $unwind$?fp_format_e@@YAHQEBNQEAD_K12H_NIW4__acrt_rounding_mode@@AEAV__crt_cached_ptd_host@@@Z 0000000180032cac     libucrt:cvt.obj
 0002:0000bcac       $unwind$??$__InternalCxxFrameHandler@V__FrameHandler3@@@@YA?AW4_EXCEPTION_DISPOSITION@@PEAUEHExceptionRecord@@PEA_KPEAU_CONTEXT@@PEAU_xDISPATCHER_CONTEXT@@PEBU_s_FuncInfo@@H1E@Z 0000000180032cac     libvcruntime:frame.obj
 0002:0000bcc4       $unwind$?FireTheEvent@?$CProxy_IOPOSEvents@VCOPOSCAT@@@@IEAAXPEAVOposVariant@@IAEAJPEB_WJ@Z 0000000180032cc4     CAT.obj
 0002:0000bcd4       $unwind$?ProcessWindowMessage@COPOSCAT@@UEAAHPEAUHWND__@@I_K_JAEA_JK@Z 0000000180032cd4     CAT.obj
 0002:0000bcec       $unwind$?SOError@COPOSCAT@@MEAAJJJJPEAJ@Z 0000000180032cec     CAT.obj
 0002:0000bcec       $unwind$??$common_lseek_nolock@_J@@YA_JH_JHAEAV__crt_cached_ptd_host@@@Z 0000000180032cec     libucrt:lseek.obj
 0002:0000bcec       $unwind$_invalid_parameter_internal 0000000180032cec     libucrt:invalid_parameter.obj
 0002:0000bcec       $unwind$??$type_case_integer@$07@?$output_processor@_WV?$string_output_adapter@_W@__crt_stdio_output@@V?$format_validation_base@_WV?$string_output_adapter@_W@__crt_stdio_output@@@2@@__crt_stdio_output@@AEAA_N_N@Z 0000000180032cec     libucrt:output.obj
 0002:0000bcec       $unwind$??$type_case_integer@$09@?$output_processor@_WV?$string_output_adapter@_W@__crt_stdio_output@@V?$format_validation_base@_WV?$string_output_adapter@_W@__crt_stdio_output@@@2@@__crt_stdio_output@@AEAA_N_N@Z 0000000180032cec     libucrt:output.obj
 0002:0000bcec       $unwind$??$type_case_integer@$0BA@@?$output_processor@_WV?$string_output_adapter@_W@__crt_stdio_output@@V?$format_validation_base@_WV?$string_output_adapter@_W@__crt_stdio_output@@@2@@__crt_stdio_output@@AEAA_N_N@Z 0000000180032cec     libucrt:output.obj
 0002:0000bd00       $unwind$?Clone@?$CComEnumImpl@UIEnumConnectionPoints@@$1?_GUID_b196b285_bab4_101a_b69c_00aa00341d07@@3U__s_GUID@@BPEAUIConnectionPoint@@V?$_CopyInterface@UIConnectionPoint@@@ATL@@@ATL@@UEAAJPEAPEAUIEnumConnectionPoints@@@Z 0000000180032d00     CAT.obj
 0002:0000bd00       $unwind$?Clone@?$CComEnumImpl@UIEnumConnections@@$1?_GUID_b196b287_bab4_101a_b69c_00aa00341d07@@3U__s_GUID@@BUtagCONNECTDATA@@V?$_Copy@UtagCONNECTDATA@@@ATL@@@ATL@@UEAAJPEAPEAUIEnumConnections@@@Z 0000000180032d00     CAT.obj
 0002:0000bd18       $unwind$?Init@?$CComEnumImpl@UIEnumConnectionPoints@@$1?_GUID_b196b285_bab4_101a_b69c_00aa00341d07@@3U__s_GUID@@BPEAUIConnectionPoint@@V?$_CopyInterface@UIConnectionPoint@@@ATL@@@ATL@@QEAAJPEAPEAUIConnectionPoint@@0PEAUIUnknown@@W4CComEnumFlags@2@@Z 0000000180032d18     CAT.obj
 0002:0000bd18       $unwind$?Init@?$CComEnumImpl@UIEnumConnections@@$1?_GUID_b196b287_bab4_101a_b69c_00aa00341d07@@3U__s_GUID@@BUtagCONNECTDATA@@V?$_Copy@UtagCONNECTDATA@@@ATL@@@ATL@@QEAAJPEAUtagCONNECTDATA@@0PEAUIUnknown@@W4CComEnumFlags@2@@Z 0000000180032d18     CAT.obj
 0002:0000bd18       $unwind$?should_round_up@@YA_NQEBN_KFW4__acrt_rounding_mode@@@Z 0000000180032d18     libucrt:cvt.obj
 0002:0000bd18       $unwind$??$parse_command_line@D@@YAXPEADPEAPEAD0PEA_K2@Z 0000000180032d18     libucrt:argv_parsing.obj
 0002:0000bd34       $unwind$?GetOposProp@COPOSCAT@@IEAAJJPEAJJ@Z 0000000180032d34     CATImpl.obj
 0002:0000bd34       $unwind$?GetOposProp@COPOSCAT@@IEAAJJPEAPEA_WJ@Z 0000000180032d34     CATImpl.obj
 0002:0000bd4c       $unwind$?SetOposProp@COPOSCAT@@IEAAJJJJ@Z 0000000180032d4c     CATImpl.obj
 0002:0000bd6c       $unwind$?SetOposProp@COPOSCAT@@IEAAJJPEA_WJ@Z 0000000180032d6c     CATImpl.obj
 0002:0000bd88       $unwind$?DoInvoke@COPOSCAT@@IEAAJJPEAVOposVariant@@IHPEAJ_N@Z 0000000180032d88     CATImpl.obj
 0002:0000bda0       $unwind$?SetCOFreezeEvents@COPOSCAT@@IEAAXF@Z 0000000180032da0     CATImpl.obj
 0002:0000bdb4       $unwind$?OnDraw@COPOSCAT@@MEAAJAEAUATL_DRAWINFO@@@Z 0000000180032db4     CATImpl.obj
 0002:0000bdcc       $unwind$?EventInit@COPOSCAT@@IEAAJXZ 0000000180032dcc     CATImpl.obj
 0002:0000bde0       $unwind$?EventWindowProc@COPOSCAT@@IEAA_JI_K_J@Z 0000000180032de0     CATImpl.obj
 0002:0000bde0       $unwind$?type_case_n@?$output_processor@_WV?$string_output_adapter@_W@__crt_stdio_output@@V?$format_validation_base@_WV?$string_output_adapter@_W@__crt_stdio_output@@@2@@__crt_stdio_output@@AEAA_NXZ 0000000180032de0     libucrt:output.obj
 0002:0000bdec       $unwind$?get_ControlObjectDescription@COPOSCAT@@UEAAJPEAPEA_W@Z 0000000180032dec     CATImpl.obj
 0002:0000bdec       $unwind$__dcrt_lowio_ensure_console_output_initialized 0000000180032dec     libucrt:initcon.obj
 0002:0000bdec       $unwind$?__mbrtowc_utf8@__crt_mbstring@@YA_KPEA_WPEBD_KPEAU_Mbstatet@@AEAV__crt_cached_ptd_host@@@Z 0000000180032dec     libucrt:mbrtowc.obj
 0002:0000bdec       $unwind$?getSystemCP@@YAHH@Z 0000000180032dec     libucrt:mbctype.obj
 0002:0000bdf4       $unwind$?CheckHealth@COPOSCAT@@UEAAJJPEAJ@Z 0000000180032df4     CATImpl.obj
 0002:0000bdf4       $unwind$?ResetStatistics@COPOSCAT@@UEAAJPEA_WPEAJ@Z 0000000180032df4     CATImpl.obj
 0002:0000bdf4       $unwind$?RetrieveStatistics@COPOSCAT@@UEAAJPEAPEA_WPEAJ@Z 0000000180032df4     CATImpl.obj
 0002:0000bdf4       $unwind$?UpdateFirmware@COPOSCAT@@UEAAJPEA_WPEAJ@Z 0000000180032df4     CATImpl.obj
 0002:0000bdf4       $unwind$?UpdateStatistics@COPOSCAT@@UEAAJPEA_WPEAJ@Z 0000000180032df4     CATImpl.obj
 0002:0000be04       $unwind$?ClaimDevice@COPOSCAT@@UEAAJJPEAJ@Z 0000000180032e04     CATImpl.obj
 0002:0000be14       $unwind$?Close@COPOSCAT@@UEAAJPEAJ@Z 0000000180032e14     CATImpl.obj
 0002:0000be20       $unwind$?DirectIO@COPOSCAT@@UEAAJJPEAJPEAPEA_W0@Z 0000000180032e20     CATImpl.obj
 0002:0000be3c       $unwind$?Open@COPOSCAT@@UEAAJPEA_WPEAJ@Z 0000000180032e3c     CATImpl.obj
 0002:0000be60       $unwind$?AccessDailyLog@COPOSCAT@@UEAAJJJJPEAJ@Z 0000000180032e60     CATImpl.obj
 0002:0000be60       $unwind$?CashDeposit@COPOSCAT@@UEAAJJTtagCY@@JPEAJ@Z 0000000180032e60     CATImpl.obj
 0002:0000be7c       $unwind$?AuthorizeCompletion@COPOSCAT@@UEAAJJTtagCY@@0JPEAJ@Z 0000000180032e7c     CATImpl.obj
 0002:0000be7c       $unwind$?AuthorizePreSales@COPOSCAT@@UEAAJJTtagCY@@0JPEAJ@Z 0000000180032e7c     CATImpl.obj
 0002:0000be7c       $unwind$?AuthorizeRefund@COPOSCAT@@UEAAJJTtagCY@@0JPEAJ@Z 0000000180032e7c     CATImpl.obj
 0002:0000be7c       $unwind$?AuthorizeSales@COPOSCAT@@UEAAJJTtagCY@@0JPEAJ@Z 0000000180032e7c     CATImpl.obj
 0002:0000be7c       $unwind$?AuthorizeVoid@COPOSCAT@@UEAAJJTtagCY@@0JPEAJ@Z 0000000180032e7c     CATImpl.obj
 0002:0000be7c       $unwind$?AuthorizeVoidPreSales@COPOSCAT@@UEAAJJTtagCY@@0JPEAJ@Z 0000000180032e7c     CATImpl.obj
 0002:0000be98       $unwind$?CompareFirmwareVersion@COPOSCAT@@UEAAJPEA_WPEAJ1@Z 0000000180032e98     CATImpl.obj
 0002:0000be98       $unwind$?initialize_inherited_file_handles_nolock@@YAXXZ 0000000180032e98     libucrt:ioinit.obj
 0002:0000beb4       $unwind$?get_Balance@COPOSCAT@@UEAAJPEATtagCY@@@Z 0000000180032eb4     CATImpl.obj
 0002:0000beb4       $unwind$?get_SettledAmount@COPOSCAT@@UEAAJPEATtagCY@@@Z 0000000180032eb4     CATImpl.obj
 0002:0000bec8       $unwind$__scrt_is_nonwritable_in_current_image 0000000180032ec8     LIBCMT:utility.obj
 0002:0000bee8       $unwind$__scrt_is_nonwritable_in_current_image$filt$0 0000000180032ee8     LIBCMT:utility.obj
 0002:0000bef0       $unwind$__report_securityfailure 0000000180032ef0     LIBCMT:gs_report.obj
 0002:0000bef8       $unwind$__report_gsfailure 0000000180032ef8     LIBCMT:gs_report.obj
 0002:0000bf00       $unwind$capture_current_context 0000000180032f00     LIBCMT:gs_report.obj
 0002:0000bf0c       $unwind$capture_previous_context 0000000180032f0c     LIBCMT:gs_report.obj
 0002:0000bf18       $unwind$??2@YAPEAX_KAEBUnothrow_t@std@@@Z 0000000180032f18     LIBCMT:new_scalar_nothrow.obj
 0002:0000bf28       $cppxdata$??2@YAPEAX_KAEBUnothrow_t@std@@@Z 0000000180032f28     LIBCMT:new_scalar_nothrow.obj
 0002:0000bf35       $stateUnwindMap$??2@YAPEAX_KAEBUnothrow_t@std@@@Z 0000000180032f35     LIBCMT:new_scalar_nothrow.obj
 0002:0000bf38       $tryMap$??2@YAPEAX_KAEBUnothrow_t@std@@@Z 0000000180032f38     LIBCMT:new_scalar_nothrow.obj
 0002:0000bf40       $handlerMap$??2@YAPEAX_KAEBUnothrow_t@std@@@Z 0000000180032f40     LIBCMT:new_scalar_nothrow.obj
 0002:0000bf48       $ip2state$??2@YAPEAX_KAEBUnothrow_t@std@@@Z 0000000180032f48     LIBCMT:new_scalar_nothrow.obj
 0002:0000bf4c       $unwind$?catch$0@?0???2@YAPEAX_KAEBUnothrow_t@std@@@Z@4HA 0000000180032f4c     LIBCMT:new_scalar_nothrow.obj
 0002:0000bf5c       $cppxdata$?catch$0@?0???2@YAPEAX_KAEBUnothrow_t@std@@@Z@4HA 0000000180032f5c     LIBCMT:new_scalar_nothrow.obj
 0002:0000bf66       $stateUnwindMap$?catch$0@?0???2@YAPEAX_KAEBUnothrow_t@std@@@Z@4HA 0000000180032f66     LIBCMT:new_scalar_nothrow.obj
 0002:0000bf68       $ip2state$?catch$0@?0???2@YAPEAX_KAEBUnothrow_t@std@@@Z@4HA 0000000180032f68     LIBCMT:new_scalar_nothrow.obj
 0002:0000bf6c       $unwind$__GSHandlerCheckCommon 0000000180032f6c     LIBCMT:gshandler.obj
 0002:0000bf78       $xdatasym                  0000000180032f78     LIBCMT:chkstk.obj
 0002:0000bf80       $xdatasym                  0000000180032f80     LIBCMT:amdsecgs.obj
 0002:0000bf84       $unwind$?dllmain_crt_process_attach@@YAHQEAUHINSTANCE__@@QEAX@Z 0000000180032f84     LIBCMT:dll_dllmain.obj
 0002:0000bfc0       $unwind$?dllmain_crt_process_detach@@YAH_N@Z 0000000180032fc0     LIBCMT:dll_dllmain.obj
 0002:0000c014       $unwind$?dllmain_dispatch@@YAHQEAUHINSTANCE__@@KQEAX@Z 0000000180033014     LIBCMT:dll_dllmain.obj
 0002:0000c03c       $unwind$_write_internal$fin$0 000000018003303c     libucrt:write.obj
 0002:0000c03c       $unwind$?fin$0@?0??_fclose_internal@@YAHQEAU_iobuf@@AEAV__crt_cached_ptd_host@@@Z@4HA 000000018003303c     libucrt:fclose.obj
 0002:0000c03c       $unwind$?filt$0@?0??dllmain_dispatch@@YAHQEAUHINSTANCE__@@KQEAX@Z@4HA 000000018003303c     LIBCMT:dll_dllmain.obj
 0002:0000c03c       $unwind$?filt$0@?0??FrameUnwindToState@__FrameHandler4@@SAXPEA_KPEAU_xDISPATCHER_CONTEXT@@PEAUFuncInfo4@FH4@@H@Z@4HA 000000018003303c     libvcruntime:frame.obj
 0002:0000c03c       $unwind$?fin$1@?0??FrameUnwindToState@__FrameHandler4@@SAXPEA_KPEAU_xDISPATCHER_CONTEXT@@PEAUFuncInfo4@FH4@@H@Z@4HA 000000018003303c     libvcruntime:frame.obj
 0002:0000c044       $unwind$__isa_available_init 0000000180033044     LIBCMT:cpu_disp.obj
 0002:0000c054       $unwind$__scrt_fastfail    0000000180033054     LIBCMT:utility_desktop.obj
 0002:0000c064       $unwind$__security_init_cookie 0000000180033064     LIBCMT:gs_support.obj
 0002:0000c070       $xdatasym                  0000000180033070     LIBCMT:guard_dispatch.obj
 0002:0000c078       $xdatasym                  0000000180033078     LIBCMT:guard_xfg_dispatch.obj
 0002:0000c07c       $unwind$AtlThunk_InitData  000000018003307c     atls:atlthunk.obj
 0002:0000c090       $unwind$wcsstr             0000000180033090     libvcruntime:wcsstr.obj
 0002:0000c0a8       $xdatasym                  00000001800330a8     libvcruntime:memcmp.obj
 0002:0000c0b0       $xdatasym                  00000001800330b0     libvcruntime:memcpy.obj
 0002:0000c0c0       $xdatasym                  00000001800330c0     libvcruntime:memset.obj
 0002:0000c0d0       $unwind$__C_specific_handler 00000001800330d0     libvcruntime:riscchandler.obj
 0002:0000c0d0       $unwind$?GetRangeOfTrysToCheck@__FrameHandler3@@SA?AU?$pair@Viterator@TryBlockMap@__FrameHandler3@@V123@@std@@AEAVTryBlockMap@1@HPEAU_xDISPATCHER_CONTEXT@@PEBU_s_FuncInfo@@H@Z 00000001800330d0     libvcruntime:risctrnsctrl.obj
 0002:0000c0ec       $unwind$?StateFromIp@__FrameHandler4@@SAHPEAUFuncInfo4@FH4@@PEAU_xDISPATCHER_CONTEXT@@_K@Z 00000001800330ec     libvcruntime:ehstate.obj
 0002:0000c0ec       $unwind$?DecompFuncInfo@FH4@@YA_JPEAEAEAUFuncInfo4@1@_KH_N@Z 00000001800330ec     libvcruntime:risctrnsctrl.obj
 0002:0000c104       $unwind$?GetEstablisherFrame@__FrameHandler3@@SAPEA_KPEA_KPEAU_xDISPATCHER_CONTEXT@@PEBU_s_FuncInfo@@0@Z 0000000180033104     libvcruntime:risctrnsctrl.obj
 0002:0000c11c       $unwind$?UnwindNestedFrames@__FrameHandler3@@SAXPEA_KPEAUEHExceptionRecord@@PEAU_CONTEXT@@0PEAXPEBU_s_FuncInfo@@HHPEBU_s_HandlerType@@PEAU_xDISPATCHER_CONTEXT@@E@Z 000000018003311c     libvcruntime:risctrnsctrl.obj
 0002:0000c11c       $unwind$?UnwindNestedFrames@__FrameHandler4@@SAXPEA_KPEAUEHExceptionRecord@@PEAU_CONTEXT@@0PEAXPEAUFuncInfo4@FH4@@HHPEAUHandlerType4@5@PEAU_xDISPATCHER_CONTEXT@@E@Z 000000018003311c     libvcruntime:risctrnsctrl.obj
 0002:0000c130       $unwind$?GetRangeOfTrysToCheck@__FrameHandler4@@SA?AU?$pair@Viterator@TryBlockMap4@FH4@@V123@@std@@AEAVTryBlockMap4@FH4@@HPEAU_xDISPATCHER_CONTEXT@@PEAUFuncInfo4@5@H@Z 0000000180033130     libvcruntime:risctrnsctrl.obj
 0002:0000c14c       $unwind$__CxxFrameHandler3 000000018003314c     libvcruntime:risctrnsctrl.obj
 0002:0000c160       $unwind$__CxxFrameHandler4 0000000180033160     libvcruntime:risctrnsctrl.obj
 0002:0000c174       $unwind$??$_CallSETranslator@V__FrameHandler4@@@@YAHPEAUEHExceptionRecord@@PEA_KPEAU_CONTEXT@@PEAU_xDISPATCHER_CONTEXT@@PEAUFuncInfo4@FH4@@K1H@Z 0000000180033174     libvcruntime:risctrnsctrl.obj
 0002:0000c194       $unwind$?filt$0@?0???$_CallSETranslator@V__FrameHandler3@@@@YAHPEAUEHExceptionRecord@@PEA_KPEAU_CONTEXT@@PEAU_xDISPATCHER_CONTEXT@@PEBU_s_FuncInfo@@K1H@Z@4HA 0000000180033194     libvcruntime:risctrnsctrl.obj
 0002:0000c194       $unwind$?filt$0@?0???$_CallSETranslator@V__FrameHandler4@@@@YAHPEAUEHExceptionRecord@@PEA_KPEAU_CONTEXT@@PEAU_xDISPATCHER_CONTEXT@@PEAUFuncInfo4@FH4@@K1H@Z@4HA 0000000180033194     libvcruntime:risctrnsctrl.obj
 0002:0000c1a0       $unwind$??$_CallSETranslator@V__FrameHandler3@@@@YAHPEAUEHExceptionRecord@@PEA_KPEAU_CONTEXT@@PEAU_xDISPATCHER_CONTEXT@@PEBU_s_FuncInfo@@K1H@Z 00000001800331a0     libvcruntime:risctrnsctrl.obj
 0002:0000c1c0       $unwind$__DestructExceptionObject 00000001800331c0     libvcruntime:ehhelpers.obj
 0002:0000c1e0       $unwind$__DestructExceptionObject$filt$0 00000001800331e0     libvcruntime:ehhelpers.obj
 0002:0000c1e0       $unwind$?fin$1@?0??CxxCallCatchBlock@__FrameHandler3@@SAPEAXPEAU_EXCEPTION_RECORD@@@Z@4HA 00000001800331e0     libvcruntime:frame.obj
 0002:0000c1e0       $unwind$?fin$1@?0??CxxCallCatchBlock@__FrameHandler4@@SAPEAXPEAU_EXCEPTION_RECORD@@@Z@4HA 00000001800331e0     libvcruntime:frame.obj
 0002:0000c1ec       $unwind$_CxxThrowException 00000001800331ec     libvcruntime:throw.obj
 0002:0000c200       $xdatasym                  0000000180033200     libvcruntime:notify.obj
 0002:0000c20c       $unwind$?getStartStop@UWMap4@FH4@@QEAAXHHAEAViterator@12@0@Z 000000018003320c     libvcruntime:frame.obj
 0002:0000c224       $unwind$?FrameUnwindToState@__FrameHandler3@@SAXPEA_KPEAU_xDISPATCHER_CONTEXT@@PEBU_s_FuncInfo@@H@Z 0000000180033224     libvcruntime:frame.obj
 0002:0000c270       $unwind$?CxxCallCatchBlock@__FrameHandler3@@SAPEAXPEAU_EXCEPTION_RECORD@@@Z 0000000180033270     libvcruntime:frame.obj
 0002:0000c2ac       $unwind$?FrameUnwindToState@__FrameHandler4@@SAXPEA_KPEAU_xDISPATCHER_CONTEXT@@PEAUFuncInfo4@FH4@@H@Z 00000001800332ac     libvcruntime:frame.obj
 0002:0000c2f4       $unwind$?CxxCallCatchBlock@__FrameHandler4@@SAPEAXPEAU_EXCEPTION_RECORD@@@Z 00000001800332f4     libvcruntime:frame.obj
 0002:0000c350       $unwind$?IsInExceptionSpec@@YAEPEAUEHExceptionRecord@@PEBU_s_ESTypeList@@@Z 0000000180033350     libvcruntime:frame.obj
 0002:0000c36c       $unwind$??$__InternalCxxFrameHandler@V__FrameHandler4@@@@YA?AW4_EXCEPTION_DISPOSITION@@PEAUEHExceptionRecord@@PEA_KPEAU_CONTEXT@@PEAU_xDISPATCHER_CONTEXT@@PEAUFuncInfo4@FH4@@H1E@Z 000000018003336c     libvcruntime:frame.obj
 0002:0000c384       $unwind$??$BuildCatchObjectHelperInternal@V__FrameHandler3@@@@YAHPEAUEHExceptionRecord@@PEAXPEBU_s_HandlerType@@PEBU_s_CatchableType@@@Z 0000000180033384     libvcruntime:frame.obj
 0002:0000c3c4       $unwind$??$BuildCatchObjectHelperInternal@V__FrameHandler4@@@@YAHPEAUEHExceptionRecord@@PEAXPEAUHandlerType4@FH4@@PEBU_s_CatchableType@@@Z 00000001800333c4     libvcruntime:frame.obj
 0002:0000c404       $unwind$??$BuildCatchObjectInternal@V__FrameHandler3@@@@YAXPEAUEHExceptionRecord@@PEAXPEBU_s_HandlerType@@PEBU_s_CatchableType@@@Z 0000000180033404     libvcruntime:frame.obj
 0002:0000c430       $unwind$??$BuildCatchObjectInternal@V__FrameHandler4@@@@YAXPEAUEHExceptionRecord@@PEAXPEAUHandlerType4@FH4@@PEBU_s_CatchableType@@@Z 0000000180033430     libvcruntime:frame.obj
 0002:0000c45c       $unwind$??$FindHandler@V__FrameHandler3@@@@YAXPEAUEHExceptionRecord@@PEA_KPEAU_CONTEXT@@PEAU_xDISPATCHER_CONTEXT@@PEBU_s_FuncInfo@@EH1@Z 000000018003345c     libvcruntime:frame.obj
 0002:0000c47c       $unwind$??$FindHandler@V__FrameHandler4@@@@YAXPEAUEHExceptionRecord@@PEA_KPEAU_CONTEXT@@PEAU_xDISPATCHER_CONTEXT@@PEAUFuncInfo4@FH4@@EH1@Z 000000018003347c     libvcruntime:frame.obj
 0002:0000c49c       $unwind$??$CatchIt@V__FrameHandler3@@@@YAXPEAUEHExceptionRecord@@PEA_KPEAU_CONTEXT@@PEAU_xDISPATCHER_CONTEXT@@PEBU_s_FuncInfo@@PEBU_s_HandlerType@@PEBU_s_CatchableType@@PEBU_s_TryBlockMapEntry@@H1EE@Z 000000018003349c     libvcruntime:frame.obj
 0002:0000c49c       $unwind$??$CatchIt@V__FrameHandler4@@@@YAXPEAUEHExceptionRecord@@PEA_KPEAU_CONTEXT@@PEAU_xDISPATCHER_CONTEXT@@PEAUFuncInfo4@FH4@@PEAUHandlerType4@4@PEBU_s_CatchableType@@PEAUTryBlockMapEntry4@4@H1EE@Z 000000018003349c     libvcruntime:frame.obj
 0002:0000c4b4       $unwind$??$FindHandlerForForeignException@V__FrameHandler3@@@@YAXPEAUEHExceptionRecord@@PEA_KPEAU_CONTEXT@@PEAU_xDISPATCHER_CONTEXT@@PEBU_s_FuncInfo@@HH1@Z 00000001800334b4     libvcruntime:frame.obj
 0002:0000c4d0       $unwind$??$FindHandlerForForeignException@V__FrameHandler4@@@@YAXPEAUEHExceptionRecord@@PEA_KPEAU_CONTEXT@@PEAU_xDISPATCHER_CONTEXT@@PEAUFuncInfo4@FH4@@HH1@Z 00000001800334d0     libvcruntime:frame.obj
 0002:0000c4f0       $unwind$?try_get_function@@YAPEAXW4function_id@?A0x391cf84c@@QEBDQEBW4module_id@2@2@Z 00000001800334f0     libucrt:winapi_thunks.obj
 0002:0000c4f0       $unwind$?try_get_function@@YAPEAXW4function_id@?A0xbc0cc709@@QEBDQEBW4module_id@2@2@Z 00000001800334f0     libvcruntime:winapi_downlevel.obj
 0002:0000c510       $xdatasym                  0000000180033510     libvcruntime:handlers.obj
 0002:0000c530       $unwind$__acrt_call_reportfault 0000000180033530     libucrt:invalid_parameter.obj
 0002:0000c550       $unwind$_invalid_parameter 0000000180033550     libucrt:invalid_parameter.obj
 0002:0000c55c       $unwind$_resetstkoflw      000000018003355c     libucrt:resetstk.obj
 0002:0000c580       $unwind$__stdio_common_vswprintf_s 0000000180033580     libucrt:output.obj
 0002:0000c594       $unwind$?write_string@?$string_output_adapter@_W@__crt_stdio_output@@QEBAXQEB_WHQEAHAEAV__crt_cached_ptd_host@@@Z 0000000180033594     libucrt:output.obj
 0002:0000c5ac       $unwind$??$common_vsprintf@Vformat_validation_base@__crt_stdio_output@@_W@@YAH_KQEA_W0QEB_WAEAV__crt_cached_ptd_host@@QEAD@Z 00000001800335ac     libucrt:output.obj
 0002:0000c5cc       $unwind$?parse_int_from_format_string@?$output_processor@_WV?$string_output_adapter@_W@__crt_stdio_output@@V?$format_validation_base@_WV?$string_output_adapter@_W@__crt_stdio_output@@@2@@__crt_stdio_output@@AEAA_NQEAH@Z 00000001800335cc     libucrt:output.obj
 0002:0000c5e0       $unwind$?state_case_type@?$output_processor@_WV?$string_output_adapter@_W@__crt_stdio_output@@V?$format_validation_base@_WV?$string_output_adapter@_W@__crt_stdio_output@@@2@@__crt_stdio_output@@AEAA_NXZ 00000001800335e0     libucrt:output.obj
 0002:0000c604       $unwind$?type_case_a@?$output_processor@_WV?$string_output_adapter@_W@__crt_stdio_output@@V?$format_validation_base@_WV?$string_output_adapter@_W@__crt_stdio_output@@@2@@__crt_stdio_output@@AEAA_NXZ 0000000180033604     libucrt:output.obj
 0002:0000c618       $unwind$??$parse_integer@KV?$c_string_character_source@_W@__crt_strtox@@$0A@@__crt_strtox@@YAKAEAV__crt_cached_ptd_host@@V?$c_string_character_source@_W@0@H_N@Z 0000000180033618     libucrt:output.obj
 0002:0000c634       $unwind$?try_cor_exit_process@@YAXI@Z 0000000180033634     libucrt:exit.obj
 0002:0000c648       $ip2state$?try_cor_exit_process@@YAXI@Z 0000000180033648     libucrt:exit.obj
 0002:0000c650       $unwind$?common_exit@@YAXHW4_crt_exit_cleanup_mode@@W4_crt_exit_return_mode@@@Z 0000000180033650     libucrt:exit.obj
 0002:0000c664       $stateUnwindMap$__dcrt_uninitialize_environments_nolock 0000000180033664     libucrt:environment_initialization.obj
 0002:0000c664       $stateUnwindMap$?common_exit@@YAXHW4_crt_exit_cleanup_mode@@W4_crt_exit_return_mode@@@Z 0000000180033664     libucrt:exit.obj
 0002:0000c664       $stateUnwindMap$_execute_onexit_table 0000000180033664     libucrt:onexit.obj
 0002:0000c670       $ip2state$?common_exit@@YAXHW4_crt_exit_cleanup_mode@@W4_crt_exit_return_mode@@@Z 0000000180033670     libucrt:exit.obj
 0002:0000c678       $unwind$??R<lambda_6e4b09c48022b2350581041d5f6b0c4c>@@QEBA@XZ 0000000180033678     libucrt:exit.obj
 0002:0000c698       $unwind$??$?RV<lambda_d80eeec6fff315bfe5c115232f3240e3>@@AEAV<lambda_6e4b09c48022b2350581041d5f6b0c4c>@@V<lambda_2358e3775559c9db80273638284d5e45>@@@?$__crt_seh_guarded_call@X@@QEAAX$$QEAV<lambda_d80eeec6fff315bfe5c115232f3240e3>@@AEAV<lambda_6e4b09c48022b2350581041d5f6b0c4c>@@$$QEAV<lambda_2358e3775559c9db80273638284d5e45>@@@Z 0000000180033698     libucrt:exit.obj
 0002:0000c6bc       $unwind$__dcrt_uninitialize_environments_nolock 00000001800336bc     libucrt:environment_initialization.obj
 0002:0000c6cc       $unwind$??$free_environment@D@@YAXQEAPEAD@Z 00000001800336cc     libucrt:environment_initialization.obj
 0002:0000c6cc       $unwind$??$free_environment@_W@@YAXQEAPEA_W@Z 00000001800336cc     libucrt:environment_initialization.obj
 0002:0000c6cc       $unwind$_initterm          00000001800336cc     libucrt:initterm.obj
 0002:0000c6d8       $unwind$_register_onexit_function 00000001800336d8     libucrt:onexit.obj
 0002:0000c6e0       $unwind$_execute_onexit_table 00000001800336e0     libucrt:onexit.obj
 0002:0000c6f0       $ip2state$_execute_onexit_table 00000001800336f0     libucrt:onexit.obj
 0002:0000c6f8       $unwind$??R<lambda_22ebabd17bc4fa466a2aca6d8deb888d>@@QEBAHXZ 00000001800336f8     libucrt:onexit.obj
 0002:0000c710       $unwind$??$?RV<lambda_638799b9deba96c50f710eeac98168cd>@@AEAV<lambda_22ebabd17bc4fa466a2aca6d8deb888d>@@V<lambda_a6f7d7db0129f75315ebf26d50c089f1>@@@?$__crt_seh_guarded_call@H@@QEAAH$$QEAV<lambda_638799b9deba96c50f710eeac98168cd>@@AEAV<lambda_22ebabd17bc4fa466a2aca6d8deb888d>@@$$QEAV<lambda_a6f7d7db0129f75315ebf26d50c089f1>@@@Z 0000000180033710     libucrt:onexit.obj
 0002:0000c734       $unwind$??$?RV<lambda_7777bce6b2f8c936911f934f8298dc43>@@AEAV<lambda_f03950bc5685219e0bcd2087efbe011e>@@V<lambda_3883c3dff614d5e0c5f61bb1ac94921c>@@@?$__crt_seh_guarded_call@H@@QEAAH$$QEAV<lambda_7777bce6b2f8c936911f934f8298dc43>@@AEAV<lambda_f03950bc5685219e0bcd2087efbe011e>@@$$QEAV<lambda_3883c3dff614d5e0c5f61bb1ac94921c>@@@Z 0000000180033734     libucrt:onexit.obj
 0002:0000c758       $unwind$_query_new_handler 0000000180033758     libucrt:new_handler.obj
 0002:0000c778       $unwind$terminate          0000000180033778     libucrt:terminate.obj
 0002:0000c798       $xdatasym                  0000000180033798     libucrt:strncmp.obj
 0002:0000c79c       $unwind$?construct_ptd_array@@YAXQEAU__acrt_ptd@@@Z 000000018003379c     libucrt:per_thread_data.obj
 0002:0000c7a4       $unwind$?destroy_ptd_array@@YAXQEAU__acrt_ptd@@@Z 00000001800337a4     libucrt:per_thread_data.obj
 0002:0000c7ac       $unwind$??$?RV<lambda_0ae27a3a962d80f24befdcbee591983d>@@AEAV<lambda_8d0ee55de4b1038c4002e0adecdf1839>@@V<lambda_dc504788e8f1664fe9b84e20bfb512f2>@@@?$__crt_seh_guarded_call@X@@QEAAX$$QEAV<lambda_0ae27a3a962d80f24befdcbee591983d>@@AEAV<lambda_8d0ee55de4b1038c4002e0adecdf1839>@@$$QEAV<lambda_dc504788e8f1664fe9b84e20bfb512f2>@@@Z 00000001800337ac     libucrt:per_thread_data.obj
 0002:0000c7d0       $unwind$??$?RV<lambda_aa87e3671a710a21b5dc78c0bdf72e11>@@AEAV<lambda_92619d2358a28f41a33ba319515a20b9>@@V<lambda_6992ecaafeb10aed2b74cb1fae11a551>@@@?$__crt_seh_guarded_call@X@@QEAAX$$QEAV<lambda_aa87e3671a710a21b5dc78c0bdf72e11>@@AEAV<lambda_92619d2358a28f41a33ba319515a20b9>@@$$QEAV<lambda_6992ecaafeb10aed2b74cb1fae11a551>@@@Z 00000001800337d0     libucrt:per_thread_data.obj
 0002:0000c7f4       $unwind$??$?RV<lambda_f2e299630e499de9f9a165e60fcd3db5>@@AEAV<lambda_2ae9d31cdba2644fcbeaf08da7c24588>@@V<lambda_40d01ff24d0e7b3814fdbdcee8eab3c7>@@@?$__crt_seh_guarded_call@X@@QEAAX$$QEAV<lambda_f2e299630e499de9f9a165e60fcd3db5>@@AEAV<lambda_2ae9d31cdba2644fcbeaf08da7c24588>@@$$QEAV<lambda_40d01ff24d0e7b3814fdbdcee8eab3c7>@@@Z 00000001800337f4     libucrt:per_thread_data.obj
 0002:0000c818       $unwind$??$?RV<lambda_2d41944a1d46af3157314b8a01080d33>@@AEAV<lambda_8f455de75cd7d7f24b4096f044d8b9e6>@@V<lambda_aa500f224e6afead328df44964fe2772>@@@?$__crt_seh_guarded_call@X@@QEAAX$$QEAV<lambda_2d41944a1d46af3157314b8a01080d33>@@AEAV<lambda_8f455de75cd7d7f24b4096f044d8b9e6>@@$$QEAV<lambda_aa500f224e6afead328df44964fe2772>@@@Z 0000000180033818     libucrt:per_thread_data.obj
 0002:0000c83c       $unwind$__acrt_uninitialize_locale 000000018003383c     libucrt:wsetlocale.obj
 0002:0000c83c       $unwind$__acrt_get_sigabrt_handler 000000018003383c     libucrt:signal.obj
 0002:0000c844       $unwind$??$?RV<lambda_410d79af7f07d98d83a3f525b3859a53>@@AEAV<lambda_3e16ef9562a7dcce91392c22ab16ea36>@@V<lambda_38119f0e861e05405d8a144b9b982f0a>@@@?$__crt_seh_guarded_call@X@@QEAAX$$QEAV<lambda_410d79af7f07d98d83a3f525b3859a53>@@AEAV<lambda_3e16ef9562a7dcce91392c22ab16ea36>@@$$QEAV<lambda_38119f0e861e05405d8a144b9b982f0a>@@@Z 0000000180033844     libucrt:wsetlocale.obj
 0002:0000c86c       $unwind$__acrt_initialize_winapi_thunks 000000018003386c     libucrt:winapi_thunks.obj
 0002:0000c86c       $unwind$__acrt_fenv_get_control 000000018003386c     libucrt:_fenvutils.obj
 0002:0000c874       $unwind$__acrt_fp_format   0000000180033874     libucrt:cvt.obj
 0002:0000c884       $unwind$?fp_format_e_internal@@YAHQEAD_KH_NIQEAU_strflt@@2AEAV__crt_cached_ptd_host@@@Z 0000000180033884     libucrt:cvt.obj
 0002:0000c8a0       $unwind$?fp_format_a@@YAHQEBNPEAD_KQEAD2H_NIW4__acrt_rounding_mode@@AEAV__crt_cached_ptd_host@@@Z 00000001800338a0     libucrt:cvt.obj
 0002:0000c8bc       $unwind$?fp_format_g@@YAHQEBNQEAD_K12H_NIW4__acrt_rounding_mode@@AEAV__crt_cached_ptd_host@@@Z 00000001800338bc     libucrt:cvt.obj
 0002:0000c8d4       $unwind$__acrt_initialize_lowio 00000001800338d4     libucrt:ioinit.obj
 0002:0000c8f4       $unwind$??$common_expand_argv_wildcards@D@@YAHQEAPEADQEAPEAPEAD@Z 00000001800338f4     libucrt:argv_wildcards.obj
 0002:0000c90c       $unwind$__dcrt_get_narrow_environment_from_os 000000018003390c     libucrt:get_environment_from_os.obj
 0002:0000c90c       $unwind$??$__acrt_convert_wcs_mbs_cp@_WDV<lambda_d8593a27d1aa8c02be35c86a17d324c4>@@U__crt_win32_buffer_internal_dynamic_resizing@@@@YAHQEB_WAEAV?$__crt_win32_buffer@DU__crt_win32_buffer_internal_dynamic_resizing@@@@AEBV<lambda_d8593a27d1aa8c02be35c86a17d324c4>@@I@Z 000000018003390c     libucrt:argv_wildcards.obj
 0002:0000c924       $unwind$??$copy_and_add_argument_to_buffer@D@@YAHQEBD0_KAEAV?$argument_list@D@?A0x5f5c8891@@@Z 0000000180033924     libucrt:argv_wildcards.obj
 0002:0000c940       $unwind$??$expand_argument_wildcards@D@@YAHQEAD0AEAV?$argument_list@D@?A0x5f5c8891@@@Z 0000000180033940     libucrt:argv_wildcards.obj
 0002:0000c960       $unwind$__acrt_GetModuleFileNameA 0000000180033960     libucrt:getmodulefilenamea.obj
 0002:0000c97c       $unwind$_setmbcp_nolock    000000018003397c     libucrt:mbctype.obj
 0002:0000c99c       $unwind$?update_thread_multibyte_data_internal@@YAPEAU__crt_multibyte_data@@QEAU__acrt_ptd@@QEAPEAU1@@Z 000000018003399c     libucrt:mbctype.obj
 0002:0000c9c4       $unwind$?setmbcp_internal@@YAHH_NQEAU__acrt_ptd@@QEAPEAU__crt_multibyte_data@@@Z 00000001800339c4     libucrt:mbctype.obj
 0002:0000c9dc       $unwind$?setSBUpLow@@YAXPEAU__crt_multibyte_data@@@Z 00000001800339dc     libucrt:mbctype.obj
 0002:0000c9f8       $unwind$??$?RV<lambda_efdfa57d1f175319df784efa44bb7b81>@@AEAV<lambda_5f0a4c1567f8adc6734073e5d1e1b35c>@@V<lambda_2e8a7d3640ea6ccb4c2413664c2db6fd>@@@?$__crt_seh_guarded_call@X@@QEAAX$$QEAV<lambda_efdfa57d1f175319df784efa44bb7b81>@@AEAV<lambda_5f0a4c1567f8adc6734073e5d1e1b35c>@@$$QEAV<lambda_2e8a7d3640ea6ccb4c2413664c2db6fd>@@@Z 00000001800339f8     libucrt:mbctype.obj
 0002:0000ca1c       $unwind$__acrt_WideCharToMultiByte 0000000180033a1c     libucrt:widechartomultibyte.obj
 0002:0000ca28       $unwind$raise              0000000180033a28     libucrt:signal.obj
 0002:0000ca64       $unwind$??$?RV<lambda_450d765d439847d4c735a33c368b5fc0>@@AEAV<lambda_44731a7d0e6d81c3e6aa82d741081786>@@V<lambda_601a2a7da3b7a96e9554ac7215c4b07c>@@@?$__crt_seh_guarded_call@P6AXH@Z@@QEAAP6AXH@Z$$QEAV<lambda_450d765d439847d4c735a33c368b5fc0>@@AEAV<lambda_44731a7d0e6d81c3e6aa82d741081786>@@$$QEAV<lambda_601a2a7da3b7a96e9554ac7215c4b07c>@@@Z 0000000180033a64     libucrt:signal.obj
 0002:0000ca88       $unwind$fclose             0000000180033a88     libucrt:fclose.obj
 0002:0000ca88       $unwind$_fflush_nolock     0000000180033a88     libucrt:fflush.obj
 0002:0000ca98       $unwind$?common_flush_all@@YAH_N@Z 0000000180033a98     libucrt:fflush.obj
 0002:0000caa0       $unwind$??$?RV<lambda_842d9ff0dc9ef11c61343bbaebe7f885>@@AEAV<lambda_c5860995281e5c4ce005b3de8f5874ee>@@V<lambda_d90129c13df834fdcbf8d2b88dafcf2d>@@@?$__crt_seh_guarded_call@X@@QEAAX$$QEAV<lambda_842d9ff0dc9ef11c61343bbaebe7f885>@@AEAV<lambda_c5860995281e5c4ce005b3de8f5874ee>@@$$QEAV<lambda_d90129c13df834fdcbf8d2b88dafcf2d>@@@Z 0000000180033aa0     libucrt:fflush.obj
 0002:0000cac4       $unwind$??$?RV<lambda_886d6c58226a84441f68b9f2b8217b83>@@AEAV<lambda_ab61a845afdef5b7c387490eaf3616ee>@@V<lambda_f7f22ab5edc0698d5f6905b0d3f44752>@@@?$__crt_seh_guarded_call@X@@QEAAX$$QEAV<lambda_886d6c58226a84441f68b9f2b8217b83>@@AEAV<lambda_ab61a845afdef5b7c387490eaf3616ee>@@$$QEAV<lambda_f7f22ab5edc0698d5f6905b0d3f44752>@@@Z 0000000180033ac4     libucrt:fflush.obj
 0002:0000caec       $unwind$__acrt_update_thread_locale_data 0000000180033aec     libucrt:locale_refcounting.obj
 0002:0000cb10       $unwind$__acrt_locale_free_monetary 0000000180033b10     libucrt:initmon.obj
 0002:0000cb18       $unwind$__acrt_locale_free_time 0000000180033b18     libucrt:inittime.obj
 0002:0000cb28       $unwind$__acrt_GetStringTypeA 0000000180033b28     libucrt:getstringtypea.obj
 0002:0000cb50       $unwind$__acrt_fp_strflt_to_string 0000000180033b50     libucrt:_fptostr.obj
 0002:0000cb6c       $unwind$__acrt_fltout      0000000180033b6c     libucrt:cfout.obj
 0002:0000cb8c       $unwind$?divide@__crt_strtox@@YA_KAEAUbig_integer@1@AEBU21@@Z 0000000180033b8c     libucrt:cfout.obj
 0002:0000cba4       $chain$0$?divide@__crt_strtox@@YA_KAEAUbig_integer@1@AEBU21@@Z 0000000180033ba4     libucrt:cfout.obj
 0002:0000cbb8       $chain$1$?divide@__crt_strtox@@YA_KAEAUbig_integer@1@AEBU21@@Z 0000000180033bb8     libucrt:cfout.obj
 0002:0000cbc8       $unwind$?__mbsrtowcs_utf8@__crt_mbstring@@YA_KPEA_WPEAPEBD_KPEAU_Mbstatet@@AEAV__crt_cached_ptd_host@@@Z 0000000180033bc8     libucrt:mbrtowc.obj
 0002:0000cbe0       $unwind$_fcloseall         0000000180033be0     libucrt:closeall.obj
 0002:0000cc04       $unwind$__acrt_lowio_destroy_handle_array 0000000180033c04     libucrt:osfinfo.obj
 0002:0000cc14       $unwind$__acrt_lowio_ensure_fh_exists 0000000180033c14     libucrt:osfinfo.obj
 0002:0000cc40       $unwind$qsort              0000000180033c40     libucrt:qsort.obj
 0002:0000cc58       $chain$4$qsort             0000000180033c58     libucrt:qsort.obj
 0002:0000cc7c       $chain$5$qsort             0000000180033c7c     libucrt:qsort.obj
 0002:0000cc8c       $unwind$strpbrk            0000000180033c8c     libucrt:strpbrk.obj
 0002:0000cc9c       $unwind$fallbackMethod     0000000180033c9c     libucrt:strpbrk.obj
 0002:0000ccac       $unwind$__acrt_LCMapStringA 0000000180033cac     libucrt:lcmapstringa.obj
 0002:0000ccbc       $unwind$?__acrt_LCMapStringA_stat@@YAHPEAU__crt_locale_pointers@@PEB_WKPEBDHPEADHHH@Z 0000000180033cbc     libucrt:lcmapstringa.obj
 0002:0000cce4       $unwind$_commit            0000000180033ce4     libucrt:commit.obj
 0002:0000ccec       $unwind$??$?RV<lambda_a37b2b86f63e897a80ea819b0eb08c01>@@AEAV<lambda_38ce7e780aa69e748d6df282ebc68efe>@@V<lambda_99fb1378e971ab6e7edea83e3a7a83a2>@@@?$__crt_seh_guarded_call@H@@QEAAH$$QEAV<lambda_a37b2b86f63e897a80ea819b0eb08c01>@@AEAV<lambda_38ce7e780aa69e748d6df282ebc68efe>@@$$QEAV<lambda_99fb1378e971ab6e7edea83e3a7a83a2>@@@Z 0000000180033cec     libucrt:commit.obj
 0002:0000cd10       $unwind$_write_nolock      0000000180033d10     libucrt:write.obj
 0002:0000cd28       $unwind$_write_internal    0000000180033d28     libucrt:write.obj
 0002:0000cd58       $unwind$?write_double_translated_ansi_nolock@@YA?AUwrite_result@?A0x17268360@@HQEBDIAEAV__crt_cached_ptd_host@@@Z 0000000180033d58     libucrt:write.obj
 0002:0000cd80       $ip2state$?write_double_translated_ansi_nolock@@YA?AUwrite_result@?A0x17268360@@HQEBDIAEAV__crt_cached_ptd_host@@@Z 0000000180033d80     libucrt:write.obj
 0002:0000cd88       $unwind$?write_text_ansi_nolock@@YA?AUwrite_result@?A0x17268360@@HQEBDI@Z 0000000180033d88     libucrt:write.obj
 0002:0000cd88       $unwind$?write_text_utf16le_nolock@@YA?AUwrite_result@?A0x17268360@@HQEBDI@Z 0000000180033d88     libucrt:write.obj
 0002:0000cda8       $unwind$?write_text_utf8_nolock@@YA?AUwrite_result@?A0x17268360@@HQEBDI@Z 0000000180033da8     libucrt:write.obj
 0002:0000cdd0       $xdatasym                  0000000180033dd0     libucrt:log10.obj
 0002:0000cddc       $unwind$__acrt_fenv_set_control 0000000180033ddc     libucrt:_fenvutils.obj
 0002:0000cdec       $unwind$?__mbrtoc32_utf8@__crt_mbstring@@YA_KPEA_UPEBD_KPEAU_Mbstatet@@AEAV__crt_cached_ptd_host@@@Z 0000000180033dec     libucrt:mbrtoc32.obj
 0002:0000ce08       $unwind$?_fclose_nolock_internal@@YAHQEAU_iobuf@@AEAV__crt_cached_ptd_host@@@Z 0000000180033e08     libucrt:fclose.obj
 0002:0000ce18       $unwind$?_fclose_internal@@YAHQEAU_iobuf@@AEAV__crt_cached_ptd_host@@@Z 0000000180033e18     libucrt:fclose.obj
 0002:0000ce3c       $unwind$_putwch_nolock     0000000180033e3c     libucrt:putwch.obj
 0002:0000ce44       $unwind$common_control87   0000000180033e44     libucrt:ieee.obj
 0002:0000ce70       $unwind$_call_matherr      0000000180033e70     libucrt:libm_error.obj
 0002:0000ce78       $unwind$_handle_error      0000000180033e78     libucrt:libm_error.obj
 0002:0000ce98       $unwind$__acrt_initialize_fma3 0000000180033e98     libucrt:fma3_available.obj
 0002:0000cea0       $unwind$_log_special_common 0000000180033ea0     libucrt:log_special.obj
 0002:0000ceac       $unwind$_close_internal    0000000180033eac     libucrt:close.obj
 0002:0000ceb4       $unwind$??$?RV<lambda_ad8af0d99a0adf03d037d7dffe354bb5>@@AEAV<lambda_c9ba49e555ba839a7b07aa3fbecb7617>@@V<lambda_2f1ebd5d68526518146ae959c9e734c8>@@@?$__crt_seh_guarded_call@H@@QEAAH$$QEAV<lambda_ad8af0d99a0adf03d037d7dffe354bb5>@@AEAV<lambda_c9ba49e555ba839a7b07aa3fbecb7617>@@$$QEAV<lambda_2f1ebd5d68526518146ae959c9e734c8>@@@Z 0000000180033eb4     libucrt:close.obj
 0002:0000ced8       $xdatasym                  0000000180033ed8     libucrt:fpsr.obj
 0002:0000cee0       $unwind$_raise_exc_ex      0000000180033ee0     libucrt:fpexcept.obj
 0002:0000cef4       $unwind$_ctrlfp            0000000180033ef4     libucrt:fpctrl.obj
 0002:0000cf1c       $unwind$_IsNonwritableInCurrentImage 0000000180033f1c     LIBCMT:pesect.obj
 0002:0000cf40       $unwind$strrchr            0000000180033f40     libvcruntime:strrchr.obj
 0002:0000d0b0       .edata                     00000001800340b0     OPOSCAT.exp
 0002:0000d0d8       rgpv                       00000001800340d8     OPOSCAT.exp
 0002:0000d0e8       rgszName                   00000001800340e8     OPOSCAT.exp
 0002:0000d0f8       rgwOrd                     00000001800340f8     OPOSCAT.exp
 0002:0000d100       szName                     0000000180034100     OPOSCAT.exp
 0002:0000d10c       $N00001                    000000018003410c     OPOSCAT.exp
 0002:0000d11c       $N00002                    000000018003411c     OPOSCAT.exp
 0002:0000d12e       $N00003                    000000018003412e     OPOSCAT.exp
 0002:0000d140       $N00004                    0000000180034140     OPOSCAT.exp
 0002:0000da8a       .idata$6                   0000000180034a8a     kernel32:KERNEL32.dll
 0002:0000dca2       .idata$6                   0000000180034ca2     user32:USER32.dll
 0002:0000ddd6       .idata$6                   0000000180034dd6     gdi32:GDI32.dll
 0002:0000de7c       .idata$6                   0000000180034e7c     advapi32:ADVAPI32.dll
 0002:0000df98       .idata$6                   0000000180034f98     ole32:ole32.dll
 0002:0000dfa2       .idata$6                   0000000180034fa2     oleaut32:OLEAUT32.dll
 0003:000001c0       ?ObjectMap@@3PAU_ATL_OBJMAP_ENTRY30@ATL@@A 00000001800361c0     CAT.obj
 0003:000002b8       ?s_RequiredMethodsPerRelease@@3PAHA 00000001800362b8     CATImpl.obj
 0003:000002d0       ?s_SOMethodNames@@3PAPEADA 00000001800362d0     CATImpl.obj
 0003:00000400       ?__vcrt_flsindex@@3KA      0000000180036400     libvcruntime:per_thread_data.obj
 0003:00000410       ?errno_no_memory@@3HA      0000000180036410     libucrt:errno.obj
 0003:00000414       ?doserrno_no_memory@@3KA   0000000180036414     libucrt:errno.obj
 0003:00000420       ?__acrt_flsindex@@3KA      0000000180036420     libucrt:per_thread_data.obj
 0003:000008e0       _mbctypes                  00000001800368e0     libucrt:mbctype.obj
 0003:000009f0       _mbcasemaps                00000001800369f0     libucrt:mbctype.obj
 0003:00000af0       ?__rgctypeflag@@3PADA      0000000180036af0     libucrt:mbctype.obj
 0003:00000b00       ?__rgcode_page_info@@3PAUcode_page_info@@A 0000000180036b00     libucrt:mbctype.obj
 0003:00000da0       ?dazSupported@?1??common_control87@@9@9 0000000180036da0     libucrt:ieee.obj
 0003:00000db0       ?__dcrt_lowio_console_output_handle@@3PEAXEA 0000000180036db0     libucrt:initcon.obj
 0003:00000dc0       ?dazSupported@?1??_ctrlfp@@9@9 0000000180036dc0     libucrt:fpctrl.obj
 0003:00001010       ?is_initialized_as_dll@@3_NA 0000000180037010     LIBCMT:utility.obj
 0003:00001011       ?module_local_atexit_table_initialized@@3_NA 0000000180037011     LIBCMT:utility.obj
 0003:00001018       ?module_local_atexit_table@@3U_onexit_table_t@@A 0000000180037018     LIBCMT:utility.obj
 0003:00001030       ?module_local_at_quick_exit_table@@3U_onexit_table_t@@A 0000000180037030     LIBCMT:utility.obj
 0003:00001048       ?g_tss_cv@@3U_RTL_CONDITION_VARIABLE@@A 0000000180037048     LIBCMT:thread_safe_statics.obj
 0003:00001050       ?g_tss_event@@3PEAXEA      0000000180037050     LIBCMT:thread_safe_statics.obj
 0003:00001058       ?g_tss_mutex@@3U_RTL_CRITICAL_SECTION@@A 0000000180037058     LIBCMT:thread_safe_statics.obj
 0003:00001080       ?g_sleep_condition_variable_cs@@3P6AHPEAU_RTL_CONDITION_VARIABLE@@PEAU_RTL_CRITICAL_SECTION@@K@ZEA 0000000180037080     LIBCMT:thread_safe_statics.obj
 0003:00001088       ?g_wake_all_condition_variable@@3P6AXPEAU_RTL_CONDITION_VARIABLE@@@ZEA 0000000180037088     LIBCMT:thread_safe_statics.obj
 0003:00001090       GS_ExceptionRecord         0000000180037090     LIBCMT:gs_report.obj
 0003:00001130       GS_ContextRecord           0000000180037130     LIBCMT:gs_report.obj
 0003:00001604       ?__proc_attached@@3HA      0000000180037604     LIBCMT:dll_dllmain.obj
 0003:00001698       ?AllocateData@@3P6APEAUAtlThunkData_t@@XZEA 0000000180037698     atls:atlthunk.obj
 0003:000016a0       ?InitData@@3P6AXPEAUAtlThunkData_t@@PEAX_K@ZEA 00000001800376a0     atls:atlthunk.obj
 0003:000016a8       ?DataToCode@@3P6AP6A_JPEAUHWND__@@I_K_J@ZPEAUAtlThunkData_t@@@ZEA 00000001800376a8     atls:atlthunk.obj
 0003:000016b0       ?FreeData@@3P6AXPEAUAtlThunkData_t@@@ZEA 00000001800376b0     atls:atlthunk.obj
 0003:000016b8       ?Initialized@@3_NA         00000001800376b8     atls:atlthunk.obj
 0003:000016d0       ?__vcrt_startup_thread_ptd@@3U__vcrt_ptd@@A 00000001800376d0     libvcruntime:per_thread_data.obj
 0003:00001750       __vcrt_lock_table          0000000180037750     libvcruntime:locks.obj
 0003:00001778       __vcrt_locks_initialized   0000000180037778     libvcruntime:locks.obj
 0003:000017c0       ?heap@@3V_HeapManager@@A   00000001800377c0     libvcruntime:undname.obj
 0003:000017e8       ?module_handles@@3PAPEAUHINSTANCE__@@A 00000001800377e8     libvcruntime:winapi_downlevel.obj
 0003:00001800       ?function_pointers@@3PAPEAXA 0000000180037800     libvcruntime:winapi_downlevel.obj
 0003:00001828       ?__acrt_invalid_parameter_handler@@3V?$dual_state_global@P6AXPEB_W00I_K@Z@__crt_state_management@@A 0000000180037828     libucrt:invalid_parameter.obj
 0003:00001830       ?c_termination_complete@@3JA 0000000180037830     libucrt:exit.obj
 0003:00001838       ?thread_local_exit_callback_func@@3P6AXPEAXK0@ZEA 0000000180037838     libucrt:exit.obj
 0003:00001850       ?program_name@?1???$common_configure_argv@D@@YAHW4_crt_argv_mode@@@Z@4PADA 0000000180037850     libucrt:argv_parsing.obj
 0003:000019a8       ?__acrt_new_handler@@3V?$dual_state_global@P6AH_K@Z@__crt_state_management@@A 00000001800379a8     libucrt:new_handler.obj
 0003:000019c0       ?module_handles@@3PAPEAUHINSTANCE__@@A 00000001800379c0     libucrt:winapi_thunks.obj
 0003:00001a60       ?encoded_function_pointers@@3PAPEAXA 0000000180037a60     libucrt:winapi_thunks.obj
 0003:00001b50       ?internal_state@?1??_mbtowc_internal@@9@4U_Mbstatet@@A 0000000180037b50     libucrt:mbtowc.obj
 0003:00001b68       ?enable_percent_n@@3_KA    0000000180037b68     libucrt:printf_count_output.obj
 0003:00001f90       ?__acrt_lock_table@@3PAU_RTL_CRITICAL_SECTION@@A 0000000180037f90     libucrt:locks.obj
 0003:000021c0       ?__acrt_locks_initialized@@3IA 00000001800381c0     libucrt:locks.obj
 0003:000021e0       ?fSystemSet@@3HA           00000001800381e0     libucrt:mbctype.obj
 0003:000021e4       ?initialized@?1??__acrt_initialize_multibyte@@9@4_NA 00000001800381e4     libucrt:mbctype.obj
 0003:00002220       ?ctrlc_action@@3V?$dual_state_global@P6AXH@Z@__crt_state_management@@A 0000000180038220     libucrt:signal.obj
 0003:00002228       ?ctrlbreak_action@@3V?$dual_state_global@P6AXH@Z@__crt_state_management@@A 0000000180038228     libucrt:signal.obj
 0003:00002230       ?abort_action@@3V?$dual_state_global@P6AXH@Z@__crt_state_management@@A 0000000180038230     libucrt:signal.obj
 0003:00002238       ?term_action@@3V?$dual_state_global@P6AXH@Z@__crt_state_management@@A 0000000180038238     libucrt:signal.obj
 0003:00002240       ?user_matherr@@3V?$dual_state_global@P6AHPEAU_exception@@@Z@__crt_state_management@@A 0000000180038240     libucrt:matherr.obj
 0003:00002250       ?__acrt_global_new_mode@@3V?$dual_state_global@J@__crt_state_management@@A 0000000180038250     libucrt:new_mode.obj
 0003:00002258       ?internal_pst@?1??__mbrtoc32_utf8@__crt_mbstring@@YA_KPEA_UPEBD_KPEAU_Mbstatet@@AEAV__crt_cached_ptd_host@@@Z@4U3@A 0000000180038258     libucrt:mbrtoc32.obj
 0003:00002260       ?__acrt_app_type@@3W4_crt_app_type@@A 0000000180038260     libucrt:report_runtime_error.obj
 0005:00000000       MoveSmall                  000000018003c000     libvcruntime:memcpy.obj
 0005:00000040       MoveSmallYmm               000000018003c040     libvcruntime:memcpy.obj
 0005:00000064       MoveSmallYmmNT             000000018003c064     libvcruntime:memcpy.obj
 0005:00000088       MoveSmallXmm               000000018003c088     libvcruntime:memcpy.obj
 0005:000000b0       MsetTab                    000000018003c0b0     libvcruntime:memset.obj
 0006:00000220       $R000000                   000000018003d220     CAT.res
 0006:00000b90       $R000970                   000000018003db90     CAT.res
 0006:00000c78       $R000A58                   000000018003dc78     CAT.res
 0006:00000ee0       $R000CC0                   000000018003dee0     CAT.res
 0006:00001410       $R0011F0                   000000018003e410     CAT.res
 0006:00005248       $R005028                   0000000180042248     CAT.res
 0006:00005270       $R005050                   0000000180042270     CAT.res
