 OPOSKeylock

 Timestamp is 5b863dbe (Wed Aug 29 15:31:26 2018)

 Preferred load address is 0000000180000000

 Start         Length     Name                   Class
 0001:00000000 000000c0H .text$di                CODE
 0001:000000c0 0001f0a0H .text$mn                CODE
 0001:0001f160 00000020H .text$mn$00             CODE
 0001:0001f180 00000400H .text$x                 CODE
 0001:0001f580 000000c0H .text$yd                CODE
 0002:00000000 00000618H .idata$5                DATA
 0002:00000618 00000010H .00cfg                  DATA
 0002:00000628 00000008H .CRT$XCA                DATA
 0002:00000630 00000008H .CRT$XCL                DATA
 0002:00000638 00000020H .CRT$XCU                DATA
 0002:00000658 00000008H .CRT$XCZ                DATA
 0002:00000660 00000008H .CRT$XIA                DATA
 0002:00000668 00000020H .CRT$XIC                DATA
 0002:00000688 00000008H .CRT$XIZ                DATA
 0002:00000690 00000008H .CRT$XLA                DATA
 0002:00000698 00000008H .CRT$XLZ                DATA
 0002:000006a0 00000008H .CRT$XPA                DATA
 0002:000006a8 00000010H .CRT$XPX                DATA
 0002:000006b8 00000008H .CRT$XPXA               DATA
 0002:000006c0 00000008H .CRT$XPZ                DATA
 0002:000006c8 00000008H .CRT$XTA                DATA
 0002:000006d0 00000010H .CRT$XTZ                DATA
 0002:000006d8 00000000H .gfids$y                DATA
 0002:000006e0 00009f80H .rdata                  DATA
 0002:0000a660 00000028H .rdata$T                DATA
 0002:0000a688 00000274H .rdata$r                DATA
 0002:0000a8fc 000003f4H .rdata$zzzdbg           DATA
 0002:0000acf0 00000008H .rtc$IAA                DATA
 0002:0000acf8 00000008H .rtc$IZZ                DATA
 0002:0000ad00 00000008H .rtc$TAA                DATA
 0002:0000ad08 00000008H .rtc$TZZ                DATA
 0002:0000ad10 00000004H .tls                    DATA
 0002:0000ad14 00000004H .tls$                   DATA
 0002:0000ad18 00000008H .tls$ZZZ                DATA
 0002:0000ad20 00001690H .xdata                  DATA
 0002:0000c3b0 00000150H .xdata$x                DATA
 0002:0000c500 00000008H ATL$__a                 DATA
 0002:0000c508 00000008H ATL$__z                 DATA
 0002:0000c510 000000a8H .edata                  DATA
 0002:0000c5b8 00000078H .idata$2                DATA
 0002:0000c630 00000018H .idata$3                DATA
 0002:0000c648 00000618H .idata$4                DATA
 0002:0000cc60 00000c1cH .idata$6                DATA
 0003:00000000 00000c68H .data                   DATA
 0003:00000c68 000000c8H .data$r                 DATA
 0003:00000d30 000013fcH .bss                    DATA
 0004:00000000 00001e24H .pdata                  DATA
 0005:00000000 00000220H .rsrc$01                DATA
 0005:00000220 00003860H .rsrc$02                DATA

  Address         Publics by Value              Rva+Base               Lib:Object

 0000:00000000       __hybrid_code_map_count    0000000000000000     <absolute>
 0000:00000000       __hybrid_code_map          0000000000000000     <absolute>
 0000:00000000       __guard_iat_count          0000000000000000     <absolute>
 0000:00000000       __guard_longjmp_count      0000000000000000     <absolute>
 0000:00000000       __guard_longjmp_table      0000000000000000     <absolute>
 0000:00000000       __volatile_metadata        0000000000000000     <absolute>
 0000:00000000       __guard_iat_table          0000000000000000     <absolute>
 0000:00000000       __guard_fids_count         0000000000000000     <absolute>
 0000:00000000       __enclave_config           0000000000000000     <absolute>
 0000:00000000       ___safe_se_handler_count   0000000000000000     <absolute>
 0000:00000000       ___safe_se_handler_table   0000000000000000     <absolute>
 0000:00000000       __guard_fids_table         0000000000000000     <absolute>
 0000:00000000       __hybrid_auxiliary_iat     0000000000000000     <absolute>
 0000:00000000       __dynamic_value_reloc_table 0000000000000000     <absolute>
 0000:00000100       __guard_flags              0000000000000100     <absolute>
 0000:00000000       __ImageBase                0000000180000000     <linker-defined>
 0001:000000c0       ?DupWide@_CW@@AEAAXXZ      00000001800010c0 f   CWString.obj
 0001:000000e8       ?cw_dup@@YAXPEBDAEAHAEAPEA_W1@Z 00000001800010e8 f   CWString.obj
 0001:00000194       ?cw_memcpy@@YAHPEA_WPEBDH@Z 0000000180001194 f   CWString.obj
 0001:000001e0       ?cw_strcpy@@YAHPEA_WPEBD@Z 00000001800011e0 f   CWString.obj
 0001:000001f4       ??0CAtlComModule@ATL@@QEAA@XZ 00000001800011f4 f i OposVariant.obj
 0001:0000027c       ??0CAtlWinModule@ATL@@QEAA@XZ 000000018000127c f i OposVariant.obj
 0001:000002f0       ??0OposDispParms@@QEAA@PEAVOposVariant@@H@Z 00000001800012f0 f   OposVariant.obj
 0001:00000398       ??1OposDispParms@@QEAA@XZ  0000000180001398 f   OposVariant.obj
 0001:000003b0       ??_Estringdispid@CComTypeInfoHolder@ATL@@QEAAPEAXI@Z 00000001800013b0 f i OposVariant.obj
 0001:00000454       ?AtlWinModuleTerm@ATL@@YAJPEAU_ATL_WIN_MODULE70@1@PEAUHINSTANCE__@@@Z 0000000180001454 f i OposVariant.obj
 0001:00000504       ?ChangeBSTR@OposVariant@@QEAAXPEAPEA_WAEAJ@Z 0000000180001504 f   OposVariant.obj
 0001:00000564       ?ChangeLONG@OposVariant@@QEAAXPEAJAEAJ@Z 0000000180001564 f   OposVariant.obj
 0001:000005c0       ?GetLONG@OposVariant@@QEAAJXZ 00000001800015c0 f   OposVariant.obj
 0001:000005e4       ?SetBSTR@OposVariant@@QEAAXPEA_WAEAJ@Z 00000001800015e4 f   OposVariant.obj
 0001:00000624       ?SetBSTR_Copy@OposVariant@@QEAAXPEA_WAEAJ@Z 0000000180001624 f   OposVariant.obj
 0001:00000694       ?SetBSTR_InOutPtr@OposVariant@@QEAA_NPEAPEA_WAEAJ@Z 0000000180001694 f   OposVariant.obj
 0001:000006e4       ?SetDispatch_Ptr@OposVariant@@QEAAXPEAUIDispatch@@AEAJ@Z 00000001800016e4 f   OposVariant.obj
 0001:0000073c       ?SetLONG@OposVariant@@QEAAXJ@Z 000000018000173c f   OposVariant.obj
 0001:0000076c       ?SetLONG_Ptr@OposVariant@@QEAAXPEAJAEAJ@Z 000000018000176c f   OposVariant.obj
 0001:000007b8       ?SetString@OposVariant@@QEAAXPEB_WAEAJ@Z 00000001800017b8 f   OposVariant.obj
 0001:0000081c       ?SetVARIANT_BOOL@OposVariant@@QEAAXF@Z 000000018000181c f   OposVariant.obj
 0001:00000854       ?Term@CAtlComModule@ATL@@QEAAXXZ 0000000180001854 f i OposVariant.obj
 0001:000008c4       ?_AtlInitializeCriticalSectionEx@ATL@@YAHPEAU_RTL_CRITICAL_SECTION@@KK@Z 00000001800018c4 f i OposVariant.obj
 0001:000008cc       ?_AtlRaiseException@ATL@@YAXKK@Z 00000001800018cc f i OposVariant.obj
 0001:000008dc       ?CreateInstance@?$CComCreator@V?$CComObjectCached@VCComClassFactory@ATL@@@ATL@@@ATL@@SAJPEAXAEBU_GUID@@PEAPEAX@Z 00000001800018dc f i Keylock.obj
 0001:000009dc       ?CreateInstance@?$CComCreator2@V?$CComCreator@V?$CComObject@VCOPOSKeylock@@@ATL@@@ATL@@V?$CComCreator@V?$CComAggObject@VCOPOSKeylock@@@ATL@@@2@@ATL@@SAJPEAXAEBU_GUID@@PEAPEAX@Z 00000001800019dc f i Keylock.obj
 0001:000009ec       ?Next@?$CComEnumImpl@UIEnumConnectionPoints@@$1?_GUID_b196b285_bab4_101a_b69c_00aa00341d07@@3U__s_GUID@@BPEAUIConnectionPoint@@V?$_CopyInterface@UIConnectionPoint@@@ATL@@@ATL@@UEAAJKPEAPEAUIConnectionPoint@@PEAK@Z 00000001800019ec f i Keylock.obj
 0001:00000ab8       ?Skip@?$CComEnumImpl@UIEnumConnectionPoints@@$1?_GUID_b196b285_bab4_101a_b69c_00aa00341d07@@3U__s_GUID@@BPEAUIConnectionPoint@@V?$_CopyInterface@UIConnectionPoint@@@ATL@@@ATL@@UEAAJK@Z 0000000180001ab8 f i Keylock.obj
 0001:00000ae4       ?Reset@?$CComEnumImpl@UIEnumConnections@@$1?_GUID_b196b287_bab4_101a_b69c_00aa00341d07@@3U__s_GUID@@BUtagCONNECTDATA@@V?$_Copy@UtagCONNECTDATA@@@ATL@@@ATL@@UEAAJXZ 0000000180001ae4 f i Keylock.obj
 0001:00000ae4       ?Reset@?$CComEnumImpl@UIEnumConnectionPoints@@$1?_GUID_b196b285_bab4_101a_b69c_00aa00341d07@@3U__s_GUID@@BPEAUIConnectionPoint@@V?$_CopyInterface@UIConnectionPoint@@@ATL@@@ATL@@UEAAJXZ 0000000180001ae4 f i Keylock.obj
 0001:00000af0       ?Clone@?$CComEnumImpl@UIEnumConnectionPoints@@$1?_GUID_b196b285_bab4_101a_b69c_00aa00341d07@@3U__s_GUID@@BPEAUIConnectionPoint@@V?$_CopyInterface@UIConnectionPoint@@@ATL@@@ATL@@UEAAJPEAPEAUIEnumConnectionPoints@@@Z 0000000180001af0 f i Keylock.obj
 0001:00000c18       ?GetCanonicalFormatEtc@?$IDataObjectImpl@VCOPOSKeylock@@@ATL@@UEAAJPEAUtagFORMATETC@@0@Z 0000000180001c18 f i Keylock.obj
 0001:00000c18       ?SOErrorDummy@COPOSKeylock@@MEAAJJJJPEAJ@Z 0000000180001c18 f i Keylock.obj
 0001:00000c18       ?GetMoniker@?$IOleObjectImpl@VCOPOSKeylock@@@ATL@@UEAAJKKPEAPEAUIMoniker@@@Z 0000000180001c18 f i Keylock.obj
 0001:00000c18       ?SOOutputCompleteDummy@COPOSKeylock@@MEAAJJ@Z 0000000180001c18 f i Keylock.obj
 0001:00000c18       ?GetColorSet@?$IViewObjectExImpl@VCOPOSKeylock@@@ATL@@UEAAJKJPEAXPEAUtagDVTARGETDEVICE@@PEAUHDC__@@PEAPEAUtagLOGPALETTE@@@Z 0000000180001c18 f i Keylock.obj
 0001:00000c18       ?SODataDummy@COPOSKeylock@@MEAAJJ@Z 0000000180001c18 f i Keylock.obj
 0001:00000c18       ?GetControlInfo@?$IOleControlImpl@VCOPOSKeylock@@@ATL@@UEAAJPEAUtagCONTROLINFO@@@Z 0000000180001c18 f i Keylock.obj
 0001:00000c18       ?OnMnemonic@?$IOleControlImpl@VCOPOSKeylock@@@ATL@@UEAAJPEAUtagMSG@@@Z 0000000180001c18 f i Keylock.obj
 0001:00000c18       ?GetDataHere@?$IDataObjectImpl@VCOPOSKeylock@@@ATL@@UEAAJPEAUtagFORMATETC@@PEAUtagSTGMEDIUM@@@Z 0000000180001c18 f i Keylock.obj
 0001:00000c18       ?SetData@?$IDataObjectImpl@VCOPOSKeylock@@@ATL@@UEAAJPEAUtagFORMATETC@@PEAUtagSTGMEDIUM@@H@Z 0000000180001c18 f i Keylock.obj
 0001:00000c18       ?ContextSensitiveHelp@?$IOleInPlaceObjectWindowlessImpl@VCOPOSKeylock@@@ATL@@UEAAJH@Z 0000000180001c18 f i Keylock.obj
 0001:00000c18       ?ReactivateAndUndo@?$IOleInPlaceObjectWindowlessImpl@VCOPOSKeylock@@@ATL@@UEAAJXZ 0000000180001c18 f i Keylock.obj
 0001:00000c18       ?GetDropTarget@?$IOleInPlaceObjectWindowlessImpl@VCOPOSKeylock@@@ATL@@UEAAJPEAPEAUIDropTarget@@@Z 0000000180001c18 f i Keylock.obj
 0001:00000c18       ?SetMoniker@?$IOleObjectImpl@VCOPOSKeylock@@@ATL@@UEAAJKPEAUIMoniker@@@Z 0000000180001c18 f i Keylock.obj
 0001:00000c18       ?Unfreeze@?$IViewObjectExImpl@VCOPOSKeylock@@@ATL@@UEAAJK@Z 0000000180001c18 f i Keylock.obj
 0001:00000c18       ?ContextSensitiveHelp@?$IOleInPlaceActiveObjectImpl@VCOPOSKeylock@@@ATL@@UEAAJH@Z 0000000180001c18 f i Keylock.obj
 0001:00000c18       ?InitFromData@?$IOleObjectImpl@VCOPOSKeylock@@@ATL@@UEAAJPEAUIDataObject@@HK@Z 0000000180001c18 f i Keylock.obj
 0001:00000c18       ?QueryGetData@?$IDataObjectImpl@VCOPOSKeylock@@@ATL@@UEAAJPEAUtagFORMATETC@@@Z 0000000180001c18 f i Keylock.obj
 0001:00000c18       ?Freeze@?$IViewObjectExImpl@VCOPOSKeylock@@@ATL@@UEAAJKJPEAXPEAK@Z 0000000180001c18 f i Keylock.obj
 0001:00000c18       ?GetRect@?$IViewObjectExImpl@VCOPOSKeylock@@@ATL@@UEAAJKPEAU_RECTL@@@Z 0000000180001c18 f i Keylock.obj
 0001:00000c18       ?EnumFormatEtc@?$IDataObjectImpl@VCOPOSKeylock@@@ATL@@UEAAJKPEAPEAUIEnumFORMATETC@@@Z 0000000180001c18 f i Keylock.obj
 0001:00000c18       ?QueryInterface@CRegObject@ATL@@UEAAJAEBU_GUID@@PEAPEAX@Z 0000000180001c18 f i Keylock.obj
 0001:00000c18       ?SetColorScheme@?$IOleObjectImpl@VCOPOSKeylock@@@ATL@@UEAAJPEAUtagLOGPALETTE@@@Z 0000000180001c18 f i Keylock.obj
 0001:00000c18       ?GetClipboardData@?$IOleObjectImpl@VCOPOSKeylock@@@ATL@@UEAAJKPEAPEAUIDataObject@@@Z 0000000180001c18 f i Keylock.obj
 0001:00000c20       ?AddRef@CRegObject@ATL@@UEAAKXZ 0000000180001c20 f i Keylock.obj
 0001:00000c20       ?FAccessAllowed@?$IObjectSafetyImpl@VCOPOSKeylock@@$02@ATL@@MEAAHXZ 0000000180001c20 f i Keylock.obj
 0001:00000c28       ?Release@CRegObject@ATL@@UEAAKXZ 0000000180001c28 f i Keylock.obj
 0001:00000c28       ?OnAmbientPropertyChange@?$IOleControlImpl@VCOPOSKeylock@@@ATL@@UEAAJJ@Z 0000000180001c28 f i Keylock.obj
 0001:00000c28       ?GetCategoryMap@CComObjectRootBase@ATL@@SAPEBU_ATL_CATMAP_ENTRY@2@XZ 0000000180001c28 f i Keylock.obj
 0001:00000c28       ?SaveCompleted@?$IPersistStorageImpl@VCOPOSKeylock@@@ATL@@UEAAJPEAUIStorage@@@Z 0000000180001c28 f i Keylock.obj
 0001:00000c28       ?OnFrameWindowActivate@?$IOleInPlaceActiveObjectImpl@VCOPOSKeylock@@@ATL@@UEAAJH@Z 0000000180001c28 f i Keylock.obj
 0001:00000c28       ?IsUpToDate@?$IOleObjectImpl@VCOPOSKeylock@@@ATL@@UEAAJXZ 0000000180001c28 f i Keylock.obj
 0001:00000c28       ?ResizeBorder@?$IOleInPlaceActiveObjectImpl@VCOPOSKeylock@@@ATL@@UEAAJPEBUtagRECT@@PEAUIOleInPlaceUIWindow@@H@Z 0000000180001c28 f i Keylock.obj
 0001:00000c28       ?EnableModeless@?$IOleInPlaceActiveObjectImpl@VCOPOSKeylock@@@ATL@@UEAAJH@Z 0000000180001c28 f i Keylock.obj
 0001:00000c28       ?SetHostNames@?$IOleObjectImpl@VCOPOSKeylock@@@ATL@@UEAAJPEB_W0@Z 0000000180001c28 f i Keylock.obj
 0001:00000c28       ?HandsOffStorage@?$IPersistStorageImpl@VCOPOSKeylock@@@ATL@@UEAAJXZ 0000000180001c28 f i Keylock.obj
 0001:00000c28       ?Update@?$IOleObjectImpl@VCOPOSKeylock@@@ATL@@UEAAJXZ 0000000180001c28 f i Keylock.obj
 0001:00000c28       ?GetObjectDescription@?$CComCoClass@VCOPOSKeylock@@$1?CLSID_OPOSKeylock@@3U_GUID@@B@ATL@@SAPEB_WXZ 0000000180001c28 f i Keylock.obj
 0001:00000c2c       ?AddReplacement@CRegObject@ATL@@UEAAJPEB_W0@Z 0000000180001c2c f i Keylock.obj
 0001:00000c5c       ?ClearReplacements@CRegObject@ATL@@UEAAJXZ 0000000180001c5c f i Keylock.obj
 0001:00000c68       ?AddRef@?$CComObject@V?$CComEnum@UIEnumConnections@@$1?_GUID_b196b287_bab4_101a_b69c_00aa00341d07@@3U__s_GUID@@BUtagCONNECTDATA@@V?$_Copy@UtagCONNECTDATA@@@ATL@@VCComSingleThreadModel@6@@ATL@@@ATL@@UEAAKXZ 0000000180001c68 f i Keylock.obj
 0001:00000c68       ?AddRef@?$CComObject@V?$CComEnum@UIEnumConnectionPoints@@$1?_GUID_b196b285_bab4_101a_b69c_00aa00341d07@@3U__s_GUID@@BPEAUIConnectionPoint@@V?$_CopyInterface@UIConnectionPoint@@@ATL@@VCComSingleThreadModel@6@@ATL@@@ATL@@UEAAKXZ 0000000180001c68 f i Keylock.obj
 0001:00000c74       ?Release@?$CComObject@V?$CComEnum@UIEnumConnections@@$1?_GUID_b196b287_bab4_101a_b69c_00aa00341d07@@3U__s_GUID@@BUtagCONNECTDATA@@V?$_Copy@UtagCONNECTDATA@@@ATL@@VCComSingleThreadModel@6@@ATL@@@ATL@@UEAAKXZ 0000000180001c74 f i Keylock.obj
 0001:00000c74       ?Release@?$CComObject@V?$CComEnum@UIEnumConnectionPoints@@$1?_GUID_b196b285_bab4_101a_b69c_00aa00341d07@@3U__s_GUID@@BPEAUIConnectionPoint@@V?$_CopyInterface@UIConnectionPoint@@@ATL@@VCComSingleThreadModel@6@@ATL@@@ATL@@UEAAKXZ 0000000180001c74 f i Keylock.obj
 0001:00000cc8       ?QueryInterface@?$CComObject@V?$CComEnum@UIEnumConnectionPoints@@$1?_GUID_b196b285_bab4_101a_b69c_00aa00341d07@@3U__s_GUID@@BPEAUIConnectionPoint@@V?$_CopyInterface@UIConnectionPoint@@@ATL@@VCComSingleThreadModel@6@@ATL@@@ATL@@UEAAJAEBU_GUID@@PEAPEAX@Z 0000000180001cc8 f i Keylock.obj
 0001:00000cdc       ??_GCRegObject@ATL@@UEAAPEAXI@Z 0000000180001cdc f i Keylock.obj
 0001:00000cdc       ??_ECRegObject@ATL@@UEAAPEAXI@Z 0000000180001cdc f i Keylock.obj
 0001:00000d5c       ??_G?$CComObject@V?$CComEnum@UIEnumConnectionPoints@@$1?_GUID_b196b285_bab4_101a_b69c_00aa00341d07@@3U__s_GUID@@BPEAUIConnectionPoint@@V?$_CopyInterface@UIConnectionPoint@@@ATL@@VCComSingleThreadModel@6@@ATL@@@ATL@@UEAAPEAXI@Z 0000000180001d5c f i Keylock.obj
 0001:00000d5c       ??_E?$CComObject@V?$CComEnum@UIEnumConnectionPoints@@$1?_GUID_b196b285_bab4_101a_b69c_00aa00341d07@@3U__s_GUID@@BPEAUIConnectionPoint@@V?$_CopyInterface@UIConnectionPoint@@@ATL@@VCComSingleThreadModel@6@@ATL@@@ATL@@UEAAPEAXI@Z 0000000180001d5c f i Keylock.obj
 0001:00000db4       ?AddRef@?$CComObjectCached@VCComClassFactory@ATL@@@ATL@@UEAAKXZ 0000000180001db4 f i Keylock.obj
 0001:00000de0       ?Release@?$CComObjectCached@VCComClassFactory@ATL@@@ATL@@UEAAKXZ 0000000180001de0 f i Keylock.obj
 0001:00000e20       ?QueryInterface@?$CComObjectCached@VCComClassFactory@ATL@@@ATL@@UEAAJAEBU_GUID@@PEAPEAX@Z 0000000180001e20 f i Keylock.obj
 0001:00000e34       ??_G?$CComObjectCached@VCComClassFactory@ATL@@@ATL@@UEAAPEAXI@Z 0000000180001e34 f i Keylock.obj
 0001:00000e34       ??_E?$CComObjectCached@VCComClassFactory@ATL@@@ATL@@UEAAPEAXI@Z 0000000180001e34 f i Keylock.obj
 0001:00000e8c       ?AddRef@?$CComAggObject@VCOPOSKeylock@@@ATL@@UEAAKXZ 0000000180001e8c f i Keylock.obj
 0001:00000e98       ?Release@?$CComAggObject@VCOPOSKeylock@@@ATL@@UEAAKXZ 0000000180001e98 f i Keylock.obj
 0001:00000eec       ?QueryInterface@?$CComAggObject@VCOPOSKeylock@@@ATL@@UEAAJAEBU_GUID@@PEAPEAX@Z 0000000180001eec f i Keylock.obj
 0001:00000f4c       ?AddRef@?$CComContainedObject@VCOPOSKeylock@@@ATL@@UEAAKXZ 0000000180001f4c f i Keylock.obj
 0001:00000f5c       ?Release@?$CComContainedObject@VCOPOSKeylock@@@ATL@@UEAAKXZ 0000000180001f5c f i Keylock.obj
 0001:00000f6c       ?QueryInterface@?$CComContainedObject@VCOPOSKeylock@@@ATL@@UEAAJAEBU_GUID@@PEAPEAX@Z 0000000180001f6c f i Keylock.obj
 0001:00000f7c       ??_E?$CComAggObject@VCOPOSKeylock@@@ATL@@UEAAPEAXI@Z 0000000180001f7c f i Keylock.obj
 0001:00000f7c       ??_G?$CComAggObject@VCOPOSKeylock@@@ATL@@UEAAPEAXI@Z 0000000180001f7c f i Keylock.obj
 0001:00000fd4       ?AddRef@?$CComObject@VCOPOSKeylock@@@ATL@@UEAAKXZ 0000000180001fd4 f i Keylock.obj
 0001:00000fe4       ?Release@?$CComObject@VCOPOSKeylock@@@ATL@@UEAAKXZ 0000000180001fe4 f i Keylock.obj
 0001:0000103c       ?QueryInterface@?$CComObject@VCOPOSKeylock@@@ATL@@UEAAJAEBU_GUID@@PEAPEAX@Z 000000018000203c f i Keylock.obj
 0001:00001050       ?OnDrawAdvanced@CComControlBase@ATL@@UEAAJAEAUATL_DRAWINFO@@@Z 0000000180002050 f i Keylock.obj
 0001:00001170       ?OnFinalMessage@?$CWindowImplBaseT@VCWindow@ATL@@V?$CWinTraits@$0FGAAAAAA@$0A@@2@@ATL@@UEAAXPEAUHWND__@@@Z 0000000180002170 f i Keylock.obj
 0001:00001170       ?ObjectMain@CComObjectRootBase@ATL@@SAX_N@Z 0000000180002170 f i Keylock.obj
 0001:00001174       ?Next@?$CComEnumImpl@UIEnumConnections@@$1?_GUID_b196b287_bab4_101a_b69c_00aa00341d07@@3U__s_GUID@@BUtagCONNECTDATA@@V?$_Copy@UtagCONNECTDATA@@@ATL@@@ATL@@UEAAJKPEAUtagCONNECTDATA@@PEAK@Z 0000000180002174 f i Keylock.obj
 0001:00001248       ?Skip@?$CComEnumImpl@UIEnumConnections@@$1?_GUID_b196b287_bab4_101a_b69c_00aa00341d07@@3U__s_GUID@@BUtagCONNECTDATA@@V?$_Copy@UtagCONNECTDATA@@@ATL@@@ATL@@UEAAJK@Z 0000000180002248 f i Keylock.obj
 0001:00001274       ?Clone@?$CComEnumImpl@UIEnumConnections@@$1?_GUID_b196b287_bab4_101a_b69c_00aa00341d07@@3U__s_GUID@@BUtagCONNECTDATA@@V?$_Copy@UtagCONNECTDATA@@@ATL@@@ATL@@UEAAJPEAPEAUIEnumConnections@@@Z 0000000180002274 f i Keylock.obj
 0001:0000139c       ?QueryInterface@?$CComObject@V?$CComEnum@UIEnumConnections@@$1?_GUID_b196b287_bab4_101a_b69c_00aa00341d07@@3U__s_GUID@@BUtagCONNECTDATA@@V?$_Copy@UtagCONNECTDATA@@@ATL@@VCComSingleThreadModel@6@@ATL@@@ATL@@UEAAJAEBU_GUID@@PEAPEAX@Z 000000018000239c f i Keylock.obj
 0001:000013b0       ??_E?$CComObject@V?$CComEnum@UIEnumConnections@@$1?_GUID_b196b287_bab4_101a_b69c_00aa00341d07@@3U__s_GUID@@BUtagCONNECTDATA@@V?$_Copy@UtagCONNECTDATA@@@ATL@@VCComSingleThreadModel@6@@ATL@@@ATL@@UEAAPEAXI@Z 00000001800023b0 f i Keylock.obj
 0001:000013b0       ??_G?$CComObject@V?$CComEnum@UIEnumConnections@@$1?_GUID_b196b287_bab4_101a_b69c_00aa00341d07@@3U__s_GUID@@BUtagCONNECTDATA@@V?$_Copy@UtagCONNECTDATA@@@ATL@@VCComSingleThreadModel@6@@ATL@@@ATL@@UEAAPEAXI@Z 00000001800023b0 f i Keylock.obj
 0001:00001408       ?CreateInstance@CComClassFactory@ATL@@UEAAJPEAUIUnknown@@AEBU_GUID@@PEAPEAX@Z 0000000180002408 f i Keylock.obj
 0001:00001468       ?LockServer@CComClassFactory@ATL@@UEAAJH@Z 0000000180002468 f i Keylock.obj
 0001:0000148c       ??_ECComClassFactory@ATL@@UEAAPEAXI@Z 000000018000248c f i Keylock.obj
 0001:0000148c       ??_GCComClassFactory@ATL@@UEAAPEAXI@Z 000000018000248c f i Keylock.obj
 0001:000014dc       ??_E?$CComObject@VCOPOSKeylock@@@ATL@@W7EAAPEAXI@Z 00000001800024dc f i Keylock.obj
 0001:000014e8       ??_E?$CComObject@VCOPOSKeylock@@@ATL@@WHA@EAAPEAXI@Z 00000001800024e8 f i Keylock.obj
 0001:000014f4       ?QueryInterface@?$CComObject@VCOPOSKeylock@@@ATL@@WLI@EAAJAEBU_GUID@@PEAPEAX@Z 00000001800024f4 f i Keylock.obj
 0001:00001500       ?AddRef@?$CComObject@VCOPOSKeylock@@@ATL@@WLI@EAAKXZ 0000000180002500 f i Keylock.obj
 0001:0000150c       ?Release@?$CComObject@VCOPOSKeylock@@@ATL@@WLI@EAAKXZ 000000018000250c f i Keylock.obj
 0001:00001518       ?QueryInterface@?$CComObject@VCOPOSKeylock@@@ATL@@WMA@EAAJAEBU_GUID@@PEAPEAX@Z 0000000180002518 f i Keylock.obj
 0001:00001524       ?AddRef@?$CComObject@VCOPOSKeylock@@@ATL@@WMA@EAAKXZ 0000000180002524 f i Keylock.obj
 0001:00001530       ?Release@?$CComObject@VCOPOSKeylock@@@ATL@@WMA@EAAKXZ 0000000180002530 f i Keylock.obj
 0001:0000153c       ?QueryInterface@?$CComObject@VCOPOSKeylock@@@ATL@@WMI@EAAJAEBU_GUID@@PEAPEAX@Z 000000018000253c f i Keylock.obj
 0001:00001548       ?AddRef@?$CComObject@VCOPOSKeylock@@@ATL@@WMI@EAAKXZ 0000000180002548 f i Keylock.obj
 0001:00001554       ?Release@?$CComObject@VCOPOSKeylock@@@ATL@@WMI@EAAKXZ 0000000180002554 f i Keylock.obj
 0001:00001560       ?QueryInterface@?$CComObject@VCOPOSKeylock@@@ATL@@WNA@EAAJAEBU_GUID@@PEAPEAX@Z 0000000180002560 f i Keylock.obj
 0001:0000156c       ?AddRef@?$CComObject@VCOPOSKeylock@@@ATL@@WNA@EAAKXZ 000000018000256c f i Keylock.obj
 0001:00001578       ?Release@?$CComObject@VCOPOSKeylock@@@ATL@@WNA@EAAKXZ 0000000180002578 f i Keylock.obj
 0001:00001584       ?QueryInterface@?$CComObject@VCOPOSKeylock@@@ATL@@WNI@EAAJAEBU_GUID@@PEAPEAX@Z 0000000180002584 f i Keylock.obj
 0001:00001590       ?AddRef@?$CComObject@VCOPOSKeylock@@@ATL@@WNI@EAAKXZ 0000000180002590 f i Keylock.obj
 0001:0000159c       ?Release@?$CComObject@VCOPOSKeylock@@@ATL@@WNI@EAAKXZ 000000018000259c f i Keylock.obj
 0001:000015a8       ?QueryInterface@?$CComObject@VCOPOSKeylock@@@ATL@@WOA@EAAJAEBU_GUID@@PEAPEAX@Z 00000001800025a8 f i Keylock.obj
 0001:000015b4       ?AddRef@?$CComObject@VCOPOSKeylock@@@ATL@@WOA@EAAKXZ 00000001800025b4 f i Keylock.obj
 0001:000015c0       ?Release@?$CComObject@VCOPOSKeylock@@@ATL@@WOA@EAAKXZ 00000001800025c0 f i Keylock.obj
 0001:000015cc       ?QueryInterface@?$CComObject@VCOPOSKeylock@@@ATL@@WOI@EAAJAEBU_GUID@@PEAPEAX@Z 00000001800025cc f i Keylock.obj
 0001:000015d8       ?AddRef@?$CComObject@VCOPOSKeylock@@@ATL@@WOI@EAAKXZ 00000001800025d8 f i Keylock.obj
 0001:000015e4       ?Release@?$CComObject@VCOPOSKeylock@@@ATL@@WOI@EAAKXZ 00000001800025e4 f i Keylock.obj
 0001:000015f0       ?QueryInterface@?$CComObject@VCOPOSKeylock@@@ATL@@WPA@EAAJAEBU_GUID@@PEAPEAX@Z 00000001800025f0 f i Keylock.obj
 0001:000015fc       ?AddRef@?$CComObject@VCOPOSKeylock@@@ATL@@WPA@EAAKXZ 00000001800025fc f i Keylock.obj
 0001:00001608       ?Release@?$CComObject@VCOPOSKeylock@@@ATL@@WPA@EAAKXZ 0000000180002608 f i Keylock.obj
 0001:00001614       ?QueryInterface@?$CComObject@VCOPOSKeylock@@@ATL@@WPI@EAAJAEBU_GUID@@PEAPEAX@Z 0000000180002614 f i Keylock.obj
 0001:00001620       ?AddRef@?$CComObject@VCOPOSKeylock@@@ATL@@WPI@EAAKXZ 0000000180002620 f i Keylock.obj
 0001:0000162c       ?Release@?$CComObject@VCOPOSKeylock@@@ATL@@WPI@EAAKXZ 000000018000262c f i Keylock.obj
 0001:00001638       ?QueryInterface@?$CComObject@VCOPOSKeylock@@@ATL@@WBAA@EAAJAEBU_GUID@@PEAPEAX@Z 0000000180002638 f i Keylock.obj
 0001:00001644       ?AddRef@?$CComObject@VCOPOSKeylock@@@ATL@@WBAA@EAAKXZ 0000000180002644 f i Keylock.obj
 0001:00001650       ?Release@?$CComObject@VCOPOSKeylock@@@ATL@@WBAA@EAAKXZ 0000000180002650 f i Keylock.obj
 0001:0000165c       ?QueryInterface@?$CComObject@VCOPOSKeylock@@@ATL@@WBAI@EAAJAEBU_GUID@@PEAPEAX@Z 000000018000265c f i Keylock.obj
 0001:00001668       ?AddRef@?$CComObject@VCOPOSKeylock@@@ATL@@WBAI@EAAKXZ 0000000180002668 f i Keylock.obj
 0001:00001674       ?Release@?$CComObject@VCOPOSKeylock@@@ATL@@WBAI@EAAKXZ 0000000180002674 f i Keylock.obj
 0001:00001680       ?QueryInterface@?$CComObject@VCOPOSKeylock@@@ATL@@WBBA@EAAJAEBU_GUID@@PEAPEAX@Z 0000000180002680 f i Keylock.obj
 0001:0000168c       ?AddRef@?$CComObject@VCOPOSKeylock@@@ATL@@WBBA@EAAKXZ 000000018000268c f i Keylock.obj
 0001:00001698       ?Release@?$CComObject@VCOPOSKeylock@@@ATL@@WBBA@EAAKXZ 0000000180002698 f i Keylock.obj
 0001:000016a4       ?QueryInterface@?$CComObject@VCOPOSKeylock@@@ATL@@WBBI@EAAJAEBU_GUID@@PEAPEAX@Z 00000001800026a4 f i Keylock.obj
 0001:000016b0       ?AddRef@?$CComObject@VCOPOSKeylock@@@ATL@@WBBI@EAAKXZ 00000001800026b0 f i Keylock.obj
 0001:000016bc       ?Release@?$CComObject@VCOPOSKeylock@@@ATL@@WBBI@EAAKXZ 00000001800026bc f i Keylock.obj
 0001:000016c8       ?AddRef@?$CComObject@VCOPOSKeylock@@@ATL@@WBCI@EAAKXZ 00000001800026c8 f i Keylock.obj
 0001:000016d4       ?Release@?$CComObject@VCOPOSKeylock@@@ATL@@WBCI@EAAKXZ 00000001800026d4 f i Keylock.obj
 0001:000016e0       ?AddRef@?$CComObject@VCOPOSKeylock@@@ATL@@WBEA@EAAKXZ 00000001800026e0 f i Keylock.obj
 0001:000016ec       ?Release@?$CComObject@VCOPOSKeylock@@@ATL@@WBEA@EAAKXZ 00000001800026ec f i Keylock.obj
 0001:000016f8       ??_E?$CComContainedObject@VCOPOSKeylock@@@ATL@@W7EAAPEAXI@Z 00000001800026f8 f i Keylock.obj
 0001:00001704       ??_E?$CComContainedObject@VCOPOSKeylock@@@ATL@@WHA@EAAPEAXI@Z 0000000180002704 f i Keylock.obj
 0001:00001710       ?QueryInterface@?$CComContainedObject@VCOPOSKeylock@@@ATL@@WLI@EAAJAEBU_GUID@@PEAPEAX@Z 0000000180002710 f i Keylock.obj
 0001:0000171c       ?AddRef@?$CComContainedObject@VCOPOSKeylock@@@ATL@@WLI@EAAKXZ 000000018000271c f i Keylock.obj
 0001:00001728       ?Release@?$CComContainedObject@VCOPOSKeylock@@@ATL@@WLI@EAAKXZ 0000000180002728 f i Keylock.obj
 0001:00001734       ?QueryInterface@?$CComContainedObject@VCOPOSKeylock@@@ATL@@WMA@EAAJAEBU_GUID@@PEAPEAX@Z 0000000180002734 f i Keylock.obj
 0001:00001740       ?AddRef@?$CComContainedObject@VCOPOSKeylock@@@ATL@@WMA@EAAKXZ 0000000180002740 f i Keylock.obj
 0001:0000174c       ?Release@?$CComContainedObject@VCOPOSKeylock@@@ATL@@WMA@EAAKXZ 000000018000274c f i Keylock.obj
 0001:00001758       ?QueryInterface@?$CComContainedObject@VCOPOSKeylock@@@ATL@@WMI@EAAJAEBU_GUID@@PEAPEAX@Z 0000000180002758 f i Keylock.obj
 0001:00001764       ?AddRef@?$CComContainedObject@VCOPOSKeylock@@@ATL@@WMI@EAAKXZ 0000000180002764 f i Keylock.obj
 0001:00001770       ?Release@?$CComContainedObject@VCOPOSKeylock@@@ATL@@WMI@EAAKXZ 0000000180002770 f i Keylock.obj
 0001:0000177c       ?QueryInterface@?$CComContainedObject@VCOPOSKeylock@@@ATL@@WNA@EAAJAEBU_GUID@@PEAPEAX@Z 000000018000277c f i Keylock.obj
 0001:00001788       ?AddRef@?$CComContainedObject@VCOPOSKeylock@@@ATL@@WNA@EAAKXZ 0000000180002788 f i Keylock.obj
 0001:00001794       ?Release@?$CComContainedObject@VCOPOSKeylock@@@ATL@@WNA@EAAKXZ 0000000180002794 f i Keylock.obj
 0001:000017a0       ?QueryInterface@?$CComContainedObject@VCOPOSKeylock@@@ATL@@WNI@EAAJAEBU_GUID@@PEAPEAX@Z 00000001800027a0 f i Keylock.obj
 0001:000017ac       ?AddRef@?$CComContainedObject@VCOPOSKeylock@@@ATL@@WNI@EAAKXZ 00000001800027ac f i Keylock.obj
 0001:000017b8       ?Release@?$CComContainedObject@VCOPOSKeylock@@@ATL@@WNI@EAAKXZ 00000001800027b8 f i Keylock.obj
 0001:000017c4       ?QueryInterface@?$CComContainedObject@VCOPOSKeylock@@@ATL@@WOA@EAAJAEBU_GUID@@PEAPEAX@Z 00000001800027c4 f i Keylock.obj
 0001:000017d0       ?AddRef@?$CComContainedObject@VCOPOSKeylock@@@ATL@@WOA@EAAKXZ 00000001800027d0 f i Keylock.obj
 0001:000017dc       ?Release@?$CComContainedObject@VCOPOSKeylock@@@ATL@@WOA@EAAKXZ 00000001800027dc f i Keylock.obj
 0001:000017e8       ?QueryInterface@?$CComContainedObject@VCOPOSKeylock@@@ATL@@WOI@EAAJAEBU_GUID@@PEAPEAX@Z 00000001800027e8 f i Keylock.obj
 0001:000017f4       ?AddRef@?$CComContainedObject@VCOPOSKeylock@@@ATL@@WOI@EAAKXZ 00000001800027f4 f i Keylock.obj
 0001:00001800       ?Release@?$CComContainedObject@VCOPOSKeylock@@@ATL@@WOI@EAAKXZ 0000000180002800 f i Keylock.obj
 0001:0000180c       ?QueryInterface@?$CComContainedObject@VCOPOSKeylock@@@ATL@@WPA@EAAJAEBU_GUID@@PEAPEAX@Z 000000018000280c f i Keylock.obj
 0001:00001818       ?AddRef@?$CComContainedObject@VCOPOSKeylock@@@ATL@@WPA@EAAKXZ 0000000180002818 f i Keylock.obj
 0001:00001824       ?Release@?$CComContainedObject@VCOPOSKeylock@@@ATL@@WPA@EAAKXZ 0000000180002824 f i Keylock.obj
 0001:00001830       ?QueryInterface@?$CComContainedObject@VCOPOSKeylock@@@ATL@@WPI@EAAJAEBU_GUID@@PEAPEAX@Z 0000000180002830 f i Keylock.obj
 0001:0000183c       ?AddRef@?$CComContainedObject@VCOPOSKeylock@@@ATL@@WPI@EAAKXZ 000000018000283c f i Keylock.obj
 0001:00001848       ?Release@?$CComContainedObject@VCOPOSKeylock@@@ATL@@WPI@EAAKXZ 0000000180002848 f i Keylock.obj
 0001:00001854       ?QueryInterface@?$CComContainedObject@VCOPOSKeylock@@@ATL@@WBAA@EAAJAEBU_GUID@@PEAPEAX@Z 0000000180002854 f i Keylock.obj
 0001:00001860       ?AddRef@?$CComContainedObject@VCOPOSKeylock@@@ATL@@WBAA@EAAKXZ 0000000180002860 f i Keylock.obj
 0001:0000186c       ?Release@?$CComContainedObject@VCOPOSKeylock@@@ATL@@WBAA@EAAKXZ 000000018000286c f i Keylock.obj
 0001:00001878       ?QueryInterface@?$CComContainedObject@VCOPOSKeylock@@@ATL@@WBAI@EAAJAEBU_GUID@@PEAPEAX@Z 0000000180002878 f i Keylock.obj
 0001:00001884       ?AddRef@?$CComContainedObject@VCOPOSKeylock@@@ATL@@WBAI@EAAKXZ 0000000180002884 f i Keylock.obj
 0001:00001890       ?Release@?$CComContainedObject@VCOPOSKeylock@@@ATL@@WBAI@EAAKXZ 0000000180002890 f i Keylock.obj
 0001:0000189c       ?QueryInterface@?$CComContainedObject@VCOPOSKeylock@@@ATL@@WBBA@EAAJAEBU_GUID@@PEAPEAX@Z 000000018000289c f i Keylock.obj
 0001:000018a8       ?AddRef@?$CComContainedObject@VCOPOSKeylock@@@ATL@@WBBA@EAAKXZ 00000001800028a8 f i Keylock.obj
 0001:000018b4       ?Release@?$CComContainedObject@VCOPOSKeylock@@@ATL@@WBBA@EAAKXZ 00000001800028b4 f i Keylock.obj
 0001:000018c0       ?QueryInterface@?$CComContainedObject@VCOPOSKeylock@@@ATL@@WBBI@EAAJAEBU_GUID@@PEAPEAX@Z 00000001800028c0 f i Keylock.obj
 0001:000018cc       ?AddRef@?$CComContainedObject@VCOPOSKeylock@@@ATL@@WBBI@EAAKXZ 00000001800028cc f i Keylock.obj
 0001:000018d8       ?Release@?$CComContainedObject@VCOPOSKeylock@@@ATL@@WBBI@EAAKXZ 00000001800028d8 f i Keylock.obj
 0001:000018e4       ?AddRef@?$CComContainedObject@VCOPOSKeylock@@@ATL@@WBCI@EAAKXZ 00000001800028e4 f i Keylock.obj
 0001:000018f0       ?Release@?$CComContainedObject@VCOPOSKeylock@@@ATL@@WBCI@EAAKXZ 00000001800028f0 f i Keylock.obj
 0001:000018fc       ?AddRef@?$CComContainedObject@VCOPOSKeylock@@@ATL@@WBEA@EAAKXZ 00000001800028fc f i Keylock.obj
 0001:00001908       ?Release@?$CComContainedObject@VCOPOSKeylock@@@ATL@@WBEA@EAAKXZ 0000000180002908 f i Keylock.obj
 0001:00001914       ?GetWindowProc@?$CWindowImplBaseT@VCWindow@ATL@@V?$CWinTraits@$0FGAAAAAA@$0A@@2@@ATL@@UEAAP6A_JPEAUHWND__@@I_K_J@ZXZ 0000000180002914 f i Keylock.obj
 0001:0000191c       ?StartWindowProc@?$CWindowImplBaseT@VCWindow@ATL@@V?$CWinTraits@$0FGAAAAAA@$0A@@2@@ATL@@SA_JPEAUHWND__@@I_K_J@Z 000000018000291c f i Keylock.obj
 0001:000019e0       ?GetTypeInfoCount@?$IDispatchImpl@UIOPOSKeylock@@$1?IID_IOPOSKeylock@@3U_GUID@@B$1?LIBID_OposKeylock_CCO@@3U3@B$00$0A@VCComTypeInfoHolder@ATL@@@ATL@@UEAAJPEAI@Z 00000001800029e0 f i Keylock.obj
 0001:000019f4       ?GetTypeInfo@?$IDispatchImpl@UIOPOSKeylock@@$1?IID_IOPOSKeylock@@3U_GUID@@B$1?LIBID_OposKeylock_CCO@@3U3@B$00$0A@VCComTypeInfoHolder@ATL@@@ATL@@UEAAJIKPEAPEAUITypeInfo@@@Z 00000001800029f4 f i Keylock.obj
 0001:00001a58       ?GetIDsOfNames@?$IDispatchImpl@UIOPOSKeylock@@$1?IID_IOPOSKeylock@@3U_GUID@@B$1?LIBID_OposKeylock_CCO@@3U3@B$00$0A@VCComTypeInfoHolder@ATL@@@ATL@@UEAAJAEBU_GUID@@PEAPEA_WIKPEAJ@Z 0000000180002a58 f i Keylock.obj
 0001:00001a64       ?Lock@CAtlModule@ATL@@UEAAJXZ 0000000180002a64 f i Keylock.obj
 0001:00001a74       ?Unlock@CAtlModule@ATL@@UEAAJXZ 0000000180002a74 f i Keylock.obj
 0001:00001a80       ?GetLockCount@CAtlModule@ATL@@UEAAJXZ 0000000180002a80 f i Keylock.obj
 0001:00001a84       ?Invoke@?$IDispatchImpl@UIOPOSKeylock@@$1?IID_IOPOSKeylock@@3U_GUID@@B$1?LIBID_OposKeylock_CCO@@3U3@B$00$0A@VCComTypeInfoHolder@ATL@@@ATL@@UEAAJJAEBU_GUID@@KGPEAUtagDISPPARAMS@@PEAUtagVARIANT@@PEAUtagEXCEPINFO@@PEAI@Z 0000000180002a84 f i Keylock.obj
 0001:00001b14       ?GetGITPtr@CAtlModule@ATL@@UEAAJPEAPEAUIGlobalInterfaceTable@@@Z 0000000180002b14 f i Keylock.obj
 0001:00001b84       ?CreateControlWindow@?$CComControl@VCOPOSKeylock@@V?$CWindowImpl@VCOPOSKeylock@@VCWindow@ATL@@V?$CWinTraits@$0FGAAAAAA@$0A@@3@@ATL@@@ATL@@UEAAPEAUHWND__@@PEAU3@AEAUtagRECT@@@Z 0000000180002b84 f i Keylock.obj
 0001:00001bbc       ?ControlQueryInterface@?$CComControl@VCOPOSKeylock@@V?$CWindowImpl@VCOPOSKeylock@@VCWindow@ATL@@V?$CWinTraits@$0FGAAAAAA@$0A@@3@@ATL@@@ATL@@UEAAJAEBU_GUID@@PEAPEAX@Z 0000000180002bbc f i Keylock.obj
 0001:00001bd0       ?GetClassID@?$IPersistStreamInitImpl@VCOPOSKeylock@@@ATL@@UEAAJPEAU_GUID@@@Z 0000000180002bd0 f i Keylock.obj
 0001:00001bd0       ?GetClassID@?$IPersistStorageImpl@VCOPOSKeylock@@@ATL@@UEAAJPEAU_GUID@@@Z 0000000180002bd0 f i Keylock.obj
 0001:00001bd0       ?GetUserClassID@?$IOleObjectImpl@VCOPOSKeylock@@@ATL@@UEAAJPEAU_GUID@@@Z 0000000180002bd0 f i Keylock.obj
 0001:00001bec       ?IsDirty@?$IPersistStreamInitImpl@VCOPOSKeylock@@@ATL@@UEAAJXZ 0000000180002bec f i Keylock.obj
 0001:00001c08       ?Load@?$IPersistStreamInitImpl@VCOPOSKeylock@@@ATL@@UEAAJPEAUIStream@@@Z 0000000180002c08 f i Keylock.obj
 0001:00001c58       ?Save@?$IPersistStreamInitImpl@VCOPOSKeylock@@@ATL@@UEAAJPEAUIStream@@H@Z 0000000180002c58 f i Keylock.obj
 0001:00001cbc       ?GetSizeMax@?$IPersistStreamInitImpl@VCOPOSKeylock@@@ATL@@UEAAJPEAT_ULARGE_INTEGER@@@Z 0000000180002cbc f i Keylock.obj
 0001:00001ee8       ?InitNew@?$IPersistStreamInitImpl@VCOPOSKeylock@@@ATL@@UEAAJXZ 0000000180002ee8 f i Keylock.obj
 0001:00001f00       ?SetClientSite@?$IOleObjectImpl@VCOPOSKeylock@@@ATL@@UEAAJPEAUIOleClientSite@@@Z 0000000180002f00 f i Keylock.obj
 0001:00001f1c       ?GetClientSite@?$IOleObjectImpl@VCOPOSKeylock@@@ATL@@UEAAJPEAPEAUIOleClientSite@@@Z 0000000180002f1c f i Keylock.obj
 0001:00001f64       ?Close@?$IOleObjectImpl@VCOPOSKeylock@@@ATL@@UEAAJK@Z 0000000180002f64 f i Keylock.obj
 0001:00001f80       ?DoVerb@?$IOleObjectImpl@VCOPOSKeylock@@@ATL@@UEAAJJPEAUtagMSG@@PEAUIOleClientSite@@JPEAUHWND__@@PEBUtagRECT@@@Z 0000000180002f80 f i Keylock.obj
 0001:00002124       ?EnumVerbs@?$IOleObjectImpl@VCOPOSKeylock@@@ATL@@UEAAJPEAPEAUIEnumOLEVERB@@@Z 0000000180003124 f i Keylock.obj
 0001:00002140       ?GetUserType@?$IOleObjectImpl@VCOPOSKeylock@@@ATL@@UEAAJKPEAPEA_W@Z 0000000180003140 f i Keylock.obj
 0001:00002150       ?SetExtent@?$IOleObjectImpl@VCOPOSKeylock@@@ATL@@UEAAJKPEAUtagSIZE@@@Z 0000000180003150 f i Keylock.obj
 0001:0000216c       ?GetExtent@?$IOleObjectImpl@VCOPOSKeylock@@@ATL@@UEAAJKPEAUtagSIZE@@@Z 000000018000316c f i Keylock.obj
 0001:0000219c       ?Advise@?$IOleObjectImpl@VCOPOSKeylock@@@ATL@@UEAAJPEAUIAdviseSink@@PEAK@Z 000000018000319c f i Keylock.obj
 0001:000021f8       ?Unadvise@?$IOleObjectImpl@VCOPOSKeylock@@@ATL@@UEAAJK@Z 00000001800031f8 f i Keylock.obj
 0001:00002230       ?EnumAdvise@?$IOleObjectImpl@VCOPOSKeylock@@@ATL@@UEAAJPEAPEAUIEnumSTATDATA@@@Z 0000000180003230 f i Keylock.obj
 0001:00002278       ?GetMiscStatus@?$IOleObjectImpl@VCOPOSKeylock@@@ATL@@UEAAJKPEAK@Z 0000000180003278 f i Keylock.obj
 0001:00002288       ?GetWindow@?$IOleInPlaceActiveObjectImpl@VCOPOSKeylock@@@ATL@@UEAAJPEAPEAUHWND__@@@Z 0000000180003288 f i Keylock.obj
 0001:000022dc       ?TranslateAcceleratorW@?$IOleInPlaceActiveObjectImpl@VCOPOSKeylock@@@ATL@@UEAAJPEAUtagMSG@@@Z 00000001800032dc f i Keylock.obj
 0001:000023d0       ?OnDocWindowActivate@?$IOleInPlaceActiveObjectImpl@VCOPOSKeylock@@@ATL@@UEAAJH@Z 00000001800033d0 f i Keylock.obj
 0001:000023fc       ?AddCommonRGSReplacements@?$CAtlModuleT@VCComModule@ATL@@@ATL@@UEAAJPEAUIRegistrarBase@@@Z 00000001800033fc f i Keylock.obj
 0001:00002414       ?Draw@?$IViewObjectExImpl@VCOPOSKeylock@@@ATL@@UEAAJKJPEAXPEAUtagDVTARGETDEVICE@@PEAUHDC__@@2PEBU_RECTL@@3P6AH_K@Z4@Z 0000000180003414 f i Keylock.obj
 0001:00002478       ?SetAdvise@?$IViewObjectExImpl@VCOPOSKeylock@@@ATL@@UEAAJKKPEAUIAdviseSink@@@Z 0000000180003478 f i Keylock.obj
 0001:000024cc       ?GetAdvise@?$IViewObjectExImpl@VCOPOSKeylock@@@ATL@@UEAAJPEAK0PEAPEAUIAdviseSink@@@Z 00000001800034cc f i Keylock.obj
 0001:00002508       ?GetExtent@?$IViewObjectExImpl@VCOPOSKeylock@@@ATL@@UEAAJKJPEAUtagDVTARGETDEVICE@@PEAUtagSIZE@@@Z 0000000180003508 f i Keylock.obj
 0001:00002538       ?GetViewStatus@?$IViewObjectExImpl@VCOPOSKeylock@@@ATL@@UEAAJPEAK@Z 0000000180003538 f i Keylock.obj
 0001:0000254c       ?QueryHitPoint@?$IViewObjectExImpl@VCOPOSKeylock@@@ATL@@UEAAJKPEBUtagRECT@@UtagPOINT@@JPEAK@Z 000000018000354c f i Keylock.obj
 0001:00002590       ?QueryHitRect@?$IViewObjectExImpl@VCOPOSKeylock@@@ATL@@UEAAJKPEBUtagRECT@@0JPEAK@Z 0000000180003590 f i Keylock.obj
 0001:000025f8       ?GetNaturalExtent@?$IViewObjectExImpl@VCOPOSKeylock@@@ATL@@UEAAJKJPEAUtagDVTARGETDEVICE@@PEAUHDC__@@PEAUtagExtentInfo@@PEAUtagSIZE@@@Z 00000001800035f8 f i Keylock.obj
 0001:00002640       ?UpdateRegistryFromResourceD@CComModule@ATL@@UEAAJIHPEAU_ATL_REGMAP_ENTRY@2@@Z 0000000180003640 f i Keylock.obj
 0001:00002640       ?UpdateRegistryFromResourceD@CComModule@ATL@@UEAAJPEB_WHPEAU_ATL_REGMAP_ENTRY@2@@Z 0000000180003640 f i Keylock.obj
 0001:00002648       ?GetWindow@?$IOleInPlaceObjectWindowlessImpl@VCOPOSKeylock@@@ATL@@UEAAJPEAPEAUHWND__@@@Z 0000000180003648 f i Keylock.obj
 0001:0000269c       ?InPlaceDeactivate@?$IOleInPlaceObjectWindowlessImpl@VCOPOSKeylock@@@ATL@@UEAAJXZ 000000018000369c f i Keylock.obj
 0001:000026b8       ?UpdateRegistryFromResource@CComModule@ATL@@UEAAJPEB_WHPEAU_ATL_REGMAP_ENTRY@2@@Z 00000001800036b8 f i Keylock.obj
 0001:000026c0       ?UIDeactivate@?$IOleInPlaceObjectWindowlessImpl@VCOPOSKeylock@@@ATL@@UEAAJXZ 00000001800036c0 f i Keylock.obj
 0001:000026dc       ?SetObjectRects@?$IOleInPlaceObjectWindowlessImpl@VCOPOSKeylock@@@ATL@@UEAAJPEBUtagRECT@@0@Z 00000001800036dc f i Keylock.obj
 0001:000026f8       ?UpdateRegistryFromResource@CComModule@ATL@@UEAAJIHPEAU_ATL_REGMAP_ENTRY@2@@Z 00000001800036f8 f i Keylock.obj
 0001:00002700       ?OnWindowMessage@?$IOleInPlaceObjectWindowlessImpl@VCOPOSKeylock@@@ATL@@UEAAJI_K_JPEA_J@Z 0000000180003700 f i Keylock.obj
 0001:000027c8       ?EnumConnectionPoints@?$IConnectionPointContainerImpl@VCOPOSKeylock@@@ATL@@UEAAJPEAPEAUIEnumConnectionPoints@@@Z 00000001800037c8 f i Keylock.obj
 0001:00002a10       ?FindConnectionPoint@?$IConnectionPointContainerImpl@VCOPOSKeylock@@@ATL@@UEAAJAEBU_GUID@@PEAPEAUIConnectionPoint@@@Z 0000000180003a10 f i Keylock.obj
 0001:00002ae0       ?IsDirty@?$IPersistStorageImpl@VCOPOSKeylock@@@ATL@@UEAAJXZ 0000000180003ae0 f i Keylock.obj
 0001:00002b24       ?InitNew@?$IPersistStorageImpl@VCOPOSKeylock@@@ATL@@UEAAJPEAUIStorage@@@Z 0000000180003b24 f i Keylock.obj
 0001:00002b68       ?Load@?$IPersistStorageImpl@VCOPOSKeylock@@@ATL@@UEAAJPEAUIStorage@@@Z 0000000180003b68 f i Keylock.obj
 0001:00002c08       ?Save@?$IPersistStorageImpl@VCOPOSKeylock@@@ATL@@UEAAJPEAUIStorage@@H@Z 0000000180003c08 f i Keylock.obj
 0001:00002cb8       ??_GCComModule@ATL@@UEAAPEAXI@Z 0000000180003cb8 f i Keylock.obj
 0001:00002cb8       ??_ECComModule@ATL@@UEAAPEAXI@Z 0000000180003cb8 f i Keylock.obj
 0001:00002d38       ?GetPages@?$ISpecifyPropertyPagesImpl@VCOPOSKeylock@@@ATL@@UEAAJPEAUtagCAUUID@@@Z 0000000180003d38 f i Keylock.obj
 0001:00002d44       ?QuickActivate@?$IQuickActivateImpl@VCOPOSKeylock@@@ATL@@UEAAJPEAUtagQACONTAINER@@PEAUtagQACONTROL@@@Z 0000000180003d44 f i Keylock.obj
 0001:00002d60       ?SetContentExtent@?$IQuickActivateImpl@VCOPOSKeylock@@@ATL@@UEAAJPEAUtagSIZE@@@Z 0000000180003d60 f i Keylock.obj
 0001:00002d94       ?GetContentExtent@?$IQuickActivateImpl@VCOPOSKeylock@@@ATL@@UEAAJPEAUtagSIZE@@@Z 0000000180003d94 f i Keylock.obj
 0001:00002dcc       ?GetData@?$IDataObjectImpl@VCOPOSKeylock@@@ATL@@UEAAJPEAUtagFORMATETC@@PEAUtagSTGMEDIUM@@@Z 0000000180003dcc f i Keylock.obj
 0001:00002de8       ?DAdvise@?$IDataObjectImpl@VCOPOSKeylock@@@ATL@@UEAAJPEAUtagFORMATETC@@KPEAUIAdviseSink@@PEAK@Z 0000000180003de8 f i Keylock.obj
 0001:00002e70       ?DUnadvise@?$IDataObjectImpl@VCOPOSKeylock@@@ATL@@UEAAJK@Z 0000000180003e70 f i Keylock.obj
 0001:00002e9c       ?EnumDAdvise@?$IDataObjectImpl@VCOPOSKeylock@@@ATL@@UEAAJPEAPEAUIEnumSTATDATA@@@Z 0000000180003e9c f i Keylock.obj
 0001:00002ed8       ?GetClassInfoW@?$IProvideClassInfo2Impl@$1?CLSID_OPOSKeylock@@3U_GUID@@B$1?DIID__IOPOSKeylockEvents@@3U2@B$1?LIBID_OposKeylock_CCO@@3U2@B$00$0A@VCComTypeInfoHolder@ATL@@@ATL@@UEAAJPEAPEAUITypeInfo@@@Z 0000000180003ed8 f i Keylock.obj
 0001:00002f30       ?GetGUID@?$IProvideClassInfo2Impl@$1?CLSID_OPOSKeylock@@3U_GUID@@B$1?DIID__IOPOSKeylockEvents@@3U2@B$1?LIBID_OposKeylock_CCO@@3U2@B$00$0A@VCComTypeInfoHolder@ATL@@@ATL@@UEAAJKPEAU_GUID@@@Z 0000000180003f30 f i Keylock.obj
 0001:00002f64       ?GetInterfaceSafetyOptions@?$IObjectSafetyImpl@VCOPOSKeylock@@$02@ATL@@UEAAJAEBU_GUID@@PEAK1@Z 0000000180003f64 f i Keylock.obj
 0001:00002ff8       ?SetInterfaceSafetyOptions@?$IObjectSafetyImpl@VCOPOSKeylock@@$02@ATL@@UEAAJAEBU_GUID@@KK@Z 0000000180003ff8 f i Keylock.obj
 0001:0000309c       ?_LocCPQueryInterface@?$IConnectionPointImpl@VCOPOSKeylock@@$1?DIID__IOPOSKeylockEvents@@3U_GUID@@BVCComDynamicUnkArray@ATL@@@ATL@@UEAAJAEBU_GUID@@PEAPEAX@Z 000000018000409c f i Keylock.obj
 0001:0000309c       ?_LocCPQueryInterface@?$IConnectionPointImpl@VCOPOSKeylock@@$1?IID_IPropertyNotifySink@@3U_GUID@@BVCComDynamicUnkArray@ATL@@@ATL@@UEAAJAEBU_GUID@@PEAPEAX@Z 000000018000409c f i Keylock.obj
 0001:00003110       ?GetConnectionInterface@?$IConnectionPointImpl@VCOPOSKeylock@@$1?IID_IPropertyNotifySink@@3U_GUID@@BVCComDynamicUnkArray@ATL@@@ATL@@UEAAJPEAU_GUID@@@Z 0000000180004110 f i Keylock.obj
 0001:0000312c       ?GetConnectionPointContainer@?$IConnectionPointImpl@VCOPOSKeylock@@$1?IID_IPropertyNotifySink@@3U_GUID@@BVCComDynamicUnkArray@ATL@@@ATL@@UEAAJPEAPEAUIConnectionPointContainer@@@Z 000000018000412c f i Keylock.obj
 0001:0000314c       ?Advise@?$IConnectionPointImpl@VCOPOSKeylock@@$1?DIID__IOPOSKeylockEvents@@3U_GUID@@BVCComDynamicUnkArray@ATL@@@ATL@@UEAAJPEAUIUnknown@@PEAK@Z 000000018000414c f i Keylock.obj
 0001:0000314c       ?Advise@?$IConnectionPointImpl@VCOPOSKeylock@@$1?IID_IPropertyNotifySink@@3U_GUID@@BVCComDynamicUnkArray@ATL@@@ATL@@UEAAJPEAUIUnknown@@PEAK@Z 000000018000414c f i Keylock.obj
 0001:0000320c       ?Unadvise@?$IConnectionPointImpl@VCOPOSKeylock@@$1?IID_IPropertyNotifySink@@3U_GUID@@BVCComDynamicUnkArray@ATL@@@ATL@@UEAAJK@Z 000000018000420c f i Keylock.obj
 0001:0000320c       ?Unadvise@?$IConnectionPointImpl@VCOPOSKeylock@@$1?DIID__IOPOSKeylockEvents@@3U_GUID@@BVCComDynamicUnkArray@ATL@@@ATL@@UEAAJK@Z 000000018000420c f i Keylock.obj
 0001:00003288       ?EnumConnections@?$IConnectionPointImpl@VCOPOSKeylock@@$1?DIID__IOPOSKeylockEvents@@3U_GUID@@BVCComDynamicUnkArray@ATL@@@ATL@@UEAAJPEAPEAUIEnumConnections@@@Z 0000000180004288 f i Keylock.obj
 0001:00003288       ?EnumConnections@?$IConnectionPointImpl@VCOPOSKeylock@@$1?IID_IPropertyNotifySink@@3U_GUID@@BVCComDynamicUnkArray@ATL@@@ATL@@UEAAJPEAPEAUIEnumConnections@@@Z 0000000180004288 f i Keylock.obj
 0001:00003430       ?GetConnectionInterface@?$IConnectionPointImpl@VCOPOSKeylock@@$1?DIID__IOPOSKeylockEvents@@3U_GUID@@BVCComDynamicUnkArray@ATL@@@ATL@@UEAAJPEAU_GUID@@@Z 0000000180004430 f i Keylock.obj
 0001:0000344c       ?GetConnectionPointContainer@?$IConnectionPointImpl@VCOPOSKeylock@@$1?DIID__IOPOSKeylockEvents@@3U_GUID@@BVCComDynamicUnkArray@ATL@@@ATL@@UEAAJPEAPEAUIConnectionPointContainer@@@Z 000000018000444c f i Keylock.obj
 0001:0000346c       ?UpdateRegistry@COPOSKeylock@@SAJH@Z 000000018000446c f i Keylock.obj
 0001:00003484       ?ProcessWindowMessage@COPOSKeylock@@UEAAHPEAUHWND__@@I_K_JAEA_JK@Z 0000000180004484 f i Keylock.obj
 0001:0000350c       ?SODirectIO@COPOSKeylock@@MEAAJJPEAJPEAPEA_W@Z 000000018000450c f i Keylock.obj
 0001:00003584       ?SOStatusUpdate@COPOSKeylock@@MEAAJJ@Z 0000000180004584 f i Keylock.obj
 0001:000035d4       ??$AtlModuleRegisterWndClassInfoT@VAtlModuleRegisterWndClassInfoParamW@ATL@@@ATL@@YAGPEAU_ATL_BASE_MODULE70@0@PEAU_ATL_WIN_MODULE70@0@PEAU_ATL_WNDCLASSINFOW@0@PEAP6A_JPEAUHWND__@@I_K_J@ZVAtlModuleRegisterWndClassInfoParamW@0@@Z 00000001800045d4 f i Keylock.obj
 0001:000037d4       ??0?$CComContainedObject@VCOPOSKeylock@@@ATL@@QEAA@PEAX@Z 00000001800047d4 f i Keylock.obj
 0001:000038f0       ??0?$CComObject@VCOPOSKeylock@@@ATL@@QEAA@PEAX@Z 00000001800048f0 f i Keylock.obj
 0001:00003a08       ??0CAtlModule@ATL@@QEAA@XZ 0000000180004a08 f i Keylock.obj
 0001:00003a84       ??1?$CComEnumImpl@UIEnumConnectionPoints@@$1?_GUID_b196b285_bab4_101a_b69c_00aa00341d07@@3U__s_GUID@@BPEAUIConnectionPoint@@V?$_CopyInterface@UIConnectionPoint@@@ATL@@@ATL@@UEAA@XZ 0000000180004a84 f i Keylock.obj
 0001:00003ae0       ??1?$CComEnumImpl@UIEnumConnections@@$1?_GUID_b196b287_bab4_101a_b69c_00aa00341d07@@3U__s_GUID@@BUtagCONNECTDATA@@V?$_Copy@UtagCONNECTDATA@@@ATL@@@ATL@@UEAA@XZ 0000000180004ae0 f i Keylock.obj
 0001:00003b3c       ??1?$CComObject@VCOPOSKeylock@@@ATL@@UEAA@XZ 0000000180004b3c f i Keylock.obj
 0001:00003c5c       ??_E?$CComContainedObject@VCOPOSKeylock@@@ATL@@UEAAPEAXI@Z 0000000180004c5c f i Keylock.obj
 0001:00003c5c       ??_G?$CComContainedObject@VCOPOSKeylock@@@ATL@@UEAAPEAXI@Z 0000000180004c5c f i Keylock.obj
 0001:00003c90       ??_E?$CComObject@VCOPOSKeylock@@@ATL@@UEAAPEAXI@Z 0000000180004c90 f i Keylock.obj
 0001:00003c90       ??_G?$CComObject@VCOPOSKeylock@@@ATL@@UEAAPEAXI@Z 0000000180004c90 f i Keylock.obj
 0001:00003cc4       ?Add@?$CSimpleArray@GV?$CSimpleArrayEqualHelper@G@ATL@@@ATL@@QEAAHAEBG@Z 0000000180004cc4 f i Keylock.obj
 0001:00003d78       ?Add@?$CSimpleMap@PEA_WPEA_WVCExpansionVectorEqualHelper@ATL@@@ATL@@QEAAHAEBQEA_W0@Z 0000000180004d78 f i Keylock.obj
 0001:00003e18       ?Add@CComDynamicUnkArray@ATL@@QEAAKPEAUIUnknown@@@Z 0000000180004e18 f i Keylock.obj
 0001:00003f10       ?Add@CExpansionVector@ATL@@QEAAHPEB_W0@Z 0000000180004f10 f i Keylock.obj
 0001:000040a0       ?AddValue@CRegParser@ATL@@IEAAJAEAVCRegKey@2@PEB_WPEA_W@Z 00000001800050a0 f i Keylock.obj
 0001:000044e8       ?AllocateHeap@?$CTempBuffer@_W$0BAA@VCCRTAllocator@ATL@@@ATL@@AEAAX_K@Z 00000001800054e8 f i Keylock.obj
 0001:000044e8       ?AllocateHeap@?$CTempBuffer@_W$0EAA@VCCRTAllocator@ATL@@@ATL@@AEAAX_K@Z 00000001800054e8 f i Keylock.obj
 0001:000044e8       ?AllocateHeap@?$CTempBuffer@E$0BAA@VCCRTAllocator@ATL@@@ATL@@AEAAX_K@Z 00000001800054e8 f i Keylock.obj
 0001:00004514       ?Append@CParseBuffer@CRegParser@ATL@@QEAAHPEB_WH@Z 0000000180005514 f i Keylock.obj
 0001:0000462c       ?AtlCallTermFunc@ATL@@YAXPEAU_ATL_MODULE70@1@@Z 000000018000562c f i Keylock.obj
 0001:00004690       ?AtlComModuleGetClassObject@ATL@@YAJPEAU_ATL_COM_MODULE70@1@AEBU_GUID@@1PEAPEAX@Z 0000000180005690 f i Keylock.obj
 0001:000047d0       ?AtlComModuleRegisterServer@ATL@@YAJPEAU_ATL_COM_MODULE70@1@HPEBU_GUID@@@Z 00000001800057d0 f i Keylock.obj
 0001:00004890       ?AtlComModuleUnregisterServer@ATL@@YAJPEAU_ATL_COM_MODULE70@1@HPEBU_GUID@@@Z 0000000180005890 f i Keylock.obj
 0001:0000494c       ?AtlCreateTargetDC@ATL@@YAPEAUHDC__@@PEAU2@PEAUtagDVTARGETDEVICE@@@Z 000000018000594c f i Keylock.obj
 0001:000049c0       ?AtlHiMetricToPixel@ATL@@YAXPEBUtagSIZE@@PEAU2@@Z 00000001800059c0 f i Keylock.obj
 0001:00004a70       ?AtlHresultFromLastError@ATL@@YAJXZ 0000000180005a70 f i Keylock.obj
 0001:00004a90       ?AtlHresultFromWin32@ATL@@YAJK@Z 0000000180005a90 f i Keylock.obj
 0001:00004aa0       ?AtlIPersistStreamInit_Load@ATL@@YAJPEAUIStream@@PEBUATL_PROPMAP_ENTRY@1@PEAXPEAUIUnknown@@@Z 0000000180005aa0 f i Keylock.obj
 0001:00004cd8       ?AtlIPersistStreamInit_Save@ATL@@YAJPEAUIStream@@HPEBUATL_PROPMAP_ENTRY@1@PEAXPEAUIUnknown@@@Z 0000000180005cd8 f i Keylock.obj
 0001:00004f14       ?AtlInternalOleLoadFromStream@ATL@@YAJPEAUIStream@@AEBU_GUID@@PEAPEAXTClassesAllowedInStream@1@K@Z 0000000180005f14 f i Keylock.obj
 0001:00005058       ?AtlInternalQueryInterface@ATL@@YAJPEAXPEBU_ATL_INTMAP_ENTRY@1@AEBU_GUID@@PEAPEAX@Z 0000000180006058 f i Keylock.obj
 0001:00005160       ?AtlLoadTypeLib@ATL@@YAJPEAUHINSTANCE__@@PEB_WPEAPEA_WPEAPEAUITypeLib@@@Z 0000000180006160 f i Keylock.obj
 0001:000053bc       ?AtlModuleAddTermFunc@ATL@@YAJPEAU_ATL_MODULE70@1@P6AX_K@Z1@Z 00000001800063bc f i Keylock.obj
 0001:00005450       ?AtlRegisterClassCategoriesHelper@ATL@@YAJAEBU_GUID@@PEBU_ATL_CATMAP_ENTRY@1@H@Z 0000000180006450 f i Keylock.obj
 0001:000058b4       ?AtlRegisterTypeLib@ATL@@YAJPEAUHINSTANCE__@@PEB_W@Z 00000001800068b4 f i Keylock.obj
 0001:00005ab0       ?AtlThrowImpl@ATL@@YAXJ@Z  0000000180006ab0 f i Keylock.obj
 0001:00005ad4       ?AtlUnRegisterTypeLib@ATL@@YAJPEAUHINSTANCE__@@PEB_W@Z 0000000180006ad4 f i Keylock.obj
 0001:00005b9c       ?AtlWinModuleExtractCreateWndData@ATL@@YAPEAXPEAU_ATL_WIN_MODULE70@1@@Z 0000000180006b9c f i Keylock.obj
 0001:00005c28       ?Cleanup@CComTypeInfoHolder@ATL@@SAX_K@Z 0000000180006c28 f i Keylock.obj
 0001:00005c68       ?ClearReplacements@CExpansionVector@ATL@@QEAAJXZ 0000000180006c68 f i Keylock.obj
 0001:00005d04       ?Create@?$CWindowImpl@VCOPOSKeylock@@VCWindow@ATL@@V?$CWinTraits@$0FGAAAAAA@$0A@@3@@ATL@@QEAAPEAUHWND__@@PEAU3@V_U_RECT@2@PEB_WKKV_U_MENUorID@2@PEAX@Z 0000000180006d04 f i Keylock.obj
 0001:00005db4       ?Create@?$CWindowImplBaseT@VCWindow@ATL@@V?$CWinTraits@$0FGAAAAAA@$0A@@2@@ATL@@QEAAPEAUHWND__@@PEAU3@V_U_RECT@2@PEB_WKKV_U_MENUorID@2@GPEAX@Z 0000000180006db4 f i Keylock.obj
 0001:00005f24       ?Create@CRegKey@ATL@@QEAAJPEAUHKEY__@@PEB_WPEA_WKKPEAU_SECURITY_ATTRIBUTES@@PEAK@Z 0000000180006f24 f i Keylock.obj
 0001:00006008       ?CreateInstance@?$CComCreator@V?$CComAggObject@VCOPOSKeylock@@@ATL@@@ATL@@SAJPEAXAEBU_GUID@@PEAPEAX@Z 0000000180007008 f i Keylock.obj
 0001:000060e0       ?CreateInstance@?$CComCreator@V?$CComObject@VCOPOSKeylock@@@ATL@@@ATL@@SAJPEAXAEBU_GUID@@PEAPEAX@Z 00000001800070e0 f i Keylock.obj
 0001:00006198       ?CreateInstance@?$CComObject@V?$CComEnum@UIEnumConnectionPoints@@$1?_GUID_b196b285_bab4_101a_b69c_00aa00341d07@@3U__s_GUID@@BPEAUIConnectionPoint@@V?$_CopyInterface@UIConnectionPoint@@@ATL@@VCComSingleThreadModel@6@@ATL@@@ATL@@SAJPEAPEAV12@@Z 0000000180007198 f i Keylock.obj
 0001:00006224       ?CreateInstance@?$CComObject@V?$CComEnum@UIEnumConnections@@$1?_GUID_b196b287_bab4_101a_b69c_00aa00341d07@@3U__s_GUID@@BUtagCONNECTDATA@@V?$_Copy@UtagCONNECTDATA@@@ATL@@VCComSingleThreadModel@6@@ATL@@@ATL@@SAJPEAPEAV12@@Z 0000000180007224 f i Keylock.obj
 0001:000062b0       ?DefaultReflectionHandler@?$CWindowImplRoot@VCWindow@ATL@@@ATL@@SAHPEAUHWND__@@I_K_JAEA_J@Z 00000001800072b0 f i Keylock.obj
 0001:00006314       ?DoEvent@COPOSKeylock@@IEAAXI_K_J@Z 0000000180007314 f i Keylock.obj
 0001:000063c8       ?DoVerbPrimary@?$IOleObjectImpl@VCOPOSKeylock@@@ATL@@QEAAJPEBUtagRECT@@PEAUHWND__@@@Z 00000001800073c8 f i Keylock.obj
 0001:000064f0       ?DoVerbProperties@CComControlBase@ATL@@QEAAJPEBUtagRECT@@PEAUHWND__@@@Z 00000001800074f0 f i Keylock.obj
 0001:00006718       ?FireTheEvent@?$CProxy_IOPOSEvents@VCOPOSKeylock@@@@IEAAXPEAVOposVariant@@IAEAJPEB_WJ@Z 0000000180007718 f i Keylock.obj
 0001:00006804       ?FireViewChange@CComControlBase@ATL@@QEAAJXZ 0000000180007804 f i Keylock.obj
 0001:00006868       ?Fire_DirectIOEvent@?$CProxy_IOPOSEvents@VCOPOSKeylock@@@@QEAAXJPEAJPEAPEA_W@Z 0000000180007868 f i Keylock.obj
 0001:000069c0       ?Fire_StatusUpdateEvent@?$CProxy_IOPOSEvents@VCOPOSKeylock@@@@QEAAXJ@Z 00000001800079c0 f i Keylock.obj
 0001:00006aac       ?FreeHeap@?$CTempBuffer@E$0BAA@VCCRTAllocator@ATL@@@ATL@@AEAAXXZ 0000000180007aac f i Keylock.obj
 0001:00006aac       ?FreeHeap@?$CTempBuffer@_W$0EAA@VCCRTAllocator@ATL@@@ATL@@AEAAXXZ 0000000180007aac f i Keylock.obj
 0001:00006aac       ?FreeHeap@?$CTempBuffer@_W$0BAA@VCCRTAllocator@ATL@@@ATL@@AEAAXXZ 0000000180007aac f i Keylock.obj
 0001:00006ab4       ?GetAmbientLocaleID@CComControlBase@ATL@@QEAAJAEAK@Z 0000000180007ab4 f i Keylock.obj
 0001:00006b74       ?GetAmbientUserMode@CComControlBase@ATL@@QEAAJAEAH@Z 0000000180007b74 f i Keylock.obj
 0001:00006c48       ?GetClassObject@CComModule@ATL@@QEAAJAEBU_GUID@@0PEAPEAX@Z 0000000180007c48 f i Keylock.obj
 0001:00006d3c       ?GetConnMap@COPOSKeylock@@SAPEBU_ATL_CONNMAP_ENTRY@ATL@@PEAH@Z 0000000180007d3c f i Keylock.obj
 0001:00006dc4       ?GetIDsOfNames@CComTypeInfoHolder@ATL@@QEAAJAEBU_GUID@@PEAPEA_WIKPEAJ@Z 0000000180007dc4 f i Keylock.obj
 0001:00006f3c       ?GetPagesHelper@?$ISpecifyPropertyPagesImpl@VCOPOSKeylock@@@ATL@@IEAAJPEAUtagCAUUID@@PEBUATL_PROPMAP_ENTRY@2@@Z 0000000180007f3c f i Keylock.obj
 0001:000070dc       ?GetSizeMax@CComVariant@ATL@@QEBAJPEAT_ULARGE_INTEGER@@@Z 00000001800080dc f i Keylock.obj
 0001:00007310       ?GetTI@CComTypeInfoHolder@ATL@@QEAAJK@Z 0000000180008310 f i Keylock.obj
 0001:00007588       ?GetZoomInfo@CComControlBase@ATL@@QEAAXAEAUATL_DRAWINFO@@@Z 0000000180008588 f i Keylock.obj
 0001:0000762c       ?HKeyFromString@CRegParser@ATL@@KAPEAUHKEY__@@PEA_W@Z 000000018000862c f i Keylock.obj
 0001:00007690       ?IDataObject_GetData@CComControlBase@ATL@@QEAAJPEAUtagFORMATETC@@PEAUtagSTGMEDIUM@@@Z 0000000180008690 f i Keylock.obj
 0001:00007884       ?IOleInPlaceObject_InPlaceDeactivate@CComControlBase@ATL@@QEAAJXZ 0000000180008884 f i Keylock.obj
 0001:00007924       ?IOleInPlaceObject_SetObjectRects@CComControlBase@ATL@@QEAAJPEBUtagRECT@@0@Z 0000000180008924 f i Keylock.obj
 0001:00007a14       ?IOleInPlaceObject_UIDeactivate@CComControlBase@ATL@@QEAAJXZ 0000000180008a14 f i Keylock.obj
 0001:00007b20       ?IOleObject_Close@CComControlBase@ATL@@QEAAJK@Z 0000000180008b20 f i Keylock.obj
 0001:00007c38       ?IOleObject_SetClientSite@CComControlBase@ATL@@QEAAJPEAUIOleClientSite@@@Z 0000000180008c38 f i Keylock.obj
 0001:00007cb0       ?IOleObject_SetExtent@CComControlBase@ATL@@QEAAJKPEAUtagSIZE@@@Z 0000000180008cb0 f i Keylock.obj
 0001:00007d48       ?IPSI_GetIPersistStreamInit@?$IPersistStorageImpl@VCOPOSKeylock@@@ATL@@AEAAPEAUIPersistStreamInit@@XZ 0000000180008d48 f i Keylock.obj
 0001:00007da4       ?IQuickActivate_QuickActivate@CComControlBase@ATL@@QEAAJPEAUtagQACONTAINER@@PEAUtagQACONTROL@@@Z 0000000180008da4 f i Keylock.obj
 0001:00008068       ?IViewObject_Draw@CComControlBase@ATL@@QEAAJKJPEAXPEAUtagDVTARGETDEVICE@@PEAUHDC__@@2PEBU_RECTL@@3@Z 0000000180009068 f i Keylock.obj
 0001:0000817c       ?InPlaceActivate@CComControlBase@ATL@@QEAAJJPEBUtagRECT@@@Z 000000018000917c f i Keylock.obj
 0001:000084b4       ?Init@?$CComEnumImpl@UIEnumConnectionPoints@@$1?_GUID_b196b285_bab4_101a_b69c_00aa00341d07@@3U__s_GUID@@BPEAUIConnectionPoint@@V?$_CopyInterface@UIConnectionPoint@@@ATL@@@ATL@@QEAAJPEAPEAUIConnectionPoint@@0PEAUIUnknown@@W4CComEnumFlags@2@@Z 00000001800094b4 f i Keylock.obj
 0001:000085d4       ?Init@?$CComEnumImpl@UIEnumConnections@@$1?_GUID_b196b287_bab4_101a_b69c_00aa00341d07@@3U__s_GUID@@BUtagCONNECTDATA@@V?$_Copy@UtagCONNECTDATA@@@ATL@@@ATL@@QEAAJPEAUtagCONNECTDATA@@0PEAUIUnknown@@W4CComEnumFlags@2@@Z 00000001800095d4 f i Keylock.obj
 0001:000086f8       ?IsEqualObject@?$CComPtrBase@UITypeInfo@@@ATL@@QEAA_NPEAUIUnknown@@@Z 00000001800096f8 f i Keylock.obj
 0001:000086f8       ?IsEqualObject@?$CComPtrBase@UIOleClientSite@@@ATL@@QEAA_NPEAUIUnknown@@@Z 00000001800096f8 f i Keylock.obj
 0001:00008784       ?LoadNameCache@CComTypeInfoHolder@ATL@@QEAAJPEAUITypeInfo@@@Z 0000000180009784 f i Keylock.obj
 0001:00008908       ?Lookup@?$CSimpleMap@PEA_WPEA_WVCExpansionVectorEqualHelper@ATL@@@ATL@@QEBAPEA_WAEBQEA_W@Z 0000000180009908 f i Keylock.obj
 0001:00008994       ?NextToken@CRegParser@ATL@@IEAAJPEA_W@Z 0000000180009994 f i Keylock.obj
 0001:00008b4c       ?OnKillFocus@CComControlBase@ATL@@QEAA_JI_K_JAEAH@Z 0000000180009b4c f i Keylock.obj
 0001:00008be8       ?OnMouseActivate@CComControlBase@ATL@@QEAA_JI_K_JAEAH@Z 0000000180009be8 f i Keylock.obj
 0001:00008c88       ?OnPaint@CComControlBase@ATL@@QEAA_JI_K_JAEAH@Z 0000000180009c88 f i Keylock.obj
 0001:00008d74       ?OnSetFocus@CComControlBase@ATL@@QEAA_JI_K_JAEAH@Z 0000000180009d74 f i Keylock.obj
 0001:00008e70       ?Open@CRegKey@ATL@@QEAAJPEAUHKEY__@@PEB_WK@Z 0000000180009e70 f i Keylock.obj
 0001:00008eec       ?PreProcessBuffer@CRegParser@ATL@@QEAAJPEA_WPEAPEA_W@Z 0000000180009eec f i Keylock.obj
 0001:00009270       ?ProcessWindowMessage@?$CComControl@VCOPOSKeylock@@V?$CWindowImpl@VCOPOSKeylock@@VCWindow@ATL@@V?$CWinTraits@$0FGAAAAAA@$0A@@3@@ATL@@@ATL@@UEAAHPEAUHWND__@@I_K_JAEA_JK@Z 000000018000a270 f i Keylock.obj
 0001:00009354       ?PutProperty@?$CComPtr@UIDispatch@@@ATL@@SAJPEAUIDispatch@@JPEAUtagVARIANT@@@Z 000000018000a354 f i Keylock.obj
 0001:00009458       ?ReadFromStream@CComBSTR@ATL@@QEAAJPEAUIStream@@@Z 000000018000a458 f i Keylock.obj
 0001:000095b4       ?ReadFromStream@CComVariant@ATL@@QEAAJPEAUIStream@@GTClassesAllowedInStream@2@K@Z 000000018000a5b4 f i Keylock.obj
 0001:000097c4       ?RecurseDeleteKey@CRegKey@ATL@@QEAAJPEB_W@Z 000000018000a7c4 f i Keylock.obj
 0001:000098e8       ?RegCreateKeyExW@CAtlTransactionManager@ATL@@QEAAJPEAUHKEY__@@PEB_WKPEA_WKKQEAU_SECURITY_ATTRIBUTES@@PEAPEAU3@PEAK@Z 000000018000a8e8 f i Keylock.obj
 0001:00009a1c       ?RegDeleteKeyW@CAtlTransactionManager@ATL@@QEAAJPEAUHKEY__@@PEB_W@Z 000000018000aa1c f i Keylock.obj
 0001:00009aa8       ?RegOpenKeyExW@CAtlTransactionManager@ATL@@QEAAJPEAUHKEY__@@PEB_WKKPEAPEAU3@@Z 000000018000aaa8 f i Keylock.obj
 0001:00009b60       ?RegisterBuffer@CRegParser@ATL@@QEAAJPEA_WH@Z 000000018000ab60 f i Keylock.obj
 0001:00009cc8       ?RegisterFromResource@CRegObject@ATL@@IEAAJPEB_W00H@Z 000000018000acc8 f i Keylock.obj
 0001:00009e84       ?RegisterServer@CComModule@ATL@@QEAAJHPEBU_GUID@@@Z 000000018000ae84 f i Keylock.obj
 0001:00009f44       ?RegisterSubkeys@CRegParser@ATL@@IEAAJPEA_WPEAUHKEY__@@HH@Z 000000018000af44 f i Keylock.obj
 0001:0000a634       ?SendOnDataChange@CComControlBase@ATL@@QEAAJK@Z 000000018000b634 f i Keylock.obj
 0001:0000a6a4       ?SetControlFocus@CComControlBase@ATL@@QEAAHH@Z 000000018000b6a4 f i Keylock.obj
 0001:0000a780       ?SkipAssignment@CRegParser@ATL@@IEAAJPEA_W@Z 000000018000b780 f i Keylock.obj
 0001:0000a824       ?Term@CComModule@ATL@@QEAAXXZ 000000018000b824 f i Keylock.obj
 0001:0000a8d0       ?UnregisterServer@CComModule@ATL@@QEAAJHPEBU_GUID@@@Z 000000018000b8d0 f i Keylock.obj
 0001:0000a980       ?UpdateRegistryFromResource@CAtlModule@ATL@@QEAAJIHPEAU_ATL_REGMAP_ENTRY@2@@Z 000000018000b980 f i Keylock.obj
 0001:0000acb8       ?UpdateRegistryFromResource@CAtlModule@ATL@@QEAAJPEB_WHPEAU_ATL_REGMAP_ENTRY@2@@Z 000000018000bcb8 f i Keylock.obj
 0001:0000b010       ?VTFromRegType@CRegParser@ATL@@KAHPEB_WAEAG@Z 000000018000c010 f i Keylock.obj
 0001:0000b0ac       ?WindowProc@?$CWindowImplBaseT@VCWindow@ATL@@V?$CWinTraits@$0FGAAAAAA@$0A@@2@@ATL@@SA_JPEAUHWND__@@I_K_J@Z 000000018000c0ac f i Keylock.obj
 0001:0000b218       ?WriteToStream@CComBSTR@ATL@@QEAAJPEAUIStream@@@Z 000000018000c218 f i Keylock.obj
 0001:0000b298       ?WriteToStream@CComVariant@ATL@@QEAAJPEAUIStream@@@Z 000000018000c298 f i Keylock.obj
 0001:0000b4ac       ?WriteToStream@CComVariant@ATL@@QEAAJPEAUIStream@@G@Z 000000018000c4ac f i Keylock.obj
 0001:0000b544       ?_AtlVerifyStackAvailable@_ATL_SAFE_ALLOCA_IMPL@ATL@@YA_N_K@Z 000000018000c544 f i Keylock.obj
 0001:0000b5c8       DllCanUnloadNow            000000018000c5c8 f   Keylock.obj
 0001:0000b5d4       DllGetClassObject          000000018000c5d4 f   Keylock.obj
 0001:0000b5ec       DllMain                    000000018000c5ec f   Keylock.obj
 0001:0000b694       DllRegisterServer          000000018000c694 f   Keylock.obj
 0001:0000b6a8       DllUnregisterServer        000000018000c6a8 f   Keylock.obj
 0001:0000b6bc       __local_stdio_printf_options 000000018000c6bc f i Keylock.obj
 0001:0000b74c       swprintf_s                 000000018000c74c f i Keylock.obj
 0001:0000b7a0       ??0COPOSKeylock@@QEAA@XZ   000000018000c7a0 f   KeylockImpl.obj
 0001:0000b85c       ??1?$IConnectionPointImpl@VCOPOSKeylock@@$1?DIID__IOPOSKeylockEvents@@3U_GUID@@BVCComDynamicUnkArray@ATL@@@ATL@@QEAA@XZ 000000018000c85c f i KeylockImpl.obj
 0001:0000b85c       ??1?$IConnectionPointImpl@VCOPOSKeylock@@$1?IID_IPropertyNotifySink@@3U_GUID@@BVCComDynamicUnkArray@ATL@@@ATL@@QEAA@XZ 000000018000c85c f i KeylockImpl.obj
 0001:0000b8b8       ??1CComControlBase@ATL@@UEAA@XZ 000000018000c8b8 f i KeylockImpl.obj
 0001:0000b934       ??1COPOSKeylock@@UEAA@XZ   000000018000c934 f   KeylockImpl.obj
 0001:0000b998       ?CheckHealth@COPOSKeylock@@UEAAJJPEAJ@Z 000000018000c998 f   KeylockImpl.obj
 0001:0000ba14       ?ClaimDevice@COPOSKeylock@@UEAAJJPEAJ@Z 000000018000ca14 f   KeylockImpl.obj
 0001:0000baac       ?Close@COPOSKeylock@@UEAAJPEAJ@Z 000000018000caac f   KeylockImpl.obj
 0001:0000bb64       ?CompareFirmwareVersion@COPOSKeylock@@UEAAJPEA_WPEAJ1@Z 000000018000cb64 f   KeylockImpl.obj
 0001:0000bc40       ?DirectIO@COPOSKeylock@@UEAAJJPEAJPEAPEA_W0@Z 000000018000cc40 f   KeylockImpl.obj
 0001:0000bd3c       ?DoInvoke@COPOSKeylock@@IEAAJJPEAVOposVariant@@IHPEAJ_N@Z 000000018000cd3c f   KeylockImpl.obj
 0001:0000be70       ?EventInit@COPOSKeylock@@IEAAJXZ 000000018000ce70 f i KeylockImpl.obj
 0001:0000bfb8       ?EventUninit@COPOSKeylock@@IEAAXXZ 000000018000cfb8 f i KeylockImpl.obj
 0001:0000c01c       ?EventWindowProc@COPOSKeylock@@IEAA_JI_K_J@Z 000000018000d01c f i KeylockImpl.obj
 0001:0000c114       ?FinalConstruct@COPOSKeylock@@QEAAJXZ 000000018000d114 f   KeylockImpl.obj
 0001:0000c150       ?FreezeEvents@COPOSKeylock@@MEAAJH@Z 000000018000d150 f   KeylockImpl.obj
 0001:0000c1c4       ?GetOposProp@COPOSKeylock@@IEAAJJPEAJJ@Z 000000018000d1c4 f   KeylockImpl.obj
 0001:0000c2e0       ?GetOposProp@COPOSKeylock@@IEAAJJPEAPEA_WJ@Z 000000018000d2e0 f   KeylockImpl.obj
 0001:0000c40c       ?OnDraw@COPOSKeylock@@MEAAJAEAUATL_DRAWINFO@@@Z 000000018000d40c f   KeylockImpl.obj
 0001:0000c4f8       ?Open@COPOSKeylock@@UEAAJPEA_WPEAJ@Z 000000018000d4f8 f   KeylockImpl.obj
 0001:0000cd80       ?ReleaseDevice@COPOSKeylock@@UEAAJPEAJ@Z 000000018000dd80 f   KeylockImpl.obj
 0001:0000cdc4       ?ResetStatistics@COPOSKeylock@@UEAAJPEA_WPEAJ@Z 000000018000ddc4 f   KeylockImpl.obj
 0001:0000ce4c       ?RetrieveStatistics@COPOSKeylock@@UEAAJPEAPEA_WPEAJ@Z 000000018000de4c f   KeylockImpl.obj
 0001:0000ced4       ?SOProcessID@COPOSKeylock@@UEAAJPEAJ@Z 000000018000ded4 f   KeylockImpl.obj
 0001:0000cef0       ?SetCOFreezeEvents@COPOSKeylock@@IEAAXF@Z 000000018000def0 f   KeylockImpl.obj
 0001:0000cfd4       ?SetOposProp@COPOSKeylock@@IEAAJJJJ@Z 000000018000dfd4 f   KeylockImpl.obj
 0001:0000d134       ?UpdateFirmware@COPOSKeylock@@UEAAJPEA_WPEAJ@Z 000000018000e134 f   KeylockImpl.obj
 0001:0000d1bc       ?UpdateStatistics@COPOSKeylock@@UEAAJPEA_WPEAJ@Z 000000018000e1bc f   KeylockImpl.obj
 0001:0000d244       ?WaitForKeylockChange@COPOSKeylock@@UEAAJJJPEAJ@Z 000000018000e244 f   KeylockImpl.obj
 0001:0000d310       ?get_BinaryConversion@COPOSKeylock@@UEAAJPEAJ@Z 000000018000e310 f   KeylockImpl.obj
 0001:0000d324       ?get_CapCompareFirmwareVersion@COPOSKeylock@@UEAAJPEAF@Z 000000018000e324 f   KeylockImpl.obj
 0001:0000d358       ?get_CapKeylockType@COPOSKeylock@@UEAAJPEAJ@Z 000000018000e358 f   KeylockImpl.obj
 0001:0000d36c       ?get_CapPowerReporting@COPOSKeylock@@UEAAJPEAJ@Z 000000018000e36c f   KeylockImpl.obj
 0001:0000d380       ?get_CapStatisticsReporting@COPOSKeylock@@UEAAJPEAF@Z 000000018000e380 f   KeylockImpl.obj
 0001:0000d3b4       ?get_CapUpdateFirmware@COPOSKeylock@@UEAAJPEAF@Z 000000018000e3b4 f   KeylockImpl.obj
 0001:0000d3e8       ?get_CapUpdateStatistics@COPOSKeylock@@UEAAJPEAF@Z 000000018000e3e8 f   KeylockImpl.obj
 0001:0000d41c       ?get_CheckHealthText@COPOSKeylock@@UEAAJPEAPEA_W@Z 000000018000e41c f   KeylockImpl.obj
 0001:0000d42c       ?get_Claimed@COPOSKeylock@@UEAAJPEAF@Z 000000018000e42c f   KeylockImpl.obj
 0001:0000d45c       ?get_ControlObjectDescription@COPOSKeylock@@UEAAJPEAPEA_W@Z 000000018000e45c f   KeylockImpl.obj
 0001:0000d4c0       ?get_ControlObjectVersion@COPOSKeylock@@UEAAJPEAJ@Z 000000018000e4c0 f   KeylockImpl.obj
 0001:0000d4cc       ?get_DeviceDescription@COPOSKeylock@@UEAAJPEAPEA_W@Z 000000018000e4cc f   KeylockImpl.obj
 0001:0000d4dc       ?get_DeviceEnabled@COPOSKeylock@@UEAAJPEAF@Z 000000018000e4dc f   KeylockImpl.obj
 0001:0000d50c       ?get_DeviceName@COPOSKeylock@@UEAAJPEAPEA_W@Z 000000018000e50c f   KeylockImpl.obj
 0001:0000d51c       ?get_ElectronicKeyValue@COPOSKeylock@@UEAAJPEAPEA_W@Z 000000018000e51c f   KeylockImpl.obj
 0001:0000d530       ?get_FreezeEvents@COPOSKeylock@@UEAAJPEAF@Z 000000018000e530 f   KeylockImpl.obj
 0001:0000d560       ?get_KeyPosition@COPOSKeylock@@UEAAJPEAJ@Z 000000018000e560 f   KeylockImpl.obj
 0001:0000d570       ?get_OpenResult@COPOSKeylock@@UEAAJPEAJ@Z 000000018000e570 f   KeylockImpl.obj
 0001:0000d57c       ?get_PositionCount@COPOSKeylock@@UEAAJPEAJ@Z 000000018000e57c f   KeylockImpl.obj
 0001:0000d58c       ?get_PowerNotify@COPOSKeylock@@UEAAJPEAJ@Z 000000018000e58c f   KeylockImpl.obj
 0001:0000d5a0       ?get_PowerState@COPOSKeylock@@UEAAJPEAJ@Z 000000018000e5a0 f   KeylockImpl.obj
 0001:0000d5b4       ?get_ResultCode@COPOSKeylock@@UEAAJPEAJ@Z 000000018000e5b4 f   KeylockImpl.obj
 0001:0000d5f0       ?get_ResultCodeExtended@COPOSKeylock@@UEAAJPEAJ@Z 000000018000e5f0 f   KeylockImpl.obj
 0001:0000d600       ?get_ServiceObjectDescription@COPOSKeylock@@UEAAJPEAPEA_W@Z 000000018000e600 f   KeylockImpl.obj
 0001:0000d610       ?get_ServiceObjectVersion@COPOSKeylock@@UEAAJPEAJ@Z 000000018000e610 f   KeylockImpl.obj
 0001:0000d620       ?get_State@COPOSKeylock@@UEAAJPEAJ@Z 000000018000e620 f   KeylockImpl.obj
 0001:0000d64c       ?put_BinaryConversion@COPOSKeylock@@UEAAJJ@Z 000000018000e64c f   KeylockImpl.obj
 0001:0000d660       ?put_DeviceEnabled@COPOSKeylock@@UEAAJF@Z 000000018000e660 f   KeylockImpl.obj
 0001:0000d678       ?put_FreezeEvents@COPOSKeylock@@UEAAJF@Z 000000018000e678 f   KeylockImpl.obj
 0001:0000d6c8       ?put_PowerNotify@COPOSKeylock@@UEAAJJ@Z 000000018000e6c8 f   KeylockImpl.obj
 0001:0000d6dc       ?s_EventWindowProc@COPOSKeylock@@KA_JPEAUHWND__@@I_K_J@Z 000000018000e6dc f i KeylockImpl.obj
 0001:0000d758       ??_U@YAPEAX_K@Z            000000018000e758 f   LIBCMT:new_array.obj
 0001:0000d760       ??_V@YAXPEAX@Z             000000018000e760 f   LIBCMT:delete_array.obj
 0001:0000d760       ??3@YAXPEAX_K@Z            000000018000e760 f   LIBCMT:delete_scalar_size.obj
 0001:0000d768       ??_V@YAXPEAX_K@Z           000000018000e768 f   LIBCMT:delete_array_size.obj
 0001:0000d770       __scrt_acquire_startup_lock 000000018000e770 f   LIBCMT:utility.obj
 0001:0000d7ac       __scrt_dllmain_after_initialize_c 000000018000e7ac f   LIBCMT:utility.obj
 0001:0000d7e0       __scrt_dllmain_before_initialize_c 000000018000e7e0 f   LIBCMT:utility.obj
 0001:0000d7f8       __scrt_dllmain_crt_thread_attach 000000018000e7f8 f   LIBCMT:utility.obj
 0001:0000d820       __scrt_dllmain_crt_thread_detach 000000018000e820 f   LIBCMT:utility.obj
 0001:0000d838       __scrt_dllmain_exception_filter 000000018000e838 f   LIBCMT:utility.obj
 0001:0000d898       __scrt_dllmain_uninitialize_c 000000018000e898 f   LIBCMT:utility.obj
 0001:0000d8c8       __scrt_dllmain_uninitialize_critical 000000018000e8c8 f   LIBCMT:utility.obj
 0001:0000d8dc       __scrt_initialize_crt      000000018000e8dc f   LIBCMT:utility.obj
 0001:0000d928       __scrt_initialize_onexit_tables 000000018000e928 f   LIBCMT:utility.obj
 0001:0000da00       __scrt_is_nonwritable_in_current_image 000000018000ea00 f   LIBCMT:utility.obj
 0001:0000da9c       __scrt_release_startup_lock 000000018000ea9c f   LIBCMT:utility.obj
 0001:0000dac0       __scrt_uninitialize_crt    000000018000eac0 f   LIBCMT:utility.obj
 0001:0000daec       _onexit                    000000018000eaec f   LIBCMT:utility.obj
 0001:0000db3c       atexit                     000000018000eb3c f   LIBCMT:utility.obj
 0001:0000db54       ??3@YAXPEAX@Z              000000018000eb54 f   LIBCMT:delete_scalar.obj
 0001:0000dce4       _Init_thread_footer        000000018000ece4 f   LIBCMT:thread_safe_statics.obj
 0001:0000dd44       _Init_thread_header        000000018000ed44 f   LIBCMT:thread_safe_statics.obj
 0001:0000ddac       _Init_thread_notify        000000018000edac f   LIBCMT:thread_safe_statics.obj
 0001:0000ddfc       _Init_thread_wait          000000018000edfc f   LIBCMT:thread_safe_statics.obj
 0001:0000de74       __raise_securityfailure    000000018000ee74 f   LIBCMT:gs_report.obj
 0001:0000dea8       __report_gsfailure         000000018000eea8 f   LIBCMT:gs_report.obj
 0001:0000df7c       __report_rangecheckfailure 000000018000ef7c f   LIBCMT:gs_report.obj
 0001:0000df90       __report_securityfailure   000000018000ef90 f   LIBCMT:gs_report.obj
 0001:0000e110       ??2@YAPEAX_KAEBUnothrow_t@std@@@Z 000000018000f110 f   LIBCMT:new_scalar_nothrow.obj
 0001:0000e130       ??_U@YAPEAX_KAEBUnothrow_t@std@@@Z 000000018000f130 f   LIBCMT:new_array_nothrow.obj
 0001:0000e138       __GSHandlerCheck           000000018000f138 f   LIBCMT:_gshandler_.obj
 0001:0000e158       __GSHandlerCheckCommon     000000018000f158 f   LIBCMT:_gshandler_.obj
 0001:0000e1b4       __GSHandlerCheck_SEH       000000018000f1b4 f   LIBCMT:_gshandlerseh_.obj
 0001:0000e250       __chkstk                   000000018000f250 f   LIBCMT:_chkstk_.obj
 0001:0000e250       _alloca_probe              000000018000f250 f   LIBCMT:_chkstk_.obj
 0001:0000e2c0       __security_check_cookie    000000018000f2c0 f   LIBCMT:_amdsecgs_.obj
 0001:0000e614       _DllMainCRTStartup         000000018000f614 f   LIBCMT:dll_dllmain.obj
 0001:0000e654       ??2@YAPEAX_K@Z             000000018000f654 f   LIBCMT:new_scalar.obj
 0001:0000e690       __isa_available_init       000000018000f690 f   LIBCMT:_cpu_disp_.obj
 0001:0000e84c       _get_startup_argv_mode     000000018000f84c f   LIBCMT:argv_mode.obj
 0001:0000e854       __scrt_is_ucrt_dll_in_use  000000018000f854 f   LIBCMT:ucrt_detection.obj
 0001:0000e860       __crt_debugger_hook        000000018000f860 f   LIBCMT:utility_desktop.obj
 0001:0000e868       __scrt_fastfail            000000018000f868 f   LIBCMT:utility_desktop.obj
 0001:0000e9b4       _guard_check_icall_nop     000000018000f9b4 f i LIBCMT:guard_support.obj
 0001:0000e9b8       __security_init_cookie     000000018000f9b8 f   LIBCMT:gs_support.obj
 0001:0000ea64       ?__scrt_initialize_type_info@@YAXXZ 000000018000fa64 f   LIBCMT:tncleanup.obj
 0001:0000ea74       ?__scrt_uninitialize_type_info@@YAXXZ 000000018000fa74 f   LIBCMT:tncleanup.obj
 0001:0000ea80       __local_stdio_scanf_options 000000018000fa80 f i LIBCMT:default_local_stdio_options.obj
 0001:0000ea88       __scrt_initialize_default_local_stdio_options 000000018000fa88 f   LIBCMT:default_local_stdio_options.obj
 0001:0000eaa4       __scrt_get_dyn_tls_init_callback 000000018000faa4 f   LIBCMT:dyn_tls_init.obj
 0001:0000eaac       _RTC_Initialize            000000018000faac f   LIBCMT:_initsect_.obj
 0001:0000eae8       _RTC_Terminate             000000018000fae8 f   LIBCMT:_initsect_.obj
 0001:0000eb24       ??0bad_alloc@std@@QEAA@AEBV01@@Z 000000018000fb24 f i LIBCMT:throw_bad_alloc.obj
 0001:0000eb64       ??0bad_alloc@std@@QEAA@XZ  000000018000fb64 f i LIBCMT:throw_bad_alloc.obj
 0001:0000eb84       ??0bad_array_new_length@std@@QEAA@AEBV01@@Z 000000018000fb84 f i LIBCMT:throw_bad_alloc.obj
 0001:0000ebc4       ??0bad_array_new_length@std@@QEAA@XZ 000000018000fbc4 f i LIBCMT:throw_bad_alloc.obj
 0001:0000ebe4       ??0exception@std@@QEAA@AEBV01@@Z 000000018000fbe4 f i LIBCMT:throw_bad_alloc.obj
 0001:0000ec1c       ??1bad_array_new_length@std@@UEAA@XZ 000000018000fc1c f i LIBCMT:throw_bad_alloc.obj
 0001:0000ec1c       ??1bad_alloc@std@@UEAA@XZ  000000018000fc1c f i LIBCMT:throw_bad_alloc.obj
 0001:0000ec1c       ??1bad_exception@std@@UEAA@XZ 000000018000fc1c f i libvcruntime:frame.obj
 0001:0000ec30       ??_Gbad_alloc@std@@UEAAPEAXI@Z 000000018000fc30 f i LIBCMT:throw_bad_alloc.obj
 0001:0000ec30       ??_Gbad_exception@std@@UEAAPEAXI@Z 000000018000fc30 f i libvcruntime:frame.obj
 0001:0000ec30       ??_Ebad_exception@std@@UEAAPEAXI@Z 000000018000fc30 f i libvcruntime:frame.obj
 0001:0000ec30       ??_Ebad_alloc@std@@UEAAPEAXI@Z 000000018000fc30 f i LIBCMT:throw_bad_alloc.obj
 0001:0000ec30       ??_Eexception@std@@UEAAPEAXI@Z 000000018000fc30 f i LIBCMT:throw_bad_alloc.obj
 0001:0000ec30       ??_Gexception@std@@UEAAPEAXI@Z 000000018000fc30 f i LIBCMT:throw_bad_alloc.obj
 0001:0000ec30       ??_Ebad_array_new_length@std@@UEAAPEAXI@Z 000000018000fc30 f i LIBCMT:throw_bad_alloc.obj
 0001:0000ec30       ??_Gbad_array_new_length@std@@UEAAPEAXI@Z 000000018000fc30 f i LIBCMT:throw_bad_alloc.obj
 0001:0000ec74       ?__scrt_throw_std_bad_alloc@@YAXXZ 000000018000fc74 f   LIBCMT:throw_bad_alloc.obj
 0001:0000ec94       ?__scrt_throw_std_bad_array_new_length@@YAXXZ 000000018000fc94 f   LIBCMT:throw_bad_alloc.obj
 0001:0000ecb4       ?what@exception@std@@UEBAPEBDXZ 000000018000fcb4 f i LIBCMT:throw_bad_alloc.obj
 0001:0000ecd0       ??_Etype_info@@UEAAPEAXI@Z 000000018000fcd0 f i LIBCMT:std_type_info_static.obj
 0001:0000ecd0       ??_Gtype_info@@UEAAPEAXI@Z 000000018000fcd0 f i LIBCMT:std_type_info_static.obj
 0001:0000ecfc       ??0CAtlBaseModule@ATL@@QEAA@XZ 000000018000fcfc f   atls:atlbase.obj
 0001:0000eda4       ??1CAtlBaseModule@ATL@@QEAA@XZ 000000018000fda4 f   atls:atlbase.obj
 0001:0000eed8       ?__AllocStdCallThunk_cmn@@YAPEAXXZ 000000018000fed8 f   atls:atlthunk.obj
 0001:0000f030       AtlThunk_AllocateData      0000000180010030 f   atls:atlthunk.obj
 0001:0000f0ac       AtlThunk_DataToCode        00000001800100ac f   atls:atlthunk.obj
 0001:0000f100       AtlThunk_FreeData          0000000180010100 f   atls:atlthunk.obj
 0001:0000f160       AtlThunk_InitData          0000000180010160 f   atls:atlthunk.obj
 0001:0000f220       memset_repmovs             0000000180010220 f   libvcruntime:memset.obj
 0001:0000f240       memset                     0000000180010240 f   libvcruntime:memset.obj
 0001:0000f3d0       _purecall                  00000001800103d0 f   libvcruntime:purevirt.obj
 0001:0000f400       wcsstr                     0000000180010400 f   libvcruntime:wcsstr.obj
 0001:0000f630       memcmp                     0000000180010630 f   libvcruntime:memcmp.obj
 0001:0000f710       memcpy_repmovs             0000000180010710 f   libvcruntime:memcpy.obj
 0001:0000f730       memmove                    0000000180010730 f   libvcruntime:memcpy.obj
 0001:0000f730       memcpy                     0000000180010730 f   libvcruntime:memcpy.obj
 0001:0000fb68       __vcrt_initialize          0000000180010b68 f   libvcruntime:initialization.obj
 0001:0000fb9c       __vcrt_thread_attach       0000000180010b9c f   libvcruntime:initialization.obj
 0001:0000fbb0       __vcrt_thread_detach       0000000180010bb0 f   libvcruntime:initialization.obj
 0001:0000fbc4       __vcrt_uninitialize        0000000180010bc4 f   libvcruntime:initialization.obj
 0001:0000fbe4       __vcrt_uninitialize_critical 0000000180010be4 f   libvcruntime:initialization.obj
 0001:0000fbf4       __C_specific_handler       0000000180010bf4 f   libvcruntime:_riscchandler_.obj
 0001:0000fe00       __DestructExceptionObject  0000000180010e00 f   libvcruntime:ehhelpers.obj
 0001:0000fe74       ?_CallMemberFunction0@@YAXQEAX0@Z 0000000180010e74 f i libvcruntime:ehhelpers.obj
 0001:0000fe78       _IsExceptionObjectToBeDestroyed 0000000180010e78 f   libvcruntime:ehhelpers.obj
 0001:0000fea8       __AdjustPointer            0000000180010ea8 f   libvcruntime:ehhelpers.obj
 0001:0000fecc       __FrameUnwindFilter        0000000180010ecc f   libvcruntime:ehhelpers.obj
 0001:0000ff18       __std_terminate            0000000180010f18 f   libvcruntime:ehhelpers.obj
 0001:0000ff24       ??$_CallSETranslator@V__FrameHandler3@@@@YAHPEAUEHExceptionRecord@@PEA_KPEAU_CONTEXT@@PEAU_xDISPATCHER_CONTEXT@@PEBU_s_FuncInfo@@K1@Z 0000000180010f24 f i libvcruntime:risctrnsctrl.obj
 0001:0000ff78       ?CatchTryBlock@__FrameHandler3@@SAPEBU_s_TryBlockMapEntry@@PEBU_s_FuncInfo@@H@Z 0000000180010f78 f   libvcruntime:risctrnsctrl.obj
 0001:0000ffd0       ?ExecutionInCatch@__FrameHandler3@@SA_NPEAU_xDISPATCHER_CONTEXT@@PEBU_s_FuncInfo@@@Z 0000000180010fd0 f   libvcruntime:risctrnsctrl.obj
 0001:0000fffc       ?FrameUnwindToEmptyState@__FrameHandler3@@SAXPEA_KPEAU_xDISPATCHER_CONTEXT@@PEBU_s_FuncInfo@@@Z 0000000180010ffc f   libvcruntime:risctrnsctrl.obj
 0001:00010060       ?GetEstablisherFrame@__FrameHandler3@@SAPEA_KPEA_KPEAU_xDISPATCHER_CONTEXT@@PEBU_s_FuncInfo@@0@Z 0000000180011060 f   libvcruntime:risctrnsctrl.obj
 0001:0001012c       ?GetRangeOfTrysToCheck@__FrameHandler3@@SA?AU?$pair@Viterator@TryBlockMap@__FrameHandler3@@V123@@std@@AEAVTryBlockMap@1@HH@Z 000000018001112c f   libvcruntime:risctrnsctrl.obj
 0001:00010288       ?UnwindNestedFrames@__FrameHandler3@@SAXPEA_KPEAUEHExceptionRecord@@PEAU_CONTEXT@@0PEAXPEBU_s_FuncInfo@@HHPEBU_s_HandlerType@@PEAU_xDISPATCHER_CONTEXT@@E@Z 0000000180011288 f   libvcruntime:risctrnsctrl.obj
 0001:000103ac       _CreateFrameInfo           00000001800113ac f   libvcruntime:risctrnsctrl.obj
 0001:000103e8       _FindAndUnlinkFrame        00000001800113e8 f   libvcruntime:risctrnsctrl.obj
 0001:0001043c       _GetImageBase              000000018001143c f   libvcruntime:risctrnsctrl.obj
 0001:00010450       _GetThrowImageBase         0000000180011450 f   libvcruntime:risctrnsctrl.obj
 0001:00010464       _SetImageBase              0000000180011464 f   libvcruntime:risctrnsctrl.obj
 0001:0001047c       _SetThrowImageBase         000000018001147c f   libvcruntime:risctrnsctrl.obj
 0001:00010494       __CxxFrameHandler3         0000000180011494 f   libvcruntime:risctrnsctrl.obj
 0001:00010514       __std_type_info_compare    0000000180011514 f   libvcruntime:std_type_info.obj
 0001:0001053c       __std_type_info_destroy_list 000000018001153c f   libvcruntime:std_type_info.obj
 0001:00010568       __std_exception_copy       0000000180011568 f   libvcruntime:std_exception.obj
 0001:000105f8       __std_exception_destroy    00000001800115f8 f   libvcruntime:std_exception.obj
 0001:00010620       _CxxThrowException         0000000180011620 f   libvcruntime:throw.obj
 0001:000106e0       __vcrt_initialize_pure_virtual_call_handler 00000001800116e0 f   libvcruntime:purevirt_data.obj
 0001:000106f0       __vcrt_freefls             00000001800116f0 f   libvcruntime:per_thread_data.obj
 0001:00010710       __vcrt_freeptd             0000000180011710 f   libvcruntime:per_thread_data.obj
 0001:00010760       __vcrt_getptd              0000000180011760 f   libvcruntime:per_thread_data.obj
 0001:0001077c       __vcrt_getptd_noexit       000000018001177c f   libvcruntime:per_thread_data.obj
 0001:00010848       __vcrt_initialize_ptd      0000000180011848 f   libvcruntime:per_thread_data.obj
 0001:0001089c       __vcrt_uninitialize_ptd    000000018001189c f   libvcruntime:per_thread_data.obj
 0001:000108c0       __vcrt_initialize_locks    00000001800118c0 f   libvcruntime:locks.obj
 0001:00010908       __vcrt_uninitialize_locks  0000000180011908 f   libvcruntime:locks.obj
 0001:00010b18       __vcrt_FlsAlloc            0000000180011b18 f   libvcruntime:winapi_downlevel.obj
 0001:00010b60       __vcrt_FlsFree             0000000180011b60 f   libvcruntime:winapi_downlevel.obj
 0001:00010ba8       __vcrt_FlsGetValue         0000000180011ba8 f   libvcruntime:winapi_downlevel.obj
 0001:00010bf0       __vcrt_FlsSetValue         0000000180011bf0 f   libvcruntime:winapi_downlevel.obj
 0001:00010c44       __vcrt_InitializeCriticalSectionEx 0000000180011c44 f   libvcruntime:winapi_downlevel.obj
 0001:00010ca8       __vcrt_initialize_winapi_thunks 0000000180011ca8 f   libvcruntime:winapi_downlevel.obj
 0001:00010cd8       __vcrt_uninitialize_winapi_thunks 0000000180011cd8 f   libvcruntime:winapi_downlevel.obj
 0001:00010d30       _NLG_Notify                0000000180011d30 f   libvcruntime:_notify_.obj
 0001:00010d50       __NLG_Dispatch2            0000000180011d50 f   libvcruntime:_notify_.obj
 0001:00010d60       __NLG_Return2              0000000180011d60 f   libvcruntime:_notify_.obj
 0001:00010d64       __except_validate_context_record 0000000180011d64 f   libvcruntime:jbcxrval.obj
 0001:00010d9c       ?GetCurrentState@__FrameHandler3@@SAHPEA_KPEAU_xDISPATCHER_CONTEXT@@PEBU_s_FuncInfo@@@Z 0000000180011d9c f   libvcruntime:ehstate.obj
 0001:00010dc4       ?GetUnwindTryBlock@__FrameHandler3@@SAHPEA_KPEAU_xDISPATCHER_CONTEXT@@PEBU_s_FuncInfo@@@Z 0000000180011dc4 f   libvcruntime:ehstate.obj
 0001:00010df0       ?SetState@__FrameHandler3@@SAXPEA_KPEBU_s_FuncInfo@@H@Z 0000000180011df0 f   libvcruntime:ehstate.obj
 0001:00010dfc       ?SetUnwindTryBlock@__FrameHandler3@@SAXPEA_KPEAU_xDISPATCHER_CONTEXT@@PEBU_s_FuncInfo@@H@Z 0000000180011dfc f   libvcruntime:ehstate.obj
 0001:00010e38       ?StateFromControlPc@__FrameHandler3@@SAHPEBU_s_FuncInfo@@PEAU_xDISPATCHER_CONTEXT@@@Z 0000000180011e38 f   libvcruntime:ehstate.obj
 0001:00010e40       ?StateFromIp@__FrameHandler3@@SAHPEBU_s_FuncInfo@@PEAU_xDISPATCHER_CONTEXT@@_K@Z 0000000180011e40 f   libvcruntime:ehstate.obj
 0001:000118cc       ??$TypeMatchHelper@$$CBU_s_HandlerType@@@@YAHPEBU_s_HandlerType@@PEBU_s_CatchableType@@PEBU_s_ThrowInfo@@@Z 00000001800128cc f i libvcruntime:frame.obj
 0001:00011a10       ??$__InternalCxxFrameHandler@V__FrameHandler3@@@@YA?AW4_EXCEPTION_DISPOSITION@@PEAUEHExceptionRecord@@PEA_KPEAU_CONTEXT@@PEAU_xDISPATCHER_CONTEXT@@PEBU_s_FuncInfo@@H1E@Z 0000000180012a10 f i libvcruntime:frame.obj
 0001:00011c58       ??0bad_exception@std@@QEAA@AEBV01@@Z 0000000180012c58 f i libvcruntime:frame.obj
 0001:00011c98       ??0bad_exception@std@@QEAA@XZ 0000000180012c98 f i libvcruntime:frame.obj
 0001:00011cb8       ?CxxCallCatchBlock@__FrameHandler3@@SAPEAXPEAU_EXCEPTION_RECORD@@@Z 0000000180012cb8 f   libvcruntime:frame.obj
 0001:00011f2c       ?FrameUnwindToState@__FrameHandler3@@SAXPEA_KPEAU_xDISPATCHER_CONTEXT@@PEBU_s_FuncInfo@@H@Z 0000000180012f2c f   libvcruntime:frame.obj
 0001:000120c0       ?GetHandlerSearchState@__FrameHandler3@@SAHPEA_KPEAU_xDISPATCHER_CONTEXT@@PEBU_s_FuncInfo@@@Z 00000001800130c0 f i libvcruntime:frame.obj
 0001:000122c4       ?_CallMemberFunction1@@YAXQEAX00@Z 00000001800132c4 f i libvcruntime:frame.obj
 0001:000122d0       ?_CallMemberFunction2@@YAXQEAX00H@Z 00000001800132d0 f i libvcruntime:frame.obj
 0001:000122f0       _CallSettingFrame          00000001800132f0 f   libvcruntime:handlers.obj
 0001:00012340       _CallSettingFrameEncoded   0000000180013340 f   libvcruntime:handlers.obj
 0001:00012388       free                       0000000180013388 f   libucrt:free.obj
 0001:0001239c       __acrt_call_reportfault    000000018001339c f   libucrt:invalid_parameter.obj
 0001:000124f8       __acrt_initialize_invalid_parameter_handler 00000001800134f8 f   libucrt:invalid_parameter.obj
 0001:00012500       _invalid_parameter         0000000180013500 f   libucrt:invalid_parameter.obj
 0001:000125b0       _invalid_parameter_noinfo  00000001800135b0 f   libucrt:invalid_parameter.obj
 0001:000125d0       _invoke_watson             00000001800135d0 f   libucrt:invalid_parameter.obj
 0001:00012618       __acrt_errno_from_os_error 0000000180013618 f   libucrt:errno.obj
 0001:00012660       __acrt_errno_map_os_error  0000000180013660 f   libucrt:errno.obj
 0001:000126b0       __doserrno                 00000001800136b0 f   libucrt:errno.obj
 0001:000126d0       _errno                     00000001800136d0 f   libucrt:errno.obj
 0001:000126f0       calloc                     00000001800136f0 f   libucrt:calloc.obj
 0001:000126f8       malloc                     00000001800136f8 f   libucrt:malloc.obj
 0001:00012700       _recalloc                  0000000180013700 f   libucrt:recalloc.obj
 0001:00012708       _recalloc_base             0000000180013708 f   libucrt:recalloc.obj
 0001:000127a0       _resetstkoflw              00000001800137a0 f   libucrt:resetstk.obj
 0001:000128c4       wcscat_s                   00000001800138c4 f   libucrt:wcscat_s.obj
 0001:00012944       wcscpy_s                   0000000180013944 f   libucrt:wcscpy_s.obj
 0001:000129ac       wcsncpy_s                  00000001800139ac f   libucrt:wcsncpy_s.obj
 0001:00012c64       ??$ensure_buffer_is_big_enough@D@formatting_buffer@__crt_stdio_output@@QEAA_N_K@Z 0000000180013c64 f i libucrt:output.obj
 0001:00012d10       ??$is_wide_character_specifier@_W@__crt_stdio_output@@YA_N_K_WW4length_modifier@0@@Z 0000000180013d10 f i libucrt:output.obj
 0001:00012d54       ??$type_case_integer_parse_into_buffer@I@?$output_processor@_WV?$string_output_adapter@_W@__crt_stdio_output@@V?$format_validation_base@_WV?$string_output_adapter@_W@__crt_stdio_output@@@2@@__crt_stdio_output@@AEAAXII_N@Z 0000000180013d54 f i libucrt:output.obj
 0001:00012e00       ??$type_case_integer_parse_into_buffer@_K@?$output_processor@_WV?$string_output_adapter@_W@__crt_stdio_output@@V?$format_validation_base@_WV?$string_output_adapter@_W@__crt_stdio_output@@@2@@__crt_stdio_output@@AEAAX_KI_N@Z 0000000180013e00 f i libucrt:output.obj
 0001:00012eac       ??$write_multiple_characters@V?$string_output_adapter@_W@__crt_stdio_output@@D@__crt_stdio_output@@YAXAEBV?$string_output_adapter@_W@0@DHQEAH@Z 0000000180013eac f i libucrt:output.obj
 0001:00012f1c       ??0_LocaleUpdate@@QEAA@QEAU__crt_locale_pointers@@@Z 0000000180013f1c f i libucrt:output.obj
 0001:00012fac       ?force_decimal_point@__crt_stdio_output@@YAXPEADQEAU__crt_locale_pointers@@@Z 0000000180013fac f i libucrt:output.obj
 0001:0001301c       ?parse_int_from_format_string@?$output_processor@_WV?$string_output_adapter@_W@__crt_stdio_output@@V?$format_validation_base@_WV?$string_output_adapter@_W@__crt_stdio_output@@@2@@__crt_stdio_output@@AEAA_NQEAH@Z 000000018001401c f i libucrt:output.obj
 0001:000130c0       ?process@?$output_processor@_WV?$string_output_adapter@_W@__crt_stdio_output@@V?$format_validation_base@_WV?$string_output_adapter@_W@__crt_stdio_output@@@2@@__crt_stdio_output@@QEAAHXZ 00000001800140c0 f i libucrt:output.obj
 0001:0001334c       ?state_case_size@?$output_processor@_WV?$string_output_adapter@_W@__crt_stdio_output@@V?$format_validation_base@_WV?$string_output_adapter@_W@__crt_stdio_output@@@2@@__crt_stdio_output@@AEAA_NXZ 000000018001434c f i libucrt:output.obj
 0001:000134f0       ?state_case_type@?$output_processor@_WV?$string_output_adapter@_W@__crt_stdio_output@@V?$format_validation_base@_WV?$string_output_adapter@_W@__crt_stdio_output@@@2@@__crt_stdio_output@@AEAA_NXZ 00000001800144f0 f i libucrt:output.obj
 0001:000137bc       ?type_case_Z@?$output_processor@_WV?$string_output_adapter@_W@__crt_stdio_output@@V?$format_validation_base@_WV?$string_output_adapter@_W@__crt_stdio_output@@@2@@__crt_stdio_output@@AEAA_NXZ 00000001800147bc f i libucrt:output.obj
 0001:0001383c       ?type_case_a@?$output_processor@_WV?$string_output_adapter@_W@__crt_stdio_output@@V?$format_validation_base@_WV?$string_output_adapter@_W@__crt_stdio_output@@@2@@__crt_stdio_output@@AEAA_NXZ 000000018001483c f i libucrt:output.obj
 0001:00013a80       ?type_case_c_tchar@?$output_processor@_WV?$string_output_adapter@_W@__crt_stdio_output@@V?$format_validation_base@_WV?$string_output_adapter@_W@__crt_stdio_output@@@2@@__crt_stdio_output@@AEAA_N_W@Z 0000000180014a80 f i libucrt:output.obj
 0001:00013b28       ?type_case_integer@?$output_processor@_WV?$string_output_adapter@_W@__crt_stdio_output@@V?$format_validation_base@_WV?$string_output_adapter@_W@__crt_stdio_output@@@2@@__crt_stdio_output@@AEAA_NI_N@Z 0000000180014b28 f i libucrt:output.obj
 0001:00013cd4       ?type_case_n@?$output_processor@_WV?$string_output_adapter@_W@__crt_stdio_output@@V?$format_validation_base@_WV?$string_output_adapter@_W@__crt_stdio_output@@@2@@__crt_stdio_output@@AEAA_NXZ 0000000180014cd4 f i libucrt:output.obj
 0001:00013db0       ?type_case_s@?$output_processor@_WV?$string_output_adapter@_W@__crt_stdio_output@@V?$format_validation_base@_WV?$string_output_adapter@_W@__crt_stdio_output@@@2@@__crt_stdio_output@@AEAA_NXZ 0000000180014db0 f i libucrt:output.obj
 0001:00013e78       ?write_stored_string_tchar@?$output_processor@_WV?$string_output_adapter@_W@__crt_stdio_output@@V?$format_validation_base@_WV?$string_output_adapter@_W@__crt_stdio_output@@@2@@__crt_stdio_output@@AEAA_N_W@Z 0000000180014e78 f i libucrt:output.obj
 0001:00013f68       ?write_string@?$string_output_adapter@_W@__crt_stdio_output@@QEBAXQEB_WHQEAHAEAV__crt_deferred_errno_cache@@@Z 0000000180014f68 f i libucrt:output.obj
 0001:00014010       __stdio_common_vswprintf_s 0000000180015010 f   libucrt:output.obj
 0001:00014080       _seh_filter_dll            0000000180015080 f   libucrt:exception_filter.obj
 0001:00014094       _seh_filter_exe            0000000180015094 f   libucrt:exception_filter.obj
 0001:00014220       ??$?RV<lambda_d80eeec6fff315bfe5c115232f3240e3>@@AEAV<lambda_6e4b09c48022b2350581041d5f6b0c4c>@@V<lambda_2358e3775559c9db80273638284d5e45>@@@?$__crt_seh_guarded_call@X@@QEAAX$$QEAV<lambda_d80eeec6fff315bfe5c115232f3240e3>@@AEAV<lambda_6e4b09c48022b2350581041d5f6b0c4c>@@$$QEAV<lambda_2358e3775559c9db80273638284d5e45>@@@Z 0000000180015220 f i libucrt:exit.obj
 0001:000144a0       __acrt_initialize_thread_local_exit_callback 00000001800154a0 f   libucrt:exit.obj
 0001:000144a8       _cexit                     00000001800154a8 f   libucrt:exit.obj
 0001:000144b8       _exit                      00000001800154b8 f   libucrt:exit.obj
 0001:000144c4       _is_c_termination_complete 00000001800154c4 f   libucrt:exit.obj
 0001:00014688       __acrt_allocate_buffer_for_argv 0000000180015688 f   libucrt:argv_parsing.obj
 0001:000146ec       _configure_narrow_argv     00000001800156ec f   libucrt:argv_parsing.obj
 0001:00014a58       __dcrt_uninitialize_environments_nolock 0000000180015a58 f   libucrt:environment_initialization.obj
 0001:00014a90       _initialize_narrow_environment 0000000180015a90 f   libucrt:environment_initialization.obj
 0001:00014a98       ??$?RV<lambda_638799b9deba96c50f710eeac98168cd>@@AEAV<lambda_22ebabd17bc4fa466a2aca6d8deb888d>@@V<lambda_a6f7d7db0129f75315ebf26d50c089f1>@@@?$__crt_seh_guarded_call@H@@QEAAH$$QEAV<lambda_638799b9deba96c50f710eeac98168cd>@@AEAV<lambda_22ebabd17bc4fa466a2aca6d8deb888d>@@$$QEAV<lambda_a6f7d7db0129f75315ebf26d50c089f1>@@@Z 0000000180015a98 f i libucrt:onexit.obj
 0001:00014ad4       ??$?RV<lambda_7777bce6b2f8c936911f934f8298dc43>@@AEAV<lambda_f03950bc5685219e0bcd2087efbe011e>@@V<lambda_3883c3dff614d5e0c5f61bb1ac94921c>@@@?$__crt_seh_guarded_call@H@@QEAAH$$QEAV<lambda_7777bce6b2f8c936911f934f8298dc43>@@AEAV<lambda_f03950bc5685219e0bcd2087efbe011e>@@$$QEAV<lambda_3883c3dff614d5e0c5f61bb1ac94921c>@@@Z 0000000180015ad4 f i libucrt:onexit.obj
 0001:00014e38       _crt_atexit                0000000180015e38 f   libucrt:onexit.obj
 0001:00014e48       _execute_onexit_table      0000000180015e48 f   libucrt:onexit.obj
 0001:00014e84       _initialize_onexit_table   0000000180015e84 f   libucrt:onexit.obj
 0001:00014ec4       _register_onexit_function  0000000180015ec4 f   libucrt:onexit.obj
 0001:00014f44       __acrt_uninitialize_command_line 0000000180015f44 f   libucrt:argv_data.obj
 0001:00015020       ??$uninitialize@V<lambda_af42a3ee9806e9a7305d451646e05244>@@@?$dual_state_global@PEAU__crt_multibyte_data@@@__crt_state_management@@QEAAX$$QEAV<lambda_af42a3ee9806e9a7305d451646e05244>@@@Z 0000000180016020 f i libucrt:initialization.obj
 0001:000150a0       __acrt_initialize          00000001800160a0 f   libucrt:initialization.obj
 0001:000150b4       __acrt_thread_attach       00000001800160b4 f   libucrt:initialization.obj
 0001:000150c8       __acrt_thread_detach       00000001800160c8 f   libucrt:initialization.obj
 0001:000150d8       __acrt_uninitialize        00000001800160d8 f   libucrt:initialization.obj
 0001:000150ec       __acrt_uninitialize_critical 00000001800160ec f   libucrt:initialization.obj
 0001:000150fc       _initterm                  00000001800160fc f   libucrt:initterm.obj
 0001:00015160       _initterm_e                0000000180016160 f   libucrt:initterm.obj
 0001:000151a0       __acrt_initialize_new_handler 00000001800161a0 f   libucrt:new_handler.obj
 0001:000151a8       _callnewh                  00000001800161a8 f   libucrt:new_handler.obj
 0001:000151d8       _query_new_handler         00000001800161d8 f   libucrt:new_handler.obj
 0001:0001520c       terminate                  000000018001620c f   libucrt:terminate.obj
 0001:0001522c       abort                      000000018001622c f   libucrt:abort.obj
 0001:00015284       strcpy_s                   0000000180016284 f   libucrt:strcpy_s.obj
 0001:000152e4       wcsncmp                    00000001800162e4 f   libucrt:wcsncmp.obj
 0001:00015310       ??$is_overflow_condition@K@__crt_strtox@@YA_NIK@Z 0000000180016310 f i libucrt:atox.obj
 0001:0001533c       ??$parse_integer@KV?$c_string_character_source@_W@__crt_strtox@@@__crt_strtox@@YAKQEAU__crt_locale_pointers@@V?$c_string_character_source@_W@0@H_N@Z 000000018001633c f i libucrt:atox.obj
 0001:00015a20       strncmp                    0000000180016a20 f   libucrt:strncmp.obj
 0001:00015aa0       _free_base                 0000000180016aa0 f   libucrt:free_base.obj
 0001:00015ae0       ??$?RV<lambda_0ae27a3a962d80f24befdcbee591983d>@@AEAV<lambda_8d0ee55de4b1038c4002e0adecdf1839>@@V<lambda_dc504788e8f1664fe9b84e20bfb512f2>@@@?$__crt_seh_guarded_call@X@@QEAAX$$QEAV<lambda_0ae27a3a962d80f24befdcbee591983d>@@AEAV<lambda_8d0ee55de4b1038c4002e0adecdf1839>@@$$QEAV<lambda_dc504788e8f1664fe9b84e20bfb512f2>@@@Z 0000000180016ae0 f i libucrt:per_thread_data.obj
 0001:00015b20       ??$?RV<lambda_2d41944a1d46af3157314b8a01080d33>@@AEAV<lambda_8f455de75cd7d7f24b4096f044d8b9e6>@@V<lambda_aa500f224e6afead328df44964fe2772>@@@?$__crt_seh_guarded_call@X@@QEAAX$$QEAV<lambda_2d41944a1d46af3157314b8a01080d33>@@AEAV<lambda_8f455de75cd7d7f24b4096f044d8b9e6>@@$$QEAV<lambda_aa500f224e6afead328df44964fe2772>@@@Z 0000000180016b20 f i libucrt:per_thread_data.obj
 0001:00015b60       ??$?RV<lambda_aa87e3671a710a21b5dc78c0bdf72e11>@@AEAV<lambda_92619d2358a28f41a33ba319515a20b9>@@V<lambda_6992ecaafeb10aed2b74cb1fae11a551>@@@?$__crt_seh_guarded_call@X@@QEAAX$$QEAV<lambda_aa87e3671a710a21b5dc78c0bdf72e11>@@AEAV<lambda_92619d2358a28f41a33ba319515a20b9>@@$$QEAV<lambda_6992ecaafeb10aed2b74cb1fae11a551>@@@Z 0000000180016b60 f i libucrt:per_thread_data.obj
 0001:00015ba8       ??$?RV<lambda_f2e299630e499de9f9a165e60fcd3db5>@@AEAV<lambda_2ae9d31cdba2644fcbeaf08da7c24588>@@V<lambda_40d01ff24d0e7b3814fdbdcee8eab3c7>@@@?$__crt_seh_guarded_call@X@@QEAAX$$QEAV<lambda_f2e299630e499de9f9a165e60fcd3db5>@@AEAV<lambda_2ae9d31cdba2644fcbeaf08da7c24588>@@$$QEAV<lambda_40d01ff24d0e7b3814fdbdcee8eab3c7>@@@Z 0000000180016ba8 f i libucrt:per_thread_data.obj
 0001:00015e58       __acrt_freeptd             0000000180016e58 f   libucrt:per_thread_data.obj
 0001:00015e9c       __acrt_getptd              0000000180016e9c f   libucrt:per_thread_data.obj
 0001:00015f68       __acrt_getptd_head         0000000180016f68 f   libucrt:per_thread_data.obj
 0001:00016010       __acrt_getptd_noexit       0000000180017010 f   libucrt:per_thread_data.obj
 0001:000160e0       __acrt_initialize_ptd      00000001800170e0 f   libucrt:per_thread_data.obj
 0001:0001611c       __acrt_uninitialize_ptd    000000018001711c f   libucrt:per_thread_data.obj
 0001:00016140       _calloc_base               0000000180017140 f   libucrt:calloc_base.obj
 0001:000161b8       _malloc_base               00000001800171b8 f   libucrt:malloc_base.obj
 0001:00016218       _msize                     0000000180017218 f   libucrt:msize.obj
 0001:00016220       _msize_base                0000000180017220 f   libucrt:msize.obj
 0001:0001625c       _realloc_base              000000018001725c f   libucrt:realloc_base.obj
 0001:000164b8       __acrt_AppPolicyGetProcessTerminationMethodInternal 00000001800174b8 f   libucrt:winapi_thunks.obj
 0001:00016508       __acrt_FlsAlloc            0000000180017508 f   libucrt:winapi_thunks.obj
 0001:00016550       __acrt_FlsFree             0000000180017550 f   libucrt:winapi_thunks.obj
 0001:00016598       __acrt_FlsGetValue         0000000180017598 f   libucrt:winapi_thunks.obj
 0001:000165e0       __acrt_FlsSetValue         00000001800175e0 f   libucrt:winapi_thunks.obj
 0001:00016634       __acrt_InitializeCriticalSectionEx 0000000180017634 f   libucrt:winapi_thunks.obj
 0001:00016698       __acrt_LCMapStringEx       0000000180017698 f   libucrt:winapi_thunks.obj
 0001:00016774       __acrt_LocaleNameToLCID    0000000180017774 f   libucrt:winapi_thunks.obj
 0001:000167c4       __acrt_SetThreadStackGuarantee 00000001800177c4 f   libucrt:winapi_thunks.obj
 0001:00016808       __acrt_initialize_winapi_thunks 0000000180017808 f   libucrt:winapi_thunks.obj
 0001:00016840       __acrt_uninitialize_winapi_thunks 0000000180017840 f   libucrt:winapi_thunks.obj
 0001:00016884       isdigit                    0000000180017884 f i libucrt:_ctype.obj
 0001:00016948       _tolower_l                 0000000180017948 f   libucrt:tolower_toupper.obj
 0001:00016a88       tolower                    0000000180017a88 f   libucrt:tolower_toupper.obj
 0001:00016ab4       ??$make_c_string_character_source@_WPEAPEA_W@__crt_strtox@@YA?AV?$c_string_character_source@_W@0@QEB_WQEAPEA_W@Z 0000000180017ab4 f i libucrt:strtox.obj
 0001:00016ac8       wcstol                     0000000180017ac8 f   libucrt:strtox.obj
 0001:00016af8       _mbtowc_l                  0000000180017af8 f   libucrt:mbtowc.obj
 0001:00016c40       mbtowc                     0000000180017c40 f   libucrt:mbtowc.obj
 0001:00016c48       wcsnlen                    0000000180017c48 f   libucrt:strnlen.obj
 0001:00016e40       __acrt_update_locale_info  0000000180017e40 f   libucrt:locale_update.obj
 0001:00016e74       __acrt_update_multibyte_info 0000000180017e74 f   libucrt:locale_update.obj
 0001:00016ea8       ?__acrt_fp_classify@@YA?AW4__acrt_fp_class@@AEBN@Z 0000000180017ea8 f i libucrt:cvt.obj
 0001:000178e0       __acrt_fp_format           00000001800188e0 f   libucrt:cvt.obj
 0001:00017b24       _fileno                    0000000180018b24 f   libucrt:fileno.obj
 0001:00017b4c       __acrt_initialize_stdio    0000000180018b4c f   libucrt:_file.obj
 0001:00017c6c       __acrt_uninitialize_stdio  0000000180018c6c f   libucrt:_file.obj
 0001:00017cc8       _lock_file                 0000000180018cc8 f   libucrt:_file.obj
 0001:00017cd4       _unlock_file               0000000180018cd4 f   libucrt:_file.obj
 0001:00017ce0       _get_printf_count_output   0000000180018ce0 f   libucrt:printf_count_output.obj
 0001:00017cf8       ??$?RV<lambda_410d79af7f07d98d83a3f525b3859a53>@@AEAV<lambda_3e16ef9562a7dcce91392c22ab16ea36>@@V<lambda_38119f0e861e05405d8a144b9b982f0a>@@@?$__crt_seh_guarded_call@X@@QEAAX$$QEAV<lambda_410d79af7f07d98d83a3f525b3859a53>@@AEAV<lambda_3e16ef9562a7dcce91392c22ab16ea36>@@$$QEAV<lambda_38119f0e861e05405d8a144b9b982f0a>@@@Z 0000000180018cf8 f i libucrt:wsetlocale.obj
 0001:00017d68       __acrt_set_locale_changed  0000000180018d68 f   libucrt:wsetlocale.obj
 0001:00017d74       __acrt_uninitialize_locale 0000000180018d74 f   libucrt:wsetlocale.obj
 0001:00017f8c       __acrt_initialize_lowio    0000000180018f8c f   libucrt:ioinit.obj
 0001:00017fc8       __acrt_uninitialize_lowio  0000000180018fc8 f   libucrt:ioinit.obj
 0001:00018008       __acrt_initialize_locks    0000000180019008 f   libucrt:locks.obj
 0001:00018050       __acrt_lock                0000000180019050 f   libucrt:locks.obj
 0001:0001806c       __acrt_uninitialize_locks  000000018001906c f   libucrt:locks.obj
 0001:000180a4       __acrt_unlock              00000001800190a4 f   libucrt:locks.obj
 0001:000180c0       __acrt_get_process_end_policy 00000001800190c0 f   libucrt:win_policies.obj
 0001:0001864c       __acrt_expand_narrow_argv_wildcards 000000018001964c f   libucrt:argv_wildcards.obj
 0001:00018654       ??$?RV<lambda_efdfa57d1f175319df784efa44bb7b81>@@AEAV<lambda_5f0a4c1567f8adc6734073e5d1e1b35c>@@V<lambda_2e8a7d3640ea6ccb4c2413664c2db6fd>@@@?$__crt_seh_guarded_call@X@@QEAAX$$QEAV<lambda_efdfa57d1f175319df784efa44bb7b81>@@AEAV<lambda_5f0a4c1567f8adc6734073e5d1e1b35c>@@$$QEAV<lambda_2e8a7d3640ea6ccb4c2413664c2db6fd>@@@Z 0000000180019654 f i libucrt:mbctype.obj
 0001:00018d8c       __acrt_initialize_multibyte 0000000180019d8c f   libucrt:mbctype.obj
 0001:00018dec       __acrt_update_thread_multibyte_data 0000000180019dec f   libucrt:mbctype.obj
 0001:00018e08       _setmbcp_nolock            0000000180019e08 f   libucrt:mbctype.obj
 0001:00019128       _ismbblead                 000000018001a128 f   libucrt:ismbbyte.obj
 0001:0001913c       __acrt_initialize_command_line 000000018001a13c f   libucrt:argv_data.obj
 0001:00019164       __dcrt_get_narrow_environment_from_os 000000018001a164 f   libucrt:get_environment_from_os.obj
 0001:00019268       __acrt_initialize_heap     000000018001a268 f   libucrt:heap_handle.obj
 0001:00019284       __acrt_uninitialize_heap   000000018001a284 f   libucrt:heap_handle.obj
 0001:00019290       __acrt_execute_initializers 000000018001a290 f   libucrt:shared_initialization.obj
 0001:00019310       __acrt_execute_uninitializers 000000018001a310 f   libucrt:shared_initialization.obj
 0001:00019350       ??$?RV<lambda_450d765d439847d4c735a33c368b5fc0>@@AEAV<lambda_44731a7d0e6d81c3e6aa82d741081786>@@V<lambda_601a2a7da3b7a96e9554ac7215c4b07c>@@@?$__crt_seh_guarded_call@P6AXH@Z@@QEAAP6AXH@Z$$QEAV<lambda_450d765d439847d4c735a33c368b5fc0>@@AEAV<lambda_44731a7d0e6d81c3e6aa82d741081786>@@$$QEAV<lambda_601a2a7da3b7a96e9554ac7215c4b07c>@@@Z 000000018001a350 f i libucrt:signal.obj
 0001:00019398       __acrt_get_sigabrt_handler 000000018001a398 f   libucrt:signal.obj
 0001:000193c8       __acrt_initialize_signal_handlers 000000018001a3c8 f   libucrt:signal.obj
 0001:000193e8       raise                      000000018001a3e8 f   libucrt:signal.obj
 0001:0001967c       __acrt_has_user_matherr    000000018001a67c f   libucrt:matherr.obj
 0001:0001969c       __acrt_initialize_user_matherr 000000018001a69c f   libucrt:matherr.obj
 0001:000196a4       __acrt_invoke_user_matherr 000000018001a6a4 f   libucrt:matherr.obj
 0001:000196d4       __pctype_func              000000018001a6d4 f   libucrt:ctype.obj
 0001:00019704       iswctype                   000000018001a704 f   libucrt:iswctype.obj
 0001:00019774       _isctype_l                 000000018001a774 f   libucrt:isctype.obj
 0001:00019884       __acrt_add_locale_ref      000000018001a884 f   libucrt:locale_refcounting.obj
 0001:00019910       __acrt_free_locale         000000018001a910 f   libucrt:locale_refcounting.obj
 0001:00019a88       __acrt_locale_add_lc_time_reference 000000018001aa88 f   libucrt:locale_refcounting.obj
 0001:00019ab0       __acrt_locale_free_lc_time_if_unreferenced 000000018001aab0 f   libucrt:locale_refcounting.obj
 0001:00019ae8       __acrt_locale_release_lc_time_reference 000000018001aae8 f   libucrt:locale_refcounting.obj
 0001:00019b10       __acrt_release_locale_ref  000000018001ab10 f   libucrt:locale_refcounting.obj
 0001:00019bb8       __acrt_update_thread_locale_data 000000018001abb8 f   libucrt:locale_refcounting.obj
 0001:00019c28       _updatetlocinfoEx_nolock   000000018001ac28 f   libucrt:locale_refcounting.obj
 0001:00019c90       _query_new_mode            000000018001ac90 f   libucrt:new_mode.obj
 0001:00019d60       __acrt_DownlevelLocaleNameToLCID 000000018001ad60 f   libucrt:lcidtoname_downlevel.obj
 0001:00019d94       _isleadbyte_l              000000018001ad94 f i libucrt:_wctype.obj
 0001:0001a130       __acrt_LCMapStringA        000000018001b130 f   libucrt:lcmapstringa.obj
 0001:0001a1c8       __acrt_fp_strflt_to_string 000000018001b1c8 f   libucrt:_fptostr.obj
 0001:0001a290       ?divide@__crt_strtox@@YA_KAEAUbig_integer@1@AEBU21@@Z 000000018001b290 f i libucrt:cfout.obj
 0001:0001a760       __acrt_fltout              000000018001b760 f   libucrt:cfout.obj
 0001:0001bb08       _fcloseall                 000000018001cb08 f   libucrt:closeall.obj
 0001:0001bbbc       ??$?RV<lambda_842d9ff0dc9ef11c61343bbaebe7f885>@@AEAV<lambda_c5860995281e5c4ce005b3de8f5874ee>@@V<lambda_d90129c13df834fdcbf8d2b88dafcf2d>@@@?$__crt_seh_guarded_call@X@@QEAAX$$QEAV<lambda_842d9ff0dc9ef11c61343bbaebe7f885>@@AEAV<lambda_c5860995281e5c4ce005b3de8f5874ee>@@$$QEAV<lambda_d90129c13df834fdcbf8d2b88dafcf2d>@@@Z 000000018001cbbc f i libucrt:fflush.obj
 0001:0001bc58       ??$?RV<lambda_886d6c58226a84441f68b9f2b8217b83>@@AEAV<lambda_ab61a845afdef5b7c387490eaf3616ee>@@V<lambda_f7f22ab5edc0698d5f6905b0d3f44752>@@@?$__crt_seh_guarded_call@X@@QEAAX$$QEAV<lambda_886d6c58226a84441f68b9f2b8217b83>@@AEAV<lambda_ab61a845afdef5b7c387490eaf3616ee>@@$$QEAV<lambda_f7f22ab5edc0698d5f6905b0d3f44752>@@@Z 000000018001cc58 f i libucrt:fflush.obj
 0001:0001bda0       __acrt_stdio_flush_nolock  000000018001cda0 f   libucrt:fflush.obj
 0001:0001be1c       _fflush_nolock             000000018001ce1c f   libucrt:fflush.obj
 0001:0001be68       _flushall                  000000018001ce68 f   libucrt:fflush.obj
 0001:0001be70       __acrt_stdio_free_buffer_nolock 000000018001ce70 f   libucrt:_freebuf.obj
 0001:0001beb0       _isatty                    000000018001ceb0 f   libucrt:isatty.obj
 0001:0001bf10       __acrt_locale_free_monetary 000000018001cf10 f   libucrt:initmon.obj
 0001:0001c01c       __acrt_locale_free_numeric 000000018001d01c f   libucrt:initnum.obj
 0001:0001c0e0       __acrt_locale_free_time    000000018001d0e0 f   libucrt:inittime.obj
 0001:0001c1e8       __acrt_GetStringTypeA      000000018001d1e8 f   libucrt:getstringtypea.obj
 0001:0001c39c       __acrt_lowio_create_handle_array 000000018001d39c f   libucrt:osfinfo.obj
 0001:0001c434       __acrt_lowio_destroy_handle_array 000000018001d434 f   libucrt:osfinfo.obj
 0001:0001c484       __acrt_lowio_ensure_fh_exists 000000018001d484 f   libucrt:osfinfo.obj
 0001:0001c53c       __acrt_lowio_lock_fh       000000018001d53c f   libucrt:osfinfo.obj
 0001:0001c560       __acrt_lowio_unlock_fh     000000018001d560 f   libucrt:osfinfo.obj
 0001:0001c584       _free_osfhnd               000000018001d584 f   libucrt:osfinfo.obj
 0001:0001c640       _get_osfhandle             000000018001d640 f   libucrt:osfinfo.obj
 0001:0001c780       qsort                      000000018001d780 f   libucrt:qsort.obj
 0001:0001caa0       strncpy_s                  000000018001daa0 f   libucrt:strncpy_s.obj
 0001:0001cb74       strpbrk                    000000018001db74 f   libucrt:strpbrk.obj
 0001:0001cc14       _mbsdec                    000000018001dc14 f   libucrt:mbsdec.obj
 0001:0001cc1c       _mbsdec_l                  000000018001dc1c f   libucrt:mbsdec.obj
 0001:0001cccc       __strncnt                  000000018001dccc f   libucrt:strncnt.obj
 0001:0001cce4       fegetenv                   000000018001dce4 f   libucrt:fegetenv.obj
 0001:0001cd04       fesetenv                   000000018001dd04 f   libucrt:fesetenv.obj
 0001:0001cd50       feholdexcept               000000018001dd50 f   libucrt:feholdexcept.obj
 0001:0001cda0       ceil                       000000018001dda0 f   libucrt:ceil.obj
 0001:0001ce70       log10                      000000018001de70 f   libucrt:log10.obj
 0001:0001d9d8       _write                     000000018001e9d8 f   libucrt:write.obj
 0001:0001dac4       _write_nolock              000000018001eac4 f   libucrt:write.obj
 0001:0001de5c       _lseeki64_nolock           000000018001ee5c f   libucrt:lseek.obj
 0001:0001de64       _fclose_nolock             000000018001ee64 f   libucrt:fclose.obj
 0001:0001dee8       fclose                     000000018001eee8 f   libucrt:fclose.obj
 0001:0001df54       ??$?RV<lambda_a37b2b86f63e897a80ea819b0eb08c01>@@AEAV<lambda_38ce7e780aa69e748d6df282ebc68efe>@@V<lambda_99fb1378e971ab6e7edea83e3a7a83a2>@@@?$__crt_seh_guarded_call@H@@QEAAH$$QEAV<lambda_a37b2b86f63e897a80ea819b0eb08c01>@@AEAV<lambda_38ce7e780aa69e748d6df282ebc68efe>@@$$QEAV<lambda_99fb1378e971ab6e7edea83e3a7a83a2>@@@Z 000000018001ef54 f i libucrt:commit.obj
 0001:0001dfe0       _commit                    000000018001efe0 f   libucrt:commit.obj
 0001:0001e074       _query_app_type            000000018001f074 f   libucrt:report_runtime_error.obj
 0001:0001e07c       _getfpcontrolword          000000018001f07c f   libucrt:_fenvutils.obj
 0001:0001e094       _getfpstatusword           000000018001f094 f   libucrt:_fenvutils.obj
 0001:0001e0a8       _setfpcontrolword          000000018001f0a8 f   libucrt:_fenvutils.obj
 0001:0001e0b4       _setfpstatusword           000000018001f0b4 f   libucrt:_fenvutils.obj
 0001:0001e100       _clearfp                   000000018001f100 f   libucrt:ieee.obj
 0001:0001e150       _controlfp                 000000018001f150 f   libucrt:ieee.obj
 0001:0001e15c       _statusfp                  000000018001f15c f   libucrt:ieee.obj
 0001:0001e554       _handle_error              000000018001f554 f   libucrt:libm_error.obj
 0001:0001e67c       _handle_nan                000000018001f67c f   libucrt:libm_error.obj
 0001:0001e6a0       __acrt_initialize_fma3     000000018001f6a0 f   libucrt:fma3_available.obj
 0001:0001e710       _log10_special             000000018001f710 f   libucrt:log_special.obj
 0001:0001e7c8       _putwch_nolock             000000018001f7c8 f   libucrt:putwch.obj
 0001:0001e824       ??$?RV<lambda_751a882b2c74d4b022dec766aa51a29a>@@AEAV<lambda_628dfdc04ba53c8bfc02c9951375f3f5>@@V<lambda_f6c7be5f7998530c34de24c7437d6b54>@@@?$__crt_seh_guarded_call@H@@QEAAH$$QEAV<lambda_751a882b2c74d4b022dec766aa51a29a>@@AEAV<lambda_628dfdc04ba53c8bfc02c9951375f3f5>@@$$QEAV<lambda_f6c7be5f7998530c34de24c7437d6b54>@@@Z 000000018001f824 f i libucrt:close.obj
 0001:0001e898       _close                     000000018001f898 f   libucrt:close.obj
 0001:0001e93c       _close_nolock              000000018001f93c f   libucrt:close.obj
 0001:0001e9f8       ?__acrt_stdio_free_stream@@YAXV__crt_stdio_stream@@@Z 000000018001f9f8 f   libucrt:stream.obj
 0001:0001ea50       _get_fpsr                  000000018001fa50 f   libucrt:fpsr.obj
 0001:0001ea60       _set_fpsr                  000000018001fa60 f   libucrt:fpsr.obj
 0001:0001ea6a       _fclrf                     000000018001fa6a f   libucrt:fpsr.obj
 0001:0001ea7e       _frnd                      000000018001fa7e f   libucrt:fpsr.obj
 0001:0001eaa0       _raise_exc                 000000018001faa0 f   libucrt:fpexcept.obj
 0001:0001eac8       _raise_exc_ex              000000018001fac8 f   libucrt:fpexcept.obj
 0001:0001edd0       _set_errno_from_matherr    000000018001fdd0 f   libucrt:fpexcept.obj
 0001:0001ee00       _clrfp                     000000018001fe00 f   libucrt:fpctrl.obj
 0001:0001ee20       _ctrlfp                    000000018001fe20 f   libucrt:fpctrl.obj
 0001:0001ee9c       _set_statfp                000000018001fe9c f   libucrt:fpctrl.obj
 0001:0001eebc       _statfp                    000000018001febc f   libucrt:fpctrl.obj
 0001:0001eed0       __dcrt_lowio_initialize_console_output 000000018001fed0 f   libucrt:initcon.obj
 0001:0001ef0c       __dcrt_terminate_console_output 000000018001ff0c f   libucrt:initcon.obj
 0001:0001ef2c       IsProcessorFeaturePresent  000000018001ff2c f   kernel32:KERNEL32.dll
 0001:0001ef40       _FindPESection             000000018001ff40 f   LIBCMT:pesect.obj
 0001:0001ef90       _IsNonwritableInCurrentImage 000000018001ff90 f   LIBCMT:pesect.obj
 0001:0001efe0       _ValidateImageBase         000000018001ffe0 f   LIBCMT:pesect.obj
 0001:0001f010       strrchr                    0000000180020010 f   libvcruntime:strrchr.obj
 0001:0001f170       _guard_dispatch_icall_nop  0000000180020170 f   LIBCMT:_guard_dispatch_.obj
 0002:00000000       __imp_RegQueryValueExW     0000000180021000     advapi32:ADVAPI32.dll
 0002:00000008       __imp_RegSetValueExW       0000000180021008     advapi32:ADVAPI32.dll
 0002:00000010       __imp_RegQueryInfoKeyW     0000000180021010     advapi32:ADVAPI32.dll
 0002:00000018       __imp_RegOpenKeyExW        0000000180021018     advapi32:ADVAPI32.dll
 0002:00000020       __imp_RegEnumKeyExW        0000000180021020     advapi32:ADVAPI32.dll
 0002:00000028       __imp_RegDeleteValueW      0000000180021028     advapi32:ADVAPI32.dll
 0002:00000030       __imp_RegDeleteKeyW        0000000180021030     advapi32:ADVAPI32.dll
 0002:00000038       __imp_RegCreateKeyExW      0000000180021038     advapi32:ADVAPI32.dll
 0002:00000040       __imp_RegCloseKey          0000000180021040     advapi32:ADVAPI32.dll
 0002:00000048       \177ADVAPI32_NULL_THUNK_DATA 0000000180021048     advapi32:ADVAPI32.dll
 0002:00000050       __imp_GetObjectW           0000000180021050     gdi32:GDI32.dll
 0002:00000058       __imp_SelectObject         0000000180021058     gdi32:GDI32.dll
 0002:00000060       __imp_DeleteObject         0000000180021060     gdi32:GDI32.dll
 0002:00000068       __imp_CreateCompatibleDC   0000000180021068     gdi32:GDI32.dll
 0002:00000070       __imp_BitBlt               0000000180021070     gdi32:GDI32.dll
 0002:00000078       __imp_SetWindowOrgEx       0000000180021078     gdi32:GDI32.dll
 0002:00000080       __imp_SetWindowExtEx       0000000180021080     gdi32:GDI32.dll
 0002:00000088       __imp_SetViewportOrgEx     0000000180021088     gdi32:GDI32.dll
 0002:00000090       __imp_LPtoDP               0000000180021090     gdi32:GDI32.dll
 0002:00000098       __imp_SetMapMode           0000000180021098     gdi32:GDI32.dll
 0002:000000a0       __imp_SaveDC               00000001800210a0     gdi32:GDI32.dll
 0002:000000a8       __imp_RestoreDC            00000001800210a8     gdi32:GDI32.dll
 0002:000000b0       __imp_GetDeviceCaps        00000001800210b0     gdi32:GDI32.dll
 0002:000000b8       __imp_DeleteMetaFile       00000001800210b8     gdi32:GDI32.dll
 0002:000000c0       __imp_DeleteDC             00000001800210c0     gdi32:GDI32.dll
 0002:000000c8       __imp_CreateRectRgnIndirect 00000001800210c8     gdi32:GDI32.dll
 0002:000000d0       __imp_CreateMetaFileW      00000001800210d0     gdi32:GDI32.dll
 0002:000000d8       __imp_CreateDCW            00000001800210d8     gdi32:GDI32.dll
 0002:000000e0       __imp_CloseMetaFile        00000001800210e0     gdi32:GDI32.dll
 0002:000000e8       \177GDI32_NULL_THUNK_DATA  00000001800210e8     gdi32:GDI32.dll
 0002:000000f0       __imp_CloseHandle          00000001800210f0     kernel32:KERNEL32.dll
 0002:000000f8       __imp_SetEvent             00000001800210f8     kernel32:KERNEL32.dll
 0002:00000100       __imp_CreateMutexW         0000000180021100     kernel32:KERNEL32.dll
 0002:00000108       __imp_CreateEventW         0000000180021108     kernel32:KERNEL32.dll
 0002:00000110       __imp_GetCurrentProcessId  0000000180021110     kernel32:KERNEL32.dll
 0002:00000118       __imp_CreateFileW          0000000180021118     kernel32:KERNEL32.dll
 0002:00000120       __imp_WriteConsoleW        0000000180021120     kernel32:KERNEL32.dll
 0002:00000128       __imp_FlushFileBuffers     0000000180021128     kernel32:KERNEL32.dll
 0002:00000130       __imp_SetFilePointerEx     0000000180021130     kernel32:KERNEL32.dll
 0002:00000138       __imp_GetConsoleMode       0000000180021138     kernel32:KERNEL32.dll
 0002:00000140       __imp_GetConsoleCP         0000000180021140     kernel32:KERNEL32.dll
 0002:00000148       __imp_WriteFile            0000000180021148     kernel32:KERNEL32.dll
 0002:00000150       __imp_SetStdHandle         0000000180021150     kernel32:KERNEL32.dll
 0002:00000158       __imp_GetStringTypeW       0000000180021158     kernel32:KERNEL32.dll
 0002:00000160       __imp_FreeEnvironmentStringsW 0000000180021160     kernel32:KERNEL32.dll
 0002:00000168       __imp_GetEnvironmentStringsW 0000000180021168     kernel32:KERNEL32.dll
 0002:00000170       __imp_lstrcmpiW            0000000180021170     kernel32:KERNEL32.dll
 0002:00000178       __imp_GetCommandLineA      0000000180021178     kernel32:KERNEL32.dll
 0002:00000180       __imp_GetCPInfo            0000000180021180     kernel32:KERNEL32.dll
 0002:00000188       __imp_GetOEMCP             0000000180021188     kernel32:KERNEL32.dll
 0002:00000190       __imp_IsValidCodePage      0000000180021190     kernel32:KERNEL32.dll
 0002:00000198       __imp_FindNextFileA        0000000180021198     kernel32:KERNEL32.dll
 0002:000001a0       __imp_FindFirstFileExA     00000001800211a0     kernel32:KERNEL32.dll
 0002:000001a8       __imp_FindClose            00000001800211a8     kernel32:KERNEL32.dll
 0002:000001b0       __imp_GetFileType          00000001800211b0     kernel32:KERNEL32.dll
 0002:000001b8       __imp_GetStdHandle         00000001800211b8     kernel32:KERNEL32.dll
 0002:000001c0       __imp_GetACP               00000001800211c0     kernel32:KERNEL32.dll
 0002:000001c8       __imp_LCMapStringW         00000001800211c8     kernel32:KERNEL32.dll
 0002:000001d0       __imp_HeapReAlloc          00000001800211d0     kernel32:KERNEL32.dll
 0002:000001d8       __imp_MulDiv               00000001800211d8     kernel32:KERNEL32.dll
 0002:000001e0       __imp_GlobalUnlock         00000001800211e0     kernel32:KERNEL32.dll
 0002:000001e8       __imp_GlobalLock           00000001800211e8     kernel32:KERNEL32.dll
 0002:000001f0       __imp_GlobalAlloc          00000001800211f0     kernel32:KERNEL32.dll
 0002:000001f8       __imp_FindResourceW        00000001800211f8     kernel32:KERNEL32.dll
 0002:00000200       __imp_SizeofResource       0000000180021200     kernel32:KERNEL32.dll
 0002:00000208       __imp_LoadResource         0000000180021208     kernel32:KERNEL32.dll
 0002:00000210       __imp_LoadLibraryExW       0000000180021210     kernel32:KERNEL32.dll
 0002:00000218       __imp_GetProcAddress       0000000180021218     kernel32:KERNEL32.dll
 0002:00000220       __imp_GetModuleHandleW     0000000180021220     kernel32:KERNEL32.dll
 0002:00000228       __imp_GetModuleFileNameW   0000000180021228     kernel32:KERNEL32.dll
 0002:00000230       __imp_FreeLibrary          0000000180021230     kernel32:KERNEL32.dll
 0002:00000238       __imp_DisableThreadLibraryCalls 0000000180021238     kernel32:KERNEL32.dll
 0002:00000240       __imp_GetCurrentThreadId   0000000180021240     kernel32:KERNEL32.dll
 0002:00000248       __imp_Sleep                0000000180021248     kernel32:KERNEL32.dll
 0002:00000250       __imp_WaitForSingleObject  0000000180021250     kernel32:KERNEL32.dll
 0002:00000258       __imp_ReleaseMutex         0000000180021258     kernel32:KERNEL32.dll
 0002:00000260       __imp_ResetEvent           0000000180021260     kernel32:KERNEL32.dll
 0002:00000268       __imp_EnterCriticalSection 0000000180021268     kernel32:KERNEL32.dll
 0002:00000270       __imp_LeaveCriticalSection 0000000180021270     kernel32:KERNEL32.dll
 0002:00000278       __imp_SetLastError         0000000180021278     kernel32:KERNEL32.dll
 0002:00000280       __imp_EncodePointer        0000000180021280     kernel32:KERNEL32.dll
 0002:00000288       __imp_DeleteCriticalSection 0000000180021288     kernel32:KERNEL32.dll
 0002:00000290       __imp_InitializeCriticalSectionAndSpinCount 0000000180021290     kernel32:KERNEL32.dll
 0002:00000298       __imp_GetLastError         0000000180021298     kernel32:KERNEL32.dll
 0002:000002a0       __imp_RaiseException       00000001800212a0     kernel32:KERNEL32.dll
 0002:000002a8       __imp_DecodePointer        00000001800212a8     kernel32:KERNEL32.dll
 0002:000002b0       __imp_WideCharToMultiByte  00000001800212b0     kernel32:KERNEL32.dll
 0002:000002b8       __imp_GetCommandLineW      00000001800212b8     kernel32:KERNEL32.dll
 0002:000002c0       __imp_MultiByteToWideChar  00000001800212c0     kernel32:KERNEL32.dll
 0002:000002c8       __imp_HeapSize             00000001800212c8     kernel32:KERNEL32.dll
 0002:000002d0       __imp_GetModuleFileNameA   00000001800212d0     kernel32:KERNEL32.dll
 0002:000002d8       __imp_GetModuleHandleExW   00000001800212d8     kernel32:KERNEL32.dll
 0002:000002e0       __imp_ExitProcess          00000001800212e0     kernel32:KERNEL32.dll
 0002:000002e8       __imp_VirtualQuery         00000001800212e8     kernel32:KERNEL32.dll
 0002:000002f0       __imp_VirtualProtect       00000001800212f0     kernel32:KERNEL32.dll
 0002:000002f8       __imp_GetSystemInfo        00000001800212f8     kernel32:KERNEL32.dll
 0002:00000300       __imp_TlsFree              0000000180021300     kernel32:KERNEL32.dll
 0002:00000308       __imp_TlsSetValue          0000000180021308     kernel32:KERNEL32.dll
 0002:00000310       __imp_TlsGetValue          0000000180021310     kernel32:KERNEL32.dll
 0002:00000318       __imp_TlsAlloc             0000000180021318     kernel32:KERNEL32.dll
 0002:00000320       __imp_RtlPcToFileHeader    0000000180021320     kernel32:KERNEL32.dll
 0002:00000328       __imp_InterlockedFlushSList 0000000180021328     kernel32:KERNEL32.dll
 0002:00000330       __imp_RtlUnwindEx          0000000180021330     kernel32:KERNEL32.dll
 0002:00000338       __imp_LoadLibraryExA       0000000180021338     kernel32:KERNEL32.dll
 0002:00000340       __imp_VirtualFree          0000000180021340     kernel32:KERNEL32.dll
 0002:00000348       __imp_VirtualAlloc         0000000180021348     kernel32:KERNEL32.dll
 0002:00000350       __imp_FlushInstructionCache 0000000180021350     kernel32:KERNEL32.dll
 0002:00000358       __imp_InterlockedPushEntrySList 0000000180021358     kernel32:KERNEL32.dll
 0002:00000360       __imp_InterlockedPopEntrySList 0000000180021360     kernel32:KERNEL32.dll
 0002:00000368       __imp_GetProcessHeap       0000000180021368     kernel32:KERNEL32.dll
 0002:00000370       __imp_HeapFree             0000000180021370     kernel32:KERNEL32.dll
 0002:00000378       __imp_HeapAlloc            0000000180021378     kernel32:KERNEL32.dll
 0002:00000380       __imp_OutputDebugStringW   0000000180021380     kernel32:KERNEL32.dll
 0002:00000388       __imp_InitializeSListHead  0000000180021388     kernel32:KERNEL32.dll
 0002:00000390       __imp_GetSystemTimeAsFileTime 0000000180021390     kernel32:KERNEL32.dll
 0002:00000398       __imp_QueryPerformanceCounter 0000000180021398     kernel32:KERNEL32.dll
 0002:000003a0       __imp_GetStartupInfoW      00000001800213a0     kernel32:KERNEL32.dll
 0002:000003a8       __imp_IsDebuggerPresent    00000001800213a8     kernel32:KERNEL32.dll
 0002:000003b0       __imp_IsProcessorFeaturePresent 00000001800213b0     kernel32:KERNEL32.dll
 0002:000003b8       __imp_WaitForSingleObjectEx 00000001800213b8     kernel32:KERNEL32.dll
 0002:000003c0       __imp_RtlCaptureContext    00000001800213c0     kernel32:KERNEL32.dll
 0002:000003c8       __imp_RtlLookupFunctionEntry 00000001800213c8     kernel32:KERNEL32.dll
 0002:000003d0       __imp_RtlVirtualUnwind     00000001800213d0     kernel32:KERNEL32.dll
 0002:000003d8       __imp_UnhandledExceptionFilter 00000001800213d8     kernel32:KERNEL32.dll
 0002:000003e0       __imp_SetUnhandledExceptionFilter 00000001800213e0     kernel32:KERNEL32.dll
 0002:000003e8       __imp_GetCurrentProcess    00000001800213e8     kernel32:KERNEL32.dll
 0002:000003f0       __imp_TerminateProcess     00000001800213f0     kernel32:KERNEL32.dll
 0002:000003f8       \177KERNEL32_NULL_THUNK_DATA 00000001800213f8     kernel32:KERNEL32.dll
 0002:00000400       __imp_OleCreatePropertyFrame 0000000180021400     oleaut32:OLEAUT32.dll
 0002:00000408       __imp_UnRegisterTypeLib    0000000180021408     oleaut32:OLEAUT32.dll
 0002:00000410       __imp_RegisterTypeLib      0000000180021410     oleaut32:OLEAUT32.dll
 0002:00000418       __imp_LoadRegTypeLib       0000000180021418     oleaut32:OLEAUT32.dll
 0002:00000420       __imp_LoadTypeLib          0000000180021420     oleaut32:OLEAUT32.dll
 0002:00000428       __imp_VarUI4FromStr        0000000180021428     oleaut32:OLEAUT32.dll
 0002:00000430       __imp_VariantInit          0000000180021430     oleaut32:OLEAUT32.dll
 0002:00000438       __imp_SysAllocStringByteLen 0000000180021438     oleaut32:OLEAUT32.dll
 0002:00000440       __imp_SysStringByteLen     0000000180021440     oleaut32:OLEAUT32.dll
 0002:00000448       __imp_VariantChangeType    0000000180021448     oleaut32:OLEAUT32.dll
 0002:00000450       __imp_VariantClear         0000000180021450     oleaut32:OLEAUT32.dll
 0002:00000458       __imp_SysStringLen         0000000180021458     oleaut32:OLEAUT32.dll
 0002:00000460       __imp_SysFreeString        0000000180021460     oleaut32:OLEAUT32.dll
 0002:00000468       __imp_SysAllocStringLen    0000000180021468     oleaut32:OLEAUT32.dll
 0002:00000470       __imp_SysAllocString       0000000180021470     oleaut32:OLEAUT32.dll
 0002:00000478       \177OLEAUT32_NULL_THUNK_DATA 0000000180021478     oleaut32:OLEAUT32.dll
 0002:00000480       __imp_UnregisterClassW     0000000180021480     user32:USER32.dll
 0002:00000488       __imp_PostMessageW         0000000180021488     user32:USER32.dll
 0002:00000490       __imp_DefWindowProcW       0000000180021490     user32:USER32.dll
 0002:00000498       __imp_CallWindowProcW      0000000180021498     user32:USER32.dll
 0002:000004a0       __imp_RegisterClassExW     00000001800214a0     user32:USER32.dll
 0002:000004a8       __imp_GetClassInfoExW      00000001800214a8     user32:USER32.dll
 0002:000004b0       __imp_CreateWindowExW      00000001800214b0     user32:USER32.dll
 0002:000004b8       __imp_IsWindow             00000001800214b8     user32:USER32.dll
 0002:000004c0       __imp_IsChild              00000001800214c0     user32:USER32.dll
 0002:000004c8       __imp_DestroyWindow        00000001800214c8     user32:USER32.dll
 0002:000004d0       __imp_ShowWindow           00000001800214d0     user32:USER32.dll
 0002:000004d8       __imp_SetWindowPos         00000001800214d8     user32:USER32.dll
 0002:000004e0       __imp_CharNextW            00000001800214e0     user32:USER32.dll
 0002:000004e8       __imp_SetFocus             00000001800214e8     user32:USER32.dll
 0002:000004f0       __imp_LoadBitmapW          00000001800214f0     user32:USER32.dll
 0002:000004f8       __imp_RegisterClassW       00000001800214f8     user32:USER32.dll
 0002:00000500       __imp_PeekMessageW         0000000180021500     user32:USER32.dll
 0002:00000508       __imp_LoadCursorW          0000000180021508     user32:USER32.dll
 0002:00000510       __imp_GetParent            0000000180021510     user32:USER32.dll
 0002:00000518       __imp_SetWindowLongPtrW    0000000180021518     user32:USER32.dll
 0002:00000520       __imp_GetWindowLongPtrW    0000000180021520     user32:USER32.dll
 0002:00000528       __imp_PtInRect             0000000180021528     user32:USER32.dll
 0002:00000530       __imp_EqualRect            0000000180021530     user32:USER32.dll
 0002:00000538       __imp_OffsetRect           0000000180021538     user32:USER32.dll
 0002:00000540       __imp_UnionRect            0000000180021540     user32:USER32.dll
 0002:00000548       __imp_IntersectRect        0000000180021548     user32:USER32.dll
 0002:00000550       __imp_GetClientRect        0000000180021550     user32:USER32.dll
 0002:00000558       __imp_InvalidateRect       0000000180021558     user32:USER32.dll
 0002:00000560       __imp_SetWindowRgn         0000000180021560     user32:USER32.dll
 0002:00000568       __imp_EndPaint             0000000180021568     user32:USER32.dll
 0002:00000570       __imp_BeginPaint           0000000180021570     user32:USER32.dll
 0002:00000578       __imp_ReleaseDC            0000000180021578     user32:USER32.dll
 0002:00000580       __imp_GetDC                0000000180021580     user32:USER32.dll
 0002:00000588       __imp_GetKeyState          0000000180021588     user32:USER32.dll
 0002:00000590       __imp_GetFocus             0000000180021590     user32:USER32.dll
 0002:00000598       \177USER32_NULL_THUNK_DATA 0000000180021598     user32:USER32.dll
 0002:000005a0       __imp_CoCreateInstance     00000001800215a0     ole32:ole32.dll
 0002:000005a8       __imp_StringFromGUID2      00000001800215a8     ole32:ole32.dll
 0002:000005b0       __imp_CoTaskMemAlloc       00000001800215b0     ole32:ole32.dll
 0002:000005b8       __imp_CoTaskMemFree        00000001800215b8     ole32:ole32.dll
 0002:000005c0       __imp_ReadClassStm         00000001800215c0     ole32:ole32.dll
 0002:000005c8       __imp_WriteClassStm        00000001800215c8     ole32:ole32.dll
 0002:000005d0       __imp_CreateDataAdviseHolder 00000001800215d0     ole32:ole32.dll
 0002:000005d8       __imp_OleSaveToStream      00000001800215d8     ole32:ole32.dll
 0002:000005e0       __imp_CreateOleAdviseHolder 00000001800215e0     ole32:ole32.dll
 0002:000005e8       __imp_OleRegGetUserType    00000001800215e8     ole32:ole32.dll
 0002:000005f0       __imp_OleRegGetMiscStatus  00000001800215f0     ole32:ole32.dll
 0002:000005f8       __imp_OleRegEnumVerbs      00000001800215f8     ole32:ole32.dll
 0002:00000600       __imp_CLSIDFromProgID      0000000180021600     ole32:ole32.dll
 0002:00000608       __imp_CoTaskMemRealloc     0000000180021608     ole32:ole32.dll
 0002:00000610       \177ole32_NULL_THUNK_DATA  0000000180021610     ole32:ole32.dll
 0002:00000618       __guard_check_icall_fptr   0000000180021618     LIBCMT:guard_support.obj
 0002:00000620       __guard_dispatch_icall_fptr 0000000180021620     LIBCMT:guard_support.obj
 0002:00000628       __xc_a                     0000000180021628     LIBCMT:initializers.obj
 0002:00000658       __xc_z                     0000000180021658     LIBCMT:initializers.obj
 0002:00000660       __xi_a                     0000000180021660     LIBCMT:initializers.obj
 0002:00000670       __acrt_stdio_initializer   0000000180021670     libucrt:stdio_initializer.obj
 0002:00000678       __acrt_multibyte_initializer 0000000180021678     libucrt:multibyte_initializer.obj
 0002:00000680       __acrt_tran_fma3_initializer 0000000180021680     libucrt:fma3_initializer.obj
 0002:00000688       __xi_z                     0000000180021688     LIBCMT:initializers.obj
 0002:00000690       __xl_a                     0000000180021690     LIBCMT:tlssup.obj
 0002:00000698       __xl_z                     0000000180021698     LIBCMT:tlssup.obj
 0002:000006a0       __xp_a                     00000001800216a0     LIBCMT:initializers.obj
 0002:000006a8       __acrt_locale_terminator   00000001800216a8     libucrt:locale_initializer.obj
 0002:000006b0       __dcrt_console_output_terminator 00000001800216b0     libucrt:console_output_initializer.obj
 0002:000006b8       __acrt_stdio_terminator    00000001800216b8     libucrt:stdio_initializer.obj
 0002:000006c0       __xp_z                     00000001800216c0     LIBCMT:initializers.obj
 0002:000006c8       __xt_a                     00000001800216c8     LIBCMT:initializers.obj
 0002:000006d0       __xt_z                     00000001800216d0     LIBCMT:initializers.obj
 0002:000006e0       ??_C@_13HADIAKP@?$AAS@     00000001800216e0     OposVariant.obj
 0002:000006e4       ??_C@_13LHMFKAAD@?$AAM@    00000001800216e4     OposVariant.obj
 0002:000006e8       ??_C@_13MKMNOPIJ@?$AAD@    00000001800216e8     OposVariant.obj
 0002:000006ec       ??_C@_13OPKGLAFF@?$AAB@    00000001800216ec     OposVariant.obj
 0002:000006f0       ??_C@_17LLMMEOJD@?$AAV?$AAa?$AAl@ 00000001800216f0     OposVariant.obj
 0002:000006f8       ??_C@_1BI@JFAIJMHL@?$AAF?$AAo?$AAr?$AAc?$AAe?$AAR?$AAe?$AAm?$AAo?$AAv?$AAe@ 00000001800216f8     OposVariant.obj
 0002:00000710       ??_C@_1BC@GCKHIPE@?$AAN?$AAo?$AAR?$AAe?$AAm?$AAo?$AAv?$AAe@ 0000000180021710     OposVariant.obj
 0002:00000728       ??_C@_1O@JDLOHAN@?$AAD?$AAe?$AAl?$AAe?$AAt?$AAe@ 0000000180021728     OposVariant.obj
 0002:00000738       ??_C@_11LOCGONAA@@         0000000180021738     OposVariant.obj
 0002:00000740       ?_entries@?1??_GetEntries@COPOSKeylock@@SAPEBU_ATL_INTMAP_ENTRY@ATL@@XZ@4QBU34@B 0000000180021740     Keylock.obj
 0002:000009c8       _GUID_cf51ed10_62fe_11cf_bf86_00a0c9034836 00000001800219c8     Keylock.obj
 0002:000009d8       _GUID_0000010a_0000_0000_c000_000000000046 00000001800219d8     Keylock.obj
 0002:000009e8       _GUID_b196b283_bab4_101a_b69c_00aa00341d07 00000001800219e8     Keylock.obj
 0002:000009f8       _GUID_cb5bdc81_93c1_11cf_8f20_00805f2cd064 00000001800219f8     Keylock.obj
 0002:00000a10       ?pPropMap@?1??GetPropertyMap@COPOSKeylock@@SAPEBUATL_PROPMAP_ENTRY@ATL@@XZ@4QBU34@B 0000000180021a10     Keylock.obj
 0002:00000ab8       ??_C@_17DGDADEHL@?$AA_?$AAc?$AAx@ 0000000180021ab8     Keylock.obj
 0002:00000ac0       ??_C@_17IOIMFDBO@?$AA_?$AAc?$AAy@ 0000000180021ac0     Keylock.obj
 0002:00000ac8       ??_C@_1M@KANJNLFF@?$AAC?$AAL?$AAS?$AAI?$AAD@ 0000000180021ac8     Keylock.obj
 0002:00000ad8       ??_C@_1M@EJNEECMJ@?$AAA?$AAp?$AAp?$AAI?$AAD@ 0000000180021ad8     Keylock.obj
 0002:00000ae8       _GUID_b196b286_bab4_101a_b69c_00aa00341d07 0000000180021ae8     Keylock.obj
 0002:00000af8       ??_C@_1CE@PGFMOFKI@?$AAS?$AAt?$AAa?$AAt?$AAu?$AAs?$AAU?$AAp?$AAd?$AAa?$AAt?$AAe?$AAE?$AAv?$AAe@ 0000000180021af8     Keylock.obj
 0002:00000b20       ??_C@_1BM@CBGEBBBJ@?$AAD?$AAi?$AAr?$AAe?$AAc?$AAt?$AAI?$AAO?$AAE?$AAv?$AAe?$AAn?$AAt@ 0000000180021b20     Keylock.obj
 0002:00000b40       _GUID_922eada0_3424_11cf_b670_00aa004cd6d8 0000000180021b40     Keylock.obj
 0002:00000b50       _GUID_9c2cad80_3424_11cf_b670_00aa004cd6d8 0000000180021b50     Keylock.obj
 0002:00000b60       _GUID_00000119_0000_0000_c000_000000000046 0000000180021b60     Keylock.obj
 0002:00000b70       _GUID_b196b289_bab4_101a_b69c_00aa00341d07 0000000180021b70     Keylock.obj
 0002:00000b80       ??_C@_1BC@ENICKDH@?$AAC?$AAo?$AAn?$AAt?$AAe?$AAn?$AAt?$AAs@ 0000000180021b80     Keylock.obj
 0002:00000ba0       ?rgszNeverDelete@CRegParser@ATL@@1QBQEB_WB 0000000180021ba0     Keylock.obj
 0002:00000c00       _GUID_00000117_0000_0000_c000_000000000046 0000000180021c00     Keylock.obj
 0002:00000c10       ??_7CRegObject@ATL@@6B@    0000000180021c10     Keylock.obj
 0002:00000c40       ??_7?$CComObject@V?$CComEnum@UIEnumConnectionPoints@@$1?_GUID_b196b285_bab4_101a_b69c_00aa00341d07@@3U__s_GUID@@BPEAUIConnectionPoint@@V?$_CopyInterface@UIConnectionPoint@@@ATL@@VCComSingleThreadModel@6@@ATL@@@ATL@@6B@ 0000000180021c40     Keylock.obj
 0002:00000c80       ??_C@_1CK@OEKPKBNA@?$AAC?$AAo?$AAm?$AAp?$AAo?$AAn?$AAe?$AAn?$AAt?$AA?5?$AAC?$AAa?$AAt?$AAe?$AAg@ 0000000180021c80     Keylock.obj
 0002:00000cb0       ??_C@_1BC@NKMMNMGL@?$AAF?$AAi?$AAl?$AAe?$AAT?$AAy?$AAp?$AAe@ 0000000180021cb0     Keylock.obj
 0002:00000cc8       ??_C@_1BE@EKPAFMCP@?$AAI?$AAn?$AAt?$AAe?$AAr?$AAf?$AAa?$AAc?$AAe@ 0000000180021cc8     Keylock.obj
 0002:00000ce0       ??_C@_1BC@MAICEHGI@?$AAH?$AAa?$AAr?$AAd?$AAw?$AAa?$AAr?$AAe@ 0000000180021ce0     Keylock.obj
 0002:00000cf8       ??_C@_19HLLLM@?$AAM?$AAi?$AAm?$AAe@ 0000000180021cf8     Keylock.obj
 0002:00000d08       ??_C@_17OMAOINJK@?$AAS?$AAA?$AAM@ 0000000180021d08     Keylock.obj
 0002:00000d10       ??_C@_1BC@IBECJAAI@?$AAS?$AAE?$AAC?$AAU?$AAR?$AAI?$AAT?$AAY@ 0000000180021d10     Keylock.obj
 0002:00000d28       ??_C@_1O@GBFINDKL@?$AAS?$AAY?$AAS?$AAT?$AAE?$AAM@ 0000000180021d28     Keylock.obj
 0002:00000d38       ??_C@_1BC@EAHCMADO@?$AAS?$AAo?$AAf?$AAt?$AAw?$AAa?$AAr?$AAe@ 0000000180021d38     Keylock.obj
 0002:00000d50       ??_C@_1BA@JIHHIEDE@?$AAT?$AAy?$AAp?$AAe?$AAL?$AAi?$AAb@ 0000000180021d50     Keylock.obj
 0002:00000e40       ??_C@_19NCHLBIN@?$AAH?$AAK?$AAC?$AAR@ 0000000180021e40     Keylock.obj
 0002:00000e50       ??_C@_19JAPAIJDE@?$AAH?$AAK?$AAC?$AAU@ 0000000180021e50     Keylock.obj
 0002:00000e60       ??_C@_19PEALEEJB@?$AAH?$AAK?$AAL?$AAM@ 0000000180021e60     Keylock.obj
 0002:00000e70       ??_C@_17PJOJPMPB@?$AAH?$AAK?$AAU@ 0000000180021e70     Keylock.obj
 0002:00000e78       ??_C@_19PNBHMJPL@?$AAH?$AAK?$AAP?$AAD@ 0000000180021e78     Keylock.obj
 0002:00000e88       ??_C@_19GFFAIJHG@?$AAH?$AAK?$AAD?$AAD@ 0000000180021e88     Keylock.obj
 0002:00000e98       ??_C@_19OFICIBHH@?$AAH?$AAK?$AAC?$AAC@ 0000000180021e98     Keylock.obj
 0002:00000ea8       ??_C@_1CE@PACHPJFI@?$AAH?$AAK?$AAE?$AAY?$AA_?$AAC?$AAL?$AAA?$AAS?$AAS?$AAE?$AAS?$AA_?$AAR?$AAO@ 0000000180021ea8     Keylock.obj
 0002:00000ed0       ??_C@_1CE@HLHNCBPM@?$AAH?$AAK?$AAE?$AAY?$AA_?$AAC?$AAU?$AAR?$AAR?$AAE?$AAN?$AAT?$AA_?$AAU?$AAS@ 0000000180021ed0     Keylock.obj
 0002:00000ef8       ??_C@_1CG@GFBEANJL@?$AAH?$AAK?$AAE?$AAY?$AA_?$AAL?$AAO?$AAC?$AAA?$AAL?$AA_?$AAM?$AAA?$AAC?$AAH@ 0000000180021ef8     Keylock.obj
 0002:00000f20       ??_C@_1BG@BGODANIO@?$AAH?$AAK?$AAE?$AAY?$AA_?$AAU?$AAS?$AAE?$AAR?$AAS@ 0000000180021f20     Keylock.obj
 0002:00000f38       ??_C@_1CM@KHNNAOIC@?$AAH?$AAK?$AAE?$AAY?$AA_?$AAP?$AAE?$AAR?$AAF?$AAO?$AAR?$AAM?$AAA?$AAN?$AAC@ 0000000180021f38     Keylock.obj
 0002:00000f68       ??_C@_1BM@HAGMMHIA@?$AAH?$AAK?$AAE?$AAY?$AA_?$AAD?$AAY?$AAN?$AA_?$AAD?$AAA?$AAT?$AAA@ 0000000180021f68     Keylock.obj
 0002:00000f88       ??_C@_1CI@BBJOACGG@?$AAH?$AAK?$AAE?$AAY?$AA_?$AAC?$AAU?$AAR?$AAR?$AAE?$AAN?$AAT?$AA_?$AAC?$AAO@ 0000000180021f88     Keylock.obj
 0002:00000fb0       ??_C@_1EA@NHKLICFA@?$AAH?$AAK?$AAC?$AAU?$AA?$AN?$AA?6?$AA?$HL?$AA?7?$AAS?$AAo?$AAf?$AAt?$AAw?$AAa?$AAr@ 0000000180021fb0     Keylock.obj
 0002:00000ff0       ??_C@_1BE@LJOLIMEM@?$AA?$AN?$AA?6?$AA?7?$AA?$HN?$AA?$AN?$AA?6?$AA?$HN?$AA?$AN?$AA?6@ 0000000180021ff0     Keylock.obj
 0002:00001008       _GUID_00000109_0000_0000_c000_000000000046 0000000180022008     Keylock.obj
 0002:00001018       _GUID_7fd52380_4e07_101b_ae2d_08002b2ec713 0000000180022018     Keylock.obj
 0002:00001028       _GUID_0000010e_0000_0000_c000_000000000046 0000000180022028     Keylock.obj
 0002:00001038       _GUID_b196b288_bab4_101a_b69c_00aa00341d07 0000000180022038     Keylock.obj
 0002:00001048       ??_C@_1O@MNLDABAF@?$AAM?$AAo?$AAd?$AAu?$AAl?$AAe@ 0000000180022048     Keylock.obj
 0002:00001058       ??_C@_1BG@JBACFMF@?$AAM?$AAo?$AAd?$AAu?$AAl?$AAe?$AA_?$AAR?$AAa?$AAw@ 0000000180022058     Keylock.obj
 0002:00001070       ??_C@_1BC@KAILKFFG@?$AAR?$AAE?$AAG?$AAI?$AAS?$AAT?$AAR?$AAY@ 0000000180022070     Keylock.obj
 0002:00001088       _GUID_00000113_0000_0000_c000_000000000046 0000000180022088     Keylock.obj
 0002:00001098       _GUID_1c2056cc_5ef4_101b_8bc8_00aa003e3b29 0000000180022098     Keylock.obj
 0002:000010a8       ??_7?$CComObjectCached@VCComClassFactory@ATL@@@ATL@@6B@ 00000001800220a8     Keylock.obj
 0002:000010d8       _GUID_00000112_0000_0000_c000_000000000046 00000001800220d8     Keylock.obj
 0002:000010e8       _GUID_3af24292_0c96_11ce_a0cf_00aa00600ab8 00000001800220e8     Keylock.obj
 0002:000010f8       _GUID_00000127_0000_0000_c000_000000000046 00000001800220f8     Keylock.obj
 0002:00001108       _GUID_0000010d_0000_0000_c000_000000000046 0000000180022108     Keylock.obj
 0002:00001118       ??_C@_1M@PPPPCDEP@?$AAA?$AAP?$AAP?$AAI?$AAD@ 0000000180022118     Keylock.obj
 0002:00001128       _GUID_b196b284_bab4_101a_b69c_00aa00341d07 0000000180022128     Keylock.obj
 0002:00001138       ??_7?$CComContainedObject@VCOPOSKeylock@@@ATL@@6B?$IDispatchImpl@UIOPOSKeylock@@$1?IID_IOPOSKeylock@@3U_GUID@@B$1?LIBID_OposKeylock_CCO@@3U3@B$00$0A@VCComTypeInfoHolder@ATL@@@1@@ 0000000180022138     Keylock.obj
 0002:000012f0       ??_7?$CComContainedObject@VCOPOSKeylock@@@ATL@@6BCComControlBase@1@@ 00000001800222f0     Keylock.obj
 0002:00001318       ??_7?$CComContainedObject@VCOPOSKeylock@@@ATL@@6B?$CWindowImpl@VCOPOSKeylock@@VCWindow@ATL@@V?$CWinTraits@$0FGAAAAAA@$0A@@3@@1@@ 0000000180022318     Keylock.obj
 0002:00001338       ??_7?$CComContainedObject@VCOPOSKeylock@@@ATL@@6B?$IPersistStreamInitImpl@VCOPOSKeylock@@@1@@ 0000000180022338     Keylock.obj
 0002:00001380       ??_7?$CComContainedObject@VCOPOSKeylock@@@ATL@@6B?$IOleControlImpl@VCOPOSKeylock@@@1@@ 0000000180022380     Keylock.obj
 0002:000013b8       ??_7?$CComContainedObject@VCOPOSKeylock@@@ATL@@6B?$IOleObjectImpl@VCOPOSKeylock@@@1@@ 00000001800223b8     Keylock.obj
 0002:00001478       ??_7?$CComContainedObject@VCOPOSKeylock@@@ATL@@6B?$IOleInPlaceActiveObjectImpl@VCOPOSKeylock@@@1@@ 0000000180022478     Keylock.obj
 0002:000014c8       ??_7?$CComContainedObject@VCOPOSKeylock@@@ATL@@6B?$IViewObjectExImpl@VCOPOSKeylock@@@1@@ 00000001800224c8     Keylock.obj
 0002:00001540       ??_7?$CComContainedObject@VCOPOSKeylock@@@ATL@@6B?$IOleInPlaceObjectWindowlessImpl@VCOPOSKeylock@@@1@@ 0000000180022540     Keylock.obj
 0002:00001598       ??_7?$CComContainedObject@VCOPOSKeylock@@@ATL@@6B?$IConnectionPointContainerImpl@VCOPOSKeylock@@@1@@ 0000000180022598     Keylock.obj
 0002:000015c0       ??_7?$CComContainedObject@VCOPOSKeylock@@@ATL@@6B?$IPersistStorageImpl@VCOPOSKeylock@@@1@@ 00000001800225c0     Keylock.obj
 0002:00001610       ??_7?$CComContainedObject@VCOPOSKeylock@@@ATL@@6B?$ISpecifyPropertyPagesImpl@VCOPOSKeylock@@@1@@ 0000000180022610     Keylock.obj
 0002:00001630       ??_7?$CComContainedObject@VCOPOSKeylock@@@ATL@@6B?$IQuickActivateImpl@VCOPOSKeylock@@@1@@ 0000000180022630     Keylock.obj
 0002:00001660       ??_7?$CComContainedObject@VCOPOSKeylock@@@ATL@@6B?$IDataObjectImpl@VCOPOSKeylock@@@1@@ 0000000180022660     Keylock.obj
 0002:000016c0       ??_7?$CComContainedObject@VCOPOSKeylock@@@ATL@@6B?$IProvideClassInfo2Impl@$1?CLSID_OPOSKeylock@@3U_GUID@@B$1?DIID__IOPOSKeylockEvents@@3U2@B$1?LIBID_OposKeylock_CCO@@3U2@B$00$0A@VCComTypeInfoHolder@ATL@@@1@@ 00000001800226c0     Keylock.obj
 0002:000016e8       ??_7?$CComContainedObject@VCOPOSKeylock@@@ATL@@6B?$IObjectSafetyImpl@VCOPOSKeylock@@$02@1@@ 00000001800226e8     Keylock.obj
 0002:00001718       ??_7?$CComContainedObject@VCOPOSKeylock@@@ATL@@6B?$IPropertyNotifySinkCP@VCOPOSKeylock@@VCComDynamicUnkArray@ATL@@@1@@ 0000000180022718     Keylock.obj
 0002:00001758       ??_7?$CComContainedObject@VCOPOSKeylock@@@ATL@@6B?$CProxy_IOPOSEvents@VCOPOSKeylock@@@@@ 0000000180022758     Keylock.obj
 0002:00001798       ??_7?$CComAggObject@VCOPOSKeylock@@@ATL@@6B@ 0000000180022798     Keylock.obj
 0002:000017b8       ??_7?$CComObject@VCOPOSKeylock@@@ATL@@6B?$IDispatchImpl@UIOPOSKeylock@@$1?IID_IOPOSKeylock@@3U_GUID@@B$1?LIBID_OposKeylock_CCO@@3U3@B$00$0A@VCComTypeInfoHolder@ATL@@@1@@ 00000001800227b8     Keylock.obj
 0002:00001970       ??_7?$CComObject@VCOPOSKeylock@@@ATL@@6BCComControlBase@1@@ 0000000180022970     Keylock.obj
 0002:00001998       ??_7?$CComObject@VCOPOSKeylock@@@ATL@@6B?$CWindowImpl@VCOPOSKeylock@@VCWindow@ATL@@V?$CWinTraits@$0FGAAAAAA@$0A@@3@@1@@ 0000000180022998     Keylock.obj
 0002:000019b8       ??_7?$CComObject@VCOPOSKeylock@@@ATL@@6B?$IPersistStreamInitImpl@VCOPOSKeylock@@@1@@ 00000001800229b8     Keylock.obj
 0002:00001a00       ??_7?$CComObject@VCOPOSKeylock@@@ATL@@6B?$IOleControlImpl@VCOPOSKeylock@@@1@@ 0000000180022a00     Keylock.obj
 0002:00001a38       ??_7?$CComObject@VCOPOSKeylock@@@ATL@@6B?$IOleObjectImpl@VCOPOSKeylock@@@1@@ 0000000180022a38     Keylock.obj
 0002:00001af8       ??_7?$CComObject@VCOPOSKeylock@@@ATL@@6B?$IOleInPlaceActiveObjectImpl@VCOPOSKeylock@@@1@@ 0000000180022af8     Keylock.obj
 0002:00001b48       ??_7?$CComObject@VCOPOSKeylock@@@ATL@@6B?$IViewObjectExImpl@VCOPOSKeylock@@@1@@ 0000000180022b48     Keylock.obj
 0002:00001bc0       ??_7?$CComObject@VCOPOSKeylock@@@ATL@@6B?$IOleInPlaceObjectWindowlessImpl@VCOPOSKeylock@@@1@@ 0000000180022bc0     Keylock.obj
 0002:00001c18       ??_7?$CComObject@VCOPOSKeylock@@@ATL@@6B?$IConnectionPointContainerImpl@VCOPOSKeylock@@@1@@ 0000000180022c18     Keylock.obj
 0002:00001c40       ??_7?$CComObject@VCOPOSKeylock@@@ATL@@6B?$IPersistStorageImpl@VCOPOSKeylock@@@1@@ 0000000180022c40     Keylock.obj
 0002:00001c90       ??_7?$CComObject@VCOPOSKeylock@@@ATL@@6B?$ISpecifyPropertyPagesImpl@VCOPOSKeylock@@@1@@ 0000000180022c90     Keylock.obj
 0002:00001cb0       ??_7?$CComObject@VCOPOSKeylock@@@ATL@@6B?$IQuickActivateImpl@VCOPOSKeylock@@@1@@ 0000000180022cb0     Keylock.obj
 0002:00001ce0       ??_7?$CComObject@VCOPOSKeylock@@@ATL@@6B?$IDataObjectImpl@VCOPOSKeylock@@@1@@ 0000000180022ce0     Keylock.obj
 0002:00001d40       ??_7?$CComObject@VCOPOSKeylock@@@ATL@@6B?$IProvideClassInfo2Impl@$1?CLSID_OPOSKeylock@@3U_GUID@@B$1?DIID__IOPOSKeylockEvents@@3U2@B$1?LIBID_OposKeylock_CCO@@3U2@B$00$0A@VCComTypeInfoHolder@ATL@@@1@@ 0000000180022d40     Keylock.obj
 0002:00001d68       ??_7?$CComObject@VCOPOSKeylock@@@ATL@@6B?$IObjectSafetyImpl@VCOPOSKeylock@@$02@1@@ 0000000180022d68     Keylock.obj
 0002:00001d98       ??_7?$CComObject@VCOPOSKeylock@@@ATL@@6B?$IPropertyNotifySinkCP@VCOPOSKeylock@@VCComDynamicUnkArray@ATL@@@1@@ 0000000180022d98     Keylock.obj
 0002:00001dd8       ??_7?$CComObject@VCOPOSKeylock@@@ATL@@6B?$CProxy_IOPOSEvents@VCOPOSKeylock@@@@@ 0000000180022dd8     Keylock.obj
 0002:00001e18       ??_C@_1O@GBFKGNEO@?$AAA?$AAT?$AAL?$AA?3?$AA?$CF?$AAp@ 0000000180022e18     Keylock.obj
 0002:00001e28       ??_C@_1BA@PICGEGJB@?$AAD?$AAI?$AAS?$AAP?$AAL?$AAA?$AAY@ 0000000180022e28     Keylock.obj
 0002:00001e38       _GUID_9bfbbc02_eff1_101a_84ed_00aa00341d07 0000000180022e38     Keylock.obj
 0002:00001e48       ?_entries@?1??_GetEntries@?$CComEnum@UIEnumConnectionPoints@@$1?_GUID_b196b285_bab4_101a_b69c_00aa00341d07@@3U__s_GUID@@BPEAUIConnectionPoint@@V?$_CopyInterface@UIConnectionPoint@@@ATL@@VCComSingleThreadModel@6@@ATL@@SAPEBU_ATL_INTMAP_ENTRY@3@XZ@4QBU43@B 0000000180022e48     Keylock.obj
 0002:00001e78       _GUID_00020412_0000_0000_c000_000000000046 0000000180022e78     Keylock.obj
 0002:00001e88       _GUID_00020401_0000_0000_c000_000000000046 0000000180022e88     Keylock.obj
 0002:00001e98       ??_7?$CComObject@V?$CComEnum@UIEnumConnections@@$1?_GUID_b196b287_bab4_101a_b69c_00aa00341d07@@3U__s_GUID@@BUtagCONNECTDATA@@V?$_Copy@UtagCONNECTDATA@@@ATL@@VCComSingleThreadModel@6@@ATL@@@ATL@@6B@ 0000000180022e98     Keylock.obj
 0002:00001ed8       ??_7CComClassFactory@ATL@@6B@ 0000000180022ed8     Keylock.obj
 0002:00001f08       ?_entries@?1??_GetEntries@CComClassFactory@ATL@@SAPEBU_ATL_INTMAP_ENTRY@3@XZ@4QBU43@B 0000000180022f08     Keylock.obj
 0002:00001f38       _GUID_00000001_0000_0000_c000_000000000046 0000000180022f38     Keylock.obj
 0002:00001f48       _GUID_55980ba0_35aa_11cf_b671_00aa004cd6d8 0000000180022f48     Keylock.obj
 0002:00001f58       _GUID_b196b28b_bab4_101a_b69c_00aa00341d07 0000000180022f58     Keylock.obj
 0002:00001f68       ?_entries@?1??_GetEntries@?$CComEnum@UIEnumConnections@@$1?_GUID_b196b287_bab4_101a_b69c_00aa00341d07@@3U__s_GUID@@BUtagCONNECTDATA@@V?$_Copy@UtagCONNECTDATA@@@ATL@@VCComSingleThreadModel@6@@ATL@@SAPEBU_ATL_INTMAP_ENTRY@3@XZ@4QBU43@B 0000000180022f68     Keylock.obj
 0002:00001f98       ??_C@_1BK@BIGILECK@?$AAA?$AAd?$AAv?$AAa?$AAp?$AAi?$AA3?$AA2?$AA?4?$AAd?$AAl?$AAl@ 0000000180022f98     Keylock.obj
 0002:00001fb8       ??_C@_0BI@MNCFCPFK@RegCreateKeyTransactedW@ 0000000180022fb8     Keylock.obj
 0002:00001fd0       _GUID_b196b287_bab4_101a_b69c_00aa00341d07 0000000180022fd0     Keylock.obj
 0002:00001fe0       _GUID_b196b285_bab4_101a_b69c_00aa00341d07 0000000180022fe0     Keylock.obj
 0002:00001ff0       IID_IOPOSKeylock_1_5       0000000180022ff0     Keylock.obj
 0002:00002000       IID_IOPOSKeylock_1_8       0000000180023000     Keylock.obj
 0002:00002010       IID_IOPOSKeylock_1_9       0000000180023010     Keylock.obj
 0002:00002020       IID_IOPOSKeylock_1_11      0000000180023020     Keylock.obj
 0002:00002030       IID_IOPOSKeylock           0000000180023030     Keylock.obj
 0002:00002040       LIBID_OposKeylock_CCO      0000000180023040     Keylock.obj
 0002:00002050       DIID__IOPOSKeylockEvents   0000000180023050     Keylock.obj
 0002:00002060       CLSID_OPOSKeylock          0000000180023060     Keylock.obj
 0002:00002070       _GUID_a6bc3ac0_dbaa_11ce_9de3_00aa004bb851 0000000180023070     Keylock.obj
 0002:00002080       _GUID_0000010c_0000_0000_c000_000000000046 0000000180023080     Keylock.obj
 0002:00002090       _GUID_00000114_0000_0000_c000_000000000046 0000000180023090     Keylock.obj
 0002:000020a0       _GUID_00000146_0000_0000_c000_000000000046 00000001800230a0     Keylock.obj
 0002:000020b0       ??_7CComModule@ATL@@6B@    00000001800230b0     Keylock.obj
 0002:00002100       _GUID_00000000_0000_0000_c000_000000000046 0000000180023100     Keylock.obj
 0002:00002110       _GUID_00020400_0000_0000_c000_000000000046 0000000180023110     Keylock.obj
 0002:00002120       ??_C@_0BG@EKFFMJIO@RegOpenKeyTransactedW@ 0000000180023120     Keylock.obj
 0002:00002138       ??_C@_0BI@HAKLOOGP@RegDeleteKeyTransactedW@ 0000000180023138     Keylock.obj
 0002:00002150       ??_C@_19ILOCMLCJ@?$AA?4?$AAt?$AAl?$AAb@ 0000000180023150     Keylock.obj
 0002:00002160       _GUID_0002e012_0000_0000_c000_000000000046 0000000180023160     Keylock.obj
 0002:00002170       ??_C@_1O@FHBGLCIO@?$AAC?$AAL?$AAS?$AAI?$AAD?$AA?2@ 0000000180023170     Keylock.obj
 0002:00002180       ??_C@_1CK@IFBKBFAA@?$AA?2?$AAR?$AAe?$AAq?$AAu?$AAi?$AAr?$AAe?$AAd?$AA?5?$AAC?$AAa?$AAt?$AAe?$AAg@ 0000000180023180     Keylock.obj
 0002:000021b0       ??_C@_1DA@BIHALFED@?$AA?2?$AAI?$AAm?$AAp?$AAl?$AAe?$AAm?$AAe?$AAn?$AAt?$AAe?$AAd?$AA?5?$AAC?$AAa@ 00000001800231b0     Keylock.obj
 0002:000021e0       ??_C@_1BK@EDKOLFBJ@?$AAO?$AAL?$AAE?$AAA?$AAU?$AAT?$AA3?$AA2?$AA?4?$AAD?$AAL?$AAL@ 00000001800231e0     Keylock.obj
 0002:00002200       ??_C@_0BJ@CNLFOMHB@UnRegisterTypeLibForUser@ 0000000180023200     Keylock.obj
 0002:00002220       ??_C@_0BH@LBOMMKPJ@RegisterTypeLibForUser@ 0000000180023220     Keylock.obj
 0002:00002238       ??_C@_0P@MMNMMLGK@COFreezeEvents@ 0000000180023238     KeylockImpl.obj
 0002:00002248       ??_C@_0BC@OGCGGIMP@GetPropertyNumber@ 0000000180023248     KeylockImpl.obj
 0002:00002260       ??_C@_0BC@MDCNODNB@SetPropertyNumber@ 0000000180023260     KeylockImpl.obj
 0002:00002278       ??_C@_0BC@CFCCMIMD@GetPropertyString@ 0000000180023278     KeylockImpl.obj
 0002:00002290       ??_C@_0BC@CJEDNN@SetPropertyString@ 0000000180023290     KeylockImpl.obj
 0002:000022a8       ??_C@_0M@LNPKKKDA@OpenService@ 00000001800232a8     KeylockImpl.obj
 0002:000022b8       ??_C@_0M@PCMCHHMH@CheckHealth@ 00000001800232b8     KeylockImpl.obj
 0002:000022c8       ??_C@_0M@JGMIDNEK@ClaimDevice@ 00000001800232c8     KeylockImpl.obj
 0002:000022d8       ??_C@_0N@DDFIIBMP@CloseService@ 00000001800232d8     KeylockImpl.obj
 0002:000022e8       ??_C@_08EEIHICPC@DirectIO@ 00000001800232e8     KeylockImpl.obj
 0002:000022f8       ??_C@_0O@BCPMENMJ@ReleaseDevice@ 00000001800232f8     KeylockImpl.obj
 0002:00002308       ??_C@_0BF@DLHIAFFK@WaitForKeylockChange@ 0000000180023308     KeylockImpl.obj
 0002:00002320       ??_C@_0BA@GFABKEEE@ResetStatistics@ 0000000180023320     KeylockImpl.obj
 0002:00002330       ??_C@_0BD@DPALHJGC@RetrieveStatistics@ 0000000180023330     KeylockImpl.obj
 0002:00002348       ??_C@_0BB@KOHIKNFC@UpdateStatistics@ 0000000180023348     KeylockImpl.obj
 0002:00002360       ??_C@_0BH@PBKBNMGB@CompareFirmwareVersion@ 0000000180023360     KeylockImpl.obj
 0002:00002378       ??_C@_0P@FBPDPIPA@UpdateFirmware@ 0000000180023378     KeylockImpl.obj
 0002:00002388       ??_7?$CProxy_IOPOSEvents@VCOPOSKeylock@@@@6B@ 0000000180023388     KeylockImpl.obj
 0002:000023c8       ??_C@_1BA@IFHENID@?$AA?$FL?$AAE?$AAr?$AAr?$AAo?$AAr?$AA?$FN@ 00000001800233c8     KeylockImpl.obj
 0002:000023d8       ??_C@_0CK@KPICGCGL@SOFTWARE?2OLEforRetail?2ServiceOP@ 00000001800233d8     KeylockImpl.obj
 0002:00002408       ??_C@_1M@IAIJHCCH@?$AAC?$AAl?$AAo?$AAs?$AAe@ 0000000180023408     KeylockImpl.obj
 0002:00002418       ??_C@_1M@PCPKGJAH@?$AAC?$AAl?$AAa?$AAi?$AAm@ 0000000180023418     KeylockImpl.obj
 0002:00002428       ??_C@_1BA@NDFKIOCP@?$AAR?$AAe?$AAl?$AAe?$AAa?$AAs?$AAe@ 0000000180023428     KeylockImpl.obj
 0002:00002438       ??_C@_07OIJGHLGK@Keylock@  0000000180023438     KeylockImpl.obj
 0002:00002440       ??_C@_1BM@IJMNMBPK@?$AAG?$AAe?$AAt?$AAO?$AAp?$AAe?$AAn?$AAR?$AAe?$AAs?$AAu?$AAl?$AAt@ 0000000180023440     KeylockImpl.obj
 0002:00002460       GUID_NULL                  0000000180023460     uuid:cguid_i.obj
 0002:00002470       CLSID_StdGlobalInterfaceTable 0000000180023470     uuid:cguid_i.obj
 0002:00002480       IID_IPropertyNotifySink    0000000180023480     uuid:ocidl_i.obj
 0002:00002490       IID_IDispatch              0000000180023490     uuid:oaidl_i.obj
 0002:000024a0       CLSID_StdComponentCategoriesMgr 00000001800234a0     uuid:ieguids.obj
 0002:000024b0       IID_IUnknown               00000001800234b0     uuid:unknwn_i.obj
 0002:000024f0       ??_C@_1EC@JIJBPKFM@?$AAa?$AAp?$AAi?$AA?9?$AAm?$AAs?$AA?9?$AAw?$AAi?$AAn?$AA?9?$AAc?$AAo?$AAr?$AAe@ 00000001800234f0     LIBCMT:thread_safe_statics.obj
 0002:00002538       ??_C@_1BK@MGMFAEKH@?$AAk?$AAe?$AAr?$AAn?$AAe?$AAl?$AA3?$AA2?$AA?4?$AAd?$AAl?$AAl@ 0000000180023538     LIBCMT:thread_safe_statics.obj
 0002:00002558       ??_C@_0BM@HLJJNPAH@InitializeConditionVariable@ 0000000180023558     LIBCMT:thread_safe_statics.obj
 0002:00002578       ??_C@_0BJ@JEBJOJFJ@SleepConditionVariableCS@ 0000000180023578     LIBCMT:thread_safe_statics.obj
 0002:00002598       ??_C@_0BJ@PGPPEPCC@WakeAllConditionVariable@ 0000000180023598     LIBCMT:thread_safe_statics.obj
 0002:000025b1       ?nothrow@std@@3Unothrow_t@1@B 00000001800235b1     LIBCMT:std_nothrow.obj
 0002:000025f0       _pDefaultRawDllMain        00000001800235f0     LIBCMT:dll_dllmain.obj
 0002:000025f0       _pRawDllMain               00000001800235f0     LIBCMT:dll_dllmain.obj
 0002:00002600       ??_7exception@std@@6B@     0000000180023600     LIBCMT:throw_bad_alloc.obj
 0002:00002610       ??_C@_0BC@EOODALEL@Unknown?5exception@ 0000000180023610     LIBCMT:throw_bad_alloc.obj
 0002:00002630       ??_7bad_alloc@std@@6B@     0000000180023630     LIBCMT:throw_bad_alloc.obj
 0002:00002640       ??_C@_0P@GHFPNOJB@bad?5allocation@ 0000000180023640     LIBCMT:throw_bad_alloc.obj
 0002:00002658       ??_7bad_array_new_length@std@@6B@ 0000000180023658     LIBCMT:throw_bad_alloc.obj
 0002:00002668       ??_C@_0BF@KINCDENJ@bad?5array?5new?5length@ 0000000180023668     LIBCMT:throw_bad_alloc.obj
 0002:00002688       ??_7type_info@@6B@         0000000180023688     LIBCMT:std_type_info_static.obj
 0002:00002690       GUID_ATLVer110             0000000180023690     atls:atlbase.obj
 0002:000026a0       ??_C@_1IC@ONKHOIDK@?$AAE?$AAR?$AAR?$AAO?$AAR?$AA?5?$AA?3?$AA?5?$AAU?$AAn?$AAa?$AAb?$AAl?$AAe?$AA?5@ 00000001800236a0     atls:atlbase.obj
 0002:00002728       ??_C@_0N@FJEPLCIH@atlthunk?4dll@ 0000000180023728     atls:atlthunk.obj
 0002:00002738       ??_C@_0BG@GAKFHCBM@AtlThunk_AllocateData@ 0000000180023738     atls:atlthunk.obj
 0002:00002750       ??_C@_0BC@JKONFIAH@AtlThunk_InitData@ 0000000180023750     atls:atlthunk.obj
 0002:00002768       ??_C@_0BE@IAOEELAK@AtlThunk_DataToCode@ 0000000180023768     atls:atlthunk.obj
 0002:00002780       ??_C@_0BC@GBGKAIPI@AtlThunk_FreeData@ 0000000180023780     atls:atlthunk.obj
 0002:00002798       _pDestructExceptionObject  0000000180023798     libvcruntime:ehhelpers.obj
 0002:00002898       ??_C@_1DM@KHCHBNEB@?$AAa?$AAp?$AAi?$AA?9?$AAm?$AAs?$AA?9?$AAw?$AAi?$AAn?$AA?9?$AAc?$AAo?$AAr?$AAe@ 0000000180023898     libvcruntime:winapi_downlevel.obj
 0002:000028d8       ??_C@_1DK@LPPGFMPP@?$AAa?$AAp?$AAi?$AA?9?$AAm?$AAs?$AA?9?$AAw?$AAi?$AAn?$AA?9?$AAc?$AAo?$AAr?$AAe@ 00000001800238d8     libvcruntime:winapi_downlevel.obj
 0002:00002918       ??_C@_1BC@GDMECMAK@?$AAk?$AAe?$AAr?$AAn?$AAe?$AAl?$AA3?$AA2@ 0000000180023918     libvcruntime:winapi_downlevel.obj
 0002:00002930       ??_C@_1BA@PFFKHIOG@?$AAa?$AAp?$AAi?$AA?9?$AAm?$AAs?$AA?9@ 0000000180023930     libvcruntime:winapi_downlevel.obj
 0002:00002940       ??_C@_1BA@IAIFMGEF@?$AAe?$AAx?$AAt?$AA?9?$AAm?$AAs?$AA?9@ 0000000180023940     libvcruntime:winapi_downlevel.obj
 0002:00002958       ??_C@_08KNHFBNJ@FlsAlloc@  0000000180023958     libvcruntime:winapi_downlevel.obj
 0002:00002970       ??_C@_07PEJMOBNF@FlsFree@  0000000180023970     libvcruntime:winapi_downlevel.obj
 0002:00002980       ??_C@_0M@GDNOONDI@FlsGetValue@ 0000000180023980     libvcruntime:winapi_downlevel.obj
 0002:00002998       ??_C@_0M@JCPCPOEF@FlsSetValue@ 0000000180023998     libvcruntime:winapi_downlevel.obj
 0002:000029b0       ??_C@_0BM@HCFOFFN@InitializeCriticalSectionEx@ 00000001800239b0     libvcruntime:winapi_downlevel.obj
 0002:000029d8       ??_7bad_exception@std@@6B@ 00000001800239d8     libvcruntime:frame.obj
 0002:000029e8       ??_C@_0O@DPKOEFFH@bad?5exception@ 00000001800239e8     libvcruntime:frame.obj
 0002:00002d38       ??_C@_08EHJDFFNH@__based?$CI@ 0000000180023d38     libvcruntime:undname.obj
 0002:00002d48       ??_C@_07KOLFKCDI@__cdecl@  0000000180023d48     libvcruntime:undname.obj
 0002:00002d50       ??_C@_08GHMPAG@__pascal@   0000000180023d50     libvcruntime:undname.obj
 0002:00002d60       ??_C@_09IFJBGAPI@__stdcall@ 0000000180023d60     libvcruntime:undname.obj
 0002:00002d70       ??_C@_0L@NPHFGOKO@__thiscall@ 0000000180023d70     libvcruntime:undname.obj
 0002:00002d80       ??_C@_0L@JMKHOMEK@__fastcall@ 0000000180023d80     libvcruntime:undname.obj
 0002:00002d90       ??_C@_0N@BCKKPABJ@__vectorcall@ 0000000180023d90     libvcruntime:undname.obj
 0002:00002da0       ??_C@_09HIJEGCPM@__clrcall@ 0000000180023da0     libvcruntime:undname.obj
 0002:00002dac       ??_C@_06GHPCKEAG@__eabi@   0000000180023dac     libvcruntime:undname.obj
 0002:00002db8       ??_C@_09IOPIDJLG@__swift_1@ 0000000180023db8     libvcruntime:undname.obj
 0002:00002dc8       ??_C@_09KFNFGKHF@__swift_2@ 0000000180023dc8     libvcruntime:undname.obj
 0002:00002dd8       ??_C@_07JOMMBBKO@__ptr64@  0000000180023dd8     libvcruntime:undname.obj
 0002:00002de0       ??_C@_0L@PILCLIHE@__restrict@ 0000000180023de0     libvcruntime:undname.obj
 0002:00002df0       ??_C@_0M@GFIIJFMG@__unaligned@ 0000000180023df0     libvcruntime:undname.obj
 0002:00002e00       ??_C@_09DHDLOLLB@restrict?$CI@ 0000000180023e00     libvcruntime:undname.obj
 0002:00002e0a       ??_C@_00CNPNBAHC@@         0000000180023e0a     libvcruntime:undname.obj
 0002:00002e0c       ??_C@_04NIHEBCM@?5new@     0000000180023e0c     libvcruntime:undname.obj
 0002:00002e18       ??_C@_07FPCDHGMM@?5delete@ 0000000180023e18     libvcruntime:undname.obj
 0002:00002e20       ??_C@_01NEMOKFLO@?$DN@     0000000180023e20     libvcruntime:undname.obj
 0002:00002e24       ??_C@_02GPIOPFAK@?$DO?$DO@ 0000000180023e24     libvcruntime:undname.obj
 0002:00002e28       ??_C@_02FODMEDOG@?$DM?$DM@ 0000000180023e28     libvcruntime:undname.obj
 0002:00002e2c       ??_C@_01DCLJPIOD@?$CB@     0000000180023e2c     libvcruntime:undname.obj
 0002:00002e30       ??_C@_02EGOFBIJA@?$DN?$DN@ 0000000180023e30     libvcruntime:undname.obj
 0002:00002e34       ??_C@_02FDNJECIE@?$CB?$DN@ 0000000180023e34     libvcruntime:undname.obj
 0002:00002e38       ??_C@_02GPECMEKF@?$FL?$FN@ 0000000180023e38     libvcruntime:undname.obj
 0002:00002e40       ??_C@_08LHJFAFGD@operator@ 0000000180023e40     libvcruntime:undname.obj
 0002:00002e4c       ??_C@_02HBOOOICD@?9?$DO@   0000000180023e4c     libvcruntime:undname.obj
 0002:00002e50       ??_C@_01NBENCBCI@?$CK@     0000000180023e50     libvcruntime:undname.obj
 0002:00002e54       ??_C@_02ECNGHCIF@?$CL?$CL@ 0000000180023e54     libvcruntime:undname.obj
 0002:00002e58       ??_C@_02BAABKJLB@?9?9@     0000000180023e58     libvcruntime:undname.obj
 0002:00002e5c       ??_C@_01JOAMLHOP@?9@       0000000180023e5c     libvcruntime:undname.obj
 0002:00002e60       ??_C@_01MIFGBAGJ@?$CL@     0000000180023e60     libvcruntime:undname.obj
 0002:00002e64       ??_C@_01HNPIGOCE@?$CG@     0000000180023e64     libvcruntime:undname.obj
 0002:00002e68       ??_C@_03MNHNFDLC@?9?$DO?$CK@ 0000000180023e68     libvcruntime:undname.obj
 0002:00002e6c       ??_C@_01KMDKNFGN@?1@       0000000180023e6c     libvcruntime:undname.obj
 0002:00002e70       ??_C@_01FGNFDNOH@?$CF@     0000000180023e70     libvcruntime:undname.obj
 0002:00002e74       ??_C@_01MNNFJEPP@?$DM@     0000000180023e74     libvcruntime:undname.obj
 0002:00002e78       ??_C@_02EHCHHCKH@?$DM?$DN@ 0000000180023e78     libvcruntime:undname.obj
 0002:00002e7c       ??_C@_01PPODPGHN@?$DO@     0000000180023e7c     libvcruntime:undname.obj
 0002:00002e80       ??_C@_02EEKDKGMJ@?$DO?$DN@ 0000000180023e80     libvcruntime:undname.obj
 0002:00002e84       ??_C@_01IHBHIGKO@?0@       0000000180023e84     libvcruntime:undname.obj
 0002:00002e88       ??_C@_02HCKGKOFO@?$CI?$CJ@ 0000000180023e88     libvcruntime:undname.obj
 0002:00002e8c       ??_C@_01PJKLJHI@?$HO@      0000000180023e8c     libvcruntime:undname.obj
 0002:00002e90       ??_C@_01JKBOJNNK@?$FO@     0000000180023e90     libvcruntime:undname.obj
 0002:00002e94       ??_C@_01DNKMNLPK@?$HM@     0000000180023e94     libvcruntime:undname.obj
 0002:00002e98       ??_C@_02PPKAJPJL@?$CG?$CG@ 0000000180023e98     libvcruntime:undname.obj
 0002:00002e9c       ??_C@_02NONPIBCD@?$HM?$HM@ 0000000180023e9c     libvcruntime:undname.obj
 0002:00002ea0       ??_C@_02FPIMKNGF@?$CK?$DN@ 0000000180023ea0     libvcruntime:undname.obj
 0002:00002ea4       ??_C@_02FOEOMHFC@?$CL?$DN@ 0000000180023ea4     libvcruntime:undname.obj
 0002:00002ea8       ??_C@_02FKMDLLOA@?9?$DN@   0000000180023ea8     libvcruntime:undname.obj
 0002:00002eac       ??_C@_02FJEHGPIO@?1?$DN@   0000000180023eac     libvcruntime:undname.obj
 0002:00002eb0       ??_C@_02FENAOKFI@?$CF?$DN@ 0000000180023eb0     libvcruntime:undname.obj
 0002:00002eb4       ??_C@_03IKFCCPFF@?$DO?$DO?$DN@ 0000000180023eb4     libvcruntime:undname.obj
 0002:00002eb8       ??_C@_03CDNPDDLA@?$DM?$DM?$DN@ 0000000180023eb8     libvcruntime:undname.obj
 0002:00002ebc       ??_C@_02FGJGFEAB@?$CG?$DN@ 0000000180023ebc     libvcruntime:undname.obj
 0002:00002ec0       ??_C@_02DHLNPPGH@?$HM?$DN@ 0000000180023ec0     libvcruntime:undname.obj
 0002:00002ec4       ??_C@_02MHEGNOJ@?$FO?$DN@  0000000180023ec4     libvcruntime:undname.obj
 0002:00002ec8       ??_C@_09IFPLHPGF@?$GAvftable?8@ 0000000180023ec8     libvcruntime:undname.obj
 0002:00002ed8       ??_C@_09BLBHBJP@?$GAvbtable?8@ 0000000180023ed8     libvcruntime:undname.obj
 0002:00002ee8       ??_C@_07FEEIOKP@?$GAvcall?8@ 0000000180023ee8     libvcruntime:undname.obj
 0002:00002ef0       ??_C@_08LLFFHHDJ@?$GAtypeof?8@ 0000000180023ef0     libvcruntime:undname.obj
 0002:00002f00       ??_C@_0BF@KDPPACIK@?$GAlocal?5static?5guard?8@ 0000000180023f00     libvcruntime:undname.obj
 0002:00002f18       ??_C@_08OBABFOLI@?$GAstring?8@ 0000000180023f18     libvcruntime:undname.obj
 0002:00002f28       ??_C@_0BD@JDLKDPAB@?$GAvbase?5destructor?8@ 0000000180023f28     libvcruntime:undname.obj
 0002:00002f40       ??_C@_0BN@DEGPLNFK@?$GAvector?5deleting?5destructor?8@ 0000000180023f40     libvcruntime:undname.obj
 0002:00002f60       ??_C@_0BO@OBMKPJIG@?$GAdefault?5constructor?5closure?8@ 0000000180023f60     libvcruntime:undname.obj
 0002:00002f80       ??_C@_0BN@IMDCHIKM@?$GAscalar?5deleting?5destructor?8@ 0000000180023f80     libvcruntime:undname.obj
 0002:00002fa0       ??_C@_0BO@PFGOCPJJ@?$GAvector?5constructor?5iterator?8@ 0000000180023fa0     libvcruntime:undname.obj
 0002:00002fc0       ??_C@_0BN@LFPFMEDL@?$GAvector?5destructor?5iterator?8@ 0000000180023fc0     libvcruntime:undname.obj
 0002:00002fe0       ??_C@_0CE@IKBNEHA@?$GAvector?5vbase?5constructor?5itera@ 0000000180023fe0     libvcruntime:undname.obj
 0002:00003008       ??_C@_0BL@NILFHHPC@?$GAvirtual?5displacement?5map?8@ 0000000180024008     libvcruntime:undname.obj
 0002:00003028       ??_C@_0CB@JONCMFFK@?$GAeh?5vector?5constructor?5iterator@ 0000000180024028     libvcruntime:undname.obj
 0002:00003050       ??_C@_0CA@GCEOPDGL@?$GAeh?5vector?5destructor?5iterator?8@ 0000000180024050     libvcruntime:undname.obj
 0002:00003070       ??_C@_0CH@OOJPLCPH@?$GAeh?5vector?5vbase?5constructor?5it@ 0000000180024070     libvcruntime:undname.obj
 0002:00003098       ??_C@_0BL@LLKPOHJI@?$GAcopy?5constructor?5closure?8@ 0000000180024098     libvcruntime:undname.obj
 0002:000030b8       ??_C@_0BA@KBCDOMBN@?$GAudt?5returning?8@ 00000001800240b8     libvcruntime:undname.obj
 0002:000030c8       ??_C@_03KLGMFNMG@?$GAEH@   00000001800240c8     libvcruntime:undname.obj
 0002:000030cc       ??_C@_05KHLCHHI@?$GARTTI@  00000001800240cc     libvcruntime:undname.obj
 0002:000030d8       ??_C@_0BA@KKLDJDLB@?$GAlocal?5vftable?8@ 00000001800240d8     libvcruntime:undname.obj
 0002:000030e8       ??_C@_0CE@IIHCMGGL@?$GAlocal?5vftable?5constructor?5clos@ 00000001800240e8     libvcruntime:undname.obj
 0002:0000310c       ??_C@_06FHBGPFGH@?5new?$FL?$FN@ 000000018002410c     libvcruntime:undname.obj
 0002:00003118       ??_C@_09LBNFPBCA@?5delete?$FL?$FN@ 0000000180024118     libvcruntime:undname.obj
 0002:00003128       ??_C@_0P@HJKNJFNN@?$GAomni?5callsig?8@ 0000000180024128     libvcruntime:undname.obj
 0002:00003138       ??_C@_0BL@CNOONJFP@?$GAplacement?5delete?5closure?8@ 0000000180024138     libvcruntime:undname.obj
 0002:00003158       ??_C@_0BN@CKNJLHMB@?$GAplacement?5delete?$FL?$FN?5closure?8@ 0000000180024158     libvcruntime:undname.obj
 0002:00003178       ??_C@_0CG@CFDHKGGD@?$GAmanaged?5vector?5constructor?5ite@ 0000000180024178     libvcruntime:undname.obj
 0002:000031a0       ??_C@_0CF@IMGKMJNO@?$GAmanaged?5vector?5destructor?5iter@ 00000001800241a0     libvcruntime:undname.obj
 0002:000031c8       ??_C@_0CG@HLDDJMAG@?$GAeh?5vector?5copy?5constructor?5ite@ 00000001800241c8     libvcruntime:undname.obj
 0002:000031f0       ??_C@_0CM@FCBBDIGB@?$GAeh?5vector?5vbase?5copy?5construct@ 00000001800241f0     libvcruntime:undname.obj
 0002:00003220       ??_C@_0BL@CLIPGLGB@?$GAdynamic?5initializer?5for?5?8@ 0000000180024220     libvcruntime:undname.obj
 0002:00003240       ??_C@_0CB@PDBIFEP@?$GAdynamic?5atexit?5destructor?5for?5@ 0000000180024240     libvcruntime:undname.obj
 0002:00003268       ??_C@_0CD@CGAJBKEJ@?$GAvector?5copy?5constructor?5iterat@ 0000000180024268     libvcruntime:undname.obj
 0002:00003290       ??_C@_0CJ@GJELGAMM@?$GAvector?5vbase?5copy?5constructor?5@ 0000000180024290     libvcruntime:undname.obj
 0002:000032c0       ??_C@_0CL@FGIJHLCE@?$GAmanaged?5vector?5copy?5constructo@ 00000001800242c0     libvcruntime:undname.obj
 0002:000032f0       ??_C@_0BM@PMGGMLDN@?$GAlocal?5static?5thread?5guard?8@ 00000001800242f0     libvcruntime:undname.obj
 0002:00003310       ??_C@_0N@BDNMDMOL@operator?5?$CC?$CC?5@ 0000000180024310     libvcruntime:undname.obj
 0002:00003320       ??_C@_0BC@GGEBGALA@operator?5co_await@ 0000000180024320     libvcruntime:undname.obj
 0002:00003338       ??_C@_0BC@DAFEJGAK@?5Type?5Descriptor?8@ 0000000180024338     libvcruntime:undname.obj
 0002:00003350       ??_C@_0BM@LDKODKLH@?5Base?5Class?5Descriptor?5at?5?$CI@ 0000000180024350     libvcruntime:undname.obj
 0002:00003370       ??_C@_0BD@LGICGFMM@?5Base?5Class?5Array?8@ 0000000180024370     libvcruntime:undname.obj
 0002:00003388       ??_C@_0BN@MECKDCOJ@?5Class?5Hierarchy?5Descriptor?8@ 0000000180024388     libvcruntime:undname.obj
 0002:000033a8       ??_C@_0BK@CFCOFLF@?5Complete?5Object?5Locator?8@ 00000001800243a8     libvcruntime:undname.obj
 0002:00003530       format_validation_lookup_table 0000000180024530     libucrt:output.obj
 0002:00003590       ??_C@_1O@CEDCILHN@?$AA?$CI?$AAn?$AAu?$AAl?$AAl?$AA?$CJ?$AA?$AA@ 0000000180024590     libucrt:output.obj
 0002:000035a0       ??_C@_06OJHGLDPL@?$CInull?$CJ?$AA@ 00000001800245a0     libucrt:output.obj
 0002:000035b0       __acrt_exception_action_table 00000001800245b0     libucrt:exception_filter.obj
 0002:00003670       __acrt_signal_action_table_count 0000000180024670     libucrt:exception_filter.obj
 0002:00003678       __acrt_signal_action_first_fpe_index 0000000180024678     libucrt:exception_filter.obj
 0002:00003680       __acrt_signal_action_fpe_count 0000000180024680     libucrt:exception_filter.obj
 0002:00003688       ??_C@_1BI@BGOHAHKC@?$AAm?$AAs?$AAc?$AAo?$AAr?$AAe?$AAe?$AA?4?$AAd?$AAl?$AAl?$AA?$AA@ 0000000180024688     libucrt:exit.obj
 0002:000036a0       ??_C@_0P@MIGLKIOC@CorExitProcess?$AA@ 00000001800246a0     libucrt:exit.obj
 0002:00003840       ??_C@_1EA@JGEFHKEI@?$AAa?$AAp?$AAi?$AA?9?$AAm?$AAs?$AA?9?$AAw?$AAi?$AAn?$AA?9?$AAc?$AAo?$AAr?$AAe?$AA?9?$AAd?$AAa?$AAt?$AAe?$AAt?$AAi?$AAm?$AAe?$AA?9?$AAl?$AA1?$AA?9?$AA1?$AA?9?$AA1?$AA?$AA@ 0000000180024840     libucrt:winapi_thunks.obj
 0002:00003880       ??_C@_1DM@KHCHBNEB@?$AAa?$AAp?$AAi?$AA?9?$AAm?$AAs?$AA?9?$AAw?$AAi?$AAn?$AA?9?$AAc?$AAo?$AAr?$AAe?$AA?9?$AAf?$AAi?$AAb?$AAe?$AAr?$AAs?$AA?9?$AAl?$AA1?$AA?9?$AA1?$AA?9?$AA1?$AA?$AA@ 0000000180024880     libucrt:winapi_thunks.obj
 0002:000038c0       ??_C@_1EI@MPIAOHOC@?$AAa?$AAp?$AAi?$AA?9?$AAm?$AAs?$AA?9?$AAw?$AAi?$AAn?$AA?9?$AAc?$AAo?$AAr?$AAe?$AA?9?$AAl?$AAo?$AAc?$AAa?$AAl?$AAi?$AAz?$AAa?$AAt?$AAi?$AAo?$AAn?$AA?9?$AAl?$AA1?$AA?9@ 00000001800248c0     libucrt:winapi_thunks.obj
 0002:00003910       ??_C@_1FK@FPHCKFIE@?$AAa?$AAp?$AAi?$AA?9?$AAm?$AAs?$AA?9?$AAw?$AAi?$AAn?$AA?9?$AAc?$AAo?$AAr?$AAe?$AA?9?$AAl?$AAo?$AAc?$AAa?$AAl?$AAi?$AAz?$AAa?$AAt?$AAi?$AAo?$AAn?$AA?9?$AAo?$AAb?$AAs@ 0000000180024910     libucrt:winapi_thunks.obj
 0002:00003970       ??_C@_1EM@DILCGIIO@?$AAa?$AAp?$AAi?$AA?9?$AAm?$AAs?$AA?9?$AAw?$AAi?$AAn?$AA?9?$AAc?$AAo?$AAr?$AAe?$AA?9?$AAp?$AAr?$AAo?$AAc?$AAe?$AAs?$AAs?$AAt?$AAh?$AAr?$AAe?$AAa?$AAd?$AAs?$AA?9?$AAl@ 0000000180024970     libucrt:winapi_thunks.obj
 0002:000039c0       ??_C@_1DM@LNCGDDPN@?$AAa?$AAp?$AAi?$AA?9?$AAm?$AAs?$AA?9?$AAw?$AAi?$AAn?$AA?9?$AAc?$AAo?$AAr?$AAe?$AA?9?$AAs?$AAt?$AAr?$AAi?$AAn?$AAg?$AA?9?$AAl?$AA1?$AA?9?$AA1?$AA?9?$AA0?$AA?$AA@ 00000001800249c0     libucrt:winapi_thunks.obj
 0002:00003a00       ??_C@_1DK@LPPGFMPP@?$AAa?$AAp?$AAi?$AA?9?$AAm?$AAs?$AA?9?$AAw?$AAi?$AAn?$AA?9?$AAc?$AAo?$AAr?$AAe?$AA?9?$AAs?$AAy?$AAn?$AAc?$AAh?$AA?9?$AAl?$AA1?$AA?9?$AA2?$AA?9?$AA0?$AA?$AA@ 0000000180024a00     libucrt:winapi_thunks.obj
 0002:00003a40       ??_C@_1DO@FPAPJEMD@?$AAa?$AAp?$AAi?$AA?9?$AAm?$AAs?$AA?9?$AAw?$AAi?$AAn?$AA?9?$AAc?$AAo?$AAr?$AAe?$AA?9?$AAs?$AAy?$AAs?$AAi?$AAn?$AAf?$AAo?$AA?9?$AAl?$AA1?$AA?9?$AA2?$AA?9?$AA1?$AA?$AA@ 0000000180024a40     libucrt:winapi_thunks.obj
 0002:00003a80       ??_C@_1DK@NDHNAHIO@?$AAa?$AAp?$AAi?$AA?9?$AAm?$AAs?$AA?9?$AAw?$AAi?$AAn?$AA?9?$AAc?$AAo?$AAr?$AAe?$AA?9?$AAw?$AAi?$AAn?$AAr?$AAt?$AA?9?$AAl?$AA1?$AA?9?$AA1?$AA?9?$AA0?$AA?$AA@ 0000000180024a80     libucrt:winapi_thunks.obj
 0002:00003ac0       ??_C@_1DM@KGHDGBCM@?$AAa?$AAp?$AAi?$AA?9?$AAm?$AAs?$AA?9?$AAw?$AAi?$AAn?$AA?9?$AAc?$AAo?$AAr?$AAe?$AA?9?$AAx?$AAs?$AAt?$AAa?$AAt?$AAe?$AA?9?$AAl?$AA2?$AA?9?$AA1?$AA?9?$AA0?$AA?$AA@ 0000000180024ac0     libucrt:winapi_thunks.obj
 0002:00003b00       ??_C@_1EO@IJIOEFOH@?$AAa?$AAp?$AAi?$AA?9?$AAm?$AAs?$AA?9?$AAw?$AAi?$AAn?$AA?9?$AAr?$AAt?$AAc?$AAo?$AAr?$AAe?$AA?9?$AAn?$AAt?$AAu?$AAs?$AAe?$AAr?$AA?9?$AAw?$AAi?$AAn?$AAd?$AAo?$AAw?$AA?9@ 0000000180024b00     libucrt:winapi_thunks.obj
 0002:00003b50       ??_C@_1FG@HHGEKANL@?$AAa?$AAp?$AAi?$AA?9?$AAm?$AAs?$AA?9?$AAw?$AAi?$AAn?$AA?9?$AAs?$AAe?$AAc?$AAu?$AAr?$AAi?$AAt?$AAy?$AA?9?$AAs?$AAy?$AAs?$AAt?$AAe?$AAm?$AAf?$AAu?$AAn?$AAc?$AAt?$AAi@ 0000000180024b50     libucrt:winapi_thunks.obj
 0002:00003bb0       ??_C@_1EG@DBIOJECG@?$AAe?$AAx?$AAt?$AA?9?$AAm?$AAs?$AA?9?$AAw?$AAi?$AAn?$AA?9?$AAn?$AAt?$AAu?$AAs?$AAe?$AAr?$AA?9?$AAd?$AAi?$AAa?$AAl?$AAo?$AAg?$AAb?$AAo?$AAx?$AA?9?$AAl?$AA1?$AA?9?$AA1@ 0000000180024bb0     libucrt:winapi_thunks.obj
 0002:00003c00       ??_C@_1EO@FIHMJCLF@?$AAe?$AAx?$AAt?$AA?9?$AAm?$AAs?$AA?9?$AAw?$AAi?$AAn?$AA?9?$AAn?$AAt?$AAu?$AAs?$AAe?$AAr?$AA?9?$AAw?$AAi?$AAn?$AAd?$AAo?$AAw?$AAs?$AAt?$AAa?$AAt?$AAi?$AAo?$AAn?$AA?9@ 0000000180024c00     libucrt:winapi_thunks.obj
 0002:00003c50       ??_C@_1BC@DNHGCMLG@?$AAa?$AAd?$AAv?$AAa?$AAp?$AAi?$AA3?$AA2?$AA?$AA@ 0000000180024c50     libucrt:winapi_thunks.obj
 0002:00003c68       ??_C@_1BC@GDMECMAK@?$AAk?$AAe?$AAr?$AAn?$AAe?$AAl?$AA3?$AA2?$AA?$AA@ 0000000180024c68     libucrt:winapi_thunks.obj
 0002:00003c80       ??_C@_1M@OAIMIKLP@?$AAn?$AAt?$AAd?$AAl?$AAl?$AA?$AA@ 0000000180024c80     libucrt:winapi_thunks.obj
 0002:00003c90       ??_C@_1EG@DPGNFKGC@?$AAa?$AAp?$AAi?$AA?9?$AAm?$AAs?$AA?9?$AAw?$AAi?$AAn?$AA?9?$AAa?$AAp?$AAp?$AAm?$AAo?$AAd?$AAe?$AAl?$AA?9?$AAr?$AAu?$AAn?$AAt?$AAi?$AAm?$AAe?$AA?9?$AAl?$AA1?$AA?9?$AA1@ 0000000180024c90     libucrt:winapi_thunks.obj
 0002:00003cd8       ??_C@_1O@BCCLBEOE@?$AAu?$AAs?$AAe?$AAr?$AA3?$AA2?$AA?$AA@ 0000000180024cd8     libucrt:winapi_thunks.obj
 0002:00003ce8       ??_C@_1BA@PFFKHIOG@?$AAa?$AAp?$AAi?$AA?9?$AAm?$AAs?$AA?9?$AA?$AA@ 0000000180024ce8     libucrt:winapi_thunks.obj
 0002:00003cf8       ??_C@_1BA@IAIFMGEF@?$AAe?$AAx?$AAt?$AA?9?$AAm?$AAs?$AA?9?$AA?$AA@ 0000000180024cf8     libucrt:winapi_thunks.obj
 0002:00003d10       ??_C@_08KNHFBNJ@FlsAlloc?$AA@ 0000000180024d10     libucrt:winapi_thunks.obj
 0002:00003d28       ??_C@_07PEJMOBNF@FlsFree?$AA@ 0000000180024d28     libucrt:winapi_thunks.obj
 0002:00003d38       ??_C@_0M@GDNOONDI@FlsGetValue?$AA@ 0000000180024d38     libucrt:winapi_thunks.obj
 0002:00003d50       ??_C@_0M@JCPCPOEF@FlsSetValue?$AA@ 0000000180024d50     libucrt:winapi_thunks.obj
 0002:00003d68       ??_C@_0BM@HCFOFFN@InitializeCriticalSectionEx?$AA@ 0000000180024d68     libucrt:winapi_thunks.obj
 0002:00003d90       ??_C@_0O@KKBNKAPF@LCMapStringEx?$AA@ 0000000180024d90     libucrt:winapi_thunks.obj
 0002:00003da8       ??_C@_0BB@HBDEELFH@LocaleNameToLCID?$AA@ 0000000180024da8     libucrt:winapi_thunks.obj
 0002:00003dc0       ??_C@_0CF@OJOFEIGO@AppPolicyGetProcessTerminationMe@ 0000000180024dc0     libucrt:winapi_thunks.obj
 0002:00003df0       ??_C@_0BI@BKLFFAPO@SetThreadStackGuarantee?$AA@ 0000000180024df0     libucrt:winapi_thunks.obj
 0002:00003e08       ??_C@_03OEIAHPBN@INF?$AA@  0000000180024e08     libucrt:cvt.obj
 0002:00003e0c       ??_C@_03OJHLLCGB@inf?$AA@  0000000180024e0c     libucrt:cvt.obj
 0002:00003e10       ??_C@_03LKNCIKJB@NAN?$AA@  0000000180024e10     libucrt:cvt.obj
 0002:00003e14       ??_C@_03LHCJEHON@nan?$AA@  0000000180024e14     libucrt:cvt.obj
 0002:00003e18       ??_C@_09OFJJIMPC@NAN?$CISNAN?$CJ?$AA@ 0000000180024e18     libucrt:cvt.obj
 0002:00003e28       ??_C@_09IPFBKMDL@nan?$CIsnan?$CJ?$AA@ 0000000180024e28     libucrt:cvt.obj
 0002:00003e38       ??_C@_08IKHNHAJ@NAN?$CIIND?$CJ?$AA@ 0000000180024e38     libucrt:cvt.obj
 0002:00003e48       ??_C@_08OFCDMILK@nan?$CIind?$CJ?$AA@ 0000000180024e48     libucrt:cvt.obj
 0002:00003e54       ??_C@_05KLBDPFGC@e?$CL000?$AA@ 0000000180024e54     libucrt:cvt.obj
 0002:00003e60       __lc_time_c                0000000180024e60     libucrt:nlsdata.obj
 0002:00004120       ??_C@_03KOEHGMDN@Sun?$AA@  0000000180025120     libucrt:nlsdata.obj
 0002:00004124       ??_C@_03PDAGKDH@Mon?$AA@   0000000180025124     libucrt:nlsdata.obj
 0002:00004128       ??_C@_03NAGEINEP@Tue?$AA@  0000000180025128     libucrt:nlsdata.obj
 0002:0000412c       ??_C@_03MHOMLAJA@Wed?$AA@  000000018002512c     libucrt:nlsdata.obj
 0002:00004130       ??_C@_03IOFIKPDN@Thu?$AA@  0000000180025130     libucrt:nlsdata.obj
 0002:00004134       ??_C@_03IDIOELNC@Fri?$AA@  0000000180025134     libucrt:nlsdata.obj
 0002:00004138       ??_C@_03FEFJNEK@Sat?$AA@   0000000180025138     libucrt:nlsdata.obj
 0002:0000413c       ??_C@_06OOPIFAJ@Sunday?$AA@ 000000018002513c     libucrt:nlsdata.obj
 0002:00004144       ??_C@_06JLEDEDGH@Monday?$AA@ 0000000180025144     libucrt:nlsdata.obj
 0002:00004150       ??_C@_07BAAGCFCM@Tuesday?$AA@ 0000000180025150     libucrt:nlsdata.obj
 0002:00004158       ??_C@_09DLIGFAKA@Wednesday?$AA@ 0000000180025158     libucrt:nlsdata.obj
 0002:00004168       ??_C@_08HACCIKIA@Thursday?$AA@ 0000000180025168     libucrt:nlsdata.obj
 0002:00004174       ??_C@_06JECMNKMI@Friday?$AA@ 0000000180025174     libucrt:nlsdata.obj
 0002:00004180       ??_C@_08INBOOONO@Saturday?$AA@ 0000000180025180     libucrt:nlsdata.obj
 0002:0000418c       ??_C@_03JIHJHPIE@Jan?$AA@  000000018002518c     libucrt:nlsdata.obj
 0002:00004190       ??_C@_03HJBDCHOM@Feb?$AA@  0000000180025190     libucrt:nlsdata.obj
 0002:00004194       ??_C@_03ODNJBKGA@Mar?$AA@  0000000180025194     libucrt:nlsdata.obj
 0002:00004198       ??_C@_03LEOLGMJP@Apr?$AA@  0000000180025198     libucrt:nlsdata.obj
 0002:0000419c       ??_C@_03CNMDKL@May?$AA@    000000018002519c     libucrt:nlsdata.obj
 0002:000041a0       ??_C@_03IDFGHECI@Jun?$AA@  00000001800251a0     libucrt:nlsdata.obj
 0002:000041a4       ??_C@_03LBGABGKK@Jul?$AA@  00000001800251a4     libucrt:nlsdata.obj
 0002:000041a8       ??_C@_03IFJFEIGA@Aug?$AA@  00000001800251a8     libucrt:nlsdata.obj
 0002:000041ac       ??_C@_03GGCAPAJC@Sep?$AA@  00000001800251ac     libucrt:nlsdata.obj
 0002:000041b0       ??_C@_03BMAOKBAD@Oct?$AA@  00000001800251b0     libucrt:nlsdata.obj
 0002:000041b4       ??_C@_03JPJOFNIA@Nov?$AA@  00000001800251b4     libucrt:nlsdata.obj
 0002:000041b8       ??_C@_03MKABNOCG@Dec?$AA@  00000001800251b8     libucrt:nlsdata.obj
 0002:000041c0       ??_C@_07CGJPFGJA@January?$AA@ 00000001800251c0     libucrt:nlsdata.obj
 0002:000041c8       ??_C@_08GNJGEPFN@February?$AA@ 00000001800251c8     libucrt:nlsdata.obj
 0002:000041d4       ??_C@_05HPCKOFNC@March?$AA@ 00000001800251d4     libucrt:nlsdata.obj
 0002:000041dc       ??_C@_05DMJDNLEJ@April?$AA@ 00000001800251dc     libucrt:nlsdata.obj
 0002:000041e4       ??_C@_04CNLMGBGM@June?$AA@ 00000001800251e4     libucrt:nlsdata.obj
 0002:000041ec       ??_C@_04MIEPOIFP@July?$AA@ 00000001800251ec     libucrt:nlsdata.obj
 0002:000041f4       ??_C@_06LBBHFDDG@August?$AA@ 00000001800251f4     libucrt:nlsdata.obj
 0002:00004200       ??_C@_09BHHEALKD@September?$AA@ 0000000180025200     libucrt:nlsdata.obj
 0002:00004210       ??_C@_07JJNFCEND@October?$AA@ 0000000180025210     libucrt:nlsdata.obj
 0002:00004218       ??_C@_08HCHEGEOA@November?$AA@ 0000000180025218     libucrt:nlsdata.obj
 0002:00004228       ??_C@_08EDHMEBNP@December?$AA@ 0000000180025228     libucrt:nlsdata.obj
 0002:00004234       ??_C@_02DEDBPAFC@AM?$AA@   0000000180025234     libucrt:nlsdata.obj
 0002:00004238       ??_C@_02CJNFDJBF@PM?$AA@   0000000180025238     libucrt:nlsdata.obj
 0002:00004240       ??_C@_08BPBNCDIB@MM?1dd?1yy?$AA@ 0000000180025240     libucrt:nlsdata.obj
 0002:00004250       ??_C@_0BE@CKGJFCPC@dddd?0?5MMMM?5dd?0?5yyyy?$AA@ 0000000180025250     libucrt:nlsdata.obj
 0002:00004268       ??_C@_08JCCMCCIL@HH?3mm?3ss?$AA@ 0000000180025268     libucrt:nlsdata.obj
 0002:00004278       ??_C@_17MBGCMIPB@?$AAS?$AAu?$AAn?$AA?$AA@ 0000000180025278     libucrt:nlsdata.obj
 0002:00004280       ??_C@_17KBOMKBF@?$AAM?$AAo?$AAn?$AA?$AA@ 0000000180025280     libucrt:nlsdata.obj
 0002:00004288       ??_C@_17BMKGEGOJ@?$AAT?$AAu?$AAe?$AA?$AA@ 0000000180025288     libucrt:nlsdata.obj
 0002:00004290       ??_C@_17CJEDCEPE@?$AAW?$AAe?$AAd?$AA?$AA@ 0000000180025290     libucrt:nlsdata.obj
 0002:00004298       ??_C@_17PDPHAADD@?$AAT?$AAh?$AAu?$AA?$AA@ 0000000180025298     libucrt:nlsdata.obj
 0002:000042a0       ??_C@_17HFOLPPLP@?$AAF?$AAr?$AAi?$AA?$AA@ 00000001800252a0     libucrt:nlsdata.obj
 0002:000042a8       ??_C@_17GGIBDPIH@?$AAS?$AAa?$AAt?$AA?$AA@ 00000001800252a8     libucrt:nlsdata.obj
 0002:000042b0       ??_C@_1O@IHNHDHPB@?$AAS?$AAu?$AAn?$AAd?$AAa?$AAy?$AA?$AA@ 00000001800252b0     libucrt:nlsdata.obj
 0002:000042c0       ??_C@_1O@MMNBFLIA@?$AAM?$AAo?$AAn?$AAd?$AAa?$AAy?$AA?$AA@ 00000001800252c0     libucrt:nlsdata.obj
 0002:000042d0       ??_C@_1BA@ENFBFFEK@?$AAT?$AAu?$AAe?$AAs?$AAd?$AAa?$AAy?$AA?$AA@ 00000001800252d0     libucrt:nlsdata.obj
 0002:000042e0       ??_C@_1BE@EBOGMDOH@?$AAW?$AAe?$AAd?$AAn?$AAe?$AAs?$AAd?$AAa?$AAy?$AA?$AA@ 00000001800252e0     libucrt:nlsdata.obj
 0002:000042f8       ??_C@_1BC@HHMNLIHE@?$AAT?$AAh?$AAu?$AAr?$AAs?$AAd?$AAa?$AAy?$AA?$AA@ 00000001800252f8     libucrt:nlsdata.obj
 0002:00004310       ??_C@_1O@PDICJHAG@?$AAF?$AAr?$AAi?$AAd?$AAa?$AAy?$AA?$AA@ 0000000180025310     libucrt:nlsdata.obj
 0002:00004320       ??_C@_1BC@ENMNNPAJ@?$AAS?$AAa?$AAt?$AAu?$AAr?$AAd?$AAa?$AAy?$AA?$AA@ 0000000180025320     libucrt:nlsdata.obj
 0002:00004338       ??_C@_17DKNBKCHM@?$AAJ?$AAa?$AAn?$AA?$AA@ 0000000180025338     libucrt:nlsdata.obj
 0002:00004340       ??_C@_17LMDJEKJN@?$AAF?$AAe?$AAb?$AA?$AA@ 0000000180025340     libucrt:nlsdata.obj
 0002:00004348       ??_C@_17CKNLEDEC@?$AAM?$AAa?$AAr?$AA?$AA@ 0000000180025348     libucrt:nlsdata.obj
 0002:00004350       ??_C@_17LFPOIHDD@?$AAA?$AAp?$AAr?$AA?$AA@ 0000000180025350     libucrt:nlsdata.obj
 0002:00004358       ??_C@_17PNNKMEED@?$AAM?$AAa?$AAy?$AA?$AA@ 0000000180025358     libucrt:nlsdata.obj
 0002:00004360       ??_C@_17KCJGOCPB@?$AAJ?$AAu?$AAn?$AA?$AA@ 0000000180025360     libucrt:nlsdata.obj
 0002:00004368       ??_C@_17IJPCKHK@?$AAJ?$AAu?$AAl?$AA?$AA@ 0000000180025368     libucrt:nlsdata.obj
 0002:00004370       ??_C@_17ICPELBCN@?$AAA?$AAu?$AAg?$AA?$AA@ 0000000180025370     libucrt:nlsdata.obj
 0002:00004378       ??_C@_17HCHCOKMG@?$AAS?$AAe?$AAp?$AA?$AA@ 0000000180025378     libucrt:nlsdata.obj
 0002:00004380       ??_C@_17FNLKOI@?$AAO?$AAc?$AAt?$AA?$AA@ 0000000180025380     libucrt:nlsdata.obj
 0002:00004388       ??_C@_17BBDMLCIG@?$AAN?$AAo?$AAv?$AA?$AA@ 0000000180025388     libucrt:nlsdata.obj
 0002:00004390       ??_C@_17EGKACKIF@?$AAD?$AAe?$AAc?$AA?$AA@ 0000000180025390     libucrt:nlsdata.obj
 0002:00004398       ??_C@_1BA@EFMEIEBA@?$AAJ?$AAa?$AAn?$AAu?$AAa?$AAr?$AAy?$AA?$AA@ 0000000180025398     libucrt:nlsdata.obj
 0002:000043a8       ??_C@_1BC@JGDDFFAM@?$AAF?$AAe?$AAb?$AAr?$AAu?$AAa?$AAr?$AAy?$AA?$AA@ 00000001800253a8     libucrt:nlsdata.obj
 0002:000043c0       ??_C@_1M@IKEENEDF@?$AAM?$AAa?$AAr?$AAc?$AAh?$AA?$AA@ 00000001800253c0     libucrt:nlsdata.obj
 0002:000043d0       ??_C@_1M@GJNLMHFD@?$AAA?$AAp?$AAr?$AAi?$AAl?$AA?$AA@ 00000001800253d0     libucrt:nlsdata.obj
 0002:000043e0       ??_C@_19EPFLPGAP@?$AAJ?$AAu?$AAn?$AAe?$AA?$AA@ 00000001800253e0     libucrt:nlsdata.obj
 0002:000043f0       ??_C@_19BIFMLPCD@?$AAJ?$AAu?$AAl?$AAy?$AA?$AA@ 00000001800253f0     libucrt:nlsdata.obj
 0002:00004400       ??_C@_1O@PAHLKOAC@?$AAA?$AAu?$AAg?$AAu?$AAs?$AAt?$AA?$AA@ 0000000180025400     libucrt:nlsdata.obj
 0002:00004410       ??_C@_1BE@DKAAMBJL@?$AAS?$AAe?$AAp?$AAt?$AAe?$AAm?$AAb?$AAe?$AAr?$AA?$AA@ 0000000180025410     libucrt:nlsdata.obj
 0002:00004428       ??_C@_1BA@EPANDLNG@?$AAO?$AAc?$AAt?$AAo?$AAb?$AAe?$AAr?$AA?$AA@ 0000000180025428     libucrt:nlsdata.obj
 0002:00004438       ??_C@_1BC@BGLIFPF@?$AAN?$AAo?$AAv?$AAe?$AAm?$AAb?$AAe?$AAr?$AA?$AA@ 0000000180025438     libucrt:nlsdata.obj
 0002:00004450       ??_C@_1BC@FEMKIFH@?$AAD?$AAe?$AAc?$AAe?$AAm?$AAb?$AAe?$AAr?$AA?$AA@ 0000000180025450     libucrt:nlsdata.obj
 0002:00004464       ??_C@_15ODEHAHHF@?$AAA?$AAM?$AA?$AA@ 0000000180025464     libucrt:nlsdata.obj
 0002:0000446c       ??_C@_15CLMNNGEL@?$AAP?$AAM?$AA?$AA@ 000000018002546c     libucrt:nlsdata.obj
 0002:00004478       ??_C@_1BC@IEBCMHCM@?$AAM?$AAM?$AA?1?$AAd?$AAd?$AA?1?$AAy?$AAy?$AA?$AA@ 0000000180025478     libucrt:nlsdata.obj
 0002:00004490       ??_C@_1CI@KNAKOEBC@?$AAd?$AAd?$AAd?$AAd?$AA?0?$AA?5?$AAM?$AAM?$AAM?$AAM?$AA?5?$AAd?$AAd?$AA?0?$AA?5?$AAy?$AAy?$AAy?$AAy?$AA?$AA@ 0000000180025490     libucrt:nlsdata.obj
 0002:000044b8       ??_C@_1BC@GDGBMEMK@?$AAH?$AAH?$AA?3?$AAm?$AAm?$AA?3?$AAs?$AAs?$AA?$AA@ 00000001800254b8     libucrt:nlsdata.obj
 0002:000044d0       ??_C@_1M@BMHNFIME@?$AAe?$AAn?$AA?9?$AAU?$AAS?$AA?$AA@ 00000001800254d0     libucrt:nlsdata.obj
 0002:00004500       ??_C@_1M@HPNHIDJI@?$AAj?$AAa?$AA?9?$AAJ?$AAP?$AA?$AA@ 0000000180025500     libucrt:mbctype.obj
 0002:00004510       ??_C@_1M@BIBDDEMK@?$AAz?$AAh?$AA?9?$AAC?$AAN?$AA?$AA@ 0000000180025510     libucrt:mbctype.obj
 0002:00004520       ??_C@_1M@JLOOOEGK@?$AAk?$AAo?$AA?9?$AAK?$AAR?$AA?$AA@ 0000000180025520     libucrt:mbctype.obj
 0002:00004530       ??_C@_1M@CLNBBOPM@?$AAz?$AAh?$AA?9?$AAT?$AAW?$AA?$AA@ 0000000180025530     libucrt:mbctype.obj
 0002:00004540       __newctype                 0000000180025540     libucrt:ctype.obj
 0002:00004840       __newclmap                 0000000180025840     libucrt:ctype.obj
 0002:000049c0       __newcumap                 00000001800259c0     libucrt:ctype.obj
 0002:00004b40       _wctype                    0000000180025b40     libucrt:ctype.obj
 0002:00004d48       ??_C@_1M@GPCBKDJK@?$AAh?$AAy?$AA?9?$AAA?$AAM?$AA?$AA@ 0000000180025d48     libucrt:lcidtoname_downlevel.obj
 0002:00004d58       ??_C@_1BG@BECMDDJB@?$AAa?$AAz?$AA?9?$AAA?$AAZ?$AA?9?$AAL?$AAa?$AAt?$AAn?$AA?$AA@ 0000000180025d58     libucrt:lcidtoname_downlevel.obj
 0002:00004d70       ??_C@_1M@MAOFCAEA@?$AAe?$AAu?$AA?9?$AAE?$AAS?$AA?$AA@ 0000000180025d70     libucrt:lcidtoname_downlevel.obj
 0002:00004d80       ??_C@_1M@IGHABKPI@?$AAm?$AAk?$AA?9?$AAM?$AAK?$AA?$AA@ 0000000180025d80     libucrt:lcidtoname_downlevel.obj
 0002:00004d90       ??_C@_1M@IAIGNEJG@?$AAt?$AAn?$AA?9?$AAZ?$AAA?$AA?$AA@ 0000000180025d90     libucrt:lcidtoname_downlevel.obj
 0002:00004da0       ??_C@_1M@IIJCOJFA@?$AAx?$AAh?$AA?9?$AAZ?$AAA?$AA?$AA@ 0000000180025da0     libucrt:lcidtoname_downlevel.obj
 0002:00004db0       ??_C@_1M@LGPJHNJH@?$AAz?$AAu?$AA?9?$AAZ?$AAA?$AA?$AA@ 0000000180025db0     libucrt:lcidtoname_downlevel.obj
 0002:00004dc0       ??_C@_1M@HOKAOIO@?$AAa?$AAf?$AA?9?$AAZ?$AAA?$AA?$AA@ 0000000180025dc0     libucrt:lcidtoname_downlevel.obj
 0002:00004dd0       ??_C@_1M@DPCLHLIE@?$AAk?$AAa?$AA?9?$AAG?$AAE?$AA?$AA@ 0000000180025dd0     libucrt:lcidtoname_downlevel.obj
 0002:00004de0       ??_C@_1M@BLKMHJBI@?$AAf?$AAo?$AA?9?$AAF?$AAO?$AA?$AA@ 0000000180025de0     libucrt:lcidtoname_downlevel.obj
 0002:00004df0       ??_C@_1M@LGGJAPPB@?$AAh?$AAi?$AA?9?$AAI?$AAN?$AA?$AA@ 0000000180025df0     libucrt:lcidtoname_downlevel.obj
 0002:00004e00       ??_C@_1M@FIKPIHFE@?$AAm?$AAt?$AA?9?$AAM?$AAT?$AA?$AA@ 0000000180025e00     libucrt:lcidtoname_downlevel.obj
 0002:00004e10       ??_C@_1M@HEGGPBFA@?$AAs?$AAe?$AA?9?$AAN?$AAO?$AA?$AA@ 0000000180025e10     libucrt:lcidtoname_downlevel.obj
 0002:00004e20       ??_C@_1M@EIBJEEPA@?$AAm?$AAs?$AA?9?$AAM?$AAY?$AA?$AA@ 0000000180025e20     libucrt:lcidtoname_downlevel.obj
 0002:00004e30       ??_C@_1M@FHLBGMPP@?$AAk?$AAk?$AA?9?$AAK?$AAZ?$AA?$AA@ 0000000180025e30     libucrt:lcidtoname_downlevel.obj
 0002:00004e40       ??_C@_1M@NGJJLCGI@?$AAk?$AAy?$AA?9?$AAK?$AAG?$AA?$AA@ 0000000180025e40     libucrt:lcidtoname_downlevel.obj
 0002:00004e50       ??_C@_1M@GIENNBFC@?$AAs?$AAw?$AA?9?$AAK?$AAE?$AA?$AA@ 0000000180025e50     libucrt:lcidtoname_downlevel.obj
 0002:00004e60       ??_C@_1BG@NDGMJIMJ@?$AAu?$AAz?$AA?9?$AAU?$AAZ?$AA?9?$AAL?$AAa?$AAt?$AAn?$AA?$AA@ 0000000180025e60     libucrt:lcidtoname_downlevel.obj
 0002:00004e78       ??_C@_1M@IDCCIHBC@?$AAt?$AAt?$AA?9?$AAR?$AAU?$AA?$AA@ 0000000180025e78     libucrt:lcidtoname_downlevel.obj
 0002:00004e88       ??_C@_1M@LOICPMOJ@?$AAb?$AAn?$AA?9?$AAI?$AAN?$AA?$AA@ 0000000180025e88     libucrt:lcidtoname_downlevel.obj
 0002:00004e98       ??_C@_1M@KPKKNEAH@?$AAp?$AAa?$AA?9?$AAI?$AAN?$AA?$AA@ 0000000180025e98     libucrt:lcidtoname_downlevel.obj
 0002:00004ea8       ??_C@_1M@PJGPPBOG@?$AAg?$AAu?$AA?9?$AAI?$AAN?$AA?$AA@ 0000000180025ea8     libucrt:lcidtoname_downlevel.obj
 0002:00004eb8       ??_C@_1M@KMKMOPHI@?$AAt?$AAa?$AA?9?$AAI?$AAN?$AA?$AA@ 0000000180025eb8     libucrt:lcidtoname_downlevel.obj
 0002:00004ec8       ??_C@_1M@KFEHEPAC@?$AAt?$AAe?$AA?9?$AAI?$AAN?$AA?$AA@ 0000000180025ec8     libucrt:lcidtoname_downlevel.obj
 0002:00004ed8       ??_C@_1M@CDCLMGHI@?$AAk?$AAn?$AA?9?$AAI?$AAN?$AA?$AA@ 0000000180025ed8     libucrt:lcidtoname_downlevel.obj
 0002:00004ee8       ??_C@_1M@MIODLDKF@?$AAm?$AAl?$AA?9?$AAI?$AAN?$AA?$AA@ 0000000180025ee8     libucrt:lcidtoname_downlevel.obj
 0002:00004ef8       ??_C@_1M@PBIEACPO@?$AAm?$AAr?$AA?9?$AAI?$AAN?$AA?$AA@ 0000000180025ef8     libucrt:lcidtoname_downlevel.obj
 0002:00004f08       ??_C@_1M@NIDEAGPH@?$AAs?$AAa?$AA?9?$AAI?$AAN?$AA?$AA@ 0000000180025f08     libucrt:lcidtoname_downlevel.obj
 0002:00004f18       ??_C@_1M@FHIHCBIO@?$AAm?$AAn?$AA?9?$AAM?$AAN?$AA?$AA@ 0000000180025f18     libucrt:lcidtoname_downlevel.obj
 0002:00004f28       ??_C@_1M@JAIJPENP@?$AAc?$AAy?$AA?9?$AAG?$AAB?$AA?$AA@ 0000000180025f28     libucrt:lcidtoname_downlevel.obj
 0002:00004f38       ??_C@_1M@PHGFBEPN@?$AAg?$AAl?$AA?9?$AAE?$AAS?$AA?$AA@ 0000000180025f38     libucrt:lcidtoname_downlevel.obj
 0002:00004f48       ??_C@_1O@KPIPDNCP@?$AAk?$AAo?$AAk?$AA?9?$AAI?$AAN?$AA?$AA@ 0000000180025f48     libucrt:lcidtoname_downlevel.obj
 0002:00004f58       ??_C@_1O@KNHJLDJA@?$AAs?$AAy?$AAr?$AA?9?$AAS?$AAY?$AA?$AA@ 0000000180025f58     libucrt:lcidtoname_downlevel.obj
 0002:00004f68       ??_C@_1O@MKEKBLAH@?$AAd?$AAi?$AAv?$AA?9?$AAM?$AAV?$AA?$AA@ 0000000180025f68     libucrt:lcidtoname_downlevel.obj
 0002:00004f78       ??_C@_1O@OHDCKDDF@?$AAq?$AAu?$AAz?$AA?9?$AAB?$AAO?$AA?$AA@ 0000000180025f78     libucrt:lcidtoname_downlevel.obj
 0002:00004f88       ??_C@_1M@LEPJNLFD@?$AAn?$AAs?$AA?9?$AAZ?$AAA?$AA?$AA@ 0000000180025f88     libucrt:lcidtoname_downlevel.obj
 0002:00004f98       ??_C@_1M@OMLEIIJB@?$AAm?$AAi?$AA?9?$AAN?$AAZ?$AA?$AA@ 0000000180025f98     libucrt:lcidtoname_downlevel.obj
 0002:00004fa8       ??_C@_1M@PMPEAILG@?$AAa?$AAr?$AA?9?$AAI?$AAQ?$AA?$AA@ 0000000180025fa8     libucrt:lcidtoname_downlevel.obj
 0002:00004fb8       ??_C@_1M@CNKPNOEE@?$AAd?$AAe?$AA?9?$AAC?$AAH?$AA?$AA@ 0000000180025fb8     libucrt:lcidtoname_downlevel.obj
 0002:00004fc8       ??_C@_1M@LKMGMLKO@?$AAe?$AAn?$AA?9?$AAG?$AAB?$AA?$AA@ 0000000180025fc8     libucrt:lcidtoname_downlevel.obj
 0002:00004fd8       ??_C@_1M@PGKJFFGL@?$AAe?$AAs?$AA?9?$AAM?$AAX?$AA?$AA@ 0000000180025fd8     libucrt:lcidtoname_downlevel.obj
 0002:00004fe8       ??_C@_1M@DNNANBDC@?$AAf?$AAr?$AA?9?$AAB?$AAE?$AA?$AA@ 0000000180025fe8     libucrt:lcidtoname_downlevel.obj
 0002:00004ff8       ??_C@_1M@HLGMDFHM@?$AAi?$AAt?$AA?9?$AAC?$AAH?$AA?$AA@ 0000000180025ff8     libucrt:lcidtoname_downlevel.obj
 0002:00005008       ??_C@_1M@CLLBGJH@?$AAn?$AAl?$AA?9?$AAB?$AAE?$AA?$AA@ 0000000180026008     libucrt:lcidtoname_downlevel.obj
 0002:00005018       ??_C@_1M@BODBOGLF@?$AAn?$AAn?$AA?9?$AAN?$AAO?$AA?$AA@ 0000000180026018     libucrt:lcidtoname_downlevel.obj
 0002:00005028       ??_C@_1M@HFFAHKAD@?$AAp?$AAt?$AA?9?$AAP?$AAT?$AA?$AA@ 0000000180026028     libucrt:lcidtoname_downlevel.obj
 0002:00005038       ??_C@_1BG@LNOAKHIE@?$AAs?$AAr?$AA?9?$AAS?$AAP?$AA?9?$AAL?$AAa?$AAt?$AAn?$AA?$AA@ 0000000180026038     libucrt:lcidtoname_downlevel.obj
 0002:00005050       ??_C@_1M@HBMHBGAK@?$AAs?$AAv?$AA?9?$AAF?$AAI?$AA?$AA@ 0000000180026050     libucrt:lcidtoname_downlevel.obj
 0002:00005060       ??_C@_1BG@DGCJGJBE@?$AAa?$AAz?$AA?9?$AAA?$AAZ?$AA?9?$AAC?$AAy?$AAr?$AAl?$AA?$AA@ 0000000180026060     libucrt:lcidtoname_downlevel.obj
 0002:00005078       ??_C@_1M@KEJDAAHB@?$AAs?$AAe?$AA?9?$AAS?$AAE?$AA?$AA@ 0000000180026078     libucrt:lcidtoname_downlevel.obj
 0002:00005088       ??_C@_1M@HEIBJJAD@?$AAm?$AAs?$AA?9?$AAB?$AAN?$AA?$AA@ 0000000180026088     libucrt:lcidtoname_downlevel.obj
 0002:00005098       ??_C@_1BG@PBGJMCEM@?$AAu?$AAz?$AA?9?$AAU?$AAZ?$AA?9?$AAC?$AAy?$AAr?$AAl?$AA?$AA@ 0000000180026098     libucrt:lcidtoname_downlevel.obj
 0002:000050b0       ??_C@_1O@LAOBCMDF@?$AAq?$AAu?$AAz?$AA?9?$AAE?$AAC?$AA?$AA@ 00000001800260b0     libucrt:lcidtoname_downlevel.obj
 0002:000050c0       ??_C@_1M@POEEMAIO@?$AAa?$AAr?$AA?9?$AAE?$AAG?$AA?$AA@ 00000001800260c0     libucrt:lcidtoname_downlevel.obj
 0002:000050d0       ??_C@_1M@EFAKDEDL@?$AAz?$AAh?$AA?9?$AAH?$AAK?$AA?$AA@ 00000001800260d0     libucrt:lcidtoname_downlevel.obj
 0002:000050e0       ??_C@_1M@HKKIJHGI@?$AAd?$AAe?$AA?9?$AAA?$AAT?$AA?$AA@ 00000001800260e0     libucrt:lcidtoname_downlevel.obj
 0002:000050f0       ??_C@_1M@KBFBEHJF@?$AAe?$AAn?$AA?9?$AAA?$AAU?$AA?$AA@ 00000001800260f0     libucrt:lcidtoname_downlevel.obj
 0002:00005100       ??_C@_1M@MNPLFAAH@?$AAe?$AAs?$AA?9?$AAE?$AAS?$AA?$AA@ 0000000180026100     libucrt:lcidtoname_downlevel.obj
 0002:00005110       ??_C@_1M@HJOOJFMA@?$AAf?$AAr?$AA?9?$AAC?$AAA?$AA?$AA@ 0000000180026110     libucrt:lcidtoname_downlevel.obj
 0002:00005120       ??_C@_1BG@JPOFPNAB@?$AAs?$AAr?$AA?9?$AAS?$AAP?$AA?9?$AAC?$AAy?$AAr?$AAl?$AA?$AA@ 0000000180026120     libucrt:lcidtoname_downlevel.obj
 0002:00005138       ??_C@_1M@LNFOCMOB@?$AAs?$AAe?$AA?9?$AAF?$AAI?$AA?$AA@ 0000000180026138     libucrt:lcidtoname_downlevel.obj
 0002:00005148       ??_C@_1O@MGJBOAMB@?$AAq?$AAu?$AAz?$AA?9?$AAP?$AAE?$AA?$AA@ 0000000180026148     libucrt:lcidtoname_downlevel.obj
 0002:00005158       ??_C@_1M@GJINLBOK@?$AAa?$AAr?$AA?9?$AAL?$AAY?$AA?$AA@ 0000000180026158     libucrt:lcidtoname_downlevel.obj
 0002:00005168       ??_C@_1M@GGMNHJNL@?$AAz?$AAh?$AA?9?$AAS?$AAG?$AA?$AA@ 0000000180026168     libucrt:lcidtoname_downlevel.obj
 0002:00005178       ??_C@_1M@HOIKODND@?$AAd?$AAe?$AA?9?$AAL?$AAU?$AA?$AA@ 0000000180026178     libucrt:lcidtoname_downlevel.obj
 0002:00005188       ??_C@_1M@DDOCCGFG@?$AAe?$AAn?$AA?9?$AAC?$AAA?$AA?$AA@ 0000000180026188     libucrt:lcidtoname_downlevel.obj
 0002:00005198       ??_C@_1M@BNOEMJLF@?$AAe?$AAs?$AA?9?$AAG?$AAT?$AA?$AA@ 0000000180026198     libucrt:lcidtoname_downlevel.obj
 0002:000051a8       ??_C@_1M@EOGNKEK@?$AAf?$AAr?$AA?9?$AAC?$AAH?$AA?$AA@ 00000001800261a8     libucrt:lcidtoname_downlevel.obj
 0002:000051b8       ??_C@_1M@FLIDJFHL@?$AAh?$AAr?$AA?9?$AAB?$AAA?$AA?$AA@ 00000001800261b8     libucrt:lcidtoname_downlevel.obj
 0002:000051c8       ??_C@_1O@FMCELNAJ@?$AAs?$AAm?$AAj?$AA?9?$AAN?$AAO?$AA?$AA@ 00000001800261c8     libucrt:lcidtoname_downlevel.obj
 0002:000051d8       ??_C@_1M@JHGLJMGJ@?$AAa?$AAr?$AA?9?$AAD?$AAZ?$AA?$AA@ 00000001800261d8     libucrt:lcidtoname_downlevel.obj
 0002:000051e8       ??_C@_1M@JKKFDCNP@?$AAz?$AAh?$AA?9?$AAM?$AAO?$AA?$AA@ 00000001800261e8     libucrt:lcidtoname_downlevel.obj
 0002:000051f8       ??_C@_1M@GEEFALPE@?$AAd?$AAe?$AA?9?$AAL?$AAI?$AA?$AA@ 00000001800261f8     libucrt:lcidtoname_downlevel.obj
 0002:00005208       ??_C@_1M@IGEOFBG@?$AAe?$AAn?$AA?9?$AAN?$AAZ?$AA?$AA@ 0000000180026208     libucrt:lcidtoname_downlevel.obj
 0002:00005218       ??_C@_1M@KDBONEHP@?$AAe?$AAs?$AA?9?$AAC?$AAR?$AA?$AA@ 0000000180026218     libucrt:lcidtoname_downlevel.obj
 0002:00005228       ??_C@_1M@FHMDOHNN@?$AAf?$AAr?$AA?9?$AAL?$AAU?$AA?$AA@ 0000000180026228     libucrt:lcidtoname_downlevel.obj
 0002:00005238       ??_C@_1BG@NFKKMAFG@?$AAb?$AAs?$AA?9?$AAB?$AAA?$AA?9?$AAL?$AAa?$AAt?$AAn?$AA?$AA@ 0000000180026238     libucrt:lcidtoname_downlevel.obj
 0002:00005250       ??_C@_1O@IMNBEMCI@?$AAs?$AAm?$AAj?$AA?9?$AAS?$AAE?$AA?$AA@ 0000000180026250     libucrt:lcidtoname_downlevel.obj
 0002:00005260       ??_C@_1M@DHHMBNDP@?$AAa?$AAr?$AA?9?$AAM?$AAA?$AA?$AA@ 0000000180026260     libucrt:lcidtoname_downlevel.obj
 0002:00005270       ??_C@_1M@BNBLJCGH@?$AAe?$AAn?$AA?9?$AAI?$AAE?$AA?$AA@ 0000000180026270     libucrt:lcidtoname_downlevel.obj
 0002:00005280       ??_C@_1M@GEPAFMDL@?$AAe?$AAs?$AA?9?$AAP?$AAA?$AA?$AA@ 0000000180026280     libucrt:lcidtoname_downlevel.obj
 0002:00005290       ??_C@_1M@OJONDMDL@?$AAf?$AAr?$AA?9?$AAM?$AAC?$AA?$AA@ 0000000180026290     libucrt:lcidtoname_downlevel.obj
 0002:000052a0       ??_C@_1BG@OBCNFJB@?$AAs?$AAr?$AA?9?$AAB?$AAA?$AA?9?$AAL?$AAa?$AAt?$AAn?$AA?$AA@ 00000001800262a0     libucrt:lcidtoname_downlevel.obj
 0002:000052b8       ??_C@_1O@KEMEEGPO@?$AAs?$AAm?$AAa?$AA?9?$AAN?$AAO?$AA?$AA@ 00000001800262b8     libucrt:lcidtoname_downlevel.obj
 0002:000052c8       ??_C@_1M@ELMGFODK@?$AAa?$AAr?$AA?9?$AAT?$AAN?$AA?$AA@ 00000001800262c8     libucrt:lcidtoname_downlevel.obj
 0002:000052d8       ??_C@_1M@BHDLHFAF@?$AAe?$AAn?$AA?9?$AAZ?$AAA?$AA?$AA@ 00000001800262d8     libucrt:lcidtoname_downlevel.obj
 0002:000052e8       ??_C@_1M@BMGIGLIF@?$AAe?$AAs?$AA?9?$AAD?$AAO?$AA?$AA@ 00000001800262e8     libucrt:lcidtoname_downlevel.obj
 0002:000052f8       ??_C@_1BG@CMBHIPBE@?$AAs?$AAr?$AA?9?$AAB?$AAA?$AA?9?$AAC?$AAy?$AAr?$AAl?$AA?$AA@ 00000001800262f8     libucrt:lcidtoname_downlevel.obj
 0002:00005310       ??_C@_1O@HEDBLHNP@?$AAs?$AAm?$AAa?$AA?9?$AAS?$AAE?$AA?$AA@ 0000000180026310     libucrt:lcidtoname_downlevel.obj
 0002:00005320       ??_C@_1M@DAGCADIM@?$AAa?$AAr?$AA?9?$AAO?$AAM?$AA?$AA@ 0000000180026320     libucrt:lcidtoname_downlevel.obj
 0002:00005330       ??_C@_1M@FODLMICG@?$AAe?$AAn?$AA?9?$AAJ?$AAM?$AA?$AA@ 0000000180026330     libucrt:lcidtoname_downlevel.obj
 0002:00005340       ??_C@_1M@DNMLCIHB@?$AAe?$AAs?$AA?9?$AAV?$AAE?$AA?$AA@ 0000000180026340     libucrt:lcidtoname_downlevel.obj
 0002:00005350       ??_C@_1O@EOKHMKJK@?$AAs?$AAm?$AAs?$AA?9?$AAF?$AAI?$AA?$AA@ 0000000180026350     libucrt:lcidtoname_downlevel.obj
 0002:00005360       ??_C@_1M@CAFJMKOF@?$AAa?$AAr?$AA?9?$AAY?$AAE?$AA?$AA@ 0000000180026360     libucrt:lcidtoname_downlevel.obj
 0002:00005370       ??_C@_1M@CBFHIJLI@?$AAe?$AAn?$AA?9?$AAC?$AAB?$AA?$AA@ 0000000180026370     libucrt:lcidtoname_downlevel.obj
 0002:00005380       ??_C@_1M@BGNFLDN@?$AAe?$AAs?$AA?9?$AAC?$AAO?$AA?$AA@ 0000000180026380     libucrt:lcidtoname_downlevel.obj
 0002:00005390       ??_C@_1O@JMPHMAMC@?$AAs?$AAm?$AAn?$AA?9?$AAF?$AAI?$AA?$AA@ 0000000180026390     libucrt:lcidtoname_downlevel.obj
 0002:000053a0       ??_C@_1M@JLANABKE@?$AAa?$AAr?$AA?9?$AAS?$AAY?$AA?$AA@ 00000001800263a0     libucrt:lcidtoname_downlevel.obj
 0002:000053b0       ??_C@_1M@HPKGCFGN@?$AAe?$AAn?$AA?9?$AAB?$AAZ?$AA?$AA@ 00000001800263b0     libucrt:lcidtoname_downlevel.obj
 0002:000053c0       ??_C@_1M@OLJCMLGM@?$AAe?$AAs?$AA?9?$AAP?$AAE?$AA?$AA@ 00000001800263c0     libucrt:lcidtoname_downlevel.obj
 0002:000053d0       ??_C@_1M@MKKGFKLE@?$AAa?$AAr?$AA?9?$AAJ?$AAO?$AA?$AA@ 00000001800263d0     libucrt:lcidtoname_downlevel.obj
 0002:000053e0       ??_C@_1M@EKPGLDNI@?$AAe?$AAn?$AA?9?$AAT?$AAT?$AA?$AA@ 00000001800263e0     libucrt:lcidtoname_downlevel.obj
 0002:000053f0       ??_C@_1M@OONGHFHE@?$AAe?$AAs?$AA?9?$AAA?$AAR?$AA?$AA@ 00000001800263f0     libucrt:lcidtoname_downlevel.obj
 0002:00005400       ??_C@_1M@OOJFGBHE@?$AAa?$AAr?$AA?9?$AAL?$AAB?$AA?$AA@ 0000000180026400     libucrt:lcidtoname_downlevel.obj
 0002:00005410       ??_C@_1M@GCEJHNEG@?$AAe?$AAn?$AA?9?$AAZ?$AAW?$AA?$AA@ 0000000180026410     libucrt:lcidtoname_downlevel.obj
 0002:00005420       ??_C@_1M@JNOCAHJI@?$AAe?$AAs?$AA?9?$AAE?$AAC?$AA?$AA@ 0000000180026420     libucrt:lcidtoname_downlevel.obj
 0002:00005430       ??_C@_1M@JEFHPGGB@?$AAa?$AAr?$AA?9?$AAK?$AAW?$AA?$AA@ 0000000180026430     libucrt:lcidtoname_downlevel.obj
 0002:00005440       ??_C@_1M@MLKIBJOJ@?$AAe?$AAn?$AA?9?$AAP?$AAH?$AA?$AA@ 0000000180026440     libucrt:lcidtoname_downlevel.obj
 0002:00005450       ??_C@_1M@BDNIPEND@?$AAe?$AAs?$AA?9?$AAC?$AAL?$AA?$AA@ 0000000180026450     libucrt:lcidtoname_downlevel.obj
 0002:00005460       ??_C@_1M@MPNMEKBD@?$AAa?$AAr?$AA?9?$AAA?$AAE?$AA?$AA@ 0000000180026460     libucrt:lcidtoname_downlevel.obj
 0002:00005470       ??_C@_1M@KBJALCPI@?$AAe?$AAs?$AA?9?$AAU?$AAY?$AA?$AA@ 0000000180026470     libucrt:lcidtoname_downlevel.obj
 0002:00005480       ??_C@_1M@LLCCOAGA@?$AAa?$AAr?$AA?9?$AAB?$AAH?$AA?$AA@ 0000000180026480     libucrt:lcidtoname_downlevel.obj
 0002:00005490       ??_C@_1M@PBFNCDEL@?$AAe?$AAs?$AA?9?$AAP?$AAY?$AA?$AA@ 0000000180026490     libucrt:lcidtoname_downlevel.obj
 0002:000054a0       ??_C@_1M@EDGINPNP@?$AAa?$AAr?$AA?9?$AAQ?$AAA?$AA?$AA@ 00000001800264a0     libucrt:lcidtoname_downlevel.obj
 0002:000054b0       ??_C@_1M@MKDBIIJI@?$AAe?$AAs?$AA?9?$AAB?$AAO?$AA?$AA@ 00000001800264b0     libucrt:lcidtoname_downlevel.obj
 0002:000054c0       ??_C@_1M@CPKKEBLD@?$AAe?$AAs?$AA?9?$AAS?$AAV?$AA?$AA@ 00000001800264c0     libucrt:lcidtoname_downlevel.obj
 0002:000054d0       ??_C@_1M@NDBGMMJL@?$AAe?$AAs?$AA?9?$AAH?$AAN?$AA?$AA@ 00000001800264d0     libucrt:lcidtoname_downlevel.obj
 0002:000054e0       ??_C@_1M@JIJIBHDP@?$AAe?$AAs?$AA?9?$AAN?$AAI?$AA?$AA@ 00000001800264e0     libucrt:lcidtoname_downlevel.obj
 0002:000054f0       ??_C@_1M@CGFMKEEK@?$AAe?$AAs?$AA?9?$AAP?$AAR?$AA?$AA@ 00000001800264f0     libucrt:lcidtoname_downlevel.obj
 0002:00005500       ??_C@_1O@ICJHKIIK@?$AAz?$AAh?$AA?9?$AAC?$AAH?$AAT?$AA?$AA@ 0000000180026500     libucrt:lcidtoname_downlevel.obj
 0002:00005510       ??_C@_15CLNEJCE@?$AAs?$AAr?$AA?$AA@ 0000000180026510     libucrt:lcidtoname_downlevel.obj
 0002:00006360       ??_C@_1M@KAHEKEIG@?$AAa?$AAf?$AA?9?$AAz?$AAa?$AA?$AA@ 0000000180027360     libucrt:lcidtoname_downlevel.obj
 0002:00006370       ??_C@_1M@GIECOABL@?$AAa?$AAr?$AA?9?$AAa?$AAe?$AA?$AA@ 0000000180027370     libucrt:lcidtoname_downlevel.obj
 0002:00006380       ??_C@_1M@BMLMEKGI@?$AAa?$AAr?$AA?9?$AAb?$AAh?$AA?$AA@ 0000000180027380     libucrt:lcidtoname_downlevel.obj
 0002:00006390       ??_C@_1M@DAPFDGGB@?$AAa?$AAr?$AA?9?$AAd?$AAz?$AA?$AA@ 0000000180027390     libucrt:lcidtoname_downlevel.obj
 0002:000063a0       ??_C@_1M@FJNKGKIG@?$AAa?$AAr?$AA?9?$AAe?$AAg?$AA?$AA@ 00000001800273a0     libucrt:lcidtoname_downlevel.obj
 0002:000063b0       ??_C@_1M@FLGKKCLO@?$AAa?$AAr?$AA?9?$AAi?$AAq?$AA?$AA@ 00000001800273b0     libucrt:lcidtoname_downlevel.obj
 0002:000063c0       ??_C@_1M@GNDIPALM@?$AAa?$AAr?$AA?9?$AAj?$AAo?$AA?$AA@ 00000001800273c0     libucrt:lcidtoname_downlevel.obj
 0002:000063d0       ??_C@_1M@DDMJFMGJ@?$AAa?$AAr?$AA?9?$AAk?$AAw?$AA?$AA@ 00000001800273d0     libucrt:lcidtoname_downlevel.obj
 0002:000063e0       ??_C@_1M@EJALMLHM@?$AAa?$AAr?$AA?9?$AAl?$AAb?$AA?$AA@ 00000001800273e0     libucrt:lcidtoname_downlevel.obj
 0002:000063f0       ??_C@_1M@MOBDBLOC@?$AAa?$AAr?$AA?9?$AAl?$AAy?$AA?$AA@ 00000001800273f0     libucrt:lcidtoname_downlevel.obj
 0002:00006400       ??_C@_1M@JAOCLHDH@?$AAa?$AAr?$AA?9?$AAm?$AAa?$AA?$AA@ 0000000180027400     libucrt:lcidtoname_downlevel.obj
 0002:00006410       ??_C@_1M@JHPMKJIE@?$AAa?$AAr?$AA?9?$AAo?$AAm?$AA?$AA@ 0000000180027410     libucrt:lcidtoname_downlevel.obj
 0002:00006420       ??_C@_1M@OEPGHFNH@?$AAa?$AAr?$AA?9?$AAq?$AAa?$AA?$AA@ 0000000180027420     libucrt:lcidtoname_downlevel.obj
 0002:00006430       ??_C@_1M@KJDONENM@?$AAa?$AAr?$AA?9?$AAs?$AAa?$AA?$AA@ 0000000180027430     libucrt:lcidtoname_downlevel.obj
 0002:00006440       ??_C@_1M@DMJDKLKM@?$AAa?$AAr?$AA?9?$AAs?$AAy?$AA?$AA@ 0000000180027440     libucrt:lcidtoname_downlevel.obj
 0002:00006450       ??_C@_1M@OMFIPEDC@?$AAa?$AAr?$AA?9?$AAt?$AAn?$AA?$AA@ 0000000180027450     libucrt:lcidtoname_downlevel.obj
 0002:00006460       ??_C@_1M@IHMHGAON@?$AAa?$AAr?$AA?9?$AAy?$AAe?$AA?$AA@ 0000000180027460     libucrt:lcidtoname_downlevel.obj
 0002:00006470       ??_C@_1BG@KDCPGJGB@?$AAa?$AAz?$AA?9?$AAa?$AAz?$AA?9?$AAc?$AAy?$AAr?$AAl?$AA?$AA@ 0000000180027470     libucrt:lcidtoname_downlevel.obj
 0002:00006488       ??_C@_1BG@IBCKDDOE@?$AAa?$AAz?$AA?9?$AAa?$AAz?$AA?9?$AAl?$AAa?$AAt?$AAn?$AA?$AA@ 0000000180027488     libucrt:lcidtoname_downlevel.obj
 0002:000064a0       ??_C@_1M@EGPFDCPD@?$AAb?$AAe?$AA?9?$AAb?$AAy?$AA?$AA@ 00000001800274a0     libucrt:lcidtoname_downlevel.obj
 0002:000064b0       ??_C@_1M@PCMGMCGC@?$AAb?$AAg?$AA?9?$AAb?$AAg?$AA?$AA@ 00000001800274b0     libucrt:lcidtoname_downlevel.obj
 0002:000064c0       ??_C@_1M@BJBMFGOB@?$AAb?$AAn?$AA?9?$AAi?$AAn?$AA?$AA@ 00000001800274c0     libucrt:lcidtoname_downlevel.obj
 0002:000064d0       ??_C@_1BG@EAKMMACD@?$AAb?$AAs?$AA?9?$AAb?$AAa?$AA?9?$AAl?$AAa?$AAt?$AAn?$AA?$AA@ 00000001800274d0     libucrt:lcidtoname_downlevel.obj
 0002:000064e8       ??_C@_1M@KGADAODK@?$AAc?$AAa?$AA?9?$AAe?$AAs?$AA?$AA@ 00000001800274e8     libucrt:lcidtoname_downlevel.obj
 0002:000064f8       ??_C@_1M@COAJPDHI@?$AAc?$AAs?$AA?9?$AAc?$AAz?$AA?$AA@ 00000001800274f8     libucrt:lcidtoname_downlevel.obj
 0002:00006508       ??_C@_1M@DHBHFONH@?$AAc?$AAy?$AA?9?$AAg?$AAb?$AA?$AA@ 0000000180027508     libucrt:lcidtoname_downlevel.obj
 0002:00006518       ??_C@_1M@IMGKELGA@?$AAd?$AAa?$AA?9?$AAd?$AAk?$AA?$AA@ 0000000180027518     libucrt:lcidtoname_downlevel.obj
 0002:00006528       ??_C@_1M@NNDGDNGA@?$AAd?$AAe?$AA?9?$AAa?$AAt?$AA?$AA@ 0000000180027528     libucrt:lcidtoname_downlevel.obj
 0002:00006538       ??_C@_1M@IKDBHEEM@?$AAd?$AAe?$AA?9?$AAc?$AAh?$AA?$AA@ 0000000180027538     libucrt:lcidtoname_downlevel.obj
 0002:00006548       ??_C@_1M@GFFOJMCJ@?$AAd?$AAe?$AA?9?$AAd?$AAe?$AA?$AA@ 0000000180027548     libucrt:lcidtoname_downlevel.obj
 0002:00006558       ??_C@_1M@MDNLKBPM@?$AAd?$AAe?$AA?9?$AAl?$AAi?$AA?$AA@ 0000000180027558     libucrt:lcidtoname_downlevel.obj
 0002:00006568       ??_C@_1M@NJBEEJNL@?$AAd?$AAe?$AA?9?$AAl?$AAu?$AA?$AA@ 0000000180027568     libucrt:lcidtoname_downlevel.obj
 0002:00006578       ??_C@_1O@GNNELBAP@?$AAd?$AAi?$AAv?$AA?9?$AAm?$AAv?$AA?$AA@ 0000000180027578     libucrt:lcidtoname_downlevel.obj
 0002:00006588       ??_C@_1M@EJLEOGAE@?$AAe?$AAl?$AA?9?$AAg?$AAr?$AA?$AA@ 0000000180027588     libucrt:lcidtoname_downlevel.obj
 0002:00006598       ??_C@_1M@GMPONJN@?$AAe?$AAn?$AA?9?$AAa?$AAu?$AA?$AA@ 0000000180027598     libucrt:lcidtoname_downlevel.obj
 0002:000065a8       ??_C@_1M@NIDIIPGF@?$AAe?$AAn?$AA?9?$AAb?$AAz?$AA?$AA@ 00000001800275a8     libucrt:lcidtoname_downlevel.obj
 0002:000065b8       ??_C@_1M@JEHMIMFO@?$AAe?$AAn?$AA?9?$AAc?$AAa?$AA?$AA@ 00000001800275b8     libucrt:lcidtoname_downlevel.obj
 0002:000065c8       ??_C@_1M@IGMJCDLA@?$AAe?$AAn?$AA?9?$AAc?$AAb?$AA?$AA@ 00000001800275c8     libucrt:lcidtoname_downlevel.obj
 0002:000065d8       ??_C@_1M@BNFIGBKG@?$AAe?$AAn?$AA?9?$AAg?$AAb?$AA?$AA@ 00000001800275d8     libucrt:lcidtoname_downlevel.obj
 0002:000065e8       ??_C@_1M@LKIFDIGP@?$AAe?$AAn?$AA?9?$AAi?$AAe?$AA?$AA@ 00000001800275e8     libucrt:lcidtoname_downlevel.obj
 0002:000065f8       ??_C@_1M@PJKFGCCO@?$AAe?$AAn?$AA?9?$AAj?$AAm?$AA?$AA@ 00000001800275f8     libucrt:lcidtoname_downlevel.obj
 0002:00006608       ??_C@_1M@KPPKEPBO@?$AAe?$AAn?$AA?9?$AAn?$AAz?$AA?$AA@ 0000000180027608     libucrt:lcidtoname_downlevel.obj
 0002:00006618       ??_C@_1M@GMDGLDOB@?$AAe?$AAn?$AA?9?$AAp?$AAh?$AA?$AA@ 0000000180027618     libucrt:lcidtoname_downlevel.obj
 0002:00006628       ??_C@_1M@ONGIBJNA@?$AAe?$AAn?$AA?9?$AAt?$AAt?$AA?$AA@ 0000000180027628     libucrt:lcidtoname_downlevel.obj
 0002:00006638       ??_C@_1M@LLODPCMM@?$AAe?$AAn?$AA?9?$AAu?$AAs?$AA?$AA@ 0000000180027638     libucrt:lcidtoname_downlevel.obj
 0002:00006648       ??_C@_1M@LAKFNPAN@?$AAe?$AAn?$AA?9?$AAz?$AAa?$AA?$AA@ 0000000180027648     libucrt:lcidtoname_downlevel.obj
 0002:00006658       ??_C@_1M@MFNHNHEO@?$AAe?$AAn?$AA?9?$AAz?$AAw?$AA?$AA@ 0000000180027658     libucrt:lcidtoname_downlevel.obj
 0002:00006668       ??_C@_1M@EJEINPHM@?$AAe?$AAs?$AA?9?$AAa?$AAr?$AA?$AA@ 0000000180027668     libucrt:lcidtoname_downlevel.obj
 0002:00006678       ??_C@_1M@GNKPCCJA@?$AAe?$AAs?$AA?9?$AAb?$AAo?$AA?$AA@ 0000000180027678     libucrt:lcidtoname_downlevel.obj
 0002:00006688       ??_C@_1M@LEEGFONL@?$AAe?$AAs?$AA?9?$AAc?$AAl?$AA?$AA@ 0000000180027688     libucrt:lcidtoname_downlevel.obj
 0002:00006698       ??_C@_1M@KGPDPBDF@?$AAe?$AAs?$AA?9?$AAc?$AAo?$AA?$AA@ 0000000180027698     libucrt:lcidtoname_downlevel.obj
 0002:000066a8       ??_C@_1M@EIAHOHH@?$AAe?$AAs?$AA?9?$AAc?$AAr?$AA?$AA@ 00000001800276a8     libucrt:lcidtoname_downlevel.obj
 0002:000066b8       ??_C@_1M@LLPGMBIN@?$AAe?$AAs?$AA?9?$AAd?$AAo?$AA?$AA@ 00000001800276b8     libucrt:lcidtoname_downlevel.obj
 0002:000066c8       ??_C@_1M@DKHMKNJA@?$AAe?$AAs?$AA?9?$AAe?$AAc?$AA?$AA@ 00000001800276c8     libucrt:lcidtoname_downlevel.obj
 0002:000066d8       ??_C@_1M@GKGFPKAP@?$AAe?$AAs?$AA?9?$AAe?$AAs?$AA?$AA@ 00000001800276d8     libucrt:lcidtoname_downlevel.obj
 0002:000066e8       ??_C@_1M@LKHKGDLN@?$AAe?$AAs?$AA?9?$AAg?$AAt?$AA?$AA@ 00000001800276e8     libucrt:lcidtoname_downlevel.obj
 0002:000066f8       ??_C@_1M@HEIIGGJD@?$AAe?$AAs?$AA?9?$AAh?$AAn?$AA?$AA@ 00000001800276f8     libucrt:lcidtoname_downlevel.obj
 0002:00006708       ??_C@_1M@FBDHPPGD@?$AAe?$AAs?$AA?9?$AAm?$AAx?$AA?$AA@ 0000000180027708     libucrt:lcidtoname_downlevel.obj
 0002:00006718       ??_C@_1M@DPAGLNDH@?$AAe?$AAs?$AA?9?$AAn?$AAi?$AA?$AA@ 0000000180027718     libucrt:lcidtoname_downlevel.obj
 0002:00006728       ??_C@_1M@MDGOPGDD@?$AAe?$AAs?$AA?9?$AAp?$AAa?$AA?$AA@ 0000000180027728     libucrt:lcidtoname_downlevel.obj
 0002:00006738       ??_C@_1M@EMAMGBGE@?$AAe?$AAs?$AA?9?$AAp?$AAe?$AA?$AA@ 0000000180027738     libucrt:lcidtoname_downlevel.obj
 0002:00006748       ??_C@_1M@IBMCAOEC@?$AAe?$AAs?$AA?9?$AAp?$AAr?$AA?$AA@ 0000000180027748     libucrt:lcidtoname_downlevel.obj
 0002:00006758       ??_C@_1M@FGMDIJED@?$AAe?$AAs?$AA?9?$AAp?$AAy?$AA?$AA@ 0000000180027758     libucrt:lcidtoname_downlevel.obj
 0002:00006768       ??_C@_1M@IIDEOLLL@?$AAe?$AAs?$AA?9?$AAs?$AAv?$AA?$AA@ 0000000180027768     libucrt:lcidtoname_downlevel.obj
 0002:00006778       ??_C@_1M@GAOBIPA@?$AAe?$AAs?$AA?9?$AAu?$AAy?$AA?$AA@ 0000000180027778     libucrt:lcidtoname_downlevel.obj
 0002:00006788       ??_C@_1M@JKFFICHJ@?$AAe?$AAs?$AA?9?$AAv?$AAe?$AA?$AA@ 0000000180027788     libucrt:lcidtoname_downlevel.obj
 0002:00006798       ??_C@_1M@PNMLOJDF@?$AAe?$AAt?$AA?9?$AAe?$AAe?$AA?$AA@ 0000000180027798     libucrt:lcidtoname_downlevel.obj
 0002:000067a8       ??_C@_1M@GHHLIKEI@?$AAe?$AAu?$AA?9?$AAe?$AAs?$AA?$AA@ 00000001800277a8     libucrt:lcidtoname_downlevel.obj
 0002:000067b8       ??_C@_1M@PBNONODE@?$AAf?$AAa?$AA?9?$AAi?$AAr?$AA?$AA@ 00000001800277b8     libucrt:lcidtoname_downlevel.obj
 0002:000067c8       ??_C@_1M@JEEHPMIL@?$AAf?$AAi?$AA?9?$AAf?$AAi?$AA?$AA@ 00000001800277c8     libucrt:lcidtoname_downlevel.obj
 0002:000067d8       ??_C@_1M@LMDCNDBA@?$AAf?$AAo?$AA?9?$AAf?$AAo?$AA?$AA@ 00000001800277d8     libucrt:lcidtoname_downlevel.obj
 0002:000067e8       ??_C@_1M@JKEOHLDK@?$AAf?$AAr?$AA?9?$AAb?$AAe?$AA?$AA@ 00000001800277e8     libucrt:lcidtoname_downlevel.obj
 0002:000067f8       ??_C@_1M@NOHADPMI@?$AAf?$AAr?$AA?9?$AAc?$AAa?$AA?$AA@ 00000001800277f8     libucrt:lcidtoname_downlevel.obj
 0002:00006808       ??_C@_1M@KDHIHAEC@?$AAf?$AAr?$AA?9?$AAc?$AAh?$AA?$AA@ 0000000180027808     libucrt:lcidtoname_downlevel.obj
 0002:00006818       ??_C@_1M@MMBBFGAK@?$AAf?$AAr?$AA?9?$AAf?$AAr?$AA?$AA@ 0000000180027818     libucrt:lcidtoname_downlevel.obj
 0002:00006828       ??_C@_1M@PAFNENNF@?$AAf?$AAr?$AA?9?$AAl?$AAu?$AA?$AA@ 0000000180027828     libucrt:lcidtoname_downlevel.obj
 0002:00006838       ??_C@_1M@EOHDJGDD@?$AAf?$AAr?$AA?9?$AAm?$AAc?$AA?$AA@ 0000000180027838     libucrt:lcidtoname_downlevel.obj
 0002:00006848       ??_C@_1M@FAPLLOPF@?$AAg?$AAl?$AA?9?$AAe?$AAs?$AA?$AA@ 0000000180027848     libucrt:lcidtoname_downlevel.obj
 0002:00006858       ??_C@_1M@FOPBFLOO@?$AAg?$AAu?$AA?9?$AAi?$AAn?$AA?$AA@ 0000000180027858     libucrt:lcidtoname_downlevel.obj
 0002:00006868       ??_C@_1M@KBMCINPM@?$AAh?$AAe?$AA?9?$AAi?$AAl?$AA?$AA@ 0000000180027868     libucrt:lcidtoname_downlevel.obj
 0002:00006878       ??_C@_1M@BBPHKFPJ@?$AAh?$AAi?$AA?9?$AAi?$AAn?$AA?$AA@ 0000000180027878     libucrt:lcidtoname_downlevel.obj
 0002:00006888       ??_C@_1M@PMBNDPHD@?$AAh?$AAr?$AA?9?$AAb?$AAa?$AA?$AA@ 0000000180027888     libucrt:lcidtoname_downlevel.obj
 0002:00006898       ??_C@_1M@BPCKOEGE@?$AAh?$AAr?$AA?9?$AAh?$AAr?$AA?$AA@ 0000000180027898     libucrt:lcidtoname_downlevel.obj
 0002:000068a8       ??_C@_1M@GACBMHKE@?$AAh?$AAu?$AA?9?$AAh?$AAu?$AA?$AA@ 00000001800278a8     libucrt:lcidtoname_downlevel.obj
 0002:000068b8       ??_C@_1M@MILPAJJC@?$AAh?$AAy?$AA?9?$AAa?$AAm?$AA?$AA@ 00000001800278b8     libucrt:lcidtoname_downlevel.obj
 0002:000068c8       ??_C@_1M@BABBICEC@?$AAi?$AAd?$AA?9?$AAi?$AAd?$AA?$AA@ 00000001800278c8     libucrt:lcidtoname_downlevel.obj
 0002:000068d8       ??_C@_1M@BIKNHHPF@?$AAi?$AAs?$AA?9?$AAi?$AAs?$AA?$AA@ 00000001800278d8     libucrt:lcidtoname_downlevel.obj
 0002:000068e8       ??_C@_1M@NMPCJPHE@?$AAi?$AAt?$AA?9?$AAc?$AAh?$AA?$AA@ 00000001800278e8     libucrt:lcidtoname_downlevel.obj
 0002:000068f8       ??_C@_1M@GHKGFEDF@?$AAi?$AAt?$AA?9?$AAi?$AAt?$AA?$AA@ 00000001800278f8     libucrt:lcidtoname_downlevel.obj
 0002:00006908       ??_C@_1M@NIEJCJJA@?$AAj?$AAa?$AA?9?$AAj?$AAp?$AA?$AA@ 0000000180027908     libucrt:lcidtoname_downlevel.obj
 0002:00006918       ??_C@_1M@JILFNBIM@?$AAk?$AAa?$AA?9?$AAg?$AAe?$AA?$AA@ 0000000180027918     libucrt:lcidtoname_downlevel.obj
 0002:00006928       ??_C@_1M@PACPMGPH@?$AAk?$AAk?$AA?9?$AAk?$AAz?$AA?$AA@ 0000000180027928     libucrt:lcidtoname_downlevel.obj
 0002:00006938       ??_C@_1M@IELFGMHA@?$AAk?$AAn?$AA?9?$AAi?$AAn?$AA?$AA@ 0000000180027938     libucrt:lcidtoname_downlevel.obj
 0002:00006948       ??_C@_1O@IBBJHCH@?$AAk?$AAo?$AAk?$AA?9?$AAi?$AAn?$AA?$AA@ 0000000180027948     libucrt:lcidtoname_downlevel.obj
 0002:00006958       ??_C@_1M@DMHAEOGC@?$AAk?$AAo?$AA?9?$AAk?$AAr?$AA?$AA@ 0000000180027958     libucrt:lcidtoname_downlevel.obj
 0002:00006968       ??_C@_1M@HBAHBIGA@?$AAk?$AAy?$AA?9?$AAk?$AAg?$AA?$AA@ 0000000180027968     libucrt:lcidtoname_downlevel.obj
 0002:00006978       ??_C@_1M@KPMILCJG@?$AAl?$AAt?$AA?9?$AAl?$AAt?$AA?$AA@ 0000000180027978     libucrt:lcidtoname_downlevel.obj
 0002:00006988       ??_C@_1M@BDEKKCA@?$AAl?$AAv?$AA?9?$AAl?$AAv?$AA?$AA@ 0000000180027988     libucrt:lcidtoname_downlevel.obj
 0002:00006998       ??_C@_1M@ELCKCCJJ@?$AAm?$AAi?$AA?9?$AAn?$AAz?$AA?$AA@ 0000000180027998     libucrt:lcidtoname_downlevel.obj
 0002:000069a8       ??_C@_1M@CBOOLAPA@?$AAm?$AAk?$AA?9?$AAm?$AAk?$AA?$AA@ 00000001800279a8     libucrt:lcidtoname_downlevel.obj
 0002:000069b8       ??_C@_1M@GPHNBJKN@?$AAm?$AAl?$AA?9?$AAi?$AAn?$AA?$AA@ 00000001800279b8     libucrt:lcidtoname_downlevel.obj
 0002:000069c8       ??_C@_1M@PABJILIG@?$AAm?$AAn?$AA?9?$AAm?$AAn?$AA?$AA@ 00000001800279c8     libucrt:lcidtoname_downlevel.obj
 0002:000069d8       ??_C@_1M@FGBKKIPG@?$AAm?$AAr?$AA?9?$AAi?$AAn?$AA?$AA@ 00000001800279d8     libucrt:lcidtoname_downlevel.obj
 0002:000069e8       ??_C@_1M@NDBPDDAL@?$AAm?$AAs?$AA?9?$AAb?$AAn?$AA?$AA@ 00000001800279e8     libucrt:lcidtoname_downlevel.obj
 0002:000069f8       ??_C@_1M@OPIHOOPI@?$AAm?$AAs?$AA?9?$AAm?$AAy?$AA?$AA@ 00000001800279f8     libucrt:lcidtoname_downlevel.obj
 0002:00006a08       ??_C@_1M@PPDBCNFM@?$AAm?$AAt?$AA?9?$AAm?$AAt?$AA?$AA@ 0000000180027a08     libucrt:lcidtoname_downlevel.obj
 0002:00006a18       ??_C@_1M@KDJDKMDD@?$AAn?$AAb?$AA?9?$AAn?$AAo?$AA?$AA@ 0000000180027a18     libucrt:lcidtoname_downlevel.obj
 0002:00006a28       ??_C@_1M@KFCFLMJP@?$AAn?$AAl?$AA?9?$AAb?$AAe?$AA?$AA@ 0000000180027a28     libucrt:lcidtoname_downlevel.obj
 0002:00006a38       ??_C@_1M@KPOPDDGO@?$AAn?$AAl?$AA?9?$AAn?$AAl?$AA?$AA@ 0000000180027a38     libucrt:lcidtoname_downlevel.obj
 0002:00006a48       ??_C@_1M@LJKPEMLN@?$AAn?$AAn?$AA?9?$AAn?$AAo?$AA?$AA@ 0000000180027a48     libucrt:lcidtoname_downlevel.obj
 0002:00006a58       ??_C@_1M@BDGHHBFL@?$AAn?$AAs?$AA?9?$AAz?$AAa?$AA?$AA@ 0000000180027a58     libucrt:lcidtoname_downlevel.obj
 0002:00006a68       ??_C@_1M@IDEHOAP@?$AAp?$AAa?$AA?9?$AAi?$AAn?$AA?$AA@ 0000000180027a68     libucrt:lcidtoname_downlevel.obj
 0002:00006a78       ??_C@_1M@HDBKGOGH@?$AAp?$AAl?$AA?9?$AAp?$AAl?$AA?$AA@ 0000000180027a78     libucrt:lcidtoname_downlevel.obj
 0002:00006a88       ??_C@_1M@LJLLCMEH@?$AAp?$AAt?$AA?9?$AAb?$AAr?$AA?$AA@ 0000000180027a88     libucrt:lcidtoname_downlevel.obj
 0002:00006a98       ??_C@_1M@NCMONAAL@?$AAp?$AAt?$AA?9?$AAp?$AAt?$AA?$AA@ 0000000180027a98     libucrt:lcidtoname_downlevel.obj
 0002:00006aa8       ??_C@_1O@EAKMAJDN@?$AAq?$AAu?$AAz?$AA?9?$AAb?$AAo?$AA?$AA@ 0000000180027aa8     libucrt:lcidtoname_downlevel.obj
 0002:00006ab8       ??_C@_1O@BHHPIGDN@?$AAq?$AAu?$AAz?$AA?9?$AAe?$AAc?$AA?$AA@ 0000000180027ab8     libucrt:lcidtoname_downlevel.obj
 0002:00006ac8       ??_C@_1O@GBAPEKMJ@?$AAq?$AAu?$AAz?$AA?9?$AAp?$AAe?$AA?$AA@ 0000000180027ac8     libucrt:lcidtoname_downlevel.obj
 0002:00006ad8       ??_C@_1M@CLGLEFBO@?$AAr?$AAo?$AA?9?$AAr?$AAo?$AA?$AA@ 0000000180027ad8     libucrt:lcidtoname_downlevel.obj
 0002:00006ae8       ??_C@_1M@CEEDODME@?$AAr?$AAu?$AA?9?$AAr?$AAu?$AA?$AA@ 0000000180027ae8     libucrt:lcidtoname_downlevel.obj
 0002:00006af8       ??_C@_1M@HPKKKMPP@?$AAs?$AAa?$AA?9?$AAi?$AAn?$AA?$AA@ 0000000180027af8     libucrt:lcidtoname_downlevel.obj
 0002:00006b08       ??_C@_1M@BKMAIGOJ@?$AAs?$AAe?$AA?9?$AAf?$AAi?$AA?$AA@ 0000000180027b08     libucrt:lcidtoname_downlevel.obj
 0002:00006b18       ??_C@_1M@NDPIFLFI@?$AAs?$AAe?$AA?9?$AAn?$AAo?$AA?$AA@ 0000000180027b18     libucrt:lcidtoname_downlevel.obj
 0002:00006b28       ??_C@_1M@DANKKHJ@?$AAs?$AAe?$AA?9?$AAs?$AAe?$AA?$AA@ 0000000180027b28     libucrt:lcidtoname_downlevel.obj
 0002:00006b38       ??_C@_1M@PNBLONPJ@?$AAs?$AAk?$AA?9?$AAs?$AAk?$AA?$AA@ 0000000180027b38     libucrt:lcidtoname_downlevel.obj
 0002:00006b48       ??_C@_1M@LFMODOAL@?$AAs?$AAl?$AA?9?$AAs?$AAi?$AA?$AA@ 0000000180027b48     libucrt:lcidtoname_downlevel.obj
 0002:00006b58       ??_C@_1O@DFKOMPG@?$AAs?$AAm?$AAa?$AA?9?$AAn?$AAo?$AA?$AA@ 0000000180027b58     libucrt:lcidtoname_downlevel.obj
 0002:00006b68       ??_C@_1O@NDKPBNNH@?$AAs?$AAm?$AAa?$AA?9?$AAs?$AAe?$AA?$AA@ 0000000180027b68     libucrt:lcidtoname_downlevel.obj
 0002:00006b78       ??_C@_1O@PLLKBHAB@?$AAs?$AAm?$AAj?$AA?9?$AAn?$AAo?$AA?$AA@ 0000000180027b78     libucrt:lcidtoname_downlevel.obj
 0002:00006b88       ??_C@_1O@CLEPOGCA@?$AAs?$AAm?$AAj?$AA?9?$AAs?$AAe?$AA?$AA@ 0000000180027b88     libucrt:lcidtoname_downlevel.obj
 0002:00006b98       ??_C@_1O@DLGJGKMK@?$AAs?$AAm?$AAn?$AA?9?$AAf?$AAi?$AA?$AA@ 0000000180027b98     libucrt:lcidtoname_downlevel.obj
 0002:00006ba8       ??_C@_1O@OJDJGAJC@?$AAs?$AAm?$AAs?$AA?9?$AAf?$AAi?$AA?$AA@ 0000000180027ba8     libucrt:lcidtoname_downlevel.obj
 0002:00006bb8       ??_C@_1M@BOFOGHPB@?$AAs?$AAq?$AA?9?$AAa?$AAl?$AA?$AA@ 0000000180027bb8     libucrt:lcidtoname_downlevel.obj
 0002:00006bc8       ??_C@_1BG@LJBBIPGB@?$AAs?$AAr?$AA?9?$AAb?$AAa?$AA?9?$AAc?$AAy?$AAr?$AAl?$AA?$AA@ 0000000180027bc8     libucrt:lcidtoname_downlevel.obj
 0002:00006be0       ??_C@_1BG@JLBENFOE@?$AAs?$AAr?$AA?9?$AAb?$AAa?$AA?9?$AAl?$AAa?$AAt?$AAn?$AA?$AA@ 0000000180027be0     libucrt:lcidtoname_downlevel.obj
 0002:00006bf8       ??_C@_1BG@KODPNHE@?$AAs?$AAr?$AA?9?$AAs?$AAp?$AA?9?$AAc?$AAy?$AAr?$AAl?$AA?$AA@ 0000000180027bf8     libucrt:lcidtoname_downlevel.obj
 0002:00006c10       ??_C@_1BG@CIOGKHPB@?$AAs?$AAr?$AA?9?$AAs?$AAp?$AA?9?$AAl?$AAa?$AAt?$AAn?$AA?$AA@ 0000000180027c10     libucrt:lcidtoname_downlevel.obj
 0002:00006c28       ??_C@_1M@NGFJLMAC@?$AAs?$AAv?$AA?9?$AAf?$AAi?$AA?$AA@ 0000000180027c28     libucrt:lcidtoname_downlevel.obj
 0002:00006c38       ??_C@_1M@MPJEJAJC@?$AAs?$AAv?$AA?9?$AAs?$AAe?$AA?$AA@ 0000000180027c38     libucrt:lcidtoname_downlevel.obj
 0002:00006c48       ??_C@_1M@MPNDHLFK@?$AAs?$AAw?$AA?9?$AAk?$AAe?$AA?$AA@ 0000000180027c48     libucrt:lcidtoname_downlevel.obj
 0002:00006c58       ??_C@_1O@KOHBJJI@?$AAs?$AAy?$AAr?$AA?9?$AAs?$AAy?$AA?$AA@ 0000000180027c58     libucrt:lcidtoname_downlevel.obj
 0002:00006c68       ??_C@_1M@LDCEFHA@?$AAt?$AAa?$AA?9?$AAi?$AAn?$AA?$AA@ 0000000180027c68     libucrt:lcidtoname_downlevel.obj
 0002:00006c78       ??_C@_1M@CNJOFAK@?$AAt?$AAe?$AA?9?$AAi?$AAn?$AA?$AA@ 0000000180027c78     libucrt:lcidtoname_downlevel.obj
 0002:00006c88       ??_C@_1M@GNAECACD@?$AAt?$AAh?$AA?9?$AAt?$AAh?$AA?$AA@ 0000000180027c88     libucrt:lcidtoname_downlevel.obj
 0002:00006c98       ??_C@_1M@CHBIHOJO@?$AAt?$AAn?$AA?9?$AAz?$AAa?$AA?$AA@ 0000000180027c98     libucrt:lcidtoname_downlevel.obj
 0002:00006ca8       ??_C@_1M@GCCMIGPJ@?$AAt?$AAr?$AA?9?$AAt?$AAr?$AA?$AA@ 0000000180027ca8     libucrt:lcidtoname_downlevel.obj
 0002:00006cb8       ??_C@_1M@CELMCNBK@?$AAt?$AAt?$AA?9?$AAr?$AAu?$AA?$AA@ 0000000180027cb8     libucrt:lcidtoname_downlevel.obj
 0002:00006cc8       ??_C@_1M@KLMCELGA@?$AAu?$AAk?$AA?9?$AAu?$AAa?$AA?$AA@ 0000000180027cc8     libucrt:lcidtoname_downlevel.obj
 0002:00006cd8       ??_C@_1M@EPAJJAJF@?$AAu?$AAr?$AA?9?$AAp?$AAk?$AA?$AA@ 0000000180027cd8     libucrt:lcidtoname_downlevel.obj
 0002:00006ce8       ??_C@_1BG@GEGPMCDJ@?$AAu?$AAz?$AA?9?$AAu?$AAz?$AA?9?$AAc?$AAy?$AAr?$AAl?$AA?$AA@ 0000000180027ce8     libucrt:lcidtoname_downlevel.obj
 0002:00006d00       ??_C@_1BG@EGGKJILM@?$AAu?$AAz?$AA?9?$AAu?$AAz?$AA?9?$AAl?$AAa?$AAt?$AAn?$AA?$AA@ 0000000180027d00     libucrt:lcidtoname_downlevel.obj
 0002:00006d18       ??_C@_1M@GFOCLFF@?$AAv?$AAi?$AA?9?$AAv?$AAn?$AA?$AA@ 0000000180027d18     libucrt:lcidtoname_downlevel.obj
 0002:00006d28       ??_C@_1M@CPAMEDFI@?$AAx?$AAh?$AA?9?$AAz?$AAa?$AA?$AA@ 0000000180027d28     libucrt:lcidtoname_downlevel.obj
 0002:00006d38       ??_C@_1O@EBKIFIGN@?$AAz?$AAh?$AA?9?$AAc?$AAh?$AAs?$AA?$AA@ 0000000180027d38     libucrt:lcidtoname_downlevel.obj
 0002:00006d48       ??_C@_1O@NMHPGANE@?$AAz?$AAh?$AA?9?$AAc?$AAh?$AAt?$AA?$AA@ 0000000180027d48     libucrt:lcidtoname_downlevel.obj
 0002:00006d58       ??_C@_1M@LPINJOMC@?$AAz?$AAh?$AA?9?$AAc?$AAn?$AA?$AA@ 0000000180027d58     libucrt:lcidtoname_downlevel.obj
 0002:00006d68       ??_C@_1M@OCJEJODD@?$AAz?$AAh?$AA?9?$AAh?$AAk?$AA?$AA@ 0000000180027d68     libucrt:lcidtoname_downlevel.obj
 0002:00006d78       ??_C@_1M@DNDLJINH@?$AAz?$AAh?$AA?9?$AAm?$AAo?$AA?$AA@ 0000000180027d78     libucrt:lcidtoname_downlevel.obj
 0002:00006d88       ??_C@_1M@MBFDNDND@?$AAz?$AAh?$AA?9?$AAs?$AAg?$AA?$AA@ 0000000180027d88     libucrt:lcidtoname_downlevel.obj
 0002:00006d98       ??_C@_1M@IMEPLEPE@?$AAz?$AAh?$AA?9?$AAt?$AAw?$AA?$AA@ 0000000180027d98     libucrt:lcidtoname_downlevel.obj
 0002:00006da8       ??_C@_1M@BBGHNHJP@?$AAz?$AAu?$AA?9?$AAz?$AAa?$AA?$AA@ 0000000180027da8     libucrt:lcidtoname_downlevel.obj
 0002:00007c00       ??_C@_15EMKDOKLE@?$AAa?$AAr?$AA?$AA@ 0000000180028c00     libucrt:lcidtoname_downlevel.obj
 0002:00007c08       ??_C@_15KNPADPLH@?$AAb?$AAg?$AA?$AA@ 0000000180028c08     libucrt:lcidtoname_downlevel.obj
 0002:00007c10       ??_C@_15EDMHLDMO@?$AAc?$AAa?$AA?$AA@ 0000000180028c10     libucrt:lcidtoname_downlevel.obj
 0002:00007c18       ??_C@_1O@BPEAJADD@?$AAz?$AAh?$AA?9?$AAC?$AAH?$AAS?$AA?$AA@ 0000000180028c18     libucrt:lcidtoname_downlevel.obj
 0002:00007c28       ??_C@_15LJNHCMNK@?$AAc?$AAs?$AA?$AA@ 0000000180028c28     libucrt:lcidtoname_downlevel.obj
 0002:00007c30       ??_C@_15FOMCIDHG@?$AAd?$AAa?$AA?$AA@ 0000000180028c30     libucrt:lcidtoname_downlevel.obj
 0002:00007c38       ??_C@_15NBKABECB@?$AAd?$AAe?$AA?$AA@ 0000000180028c38     libucrt:lcidtoname_downlevel.obj
 0002:00007c40       ??_C@_15GHPEIIAO@?$AAe?$AAl?$AA?$AA@ 0000000180028c40     libucrt:lcidtoname_downlevel.obj
 0002:00007c48       ??_C@_15MNPNEAIF@?$AAe?$AAn?$AA?$AA@ 0000000180028c48     libucrt:lcidtoname_downlevel.obj
 0002:00007c50       ??_C@_15GPIOMPMH@?$AAe?$AAs?$AA?$AA@ 0000000180028c50     libucrt:lcidtoname_downlevel.obj
 0002:00007c58       ??_C@_15NGLOAKJC@?$AAf?$AAi?$AA?$AA@ 0000000180028c58     libucrt:lcidtoname_downlevel.obj
 0002:00007c60       ??_C@_15FBKGNKAM@?$AAf?$AAr?$AA?$AA@ 0000000180028c60     libucrt:lcidtoname_downlevel.obj
 0002:00007c68       ??_C@_15KGGCNEFK@?$AAh?$AAe?$AA?$AA@ 0000000180028c68     libucrt:lcidtoname_downlevel.obj
 0002:00007c70       ??_C@_15PGHLIDMF@?$AAh?$AAu?$AA?$AA@ 0000000180028c70     libucrt:lcidtoname_downlevel.obj
 0002:00007c78       ??_C@_15BIEMAPLM@?$AAi?$AAs?$AA?$AA@ 0000000180028c78     libucrt:lcidtoname_downlevel.obj
 0002:00007c80       ??_C@_15IFJLDHAF@?$AAi?$AAt?$AA?$AA@ 0000000180028c80     libucrt:lcidtoname_downlevel.obj
 0002:00007c88       ??_C@_15GEMIOCAG@?$AAj?$AAa?$AA?$AA@ 0000000180028c88     libucrt:lcidtoname_downlevel.obj
 0002:00007c90       ??_C@_15EPELEGJA@?$AAk?$AAo?$AA?$AA@ 0000000180028c90     libucrt:lcidtoname_downlevel.obj
 0002:00007c98       ??_C@_15NDDHIMN@?$AAn?$AAl?$AA?$AA@ 0000000180028c98     libucrt:lcidtoname_downlevel.obj
 0002:00007ca0       ??_C@_15BPIGNHCD@?$AAn?$AAo?$AA?$AA@ 0000000180028ca0     libucrt:lcidtoname_downlevel.obj
 0002:00007ca8       ??_C@_15DEOPBLCG@?$AAp?$AAl?$AA?$AA@ 0000000180028ca8     libucrt:lcidtoname_downlevel.obj
 0002:00007cb0       ??_C@_15KBECGEFG@?$AAp?$AAt?$AA?$AA@ 0000000180028cb0     libucrt:lcidtoname_downlevel.obj
 0002:00007cb8       ??_C@_15GLJCBFMD@?$AAr?$AAo?$AA?$AA@ 0000000180028cb8     libucrt:lcidtoname_downlevel.obj
 0002:00007cc0       ??_C@_15FEDGKCDI@?$AAr?$AAu?$AA?$AA@ 0000000180028cc0     libucrt:lcidtoname_downlevel.obj
 0002:00007cc8       ??_C@_15GLKMLLHM@?$AAh?$AAr?$AA?$AA@ 0000000180028cc8     libucrt:lcidtoname_downlevel.obj
 0002:00007cd0       ??_C@_15CPKMFBDB@?$AAs?$AAk?$AA?$AA@ 0000000180028cd0     libucrt:lcidtoname_downlevel.obj
 0002:00007cd8       ??_C@_15BAAIOGMK@?$AAs?$AAq?$AA?$AA@ 0000000180028cd8     libucrt:lcidtoname_downlevel.obj
 0002:00007ce0       ??_C@_15INNPNOHD@?$AAs?$AAv?$AA?$AA@ 0000000180028ce0     libucrt:lcidtoname_downlevel.obj
 0002:00007ce8       ??_C@_15CABMMOGH@?$AAt?$AAh?$AA?$AA@ 0000000180028ce8     libucrt:lcidtoname_downlevel.obj
 0002:00007cf0       ??_C@_15BPLIHJJM@?$AAt?$AAr?$AA?$AA@ 0000000180028cf0     libucrt:lcidtoname_downlevel.obj
 0002:00007cf8       ??_C@_15NEOEKKDJ@?$AAu?$AAr?$AA?$AA@ 0000000180028cf8     libucrt:lcidtoname_downlevel.obj
 0002:00007d00       ??_C@_15NFICGAJK@?$AAi?$AAd?$AA?$AA@ 0000000180028d00     libucrt:lcidtoname_downlevel.obj
 0002:00007d08       ??_C@_15PJPFLCCM@?$AAu?$AAk?$AA?$AA@ 0000000180028d08     libucrt:lcidtoname_downlevel.obj
 0002:00007d10       ??_C@_15HPJPHDM@?$AAb?$AAe?$AA?$AA@ 0000000180028d10     libucrt:lcidtoname_downlevel.obj
 0002:00007d18       ??_C@_15LCHLGJII@?$AAs?$AAl?$AA?$AA@ 0000000180028d18     libucrt:lcidtoname_downlevel.obj
 0002:00007d20       ??_C@_15PCFJPHHO@?$AAe?$AAt?$AA?$AA@ 0000000180028d20     libucrt:lcidtoname_downlevel.obj
 0002:00007d28       ??_C@_15HPFPGODN@?$AAl?$AAv?$AA?$AA@ 0000000180028d28     libucrt:lcidtoname_downlevel.obj
 0002:00007d30       ??_C@_15NFFGKGLG@?$AAl?$AAt?$AA?$AA@ 0000000180028d30     libucrt:lcidtoname_downlevel.obj
 0002:00007d38       ??_C@_15BDAKCCHN@?$AAf?$AAa?$AA?$AA@ 0000000180028d38     libucrt:lcidtoname_downlevel.obj
 0002:00007d40       ??_C@_15NFGIAIAJ@?$AAv?$AAi?$AA?$AA@ 0000000180028d40     libucrt:lcidtoname_downlevel.obj
 0002:00007d48       ??_C@_15LMKNDMHN@?$AAh?$AAy?$AA?$AA@ 0000000180028d48     libucrt:lcidtoname_downlevel.obj
 0002:00007d50       ??_C@_15IJBHMCFL@?$AAa?$AAz?$AA?$AA@ 0000000180028d50     libucrt:lcidtoname_downlevel.obj
 0002:00007d58       ??_C@_15EKOFJABL@?$AAe?$AAu?$AA?$AA@ 0000000180028d58     libucrt:lcidtoname_downlevel.obj
 0002:00007d60       ??_C@_15BGHADCNK@?$AAm?$AAk?$AA?$AA@ 0000000180028d60     libucrt:lcidtoname_downlevel.obj
 0002:00007d68       ??_C@_15JDNICKHM@?$AAa?$AAf?$AA?$AA@ 0000000180028d68     libucrt:lcidtoname_downlevel.obj
 0002:00007d70       ??_C@_15KPJEDBKD@?$AAk?$AAa?$AA?$AA@ 0000000180028d70     libucrt:lcidtoname_downlevel.obj
 0002:00007d78       ??_C@_15PDNFFFEO@?$AAf?$AAo?$AA?$AA@ 0000000180028d78     libucrt:lcidtoname_downlevel.obj
 0002:00007d80       ??_C@_15OMLEGLOC@?$AAh?$AAi?$AA?$AA@ 0000000180028d80     libucrt:lcidtoname_downlevel.obj
 0002:00007d88       ??_C@_15IDNNENKK@?$AAm?$AAs?$AA?$AA@ 0000000180028d88     libucrt:lcidtoname_downlevel.obj
 0002:00007d90       ??_C@_15MACJNBMH@?$AAk?$AAk?$AA?$AA@ 0000000180028d90     libucrt:lcidtoname_downlevel.obj
 0002:00007d98       ??_C@_15DKDJEOND@?$AAk?$AAy?$AA?$AA@ 0000000180028d98     libucrt:lcidtoname_downlevel.obj
 0002:00007da0       ??_C@_15DFGDLJBG@?$AAs?$AAw?$AA?$AA@ 0000000180028da0     libucrt:lcidtoname_downlevel.obj
 0002:00007da8       ??_C@_15BBFAICNG@?$AAu?$AAz?$AA?$AA@ 0000000180028da8     libucrt:lcidtoname_downlevel.obj
 0002:00007db0       ??_C@_15DKNDCGEA@?$AAt?$AAt?$AA?$AA@ 0000000180028db0     libucrt:lcidtoname_downlevel.obj
 0002:00007db8       ??_C@_15MGIFMDPL@?$AAp?$AAa?$AA?$AA@ 0000000180028db8     libucrt:lcidtoname_downlevel.obj
 0002:00007dc0       ??_C@_15HCNDBBA@?$AAg?$AAu?$AA?$AA@ 0000000180028dc0     libucrt:lcidtoname_downlevel.obj
 0002:00007dc8       ??_C@_15FNBEIBON@?$AAt?$AAa?$AA?$AA@ 0000000180028dc8     libucrt:lcidtoname_downlevel.obj
 0002:00007dd0       ??_C@_15NCHGBGLK@?$AAt?$AAe?$AA?$AA@ 0000000180028dd0     libucrt:lcidtoname_downlevel.obj
 0002:00007dd8       ??_C@_15PHPHCBPF@?$AAk?$AAn?$AA?$AA@ 0000000180028dd8     libucrt:lcidtoname_downlevel.obj
 0002:00007de0       ??_C@_15DLGBCKMP@?$AAm?$AAr?$AA?$AA@ 0000000180028de0     libucrt:lcidtoname_downlevel.obj
 0002:00007de8       ??_C@_15EABBLBFF@?$AAs?$AAa?$AA?$AA@ 0000000180028de8     libucrt:lcidtoname_downlevel.obj
 0002:00007df0       ??_C@_15CBKOMCOI@?$AAm?$AAn?$AA?$AA@ 0000000180028df0     libucrt:lcidtoname_downlevel.obj
 0002:00007df8       ??_C@_15CKDMCJAF@?$AAg?$AAl?$AA?$AA@ 0000000180028df8     libucrt:lcidtoname_downlevel.obj
 0002:00007e00       ??_C@_17CNJFBPG@?$AAk?$AAo?$AAk?$AA?$AA@ 0000000180028e00     libucrt:lcidtoname_downlevel.obj
 0002:00007e08       ??_C@_17FFBJICPL@?$AAs?$AAy?$AAr?$AA?$AA@ 0000000180028e08     libucrt:lcidtoname_downlevel.obj
 0002:00007e10       ??_C@_17KPNDCPAF@?$AAd?$AAi?$AAv?$AA?$AA@ 0000000180028e10     libucrt:lcidtoname_downlevel.obj
 0002:00007e18       ??_C@_11LOCGONAA@?$AA?$AA@ 0000000180028e18     libucrt:lcidtoname_downlevel.obj
 0002:00007e20       ??_C@_1M@OKAHONE@?$AAa?$AAr?$AA?9?$AAS?$AAA?$AA?$AA@ 0000000180028e20     libucrt:lcidtoname_downlevel.obj
 0002:00007e30       ??_C@_1M@FFFIGIGK@?$AAb?$AAg?$AA?9?$AAB?$AAG?$AA?$AA@ 0000000180028e30     libucrt:lcidtoname_downlevel.obj
 0002:00007e40       ??_C@_1M@BJNKEDC@?$AAc?$AAa?$AA?9?$AAE?$AAS?$AA?$AA@ 0000000180028e40     libucrt:lcidtoname_downlevel.obj
 0002:00007e50       ??_C@_1M@IJJHFJHA@?$AAc?$AAs?$AA?9?$AAC?$AAZ?$AA?$AA@ 0000000180028e50     libucrt:lcidtoname_downlevel.obj
 0002:00007e60       ??_C@_1M@CLPEOBGI@?$AAd?$AAa?$AA?9?$AAD?$AAK?$AA?$AA@ 0000000180028e60     libucrt:lcidtoname_downlevel.obj
 0002:00007e70       ??_C@_1M@MCMADGCB@?$AAd?$AAe?$AA?9?$AAD?$AAE?$AA?$AA@ 0000000180028e70     libucrt:lcidtoname_downlevel.obj
 0002:00007e80       ??_C@_1M@OOCKEMAM@?$AAe?$AAl?$AA?9?$AAG?$AAR?$AA?$AA@ 0000000180028e80     libucrt:lcidtoname_downlevel.obj
 0002:00007e90       ??_C@_1M@DDNJFGID@?$AAf?$AAi?$AA?9?$AAF?$AAI?$AA?$AA@ 0000000180028e90     libucrt:lcidtoname_downlevel.obj
 0002:00007ea0       ??_C@_1M@GLIPPMAC@?$AAf?$AAr?$AA?9?$AAF?$AAR?$AA?$AA@ 0000000180028ea0     libucrt:lcidtoname_downlevel.obj
 0002:00007eb0       ??_C@_1M@GFMCHPE@?$AAh?$AAe?$AA?9?$AAI?$AAL?$AA?$AA@ 0000000180028eb0     libucrt:lcidtoname_downlevel.obj
 0002:00007ec0       ??_C@_1M@MHLPGNKM@?$AAh?$AAu?$AA?9?$AAH?$AAU?$AA?$AA@ 0000000180028ec0     libucrt:lcidtoname_downlevel.obj
 0002:00007ed0       ??_C@_1M@LPDDNNPN@?$AAi?$AAs?$AA?9?$AAI?$AAS?$AA?$AA@ 0000000180028ed0     libucrt:lcidtoname_downlevel.obj
 0002:00007ee0       ??_C@_1M@MADIPODN@?$AAi?$AAt?$AA?9?$AAI?$AAT?$AA?$AA@ 0000000180028ee0     libucrt:lcidtoname_downlevel.obj
 0002:00007ef0       ??_C@_1M@IHBJJGG@?$AAn?$AAl?$AA?9?$AAN?$AAL?$AA?$AA@ 0000000180028ef0     libucrt:lcidtoname_downlevel.obj
 0002:00007f00       ??_C@_1M@EANAGDL@?$AAn?$AAb?$AA?9?$AAN?$AAO?$AA?$AA@ 0000000180028f00     libucrt:lcidtoname_downlevel.obj
 0002:00007f10       ??_C@_1M@NEIEMEGP@?$AAp?$AAl?$AA?9?$AAP?$AAL?$AA?$AA@ 0000000180028f10     libucrt:lcidtoname_downlevel.obj
 0002:00007f20       ??_C@_1M@BOCFIGEP@?$AAp?$AAt?$AA?9?$AAB?$AAR?$AA?$AA@ 0000000180028f20     libucrt:lcidtoname_downlevel.obj
 0002:00007f30       ??_C@_1M@IMPFOPBG@?$AAr?$AAo?$AA?9?$AAR?$AAO?$AA?$AA@ 0000000180028f30     libucrt:lcidtoname_downlevel.obj
 0002:00007f40       ??_C@_1M@IDNNEJMM@?$AAr?$AAu?$AA?9?$AAR?$AAU?$AA?$AA@ 0000000180028f40     libucrt:lcidtoname_downlevel.obj
 0002:00007f50       ??_C@_1M@LILEEOGM@?$AAh?$AAr?$AA?9?$AAH?$AAR?$AA?$AA@ 0000000180028f50     libucrt:lcidtoname_downlevel.obj
 0002:00007f60       ??_C@_1M@FKIFEHPB@?$AAs?$AAk?$AA?9?$AAS?$AAK?$AA?$AA@ 0000000180028f60     libucrt:lcidtoname_downlevel.obj
 0002:00007f70       ??_C@_1M@LJMAMNPJ@?$AAs?$AAq?$AA?9?$AAA?$AAL?$AA?$AA@ 0000000180028f70     libucrt:lcidtoname_downlevel.obj
 0002:00007f80       ??_C@_1M@GIAKDKJK@?$AAs?$AAv?$AA?9?$AAS?$AAE?$AA?$AA@ 0000000180028f80     libucrt:lcidtoname_downlevel.obj
 0002:00007f90       ??_C@_1M@MKJKIKCL@?$AAt?$AAh?$AA?9?$AAT?$AAH?$AA?$AA@ 0000000180028f90     libucrt:lcidtoname_downlevel.obj
 0002:00007fa0       ??_C@_1M@MFLCCMPB@?$AAt?$AAr?$AA?9?$AAT?$AAR?$AA?$AA@ 0000000180028fa0     libucrt:lcidtoname_downlevel.obj
 0002:00007fb0       ??_C@_1M@OIJHDKJN@?$AAu?$AAr?$AA?9?$AAP?$AAK?$AA?$AA@ 0000000180028fb0     libucrt:lcidtoname_downlevel.obj
 0002:00007fc0       ??_C@_1M@LHIPCIEK@?$AAi?$AAd?$AA?9?$AAI?$AAD?$AA?$AA@ 0000000180028fc0     libucrt:lcidtoname_downlevel.obj
 0002:00007fd0       ??_C@_1M@MFMOBGI@?$AAu?$AAk?$AA?9?$AAU?$AAA?$AA?$AA@ 0000000180028fd0     libucrt:lcidtoname_downlevel.obj
 0002:00007fe0       ??_C@_1M@OBGLJIPL@?$AAb?$AAe?$AA?9?$AAB?$AAY?$AA?$AA@ 0000000180028fe0     libucrt:lcidtoname_downlevel.obj
 0002:00007ff0       ??_C@_1M@BCFAJEAD@?$AAs?$AAl?$AA?9?$AAS?$AAI?$AA?$AA@ 0000000180028ff0     libucrt:lcidtoname_downlevel.obj
 0002:00008000       ??_C@_1M@FKFFEDDN@?$AAe?$AAt?$AA?9?$AAE?$AAE?$AA?$AA@ 0000000180029000     libucrt:lcidtoname_downlevel.obj
 0002:00008010       ??_C@_1M@KGKKAACI@?$AAl?$AAv?$AA?9?$AAL?$AAV?$AA?$AA@ 0000000180029010     libucrt:lcidtoname_downlevel.obj
 0002:00008020       ??_C@_1M@IFGBIJO@?$AAl?$AAt?$AA?9?$AAL?$AAT?$AA?$AA@ 0000000180029020     libucrt:lcidtoname_downlevel.obj
 0002:00008030       ??_C@_1M@FGEAHEDM@?$AAf?$AAa?$AA?9?$AAI?$AAR?$AA?$AA@ 0000000180029030     libucrt:lcidtoname_downlevel.obj
 0002:00008040       ??_C@_1M@KBMAIBFN@?$AAv?$AAi?$AA?9?$AAV?$AAN?$AA?$AA@ 0000000180029040     libucrt:lcidtoname_downlevel.obj
 0002:00008050       ?large_power_data@?1??multiply_by_power_of_ten@__crt_strtox@@YA_NAEAUbig_integer@2@I@Z@4QBIB 0000000180029050     libucrt:cfout.obj
 0002:00008960       ?large_power_indices@?1??multiply_by_power_of_ten@__crt_strtox@@YA_NAEAUbig_integer@2@I@Z@4QBUunpack_index@?1??12@YA_N0I@Z@B 0000000180029960     libucrt:cfout.obj
 0002:000089f8       ?small_powers_of_ten@?1??multiply_by_power_of_ten@__crt_strtox@@YA_NAEAUbig_integer@2@I@Z@4QBIB 00000001800299f8     libucrt:cfout.obj
 0002:00008a1c       ??_C@_01GBGANLPD@0?$AA@    0000000180029a1c     libucrt:cfout.obj
 0002:00008a20       ??_C@_05DNEBIAHO@1?$CDINF?$AA@ 0000000180029a20     libucrt:cfout.obj
 0002:00008a28       ??_C@_06IMKFLFPG@1?$CDQNAN?$AA@ 0000000180029a28     libucrt:cfout.obj
 0002:00008a30       ??_C@_06PGGFOGJG@1?$CDSNAN?$AA@ 0000000180029a30     libucrt:cfout.obj
 0002:00008a38       ??_C@_05PHHOCPM@1?$CDIND?$AA@ 0000000180029a38     libucrt:cfout.obj
 0002:00008a40       __real@3ff0000000000000    0000000180029a40     libucrt:ceil.obj
 0002:00008ca0       __log10_256_lead           0000000180029ca0     libucrt:log10_256_lead_tail_table.obj
 0002:000094b0       __log10_256_tail           000000018002a4b0     libucrt:log10_256_lead_tail_table.obj
 0002:00009cc0       __log_F_inv_qword          000000018002acc0     libucrt:log_f_inv_qword_table.obj
 0002:0000a4d0       ??_C@_05HGHHAHAP@log10?$AA@ 000000018002b4d0     libucrt:log_special.obj
 0002:0000a4f0       ??_C@_1BA@BALFACEM@?$AAC?$AAO?$AAN?$AAO?$AAU?$AAT?$AA$?$AA?$AA@ 000000018002b4f0     libucrt:initcon.obj
 0002:0000a560       _load_config_used          000000018002b560     LIBCMT:loadcfg.obj
 0002:0000a660       _tls_used                  000000018002b660     LIBCMT:tlssup.obj
 0002:0000a688       ??_R4exception@std@@6B@    000000018002b688     LIBCMT:throw_bad_alloc.obj
 0002:0000a6b0       ??_R3exception@std@@8      000000018002b6b0     LIBCMT:throw_bad_alloc.obj
 0002:0000a6c8       ??_R2exception@std@@8      000000018002b6c8     LIBCMT:throw_bad_alloc.obj
 0002:0000a6d8       ??_R1A@?0A@EA@exception@std@@8 000000018002b6d8     LIBCMT:throw_bad_alloc.obj
 0002:0000a700       ??_R4bad_alloc@std@@6B@    000000018002b700     LIBCMT:throw_bad_alloc.obj
 0002:0000a728       ??_R3bad_alloc@std@@8      000000018002b728     LIBCMT:throw_bad_alloc.obj
 0002:0000a740       ??_R2bad_alloc@std@@8      000000018002b740     LIBCMT:throw_bad_alloc.obj
 0002:0000a758       ??_R1A@?0A@EA@bad_alloc@std@@8 000000018002b758     LIBCMT:throw_bad_alloc.obj
 0002:0000a780       ??_R4bad_array_new_length@std@@6B@ 000000018002b780     LIBCMT:throw_bad_alloc.obj
 0002:0000a7a8       ??_R3bad_array_new_length@std@@8 000000018002b7a8     LIBCMT:throw_bad_alloc.obj
 0002:0000a7c0       ??_R2bad_array_new_length@std@@8 000000018002b7c0     LIBCMT:throw_bad_alloc.obj
 0002:0000a7e0       ??_R1A@?0A@EA@bad_array_new_length@std@@8 000000018002b7e0     LIBCMT:throw_bad_alloc.obj
 0002:0000a808       ??_R4type_info@@6B@        000000018002b808     LIBCMT:std_type_info_static.obj
 0002:0000a830       ??_R3type_info@@8          000000018002b830     LIBCMT:std_type_info_static.obj
 0002:0000a848       ??_R2type_info@@8          000000018002b848     LIBCMT:std_type_info_static.obj
 0002:0000a858       ??_R1A@?0A@EA@type_info@@8 000000018002b858     LIBCMT:std_type_info_static.obj
 0002:0000a880       ??_R4bad_exception@std@@6B@ 000000018002b880     libvcruntime:frame.obj
 0002:0000a8a8       ??_R3bad_exception@std@@8  000000018002b8a8     libvcruntime:frame.obj
 0002:0000a8c0       ??_R2bad_exception@std@@8  000000018002b8c0     libvcruntime:frame.obj
 0002:0000a8d8       ??_R1A@?0A@EA@bad_exception@std@@8 000000018002b8d8     libvcruntime:frame.obj
 0002:0000acf0       __rtc_iaa                  000000018002bcf0     LIBCMT:_initsect_.obj
 0002:0000acf8       __rtc_izz                  000000018002bcf8     LIBCMT:_initsect_.obj
 0002:0000ad00       __rtc_taa                  000000018002bd00     LIBCMT:_initsect_.obj
 0002:0000ad08       __rtc_tzz                  000000018002bd08     LIBCMT:_initsect_.obj
 0002:0000ad10       _tls_start                 000000018002bd10     LIBCMT:tlssup.obj
 0002:0000ad14       _Init_thread_epoch         000000018002bd14     LIBCMT:thread_safe_statics.obj
 0002:0000ad18       _tls_end                   000000018002bd18     LIBCMT:tlssup.obj
 0002:0000c3b0       _TI2?AVbad_alloc@std@@     000000018002d3b0     LIBCMT:throw_bad_alloc.obj
 0002:0000c3d0       _CTA2?AVbad_alloc@std@@    000000018002d3d0     LIBCMT:throw_bad_alloc.obj
 0002:0000c3e8       _CT??_R0?AVbad_alloc@std@@@8??0bad_alloc@std@@QEAA@AEBV01@@Z24 000000018002d3e8     LIBCMT:throw_bad_alloc.obj
 0002:0000c410       _CT??_R0?AVexception@std@@@8??0exception@std@@QEAA@AEBV01@@Z24 000000018002d410     LIBCMT:throw_bad_alloc.obj
 0002:0000c438       _TI3?AVbad_array_new_length@std@@ 000000018002d438     LIBCMT:throw_bad_alloc.obj
 0002:0000c458       _CTA3?AVbad_array_new_length@std@@ 000000018002d458     LIBCMT:throw_bad_alloc.obj
 0002:0000c478       _CT??_R0?AVbad_array_new_length@std@@@8??0bad_array_new_length@std@@QEAA@AEBV01@@Z24 000000018002d478     LIBCMT:throw_bad_alloc.obj
 0002:0000c4a0       _TI2?AVbad_exception@std@@ 000000018002d4a0     libvcruntime:frame.obj
 0002:0000c4c0       _CTA2?AVbad_exception@std@@ 000000018002d4c0     libvcruntime:frame.obj
 0002:0000c4d8       _CT??_R0?AVbad_exception@std@@@8??0bad_exception@std@@QEAA@AEBV01@@Z24 000000018002d4d8     libvcruntime:frame.obj
 0002:0000c500       __pobjMapEntryFirst        000000018002d500     OposVariant.obj
 0002:0000c508       __pobjMapEntryLast         000000018002d508     OposVariant.obj
 0002:0000c5b8       __IMPORT_DESCRIPTOR_KERNEL32 000000018002d5b8     kernel32:KERNEL32.dll
 0002:0000c5cc       __IMPORT_DESCRIPTOR_USER32 000000018002d5cc     user32:USER32.dll
 0002:0000c5e0       __IMPORT_DESCRIPTOR_GDI32  000000018002d5e0     gdi32:GDI32.dll
 0002:0000c5f4       __IMPORT_DESCRIPTOR_ADVAPI32 000000018002d5f4     advapi32:ADVAPI32.dll
 0002:0000c608       __IMPORT_DESCRIPTOR_ole32  000000018002d608     ole32:ole32.dll
 0002:0000c61c       __IMPORT_DESCRIPTOR_OLEAUT32 000000018002d61c     oleaut32:OLEAUT32.dll
 0002:0000c630       __NULL_IMPORT_DESCRIPTOR   000000018002d630     kernel32:KERNEL32.dll
 0003:00000000       ?vszContents@?6??Save@?$IPersistStorageImpl@VCOPOSKeylock@@@ATL@@UEAAJPEAUIStorage@@H@Z@4PEB_WEB 000000018002f000     Keylock.obj
 0003:00000010       ?wc@?1??GetWndClassInfo@?$CWindowImpl@VCOPOSKeylock@@VCWindow@ATL@@V?$CWinTraits@$0FGAAAAAA@$0A@@3@@ATL@@SAAEAU_ATL_WNDCLASSINFOW@3@XZ@4U43@A 000000018002f010     Keylock.obj
 0003:00000108       ?rcDefault@CWindow@ATL@@2UtagRECT@@A 000000018002f108     Keylock.obj
 0003:00000118       ?s_Claim@?7??GetIDsOfNames@CComTypeInfoHolder@ATL@@QEAAJAEBU_GUID@@PEAPEA_WIKPEAJ@Z@4PA_WA 000000018002f118     Keylock.obj
 0003:00000130       ?s_Release@?7??GetIDsOfNames@CComTypeInfoHolder@ATL@@QEAAJAEBU_GUID@@PEAPEA_WIKPEAJ@Z@4PA_WA 000000018002f130     Keylock.obj
 0003:00000150       ?_tih@?$IDispatchImpl@UIOPOSKeylock@@$1?IID_IOPOSKeylock@@3U_GUID@@B$1?LIBID_OposKeylock_CCO@@3U3@B$00$0A@VCComTypeInfoHolder@ATL@@@ATL@@1VCComTypeInfoHolder@2@A 000000018002f150     Keylock.obj
 0003:00000188       ?_tih@?$IProvideClassInfo2Impl@$1?CLSID_OPOSKeylock@@3U_GUID@@B$1?DIID__IOPOSKeylockEvents@@3U2@B$1?LIBID_OposKeylock_CCO@@3U2@B$00$0A@VCComTypeInfoHolder@ATL@@@ATL@@1VCComTypeInfoHolder@2@A 000000018002f188     Keylock.obj
 0003:00000250       ?g_ControlVersion@@3JA     000000018002f250     KeylockImpl.obj
 0003:00000258       ?g_WindowName@@3PA_WA      000000018002f258     KeylockImpl.obj
 0003:00000278       ?g_ControlDescription@@3PADA 000000018002f278     KeylockImpl.obj
 0003:00000370       __scrt_native_dllmain_reason 000000018002f370     LIBCMT:utility.obj
 0003:00000374       _Init_global_epoch         000000018002f374     LIBCMT:thread_safe_statics.obj
 0003:00000380       __security_cookie_complement 000000018002f380     LIBCMT:gs_cookie.obj
 0003:00000388       __security_cookie          000000018002f388     LIBCMT:gs_cookie.obj
 0003:00000390       __isa_available            000000018002f390     LIBCMT:_cpu_disp_.obj
 0003:00000394       __isa_enabled              000000018002f394     LIBCMT:_cpu_disp_.obj
 0003:00000398       __memcpy_nt_iters          000000018002f398     LIBCMT:_cpu_disp_.obj
 0003:000003b8       __abort_behavior           000000018002f3b8     libucrt:abort.obj
 0003:000003d0       _iob                       000000018002f3d0     libucrt:_file.obj
 0003:000004e0       __acrt_initial_locale_data 000000018002f4e0     libucrt:nlsdata.obj
 0003:00000638       __acrt_initial_locale_pointers 000000018002f638     libucrt:nlsdata.obj
 0003:00000648       __acrt_wide_c_locale_string 000000018002f648     libucrt:nlsdata.obj
 0003:00000650       __acrt_initial_multibyte_data 000000018002f650     libucrt:mbctype.obj
 0003:00000b90       _pwctype                   000000018002fb90     libucrt:ctype.obj
 0003:00000b98       __globallocalestatus       000000018002fb98     libucrt:glstatus.obj
 0003:00000ba0       __acrt_lconv_c             000000018002fba0     libucrt:localeconv.obj
 0003:00000c38       __acrt_lconv_static_decimal 000000018002fc38     libucrt:localeconv.obj
 0003:00000c3c       __acrt_lconv_static_W_decimal 000000018002fc3c     libucrt:localeconv.obj
 0003:00000c58       __dcrt_lowio_console_output_handle 000000018002fc58     libucrt:initcon.obj
 0003:00000c60       _fltused                   000000018002fc60     LIBCMT:fltused.obj
 0003:00000c68       ??_R0?AVbad_alloc@std@@@8  000000018002fc68     LIBCMT:throw_bad_alloc.obj
 0003:00000c90       ??_R0?AVexception@std@@@8  000000018002fc90     LIBCMT:throw_bad_alloc.obj
 0003:00000cb8       ??_R0?AVbad_array_new_length@std@@@8 000000018002fcb8     LIBCMT:throw_bad_alloc.obj
 0003:00000ce8       ??_R0?AVtype_info@@@8      000000018002fce8     LIBCMT:std_type_info_static.obj
 0003:00000d08       ??_R0?AVbad_exception@std@@@8 000000018002fd08     libvcruntime:frame.obj
 0003:00000d30       ?m_bInitFailed@CAtlBaseModule@ATL@@2_NA 000000018002fd30     OposVariant.obj
 0003:00000d38       ?_pPerfRegFunc@ATL@@3P6AJPEAUHINSTANCE__@@@ZEA 000000018002fd38     OposVariant.obj
 0003:00000d40       ?_pPerfUnRegFunc@ATL@@3P6AJXZEA 000000018002fd40     OposVariant.obj
 0003:00000d48       ?_AtlRegisterPerUser@ATL@@3_NA 000000018002fd48     OposVariant.obj
 0003:00000d50       ?_pAtlModule@ATL@@3PEAVCAtlModule@1@EA 000000018002fd50     OposVariant.obj
 0003:00000d58       ?_pModule@ATL@@3PEAVCComModule@1@EA 000000018002fd58     OposVariant.obj
 0003:00000d60       ?_AtlComModule@ATL@@3VCAtlComModule@1@A 000000018002fd60     OposVariant.obj
 0003:00000db0       ?_AtlWinModule@ATL@@3VCAtlWinModule@1@A 000000018002fdb0     OposVariant.obj
 0003:00000df8       ?_entries@?1??GetConnMap@COPOSKeylock@@SAPEBU_ATL_CONNMAP_ENTRY@ATL@@PEAH@Z@4QBU34@B 000000018002fdf8     Keylock.obj
 0003:00000e10       ?$TSS0@?1??GetConnMap@COPOSKeylock@@SAPEBU_ATL_CONNMAP_ENTRY@ATL@@PEAH@Z@4HA 000000018002fe10     Keylock.obj
 0003:00000e18       ?_OptionsStorage@?1??__local_stdio_printf_options@@9@4_KA 000000018002fe18     Keylock.obj
 0003:00000e20       ?m_libid@CAtlModule@ATL@@2U_GUID@@A 000000018002fe20     Keylock.obj
 0003:00000e30       ?_Module@@3VCComModule@ATL@@A 000000018002fe30     Keylock.obj
 0003:00000e80       ?pConnMap@?$IConnectionPointContainerImpl@VCOPOSKeylock@@@ATL@@0PEBU_ATL_CONNMAP_ENTRY@2@EB 000000018002fe80     Keylock.obj
 0003:00000e88       ?s_nInstances@COPOSKeylock@@1HA 000000018002fe88     KeylockImpl.obj
 0003:00000e90       __scrt_current_native_startup_state 000000018002fe90     LIBCMT:utility.obj
 0003:00000e98       __scrt_native_startup_lock 000000018002fe98     LIBCMT:utility.obj
 0003:00001490       _tls_index                 0000000180030490     LIBCMT:tlssup.obj
 0003:00001498       __favor                    0000000180030498     LIBCMT:_cpu_disp_.obj
 0003:0000149c       __scrt_debugger_hook_flag  000000018003049c     LIBCMT:utility_desktop.obj
 0003:000014a0       ?__type_info_root_node@@3U__type_info_node@@A 00000001800304a0     LIBCMT:tncleanup.obj
 0003:000014b0       ?_OptionsStorage@?1??__local_stdio_scanf_options@@9@4_KA 00000001800304b0     LIBCMT:default_local_stdio_options.obj
 0003:000014c0       ?_AtlBaseModule@ATL@@3VCAtlBaseModule@1@A 00000001800304c0     atls:atlbase.obj
 0003:00001520       ?__AtlThunkPool@@3PEAT_SLIST_HEADER@@EA 0000000180030520     atls:atlthunk.obj
 0003:0000154c       __@@_PchSym_@00@UyrmzirvhUrmgvinvwrzgvUexgllohUzgohOmzgrevkilqPBACIAJCBDBUlyqiUznwGEUhgwzucOlyq@4B2008FD98C1DD4 000000018003054c     atls:stdafx.obj
 0003:00001550       ?__WinRTOutOfMemoryExceptionCallback@@3P6APEAXXZEA 0000000180030550     libvcruntime:ehhelpers.obj
 0003:00001558       __pPurecall                0000000180030558     libvcruntime:purevirt_data.obj
 0003:00001660       ?pArgList@UnDecorator@@0PEAVReplicator@@EA 0000000180030660     libvcruntime:undname.obj
 0003:00001668       ?pZNameList@UnDecorator@@0PEAVReplicator@@EA 0000000180030668     libvcruntime:undname.obj
 0003:00001670       ?pTemplateArgList@UnDecorator@@0PEAVReplicator@@EA 0000000180030670     libvcruntime:undname.obj
 0003:00001678       ?gName@UnDecorator@@0PEBDEB 0000000180030678     libvcruntime:undname.obj
 0003:00001680       ?name@UnDecorator@@0PEBDEB 0000000180030680     libvcruntime:undname.obj
 0003:00001688       ?disableFlags@UnDecorator@@0KA 0000000180030688     libvcruntime:undname.obj
 0003:0000168c       ?fExplicitTemplateParams@UnDecorator@@0_NA 000000018003068c     libvcruntime:undname.obj
 0003:0000168d       ?fGetTemplateArgumentList@UnDecorator@@0_NA 000000018003068d     libvcruntime:undname.obj
 0003:00001690       ?m_pGetParameter@UnDecorator@@0P6APEADJ@ZEA 0000000180030690     libvcruntime:undname.obj
 0003:00001698       ?m_CHPENameOffset@UnDecorator@@0KA 0000000180030698     libvcruntime:undname.obj
 0003:0000169c       ?m_recursionLevel@UnDecorator@@0KA 000000018003069c     libvcruntime:undname.obj
 0003:000016e0       ?c_exit_complete@?1???R<lambda_6e4b09c48022b2350581041d5f6b0c4c>@@QEBA@XZ@4_NA 00000001800306e0     libucrt:exit.obj
 0003:000017f8       __dcrt_initial_wide_environment 00000001800307f8     libucrt:environment_initialization.obj
 0003:00001800       __dcrt_initial_narrow_environment 0000000180030800     libucrt:environment_initialization.obj
 0003:00001808       _environ_table             0000000180030808     libucrt:environment_initialization.obj
 0003:00001810       _wenviron_table            0000000180030810     libucrt:environment_initialization.obj
 0003:00001818       __acrt_atexit_table        0000000180030818     libucrt:onexit.obj
 0003:00001830       __acrt_at_quick_exit_table 0000000180030830     libucrt:onexit.obj
 0003:00001a00       _nstream                   0000000180030a00     libucrt:_file.obj
 0003:00001a08       __piob                     0000000180030a08     libucrt:_file.obj
 0003:00001a18       __acrt_stdout_buffer       0000000180030a18     libucrt:_sftbuf.obj
 0003:00001a20       __acrt_stderr_buffer       0000000180030a20     libucrt:_sftbuf.obj
 0003:00001a28       __acrt_locale_changed_data 0000000180030a28     libucrt:wsetlocale.obj
 0003:00001a30       __acrt_current_locale_data 0000000180030a30     libucrt:nlsdata.obj
 0003:00001a40       __pioinfo                  0000000180030a40     libucrt:ioinit.obj
 0003:00001e40       _nhandle                   0000000180030e40     libucrt:ioinit.obj
 0003:00002088       __acrt_current_multibyte_data 0000000180031088     libucrt:mbctype.obj
 0003:00002090       _mbctype                   0000000180031090     libucrt:mbctype.obj
 0003:00002098       _mbcasemap                 0000000180031098     libucrt:mbctype.obj
 0003:000020a8       __argc                     00000001800310a8     libucrt:argv_data.obj
 0003:000020b0       __argv                     00000001800310b0     libucrt:argv_data.obj
 0003:000020b8       __wargv                    00000001800310b8     libucrt:argv_data.obj
 0003:000020c0       _acmdln                    00000001800310c0     libucrt:argv_data.obj
 0003:000020c8       _wcmdln                    00000001800310c8     libucrt:argv_data.obj
 0003:000020d0       _pgmptr                    00000001800310d0     libucrt:argv_data.obj
 0003:000020d8       __acrt_heap                00000001800310d8     libucrt:heap_handle.obj
 0003:0000210c       __acrt_lconv_static_null   000000018003110c     libucrt:localeconv.obj
 0003:00002110       __acrt_lconv_static_W_null 0000000180031110     libucrt:localeconv.obj
 0003:00002118       __fma3_is_available        0000000180031118     libucrt:fma3_available.obj
 0003:0000211c       __use_fma3_lib             000000018003111c     libucrt:fma3_available.obj
 0003:00002120       __dyn_tls_init_callback    0000000180031120     <common>
 0003:00002128       __scrt_ucrt_dll_is_in_use  0000000180031128     <common>

 entry point at        0001:0000e614

 Static symbols

 0000:fffc7000       .debug$S                   0000000180000000     kernel32:KERNEL32.dll
 0000:fffc7000       .debug$S                   0000000180000000     oleaut32:OLEAUT32.dll
 0000:fffc7000       .debug$S                   0000000180000000     oleaut32:OLEAUT32.dll
 0000:fffc7000       .debug$S                   0000000180000000     user32:USER32.dll
 0000:fffc7000       .debug$S                   0000000180000000     user32:USER32.dll
 0000:fffc7000       .debug$S                   0000000180000000     user32:USER32.dll
 0000:fffc7000       .debug$S                   0000000180000000     user32:USER32.dll
 0000:fffc7000       .debug$S                   0000000180000000     user32:USER32.dll
 0000:fffc7000       .debug$S                   0000000180000000     user32:USER32.dll
 0000:fffc7000       .debug$S                   0000000180000000     oleaut32:OLEAUT32.dll
 0000:fffc7000       .debug$S                   0000000180000000     user32:USER32.dll
 0000:fffc7000       .debug$S                   0000000180000000     user32:USER32.dll
 0000:fffc7000       .debug$S                   0000000180000000     user32:USER32.dll
 0000:fffc7000       .debug$S                   0000000180000000     user32:USER32.dll
 0000:fffc7000       .debug$S                   0000000180000000     kernel32:KERNEL32.dll
 0000:fffc7000       .debug$S                   0000000180000000     OPOSKeylock.exp
 0000:fffc7000       .debug$S                   0000000180000000     oleaut32:OLEAUT32.dll
 0000:fffc7000       .debug$S                   0000000180000000     kernel32:KERNEL32.dll
 0000:fffc7000       .debug$S                   0000000180000000     kernel32:KERNEL32.dll
 0000:fffc7000       .debug$S                   0000000180000000     kernel32:KERNEL32.dll
 0000:fffc7000       .debug$S                   0000000180000000     kernel32:KERNEL32.dll
 0000:fffc7000       .debug$S                   0000000180000000     kernel32:KERNEL32.dll
 0000:fffc7000       .debug$S                   0000000180000000     user32:USER32.dll
 0000:fffc7000       .debug$S                   0000000180000000     kernel32:KERNEL32.dll
 0000:fffc7000       .debug$S                   0000000180000000     user32:USER32.dll
 0000:fffc7000       .debug$S                   0000000180000000     kernel32:KERNEL32.dll
 0000:fffc7000       .debug$S                   0000000180000000     kernel32:KERNEL32.dll
 0000:fffc7000       .debug$S                   0000000180000000     kernel32:KERNEL32.dll
 0000:fffc7000       .debug$S                   0000000180000000     kernel32:KERNEL32.dll
 0000:fffc7000       .debug$S                   0000000180000000     kernel32:KERNEL32.dll
 0000:fffc7000       .debug$S                   0000000180000000     kernel32:KERNEL32.dll
 0000:fffc7000       .debug$S                   0000000180000000     kernel32:KERNEL32.dll
 0000:fffc7000       .debug$S                   0000000180000000     kernel32:KERNEL32.dll
 0000:fffc7000       .debug$S                   0000000180000000     kernel32:KERNEL32.dll
 0000:fffc7000       .debug$S                   0000000180000000     kernel32:KERNEL32.dll
 0000:fffc7000       .debug$S                   0000000180000000     kernel32:KERNEL32.dll
 0000:fffc7000       .debug$S                   0000000180000000     kernel32:KERNEL32.dll
 0000:fffc7000       .debug$S                   0000000180000000     kernel32:KERNEL32.dll
 0000:fffc7000       .debug$S                   0000000180000000     kernel32:KERNEL32.dll
 0000:fffc7000       .debug$S                   0000000180000000     kernel32:KERNEL32.dll
 0000:fffc7000       .debug$S                   0000000180000000     kernel32:KERNEL32.dll
 0000:fffc7000       .debug$S                   0000000180000000     kernel32:KERNEL32.dll
 0000:fffc7000       .debug$S                   0000000180000000     kernel32:KERNEL32.dll
 0000:fffc7000       .debug$S                   0000000180000000     kernel32:KERNEL32.dll
 0000:fffc7000       .debug$S                   0000000180000000     kernel32:KERNEL32.dll
 0000:fffc7000       .debug$S                   0000000180000000     kernel32:KERNEL32.dll
 0000:fffc7000       .debug$S                   0000000180000000     kernel32:KERNEL32.dll
 0000:fffc7000       .debug$S                   0000000180000000     kernel32:KERNEL32.dll
 0000:fffc7000       .debug$S                   0000000180000000     kernel32:KERNEL32.dll
 0000:fffc7000       .debug$S                   0000000180000000     kernel32:KERNEL32.dll
 0000:fffc7000       .debug$S                   0000000180000000     kernel32:KERNEL32.dll
 0000:fffc7000       .debug$S                   0000000180000000     kernel32:KERNEL32.dll
 0000:fffc7000       .debug$S                   0000000180000000     kernel32:KERNEL32.dll
 0000:fffc7000       .debug$S                   0000000180000000     kernel32:KERNEL32.dll
 0000:fffc7000       .debug$S                   0000000180000000     kernel32:KERNEL32.dll
 0000:fffc7000       .debug$S                   0000000180000000     kernel32:KERNEL32.dll
 0000:fffc7000       .debug$S                   0000000180000000     kernel32:KERNEL32.dll
 0000:fffc7000       .debug$S                   0000000180000000     kernel32:KERNEL32.dll
 0000:fffc7000       .debug$S                   0000000180000000     kernel32:KERNEL32.dll
 0000:fffc7000       .debug$S                   0000000180000000     kernel32:KERNEL32.dll
 0000:fffc7000       .debug$S                   0000000180000000     kernel32:KERNEL32.dll
 0000:fffc7000       .debug$S                   0000000180000000     kernel32:KERNEL32.dll
 0000:fffc7000       .debug$S                   0000000180000000     kernel32:KERNEL32.dll
 0000:fffc7000       .debug$S                   0000000180000000     kernel32:KERNEL32.dll
 0000:fffc7000       .debug$S                   0000000180000000     kernel32:KERNEL32.dll
 0000:fffc7000       .debug$S                   0000000180000000     kernel32:KERNEL32.dll
 0000:fffc7000       .debug$S                   0000000180000000     kernel32:KERNEL32.dll
 0000:fffc7000       .debug$S                   0000000180000000     kernel32:KERNEL32.dll
 0000:fffc7000       .debug$S                   0000000180000000     kernel32:KERNEL32.dll
 0000:fffc7000       .debug$S                   0000000180000000     kernel32:KERNEL32.dll
 0000:fffc7000       .debug$S                   0000000180000000     kernel32:KERNEL32.dll
 0000:fffc7000       .debug$S                   0000000180000000     kernel32:KERNEL32.dll
 0000:fffc7000       .debug$S                   0000000180000000     kernel32:KERNEL32.dll
 0000:fffc7000       .debug$S                   0000000180000000     kernel32:KERNEL32.dll
 0000:fffc7000       .debug$S                   0000000180000000     kernel32:KERNEL32.dll
 0000:fffc7000       .debug$S                   0000000180000000     kernel32:KERNEL32.dll
 0000:fffc7000       .debug$S                   0000000180000000     kernel32:KERNEL32.dll
 0000:fffc7000       .debug$S                   0000000180000000     kernel32:KERNEL32.dll
 0000:fffc7000       .debug$S                   0000000180000000     kernel32:KERNEL32.dll
 0000:fffc7000       .debug$S                   0000000180000000     kernel32:KERNEL32.dll
 0000:fffc7000       .debug$S                   0000000180000000     kernel32:KERNEL32.dll
 0000:fffc7000       .debug$S                   0000000180000000     kernel32:KERNEL32.dll
 0000:fffc7000       .debug$S                   0000000180000000     kernel32:KERNEL32.dll
 0000:fffc7000       .debug$S                   0000000180000000     kernel32:KERNEL32.dll
 0000:fffc7000       .debug$S                   0000000180000000     kernel32:KERNEL32.dll
 0000:fffc7000       .debug$S                   0000000180000000     kernel32:KERNEL32.dll
 0000:fffc7000       .debug$S                   0000000180000000     kernel32:KERNEL32.dll
 0000:fffc7000       .debug$S                   0000000180000000     kernel32:KERNEL32.dll
 0000:fffc7000       .debug$S                   0000000180000000     kernel32:KERNEL32.dll
 0000:fffc7000       .debug$S                   0000000180000000     kernel32:KERNEL32.dll
 0000:fffc7000       .debug$S                   0000000180000000     kernel32:KERNEL32.dll
 0000:fffc7000       .debug$S                   0000000180000000     kernel32:KERNEL32.dll
 0000:fffc7000       .debug$S                   0000000180000000     kernel32:KERNEL32.dll
 0000:fffc7000       .debug$S                   0000000180000000     kernel32:KERNEL32.dll
 0000:fffc7000       .debug$S                   0000000180000000     kernel32:KERNEL32.dll
 0000:fffc7000       .debug$S                   0000000180000000     kernel32:KERNEL32.dll
 0000:fffc7000       .debug$S                   0000000180000000     kernel32:KERNEL32.dll
 0000:fffc7000       .debug$S                   0000000180000000     kernel32:KERNEL32.dll
 0000:fffc7000       .debug$S                   0000000180000000     kernel32:KERNEL32.dll
 0000:fffc7000       .debug$S                   0000000180000000     kernel32:KERNEL32.dll
 0000:fffc7000       .debug$S                   0000000180000000     kernel32:KERNEL32.dll
 0000:fffc7000       .debug$S                   0000000180000000     kernel32:KERNEL32.dll
 0000:fffc7000       .debug$S                   0000000180000000     kernel32:KERNEL32.dll
 0000:fffc7000       .debug$S                   0000000180000000     user32:USER32.dll
 0000:fffc7000       .debug$S                   0000000180000000     oleaut32:OLEAUT32.dll
 0000:fffc7000       .debug$S                   0000000180000000     oleaut32:OLEAUT32.dll
 0000:fffc7000       .debug$S                   0000000180000000     oleaut32:OLEAUT32.dll
 0000:fffc7000       .debug$S                   0000000180000000     oleaut32:OLEAUT32.dll
 0000:fffc7000       .debug$S                   0000000180000000     kernel32:KERNEL32.dll
 0000:fffc7000       .debug$S                   0000000180000000     oleaut32:OLEAUT32.dll
 0000:fffc7000       .debug$S                   0000000180000000     kernel32:KERNEL32.dll
 0000:fffc7000       .debug$S                   0000000180000000     user32:USER32.dll
 0000:fffc7000       .debug$S                   0000000180000000     user32:USER32.dll
 0000:fffc7000       .debug$S                   0000000180000000     oleaut32:OLEAUT32.dll
 0000:fffc7000       .debug$S                   0000000180000000     gdi32:GDI32.dll
 0000:fffc7000       .debug$S                   0000000180000000     gdi32:GDI32.dll
 0000:fffc7000       .debug$S                   0000000180000000     gdi32:GDI32.dll
 0000:fffc7000       .debug$S                   0000000180000000     gdi32:GDI32.dll
 0000:fffc7000       .debug$S                   0000000180000000     gdi32:GDI32.dll
 0000:fffc7000       .debug$S                   0000000180000000     user32:USER32.dll
 0000:fffc7000       .debug$S                   0000000180000000     user32:USER32.dll
 0000:fffc7000       .debug$S                   0000000180000000     user32:USER32.dll
 0000:fffc7000       .debug$S                   0000000180000000     user32:USER32.dll
 0000:fffc7000       .debug$S                   0000000180000000     user32:USER32.dll
 0000:fffc7000       .debug$S                   0000000180000000     gdi32:GDI32.dll
 0000:fffc7000       .debug$S                   0000000180000000     gdi32:GDI32.dll
 0000:fffc7000       .debug$S                   0000000180000000     gdi32:GDI32.dll
 0000:fffc7000       .debug$S                   0000000180000000     user32:USER32.dll
 0000:fffc7000       .debug$S                   0000000180000000     oleaut32:OLEAUT32.dll
 0000:fffc7000       .debug$S                   0000000180000000     gdi32:GDI32.dll
 0000:fffc7000       .debug$S                   0000000180000000     gdi32:GDI32.dll
 0000:fffc7000       .debug$S                   0000000180000000     gdi32:GDI32.dll
 0000:fffc7000       .debug$S                   0000000180000000     user32:USER32.dll
 0000:fffc7000       .debug$S                   0000000180000000     user32:USER32.dll
 0000:fffc7000       .debug$S                   0000000180000000     gdi32:GDI32.dll
 0000:fffc7000       .debug$S                   0000000180000000     user32:USER32.dll
 0000:fffc7000       .debug$S                   0000000180000000     kernel32:KERNEL32.dll
 0000:fffc7000       .debug$S                   0000000180000000     kernel32:KERNEL32.dll
 0000:fffc7000       .debug$S                   0000000180000000     kernel32:KERNEL32.dll
 0000:fffc7000       .debug$S                   0000000180000000     kernel32:KERNEL32.dll
 0000:fffc7000       .debug$S                   0000000180000000     kernel32:KERNEL32.dll
 0000:fffc7000       .debug$S                   0000000180000000     kernel32:KERNEL32.dll
 0000:fffc7000       .debug$S                   0000000180000000     user32:USER32.dll
 0000:fffc7000       .debug$S                   0000000180000000     gdi32:GDI32.dll
 0000:fffc7000       .debug$S                   0000000180000000     user32:USER32.dll
 0000:fffc7000       .debug$S                   0000000180000000     kernel32:KERNEL32.dll
 0000:fffc7000       .debug$S                   0000000180000000     gdi32:GDI32.dll
 0000:fffc7000       .debug$S                   0000000180000000     user32:USER32.dll
 0000:fffc7000       .debug$S                   0000000180000000     user32:USER32.dll
 0000:fffc7000       .debug$S                   0000000180000000     oleaut32:OLEAUT32.dll
 0000:fffc7000       .debug$S                   0000000180000000     oleaut32:OLEAUT32.dll
 0000:fffc7000       .debug$S                   0000000180000000     oleaut32:OLEAUT32.dll
 0000:fffc7000       .debug$S                   0000000180000000     oleaut32:OLEAUT32.dll
 0000:fffc7000       .debug$S                   0000000180000000     user32:USER32.dll
 0000:fffc7000       .debug$S                   0000000180000000     ole32:ole32.dll
 0000:fffc7000       .debug$S                   0000000180000000     ole32:ole32.dll
 0000:fffc7000       .debug$S                   0000000180000000     ole32:ole32.dll
 0000:fffc7000       .debug$S                   0000000180000000     user32:USER32.dll
 0000:fffc7000       .debug$S                   0000000180000000     gdi32:GDI32.dll
 0000:fffc7000       .debug$S                   0000000180000000     gdi32:GDI32.dll
 0000:fffc7000       .debug$S                   0000000180000000     gdi32:GDI32.dll
 0000:fffc7000       .debug$S                   0000000180000000     ole32:ole32.dll
 0000:fffc7000       .debug$S                   0000000180000000     ole32:ole32.dll
 0000:fffc7000       .debug$S                   0000000180000000     kernel32:KERNEL32.dll
 0000:fffc7000       .debug$S                   0000000180000000     ole32:ole32.dll
 0000:fffc7000       .debug$S                   0000000180000000     kernel32:KERNEL32.dll
 0000:fffc7000       .debug$S                   0000000180000000     kernel32:KERNEL32.dll
 0000:fffc7000       .debug$S                   0000000180000000     user32:USER32.dll
 0000:fffc7000       .debug$S                   0000000180000000     user32:USER32.dll
 0000:fffc7000       .debug$S                   0000000180000000     user32:USER32.dll
 0000:fffc7000       .debug$S                   0000000180000000     kernel32:KERNEL32.dll
 0000:fffc7000       .debug$S                   0000000180000000     ole32:ole32.dll
 0000:fffc7000       .debug$S                   0000000180000000     kernel32:KERNEL32.dll
 0000:fffc7000       .debug$S                   0000000180000000     ole32:ole32.dll
 0000:fffc7000       .debug$S                   0000000180000000     kernel32:KERNEL32.dll
 0000:fffc7000       .debug$S                   0000000180000000     gdi32:GDI32.dll
 0000:fffc7000       .debug$S                   0000000180000000     ole32:ole32.dll
 0000:fffc7000       .debug$S                   0000000180000000     ole32:ole32.dll
 0000:fffc7000       .debug$S                   0000000180000000     gdi32:GDI32.dll
 0000:fffc7000       .debug$S                   0000000180000000     user32:USER32.dll
 0000:fffc7000       .debug$S                   0000000180000000     advapi32:ADVAPI32.dll
 0000:fffc7000       .debug$S                   0000000180000000     kernel32:KERNEL32.dll
 0000:fffc7000       .debug$S                   0000000180000000     advapi32:ADVAPI32.dll
 0000:fffc7000       .debug$S                   0000000180000000     advapi32:ADVAPI32.dll
 0000:fffc7000       .debug$S                   0000000180000000     advapi32:ADVAPI32.dll
 0000:fffc7000       .debug$S                   0000000180000000     advapi32:ADVAPI32.dll
 0000:fffc7000       .debug$S                   0000000180000000     advapi32:ADVAPI32.dll
 0000:fffc7000       .debug$S                   0000000180000000     kernel32:KERNEL32.dll
 0000:fffc7000       .debug$S                   0000000180000000     ole32:ole32.dll
 0000:fffc7000       .debug$S                   0000000180000000     kernel32:KERNEL32.dll
 0000:fffc7000       .debug$S                   0000000180000000     advapi32:ADVAPI32.dll
 0000:fffc7000       .debug$S                   0000000180000000     advapi32:ADVAPI32.dll
 0000:fffc7000       .debug$S                   0000000180000000     kernel32:KERNEL32.dll
 0000:fffc7000       .debug$S                   0000000180000000     kernel32:KERNEL32.dll
 0000:fffc7000       .debug$S                   0000000180000000     advapi32:ADVAPI32.dll
 0000:fffc7000       .debug$S                   0000000180000000     ole32:ole32.dll
 0000:fffc7000       .debug$S                   0000000180000000     user32:USER32.dll
 0000:fffc7000       .debug$S                   0000000180000000     kernel32:KERNEL32.dll
 0000:fffc7000       .debug$S                   0000000180000000     kernel32:KERNEL32.dll
 0000:fffc7000       .debug$S                   0000000180000000     kernel32:KERNEL32.dll
 0000:fffc7000       .debug$S                   0000000180000000     kernel32:KERNEL32.dll
 0000:fffc7000       .debug$S                   0000000180000000     ole32:ole32.dll
 0000:fffc7000       .debug$S                   0000000180000000     kernel32:KERNEL32.dll
 0000:fffc7000       .debug$S                   0000000180000000     kernel32:KERNEL32.dll
 0000:fffc7000       .debug$S                   0000000180000000     ole32:ole32.dll
 0000:fffc7000       .debug$S                   0000000180000000     oleaut32:OLEAUT32.dll
 0001:00000000       ??__E_AtlComModule@ATL@@YAXXZ 0000000180001000 f   OposVariant.obj
 0001:00000020       ??__E_AtlWinModule@ATL@@YAXXZ 0000000180001020 f   OposVariant.obj
 0001:00000040       ??__E?pConnMap@?$IConnectionPointContainerImpl@VCOPOSKeylock@@@ATL@@0PEBU_ATL_CONNMAP_ENTRY@2@EB@@YAXXZ 0000000180001040 f   Keylock.obj
 0001:00000058       ??__E_Module@@YAXXZ        0000000180001058 f   Keylock.obj
 0001:00000094       ??__E_AtlBaseModule@ATL@@YAXXZ 0000000180001094 f   atls:atlbase.obj
 0001:0000b6c4       memcpy_s                   000000018000c6c4 f   Keylock.obj
 0001:0000db5c       ?__scrt_initialize_thread_safe_statics@@YAHXZ 000000018000eb5c f   LIBCMT:thread_safe_statics.obj
 0001:0000dcbc       ?__scrt_uninitialize_thread_safe_statics@@YAXXZ 000000018000ecbc f   LIBCMT:thread_safe_statics.obj
 0001:0000e02c       capture_current_context    000000018000f02c f   LIBCMT:gs_report.obj
 0001:0000e09c       capture_previous_context   000000018000f09c f   LIBCMT:gs_report.obj
 0001:0000e240       $$000000                   000000018000f240     LIBCMT:_chkstk_.obj
 0001:0000e2b0       $$000000                   000000018000f2b0     LIBCMT:_amdsecgs_.obj
 0001:0000e2e4       ?dllmain_crt_dispatch@@YAHQEAUHINSTANCE__@@KQEAX@Z 000000018000f2e4 f   LIBCMT:dll_dllmain.obj
 0001:0000e334       ?dllmain_crt_process_attach@@YAHQEAUHINSTANCE__@@QEAX@Z 000000018000f334 f   LIBCMT:dll_dllmain.obj
 0001:0000e450       ?dllmain_crt_process_detach@@YAH_N@Z 000000018000f450 f   LIBCMT:dll_dllmain.obj
 0001:0000e4e0       ?dllmain_dispatch@@YAHQEAUHINSTANCE__@@KQEAX@Z 000000018000f4e0 f   LIBCMT:dll_dllmain.obj
 0001:0000edd8       ??$GetProcAddressAll@P6AP6A_JPEAUHWND__@@I_K_J@ZPEAUAtlThunkData_t@@@Z@@YAP6AP6A_JPEAUHWND__@@I_K_J@ZPEAUAtlThunkData_t@@@ZPEAP6AP6A_J0I12@Z3@Z@Z 000000018000fdd8 f   atls:atlthunk.obj
 0001:0000edd8       ??$GetProcAddressAll@P6APEAUAtlThunkData_t@@XZ@@YAP6APEAUAtlThunkData_t@@XZPEAP6APEAU0@XZ@Z 000000018000fdd8 f   atls:atlthunk.obj
 0001:0000edd8       ??$GetProcAddressAll@P6AXPEAUAtlThunkData_t@@@Z@@YAP6AXPEAUAtlThunkData_t@@@ZPEAP6AX0@Z@Z 000000018000fdd8 f   atls:atlthunk.obj
 0001:0000edd8       ??$GetProcAddressAll@P6AXPEAUAtlThunkData_t@@PEAX_K@Z@@YAP6AXPEAUAtlThunkData_t@@PEAX_K@ZPEAP6AX012@Z@Z 000000018000fdd8 f   atls:atlthunk.obj
 0001:0000efb0       ?__InitializeThunkPool@@YAHXZ 000000018000ffb0 f   atls:atlthunk.obj
 0001:0000f210       $$000000                   0000000180010210     libvcruntime:memset.obj
 0001:0000f30c       MsetTab                    000000018001030c     libvcruntime:memset.obj
 0001:0000f620       $$000000                   0000000180010620     libvcruntime:memcmp.obj
 0001:0000f700       $$000000                   0000000180010700     libvcruntime:memcpy.obj
 0001:0000f7b7       MoveSmall                  00000001800107b7     libvcruntime:memcpy.obj
 0001:00010940       ?try_get_function@@YAPEAXW4function_id@?A0xcc2f1bd3@@QEBDQEBW4module_id@2@2@Z 0000000180011940 f   libvcruntime:winapi_downlevel.obj
 0001:00010d20       $$000000                   0000000180011d20     libvcruntime:_notify_.obj
 0001:00010ea8       ??$BuildCatchObjectHelperInternal@$$CBU_s_HandlerType@@@@YAHPEAUEHExceptionRecord@@PEAXPEBU_s_HandlerType@@PEBU_s_CatchableType@@@Z 0000000180011ea8 f   libvcruntime:frame.obj
 0001:000110a8       ??$BuildCatchObjectInternal@$$CBU_s_HandlerType@@@@YAXPEAUEHExceptionRecord@@PEAXPEBU_s_HandlerType@@PEBU_s_CatchableType@@@Z 00000001800120a8 f   libvcruntime:frame.obj
 0001:00011168       ??$CatchIt@V__FrameHandler3@@@@YAXPEAUEHExceptionRecord@@PEA_KPEAU_CONTEXT@@PEAU_xDISPATCHER_CONTEXT@@PEBU_s_FuncInfo@@PEBU_s_HandlerType@@PEBU_s_CatchableType@@PEBU_s_TryBlockMapEntry@@H1EE@Z 0000000180012168 f   libvcruntime:frame.obj
 0001:00011238       ??$FindHandler@V__FrameHandler3@@@@YAXPEAUEHExceptionRecord@@PEA_KPEAU_CONTEXT@@PEAU_xDISPATCHER_CONTEXT@@PEBU_s_FuncInfo@@EH1@Z 0000000180012238 f   libvcruntime:frame.obj
 0001:0001169c       ??$FindHandlerForForeignException@V__FrameHandler3@@@@YAXPEAUEHExceptionRecord@@PEA_KPEAU_CONTEXT@@PEAU_xDISPATCHER_CONTEXT@@PEBU_s_FuncInfo@@HH1@Z 000000018001269c f   libvcruntime:frame.obj
 0001:00011ea4       ?ExFilterRethrow@@YAHPEAU_EXCEPTION_POINTERS@@PEAUEHExceptionRecord@@PEAH@Z 0000000180012ea4 f   libvcruntime:frame.obj
 0001:00012158       ?IsInExceptionSpec@@YAEPEAUEHExceptionRecord@@PEBU_s_ESTypeList@@@Z 0000000180013158 f   libvcruntime:frame.obj
 0001:00012230       ?Is_bad_exception_allowed@@YAEPEBU_s_ESTypeList@@@Z 0000000180013230 f   libvcruntime:frame.obj
 0001:000122e0       $$000000                   00000001800132e0     libvcruntime:handlers.obj
 0001:00012a90       ??$common_vsprintf@Vformat_validation_base@__crt_stdio_output@@_W@@YAH_KQEA_W0QEB_WQEAU__crt_locale_pointers@@QEAD@Z 0000000180013a90 f   libucrt:output.obj
 0001:00014258       ??R<lambda_6e4b09c48022b2350581041d5f6b0c4c>@@QEBA@XZ 0000000180015258 f   libucrt:exit.obj
 0001:00014330       ?atexit_exception_filter@@YAHK@Z 0000000180015330 f   libucrt:exit.obj
 0001:0001433c       ?common_exit@@YAXHW4_crt_exit_cleanup_mode@@W4_crt_exit_return_mode@@@Z 000000018001533c f   libucrt:exit.obj
 0001:000143f8       ?exit_or_terminate_process@@YAXI@Z 00000001800153f8 f   libucrt:exit.obj
 0001:00014444       ?try_cor_exit_process@@YAXI@Z 0000000180015444 f   libucrt:exit.obj
 0001:000144cc       ??$parse_command_line@D@@YAXPEADPEAPEAD0PEA_K2@Z 00000001800154cc f   libucrt:argv_parsing.obj
 0001:00014874       ??$common_initialize_environment_nolock@D@@YAHXZ 0000000180015874 f   libucrt:environment_initialization.obj
 0001:000148e0       ??$create_environment@D@@YAQEAPEADQEAD@Z 00000001800158e0 f   libucrt:environment_initialization.obj
 0001:000149dc       ??$free_environment@D@@YAXQEAPEAD@Z 00000001800159dc f   libucrt:environment_initialization.obj
 0001:000149dc       ??$free_environment@_W@@YAXQEAPEA_W@Z 00000001800159dc f   libucrt:environment_initialization.obj
 0001:00014a20       ??$uninitialize_environment_internal@D@@YAXAEAPEAPEAD@Z 0000000180015a20 f   libucrt:environment_initialization.obj
 0001:00014a3c       ??$uninitialize_environment_internal@_W@@YAXAEAPEAPEA_W@Z 0000000180015a3c f   libucrt:environment_initialization.obj
 0001:00014b10       ??R<lambda_22ebabd17bc4fa466a2aca6d8deb888d>@@QEBAHXZ 0000000180015b10 f   libucrt:onexit.obj
 0001:00014cec       ??R<lambda_f03950bc5685219e0bcd2087efbe011e>@@QEBAHXZ 0000000180015cec f   libucrt:onexit.obj
 0001:00014f0c       initialize_global_variables 0000000180015f0c f   libucrt:initialization.obj
 0001:00014f20       initialize_c               0000000180015f20 f   libucrt:initialization.obj
 0001:00014f44       initialize_global_state_isolation 0000000180015f44 f   libucrt:initialization.obj
 0001:00014f44       report_memory_leaks        0000000180015f44 f   libucrt:initialization.obj
 0001:00014f44       initialize_environment     0000000180015f44 f   libucrt:initialization.obj
 0001:00014f44       uninitialize_c             0000000180015f44 f   libucrt:initialization.obj
 0001:00014f44       uninitialize_global_state_isolation 0000000180015f44 f   libucrt:initialization.obj
 0001:00014f48       uninitialize_environment   0000000180015f48 f   libucrt:initialization.obj
 0001:00014f58       initialize_pointers        0000000180015f58 f   libucrt:initialization.obj
 0001:00014fac       uninitialize_vcruntime     0000000180015fac f   libucrt:initialization.obj
 0001:00014fb4       uninitialize_allocated_memory 0000000180015fb4 f   libucrt:initialization.obj
 0001:00015a10       $$000000                   0000000180016a10     libucrt:strncmp.obj
 0001:00015c08       ?construct_ptd_array@@YAXQEAU__acrt_ptd@@@Z 0000000180016c08 f   libucrt:per_thread_data.obj
 0001:00015cd8       ?destroy_fls@@YAXPEAX@Z    0000000180016cd8 f   libucrt:per_thread_data.obj
 0001:00015cf8       ?destroy_ptd_array@@YAXQEAU__acrt_ptd@@@Z 0000000180016cf8 f   libucrt:per_thread_data.obj
 0001:00015df0       ?replace_current_thread_locale_nolock@@YAXQEAU__acrt_ptd@@QEAU__crt_locale_data@@@Z 0000000180016df0 f   libucrt:per_thread_data.obj
 0001:000162e0       ?try_get_function@@YAPEAXW4function_id@?A0x391cf84c@@QEBDQEBW4module_id@2@2@Z 00000001800172e0 f   libucrt:winapi_thunks.obj
 0001:000168f8       ?internal_isupper_l@@YA_NHQEAU__crt_locale_pointers@@@Z 00000001800178f8 f   libucrt:tolower_toupper.obj
 0001:00016f10       ?fp_format_a@@YAHQEBNPEAD_KQEAD2H_NIQEAU__crt_locale_pointers@@@Z 0000000180017f10 f   libucrt:cvt.obj
 0001:00017270       ?fp_format_e@@YAHQEBNQEAD_K12H_NIQEAU__crt_locale_pointers@@@Z 0000000180018270 f   libucrt:cvt.obj
 0001:00017340       ?fp_format_e_internal@@YAHQEAD_KH_NIQEAU_strflt@@2QEAU__crt_locale_pointers@@@Z 0000000180018340 f   libucrt:cvt.obj
 0001:0001751c       ?fp_format_f_internal@@YAHQEAD_KHQEAU_strflt@@_NQEAU__crt_locale_pointers@@@Z 000000018001851c f   libucrt:cvt.obj
 0001:00017664       ?fp_format_g@@YAHQEBNQEAD_K12H_NIQEAU__crt_locale_pointers@@@Z 0000000180018664 f   libucrt:cvt.obj
 0001:0001779c       ?fp_format_nan_or_infinity@@YAHW4__acrt_fp_class@@_NPEAD_K1@Z 000000018001879c f   libucrt:cvt.obj
 0001:00017da4       ?initialize_inherited_file_handles_nolock@@YAXXZ 0000000180018da4 f   libucrt:ioinit.obj
 0001:00017e90       ?initialize_stdio_handles_nolock@@YAXXZ 0000000180018e90 f   libucrt:ioinit.obj
 0001:000180e8       ?<lambda_invoker_cdecl>@<lambda_c2303d2482d7c3675ea2e24c4cfb6115>@@CAHPEBX0@Z 00000001800190e8 f   libucrt:argv_wildcards.obj
 0001:000180fc       ??$common_expand_argv_wildcards@D@@YAHQEAPEADQEAPEAPEAD@Z 00000001800190fc f   libucrt:argv_wildcards.obj
 0001:00018308       ??$copy_and_add_argument_to_buffer@D@@YAHQEBD0_KAEAV?$argument_list@D@?A0x5f5c8891@@@Z 0000000180019308 f   libucrt:argv_wildcards.obj
 0001:000184a0       ??$expand_argument_wildcards@D@@YAHQEAD0AEAV?$argument_list@D@?A0x5f5c8891@@@Z 00000001800194a0 f   libucrt:argv_wildcards.obj
 0001:0001881c       ?getSystemCP@@YAHH@Z       000000018001981c f   libucrt:mbctype.obj
 0001:0001889c       ?setSBCS@@YAXPEAU__crt_multibyte_data@@@Z 000000018001989c f   libucrt:mbctype.obj
 0001:0001892c       ?setSBUpLow@@YAXPEAU__crt_multibyte_data@@@Z 000000018001992c f   libucrt:mbctype.obj
 0001:00018b10       ?setmbcp_internal@@YAHH_NQEAU__acrt_ptd@@QEAPEAU__crt_multibyte_data@@@Z 0000000180019b10 f   libucrt:mbctype.obj
 0001:00018cd4       ?update_thread_multibyte_data_internal@@YAPEAU__crt_multibyte_data@@QEAU__acrt_ptd@@QEAU1@@Z 0000000180019cd4 f   libucrt:mbctype.obj
 0001:000190b0       ?x_ismbbtype_l@@YAHPEAU__crt_locale_pointers@@IHH@Z 000000018001a0b0 f   libucrt:ismbbyte.obj
 0001:00019c98       ?GetTableIndexFromLocaleName@@YAHPEB_W@Z 000000018001ac98 f   libucrt:lcidtoname_downlevel.obj
 0001:00019dd4       ?__acrt_LCMapStringA_stat@@YAHPEAU__crt_locale_pointers@@PEB_WKPEBDHPEADHHH@Z 000000018001add4 f   libucrt:lcmapstringa.obj
 0001:0001ba80       memcpy_s                   000000018001ca80 f   libucrt:cfout.obj
 0001:0001bd40       ?common_flush_all@@YAH_N@Z 000000018001cd40 f   libucrt:fflush.obj
 0001:0001c088       ?free_crt_array_internal@@YAXQEAPEBX_K@Z 000000018001d088 f   libucrt:inittime.obj
 0001:0001c6c0       ?shortsort@@YAXPEAD0_KP6AHPEBX2@Z@Z 000000018001d6c0 f   libucrt:qsort.obj
 0001:0001ccb4       ?initialize_multibyte@@YAHXZ 000000018001dcb4 f   libucrt:multibyte_initializer.obj
 0001:0001ce70       $$000000                   000000018001de70     libucrt:log10.obj
 0001:0001d41c       ?write_double_translated_ansi_nolock@@YA?AUwrite_result@?A0x17268360@@HQEBDI@Z 000000018001e41c f   libucrt:write.obj
 0001:0001d644       ?write_text_ansi_nolock@@YA?AUwrite_result@?A0x17268360@@HQEBDI@Z 000000018001e644 f   libucrt:write.obj
 0001:0001d748       ?write_text_utf16le_nolock@@YA?AUwrite_result@?A0x17268360@@HQEBDI@Z 000000018001e748 f   libucrt:write.obj
 0001:0001d864       ?write_text_utf8_nolock@@YA?AUwrite_result@?A0x17268360@@HQEBDI@Z 000000018001e864 f   libucrt:write.obj
 0001:0001ddc0       ??$common_lseek_nolock@_J@@YA_JH_JH@Z 000000018001edc0 f   libucrt:lseek.obj
 0001:0001e1a0       common_control87           000000018001f1a0 f   libucrt:ieee.obj
 0001:0001e430       _call_matherr              000000018001f430 f   libucrt:libm_error.obj
 0001:0001e498       _exception_enabled         000000018001f498 f   libucrt:libm_error.obj
 0001:0001e730       _log_special_common        000000018001f730 f   libucrt:log_special.obj
 0001:0001ea40       $$000000                   000000018001fa40     libucrt:fpsr.obj
 0001:0001f160       $$000000                   0000000180020160     LIBCMT:_guard_dispatch_.obj
 0001:0001f180       ?filt$0@?0??_AtlVerifyStackAvailable@_ATL_SAFE_ALLOCA_IMPL@ATL@@YA_N_K@Z@4HA 0000000180020180 f   Keylock.obj
 0001:0001f1a1       __scrt_is_nonwritable_in_current_image$filt$0 00000001800201a1 f   LIBCMT:utility.obj
 0001:0001f1b9       ?catch$0@?0???2@YAPEAX_KAEBUnothrow_t@std@@@Z@4HA 00000001800201b9 f   LIBCMT:new_scalar_nothrow.obj
 0001:0001f1c6       __catch$??2@YAPEAX_KAEBUnothrow_t@std@@@Z$0 00000001800201c6 f   LIBCMT:new_scalar_nothrow.obj
 0001:0001f1d4       ?fin$0@?0??dllmain_crt_process_attach@@YAHQEAUHINSTANCE__@@QEAX@Z@4HA 00000001800201d4 f   LIBCMT:dll_dllmain.obj
 0001:0001f1eb       ?fin$0@?0??dllmain_crt_process_detach@@YAH_N@Z@4HA 00000001800201eb f   LIBCMT:dll_dllmain.obj
 0001:0001f207       ?filt$0@?0??dllmain_dispatch@@YAHQEAUHINSTANCE__@@KQEAX@Z@4HA 0000000180020207 f   LIBCMT:dll_dllmain.obj
 0001:0001f23d       __DestructExceptionObject$filt$0 000000018002023d f   libvcruntime:ehhelpers.obj
 0001:0001f255       ?filt$0@?0???$_CallSETranslator@V__FrameHandler3@@@@YAHPEAUEHExceptionRecord@@PEA_KPEAU_CONTEXT@@PEAU_xDISPATCHER_CONTEXT@@PEBU_s_FuncInfo@@K1@Z@4HA 0000000180020255 f   libvcruntime:risctrnsctrl.obj
 0001:0001f2e6       ?filt$0@?0??CxxCallCatchBlock@__FrameHandler3@@SAPEAXPEAU_EXCEPTION_RECORD@@@Z@4HA 00000001800202e6 f   libvcruntime:frame.obj
 0001:0001f30b       ?fin$1@?0??CxxCallCatchBlock@__FrameHandler3@@SAPEAXPEAU_EXCEPTION_RECORD@@@Z@4HA 000000018002030b f   libvcruntime:frame.obj
 0001:0001f383       ?filt$0@?0??FrameUnwindToState@__FrameHandler3@@SAXPEA_KPEAU_xDISPATCHER_CONTEXT@@PEBU_s_FuncInfo@@H@Z@4HA 0000000180020383 f   libvcruntime:frame.obj
 0001:0001f399       ?fin$1@?0??FrameUnwindToState@__FrameHandler3@@SAXPEA_KPEAU_xDISPATCHER_CONTEXT@@PEBU_s_FuncInfo@@H@Z@4HA 0000000180020399 f   libvcruntime:frame.obj
 0001:0001f3bc       ?fin$0@?0???$?RV<lambda_638799b9deba96c50f710eeac98168cd>@@AEAV<lambda_22ebabd17bc4fa466a2aca6d8deb888d>@@V<lambda_a6f7d7db0129f75315ebf26d50c089f1>@@@?$__crt_seh_guarded_call@H@@QEAAH$$QEAV<lambda_638799b9deba96c50f710eeac98168cd>@@AEAV<lambda_22ebabd17bc4fa466a2aca6d8deb888d>@@$$QEAV<lambda_a6f7d7db0129f75315ebf26d50c089f1>@@@Z@4HA 00000001800203bc f   libucrt:onexit.obj
 0001:0001f3bc       ?fin$0@?0???$?RV<lambda_7777bce6b2f8c936911f934f8298dc43>@@AEAV<lambda_f03950bc5685219e0bcd2087efbe011e>@@V<lambda_3883c3dff614d5e0c5f61bb1ac94921c>@@@?$__crt_seh_guarded_call@H@@QEAAH$$QEAV<lambda_7777bce6b2f8c936911f934f8298dc43>@@AEAV<lambda_f03950bc5685219e0bcd2087efbe011e>@@$$QEAV<lambda_3883c3dff614d5e0c5f61bb1ac94921c>@@@Z@4HA 00000001800203bc f   libucrt:onexit.obj
 0001:0001f3bc       ?fin$0@?0???$?RV<lambda_2d41944a1d46af3157314b8a01080d33>@@AEAV<lambda_8f455de75cd7d7f24b4096f044d8b9e6>@@V<lambda_aa500f224e6afead328df44964fe2772>@@@?$__crt_seh_guarded_call@X@@QEAAX$$QEAV<lambda_2d41944a1d46af3157314b8a01080d33>@@AEAV<lambda_8f455de75cd7d7f24b4096f044d8b9e6>@@$$QEAV<lambda_aa500f224e6afead328df44964fe2772>@@@Z@4HA 00000001800203bc f   libucrt:per_thread_data.obj
 0001:0001f3bc       ?fin$0@?0???$?RV<lambda_efdfa57d1f175319df784efa44bb7b81>@@AEAV<lambda_5f0a4c1567f8adc6734073e5d1e1b35c>@@V<lambda_2e8a7d3640ea6ccb4c2413664c2db6fd>@@@?$__crt_seh_guarded_call@X@@QEAAX$$QEAV<lambda_efdfa57d1f175319df784efa44bb7b81>@@AEAV<lambda_5f0a4c1567f8adc6734073e5d1e1b35c>@@$$QEAV<lambda_2e8a7d3640ea6ccb4c2413664c2db6fd>@@@Z@4HA 00000001800203bc f   libucrt:mbctype.obj
 0001:0001f3bc       ?fin$0@?0???$?RV<lambda_aa87e3671a710a21b5dc78c0bdf72e11>@@AEAV<lambda_92619d2358a28f41a33ba319515a20b9>@@V<lambda_6992ecaafeb10aed2b74cb1fae11a551>@@@?$__crt_seh_guarded_call@X@@QEAAX$$QEAV<lambda_aa87e3671a710a21b5dc78c0bdf72e11>@@AEAV<lambda_92619d2358a28f41a33ba319515a20b9>@@$$QEAV<lambda_6992ecaafeb10aed2b74cb1fae11a551>@@@Z@4HA 00000001800203bc f   libucrt:per_thread_data.obj
 0001:0001f3bc       ?fin$0@?0???$?RV<lambda_f2e299630e499de9f9a165e60fcd3db5>@@AEAV<lambda_2ae9d31cdba2644fcbeaf08da7c24588>@@V<lambda_40d01ff24d0e7b3814fdbdcee8eab3c7>@@@?$__crt_seh_guarded_call@X@@QEAAX$$QEAV<lambda_f2e299630e499de9f9a165e60fcd3db5>@@AEAV<lambda_2ae9d31cdba2644fcbeaf08da7c24588>@@$$QEAV<lambda_40d01ff24d0e7b3814fdbdcee8eab3c7>@@@Z@4HA 00000001800203bc f   libucrt:per_thread_data.obj
 0001:0001f3bc       ?fin$0@?0???$?RV<lambda_d80eeec6fff315bfe5c115232f3240e3>@@AEAV<lambda_6e4b09c48022b2350581041d5f6b0c4c>@@V<lambda_2358e3775559c9db80273638284d5e45>@@@?$__crt_seh_guarded_call@X@@QEAAX$$QEAV<lambda_d80eeec6fff315bfe5c115232f3240e3>@@AEAV<lambda_6e4b09c48022b2350581041d5f6b0c4c>@@$$QEAV<lambda_2358e3775559c9db80273638284d5e45>@@@Z@4HA 00000001800203bc f   libucrt:exit.obj
 0001:0001f3bc       ?fin$0@?0???$?RV<lambda_450d765d439847d4c735a33c368b5fc0>@@AEAV<lambda_44731a7d0e6d81c3e6aa82d741081786>@@V<lambda_601a2a7da3b7a96e9554ac7215c4b07c>@@@?$__crt_seh_guarded_call@P6AXH@Z@@QEAAP6AXH@Z$$QEAV<lambda_450d765d439847d4c735a33c368b5fc0>@@AEAV<lambda_44731a7d0e6d81c3e6aa82d741081786>@@$$QEAV<lambda_601a2a7da3b7a96e9554ac7215c4b07c>@@@Z@4HA 00000001800203bc f   libucrt:signal.obj
 0001:0001f3bc       ?fin$0@?0???$?RV<lambda_0ae27a3a962d80f24befdcbee591983d>@@AEAV<lambda_8d0ee55de4b1038c4002e0adecdf1839>@@V<lambda_dc504788e8f1664fe9b84e20bfb512f2>@@@?$__crt_seh_guarded_call@X@@QEAAX$$QEAV<lambda_0ae27a3a962d80f24befdcbee591983d>@@AEAV<lambda_8d0ee55de4b1038c4002e0adecdf1839>@@$$QEAV<lambda_dc504788e8f1664fe9b84e20bfb512f2>@@@Z@4HA 00000001800203bc f   libucrt:per_thread_data.obj
 0001:0001f3d6       ?filt$0@?0???R<lambda_6e4b09c48022b2350581041d5f6b0c4c>@@QEBA@XZ@4HA 00000001800203d6 f   libucrt:exit.obj
 0001:0001f3f1       _query_new_handler$fin$0   00000001800203f1 f   libucrt:new_handler.obj
 0001:0001f407       ?fin$0@?0???$?RV<lambda_410d79af7f07d98d83a3f525b3859a53>@@AEAV<lambda_3e16ef9562a7dcce91392c22ab16ea36>@@V<lambda_38119f0e861e05405d8a144b9b982f0a>@@@?$__crt_seh_guarded_call@X@@QEAAX$$QEAV<lambda_410d79af7f07d98d83a3f525b3859a53>@@AEAV<lambda_3e16ef9562a7dcce91392c22ab16ea36>@@$$QEAV<lambda_38119f0e861e05405d8a144b9b982f0a>@@@Z@4HA 0000000180020407 f   libucrt:wsetlocale.obj
 0001:0001f421       __acrt_lowio_ensure_fh_exists$fin$0 0000000180020421 f   libucrt:osfinfo.obj
 0001:0001f421       __acrt_initialize_lowio$fin$0 0000000180020421 f   libucrt:ioinit.obj
 0001:0001f43a       ?fin$0@?0??update_thread_multibyte_data_internal@@YAPEAU__crt_multibyte_data@@QEAU__acrt_ptd@@QEAU1@@Z@4HA 000000018002043a f   libucrt:mbctype.obj
 0001:0001f453       raise$fin$0                0000000180020453 f   libucrt:signal.obj
 0001:0001f477       __acrt_update_thread_locale_data$fin$0 0000000180020477 f   libucrt:locale_refcounting.obj
 0001:0001f490       _fcloseall$fin$0           0000000180020490 f   libucrt:closeall.obj
 0001:0001f4a9       ?fin$0@?0???$?RV<lambda_842d9ff0dc9ef11c61343bbaebe7f885>@@AEAV<lambda_c5860995281e5c4ce005b3de8f5874ee>@@V<lambda_d90129c13df834fdcbf8d2b88dafcf2d>@@@?$__crt_seh_guarded_call@X@@QEAAX$$QEAV<lambda_842d9ff0dc9ef11c61343bbaebe7f885>@@AEAV<lambda_c5860995281e5c4ce005b3de8f5874ee>@@$$QEAV<lambda_d90129c13df834fdcbf8d2b88dafcf2d>@@@Z@4HA 00000001800204a9 f   libucrt:fflush.obj
 0001:0001f4c4       ?fin$0@?0???$?RV<lambda_886d6c58226a84441f68b9f2b8217b83>@@AEAV<lambda_ab61a845afdef5b7c387490eaf3616ee>@@V<lambda_f7f22ab5edc0698d5f6905b0d3f44752>@@@?$__crt_seh_guarded_call@X@@QEAAX$$QEAV<lambda_886d6c58226a84441f68b9f2b8217b83>@@AEAV<lambda_ab61a845afdef5b7c387490eaf3616ee>@@$$QEAV<lambda_f7f22ab5edc0698d5f6905b0d3f44752>@@@Z@4HA 00000001800204c4 f   libucrt:fflush.obj
 0001:0001f4e1       _write$fin$0               00000001800204e1 f   libucrt:write.obj
 0001:0001f4f8       fclose$fin$0               00000001800204f8 f   libucrt:fclose.obj
 0001:0001f510       ?fin$0@?0???$?RV<lambda_a37b2b86f63e897a80ea819b0eb08c01>@@AEAV<lambda_38ce7e780aa69e748d6df282ebc68efe>@@V<lambda_99fb1378e971ab6e7edea83e3a7a83a2>@@@?$__crt_seh_guarded_call@H@@QEAAH$$QEAV<lambda_a37b2b86f63e897a80ea819b0eb08c01>@@AEAV<lambda_38ce7e780aa69e748d6df282ebc68efe>@@$$QEAV<lambda_99fb1378e971ab6e7edea83e3a7a83a2>@@@Z@4HA 0000000180020510 f   libucrt:commit.obj
 0001:0001f510       ?fin$0@?0???$?RV<lambda_751a882b2c74d4b022dec766aa51a29a>@@AEAV<lambda_628dfdc04ba53c8bfc02c9951375f3f5>@@V<lambda_f6c7be5f7998530c34de24c7437d6b54>@@@?$__crt_seh_guarded_call@H@@QEAAH$$QEAV<lambda_751a882b2c74d4b022dec766aa51a29a>@@AEAV<lambda_628dfdc04ba53c8bfc02c9951375f3f5>@@$$QEAV<lambda_f6c7be5f7998530c34de24c7437d6b54>@@@Z@4HA 0000000180020510 f   libucrt:close.obj
 0001:0001f52a       _ctrlfp$filt$0             000000018002052a f   libucrt:fpctrl.obj
 0001:0001f52a       common_control87$filt$0    000000018002052a f   libucrt:ieee.obj
 0001:0001f560       _IsNonwritableInCurrentImage$filt$0 0000000180020560 f   LIBCMT:pesect.obj
 0001:0001f580       ??__F_AtlComModule@ATL@@YAXXZ 0000000180020580 f   OposVariant.obj
 0001:0001f58c       ??__F_AtlWinModule@ATL@@YAXXZ 000000018002058c f   OposVariant.obj
 0001:0001f5d0       ??__F_Module@@YAXXZ        00000001800205d0 f   Keylock.obj
 0001:0001f634       ??__F_AtlBaseModule@ATL@@YAXXZ 0000000180020634 f   atls:atlbase.obj
 0002:00000630       ?_AtlBaseModule$initializer$@ATL@@3P6AXXZEA 0000000180021630     atls:atlbase.obj
 0002:00000638       ?_AtlComModule$initializer$@ATL@@3P6AXXZEA 0000000180021638     OposVariant.obj
 0002:00000640       ?_AtlWinModule$initializer$@ATL@@3P6AXXZEA 0000000180021640     OposVariant.obj
 0002:00000648       ?_Module$initializer$@@3P6AXXZEA 0000000180021648     Keylock.obj
 0002:00000650       ??pConnMap$initializer$@?$IConnectionPointContainerImpl@VCOPOSKeylock@@@ATL@@0P6AXXZEA@@3P6AXXZEA 0000000180021650     Keylock.obj
 0002:00000668       ?__scrt_initialize_tss_var@@3P6AHXZEA 0000000180021668     LIBCMT:thread_safe_statics.obj
 0002:00000d60       ?map@?1??HKeyFromString@CRegParser@ATL@@KAPEAUHKEY__@@PEA_W@Z@4QBUkeymap@?1??123@KAPEAU4@0@Z@B 0000000180021d60     Keylock.obj
 0002:000024c0       $cppxdata$?__scrt_initialize_thread_safe_statics@@YAHXZ 00000001800234c0     LIBCMT:thread_safe_statics.obj
 0002:000025b8       GS_ExceptionPointers       00000001800235b8     LIBCMT:gs_report.obj
 0002:000025c8       $cppxdata$??2@YAPEAX_KAEBUnothrow_t@std@@@Z 00000001800235c8     LIBCMT:new_scalar_nothrow.obj
 0002:000027a0       ?ExceptionTemplate@?1??UnwindNestedFrames@__FrameHandler3@@SAXPEA_KPEAUEHExceptionRecord@@PEAU_CONTEXT@@0PEAXPEBU_s_FuncInfo@@HHPEBU_s_HandlerType@@PEAU_xDISPATCHER_CONTEXT@@E@Z@4U_EXCEPTION_RECORD@@B 00000001800237a0     libvcruntime:risctrnsctrl.obj
 0002:00002840       ?ExceptionTemplate@?1??_CxxThrowException@@9@4UEHExceptionRecord@@B 0000000180023840     libvcruntime:throw.obj
 0002:00002880       ?module_names@?A0xcc2f1bd3@@3QBQEB_WB 0000000180023880     libvcruntime:winapi_downlevel.obj
 0002:00002950       ?candidate_modules@?1??try_get_FlsAlloc@@YAP6AKP6AXPEAX@Z@ZXZ@4QBW4module_id@?A0xcc2f1bd3@@B 0000000180023950     libvcruntime:winapi_downlevel.obj
 0002:00002968       ?candidate_modules@?1??try_get_FlsFree@@YAP6AHK@ZXZ@4QBW4module_id@?A0xcc2f1bd3@@B 0000000180023968     libvcruntime:winapi_downlevel.obj
 0002:00002978       ?candidate_modules@?1??try_get_FlsGetValue@@YAP6APEAXK@ZXZ@4QBW4module_id@?A0xcc2f1bd3@@B 0000000180023978     libvcruntime:winapi_downlevel.obj
 0002:00002990       ?candidate_modules@?1??try_get_FlsSetValue@@YAP6AHKPEAX@ZXZ@4QBW4module_id@?A0xcc2f1bd3@@B 0000000180023990     libvcruntime:winapi_downlevel.obj
 0002:000029a8       ?candidate_modules@?1??try_get_InitializeCriticalSectionEx@@YAP6AHPEAU_RTL_CRITICAL_SECTION@@KK@ZXZ@4QBW4module_id@?A0xcc2f1bd3@@B 00000001800239a8     libvcruntime:winapi_downlevel.obj
 0002:00002a00       ?tokenTable@@3QBQEBDB      0000000180023a00     libvcruntime:undname.obj
 0002:00002a80       ?nameTable@@3QBQEBDB       0000000180023a80     libvcruntime:undname.obj
 0002:00002d10       ?rttiTable@@3QBQEBDB       0000000180023d10     libvcruntime:undname.obj
 0002:000033d0       ?errtable@@3QBUerrentry@?A0x31fdb9ec@@B 00000001800243d0     libucrt:errno.obj
 0002:000036b0       __acrt_initializers        00000001800246b0     libucrt:initialization.obj
 0002:000037a0       ?module_names@?A0x391cf84c@@3QBQEB_WB 00000001800247a0     libucrt:winapi_thunks.obj
 0002:00003d08       ?candidate_modules@?1??try_get_FlsAlloc@@YAP6AKP6AXPEAX@Z@ZXZ@4QBW4module_id@?A0x391cf84c@@B 0000000180024d08     libucrt:winapi_thunks.obj
 0002:00003d20       ?candidate_modules@?1??try_get_FlsFree@@YAP6AHK@ZXZ@4QBW4module_id@?A0x391cf84c@@B 0000000180024d20     libucrt:winapi_thunks.obj
 0002:00003d30       ?candidate_modules@?1??try_get_FlsGetValue@@YAP6APEAXK@ZXZ@4QBW4module_id@?A0x391cf84c@@B 0000000180024d30     libucrt:winapi_thunks.obj
 0002:00003d48       ?candidate_modules@?1??try_get_FlsSetValue@@YAP6AHKPEAX@ZXZ@4QBW4module_id@?A0x391cf84c@@B 0000000180024d48     libucrt:winapi_thunks.obj
 0002:00003d60       ?candidate_modules@?1??try_get_InitializeCriticalSectionEx@@YAP6AHPEAU_RTL_CRITICAL_SECTION@@KK@ZXZ@4QBW4module_id@?A0x391cf84c@@B 0000000180024d60     libucrt:winapi_thunks.obj
 0002:00003d88       ?candidate_modules@?1??try_get_LCMapStringEx@@YAP6AHPEB_WK0HPEA_WHPEAU_nlsversioninfo@@PEAX_J@ZXZ@4QBW4module_id@?A0x391cf84c@@B 0000000180024d88     libucrt:winapi_thunks.obj
 0002:00003da0       ?candidate_modules@?1??try_get_LocaleNameToLCID@@YAP6AKPEB_WK@ZXZ@4QBW4module_id@?A0x391cf84c@@B 0000000180024da0     libucrt:winapi_thunks.obj
 0002:00003dbc       ?candidate_modules@?1??try_get_AppPolicyGetProcessTerminationMethod@@YAP6AJPEAXPEAW4AppPolicyProcessTerminationMethod@@@ZXZ@4QBW4module_id@?A0x391cf84c@@B 0000000180024dbc     libucrt:winapi_thunks.obj
 0002:00003de8       ?candidate_modules@?1??try_get_SetThreadStackGuarantee@@YAP6AHPEAK@ZXZ@4QBW4module_id@?A0x391cf84c@@B 0000000180024de8     libucrt:winapi_thunks.obj
 0002:000044e0       ?_mb_locale_names@@3QBQEB_WB 00000001800254e0     libucrt:mbctype.obj
 0002:00005520       ?LocaleNameToIndexTable@?A0x881e4c05@@3QBULocaleNameIndex@1@B 0000000180026520     libucrt:lcidtoname_downlevel.obj
 0002:00006dc0       ?LcidToLocaleNameTable@?A0x881e4c05@@3QBULcidToLocaleName@1@B 0000000180027dc0     libucrt:lcidtoname_downlevel.obj
 0002:00008a50       __real_ninf                0000000180029a50     libucrt:log10.obj
 0002:00008a60       __real_inf                 0000000180029a60     libucrt:log10.obj
 0002:00008a70       __real_neg_qnan            0000000180029a70     libucrt:log10.obj
 0002:00008a80       __real_qnanbit             0000000180029a80     libucrt:log10.obj
 0002:00008a90       __int_1023                 0000000180029a90     libucrt:log10.obj
 0002:00008aa0       __mask_001                 0000000180029aa0     libucrt:log10.obj
 0002:00008ab0       __mask_mant                0000000180029ab0     libucrt:log10.obj
 0002:00008ac0       __mask_mant_top8           0000000180029ac0     libucrt:log10.obj
 0002:00008ad0       __mask_mant9               0000000180029ad0     libucrt:log10.obj
 0002:00008ae0       __real_log10_e             0000000180029ae0     libucrt:log10.obj
 0002:00008af0       __real_log10_e_lead        0000000180029af0     libucrt:log10.obj
 0002:00008b00       __real_log10_e_tail        0000000180029b00     libucrt:log10.obj
 0002:00008b10       __real_log10_2_lead        0000000180029b10     libucrt:log10.obj
 0002:00008b20       __real_log10_2_tail        0000000180029b20     libucrt:log10.obj
 0002:00008b30       __real_two                 0000000180029b30     libucrt:log10.obj
 0002:00008b40       __real_one                 0000000180029b40     libucrt:log10.obj
 0002:00008b50       __real_half                0000000180029b50     libucrt:log10.obj
 0002:00008b60       __mask_100                 0000000180029b60     libucrt:log10.obj
 0002:00008b70       __real_1_over_512          0000000180029b70     libucrt:log10.obj
 0002:00008b80       __real_1_over_2            0000000180029b80     libucrt:log10.obj
 0002:00008b90       __real_1_over_3            0000000180029b90     libucrt:log10.obj
 0002:00008ba0       __real_1_over_4            0000000180029ba0     libucrt:log10.obj
 0002:00008bb0       __real_1_over_5            0000000180029bb0     libucrt:log10.obj
 0002:00008bc0       __real_1_over_6            0000000180029bc0     libucrt:log10.obj
 0002:00008bd0       __real_neg_1023            0000000180029bd0     libucrt:log10.obj
 0002:00008be0       __mask_2045                0000000180029be0     libucrt:log10.obj
 0002:00008bf0       __real_threshold           0000000180029bf0     libucrt:log10.obj
 0002:00008c00       __real_near_one_lt         0000000180029c00     libucrt:log10.obj
 0002:00008c10       __real_near_one_gt         0000000180029c10     libucrt:log10.obj
 0002:00008c20       __real_min_norm            0000000180029c20     libucrt:log10.obj
 0002:00008c30       __real_notsign             0000000180029c30     libucrt:log10.obj
 0002:00008c40       __real_ca1                 0000000180029c40     libucrt:log10.obj
 0002:00008c50       __real_ca2                 0000000180029c50     libucrt:log10.obj
 0002:00008c60       __real_ca3                 0000000180029c60     libucrt:log10.obj
 0002:00008c70       __real_ca4                 0000000180029c70     libucrt:log10.obj
 0002:00008c80       __mask_lower               0000000180029c80     libucrt:log10.obj
 0002:00008c90       __flag_x_zero              0000000180029c90     libucrt:log10.obj
 0002:00008c94       __flag_x_neg               0000000180029c94     libucrt:log10.obj
 0002:00008c98       __flag_x_nan               0000000180029c98     libucrt:log10.obj
 0002:0000a4e0       __real@433fffffffffffff    000000018002b4e0     libucrt:fpsr.obj
 0002:0000a4e8       __real@c33fffffffffffff    000000018002b4e8     libucrt:fpsr.obj
 0002:0000ad20       $unwind$?ProcessWindowMessage@?$CComControl@VCOPOSKeylock@@V?$CWindowImpl@VCOPOSKeylock@@VCWindow@ATL@@V?$CWinTraits@$0FGAAAAAA@$0A@@3@@ATL@@@ATL@@UEAAHPEAUHWND__@@I_K_JAEA_JK@Z 000000018002bd20     Keylock.obj
 0002:0000ad20       $unwind$_invalid_parameter_noinfo 000000018002bd20     libucrt:invalid_parameter.obj
 0002:0000ad20       $unwind$?cw_memcpy@@YAHPEA_WPEBDH@Z 000000018002bd20     CWString.obj
 0002:0000ad20       $unwind$_log10_special     000000018002bd20     libucrt:log_special.obj
 0002:0000ad28       $unwind$abort              000000018002bd28     libucrt:abort.obj
 0002:0000ad28       $unwind$__scrt_dllmain_crt_thread_detach 000000018002bd28     LIBCMT:utility.obj
 0002:0000ad28       $unwind$__scrt_dllmain_crt_thread_attach 000000018002bd28     LIBCMT:utility.obj
 0002:0000ad28       $unwind$__scrt_dllmain_uninitialize_critical 000000018002bd28     LIBCMT:utility.obj
 0002:0000ad28       $unwind$__scrt_dllmain_uninitialize_c 000000018002bd28     LIBCMT:utility.obj
 0002:0000ad28       $unwind$?initialize_multibyte@@YAHXZ 000000018002bd28     libucrt:multibyte_initializer.obj
 0002:0000ad28       $unwind$__scrt_dllmain_after_initialize_c 000000018002bd28     LIBCMT:utility.obj
 0002:0000ad28       $unwind$__acrt_update_thread_multibyte_data 000000018002bd28     libucrt:mbctype.obj
 0002:0000ad28       $unwind$__scrt_dllmain_before_initialize_c 000000018002bd28     LIBCMT:utility.obj
 0002:0000ad28       $unwind$??__E?pConnMap@?$IConnectionPointContainerImpl@VCOPOSKeylock@@@ATL@@0PEBU_ATL_CONNMAP_ENTRY@2@EB@@YAXXZ 000000018002bd28     Keylock.obj
 0002:0000ad28       $unwind$__acrt_initialize_multibyte 000000018002bd28     libucrt:mbctype.obj
 0002:0000ad28       $unwind$_errno             000000018002bd28     libucrt:errno.obj
 0002:0000ad28       $unwind$?AddReplacement@CRegObject@ATL@@UEAAJPEB_W0@Z 000000018002bd28     Keylock.obj
 0002:0000ad28       $unwind$__doserrno         000000018002bd28     libucrt:errno.obj
 0002:0000ad28       $unwind$__scrt_acquire_startup_lock 000000018002bd28     LIBCMT:utility.obj
 0002:0000ad28       $unwind$atexit             000000018002bd28     LIBCMT:utility.obj
 0002:0000ad28       $unwind$?CreateInstance@CComClassFactory@ATL@@UEAAJPEAUIUnknown@@AEBU_GUID@@PEAPEAX@Z 000000018002bd28     Keylock.obj
 0002:0000ad28       $unwind$__acrt_initialize_ptd 000000018002bd28     libucrt:per_thread_data.obj
 0002:0000ad28       $unwind$?LockServer@CComClassFactory@ATL@@UEAAJH@Z 000000018002bd28     Keylock.obj
 0002:0000ad28       $unwind$__acrt_uninitialize_ptd 000000018002bd28     libucrt:per_thread_data.obj
 0002:0000ad28       $unwind$?state_case_size@?$output_processor@_WV?$string_output_adapter@_W@__crt_stdio_output@@V?$format_validation_base@_WV?$string_output_adapter@_W@__crt_stdio_output@@@2@@__crt_stdio_output@@AEAA_NXZ 000000018002bd28     libucrt:output.obj
 0002:0000ad28       $unwind$?DefaultReflectionHandler@?$CWindowImplRoot@VCWindow@ATL@@@ATL@@SAHPEAUHWND__@@I_K_JAEA_J@Z 000000018002bd28     Keylock.obj
 0002:0000ad28       $unwind$_get_osfhandle     000000018002bd28     libucrt:osfinfo.obj
 0002:0000ad28       $unwind$_isatty            000000018002bd28     libucrt:isatty.obj
 0002:0000ad28       $unwind$uninitialize_allocated_memory 000000018002bd28     libucrt:initialization.obj
 0002:0000ad28       $unwind$?FireViewChange@CComControlBase@ATL@@QEAAJXZ 000000018002bd28     Keylock.obj
 0002:0000ad28       $unwind$uninitialize_environment 000000018002bd28     libucrt:initialization.obj
 0002:0000ad28       $unwind$??__F_Module@@YAXXZ 000000018002bd28     Keylock.obj
 0002:0000ad28       $unwind$__dcrt_uninitialize_environments_nolock 000000018002bd28     libucrt:environment_initialization.obj
 0002:0000ad28       $unwind$initialize_c       000000018002bd28     libucrt:initialization.obj
 0002:0000ad28       $unwind$?Unadvise@?$IOleObjectImpl@VCOPOSKeylock@@@ATL@@UEAAJK@Z 000000018002bd28     Keylock.obj
 0002:0000ad28       $unwind$_invoke_watson     000000018002bd28     libucrt:invalid_parameter.obj
 0002:0000ad28       $unwind$__acrt_thread_detach 000000018002bd28     libucrt:initialization.obj
 0002:0000ad28       $unwind$?FinalConstruct@COPOSKeylock@@QEAAJXZ 000000018002bd28     KeylockImpl.obj
 0002:0000ad28       $unwind$??$uninitialize_environment_internal@D@@YAXAEAPEAPEAD@Z 000000018002bd28     libucrt:environment_initialization.obj
 0002:0000ad28       $unwind$?EnumAdvise@?$IOleObjectImpl@VCOPOSKeylock@@@ATL@@UEAAJPEAPEAUIEnumSTATDATA@@@Z 000000018002bd28     Keylock.obj
 0002:0000ad28       $unwind$__acrt_thread_attach 000000018002bd28     libucrt:initialization.obj
 0002:0000ad28       $unwind$?OnDocWindowActivate@?$IOleInPlaceActiveObjectImpl@VCOPOSKeylock@@@ATL@@UEAAJH@Z 000000018002bd28     Keylock.obj
 0002:0000ad28       $unwind$__acrt_initialize_command_line 000000018002bd28     libucrt:argv_data.obj
 0002:0000ad28       $unwind$__acrt_uninitialize_critical 000000018002bd28     libucrt:initialization.obj
 0002:0000ad28       $unwind$_Init_thread_notify 000000018002bd28     LIBCMT:thread_safe_statics.obj
 0002:0000ad28       $unwind$?__scrt_uninitialize_thread_safe_statics@@YAXXZ 000000018002bd28     LIBCMT:thread_safe_statics.obj
 0002:0000ad28       $unwind$__report_rangecheckfailure 000000018002bd28     LIBCMT:gs_report.obj
 0002:0000ad28       $unwind$_fileno            000000018002bd28     libucrt:fileno.obj
 0002:0000ad28       $unwind$__GSHandlerCheck   000000018002bd28     LIBCMT:_gshandler_.obj
 0002:0000ad28       $unwind$?GetCurrentState@__FrameHandler3@@SAHPEA_KPEAU_xDISPATCHER_CONTEXT@@PEBU_s_FuncInfo@@@Z 000000018002bd28     libvcruntime:ehstate.obj
 0002:0000ad28       $unwind$_getfpcontrolword  000000018002bd28     libucrt:_fenvutils.obj
 0002:0000ad28       $unwind$_getfpstatusword   000000018002bd28     libucrt:_fenvutils.obj
 0002:0000ad28       $unwind$?dllmain_crt_dispatch@@YAHQEAUHINSTANCE__@@KQEAX@Z 000000018002bd28     LIBCMT:dll_dllmain.obj
 0002:0000ad28       $unwind$__scrt_initialize_default_local_stdio_options 000000018002bd28     LIBCMT:default_local_stdio_options.obj
 0002:0000ad28       $unwind$__vcrt_freefls     000000018002bd28     libvcruntime:per_thread_data.obj
 0002:0000ad28       $unwind$__acrt_DownlevelLocaleNameToLCID 000000018002bd28     libucrt:lcidtoname_downlevel.obj
 0002:0000ad28       $unwind$?AtlHresultFromLastError@ATL@@YAJXZ 000000018002bd28     Keylock.obj
 0002:0000ad28       $unwind$_msize_base        000000018002bd28     libucrt:msize.obj
 0002:0000ad28       $unwind$__vcrt_getptd      000000018002bd28     libvcruntime:per_thread_data.obj
 0002:0000ad28       $unwind$__vcrt_uninitialize_ptd 000000018002bd28     libvcruntime:per_thread_data.obj
 0002:0000ad28       $unwind$_purecall          000000018002bd28     libvcruntime:purevirt.obj
 0002:0000ad28       $unwind$?get_ResultCode@COPOSKeylock@@UEAAJPEAJ@Z 000000018002bd28     KeylockImpl.obj
 0002:0000ad28       $unwind$__vcrt_initialize_ptd 000000018002bd28     libvcruntime:per_thread_data.obj
 0002:0000ad28       $unwind$?AtlThrowImpl@ATL@@YAXJ@Z 000000018002bd28     Keylock.obj
 0002:0000ad28       $unwind$__acrt_initialize_heap 000000018002bd28     libucrt:heap_handle.obj
 0002:0000ad28       $unwind$??$uninitialize_environment_internal@_W@@YAXAEAPEAPEA_W@Z 000000018002bd28     libucrt:environment_initialization.obj
 0002:0000ad28       $unwind$_set_errno_from_matherr 000000018002bd28     libucrt:fpexcept.obj
 0002:0000ad28       $unwind$_GetThrowImageBase 000000018002bd28     libvcruntime:risctrnsctrl.obj
 0002:0000ad28       $unwind$?get_State@COPOSKeylock@@UEAAJPEAJ@Z 000000018002bd28     KeylockImpl.obj
 0002:0000ad28       $unwind$??1OposDispParms@@QEAA@XZ 000000018002bd28     OposVariant.obj
 0002:0000ad28       $unwind$??__E_AtlBaseModule@ATL@@YAXXZ 000000018002bd28     atls:atlbase.obj
 0002:0000ad28       $unwind$_GetImageBase      000000018002bd28     libvcruntime:risctrnsctrl.obj
 0002:0000ad28       $unwind$_statfp            000000018002bd28     libucrt:fpctrl.obj
 0002:0000ad28       $unwind$__dcrt_terminate_console_output 000000018002bd28     libucrt:initcon.obj
 0002:0000ad28       $unwind$__FrameUnwindFilter 000000018002bd28     libvcruntime:ehhelpers.obj
 0002:0000ad28       $unwind$__std_terminate    000000018002bd28     libvcruntime:ehhelpers.obj
 0002:0000ad28       $unwind$__vcrt_thread_detach 000000018002bd28     libvcruntime:initialization.obj
 0002:0000ad28       $unwind$__vcrt_thread_attach 000000018002bd28     libvcruntime:initialization.obj
 0002:0000ad28       $unwind$?GetLONG@OposVariant@@QEAAJXZ 000000018002bd28     OposVariant.obj
 0002:0000ad28       $unwind$__vcrt_uninitialize_critical 000000018002bd28     libvcruntime:initialization.obj
 0002:0000ad28       $unwind$??__F_AtlWinModule@ATL@@YAXXZ 000000018002bd28     OposVariant.obj
 0002:0000ad28       $unwind$??__E_AtlWinModule@ATL@@YAXXZ 000000018002bd28     OposVariant.obj
 0002:0000ad28       $unwind$__vcrt_uninitialize 000000018002bd28     libvcruntime:initialization.obj
 0002:0000ad28       $unwind$tolower            000000018002bd28     libucrt:tolower_toupper.obj
 0002:0000ad28       $unwind$??__E_AtlComModule@ATL@@YAXXZ 000000018002bd28     OposVariant.obj
 0002:0000ad28       $unwind$__vcrt_initialize  000000018002bd28     libvcruntime:initialization.obj
 0002:0000ad28       $unwind$?cw_strcpy@@YAHPEA_WPEBD@Z 000000018002bd28     CWString.obj
 0002:0000ad28       $unwind$?GetAdvise@?$IViewObjectExImpl@VCOPOSKeylock@@@ATL@@UEAAJPEAK0PEAPEAUIAdviseSink@@@Z 000000018002bd28     Keylock.obj
 0002:0000ad28       $unwind$__acrt_release_locale_ref 000000018002bd28     libucrt:locale_refcounting.obj
 0002:0000ad28       $unwind$__pctype_func      000000018002bd28     libucrt:ctype.obj
 0002:0000ad28       $unwind$?_LocCPQueryInterface@?$IConnectionPointImpl@VCOPOSKeylock@@$1?IID_IPropertyNotifySink@@3U_GUID@@BVCComDynamicUnkArray@ATL@@@ATL@@UEAAJAEBU_GUID@@PEAPEAX@Z 000000018002bd28     Keylock.obj
 0002:0000ad28       $unwind$?_LocCPQueryInterface@?$IConnectionPointImpl@VCOPOSKeylock@@$1?DIID__IOPOSKeylockEvents@@3U_GUID@@BVCComDynamicUnkArray@ATL@@@ATL@@UEAAJAEBU_GUID@@PEAPEAX@Z 000000018002bd28     Keylock.obj
 0002:0000ad30       $unwind$?CreateInstance@?$CComCreator@V?$CComAggObject@VCOPOSKeylock@@@ATL@@@ATL@@SAJPEAXAEBU_GUID@@PEAPEAX@Z 000000018002bd30     Keylock.obj
 0002:0000ad30       $unwind$?cw_dup@@YAXPEBDAEAHAEAPEA_W1@Z 000000018002bd30     CWString.obj
 0002:0000ad30       $unwind$?process@?$output_processor@_WV?$string_output_adapter@_W@__crt_stdio_output@@V?$format_validation_base@_WV?$string_output_adapter@_W@__crt_stdio_output@@@2@@__crt_stdio_output@@QEAAHXZ 000000018002bd30     libucrt:output.obj
 0002:0000ad30       $unwind$??$TypeMatchHelper@$$CBU_s_HandlerType@@@@YAHPEBU_s_HandlerType@@PEBU_s_CatchableType@@PEBU_s_ThrowInfo@@@Z 000000018002bd30     libvcruntime:frame.obj
 0002:0000ad30       $unwind$__GSHandlerCheck_SEH 000000018002bd30     LIBCMT:_gshandlerseh_.obj
 0002:0000ad30       $unwind$??_Estringdispid@CComTypeInfoHolder@ATL@@QEAAPEAXI@Z 000000018002bd30     OposVariant.obj
 0002:0000ad30       $unwind$?GetPagesHelper@?$ISpecifyPropertyPagesImpl@VCOPOSKeylock@@@ATL@@IEAAJPEAUtagCAUUID@@PEBUATL_PROPMAP_ENTRY@2@@Z 000000018002bd30     Keylock.obj
 0002:0000ad30       $unwind$?AtlModuleAddTermFunc@ATL@@YAJPEAU_ATL_MODULE70@1@P6AX_K@Z1@Z 000000018002bd30     Keylock.obj
 0002:0000ad30       $unwind$?AtlComModuleUnregisterServer@ATL@@YAJPEAU_ATL_COM_MODULE70@1@HPEBU_GUID@@@Z 000000018002bd30     Keylock.obj
 0002:0000ad30       $unwind$__acrt_initialize_stdio 000000018002bd30     libucrt:_file.obj
 0002:0000ad30       $unwind$?AtlComModuleRegisterServer@ATL@@YAJPEAU_ATL_COM_MODULE70@1@HPEBU_GUID@@@Z 000000018002bd30     Keylock.obj
 0002:0000ad48       $unwind$__acrt_AppPolicyGetProcessTerminationMethodInternal 000000018002bd48     libucrt:winapi_thunks.obj
 0002:0000ad48       $unwind$?ExecutionInCatch@__FrameHandler3@@SA_NPEAU_xDISPATCHER_CONTEXT@@PEBU_s_FuncInfo@@@Z 000000018002bd48     libvcruntime:risctrnsctrl.obj
 0002:0000ad48       $unwind$_set_statfp        000000018002bd48     libucrt:fpctrl.obj
 0002:0000ad48       $unwind$_SetImageBase      000000018002bd48     libvcruntime:risctrnsctrl.obj
 0002:0000ad48       $unwind$_clrfp             000000018002bd48     libucrt:fpctrl.obj
 0002:0000ad48       $unwind$??1CAtlBaseModule@ATL@@QEAA@XZ 000000018002bd48     atls:atlbase.obj
 0002:0000ad48       $unwind$_SetThrowImageBase 000000018002bd48     libvcruntime:risctrnsctrl.obj
 0002:0000ad48       $unwind$_CreateFrameInfo   000000018002bd48     libvcruntime:risctrnsctrl.obj
 0002:0000ad48       $unwind$??_Gtype_info@@UEAAPEAXI@Z 000000018002bd48     LIBCMT:std_type_info_static.obj
 0002:0000ad48       $unwind$__std_type_info_destroy_list 000000018002bd48     libvcruntime:std_type_info.obj
 0002:0000ad48       $unwind$__acrt_FlsGetValue 000000018002bd48     libucrt:winapi_thunks.obj
 0002:0000ad48       $unwind$__std_exception_destroy 000000018002bd48     libvcruntime:std_exception.obj
 0002:0000ad48       $unwind$__acrt_FlsFree     000000018002bd48     libucrt:winapi_thunks.obj
 0002:0000ad48       $unwind$??0bad_array_new_length@std@@QEAA@AEBV01@@Z 000000018002bd48     LIBCMT:throw_bad_alloc.obj
 0002:0000ad48       $unwind$__acrt_FlsAlloc    000000018002bd48     libucrt:winapi_thunks.obj
 0002:0000ad48       $unwind$??0bad_alloc@std@@QEAA@AEBV01@@Z 000000018002bd48     LIBCMT:throw_bad_alloc.obj
 0002:0000ad48       $unwind$__acrt_uninitialize_winapi_thunks 000000018002bd48     libucrt:winapi_thunks.obj
 0002:0000ad48       $unwind$??0exception@std@@QEAA@AEBV01@@Z 000000018002bd48     LIBCMT:throw_bad_alloc.obj
 0002:0000ad48       $unwind$__acrt_update_locale_info 000000018002bd48     libucrt:locale_update.obj
 0002:0000ad48       $unwind$__vcrt_freeptd     000000018002bd48     libvcruntime:per_thread_data.obj
 0002:0000ad48       $unwind$__acrt_update_multibyte_info 000000018002bd48     libucrt:locale_update.obj
 0002:0000ad48       $unwind$?get_FreezeEvents@COPOSKeylock@@UEAAJPEAF@Z 000000018002bd48     KeylockImpl.obj
 0002:0000ad48       $unwind$__vcrt_initialize_locks 000000018002bd48     libvcruntime:locks.obj
 0002:0000ad48       $unwind$?get_DeviceEnabled@COPOSKeylock@@UEAAJPEAF@Z 000000018002bd48     KeylockImpl.obj
 0002:0000ad48       $unwind$?get_Claimed@COPOSKeylock@@UEAAJPEAF@Z 000000018002bd48     KeylockImpl.obj
 0002:0000ad48       $unwind$?SOProcessID@COPOSKeylock@@UEAAJPEAJ@Z 000000018002bd48     KeylockImpl.obj
 0002:0000ad48       $unwind$_malloc_base       000000018002bd48     libucrt:malloc_base.obj
 0002:0000ad48       $unwind$__vcrt_uninitialize_locks 000000018002bd48     libvcruntime:locks.obj
 0002:0000ad48       $unwind$_calloc_base       000000018002bd48     libucrt:calloc_base.obj
 0002:0000ad48       $unwind$??2@YAPEAX_K@Z     000000018002bd48     LIBCMT:new_scalar.obj
 0002:0000ad48       $unwind$__vcrt_FlsAlloc    000000018002bd48     libvcruntime:winapi_downlevel.obj
 0002:0000ad48       $unwind$__vcrt_FlsFree     000000018002bd48     libvcruntime:winapi_downlevel.obj
 0002:0000ad48       $unwind$?EventUninit@COPOSKeylock@@IEAAXXZ 000000018002bd48     KeylockImpl.obj
 0002:0000ad48       $unwind$__vcrt_FlsGetValue 000000018002bd48     libvcruntime:winapi_downlevel.obj
 0002:0000ad48       $unwind$_clearfp           000000018002bd48     libucrt:ieee.obj
 0002:0000ad48       $unwind$?StateFromIp@__FrameHandler3@@SAHPEBU_s_FuncInfo@@PEAU_xDISPATCHER_CONTEXT@@_K@Z 000000018002bd48     libvcruntime:ehstate.obj
 0002:0000ad48       $unwind$_setfpstatusword   000000018002bd48     libucrt:_fenvutils.obj
 0002:0000ad48       $unwind$?FreezeEvents@COPOSKeylock@@MEAAJH@Z 000000018002bd48     KeylockImpl.obj
 0002:0000ad48       $unwind$?GetUnwindTryBlock@__FrameHandler3@@SAHPEA_KPEAU_xDISPATCHER_CONTEXT@@PEBU_s_FuncInfo@@@Z 000000018002bd48     libvcruntime:ehstate.obj
 0002:0000ad48       $unwind$AtlThunk_AllocateData 000000018002bd48     atls:atlthunk.obj
 0002:0000ad48       $unwind$__acrt_SetThreadStackGuarantee 000000018002bd48     libucrt:winapi_thunks.obj
 0002:0000ad48       $unwind$_IsExceptionObjectToBeDestroyed 000000018002bd48     libvcruntime:ehhelpers.obj
 0002:0000ad48       $unwind$?get_CapUpdateFirmware@COPOSKeylock@@UEAAJPEAF@Z 000000018002bd48     KeylockImpl.obj
 0002:0000ad48       $unwind$?get_CapCompareFirmwareVersion@COPOSKeylock@@UEAAJPEAF@Z 000000018002bd48     KeylockImpl.obj
 0002:0000ad48       $unwind$?DupWide@_CW@@AEAAXXZ 000000018002bd48     CWString.obj
 0002:0000ad48       $unwind$??0bad_exception@std@@QEAA@AEBV01@@Z 000000018002bd48     libvcruntime:frame.obj
 0002:0000ad48       $unwind$?ExFilterRethrow@@YAHPEAU_EXCEPTION_POINTERS@@PEAUEHExceptionRecord@@PEAH@Z 000000018002bd48     libvcruntime:frame.obj
 0002:0000ad48       $unwind$??1COPOSKeylock@@UEAA@XZ 000000018002bd48     KeylockImpl.obj
 0002:0000ad48       $unwind$__raise_securityfailure 000000018002bd48     LIBCMT:gs_report.obj
 0002:0000ad48       $unwind$?get_CapStatisticsReporting@COPOSKeylock@@UEAAJPEAF@Z 000000018002bd48     KeylockImpl.obj
 0002:0000ad48       $unwind$_Init_thread_wait  000000018002bd48     LIBCMT:thread_safe_statics.obj
 0002:0000ad48       $unwind$_Init_thread_footer 000000018002bd48     LIBCMT:thread_safe_statics.obj
 0002:0000ad48       $unwind$_Init_thread_header 000000018002bd48     LIBCMT:thread_safe_statics.obj
 0002:0000ad48       $unwind$??1CComControlBase@ATL@@UEAA@XZ 000000018002bd48     KeylockImpl.obj
 0002:0000ad48       $unwind$__acrt_freeptd     000000018002bd48     libucrt:per_thread_data.obj
 0002:0000ad48       $unwind$feholdexcept       000000018002bd48     libucrt:feholdexcept.obj
 0002:0000ad48       $unwind$fesetenv           000000018002bd48     libucrt:fesetenv.obj
 0002:0000ad48       $unwind$fegetenv           000000018002bd48     libucrt:fegetenv.obj
 0002:0000ad48       $unwind$__acrt_getptd_head 000000018002bd48     libucrt:per_thread_data.obj
 0002:0000ad48       $unwind$__scrt_uninitialize_crt 000000018002bd48     LIBCMT:utility.obj
 0002:0000ad48       $unwind$__scrt_initialize_crt 000000018002bd48     LIBCMT:utility.obj
 0002:0000ad48       $unwind$__scrt_release_startup_lock 000000018002bd48     LIBCMT:utility.obj
 0002:0000ad48       $unwind$wcscat_s           000000018002bd48     libucrt:wcscat_s.obj
 0002:0000ad48       $unwind$wcscpy_s           000000018002bd48     libucrt:wcscpy_s.obj
 0002:0000ad48       $unwind$_onexit            000000018002bd48     LIBCMT:utility.obj
 0002:0000ad48       $unwind$__acrt_initialize_locks 000000018002bd48     libucrt:locks.obj
 0002:0000ad48       $unwind$?AllocateHeap@?$CTempBuffer@_W$0EAA@VCCRTAllocator@ATL@@@ATL@@AEAAX_K@Z 000000018002bd48     Keylock.obj
 0002:0000ad48       $unwind$__acrt_uninitialize_locks 000000018002bd48     libucrt:locks.obj
 0002:0000ad48       $unwind$?AllocateHeap@?$CTempBuffer@_W$0BAA@VCCRTAllocator@ATL@@@ATL@@AEAAX_K@Z 000000018002bd48     Keylock.obj
 0002:0000ad48       $unwind$?AllocateHeap@?$CTempBuffer@E$0BAA@VCCRTAllocator@ATL@@@ATL@@AEAAX_K@Z 000000018002bd48     Keylock.obj
 0002:0000ad48       $unwind$?IsEqualObject@?$CComPtrBase@UITypeInfo@@@ATL@@QEAA_NPEAUIUnknown@@@Z 000000018002bd48     Keylock.obj
 0002:0000ad48       $unwind$__acrt_get_process_end_policy 000000018002bd48     libucrt:win_policies.obj
 0002:0000ad48       $unwind$?get_CapUpdateStatistics@COPOSKeylock@@UEAAJPEAF@Z 000000018002bd48     KeylockImpl.obj
 0002:0000ad48       $unwind$?put_FreezeEvents@COPOSKeylock@@UEAAJF@Z 000000018002bd48     KeylockImpl.obj
 0002:0000ad48       $unwind$??1?$CComObject@VCOPOSKeylock@@@ATL@@UEAA@XZ 000000018002bd48     Keylock.obj
 0002:0000ad48       $unwind$?IsEqualObject@?$CComPtrBase@UIOleClientSite@@@ATL@@QEAA_NPEAUIUnknown@@@Z 000000018002bd48     Keylock.obj
 0002:0000ad48       $unwind$??0?$CComObject@VCOPOSKeylock@@@ATL@@QEAA@PEAX@Z 000000018002bd48     Keylock.obj
 0002:0000ad48       $unwind$?type_case_integer@?$output_processor@_WV?$string_output_adapter@_W@__crt_stdio_output@@V?$format_validation_base@_WV?$string_output_adapter@_W@__crt_stdio_output@@@2@@__crt_stdio_output@@AEAA_NI_N@Z 000000018002bd48     libucrt:output.obj
 0002:0000ad48       $unwind$__acrt_stdio_free_buffer_nolock 000000018002bd48     libucrt:_freebuf.obj
 0002:0000ad48       $unwind$?try_cor_exit_process@@YAXI@Z 000000018002bd48     libucrt:exit.obj
 0002:0000ad48       $unwind$?QueryInterface@?$CComAggObject@VCOPOSKeylock@@@ATL@@UEAAJAEBU_GUID@@PEAPEAX@Z 000000018002bd48     Keylock.obj
 0002:0000ad48       $unwind$strcpy_s           000000018002bd48     libucrt:strcpy_s.obj
 0002:0000ad48       $unwind$?exit_or_terminate_process@@YAXI@Z 000000018002bd48     libucrt:exit.obj
 0002:0000ad48       $unwind$?IOleObject_SetExtent@CComControlBase@ATL@@QEAAJKPEAUtagSIZE@@@Z 000000018002bd48     Keylock.obj
 0002:0000ad48       $unwind$?Release@?$CComObjectCached@VCComClassFactory@ATL@@@ATL@@UEAAKXZ 000000018002bd48     Keylock.obj
 0002:0000ad48       $unwind$?AddRef@?$CComObjectCached@VCComClassFactory@ATL@@@ATL@@UEAAKXZ 000000018002bd48     Keylock.obj
 0002:0000ad48       $unwind$?IOleInPlaceObject_InPlaceDeactivate@CComControlBase@ATL@@QEAAJXZ 000000018002bd48     Keylock.obj
 0002:0000ad48       $unwind$_fflush_nolock     000000018002bd48     libucrt:fflush.obj
 0002:0000ad48       $unwind$?GetTypeInfo@?$IDispatchImpl@UIOPOSKeylock@@$1?IID_IOPOSKeylock@@3U_GUID@@B$1?LIBID_OposKeylock_CCO@@3U3@B$00$0A@VCComTypeInfoHolder@ATL@@@ATL@@UEAAJIKPEAPEAUITypeInfo@@@Z 000000018002bd48     Keylock.obj
 0002:0000ad48       $unwind$__acrt_allocate_buffer_for_argv 000000018002bd48     libucrt:argv_parsing.obj
 0002:0000ad48       $unwind$?Load@?$IPersistStreamInitImpl@VCOPOSKeylock@@@ATL@@UEAAJPEAUIStream@@@Z 000000018002bd48     Keylock.obj
 0002:0000ad48       $unwind$__acrt_fp_strflt_to_string 000000018002bd48     libucrt:_fptostr.obj
 0002:0000ad48       $unwind$_callnewh          000000018002bd48     libucrt:new_handler.obj
 0002:0000ad48       $unwind$?GetClientSite@?$IOleObjectImpl@VCOPOSKeylock@@@ATL@@UEAAJPEAPEAUIOleClientSite@@@Z 000000018002bd48     Keylock.obj
 0002:0000ad48       $unwind$?QueryHitPoint@?$IViewObjectExImpl@VCOPOSKeylock@@@ATL@@UEAAJKPEBUtagRECT@@UtagPOINT@@JPEAK@Z 000000018002bd48     Keylock.obj
 0002:0000ad48       $unwind$?IPSI_GetIPersistStreamInit@?$IPersistStorageImpl@VCOPOSKeylock@@@ATL@@AEAAPEAUIPersistStreamInit@@XZ 000000018002bd48     Keylock.obj
 0002:0000ad48       $unwind$__acrt_uninitialize_stdio 000000018002bd48     libucrt:_file.obj
 0002:0000ad48       $unwind$?GetClassInfoW@?$IProvideClassInfo2Impl@$1?CLSID_OPOSKeylock@@3U_GUID@@B$1?DIID__IOPOSKeylockEvents@@3U2@B$1?LIBID_OposKeylock_CCO@@3U2@B$00$0A@VCComTypeInfoHolder@ATL@@@ATL@@UEAAJPEAPEAUITypeInfo@@@Z 000000018002bd48     Keylock.obj
 0002:0000ad48       $unwind$?Unadvise@?$IConnectionPointImpl@VCOPOSKeylock@@$1?IID_IPropertyNotifySink@@3U_GUID@@BVCComDynamicUnkArray@ATL@@@ATL@@UEAAJK@Z 000000018002bd48     Keylock.obj
 0002:0000ad48       $unwind$?Unadvise@?$IConnectionPointImpl@VCOPOSKeylock@@$1?DIID__IOPOSKeylockEvents@@3U_GUID@@BVCComDynamicUnkArray@ATL@@@ATL@@UEAAJK@Z 000000018002bd48     Keylock.obj
 0002:0000ad48       $unwind$?AtlCreateTargetDC@ATL@@YAPEAUHDC__@@PEAU2@PEAUtagDVTARGETDEVICE@@@Z 000000018002bd48     Keylock.obj
 0002:0000ad48       $unwind$?GetConnMap@COPOSKeylock@@SAPEBU_ATL_CONNMAP_ENTRY@ATL@@PEAH@Z 000000018002bd48     Keylock.obj
 0002:0000ad48       $unwind$??__E_Module@@YAXXZ 000000018002bd48     Keylock.obj
 0002:0000ad48       $unwind$initialize_pointers 000000018002bd48     libucrt:initialization.obj
 0002:0000ad50       $unwind$?SetControlFocus@CComControlBase@ATL@@QEAAHH@Z 000000018002bd50     Keylock.obj
 0002:0000ad50       $unwind$__acrt_lowio_create_handle_array 000000018002bd50     libucrt:osfinfo.obj
 0002:0000ad50       $unwind$?CreateInstance@?$CComCreator@V?$CComObject@VCOPOSKeylock@@@ATL@@@ATL@@SAJPEAXAEBU_GUID@@PEAPEAX@Z 000000018002bd50     Keylock.obj
 0002:0000ad50       $unwind$?Add@CComDynamicUnkArray@ATL@@QEAAKPEAUIUnknown@@@Z 000000018002bd50     Keylock.obj
 0002:0000ad50       $unwind$?DoEvent@COPOSKeylock@@IEAAXI_K_J@Z 000000018002bd50     Keylock.obj
 0002:0000ad50       $unwind$??$ensure_buffer_is_big_enough@D@formatting_buffer@__crt_stdio_output@@QEAA_N_K@Z 000000018002bd50     libucrt:output.obj
 0002:0000ad50       $unwind$?SODirectIO@COPOSKeylock@@MEAAJJPEAJPEAPEA_W@Z 000000018002bd50     Keylock.obj
 0002:0000ad50       $unwind$?Next@?$CComEnumImpl@UIEnumConnections@@$1?_GUID_b196b287_bab4_101a_b69c_00aa00341d07@@3U__s_GUID@@BUtagCONNECTDATA@@V?$_Copy@UtagCONNECTDATA@@@ATL@@@ATL@@UEAAJKPEAUtagCONNECTDATA@@PEAK@Z 000000018002bd50     Keylock.obj
 0002:0000ad50       $unwind$?AtlWinModuleTerm@ATL@@YAJPEAU_ATL_WIN_MODULE70@1@PEAUHINSTANCE__@@@Z 000000018002bd50     OposVariant.obj
 0002:0000ad50       $unwind$_recalloc_base     000000018002bd50     libucrt:recalloc.obj
 0002:0000ad50       $unwind$__scrt_dllmain_exception_filter 000000018002bd50     LIBCMT:utility.obj
 0002:0000ad50       $unwind$?Append@CParseBuffer@CRegParser@ATL@@QEAAHPEB_WH@Z 000000018002bd50     Keylock.obj
 0002:0000ad50       $unwind$?setSBCS@@YAXPEAU__crt_multibyte_data@@@Z 000000018002bd50     libucrt:mbctype.obj
 0002:0000ad50       $unwind$?HKeyFromString@CRegParser@ATL@@KAPEAUHKEY__@@PEA_W@Z 000000018002bd50     Keylock.obj
 0002:0000ad50       $unwind$?DoVerb@?$IOleObjectImpl@VCOPOSKeylock@@@ATL@@UEAAJJPEAUtagMSG@@PEAUIOleClientSite@@JPEAUHWND__@@PEBUtagRECT@@@Z 000000018002bd50     Keylock.obj
 0002:0000ad50       $unwind$_seh_filter_exe    000000018002bd50     libucrt:exception_filter.obj
 0002:0000ad50       $unwind$?Is_bad_exception_allowed@@YAEPEBU_s_ESTypeList@@@Z 000000018002bd50     libvcruntime:frame.obj
 0002:0000ad50       $unwind$??$uninitialize@V<lambda_af42a3ee9806e9a7305d451646e05244>@@@?$dual_state_global@PEAU__crt_multibyte_data@@@__crt_state_management@@QEAAX$$QEAV<lambda_af42a3ee9806e9a7305d451646e05244>@@@Z 000000018002bd50     libucrt:initialization.obj
 0002:0000ad50       $unwind$__acrt_free_locale 000000018002bd50     libucrt:locale_refcounting.obj
 0002:0000ad50       $unwind$?s_EventWindowProc@COPOSKeylock@@KA_JPEAUHWND__@@I_K_J@Z 000000018002bd50     KeylockImpl.obj
 0002:0000ad50       $unwind$?GetHandlerSearchState@__FrameHandler3@@SAHPEA_KPEAU_xDISPATCHER_CONTEXT@@PEBU_s_FuncInfo@@@Z 000000018002bd50     libvcruntime:frame.obj
 0002:0000ad50       $unwind$?Next@?$CComEnumImpl@UIEnumConnectionPoints@@$1?_GUID_b196b285_bab4_101a_b69c_00aa00341d07@@3U__s_GUID@@BPEAUIConnectionPoint@@V?$_CopyInterface@UIConnectionPoint@@@ATL@@@ATL@@UEAAJKPEAPEAUIConnectionPoint@@PEAK@Z 000000018002bd50     Keylock.obj
 0002:0000ad50       $unwind$_initterm          000000018002bd50     libucrt:initterm.obj
 0002:0000ad50       $unwind$?AtlWinModuleExtractCreateWndData@ATL@@YAPEAXPEAU_ATL_WIN_MODULE70@1@@Z 000000018002bd50     Keylock.obj
 0002:0000ad64       $unwind$?SetUnwindTryBlock@__FrameHandler3@@SAXPEA_KPEAU_xDISPATCHER_CONTEXT@@PEBU_s_FuncInfo@@H@Z 000000018002bd64     libvcruntime:ehstate.obj
 0002:0000ad64       $unwind$AtlThunk_DataToCode 000000018002bd64     atls:atlthunk.obj
 0002:0000ad64       $unwind$_fclose_nolock     000000018002bd64     libucrt:fclose.obj
 0002:0000ad64       $unwind$??0CAtlModule@ATL@@QEAA@XZ 000000018002bd64     Keylock.obj
 0002:0000ad64       $unwind$?SetBSTR@OposVariant@@QEAAXPEA_WAEAJ@Z 000000018002bd64     OposVariant.obj
 0002:0000ad64       $unwind$?__InitializeThunkPool@@YAHXZ 000000018002bd64     atls:atlthunk.obj
 0002:0000ad64       $unwind$??1?$CComEnumImpl@UIEnumConnectionPoints@@$1?_GUID_b196b285_bab4_101a_b69c_00aa00341d07@@3U__s_GUID@@BPEAUIConnectionPoint@@V?$_CopyInterface@UIConnectionPoint@@@ATL@@@ATL@@UEAA@XZ 000000018002bd64     Keylock.obj
 0002:0000ad64       $unwind$_initterm_e        000000018002bd64     libucrt:initterm.obj
 0002:0000ad64       $unwind$__vcrt_FlsSetValue 000000018002bd64     libvcruntime:winapi_downlevel.obj
 0002:0000ad64       $unwind$?__AllocStdCallThunk_cmn@@YAPEAXXZ 000000018002bd64     atls:atlthunk.obj
 0002:0000ad64       $unwind$?SetLONG@OposVariant@@QEAAXJ@Z 000000018002bd64     OposVariant.obj
 0002:0000ad64       $unwind$??$GetProcAddressAll@P6AP6A_JPEAUHWND__@@I_K_J@ZPEAUAtlThunkData_t@@@Z@@YAP6AP6A_JPEAUHWND__@@I_K_J@ZPEAUAtlThunkData_t@@@ZPEAP6AP6A_J0I12@Z3@Z@Z 000000018002bd64     atls:atlthunk.obj
 0002:0000ad64       $unwind$?InitNew@?$IPersistStorageImpl@VCOPOSKeylock@@@ATL@@UEAAJPEAUIStorage@@@Z 000000018002bd64     Keylock.obj
 0002:0000ad64       $unwind$?IsDirty@?$IPersistStorageImpl@VCOPOSKeylock@@@ATL@@UEAAJXZ 000000018002bd64     Keylock.obj
 0002:0000ad64       $unwind$??$GetProcAddressAll@P6APEAUAtlThunkData_t@@XZ@@YAP6APEAUAtlThunkData_t@@XZPEAP6APEAU0@XZ@Z 000000018002bd64     atls:atlthunk.obj
 0002:0000ad64       $unwind$?WriteToStream@CComBSTR@ATL@@QEAAJPEAUIStream@@@Z 000000018002bd64     Keylock.obj
 0002:0000ad64       $unwind$??_Gbad_exception@std@@UEAAPEAXI@Z 000000018002bd64     libvcruntime:frame.obj
 0002:0000ad64       $unwind$??1?$IConnectionPointImpl@VCOPOSKeylock@@$1?DIID__IOPOSKeylockEvents@@3U_GUID@@BVCComDynamicUnkArray@ATL@@@ATL@@QEAA@XZ 000000018002bd64     KeylockImpl.obj
 0002:0000ad64       $unwind$??$GetProcAddressAll@P6AXPEAUAtlThunkData_t@@PEAX_K@Z@@YAP6AXPEAUAtlThunkData_t@@PEAX_K@ZPEAP6AX012@Z@Z 000000018002bd64     atls:atlthunk.obj
 0002:0000ad64       $unwind$_realloc_base      000000018002bd64     libucrt:realloc_base.obj
 0002:0000ad64       $unwind$__acrt_execute_uninitializers 000000018002bd64     libucrt:shared_initialization.obj
 0002:0000ad64       $unwind$?Term@CComModule@ATL@@QEAAXXZ 000000018002bd64     Keylock.obj
 0002:0000ad64       $unwind$?SetVARIANT_BOOL@OposVariant@@QEAAXF@Z 000000018002bd64     OposVariant.obj
 0002:0000ad64       $unwind$_updatetlocinfoEx_nolock 000000018002bd64     libucrt:locale_refcounting.obj
 0002:0000ad64       $unwind$?SetAdvise@?$IViewObjectExImpl@VCOPOSKeylock@@@ATL@@UEAAJKKPEAUIAdviseSink@@@Z 000000018002bd64     Keylock.obj
 0002:0000ad64       $unwind$??0CAtlWinModule@ATL@@QEAA@XZ 000000018002bd64     OposVariant.obj
 0002:0000ad64       $unwind$?replace_current_thread_locale_nolock@@YAXQEAU__acrt_ptd@@QEAU__crt_locale_data@@@Z 000000018002bd64     libucrt:per_thread_data.obj
 0002:0000ad64       $unwind$??1?$IConnectionPointImpl@VCOPOSKeylock@@$1?IID_IPropertyNotifySink@@3U_GUID@@BVCComDynamicUnkArray@ATL@@@ATL@@QEAA@XZ 000000018002bd64     KeylockImpl.obj
 0002:0000ad64       $unwind$__acrt_getptd_noexit 000000018002bd64     libucrt:per_thread_data.obj
 0002:0000ad64       $unwind$??$common_initialize_environment_nolock@D@@YAHXZ 000000018002bd64     libucrt:environment_initialization.obj
 0002:0000ad64       $unwind$__acrt_LocaleNameToLCID 000000018002bd64     libucrt:winapi_thunks.obj
 0002:0000ad64       $unwind$__acrt_uninitialize_lowio 000000018002bd64     libucrt:ioinit.obj
 0002:0000ad64       $unwind$_RTC_Initialize    000000018002bd64     LIBCMT:_initsect_.obj
 0002:0000ad64       $unwind$_RTC_Terminate     000000018002bd64     LIBCMT:_initsect_.obj
 0002:0000ad64       $unwind$??_Gexception@std@@UEAAPEAXI@Z 000000018002bd64     LIBCMT:throw_bad_alloc.obj
 0002:0000ad64       $unwind$??_Gbad_alloc@std@@UEAAPEAXI@Z 000000018002bd64     LIBCMT:throw_bad_alloc.obj
 0002:0000ad64       $unwind$__acrt_errno_map_os_error 000000018002bd64     libucrt:errno.obj
 0002:0000ad64       $unwind$?Release@?$CComObject@V?$CComEnum@UIEnumConnectionPoints@@$1?_GUID_b196b285_bab4_101a_b69c_00aa00341d07@@3U__s_GUID@@BPEAUIConnectionPoint@@V?$_CopyInterface@UIConnectionPoint@@@ATL@@VCComSingleThreadModel@6@@ATL@@@ATL@@UEAAKXZ 000000018002bd64     Keylock.obj
 0002:0000ad64       $unwind$??_G?$CComObject@V?$CComEnum@UIEnumConnections@@$1?_GUID_b196b287_bab4_101a_b69c_00aa00341d07@@3U__s_GUID@@BUtagCONNECTDATA@@V?$_Copy@UtagCONNECTDATA@@@ATL@@VCComSingleThreadModel@6@@ATL@@@ATL@@UEAAPEAXI@Z 000000018002bd64     Keylock.obj
 0002:0000ad64       $unwind$??_Gbad_array_new_length@std@@UEAAPEAXI@Z 000000018002bd64     LIBCMT:throw_bad_alloc.obj
 0002:0000ad64       $unwind$__acrt_getptd      000000018002bd64     libucrt:per_thread_data.obj
 0002:0000ad64       $unwind$strncpy_s          000000018002bd64     libucrt:strncpy_s.obj
 0002:0000ad64       $unwind$?CreateInstance@?$CComObject@V?$CComEnum@UIEnumConnections@@$1?_GUID_b196b287_bab4_101a_b69c_00aa00341d07@@3U__s_GUID@@BUtagCONNECTDATA@@V?$_Copy@UtagCONNECTDATA@@@ATL@@VCComSingleThreadModel@6@@ATL@@@ATL@@SAJPEAPEAV12@@Z 000000018002bd64     Keylock.obj
 0002:0000ad64       $unwind$??0CAtlComModule@ATL@@QEAA@XZ 000000018002bd64     OposVariant.obj
 0002:0000ad64       $unwind$?internal_isupper_l@@YA_NHQEAU__crt_locale_pointers@@@Z 000000018002bd64     libucrt:tolower_toupper.obj
 0002:0000ad64       $unwind$wcsncpy_s          000000018002bd64     libucrt:wcsncpy_s.obj
 0002:0000ad64       $unwind$?Release@?$CComObject@V?$CComEnum@UIEnumConnections@@$1?_GUID_b196b287_bab4_101a_b69c_00aa00341d07@@3U__s_GUID@@BUtagCONNECTDATA@@V?$_Copy@UtagCONNECTDATA@@@ATL@@VCComSingleThreadModel@6@@ATL@@@ATL@@UEAAKXZ 000000018002bd64     Keylock.obj
 0002:0000ad64       $unwind$??0_LocaleUpdate@@QEAA@QEAU__crt_locale_pointers@@@Z 000000018002bd64     libucrt:output.obj
 0002:0000ad64       $unwind$?force_decimal_point@__crt_stdio_output@@YAXPEADQEAU__crt_locale_pointers@@@Z 000000018002bd64     libucrt:output.obj
 0002:0000ad64       $unwind$_close_nolock      000000018002bd64     libucrt:close.obj
 0002:0000ad64       $unwind$??1?$CComEnumImpl@UIEnumConnections@@$1?_GUID_b196b287_bab4_101a_b69c_00aa00341d07@@3U__s_GUID@@BUtagCONNECTDATA@@V?$_Copy@UtagCONNECTDATA@@@ATL@@@ATL@@UEAA@XZ 000000018002bd64     Keylock.obj
 0002:0000ad64       $unwind$?CreateInstance@?$CComObject@V?$CComEnum@UIEnumConnectionPoints@@$1?_GUID_b196b285_bab4_101a_b69c_00aa00341d07@@3U__s_GUID@@BPEAUIConnectionPoint@@V?$_CopyInterface@UIConnectionPoint@@@ATL@@VCComSingleThreadModel@6@@ATL@@@ATL@@SAJPEAPEAV12@@Z 000000018002bd64     Keylock.obj
 0002:0000ad64       $unwind$??_GCComClassFactory@ATL@@UEAAPEAXI@Z 000000018002bd64     Keylock.obj
 0002:0000ad64       $unwind$?SOStatusUpdate@COPOSKeylock@@MEAAJJ@Z 000000018002bd64     Keylock.obj
 0002:0000ad64       $unwind$??_G?$CComObject@VCOPOSKeylock@@@ATL@@UEAAPEAXI@Z 000000018002bd64     Keylock.obj
 0002:0000ad64       $unwind$__acrt_FlsSetValue 000000018002bd64     libucrt:winapi_thunks.obj
 0002:0000ad64       $unwind$??_G?$CComObject@V?$CComEnum@UIEnumConnectionPoints@@$1?_GUID_b196b285_bab4_101a_b69c_00aa00341d07@@3U__s_GUID@@BPEAUIConnectionPoint@@V?$_CopyInterface@UIConnectionPoint@@@ATL@@VCComSingleThreadModel@6@@ATL@@@ATL@@UEAAPEAXI@Z 000000018002bd64     Keylock.obj
 0002:0000ad64       $unwind$??_G?$CComObjectCached@VCComClassFactory@ATL@@@ATL@@UEAAPEAXI@Z 000000018002bd64     Keylock.obj
 0002:0000ad64       $unwind$?Release@?$CComAggObject@VCOPOSKeylock@@@ATL@@UEAAKXZ 000000018002bd64     Keylock.obj
 0002:0000ad64       $unwind$?Release@?$CComObject@VCOPOSKeylock@@@ATL@@UEAAKXZ 000000018002bd64     Keylock.obj
 0002:0000ad64       $unwind$??0?$CComContainedObject@VCOPOSKeylock@@@ATL@@QEAA@PEAX@Z 000000018002bd64     Keylock.obj
 0002:0000ad64       $unwind$?IOleObject_SetClientSite@CComControlBase@ATL@@QEAAJPEAUIOleClientSite@@@Z 000000018002bd64     Keylock.obj
 0002:0000ad64       $unwind$_FindAndUnlinkFrame 000000018002bd64     libvcruntime:risctrnsctrl.obj
 0002:0000ad64       $unwind$??_G?$CComAggObject@VCOPOSKeylock@@@ATL@@UEAAPEAXI@Z 000000018002bd64     Keylock.obj
 0002:0000ad64       $unwind$??$GetProcAddressAll@P6AXPEAUAtlThunkData_t@@@Z@@YAP6AXPEAUAtlThunkData_t@@@ZPEAP6AX0@Z@Z 000000018002bd64     atls:atlthunk.obj
 0002:0000ad64       $unwind$??_G?$CComContainedObject@VCOPOSKeylock@@@ATL@@UEAAPEAXI@Z 000000018002bd64     Keylock.obj
 0002:0000ad64       $unwind$DllMain            000000018002bd64     Keylock.obj
 0002:0000ad64       $unwind$??0CAtlBaseModule@ATL@@QEAA@XZ 000000018002bd64     atls:atlbase.obj
 0002:0000ad70       $unwind$?Add@?$CSimpleMap@PEA_WPEA_WVCExpansionVectorEqualHelper@ATL@@@ATL@@QEAAHAEBQEA_W0@Z 000000018002bd70     Keylock.obj
 0002:0000ad70       $unwind$__acrt_InitializeCriticalSectionEx 000000018002bd70     libucrt:winapi_thunks.obj
 0002:0000ad70       $unwind$??_GCComModule@ATL@@UEAAPEAXI@Z 000000018002bd70     Keylock.obj
 0002:0000ad70       $unwind$memcpy_s           000000018002bd70     Keylock.obj
 0002:0000ad70       $unwind$??0OposDispParms@@QEAA@PEAVOposVariant@@H@Z 000000018002bd70     OposVariant.obj
 0002:0000ad70       $unwind$?UnregisterServer@CComModule@ATL@@QEAAJHPEBU_GUID@@@Z 000000018002bd70     Keylock.obj
 0002:0000ad70       $unwind$?Advise@?$IOleObjectImpl@VCOPOSKeylock@@@ATL@@UEAAJPEAUIAdviseSink@@PEAK@Z 000000018002bd70     Keylock.obj
 0002:0000ad70       $unwind$?SetDispatch_Ptr@OposVariant@@QEAAXPEAUIDispatch@@AEAJ@Z 000000018002bd70     OposVariant.obj
 0002:0000ad70       $unwind$?RegisterServer@CComModule@ATL@@QEAAJHPEBU_GUID@@@Z 000000018002bd70     Keylock.obj
 0002:0000ad70       $unwind$?VTFromRegType@CRegParser@ATL@@KAHPEB_WAEAG@Z 000000018002bd70     Keylock.obj
 0002:0000ad70       $unwind$?type_case_n@?$output_processor@_WV?$string_output_adapter@_W@__crt_stdio_output@@V?$format_validation_base@_WV?$string_output_adapter@_W@__crt_stdio_output@@@2@@__crt_stdio_output@@AEAA_NXZ 000000018002bd70     libucrt:output.obj
 0002:0000ad70       $unwind$?free_crt_array_internal@@YAXQEAPEBX_K@Z 000000018002bd70     libucrt:inittime.obj
 0002:0000ad70       $unwind$memcpy_s           000000018002bd70     libucrt:cfout.obj
 0002:0000ad70       $unwind$??$common_lseek_nolock@_J@@YA_JH_JH@Z 000000018002bd70     libucrt:lseek.obj
 0002:0000ad70       $unwind$?SetString@OposVariant@@QEAAXPEB_WAEAJ@Z 000000018002bd70     OposVariant.obj
 0002:0000ad70       $unwind$__vcrt_getptd_noexit 000000018002bd70     libvcruntime:per_thread_data.obj
 0002:0000ad70       $unwind$?type_case_s@?$output_processor@_WV?$string_output_adapter@_W@__crt_stdio_output@@V?$format_validation_base@_WV?$string_output_adapter@_W@__crt_stdio_output@@@2@@__crt_stdio_output@@AEAA_NXZ 000000018002bd70     libucrt:output.obj
 0002:0000ad70       $unwind$?SetBSTR_InOutPtr@OposVariant@@QEAA_NPEAPEA_WAEAJ@Z 000000018002bd70     OposVariant.obj
 0002:0000ad70       $unwind$?type_case_Z@?$output_processor@_WV?$string_output_adapter@_W@__crt_stdio_output@@V?$format_validation_base@_WV?$string_output_adapter@_W@__crt_stdio_output@@@2@@__crt_stdio_output@@AEAA_NXZ 000000018002bd70     libucrt:output.obj
 0002:0000ad70       $unwind$__acrt_execute_initializers 000000018002bd70     libucrt:shared_initialization.obj
 0002:0000ad70       $unwind$?SetBSTR_Copy@OposVariant@@QEAAXPEA_WAEAJ@Z 000000018002bd70     OposVariant.obj
 0002:0000ad70       $unwind$?FrameUnwindToEmptyState@__FrameHandler3@@SAXPEA_KPEAU_xDISPATCHER_CONTEXT@@PEBU_s_FuncInfo@@@Z 000000018002bd70     libvcruntime:risctrnsctrl.obj
 0002:0000ad70       $unwind$?SetLONG_Ptr@OposVariant@@QEAAXPEAJAEAJ@Z 000000018002bd70     OposVariant.obj
 0002:0000ad70       $unwind$_DllMainCRTStartup 000000018002bd70     LIBCMT:dll_dllmain.obj
 0002:0000ad70       $unwind$?Term@CAtlComModule@ATL@@QEAAXXZ 000000018002bd70     OposVariant.obj
 0002:0000ad70       $unwind$?CatchTryBlock@__FrameHandler3@@SAPEBU_s_TryBlockMapEntry@@PEBU_s_FuncInfo@@H@Z 000000018002bd70     libvcruntime:risctrnsctrl.obj
 0002:0000ad70       $unwind$?AtlCallTermFunc@ATL@@YAXPEAU_ATL_MODULE70@1@@Z 000000018002bd70     Keylock.obj
 0002:0000ad70       $unwind$??_GCRegObject@ATL@@UEAAPEAXI@Z 000000018002bd70     Keylock.obj
 0002:0000ad70       $unwind$__acrt_stdio_flush_nolock 000000018002bd70     libucrt:fflush.obj
 0002:0000ad70       $unwind$?Add@?$CSimpleArray@GV?$CSimpleArrayEqualHelper@G@ATL@@@ATL@@QEAAHAEBG@Z 000000018002bd70     Keylock.obj
 0002:0000ad70       $unwind$__vcrt_InitializeCriticalSectionEx 000000018002bd70     libvcruntime:winapi_downlevel.obj
 0002:0000ad70       $unwind$?ClearReplacements@CExpansionVector@ATL@@QEAAJXZ 000000018002bd70     Keylock.obj
 0002:0000ad70       $unwind$_exception_enabled 000000018002bd70     libucrt:libm_error.obj
 0002:0000ad80       $unwind$?ChangeBSTR@OposVariant@@QEAAXPEAPEA_WAEAJ@Z 000000018002bd80     OposVariant.obj
 0002:0000ad80       $unwind$?ChangeLONG@OposVariant@@QEAAXPEAJAEAJ@Z 000000018002bd80     OposVariant.obj
 0002:0000ad80       $unwind$?x_ismbbtype_l@@YAHPEAU__crt_locale_pointers@@IHH@Z 000000018002bd80     libucrt:ismbbyte.obj
 0002:0000ad90       $unwind$swprintf_s         000000018002bd90     Keylock.obj
 0002:0000ada0       $unwind$?_AtlVerifyStackAvailable@_ATL_SAFE_ALLOCA_IMPL@ATL@@YA_N_K@Z 000000018002bda0     Keylock.obj
 0002:0000adcc       $unwind$?fin$0@?0???$?RV<lambda_d80eeec6fff315bfe5c115232f3240e3>@@AEAV<lambda_6e4b09c48022b2350581041d5f6b0c4c>@@V<lambda_2358e3775559c9db80273638284d5e45>@@@?$__crt_seh_guarded_call@X@@QEAAX$$QEAV<lambda_d80eeec6fff315bfe5c115232f3240e3>@@AEAV<lambda_6e4b09c48022b2350581041d5f6b0c4c>@@$$QEAV<lambda_2358e3775559c9db80273638284d5e45>@@@Z@4HA 000000018002bdcc     libucrt:exit.obj
 0002:0000adcc       $unwind$?fin$0@?0???$?RV<lambda_f2e299630e499de9f9a165e60fcd3db5>@@AEAV<lambda_2ae9d31cdba2644fcbeaf08da7c24588>@@V<lambda_40d01ff24d0e7b3814fdbdcee8eab3c7>@@@?$__crt_seh_guarded_call@X@@QEAAX$$QEAV<lambda_f2e299630e499de9f9a165e60fcd3db5>@@AEAV<lambda_2ae9d31cdba2644fcbeaf08da7c24588>@@$$QEAV<lambda_40d01ff24d0e7b3814fdbdcee8eab3c7>@@@Z@4HA 000000018002bdcc     libucrt:per_thread_data.obj
 0002:0000adcc       $unwind$?fin$0@?0???$?RV<lambda_7777bce6b2f8c936911f934f8298dc43>@@AEAV<lambda_f03950bc5685219e0bcd2087efbe011e>@@V<lambda_3883c3dff614d5e0c5f61bb1ac94921c>@@@?$__crt_seh_guarded_call@H@@QEAAH$$QEAV<lambda_7777bce6b2f8c936911f934f8298dc43>@@AEAV<lambda_f03950bc5685219e0bcd2087efbe011e>@@$$QEAV<lambda_3883c3dff614d5e0c5f61bb1ac94921c>@@@Z@4HA 000000018002bdcc     libucrt:onexit.obj
 0002:0000adcc       $unwind$?fin$0@?0???$?RV<lambda_450d765d439847d4c735a33c368b5fc0>@@AEAV<lambda_44731a7d0e6d81c3e6aa82d741081786>@@V<lambda_601a2a7da3b7a96e9554ac7215c4b07c>@@@?$__crt_seh_guarded_call@P6AXH@Z@@QEAAP6AXH@Z$$QEAV<lambda_450d765d439847d4c735a33c368b5fc0>@@AEAV<lambda_44731a7d0e6d81c3e6aa82d741081786>@@$$QEAV<lambda_601a2a7da3b7a96e9554ac7215c4b07c>@@@Z@4HA 000000018002bdcc     libucrt:signal.obj
 0002:0000adcc       $unwind$?fin$0@?0???$?RV<lambda_aa87e3671a710a21b5dc78c0bdf72e11>@@AEAV<lambda_92619d2358a28f41a33ba319515a20b9>@@V<lambda_6992ecaafeb10aed2b74cb1fae11a551>@@@?$__crt_seh_guarded_call@X@@QEAAX$$QEAV<lambda_aa87e3671a710a21b5dc78c0bdf72e11>@@AEAV<lambda_92619d2358a28f41a33ba319515a20b9>@@$$QEAV<lambda_6992ecaafeb10aed2b74cb1fae11a551>@@@Z@4HA 000000018002bdcc     libucrt:per_thread_data.obj
 0002:0000adcc       $unwind$__acrt_lowio_ensure_fh_exists$fin$0 000000018002bdcc     libucrt:osfinfo.obj
 0002:0000adcc       $unwind$?fin$0@?0???$?RV<lambda_a37b2b86f63e897a80ea819b0eb08c01>@@AEAV<lambda_38ce7e780aa69e748d6df282ebc68efe>@@V<lambda_99fb1378e971ab6e7edea83e3a7a83a2>@@@?$__crt_seh_guarded_call@H@@QEAAH$$QEAV<lambda_a37b2b86f63e897a80ea819b0eb08c01>@@AEAV<lambda_38ce7e780aa69e748d6df282ebc68efe>@@$$QEAV<lambda_99fb1378e971ab6e7edea83e3a7a83a2>@@@Z@4HA 000000018002bdcc     libucrt:commit.obj
 0002:0000adcc       $unwind$?fin$0@?0???$?RV<lambda_0ae27a3a962d80f24befdcbee591983d>@@AEAV<lambda_8d0ee55de4b1038c4002e0adecdf1839>@@V<lambda_dc504788e8f1664fe9b84e20bfb512f2>@@@?$__crt_seh_guarded_call@X@@QEAAX$$QEAV<lambda_0ae27a3a962d80f24befdcbee591983d>@@AEAV<lambda_8d0ee55de4b1038c4002e0adecdf1839>@@$$QEAV<lambda_dc504788e8f1664fe9b84e20bfb512f2>@@@Z@4HA 000000018002bdcc     libucrt:per_thread_data.obj
 0002:0000adcc       $unwind$raise$fin$0        000000018002bdcc     libucrt:signal.obj
 0002:0000adcc       $unwind$fclose$fin$0       000000018002bdcc     libucrt:fclose.obj
 0002:0000adcc       $unwind$_query_new_handler$fin$0 000000018002bdcc     libucrt:new_handler.obj
 0002:0000adcc       $unwind$_fcloseall$fin$0   000000018002bdcc     libucrt:closeall.obj
 0002:0000adcc       $unwind$?fin$0@?0??dllmain_crt_process_attach@@YAHQEAUHINSTANCE__@@QEAX@Z@4HA 000000018002bdcc     LIBCMT:dll_dllmain.obj
 0002:0000adcc       $unwind$?fin$0@?0???$?RV<lambda_2d41944a1d46af3157314b8a01080d33>@@AEAV<lambda_8f455de75cd7d7f24b4096f044d8b9e6>@@V<lambda_aa500f224e6afead328df44964fe2772>@@@?$__crt_seh_guarded_call@X@@QEAAX$$QEAV<lambda_2d41944a1d46af3157314b8a01080d33>@@AEAV<lambda_8f455de75cd7d7f24b4096f044d8b9e6>@@$$QEAV<lambda_aa500f224e6afead328df44964fe2772>@@@Z@4HA 000000018002bdcc     libucrt:per_thread_data.obj
 0002:0000adcc       $unwind$?filt$0@?0???R<lambda_6e4b09c48022b2350581041d5f6b0c4c>@@QEBA@XZ@4HA 000000018002bdcc     libucrt:exit.obj
 0002:0000adcc       $unwind$?fin$1@?0??FrameUnwindToState@__FrameHandler3@@SAXPEA_KPEAU_xDISPATCHER_CONTEXT@@PEBU_s_FuncInfo@@H@Z@4HA 000000018002bdcc     libvcruntime:frame.obj
 0002:0000adcc       $unwind$?fin$0@?0???$?RV<lambda_842d9ff0dc9ef11c61343bbaebe7f885>@@AEAV<lambda_c5860995281e5c4ce005b3de8f5874ee>@@V<lambda_d90129c13df834fdcbf8d2b88dafcf2d>@@@?$__crt_seh_guarded_call@X@@QEAAX$$QEAV<lambda_842d9ff0dc9ef11c61343bbaebe7f885>@@AEAV<lambda_c5860995281e5c4ce005b3de8f5874ee>@@$$QEAV<lambda_d90129c13df834fdcbf8d2b88dafcf2d>@@@Z@4HA 000000018002bdcc     libucrt:fflush.obj
 0002:0000adcc       $unwind$?filt$0@?0??CxxCallCatchBlock@__FrameHandler3@@SAPEAXPEAU_EXCEPTION_RECORD@@@Z@4HA 000000018002bdcc     libvcruntime:frame.obj
 0002:0000adcc       $unwind$?fin$0@?0???$?RV<lambda_886d6c58226a84441f68b9f2b8217b83>@@AEAV<lambda_ab61a845afdef5b7c387490eaf3616ee>@@V<lambda_f7f22ab5edc0698d5f6905b0d3f44752>@@@?$__crt_seh_guarded_call@X@@QEAAX$$QEAV<lambda_886d6c58226a84441f68b9f2b8217b83>@@AEAV<lambda_ab61a845afdef5b7c387490eaf3616ee>@@$$QEAV<lambda_f7f22ab5edc0698d5f6905b0d3f44752>@@@Z@4HA 000000018002bdcc     libucrt:fflush.obj
 0002:0000adcc       $unwind$_ctrlfp$filt$0     000000018002bdcc     libucrt:fpctrl.obj
 0002:0000adcc       $unwind$?filt$0@?0??_AtlVerifyStackAvailable@_ATL_SAFE_ALLOCA_IMPL@ATL@@YA_N_K@Z@4HA 000000018002bdcc     Keylock.obj
 0002:0000adcc       $unwind$_IsNonwritableInCurrentImage$filt$0 000000018002bdcc     LIBCMT:pesect.obj
 0002:0000adcc       $unwind$__DestructExceptionObject$filt$0 000000018002bdcc     libvcruntime:ehhelpers.obj
 0002:0000adcc       $unwind$?fin$0@?0???$?RV<lambda_638799b9deba96c50f710eeac98168cd>@@AEAV<lambda_22ebabd17bc4fa466a2aca6d8deb888d>@@V<lambda_a6f7d7db0129f75315ebf26d50c089f1>@@@?$__crt_seh_guarded_call@H@@QEAAH$$QEAV<lambda_638799b9deba96c50f710eeac98168cd>@@AEAV<lambda_22ebabd17bc4fa466a2aca6d8deb888d>@@$$QEAV<lambda_a6f7d7db0129f75315ebf26d50c089f1>@@@Z@4HA 000000018002bdcc     libucrt:onexit.obj
 0002:0000adcc       $unwind$?fin$0@?0???$?RV<lambda_410d79af7f07d98d83a3f525b3859a53>@@AEAV<lambda_3e16ef9562a7dcce91392c22ab16ea36>@@V<lambda_38119f0e861e05405d8a144b9b982f0a>@@@?$__crt_seh_guarded_call@X@@QEAAX$$QEAV<lambda_410d79af7f07d98d83a3f525b3859a53>@@AEAV<lambda_3e16ef9562a7dcce91392c22ab16ea36>@@$$QEAV<lambda_38119f0e861e05405d8a144b9b982f0a>@@@Z@4HA 000000018002bdcc     libucrt:wsetlocale.obj
 0002:0000adcc       $unwind$?fin$0@?0??dllmain_crt_process_detach@@YAH_N@Z@4HA 000000018002bdcc     LIBCMT:dll_dllmain.obj
 0002:0000adcc       $unwind$__acrt_update_thread_locale_data$fin$0 000000018002bdcc     libucrt:locale_refcounting.obj
 0002:0000adcc       $unwind$?fin$0@?0??update_thread_multibyte_data_internal@@YAPEAU__crt_multibyte_data@@QEAU__acrt_ptd@@QEAU1@@Z@4HA 000000018002bdcc     libucrt:mbctype.obj
 0002:0000adcc       $unwind$?filt$0@?0??FrameUnwindToState@__FrameHandler3@@SAXPEA_KPEAU_xDISPATCHER_CONTEXT@@PEBU_s_FuncInfo@@H@Z@4HA 000000018002bdcc     libvcruntime:frame.obj
 0002:0000adcc       $unwind$__acrt_initialize_lowio$fin$0 000000018002bdcc     libucrt:ioinit.obj
 0002:0000adcc       $unwind$?fin$0@?0???$?RV<lambda_efdfa57d1f175319df784efa44bb7b81>@@AEAV<lambda_5f0a4c1567f8adc6734073e5d1e1b35c>@@V<lambda_2e8a7d3640ea6ccb4c2413664c2db6fd>@@@?$__crt_seh_guarded_call@X@@QEAAX$$QEAV<lambda_efdfa57d1f175319df784efa44bb7b81>@@AEAV<lambda_5f0a4c1567f8adc6734073e5d1e1b35c>@@$$QEAV<lambda_2e8a7d3640ea6ccb4c2413664c2db6fd>@@@Z@4HA 000000018002bdcc     libucrt:mbctype.obj
 0002:0000adcc       $unwind$?fin$0@?0???$?RV<lambda_751a882b2c74d4b022dec766aa51a29a>@@AEAV<lambda_628dfdc04ba53c8bfc02c9951375f3f5>@@V<lambda_f6c7be5f7998530c34de24c7437d6b54>@@@?$__crt_seh_guarded_call@H@@QEAAH$$QEAV<lambda_751a882b2c74d4b022dec766aa51a29a>@@AEAV<lambda_628dfdc04ba53c8bfc02c9951375f3f5>@@$$QEAV<lambda_f6c7be5f7998530c34de24c7437d6b54>@@@Z@4HA 000000018002bdcc     libucrt:close.obj
 0002:0000adcc       $unwind$common_control87$filt$0 000000018002bdcc     libucrt:ieee.obj
 0002:0000adcc       $unwind$_write$fin$0       000000018002bdcc     libucrt:write.obj
 0002:0000add4       $unwind$?AtlInternalOleLoadFromStream@ATL@@YAJPEAUIStream@@AEBU_GUID@@PEAPEAXTClassesAllowedInStream@1@K@Z 000000018002bdd4     Keylock.obj
 0002:0000adf0       $unwind$?PutProperty@?$CComPtr@UIDispatch@@@ATL@@SAJPEAUIDispatch@@JPEAUtagVARIANT@@@Z 000000018002bdf0     Keylock.obj
 0002:0000adf0       $unwind$?Close@COPOSKeylock@@UEAAJPEAJ@Z 000000018002bdf0     KeylockImpl.obj
 0002:0000adfc       $unwind$?ReadFromStream@CComBSTR@ATL@@QEAAJPEAUIStream@@@Z 000000018002bdfc     Keylock.obj
 0002:0000adfc       $unwind$_configure_narrow_argv 000000018002bdfc     libucrt:argv_parsing.obj
 0002:0000ae10       $unwind$?WriteToStream@CComVariant@ATL@@QEAAJPEAUIStream@@@Z 000000018002be10     Keylock.obj
 0002:0000ae24       $unwind$?RegOpenKeyExW@CAtlTransactionManager@ATL@@QEAAJPEAUHKEY__@@PEB_WKKPEAPEAU3@@Z 000000018002be24     Keylock.obj
 0002:0000ae24       $unwind$?WriteToStream@CComVariant@ATL@@QEAAJPEAUIStream@@G@Z 000000018002be24     Keylock.obj
 0002:0000ae38       $unwind$?ReadFromStream@CComVariant@ATL@@QEAAJPEAUIStream@@GTClassesAllowedInStream@2@K@Z 000000018002be38     Keylock.obj
 0002:0000ae50       $unwind$?GetSizeMax@CComVariant@ATL@@QEBAJPEAT_ULARGE_INTEGER@@@Z 000000018002be50     Keylock.obj
 0002:0000ae68       $unwind$?RegCreateKeyExW@CAtlTransactionManager@ATL@@QEAAJPEAUHKEY__@@PEB_WKPEA_WKKQEAU_SECURITY_ATTRIBUTES@@PEAPEAU3@PEAK@Z 000000018002be68     Keylock.obj
 0002:0000ae7c       $unwind$?RegDeleteKeyW@CAtlTransactionManager@ATL@@QEAAJPEAUHKEY__@@PEB_W@Z 000000018002be7c     Keylock.obj
 0002:0000ae7c       $unwind$?GetGITPtr@CAtlModule@ATL@@UEAAJPEAPEAUIGlobalInterfaceTable@@@Z 000000018002be7c     Keylock.obj
 0002:0000ae8c       $unwind$?AtlInternalQueryInterface@ATL@@YAJPEAXPEBU_ATL_INTMAP_ENTRY@1@AEBU_GUID@@PEAPEAX@Z 000000018002be8c     Keylock.obj
 0002:0000ae8c       $unwind$?AtlHiMetricToPixel@ATL@@YAXPEBUtagSIZE@@PEAU2@@Z 000000018002be8c     Keylock.obj
 0002:0000aea4       $unwind$?NextToken@CRegParser@ATL@@IEAAJPEA_W@Z 000000018002bea4     Keylock.obj
 0002:0000aea4       $unwind$?Init@?$CComEnumImpl@UIEnumConnectionPoints@@$1?_GUID_b196b285_bab4_101a_b69c_00aa00341d07@@3U__s_GUID@@BPEAUIConnectionPoint@@V?$_CopyInterface@UIConnectionPoint@@@ATL@@@ATL@@QEAAJPEAPEAUIConnectionPoint@@0PEAUIUnknown@@W4CComEnumFlags@2@@Z 000000018002bea4     Keylock.obj
 0002:0000aea4       $unwind$?Init@?$CComEnumImpl@UIEnumConnections@@$1?_GUID_b196b287_bab4_101a_b69c_00aa00341d07@@3U__s_GUID@@BUtagCONNECTDATA@@V?$_Copy@UtagCONNECTDATA@@@ATL@@@ATL@@QEAAJPEAUtagCONNECTDATA@@0PEAUIUnknown@@W4CComEnumFlags@2@@Z 000000018002bea4     Keylock.obj
 0002:0000aea4       $unwind$?CreateInstance@?$CComCreator@V?$CComObjectCached@VCComClassFactory@ATL@@@ATL@@@ATL@@SAJPEAXAEBU_GUID@@PEAPEAX@Z 000000018002bea4     Keylock.obj
 0002:0000aea4       $unwind$?AtlComModuleGetClassObject@ATL@@YAJPEAU_ATL_COM_MODULE70@1@AEBU_GUID@@1PEAPEAX@Z 000000018002bea4     Keylock.obj
 0002:0000aea4       $unwind$?GetClassObject@CComModule@ATL@@QEAAJAEBU_GUID@@0PEAPEAX@Z 000000018002bea4     Keylock.obj
 0002:0000aebc       $unwind$?AtlRegisterClassCategoriesHelper@ATL@@YAJAEBU_GUID@@PEBU_ATL_CATMAP_ENTRY@1@H@Z 000000018002bebc     Keylock.obj
 0002:0000aee0       $unwind$?AtlLoadTypeLib@ATL@@YAJPEAUHINSTANCE__@@PEB_WPEAPEA_WPEAPEAUITypeLib@@@Z 000000018002bee0     Keylock.obj
 0002:0000af00       $unwind$?AtlRegisterTypeLib@ATL@@YAJPEAUHINSTANCE__@@PEB_W@Z 000000018002bf00     Keylock.obj
 0002:0000af1c       $unwind$?AtlUnRegisterTypeLib@ATL@@YAJPEAUHINSTANCE__@@PEB_W@Z 000000018002bf1c     Keylock.obj
 0002:0000af24       $unwind$?Create@CRegKey@ATL@@QEAAJPEAUHKEY__@@PEB_WPEA_WKKPEAU_SECURITY_ATTRIBUTES@@PEAK@Z 000000018002bf24     Keylock.obj
 0002:0000af2c       $unwind$?Open@CRegKey@ATL@@QEAAJPEAUHKEY__@@PEB_WK@Z 000000018002bf2c     Keylock.obj
 0002:0000af34       $unwind$?RecurseDeleteKey@CRegKey@ATL@@QEAAJPEB_W@Z 000000018002bf34     Keylock.obj
 0002:0000af50       $unwind$?UpdateRegistryFromResource@CAtlModule@ATL@@QEAAJIHPEAU_ATL_REGMAP_ENTRY@2@@Z 000000018002bf50     Keylock.obj
 0002:0000af50       $unwind$?UpdateRegistryFromResource@CAtlModule@ATL@@QEAAJPEB_WHPEAU_ATL_REGMAP_ENTRY@2@@Z 000000018002bf50     Keylock.obj
 0002:0000af70       $unwind$?Lookup@?$CSimpleMap@PEA_WPEA_WVCExpansionVectorEqualHelper@ATL@@@ATL@@QEBAPEA_WAEBQEA_W@Z 000000018002bf70     Keylock.obj
 0002:0000af70       $unwind$?initialize_stdio_handles_nolock@@YAXXZ 000000018002bf70     libucrt:ioinit.obj
 0002:0000af70       $unwind$__std_exception_copy 000000018002bf70     libvcruntime:std_exception.obj
 0002:0000af70       $unwind$_free_osfhnd       000000018002bf70     libucrt:osfinfo.obj
 0002:0000af84       $unwind$?Add@CExpansionVector@ATL@@QEAAHPEB_W0@Z 000000018002bf84     Keylock.obj
 0002:0000af9c       $unwind$?PreProcessBuffer@CRegParser@ATL@@QEAAJPEA_WPEAPEA_W@Z 000000018002bf9c     Keylock.obj
 0002:0000afc0       $unwind$?RegisterBuffer@CRegParser@ATL@@QEAAJPEA_WH@Z 000000018002bfc0     Keylock.obj
 0002:0000afe0       $unwind$?AddValue@CRegParser@ATL@@IEAAJAEAVCRegKey@2@PEB_WPEA_W@Z 000000018002bfe0     Keylock.obj
 0002:0000b000       $unwind$?RegisterSubkeys@CRegParser@ATL@@IEAAJPEA_WPEAUHKEY__@@HH@Z 000000018002c000     Keylock.obj
 0002:0000b020       $unwind$?SkipAssignment@CRegParser@ATL@@IEAAJPEA_W@Z 000000018002c020     Keylock.obj
 0002:0000b038       $unwind$?RegisterFromResource@CRegObject@ATL@@IEAAJPEB_W00H@Z 000000018002c038     Keylock.obj
 0002:0000b058       $unwind$?AtlIPersistStreamInit_Load@ATL@@YAJPEAUIStream@@PEBUATL_PROPMAP_ENTRY@1@PEAXPEAUIUnknown@@@Z 000000018002c058     Keylock.obj
 0002:0000b070       $unwind$?AtlIPersistStreamInit_Save@ATL@@YAJPEAUIStream@@HPEBUATL_PROPMAP_ENTRY@1@PEAXPEAUIUnknown@@@Z 000000018002c070     Keylock.obj
 0002:0000b08c       $unwind$?GetTI@CComTypeInfoHolder@ATL@@QEAAJK@Z 000000018002c08c     Keylock.obj
 0002:0000b0ac       $unwind$AtlThunk_FreeData  000000018002c0ac     atls:atlthunk.obj
 0002:0000b0ac       $unwind$__acrt_locale_free_numeric 000000018002c0ac     libucrt:initnum.obj
 0002:0000b0ac       $unwind$?destroy_fls@@YAXPEAX@Z 000000018002c0ac     libucrt:per_thread_data.obj
 0002:0000b0ac       $unwind$?Cleanup@CComTypeInfoHolder@ATL@@SAX_K@Z 000000018002c0ac     Keylock.obj
 0002:0000b0ac       $unwind$__acrt_locale_free_lc_time_if_unreferenced 000000018002c0ac     libucrt:locale_refcounting.obj
 0002:0000b0ac       $unwind$_free_base         000000018002c0ac     libucrt:free_base.obj
 0002:0000b0b4       $unwind$?GetIDsOfNames@CComTypeInfoHolder@ATL@@QEAAJAEBU_GUID@@PEAPEA_WIKPEAJ@Z 000000018002c0b4     Keylock.obj
 0002:0000b0d0       $unwind$?LoadNameCache@CComTypeInfoHolder@ATL@@QEAAJPEAUITypeInfo@@@Z 000000018002c0d0     Keylock.obj
 0002:0000b0e4       $unwind$??$parse_command_line@D@@YAXPEADPEAPEAD0PEA_K2@Z 000000018002c0e4     libucrt:argv_parsing.obj
 0002:0000b0e4       $unwind$??R<lambda_22ebabd17bc4fa466a2aca6d8deb888d>@@QEBAHXZ 000000018002c0e4     libucrt:onexit.obj
 0002:0000b0e4       $unwind$?StartWindowProc@?$CWindowImplBaseT@VCWindow@ATL@@V?$CWinTraits@$0FGAAAAAA@$0A@@2@@ATL@@SA_JPEAUHWND__@@I_K_J@Z 000000018002c0e4     Keylock.obj
 0002:0000b100       $unwind$?WindowProc@?$CWindowImplBaseT@VCWindow@ATL@@V?$CWinTraits@$0FGAAAAAA@$0A@@2@@ATL@@SA_JPEAUHWND__@@I_K_J@Z 000000018002c100     Keylock.obj
 0002:0000b118       $unwind$?Create@?$CWindowImplBaseT@VCWindow@ATL@@V?$CWinTraits@$0FGAAAAAA@$0A@@2@@ATL@@QEAAPEAUHWND__@@PEAU3@V_U_RECT@2@PEB_WKKV_U_MENUorID@2@GPEAX@Z 000000018002c118     Keylock.obj
 0002:0000b130       $unwind$??$AtlModuleRegisterWndClassInfoT@VAtlModuleRegisterWndClassInfoParamW@ATL@@@ATL@@YAGPEAU_ATL_BASE_MODULE70@0@PEAU_ATL_WIN_MODULE70@0@PEAU_ATL_WNDCLASSINFOW@0@PEAP6A_JPEAUHWND__@@I_K_J@ZVAtlModuleRegisterWndClassInfoParamW@0@@Z 000000018002c130     Keylock.obj
 0002:0000b150       $unwind$?GetZoomInfo@CComControlBase@ATL@@QEAAXAEAUATL_DRAWINFO@@@Z 000000018002c150     Keylock.obj
 0002:0000b150       $unwind$iswctype           000000018002c150     libucrt:iswctype.obj
 0002:0000b150       $unwind$?OnKillFocus@CComControlBase@ATL@@QEAA_JI_K_JAEAH@Z 000000018002c150     Keylock.obj
 0002:0000b15c       $unwind$?SendOnDataChange@CComControlBase@ATL@@QEAAJK@Z 000000018002c15c     Keylock.obj
 0002:0000b16c       $unwind$?OnSetFocus@CComControlBase@ATL@@QEAA_JI_K_JAEAH@Z 000000018002c16c     Keylock.obj
 0002:0000b17c       $unwind$?OnMouseActivate@CComControlBase@ATL@@QEAA_JI_K_JAEAH@Z 000000018002c17c     Keylock.obj
 0002:0000b184       $unwind$?GetAmbientLocaleID@CComControlBase@ATL@@QEAAJAEAK@Z 000000018002c184     Keylock.obj
 0002:0000b194       $unwind$?GetAmbientUserMode@CComControlBase@ATL@@QEAAJAEAH@Z 000000018002c194     Keylock.obj
 0002:0000b1a8       $unwind$?IQuickActivate_QuickActivate@CComControlBase@ATL@@QEAAJPEAUtagQACONTAINER@@PEAUtagQACONTROL@@@Z 000000018002c1a8     Keylock.obj
 0002:0000b1c0       $unwind$?DoVerbProperties@CComControlBase@ATL@@QEAAJPEBUtagRECT@@PEAUHWND__@@@Z 000000018002c1c0     Keylock.obj
 0002:0000b1d8       $unwind$?InPlaceActivate@CComControlBase@ATL@@QEAAJJPEBUtagRECT@@@Z 000000018002c1d8     Keylock.obj
 0002:0000b1f8       $unwind$?IOleObject_Close@CComControlBase@ATL@@QEAAJK@Z 000000018002c1f8     Keylock.obj
 0002:0000b1f8       $unwind$?type_case_c_tchar@?$output_processor@_WV?$string_output_adapter@_W@__crt_stdio_output@@V?$format_validation_base@_WV?$string_output_adapter@_W@__crt_stdio_output@@@2@@__crt_stdio_output@@AEAA_N_W@Z 000000018002c1f8     libucrt:output.obj
 0002:0000b208       $unwind$?IOleInPlaceObject_UIDeactivate@CComControlBase@ATL@@QEAAJXZ 000000018002c208     Keylock.obj
 0002:0000b220       $unwind$?IOleInPlaceObject_SetObjectRects@CComControlBase@ATL@@QEAAJPEBUtagRECT@@0@Z 000000018002c220     Keylock.obj
 0002:0000b234       $unwind$?IViewObject_Draw@CComControlBase@ATL@@QEAAJKJPEAXPEAUtagDVTARGETDEVICE@@PEAUHDC__@@2PEBU_RECTL@@3@Z 000000018002c234     Keylock.obj
 0002:0000b250       $unwind$?IDataObject_GetData@CComControlBase@ATL@@QEAAJPEAUtagFORMATETC@@PEAUtagSTGMEDIUM@@@Z 000000018002c250     Keylock.obj
 0002:0000b270       $unwind$?OnPaint@CComControlBase@ATL@@QEAA_JI_K_JAEAH@Z 000000018002c270     Keylock.obj
 0002:0000b28c       $unwind$?OnDrawAdvanced@CComControlBase@ATL@@UEAAJAEAUATL_DRAWINFO@@@Z 000000018002c28c     Keylock.obj
 0002:0000b2a4       $unwind$_mbsdec_l          000000018002c2a4     libucrt:mbsdec.obj
 0002:0000b2a4       $unwind$?Invoke@?$IDispatchImpl@UIOPOSKeylock@@$1?IID_IOPOSKeylock@@3U_GUID@@B$1?LIBID_OposKeylock_CCO@@3U3@B$00$0A@VCComTypeInfoHolder@ATL@@@ATL@@UEAAJJAEBU_GUID@@KGPEAUtagDISPPARAMS@@PEAUtagVARIANT@@PEAUtagEXCEPINFO@@PEAI@Z 000000018002c2a4     Keylock.obj
 0002:0000b2b0       $unwind$__acrt_LCMapStringEx 000000018002c2b0     libucrt:winapi_thunks.obj
 0002:0000b2b0       $unwind$?Create@?$CWindowImpl@VCOPOSKeylock@@VCWindow@ATL@@V?$CWinTraits@$0FGAAAAAA@$0A@@3@@ATL@@QEAAPEAUHWND__@@PEAU3@V_U_RECT@2@PEB_WKKV_U_MENUorID@2@PEAX@Z 000000018002c2b0     Keylock.obj
 0002:0000b2b0       $unwind$?fp_format_e@@YAHQEBNQEAD_K12H_NIQEAU__crt_locale_pointers@@@Z 000000018002c2b0     libucrt:cvt.obj
 0002:0000b2c4       $unwind$?__scrt_throw_std_bad_array_new_length@@YAXXZ 000000018002c2c4     LIBCMT:throw_bad_alloc.obj
 0002:0000b2c4       $unwind$?__scrt_throw_std_bad_alloc@@YAXXZ 000000018002c2c4     LIBCMT:throw_bad_alloc.obj
 0002:0000b2c4       $unwind$?CreateControlWindow@?$CComControl@VCOPOSKeylock@@V?$CWindowImpl@VCOPOSKeylock@@VCWindow@ATL@@V?$CWinTraits@$0FGAAAAAA@$0A@@3@@ATL@@@ATL@@UEAAPEAUHWND__@@PEAU3@AEAUtagRECT@@@Z 000000018002c2c4     Keylock.obj
 0002:0000b2c4       $unwind$_raise_exc         000000018002c2c4     libucrt:fpexcept.obj
 0002:0000b2c4       $unwind$__dcrt_lowio_initialize_console_output 000000018002c2c4     libucrt:initcon.obj
 0002:0000b2c4       $unwind$?ReleaseDevice@COPOSKeylock@@UEAAJPEAJ@Z 000000018002c2c4     KeylockImpl.obj
 0002:0000b2cc       $unwind$?Save@?$IPersistStreamInitImpl@VCOPOSKeylock@@@ATL@@UEAAJPEAUIStream@@H@Z 000000018002c2cc     Keylock.obj
 0002:0000b2cc       $unwind$__stdio_common_vswprintf_s 000000018002c2cc     libucrt:output.obj
 0002:0000b2d8       $unwind$?GetSizeMax@?$IPersistStreamInitImpl@VCOPOSKeylock@@@ATL@@UEAAJPEAT_ULARGE_INTEGER@@@Z 000000018002c2d8     Keylock.obj
 0002:0000b2f0       $unwind$?DoVerbPrimary@?$IOleObjectImpl@VCOPOSKeylock@@@ATL@@QEAAJPEBUtagRECT@@PEAUHWND__@@@Z 000000018002c2f0     Keylock.obj
 0002:0000b308       $unwind$?TranslateAcceleratorW@?$IOleInPlaceActiveObjectImpl@VCOPOSKeylock@@@ATL@@UEAAJPEAUtagMSG@@@Z 000000018002c308     Keylock.obj
 0002:0000b314       $unwind$?Draw@?$IViewObjectExImpl@VCOPOSKeylock@@@ATL@@UEAAJKJPEAXPEAUtagDVTARGETDEVICE@@PEAUHDC__@@2PEBU_RECTL@@3P6AH_K@Z4@Z 000000018002c314     Keylock.obj
 0002:0000b31c       $unwind$?QueryHitRect@?$IViewObjectExImpl@VCOPOSKeylock@@@ATL@@UEAAJKPEBUtagRECT@@0JPEAK@Z 000000018002c31c     Keylock.obj
 0002:0000b32c       $unwind$?OnWindowMessage@?$IOleInPlaceObjectWindowlessImpl@VCOPOSKeylock@@@ATL@@UEAAJI_K_JPEA_J@Z 000000018002c32c     Keylock.obj
 0002:0000b340       $unwind$?EnumConnectionPoints@?$IConnectionPointContainerImpl@VCOPOSKeylock@@@ATL@@UEAAJPEAPEAUIEnumConnectionPoints@@@Z 000000018002c340     Keylock.obj
 0002:0000b368       $unwind$?FindConnectionPoint@?$IConnectionPointContainerImpl@VCOPOSKeylock@@@ATL@@UEAAJAEBU_GUID@@PEAPEAUIConnectionPoint@@@Z 000000018002c368     Keylock.obj
 0002:0000b384       $unwind$?Load@?$IPersistStorageImpl@VCOPOSKeylock@@@ATL@@UEAAJPEAUIStorage@@@Z 000000018002c384     Keylock.obj
 0002:0000b394       $unwind$?Save@?$IPersistStorageImpl@VCOPOSKeylock@@@ATL@@UEAAJPEAUIStorage@@H@Z 000000018002c394     Keylock.obj
 0002:0000b3a8       $unwind$?DAdvise@?$IDataObjectImpl@VCOPOSKeylock@@@ATL@@UEAAJPEAUtagFORMATETC@@KPEAUIAdviseSink@@PEAK@Z 000000018002c3a8     Keylock.obj
 0002:0000b3c0       $unwind$?GetInterfaceSafetyOptions@?$IObjectSafetyImpl@VCOPOSKeylock@@$02@ATL@@UEAAJAEBU_GUID@@PEAK1@Z 000000018002c3c0     Keylock.obj
 0002:0000b3d4       $unwind$?SetInterfaceSafetyOptions@?$IObjectSafetyImpl@VCOPOSKeylock@@$02@ATL@@UEAAJAEBU_GUID@@KK@Z 000000018002c3d4     Keylock.obj
 0002:0000b3e8       $unwind$?Advise@?$IConnectionPointImpl@VCOPOSKeylock@@$1?DIID__IOPOSKeylockEvents@@3U_GUID@@BVCComDynamicUnkArray@ATL@@@ATL@@UEAAJPEAUIUnknown@@PEAK@Z 000000018002c3e8     Keylock.obj
 0002:0000b3e8       $unwind$?Advise@?$IConnectionPointImpl@VCOPOSKeylock@@$1?IID_IPropertyNotifySink@@3U_GUID@@BVCComDynamicUnkArray@ATL@@@ATL@@UEAAJPEAUIUnknown@@PEAK@Z 000000018002c3e8     Keylock.obj
 0002:0000b3fc       $unwind$?EnumConnections@?$IConnectionPointImpl@VCOPOSKeylock@@$1?DIID__IOPOSKeylockEvents@@3U_GUID@@BVCComDynamicUnkArray@ATL@@@ATL@@UEAAJPEAPEAUIEnumConnections@@@Z 000000018002c3fc     Keylock.obj
 0002:0000b3fc       $unwind$??$create_environment@D@@YAQEAPEADQEAD@Z 000000018002c3fc     libucrt:environment_initialization.obj
 0002:0000b3fc       $unwind$?EnumConnections@?$IConnectionPointImpl@VCOPOSKeylock@@$1?IID_IPropertyNotifySink@@3U_GUID@@BVCComDynamicUnkArray@ATL@@@ATL@@UEAAJPEAPEAUIEnumConnections@@@Z 000000018002c3fc     Keylock.obj
 0002:0000b414       $unwind$?Fire_DirectIOEvent@?$CProxy_IOPOSEvents@VCOPOSKeylock@@@@QEAAXJPEAJPEAPEA_W@Z 000000018002c414     Keylock.obj
 0002:0000b434       $unwind$??$__InternalCxxFrameHandler@V__FrameHandler3@@@@YA?AW4_EXCEPTION_DISPOSITION@@PEAUEHExceptionRecord@@PEA_KPEAU_CONTEXT@@PEAU_xDISPATCHER_CONTEXT@@PEBU_s_FuncInfo@@H1E@Z 000000018002c434     libvcruntime:frame.obj
 0002:0000b434       $unwind$?Fire_StatusUpdateEvent@?$CProxy_IOPOSEvents@VCOPOSKeylock@@@@QEAAXJ@Z 000000018002c434     Keylock.obj
 0002:0000b434       $unwind$_mbtowc_l          000000018002c434     libucrt:mbtowc.obj
 0002:0000b44c       $unwind$?FireTheEvent@?$CProxy_IOPOSEvents@VCOPOSKeylock@@@@IEAAXPEAVOposVariant@@IAEAJPEB_WJ@Z 000000018002c44c     Keylock.obj
 0002:0000b45c       $unwind$?ProcessWindowMessage@COPOSKeylock@@UEAAHPEAUHWND__@@I_K_JAEA_JK@Z 000000018002c45c     Keylock.obj
 0002:0000b45c       $unwind$?fp_format_f_internal@@YAHQEAD_KHQEAU_strflt@@_NQEAU__crt_locale_pointers@@@Z 000000018002c45c     libucrt:cvt.obj
 0002:0000b45c       $unwind$__dcrt_get_narrow_environment_from_os 000000018002c45c     libucrt:get_environment_from_os.obj
 0002:0000b474       $unwind$?Clone@?$CComEnumImpl@UIEnumConnectionPoints@@$1?_GUID_b196b285_bab4_101a_b69c_00aa00341d07@@3U__s_GUID@@BPEAUIConnectionPoint@@V?$_CopyInterface@UIConnectionPoint@@@ATL@@@ATL@@UEAAJPEAPEAUIEnumConnectionPoints@@@Z 000000018002c474     Keylock.obj
 0002:0000b474       $unwind$?Clone@?$CComEnumImpl@UIEnumConnections@@$1?_GUID_b196b287_bab4_101a_b69c_00aa00341d07@@3U__s_GUID@@BUtagCONNECTDATA@@V?$_Copy@UtagCONNECTDATA@@@ATL@@@ATL@@UEAAJPEAPEAUIEnumConnections@@@Z 000000018002c474     Keylock.obj
 0002:0000b48c       $unwind$?GetOposProp@COPOSKeylock@@IEAAJJPEAPEA_WJ@Z 000000018002c48c     KeylockImpl.obj
 0002:0000b48c       $unwind$?GetOposProp@COPOSKeylock@@IEAAJJPEAJJ@Z 000000018002c48c     KeylockImpl.obj
 0002:0000b4a4       $unwind$?SetOposProp@COPOSKeylock@@IEAAJJJJ@Z 000000018002c4a4     KeylockImpl.obj
 0002:0000b4c4       $unwind$?DoInvoke@COPOSKeylock@@IEAAJJPEAVOposVariant@@IHPEAJ_N@Z 000000018002c4c4     KeylockImpl.obj
 0002:0000b4dc       $unwind$?SetCOFreezeEvents@COPOSKeylock@@IEAAXF@Z 000000018002c4dc     KeylockImpl.obj
 0002:0000b4f0       $unwind$?OnDraw@COPOSKeylock@@MEAAJAEAUATL_DRAWINFO@@@Z 000000018002c4f0     KeylockImpl.obj
 0002:0000b508       $unwind$?EventInit@COPOSKeylock@@IEAAJXZ 000000018002c508     KeylockImpl.obj
 0002:0000b51c       $unwind$?EventWindowProc@COPOSKeylock@@IEAA_JI_K_J@Z 000000018002c51c     KeylockImpl.obj
 0002:0000b530       $unwind$_isleadbyte_l      000000018002c530     libucrt:_wctype.obj
 0002:0000b530       $unwind$?get_ControlObjectDescription@COPOSKeylock@@UEAAJPEAPEA_W@Z 000000018002c530     KeylockImpl.obj
 0002:0000b530       $unwind$isdigit            000000018002c530     libucrt:_ctype.obj
 0002:0000b530       $unwind$?getSystemCP@@YAHH@Z 000000018002c530     libucrt:mbctype.obj
 0002:0000b530       $unwind$__scrt_initialize_onexit_tables 000000018002c530     LIBCMT:utility.obj
 0002:0000b538       $unwind$?ResetStatistics@COPOSKeylock@@UEAAJPEA_WPEAJ@Z 000000018002c538     KeylockImpl.obj
 0002:0000b538       $unwind$?RetrieveStatistics@COPOSKeylock@@UEAAJPEAPEA_WPEAJ@Z 000000018002c538     KeylockImpl.obj
 0002:0000b538       $unwind$?UpdateFirmware@COPOSKeylock@@UEAAJPEA_WPEAJ@Z 000000018002c538     KeylockImpl.obj
 0002:0000b538       $unwind$?CheckHealth@COPOSKeylock@@UEAAJJPEAJ@Z 000000018002c538     KeylockImpl.obj
 0002:0000b538       $unwind$?UpdateStatistics@COPOSKeylock@@UEAAJPEA_WPEAJ@Z 000000018002c538     KeylockImpl.obj
 0002:0000b548       $unwind$?ClaimDevice@COPOSKeylock@@UEAAJJPEAJ@Z 000000018002c548     KeylockImpl.obj
 0002:0000b558       $unwind$?DirectIO@COPOSKeylock@@UEAAJJPEAJPEAPEA_W0@Z 000000018002c558     KeylockImpl.obj
 0002:0000b574       $unwind$?Open@COPOSKeylock@@UEAAJPEA_WPEAJ@Z 000000018002c574     KeylockImpl.obj
 0002:0000b598       $unwind$?WaitForKeylockChange@COPOSKeylock@@UEAAJJJPEAJ@Z 000000018002c598     KeylockImpl.obj
 0002:0000b5b0       $unwind$?CompareFirmwareVersion@COPOSKeylock@@UEAAJPEA_WPEAJ1@Z 000000018002c5b0     KeylockImpl.obj
 0002:0000b5b0       $unwind$?initialize_inherited_file_handles_nolock@@YAXXZ 000000018002c5b0     libucrt:ioinit.obj
 0002:0000b5cc       $unwind$__scrt_is_nonwritable_in_current_image 000000018002c5cc     LIBCMT:utility.obj
 0002:0000b5ec       $unwind$__scrt_is_nonwritable_in_current_image$filt$0 000000018002c5ec     LIBCMT:utility.obj
 0002:0000b5f4       $unwind$?__scrt_initialize_thread_safe_statics@@YAHXZ 000000018002c5f4     LIBCMT:thread_safe_statics.obj
 0002:0000b60c       $stateUnwindMap$?__scrt_initialize_thread_safe_statics@@YAHXZ 000000018002c60c     LIBCMT:thread_safe_statics.obj
 0002:0000b618       $ip2state$?__scrt_initialize_thread_safe_statics@@YAHXZ 000000018002c618     LIBCMT:thread_safe_statics.obj
 0002:0000b620       $unwind$__report_securityfailure 000000018002c620     LIBCMT:gs_report.obj
 0002:0000b628       $unwind$_putwch_nolock     000000018002c628     libucrt:putwch.obj
 0002:0000b628       $unwind$__report_gsfailure 000000018002c628     LIBCMT:gs_report.obj
 0002:0000b630       $unwind$capture_current_context 000000018002c630     LIBCMT:gs_report.obj
 0002:0000b63c       $unwind$capture_previous_context 000000018002c63c     LIBCMT:gs_report.obj
 0002:0000b648       $unwind$??2@YAPEAX_KAEBUnothrow_t@std@@@Z 000000018002c648     LIBCMT:new_scalar_nothrow.obj
 0002:0000b658       $stateUnwindMap$??2@YAPEAX_KAEBUnothrow_t@std@@@Z 000000018002c658     LIBCMT:new_scalar_nothrow.obj
 0002:0000b668       $tryMap$??2@YAPEAX_KAEBUnothrow_t@std@@@Z 000000018002c668     LIBCMT:new_scalar_nothrow.obj
 0002:0000b67c       $handlerMap$0$??2@YAPEAX_KAEBUnothrow_t@std@@@Z 000000018002c67c     LIBCMT:new_scalar_nothrow.obj
 0002:0000b690       $ip2state$??2@YAPEAX_KAEBUnothrow_t@std@@@Z 000000018002c690     LIBCMT:new_scalar_nothrow.obj
 0002:0000b698       $unwind$?catch$0@?0???2@YAPEAX_KAEBUnothrow_t@std@@@Z@4HA 000000018002c698     LIBCMT:new_scalar_nothrow.obj
 0002:0000b6a8       $unwind$__GSHandlerCheckCommon 000000018002c6a8     LIBCMT:_gshandler_.obj
 0002:0000b6b0       $xdatasym                  000000018002c6b0     LIBCMT:_chkstk_.obj
 0002:0000b6b8       $xdatasym                  000000018002c6b8     LIBCMT:_amdsecgs_.obj
 0002:0000b6bc       $unwind$?dllmain_crt_process_attach@@YAHQEAUHINSTANCE__@@QEAX@Z 000000018002c6bc     LIBCMT:dll_dllmain.obj
 0002:0000b6f8       $unwind$?dllmain_crt_process_detach@@YAH_N@Z 000000018002c6f8     LIBCMT:dll_dllmain.obj
 0002:0000b730       $unwind$?dllmain_dispatch@@YAHQEAUHINSTANCE__@@KQEAX@Z 000000018002c730     LIBCMT:dll_dllmain.obj
 0002:0000b758       $unwind$?filt$0@?0??dllmain_dispatch@@YAHQEAUHINSTANCE__@@KQEAX@Z@4HA 000000018002c758     LIBCMT:dll_dllmain.obj
 0002:0000b760       $unwind$__isa_available_init 000000018002c760     LIBCMT:_cpu_disp_.obj
 0002:0000b774       $unwind$__scrt_fastfail    000000018002c774     LIBCMT:utility_desktop.obj
 0002:0000b784       $unwind$__security_init_cookie 000000018002c784     LIBCMT:gs_support.obj
 0002:0000b790       $xdatasym                  000000018002c790     LIBCMT:_guard_dispatch_.obj
 0002:0000b794       $unwind$AtlThunk_InitData  000000018002c794     atls:atlthunk.obj
 0002:0000b7a8       $xdatasym                  000000018002c7a8     libvcruntime:memset.obj
 0002:0000b7b8       $unwind$wcsstr             000000018002c7b8     libvcruntime:wcsstr.obj
 0002:0000b7d0       $xdatasym                  000000018002c7d0     libvcruntime:memcmp.obj
 0002:0000b7d8       $xdatasym                  000000018002c7d8     libvcruntime:memcpy.obj
 0002:0000b7e8       $unwind$__C_specific_handler 000000018002c7e8     libvcruntime:_riscchandler_.obj
 0002:0000b804       $unwind$__DestructExceptionObject 000000018002c804     libvcruntime:ehhelpers.obj
 0002:0000b824       $unwind$?GetEstablisherFrame@__FrameHandler3@@SAPEA_KPEA_KPEAU_xDISPATCHER_CONTEXT@@PEBU_s_FuncInfo@@0@Z 000000018002c824     libvcruntime:risctrnsctrl.obj
 0002:0000b83c       $unwind$?UnwindNestedFrames@__FrameHandler3@@SAXPEA_KPEAUEHExceptionRecord@@PEAU_CONTEXT@@0PEAXPEBU_s_FuncInfo@@HHPEBU_s_HandlerType@@PEAU_xDISPATCHER_CONTEXT@@E@Z 000000018002c83c     libvcruntime:risctrnsctrl.obj
 0002:0000b850       $unwind$?GetRangeOfTrysToCheck@__FrameHandler3@@SA?AU?$pair@Viterator@TryBlockMap@__FrameHandler3@@V123@@std@@AEAVTryBlockMap@1@HH@Z 000000018002c850     libvcruntime:risctrnsctrl.obj
 0002:0000b868       $unwind$__CxxFrameHandler3 000000018002c868     libvcruntime:risctrnsctrl.obj
 0002:0000b878       $unwind$??$_CallSETranslator@V__FrameHandler3@@@@YAHPEAUEHExceptionRecord@@PEA_KPEAU_CONTEXT@@PEAU_xDISPATCHER_CONTEXT@@PEBU_s_FuncInfo@@K1@Z 000000018002c878     libvcruntime:risctrnsctrl.obj
 0002:0000b898       $unwind$?filt$0@?0???$_CallSETranslator@V__FrameHandler3@@@@YAHPEAUEHExceptionRecord@@PEA_KPEAU_CONTEXT@@PEAU_xDISPATCHER_CONTEXT@@PEBU_s_FuncInfo@@K1@Z@4HA 000000018002c898     libvcruntime:risctrnsctrl.obj
 0002:0000b8a4       $unwind$_CxxThrowException 000000018002c8a4     libvcruntime:throw.obj
 0002:0000b8b4       $unwind$__acrt_initialize_winapi_thunks 000000018002c8b4     libucrt:winapi_thunks.obj
 0002:0000b8b4       $unwind$__vcrt_initialize_winapi_thunks 000000018002c8b4     libvcruntime:winapi_downlevel.obj
 0002:0000b8bc       $unwind$__vcrt_uninitialize_winapi_thunks 000000018002c8bc     libvcruntime:winapi_downlevel.obj
 0002:0000b8c4       $unwind$?try_get_function@@YAPEAXW4function_id@?A0xcc2f1bd3@@QEBDQEBW4module_id@2@2@Z 000000018002c8c4     libvcruntime:winapi_downlevel.obj
 0002:0000b8c4       $unwind$??R<lambda_f03950bc5685219e0bcd2087efbe011e>@@QEBAHXZ 000000018002c8c4     libucrt:onexit.obj
 0002:0000b8c4       $unwind$?try_get_function@@YAPEAXW4function_id@?A0x391cf84c@@QEBDQEBW4module_id@2@2@Z 000000018002c8c4     libucrt:winapi_thunks.obj
 0002:0000b8c4       $unwind$?IsInExceptionSpec@@YAEPEAUEHExceptionRecord@@PEBU_s_ESTypeList@@@Z 000000018002c8c4     libvcruntime:frame.obj
 0002:0000b8e0       $xdatasym                  000000018002c8e0     libvcruntime:_notify_.obj
 0002:0000b8ec       $unwind$?FrameUnwindToState@__FrameHandler3@@SAXPEA_KPEAU_xDISPATCHER_CONTEXT@@PEBU_s_FuncInfo@@H@Z 000000018002c8ec     libvcruntime:frame.obj
 0002:0000b938       $unwind$?CxxCallCatchBlock@__FrameHandler3@@SAPEAXPEAU_EXCEPTION_RECORD@@@Z 000000018002c938     libvcruntime:frame.obj
 0002:0000b974       $unwind$?fin$1@?0??CxxCallCatchBlock@__FrameHandler3@@SAPEAXPEAU_EXCEPTION_RECORD@@@Z@4HA 000000018002c974     libvcruntime:frame.obj
 0002:0000b980       $unwind$??$BuildCatchObjectHelperInternal@$$CBU_s_HandlerType@@@@YAHPEAUEHExceptionRecord@@PEAXPEBU_s_HandlerType@@PEBU_s_CatchableType@@@Z 000000018002c980     libvcruntime:frame.obj
 0002:0000b9c0       $unwind$??$BuildCatchObjectInternal@$$CBU_s_HandlerType@@@@YAXPEAUEHExceptionRecord@@PEAXPEBU_s_HandlerType@@PEBU_s_CatchableType@@@Z 000000018002c9c0     libvcruntime:frame.obj
 0002:0000b9ec       $unwind$??$FindHandler@V__FrameHandler3@@@@YAXPEAUEHExceptionRecord@@PEA_KPEAU_CONTEXT@@PEAU_xDISPATCHER_CONTEXT@@PEBU_s_FuncInfo@@EH1@Z 000000018002c9ec     libvcruntime:frame.obj
 0002:0000ba08       $unwind$??$CatchIt@V__FrameHandler3@@@@YAXPEAUEHExceptionRecord@@PEA_KPEAU_CONTEXT@@PEAU_xDISPATCHER_CONTEXT@@PEBU_s_FuncInfo@@PEBU_s_HandlerType@@PEBU_s_CatchableType@@PEBU_s_TryBlockMapEntry@@H1EE@Z 000000018002ca08     libvcruntime:frame.obj
 0002:0000ba20       $unwind$??$FindHandlerForForeignException@V__FrameHandler3@@@@YAXPEAUEHExceptionRecord@@PEA_KPEAU_CONTEXT@@PEAU_xDISPATCHER_CONTEXT@@PEBU_s_FuncInfo@@HH1@Z 000000018002ca20     libvcruntime:frame.obj
 0002:0000ba40       $xdatasym                  000000018002ca40     libvcruntime:handlers.obj
 0002:0000ba50       $unwind$__acrt_call_reportfault 000000018002ca50     libucrt:invalid_parameter.obj
 0002:0000ba70       $unwind$_invalid_parameter 000000018002ca70     libucrt:invalid_parameter.obj
 0002:0000ba84       $unwind$_resetstkoflw      000000018002ca84     libucrt:resetstk.obj
 0002:0000baa8       $unwind$?write_string@?$string_output_adapter@_W@__crt_stdio_output@@QEBAXQEB_WHQEAHAEAV__crt_deferred_errno_cache@@@Z 000000018002caa8     libucrt:output.obj
 0002:0000bac0       $unwind$??$common_vsprintf@Vformat_validation_base@__crt_stdio_output@@_W@@YAH_KQEA_W0QEB_WQEAU__crt_locale_pointers@@QEAD@Z 000000018002cac0     libucrt:output.obj
 0002:0000bae0       $unwind$??$write_multiple_characters@V?$string_output_adapter@_W@__crt_stdio_output@@D@__crt_stdio_output@@YAXAEBV?$string_output_adapter@_W@0@DHQEAH@Z 000000018002cae0     libucrt:output.obj
 0002:0000baec       $unwind$?parse_int_from_format_string@?$output_processor@_WV?$string_output_adapter@_W@__crt_stdio_output@@V?$format_validation_base@_WV?$string_output_adapter@_W@__crt_stdio_output@@@2@@__crt_stdio_output@@AEAA_NQEAH@Z 000000018002caec     libucrt:output.obj
 0002:0000bb00       $unwind$?state_case_type@?$output_processor@_WV?$string_output_adapter@_W@__crt_stdio_output@@V?$format_validation_base@_WV?$string_output_adapter@_W@__crt_stdio_output@@@2@@__crt_stdio_output@@AEAA_NXZ 000000018002cb00     libucrt:output.obj
 0002:0000bb24       $unwind$?type_case_a@?$output_processor@_WV?$string_output_adapter@_W@__crt_stdio_output@@V?$format_validation_base@_WV?$string_output_adapter@_W@__crt_stdio_output@@@2@@__crt_stdio_output@@AEAA_NXZ 000000018002cb24     libucrt:output.obj
 0002:0000bb34       $unwind$?write_stored_string_tchar@?$output_processor@_WV?$string_output_adapter@_W@__crt_stdio_output@@V?$format_validation_base@_WV?$string_output_adapter@_W@__crt_stdio_output@@@2@@__crt_stdio_output@@AEAA_N_W@Z 000000018002cb34     libucrt:output.obj
 0002:0000bb48       $unwind$??$type_case_integer_parse_into_buffer@I@?$output_processor@_WV?$string_output_adapter@_W@__crt_stdio_output@@V?$format_validation_base@_WV?$string_output_adapter@_W@__crt_stdio_output@@@2@@__crt_stdio_output@@AEAAXII_N@Z 000000018002cb48     libucrt:output.obj
 0002:0000bb48       $unwind$??$type_case_integer_parse_into_buffer@_K@?$output_processor@_WV?$string_output_adapter@_W@__crt_stdio_output@@V?$format_validation_base@_WV?$string_output_adapter@_W@__crt_stdio_output@@@2@@__crt_stdio_output@@AEAAX_KI_N@Z 000000018002cb48     libucrt:output.obj
 0002:0000bb50       $unwind$?common_exit@@YAXHW4_crt_exit_cleanup_mode@@W4_crt_exit_return_mode@@@Z 000000018002cb50     libucrt:exit.obj
 0002:0000bb5c       $unwind$??R<lambda_6e4b09c48022b2350581041d5f6b0c4c>@@QEBA@XZ 000000018002cb5c     libucrt:exit.obj
 0002:0000bb7c       $unwind$??$?RV<lambda_d80eeec6fff315bfe5c115232f3240e3>@@AEAV<lambda_6e4b09c48022b2350581041d5f6b0c4c>@@V<lambda_2358e3775559c9db80273638284d5e45>@@@?$__crt_seh_guarded_call@X@@QEAAX$$QEAV<lambda_d80eeec6fff315bfe5c115232f3240e3>@@AEAV<lambda_6e4b09c48022b2350581041d5f6b0c4c>@@$$QEAV<lambda_2358e3775559c9db80273638284d5e45>@@@Z 000000018002cb7c     libucrt:exit.obj
 0002:0000bba0       $unwind$??$free_environment@D@@YAXQEAPEAD@Z 000000018002cba0     libucrt:environment_initialization.obj
 0002:0000bba0       $unwind$??$free_environment@_W@@YAXQEAPEA_W@Z 000000018002cba0     libucrt:environment_initialization.obj
 0002:0000bbac       $unwind$_register_onexit_function 000000018002cbac     libucrt:onexit.obj
 0002:0000bbb4       $unwind$_execute_onexit_table 000000018002cbb4     libucrt:onexit.obj
 0002:0000bbbc       $unwind$??$?RV<lambda_638799b9deba96c50f710eeac98168cd>@@AEAV<lambda_22ebabd17bc4fa466a2aca6d8deb888d>@@V<lambda_a6f7d7db0129f75315ebf26d50c089f1>@@@?$__crt_seh_guarded_call@H@@QEAAH$$QEAV<lambda_638799b9deba96c50f710eeac98168cd>@@AEAV<lambda_22ebabd17bc4fa466a2aca6d8deb888d>@@$$QEAV<lambda_a6f7d7db0129f75315ebf26d50c089f1>@@@Z 000000018002cbbc     libucrt:onexit.obj
 0002:0000bbe0       $unwind$??$?RV<lambda_7777bce6b2f8c936911f934f8298dc43>@@AEAV<lambda_f03950bc5685219e0bcd2087efbe011e>@@V<lambda_3883c3dff614d5e0c5f61bb1ac94921c>@@@?$__crt_seh_guarded_call@H@@QEAAH$$QEAV<lambda_7777bce6b2f8c936911f934f8298dc43>@@AEAV<lambda_f03950bc5685219e0bcd2087efbe011e>@@$$QEAV<lambda_3883c3dff614d5e0c5f61bb1ac94921c>@@@Z 000000018002cbe0     libucrt:onexit.obj
 0002:0000bc04       $unwind$_query_new_handler 000000018002cc04     libucrt:new_handler.obj
 0002:0000bc24       $unwind$terminate          000000018002cc24     libucrt:terminate.obj
 0002:0000bc44       $unwind$??$parse_integer@KV?$c_string_character_source@_W@__crt_strtox@@@__crt_strtox@@YAKQEAU__crt_locale_pointers@@V?$c_string_character_source@_W@0@H_N@Z 000000018002cc44     libucrt:atox.obj
 0002:0000bc60       $xdatasym                  000000018002cc60     libucrt:strncmp.obj
 0002:0000bc64       $unwind$?construct_ptd_array@@YAXQEAU__acrt_ptd@@@Z 000000018002cc64     libucrt:per_thread_data.obj
 0002:0000bc6c       $unwind$?destroy_ptd_array@@YAXQEAU__acrt_ptd@@@Z 000000018002cc6c     libucrt:per_thread_data.obj
 0002:0000bc74       $unwind$??$?RV<lambda_0ae27a3a962d80f24befdcbee591983d>@@AEAV<lambda_8d0ee55de4b1038c4002e0adecdf1839>@@V<lambda_dc504788e8f1664fe9b84e20bfb512f2>@@@?$__crt_seh_guarded_call@X@@QEAAX$$QEAV<lambda_0ae27a3a962d80f24befdcbee591983d>@@AEAV<lambda_8d0ee55de4b1038c4002e0adecdf1839>@@$$QEAV<lambda_dc504788e8f1664fe9b84e20bfb512f2>@@@Z 000000018002cc74     libucrt:per_thread_data.obj
 0002:0000bc98       $unwind$??$?RV<lambda_aa87e3671a710a21b5dc78c0bdf72e11>@@AEAV<lambda_92619d2358a28f41a33ba319515a20b9>@@V<lambda_6992ecaafeb10aed2b74cb1fae11a551>@@@?$__crt_seh_guarded_call@X@@QEAAX$$QEAV<lambda_aa87e3671a710a21b5dc78c0bdf72e11>@@AEAV<lambda_92619d2358a28f41a33ba319515a20b9>@@$$QEAV<lambda_6992ecaafeb10aed2b74cb1fae11a551>@@@Z 000000018002cc98     libucrt:per_thread_data.obj
 0002:0000bcbc       $unwind$??$?RV<lambda_f2e299630e499de9f9a165e60fcd3db5>@@AEAV<lambda_2ae9d31cdba2644fcbeaf08da7c24588>@@V<lambda_40d01ff24d0e7b3814fdbdcee8eab3c7>@@@?$__crt_seh_guarded_call@X@@QEAAX$$QEAV<lambda_f2e299630e499de9f9a165e60fcd3db5>@@AEAV<lambda_2ae9d31cdba2644fcbeaf08da7c24588>@@$$QEAV<lambda_40d01ff24d0e7b3814fdbdcee8eab3c7>@@@Z 000000018002ccbc     libucrt:per_thread_data.obj
 0002:0000bce0       $unwind$??$?RV<lambda_2d41944a1d46af3157314b8a01080d33>@@AEAV<lambda_8f455de75cd7d7f24b4096f044d8b9e6>@@V<lambda_aa500f224e6afead328df44964fe2772>@@@?$__crt_seh_guarded_call@X@@QEAAX$$QEAV<lambda_2d41944a1d46af3157314b8a01080d33>@@AEAV<lambda_8f455de75cd7d7f24b4096f044d8b9e6>@@$$QEAV<lambda_aa500f224e6afead328df44964fe2772>@@@Z 000000018002cce0     libucrt:per_thread_data.obj
 0002:0000bd04       $unwind$_tolower_l         000000018002cd04     libucrt:tolower_toupper.obj
 0002:0000bd14       $unwind$wcstol             000000018002cd14     libucrt:strtox.obj
 0002:0000bd1c       $unwind$wcsnlen            000000018002cd1c     libucrt:strnlen.obj
 0002:0000bd24       $unwind$__acrt_fp_format   000000018002cd24     libucrt:cvt.obj
 0002:0000bd40       $unwind$?fp_format_nan_or_infinity@@YAHW4__acrt_fp_class@@_NPEAD_K1@Z 000000018002cd40     libucrt:cvt.obj
 0002:0000bd54       $unwind$?fp_format_e_internal@@YAHQEAD_KH_NIQEAU_strflt@@2QEAU__crt_locale_pointers@@@Z 000000018002cd54     libucrt:cvt.obj
 0002:0000bd6c       $unwind$?fp_format_a@@YAHQEBNPEAD_KQEAD2H_NIQEAU__crt_locale_pointers@@@Z 000000018002cd6c     libucrt:cvt.obj
 0002:0000bd88       $unwind$?fp_format_g@@YAHQEBNQEAD_K12H_NIQEAU__crt_locale_pointers@@@Z 000000018002cd88     libucrt:cvt.obj
 0002:0000bd9c       $unwind$__acrt_uninitialize_locale 000000018002cd9c     libucrt:wsetlocale.obj
 0002:0000bd9c       $unwind$__acrt_get_sigabrt_handler 000000018002cd9c     libucrt:signal.obj
 0002:0000bda4       $unwind$??$?RV<lambda_410d79af7f07d98d83a3f525b3859a53>@@AEAV<lambda_3e16ef9562a7dcce91392c22ab16ea36>@@V<lambda_38119f0e861e05405d8a144b9b982f0a>@@@?$__crt_seh_guarded_call@X@@QEAAX$$QEAV<lambda_410d79af7f07d98d83a3f525b3859a53>@@AEAV<lambda_3e16ef9562a7dcce91392c22ab16ea36>@@$$QEAV<lambda_38119f0e861e05405d8a144b9b982f0a>@@@Z 000000018002cda4     libucrt:wsetlocale.obj
 0002:0000bdcc       $unwind$__acrt_initialize_lowio 000000018002cdcc     libucrt:ioinit.obj
 0002:0000bdec       $unwind$??$common_expand_argv_wildcards@D@@YAHQEAPEADQEAPEAPEAD@Z 000000018002cdec     libucrt:argv_wildcards.obj
 0002:0000be04       $unwind$??$copy_and_add_argument_to_buffer@D@@YAHQEBD0_KAEAV?$argument_list@D@?A0x5f5c8891@@@Z 000000018002ce04     libucrt:argv_wildcards.obj
 0002:0000be20       $unwind$??$expand_argument_wildcards@D@@YAHQEAD0AEAV?$argument_list@D@?A0x5f5c8891@@@Z 000000018002ce20     libucrt:argv_wildcards.obj
 0002:0000be40       $unwind$_setmbcp_nolock    000000018002ce40     libucrt:mbctype.obj
 0002:0000be60       $unwind$?setSBUpLow@@YAXPEAU__crt_multibyte_data@@@Z 000000018002ce60     libucrt:mbctype.obj
 0002:0000be7c       $unwind$?update_thread_multibyte_data_internal@@YAPEAU__crt_multibyte_data@@QEAU__acrt_ptd@@QEAU1@@Z 000000018002ce7c     libucrt:mbctype.obj
 0002:0000bea4       $unwind$?setmbcp_internal@@YAHH_NQEAU__acrt_ptd@@QEAPEAU__crt_multibyte_data@@@Z 000000018002cea4     libucrt:mbctype.obj
 0002:0000beb4       $unwind$??$?RV<lambda_efdfa57d1f175319df784efa44bb7b81>@@AEAV<lambda_5f0a4c1567f8adc6734073e5d1e1b35c>@@V<lambda_2e8a7d3640ea6ccb4c2413664c2db6fd>@@@?$__crt_seh_guarded_call@X@@QEAAX$$QEAV<lambda_efdfa57d1f175319df784efa44bb7b81>@@AEAV<lambda_5f0a4c1567f8adc6734073e5d1e1b35c>@@$$QEAV<lambda_2e8a7d3640ea6ccb4c2413664c2db6fd>@@@Z 000000018002ceb4     libucrt:mbctype.obj
 0002:0000bed8       $unwind$raise              000000018002ced8     libucrt:signal.obj
 0002:0000bf04       $unwind$??$?RV<lambda_450d765d439847d4c735a33c368b5fc0>@@AEAV<lambda_44731a7d0e6d81c3e6aa82d741081786>@@V<lambda_601a2a7da3b7a96e9554ac7215c4b07c>@@@?$__crt_seh_guarded_call@P6AXH@Z@@QEAAP6AXH@Z$$QEAV<lambda_450d765d439847d4c735a33c368b5fc0>@@AEAV<lambda_44731a7d0e6d81c3e6aa82d741081786>@@$$QEAV<lambda_601a2a7da3b7a96e9554ac7215c4b07c>@@@Z 000000018002cf04     libucrt:signal.obj
 0002:0000bf28       $unwind$_isctype_l         000000018002cf28     libucrt:isctype.obj
 0002:0000bf44       $unwind$__acrt_update_thread_locale_data 000000018002cf44     libucrt:locale_refcounting.obj
 0002:0000bf68       $unwind$?GetTableIndexFromLocaleName@@YAHPEB_W@Z 000000018002cf68     libucrt:lcidtoname_downlevel.obj
 0002:0000bf80       $unwind$__acrt_LCMapStringA 000000018002cf80     libucrt:lcmapstringa.obj
 0002:0000bf90       $unwind$?__acrt_LCMapStringA_stat@@YAHPEAU__crt_locale_pointers@@PEB_WKPEBDHPEADHHH@Z 000000018002cf90     libucrt:lcmapstringa.obj
 0002:0000bfb8       $unwind$__acrt_fltout      000000018002cfb8     libucrt:cfout.obj
 0002:0000bfd8       $unwind$?divide@__crt_strtox@@YA_KAEAUbig_integer@1@AEBU21@@Z 000000018002cfd8     libucrt:cfout.obj
 0002:0000bff8       $chain$5$?divide@__crt_strtox@@YA_KAEAUbig_integer@1@AEBU21@@Z 000000018002cff8     libucrt:cfout.obj
 0002:0000c00c       $chain$6$?divide@__crt_strtox@@YA_KAEAUbig_integer@1@AEBU21@@Z 000000018002d00c     libucrt:cfout.obj
 0002:0000c01c       $unwind$_fcloseall         000000018002d01c     libucrt:closeall.obj
 0002:0000c040       $unwind$?common_flush_all@@YAH_N@Z 000000018002d040     libucrt:fflush.obj
 0002:0000c048       $unwind$??$?RV<lambda_842d9ff0dc9ef11c61343bbaebe7f885>@@AEAV<lambda_c5860995281e5c4ce005b3de8f5874ee>@@V<lambda_d90129c13df834fdcbf8d2b88dafcf2d>@@@?$__crt_seh_guarded_call@X@@QEAAX$$QEAV<lambda_842d9ff0dc9ef11c61343bbaebe7f885>@@AEAV<lambda_c5860995281e5c4ce005b3de8f5874ee>@@$$QEAV<lambda_d90129c13df834fdcbf8d2b88dafcf2d>@@@Z 000000018002d048     libucrt:fflush.obj
 0002:0000c06c       $unwind$??$?RV<lambda_886d6c58226a84441f68b9f2b8217b83>@@AEAV<lambda_ab61a845afdef5b7c387490eaf3616ee>@@V<lambda_f7f22ab5edc0698d5f6905b0d3f44752>@@@?$__crt_seh_guarded_call@X@@QEAAX$$QEAV<lambda_886d6c58226a84441f68b9f2b8217b83>@@AEAV<lambda_ab61a845afdef5b7c387490eaf3616ee>@@$$QEAV<lambda_f7f22ab5edc0698d5f6905b0d3f44752>@@@Z 000000018002d06c     libucrt:fflush.obj
 0002:0000c094       $unwind$__acrt_locale_free_monetary 000000018002d094     libucrt:initmon.obj
 0002:0000c09c       $unwind$__acrt_locale_free_time 000000018002d09c     libucrt:inittime.obj
 0002:0000c0ac       $unwind$__acrt_GetStringTypeA 000000018002d0ac     libucrt:getstringtypea.obj
 0002:0000c0d4       $unwind$__acrt_lowio_destroy_handle_array 000000018002d0d4     libucrt:osfinfo.obj
 0002:0000c0e4       $unwind$__acrt_lowio_ensure_fh_exists 000000018002d0e4     libucrt:osfinfo.obj
 0002:0000c110       $unwind$qsort              000000018002d110     libucrt:qsort.obj
 0002:0000c128       $chain$4$qsort             000000018002d128     libucrt:qsort.obj
 0002:0000c14c       $chain$5$qsort             000000018002d14c     libucrt:qsort.obj
 0002:0000c15c       $unwind$?shortsort@@YAXPEAD0_KP6AHPEBX2@Z@Z 000000018002d15c     libucrt:qsort.obj
 0002:0000c16c       $chain$2$?shortsort@@YAXPEAD0_KP6AHPEBX2@Z@Z 000000018002d16c     libucrt:qsort.obj
 0002:0000c188       $chain$3$?shortsort@@YAXPEAD0_KP6AHPEBX2@Z@Z 000000018002d188     libucrt:qsort.obj
 0002:0000c198       $unwind$strpbrk            000000018002d198     libucrt:strpbrk.obj
 0002:0000c1a8       $xdatasym                  000000018002d1a8     libucrt:log10.obj
 0002:0000c1b4       $unwind$_write             000000018002d1b4     libucrt:write.obj
 0002:0000c1e4       $unwind$_write_nolock      000000018002d1e4     libucrt:write.obj
 0002:0000c1fc       $unwind$?write_double_translated_ansi_nolock@@YA?AUwrite_result@?A0x17268360@@HQEBDI@Z 000000018002d1fc     libucrt:write.obj
 0002:0000c21c       $unwind$?write_text_utf16le_nolock@@YA?AUwrite_result@?A0x17268360@@HQEBDI@Z 000000018002d21c     libucrt:write.obj
 0002:0000c21c       $unwind$?write_text_ansi_nolock@@YA?AUwrite_result@?A0x17268360@@HQEBDI@Z 000000018002d21c     libucrt:write.obj
 0002:0000c23c       $unwind$?write_text_utf8_nolock@@YA?AUwrite_result@?A0x17268360@@HQEBDI@Z 000000018002d23c     libucrt:write.obj
 0002:0000c260       $unwind$fclose             000000018002d260     libucrt:fclose.obj
 0002:0000c284       $unwind$_close             000000018002d284     libucrt:close.obj
 0002:0000c284       $unwind$_commit            000000018002d284     libucrt:commit.obj
 0002:0000c28c       $unwind$??$?RV<lambda_a37b2b86f63e897a80ea819b0eb08c01>@@AEAV<lambda_38ce7e780aa69e748d6df282ebc68efe>@@V<lambda_99fb1378e971ab6e7edea83e3a7a83a2>@@@?$__crt_seh_guarded_call@H@@QEAAH$$QEAV<lambda_a37b2b86f63e897a80ea819b0eb08c01>@@AEAV<lambda_38ce7e780aa69e748d6df282ebc68efe>@@$$QEAV<lambda_99fb1378e971ab6e7edea83e3a7a83a2>@@@Z 000000018002d28c     libucrt:commit.obj
 0002:0000c2b0       $unwind$common_control87   000000018002d2b0     libucrt:ieee.obj
 0002:0000c2e0       $unwind$_call_matherr      000000018002d2e0     libucrt:libm_error.obj
 0002:0000c2e8       $unwind$_handle_error      000000018002d2e8     libucrt:libm_error.obj
 0002:0000c308       $unwind$__acrt_initialize_fma3 000000018002d308     libucrt:fma3_available.obj
 0002:0000c310       $unwind$_log_special_common 000000018002d310     libucrt:log_special.obj
 0002:0000c31c       $unwind$??$?RV<lambda_751a882b2c74d4b022dec766aa51a29a>@@AEAV<lambda_628dfdc04ba53c8bfc02c9951375f3f5>@@V<lambda_f6c7be5f7998530c34de24c7437d6b54>@@@?$__crt_seh_guarded_call@H@@QEAAH$$QEAV<lambda_751a882b2c74d4b022dec766aa51a29a>@@AEAV<lambda_628dfdc04ba53c8bfc02c9951375f3f5>@@$$QEAV<lambda_f6c7be5f7998530c34de24c7437d6b54>@@@Z 000000018002d31c     libucrt:close.obj
 0002:0000c340       $xdatasym                  000000018002d340     libucrt:fpsr.obj
 0002:0000c348       $unwind$_raise_exc_ex      000000018002d348     libucrt:fpexcept.obj
 0002:0000c35c       $unwind$_ctrlfp            000000018002d35c     libucrt:fpctrl.obj
 0002:0000c384       $unwind$_IsNonwritableInCurrentImage 000000018002d384     LIBCMT:pesect.obj
 0002:0000c3a8       $unwind$strrchr            000000018002d3a8     libvcruntime:strrchr.obj
 0002:0000c510       .edata                     000000018002d510     OPOSKeylock.exp
 0002:0000c538       rgpv                       000000018002d538     OPOSKeylock.exp
 0002:0000c548       rgszName                   000000018002d548     OPOSKeylock.exp
 0002:0000c558       rgwOrd                     000000018002d558     OPOSKeylock.exp
 0002:0000c560       szName                     000000018002d560     OPOSKeylock.exp
 0002:0000c570       $N00001                    000000018002d570     OPOSKeylock.exp
 0002:0000c580       $N00002                    000000018002d580     OPOSKeylock.exp
 0002:0000c592       $N00003                    000000018002d592     OPOSKeylock.exp
 0002:0000c5a4       $N00004                    000000018002d5a4     OPOSKeylock.exp
 0002:0000cedc       .idata$6                   000000018002dedc     kernel32:KERNEL32.dll
 0002:0000d0f4       .idata$6                   000000018002e0f4     user32:USER32.dll
 0002:0000d228       .idata$6                   000000018002e228     gdi32:GDI32.dll
 0002:0000d2ce       .idata$6                   000000018002e2ce     advapi32:ADVAPI32.dll
 0002:0000d3ea       .idata$6                   000000018002e3ea     ole32:ole32.dll
 0002:0000d3f4       .idata$6                   000000018002e3f4     oleaut32:OLEAUT32.dll
 0003:000001c0       ?ObjectMap@@3PAU_ATL_OBJMAP_ENTRY30@ATL@@A 000000018002f1c0     Keylock.obj
 0003:000002b0       ?s_SOMethodNames@@3PAPEADA 000000018002f2b0     KeylockImpl.obj
 0003:00000340       ?s_RequiredMethodsPerRelease@@3PAHA 000000018002f340     KeylockImpl.obj
 0003:000003a0       ?__vcrt_flsindex@@3KA      000000018002f3a0     libvcruntime:per_thread_data.obj
 0003:000003b0       ?errno_no_memory@@3HA      000000018002f3b0     libucrt:errno.obj
 0003:000003b4       ?doserrno_no_memory@@3KA   000000018002f3b4     libucrt:errno.obj
 0003:000003c0       ?__acrt_flsindex@@3KA      000000018002f3c0     libucrt:per_thread_data.obj
 0003:00000880       _mbctypes                  000000018002f880     libucrt:mbctype.obj
 0003:00000990       _mbcasemaps                000000018002f990     libucrt:mbctype.obj
 0003:00000a90       ?__rgctypeflag@@3PADA      000000018002fa90     libucrt:mbctype.obj
 0003:00000aa0       ?__rgcode_page_info@@3PAUcode_page_info@@A 000000018002faa0     libucrt:mbctype.obj
 0003:00000c40       ?dazSupported@?1??common_control87@@9@9 000000018002fc40     libucrt:ieee.obj
 0003:00000c50       ?dazSupported@?1??_ctrlfp@@9@9 000000018002fc50     libucrt:fpctrl.obj
 0003:00000ea0       ?is_initialized_as_dll@@3_NA 000000018002fea0     LIBCMT:utility.obj
 0003:00000ea1       ?module_local_atexit_table_initialized@@3_NA 000000018002fea1     LIBCMT:utility.obj
 0003:00000ea8       ?module_local_atexit_table@@3U_onexit_table_t@@A 000000018002fea8     LIBCMT:utility.obj
 0003:00000ec0       ?module_local_at_quick_exit_table@@3U_onexit_table_t@@A 000000018002fec0     LIBCMT:utility.obj
 0003:00000ed8       ?_Tss_mutex@@3U_RTL_CRITICAL_SECTION@@A 000000018002fed8     LIBCMT:thread_safe_statics.obj
 0003:00000f00       ?_Tss_cv@@3U_RTL_CONDITION_VARIABLE@@A 000000018002ff00     LIBCMT:thread_safe_statics.obj
 0003:00000f08       ?_Tss_event@@3PEAXEA       000000018002ff08     LIBCMT:thread_safe_statics.obj
 0003:00000f10       ?encoded_sleep_condition_variable_cs@@3P6AHPEAU_RTL_CONDITION_VARIABLE@@PEAU_RTL_CRITICAL_SECTION@@K@ZEA 000000018002ff10     LIBCMT:thread_safe_statics.obj
 0003:00000f18       ?encoded_wake_all_condition_variable@@3P6AXPEAU_RTL_CONDITION_VARIABLE@@@ZEA 000000018002ff18     LIBCMT:thread_safe_statics.obj
 0003:00000f20       GS_ExceptionRecord         000000018002ff20     LIBCMT:gs_report.obj
 0003:00000fc0       GS_ContextRecord           000000018002ffc0     LIBCMT:gs_report.obj
 0003:00001494       ?__proc_attached@@3HA      0000000180030494     LIBCMT:dll_dllmain.obj
 0003:00001528       ?AllocateData@@3P6APEAUAtlThunkData_t@@XZEA 0000000180030528     atls:atlthunk.obj
 0003:00001530       ?InitData@@3P6AXPEAUAtlThunkData_t@@PEAX_K@ZEA 0000000180030530     atls:atlthunk.obj
 0003:00001538       ?DataToCode@@3P6AP6A_JPEAUHWND__@@I_K_J@ZPEAUAtlThunkData_t@@@ZEA 0000000180030538     atls:atlthunk.obj
 0003:00001540       ?FreeData@@3P6AXPEAUAtlThunkData_t@@@ZEA 0000000180030540     atls:atlthunk.obj
 0003:00001548       ?Initialized@@3_NA         0000000180030548     atls:atlthunk.obj
 0003:00001560       ?__vcrt_startup_thread_ptd@@3U__vcrt_ptd@@A 0000000180030560     libvcruntime:per_thread_data.obj
 0003:000015f0       __vcrt_lock_table          00000001800305f0     libvcruntime:locks.obj
 0003:00001618       __vcrt_locks_initialized   0000000180030618     libvcruntime:locks.obj
 0003:00001620       ?module_handles@@3PAPEAUHINSTANCE__@@A 0000000180030620     libvcruntime:winapi_downlevel.obj
 0003:00001638       ?encoded_function_pointers@@3PAPEAXA 0000000180030638     libvcruntime:winapi_downlevel.obj
 0003:000016a0       ?heap@@3V_HeapManager@@A   00000001800306a0     libvcruntime:undname.obj
 0003:000016c8       ?__acrt_invalid_parameter_handler@@3V?$dual_state_global@P6AXPEB_W00I_K@Z@__crt_state_management@@A 00000001800306c8     libucrt:invalid_parameter.obj
 0003:000016d0       ?c_termination_complete@@3JA 00000001800306d0     libucrt:exit.obj
 0003:000016d8       ?thread_local_exit_callback_func@@3P6AXPEAXK0@ZEA 00000001800306d8     libucrt:exit.obj
 0003:000016f0       ?program_name@?1???$common_configure_argv@D@@YAHW4_crt_argv_mode@@@Z@4PADA 00000001800306f0     libucrt:argv_parsing.obj
 0003:00001848       ?__acrt_new_handler@@3V?$dual_state_global@P6AH_K@Z@__crt_state_management@@A 0000000180030848     libucrt:new_handler.obj
 0003:00001850       ?module_handles@@3PAPEAUHINSTANCE__@@A 0000000180030850     libucrt:winapi_thunks.obj
 0003:000018f0       ?encoded_function_pointers@@3PAPEAXA 00000001800308f0     libucrt:winapi_thunks.obj
 0003:00001a10       ?enable_percent_n@@3_KA    0000000180030a10     libucrt:printf_count_output.obj
 0003:00001e50       ?__acrt_lock_table@@3PAU_RTL_CRITICAL_SECTION@@A 0000000180030e50     libucrt:locks.obj
 0003:00002080       ?__acrt_locks_initialized@@3IA 0000000180031080     libucrt:locks.obj
 0003:000020a0       ?fSystemSet@@3HA           00000001800310a0     libucrt:mbctype.obj
 0003:000020a4       ?initialized@?1??__acrt_initialize_multibyte@@9@4_NA 00000001800310a4     libucrt:mbctype.obj
 0003:000020e0       ?ctrlc_action@@3V?$dual_state_global@P6AXH@Z@__crt_state_management@@A 00000001800310e0     libucrt:signal.obj
 0003:000020e8       ?ctrlbreak_action@@3V?$dual_state_global@P6AXH@Z@__crt_state_management@@A 00000001800310e8     libucrt:signal.obj
 0003:000020f0       ?abort_action@@3V?$dual_state_global@P6AXH@Z@__crt_state_management@@A 00000001800310f0     libucrt:signal.obj
 0003:000020f8       ?term_action@@3V?$dual_state_global@P6AXH@Z@__crt_state_management@@A 00000001800310f8     libucrt:signal.obj
 0003:00002100       ?user_matherr@@3V?$dual_state_global@P6AHPEAU_exception@@@Z@__crt_state_management@@A 0000000180031100     libucrt:matherr.obj
 0003:00002108       ?__acrt_global_new_mode@@3V?$dual_state_global@J@__crt_state_management@@A 0000000180031108     libucrt:new_mode.obj
 0003:00002114       ?__acrt_app_type@@3W4_crt_app_type@@A 0000000180031114     libucrt:report_runtime_error.obj
 0004:00000000       $pdata$?cw_memcpy@@YAHPEA_WPEBDH@Z 0000000180032000     CWString.obj
 0004:0000000c       $pdata$?cw_strcpy@@YAHPEA_WPEBD@Z 000000018003200c     CWString.obj
 0004:00000018       $pdata$?cw_dup@@YAXPEBDAEAHAEAPEA_W1@Z 0000000180032018     CWString.obj
 0004:00000024       $pdata$?DupWide@_CW@@AEAAXXZ 0000000180032024     CWString.obj
 0004:00000030       $pdata$?AtlWinModuleTerm@ATL@@YAJPEAU_ATL_WIN_MODULE70@1@PEAUHINSTANCE__@@@Z 0000000180032030     OposVariant.obj
 0004:0000003c       $pdata$??0CAtlComModule@ATL@@QEAA@XZ 000000018003203c     OposVariant.obj
 0004:00000048       $pdata$?Term@CAtlComModule@ATL@@QEAAXXZ 0000000180032048     OposVariant.obj
 0004:00000054       $pdata$??__E_AtlComModule@ATL@@YAXXZ 0000000180032054     OposVariant.obj
 0004:00000060       $pdata$??0CAtlWinModule@ATL@@QEAA@XZ 0000000180032060     OposVariant.obj
 0004:0000006c       $pdata$??__E_AtlWinModule@ATL@@YAXXZ 000000018003206c     OposVariant.obj
 0004:00000078       $pdata$??__F_AtlWinModule@ATL@@YAXXZ 0000000180032078     OposVariant.obj
 0004:00000084       $pdata$??_Estringdispid@CComTypeInfoHolder@ATL@@QEAAPEAXI@Z 0000000180032084     OposVariant.obj
 0004:00000090       $pdata$?SetVARIANT_BOOL@OposVariant@@QEAAXF@Z 0000000180032090     OposVariant.obj
 0004:0000009c       $pdata$?GetLONG@OposVariant@@QEAAJXZ 000000018003209c     OposVariant.obj
 0004:000000a8       $pdata$?ChangeLONG@OposVariant@@QEAAXPEAJAEAJ@Z 00000001800320a8     OposVariant.obj
 0004:000000b4       $pdata$?SetLONG@OposVariant@@QEAAXJ@Z 00000001800320b4     OposVariant.obj
 0004:000000c0       $pdata$?SetLONG_Ptr@OposVariant@@QEAAXPEAJAEAJ@Z 00000001800320c0     OposVariant.obj
 0004:000000cc       $pdata$?ChangeBSTR@OposVariant@@QEAAXPEAPEA_WAEAJ@Z 00000001800320cc     OposVariant.obj
 0004:000000d8       $pdata$?SetBSTR@OposVariant@@QEAAXPEA_WAEAJ@Z 00000001800320d8     OposVariant.obj
 0004:000000e4       $pdata$?SetBSTR_Copy@OposVariant@@QEAAXPEA_WAEAJ@Z 00000001800320e4     OposVariant.obj
 0004:000000f0       $pdata$?SetBSTR_InOutPtr@OposVariant@@QEAA_NPEAPEA_WAEAJ@Z 00000001800320f0     OposVariant.obj
 0004:000000fc       $pdata$?SetString@OposVariant@@QEAAXPEB_WAEAJ@Z 00000001800320fc     OposVariant.obj
 0004:00000108       $pdata$?SetDispatch_Ptr@OposVariant@@QEAAXPEAUIDispatch@@AEAJ@Z 0000000180032108     OposVariant.obj
 0004:00000114       $pdata$??0OposDispParms@@QEAA@PEAVOposVariant@@H@Z 0000000180032114     OposVariant.obj
 0004:00000120       $pdata$??1OposDispParms@@QEAA@XZ 0000000180032120     OposVariant.obj
 0004:0000012c       $pdata$memcpy_s            000000018003212c     Keylock.obj
 0004:00000138       $pdata$?AtlThrowImpl@ATL@@YAXJ@Z 0000000180032138     Keylock.obj
 0004:00000144       $pdata$swprintf_s          0000000180032144     Keylock.obj
 0004:00000150       $pdata$?_AtlVerifyStackAvailable@_ATL_SAFE_ALLOCA_IMPL@ATL@@YA_N_K@Z 0000000180032150     Keylock.obj
 0004:0000015c       $pdata$?filt$0@?0??_AtlVerifyStackAvailable@_ATL_SAFE_ALLOCA_IMPL@ATL@@YA_N_K@Z@4HA 000000018003215c     Keylock.obj
 0004:00000168       $pdata$?AtlHresultFromLastError@ATL@@YAJXZ 0000000180032168     Keylock.obj
 0004:00000174       $pdata$?AtlInternalOleLoadFromStream@ATL@@YAJPEAUIStream@@AEBU_GUID@@PEAPEAXTClassesAllowedInStream@1@K@Z 0000000180032174     Keylock.obj
 0004:00000180       $pdata$?PutProperty@?$CComPtr@UIDispatch@@@ATL@@SAJPEAUIDispatch@@JPEAUtagVARIANT@@@Z 0000000180032180     Keylock.obj
 0004:0000018c       $pdata$?WriteToStream@CComBSTR@ATL@@QEAAJPEAUIStream@@@Z 000000018003218c     Keylock.obj
 0004:00000198       $pdata$?ReadFromStream@CComBSTR@ATL@@QEAAJPEAUIStream@@@Z 0000000180032198     Keylock.obj
 0004:000001a4       $pdata$?WriteToStream@CComVariant@ATL@@QEAAJPEAUIStream@@@Z 00000001800321a4     Keylock.obj
 0004:000001b0       $pdata$?WriteToStream@CComVariant@ATL@@QEAAJPEAUIStream@@G@Z 00000001800321b0     Keylock.obj
 0004:000001bc       $pdata$?ReadFromStream@CComVariant@ATL@@QEAAJPEAUIStream@@GTClassesAllowedInStream@2@K@Z 00000001800321bc     Keylock.obj
 0004:000001c8       $pdata$?GetSizeMax@CComVariant@ATL@@QEBAJPEAT_ULARGE_INTEGER@@@Z 00000001800321c8     Keylock.obj
 0004:000001d4       $pdata$?RegCreateKeyExW@CAtlTransactionManager@ATL@@QEAAJPEAUHKEY__@@PEB_WKPEA_WKKQEAU_SECURITY_ATTRIBUTES@@PEAPEAU3@PEAK@Z 00000001800321d4     Keylock.obj
 0004:000001e0       $pdata$?RegOpenKeyExW@CAtlTransactionManager@ATL@@QEAAJPEAUHKEY__@@PEB_WKKPEAPEAU3@@Z 00000001800321e0     Keylock.obj
 0004:000001ec       $pdata$?RegDeleteKeyW@CAtlTransactionManager@ATL@@QEAAJPEAUHKEY__@@PEB_W@Z 00000001800321ec     Keylock.obj
 0004:000001f8       $pdata$?Add@?$CSimpleArray@GV?$CSimpleArrayEqualHelper@G@ATL@@@ATL@@QEAAHAEBG@Z 00000001800321f8     Keylock.obj
 0004:00000204       $pdata$?AtlInternalQueryInterface@ATL@@YAJPEAXPEBU_ATL_INTMAP_ENTRY@1@AEBU_GUID@@PEAPEAX@Z 0000000180032204     Keylock.obj
 0004:00000210       $pdata$?AtlComModuleGetClassObject@ATL@@YAJPEAU_ATL_COM_MODULE70@1@AEBU_GUID@@1PEAPEAX@Z 0000000180032210     Keylock.obj
 0004:0000021c       $pdata$?AtlRegisterClassCategoriesHelper@ATL@@YAJAEBU_GUID@@PEBU_ATL_CATMAP_ENTRY@1@H@Z 000000018003221c     Keylock.obj
 0004:00000228       $pdata$?AtlLoadTypeLib@ATL@@YAJPEAUHINSTANCE__@@PEB_WPEAPEA_WPEAPEAUITypeLib@@@Z 0000000180032228     Keylock.obj
 0004:00000234       $pdata$?AtlRegisterTypeLib@ATL@@YAJPEAUHINSTANCE__@@PEB_W@Z 0000000180032234     Keylock.obj
 0004:00000240       $pdata$?AtlUnRegisterTypeLib@ATL@@YAJPEAUHINSTANCE__@@PEB_W@Z 0000000180032240     Keylock.obj
 0004:0000024c       $pdata$?AtlComModuleRegisterServer@ATL@@YAJPEAU_ATL_COM_MODULE70@1@HPEBU_GUID@@@Z 000000018003224c     Keylock.obj
 0004:00000258       $pdata$?AtlComModuleUnregisterServer@ATL@@YAJPEAU_ATL_COM_MODULE70@1@HPEBU_GUID@@@Z 0000000180032258     Keylock.obj
 0004:00000264       $pdata$?AtlModuleAddTermFunc@ATL@@YAJPEAU_ATL_MODULE70@1@P6AX_K@Z1@Z 0000000180032264     Keylock.obj
 0004:00000270       $pdata$?AtlCallTermFunc@ATL@@YAXPEAU_ATL_MODULE70@1@@Z 0000000180032270     Keylock.obj
 0004:0000027c       $pdata$?AtlWinModuleExtractCreateWndData@ATL@@YAPEAXPEAU_ATL_WIN_MODULE70@1@@Z 000000018003227c     Keylock.obj
 0004:00000288       $pdata$?Create@CRegKey@ATL@@QEAAJPEAUHKEY__@@PEB_WPEA_WKKPEAU_SECURITY_ATTRIBUTES@@PEAK@Z 0000000180032288     Keylock.obj
 0004:00000294       $pdata$?Open@CRegKey@ATL@@QEAAJPEAUHKEY__@@PEB_WK@Z 0000000180032294     Keylock.obj
 0004:000002a0       $pdata$?RecurseDeleteKey@CRegKey@ATL@@QEAAJPEB_W@Z 00000001800322a0     Keylock.obj
 0004:000002ac       $pdata$??0CAtlModule@ATL@@QEAA@XZ 00000001800322ac     Keylock.obj
 0004:000002b8       $pdata$?GetGITPtr@CAtlModule@ATL@@UEAAJPEAPEAUIGlobalInterfaceTable@@@Z 00000001800322b8     Keylock.obj
 0004:000002c4       $pdata$?UpdateRegistryFromResource@CAtlModule@ATL@@QEAAJPEB_WHPEAU_ATL_REGMAP_ENTRY@2@@Z 00000001800322c4     Keylock.obj
 0004:000002d0       $pdata$?UpdateRegistryFromResource@CAtlModule@ATL@@QEAAJIHPEAU_ATL_REGMAP_ENTRY@2@@Z 00000001800322d0     Keylock.obj
 0004:000002dc       $pdata$?Term@CComModule@ATL@@QEAAXXZ 00000001800322dc     Keylock.obj
 0004:000002e8       $pdata$?GetClassObject@CComModule@ATL@@QEAAJAEBU_GUID@@0PEAPEAX@Z 00000001800322e8     Keylock.obj
 0004:000002f4       $pdata$?RegisterServer@CComModule@ATL@@QEAAJHPEBU_GUID@@@Z 00000001800322f4     Keylock.obj
 0004:00000300       $pdata$?UnregisterServer@CComModule@ATL@@QEAAJHPEBU_GUID@@@Z 0000000180032300     Keylock.obj
 0004:0000030c       $pdata$??_GCComModule@ATL@@UEAAPEAXI@Z 000000018003230c     Keylock.obj
 0004:00000318       $pdata$?Add@?$CSimpleMap@PEA_WPEA_WVCExpansionVectorEqualHelper@ATL@@@ATL@@QEAAHAEBQEA_W0@Z 0000000180032318     Keylock.obj
 0004:00000324       $pdata$?Lookup@?$CSimpleMap@PEA_WPEA_WVCExpansionVectorEqualHelper@ATL@@@ATL@@QEBAPEA_WAEBQEA_W@Z 0000000180032324     Keylock.obj
 0004:00000330       $pdata$?Add@CExpansionVector@ATL@@QEAAHPEB_W0@Z 0000000180032330     Keylock.obj
 0004:0000033c       $pdata$?ClearReplacements@CExpansionVector@ATL@@QEAAJXZ 000000018003233c     Keylock.obj
 0004:00000348       $pdata$?PreProcessBuffer@CRegParser@ATL@@QEAAJPEA_WPEAPEA_W@Z 0000000180032348     Keylock.obj
 0004:00000354       $pdata$?RegisterBuffer@CRegParser@ATL@@QEAAJPEA_WH@Z 0000000180032354     Keylock.obj
 0004:00000360       $pdata$?NextToken@CRegParser@ATL@@IEAAJPEA_W@Z 0000000180032360     Keylock.obj
 0004:0000036c       $pdata$?AddValue@CRegParser@ATL@@IEAAJAEAVCRegKey@2@PEB_WPEA_W@Z 000000018003236c     Keylock.obj
 0004:00000378       $pdata$?RegisterSubkeys@CRegParser@ATL@@IEAAJPEA_WPEAUHKEY__@@HH@Z 0000000180032378     Keylock.obj
 0004:00000384       $pdata$?SkipAssignment@CRegParser@ATL@@IEAAJPEA_W@Z 0000000180032384     Keylock.obj
 0004:00000390       $pdata$?HKeyFromString@CRegParser@ATL@@KAPEAUHKEY__@@PEA_W@Z 0000000180032390     Keylock.obj
 0004:0000039c       $pdata$?VTFromRegType@CRegParser@ATL@@KAHPEB_WAEAG@Z 000000018003239c     Keylock.obj
 0004:000003a8       $pdata$?Append@CParseBuffer@CRegParser@ATL@@QEAAHPEB_WH@Z 00000001800323a8     Keylock.obj
 0004:000003b4       $pdata$?AddReplacement@CRegObject@ATL@@UEAAJPEB_W0@Z 00000001800323b4     Keylock.obj
 0004:000003c0       $pdata$?RegisterFromResource@CRegObject@ATL@@IEAAJPEB_W00H@Z 00000001800323c0     Keylock.obj
 0004:000003cc       $pdata$??_GCRegObject@ATL@@UEAAPEAXI@Z 00000001800323cc     Keylock.obj
 0004:000003d8       $pdata$?AllocateHeap@?$CTempBuffer@_W$0EAA@VCCRTAllocator@ATL@@@ATL@@AEAAX_K@Z 00000001800323d8     Keylock.obj
 0004:000003d8       $pdata$?AllocateHeap@?$CTempBuffer@E$0BAA@VCCRTAllocator@ATL@@@ATL@@AEAAX_K@Z 00000001800323d8     Keylock.obj
 0004:000003d8       $pdata$?AllocateHeap@?$CTempBuffer@_W$0BAA@VCCRTAllocator@ATL@@@ATL@@AEAAX_K@Z 00000001800323d8     Keylock.obj
 0004:000003e4       $pdata$?IsEqualObject@?$CComPtrBase@UIOleClientSite@@@ATL@@QEAA_NPEAUIUnknown@@@Z 00000001800323e4     Keylock.obj
 0004:000003e4       $pdata$?IsEqualObject@?$CComPtrBase@UITypeInfo@@@ATL@@QEAA_NPEAUIUnknown@@@Z 00000001800323e4     Keylock.obj
 0004:000003f0       $pdata$?AtlIPersistStreamInit_Load@ATL@@YAJPEAUIStream@@PEBUATL_PROPMAP_ENTRY@1@PEAXPEAUIUnknown@@@Z 00000001800323f0     Keylock.obj
 0004:000003fc       $pdata$?AtlIPersistStreamInit_Save@ATL@@YAJPEAUIStream@@HPEBUATL_PROPMAP_ENTRY@1@PEAXPEAUIUnknown@@@Z 00000001800323fc     Keylock.obj
 0004:00000408       $pdata$?CreateInstance@CComClassFactory@ATL@@UEAAJPEAUIUnknown@@AEBU_GUID@@PEAPEAX@Z 0000000180032408     Keylock.obj
 0004:00000414       $pdata$?LockServer@CComClassFactory@ATL@@UEAAJH@Z 0000000180032414     Keylock.obj
 0004:00000420       $pdata$??_GCComClassFactory@ATL@@UEAAPEAXI@Z 0000000180032420     Keylock.obj
 0004:0000042c       $pdata$?GetTI@CComTypeInfoHolder@ATL@@QEAAJK@Z 000000018003242c     Keylock.obj
 0004:00000438       $pdata$?Cleanup@CComTypeInfoHolder@ATL@@SAX_K@Z 0000000180032438     Keylock.obj
 0004:00000444       $pdata$?GetIDsOfNames@CComTypeInfoHolder@ATL@@QEAAJAEBU_GUID@@PEAPEA_WIKPEAJ@Z 0000000180032444     Keylock.obj
 0004:00000450       $pdata$?LoadNameCache@CComTypeInfoHolder@ATL@@QEAAJPEAUITypeInfo@@@Z 0000000180032450     Keylock.obj
 0004:0000045c       $pdata$?Add@CComDynamicUnkArray@ATL@@QEAAKPEAUIUnknown@@@Z 000000018003245c     Keylock.obj
 0004:00000468       $pdata$?AtlCreateTargetDC@ATL@@YAPEAUHDC__@@PEAU2@PEAUtagDVTARGETDEVICE@@@Z 0000000180032468     Keylock.obj
 0004:00000474       $pdata$?AtlHiMetricToPixel@ATL@@YAXPEBUtagSIZE@@PEAU2@@Z 0000000180032474     Keylock.obj
 0004:00000480       $pdata$?DefaultReflectionHandler@?$CWindowImplRoot@VCWindow@ATL@@@ATL@@SAHPEAUHWND__@@I_K_JAEA_J@Z 0000000180032480     Keylock.obj
 0004:0000048c       $pdata$?StartWindowProc@?$CWindowImplBaseT@VCWindow@ATL@@V?$CWinTraits@$0FGAAAAAA@$0A@@2@@ATL@@SA_JPEAUHWND__@@I_K_J@Z 000000018003248c     Keylock.obj
 0004:00000498       $pdata$?WindowProc@?$CWindowImplBaseT@VCWindow@ATL@@V?$CWinTraits@$0FGAAAAAA@$0A@@2@@ATL@@SA_JPEAUHWND__@@I_K_J@Z 0000000180032498     Keylock.obj
 0004:000004a4       $pdata$?Create@?$CWindowImplBaseT@VCWindow@ATL@@V?$CWinTraits@$0FGAAAAAA@$0A@@2@@ATL@@QEAAPEAUHWND__@@PEAU3@V_U_RECT@2@PEB_WKKV_U_MENUorID@2@GPEAX@Z 00000001800324a4     Keylock.obj
 0004:000004b0       $pdata$??$AtlModuleRegisterWndClassInfoT@VAtlModuleRegisterWndClassInfoParamW@ATL@@@ATL@@YAGPEAU_ATL_BASE_MODULE70@0@PEAU_ATL_WIN_MODULE70@0@PEAU_ATL_WNDCLASSINFOW@0@PEAP6A_JPEAUHWND__@@I_K_J@ZVAtlModuleRegisterWndClassInfoParamW@0@@Z 00000001800324b0     Keylock.obj
 0004:000004bc       $pdata$?GetZoomInfo@CComControlBase@ATL@@QEAAXAEAUATL_DRAWINFO@@@Z 00000001800324bc     Keylock.obj
 0004:000004c8       $pdata$?SendOnDataChange@CComControlBase@ATL@@QEAAJK@Z 00000001800324c8     Keylock.obj
 0004:000004d4       $pdata$?OnSetFocus@CComControlBase@ATL@@QEAA_JI_K_JAEAH@Z 00000001800324d4     Keylock.obj
 0004:000004e0       $pdata$?OnKillFocus@CComControlBase@ATL@@QEAA_JI_K_JAEAH@Z 00000001800324e0     Keylock.obj
 0004:000004ec       $pdata$?OnMouseActivate@CComControlBase@ATL@@QEAA_JI_K_JAEAH@Z 00000001800324ec     Keylock.obj
 0004:000004f8       $pdata$?GetAmbientLocaleID@CComControlBase@ATL@@QEAAJAEAK@Z 00000001800324f8     Keylock.obj
 0004:00000504       $pdata$?GetAmbientUserMode@CComControlBase@ATL@@QEAAJAEAH@Z 0000000180032504     Keylock.obj
 0004:00000510       $pdata$?SetControlFocus@CComControlBase@ATL@@QEAAHH@Z 0000000180032510     Keylock.obj
 0004:0000051c       $pdata$?IQuickActivate_QuickActivate@CComControlBase@ATL@@QEAAJPEAUtagQACONTAINER@@PEAUtagQACONTROL@@@Z 000000018003251c     Keylock.obj
 0004:00000528       $pdata$?DoVerbProperties@CComControlBase@ATL@@QEAAJPEBUtagRECT@@PEAUHWND__@@@Z 0000000180032528     Keylock.obj
 0004:00000534       $pdata$?InPlaceActivate@CComControlBase@ATL@@QEAAJJPEBUtagRECT@@@Z 0000000180032534     Keylock.obj
 0004:00000540       $pdata$?IOleObject_SetClientSite@CComControlBase@ATL@@QEAAJPEAUIOleClientSite@@@Z 0000000180032540     Keylock.obj
 0004:0000054c       $pdata$?IOleObject_Close@CComControlBase@ATL@@QEAAJK@Z 000000018003254c     Keylock.obj
 0004:00000558       $pdata$?IOleObject_SetExtent@CComControlBase@ATL@@QEAAJKPEAUtagSIZE@@@Z 0000000180032558     Keylock.obj
 0004:00000564       $pdata$?IOleInPlaceObject_InPlaceDeactivate@CComControlBase@ATL@@QEAAJXZ 0000000180032564     Keylock.obj
 0004:00000570       $pdata$?IOleInPlaceObject_UIDeactivate@CComControlBase@ATL@@QEAAJXZ 0000000180032570     Keylock.obj
 0004:0000057c       $pdata$?IOleInPlaceObject_SetObjectRects@CComControlBase@ATL@@QEAAJPEBUtagRECT@@0@Z 000000018003257c     Keylock.obj
 0004:00000588       $pdata$?IViewObject_Draw@CComControlBase@ATL@@QEAAJKJPEAXPEAUtagDVTARGETDEVICE@@PEAUHDC__@@2PEBU_RECTL@@3@Z 0000000180032588     Keylock.obj
 0004:00000594       $pdata$?IDataObject_GetData@CComControlBase@ATL@@QEAAJPEAUtagFORMATETC@@PEAUtagSTGMEDIUM@@@Z 0000000180032594     Keylock.obj
 0004:000005a0       $pdata$?FireViewChange@CComControlBase@ATL@@QEAAJXZ 00000001800325a0     Keylock.obj
 0004:000005ac       $pdata$?OnPaint@CComControlBase@ATL@@QEAA_JI_K_JAEAH@Z 00000001800325ac     Keylock.obj
 0004:000005b8       $pdata$?OnDrawAdvanced@CComControlBase@ATL@@UEAAJAEAUATL_DRAWINFO@@@Z 00000001800325b8     Keylock.obj
 0004:000005c4       $pdata$?GetTypeInfo@?$IDispatchImpl@UIOPOSKeylock@@$1?IID_IOPOSKeylock@@3U_GUID@@B$1?LIBID_OposKeylock_CCO@@3U3@B$00$0A@VCComTypeInfoHolder@ATL@@@ATL@@UEAAJIKPEAPEAUITypeInfo@@@Z 00000001800325c4     Keylock.obj
 0004:000005d0       $pdata$?Invoke@?$IDispatchImpl@UIOPOSKeylock@@$1?IID_IOPOSKeylock@@3U_GUID@@B$1?LIBID_OposKeylock_CCO@@3U3@B$00$0A@VCComTypeInfoHolder@ATL@@@ATL@@UEAAJJAEBU_GUID@@KGPEAUtagDISPPARAMS@@PEAUtagVARIANT@@PEAUtagEXCEPINFO@@PEAI@Z 00000001800325d0     Keylock.obj
 0004:000005dc       $pdata$?Create@?$CWindowImpl@VCOPOSKeylock@@VCWindow@ATL@@V?$CWinTraits@$0FGAAAAAA@$0A@@3@@ATL@@QEAAPEAUHWND__@@PEAU3@V_U_RECT@2@PEB_WKKV_U_MENUorID@2@PEAX@Z 00000001800325dc     Keylock.obj
 0004:000005e8       $pdata$?CreateControlWindow@?$CComControl@VCOPOSKeylock@@V?$CWindowImpl@VCOPOSKeylock@@VCWindow@ATL@@V?$CWinTraits@$0FGAAAAAA@$0A@@3@@ATL@@@ATL@@UEAAPEAUHWND__@@PEAU3@AEAUtagRECT@@@Z 00000001800325e8     Keylock.obj
 0004:000005f4       $pdata$?ProcessWindowMessage@?$CComControl@VCOPOSKeylock@@V?$CWindowImpl@VCOPOSKeylock@@VCWindow@ATL@@V?$CWinTraits@$0FGAAAAAA@$0A@@3@@ATL@@@ATL@@UEAAHPEAUHWND__@@I_K_JAEA_JK@Z 00000001800325f4     Keylock.obj
 0004:00000600       $pdata$?Load@?$IPersistStreamInitImpl@VCOPOSKeylock@@@ATL@@UEAAJPEAUIStream@@@Z 0000000180032600     Keylock.obj
 0004:0000060c       $pdata$?Save@?$IPersistStreamInitImpl@VCOPOSKeylock@@@ATL@@UEAAJPEAUIStream@@H@Z 000000018003260c     Keylock.obj
 0004:00000618       $pdata$?GetSizeMax@?$IPersistStreamInitImpl@VCOPOSKeylock@@@ATL@@UEAAJPEAT_ULARGE_INTEGER@@@Z 0000000180032618     Keylock.obj
 0004:00000624       $pdata$?GetClientSite@?$IOleObjectImpl@VCOPOSKeylock@@@ATL@@UEAAJPEAPEAUIOleClientSite@@@Z 0000000180032624     Keylock.obj
 0004:00000630       $pdata$?DoVerbPrimary@?$IOleObjectImpl@VCOPOSKeylock@@@ATL@@QEAAJPEBUtagRECT@@PEAUHWND__@@@Z 0000000180032630     Keylock.obj
 0004:0000063c       $pdata$?DoVerb@?$IOleObjectImpl@VCOPOSKeylock@@@ATL@@UEAAJJPEAUtagMSG@@PEAUIOleClientSite@@JPEAUHWND__@@PEBUtagRECT@@@Z 000000018003263c     Keylock.obj
 0004:00000648       $pdata$?Advise@?$IOleObjectImpl@VCOPOSKeylock@@@ATL@@UEAAJPEAUIAdviseSink@@PEAK@Z 0000000180032648     Keylock.obj
 0004:00000654       $pdata$?Unadvise@?$IOleObjectImpl@VCOPOSKeylock@@@ATL@@UEAAJK@Z 0000000180032654     Keylock.obj
 0004:00000660       $pdata$?EnumAdvise@?$IOleObjectImpl@VCOPOSKeylock@@@ATL@@UEAAJPEAPEAUIEnumSTATDATA@@@Z 0000000180032660     Keylock.obj
 0004:0000066c       $pdata$?TranslateAcceleratorW@?$IOleInPlaceActiveObjectImpl@VCOPOSKeylock@@@ATL@@UEAAJPEAUtagMSG@@@Z 000000018003266c     Keylock.obj
 0004:00000678       $pdata$?OnDocWindowActivate@?$IOleInPlaceActiveObjectImpl@VCOPOSKeylock@@@ATL@@UEAAJH@Z 0000000180032678     Keylock.obj
 0004:00000684       $pdata$?Draw@?$IViewObjectExImpl@VCOPOSKeylock@@@ATL@@UEAAJKJPEAXPEAUtagDVTARGETDEVICE@@PEAUHDC__@@2PEBU_RECTL@@3P6AH_K@Z4@Z 0000000180032684     Keylock.obj
 0004:00000690       $pdata$?SetAdvise@?$IViewObjectExImpl@VCOPOSKeylock@@@ATL@@UEAAJKKPEAUIAdviseSink@@@Z 0000000180032690     Keylock.obj
 0004:0000069c       $pdata$?GetAdvise@?$IViewObjectExImpl@VCOPOSKeylock@@@ATL@@UEAAJPEAK0PEAPEAUIAdviseSink@@@Z 000000018003269c     Keylock.obj
 0004:000006a8       $pdata$?QueryHitPoint@?$IViewObjectExImpl@VCOPOSKeylock@@@ATL@@UEAAJKPEBUtagRECT@@UtagPOINT@@JPEAK@Z 00000001800326a8     Keylock.obj
 0004:000006b4       $pdata$?QueryHitRect@?$IViewObjectExImpl@VCOPOSKeylock@@@ATL@@UEAAJKPEBUtagRECT@@0JPEAK@Z 00000001800326b4     Keylock.obj
 0004:000006c0       $pdata$?OnWindowMessage@?$IOleInPlaceObjectWindowlessImpl@VCOPOSKeylock@@@ATL@@UEAAJI_K_JPEA_J@Z 00000001800326c0     Keylock.obj
 0004:000006cc       $pdata$?EnumConnectionPoints@?$IConnectionPointContainerImpl@VCOPOSKeylock@@@ATL@@UEAAJPEAPEAUIEnumConnectionPoints@@@Z 00000001800326cc     Keylock.obj
 0004:000006d8       $pdata$?FindConnectionPoint@?$IConnectionPointContainerImpl@VCOPOSKeylock@@@ATL@@UEAAJAEBU_GUID@@PEAPEAUIConnectionPoint@@@Z 00000001800326d8     Keylock.obj
 0004:000006e4       $pdata$?IsDirty@?$IPersistStorageImpl@VCOPOSKeylock@@@ATL@@UEAAJXZ 00000001800326e4     Keylock.obj
 0004:000006f0       $pdata$?InitNew@?$IPersistStorageImpl@VCOPOSKeylock@@@ATL@@UEAAJPEAUIStorage@@@Z 00000001800326f0     Keylock.obj
 0004:000006fc       $pdata$?Load@?$IPersistStorageImpl@VCOPOSKeylock@@@ATL@@UEAAJPEAUIStorage@@@Z 00000001800326fc     Keylock.obj
 0004:00000708       $pdata$?Save@?$IPersistStorageImpl@VCOPOSKeylock@@@ATL@@UEAAJPEAUIStorage@@H@Z 0000000180032708     Keylock.obj
 0004:00000714       $pdata$?IPSI_GetIPersistStreamInit@?$IPersistStorageImpl@VCOPOSKeylock@@@ATL@@AEAAPEAUIPersistStreamInit@@XZ 0000000180032714     Keylock.obj
 0004:00000720       $pdata$?GetPagesHelper@?$ISpecifyPropertyPagesImpl@VCOPOSKeylock@@@ATL@@IEAAJPEAUtagCAUUID@@PEBUATL_PROPMAP_ENTRY@2@@Z 0000000180032720     Keylock.obj
 0004:0000072c       $pdata$?DAdvise@?$IDataObjectImpl@VCOPOSKeylock@@@ATL@@UEAAJPEAUtagFORMATETC@@KPEAUIAdviseSink@@PEAK@Z 000000018003272c     Keylock.obj
 0004:00000738       $pdata$?GetClassInfoW@?$IProvideClassInfo2Impl@$1?CLSID_OPOSKeylock@@3U_GUID@@B$1?DIID__IOPOSKeylockEvents@@3U2@B$1?LIBID_OposKeylock_CCO@@3U2@B$00$0A@VCComTypeInfoHolder@ATL@@@ATL@@UEAAJPEAPEAUITypeInfo@@@Z 0000000180032738     Keylock.obj
 0004:00000744       $pdata$?GetInterfaceSafetyOptions@?$IObjectSafetyImpl@VCOPOSKeylock@@$02@ATL@@UEAAJAEBU_GUID@@PEAK1@Z 0000000180032744     Keylock.obj
 0004:00000750       $pdata$?SetInterfaceSafetyOptions@?$IObjectSafetyImpl@VCOPOSKeylock@@$02@ATL@@UEAAJAEBU_GUID@@KK@Z 0000000180032750     Keylock.obj
 0004:0000075c       $pdata$?_LocCPQueryInterface@?$IConnectionPointImpl@VCOPOSKeylock@@$1?DIID__IOPOSKeylockEvents@@3U_GUID@@BVCComDynamicUnkArray@ATL@@@ATL@@UEAAJAEBU_GUID@@PEAPEAX@Z 000000018003275c     Keylock.obj
 0004:0000075c       $pdata$?_LocCPQueryInterface@?$IConnectionPointImpl@VCOPOSKeylock@@$1?IID_IPropertyNotifySink@@3U_GUID@@BVCComDynamicUnkArray@ATL@@@ATL@@UEAAJAEBU_GUID@@PEAPEAX@Z 000000018003275c     Keylock.obj
 0004:00000768       $pdata$?Advise@?$IConnectionPointImpl@VCOPOSKeylock@@$1?IID_IPropertyNotifySink@@3U_GUID@@BVCComDynamicUnkArray@ATL@@@ATL@@UEAAJPEAUIUnknown@@PEAK@Z 0000000180032768     Keylock.obj
 0004:00000768       $pdata$?Advise@?$IConnectionPointImpl@VCOPOSKeylock@@$1?DIID__IOPOSKeylockEvents@@3U_GUID@@BVCComDynamicUnkArray@ATL@@@ATL@@UEAAJPEAUIUnknown@@PEAK@Z 0000000180032768     Keylock.obj
 0004:00000774       $pdata$?Unadvise@?$IConnectionPointImpl@VCOPOSKeylock@@$1?IID_IPropertyNotifySink@@3U_GUID@@BVCComDynamicUnkArray@ATL@@@ATL@@UEAAJK@Z 0000000180032774     Keylock.obj
 0004:00000774       $pdata$?Unadvise@?$IConnectionPointImpl@VCOPOSKeylock@@$1?DIID__IOPOSKeylockEvents@@3U_GUID@@BVCComDynamicUnkArray@ATL@@@ATL@@UEAAJK@Z 0000000180032774     Keylock.obj
 0004:00000780       $pdata$?EnumConnections@?$IConnectionPointImpl@VCOPOSKeylock@@$1?DIID__IOPOSKeylockEvents@@3U_GUID@@BVCComDynamicUnkArray@ATL@@@ATL@@UEAAJPEAPEAUIEnumConnections@@@Z 0000000180032780     Keylock.obj
 0004:00000780       $pdata$?EnumConnections@?$IConnectionPointImpl@VCOPOSKeylock@@$1?IID_IPropertyNotifySink@@3U_GUID@@BVCComDynamicUnkArray@ATL@@@ATL@@UEAAJPEAPEAUIEnumConnections@@@Z 0000000180032780     Keylock.obj
 0004:0000078c       $pdata$?Fire_DirectIOEvent@?$CProxy_IOPOSEvents@VCOPOSKeylock@@@@QEAAXJPEAJPEAPEA_W@Z 000000018003278c     Keylock.obj
 0004:00000798       $pdata$?Fire_StatusUpdateEvent@?$CProxy_IOPOSEvents@VCOPOSKeylock@@@@QEAAXJ@Z 0000000180032798     Keylock.obj
 0004:000007a4       $pdata$?FireTheEvent@?$CProxy_IOPOSEvents@VCOPOSKeylock@@@@IEAAXPEAVOposVariant@@IAEAJPEB_WJ@Z 00000001800327a4     Keylock.obj
 0004:000007b0       $pdata$?GetConnMap@COPOSKeylock@@SAPEBU_ATL_CONNMAP_ENTRY@ATL@@PEAH@Z 00000001800327b0     Keylock.obj
 0004:000007bc       $pdata$?ProcessWindowMessage@COPOSKeylock@@UEAAHPEAUHWND__@@I_K_JAEA_JK@Z 00000001800327bc     Keylock.obj
 0004:000007c8       $pdata$?SODirectIO@COPOSKeylock@@MEAAJJPEAJPEAPEA_W@Z 00000001800327c8     Keylock.obj
 0004:000007d4       $pdata$?SOStatusUpdate@COPOSKeylock@@MEAAJJ@Z 00000001800327d4     Keylock.obj
 0004:000007e0       $pdata$?DoEvent@COPOSKeylock@@IEAAXI_K_J@Z 00000001800327e0     Keylock.obj
 0004:000007ec       $pdata$??__E_Module@@YAXXZ 00000001800327ec     Keylock.obj
 0004:000007f8       $pdata$??__F_Module@@YAXXZ 00000001800327f8     Keylock.obj
 0004:00000804       $pdata$?CreateInstance@?$CComCreator@V?$CComObjectCached@VCComClassFactory@ATL@@@ATL@@@ATL@@SAJPEAXAEBU_GUID@@PEAPEAX@Z 0000000180032804     Keylock.obj
 0004:00000810       $pdata$DllMain             0000000180032810     Keylock.obj
 0004:0000081c       $pdata$?CreateInstance@?$CComCreator@V?$CComObject@VCOPOSKeylock@@@ATL@@@ATL@@SAJPEAXAEBU_GUID@@PEAPEAX@Z 000000018003281c     Keylock.obj
 0004:00000828       $pdata$?CreateInstance@?$CComCreator@V?$CComAggObject@VCOPOSKeylock@@@ATL@@@ATL@@SAJPEAXAEBU_GUID@@PEAPEAX@Z 0000000180032828     Keylock.obj
 0004:00000834       $pdata$??1?$CComEnumImpl@UIEnumConnectionPoints@@$1?_GUID_b196b285_bab4_101a_b69c_00aa00341d07@@3U__s_GUID@@BPEAUIConnectionPoint@@V?$_CopyInterface@UIConnectionPoint@@@ATL@@@ATL@@UEAA@XZ 0000000180032834     Keylock.obj
 0004:00000840       $pdata$?Next@?$CComEnumImpl@UIEnumConnectionPoints@@$1?_GUID_b196b285_bab4_101a_b69c_00aa00341d07@@3U__s_GUID@@BPEAUIConnectionPoint@@V?$_CopyInterface@UIConnectionPoint@@@ATL@@@ATL@@UEAAJKPEAPEAUIConnectionPoint@@PEAK@Z 0000000180032840     Keylock.obj
 0004:0000084c       $pdata$?Clone@?$CComEnumImpl@UIEnumConnectionPoints@@$1?_GUID_b196b285_bab4_101a_b69c_00aa00341d07@@3U__s_GUID@@BPEAUIConnectionPoint@@V?$_CopyInterface@UIConnectionPoint@@@ATL@@@ATL@@UEAAJPEAPEAUIEnumConnectionPoints@@@Z 000000018003284c     Keylock.obj
 0004:00000858       $pdata$?Init@?$CComEnumImpl@UIEnumConnectionPoints@@$1?_GUID_b196b285_bab4_101a_b69c_00aa00341d07@@3U__s_GUID@@BPEAUIConnectionPoint@@V?$_CopyInterface@UIConnectionPoint@@@ATL@@@ATL@@QEAAJPEAPEAUIConnectionPoint@@0PEAUIUnknown@@W4CComEnumFlags@2@@Z 0000000180032858     Keylock.obj
 0004:00000864       $pdata$?Release@?$CComObject@V?$CComEnum@UIEnumConnectionPoints@@$1?_GUID_b196b285_bab4_101a_b69c_00aa00341d07@@3U__s_GUID@@BPEAUIConnectionPoint@@V?$_CopyInterface@UIConnectionPoint@@@ATL@@VCComSingleThreadModel@6@@ATL@@@ATL@@UEAAKXZ 0000000180032864     Keylock.obj
 0004:00000864       $pdata$?Release@?$CComObject@V?$CComEnum@UIEnumConnections@@$1?_GUID_b196b287_bab4_101a_b69c_00aa00341d07@@3U__s_GUID@@BUtagCONNECTDATA@@V?$_Copy@UtagCONNECTDATA@@@ATL@@VCComSingleThreadModel@6@@ATL@@@ATL@@UEAAKXZ 0000000180032864     Keylock.obj
 0004:00000870       $pdata$?CreateInstance@?$CComObject@V?$CComEnum@UIEnumConnectionPoints@@$1?_GUID_b196b285_bab4_101a_b69c_00aa00341d07@@3U__s_GUID@@BPEAUIConnectionPoint@@V?$_CopyInterface@UIConnectionPoint@@@ATL@@VCComSingleThreadModel@6@@ATL@@@ATL@@SAJPEAPEAV12@@Z 0000000180032870     Keylock.obj
 0004:0000087c       $pdata$??_G?$CComObject@V?$CComEnum@UIEnumConnectionPoints@@$1?_GUID_b196b285_bab4_101a_b69c_00aa00341d07@@3U__s_GUID@@BPEAUIConnectionPoint@@V?$_CopyInterface@UIConnectionPoint@@@ATL@@VCComSingleThreadModel@6@@ATL@@@ATL@@UEAAPEAXI@Z 000000018003287c     Keylock.obj
 0004:00000888       $pdata$?AddRef@?$CComObjectCached@VCComClassFactory@ATL@@@ATL@@UEAAKXZ 0000000180032888     Keylock.obj
 0004:00000894       $pdata$?Release@?$CComObjectCached@VCComClassFactory@ATL@@@ATL@@UEAAKXZ 0000000180032894     Keylock.obj
 0004:000008a0       $pdata$??_G?$CComObjectCached@VCComClassFactory@ATL@@@ATL@@UEAAPEAXI@Z 00000001800328a0     Keylock.obj
 0004:000008ac       $pdata$?Release@?$CComAggObject@VCOPOSKeylock@@@ATL@@UEAAKXZ 00000001800328ac     Keylock.obj
 0004:000008b8       $pdata$?QueryInterface@?$CComAggObject@VCOPOSKeylock@@@ATL@@UEAAJAEBU_GUID@@PEAPEAX@Z 00000001800328b8     Keylock.obj
 0004:000008c4       $pdata$??0?$CComContainedObject@VCOPOSKeylock@@@ATL@@QEAA@PEAX@Z 00000001800328c4     Keylock.obj
 0004:000008d0       $pdata$??_G?$CComContainedObject@VCOPOSKeylock@@@ATL@@UEAAPEAXI@Z 00000001800328d0     Keylock.obj
 0004:000008dc       $pdata$??_G?$CComAggObject@VCOPOSKeylock@@@ATL@@UEAAPEAXI@Z 00000001800328dc     Keylock.obj
 0004:000008e8       $pdata$??0?$CComObject@VCOPOSKeylock@@@ATL@@QEAA@PEAX@Z 00000001800328e8     Keylock.obj
 0004:000008f4       $pdata$??1?$CComObject@VCOPOSKeylock@@@ATL@@UEAA@XZ 00000001800328f4     Keylock.obj
 0004:00000900       $pdata$?Release@?$CComObject@VCOPOSKeylock@@@ATL@@UEAAKXZ 0000000180032900     Keylock.obj
 0004:0000090c       $pdata$??_G?$CComObject@VCOPOSKeylock@@@ATL@@UEAAPEAXI@Z 000000018003290c     Keylock.obj
 0004:00000918       $pdata$??__E?pConnMap@?$IConnectionPointContainerImpl@VCOPOSKeylock@@@ATL@@0PEBU_ATL_CONNMAP_ENTRY@2@EB@@YAXXZ 0000000180032918     Keylock.obj
 0004:00000924       $pdata$??1?$CComEnumImpl@UIEnumConnections@@$1?_GUID_b196b287_bab4_101a_b69c_00aa00341d07@@3U__s_GUID@@BUtagCONNECTDATA@@V?$_Copy@UtagCONNECTDATA@@@ATL@@@ATL@@UEAA@XZ 0000000180032924     Keylock.obj
 0004:00000930       $pdata$?Next@?$CComEnumImpl@UIEnumConnections@@$1?_GUID_b196b287_bab4_101a_b69c_00aa00341d07@@3U__s_GUID@@BUtagCONNECTDATA@@V?$_Copy@UtagCONNECTDATA@@@ATL@@@ATL@@UEAAJKPEAUtagCONNECTDATA@@PEAK@Z 0000000180032930     Keylock.obj
 0004:0000093c       $pdata$?Clone@?$CComEnumImpl@UIEnumConnections@@$1?_GUID_b196b287_bab4_101a_b69c_00aa00341d07@@3U__s_GUID@@BUtagCONNECTDATA@@V?$_Copy@UtagCONNECTDATA@@@ATL@@@ATL@@UEAAJPEAPEAUIEnumConnections@@@Z 000000018003293c     Keylock.obj
 0004:00000948       $pdata$?Init@?$CComEnumImpl@UIEnumConnections@@$1?_GUID_b196b287_bab4_101a_b69c_00aa00341d07@@3U__s_GUID@@BUtagCONNECTDATA@@V?$_Copy@UtagCONNECTDATA@@@ATL@@@ATL@@QEAAJPEAUtagCONNECTDATA@@0PEAUIUnknown@@W4CComEnumFlags@2@@Z 0000000180032948     Keylock.obj
 0004:00000954       $pdata$?CreateInstance@?$CComObject@V?$CComEnum@UIEnumConnections@@$1?_GUID_b196b287_bab4_101a_b69c_00aa00341d07@@3U__s_GUID@@BUtagCONNECTDATA@@V?$_Copy@UtagCONNECTDATA@@@ATL@@VCComSingleThreadModel@6@@ATL@@@ATL@@SAJPEAPEAV12@@Z 0000000180032954     Keylock.obj
 0004:00000960       $pdata$??_G?$CComObject@V?$CComEnum@UIEnumConnections@@$1?_GUID_b196b287_bab4_101a_b69c_00aa00341d07@@3U__s_GUID@@BUtagCONNECTDATA@@V?$_Copy@UtagCONNECTDATA@@@ATL@@VCComSingleThreadModel@6@@ATL@@@ATL@@UEAAPEAXI@Z 0000000180032960     Keylock.obj
 0004:0000096c       $pdata$??1CComControlBase@ATL@@UEAA@XZ 000000018003296c     KeylockImpl.obj
 0004:00000978       $pdata$??1?$IConnectionPointImpl@VCOPOSKeylock@@$1?DIID__IOPOSKeylockEvents@@3U_GUID@@BVCComDynamicUnkArray@ATL@@@ATL@@QEAA@XZ 0000000180032978     KeylockImpl.obj
 0004:00000978       $pdata$??1?$IConnectionPointImpl@VCOPOSKeylock@@$1?IID_IPropertyNotifySink@@3U_GUID@@BVCComDynamicUnkArray@ATL@@@ATL@@QEAA@XZ 0000000180032978     KeylockImpl.obj
 0004:00000984       $pdata$?FinalConstruct@COPOSKeylock@@QEAAJXZ 0000000180032984     KeylockImpl.obj
 0004:00000990       $pdata$??1COPOSKeylock@@UEAA@XZ 0000000180032990     KeylockImpl.obj
 0004:0000099c       $pdata$?GetOposProp@COPOSKeylock@@IEAAJJPEAJJ@Z 000000018003299c     KeylockImpl.obj
 0004:000009a8       $pdata$?SetOposProp@COPOSKeylock@@IEAAJJJJ@Z 00000001800329a8     KeylockImpl.obj
 0004:000009b4       $pdata$?GetOposProp@COPOSKeylock@@IEAAJJPEAPEA_WJ@Z 00000001800329b4     KeylockImpl.obj
 0004:000009c0       $pdata$?DoInvoke@COPOSKeylock@@IEAAJJPEAVOposVariant@@IHPEAJ_N@Z 00000001800329c0     KeylockImpl.obj
 0004:000009cc       $pdata$?SetCOFreezeEvents@COPOSKeylock@@IEAAXF@Z 00000001800329cc     KeylockImpl.obj
 0004:000009d8       $pdata$?FreezeEvents@COPOSKeylock@@MEAAJH@Z 00000001800329d8     KeylockImpl.obj
 0004:000009e4       $pdata$?OnDraw@COPOSKeylock@@MEAAJAEAUATL_DRAWINFO@@@Z 00000001800329e4     KeylockImpl.obj
 0004:000009f0       $pdata$?EventInit@COPOSKeylock@@IEAAJXZ 00000001800329f0     KeylockImpl.obj
 0004:000009fc       $pdata$?EventUninit@COPOSKeylock@@IEAAXXZ 00000001800329fc     KeylockImpl.obj
 0004:00000a08       $pdata$?s_EventWindowProc@COPOSKeylock@@KA_JPEAUHWND__@@I_K_J@Z 0000000180032a08     KeylockImpl.obj
 0004:00000a14       $pdata$?EventWindowProc@COPOSKeylock@@IEAA_JI_K_J@Z 0000000180032a14     KeylockImpl.obj
 0004:00000a20       $pdata$?SOProcessID@COPOSKeylock@@UEAAJPEAJ@Z 0000000180032a20     KeylockImpl.obj
 0004:00000a2c       $pdata$?get_Claimed@COPOSKeylock@@UEAAJPEAF@Z 0000000180032a2c     KeylockImpl.obj
 0004:00000a38       $pdata$?get_DeviceEnabled@COPOSKeylock@@UEAAJPEAF@Z 0000000180032a38     KeylockImpl.obj
 0004:00000a44       $pdata$?get_FreezeEvents@COPOSKeylock@@UEAAJPEAF@Z 0000000180032a44     KeylockImpl.obj
 0004:00000a50       $pdata$?put_FreezeEvents@COPOSKeylock@@UEAAJF@Z 0000000180032a50     KeylockImpl.obj
 0004:00000a5c       $pdata$?get_ResultCode@COPOSKeylock@@UEAAJPEAJ@Z 0000000180032a5c     KeylockImpl.obj
 0004:00000a68       $pdata$?get_State@COPOSKeylock@@UEAAJPEAJ@Z 0000000180032a68     KeylockImpl.obj
 0004:00000a74       $pdata$?get_ControlObjectDescription@COPOSKeylock@@UEAAJPEAPEA_W@Z 0000000180032a74     KeylockImpl.obj
 0004:00000a80       $pdata$?CheckHealth@COPOSKeylock@@UEAAJJPEAJ@Z 0000000180032a80     KeylockImpl.obj
 0004:00000a8c       $pdata$?ClaimDevice@COPOSKeylock@@UEAAJJPEAJ@Z 0000000180032a8c     KeylockImpl.obj
 0004:00000a98       $pdata$?Close@COPOSKeylock@@UEAAJPEAJ@Z 0000000180032a98     KeylockImpl.obj
 0004:00000aa4       $pdata$?DirectIO@COPOSKeylock@@UEAAJJPEAJPEAPEA_W0@Z 0000000180032aa4     KeylockImpl.obj
 0004:00000ab0       $pdata$?Open@COPOSKeylock@@UEAAJPEA_WPEAJ@Z 0000000180032ab0     KeylockImpl.obj
 0004:00000abc       $pdata$?ReleaseDevice@COPOSKeylock@@UEAAJPEAJ@Z 0000000180032abc     KeylockImpl.obj
 0004:00000ac8       $pdata$?WaitForKeylockChange@COPOSKeylock@@UEAAJJJPEAJ@Z 0000000180032ac8     KeylockImpl.obj
 0004:00000ad4       $pdata$?get_CapStatisticsReporting@COPOSKeylock@@UEAAJPEAF@Z 0000000180032ad4     KeylockImpl.obj
 0004:00000ae0       $pdata$?get_CapUpdateStatistics@COPOSKeylock@@UEAAJPEAF@Z 0000000180032ae0     KeylockImpl.obj
 0004:00000aec       $pdata$?ResetStatistics@COPOSKeylock@@UEAAJPEA_WPEAJ@Z 0000000180032aec     KeylockImpl.obj
 0004:00000af8       $pdata$?RetrieveStatistics@COPOSKeylock@@UEAAJPEAPEA_WPEAJ@Z 0000000180032af8     KeylockImpl.obj
 0004:00000b04       $pdata$?UpdateStatistics@COPOSKeylock@@UEAAJPEA_WPEAJ@Z 0000000180032b04     KeylockImpl.obj
 0004:00000b10       $pdata$?get_CapCompareFirmwareVersion@COPOSKeylock@@UEAAJPEAF@Z 0000000180032b10     KeylockImpl.obj
 0004:00000b1c       $pdata$?get_CapUpdateFirmware@COPOSKeylock@@UEAAJPEAF@Z 0000000180032b1c     KeylockImpl.obj
 0004:00000b28       $pdata$?CompareFirmwareVersion@COPOSKeylock@@UEAAJPEA_WPEAJ1@Z 0000000180032b28     KeylockImpl.obj
 0004:00000b34       $pdata$?UpdateFirmware@COPOSKeylock@@UEAAJPEA_WPEAJ@Z 0000000180032b34     KeylockImpl.obj
 0004:00000b40       $pdata$atexit              0000000180032b40     LIBCMT:utility.obj
 0004:00000b4c       $pdata$_onexit             0000000180032b4c     LIBCMT:utility.obj
 0004:00000b58       $pdata$__scrt_is_nonwritable_in_current_image 0000000180032b58     LIBCMT:utility.obj
 0004:00000b64       $pdata$__scrt_is_nonwritable_in_current_image$filt$0 0000000180032b64     LIBCMT:utility.obj
 0004:00000b70       $pdata$__scrt_acquire_startup_lock 0000000180032b70     LIBCMT:utility.obj
 0004:00000b7c       $pdata$__scrt_release_startup_lock 0000000180032b7c     LIBCMT:utility.obj
 0004:00000b88       $pdata$__scrt_initialize_crt 0000000180032b88     LIBCMT:utility.obj
 0004:00000b94       $pdata$__scrt_uninitialize_crt 0000000180032b94     LIBCMT:utility.obj
 0004:00000ba0       $pdata$__scrt_initialize_onexit_tables 0000000180032ba0     LIBCMT:utility.obj
 0004:00000bac       $pdata$__scrt_dllmain_exception_filter 0000000180032bac     LIBCMT:utility.obj
 0004:00000bb8       $pdata$__scrt_dllmain_before_initialize_c 0000000180032bb8     LIBCMT:utility.obj
 0004:00000bc4       $pdata$__scrt_dllmain_after_initialize_c 0000000180032bc4     LIBCMT:utility.obj
 0004:00000bd0       $pdata$__scrt_dllmain_uninitialize_c 0000000180032bd0     LIBCMT:utility.obj
 0004:00000bdc       $pdata$__scrt_dllmain_uninitialize_critical 0000000180032bdc     LIBCMT:utility.obj
 0004:00000be8       $pdata$__scrt_dllmain_crt_thread_attach 0000000180032be8     LIBCMT:utility.obj
 0004:00000bf4       $pdata$__scrt_dllmain_crt_thread_detach 0000000180032bf4     LIBCMT:utility.obj
 0004:00000c00       $pdata$_Init_thread_header 0000000180032c00     LIBCMT:thread_safe_statics.obj
 0004:00000c0c       $pdata$_Init_thread_footer 0000000180032c0c     LIBCMT:thread_safe_statics.obj
 0004:00000c18       $pdata$_Init_thread_wait   0000000180032c18     LIBCMT:thread_safe_statics.obj
 0004:00000c24       $pdata$_Init_thread_notify 0000000180032c24     LIBCMT:thread_safe_statics.obj
 0004:00000c30       $pdata$?__scrt_uninitialize_thread_safe_statics@@YAXXZ 0000000180032c30     LIBCMT:thread_safe_statics.obj
 0004:00000c3c       $pdata$?__scrt_initialize_thread_safe_statics@@YAHXZ 0000000180032c3c     LIBCMT:thread_safe_statics.obj
 0004:00000c48       $pdata$__report_securityfailure 0000000180032c48     LIBCMT:gs_report.obj
 0004:00000c54       $pdata$__report_rangecheckfailure 0000000180032c54     LIBCMT:gs_report.obj
 0004:00000c60       $pdata$__report_gsfailure  0000000180032c60     LIBCMT:gs_report.obj
 0004:00000c6c       $pdata$capture_current_context 0000000180032c6c     LIBCMT:gs_report.obj
 0004:00000c78       $pdata$capture_previous_context 0000000180032c78     LIBCMT:gs_report.obj
 0004:00000c84       $pdata$__raise_securityfailure 0000000180032c84     LIBCMT:gs_report.obj
 0004:00000c90       $pdata$??2@YAPEAX_KAEBUnothrow_t@std@@@Z 0000000180032c90     LIBCMT:new_scalar_nothrow.obj
 0004:00000c9c       $pdata$?catch$0@?0???2@YAPEAX_KAEBUnothrow_t@std@@@Z@4HA 0000000180032c9c     LIBCMT:new_scalar_nothrow.obj
 0004:00000ca8       $pdata$__GSHandlerCheckCommon 0000000180032ca8     LIBCMT:_gshandler_.obj
 0004:00000cb4       $pdata$__GSHandlerCheck    0000000180032cb4     LIBCMT:_gshandler_.obj
 0004:00000cc0       $pdata$__GSHandlerCheck_SEH 0000000180032cc0     LIBCMT:_gshandlerseh_.obj
 0004:00000ce4       $pdata$?dllmain_crt_process_attach@@YAHQEAUHINSTANCE__@@QEAX@Z 0000000180032ce4     LIBCMT:dll_dllmain.obj
 0004:00000cf0       $pdata$?fin$0@?0??dllmain_crt_process_attach@@YAHQEAUHINSTANCE__@@QEAX@Z@4HA 0000000180032cf0     LIBCMT:dll_dllmain.obj
 0004:00000cfc       $pdata$?dllmain_crt_process_detach@@YAH_N@Z 0000000180032cfc     LIBCMT:dll_dllmain.obj
 0004:00000d08       $pdata$?fin$0@?0??dllmain_crt_process_detach@@YAH_N@Z@4HA 0000000180032d08     LIBCMT:dll_dllmain.obj
 0004:00000d14       $pdata$?dllmain_crt_dispatch@@YAHQEAUHINSTANCE__@@KQEAX@Z 0000000180032d14     LIBCMT:dll_dllmain.obj
 0004:00000d20       $pdata$?dllmain_dispatch@@YAHQEAUHINSTANCE__@@KQEAX@Z 0000000180032d20     LIBCMT:dll_dllmain.obj
 0004:00000d2c       $pdata$?filt$0@?0??dllmain_dispatch@@YAHQEAUHINSTANCE__@@KQEAX@Z@4HA 0000000180032d2c     LIBCMT:dll_dllmain.obj
 0004:00000d38       $pdata$_DllMainCRTStartup  0000000180032d38     LIBCMT:dll_dllmain.obj
 0004:00000d44       $pdata$??2@YAPEAX_K@Z      0000000180032d44     LIBCMT:new_scalar.obj
 0004:00000d50       $pdata$__isa_available_init 0000000180032d50     LIBCMT:_cpu_disp_.obj
 0004:00000d5c       $pdata$__scrt_fastfail     0000000180032d5c     LIBCMT:utility_desktop.obj
 0004:00000d68       $pdata$__security_init_cookie 0000000180032d68     LIBCMT:gs_support.obj
 0004:00000d74       $pdata$__scrt_initialize_default_local_stdio_options 0000000180032d74     LIBCMT:default_local_stdio_options.obj
 0004:00000d80       $pdata$_RTC_Initialize     0000000180032d80     LIBCMT:_initsect_.obj
 0004:00000d8c       $pdata$_RTC_Terminate      0000000180032d8c     LIBCMT:_initsect_.obj
 0004:00000d98       $pdata$??0exception@std@@QEAA@AEBV01@@Z 0000000180032d98     LIBCMT:throw_bad_alloc.obj
 0004:00000da4       $pdata$??_Gexception@std@@UEAAPEAXI@Z 0000000180032da4     LIBCMT:throw_bad_alloc.obj
 0004:00000da4       $pdata$??_Gbad_alloc@std@@UEAAPEAXI@Z 0000000180032da4     LIBCMT:throw_bad_alloc.obj
 0004:00000da4       $pdata$??_Gbad_exception@std@@UEAAPEAXI@Z 0000000180032da4     libvcruntime:frame.obj
 0004:00000da4       $pdata$??_Gbad_array_new_length@std@@UEAAPEAXI@Z 0000000180032da4     LIBCMT:throw_bad_alloc.obj
 0004:00000db0       $pdata$??0bad_alloc@std@@QEAA@AEBV01@@Z 0000000180032db0     LIBCMT:throw_bad_alloc.obj
 0004:00000dbc       $pdata$??0bad_array_new_length@std@@QEAA@AEBV01@@Z 0000000180032dbc     LIBCMT:throw_bad_alloc.obj
 0004:00000dc8       $pdata$?__scrt_throw_std_bad_alloc@@YAXXZ 0000000180032dc8     LIBCMT:throw_bad_alloc.obj
 0004:00000dd4       $pdata$?__scrt_throw_std_bad_array_new_length@@YAXXZ 0000000180032dd4     LIBCMT:throw_bad_alloc.obj
 0004:00000dec       $pdata$??_Gtype_info@@UEAAPEAXI@Z 0000000180032dec     LIBCMT:std_type_info_static.obj
 0004:00000df8       $pdata$??0CAtlBaseModule@ATL@@QEAA@XZ 0000000180032df8     atls:atlbase.obj
 0004:00000e04       $pdata$??1CAtlBaseModule@ATL@@QEAA@XZ 0000000180032e04     atls:atlbase.obj
 0004:00000e10       $pdata$??__E_AtlBaseModule@ATL@@YAXXZ 0000000180032e10     atls:atlbase.obj
 0004:00000e1c       $pdata$AtlThunk_AllocateData 0000000180032e1c     atls:atlthunk.obj
 0004:00000e28       $pdata$AtlThunk_InitData   0000000180032e28     atls:atlthunk.obj
 0004:00000e34       $pdata$AtlThunk_DataToCode 0000000180032e34     atls:atlthunk.obj
 0004:00000e40       $pdata$AtlThunk_FreeData   0000000180032e40     atls:atlthunk.obj
 0004:00000e4c       $pdata$?__InitializeThunkPool@@YAHXZ 0000000180032e4c     atls:atlthunk.obj
 0004:00000e58       $pdata$?__AllocStdCallThunk_cmn@@YAPEAXXZ 0000000180032e58     atls:atlthunk.obj
 0004:00000e64       $pdata$??$GetProcAddressAll@P6APEAUAtlThunkData_t@@XZ@@YAP6APEAUAtlThunkData_t@@XZPEAP6APEAU0@XZ@Z 0000000180032e64     atls:atlthunk.obj
 0004:00000e64       $pdata$??$GetProcAddressAll@P6AXPEAUAtlThunkData_t@@PEAX_K@Z@@YAP6AXPEAUAtlThunkData_t@@PEAX_K@ZPEAP6AX012@Z@Z 0000000180032e64     atls:atlthunk.obj
 0004:00000e64       $pdata$??$GetProcAddressAll@P6AP6A_JPEAUHWND__@@I_K_J@ZPEAUAtlThunkData_t@@@Z@@YAP6AP6A_JPEAUHWND__@@I_K_J@ZPEAUAtlThunkData_t@@@ZPEAP6AP6A_J0I12@Z3@Z@Z 0000000180032e64     atls:atlthunk.obj
 0004:00000e64       $pdata$??$GetProcAddressAll@P6AXPEAUAtlThunkData_t@@@Z@@YAP6AXPEAUAtlThunkData_t@@@ZPEAP6AX0@Z@Z 0000000180032e64     atls:atlthunk.obj
 0004:00000e88       $pdata$_purecall           0000000180032e88     libvcruntime:purevirt.obj
 0004:00000e94       $pdata$wcsstr              0000000180032e94     libvcruntime:wcsstr.obj
 0004:00000ec4       $pdata$__vcrt_initialize   0000000180032ec4     libvcruntime:initialization.obj
 0004:00000ed0       $pdata$__vcrt_uninitialize 0000000180032ed0     libvcruntime:initialization.obj
 0004:00000edc       $pdata$__vcrt_uninitialize_critical 0000000180032edc     libvcruntime:initialization.obj
 0004:00000ee8       $pdata$__vcrt_thread_attach 0000000180032ee8     libvcruntime:initialization.obj
 0004:00000ef4       $pdata$__vcrt_thread_detach 0000000180032ef4     libvcruntime:initialization.obj
 0004:00000f00       $pdata$__C_specific_handler 0000000180032f00     libvcruntime:_riscchandler_.obj
 0004:00000f0c       $pdata$__std_terminate     0000000180032f0c     libvcruntime:ehhelpers.obj
 0004:00000f18       $pdata$_IsExceptionObjectToBeDestroyed 0000000180032f18     libvcruntime:ehhelpers.obj
 0004:00000f24       $pdata$__FrameUnwindFilter 0000000180032f24     libvcruntime:ehhelpers.obj
 0004:00000f30       $pdata$__DestructExceptionObject 0000000180032f30     libvcruntime:ehhelpers.obj
 0004:00000f3c       $pdata$__DestructExceptionObject$filt$0 0000000180032f3c     libvcruntime:ehhelpers.obj
 0004:00000f48       $pdata$?CatchTryBlock@__FrameHandler3@@SAPEBU_s_TryBlockMapEntry@@PEBU_s_FuncInfo@@H@Z 0000000180032f48     libvcruntime:risctrnsctrl.obj
 0004:00000f54       $pdata$?ExecutionInCatch@__FrameHandler3@@SA_NPEAU_xDISPATCHER_CONTEXT@@PEBU_s_FuncInfo@@@Z 0000000180032f54     libvcruntime:risctrnsctrl.obj
 0004:00000f60       $pdata$?FrameUnwindToEmptyState@__FrameHandler3@@SAXPEA_KPEAU_xDISPATCHER_CONTEXT@@PEBU_s_FuncInfo@@@Z 0000000180032f60     libvcruntime:risctrnsctrl.obj
 0004:00000f6c       $pdata$?GetEstablisherFrame@__FrameHandler3@@SAPEA_KPEA_KPEAU_xDISPATCHER_CONTEXT@@PEBU_s_FuncInfo@@0@Z 0000000180032f6c     libvcruntime:risctrnsctrl.obj
 0004:00000f78       $pdata$?UnwindNestedFrames@__FrameHandler3@@SAXPEA_KPEAUEHExceptionRecord@@PEAU_CONTEXT@@0PEAXPEBU_s_FuncInfo@@HHPEBU_s_HandlerType@@PEAU_xDISPATCHER_CONTEXT@@E@Z 0000000180032f78     libvcruntime:risctrnsctrl.obj
 0004:00000f84       $pdata$?GetRangeOfTrysToCheck@__FrameHandler3@@SA?AU?$pair@Viterator@TryBlockMap@__FrameHandler3@@V123@@std@@AEAVTryBlockMap@1@HH@Z 0000000180032f84     libvcruntime:risctrnsctrl.obj
 0004:00000f90       $pdata$_GetImageBase       0000000180032f90     libvcruntime:risctrnsctrl.obj
 0004:00000f9c       $pdata$_SetImageBase       0000000180032f9c     libvcruntime:risctrnsctrl.obj
 0004:00000fa8       $pdata$_GetThrowImageBase  0000000180032fa8     libvcruntime:risctrnsctrl.obj
 0004:00000fb4       $pdata$_SetThrowImageBase  0000000180032fb4     libvcruntime:risctrnsctrl.obj
 0004:00000fc0       $pdata$_CreateFrameInfo    0000000180032fc0     libvcruntime:risctrnsctrl.obj
 0004:00000fcc       $pdata$_FindAndUnlinkFrame 0000000180032fcc     libvcruntime:risctrnsctrl.obj
 0004:00000fd8       $pdata$__CxxFrameHandler3  0000000180032fd8     libvcruntime:risctrnsctrl.obj
 0004:00000fe4       $pdata$??$_CallSETranslator@V__FrameHandler3@@@@YAHPEAUEHExceptionRecord@@PEA_KPEAU_CONTEXT@@PEAU_xDISPATCHER_CONTEXT@@PEBU_s_FuncInfo@@K1@Z 0000000180032fe4     libvcruntime:risctrnsctrl.obj
 0004:00000ff0       $pdata$?filt$0@?0???$_CallSETranslator@V__FrameHandler3@@@@YAHPEAUEHExceptionRecord@@PEA_KPEAU_CONTEXT@@PEAU_xDISPATCHER_CONTEXT@@PEBU_s_FuncInfo@@K1@Z@4HA 0000000180032ff0     libvcruntime:risctrnsctrl.obj
 0004:00000ffc       $pdata$__std_type_info_destroy_list 0000000180032ffc     libvcruntime:std_type_info.obj
 0004:00001008       $pdata$__std_exception_copy 0000000180033008     libvcruntime:std_exception.obj
 0004:00001014       $pdata$__std_exception_destroy 0000000180033014     libvcruntime:std_exception.obj
 0004:00001020       $pdata$_CxxThrowException  0000000180033020     libvcruntime:throw.obj
 0004:0000102c       $pdata$__vcrt_initialize_ptd 000000018003302c     libvcruntime:per_thread_data.obj
 0004:00001038       $pdata$__vcrt_uninitialize_ptd 0000000180033038     libvcruntime:per_thread_data.obj
 0004:00001044       $pdata$__vcrt_getptd       0000000180033044     libvcruntime:per_thread_data.obj
 0004:00001050       $pdata$__vcrt_getptd_noexit 0000000180033050     libvcruntime:per_thread_data.obj
 0004:0000105c       $pdata$__vcrt_freeptd      000000018003305c     libvcruntime:per_thread_data.obj
 0004:00001068       $pdata$__vcrt_freefls      0000000180033068     libvcruntime:per_thread_data.obj
 0004:00001074       $pdata$__vcrt_initialize_locks 0000000180033074     libvcruntime:locks.obj
 0004:00001080       $pdata$__vcrt_uninitialize_locks 0000000180033080     libvcruntime:locks.obj
 0004:0000108c       $pdata$__vcrt_FlsAlloc     000000018003308c     libvcruntime:winapi_downlevel.obj
 0004:00001098       $pdata$__vcrt_FlsFree      0000000180033098     libvcruntime:winapi_downlevel.obj
 0004:000010a4       $pdata$__vcrt_FlsGetValue  00000001800330a4     libvcruntime:winapi_downlevel.obj
 0004:000010b0       $pdata$__vcrt_FlsSetValue  00000001800330b0     libvcruntime:winapi_downlevel.obj
 0004:000010bc       $pdata$__vcrt_InitializeCriticalSectionEx 00000001800330bc     libvcruntime:winapi_downlevel.obj
 0004:000010c8       $pdata$__vcrt_initialize_winapi_thunks 00000001800330c8     libvcruntime:winapi_downlevel.obj
 0004:000010d4       $pdata$__vcrt_uninitialize_winapi_thunks 00000001800330d4     libvcruntime:winapi_downlevel.obj
 0004:000010e0       $pdata$?try_get_function@@YAPEAXW4function_id@?A0xcc2f1bd3@@QEBDQEBW4module_id@2@2@Z 00000001800330e0     libvcruntime:winapi_downlevel.obj
 0004:00001110       $pdata$?StateFromIp@__FrameHandler3@@SAHPEBU_s_FuncInfo@@PEAU_xDISPATCHER_CONTEXT@@_K@Z 0000000180033110     libvcruntime:ehstate.obj
 0004:0000111c       $pdata$?GetCurrentState@__FrameHandler3@@SAHPEA_KPEAU_xDISPATCHER_CONTEXT@@PEBU_s_FuncInfo@@@Z 000000018003311c     libvcruntime:ehstate.obj
 0004:00001128       $pdata$?SetUnwindTryBlock@__FrameHandler3@@SAXPEA_KPEAU_xDISPATCHER_CONTEXT@@PEBU_s_FuncInfo@@H@Z 0000000180033128     libvcruntime:ehstate.obj
 0004:00001134       $pdata$?GetUnwindTryBlock@__FrameHandler3@@SAHPEA_KPEAU_xDISPATCHER_CONTEXT@@PEBU_s_FuncInfo@@@Z 0000000180033134     libvcruntime:ehstate.obj
 0004:00001140       $pdata$?FrameUnwindToState@__FrameHandler3@@SAXPEA_KPEAU_xDISPATCHER_CONTEXT@@PEBU_s_FuncInfo@@H@Z 0000000180033140     libvcruntime:frame.obj
 0004:0000114c       $pdata$?filt$0@?0??FrameUnwindToState@__FrameHandler3@@SAXPEA_KPEAU_xDISPATCHER_CONTEXT@@PEBU_s_FuncInfo@@H@Z@4HA 000000018003314c     libvcruntime:frame.obj
 0004:00001158       $pdata$?fin$1@?0??FrameUnwindToState@__FrameHandler3@@SAXPEA_KPEAU_xDISPATCHER_CONTEXT@@PEBU_s_FuncInfo@@H@Z@4HA 0000000180033158     libvcruntime:frame.obj
 0004:00001164       $pdata$?GetHandlerSearchState@__FrameHandler3@@SAHPEA_KPEAU_xDISPATCHER_CONTEXT@@PEBU_s_FuncInfo@@@Z 0000000180033164     libvcruntime:frame.obj
 0004:00001170       $pdata$?CxxCallCatchBlock@__FrameHandler3@@SAPEAXPEAU_EXCEPTION_RECORD@@@Z 0000000180033170     libvcruntime:frame.obj
 0004:0000117c       $pdata$?filt$0@?0??CxxCallCatchBlock@__FrameHandler3@@SAPEAXPEAU_EXCEPTION_RECORD@@@Z@4HA 000000018003317c     libvcruntime:frame.obj
 0004:00001188       $pdata$?fin$1@?0??CxxCallCatchBlock@__FrameHandler3@@SAPEAXPEAU_EXCEPTION_RECORD@@@Z@4HA 0000000180033188     libvcruntime:frame.obj
 0004:00001194       $pdata$??0bad_exception@std@@QEAA@AEBV01@@Z 0000000180033194     libvcruntime:frame.obj
 0004:000011a0       $pdata$?ExFilterRethrow@@YAHPEAU_EXCEPTION_POINTERS@@PEAUEHExceptionRecord@@PEAH@Z 00000001800331a0     libvcruntime:frame.obj
 0004:000011ac       $pdata$?IsInExceptionSpec@@YAEPEAUEHExceptionRecord@@PEBU_s_ESTypeList@@@Z 00000001800331ac     libvcruntime:frame.obj
 0004:000011b8       $pdata$?Is_bad_exception_allowed@@YAEPEBU_s_ESTypeList@@@Z 00000001800331b8     libvcruntime:frame.obj
 0004:000011c4       $pdata$??$__InternalCxxFrameHandler@V__FrameHandler3@@@@YA?AW4_EXCEPTION_DISPOSITION@@PEAUEHExceptionRecord@@PEA_KPEAU_CONTEXT@@PEAU_xDISPATCHER_CONTEXT@@PEBU_s_FuncInfo@@H1E@Z 00000001800331c4     libvcruntime:frame.obj
 0004:000011d0       $pdata$??$TypeMatchHelper@$$CBU_s_HandlerType@@@@YAHPEBU_s_HandlerType@@PEBU_s_CatchableType@@PEBU_s_ThrowInfo@@@Z 00000001800331d0     libvcruntime:frame.obj
 0004:000011dc       $pdata$??$BuildCatchObjectHelperInternal@$$CBU_s_HandlerType@@@@YAHPEAUEHExceptionRecord@@PEAXPEBU_s_HandlerType@@PEBU_s_CatchableType@@@Z 00000001800331dc     libvcruntime:frame.obj
 0004:000011e8       $pdata$??$BuildCatchObjectInternal@$$CBU_s_HandlerType@@@@YAXPEAUEHExceptionRecord@@PEAXPEBU_s_HandlerType@@PEBU_s_CatchableType@@@Z 00000001800331e8     libvcruntime:frame.obj
 0004:000011f4       $pdata$??$FindHandler@V__FrameHandler3@@@@YAXPEAUEHExceptionRecord@@PEA_KPEAU_CONTEXT@@PEAU_xDISPATCHER_CONTEXT@@PEBU_s_FuncInfo@@EH1@Z 00000001800331f4     libvcruntime:frame.obj
 0004:00001200       $pdata$??$CatchIt@V__FrameHandler3@@@@YAXPEAUEHExceptionRecord@@PEA_KPEAU_CONTEXT@@PEAU_xDISPATCHER_CONTEXT@@PEBU_s_FuncInfo@@PEBU_s_HandlerType@@PEBU_s_CatchableType@@PEBU_s_TryBlockMapEntry@@H1EE@Z 0000000180033200     libvcruntime:frame.obj
 0004:0000120c       $pdata$??$FindHandlerForForeignException@V__FrameHandler3@@@@YAXPEAUEHExceptionRecord@@PEA_KPEAU_CONTEXT@@PEAU_xDISPATCHER_CONTEXT@@PEBU_s_FuncInfo@@HH1@Z 000000018003320c     libvcruntime:frame.obj
 0004:00001230       $pdata$_invalid_parameter_noinfo 0000000180033230     libucrt:invalid_parameter.obj
 0004:0000123c       $pdata$_invoke_watson      000000018003323c     libucrt:invalid_parameter.obj
 0004:00001248       $pdata$__acrt_call_reportfault 0000000180033248     libucrt:invalid_parameter.obj
 0004:00001254       $pdata$_invalid_parameter  0000000180033254     libucrt:invalid_parameter.obj
 0004:00001260       $pdata$_errno              0000000180033260     libucrt:errno.obj
 0004:0000126c       $pdata$__doserrno          000000018003326c     libucrt:errno.obj
 0004:00001278       $pdata$__acrt_errno_map_os_error 0000000180033278     libucrt:errno.obj
 0004:00001284       $pdata$_recalloc_base      0000000180033284     libucrt:recalloc.obj
 0004:00001290       $pdata$_resetstkoflw       0000000180033290     libucrt:resetstk.obj
 0004:0000129c       $pdata$wcscat_s            000000018003329c     libucrt:wcscat_s.obj
 0004:000012a8       $pdata$wcscpy_s            00000001800332a8     libucrt:wcscpy_s.obj
 0004:000012b4       $pdata$wcsncpy_s           00000001800332b4     libucrt:wcsncpy_s.obj
 0004:000012c0       $pdata$??0_LocaleUpdate@@QEAA@QEAU__crt_locale_pointers@@@Z 00000001800332c0     libucrt:output.obj
 0004:000012cc       $pdata$__stdio_common_vswprintf_s 00000001800332cc     libucrt:output.obj
 0004:000012d8       $pdata$?force_decimal_point@__crt_stdio_output@@YAXPEADQEAU__crt_locale_pointers@@@Z 00000001800332d8     libucrt:output.obj
 0004:000012e4       $pdata$?write_string@?$string_output_adapter@_W@__crt_stdio_output@@QEBAXQEB_WHQEAHAEAV__crt_deferred_errno_cache@@@Z 00000001800332e4     libucrt:output.obj
 0004:000012f0       $pdata$??$common_vsprintf@Vformat_validation_base@__crt_stdio_output@@_W@@YAH_KQEA_W0QEB_WQEAU__crt_locale_pointers@@QEAD@Z 00000001800332f0     libucrt:output.obj
 0004:000012fc       $pdata$??$write_multiple_characters@V?$string_output_adapter@_W@__crt_stdio_output@@D@__crt_stdio_output@@YAXAEBV?$string_output_adapter@_W@0@DHQEAH@Z 00000001800332fc     libucrt:output.obj
 0004:00001308       $pdata$??$ensure_buffer_is_big_enough@D@formatting_buffer@__crt_stdio_output@@QEAA_N_K@Z 0000000180033308     libucrt:output.obj
 0004:00001314       $pdata$?process@?$output_processor@_WV?$string_output_adapter@_W@__crt_stdio_output@@V?$format_validation_base@_WV?$string_output_adapter@_W@__crt_stdio_output@@@2@@__crt_stdio_output@@QEAAHXZ 0000000180033314     libucrt:output.obj
 0004:00001320       $pdata$?parse_int_from_format_string@?$output_processor@_WV?$string_output_adapter@_W@__crt_stdio_output@@V?$format_validation_base@_WV?$string_output_adapter@_W@__crt_stdio_output@@@2@@__crt_stdio_output@@AEAA_NQEAH@Z 0000000180033320     libucrt:output.obj
 0004:0000132c       $pdata$?state_case_size@?$output_processor@_WV?$string_output_adapter@_W@__crt_stdio_output@@V?$format_validation_base@_WV?$string_output_adapter@_W@__crt_stdio_output@@@2@@__crt_stdio_output@@AEAA_NXZ 000000018003332c     libucrt:output.obj
 0004:00001338       $pdata$?state_case_type@?$output_processor@_WV?$string_output_adapter@_W@__crt_stdio_output@@V?$format_validation_base@_WV?$string_output_adapter@_W@__crt_stdio_output@@@2@@__crt_stdio_output@@AEAA_NXZ 0000000180033338     libucrt:output.obj
 0004:00001344       $pdata$?type_case_c_tchar@?$output_processor@_WV?$string_output_adapter@_W@__crt_stdio_output@@V?$format_validation_base@_WV?$string_output_adapter@_W@__crt_stdio_output@@@2@@__crt_stdio_output@@AEAA_N_W@Z 0000000180033344     libucrt:output.obj
 0004:00001350       $pdata$?type_case_Z@?$output_processor@_WV?$string_output_adapter@_W@__crt_stdio_output@@V?$format_validation_base@_WV?$string_output_adapter@_W@__crt_stdio_output@@@2@@__crt_stdio_output@@AEAA_NXZ 0000000180033350     libucrt:output.obj
 0004:0000135c       $pdata$?type_case_s@?$output_processor@_WV?$string_output_adapter@_W@__crt_stdio_output@@V?$format_validation_base@_WV?$string_output_adapter@_W@__crt_stdio_output@@@2@@__crt_stdio_output@@AEAA_NXZ 000000018003335c     libucrt:output.obj
 0004:00001368       $pdata$?type_case_a@?$output_processor@_WV?$string_output_adapter@_W@__crt_stdio_output@@V?$format_validation_base@_WV?$string_output_adapter@_W@__crt_stdio_output@@@2@@__crt_stdio_output@@AEAA_NXZ 0000000180033368     libucrt:output.obj
 0004:00001374       $pdata$?type_case_integer@?$output_processor@_WV?$string_output_adapter@_W@__crt_stdio_output@@V?$format_validation_base@_WV?$string_output_adapter@_W@__crt_stdio_output@@@2@@__crt_stdio_output@@AEAA_NI_N@Z 0000000180033374     libucrt:output.obj
 0004:00001380       $pdata$?type_case_n@?$output_processor@_WV?$string_output_adapter@_W@__crt_stdio_output@@V?$format_validation_base@_WV?$string_output_adapter@_W@__crt_stdio_output@@@2@@__crt_stdio_output@@AEAA_NXZ 0000000180033380     libucrt:output.obj
 0004:0000138c       $pdata$?write_stored_string_tchar@?$output_processor@_WV?$string_output_adapter@_W@__crt_stdio_output@@V?$format_validation_base@_WV?$string_output_adapter@_W@__crt_stdio_output@@@2@@__crt_stdio_output@@AEAA_N_W@Z 000000018003338c     libucrt:output.obj
 0004:00001398       $pdata$??$type_case_integer_parse_into_buffer@_K@?$output_processor@_WV?$string_output_adapter@_W@__crt_stdio_output@@V?$format_validation_base@_WV?$string_output_adapter@_W@__crt_stdio_output@@@2@@__crt_stdio_output@@AEAAX_KI_N@Z 0000000180033398     libucrt:output.obj
 0004:000013a4       $pdata$??$type_case_integer_parse_into_buffer@I@?$output_processor@_WV?$string_output_adapter@_W@__crt_stdio_output@@V?$format_validation_base@_WV?$string_output_adapter@_W@__crt_stdio_output@@@2@@__crt_stdio_output@@AEAAXII_N@Z 00000001800333a4     libucrt:output.obj
 0004:000013b0       $pdata$_seh_filter_exe     00000001800333b0     libucrt:exception_filter.obj
 0004:000013bc       $pdata$?try_cor_exit_process@@YAXI@Z 00000001800333bc     libucrt:exit.obj
 0004:000013c8       $pdata$?exit_or_terminate_process@@YAXI@Z 00000001800333c8     libucrt:exit.obj
 0004:000013d4       $pdata$?common_exit@@YAXHW4_crt_exit_cleanup_mode@@W4_crt_exit_return_mode@@@Z 00000001800333d4     libucrt:exit.obj
 0004:000013e0       $pdata$??R<lambda_6e4b09c48022b2350581041d5f6b0c4c>@@QEBA@XZ 00000001800333e0     libucrt:exit.obj
 0004:000013ec       $pdata$?filt$0@?0???R<lambda_6e4b09c48022b2350581041d5f6b0c4c>@@QEBA@XZ@4HA 00000001800333ec     libucrt:exit.obj
 0004:000013f8       $pdata$??$?RV<lambda_d80eeec6fff315bfe5c115232f3240e3>@@AEAV<lambda_6e4b09c48022b2350581041d5f6b0c4c>@@V<lambda_2358e3775559c9db80273638284d5e45>@@@?$__crt_seh_guarded_call@X@@QEAAX$$QEAV<lambda_d80eeec6fff315bfe5c115232f3240e3>@@AEAV<lambda_6e4b09c48022b2350581041d5f6b0c4c>@@$$QEAV<lambda_2358e3775559c9db80273638284d5e45>@@@Z 00000001800333f8     libucrt:exit.obj
 0004:00001404       $pdata$?fin$0@?0???$?RV<lambda_7777bce6b2f8c936911f934f8298dc43>@@AEAV<lambda_f03950bc5685219e0bcd2087efbe011e>@@V<lambda_3883c3dff614d5e0c5f61bb1ac94921c>@@@?$__crt_seh_guarded_call@H@@QEAAH$$QEAV<lambda_7777bce6b2f8c936911f934f8298dc43>@@AEAV<lambda_f03950bc5685219e0bcd2087efbe011e>@@$$QEAV<lambda_3883c3dff614d5e0c5f61bb1ac94921c>@@@Z@4HA 0000000180033404     libucrt:onexit.obj
 0004:00001404       $pdata$?fin$0@?0???$?RV<lambda_f2e299630e499de9f9a165e60fcd3db5>@@AEAV<lambda_2ae9d31cdba2644fcbeaf08da7c24588>@@V<lambda_40d01ff24d0e7b3814fdbdcee8eab3c7>@@@?$__crt_seh_guarded_call@X@@QEAAX$$QEAV<lambda_f2e299630e499de9f9a165e60fcd3db5>@@AEAV<lambda_2ae9d31cdba2644fcbeaf08da7c24588>@@$$QEAV<lambda_40d01ff24d0e7b3814fdbdcee8eab3c7>@@@Z@4HA 0000000180033404     libucrt:per_thread_data.obj
 0004:00001404       $pdata$?fin$0@?0???$?RV<lambda_638799b9deba96c50f710eeac98168cd>@@AEAV<lambda_22ebabd17bc4fa466a2aca6d8deb888d>@@V<lambda_a6f7d7db0129f75315ebf26d50c089f1>@@@?$__crt_seh_guarded_call@H@@QEAAH$$QEAV<lambda_638799b9deba96c50f710eeac98168cd>@@AEAV<lambda_22ebabd17bc4fa466a2aca6d8deb888d>@@$$QEAV<lambda_a6f7d7db0129f75315ebf26d50c089f1>@@@Z@4HA 0000000180033404     libucrt:onexit.obj
 0004:00001404       $pdata$?fin$0@?0???$?RV<lambda_aa87e3671a710a21b5dc78c0bdf72e11>@@AEAV<lambda_92619d2358a28f41a33ba319515a20b9>@@V<lambda_6992ecaafeb10aed2b74cb1fae11a551>@@@?$__crt_seh_guarded_call@X@@QEAAX$$QEAV<lambda_aa87e3671a710a21b5dc78c0bdf72e11>@@AEAV<lambda_92619d2358a28f41a33ba319515a20b9>@@$$QEAV<lambda_6992ecaafeb10aed2b74cb1fae11a551>@@@Z@4HA 0000000180033404     libucrt:per_thread_data.obj
 0004:00001404       $pdata$?fin$0@?0???$?RV<lambda_0ae27a3a962d80f24befdcbee591983d>@@AEAV<lambda_8d0ee55de4b1038c4002e0adecdf1839>@@V<lambda_dc504788e8f1664fe9b84e20bfb512f2>@@@?$__crt_seh_guarded_call@X@@QEAAX$$QEAV<lambda_0ae27a3a962d80f24befdcbee591983d>@@AEAV<lambda_8d0ee55de4b1038c4002e0adecdf1839>@@$$QEAV<lambda_dc504788e8f1664fe9b84e20bfb512f2>@@@Z@4HA 0000000180033404     libucrt:per_thread_data.obj
 0004:00001404       $pdata$?fin$0@?0???$?RV<lambda_efdfa57d1f175319df784efa44bb7b81>@@AEAV<lambda_5f0a4c1567f8adc6734073e5d1e1b35c>@@V<lambda_2e8a7d3640ea6ccb4c2413664c2db6fd>@@@?$__crt_seh_guarded_call@X@@QEAAX$$QEAV<lambda_efdfa57d1f175319df784efa44bb7b81>@@AEAV<lambda_5f0a4c1567f8adc6734073e5d1e1b35c>@@$$QEAV<lambda_2e8a7d3640ea6ccb4c2413664c2db6fd>@@@Z@4HA 0000000180033404     libucrt:mbctype.obj
 0004:00001404       $pdata$?fin$0@?0???$?RV<lambda_2d41944a1d46af3157314b8a01080d33>@@AEAV<lambda_8f455de75cd7d7f24b4096f044d8b9e6>@@V<lambda_aa500f224e6afead328df44964fe2772>@@@?$__crt_seh_guarded_call@X@@QEAAX$$QEAV<lambda_2d41944a1d46af3157314b8a01080d33>@@AEAV<lambda_8f455de75cd7d7f24b4096f044d8b9e6>@@$$QEAV<lambda_aa500f224e6afead328df44964fe2772>@@@Z@4HA 0000000180033404     libucrt:per_thread_data.obj
 0004:00001404       $pdata$?fin$0@?0???$?RV<lambda_450d765d439847d4c735a33c368b5fc0>@@AEAV<lambda_44731a7d0e6d81c3e6aa82d741081786>@@V<lambda_601a2a7da3b7a96e9554ac7215c4b07c>@@@?$__crt_seh_guarded_call@P6AXH@Z@@QEAAP6AXH@Z$$QEAV<lambda_450d765d439847d4c735a33c368b5fc0>@@AEAV<lambda_44731a7d0e6d81c3e6aa82d741081786>@@$$QEAV<lambda_601a2a7da3b7a96e9554ac7215c4b07c>@@@Z@4HA 0000000180033404     libucrt:signal.obj
 0004:00001404       $pdata$?fin$0@?0???$?RV<lambda_d80eeec6fff315bfe5c115232f3240e3>@@AEAV<lambda_6e4b09c48022b2350581041d5f6b0c4c>@@V<lambda_2358e3775559c9db80273638284d5e45>@@@?$__crt_seh_guarded_call@X@@QEAAX$$QEAV<lambda_d80eeec6fff315bfe5c115232f3240e3>@@AEAV<lambda_6e4b09c48022b2350581041d5f6b0c4c>@@$$QEAV<lambda_2358e3775559c9db80273638284d5e45>@@@Z@4HA 0000000180033404     libucrt:exit.obj
 0004:00001410       $pdata$_configure_narrow_argv 0000000180033410     libucrt:argv_parsing.obj
 0004:0000141c       $pdata$__acrt_allocate_buffer_for_argv 000000018003341c     libucrt:argv_parsing.obj
 0004:00001428       $pdata$??$parse_command_line@D@@YAXPEADPEAPEAD0PEA_K2@Z 0000000180033428     libucrt:argv_parsing.obj
 0004:00001434       $pdata$__dcrt_uninitialize_environments_nolock 0000000180033434     libucrt:environment_initialization.obj
 0004:00001440       $pdata$??$common_initialize_environment_nolock@D@@YAHXZ 0000000180033440     libucrt:environment_initialization.obj
 0004:0000144c       $pdata$??$uninitialize_environment_internal@D@@YAXAEAPEAPEAD@Z 000000018003344c     libucrt:environment_initialization.obj
 0004:00001458       $pdata$??$uninitialize_environment_internal@_W@@YAXAEAPEAPEA_W@Z 0000000180033458     libucrt:environment_initialization.obj
 0004:00001464       $pdata$??$free_environment@_W@@YAXQEAPEA_W@Z 0000000180033464     libucrt:environment_initialization.obj
 0004:00001464       $pdata$??$free_environment@D@@YAXQEAPEAD@Z 0000000180033464     libucrt:environment_initialization.obj
 0004:00001470       $pdata$??$create_environment@D@@YAQEAPEADQEAD@Z 0000000180033470     libucrt:environment_initialization.obj
 0004:0000147c       $pdata$_register_onexit_function 000000018003347c     libucrt:onexit.obj
 0004:00001488       $pdata$_execute_onexit_table 0000000180033488     libucrt:onexit.obj
 0004:00001494       $pdata$??R<lambda_22ebabd17bc4fa466a2aca6d8deb888d>@@QEBAHXZ 0000000180033494     libucrt:onexit.obj
 0004:000014a0       $pdata$??R<lambda_f03950bc5685219e0bcd2087efbe011e>@@QEBAHXZ 00000001800334a0     libucrt:onexit.obj
 0004:000014ac       $pdata$??$?RV<lambda_638799b9deba96c50f710eeac98168cd>@@AEAV<lambda_22ebabd17bc4fa466a2aca6d8deb888d>@@V<lambda_a6f7d7db0129f75315ebf26d50c089f1>@@@?$__crt_seh_guarded_call@H@@QEAAH$$QEAV<lambda_638799b9deba96c50f710eeac98168cd>@@AEAV<lambda_22ebabd17bc4fa466a2aca6d8deb888d>@@$$QEAV<lambda_a6f7d7db0129f75315ebf26d50c089f1>@@@Z 00000001800334ac     libucrt:onexit.obj
 0004:000014b8       $pdata$??$?RV<lambda_7777bce6b2f8c936911f934f8298dc43>@@AEAV<lambda_f03950bc5685219e0bcd2087efbe011e>@@V<lambda_3883c3dff614d5e0c5f61bb1ac94921c>@@@?$__crt_seh_guarded_call@H@@QEAAH$$QEAV<lambda_7777bce6b2f8c936911f934f8298dc43>@@AEAV<lambda_f03950bc5685219e0bcd2087efbe011e>@@$$QEAV<lambda_3883c3dff614d5e0c5f61bb1ac94921c>@@@Z 00000001800334b8     libucrt:onexit.obj
 0004:000014c4       $pdata$__acrt_uninitialize_critical 00000001800334c4     libucrt:initialization.obj
 0004:000014d0       $pdata$__acrt_thread_attach 00000001800334d0     libucrt:initialization.obj
 0004:000014dc       $pdata$__acrt_thread_detach 00000001800334dc     libucrt:initialization.obj
 0004:000014e8       $pdata$initialize_c        00000001800334e8     libucrt:initialization.obj
 0004:000014f4       $pdata$uninitialize_environment 00000001800334f4     libucrt:initialization.obj
 0004:00001500       $pdata$initialize_pointers 0000000180033500     libucrt:initialization.obj
 0004:0000150c       $pdata$uninitialize_allocated_memory 000000018003350c     libucrt:initialization.obj
 0004:00001518       $pdata$??$uninitialize@V<lambda_af42a3ee9806e9a7305d451646e05244>@@@?$dual_state_global@PEAU__crt_multibyte_data@@@__crt_state_management@@QEAAX$$QEAV<lambda_af42a3ee9806e9a7305d451646e05244>@@@Z 0000000180033518     libucrt:initialization.obj
 0004:00001524       $pdata$_initterm           0000000180033524     libucrt:initterm.obj
 0004:00001530       $pdata$_initterm_e         0000000180033530     libucrt:initterm.obj
 0004:0000153c       $pdata$_callnewh           000000018003353c     libucrt:new_handler.obj
 0004:00001548       $pdata$_query_new_handler  0000000180033548     libucrt:new_handler.obj
 0004:00001554       $pdata$_query_new_handler$fin$0 0000000180033554     libucrt:new_handler.obj
 0004:00001560       $pdata$terminate           0000000180033560     libucrt:terminate.obj
 0004:0000156c       $pdata$abort               000000018003356c     libucrt:abort.obj
 0004:00001578       $pdata$strcpy_s            0000000180033578     libucrt:strcpy_s.obj
 0004:00001584       $pdata$??$parse_integer@KV?$c_string_character_source@_W@__crt_strtox@@@__crt_strtox@@YAKQEAU__crt_locale_pointers@@V?$c_string_character_source@_W@0@H_N@Z 0000000180033584     libucrt:atox.obj
 0004:0000159c       $pdata$_free_base          000000018003359c     libucrt:free_base.obj
 0004:000015a8       $pdata$__acrt_initialize_ptd 00000001800335a8     libucrt:per_thread_data.obj
 0004:000015b4       $pdata$__acrt_uninitialize_ptd 00000001800335b4     libucrt:per_thread_data.obj
 0004:000015c0       $pdata$__acrt_getptd       00000001800335c0     libucrt:per_thread_data.obj
 0004:000015cc       $pdata$__acrt_getptd_head  00000001800335cc     libucrt:per_thread_data.obj
 0004:000015d8       $pdata$__acrt_getptd_noexit 00000001800335d8     libucrt:per_thread_data.obj
 0004:000015e4       $pdata$__acrt_freeptd      00000001800335e4     libucrt:per_thread_data.obj
 0004:000015f0       $pdata$?destroy_fls@@YAXPEAX@Z 00000001800335f0     libucrt:per_thread_data.obj
 0004:000015fc       $pdata$?replace_current_thread_locale_nolock@@YAXQEAU__acrt_ptd@@QEAU__crt_locale_data@@@Z 00000001800335fc     libucrt:per_thread_data.obj
 0004:00001608       $pdata$?construct_ptd_array@@YAXQEAU__acrt_ptd@@@Z 0000000180033608     libucrt:per_thread_data.obj
 0004:00001614       $pdata$?destroy_ptd_array@@YAXQEAU__acrt_ptd@@@Z 0000000180033614     libucrt:per_thread_data.obj
 0004:00001620       $pdata$??$?RV<lambda_0ae27a3a962d80f24befdcbee591983d>@@AEAV<lambda_8d0ee55de4b1038c4002e0adecdf1839>@@V<lambda_dc504788e8f1664fe9b84e20bfb512f2>@@@?$__crt_seh_guarded_call@X@@QEAAX$$QEAV<lambda_0ae27a3a962d80f24befdcbee591983d>@@AEAV<lambda_8d0ee55de4b1038c4002e0adecdf1839>@@$$QEAV<lambda_dc504788e8f1664fe9b84e20bfb512f2>@@@Z 0000000180033620     libucrt:per_thread_data.obj
 0004:0000162c       $pdata$??$?RV<lambda_aa87e3671a710a21b5dc78c0bdf72e11>@@AEAV<lambda_92619d2358a28f41a33ba319515a20b9>@@V<lambda_6992ecaafeb10aed2b74cb1fae11a551>@@@?$__crt_seh_guarded_call@X@@QEAAX$$QEAV<lambda_aa87e3671a710a21b5dc78c0bdf72e11>@@AEAV<lambda_92619d2358a28f41a33ba319515a20b9>@@$$QEAV<lambda_6992ecaafeb10aed2b74cb1fae11a551>@@@Z 000000018003362c     libucrt:per_thread_data.obj
 0004:00001638       $pdata$??$?RV<lambda_f2e299630e499de9f9a165e60fcd3db5>@@AEAV<lambda_2ae9d31cdba2644fcbeaf08da7c24588>@@V<lambda_40d01ff24d0e7b3814fdbdcee8eab3c7>@@@?$__crt_seh_guarded_call@X@@QEAAX$$QEAV<lambda_f2e299630e499de9f9a165e60fcd3db5>@@AEAV<lambda_2ae9d31cdba2644fcbeaf08da7c24588>@@$$QEAV<lambda_40d01ff24d0e7b3814fdbdcee8eab3c7>@@@Z 0000000180033638     libucrt:per_thread_data.obj
 0004:00001644       $pdata$??$?RV<lambda_2d41944a1d46af3157314b8a01080d33>@@AEAV<lambda_8f455de75cd7d7f24b4096f044d8b9e6>@@V<lambda_aa500f224e6afead328df44964fe2772>@@@?$__crt_seh_guarded_call@X@@QEAAX$$QEAV<lambda_2d41944a1d46af3157314b8a01080d33>@@AEAV<lambda_8f455de75cd7d7f24b4096f044d8b9e6>@@$$QEAV<lambda_aa500f224e6afead328df44964fe2772>@@@Z 0000000180033644     libucrt:per_thread_data.obj
 0004:00001650       $pdata$_calloc_base        0000000180033650     libucrt:calloc_base.obj
 0004:0000165c       $pdata$_malloc_base        000000018003365c     libucrt:malloc_base.obj
 0004:00001668       $pdata$_msize_base         0000000180033668     libucrt:msize.obj
 0004:00001674       $pdata$_realloc_base       0000000180033674     libucrt:realloc_base.obj
 0004:00001680       $pdata$__acrt_initialize_winapi_thunks 0000000180033680     libucrt:winapi_thunks.obj
 0004:0000168c       $pdata$__acrt_uninitialize_winapi_thunks 000000018003368c     libucrt:winapi_thunks.obj
 0004:00001698       $pdata$__acrt_FlsAlloc     0000000180033698     libucrt:winapi_thunks.obj
 0004:000016a4       $pdata$__acrt_FlsFree      00000001800336a4     libucrt:winapi_thunks.obj
 0004:000016b0       $pdata$__acrt_FlsGetValue  00000001800336b0     libucrt:winapi_thunks.obj
 0004:000016bc       $pdata$__acrt_FlsSetValue  00000001800336bc     libucrt:winapi_thunks.obj
 0004:000016c8       $pdata$__acrt_InitializeCriticalSectionEx 00000001800336c8     libucrt:winapi_thunks.obj
 0004:000016d4       $pdata$__acrt_LCMapStringEx 00000001800336d4     libucrt:winapi_thunks.obj
 0004:000016e0       $pdata$__acrt_LocaleNameToLCID 00000001800336e0     libucrt:winapi_thunks.obj
 0004:000016ec       $pdata$__acrt_AppPolicyGetProcessTerminationMethodInternal 00000001800336ec     libucrt:winapi_thunks.obj
 0004:000016f8       $pdata$__acrt_SetThreadStackGuarantee 00000001800336f8     libucrt:winapi_thunks.obj
 0004:00001704       $pdata$?try_get_function@@YAPEAXW4function_id@?A0x391cf84c@@QEBDQEBW4module_id@2@2@Z 0000000180033704     libucrt:winapi_thunks.obj
 0004:00001710       $pdata$isdigit             0000000180033710     libucrt:_ctype.obj
 0004:0000171c       $pdata$tolower             000000018003371c     libucrt:tolower_toupper.obj
 0004:00001728       $pdata$_tolower_l          0000000180033728     libucrt:tolower_toupper.obj
 0004:00001734       $pdata$?internal_isupper_l@@YA_NHQEAU__crt_locale_pointers@@@Z 0000000180033734     libucrt:tolower_toupper.obj
 0004:00001740       $pdata$wcstol              0000000180033740     libucrt:strtox.obj
 0004:0000174c       $pdata$_mbtowc_l           000000018003374c     libucrt:mbtowc.obj
 0004:00001758       $pdata$wcsnlen             0000000180033758     libucrt:strnlen.obj
 0004:00001764       $pdata$__acrt_update_locale_info 0000000180033764     libucrt:locale_update.obj
 0004:00001770       $pdata$__acrt_update_multibyte_info 0000000180033770     libucrt:locale_update.obj
 0004:0000177c       $pdata$__acrt_fp_format    000000018003377c     libucrt:cvt.obj
 0004:00001788       $pdata$?fp_format_nan_or_infinity@@YAHW4__acrt_fp_class@@_NPEAD_K1@Z 0000000180033788     libucrt:cvt.obj
 0004:00001794       $pdata$?fp_format_e_internal@@YAHQEAD_KH_NIQEAU_strflt@@2QEAU__crt_locale_pointers@@@Z 0000000180033794     libucrt:cvt.obj
 0004:000017a0       $pdata$?fp_format_e@@YAHQEBNQEAD_K12H_NIQEAU__crt_locale_pointers@@@Z 00000001800337a0     libucrt:cvt.obj
 0004:000017ac       $pdata$?fp_format_a@@YAHQEBNPEAD_KQEAD2H_NIQEAU__crt_locale_pointers@@@Z 00000001800337ac     libucrt:cvt.obj
 0004:000017b8       $pdata$?fp_format_f_internal@@YAHQEAD_KHQEAU_strflt@@_NQEAU__crt_locale_pointers@@@Z 00000001800337b8     libucrt:cvt.obj
 0004:000017c4       $pdata$?fp_format_g@@YAHQEBNQEAD_K12H_NIQEAU__crt_locale_pointers@@@Z 00000001800337c4     libucrt:cvt.obj
 0004:000017d0       $pdata$_fileno             00000001800337d0     libucrt:fileno.obj
 0004:000017dc       $pdata$__acrt_initialize_stdio 00000001800337dc     libucrt:_file.obj
 0004:000017e8       $pdata$__acrt_uninitialize_stdio 00000001800337e8     libucrt:_file.obj
 0004:000017f4       $pdata$__acrt_uninitialize_locale 00000001800337f4     libucrt:wsetlocale.obj
 0004:00001800       $pdata$??$?RV<lambda_410d79af7f07d98d83a3f525b3859a53>@@AEAV<lambda_3e16ef9562a7dcce91392c22ab16ea36>@@V<lambda_38119f0e861e05405d8a144b9b982f0a>@@@?$__crt_seh_guarded_call@X@@QEAAX$$QEAV<lambda_410d79af7f07d98d83a3f525b3859a53>@@AEAV<lambda_3e16ef9562a7dcce91392c22ab16ea36>@@$$QEAV<lambda_38119f0e861e05405d8a144b9b982f0a>@@@Z 0000000180033800     libucrt:wsetlocale.obj
 0004:0000180c       $pdata$?fin$0@?0???$?RV<lambda_410d79af7f07d98d83a3f525b3859a53>@@AEAV<lambda_3e16ef9562a7dcce91392c22ab16ea36>@@V<lambda_38119f0e861e05405d8a144b9b982f0a>@@@?$__crt_seh_guarded_call@X@@QEAAX$$QEAV<lambda_410d79af7f07d98d83a3f525b3859a53>@@AEAV<lambda_3e16ef9562a7dcce91392c22ab16ea36>@@$$QEAV<lambda_38119f0e861e05405d8a144b9b982f0a>@@@Z@4HA 000000018003380c     libucrt:wsetlocale.obj
 0004:00001818       $pdata$__acrt_initialize_lowio 0000000180033818     libucrt:ioinit.obj
 0004:00001824       $pdata$__acrt_initialize_lowio$fin$0 0000000180033824     libucrt:ioinit.obj
 0004:00001824       $pdata$__acrt_lowio_ensure_fh_exists$fin$0 0000000180033824     libucrt:osfinfo.obj
 0004:00001830       $pdata$__acrt_uninitialize_lowio 0000000180033830     libucrt:ioinit.obj
 0004:0000183c       $pdata$?initialize_inherited_file_handles_nolock@@YAXXZ 000000018003383c     libucrt:ioinit.obj
 0004:00001848       $pdata$?initialize_stdio_handles_nolock@@YAXXZ 0000000180033848     libucrt:ioinit.obj
 0004:00001854       $pdata$__acrt_initialize_locks 0000000180033854     libucrt:locks.obj
 0004:00001860       $pdata$__acrt_uninitialize_locks 0000000180033860     libucrt:locks.obj
 0004:0000186c       $pdata$__acrt_get_process_end_policy 000000018003386c     libucrt:win_policies.obj
 0004:00001878       $pdata$??$common_expand_argv_wildcards@D@@YAHQEAPEADQEAPEAPEAD@Z 0000000180033878     libucrt:argv_wildcards.obj
 0004:00001884       $pdata$??$copy_and_add_argument_to_buffer@D@@YAHQEBD0_KAEAV?$argument_list@D@?A0x5f5c8891@@@Z 0000000180033884     libucrt:argv_wildcards.obj
 0004:00001890       $pdata$??$expand_argument_wildcards@D@@YAHQEAD0AEAV?$argument_list@D@?A0x5f5c8891@@@Z 0000000180033890     libucrt:argv_wildcards.obj
 0004:0000189c       $pdata$__acrt_update_thread_multibyte_data 000000018003389c     libucrt:mbctype.obj
 0004:000018a8       $pdata$__acrt_initialize_multibyte 00000001800338a8     libucrt:mbctype.obj
 0004:000018b4       $pdata$_setmbcp_nolock     00000001800338b4     libucrt:mbctype.obj
 0004:000018c0       $pdata$?getSystemCP@@YAHH@Z 00000001800338c0     libucrt:mbctype.obj
 0004:000018cc       $pdata$?setSBCS@@YAXPEAU__crt_multibyte_data@@@Z 00000001800338cc     libucrt:mbctype.obj
 0004:000018d8       $pdata$?setSBUpLow@@YAXPEAU__crt_multibyte_data@@@Z 00000001800338d8     libucrt:mbctype.obj
 0004:000018e4       $pdata$?update_thread_multibyte_data_internal@@YAPEAU__crt_multibyte_data@@QEAU__acrt_ptd@@QEAU1@@Z 00000001800338e4     libucrt:mbctype.obj
 0004:000018f0       $pdata$?fin$0@?0??update_thread_multibyte_data_internal@@YAPEAU__crt_multibyte_data@@QEAU__acrt_ptd@@QEAU1@@Z@4HA 00000001800338f0     libucrt:mbctype.obj
 0004:000018fc       $pdata$?setmbcp_internal@@YAHH_NQEAU__acrt_ptd@@QEAPEAU__crt_multibyte_data@@@Z 00000001800338fc     libucrt:mbctype.obj
 0004:00001908       $pdata$??$?RV<lambda_efdfa57d1f175319df784efa44bb7b81>@@AEAV<lambda_5f0a4c1567f8adc6734073e5d1e1b35c>@@V<lambda_2e8a7d3640ea6ccb4c2413664c2db6fd>@@@?$__crt_seh_guarded_call@X@@QEAAX$$QEAV<lambda_efdfa57d1f175319df784efa44bb7b81>@@AEAV<lambda_5f0a4c1567f8adc6734073e5d1e1b35c>@@$$QEAV<lambda_2e8a7d3640ea6ccb4c2413664c2db6fd>@@@Z 0000000180033908     libucrt:mbctype.obj
 0004:00001914       $pdata$?x_ismbbtype_l@@YAHPEAU__crt_locale_pointers@@IHH@Z 0000000180033914     libucrt:ismbbyte.obj
 0004:00001920       $pdata$__acrt_initialize_command_line 0000000180033920     libucrt:argv_data.obj
 0004:0000192c       $pdata$__dcrt_get_narrow_environment_from_os 000000018003392c     libucrt:get_environment_from_os.obj
 0004:00001938       $pdata$__acrt_initialize_heap 0000000180033938     libucrt:heap_handle.obj
 0004:00001944       $pdata$__acrt_execute_initializers 0000000180033944     libucrt:shared_initialization.obj
 0004:00001950       $pdata$__acrt_execute_uninitializers 0000000180033950     libucrt:shared_initialization.obj
 0004:0000195c       $pdata$__acrt_get_sigabrt_handler 000000018003395c     libucrt:signal.obj
 0004:00001968       $pdata$raise               0000000180033968     libucrt:signal.obj
 0004:00001974       $pdata$raise$fin$0         0000000180033974     libucrt:signal.obj
 0004:00001980       $pdata$??$?RV<lambda_450d765d439847d4c735a33c368b5fc0>@@AEAV<lambda_44731a7d0e6d81c3e6aa82d741081786>@@V<lambda_601a2a7da3b7a96e9554ac7215c4b07c>@@@?$__crt_seh_guarded_call@P6AXH@Z@@QEAAP6AXH@Z$$QEAV<lambda_450d765d439847d4c735a33c368b5fc0>@@AEAV<lambda_44731a7d0e6d81c3e6aa82d741081786>@@$$QEAV<lambda_601a2a7da3b7a96e9554ac7215c4b07c>@@@Z 0000000180033980     libucrt:signal.obj
 0004:0000198c       $pdata$__pctype_func       000000018003398c     libucrt:ctype.obj
 0004:00001998       $pdata$iswctype            0000000180033998     libucrt:iswctype.obj
 0004:000019a4       $pdata$_isctype_l          00000001800339a4     libucrt:isctype.obj
 0004:000019b0       $pdata$__acrt_release_locale_ref 00000001800339b0     libucrt:locale_refcounting.obj
 0004:000019bc       $pdata$__acrt_free_locale  00000001800339bc     libucrt:locale_refcounting.obj
 0004:000019c8       $pdata$__acrt_locale_free_lc_time_if_unreferenced 00000001800339c8     libucrt:locale_refcounting.obj
 0004:000019d4       $pdata$__acrt_update_thread_locale_data 00000001800339d4     libucrt:locale_refcounting.obj
 0004:000019e0       $pdata$__acrt_update_thread_locale_data$fin$0 00000001800339e0     libucrt:locale_refcounting.obj
 0004:000019ec       $pdata$_updatetlocinfoEx_nolock 00000001800339ec     libucrt:locale_refcounting.obj
 0004:000019f8       $pdata$__acrt_DownlevelLocaleNameToLCID 00000001800339f8     libucrt:lcidtoname_downlevel.obj
 0004:00001a04       $pdata$?GetTableIndexFromLocaleName@@YAHPEB_W@Z 0000000180033a04     libucrt:lcidtoname_downlevel.obj
 0004:00001a10       $pdata$_isleadbyte_l       0000000180033a10     libucrt:_wctype.obj
 0004:00001a1c       $pdata$__acrt_LCMapStringA 0000000180033a1c     libucrt:lcmapstringa.obj
 0004:00001a28       $pdata$?__acrt_LCMapStringA_stat@@YAHPEAU__crt_locale_pointers@@PEB_WKPEBDHPEADHHH@Z 0000000180033a28     libucrt:lcmapstringa.obj
 0004:00001a34       $pdata$__acrt_fp_strflt_to_string 0000000180033a34     libucrt:_fptostr.obj
 0004:00001a40       $pdata$memcpy_s            0000000180033a40     libucrt:cfout.obj
 0004:00001a4c       $pdata$__acrt_fltout       0000000180033a4c     libucrt:cfout.obj
 0004:00001a58       $pdata$?divide@__crt_strtox@@YA_KAEAUbig_integer@1@AEBU21@@Z 0000000180033a58     libucrt:cfout.obj
 0004:00001a64       $pdata$5$?divide@__crt_strtox@@YA_KAEAUbig_integer@1@AEBU21@@Z 0000000180033a64     libucrt:cfout.obj
 0004:00001a70       $pdata$6$?divide@__crt_strtox@@YA_KAEAUbig_integer@1@AEBU21@@Z 0000000180033a70     libucrt:cfout.obj
 0004:00001a7c       $pdata$_fcloseall          0000000180033a7c     libucrt:closeall.obj
 0004:00001a88       $pdata$_fcloseall$fin$0    0000000180033a88     libucrt:closeall.obj
 0004:00001a94       $pdata$_fflush_nolock      0000000180033a94     libucrt:fflush.obj
 0004:00001aa0       $pdata$__acrt_stdio_flush_nolock 0000000180033aa0     libucrt:fflush.obj
 0004:00001aac       $pdata$?common_flush_all@@YAH_N@Z 0000000180033aac     libucrt:fflush.obj
 0004:00001ab8       $pdata$??$?RV<lambda_842d9ff0dc9ef11c61343bbaebe7f885>@@AEAV<lambda_c5860995281e5c4ce005b3de8f5874ee>@@V<lambda_d90129c13df834fdcbf8d2b88dafcf2d>@@@?$__crt_seh_guarded_call@X@@QEAAX$$QEAV<lambda_842d9ff0dc9ef11c61343bbaebe7f885>@@AEAV<lambda_c5860995281e5c4ce005b3de8f5874ee>@@$$QEAV<lambda_d90129c13df834fdcbf8d2b88dafcf2d>@@@Z 0000000180033ab8     libucrt:fflush.obj
 0004:00001ac4       $pdata$?fin$0@?0???$?RV<lambda_842d9ff0dc9ef11c61343bbaebe7f885>@@AEAV<lambda_c5860995281e5c4ce005b3de8f5874ee>@@V<lambda_d90129c13df834fdcbf8d2b88dafcf2d>@@@?$__crt_seh_guarded_call@X@@QEAAX$$QEAV<lambda_842d9ff0dc9ef11c61343bbaebe7f885>@@AEAV<lambda_c5860995281e5c4ce005b3de8f5874ee>@@$$QEAV<lambda_d90129c13df834fdcbf8d2b88dafcf2d>@@@Z@4HA 0000000180033ac4     libucrt:fflush.obj
 0004:00001ad0       $pdata$??$?RV<lambda_886d6c58226a84441f68b9f2b8217b83>@@AEAV<lambda_ab61a845afdef5b7c387490eaf3616ee>@@V<lambda_f7f22ab5edc0698d5f6905b0d3f44752>@@@?$__crt_seh_guarded_call@X@@QEAAX$$QEAV<lambda_886d6c58226a84441f68b9f2b8217b83>@@AEAV<lambda_ab61a845afdef5b7c387490eaf3616ee>@@$$QEAV<lambda_f7f22ab5edc0698d5f6905b0d3f44752>@@@Z 0000000180033ad0     libucrt:fflush.obj
 0004:00001adc       $pdata$?fin$0@?0???$?RV<lambda_886d6c58226a84441f68b9f2b8217b83>@@AEAV<lambda_ab61a845afdef5b7c387490eaf3616ee>@@V<lambda_f7f22ab5edc0698d5f6905b0d3f44752>@@@?$__crt_seh_guarded_call@X@@QEAAX$$QEAV<lambda_886d6c58226a84441f68b9f2b8217b83>@@AEAV<lambda_ab61a845afdef5b7c387490eaf3616ee>@@$$QEAV<lambda_f7f22ab5edc0698d5f6905b0d3f44752>@@@Z@4HA 0000000180033adc     libucrt:fflush.obj
 0004:00001ae8       $pdata$__acrt_stdio_free_buffer_nolock 0000000180033ae8     libucrt:_freebuf.obj
 0004:00001af4       $pdata$_isatty             0000000180033af4     libucrt:isatty.obj
 0004:00001b00       $pdata$__acrt_locale_free_monetary 0000000180033b00     libucrt:initmon.obj
 0004:00001b0c       $pdata$__acrt_locale_free_numeric 0000000180033b0c     libucrt:initnum.obj
 0004:00001b18       $pdata$__acrt_locale_free_time 0000000180033b18     libucrt:inittime.obj
 0004:00001b24       $pdata$?free_crt_array_internal@@YAXQEAPEBX_K@Z 0000000180033b24     libucrt:inittime.obj
 0004:00001b30       $pdata$__acrt_GetStringTypeA 0000000180033b30     libucrt:getstringtypea.obj
 0004:00001b3c       $pdata$_get_osfhandle      0000000180033b3c     libucrt:osfinfo.obj
 0004:00001b48       $pdata$_free_osfhnd        0000000180033b48     libucrt:osfinfo.obj
 0004:00001b54       $pdata$__acrt_lowio_create_handle_array 0000000180033b54     libucrt:osfinfo.obj
 0004:00001b60       $pdata$__acrt_lowio_destroy_handle_array 0000000180033b60     libucrt:osfinfo.obj
 0004:00001b6c       $pdata$__acrt_lowio_ensure_fh_exists 0000000180033b6c     libucrt:osfinfo.obj
 0004:00001b78       $pdata$qsort               0000000180033b78     libucrt:qsort.obj
 0004:00001b84       $pdata$4$qsort             0000000180033b84     libucrt:qsort.obj
 0004:00001b90       $pdata$5$qsort             0000000180033b90     libucrt:qsort.obj
 0004:00001b9c       $pdata$?shortsort@@YAXPEAD0_KP6AHPEBX2@Z@Z 0000000180033b9c     libucrt:qsort.obj
 0004:00001ba8       $pdata$2$?shortsort@@YAXPEAD0_KP6AHPEBX2@Z@Z 0000000180033ba8     libucrt:qsort.obj
 0004:00001bb4       $pdata$3$?shortsort@@YAXPEAD0_KP6AHPEBX2@Z@Z 0000000180033bb4     libucrt:qsort.obj
 0004:00001bc0       $pdata$strncpy_s           0000000180033bc0     libucrt:strncpy_s.obj
 0004:00001bcc       $pdata$strpbrk             0000000180033bcc     libucrt:strpbrk.obj
 0004:00001bd8       $pdata$_mbsdec_l           0000000180033bd8     libucrt:mbsdec.obj
 0004:00001be4       $pdata$?initialize_multibyte@@YAHXZ 0000000180033be4     libucrt:multibyte_initializer.obj
 0004:00001bf0       $pdata$fegetenv            0000000180033bf0     libucrt:fegetenv.obj
 0004:00001bfc       $pdata$fesetenv            0000000180033bfc     libucrt:fesetenv.obj
 0004:00001c08       $pdata$feholdexcept        0000000180033c08     libucrt:feholdexcept.obj
 0004:00001c20       $pdata$_write              0000000180033c20     libucrt:write.obj
 0004:00001c2c       $pdata$_write$fin$0        0000000180033c2c     libucrt:write.obj
 0004:00001c38       $pdata$_write_nolock       0000000180033c38     libucrt:write.obj
 0004:00001c44       $pdata$?write_double_translated_ansi_nolock@@YA?AUwrite_result@?A0x17268360@@HQEBDI@Z 0000000180033c44     libucrt:write.obj
 0004:00001c50       $pdata$?write_text_ansi_nolock@@YA?AUwrite_result@?A0x17268360@@HQEBDI@Z 0000000180033c50     libucrt:write.obj
 0004:00001c5c       $pdata$?write_text_utf16le_nolock@@YA?AUwrite_result@?A0x17268360@@HQEBDI@Z 0000000180033c5c     libucrt:write.obj
 0004:00001c68       $pdata$?write_text_utf8_nolock@@YA?AUwrite_result@?A0x17268360@@HQEBDI@Z 0000000180033c68     libucrt:write.obj
 0004:00001c74       $pdata$??$common_lseek_nolock@_J@@YA_JH_JH@Z 0000000180033c74     libucrt:lseek.obj
 0004:00001c80       $pdata$fclose              0000000180033c80     libucrt:fclose.obj
 0004:00001c8c       $pdata$fclose$fin$0        0000000180033c8c     libucrt:fclose.obj
 0004:00001c98       $pdata$_fclose_nolock      0000000180033c98     libucrt:fclose.obj
 0004:00001ca4       $pdata$_commit             0000000180033ca4     libucrt:commit.obj
 0004:00001cb0       $pdata$??$?RV<lambda_a37b2b86f63e897a80ea819b0eb08c01>@@AEAV<lambda_38ce7e780aa69e748d6df282ebc68efe>@@V<lambda_99fb1378e971ab6e7edea83e3a7a83a2>@@@?$__crt_seh_guarded_call@H@@QEAAH$$QEAV<lambda_a37b2b86f63e897a80ea819b0eb08c01>@@AEAV<lambda_38ce7e780aa69e748d6df282ebc68efe>@@$$QEAV<lambda_99fb1378e971ab6e7edea83e3a7a83a2>@@@Z 0000000180033cb0     libucrt:commit.obj
 0004:00001cbc       $pdata$?fin$0@?0???$?RV<lambda_751a882b2c74d4b022dec766aa51a29a>@@AEAV<lambda_628dfdc04ba53c8bfc02c9951375f3f5>@@V<lambda_f6c7be5f7998530c34de24c7437d6b54>@@@?$__crt_seh_guarded_call@H@@QEAAH$$QEAV<lambda_751a882b2c74d4b022dec766aa51a29a>@@AEAV<lambda_628dfdc04ba53c8bfc02c9951375f3f5>@@$$QEAV<lambda_f6c7be5f7998530c34de24c7437d6b54>@@@Z@4HA 0000000180033cbc     libucrt:close.obj
 0004:00001cbc       $pdata$?fin$0@?0???$?RV<lambda_a37b2b86f63e897a80ea819b0eb08c01>@@AEAV<lambda_38ce7e780aa69e748d6df282ebc68efe>@@V<lambda_99fb1378e971ab6e7edea83e3a7a83a2>@@@?$__crt_seh_guarded_call@H@@QEAAH$$QEAV<lambda_a37b2b86f63e897a80ea819b0eb08c01>@@AEAV<lambda_38ce7e780aa69e748d6df282ebc68efe>@@$$QEAV<lambda_99fb1378e971ab6e7edea83e3a7a83a2>@@@Z@4HA 0000000180033cbc     libucrt:commit.obj
 0004:00001cc8       $pdata$_setfpstatusword    0000000180033cc8     libucrt:_fenvutils.obj
 0004:00001cd4       $pdata$_getfpcontrolword   0000000180033cd4     libucrt:_fenvutils.obj
 0004:00001ce0       $pdata$_getfpstatusword    0000000180033ce0     libucrt:_fenvutils.obj
 0004:00001cec       $pdata$_clearfp            0000000180033cec     libucrt:ieee.obj
 0004:00001cf8       $pdata$common_control87    0000000180033cf8     libucrt:ieee.obj
 0004:00001d04       $pdata$_ctrlfp$filt$0      0000000180033d04     libucrt:fpctrl.obj
 0004:00001d04       $pdata$common_control87$filt$0 0000000180033d04     libucrt:ieee.obj
 0004:00001d10       $pdata$_call_matherr       0000000180033d10     libucrt:libm_error.obj
 0004:00001d1c       $pdata$_exception_enabled  0000000180033d1c     libucrt:libm_error.obj
 0004:00001d28       $pdata$_handle_error       0000000180033d28     libucrt:libm_error.obj
 0004:00001d34       $pdata$__acrt_initialize_fma3 0000000180033d34     libucrt:fma3_available.obj
 0004:00001d40       $pdata$_log_special_common 0000000180033d40     libucrt:log_special.obj
 0004:00001d4c       $pdata$_log10_special      0000000180033d4c     libucrt:log_special.obj
 0004:00001d58       $pdata$_putwch_nolock      0000000180033d58     libucrt:putwch.obj
 0004:00001d64       $pdata$_close              0000000180033d64     libucrt:close.obj
 0004:00001d70       $pdata$_close_nolock       0000000180033d70     libucrt:close.obj
 0004:00001d7c       $pdata$??$?RV<lambda_751a882b2c74d4b022dec766aa51a29a>@@AEAV<lambda_628dfdc04ba53c8bfc02c9951375f3f5>@@V<lambda_f6c7be5f7998530c34de24c7437d6b54>@@@?$__crt_seh_guarded_call@H@@QEAAH$$QEAV<lambda_751a882b2c74d4b022dec766aa51a29a>@@AEAV<lambda_628dfdc04ba53c8bfc02c9951375f3f5>@@$$QEAV<lambda_f6c7be5f7998530c34de24c7437d6b54>@@@Z 0000000180033d7c     libucrt:close.obj
 0004:00001d94       $pdata$_set_errno_from_matherr 0000000180033d94     libucrt:fpexcept.obj
 0004:00001da0       $pdata$_raise_exc          0000000180033da0     libucrt:fpexcept.obj
 0004:00001dac       $pdata$_raise_exc_ex       0000000180033dac     libucrt:fpexcept.obj
 0004:00001db8       $pdata$_clrfp              0000000180033db8     libucrt:fpctrl.obj
 0004:00001dc4       $pdata$_ctrlfp             0000000180033dc4     libucrt:fpctrl.obj
 0004:00001dd0       $pdata$_statfp             0000000180033dd0     libucrt:fpctrl.obj
 0004:00001ddc       $pdata$_set_statfp         0000000180033ddc     libucrt:fpctrl.obj
 0004:00001de8       $pdata$__dcrt_lowio_initialize_console_output 0000000180033de8     libucrt:initcon.obj
 0004:00001df4       $pdata$__dcrt_terminate_console_output 0000000180033df4     libucrt:initcon.obj
 0004:00001e00       $pdata$_IsNonwritableInCurrentImage 0000000180033e00     LIBCMT:pesect.obj
 0004:00001e0c       $pdata$_IsNonwritableInCurrentImage$filt$0 0000000180033e0c     LIBCMT:pesect.obj
 0004:00001e18       $pdata$strrchr             0000000180033e18     libvcruntime:strrchr.obj
 0005:00000220       $R000000                   0000000180034220     Keylock.res
 0005:00000b80       $R000960                   0000000180034b80     Keylock.res
 0005:00000c68       $R000A48                   0000000180034c68     Keylock.res
 0005:00000ed0       $R000CB0                   0000000180034ed0     Keylock.res
 0005:000013e0       $R0011C0                   00000001800353e0     Keylock.res
 0005:000038d0       $R0036B0                   00000001800378d0     Keylock.res
 0005:00003900       $R0036E0                   0000000180037900     Keylock.res
