 OPOSRemoteOrderDisplay

 Timestamp is 5c43ff5f (Sun Jan 20 13:55:59 2019)

 Preferred load address is 0000000180000000

 Start         Length     Name                   Class
 0001:00000000 000000c0H .text$di                CODE
 0001:000000c0 000208b0H .text$mn                CODE
 0001:00020970 00000020H .text$mn$00             CODE
 0001:00020990 00000410H .text$x                 CODE
 0001:00020da0 000000c0H .text$yd                CODE
 0002:00000000 00000620H .idata$5                DATA
 0002:00000620 00000010H .00cfg                  DATA
 0002:00000630 00000008H .CRT$XCA                DATA
 0002:00000638 00000008H .CRT$XCL                DATA
 0002:00000640 00000020H .CRT$XCU                DATA
 0002:00000660 00000008H .CRT$XCZ                DATA
 0002:00000668 00000008H .CRT$XIA                DATA
 0002:00000670 00000020H .CRT$XIC                DATA
 0002:00000690 00000008H .CRT$XIZ                DATA
 0002:00000698 00000008H .CRT$XLA                DATA
 0002:000006a0 00000008H .CRT$XLZ                DATA
 0002:000006a8 00000008H .CRT$XPA                DATA
 0002:000006b0 00000010H .CRT$XPX                DATA
 0002:000006c0 00000008H .CRT$XPXA               DATA
 0002:000006c8 00000008H .CRT$XPZ                DATA
 0002:000006d0 00000008H .CRT$XTA                DATA
 0002:000006d8 00000008H .CRT$XTZ                DATA
 0002:000006e0 00000000H .gfids$x                DATA
 0002:000006e0 00000000H .gfids$y                DATA
 0002:000006e0 0000a4f0H .rdata                  DATA
 0002:0000abd0 00000028H .rdata$T                DATA
 0002:0000abf8 00000274H .rdata$r                DATA
 0002:0000ae6c 00000404H .rdata$zzzdbg           DATA
 0002:0000b270 00000008H .rtc$IAA                DATA
 0002:0000b278 00000008H .rtc$IZZ                DATA
 0002:0000b280 00000008H .rtc$TAA                DATA
 0002:0000b288 00000008H .rtc$TZZ                DATA
 0002:0000b290 00000004H .tls                    DATA
 0002:0000b294 00000004H .tls$                   DATA
 0002:0000b298 00000008H .tls$ZZZ                DATA
 0002:0000b2a0 00001730H .xdata                  DATA
 0002:0000c9d0 00000150H .xdata$x                DATA
 0002:0000cb20 00000008H ATL$__a                 DATA
 0002:0000cb28 00000008H ATL$__z                 DATA
 0002:0000cb30 000000b4H .edata                  DATA
 0002:0000cbe4 00000078H .idata$2                DATA
 0002:0000cc5c 00000014H .idata$3                DATA
 0002:0000cc70 00000620H .idata$4                DATA
 0002:0000d290 00000c3aH .idata$6                DATA
 0003:00000000 00000cf8H .data                   DATA
 0003:00000cf8 000000c8H .data$r                 DATA
 0003:00000dc0 000013d4H .bss                    DATA
 0004:00000000 00001f68H .pdata                  DATA
 0005:00000000 00000220H .rsrc$01                DATA
 0005:00000220 00005630H .rsrc$02                DATA

  Address         Publics by Value              Rva+Base               Lib:Object

 0000:00000000       __guard_fids_count         0000000000000000     <absolute>
 0000:00000000       __guard_longjmp_count      0000000000000000     <absolute>
 0000:00000000       __guard_longjmp_table      0000000000000000     <absolute>
 0000:00000000       __hybrid_code_map          0000000000000000     <absolute>
 0000:00000000       __guard_iat_count          0000000000000000     <absolute>
 0000:00000000       __guard_iat_table          0000000000000000     <absolute>
 0000:00000000       __volatile_metadata        0000000000000000     <absolute>
 0000:00000000       __hybrid_code_map_count    0000000000000000     <absolute>
 0000:00000000       __enclave_config           0000000000000000     <absolute>
 0000:00000000       ___safe_se_handler_count   0000000000000000     <absolute>
 0000:00000000       ___safe_se_handler_table   0000000000000000     <absolute>
 0000:00000000       __guard_fids_table         0000000000000000     <absolute>
 0000:00000000       __hybrid_auxiliary_iat     0000000000000000     <absolute>
 0000:00000000       __dynamic_value_reloc_table 0000000000000000     <absolute>
 0000:00000100       __guard_flags              0000000000000100     <absolute>
 0000:00000000       __ImageBase                0000000180000000     <linker-defined>
 0001:000000c0       ?DupWide@_CW@@AEAAXXZ      00000001800010c0 f   CWString.obj
 0001:000000e8       ?cw_dup@@YAXPEBDAEAHAEAPEA_W1@Z 00000001800010e8 f   CWString.obj
 0001:00000194       ?cw_memcpy@@YAHPEA_WPEBDH@Z 0000000180001194 f   CWString.obj
 0001:000001e0       ?cw_strcpy@@YAHPEA_WPEBD@Z 00000001800011e0 f   CWString.obj
 0001:000001f4       ??0CAtlComModule@ATL@@QEAA@XZ 00000001800011f4 f i OposVariant.obj
 0001:0000027c       ??0CAtlWinModule@ATL@@QEAA@XZ 000000018000127c f i OposVariant.obj
 0001:000002f4       ??0OposDispParms@@QEAA@PEAVOposVariant@@H@Z 00000001800012f4 f   OposVariant.obj
 0001:0000039c       ??1OposDispParms@@QEAA@XZ  000000018000139c f   OposVariant.obj
 0001:000003b4       ??_Estringdispid@CComTypeInfoHolder@ATL@@QEAAPEAXI@Z 00000001800013b4 f i OposVariant.obj
 0001:00000458       ?AtlWinModuleTerm@ATL@@YAJPEAU_ATL_WIN_MODULE70@1@PEAUHINSTANCE__@@@Z 0000000180001458 f i OposVariant.obj
 0001:00000508       ?ChangeBSTR@OposVariant@@QEAAXPEAPEA_WAEAJ@Z 0000000180001508 f   OposVariant.obj
 0001:00000568       ?ChangeLONG@OposVariant@@QEAAXPEAJAEAJ@Z 0000000180001568 f   OposVariant.obj
 0001:000005c4       ?GetLONG@OposVariant@@QEAAJXZ 00000001800015c4 f   OposVariant.obj
 0001:000005e8       ?SetBSTR@OposVariant@@QEAAXPEA_WAEAJ@Z 00000001800015e8 f   OposVariant.obj
 0001:00000628       ?SetBSTR_Copy@OposVariant@@QEAAXPEA_WAEAJ@Z 0000000180001628 f   OposVariant.obj
 0001:00000698       ?SetBSTR_InOutPtr@OposVariant@@QEAA_NPEAPEA_WAEAJ@Z 0000000180001698 f   OposVariant.obj
 0001:000006e8       ?SetDispatch_Ptr@OposVariant@@QEAAXPEAUIDispatch@@AEAJ@Z 00000001800016e8 f   OposVariant.obj
 0001:00000740       ?SetLONG@OposVariant@@QEAAXJ@Z 0000000180001740 f   OposVariant.obj
 0001:00000770       ?SetLONG_Ptr@OposVariant@@QEAAXPEAJAEAJ@Z 0000000180001770 f   OposVariant.obj
 0001:000007bc       ?SetString@OposVariant@@QEAAXPEB_WAEAJ@Z 00000001800017bc f   OposVariant.obj
 0001:00000820       ?SetVARIANT_BOOL@OposVariant@@QEAAXF@Z 0000000180001820 f   OposVariant.obj
 0001:00000858       ?Term@CAtlComModule@ATL@@QEAAXXZ 0000000180001858 f i OposVariant.obj
 0001:000008c8       ?_AtlInitializeCriticalSectionEx@ATL@@YAHPEAU_RTL_CRITICAL_SECTION@@KK@Z 00000001800018c8 f i OposVariant.obj
 0001:000008d0       ?_AtlRaiseException@ATL@@YAXKK@Z 00000001800018d0 f i OposVariant.obj
 0001:000008e0       ?AddRef@?$CComObjectCached@VCComClassFactory@ATL@@@ATL@@UEAAKXZ 00000001800018e0 f i RemoteOrderDisplay.obj
 0001:0000090c       ?Release@?$CComObjectCached@VCComClassFactory@ATL@@@ATL@@UEAAKXZ 000000018000190c f i RemoteOrderDisplay.obj
 0001:0000094c       ?QueryInterface@?$CComObjectCached@VCComClassFactory@ATL@@@ATL@@UEAAJAEBU_GUID@@PEAPEAX@Z 000000018000194c f i RemoteOrderDisplay.obj
 0001:00000960       ??_G?$CComObjectCached@VCComClassFactory@ATL@@@ATL@@UEAAPEAXI@Z 0000000180001960 f i RemoteOrderDisplay.obj
 0001:00000960       ??_E?$CComObjectCached@VCComClassFactory@ATL@@@ATL@@UEAAPEAXI@Z 0000000180001960 f i RemoteOrderDisplay.obj
 0001:000009b8       ?AddRef@?$CComAggObject@VCOPOSRemoteOrderDisplay@@@ATL@@UEAAKXZ 00000001800019b8 f i RemoteOrderDisplay.obj
 0001:000009c4       ?Release@?$CComAggObject@VCOPOSRemoteOrderDisplay@@@ATL@@UEAAKXZ 00000001800019c4 f i RemoteOrderDisplay.obj
 0001:00000a18       ?QueryInterface@?$CComAggObject@VCOPOSRemoteOrderDisplay@@@ATL@@UEAAJAEBU_GUID@@PEAPEAX@Z 0000000180001a18 f i RemoteOrderDisplay.obj
 0001:00000a78       ?AddRef@?$CComContainedObject@VCOPOSRemoteOrderDisplay@@@ATL@@UEAAKXZ 0000000180001a78 f i RemoteOrderDisplay.obj
 0001:00000a88       ?Release@?$CComContainedObject@VCOPOSRemoteOrderDisplay@@@ATL@@UEAAKXZ 0000000180001a88 f i RemoteOrderDisplay.obj
 0001:00000a98       ?QueryInterface@?$CComContainedObject@VCOPOSRemoteOrderDisplay@@@ATL@@UEAAJAEBU_GUID@@PEAPEAX@Z 0000000180001a98 f i RemoteOrderDisplay.obj
 0001:00000aa8       ??_E?$CComAggObject@VCOPOSRemoteOrderDisplay@@@ATL@@UEAAPEAXI@Z 0000000180001aa8 f i RemoteOrderDisplay.obj
 0001:00000aa8       ??_G?$CComAggObject@VCOPOSRemoteOrderDisplay@@@ATL@@UEAAPEAXI@Z 0000000180001aa8 f i RemoteOrderDisplay.obj
 0001:00000b00       ?AddRef@?$CComObject@VCOPOSRemoteOrderDisplay@@@ATL@@UEAAKXZ 0000000180001b00 f i RemoteOrderDisplay.obj
 0001:00000b10       ?Release@?$CComObject@VCOPOSRemoteOrderDisplay@@@ATL@@UEAAKXZ 0000000180001b10 f i RemoteOrderDisplay.obj
 0001:00000b68       ?QueryInterface@?$CComObject@VCOPOSRemoteOrderDisplay@@@ATL@@UEAAJAEBU_GUID@@PEAPEAX@Z 0000000180001b68 f i RemoteOrderDisplay.obj
 0001:00000b7c       ?ObjectMain@CComObjectRootBase@ATL@@SAX_N@Z 0000000180001b7c f i RemoteOrderDisplay.obj
 0001:00000b7c       ?OnFinalMessage@?$CWindowImplBaseT@VCWindow@ATL@@V?$CWinTraits@$0FGAAAAAA@$0A@@2@@ATL@@UEAAXPEAUHWND__@@@Z 0000000180001b7c f i RemoteOrderDisplay.obj
 0001:00000b7c       _guard_check_icall_nop     0000000180001b7c f i LIBCMT:guard_support.obj
 0001:00000b80       ?SaveCompleted@?$IPersistStorageImpl@VCOPOSRemoteOrderDisplay@@@ATL@@UEAAJPEAUIStorage@@@Z 0000000180001b80 f i RemoteOrderDisplay.obj
 0001:00000b80       ?OnAmbientPropertyChange@?$IOleControlImpl@VCOPOSRemoteOrderDisplay@@@ATL@@UEAAJJ@Z 0000000180001b80 f i RemoteOrderDisplay.obj
 0001:00000b80       ?GetObjectDescription@?$CComCoClass@VCOPOSRemoteOrderDisplay@@$1?CLSID_OPOSRemoteOrderDisplay@@3U_GUID@@B@ATL@@SAPEB_WXZ 0000000180001b80 f i RemoteOrderDisplay.obj
 0001:00000b80       ?ResizeBorder@?$IOleInPlaceActiveObjectImpl@VCOPOSRemoteOrderDisplay@@@ATL@@UEAAJPEBUtagRECT@@PEAUIOleInPlaceUIWindow@@H@Z 0000000180001b80 f i RemoteOrderDisplay.obj
 0001:00000b80       ?SetHostNames@?$IOleObjectImpl@VCOPOSRemoteOrderDisplay@@@ATL@@UEAAJPEB_W0@Z 0000000180001b80 f i RemoteOrderDisplay.obj
 0001:00000b80       ?Update@?$IOleObjectImpl@VCOPOSRemoteOrderDisplay@@@ATL@@UEAAJXZ 0000000180001b80 f i RemoteOrderDisplay.obj
 0001:00000b80       ?GetCategoryMap@CComObjectRootBase@ATL@@SAPEBU_ATL_CATMAP_ENTRY@2@XZ 0000000180001b80 f i RemoteOrderDisplay.obj
 0001:00000b80       ?HandsOffStorage@?$IPersistStorageImpl@VCOPOSRemoteOrderDisplay@@@ATL@@UEAAJXZ 0000000180001b80 f i RemoteOrderDisplay.obj
 0001:00000b80       ?OnFrameWindowActivate@?$IOleInPlaceActiveObjectImpl@VCOPOSRemoteOrderDisplay@@@ATL@@UEAAJH@Z 0000000180001b80 f i RemoteOrderDisplay.obj
 0001:00000b80       ?IsUpToDate@?$IOleObjectImpl@VCOPOSRemoteOrderDisplay@@@ATL@@UEAAJXZ 0000000180001b80 f i RemoteOrderDisplay.obj
 0001:00000b80       ?EnableModeless@?$IOleInPlaceActiveObjectImpl@VCOPOSRemoteOrderDisplay@@@ATL@@UEAAJH@Z 0000000180001b80 f i RemoteOrderDisplay.obj
 0001:00000b80       ?Release@CRegObject@ATL@@UEAAKXZ 0000000180001b80 f i RemoteOrderDisplay.obj
 0001:00000b84       ?OnDrawAdvanced@CComControlBase@ATL@@UEAAJAEAUATL_DRAWINFO@@@Z 0000000180001b84 f i RemoteOrderDisplay.obj
 0001:00000ca4       ?CreateInstance@CComClassFactory@ATL@@UEAAJPEAUIUnknown@@AEBU_GUID@@PEAPEAX@Z 0000000180001ca4 f i RemoteOrderDisplay.obj
 0001:00000d04       ?LockServer@CComClassFactory@ATL@@UEAAJH@Z 0000000180001d04 f i RemoteOrderDisplay.obj
 0001:00000d28       ??_GCComClassFactory@ATL@@UEAAPEAXI@Z 0000000180001d28 f i RemoteOrderDisplay.obj
 0001:00000d28       ??_ECComClassFactory@ATL@@UEAAPEAXI@Z 0000000180001d28 f i RemoteOrderDisplay.obj
 0001:00000d78       ?Next@?$CComEnumImpl@UIEnumConnections@@$1?_GUID_b196b287_bab4_101a_b69c_00aa00341d07@@3U__s_GUID@@BUtagCONNECTDATA@@V?$_Copy@UtagCONNECTDATA@@@ATL@@@ATL@@UEAAJKPEAUtagCONNECTDATA@@PEAK@Z 0000000180001d78 f i RemoteOrderDisplay.obj
 0001:00000e4c       ?Skip@?$CComEnumImpl@UIEnumConnections@@$1?_GUID_b196b287_bab4_101a_b69c_00aa00341d07@@3U__s_GUID@@BUtagCONNECTDATA@@V?$_Copy@UtagCONNECTDATA@@@ATL@@@ATL@@UEAAJK@Z 0000000180001e4c f i RemoteOrderDisplay.obj
 0001:00000e78       ?Reset@?$CComEnumImpl@UIEnumConnections@@$1?_GUID_b196b287_bab4_101a_b69c_00aa00341d07@@3U__s_GUID@@BUtagCONNECTDATA@@V?$_Copy@UtagCONNECTDATA@@@ATL@@@ATL@@UEAAJXZ 0000000180001e78 f i RemoteOrderDisplay.obj
 0001:00000e78       ?Reset@?$CComEnumImpl@UIEnumConnectionPoints@@$1?_GUID_b196b285_bab4_101a_b69c_00aa00341d07@@3U__s_GUID@@BPEAUIConnectionPoint@@V?$_CopyInterface@UIConnectionPoint@@@ATL@@@ATL@@UEAAJXZ 0000000180001e78 f i RemoteOrderDisplay.obj
 0001:00000e84       ?Clone@?$CComEnumImpl@UIEnumConnections@@$1?_GUID_b196b287_bab4_101a_b69c_00aa00341d07@@3U__s_GUID@@BUtagCONNECTDATA@@V?$_Copy@UtagCONNECTDATA@@@ATL@@@ATL@@UEAAJPEAPEAUIEnumConnections@@@Z 0000000180001e84 f i RemoteOrderDisplay.obj
 0001:00000fac       ?AddRef@?$CComObject@V?$CComEnum@UIEnumConnectionPoints@@$1?_GUID_b196b285_bab4_101a_b69c_00aa00341d07@@3U__s_GUID@@BPEAUIConnectionPoint@@V?$_CopyInterface@UIConnectionPoint@@@ATL@@VCComSingleThreadModel@6@@ATL@@@ATL@@UEAAKXZ 0000000180001fac f i RemoteOrderDisplay.obj
 0001:00000fac       ?AddRef@?$CComObject@V?$CComEnum@UIEnumConnections@@$1?_GUID_b196b287_bab4_101a_b69c_00aa00341d07@@3U__s_GUID@@BUtagCONNECTDATA@@V?$_Copy@UtagCONNECTDATA@@@ATL@@VCComSingleThreadModel@6@@ATL@@@ATL@@UEAAKXZ 0000000180001fac f i RemoteOrderDisplay.obj
 0001:00000fb8       ?Release@?$CComObject@V?$CComEnum@UIEnumConnectionPoints@@$1?_GUID_b196b285_bab4_101a_b69c_00aa00341d07@@3U__s_GUID@@BPEAUIConnectionPoint@@V?$_CopyInterface@UIConnectionPoint@@@ATL@@VCComSingleThreadModel@6@@ATL@@@ATL@@UEAAKXZ 0000000180001fb8 f i RemoteOrderDisplay.obj
 0001:00000fb8       ?Release@?$CComObject@V?$CComEnum@UIEnumConnections@@$1?_GUID_b196b287_bab4_101a_b69c_00aa00341d07@@3U__s_GUID@@BUtagCONNECTDATA@@V?$_Copy@UtagCONNECTDATA@@@ATL@@VCComSingleThreadModel@6@@ATL@@@ATL@@UEAAKXZ 0000000180001fb8 f i RemoteOrderDisplay.obj
 0001:0000100c       ?QueryInterface@?$CComObject@V?$CComEnum@UIEnumConnections@@$1?_GUID_b196b287_bab4_101a_b69c_00aa00341d07@@3U__s_GUID@@BUtagCONNECTDATA@@V?$_Copy@UtagCONNECTDATA@@@ATL@@VCComSingleThreadModel@6@@ATL@@@ATL@@UEAAJAEBU_GUID@@PEAPEAX@Z 000000018000200c f i RemoteOrderDisplay.obj
 0001:00001020       ??_E?$CComObject@V?$CComEnum@UIEnumConnections@@$1?_GUID_b196b287_bab4_101a_b69c_00aa00341d07@@3U__s_GUID@@BUtagCONNECTDATA@@V?$_Copy@UtagCONNECTDATA@@@ATL@@VCComSingleThreadModel@6@@ATL@@@ATL@@UEAAPEAXI@Z 0000000180002020 f i RemoteOrderDisplay.obj
 0001:00001020       ??_G?$CComObject@V?$CComEnum@UIEnumConnections@@$1?_GUID_b196b287_bab4_101a_b69c_00aa00341d07@@3U__s_GUID@@BUtagCONNECTDATA@@V?$_Copy@UtagCONNECTDATA@@@ATL@@VCComSingleThreadModel@6@@ATL@@@ATL@@UEAAPEAXI@Z 0000000180002020 f i RemoteOrderDisplay.obj
 0001:00001078       ??_E?$CComObject@VCOPOSRemoteOrderDisplay@@@ATL@@W7EAAPEAXI@Z 0000000180002078 f i RemoteOrderDisplay.obj
 0001:00001084       ??_E?$CComObject@VCOPOSRemoteOrderDisplay@@@ATL@@WHA@EAAPEAXI@Z 0000000180002084 f i RemoteOrderDisplay.obj
 0001:00001090       ?QueryInterface@?$CComObject@VCOPOSRemoteOrderDisplay@@@ATL@@WLI@EAAJAEBU_GUID@@PEAPEAX@Z 0000000180002090 f i RemoteOrderDisplay.obj
 0001:0000109c       ?AddRef@?$CComObject@VCOPOSRemoteOrderDisplay@@@ATL@@WLI@EAAKXZ 000000018000209c f i RemoteOrderDisplay.obj
 0001:000010a8       ?Release@?$CComObject@VCOPOSRemoteOrderDisplay@@@ATL@@WLI@EAAKXZ 00000001800020a8 f i RemoteOrderDisplay.obj
 0001:000010b4       ?QueryInterface@?$CComObject@VCOPOSRemoteOrderDisplay@@@ATL@@WMA@EAAJAEBU_GUID@@PEAPEAX@Z 00000001800020b4 f i RemoteOrderDisplay.obj
 0001:000010c0       ?AddRef@?$CComObject@VCOPOSRemoteOrderDisplay@@@ATL@@WMA@EAAKXZ 00000001800020c0 f i RemoteOrderDisplay.obj
 0001:000010cc       ?Release@?$CComObject@VCOPOSRemoteOrderDisplay@@@ATL@@WMA@EAAKXZ 00000001800020cc f i RemoteOrderDisplay.obj
 0001:000010d8       ?QueryInterface@?$CComObject@VCOPOSRemoteOrderDisplay@@@ATL@@WMI@EAAJAEBU_GUID@@PEAPEAX@Z 00000001800020d8 f i RemoteOrderDisplay.obj
 0001:000010e4       ?AddRef@?$CComObject@VCOPOSRemoteOrderDisplay@@@ATL@@WMI@EAAKXZ 00000001800020e4 f i RemoteOrderDisplay.obj
 0001:000010f0       ?Release@?$CComObject@VCOPOSRemoteOrderDisplay@@@ATL@@WMI@EAAKXZ 00000001800020f0 f i RemoteOrderDisplay.obj
 0001:000010fc       ?QueryInterface@?$CComObject@VCOPOSRemoteOrderDisplay@@@ATL@@WNA@EAAJAEBU_GUID@@PEAPEAX@Z 00000001800020fc f i RemoteOrderDisplay.obj
 0001:00001108       ?AddRef@?$CComObject@VCOPOSRemoteOrderDisplay@@@ATL@@WNA@EAAKXZ 0000000180002108 f i RemoteOrderDisplay.obj
 0001:00001114       ?Release@?$CComObject@VCOPOSRemoteOrderDisplay@@@ATL@@WNA@EAAKXZ 0000000180002114 f i RemoteOrderDisplay.obj
 0001:00001120       ?QueryInterface@?$CComObject@VCOPOSRemoteOrderDisplay@@@ATL@@WNI@EAAJAEBU_GUID@@PEAPEAX@Z 0000000180002120 f i RemoteOrderDisplay.obj
 0001:0000112c       ?AddRef@?$CComObject@VCOPOSRemoteOrderDisplay@@@ATL@@WNI@EAAKXZ 000000018000212c f i RemoteOrderDisplay.obj
 0001:00001138       ?Release@?$CComObject@VCOPOSRemoteOrderDisplay@@@ATL@@WNI@EAAKXZ 0000000180002138 f i RemoteOrderDisplay.obj
 0001:00001144       ?QueryInterface@?$CComObject@VCOPOSRemoteOrderDisplay@@@ATL@@WOA@EAAJAEBU_GUID@@PEAPEAX@Z 0000000180002144 f i RemoteOrderDisplay.obj
 0001:00001150       ?AddRef@?$CComObject@VCOPOSRemoteOrderDisplay@@@ATL@@WOA@EAAKXZ 0000000180002150 f i RemoteOrderDisplay.obj
 0001:0000115c       ?Release@?$CComObject@VCOPOSRemoteOrderDisplay@@@ATL@@WOA@EAAKXZ 000000018000215c f i RemoteOrderDisplay.obj
 0001:00001168       ?QueryInterface@?$CComObject@VCOPOSRemoteOrderDisplay@@@ATL@@WOI@EAAJAEBU_GUID@@PEAPEAX@Z 0000000180002168 f i RemoteOrderDisplay.obj
 0001:00001174       ?AddRef@?$CComObject@VCOPOSRemoteOrderDisplay@@@ATL@@WOI@EAAKXZ 0000000180002174 f i RemoteOrderDisplay.obj
 0001:00001180       ?Release@?$CComObject@VCOPOSRemoteOrderDisplay@@@ATL@@WOI@EAAKXZ 0000000180002180 f i RemoteOrderDisplay.obj
 0001:0000118c       ?QueryInterface@?$CComObject@VCOPOSRemoteOrderDisplay@@@ATL@@WPA@EAAJAEBU_GUID@@PEAPEAX@Z 000000018000218c f i RemoteOrderDisplay.obj
 0001:00001198       ?AddRef@?$CComObject@VCOPOSRemoteOrderDisplay@@@ATL@@WPA@EAAKXZ 0000000180002198 f i RemoteOrderDisplay.obj
 0001:000011a4       ?Release@?$CComObject@VCOPOSRemoteOrderDisplay@@@ATL@@WPA@EAAKXZ 00000001800021a4 f i RemoteOrderDisplay.obj
 0001:000011b0       ?QueryInterface@?$CComObject@VCOPOSRemoteOrderDisplay@@@ATL@@WPI@EAAJAEBU_GUID@@PEAPEAX@Z 00000001800021b0 f i RemoteOrderDisplay.obj
 0001:000011bc       ?AddRef@?$CComObject@VCOPOSRemoteOrderDisplay@@@ATL@@WPI@EAAKXZ 00000001800021bc f i RemoteOrderDisplay.obj
 0001:000011c8       ?Release@?$CComObject@VCOPOSRemoteOrderDisplay@@@ATL@@WPI@EAAKXZ 00000001800021c8 f i RemoteOrderDisplay.obj
 0001:000011d4       ?QueryInterface@?$CComObject@VCOPOSRemoteOrderDisplay@@@ATL@@WBAA@EAAJAEBU_GUID@@PEAPEAX@Z 00000001800021d4 f i RemoteOrderDisplay.obj
 0001:000011e0       ?AddRef@?$CComObject@VCOPOSRemoteOrderDisplay@@@ATL@@WBAA@EAAKXZ 00000001800021e0 f i RemoteOrderDisplay.obj
 0001:000011ec       ?Release@?$CComObject@VCOPOSRemoteOrderDisplay@@@ATL@@WBAA@EAAKXZ 00000001800021ec f i RemoteOrderDisplay.obj
 0001:000011f8       ?QueryInterface@?$CComObject@VCOPOSRemoteOrderDisplay@@@ATL@@WBAI@EAAJAEBU_GUID@@PEAPEAX@Z 00000001800021f8 f i RemoteOrderDisplay.obj
 0001:00001204       ?AddRef@?$CComObject@VCOPOSRemoteOrderDisplay@@@ATL@@WBAI@EAAKXZ 0000000180002204 f i RemoteOrderDisplay.obj
 0001:00001210       ?Release@?$CComObject@VCOPOSRemoteOrderDisplay@@@ATL@@WBAI@EAAKXZ 0000000180002210 f i RemoteOrderDisplay.obj
 0001:0000121c       ?QueryInterface@?$CComObject@VCOPOSRemoteOrderDisplay@@@ATL@@WBBA@EAAJAEBU_GUID@@PEAPEAX@Z 000000018000221c f i RemoteOrderDisplay.obj
 0001:00001228       ?AddRef@?$CComObject@VCOPOSRemoteOrderDisplay@@@ATL@@WBBA@EAAKXZ 0000000180002228 f i RemoteOrderDisplay.obj
 0001:00001234       ?Release@?$CComObject@VCOPOSRemoteOrderDisplay@@@ATL@@WBBA@EAAKXZ 0000000180002234 f i RemoteOrderDisplay.obj
 0001:00001240       ?QueryInterface@?$CComObject@VCOPOSRemoteOrderDisplay@@@ATL@@WBBI@EAAJAEBU_GUID@@PEAPEAX@Z 0000000180002240 f i RemoteOrderDisplay.obj
 0001:0000124c       ?AddRef@?$CComObject@VCOPOSRemoteOrderDisplay@@@ATL@@WBBI@EAAKXZ 000000018000224c f i RemoteOrderDisplay.obj
 0001:00001258       ?Release@?$CComObject@VCOPOSRemoteOrderDisplay@@@ATL@@WBBI@EAAKXZ 0000000180002258 f i RemoteOrderDisplay.obj
 0001:00001264       ?AddRef@?$CComObject@VCOPOSRemoteOrderDisplay@@@ATL@@WBCI@EAAKXZ 0000000180002264 f i RemoteOrderDisplay.obj
 0001:00001270       ?Release@?$CComObject@VCOPOSRemoteOrderDisplay@@@ATL@@WBCI@EAAKXZ 0000000180002270 f i RemoteOrderDisplay.obj
 0001:0000127c       ?AddRef@?$CComObject@VCOPOSRemoteOrderDisplay@@@ATL@@WBEA@EAAKXZ 000000018000227c f i RemoteOrderDisplay.obj
 0001:00001288       ?Release@?$CComObject@VCOPOSRemoteOrderDisplay@@@ATL@@WBEA@EAAKXZ 0000000180002288 f i RemoteOrderDisplay.obj
 0001:00001294       ??_E?$CComContainedObject@VCOPOSRemoteOrderDisplay@@@ATL@@W7EAAPEAXI@Z 0000000180002294 f i RemoteOrderDisplay.obj
 0001:000012a0       ??_E?$CComContainedObject@VCOPOSRemoteOrderDisplay@@@ATL@@WHA@EAAPEAXI@Z 00000001800022a0 f i RemoteOrderDisplay.obj
 0001:000012ac       ?QueryInterface@?$CComContainedObject@VCOPOSRemoteOrderDisplay@@@ATL@@WLI@EAAJAEBU_GUID@@PEAPEAX@Z 00000001800022ac f i RemoteOrderDisplay.obj
 0001:000012b8       ?AddRef@?$CComContainedObject@VCOPOSRemoteOrderDisplay@@@ATL@@WLI@EAAKXZ 00000001800022b8 f i RemoteOrderDisplay.obj
 0001:000012c4       ?Release@?$CComContainedObject@VCOPOSRemoteOrderDisplay@@@ATL@@WLI@EAAKXZ 00000001800022c4 f i RemoteOrderDisplay.obj
 0001:000012d0       ?QueryInterface@?$CComContainedObject@VCOPOSRemoteOrderDisplay@@@ATL@@WMA@EAAJAEBU_GUID@@PEAPEAX@Z 00000001800022d0 f i RemoteOrderDisplay.obj
 0001:000012dc       ?AddRef@?$CComContainedObject@VCOPOSRemoteOrderDisplay@@@ATL@@WMA@EAAKXZ 00000001800022dc f i RemoteOrderDisplay.obj
 0001:000012e8       ?Release@?$CComContainedObject@VCOPOSRemoteOrderDisplay@@@ATL@@WMA@EAAKXZ 00000001800022e8 f i RemoteOrderDisplay.obj
 0001:000012f4       ?QueryInterface@?$CComContainedObject@VCOPOSRemoteOrderDisplay@@@ATL@@WMI@EAAJAEBU_GUID@@PEAPEAX@Z 00000001800022f4 f i RemoteOrderDisplay.obj
 0001:00001300       ?AddRef@?$CComContainedObject@VCOPOSRemoteOrderDisplay@@@ATL@@WMI@EAAKXZ 0000000180002300 f i RemoteOrderDisplay.obj
 0001:0000130c       ?Release@?$CComContainedObject@VCOPOSRemoteOrderDisplay@@@ATL@@WMI@EAAKXZ 000000018000230c f i RemoteOrderDisplay.obj
 0001:00001318       ?QueryInterface@?$CComContainedObject@VCOPOSRemoteOrderDisplay@@@ATL@@WNA@EAAJAEBU_GUID@@PEAPEAX@Z 0000000180002318 f i RemoteOrderDisplay.obj
 0001:00001324       ?AddRef@?$CComContainedObject@VCOPOSRemoteOrderDisplay@@@ATL@@WNA@EAAKXZ 0000000180002324 f i RemoteOrderDisplay.obj
 0001:00001330       ?Release@?$CComContainedObject@VCOPOSRemoteOrderDisplay@@@ATL@@WNA@EAAKXZ 0000000180002330 f i RemoteOrderDisplay.obj
 0001:0000133c       ?QueryInterface@?$CComContainedObject@VCOPOSRemoteOrderDisplay@@@ATL@@WNI@EAAJAEBU_GUID@@PEAPEAX@Z 000000018000233c f i RemoteOrderDisplay.obj
 0001:00001348       ?AddRef@?$CComContainedObject@VCOPOSRemoteOrderDisplay@@@ATL@@WNI@EAAKXZ 0000000180002348 f i RemoteOrderDisplay.obj
 0001:00001354       ?Release@?$CComContainedObject@VCOPOSRemoteOrderDisplay@@@ATL@@WNI@EAAKXZ 0000000180002354 f i RemoteOrderDisplay.obj
 0001:00001360       ?QueryInterface@?$CComContainedObject@VCOPOSRemoteOrderDisplay@@@ATL@@WOA@EAAJAEBU_GUID@@PEAPEAX@Z 0000000180002360 f i RemoteOrderDisplay.obj
 0001:0000136c       ?AddRef@?$CComContainedObject@VCOPOSRemoteOrderDisplay@@@ATL@@WOA@EAAKXZ 000000018000236c f i RemoteOrderDisplay.obj
 0001:00001378       ?Release@?$CComContainedObject@VCOPOSRemoteOrderDisplay@@@ATL@@WOA@EAAKXZ 0000000180002378 f i RemoteOrderDisplay.obj
 0001:00001384       ?QueryInterface@?$CComContainedObject@VCOPOSRemoteOrderDisplay@@@ATL@@WOI@EAAJAEBU_GUID@@PEAPEAX@Z 0000000180002384 f i RemoteOrderDisplay.obj
 0001:00001390       ?AddRef@?$CComContainedObject@VCOPOSRemoteOrderDisplay@@@ATL@@WOI@EAAKXZ 0000000180002390 f i RemoteOrderDisplay.obj
 0001:0000139c       ?Release@?$CComContainedObject@VCOPOSRemoteOrderDisplay@@@ATL@@WOI@EAAKXZ 000000018000239c f i RemoteOrderDisplay.obj
 0001:000013a8       ?QueryInterface@?$CComContainedObject@VCOPOSRemoteOrderDisplay@@@ATL@@WPA@EAAJAEBU_GUID@@PEAPEAX@Z 00000001800023a8 f i RemoteOrderDisplay.obj
 0001:000013b4       ?AddRef@?$CComContainedObject@VCOPOSRemoteOrderDisplay@@@ATL@@WPA@EAAKXZ 00000001800023b4 f i RemoteOrderDisplay.obj
 0001:000013c0       ?Release@?$CComContainedObject@VCOPOSRemoteOrderDisplay@@@ATL@@WPA@EAAKXZ 00000001800023c0 f i RemoteOrderDisplay.obj
 0001:000013cc       ?QueryInterface@?$CComContainedObject@VCOPOSRemoteOrderDisplay@@@ATL@@WPI@EAAJAEBU_GUID@@PEAPEAX@Z 00000001800023cc f i RemoteOrderDisplay.obj
 0001:000013d8       ?AddRef@?$CComContainedObject@VCOPOSRemoteOrderDisplay@@@ATL@@WPI@EAAKXZ 00000001800023d8 f i RemoteOrderDisplay.obj
 0001:000013e4       ?Release@?$CComContainedObject@VCOPOSRemoteOrderDisplay@@@ATL@@WPI@EAAKXZ 00000001800023e4 f i RemoteOrderDisplay.obj
 0001:000013f0       ?QueryInterface@?$CComContainedObject@VCOPOSRemoteOrderDisplay@@@ATL@@WBAA@EAAJAEBU_GUID@@PEAPEAX@Z 00000001800023f0 f i RemoteOrderDisplay.obj
 0001:000013fc       ?AddRef@?$CComContainedObject@VCOPOSRemoteOrderDisplay@@@ATL@@WBAA@EAAKXZ 00000001800023fc f i RemoteOrderDisplay.obj
 0001:00001408       ?Release@?$CComContainedObject@VCOPOSRemoteOrderDisplay@@@ATL@@WBAA@EAAKXZ 0000000180002408 f i RemoteOrderDisplay.obj
 0001:00001414       ?QueryInterface@?$CComContainedObject@VCOPOSRemoteOrderDisplay@@@ATL@@WBAI@EAAJAEBU_GUID@@PEAPEAX@Z 0000000180002414 f i RemoteOrderDisplay.obj
 0001:00001420       ?AddRef@?$CComContainedObject@VCOPOSRemoteOrderDisplay@@@ATL@@WBAI@EAAKXZ 0000000180002420 f i RemoteOrderDisplay.obj
 0001:0000142c       ?Release@?$CComContainedObject@VCOPOSRemoteOrderDisplay@@@ATL@@WBAI@EAAKXZ 000000018000242c f i RemoteOrderDisplay.obj
 0001:00001438       ?QueryInterface@?$CComContainedObject@VCOPOSRemoteOrderDisplay@@@ATL@@WBBA@EAAJAEBU_GUID@@PEAPEAX@Z 0000000180002438 f i RemoteOrderDisplay.obj
 0001:00001444       ?AddRef@?$CComContainedObject@VCOPOSRemoteOrderDisplay@@@ATL@@WBBA@EAAKXZ 0000000180002444 f i RemoteOrderDisplay.obj
 0001:00001450       ?Release@?$CComContainedObject@VCOPOSRemoteOrderDisplay@@@ATL@@WBBA@EAAKXZ 0000000180002450 f i RemoteOrderDisplay.obj
 0001:0000145c       ?QueryInterface@?$CComContainedObject@VCOPOSRemoteOrderDisplay@@@ATL@@WBBI@EAAJAEBU_GUID@@PEAPEAX@Z 000000018000245c f i RemoteOrderDisplay.obj
 0001:00001468       ?AddRef@?$CComContainedObject@VCOPOSRemoteOrderDisplay@@@ATL@@WBBI@EAAKXZ 0000000180002468 f i RemoteOrderDisplay.obj
 0001:00001474       ?Release@?$CComContainedObject@VCOPOSRemoteOrderDisplay@@@ATL@@WBBI@EAAKXZ 0000000180002474 f i RemoteOrderDisplay.obj
 0001:00001480       ?AddRef@?$CComContainedObject@VCOPOSRemoteOrderDisplay@@@ATL@@WBCI@EAAKXZ 0000000180002480 f i RemoteOrderDisplay.obj
 0001:0000148c       ?Release@?$CComContainedObject@VCOPOSRemoteOrderDisplay@@@ATL@@WBCI@EAAKXZ 000000018000248c f i RemoteOrderDisplay.obj
 0001:00001498       ?AddRef@?$CComContainedObject@VCOPOSRemoteOrderDisplay@@@ATL@@WBEA@EAAKXZ 0000000180002498 f i RemoteOrderDisplay.obj
 0001:000014a4       ?Release@?$CComContainedObject@VCOPOSRemoteOrderDisplay@@@ATL@@WBEA@EAAKXZ 00000001800024a4 f i RemoteOrderDisplay.obj
 0001:000014b0       ?Lock@CAtlModule@ATL@@UEAAJXZ 00000001800024b0 f i RemoteOrderDisplay.obj
 0001:000014c0       ?Unlock@CAtlModule@ATL@@UEAAJXZ 00000001800024c0 f i RemoteOrderDisplay.obj
 0001:000014cc       ?GetLockCount@CAtlModule@ATL@@UEAAJXZ 00000001800024cc f i RemoteOrderDisplay.obj
 0001:000014d0       ?GetGITPtr@CAtlModule@ATL@@UEAAJPEAPEAUIGlobalInterfaceTable@@@Z 00000001800024d0 f i RemoteOrderDisplay.obj
 0001:00001540       ?AddCommonRGSReplacements@?$CAtlModuleT@VCComModule@ATL@@@ATL@@UEAAJPEAUIRegistrarBase@@@Z 0000000180002540 f i RemoteOrderDisplay.obj
 0001:00001558       ?GetWindowProc@?$CWindowImplBaseT@VCWindow@ATL@@V?$CWinTraits@$0FGAAAAAA@$0A@@2@@ATL@@UEAAP6A_JPEAUHWND__@@I_K_J@ZXZ 0000000180002558 f i RemoteOrderDisplay.obj
 0001:00001560       ?StartWindowProc@?$CWindowImplBaseT@VCWindow@ATL@@V?$CWinTraits@$0FGAAAAAA@$0A@@2@@ATL@@SA_JPEAUHWND__@@I_K_J@Z 0000000180002560 f i RemoteOrderDisplay.obj
 0001:00001624       ?UpdateRegistryFromResourceD@CComModule@ATL@@UEAAJIHPEAU_ATL_REGMAP_ENTRY@2@@Z 0000000180002624 f i RemoteOrderDisplay.obj
 0001:00001624       ?UpdateRegistryFromResourceD@CComModule@ATL@@UEAAJPEB_WHPEAU_ATL_REGMAP_ENTRY@2@@Z 0000000180002624 f i RemoteOrderDisplay.obj
 0001:0000162c       ?UpdateRegistryFromResource@CComModule@ATL@@UEAAJPEB_WHPEAU_ATL_REGMAP_ENTRY@2@@Z 000000018000262c f i RemoteOrderDisplay.obj
 0001:00001634       ?UpdateRegistryFromResource@CComModule@ATL@@UEAAJIHPEAU_ATL_REGMAP_ENTRY@2@@Z 0000000180002634 f i RemoteOrderDisplay.obj
 0001:0000163c       ??_ECComModule@ATL@@UEAAPEAXI@Z 000000018000263c f i RemoteOrderDisplay.obj
 0001:0000163c       ??_GCComModule@ATL@@UEAAPEAXI@Z 000000018000263c f i RemoteOrderDisplay.obj
 0001:000016bc       ?GetTypeInfoCount@?$IDispatchImpl@UIOPOSRemoteOrderDisplay@@$1?IID_IOPOSRemoteOrderDisplay@@3U_GUID@@B$1?LIBID_OposRemoteOrderDisplay_CCO@@3U3@B$00$0A@VCComTypeInfoHolder@ATL@@@ATL@@UEAAJPEAI@Z 00000001800026bc f i RemoteOrderDisplay.obj
 0001:000016d0       ?GetTypeInfo@?$IDispatchImpl@UIOPOSRemoteOrderDisplay@@$1?IID_IOPOSRemoteOrderDisplay@@3U_GUID@@B$1?LIBID_OposRemoteOrderDisplay_CCO@@3U3@B$00$0A@VCComTypeInfoHolder@ATL@@@ATL@@UEAAJIKPEAPEAUITypeInfo@@@Z 00000001800026d0 f i RemoteOrderDisplay.obj
 0001:00001734       ?GetIDsOfNames@?$IDispatchImpl@UIOPOSRemoteOrderDisplay@@$1?IID_IOPOSRemoteOrderDisplay@@3U_GUID@@B$1?LIBID_OposRemoteOrderDisplay_CCO@@3U3@B$00$0A@VCComTypeInfoHolder@ATL@@@ATL@@UEAAJAEBU_GUID@@PEAPEA_WIKPEAJ@Z 0000000180002734 f i RemoteOrderDisplay.obj
 0001:00001740       ?Invoke@?$IDispatchImpl@UIOPOSRemoteOrderDisplay@@$1?IID_IOPOSRemoteOrderDisplay@@3U_GUID@@B$1?LIBID_OposRemoteOrderDisplay_CCO@@3U3@B$00$0A@VCComTypeInfoHolder@ATL@@@ATL@@UEAAJJAEBU_GUID@@KGPEAUtagDISPPARAMS@@PEAUtagVARIANT@@PEAUtagEXCEPINFO@@PEAI@Z 0000000180002740 f i RemoteOrderDisplay.obj
 0001:000017d0       ?CreateControlWindow@?$CComControl@VCOPOSRemoteOrderDisplay@@V?$CWindowImpl@VCOPOSRemoteOrderDisplay@@VCWindow@ATL@@V?$CWinTraits@$0FGAAAAAA@$0A@@3@@ATL@@@ATL@@UEAAPEAUHWND__@@PEAU3@AEAUtagRECT@@@Z 00000001800027d0 f i RemoteOrderDisplay.obj
 0001:00001808       ?ControlQueryInterface@?$CComControl@VCOPOSRemoteOrderDisplay@@V?$CWindowImpl@VCOPOSRemoteOrderDisplay@@VCWindow@ATL@@V?$CWinTraits@$0FGAAAAAA@$0A@@3@@ATL@@@ATL@@UEAAJAEBU_GUID@@PEAPEAX@Z 0000000180002808 f i RemoteOrderDisplay.obj
 0001:0000181c       ?GetUserClassID@?$IOleObjectImpl@VCOPOSRemoteOrderDisplay@@@ATL@@UEAAJPEAU_GUID@@@Z 000000018000281c f i RemoteOrderDisplay.obj
 0001:0000181c       ?GetClassID@?$IPersistStorageImpl@VCOPOSRemoteOrderDisplay@@@ATL@@UEAAJPEAU_GUID@@@Z 000000018000281c f i RemoteOrderDisplay.obj
 0001:0000181c       ?GetClassID@?$IPersistStreamInitImpl@VCOPOSRemoteOrderDisplay@@@ATL@@UEAAJPEAU_GUID@@@Z 000000018000281c f i RemoteOrderDisplay.obj
 0001:00001838       ?IsDirty@?$IPersistStreamInitImpl@VCOPOSRemoteOrderDisplay@@@ATL@@UEAAJXZ 0000000180002838 f i RemoteOrderDisplay.obj
 0001:00001854       ?Load@?$IPersistStreamInitImpl@VCOPOSRemoteOrderDisplay@@@ATL@@UEAAJPEAUIStream@@@Z 0000000180002854 f i RemoteOrderDisplay.obj
 0001:000018a4       ?Save@?$IPersistStreamInitImpl@VCOPOSRemoteOrderDisplay@@@ATL@@UEAAJPEAUIStream@@H@Z 00000001800028a4 f i RemoteOrderDisplay.obj
 0001:00001908       ?GetSizeMax@?$IPersistStreamInitImpl@VCOPOSRemoteOrderDisplay@@@ATL@@UEAAJPEAT_ULARGE_INTEGER@@@Z 0000000180002908 f i RemoteOrderDisplay.obj
 0001:00001b34       ?InitNew@?$IPersistStreamInitImpl@VCOPOSRemoteOrderDisplay@@@ATL@@UEAAJXZ 0000000180002b34 f i RemoteOrderDisplay.obj
 0001:00001b4c       ?ContextSensitiveHelp@?$IOleInPlaceActiveObjectImpl@VCOPOSRemoteOrderDisplay@@@ATL@@UEAAJH@Z 0000000180002b4c f i RemoteOrderDisplay.obj
 0001:00001b4c       ?OnMnemonic@?$IOleControlImpl@VCOPOSRemoteOrderDisplay@@@ATL@@UEAAJPEAUtagMSG@@@Z 0000000180002b4c f i RemoteOrderDisplay.obj
 0001:00001b4c       ?Freeze@?$IViewObjectExImpl@VCOPOSRemoteOrderDisplay@@@ATL@@UEAAJKJPEAXPEAK@Z 0000000180002b4c f i RemoteOrderDisplay.obj
 0001:00001b4c       ?SetData@?$IDataObjectImpl@VCOPOSRemoteOrderDisplay@@@ATL@@UEAAJPEAUtagFORMATETC@@PEAUtagSTGMEDIUM@@H@Z 0000000180002b4c f i RemoteOrderDisplay.obj
 0001:00001b4c       ?Unfreeze@?$IViewObjectExImpl@VCOPOSRemoteOrderDisplay@@@ATL@@UEAAJK@Z 0000000180002b4c f i RemoteOrderDisplay.obj
 0001:00001b4c       ?GetControlInfo@?$IOleControlImpl@VCOPOSRemoteOrderDisplay@@@ATL@@UEAAJPEAUtagCONTROLINFO@@@Z 0000000180002b4c f i RemoteOrderDisplay.obj
 0001:00001b4c       ?EnumFormatEtc@?$IDataObjectImpl@VCOPOSRemoteOrderDisplay@@@ATL@@UEAAJKPEAPEAUIEnumFORMATETC@@@Z 0000000180002b4c f i RemoteOrderDisplay.obj
 0001:00001b4c       ?SetMoniker@?$IOleObjectImpl@VCOPOSRemoteOrderDisplay@@@ATL@@UEAAJKPEAUIMoniker@@@Z 0000000180002b4c f i RemoteOrderDisplay.obj
 0001:00001b4c       ?GetRect@?$IViewObjectExImpl@VCOPOSRemoteOrderDisplay@@@ATL@@UEAAJKPEAU_RECTL@@@Z 0000000180002b4c f i RemoteOrderDisplay.obj
 0001:00001b4c       ?QueryInterface@CRegObject@ATL@@UEAAJAEBU_GUID@@PEAPEAX@Z 0000000180002b4c f i RemoteOrderDisplay.obj
 0001:00001b4c       ?InitFromData@?$IOleObjectImpl@VCOPOSRemoteOrderDisplay@@@ATL@@UEAAJPEAUIDataObject@@HK@Z 0000000180002b4c f i RemoteOrderDisplay.obj
 0001:00001b4c       ?GetDataHere@?$IDataObjectImpl@VCOPOSRemoteOrderDisplay@@@ATL@@UEAAJPEAUtagFORMATETC@@PEAUtagSTGMEDIUM@@@Z 0000000180002b4c f i RemoteOrderDisplay.obj
 0001:00001b4c       ?GetCanonicalFormatEtc@?$IDataObjectImpl@VCOPOSRemoteOrderDisplay@@@ATL@@UEAAJPEAUtagFORMATETC@@0@Z 0000000180002b4c f i RemoteOrderDisplay.obj
 0001:00001b4c       ?ContextSensitiveHelp@?$IOleInPlaceObjectWindowlessImpl@VCOPOSRemoteOrderDisplay@@@ATL@@UEAAJH@Z 0000000180002b4c f i RemoteOrderDisplay.obj
 0001:00001b4c       ?QueryGetData@?$IDataObjectImpl@VCOPOSRemoteOrderDisplay@@@ATL@@UEAAJPEAUtagFORMATETC@@@Z 0000000180002b4c f i RemoteOrderDisplay.obj
 0001:00001b4c       ?GetDropTarget@?$IOleInPlaceObjectWindowlessImpl@VCOPOSRemoteOrderDisplay@@@ATL@@UEAAJPEAPEAUIDropTarget@@@Z 0000000180002b4c f i RemoteOrderDisplay.obj
 0001:00001b4c       ?GetMoniker@?$IOleObjectImpl@VCOPOSRemoteOrderDisplay@@@ATL@@UEAAJKKPEAPEAUIMoniker@@@Z 0000000180002b4c f i RemoteOrderDisplay.obj
 0001:00001b4c       ?SetColorScheme@?$IOleObjectImpl@VCOPOSRemoteOrderDisplay@@@ATL@@UEAAJPEAUtagLOGPALETTE@@@Z 0000000180002b4c f i RemoteOrderDisplay.obj
 0001:00001b4c       ?GetColorSet@?$IViewObjectExImpl@VCOPOSRemoteOrderDisplay@@@ATL@@UEAAJKJPEAXPEAUtagDVTARGETDEVICE@@PEAUHDC__@@PEAPEAUtagLOGPALETTE@@@Z 0000000180002b4c f i RemoteOrderDisplay.obj
 0001:00001b4c       ?ReactivateAndUndo@?$IOleInPlaceObjectWindowlessImpl@VCOPOSRemoteOrderDisplay@@@ATL@@UEAAJXZ 0000000180002b4c f i RemoteOrderDisplay.obj
 0001:00001b4c       ?GetClipboardData@?$IOleObjectImpl@VCOPOSRemoteOrderDisplay@@@ATL@@UEAAJKPEAPEAUIDataObject@@@Z 0000000180002b4c f i RemoteOrderDisplay.obj
 0001:00001b54       ?SetClientSite@?$IOleObjectImpl@VCOPOSRemoteOrderDisplay@@@ATL@@UEAAJPEAUIOleClientSite@@@Z 0000000180002b54 f i RemoteOrderDisplay.obj
 0001:00001b70       ?GetClientSite@?$IOleObjectImpl@VCOPOSRemoteOrderDisplay@@@ATL@@UEAAJPEAPEAUIOleClientSite@@@Z 0000000180002b70 f i RemoteOrderDisplay.obj
 0001:00001bb8       ?Close@?$IOleObjectImpl@VCOPOSRemoteOrderDisplay@@@ATL@@UEAAJK@Z 0000000180002bb8 f i RemoteOrderDisplay.obj
 0001:00001bd4       ?DoVerb@?$IOleObjectImpl@VCOPOSRemoteOrderDisplay@@@ATL@@UEAAJJPEAUtagMSG@@PEAUIOleClientSite@@JPEAUHWND__@@PEBUtagRECT@@@Z 0000000180002bd4 f i RemoteOrderDisplay.obj
 0001:00001d78       ?EnumVerbs@?$IOleObjectImpl@VCOPOSRemoteOrderDisplay@@@ATL@@UEAAJPEAPEAUIEnumOLEVERB@@@Z 0000000180002d78 f i RemoteOrderDisplay.obj
 0001:00001d94       ?GetUserType@?$IOleObjectImpl@VCOPOSRemoteOrderDisplay@@@ATL@@UEAAJKPEAPEA_W@Z 0000000180002d94 f i RemoteOrderDisplay.obj
 0001:00001da4       ?SetExtent@?$IOleObjectImpl@VCOPOSRemoteOrderDisplay@@@ATL@@UEAAJKPEAUtagSIZE@@@Z 0000000180002da4 f i RemoteOrderDisplay.obj
 0001:00001dc0       ?GetExtent@?$IOleObjectImpl@VCOPOSRemoteOrderDisplay@@@ATL@@UEAAJKPEAUtagSIZE@@@Z 0000000180002dc0 f i RemoteOrderDisplay.obj
 0001:00001df0       ?Advise@?$IOleObjectImpl@VCOPOSRemoteOrderDisplay@@@ATL@@UEAAJPEAUIAdviseSink@@PEAK@Z 0000000180002df0 f i RemoteOrderDisplay.obj
 0001:00001e4c       ?Unadvise@?$IOleObjectImpl@VCOPOSRemoteOrderDisplay@@@ATL@@UEAAJK@Z 0000000180002e4c f i RemoteOrderDisplay.obj
 0001:00001e84       ?EnumAdvise@?$IOleObjectImpl@VCOPOSRemoteOrderDisplay@@@ATL@@UEAAJPEAPEAUIEnumSTATDATA@@@Z 0000000180002e84 f i RemoteOrderDisplay.obj
 0001:00001ecc       ?GetMiscStatus@?$IOleObjectImpl@VCOPOSRemoteOrderDisplay@@@ATL@@UEAAJKPEAK@Z 0000000180002ecc f i RemoteOrderDisplay.obj
 0001:00001edc       ?GetWindow@?$IOleInPlaceActiveObjectImpl@VCOPOSRemoteOrderDisplay@@@ATL@@UEAAJPEAPEAUHWND__@@@Z 0000000180002edc f i RemoteOrderDisplay.obj
 0001:00001f30       ?TranslateAcceleratorW@?$IOleInPlaceActiveObjectImpl@VCOPOSRemoteOrderDisplay@@@ATL@@UEAAJPEAUtagMSG@@@Z 0000000180002f30 f i RemoteOrderDisplay.obj
 0001:00002024       ?OnDocWindowActivate@?$IOleInPlaceActiveObjectImpl@VCOPOSRemoteOrderDisplay@@@ATL@@UEAAJH@Z 0000000180003024 f i RemoteOrderDisplay.obj
 0001:00002050       ?Draw@?$IViewObjectExImpl@VCOPOSRemoteOrderDisplay@@@ATL@@UEAAJKJPEAXPEAUtagDVTARGETDEVICE@@PEAUHDC__@@2PEBU_RECTL@@3P6AH_K@Z4@Z 0000000180003050 f i RemoteOrderDisplay.obj
 0001:000020b4       ?SetAdvise@?$IViewObjectExImpl@VCOPOSRemoteOrderDisplay@@@ATL@@UEAAJKKPEAUIAdviseSink@@@Z 00000001800030b4 f i RemoteOrderDisplay.obj
 0001:00002108       ?GetAdvise@?$IViewObjectExImpl@VCOPOSRemoteOrderDisplay@@@ATL@@UEAAJPEAK0PEAPEAUIAdviseSink@@@Z 0000000180003108 f i RemoteOrderDisplay.obj
 0001:00002144       ?GetExtent@?$IViewObjectExImpl@VCOPOSRemoteOrderDisplay@@@ATL@@UEAAJKJPEAUtagDVTARGETDEVICE@@PEAUtagSIZE@@@Z 0000000180003144 f i RemoteOrderDisplay.obj
 0001:00002174       ?GetViewStatus@?$IViewObjectExImpl@VCOPOSRemoteOrderDisplay@@@ATL@@UEAAJPEAK@Z 0000000180003174 f i RemoteOrderDisplay.obj
 0001:00002188       ?QueryHitPoint@?$IViewObjectExImpl@VCOPOSRemoteOrderDisplay@@@ATL@@UEAAJKPEBUtagRECT@@UtagPOINT@@JPEAK@Z 0000000180003188 f i RemoteOrderDisplay.obj
 0001:000021cc       ?QueryHitRect@?$IViewObjectExImpl@VCOPOSRemoteOrderDisplay@@@ATL@@UEAAJKPEBUtagRECT@@0JPEAK@Z 00000001800031cc f i RemoteOrderDisplay.obj
 0001:00002234       ?GetNaturalExtent@?$IViewObjectExImpl@VCOPOSRemoteOrderDisplay@@@ATL@@UEAAJKJPEAUtagDVTARGETDEVICE@@PEAUHDC__@@PEAUtagExtentInfo@@PEAUtagSIZE@@@Z 0000000180003234 f i RemoteOrderDisplay.obj
 0001:0000227c       ?GetWindow@?$IOleInPlaceObjectWindowlessImpl@VCOPOSRemoteOrderDisplay@@@ATL@@UEAAJPEAPEAUHWND__@@@Z 000000018000327c f i RemoteOrderDisplay.obj
 0001:000022d0       ?InPlaceDeactivate@?$IOleInPlaceObjectWindowlessImpl@VCOPOSRemoteOrderDisplay@@@ATL@@UEAAJXZ 00000001800032d0 f i RemoteOrderDisplay.obj
 0001:000022ec       ?UIDeactivate@?$IOleInPlaceObjectWindowlessImpl@VCOPOSRemoteOrderDisplay@@@ATL@@UEAAJXZ 00000001800032ec f i RemoteOrderDisplay.obj
 0001:00002308       ?SetObjectRects@?$IOleInPlaceObjectWindowlessImpl@VCOPOSRemoteOrderDisplay@@@ATL@@UEAAJPEBUtagRECT@@0@Z 0000000180003308 f i RemoteOrderDisplay.obj
 0001:00002324       ?OnWindowMessage@?$IOleInPlaceObjectWindowlessImpl@VCOPOSRemoteOrderDisplay@@@ATL@@UEAAJI_K_JPEA_J@Z 0000000180003324 f i RemoteOrderDisplay.obj
 0001:000023ec       ?EnumConnectionPoints@?$IConnectionPointContainerImpl@VCOPOSRemoteOrderDisplay@@@ATL@@UEAAJPEAPEAUIEnumConnectionPoints@@@Z 00000001800033ec f i RemoteOrderDisplay.obj
 0001:00002634       ?FindConnectionPoint@?$IConnectionPointContainerImpl@VCOPOSRemoteOrderDisplay@@@ATL@@UEAAJAEBU_GUID@@PEAPEAUIConnectionPoint@@@Z 0000000180003634 f i RemoteOrderDisplay.obj
 0001:00002704       ?IsDirty@?$IPersistStorageImpl@VCOPOSRemoteOrderDisplay@@@ATL@@UEAAJXZ 0000000180003704 f i RemoteOrderDisplay.obj
 0001:00002748       ?InitNew@?$IPersistStorageImpl@VCOPOSRemoteOrderDisplay@@@ATL@@UEAAJPEAUIStorage@@@Z 0000000180003748 f i RemoteOrderDisplay.obj
 0001:0000278c       ?Load@?$IPersistStorageImpl@VCOPOSRemoteOrderDisplay@@@ATL@@UEAAJPEAUIStorage@@@Z 000000018000378c f i RemoteOrderDisplay.obj
 0001:0000282c       ?Save@?$IPersistStorageImpl@VCOPOSRemoteOrderDisplay@@@ATL@@UEAAJPEAUIStorage@@H@Z 000000018000382c f i RemoteOrderDisplay.obj
 0001:000028dc       ?GetPages@?$ISpecifyPropertyPagesImpl@VCOPOSRemoteOrderDisplay@@@ATL@@UEAAJPEAUtagCAUUID@@@Z 00000001800038dc f i RemoteOrderDisplay.obj
 0001:000028e8       ?QuickActivate@?$IQuickActivateImpl@VCOPOSRemoteOrderDisplay@@@ATL@@UEAAJPEAUtagQACONTAINER@@PEAUtagQACONTROL@@@Z 00000001800038e8 f i RemoteOrderDisplay.obj
 0001:00002904       ?SetContentExtent@?$IQuickActivateImpl@VCOPOSRemoteOrderDisplay@@@ATL@@UEAAJPEAUtagSIZE@@@Z 0000000180003904 f i RemoteOrderDisplay.obj
 0001:00002938       ?GetContentExtent@?$IQuickActivateImpl@VCOPOSRemoteOrderDisplay@@@ATL@@UEAAJPEAUtagSIZE@@@Z 0000000180003938 f i RemoteOrderDisplay.obj
 0001:00002970       ?GetData@?$IDataObjectImpl@VCOPOSRemoteOrderDisplay@@@ATL@@UEAAJPEAUtagFORMATETC@@PEAUtagSTGMEDIUM@@@Z 0000000180003970 f i RemoteOrderDisplay.obj
 0001:0000298c       ?DAdvise@?$IDataObjectImpl@VCOPOSRemoteOrderDisplay@@@ATL@@UEAAJPEAUtagFORMATETC@@KPEAUIAdviseSink@@PEAK@Z 000000018000398c f i RemoteOrderDisplay.obj
 0001:00002a14       ?DUnadvise@?$IDataObjectImpl@VCOPOSRemoteOrderDisplay@@@ATL@@UEAAJK@Z 0000000180003a14 f i RemoteOrderDisplay.obj
 0001:00002a40       ?EnumDAdvise@?$IDataObjectImpl@VCOPOSRemoteOrderDisplay@@@ATL@@UEAAJPEAPEAUIEnumSTATDATA@@@Z 0000000180003a40 f i RemoteOrderDisplay.obj
 0001:00002a7c       ?GetClassInfoW@?$IProvideClassInfo2Impl@$1?CLSID_OPOSRemoteOrderDisplay@@3U_GUID@@B$1?DIID__IOPOSRemoteOrderDisplayEvents@@3U2@B$1?LIBID_OposRemoteOrderDisplay_CCO@@3U2@B$00$0A@VCComTypeInfoHolder@ATL@@@ATL@@UEAAJPEAPEAUITypeInfo@@@Z 0000000180003a7c f i RemoteOrderDisplay.obj
 0001:00002ad4       ?GetGUID@?$IProvideClassInfo2Impl@$1?CLSID_OPOSRemoteOrderDisplay@@3U_GUID@@B$1?DIID__IOPOSRemoteOrderDisplayEvents@@3U2@B$1?LIBID_OposRemoteOrderDisplay_CCO@@3U2@B$00$0A@VCComTypeInfoHolder@ATL@@@ATL@@UEAAJKPEAU_GUID@@@Z 0000000180003ad4 f i RemoteOrderDisplay.obj
 0001:00002b08       ?FAccessAllowed@?$IObjectSafetyImpl@VCOPOSRemoteOrderDisplay@@$02@ATL@@MEAAHXZ 0000000180003b08 f i RemoteOrderDisplay.obj
 0001:00002b08       _get_startup_argv_mode     0000000180003b08 f i LIBCMT:argv_mode.obj
 0001:00002b08       ?AddRef@CRegObject@ATL@@UEAAKXZ 0000000180003b08 f i RemoteOrderDisplay.obj
 0001:00002b10       ?GetInterfaceSafetyOptions@?$IObjectSafetyImpl@VCOPOSRemoteOrderDisplay@@$02@ATL@@UEAAJAEBU_GUID@@PEAK1@Z 0000000180003b10 f i RemoteOrderDisplay.obj
 0001:00002ba4       ?SetInterfaceSafetyOptions@?$IObjectSafetyImpl@VCOPOSRemoteOrderDisplay@@$02@ATL@@UEAAJAEBU_GUID@@KK@Z 0000000180003ba4 f i RemoteOrderDisplay.obj
 0001:00002c48       ?_LocCPQueryInterface@?$IConnectionPointImpl@VCOPOSRemoteOrderDisplay@@$1?DIID__IOPOSRemoteOrderDisplayEvents@@3U_GUID@@BVCComDynamicUnkArray@ATL@@@ATL@@UEAAJAEBU_GUID@@PEAPEAX@Z 0000000180003c48 f i RemoteOrderDisplay.obj
 0001:00002c48       ?_LocCPQueryInterface@?$IConnectionPointImpl@VCOPOSRemoteOrderDisplay@@$1?IID_IPropertyNotifySink@@3U_GUID@@BVCComDynamicUnkArray@ATL@@@ATL@@UEAAJAEBU_GUID@@PEAPEAX@Z 0000000180003c48 f i RemoteOrderDisplay.obj
 0001:00002cbc       ?GetConnectionInterface@?$IConnectionPointImpl@VCOPOSRemoteOrderDisplay@@$1?IID_IPropertyNotifySink@@3U_GUID@@BVCComDynamicUnkArray@ATL@@@ATL@@UEAAJPEAU_GUID@@@Z 0000000180003cbc f i RemoteOrderDisplay.obj
 0001:00002cd8       ?GetConnectionPointContainer@?$IConnectionPointImpl@VCOPOSRemoteOrderDisplay@@$1?IID_IPropertyNotifySink@@3U_GUID@@BVCComDynamicUnkArray@ATL@@@ATL@@UEAAJPEAPEAUIConnectionPointContainer@@@Z 0000000180003cd8 f i RemoteOrderDisplay.obj
 0001:00002cf8       ?Advise@?$IConnectionPointImpl@VCOPOSRemoteOrderDisplay@@$1?IID_IPropertyNotifySink@@3U_GUID@@BVCComDynamicUnkArray@ATL@@@ATL@@UEAAJPEAUIUnknown@@PEAK@Z 0000000180003cf8 f i RemoteOrderDisplay.obj
 0001:00002cf8       ?Advise@?$IConnectionPointImpl@VCOPOSRemoteOrderDisplay@@$1?DIID__IOPOSRemoteOrderDisplayEvents@@3U_GUID@@BVCComDynamicUnkArray@ATL@@@ATL@@UEAAJPEAUIUnknown@@PEAK@Z 0000000180003cf8 f i RemoteOrderDisplay.obj
 0001:00002db8       ?Unadvise@?$IConnectionPointImpl@VCOPOSRemoteOrderDisplay@@$1?DIID__IOPOSRemoteOrderDisplayEvents@@3U_GUID@@BVCComDynamicUnkArray@ATL@@@ATL@@UEAAJK@Z 0000000180003db8 f i RemoteOrderDisplay.obj
 0001:00002db8       ?Unadvise@?$IConnectionPointImpl@VCOPOSRemoteOrderDisplay@@$1?IID_IPropertyNotifySink@@3U_GUID@@BVCComDynamicUnkArray@ATL@@@ATL@@UEAAJK@Z 0000000180003db8 f i RemoteOrderDisplay.obj
 0001:00002e34       ?EnumConnections@?$IConnectionPointImpl@VCOPOSRemoteOrderDisplay@@$1?DIID__IOPOSRemoteOrderDisplayEvents@@3U_GUID@@BVCComDynamicUnkArray@ATL@@@ATL@@UEAAJPEAPEAUIEnumConnections@@@Z 0000000180003e34 f i RemoteOrderDisplay.obj
 0001:00002e34       ?EnumConnections@?$IConnectionPointImpl@VCOPOSRemoteOrderDisplay@@$1?IID_IPropertyNotifySink@@3U_GUID@@BVCComDynamicUnkArray@ATL@@@ATL@@UEAAJPEAPEAUIEnumConnections@@@Z 0000000180003e34 f i RemoteOrderDisplay.obj
 0001:00002fdc       ?GetConnectionInterface@?$IConnectionPointImpl@VCOPOSRemoteOrderDisplay@@$1?DIID__IOPOSRemoteOrderDisplayEvents@@3U_GUID@@BVCComDynamicUnkArray@ATL@@@ATL@@UEAAJPEAU_GUID@@@Z 0000000180003fdc f i RemoteOrderDisplay.obj
 0001:00002ff8       ?GetConnectionPointContainer@?$IConnectionPointImpl@VCOPOSRemoteOrderDisplay@@$1?DIID__IOPOSRemoteOrderDisplayEvents@@3U_GUID@@BVCComDynamicUnkArray@ATL@@@ATL@@UEAAJPEAPEAUIConnectionPointContainer@@@Z 0000000180003ff8 f i RemoteOrderDisplay.obj
 0001:00003018       ?UpdateRegistry@COPOSRemoteOrderDisplay@@SAJH@Z 0000000180004018 f i RemoteOrderDisplay.obj
 0001:00003030       ?ProcessWindowMessage@COPOSRemoteOrderDisplay@@UEAAHPEAUHWND__@@I_K_JAEA_JK@Z 0000000180004030 f i RemoteOrderDisplay.obj
 0001:000030b8       ?SOData@COPOSRemoteOrderDisplay@@MEAAJJ@Z 00000001800040b8 f i RemoteOrderDisplay.obj
 0001:00003108       ?SODirectIO@COPOSRemoteOrderDisplay@@MEAAJJPEAJPEAPEA_W@Z 0000000180004108 f i RemoteOrderDisplay.obj
 0001:00003180       ?SOError@COPOSRemoteOrderDisplay@@MEAAJJJJPEAJ@Z 0000000180004180 f i RemoteOrderDisplay.obj
 0001:00003208       ?SOOutputComplete@COPOSRemoteOrderDisplay@@MEAAJJ@Z 0000000180004208 f i RemoteOrderDisplay.obj
 0001:00003258       ?SOStatusUpdate@COPOSRemoteOrderDisplay@@MEAAJJ@Z 0000000180004258 f i RemoteOrderDisplay.obj
 0001:000032a8       ?AddReplacement@CRegObject@ATL@@UEAAJPEB_W0@Z 00000001800042a8 f i RemoteOrderDisplay.obj
 0001:000032d8       ?ClearReplacements@CRegObject@ATL@@UEAAJXZ 00000001800042d8 f i RemoteOrderDisplay.obj
 0001:000032e4       ??_GCRegObject@ATL@@UEAAPEAXI@Z 00000001800042e4 f i RemoteOrderDisplay.obj
 0001:000032e4       ??_ECRegObject@ATL@@UEAAPEAXI@Z 00000001800042e4 f i RemoteOrderDisplay.obj
 0001:00003364       ?CreateInstance@?$CComCreator@V?$CComObjectCached@VCComClassFactory@ATL@@@ATL@@@ATL@@SAJPEAXAEBU_GUID@@PEAPEAX@Z 0000000180004364 f i RemoteOrderDisplay.obj
 0001:00003468       ?CreateInstance@?$CComCreator2@V?$CComCreator@V?$CComObject@VCOPOSRemoteOrderDisplay@@@ATL@@@ATL@@V?$CComCreator@V?$CComAggObject@VCOPOSRemoteOrderDisplay@@@ATL@@@2@@ATL@@SAJPEAXAEBU_GUID@@PEAPEAX@Z 0000000180004468 f i RemoteOrderDisplay.obj
 0001:00003478       ?Next@?$CComEnumImpl@UIEnumConnectionPoints@@$1?_GUID_b196b285_bab4_101a_b69c_00aa00341d07@@3U__s_GUID@@BPEAUIConnectionPoint@@V?$_CopyInterface@UIConnectionPoint@@@ATL@@@ATL@@UEAAJKPEAPEAUIConnectionPoint@@PEAK@Z 0000000180004478 f i RemoteOrderDisplay.obj
 0001:00003544       ?Skip@?$CComEnumImpl@UIEnumConnectionPoints@@$1?_GUID_b196b285_bab4_101a_b69c_00aa00341d07@@3U__s_GUID@@BPEAUIConnectionPoint@@V?$_CopyInterface@UIConnectionPoint@@@ATL@@@ATL@@UEAAJK@Z 0000000180004544 f i RemoteOrderDisplay.obj
 0001:00003570       ?Clone@?$CComEnumImpl@UIEnumConnectionPoints@@$1?_GUID_b196b285_bab4_101a_b69c_00aa00341d07@@3U__s_GUID@@BPEAUIConnectionPoint@@V?$_CopyInterface@UIConnectionPoint@@@ATL@@@ATL@@UEAAJPEAPEAUIEnumConnectionPoints@@@Z 0000000180004570 f i RemoteOrderDisplay.obj
 0001:00003698       ?QueryInterface@?$CComObject@V?$CComEnum@UIEnumConnectionPoints@@$1?_GUID_b196b285_bab4_101a_b69c_00aa00341d07@@3U__s_GUID@@BPEAUIConnectionPoint@@V?$_CopyInterface@UIConnectionPoint@@@ATL@@VCComSingleThreadModel@6@@ATL@@@ATL@@UEAAJAEBU_GUID@@PEAPEAX@Z 0000000180004698 f i RemoteOrderDisplay.obj
 0001:000036ac       ??_G?$CComObject@V?$CComEnum@UIEnumConnectionPoints@@$1?_GUID_b196b285_bab4_101a_b69c_00aa00341d07@@3U__s_GUID@@BPEAUIConnectionPoint@@V?$_CopyInterface@UIConnectionPoint@@@ATL@@VCComSingleThreadModel@6@@ATL@@@ATL@@UEAAPEAXI@Z 00000001800046ac f i RemoteOrderDisplay.obj
 0001:000036ac       ??_E?$CComObject@V?$CComEnum@UIEnumConnectionPoints@@$1?_GUID_b196b285_bab4_101a_b69c_00aa00341d07@@3U__s_GUID@@BPEAUIConnectionPoint@@V?$_CopyInterface@UIConnectionPoint@@@ATL@@VCComSingleThreadModel@6@@ATL@@@ATL@@UEAAPEAXI@Z 00000001800046ac f i RemoteOrderDisplay.obj
 0001:00003704       ??$AtlModuleRegisterWndClassInfoT@VAtlModuleRegisterWndClassInfoParamW@ATL@@@ATL@@YAGPEAU_ATL_BASE_MODULE70@0@PEAU_ATL_WIN_MODULE70@0@PEAU_ATL_WNDCLASSINFOW@0@PEAP6A_JPEAUHWND__@@I_K_J@ZVAtlModuleRegisterWndClassInfoParamW@0@@Z 0000000180004704 f i RemoteOrderDisplay.obj
 0001:00003904       ??0?$CComContainedObject@VCOPOSRemoteOrderDisplay@@@ATL@@QEAA@PEAX@Z 0000000180004904 f i RemoteOrderDisplay.obj
 0001:00003a20       ??0?$CComObject@VCOPOSRemoteOrderDisplay@@@ATL@@QEAA@PEAX@Z 0000000180004a20 f i RemoteOrderDisplay.obj
 0001:00003b38       ??0CAtlModule@ATL@@QEAA@XZ 0000000180004b38 f i RemoteOrderDisplay.obj
 0001:00003bb8       ??1?$CComEnumImpl@UIEnumConnectionPoints@@$1?_GUID_b196b285_bab4_101a_b69c_00aa00341d07@@3U__s_GUID@@BPEAUIConnectionPoint@@V?$_CopyInterface@UIConnectionPoint@@@ATL@@@ATL@@UEAA@XZ 0000000180004bb8 f i RemoteOrderDisplay.obj
 0001:00003c14       ??1?$CComEnumImpl@UIEnumConnections@@$1?_GUID_b196b287_bab4_101a_b69c_00aa00341d07@@3U__s_GUID@@BUtagCONNECTDATA@@V?$_Copy@UtagCONNECTDATA@@@ATL@@@ATL@@UEAA@XZ 0000000180004c14 f i RemoteOrderDisplay.obj
 0001:00003c70       ??1?$CComObject@VCOPOSRemoteOrderDisplay@@@ATL@@UEAA@XZ 0000000180004c70 f i RemoteOrderDisplay.obj
 0001:00003d90       ??_E?$CComContainedObject@VCOPOSRemoteOrderDisplay@@@ATL@@UEAAPEAXI@Z 0000000180004d90 f i RemoteOrderDisplay.obj
 0001:00003d90       ??_G?$CComContainedObject@VCOPOSRemoteOrderDisplay@@@ATL@@UEAAPEAXI@Z 0000000180004d90 f i RemoteOrderDisplay.obj
 0001:00003dc4       ??_E?$CComObject@VCOPOSRemoteOrderDisplay@@@ATL@@UEAAPEAXI@Z 0000000180004dc4 f i RemoteOrderDisplay.obj
 0001:00003dc4       ??_G?$CComObject@VCOPOSRemoteOrderDisplay@@@ATL@@UEAAPEAXI@Z 0000000180004dc4 f i RemoteOrderDisplay.obj
 0001:00003df8       ?Add@?$CSimpleArray@GV?$CSimpleArrayEqualHelper@G@ATL@@@ATL@@QEAAHAEBG@Z 0000000180004df8 f i RemoteOrderDisplay.obj
 0001:00003eac       ?Add@?$CSimpleMap@PEA_WPEA_WVCExpansionVectorEqualHelper@ATL@@@ATL@@QEAAHAEBQEA_W0@Z 0000000180004eac f i RemoteOrderDisplay.obj
 0001:00003f4c       ?Add@CComDynamicUnkArray@ATL@@QEAAKPEAUIUnknown@@@Z 0000000180004f4c f i RemoteOrderDisplay.obj
 0001:00004044       ?Add@CExpansionVector@ATL@@QEAAHPEB_W0@Z 0000000180005044 f i RemoteOrderDisplay.obj
 0001:000041d4       ?AddValue@CRegParser@ATL@@IEAAJAEAVCRegKey@2@PEB_WPEA_W@Z 00000001800051d4 f i RemoteOrderDisplay.obj
 0001:0000461c       ?AllocateHeap@?$CTempBuffer@_W$0EAA@VCCRTAllocator@ATL@@@ATL@@AEAAX_K@Z 000000018000561c f i RemoteOrderDisplay.obj
 0001:0000461c       ?AllocateHeap@?$CTempBuffer@E$0BAA@VCCRTAllocator@ATL@@@ATL@@AEAAX_K@Z 000000018000561c f i RemoteOrderDisplay.obj
 0001:0000461c       ?AllocateHeap@?$CTempBuffer@_W$0BAA@VCCRTAllocator@ATL@@@ATL@@AEAAX_K@Z 000000018000561c f i RemoteOrderDisplay.obj
 0001:00004648       ?Append@CParseBuffer@CRegParser@ATL@@QEAAHPEB_WH@Z 0000000180005648 f i RemoteOrderDisplay.obj
 0001:00004760       ?AtlCallTermFunc@ATL@@YAXPEAU_ATL_MODULE70@1@@Z 0000000180005760 f i RemoteOrderDisplay.obj
 0001:000047c4       ?AtlComModuleGetClassObject@ATL@@YAJPEAU_ATL_COM_MODULE70@1@AEBU_GUID@@1PEAPEAX@Z 00000001800057c4 f i RemoteOrderDisplay.obj
 0001:00004904       ?AtlComModuleRegisterServer@ATL@@YAJPEAU_ATL_COM_MODULE70@1@HPEBU_GUID@@@Z 0000000180005904 f i RemoteOrderDisplay.obj
 0001:000049c4       ?AtlComModuleUnregisterServer@ATL@@YAJPEAU_ATL_COM_MODULE70@1@HPEBU_GUID@@@Z 00000001800059c4 f i RemoteOrderDisplay.obj
 0001:00004a80       ?AtlCreateTargetDC@ATL@@YAPEAUHDC__@@PEAU2@PEAUtagDVTARGETDEVICE@@@Z 0000000180005a80 f i RemoteOrderDisplay.obj
 0001:00004af4       ?AtlHiMetricToPixel@ATL@@YAXPEBUtagSIZE@@PEAU2@@Z 0000000180005af4 f i RemoteOrderDisplay.obj
 0001:00004ba4       ?AtlHresultFromLastError@ATL@@YAJXZ 0000000180005ba4 f i RemoteOrderDisplay.obj
 0001:00004bc4       ?AtlHresultFromWin32@ATL@@YAJK@Z 0000000180005bc4 f i RemoteOrderDisplay.obj
 0001:00004bd4       ?AtlIPersistStreamInit_Load@ATL@@YAJPEAUIStream@@PEBUATL_PROPMAP_ENTRY@1@PEAXPEAUIUnknown@@@Z 0000000180005bd4 f i RemoteOrderDisplay.obj
 0001:00004e0c       ?AtlIPersistStreamInit_Save@ATL@@YAJPEAUIStream@@HPEBUATL_PROPMAP_ENTRY@1@PEAXPEAUIUnknown@@@Z 0000000180005e0c f i RemoteOrderDisplay.obj
 0001:00005048       ?AtlInternalOleLoadFromStream@ATL@@YAJPEAUIStream@@AEBU_GUID@@PEAPEAXTClassesAllowedInStream@1@K@Z 0000000180006048 f i RemoteOrderDisplay.obj
 0001:0000518c       ?AtlInternalQueryInterface@ATL@@YAJPEAXPEBU_ATL_INTMAP_ENTRY@1@AEBU_GUID@@PEAPEAX@Z 000000018000618c f i RemoteOrderDisplay.obj
 0001:00005294       ?AtlLoadTypeLib@ATL@@YAJPEAUHINSTANCE__@@PEB_WPEAPEA_WPEAPEAUITypeLib@@@Z 0000000180006294 f i RemoteOrderDisplay.obj
 0001:000054f0       ?AtlModuleAddTermFunc@ATL@@YAJPEAU_ATL_MODULE70@1@P6AX_K@Z1@Z 00000001800064f0 f i RemoteOrderDisplay.obj
 0001:00005584       ?AtlRegisterClassCategoriesHelper@ATL@@YAJAEBU_GUID@@PEBU_ATL_CATMAP_ENTRY@1@H@Z 0000000180006584 f i RemoteOrderDisplay.obj
 0001:000059ec       ?AtlRegisterTypeLib@ATL@@YAJPEAUHINSTANCE__@@PEB_W@Z 00000001800069ec f i RemoteOrderDisplay.obj
 0001:00005be8       ?AtlThrowImpl@ATL@@YAXJ@Z  0000000180006be8 f i RemoteOrderDisplay.obj
 0001:00005c0c       ?AtlUnRegisterTypeLib@ATL@@YAJPEAUHINSTANCE__@@PEB_W@Z 0000000180006c0c f i RemoteOrderDisplay.obj
 0001:00005cd4       ?AtlWinModuleExtractCreateWndData@ATL@@YAPEAXPEAU_ATL_WIN_MODULE70@1@@Z 0000000180006cd4 f i RemoteOrderDisplay.obj
 0001:00005d60       ?Cleanup@CComTypeInfoHolder@ATL@@SAX_K@Z 0000000180006d60 f i RemoteOrderDisplay.obj
 0001:00005da0       ?ClearReplacements@CExpansionVector@ATL@@QEAAJXZ 0000000180006da0 f i RemoteOrderDisplay.obj
 0001:00005e3c       ?CreateInstance@?$CComCreator@V?$CComAggObject@VCOPOSRemoteOrderDisplay@@@ATL@@@ATL@@SAJPEAXAEBU_GUID@@PEAPEAX@Z 0000000180006e3c f i RemoteOrderDisplay.obj
 0001:00005f14       ?CreateInstance@?$CComCreator@V?$CComObject@VCOPOSRemoteOrderDisplay@@@ATL@@@ATL@@SAJPEAXAEBU_GUID@@PEAPEAX@Z 0000000180006f14 f i RemoteOrderDisplay.obj
 0001:00005fcc       ?CreateInstance@?$CComObject@V?$CComEnum@UIEnumConnectionPoints@@$1?_GUID_b196b285_bab4_101a_b69c_00aa00341d07@@3U__s_GUID@@BPEAUIConnectionPoint@@V?$_CopyInterface@UIConnectionPoint@@@ATL@@VCComSingleThreadModel@6@@ATL@@@ATL@@SAJPEAPEAV12@@Z 0000000180006fcc f i RemoteOrderDisplay.obj
 0001:00006058       ?CreateInstance@?$CComObject@V?$CComEnum@UIEnumConnections@@$1?_GUID_b196b287_bab4_101a_b69c_00aa00341d07@@3U__s_GUID@@BUtagCONNECTDATA@@V?$_Copy@UtagCONNECTDATA@@@ATL@@VCComSingleThreadModel@6@@ATL@@@ATL@@SAJPEAPEAV12@@Z 0000000180007058 f i RemoteOrderDisplay.obj
 0001:000060e4       ?DefaultReflectionHandler@?$CWindowImplRoot@VCWindow@ATL@@@ATL@@SAHPEAUHWND__@@I_K_JAEA_J@Z 00000001800070e4 f i RemoteOrderDisplay.obj
 0001:00006148       ?DeleteSubKey@CRegKey@ATL@@QEAAJPEB_W@Z 0000000180007148 f i RemoteOrderDisplay.obj
 0001:000061e0       ?DoEvent@COPOSRemoteOrderDisplay@@IEAAXI_K_J@Z 00000001800071e0 f i RemoteOrderDisplay.obj
 0001:00006294       ?DoVerbPrimary@?$IOleObjectImpl@VCOPOSRemoteOrderDisplay@@@ATL@@QEAAJPEBUtagRECT@@PEAUHWND__@@@Z 0000000180007294 f i RemoteOrderDisplay.obj
 0001:000063bc       ?DoVerbProperties@CComControlBase@ATL@@QEAAJPEBUtagRECT@@PEAUHWND__@@@Z 00000001800073bc f i RemoteOrderDisplay.obj
 0001:000065e4       ?FireTheEvent@?$CProxy_IOPOSEvents@VCOPOSRemoteOrderDisplay@@@@IEAAXPEAVOposVariant@@IAEAJPEB_WJ@Z 00000001800075e4 f i RemoteOrderDisplay.obj
 0001:000066d0       ?FireViewChange@CComControlBase@ATL@@QEAAJXZ 00000001800076d0 f i RemoteOrderDisplay.obj
 0001:00006734       ?Fire_DataEvent@?$CProxy_IOPOSEvents@VCOPOSRemoteOrderDisplay@@@@QEAAXJ@Z 0000000180007734 f i RemoteOrderDisplay.obj
 0001:00006820       ?Fire_DirectIOEvent@?$CProxy_IOPOSEvents@VCOPOSRemoteOrderDisplay@@@@QEAAXJPEAJPEAPEA_W@Z 0000000180007820 f i RemoteOrderDisplay.obj
 0001:00006978       ?Fire_ErrorEvent@?$CProxy_IOPOSEvents@VCOPOSRemoteOrderDisplay@@@@QEAAXJJJPEAJ@Z 0000000180007978 f i RemoteOrderDisplay.obj
 0001:00006ae0       ?Fire_OutputCompleteEvent@?$CProxy_IOPOSEvents@VCOPOSRemoteOrderDisplay@@@@QEAAXJ@Z 0000000180007ae0 f i RemoteOrderDisplay.obj
 0001:00006bcc       ?Fire_StatusUpdateEvent@?$CProxy_IOPOSEvents@VCOPOSRemoteOrderDisplay@@@@QEAAXJ@Z 0000000180007bcc f i RemoteOrderDisplay.obj
 0001:00006cb8       ?FreeHeap@?$CTempBuffer@E$0BAA@VCCRTAllocator@ATL@@@ATL@@AEAAXXZ 0000000180007cb8 f i RemoteOrderDisplay.obj
 0001:00006cb8       ?FreeHeap@?$CTempBuffer@_W$0EAA@VCCRTAllocator@ATL@@@ATL@@AEAAXXZ 0000000180007cb8 f i RemoteOrderDisplay.obj
 0001:00006cb8       ?FreeHeap@?$CTempBuffer@_W$0BAA@VCCRTAllocator@ATL@@@ATL@@AEAAXXZ 0000000180007cb8 f i RemoteOrderDisplay.obj
 0001:00006cc0       ?GetAmbientLocaleID@CComControlBase@ATL@@QEAAJAEAK@Z 0000000180007cc0 f i RemoteOrderDisplay.obj
 0001:00006d80       ?GetAmbientUserMode@CComControlBase@ATL@@QEAAJAEAH@Z 0000000180007d80 f i RemoteOrderDisplay.obj
 0001:00006e54       ?GetClassObject@CComModule@ATL@@QEAAJAEBU_GUID@@0PEAPEAX@Z 0000000180007e54 f i RemoteOrderDisplay.obj
 0001:00006f48       ?GetConnMap@COPOSRemoteOrderDisplay@@SAPEBU_ATL_CONNMAP_ENTRY@ATL@@PEAH@Z 0000000180007f48 f i RemoteOrderDisplay.obj
 0001:00006fd0       ?GetIDsOfNames@CComTypeInfoHolder@ATL@@QEAAJAEBU_GUID@@PEAPEA_WIKPEAJ@Z 0000000180007fd0 f i RemoteOrderDisplay.obj
 0001:00007148       ?GetPagesHelper@?$ISpecifyPropertyPagesImpl@VCOPOSRemoteOrderDisplay@@@ATL@@IEAAJPEAUtagCAUUID@@PEBUATL_PROPMAP_ENTRY@2@@Z 0000000180008148 f i RemoteOrderDisplay.obj
 0001:000072e8       ?GetSizeMax@CComVariant@ATL@@QEBAJPEAT_ULARGE_INTEGER@@@Z 00000001800082e8 f i RemoteOrderDisplay.obj
 0001:0000751c       ?GetTI@CComTypeInfoHolder@ATL@@QEAAJK@Z 000000018000851c f i RemoteOrderDisplay.obj
 0001:00007794       ?GetZoomInfo@CComControlBase@ATL@@QEAAXAEAUATL_DRAWINFO@@@Z 0000000180008794 f i RemoteOrderDisplay.obj
 0001:00007838       ?HKeyFromString@CRegParser@ATL@@KAPEAUHKEY__@@PEA_W@Z 0000000180008838 f i RemoteOrderDisplay.obj
 0001:0000789c       ?IDataObject_GetData@CComControlBase@ATL@@QEAAJPEAUtagFORMATETC@@PEAUtagSTGMEDIUM@@@Z 000000018000889c f i RemoteOrderDisplay.obj
 0001:00007a90       ?IOleInPlaceObject_InPlaceDeactivate@CComControlBase@ATL@@QEAAJXZ 0000000180008a90 f i RemoteOrderDisplay.obj
 0001:00007b30       ?IOleInPlaceObject_SetObjectRects@CComControlBase@ATL@@QEAAJPEBUtagRECT@@0@Z 0000000180008b30 f i RemoteOrderDisplay.obj
 0001:00007c20       ?IOleInPlaceObject_UIDeactivate@CComControlBase@ATL@@QEAAJXZ 0000000180008c20 f i RemoteOrderDisplay.obj
 0001:00007d2c       ?IOleObject_Close@CComControlBase@ATL@@QEAAJK@Z 0000000180008d2c f i RemoteOrderDisplay.obj
 0001:00007e44       ?IOleObject_SetClientSite@CComControlBase@ATL@@QEAAJPEAUIOleClientSite@@@Z 0000000180008e44 f i RemoteOrderDisplay.obj
 0001:00007ebc       ?IOleObject_SetExtent@CComControlBase@ATL@@QEAAJKPEAUtagSIZE@@@Z 0000000180008ebc f i RemoteOrderDisplay.obj
 0001:00007f54       ?IPSI_GetIPersistStreamInit@?$IPersistStorageImpl@VCOPOSRemoteOrderDisplay@@@ATL@@AEAAPEAUIPersistStreamInit@@XZ 0000000180008f54 f i RemoteOrderDisplay.obj
 0001:00007fb0       ?IQuickActivate_QuickActivate@CComControlBase@ATL@@QEAAJPEAUtagQACONTAINER@@PEAUtagQACONTROL@@@Z 0000000180008fb0 f i RemoteOrderDisplay.obj
 0001:00008274       ?IViewObject_Draw@CComControlBase@ATL@@QEAAJKJPEAXPEAUtagDVTARGETDEVICE@@PEAUHDC__@@2PEBU_RECTL@@3@Z 0000000180009274 f i RemoteOrderDisplay.obj
 0001:00008388       ?InPlaceActivate@CComControlBase@ATL@@QEAAJJPEBUtagRECT@@@Z 0000000180009388 f i RemoteOrderDisplay.obj
 0001:000086c0       ?Init@?$CComEnumImpl@UIEnumConnectionPoints@@$1?_GUID_b196b285_bab4_101a_b69c_00aa00341d07@@3U__s_GUID@@BPEAUIConnectionPoint@@V?$_CopyInterface@UIConnectionPoint@@@ATL@@@ATL@@QEAAJPEAPEAUIConnectionPoint@@0PEAUIUnknown@@W4CComEnumFlags@2@@Z 00000001800096c0 f i RemoteOrderDisplay.obj
 0001:000087e0       ?Init@?$CComEnumImpl@UIEnumConnections@@$1?_GUID_b196b287_bab4_101a_b69c_00aa00341d07@@3U__s_GUID@@BUtagCONNECTDATA@@V?$_Copy@UtagCONNECTDATA@@@ATL@@@ATL@@QEAAJPEAUtagCONNECTDATA@@0PEAUIUnknown@@W4CComEnumFlags@2@@Z 00000001800097e0 f i RemoteOrderDisplay.obj
 0001:00008904       ?IsEqualObject@?$CComPtrBase@UITypeInfo@@@ATL@@QEAA_NPEAUIUnknown@@@Z 0000000180009904 f i RemoteOrderDisplay.obj
 0001:00008904       ?IsEqualObject@?$CComPtrBase@UIOleClientSite@@@ATL@@QEAA_NPEAUIUnknown@@@Z 0000000180009904 f i RemoteOrderDisplay.obj
 0001:00008990       ?LoadNameCache@CComTypeInfoHolder@ATL@@QEAAJPEAUITypeInfo@@@Z 0000000180009990 f i RemoteOrderDisplay.obj
 0001:00008b14       ?Lookup@?$CSimpleMap@PEA_WPEA_WVCExpansionVectorEqualHelper@ATL@@@ATL@@QEBAPEA_WAEBQEA_W@Z 0000000180009b14 f i RemoteOrderDisplay.obj
 0001:00008ba0       ?NextToken@CRegParser@ATL@@IEAAJPEA_W@Z 0000000180009ba0 f i RemoteOrderDisplay.obj
 0001:00008d58       ?OnKillFocus@CComControlBase@ATL@@QEAA_JI_K_JAEAH@Z 0000000180009d58 f i RemoteOrderDisplay.obj
 0001:00008df4       ?OnMouseActivate@CComControlBase@ATL@@QEAA_JI_K_JAEAH@Z 0000000180009df4 f i RemoteOrderDisplay.obj
 0001:00008e94       ?OnPaint@CComControlBase@ATL@@QEAA_JI_K_JAEAH@Z 0000000180009e94 f i RemoteOrderDisplay.obj
 0001:00008f80       ?OnSetFocus@CComControlBase@ATL@@QEAA_JI_K_JAEAH@Z 0000000180009f80 f i RemoteOrderDisplay.obj
 0001:0000907c       ?Open@CRegKey@ATL@@QEAAJPEAUHKEY__@@PEB_WK@Z 000000018000a07c f i RemoteOrderDisplay.obj
 0001:00009108       ?PreProcessBuffer@CRegParser@ATL@@QEAAJPEA_WPEAPEA_W@Z 000000018000a108 f i RemoteOrderDisplay.obj
 0001:0000948c       ?ProcessWindowMessage@?$CComControl@VCOPOSRemoteOrderDisplay@@V?$CWindowImpl@VCOPOSRemoteOrderDisplay@@VCWindow@ATL@@V?$CWinTraits@$0FGAAAAAA@$0A@@3@@ATL@@@ATL@@UEAAHPEAUHWND__@@I_K_JAEA_JK@Z 000000018000a48c f i RemoteOrderDisplay.obj
 0001:00009570       ?PutProperty@?$CComPtr@UIDispatch@@@ATL@@SAJPEAUIDispatch@@JPEAUtagVARIANT@@@Z 000000018000a570 f i RemoteOrderDisplay.obj
 0001:00009674       ?ReadFromStream@CComBSTR@ATL@@QEAAJPEAUIStream@@@Z 000000018000a674 f i RemoteOrderDisplay.obj
 0001:000097d0       ?ReadFromStream@CComVariant@ATL@@QEAAJPEAUIStream@@GTClassesAllowedInStream@2@K@Z 000000018000a7d0 f i RemoteOrderDisplay.obj
 0001:000099e0       ?RecurseDeleteKey@CRegKey@ATL@@QEAAJPEB_W@Z 000000018000a9e0 f i RemoteOrderDisplay.obj
 0001:00009aec       ?RegCreateKeyExW@CAtlTransactionManager@ATL@@QEAAJPEAUHKEY__@@PEB_WKPEA_WKKQEAU_SECURITY_ATTRIBUTES@@PEAPEAU3@PEAK@Z 000000018000aaec f i RemoteOrderDisplay.obj
 0001:00009c20       ?RegDeleteKeyW@CAtlTransactionManager@ATL@@QEAAJPEAUHKEY__@@PEB_W@Z 000000018000ac20 f i RemoteOrderDisplay.obj
 0001:00009cac       ?RegOpenKeyExW@CAtlTransactionManager@ATL@@QEAAJPEAUHKEY__@@PEB_WKKPEAPEAU3@@Z 000000018000acac f i RemoteOrderDisplay.obj
 0001:00009d64       ?RegisterBuffer@CRegParser@ATL@@QEAAJPEA_WH@Z 000000018000ad64 f i RemoteOrderDisplay.obj
 0001:00009ecc       ?RegisterFromResource@CRegObject@ATL@@IEAAJPEB_W00H@Z 000000018000aecc f i RemoteOrderDisplay.obj
 0001:0000a088       ?RegisterServer@CComModule@ATL@@QEAAJHPEBU_GUID@@@Z 000000018000b088 f i RemoteOrderDisplay.obj
 0001:0000a148       ?RegisterSubkeys@CRegParser@ATL@@IEAAJPEA_WPEAUHKEY__@@HH@Z 000000018000b148 f i RemoteOrderDisplay.obj
 0001:0000a844       ?SendOnDataChange@CComControlBase@ATL@@QEAAJK@Z 000000018000b844 f i RemoteOrderDisplay.obj
 0001:0000a8b4       ?SetControlFocus@CComControlBase@ATL@@QEAAHH@Z 000000018000b8b4 f i RemoteOrderDisplay.obj
 0001:0000a990       ?SkipAssignment@CRegParser@ATL@@IEAAJPEA_W@Z 000000018000b990 f i RemoteOrderDisplay.obj
 0001:0000aa34       ?Term@CComModule@ATL@@QEAAXXZ 000000018000ba34 f i RemoteOrderDisplay.obj
 0001:0000aae0       ?UnregisterServer@CComModule@ATL@@QEAAJHPEBU_GUID@@@Z 000000018000bae0 f i RemoteOrderDisplay.obj
 0001:0000ab90       ?UpdateRegistryFromResource@CAtlModule@ATL@@QEAAJIHPEAU_ATL_REGMAP_ENTRY@2@@Z 000000018000bb90 f i RemoteOrderDisplay.obj
 0001:0000aec8       ?UpdateRegistryFromResource@CAtlModule@ATL@@QEAAJPEB_WHPEAU_ATL_REGMAP_ENTRY@2@@Z 000000018000bec8 f i RemoteOrderDisplay.obj
 0001:0000b220       ?VTFromRegType@CRegParser@ATL@@KAHPEB_WAEAG@Z 000000018000c220 f i RemoteOrderDisplay.obj
 0001:0000b2bc       ?WindowProc@?$CWindowImplBaseT@VCWindow@ATL@@V?$CWinTraits@$0FGAAAAAA@$0A@@2@@ATL@@SA_JPEAUHWND__@@I_K_J@Z 000000018000c2bc f i RemoteOrderDisplay.obj
 0001:0000b428       ?WriteToStream@CComBSTR@ATL@@QEAAJPEAUIStream@@@Z 000000018000c428 f i RemoteOrderDisplay.obj
 0001:0000b4a8       ?WriteToStream@CComVariant@ATL@@QEAAJPEAUIStream@@@Z 000000018000c4a8 f i RemoteOrderDisplay.obj
 0001:0000b6bc       ?WriteToStream@CComVariant@ATL@@QEAAJPEAUIStream@@G@Z 000000018000c6bc f i RemoteOrderDisplay.obj
 0001:0000b754       ?_AtlVerifyStackAvailable@_ATL_SAFE_ALLOCA_IMPL@ATL@@YA_N_K@Z 000000018000c754 f i RemoteOrderDisplay.obj
 0001:0000b7d8       ?atlCreate@?$CWindowImpl@VCOPOSRemoteOrderDisplay@@VCWindow@ATL@@V?$CWinTraits@$0FGAAAAAA@$0A@@3@@ATL@@QEAAPEAUHWND__@@PEAU3@V_U_RECT@2@PEB_WKKV_U_MENUorID@2@PEAX@Z 000000018000c7d8 f i RemoteOrderDisplay.obj
 0001:0000b888       ?atlCreate@?$CWindowImplBaseT@VCWindow@ATL@@V?$CWinTraits@$0FGAAAAAA@$0A@@2@@ATL@@QEAAPEAUHWND__@@PEAU3@V_U_RECT@2@PEB_WKKV_U_MENUorID@2@GPEAX@Z 000000018000c888 f i RemoteOrderDisplay.obj
 0001:0000b9f8       ?atlCreate@CRegKey@ATL@@QEAAJPEAUHKEY__@@PEB_WPEA_WKKPEAU_SECURITY_ATTRIBUTES@@PEAK@Z 000000018000c9f8 f i RemoteOrderDisplay.obj
 0001:0000bae4       DllCanUnloadNow            000000018000cae4 f   RemoteOrderDisplay.obj
 0001:0000baf0       DllGetClassObject          000000018000caf0 f   RemoteOrderDisplay.obj
 0001:0000bb08       DllMain                    000000018000cb08 f   RemoteOrderDisplay.obj
 0001:0000bbb0       DllRegisterServer          000000018000cbb0 f   RemoteOrderDisplay.obj
 0001:0000bbc4       DllUnregisterServer        000000018000cbc4 f   RemoteOrderDisplay.obj
 0001:0000bbd8       __local_stdio_printf_options 000000018000cbd8 f i RemoteOrderDisplay.obj
 0001:0000bc68       swprintf_s                 000000018000cc68 f i RemoteOrderDisplay.obj
 0001:0000bcbc       ??0COPOSRemoteOrderDisplay@@QEAA@XZ 000000018000ccbc f   RemoteOrderDisplayImpl.obj
 0001:0000bd8c       ??1?$IConnectionPointImpl@VCOPOSRemoteOrderDisplay@@$1?DIID__IOPOSRemoteOrderDisplayEvents@@3U_GUID@@BVCComDynamicUnkArray@ATL@@@ATL@@QEAA@XZ 000000018000cd8c f i RemoteOrderDisplayImpl.obj
 0001:0000bd8c       ??1?$IConnectionPointImpl@VCOPOSRemoteOrderDisplay@@$1?IID_IPropertyNotifySink@@3U_GUID@@BVCComDynamicUnkArray@ATL@@@ATL@@QEAA@XZ 000000018000cd8c f i RemoteOrderDisplayImpl.obj
 0001:0000bde8       ??1CComControlBase@ATL@@UEAA@XZ 000000018000cde8 f i RemoteOrderDisplayImpl.obj
 0001:0000be64       ??1COPOSRemoteOrderDisplay@@UEAA@XZ 000000018000ce64 f   RemoteOrderDisplayImpl.obj
 0001:0000bec8       ?CheckHealth@COPOSRemoteOrderDisplay@@UEAAJJPEAJ@Z 000000018000cec8 f   RemoteOrderDisplayImpl.obj
 0001:0000bf44       ?ClaimDevice@COPOSRemoteOrderDisplay@@UEAAJJPEAJ@Z 000000018000cf44 f   RemoteOrderDisplayImpl.obj
 0001:0000bfe4       ?ClearInput@COPOSRemoteOrderDisplay@@UEAAJPEAJ@Z 000000018000cfe4 f   RemoteOrderDisplayImpl.obj
 0001:0000c00c       ?ClearOutput@COPOSRemoteOrderDisplay@@UEAAJPEAJ@Z 000000018000d00c f   RemoteOrderDisplayImpl.obj
 0001:0000c034       ?ClearVideo@COPOSRemoteOrderDisplay@@UEAAJJJPEAJ@Z 000000018000d034 f   RemoteOrderDisplayImpl.obj
 0001:0000c100       ?ClearVideoRegion@COPOSRemoteOrderDisplay@@UEAAJJJJJJJPEAJ@Z 000000018000d100 f   RemoteOrderDisplayImpl.obj
 0001:0000c224       ?Close@COPOSRemoteOrderDisplay@@UEAAJPEAJ@Z 000000018000d224 f   RemoteOrderDisplayImpl.obj
 0001:0000c2dc       ?CompareFirmwareVersion@COPOSRemoteOrderDisplay@@UEAAJPEA_WPEAJ1@Z 000000018000d2dc f   RemoteOrderDisplayImpl.obj
 0001:0000c3b8       ?ControlClock@COPOSRemoteOrderDisplay@@UEAAJJJJJJJJJJJPEAJ@Z 000000018000d3b8 f   RemoteOrderDisplayImpl.obj
 0001:0000c510       ?ControlCursor@COPOSRemoteOrderDisplay@@UEAAJJJPEAJ@Z 000000018000d510 f   RemoteOrderDisplayImpl.obj
 0001:0000c5dc       ?CopyVideoRegion@COPOSRemoteOrderDisplay@@UEAAJJJJJJJJPEAJ@Z 000000018000d5dc f   RemoteOrderDisplayImpl.obj
 0001:0000c714       ?DirectIO@COPOSRemoteOrderDisplay@@UEAAJJPEAJPEAPEA_W0@Z 000000018000d714 f   RemoteOrderDisplayImpl.obj
 0001:0000c810       ?DisplayData@COPOSRemoteOrderDisplay@@UEAAJJJJJPEA_WPEAJ@Z 000000018000d810 f   RemoteOrderDisplayImpl.obj
 0001:0000c920       ?DoInvoke@COPOSRemoteOrderDisplay@@IEAAJJPEAVOposVariant@@IHPEAJ_N@Z 000000018000d920 f   RemoteOrderDisplayImpl.obj
 0001:0000ca54       ?DrawBox@COPOSRemoteOrderDisplay@@UEAAJJJJJJJJPEAJ@Z 000000018000da54 f   RemoteOrderDisplayImpl.obj
 0001:0000cb8c       ?EventInit@COPOSRemoteOrderDisplay@@IEAAJXZ 000000018000db8c f i RemoteOrderDisplayImpl.obj
 0001:0000ccd4       ?EventUninit@COPOSRemoteOrderDisplay@@IEAAXXZ 000000018000dcd4 f i RemoteOrderDisplayImpl.obj
 0001:0000cd38       ?EventWindowProc@COPOSRemoteOrderDisplay@@IEAA_JI_K_J@Z 000000018000dd38 f i RemoteOrderDisplayImpl.obj
 0001:0000cf14       ?FinalConstruct@COPOSRemoteOrderDisplay@@QEAAJXZ 000000018000df14 f   RemoteOrderDisplayImpl.obj
 0001:0000cf50       ?FreeVideoRegion@COPOSRemoteOrderDisplay@@UEAAJJJPEAJ@Z 000000018000df50 f   RemoteOrderDisplayImpl.obj
 0001:0000d01c       ?FreezeEvents@COPOSRemoteOrderDisplay@@MEAAJH@Z 000000018000e01c f   RemoteOrderDisplayImpl.obj
 0001:0000d090       ?GetOposProp@COPOSRemoteOrderDisplay@@IEAAJJPEAJJ@Z 000000018000e090 f   RemoteOrderDisplayImpl.obj
 0001:0000d1ac       ?GetOposProp@COPOSRemoteOrderDisplay@@IEAAJJPEAPEA_WJ@Z 000000018000e1ac f   RemoteOrderDisplayImpl.obj
 0001:0000d2d8       ?OnDraw@COPOSRemoteOrderDisplay@@MEAAJAEAUATL_DRAWINFO@@@Z 000000018000e2d8 f   RemoteOrderDisplayImpl.obj
 0001:0000d3c4       ?Open@COPOSRemoteOrderDisplay@@UEAAJPEA_WPEAJ@Z 000000018000e3c4 f   RemoteOrderDisplayImpl.obj
 0001:0000dc50       ?ReleaseDevice@COPOSRemoteOrderDisplay@@UEAAJPEAJ@Z 000000018000ec50 f   RemoteOrderDisplayImpl.obj
 0001:0000dcbc       ?ResetStatistics@COPOSRemoteOrderDisplay@@UEAAJPEA_WPEAJ@Z 000000018000ecbc f   RemoteOrderDisplayImpl.obj
 0001:0000dd44       ?ResetVideo@COPOSRemoteOrderDisplay@@UEAAJJPEAJ@Z 000000018000ed44 f   RemoteOrderDisplayImpl.obj
 0001:0000ddc0       ?RestoreVideoRegion@COPOSRemoteOrderDisplay@@UEAAJJJJJPEAJ@Z 000000018000edc0 f   RemoteOrderDisplayImpl.obj
 0001:0000debc       ?RetrieveStatistics@COPOSRemoteOrderDisplay@@UEAAJPEAPEA_WPEAJ@Z 000000018000eebc f   RemoteOrderDisplayImpl.obj
 0001:0000df44       ?SOProcessID@COPOSRemoteOrderDisplay@@UEAAJPEAJ@Z 000000018000ef44 f   RemoteOrderDisplayImpl.obj
 0001:0000df60       ?SaveVideoRegion@COPOSRemoteOrderDisplay@@UEAAJJJJJJJPEAJ@Z 000000018000ef60 f   RemoteOrderDisplayImpl.obj
 0001:0000e084       ?SelectCharacterSet@COPOSRemoteOrderDisplay@@UEAAJJJPEAJ@Z 000000018000f084 f   RemoteOrderDisplayImpl.obj
 0001:0000e150       ?SetCOFreezeEvents@COPOSRemoteOrderDisplay@@IEAAXF@Z 000000018000f150 f   RemoteOrderDisplayImpl.obj
 0001:0000e234       ?SetCursor@COPOSRemoteOrderDisplay@@UEAAJJJJPEAJ@Z 000000018000f234 f   RemoteOrderDisplayImpl.obj
 0001:0000e31c       ?SetOposProp@COPOSRemoteOrderDisplay@@IEAAJJJJ@Z 000000018000f31c f   RemoteOrderDisplayImpl.obj
 0001:0000e47c       ?TransactionDisplay@COPOSRemoteOrderDisplay@@UEAAJJJPEAJ@Z 000000018000f47c f   RemoteOrderDisplayImpl.obj
 0001:0000e548       ?UpdateFirmware@COPOSRemoteOrderDisplay@@UEAAJPEA_WPEAJ@Z 000000018000f548 f   RemoteOrderDisplayImpl.obj
 0001:0000e5d0       ?UpdateStatistics@COPOSRemoteOrderDisplay@@UEAAJPEA_WPEAJ@Z 000000018000f5d0 f   RemoteOrderDisplayImpl.obj
 0001:0000e658       ?UpdateVideoRegionAttribute@COPOSRemoteOrderDisplay@@UEAAJJJJJJJJPEAJ@Z 000000018000f658 f   RemoteOrderDisplayImpl.obj
 0001:0000e790       ?VideoSound@COPOSRemoteOrderDisplay@@UEAAJJJJJJPEAJ@Z 000000018000f790 f   RemoteOrderDisplayImpl.obj
 0001:0000e8a0       ?get_AsyncMode@COPOSRemoteOrderDisplay@@UEAAJPEAF@Z 000000018000f8a0 f   RemoteOrderDisplayImpl.obj
 0001:0000e8d4       ?get_AutoToneDuration@COPOSRemoteOrderDisplay@@UEAAJPEAJ@Z 000000018000f8d4 f   RemoteOrderDisplayImpl.obj
 0001:0000e8e8       ?get_AutoToneFrequency@COPOSRemoteOrderDisplay@@UEAAJPEAJ@Z 000000018000f8e8 f   RemoteOrderDisplayImpl.obj
 0001:0000e8fc       ?get_BinaryConversion@COPOSRemoteOrderDisplay@@UEAAJPEAJ@Z 000000018000f8fc f   RemoteOrderDisplayImpl.obj
 0001:0000e910       ?get_CapCompareFirmwareVersion@COPOSRemoteOrderDisplay@@UEAAJPEAF@Z 000000018000f910 f   RemoteOrderDisplayImpl.obj
 0001:0000e944       ?get_CapMapCharacterSet@COPOSRemoteOrderDisplay@@UEAAJPEAF@Z 000000018000f944 f   RemoteOrderDisplayImpl.obj
 0001:0000e978       ?get_CapPowerReporting@COPOSRemoteOrderDisplay@@UEAAJPEAJ@Z 000000018000f978 f   RemoteOrderDisplayImpl.obj
 0001:0000e98c       ?get_CapSelectCharacterSet@COPOSRemoteOrderDisplay@@UEAAJPEAF@Z 000000018000f98c f   RemoteOrderDisplayImpl.obj
 0001:0000e9c0       ?get_CapStatisticsReporting@COPOSRemoteOrderDisplay@@UEAAJPEAF@Z 000000018000f9c0 f   RemoteOrderDisplayImpl.obj
 0001:0000e9f4       ?get_CapTone@COPOSRemoteOrderDisplay@@UEAAJPEAF@Z 000000018000f9f4 f   RemoteOrderDisplayImpl.obj
 0001:0000ea28       ?get_CapTouch@COPOSRemoteOrderDisplay@@UEAAJPEAF@Z 000000018000fa28 f   RemoteOrderDisplayImpl.obj
 0001:0000ea5c       ?get_CapTransaction@COPOSRemoteOrderDisplay@@UEAAJPEAF@Z 000000018000fa5c f   RemoteOrderDisplayImpl.obj
 0001:0000ea90       ?get_CapUpdateFirmware@COPOSRemoteOrderDisplay@@UEAAJPEAF@Z 000000018000fa90 f   RemoteOrderDisplayImpl.obj
 0001:0000eac4       ?get_CapUpdateStatistics@COPOSRemoteOrderDisplay@@UEAAJPEAF@Z 000000018000fac4 f   RemoteOrderDisplayImpl.obj
 0001:0000eaf8       ?get_CharacterSet@COPOSRemoteOrderDisplay@@UEAAJPEAJ@Z 000000018000faf8 f   RemoteOrderDisplayImpl.obj
 0001:0000eb0c       ?get_CharacterSetList@COPOSRemoteOrderDisplay@@UEAAJPEAPEA_W@Z 000000018000fb0c f   RemoteOrderDisplayImpl.obj
 0001:0000eb20       ?get_CheckHealthText@COPOSRemoteOrderDisplay@@UEAAJPEAPEA_W@Z 000000018000fb20 f   RemoteOrderDisplayImpl.obj
 0001:0000eb34       ?get_Claimed@COPOSRemoteOrderDisplay@@UEAAJPEAF@Z 000000018000fb34 f   RemoteOrderDisplayImpl.obj
 0001:0000eb68       ?get_Clocks@COPOSRemoteOrderDisplay@@UEAAJPEAJ@Z 000000018000fb68 f   RemoteOrderDisplayImpl.obj
 0001:0000eb7c       ?get_ControlObjectDescription@COPOSRemoteOrderDisplay@@UEAAJPEAPEA_W@Z 000000018000fb7c f   RemoteOrderDisplayImpl.obj
 0001:0000ebe0       ?get_ControlObjectVersion@COPOSRemoteOrderDisplay@@UEAAJPEAJ@Z 000000018000fbe0 f   RemoteOrderDisplayImpl.obj
 0001:0000ebec       ?get_CurrentUnitID@COPOSRemoteOrderDisplay@@UEAAJPEAJ@Z 000000018000fbec f   RemoteOrderDisplayImpl.obj
 0001:0000ec00       ?get_DataCount@COPOSRemoteOrderDisplay@@UEAAJPEAJ@Z 000000018000fc00 f   RemoteOrderDisplayImpl.obj
 0001:0000ec14       ?get_DataEventEnabled@COPOSRemoteOrderDisplay@@UEAAJPEAF@Z 000000018000fc14 f   RemoteOrderDisplayImpl.obj
 0001:0000ec48       ?get_DeviceDescription@COPOSRemoteOrderDisplay@@UEAAJPEAPEA_W@Z 000000018000fc48 f   RemoteOrderDisplayImpl.obj
 0001:0000ec5c       ?get_DeviceEnabled@COPOSRemoteOrderDisplay@@UEAAJPEAF@Z 000000018000fc5c f   RemoteOrderDisplayImpl.obj
 0001:0000ec8c       ?get_DeviceName@COPOSRemoteOrderDisplay@@UEAAJPEAPEA_W@Z 000000018000fc8c f   RemoteOrderDisplayImpl.obj
 0001:0000eca0       ?get_ErrorString@COPOSRemoteOrderDisplay@@UEAAJPEAPEA_W@Z 000000018000fca0 f   RemoteOrderDisplayImpl.obj
 0001:0000ecb4       ?get_ErrorUnits@COPOSRemoteOrderDisplay@@UEAAJPEAJ@Z 000000018000fcb4 f   RemoteOrderDisplayImpl.obj
 0001:0000ecc8       ?get_EventString@COPOSRemoteOrderDisplay@@UEAAJPEAPEA_W@Z 000000018000fcc8 f   RemoteOrderDisplayImpl.obj
 0001:0000ecdc       ?get_EventType@COPOSRemoteOrderDisplay@@UEAAJPEAJ@Z 000000018000fcdc f   RemoteOrderDisplayImpl.obj
 0001:0000ecf0       ?get_EventUnitID@COPOSRemoteOrderDisplay@@UEAAJPEAJ@Z 000000018000fcf0 f   RemoteOrderDisplayImpl.obj
 0001:0000ed04       ?get_EventUnits@COPOSRemoteOrderDisplay@@UEAAJPEAJ@Z 000000018000fd04 f   RemoteOrderDisplayImpl.obj
 0001:0000ed18       ?get_FreezeEvents@COPOSRemoteOrderDisplay@@UEAAJPEAF@Z 000000018000fd18 f   RemoteOrderDisplayImpl.obj
 0001:0000ed48       ?get_MapCharacterSet@COPOSRemoteOrderDisplay@@UEAAJPEAF@Z 000000018000fd48 f   RemoteOrderDisplayImpl.obj
 0001:0000ed7c       ?get_OpenResult@COPOSRemoteOrderDisplay@@UEAAJPEAJ@Z 000000018000fd7c f   RemoteOrderDisplayImpl.obj
 0001:0000ed88       ?get_OutputID@COPOSRemoteOrderDisplay@@UEAAJPEAJ@Z 000000018000fd88 f   RemoteOrderDisplayImpl.obj
 0001:0000ed9c       ?get_PowerNotify@COPOSRemoteOrderDisplay@@UEAAJPEAJ@Z 000000018000fd9c f   RemoteOrderDisplayImpl.obj
 0001:0000edb0       ?get_PowerState@COPOSRemoteOrderDisplay@@UEAAJPEAJ@Z 000000018000fdb0 f   RemoteOrderDisplayImpl.obj
 0001:0000edc4       ?get_ResultCode@COPOSRemoteOrderDisplay@@UEAAJPEAJ@Z 000000018000fdc4 f   RemoteOrderDisplayImpl.obj
 0001:0000ee00       ?get_ResultCodeExtended@COPOSRemoteOrderDisplay@@UEAAJPEAJ@Z 000000018000fe00 f   RemoteOrderDisplayImpl.obj
 0001:0000ee14       ?get_ServiceObjectDescription@COPOSRemoteOrderDisplay@@UEAAJPEAPEA_W@Z 000000018000fe14 f   RemoteOrderDisplayImpl.obj
 0001:0000ee28       ?get_ServiceObjectVersion@COPOSRemoteOrderDisplay@@UEAAJPEAJ@Z 000000018000fe28 f   RemoteOrderDisplayImpl.obj
 0001:0000ee3c       ?get_State@COPOSRemoteOrderDisplay@@UEAAJPEAJ@Z 000000018000fe3c f   RemoteOrderDisplayImpl.obj
 0001:0000ee68       ?get_SystemClocks@COPOSRemoteOrderDisplay@@UEAAJPEAJ@Z 000000018000fe68 f   RemoteOrderDisplayImpl.obj
 0001:0000ee7c       ?get_SystemVideoSaveBuffers@COPOSRemoteOrderDisplay@@UEAAJPEAJ@Z 000000018000fe7c f   RemoteOrderDisplayImpl.obj
 0001:0000ee90       ?get_Timeout@COPOSRemoteOrderDisplay@@UEAAJPEAJ@Z 000000018000fe90 f   RemoteOrderDisplayImpl.obj
 0001:0000eea4       ?get_UnitsOnline@COPOSRemoteOrderDisplay@@UEAAJPEAJ@Z 000000018000fea4 f   RemoteOrderDisplayImpl.obj
 0001:0000eeb8       ?get_VideoDataCount@COPOSRemoteOrderDisplay@@UEAAJPEAJ@Z 000000018000feb8 f   RemoteOrderDisplayImpl.obj
 0001:0000eecc       ?get_VideoMode@COPOSRemoteOrderDisplay@@UEAAJPEAJ@Z 000000018000fecc f   RemoteOrderDisplayImpl.obj
 0001:0000eee0       ?get_VideoModesList@COPOSRemoteOrderDisplay@@UEAAJPEAPEA_W@Z 000000018000fee0 f   RemoteOrderDisplayImpl.obj
 0001:0000eef4       ?get_VideoSaveBuffers@COPOSRemoteOrderDisplay@@UEAAJPEAJ@Z 000000018000fef4 f   RemoteOrderDisplayImpl.obj
 0001:0000ef08       ?put_AsyncMode@COPOSRemoteOrderDisplay@@UEAAJF@Z 000000018000ff08 f   RemoteOrderDisplayImpl.obj
 0001:0000ef24       ?put_AutoToneDuration@COPOSRemoteOrderDisplay@@UEAAJJ@Z 000000018000ff24 f   RemoteOrderDisplayImpl.obj
 0001:0000ef38       ?put_AutoToneFrequency@COPOSRemoteOrderDisplay@@UEAAJJ@Z 000000018000ff38 f   RemoteOrderDisplayImpl.obj
 0001:0000ef4c       ?put_BinaryConversion@COPOSRemoteOrderDisplay@@UEAAJJ@Z 000000018000ff4c f   RemoteOrderDisplayImpl.obj
 0001:0000ef60       ?put_CurrentUnitID@COPOSRemoteOrderDisplay@@UEAAJJ@Z 000000018000ff60 f   RemoteOrderDisplayImpl.obj
 0001:0000ef74       ?put_DataEventEnabled@COPOSRemoteOrderDisplay@@UEAAJF@Z 000000018000ff74 f   RemoteOrderDisplayImpl.obj
 0001:0000ef8c       ?put_DeviceEnabled@COPOSRemoteOrderDisplay@@UEAAJF@Z 000000018000ff8c f   RemoteOrderDisplayImpl.obj
 0001:0000efa4       ?put_EventType@COPOSRemoteOrderDisplay@@UEAAJJ@Z 000000018000ffa4 f   RemoteOrderDisplayImpl.obj
 0001:0000efb8       ?put_FreezeEvents@COPOSRemoteOrderDisplay@@UEAAJF@Z 000000018000ffb8 f   RemoteOrderDisplayImpl.obj
 0001:0000f008       ?put_MapCharacterSet@COPOSRemoteOrderDisplay@@UEAAJF@Z 0000000180010008 f   RemoteOrderDisplayImpl.obj
 0001:0000f024       ?put_PowerNotify@COPOSRemoteOrderDisplay@@UEAAJJ@Z 0000000180010024 f   RemoteOrderDisplayImpl.obj
 0001:0000f038       ?put_Timeout@COPOSRemoteOrderDisplay@@UEAAJJ@Z 0000000180010038 f   RemoteOrderDisplayImpl.obj
 0001:0000f04c       ?put_VideoMode@COPOSRemoteOrderDisplay@@UEAAJJ@Z 000000018001004c f   RemoteOrderDisplayImpl.obj
 0001:0000f060       ?s_EventWindowProc@COPOSRemoteOrderDisplay@@KA_JPEAUHWND__@@I_K_J@Z 0000000180010060 f i RemoteOrderDisplayImpl.obj
 0001:0000f0dc       ??_U@YAPEAX_K@Z            00000001800100dc f   LIBCMT:new_array.obj
 0001:0000f0e4       ??_V@YAXPEAX@Z             00000001800100e4 f   LIBCMT:delete_array.obj
 0001:0000f0e4       ??3@YAXPEAX_K@Z            00000001800100e4 f   LIBCMT:delete_scalar_size.obj
 0001:0000f0ec       ??_V@YAXPEAX_K@Z           00000001800100ec f   LIBCMT:delete_array_size.obj
 0001:0000f0f4       __scrt_acquire_startup_lock 00000001800100f4 f   LIBCMT:utility.obj
 0001:0000f130       __scrt_dllmain_after_initialize_c 0000000180010130 f   LIBCMT:utility.obj
 0001:0000f164       __scrt_dllmain_before_initialize_c 0000000180010164 f   LIBCMT:utility.obj
 0001:0000f17c       __scrt_dllmain_crt_thread_attach 000000018001017c f   LIBCMT:utility.obj
 0001:0000f1a4       __scrt_dllmain_crt_thread_detach 00000001800101a4 f   LIBCMT:utility.obj
 0001:0000f1bc       __scrt_dllmain_exception_filter 00000001800101bc f   LIBCMT:utility.obj
 0001:0000f21c       __scrt_dllmain_uninitialize_c 000000018001021c f   LIBCMT:utility.obj
 0001:0000f24c       __scrt_dllmain_uninitialize_critical 000000018001024c f   LIBCMT:utility.obj
 0001:0000f260       __scrt_initialize_crt      0000000180010260 f   LIBCMT:utility.obj
 0001:0000f2ac       __scrt_initialize_onexit_tables 00000001800102ac f   LIBCMT:utility.obj
 0001:0000f384       __scrt_is_nonwritable_in_current_image 0000000180010384 f   LIBCMT:utility.obj
 0001:0000f420       __scrt_release_startup_lock 0000000180010420 f   LIBCMT:utility.obj
 0001:0000f444       __scrt_uninitialize_crt    0000000180010444 f   LIBCMT:utility.obj
 0001:0000f470       _onexit                    0000000180010470 f   LIBCMT:utility.obj
 0001:0000f4c0       atexit                     00000001800104c0 f   LIBCMT:utility.obj
 0001:0000f4d8       ??3@YAXPEAX@Z              00000001800104d8 f   LIBCMT:delete_scalar.obj
 0001:0000f668       _Init_thread_footer        0000000180010668 f   LIBCMT:thread_safe_statics.obj
 0001:0000f6c8       _Init_thread_header        00000001800106c8 f   LIBCMT:thread_safe_statics.obj
 0001:0000f730       _Init_thread_notify        0000000180010730 f   LIBCMT:thread_safe_statics.obj
 0001:0000f780       _Init_thread_wait          0000000180010780 f   LIBCMT:thread_safe_statics.obj
 0001:0000f7f8       __raise_securityfailure    00000001800107f8 f   LIBCMT:gs_report.obj
 0001:0000f82c       __report_gsfailure         000000018001082c f   LIBCMT:gs_report.obj
 0001:0000f900       __report_rangecheckfailure 0000000180010900 f   LIBCMT:gs_report.obj
 0001:0000f914       __report_securityfailure   0000000180010914 f   LIBCMT:gs_report.obj
 0001:0000fa94       ??2@YAPEAX_KAEBUnothrow_t@std@@@Z 0000000180010a94 f   LIBCMT:new_scalar_nothrow.obj
 0001:0000fab4       ??_U@YAPEAX_KAEBUnothrow_t@std@@@Z 0000000180010ab4 f   LIBCMT:new_array_nothrow.obj
 0001:0000fabc       __GSHandlerCheck           0000000180010abc f   LIBCMT:gshandler.obj
 0001:0000fadc       __GSHandlerCheckCommon     0000000180010adc f   LIBCMT:gshandler.obj
 0001:0000fb38       __GSHandlerCheck_SEH       0000000180010b38 f   LIBCMT:gshandlerseh.obj
 0001:0000fbd0       _alloca_probe              0000000180010bd0 f   LIBCMT:chkstk.obj
 0001:0000fbd0       __chkstk                   0000000180010bd0 f   LIBCMT:chkstk.obj
 0001:0000fc40       __security_check_cookie    0000000180010c40 f   LIBCMT:amdsecgs.obj
 0001:0000ff94       _DllMainCRTStartup         0000000180010f94 f   LIBCMT:dll_dllmain.obj
 0001:0000ffd4       ??2@YAPEAX_K@Z             0000000180010fd4 f   LIBCMT:new_scalar.obj
 0001:00010010       __isa_available_init       0000000180011010 f   LIBCMT:cpu_disp.obj
 0001:000101cc       __scrt_is_ucrt_dll_in_use  00000001800111cc f   LIBCMT:ucrt_detection.obj
 0001:000101d8       __crt_debugger_hook        00000001800111d8 f   LIBCMT:utility_desktop.obj
 0001:000101e0       __scrt_fastfail            00000001800111e0 f   LIBCMT:utility_desktop.obj
 0001:0001032c       __security_init_cookie     000000018001132c f   LIBCMT:gs_support.obj
 0001:000103d8       ?__scrt_initialize_type_info@@YAXXZ 00000001800113d8 f   LIBCMT:tncleanup.obj
 0001:000103e8       ?__scrt_uninitialize_type_info@@YAXXZ 00000001800113e8 f   LIBCMT:tncleanup.obj
 0001:000103f4       __local_stdio_scanf_options 00000001800113f4 f i LIBCMT:default_local_stdio_options.obj
 0001:000103fc       __scrt_initialize_default_local_stdio_options 00000001800113fc f   LIBCMT:default_local_stdio_options.obj
 0001:00010418       __scrt_get_dyn_tls_init_callback 0000000180011418 f   LIBCMT:dyn_tls_init.obj
 0001:00010420       _RTC_Initialize            0000000180011420 f   LIBCMT:initsect.obj
 0001:0001045c       _RTC_Terminate             000000018001145c f   LIBCMT:initsect.obj
 0001:00010498       ??0bad_alloc@std@@QEAA@AEBV01@@Z 0000000180011498 f i LIBCMT:throw_bad_alloc.obj
 0001:000104d8       ??0bad_alloc@std@@QEAA@XZ  00000001800114d8 f i LIBCMT:throw_bad_alloc.obj
 0001:000104f8       ??0bad_array_new_length@std@@QEAA@AEBV01@@Z 00000001800114f8 f i LIBCMT:throw_bad_alloc.obj
 0001:00010538       ??0bad_array_new_length@std@@QEAA@XZ 0000000180011538 f i LIBCMT:throw_bad_alloc.obj
 0001:00010558       ??0exception@std@@QEAA@AEBV01@@Z 0000000180011558 f i LIBCMT:throw_bad_alloc.obj
 0001:00010590       ??1bad_alloc@std@@UEAA@XZ  0000000180011590 f i LIBCMT:throw_bad_alloc.obj
 0001:00010590       ??1bad_array_new_length@std@@UEAA@XZ 0000000180011590 f i LIBCMT:throw_bad_alloc.obj
 0001:00010590       ??1bad_exception@std@@UEAA@XZ 0000000180011590 f i libvcruntime:frame.obj
 0001:000105a4       ??_Gbad_array_new_length@std@@UEAAPEAXI@Z 00000001800115a4 f i LIBCMT:throw_bad_alloc.obj
 0001:000105a4       ??_Ebad_alloc@std@@UEAAPEAXI@Z 00000001800115a4 f i LIBCMT:throw_bad_alloc.obj
 0001:000105a4       ??_Ebad_exception@std@@UEAAPEAXI@Z 00000001800115a4 f i libvcruntime:frame.obj
 0001:000105a4       ??_Gbad_alloc@std@@UEAAPEAXI@Z 00000001800115a4 f i LIBCMT:throw_bad_alloc.obj
 0001:000105a4       ??_Ebad_array_new_length@std@@UEAAPEAXI@Z 00000001800115a4 f i LIBCMT:throw_bad_alloc.obj
 0001:000105a4       ??_Gexception@std@@UEAAPEAXI@Z 00000001800115a4 f i LIBCMT:throw_bad_alloc.obj
 0001:000105a4       ??_Eexception@std@@UEAAPEAXI@Z 00000001800115a4 f i LIBCMT:throw_bad_alloc.obj
 0001:000105a4       ??_Gbad_exception@std@@UEAAPEAXI@Z 00000001800115a4 f i libvcruntime:frame.obj
 0001:000105e8       ?__scrt_throw_std_bad_alloc@@YAXXZ 00000001800115e8 f   LIBCMT:throw_bad_alloc.obj
 0001:00010608       ?__scrt_throw_std_bad_array_new_length@@YAXXZ 0000000180011608 f   LIBCMT:throw_bad_alloc.obj
 0001:00010628       ?what@exception@std@@UEBAPEBDXZ 0000000180011628 f i LIBCMT:throw_bad_alloc.obj
 0001:00010640       ??_Etype_info@@UEAAPEAXI@Z 0000000180011640 f i LIBCMT:std_type_info_static.obj
 0001:00010640       ??_Gtype_info@@UEAAPEAXI@Z 0000000180011640 f i LIBCMT:std_type_info_static.obj
 0001:0001066c       ??0CAtlBaseModule@ATL@@QEAA@XZ 000000018001166c f   atls:atlbase.obj
 0001:00010714       ??1CAtlBaseModule@ATL@@QEAA@XZ 0000000180011714 f   atls:atlbase.obj
 0001:00010848       ?__AllocStdCallThunk_cmn@@YAPEAXXZ 0000000180011848 f   atls:atlthunk.obj
 0001:000109a0       AtlThunk_AllocateData      00000001800119a0 f   atls:atlthunk.obj
 0001:00010a1c       AtlThunk_DataToCode        0000000180011a1c f   atls:atlthunk.obj
 0001:00010a70       AtlThunk_FreeData          0000000180011a70 f   atls:atlthunk.obj
 0001:00010ad0       AtlThunk_InitData          0000000180011ad0 f   atls:atlthunk.obj
 0001:00010b90       memset_repmovs             0000000180011b90 f   libvcruntime:memset.obj
 0001:00010bb0       memset                     0000000180011bb0 f   libvcruntime:memset.obj
 0001:00010d40       _purecall                  0000000180011d40 f   libvcruntime:purevirt.obj
 0001:00010d70       wcsstr                     0000000180011d70 f   libvcruntime:wcsstr.obj
 0001:00010fa0       memcmp                     0000000180011fa0 f   libvcruntime:memcmp.obj
 0001:00011080       memcpy_repmovs             0000000180012080 f   libvcruntime:memcpy.obj
 0001:000110a0       memcpy                     00000001800120a0 f   libvcruntime:memcpy.obj
 0001:000110a0       memmove                    00000001800120a0 f   libvcruntime:memcpy.obj
 0001:000114d8       __vcrt_initialize          00000001800124d8 f   libvcruntime:initialization.obj
 0001:0001150c       __vcrt_thread_attach       000000018001250c f   libvcruntime:initialization.obj
 0001:00011520       __vcrt_thread_detach       0000000180012520 f   libvcruntime:initialization.obj
 0001:00011534       __vcrt_uninitialize        0000000180012534 f   libvcruntime:initialization.obj
 0001:00011554       __vcrt_uninitialize_critical 0000000180012554 f   libvcruntime:initialization.obj
 0001:00011564       __C_specific_handler       0000000180012564 f   libvcruntime:riscchandler.obj
 0001:00011770       __DestructExceptionObject  0000000180012770 f   libvcruntime:ehhelpers.obj
 0001:000117e4       ?_CallMemberFunction0@@YAXQEAX0@Z 00000001800127e4 f i libvcruntime:ehhelpers.obj
 0001:000117e8       _IsExceptionObjectToBeDestroyed 00000001800127e8 f   libvcruntime:ehhelpers.obj
 0001:00011818       __AdjustPointer            0000000180012818 f   libvcruntime:ehhelpers.obj
 0001:0001183c       __FrameUnwindFilter        000000018001283c f   libvcruntime:ehhelpers.obj
 0001:00011888       __std_terminate            0000000180012888 f   libvcruntime:ehhelpers.obj
 0001:00011894       ??$_CallSETranslator@V__FrameHandler3@@@@YAHPEAUEHExceptionRecord@@PEA_KPEAU_CONTEXT@@PEAU_xDISPATCHER_CONTEXT@@PEBU_s_FuncInfo@@K1@Z 0000000180012894 f i libvcruntime:risctrnsctrl.obj
 0001:000118e8       ?CatchTryBlock@__FrameHandler3@@SAPEBU_s_TryBlockMapEntry@@PEBU_s_FuncInfo@@H@Z 00000001800128e8 f   libvcruntime:risctrnsctrl.obj
 0001:00011940       ?ExecutionInCatch@__FrameHandler3@@SA_NPEAU_xDISPATCHER_CONTEXT@@PEBU_s_FuncInfo@@@Z 0000000180012940 f   libvcruntime:risctrnsctrl.obj
 0001:0001196c       ?FrameUnwindToEmptyState@__FrameHandler3@@SAXPEA_KPEAU_xDISPATCHER_CONTEXT@@PEBU_s_FuncInfo@@@Z 000000018001296c f   libvcruntime:risctrnsctrl.obj
 0001:000119d0       ?GetEstablisherFrame@__FrameHandler3@@SAPEA_KPEA_KPEAU_xDISPATCHER_CONTEXT@@PEBU_s_FuncInfo@@0@Z 00000001800129d0 f   libvcruntime:risctrnsctrl.obj
 0001:00011a9c       ?GetRangeOfTrysToCheck@__FrameHandler3@@SA?AU?$pair@Viterator@TryBlockMap@__FrameHandler3@@V123@@std@@AEAVTryBlockMap@1@HH@Z 0000000180012a9c f   libvcruntime:risctrnsctrl.obj
 0001:00011bf8       ?UnwindNestedFrames@__FrameHandler3@@SAXPEA_KPEAUEHExceptionRecord@@PEAU_CONTEXT@@0PEAXPEBU_s_FuncInfo@@HHPEBU_s_HandlerType@@PEAU_xDISPATCHER_CONTEXT@@E@Z 0000000180012bf8 f   libvcruntime:risctrnsctrl.obj
 0001:00011d1c       _CreateFrameInfo           0000000180012d1c f   libvcruntime:risctrnsctrl.obj
 0001:00011d58       _FindAndUnlinkFrame        0000000180012d58 f   libvcruntime:risctrnsctrl.obj
 0001:00011dac       _GetImageBase              0000000180012dac f   libvcruntime:risctrnsctrl.obj
 0001:00011dc0       _GetThrowImageBase         0000000180012dc0 f   libvcruntime:risctrnsctrl.obj
 0001:00011dd4       _SetImageBase              0000000180012dd4 f   libvcruntime:risctrnsctrl.obj
 0001:00011dec       _SetThrowImageBase         0000000180012dec f   libvcruntime:risctrnsctrl.obj
 0001:00011e04       __CxxFrameHandler3         0000000180012e04 f   libvcruntime:risctrnsctrl.obj
 0001:00011e84       __std_type_info_compare    0000000180012e84 f   libvcruntime:std_type_info.obj
 0001:00011eac       __std_type_info_destroy_list 0000000180012eac f   libvcruntime:std_type_info.obj
 0001:00011ed8       __std_exception_copy       0000000180012ed8 f   libvcruntime:std_exception.obj
 0001:00011f68       __std_exception_destroy    0000000180012f68 f   libvcruntime:std_exception.obj
 0001:00011f90       _CxxThrowException         0000000180012f90 f   libvcruntime:throw.obj
 0001:00012050       __vcrt_initialize_pure_virtual_call_handler 0000000180013050 f   libvcruntime:purevirt_data.obj
 0001:00012060       __vcrt_freefls             0000000180013060 f   libvcruntime:per_thread_data.obj
 0001:00012080       __vcrt_freeptd             0000000180013080 f   libvcruntime:per_thread_data.obj
 0001:000120d0       __vcrt_getptd              00000001800130d0 f   libvcruntime:per_thread_data.obj
 0001:000120ec       __vcrt_getptd_noexit       00000001800130ec f   libvcruntime:per_thread_data.obj
 0001:000121b8       __vcrt_initialize_ptd      00000001800131b8 f   libvcruntime:per_thread_data.obj
 0001:0001220c       __vcrt_uninitialize_ptd    000000018001320c f   libvcruntime:per_thread_data.obj
 0001:00012230       __vcrt_initialize_locks    0000000180013230 f   libvcruntime:locks.obj
 0001:00012278       __vcrt_uninitialize_locks  0000000180013278 f   libvcruntime:locks.obj
 0001:00012488       __vcrt_FlsAlloc            0000000180013488 f   libvcruntime:winapi_downlevel.obj
 0001:000124d0       __vcrt_FlsFree             00000001800134d0 f   libvcruntime:winapi_downlevel.obj
 0001:00012518       __vcrt_FlsGetValue         0000000180013518 f   libvcruntime:winapi_downlevel.obj
 0001:00012560       __vcrt_FlsSetValue         0000000180013560 f   libvcruntime:winapi_downlevel.obj
 0001:000125b4       __vcrt_InitializeCriticalSectionEx 00000001800135b4 f   libvcruntime:winapi_downlevel.obj
 0001:00012618       __vcrt_initialize_winapi_thunks 0000000180013618 f   libvcruntime:winapi_downlevel.obj
 0001:00012648       __vcrt_uninitialize_winapi_thunks 0000000180013648 f   libvcruntime:winapi_downlevel.obj
 0001:000126a0       _NLG_Notify                00000001800136a0 f   libvcruntime:notify.obj
 0001:000126c0       __NLG_Dispatch2            00000001800136c0 f   libvcruntime:notify.obj
 0001:000126d0       __NLG_Return2              00000001800136d0 f   libvcruntime:notify.obj
 0001:000126d4       __except_validate_context_record 00000001800136d4 f   libvcruntime:jbcxrval.obj
 0001:0001270c       ?GetCurrentState@__FrameHandler3@@SAHPEA_KPEAU_xDISPATCHER_CONTEXT@@PEBU_s_FuncInfo@@@Z 000000018001370c f   libvcruntime:ehstate.obj
 0001:00012734       ?GetUnwindTryBlock@__FrameHandler3@@SAHPEA_KPEAU_xDISPATCHER_CONTEXT@@PEBU_s_FuncInfo@@@Z 0000000180013734 f   libvcruntime:ehstate.obj
 0001:00012760       ?SetState@__FrameHandler3@@SAXPEA_KPEBU_s_FuncInfo@@H@Z 0000000180013760 f   libvcruntime:ehstate.obj
 0001:0001276c       ?SetUnwindTryBlock@__FrameHandler3@@SAXPEA_KPEAU_xDISPATCHER_CONTEXT@@PEBU_s_FuncInfo@@H@Z 000000018001376c f   libvcruntime:ehstate.obj
 0001:000127a8       ?StateFromControlPc@__FrameHandler3@@SAHPEBU_s_FuncInfo@@PEAU_xDISPATCHER_CONTEXT@@@Z 00000001800137a8 f   libvcruntime:ehstate.obj
 0001:000127b0       ?StateFromIp@__FrameHandler3@@SAHPEBU_s_FuncInfo@@PEAU_xDISPATCHER_CONTEXT@@_K@Z 00000001800137b0 f   libvcruntime:ehstate.obj
 0001:0001323c       ??$TypeMatchHelper@V__FrameHandler3@@@@YAHPEBU_s_HandlerType@@PEBU_s_CatchableType@@PEBU_s_ThrowInfo@@@Z 000000018001423c f i libvcruntime:frame.obj
 0001:00013380       ??$__InternalCxxFrameHandler@V__FrameHandler3@@@@YA?AW4_EXCEPTION_DISPOSITION@@PEAUEHExceptionRecord@@PEA_KPEAU_CONTEXT@@PEAU_xDISPATCHER_CONTEXT@@PEBU_s_FuncInfo@@H1E@Z 0000000180014380 f i libvcruntime:frame.obj
 0001:000135c8       ??0bad_exception@std@@QEAA@AEBV01@@Z 00000001800145c8 f i libvcruntime:frame.obj
 0001:00013608       ??0bad_exception@std@@QEAA@XZ 0000000180014608 f i libvcruntime:frame.obj
 0001:00013628       ?CxxCallCatchBlock@__FrameHandler3@@SAPEAXPEAU_EXCEPTION_RECORD@@@Z 0000000180014628 f   libvcruntime:frame.obj
 0001:0001389c       ?FrameUnwindToState@__FrameHandler3@@SAXPEA_KPEAU_xDISPATCHER_CONTEXT@@PEBU_s_FuncInfo@@H@Z 000000018001489c f   libvcruntime:frame.obj
 0001:00013a30       ?GetHandlerSearchState@__FrameHandler3@@SAHPEA_KPEAU_xDISPATCHER_CONTEXT@@PEBU_s_FuncInfo@@@Z 0000000180014a30 f i libvcruntime:frame.obj
 0001:00013c34       ?_CallMemberFunction1@@YAXQEAX00@Z 0000000180014c34 f i libvcruntime:frame.obj
 0001:00013c40       ?_CallMemberFunction2@@YAXQEAX00H@Z 0000000180014c40 f i libvcruntime:frame.obj
 0001:00013c60       _CallSettingFrame          0000000180014c60 f   libvcruntime:handlers.obj
 0001:00013cb0       _CallSettingFrameEncoded   0000000180014cb0 f   libvcruntime:handlers.obj
 0001:00013cf8       free                       0000000180014cf8 f   libucrt:free.obj
 0001:00013d00       __acrt_call_reportfault    0000000180014d00 f   libucrt:invalid_parameter.obj
 0001:00013e5c       __acrt_initialize_invalid_parameter_handler 0000000180014e5c f   libucrt:invalid_parameter.obj
 0001:00013e64       _invalid_parameter         0000000180014e64 f   libucrt:invalid_parameter.obj
 0001:00013f0c       _invalid_parameter_noinfo  0000000180014f0c f   libucrt:invalid_parameter.obj
 0001:00013f2c       _invoke_watson             0000000180014f2c f   libucrt:invalid_parameter.obj
 0001:00013f74       __acrt_errno_from_os_error 0000000180014f74 f   libucrt:errno.obj
 0001:00013fbc       __acrt_errno_map_os_error  0000000180014fbc f   libucrt:errno.obj
 0001:0001400c       __doserrno                 000000018001500c f   libucrt:errno.obj
 0001:0001402c       _errno                     000000018001502c f   libucrt:errno.obj
 0001:0001404c       calloc                     000000018001504c f   libucrt:calloc.obj
 0001:00014054       malloc                     0000000180015054 f   libucrt:malloc.obj
 0001:0001405c       _recalloc                  000000018001505c f   libucrt:recalloc.obj
 0001:00014064       _recalloc_base             0000000180015064 f   libucrt:recalloc.obj
 0001:000140fc       _resetstkoflw              00000001800150fc f   libucrt:resetstk.obj
 0001:00014220       wcscat_s                   0000000180015220 f   libucrt:wcscat_s.obj
 0001:000142a0       wcscpy_s                   00000001800152a0 f   libucrt:wcscpy_s.obj
 0001:00014308       wcsncpy_s                  0000000180015308 f   libucrt:wcsncpy_s.obj
 0001:000145a0       ??$ensure_buffer_is_big_enough@D@formatting_buffer@__crt_stdio_output@@QEAA_N_K@Z 00000001800155a0 f i libucrt:output.obj
 0001:0001464c       ??$is_wide_character_specifier@_W@__crt_stdio_output@@YA_N_K_WW4length_modifier@0@@Z 000000018001564c f i libucrt:output.obj
 0001:00014690       ??$type_case_integer_parse_into_buffer@I@?$output_processor@_WV?$string_output_adapter@_W@__crt_stdio_output@@V?$format_validation_base@_WV?$string_output_adapter@_W@__crt_stdio_output@@@2@@__crt_stdio_output@@AEAAXII_N@Z 0000000180015690 f i libucrt:output.obj
 0001:0001472c       ??$type_case_integer_parse_into_buffer@_K@?$output_processor@_WV?$string_output_adapter@_W@__crt_stdio_output@@V?$format_validation_base@_WV?$string_output_adapter@_W@__crt_stdio_output@@@2@@__crt_stdio_output@@AEAAX_KI_N@Z 000000018001572c f i libucrt:output.obj
 0001:000147c8       ??$write_multiple_characters@V?$string_output_adapter@_W@__crt_stdio_output@@D@__crt_stdio_output@@YAXAEBV?$string_output_adapter@_W@0@DHQEAH@Z 00000001800157c8 f i libucrt:output.obj
 0001:00014838       ??0?$output_processor@_WV?$string_output_adapter@_W@__crt_stdio_output@@V?$format_validation_base@_WV?$string_output_adapter@_W@__crt_stdio_output@@@2@@__crt_stdio_output@@QEAA@AEBV?$string_output_adapter@_W@1@_KQEB_WQEAU__crt_locale_pointers@@QEAD@Z 0000000180015838 f i libucrt:output.obj
 0001:000148b8       ??0_LocaleUpdate@@QEAA@QEAU__crt_locale_pointers@@@Z 00000001800158b8 f i libucrt:output.obj
 0001:00014948       ?force_decimal_point@__crt_stdio_output@@YAXPEADQEAU__crt_locale_pointers@@@Z 0000000180015948 f i libucrt:output.obj
 0001:000149b8       ?parse_int_from_format_string@?$output_processor@_WV?$string_output_adapter@_W@__crt_stdio_output@@V?$format_validation_base@_WV?$string_output_adapter@_W@__crt_stdio_output@@@2@@__crt_stdio_output@@AEAA_NQEAH@Z 00000001800159b8 f i libucrt:output.obj
 0001:00014a38       ?process@?$output_processor@_WV?$string_output_adapter@_W@__crt_stdio_output@@V?$format_validation_base@_WV?$string_output_adapter@_W@__crt_stdio_output@@@2@@__crt_stdio_output@@QEAAHXZ 0000000180015a38 f i libucrt:output.obj
 0001:00014cc0       ?state_case_size@?$output_processor@_WV?$string_output_adapter@_W@__crt_stdio_output@@V?$format_validation_base@_WV?$string_output_adapter@_W@__crt_stdio_output@@@2@@__crt_stdio_output@@AEAA_NXZ 0000000180015cc0 f i libucrt:output.obj
 0001:00014e64       ?state_case_type@?$output_processor@_WV?$string_output_adapter@_W@__crt_stdio_output@@V?$format_validation_base@_WV?$string_output_adapter@_W@__crt_stdio_output@@@2@@__crt_stdio_output@@AEAA_NXZ 0000000180015e64 f i libucrt:output.obj
 0001:00015130       ?type_case_Z@?$output_processor@_WV?$string_output_adapter@_W@__crt_stdio_output@@V?$format_validation_base@_WV?$string_output_adapter@_W@__crt_stdio_output@@@2@@__crt_stdio_output@@AEAA_NXZ 0000000180016130 f i libucrt:output.obj
 0001:000151b0       ?type_case_a@?$output_processor@_WV?$string_output_adapter@_W@__crt_stdio_output@@V?$format_validation_base@_WV?$string_output_adapter@_W@__crt_stdio_output@@@2@@__crt_stdio_output@@AEAA_NXZ 00000001800161b0 f i libucrt:output.obj
 0001:000153f4       ?type_case_c_tchar@?$output_processor@_WV?$string_output_adapter@_W@__crt_stdio_output@@V?$format_validation_base@_WV?$string_output_adapter@_W@__crt_stdio_output@@@2@@__crt_stdio_output@@AEAA_N_W@Z 00000001800163f4 f i libucrt:output.obj
 0001:0001549c       ?type_case_integer@?$output_processor@_WV?$string_output_adapter@_W@__crt_stdio_output@@V?$format_validation_base@_WV?$string_output_adapter@_W@__crt_stdio_output@@@2@@__crt_stdio_output@@AEAA_NI_N@Z 000000018001649c f i libucrt:output.obj
 0001:0001563c       ?type_case_n@?$output_processor@_WV?$string_output_adapter@_W@__crt_stdio_output@@V?$format_validation_base@_WV?$string_output_adapter@_W@__crt_stdio_output@@@2@@__crt_stdio_output@@AEAA_NXZ 000000018001663c f i libucrt:output.obj
 0001:00015718       ?type_case_s@?$output_processor@_WV?$string_output_adapter@_W@__crt_stdio_output@@V?$format_validation_base@_WV?$string_output_adapter@_W@__crt_stdio_output@@@2@@__crt_stdio_output@@AEAA_NXZ 0000000180016718 f i libucrt:output.obj
 0001:000157e0       ?write_stored_string_tchar@?$output_processor@_WV?$string_output_adapter@_W@__crt_stdio_output@@V?$format_validation_base@_WV?$string_output_adapter@_W@__crt_stdio_output@@@2@@__crt_stdio_output@@AEAA_N_W@Z 00000001800167e0 f i libucrt:output.obj
 0001:000158d0       ?write_string@?$string_output_adapter@_W@__crt_stdio_output@@QEBAXQEB_WHQEAH1@Z 00000001800168d0 f i libucrt:output.obj
 0001:00015990       __stdio_common_vswprintf_s 0000000180016990 f   libucrt:output.obj
 0001:00015a00       _seh_filter_dll            0000000180016a00 f   libucrt:exception_filter.obj
 0001:00015a14       _seh_filter_exe            0000000180016a14 f   libucrt:exception_filter.obj
 0001:00015dd4       __acrt_initialize_thread_local_exit_callback 0000000180016dd4 f   libucrt:exit.obj
 0001:00015ddc       _cexit                     0000000180016ddc f   libucrt:exit.obj
 0001:00015dec       _exit                      0000000180016dec f   libucrt:exit.obj
 0001:00015df8       _is_c_termination_complete 0000000180016df8 f   libucrt:exit.obj
 0001:00015fbc       __acrt_allocate_buffer_for_argv 0000000180016fbc f   libucrt:argv_parsing.obj
 0001:00016020       _configure_narrow_argv     0000000180017020 f   libucrt:argv_parsing.obj
 0001:0001637c       __dcrt_uninitialize_environments_nolock 000000018001737c f   libucrt:environment_initialization.obj
 0001:000163b4       _initialize_narrow_environment 00000001800173b4 f   libucrt:environment_initialization.obj
 0001:000163bc       ??$?RV<lambda_b8c45f8f788dd370798f47cfe8ac3a86>@@AEAV<lambda_4e60a939b0d047cfe11ddc22648dfba9>@@V<lambda_332c3edc96d0294ec56c57d38c1cdfd5>@@@?$__crt_seh_guarded_call@H@@QEAAH$$QEAV<lambda_b8c45f8f788dd370798f47cfe8ac3a86>@@AEAV<lambda_4e60a939b0d047cfe11ddc22648dfba9>@@$$QEAV<lambda_332c3edc96d0294ec56c57d38c1cdfd5>@@@Z 00000001800173bc f i libucrt:onexit.obj
 0001:000163f8       ??$?RV<lambda_e24bbb7b643b32fcea6fa61b31d4c984>@@AEAV<lambda_275893d493268fdec8709772e3fcec0e>@@V<lambda_9d71df4d7cf3f480f8d633942495c3b0>@@@?$__crt_seh_guarded_call@H@@QEAAH$$QEAV<lambda_e24bbb7b643b32fcea6fa61b31d4c984>@@AEAV<lambda_275893d493268fdec8709772e3fcec0e>@@$$QEAV<lambda_9d71df4d7cf3f480f8d633942495c3b0>@@@Z 00000001800173f8 f i libucrt:onexit.obj
 0001:00016774       _crt_atexit                0000000180017774 f   libucrt:onexit.obj
 0001:00016784       _execute_onexit_table      0000000180017784 f   libucrt:onexit.obj
 0001:000167c0       _initialize_onexit_table   00000001800177c0 f   libucrt:onexit.obj
 0001:00016800       _register_onexit_function  0000000180017800 f   libucrt:onexit.obj
 0001:00016880       __acrt_uninitialize_command_line 0000000180017880 f   libucrt:argv_data.obj
 0001:00016980       __acrt_initialize          0000000180017980 f   libucrt:initialization.obj
 0001:00016994       __acrt_thread_attach       0000000180017994 f   libucrt:initialization.obj
 0001:000169a8       __acrt_thread_detach       00000001800179a8 f   libucrt:initialization.obj
 0001:000169b8       __acrt_uninitialize        00000001800179b8 f   libucrt:initialization.obj
 0001:000169cc       __acrt_uninitialize_critical 00000001800179cc f   libucrt:initialization.obj
 0001:000169dc       _initterm                  00000001800179dc f   libucrt:initterm.obj
 0001:00016a54       _initterm_e                0000000180017a54 f   libucrt:initterm.obj
 0001:00016aa0       __acrt_initialize_new_handler 0000000180017aa0 f   libucrt:new_handler.obj
 0001:00016aa8       _callnewh                  0000000180017aa8 f   libucrt:new_handler.obj
 0001:00016ae8       _query_new_handler         0000000180017ae8 f   libucrt:new_handler.obj
 0001:00016b1c       terminate                  0000000180017b1c f   libucrt:terminate.obj
 0001:00016b44       abort                      0000000180017b44 f   libucrt:abort.obj
 0001:00016b9c       strcpy_s                   0000000180017b9c f   libucrt:strcpy_s.obj
 0001:00016bfc       wcsncmp                    0000000180017bfc f   libucrt:wcsncmp.obj
 0001:00016c28       ??$is_overflow_condition@K@__crt_strtox@@YA_NIK@Z 0000000180017c28 f i libucrt:atox.obj
 0001:00016c54       ??$parse_integer@KV?$c_string_character_source@_W@__crt_strtox@@@__crt_strtox@@YAKQEAU__crt_locale_pointers@@V?$c_string_character_source@_W@0@H_N@Z 0000000180017c54 f i libucrt:atox.obj
 0001:00017340       strncmp                    0000000180018340 f   libucrt:strncmp.obj
 0001:000173c0       _free_base                 00000001800183c0 f   libucrt:free_base.obj
 0001:00017400       ??$?RV<lambda_46352004c1216016012b18bd6f87e700>@@AEAV<lambda_3bd07e1a1191394380780325891bf33f>@@V<lambda_334532d3f185bcaa59b5be82d7d22bff>@@@?$__crt_seh_guarded_call@X@@QEAAX$$QEAV<lambda_46352004c1216016012b18bd6f87e700>@@AEAV<lambda_3bd07e1a1191394380780325891bf33f>@@$$QEAV<lambda_334532d3f185bcaa59b5be82d7d22bff>@@@Z 0000000180018400 f i libucrt:per_thread_data.obj
 0001:00017460       ??$?RV<lambda_5e887d1dcbef67a5eb4283622ba103bf>@@AEAV<lambda_4466841279450cc726390878d4a41900>@@V<lambda_341c25c0346d94847f1f3c463c57e077>@@@?$__crt_seh_guarded_call@X@@QEAAX$$QEAV<lambda_5e887d1dcbef67a5eb4283622ba103bf>@@AEAV<lambda_4466841279450cc726390878d4a41900>@@$$QEAV<lambda_341c25c0346d94847f1f3c463c57e077>@@@Z 0000000180018460 f i libucrt:per_thread_data.obj
 0001:000174a8       ??$?RV<lambda_72d1df2b273a38828b1ce30cbf4cdab5>@@AEAV<lambda_876a65b173b8412d3a47c70a915b0cf4>@@V<lambda_41932305e351933ebe8f8be3ed8bb5dc>@@@?$__crt_seh_guarded_call@X@@QEAAX$$QEAV<lambda_72d1df2b273a38828b1ce30cbf4cdab5>@@AEAV<lambda_876a65b173b8412d3a47c70a915b0cf4>@@$$QEAV<lambda_41932305e351933ebe8f8be3ed8bb5dc>@@@Z 00000001800184a8 f i libucrt:per_thread_data.obj
 0001:000174e8       ??$?RV<lambda_fb3a7dec4e47f37f22dae91bb15c9095>@@AEAV<lambda_698284760c8add0bfb0756c19673e34b>@@V<lambda_dfb8eca1e75fef3034a8fb18dd509707>@@@?$__crt_seh_guarded_call@X@@QEAAX$$QEAV<lambda_fb3a7dec4e47f37f22dae91bb15c9095>@@AEAV<lambda_698284760c8add0bfb0756c19673e34b>@@$$QEAV<lambda_dfb8eca1e75fef3034a8fb18dd509707>@@@Z 00000001800184e8 f i libucrt:per_thread_data.obj
 0001:00017778       __acrt_freeptd             0000000180018778 f   libucrt:per_thread_data.obj
 0001:000177bc       __acrt_getptd              00000001800187bc f   libucrt:per_thread_data.obj
 0001:00017850       __acrt_getptd_noexit       0000000180018850 f   libucrt:per_thread_data.obj
 0001:000178f0       __acrt_initialize_ptd      00000001800188f0 f   libucrt:per_thread_data.obj
 0001:0001792c       __acrt_uninitialize_ptd    000000018001892c f   libucrt:per_thread_data.obj
 0001:00017950       _calloc_base               0000000180018950 f   libucrt:calloc_base.obj
 0001:000179c8       _malloc_base               00000001800189c8 f   libucrt:malloc_base.obj
 0001:00017a28       _msize                     0000000180018a28 f   libucrt:msize.obj
 0001:00017a64       _realloc_base              0000000180018a64 f   libucrt:realloc_base.obj
 0001:00017c88       __acrt_FlsAlloc            0000000180018c88 f   libucrt:winapi_thunks.obj
 0001:00017ce0       __acrt_FlsFree             0000000180018ce0 f   libucrt:winapi_thunks.obj
 0001:00017d38       __acrt_FlsGetValue         0000000180018d38 f   libucrt:winapi_thunks.obj
 0001:00017d90       __acrt_FlsSetValue         0000000180018d90 f   libucrt:winapi_thunks.obj
 0001:00017df8       __acrt_InitializeCriticalSectionEx 0000000180018df8 f   libucrt:winapi_thunks.obj
 0001:00017e70       __acrt_LCMapStringEx       0000000180018e70 f   libucrt:winapi_thunks.obj
 0001:00017f60       __acrt_LocaleNameToLCID    0000000180018f60 f   libucrt:winapi_thunks.obj
 0001:00017fc8       __acrt_SetThreadStackGuarantee 0000000180018fc8 f   libucrt:winapi_thunks.obj
 0001:00018018       __acrt_initialize_winapi_thunks 0000000180019018 f   libucrt:winapi_thunks.obj
 0001:00018050       __acrt_is_packaged_app     0000000180019050 f   libucrt:winapi_thunks.obj
 0001:000180d8       __acrt_uninitialize_winapi_thunks 00000001800190d8 f   libucrt:winapi_thunks.obj
 0001:0001811c       isdigit                    000000018001911c f i libucrt:_ctype.obj
 0001:000181e0       _tolower_l                 00000001800191e0 f   libucrt:tolower_toupper.obj
 0001:00018320       tolower                    0000000180019320 f   libucrt:tolower_toupper.obj
 0001:0001834c       ??$make_c_string_character_source@_WPEAPEA_W@__crt_strtox@@YA?AV?$c_string_character_source@_W@0@QEB_WQEAPEA_W@Z 000000018001934c f i libucrt:strtox.obj
 0001:00018360       wcstol                     0000000180019360 f   libucrt:strtox.obj
 0001:00018390       _mbtowc_l                  0000000180019390 f   libucrt:mbtowc.obj
 0001:000184d8       mbtowc                     00000001800194d8 f   libucrt:mbtowc.obj
 0001:000184e0       wcsnlen                    00000001800194e0 f   libucrt:strnlen.obj
 0001:000186d0       __acrt_update_locale_info  00000001800196d0 f   libucrt:locale_update.obj
 0001:00018704       __acrt_update_multibyte_info 0000000180019704 f   libucrt:locale_update.obj
 0001:00018738       ?__acrt_fp_classify@@YA?AW4__acrt_fp_class@@AEBN@Z 0000000180019738 f i libucrt:cvt.obj
 0001:00019170       __acrt_fp_format           000000018001a170 f   libucrt:cvt.obj
 0001:000193b4       _fileno                    000000018001a3b4 f   libucrt:fileno.obj
 0001:000193dc       __acrt_initialize_stdio    000000018001a3dc f   libucrt:_file.obj
 0001:000194fc       __acrt_uninitialize_stdio  000000018001a4fc f   libucrt:_file.obj
 0001:00019558       _lock_file                 000000018001a558 f   libucrt:_file.obj
 0001:00019564       _unlock_file               000000018001a564 f   libucrt:_file.obj
 0001:00019570       _get_printf_count_output   000000018001a570 f   libucrt:printf_count_output.obj
 0001:00019588       __acrt_set_locale_changed  000000018001a588 f   libucrt:wsetlocale.obj
 0001:00019594       __acrt_uninitialize_locale 000000018001a594 f   libucrt:wsetlocale.obj
 0001:000197c4       __acrt_initialize_lowio    000000018001a7c4 f   libucrt:ioinit.obj
 0001:00019800       __acrt_uninitialize_lowio  000000018001a800 f   libucrt:ioinit.obj
 0001:00019840       __acrt_initialize_locks    000000018001a840 f   libucrt:locks.obj
 0001:00019888       __acrt_lock                000000018001a888 f   libucrt:locks.obj
 0001:000198a4       __acrt_uninitialize_locks  000000018001a8a4 f   libucrt:locks.obj
 0001:000198dc       __acrt_unlock              000000018001a8dc f   libucrt:locks.obj
 0001:00019dd4       ?expand_if_necessary@?$argument_list@D@?A0xca0879c4@@AEAAHXZ 000000018001add4 f i libucrt:argv_wildcards.obj
 0001:00019e9c       __acrt_expand_narrow_argv_wildcards 000000018001ae9c f   libucrt:argv_wildcards.obj
 0001:00019ea4       ??$?RV<lambda_99476a1ad63dd22509b5d3e65b0ffc95>@@AEAV<lambda_ad1ced32f4ac17aa236e5ef05d6b3b7c>@@V<lambda_f7424dd8d45958661754dc4f2697e9c3>@@@?$__crt_seh_guarded_call@X@@QEAAX$$QEAV<lambda_99476a1ad63dd22509b5d3e65b0ffc95>@@AEAV<lambda_ad1ced32f4ac17aa236e5ef05d6b3b7c>@@$$QEAV<lambda_f7424dd8d45958661754dc4f2697e9c3>@@@Z 000000018001aea4 f i libucrt:mbctype.obj
 0001:0001a5a0       __acrt_initialize_multibyte 000000018001b5a0 f   libucrt:mbctype.obj
 0001:0001a5c8       __acrt_update_thread_multibyte_data 000000018001b5c8 f   libucrt:mbctype.obj
 0001:0001a688       _setmbcp_nolock            000000018001b688 f   libucrt:mbctype.obj
 0001:0001a9a8       _ismbblead                 000000018001b9a8 f   libucrt:ismbbyte.obj
 0001:0001a9bc       __acrt_initialize_command_line 000000018001b9bc f   libucrt:argv_data.obj
 0001:0001a9e4       __dcrt_get_narrow_environment_from_os 000000018001b9e4 f   libucrt:get_environment_from_os.obj
 0001:0001aae8       __acrt_initialize_heap     000000018001bae8 f   libucrt:heap_handle.obj
 0001:0001ab04       __acrt_uninitialize_heap   000000018001bb04 f   libucrt:heap_handle.obj
 0001:0001ab10       __acrt_execute_initializers 000000018001bb10 f   libucrt:shared_initialization.obj
 0001:0001aba4       __acrt_execute_uninitializers 000000018001bba4 f   libucrt:shared_initialization.obj
 0001:0001abf4       ??$?RV<lambda_c36588078e9f5dfd39652860aa6b3aaf>@@AEAV<lambda_ec61778202f4f5fc7e7711acc23c3bca>@@V<lambda_dc9d2797ccde5d239b4a0efae8ebd7db>@@@?$__crt_seh_guarded_call@P6AXH@Z@@QEAAP6AXH@Z$$QEAV<lambda_c36588078e9f5dfd39652860aa6b3aaf>@@AEAV<lambda_ec61778202f4f5fc7e7711acc23c3bca>@@$$QEAV<lambda_dc9d2797ccde5d239b4a0efae8ebd7db>@@@Z 000000018001bbf4 f i libucrt:signal.obj
 0001:0001ac3c       __acrt_get_sigabrt_handler 000000018001bc3c f   libucrt:signal.obj
 0001:0001ac6c       __acrt_initialize_signal_handlers 000000018001bc6c f   libucrt:signal.obj
 0001:0001ac8c       raise                      000000018001bc8c f   libucrt:signal.obj
 0001:0001af28       __acrt_has_user_matherr    000000018001bf28 f   libucrt:matherr.obj
 0001:0001af48       __acrt_initialize_user_matherr 000000018001bf48 f   libucrt:matherr.obj
 0001:0001af50       __acrt_invoke_user_matherr 000000018001bf50 f   libucrt:matherr.obj
 0001:0001af98       __pctype_func              000000018001bf98 f   libucrt:ctype.obj
 0001:0001afc8       iswctype                   000000018001bfc8 f   libucrt:iswctype.obj
 0001:0001b038       _isctype_l                 000000018001c038 f   libucrt:isctype.obj
 0001:0001b148       __acrt_add_locale_ref      000000018001c148 f   libucrt:locale_refcounting.obj
 0001:0001b1d4       __acrt_free_locale         000000018001c1d4 f   libucrt:locale_refcounting.obj
 0001:0001b34c       __acrt_locale_add_lc_time_reference 000000018001c34c f   libucrt:locale_refcounting.obj
 0001:0001b374       __acrt_locale_free_lc_time_if_unreferenced 000000018001c374 f   libucrt:locale_refcounting.obj
 0001:0001b3ac       __acrt_locale_release_lc_time_reference 000000018001c3ac f   libucrt:locale_refcounting.obj
 0001:0001b3d4       __acrt_release_locale_ref  000000018001c3d4 f   libucrt:locale_refcounting.obj
 0001:0001b47c       __acrt_update_thread_locale_data 000000018001c47c f   libucrt:locale_refcounting.obj
 0001:0001b4ec       _updatetlocinfoEx_nolock   000000018001c4ec f   libucrt:locale_refcounting.obj
 0001:0001b554       _query_new_mode            000000018001c554 f   libucrt:new_mode.obj
 0001:0001b624       __acrt_DownlevelLocaleNameToLCID 000000018001c624 f   libucrt:lcidtoname_downlevel.obj
 0001:0001b658       _isleadbyte_l              000000018001c658 f i libucrt:_wctype.obj
 0001:0001b9f4       __acrt_LCMapStringA        000000018001c9f4 f   libucrt:lcmapstringa.obj
 0001:0001ba8c       __acrt_fp_strflt_to_string 000000018001ca8c f   libucrt:_fptostr.obj
 0001:0001bb50       ?divide@__crt_strtox@@YA_KAEAUbig_integer@1@AEBU21@@Z 000000018001cb50 f i libucrt:cfout.obj
 0001:0001c020       __acrt_fltout              000000018001d020 f   libucrt:cfout.obj
 0001:0001d414       _fcloseall                 000000018001e414 f   libucrt:closeall.obj
 0001:0001d4c8       __acrt_stdio_flush_nolock  000000018001e4c8 f   libucrt:fflush.obj
 0001:0001d540       _fflush_nolock             000000018001e540 f   libucrt:fflush.obj
 0001:0001d58c       _flushall                  000000018001e58c f   libucrt:fflush.obj
 0001:0001d67c       __acrt_stdio_free_buffer_nolock 000000018001e67c f   libucrt:_freebuf.obj
 0001:0001d6bc       _isatty                    000000018001e6bc f   libucrt:isatty.obj
 0001:0001d71c       __acrt_locale_free_monetary 000000018001e71c f   libucrt:initmon.obj
 0001:0001d828       __acrt_locale_free_numeric 000000018001e828 f   libucrt:initnum.obj
 0001:0001d8ec       __acrt_locale_free_time    000000018001e8ec f   libucrt:inittime.obj
 0001:0001d9f4       __acrt_GetStringTypeA      000000018001e9f4 f   libucrt:getstringtypea.obj
 0001:0001dba8       __acrt_lowio_create_handle_array 000000018001eba8 f   libucrt:osfinfo.obj
 0001:0001dc40       __acrt_lowio_destroy_handle_array 000000018001ec40 f   libucrt:osfinfo.obj
 0001:0001dc90       __acrt_lowio_ensure_fh_exists 000000018001ec90 f   libucrt:osfinfo.obj
 0001:0001dd48       __acrt_lowio_lock_fh       000000018001ed48 f   libucrt:osfinfo.obj
 0001:0001dd6c       __acrt_lowio_unlock_fh     000000018001ed6c f   libucrt:osfinfo.obj
 0001:0001dd90       _free_osfhnd               000000018001ed90 f   libucrt:osfinfo.obj
 0001:0001de4c       _get_osfhandle             000000018001ee4c f   libucrt:osfinfo.obj
 0001:0001dfa0       qsort                      000000018001efa0 f   libucrt:qsort.obj
 0001:0001e2d4       strncpy_s                  000000018001f2d4 f   libucrt:strncpy_s.obj
 0001:0001e3a8       strpbrk                    000000018001f3a8 f   libucrt:strpbrk.obj
 0001:0001e448       _mbsdec                    000000018001f448 f   libucrt:mbsdec.obj
 0001:0001e450       _mbsdec_l                  000000018001f450 f   libucrt:mbsdec.obj
 0001:0001e500       __strncnt                  000000018001f500 f   libucrt:strncnt.obj
 0001:0001e518       fegetenv                   000000018001f518 f   libucrt:fegetenv.obj
 0001:0001e538       fesetenv                   000000018001f538 f   libucrt:fesetenv.obj
 0001:0001e584       feholdexcept               000000018001f584 f   libucrt:feholdexcept.obj
 0001:0001e5d4       ceil                       000000018001f5d4 f   libucrt:ceil.obj
 0001:0001e6a0       log10                      000000018001f6a0 f   libucrt:log10.obj
 0001:0001f1ec       _write                     00000001800201ec f   libucrt:write.obj
 0001:0001f2d8       _write_nolock              00000001800202d8 f   libucrt:write.obj
 0001:0001f658       _lseeki64_nolock           0000000180020658 f   libucrt:lseek.obj
 0001:0001f660       _fclose_nolock             0000000180020660 f   libucrt:fclose.obj
 0001:0001f6e4       fclose                     00000001800206e4 f   libucrt:fclose.obj
 0001:0001f750       ??$?RV<lambda_b521505b218e5242e90febf6bfebc422>@@AEAV<lambda_6978c1fb23f02e42e1d9e99668cc68aa>@@V<lambda_314360699dd331753a4119843814e9a7>@@@?$__crt_seh_guarded_call@H@@QEAAH$$QEAV<lambda_b521505b218e5242e90febf6bfebc422>@@AEAV<lambda_6978c1fb23f02e42e1d9e99668cc68aa>@@$$QEAV<lambda_314360699dd331753a4119843814e9a7>@@@Z 0000000180020750 f i libucrt:commit.obj
 0001:0001f7dc       _commit                    00000001800207dc f   libucrt:commit.obj
 0001:0001f870       _query_app_type            0000000180020870 f   libucrt:report_runtime_error.obj
 0001:0001f878       _getfpcontrolword          0000000180020878 f   libucrt:_fenvutils.obj
 0001:0001f890       _getfpstatusword           0000000180020890 f   libucrt:_fenvutils.obj
 0001:0001f8a4       _setfpcontrolword          00000001800208a4 f   libucrt:_fenvutils.obj
 0001:0001f8b0       _setfpstatusword           00000001800208b0 f   libucrt:_fenvutils.obj
 0001:0001f900       _clearfp                   0000000180020900 f   libucrt:ieee.obj
 0001:0001f954       _controlfp                 0000000180020954 f   libucrt:ieee.obj
 0001:0001f960       _statusfp                  0000000180020960 f   libucrt:ieee.obj
 0001:0001fd64       _handle_error              0000000180020d64 f   libucrt:libm_error.obj
 0001:0001fe8c       _handle_nan                0000000180020e8c f   libucrt:libm_error.obj
 0001:0001feb0       __acrt_initialize_fma3     0000000180020eb0 f   libucrt:fma3_available.obj
 0001:0001ff20       _log10_special             0000000180020f20 f   libucrt:log_special.obj
 0001:0001ffd8       _putwch_nolock             0000000180020fd8 f   libucrt:putwch.obj
 0001:00020034       ??$?RV<lambda_bfedae4ebbf01fab1bb6dcc6a9e276e0>@@AEAV<lambda_2fe9b910cf3cbf4a0ab98a02ba45b3ec>@@V<lambda_237c231691f317818eb88cc1d5d642d6>@@@?$__crt_seh_guarded_call@H@@QEAAH$$QEAV<lambda_bfedae4ebbf01fab1bb6dcc6a9e276e0>@@AEAV<lambda_2fe9b910cf3cbf4a0ab98a02ba45b3ec>@@$$QEAV<lambda_237c231691f317818eb88cc1d5d642d6>@@@Z 0000000180021034 f i libucrt:close.obj
 0001:000200a8       _close                     00000001800210a8 f   libucrt:close.obj
 0001:0002014c       _close_nolock              000000018002114c f   libucrt:close.obj
 0001:00020208       ?__acrt_stdio_free_stream@@YAXV__crt_stdio_stream@@@Z 0000000180021208 f   libucrt:stream.obj
 0001:00020260       _get_fpsr                  0000000180021260 f   libucrt:fpsr.obj
 0001:00020270       _set_fpsr                  0000000180021270 f   libucrt:fpsr.obj
 0001:0002027a       _fclrf                     000000018002127a f   libucrt:fpsr.obj
 0001:0002028e       _frnd                      000000018002128e f   libucrt:fpsr.obj
 0001:000202b0       _raise_exc                 00000001800212b0 f   libucrt:fpexcept.obj
 0001:000202d8       _raise_exc_ex              00000001800212d8 f   libucrt:fpexcept.obj
 0001:000205e0       _set_errno_from_matherr    00000001800215e0 f   libucrt:fpexcept.obj
 0001:00020610       _clrfp                     0000000180021610 f   libucrt:fpctrl.obj
 0001:00020630       _ctrlfp                    0000000180021630 f   libucrt:fpctrl.obj
 0001:000206ac       _set_statfp                00000001800216ac f   libucrt:fpctrl.obj
 0001:000206cc       _statfp                    00000001800216cc f   libucrt:fpctrl.obj
 0001:000206e0       __dcrt_lowio_initialize_console_output 00000001800216e0 f   libucrt:initcon.obj
 0001:0002071c       __dcrt_terminate_console_output 000000018002171c f   libucrt:initcon.obj
 0001:0002073c       IsProcessorFeaturePresent  000000018002173c f   kernel32:KERNEL32.dll
 0001:00020750       _FindPESection             0000000180021750 f   LIBCMT:pesect.obj
 0001:000207a0       _IsNonwritableInCurrentImage 00000001800217a0 f   LIBCMT:pesect.obj
 0001:000207f0       _ValidateImageBase         00000001800217f0 f   LIBCMT:pesect.obj
 0001:00020820       strrchr                    0000000180021820 f   libvcruntime:strrchr.obj
 0001:00020980       _guard_dispatch_icall_nop  0000000180021980 f   LIBCMT:guard_dispatch.obj
 0002:00000000       __imp_RegQueryValueExW     0000000180022000     advapi32:ADVAPI32.dll
 0002:00000008       __imp_RegSetValueExW       0000000180022008     advapi32:ADVAPI32.dll
 0002:00000010       __imp_RegQueryInfoKeyW     0000000180022010     advapi32:ADVAPI32.dll
 0002:00000018       __imp_RegOpenKeyExW        0000000180022018     advapi32:ADVAPI32.dll
 0002:00000020       __imp_RegEnumKeyExW        0000000180022020     advapi32:ADVAPI32.dll
 0002:00000028       __imp_RegDeleteValueW      0000000180022028     advapi32:ADVAPI32.dll
 0002:00000030       __imp_RegDeleteKeyW        0000000180022030     advapi32:ADVAPI32.dll
 0002:00000038       __imp_RegCreateKeyExW      0000000180022038     advapi32:ADVAPI32.dll
 0002:00000040       __imp_RegCloseKey          0000000180022040     advapi32:ADVAPI32.dll
 0002:00000048       \177ADVAPI32_NULL_THUNK_DATA 0000000180022048     advapi32:ADVAPI32.dll
 0002:00000050       __imp_GetObjectW           0000000180022050     gdi32:GDI32.dll
 0002:00000058       __imp_SelectObject         0000000180022058     gdi32:GDI32.dll
 0002:00000060       __imp_DeleteObject         0000000180022060     gdi32:GDI32.dll
 0002:00000068       __imp_CreateCompatibleDC   0000000180022068     gdi32:GDI32.dll
 0002:00000070       __imp_BitBlt               0000000180022070     gdi32:GDI32.dll
 0002:00000078       __imp_SetWindowOrgEx       0000000180022078     gdi32:GDI32.dll
 0002:00000080       __imp_SetWindowExtEx       0000000180022080     gdi32:GDI32.dll
 0002:00000088       __imp_SetViewportOrgEx     0000000180022088     gdi32:GDI32.dll
 0002:00000090       __imp_LPtoDP               0000000180022090     gdi32:GDI32.dll
 0002:00000098       __imp_SetMapMode           0000000180022098     gdi32:GDI32.dll
 0002:000000a0       __imp_SaveDC               00000001800220a0     gdi32:GDI32.dll
 0002:000000a8       __imp_RestoreDC            00000001800220a8     gdi32:GDI32.dll
 0002:000000b0       __imp_GetDeviceCaps        00000001800220b0     gdi32:GDI32.dll
 0002:000000b8       __imp_DeleteMetaFile       00000001800220b8     gdi32:GDI32.dll
 0002:000000c0       __imp_DeleteDC             00000001800220c0     gdi32:GDI32.dll
 0002:000000c8       __imp_CreateRectRgnIndirect 00000001800220c8     gdi32:GDI32.dll
 0002:000000d0       __imp_CreateMetaFileW      00000001800220d0     gdi32:GDI32.dll
 0002:000000d8       __imp_CreateDCW            00000001800220d8     gdi32:GDI32.dll
 0002:000000e0       __imp_CloseMetaFile        00000001800220e0     gdi32:GDI32.dll
 0002:000000e8       \177GDI32_NULL_THUNK_DATA  00000001800220e8     gdi32:GDI32.dll
 0002:000000f0       __imp_CloseHandle          00000001800220f0     kernel32:KERNEL32.dll
 0002:000000f8       __imp_SetEvent             00000001800220f8     kernel32:KERNEL32.dll
 0002:00000100       __imp_CreateMutexW         0000000180022100     kernel32:KERNEL32.dll
 0002:00000108       __imp_CreateEventW         0000000180022108     kernel32:KERNEL32.dll
 0002:00000110       __imp_GetCurrentProcessId  0000000180022110     kernel32:KERNEL32.dll
 0002:00000118       __imp_CreateFileW          0000000180022118     kernel32:KERNEL32.dll
 0002:00000120       __imp_WriteConsoleW        0000000180022120     kernel32:KERNEL32.dll
 0002:00000128       __imp_FlushFileBuffers     0000000180022128     kernel32:KERNEL32.dll
 0002:00000130       __imp_SetFilePointerEx     0000000180022130     kernel32:KERNEL32.dll
 0002:00000138       __imp_GetConsoleMode       0000000180022138     kernel32:KERNEL32.dll
 0002:00000140       __imp_GetConsoleCP         0000000180022140     kernel32:KERNEL32.dll
 0002:00000148       __imp_WriteFile            0000000180022148     kernel32:KERNEL32.dll
 0002:00000150       __imp_SetStdHandle         0000000180022150     kernel32:KERNEL32.dll
 0002:00000158       __imp_GetStringTypeW       0000000180022158     kernel32:KERNEL32.dll
 0002:00000160       __imp_FreeEnvironmentStringsW 0000000180022160     kernel32:KERNEL32.dll
 0002:00000168       __imp_FindResourceW        0000000180022168     kernel32:KERNEL32.dll
 0002:00000170       __imp_GetCommandLineW      0000000180022170     kernel32:KERNEL32.dll
 0002:00000178       __imp_GetCommandLineA      0000000180022178     kernel32:KERNEL32.dll
 0002:00000180       __imp_GetCPInfo            0000000180022180     kernel32:KERNEL32.dll
 0002:00000188       __imp_GetOEMCP             0000000180022188     kernel32:KERNEL32.dll
 0002:00000190       __imp_IsValidCodePage      0000000180022190     kernel32:KERNEL32.dll
 0002:00000198       __imp_FindNextFileA        0000000180022198     kernel32:KERNEL32.dll
 0002:000001a0       __imp_FindFirstFileExA     00000001800221a0     kernel32:KERNEL32.dll
 0002:000001a8       __imp_FindClose            00000001800221a8     kernel32:KERNEL32.dll
 0002:000001b0       __imp_GetFileType          00000001800221b0     kernel32:KERNEL32.dll
 0002:000001b8       __imp_GetStdHandle         00000001800221b8     kernel32:KERNEL32.dll
 0002:000001c0       __imp_GetACP               00000001800221c0     kernel32:KERNEL32.dll
 0002:000001c8       __imp_LCMapStringW         00000001800221c8     kernel32:KERNEL32.dll
 0002:000001d0       __imp_lstrcmpiW            00000001800221d0     kernel32:KERNEL32.dll
 0002:000001d8       __imp_MulDiv               00000001800221d8     kernel32:KERNEL32.dll
 0002:000001e0       __imp_GlobalUnlock         00000001800221e0     kernel32:KERNEL32.dll
 0002:000001e8       __imp_GlobalLock           00000001800221e8     kernel32:KERNEL32.dll
 0002:000001f0       __imp_GlobalAlloc          00000001800221f0     kernel32:KERNEL32.dll
 0002:000001f8       __imp_SizeofResource       00000001800221f8     kernel32:KERNEL32.dll
 0002:00000200       __imp_LoadResource         0000000180022200     kernel32:KERNEL32.dll
 0002:00000208       __imp_LoadLibraryExW       0000000180022208     kernel32:KERNEL32.dll
 0002:00000210       __imp_GetProcAddress       0000000180022210     kernel32:KERNEL32.dll
 0002:00000218       __imp_GetModuleHandleW     0000000180022218     kernel32:KERNEL32.dll
 0002:00000220       __imp_GetModuleFileNameW   0000000180022220     kernel32:KERNEL32.dll
 0002:00000228       __imp_FreeLibrary          0000000180022228     kernel32:KERNEL32.dll
 0002:00000230       __imp_DisableThreadLibraryCalls 0000000180022230     kernel32:KERNEL32.dll
 0002:00000238       __imp_GetCurrentThreadId   0000000180022238     kernel32:KERNEL32.dll
 0002:00000240       __imp_Sleep                0000000180022240     kernel32:KERNEL32.dll
 0002:00000248       __imp_WaitForSingleObject  0000000180022248     kernel32:KERNEL32.dll
 0002:00000250       __imp_ReleaseMutex         0000000180022250     kernel32:KERNEL32.dll
 0002:00000258       __imp_ResetEvent           0000000180022258     kernel32:KERNEL32.dll
 0002:00000260       __imp_EnterCriticalSection 0000000180022260     kernel32:KERNEL32.dll
 0002:00000268       __imp_LeaveCriticalSection 0000000180022268     kernel32:KERNEL32.dll
 0002:00000270       __imp_SetLastError         0000000180022270     kernel32:KERNEL32.dll
 0002:00000278       __imp_EncodePointer        0000000180022278     kernel32:KERNEL32.dll
 0002:00000280       __imp_DeleteCriticalSection 0000000180022280     kernel32:KERNEL32.dll
 0002:00000288       __imp_InitializeCriticalSectionEx 0000000180022288     kernel32:KERNEL32.dll
 0002:00000290       __imp_GetLastError         0000000180022290     kernel32:KERNEL32.dll
 0002:00000298       __imp_RaiseException       0000000180022298     kernel32:KERNEL32.dll
 0002:000002a0       __imp_DecodePointer        00000001800222a0     kernel32:KERNEL32.dll
 0002:000002a8       __imp_WideCharToMultiByte  00000001800222a8     kernel32:KERNEL32.dll
 0002:000002b0       __imp_GetEnvironmentStringsW 00000001800222b0     kernel32:KERNEL32.dll
 0002:000002b8       __imp_MultiByteToWideChar  00000001800222b8     kernel32:KERNEL32.dll
 0002:000002c0       __imp_HeapReAlloc          00000001800222c0     kernel32:KERNEL32.dll
 0002:000002c8       __imp_HeapSize             00000001800222c8     kernel32:KERNEL32.dll
 0002:000002d0       __imp_GetModuleFileNameA   00000001800222d0     kernel32:KERNEL32.dll
 0002:000002d8       __imp_GetModuleHandleExW   00000001800222d8     kernel32:KERNEL32.dll
 0002:000002e0       __imp_ExitProcess          00000001800222e0     kernel32:KERNEL32.dll
 0002:000002e8       __imp_VirtualQuery         00000001800222e8     kernel32:KERNEL32.dll
 0002:000002f0       __imp_VirtualProtect       00000001800222f0     kernel32:KERNEL32.dll
 0002:000002f8       __imp_GetSystemInfo        00000001800222f8     kernel32:KERNEL32.dll
 0002:00000300       __imp_TlsFree              0000000180022300     kernel32:KERNEL32.dll
 0002:00000308       __imp_TlsSetValue          0000000180022308     kernel32:KERNEL32.dll
 0002:00000310       __imp_TlsGetValue          0000000180022310     kernel32:KERNEL32.dll
 0002:00000318       __imp_TlsAlloc             0000000180022318     kernel32:KERNEL32.dll
 0002:00000320       __imp_RtlPcToFileHeader    0000000180022320     kernel32:KERNEL32.dll
 0002:00000328       __imp_InterlockedFlushSList 0000000180022328     kernel32:KERNEL32.dll
 0002:00000330       __imp_RtlUnwindEx          0000000180022330     kernel32:KERNEL32.dll
 0002:00000338       __imp_LoadLibraryExA       0000000180022338     kernel32:KERNEL32.dll
 0002:00000340       __imp_VirtualFree          0000000180022340     kernel32:KERNEL32.dll
 0002:00000348       __imp_VirtualAlloc         0000000180022348     kernel32:KERNEL32.dll
 0002:00000350       __imp_FlushInstructionCache 0000000180022350     kernel32:KERNEL32.dll
 0002:00000358       __imp_InterlockedPushEntrySList 0000000180022358     kernel32:KERNEL32.dll
 0002:00000360       __imp_InterlockedPopEntrySList 0000000180022360     kernel32:KERNEL32.dll
 0002:00000368       __imp_GetProcessHeap       0000000180022368     kernel32:KERNEL32.dll
 0002:00000370       __imp_HeapFree             0000000180022370     kernel32:KERNEL32.dll
 0002:00000378       __imp_HeapAlloc            0000000180022378     kernel32:KERNEL32.dll
 0002:00000380       __imp_OutputDebugStringW   0000000180022380     kernel32:KERNEL32.dll
 0002:00000388       __imp_InitializeSListHead  0000000180022388     kernel32:KERNEL32.dll
 0002:00000390       __imp_GetSystemTimeAsFileTime 0000000180022390     kernel32:KERNEL32.dll
 0002:00000398       __imp_QueryPerformanceCounter 0000000180022398     kernel32:KERNEL32.dll
 0002:000003a0       __imp_GetStartupInfoW      00000001800223a0     kernel32:KERNEL32.dll
 0002:000003a8       __imp_IsDebuggerPresent    00000001800223a8     kernel32:KERNEL32.dll
 0002:000003b0       __imp_InitializeCriticalSectionAndSpinCount 00000001800223b0     kernel32:KERNEL32.dll
 0002:000003b8       __imp_WaitForSingleObjectEx 00000001800223b8     kernel32:KERNEL32.dll
 0002:000003c0       __imp_RtlCaptureContext    00000001800223c0     kernel32:KERNEL32.dll
 0002:000003c8       __imp_RtlLookupFunctionEntry 00000001800223c8     kernel32:KERNEL32.dll
 0002:000003d0       __imp_RtlVirtualUnwind     00000001800223d0     kernel32:KERNEL32.dll
 0002:000003d8       __imp_UnhandledExceptionFilter 00000001800223d8     kernel32:KERNEL32.dll
 0002:000003e0       __imp_SetUnhandledExceptionFilter 00000001800223e0     kernel32:KERNEL32.dll
 0002:000003e8       __imp_GetCurrentProcess    00000001800223e8     kernel32:KERNEL32.dll
 0002:000003f0       __imp_TerminateProcess     00000001800223f0     kernel32:KERNEL32.dll
 0002:000003f8       __imp_IsProcessorFeaturePresent 00000001800223f8     kernel32:KERNEL32.dll
 0002:00000400       \177KERNEL32_NULL_THUNK_DATA 0000000180022400     kernel32:KERNEL32.dll
 0002:00000408       __imp_OleCreatePropertyFrame 0000000180022408     oleaut32:OLEAUT32.dll
 0002:00000410       __imp_UnRegisterTypeLib    0000000180022410     oleaut32:OLEAUT32.dll
 0002:00000418       __imp_RegisterTypeLib      0000000180022418     oleaut32:OLEAUT32.dll
 0002:00000420       __imp_LoadRegTypeLib       0000000180022420     oleaut32:OLEAUT32.dll
 0002:00000428       __imp_LoadTypeLib          0000000180022428     oleaut32:OLEAUT32.dll
 0002:00000430       __imp_VarUI4FromStr        0000000180022430     oleaut32:OLEAUT32.dll
 0002:00000438       __imp_VariantInit          0000000180022438     oleaut32:OLEAUT32.dll
 0002:00000440       __imp_SysAllocStringByteLen 0000000180022440     oleaut32:OLEAUT32.dll
 0002:00000448       __imp_SysStringByteLen     0000000180022448     oleaut32:OLEAUT32.dll
 0002:00000450       __imp_VariantChangeType    0000000180022450     oleaut32:OLEAUT32.dll
 0002:00000458       __imp_VariantClear         0000000180022458     oleaut32:OLEAUT32.dll
 0002:00000460       __imp_SysStringLen         0000000180022460     oleaut32:OLEAUT32.dll
 0002:00000468       __imp_SysFreeString        0000000180022468     oleaut32:OLEAUT32.dll
 0002:00000470       __imp_SysAllocStringLen    0000000180022470     oleaut32:OLEAUT32.dll
 0002:00000478       __imp_SysAllocString       0000000180022478     oleaut32:OLEAUT32.dll
 0002:00000480       \177OLEAUT32_NULL_THUNK_DATA 0000000180022480     oleaut32:OLEAUT32.dll
 0002:00000488       __imp_UnregisterClassW     0000000180022488     user32:USER32.dll
 0002:00000490       __imp_PostMessageW         0000000180022490     user32:USER32.dll
 0002:00000498       __imp_DefWindowProcW       0000000180022498     user32:USER32.dll
 0002:000004a0       __imp_CallWindowProcW      00000001800224a0     user32:USER32.dll
 0002:000004a8       __imp_RegisterClassExW     00000001800224a8     user32:USER32.dll
 0002:000004b0       __imp_GetClassInfoExW      00000001800224b0     user32:USER32.dll
 0002:000004b8       __imp_CreateWindowExW      00000001800224b8     user32:USER32.dll
 0002:000004c0       __imp_IsWindow             00000001800224c0     user32:USER32.dll
 0002:000004c8       __imp_IsChild              00000001800224c8     user32:USER32.dll
 0002:000004d0       __imp_DestroyWindow        00000001800224d0     user32:USER32.dll
 0002:000004d8       __imp_ShowWindow           00000001800224d8     user32:USER32.dll
 0002:000004e0       __imp_SetWindowPos         00000001800224e0     user32:USER32.dll
 0002:000004e8       __imp_CharNextW            00000001800224e8     user32:USER32.dll
 0002:000004f0       __imp_SetFocus             00000001800224f0     user32:USER32.dll
 0002:000004f8       __imp_LoadBitmapW          00000001800224f8     user32:USER32.dll
 0002:00000500       __imp_RegisterClassW       0000000180022500     user32:USER32.dll
 0002:00000508       __imp_PeekMessageW         0000000180022508     user32:USER32.dll
 0002:00000510       __imp_LoadCursorW          0000000180022510     user32:USER32.dll
 0002:00000518       __imp_GetParent            0000000180022518     user32:USER32.dll
 0002:00000520       __imp_SetWindowLongPtrW    0000000180022520     user32:USER32.dll
 0002:00000528       __imp_GetWindowLongPtrW    0000000180022528     user32:USER32.dll
 0002:00000530       __imp_PtInRect             0000000180022530     user32:USER32.dll
 0002:00000538       __imp_EqualRect            0000000180022538     user32:USER32.dll
 0002:00000540       __imp_OffsetRect           0000000180022540     user32:USER32.dll
 0002:00000548       __imp_UnionRect            0000000180022548     user32:USER32.dll
 0002:00000550       __imp_IntersectRect        0000000180022550     user32:USER32.dll
 0002:00000558       __imp_GetClientRect        0000000180022558     user32:USER32.dll
 0002:00000560       __imp_InvalidateRect       0000000180022560     user32:USER32.dll
 0002:00000568       __imp_SetWindowRgn         0000000180022568     user32:USER32.dll
 0002:00000570       __imp_EndPaint             0000000180022570     user32:USER32.dll
 0002:00000578       __imp_BeginPaint           0000000180022578     user32:USER32.dll
 0002:00000580       __imp_ReleaseDC            0000000180022580     user32:USER32.dll
 0002:00000588       __imp_GetDC                0000000180022588     user32:USER32.dll
 0002:00000590       __imp_GetKeyState          0000000180022590     user32:USER32.dll
 0002:00000598       __imp_GetFocus             0000000180022598     user32:USER32.dll
 0002:000005a0       \177USER32_NULL_THUNK_DATA 00000001800225a0     user32:USER32.dll
 0002:000005a8       __imp_CoCreateInstance     00000001800225a8     ole32:ole32.dll
 0002:000005b0       __imp_StringFromGUID2      00000001800225b0     ole32:ole32.dll
 0002:000005b8       __imp_CoTaskMemAlloc       00000001800225b8     ole32:ole32.dll
 0002:000005c0       __imp_CoTaskMemRealloc     00000001800225c0     ole32:ole32.dll
 0002:000005c8       __imp_CreateDataAdviseHolder 00000001800225c8     ole32:ole32.dll
 0002:000005d0       __imp_ReadClassStm         00000001800225d0     ole32:ole32.dll
 0002:000005d8       __imp_WriteClassStm        00000001800225d8     ole32:ole32.dll
 0002:000005e0       __imp_OleSaveToStream      00000001800225e0     ole32:ole32.dll
 0002:000005e8       __imp_CreateOleAdviseHolder 00000001800225e8     ole32:ole32.dll
 0002:000005f0       __imp_OleRegGetUserType    00000001800225f0     ole32:ole32.dll
 0002:000005f8       __imp_OleRegGetMiscStatus  00000001800225f8     ole32:ole32.dll
 0002:00000600       __imp_OleRegEnumVerbs      0000000180022600     ole32:ole32.dll
 0002:00000608       __imp_CLSIDFromProgID      0000000180022608     ole32:ole32.dll
 0002:00000610       __imp_CoTaskMemFree        0000000180022610     ole32:ole32.dll
 0002:00000618       \177ole32_NULL_THUNK_DATA  0000000180022618     ole32:ole32.dll
 0002:00000620       __guard_check_icall_fptr   0000000180022620     LIBCMT:guard_support.obj
 0002:00000628       __guard_dispatch_icall_fptr 0000000180022628     LIBCMT:guard_support.obj
 0002:00000630       __xc_a                     0000000180022630     LIBCMT:initializers.obj
 0002:00000660       __xc_z                     0000000180022660     LIBCMT:initializers.obj
 0002:00000668       __xi_a                     0000000180022668     LIBCMT:initializers.obj
 0002:00000678       __acrt_stdio_initializer   0000000180022678     libucrt:stdio_initializer.obj
 0002:00000680       __acrt_multibyte_initializer 0000000180022680     libucrt:multibyte_initializer.obj
 0002:00000688       __acrt_tran_fma3_initializer 0000000180022688     libucrt:fma3_initializer.obj
 0002:00000690       __xi_z                     0000000180022690     LIBCMT:initializers.obj
 0002:00000698       __xl_a                     0000000180022698     LIBCMT:tlssup.obj
 0002:000006a0       __xl_z                     00000001800226a0     LIBCMT:tlssup.obj
 0002:000006a8       __xp_a                     00000001800226a8     LIBCMT:initializers.obj
 0002:000006b0       __acrt_locale_terminator   00000001800226b0     libucrt:locale_initializer.obj
 0002:000006b8       __dcrt_console_output_terminator 00000001800226b8     libucrt:console_output_initializer.obj
 0002:000006c0       __acrt_stdio_terminator    00000001800226c0     libucrt:stdio_initializer.obj
 0002:000006c8       __xp_z                     00000001800226c8     LIBCMT:initializers.obj
 0002:000006d0       __xt_a                     00000001800226d0     LIBCMT:initializers.obj
 0002:000006d8       __xt_z                     00000001800226d8     LIBCMT:initializers.obj
 0002:000006e0       ??_C@_13HADIAKP@?$AAS@     00000001800226e0     OposVariant.obj
 0002:000006e4       ??_C@_13LHMFKAAD@?$AAM@    00000001800226e4     OposVariant.obj
 0002:000006e8       ??_C@_13MKMNOPIJ@?$AAD@    00000001800226e8     OposVariant.obj
 0002:000006ec       ??_C@_13OPKGLAFF@?$AAB@    00000001800226ec     OposVariant.obj
 0002:000006f0       ??_C@_17LLMMEOJD@?$AAV?$AAa?$AAl@ 00000001800226f0     OposVariant.obj
 0002:000006f8       ??_C@_1BI@JFAIJMHL@?$AAF?$AAo?$AAr?$AAc?$AAe?$AAR?$AAe?$AAm?$AAo?$AAv?$AAe@ 00000001800226f8     OposVariant.obj
 0002:00000710       ??_C@_1BC@GCKHIPE@?$AAN?$AAo?$AAR?$AAe?$AAm?$AAo?$AAv?$AAe@ 0000000180022710     OposVariant.obj
 0002:00000728       ??_C@_1O@JDLOHAN@?$AAD?$AAe?$AAl?$AAe?$AAt?$AAe@ 0000000180022728     OposVariant.obj
 0002:00000738       ??_C@_11LOCGONAA@@         0000000180022738     OposVariant.obj
 0002:00000740       ??_7?$CComObjectCached@VCComClassFactory@ATL@@@ATL@@6B@ 0000000180022740     RemoteOrderDisplay.obj
 0002:00000770       ??_C@_1M@PPPPCDEP@?$AAA?$AAP?$AAP?$AAI?$AAD@ 0000000180022770     RemoteOrderDisplay.obj
 0002:00000780       ??_7?$CComContainedObject@VCOPOSRemoteOrderDisplay@@@ATL@@6B?$IDispatchImpl@UIOPOSRemoteOrderDisplay@@$1?IID_IOPOSRemoteOrderDisplay@@3U_GUID@@B$1?LIBID_OposRemoteOrderDisplay_CCO@@3U3@B$00$0A@VCComTypeInfoHolder@ATL@@@1@@ 0000000180022780     RemoteOrderDisplay.obj
 0002:00000ad8       ??_7?$CComContainedObject@VCOPOSRemoteOrderDisplay@@@ATL@@6BCComControlBase@1@@ 0000000180022ad8     RemoteOrderDisplay.obj
 0002:00000b00       ??_7?$CComContainedObject@VCOPOSRemoteOrderDisplay@@@ATL@@6B?$CWindowImpl@VCOPOSRemoteOrderDisplay@@VCWindow@ATL@@V?$CWinTraits@$0FGAAAAAA@$0A@@3@@1@@ 0000000180022b00     RemoteOrderDisplay.obj
 0002:00000b20       ??_7?$CComContainedObject@VCOPOSRemoteOrderDisplay@@@ATL@@6B?$IPersistStreamInitImpl@VCOPOSRemoteOrderDisplay@@@1@@ 0000000180022b20     RemoteOrderDisplay.obj
 0002:00000b68       ??_7?$CComContainedObject@VCOPOSRemoteOrderDisplay@@@ATL@@6B?$IOleControlImpl@VCOPOSRemoteOrderDisplay@@@1@@ 0000000180022b68     RemoteOrderDisplay.obj
 0002:00000ba0       ??_7?$CComContainedObject@VCOPOSRemoteOrderDisplay@@@ATL@@6B?$IOleObjectImpl@VCOPOSRemoteOrderDisplay@@@1@@ 0000000180022ba0     RemoteOrderDisplay.obj
 0002:00000c60       ??_7?$CComContainedObject@VCOPOSRemoteOrderDisplay@@@ATL@@6B?$IOleInPlaceActiveObjectImpl@VCOPOSRemoteOrderDisplay@@@1@@ 0000000180022c60     RemoteOrderDisplay.obj
 0002:00000cb0       ??_7?$CComContainedObject@VCOPOSRemoteOrderDisplay@@@ATL@@6B?$IViewObjectExImpl@VCOPOSRemoteOrderDisplay@@@1@@ 0000000180022cb0     RemoteOrderDisplay.obj
 0002:00000d28       ??_7?$CComContainedObject@VCOPOSRemoteOrderDisplay@@@ATL@@6B?$IOleInPlaceObjectWindowlessImpl@VCOPOSRemoteOrderDisplay@@@1@@ 0000000180022d28     RemoteOrderDisplay.obj
 0002:00000d80       ??_7?$CComContainedObject@VCOPOSRemoteOrderDisplay@@@ATL@@6B?$IConnectionPointContainerImpl@VCOPOSRemoteOrderDisplay@@@1@@ 0000000180022d80     RemoteOrderDisplay.obj
 0002:00000da8       ??_7?$CComContainedObject@VCOPOSRemoteOrderDisplay@@@ATL@@6B?$IPersistStorageImpl@VCOPOSRemoteOrderDisplay@@@1@@ 0000000180022da8     RemoteOrderDisplay.obj
 0002:00000df8       ??_7?$CComContainedObject@VCOPOSRemoteOrderDisplay@@@ATL@@6B?$ISpecifyPropertyPagesImpl@VCOPOSRemoteOrderDisplay@@@1@@ 0000000180022df8     RemoteOrderDisplay.obj
 0002:00000e18       ??_7?$CComContainedObject@VCOPOSRemoteOrderDisplay@@@ATL@@6B?$IQuickActivateImpl@VCOPOSRemoteOrderDisplay@@@1@@ 0000000180022e18     RemoteOrderDisplay.obj
 0002:00000e48       ??_7?$CComContainedObject@VCOPOSRemoteOrderDisplay@@@ATL@@6B?$IDataObjectImpl@VCOPOSRemoteOrderDisplay@@@1@@ 0000000180022e48     RemoteOrderDisplay.obj
 0002:00000ea8       ??_7?$CComContainedObject@VCOPOSRemoteOrderDisplay@@@ATL@@6B?$IProvideClassInfo2Impl@$1?CLSID_OPOSRemoteOrderDisplay@@3U_GUID@@B$1?DIID__IOPOSRemoteOrderDisplayEvents@@3U2@B$1?LIBID_OposRemoteOrderDisplay_CCO@@3U2@B$00$0A@VCComTypeInfoHolder@ATL@@@1@@ 0000000180022ea8     RemoteOrderDisplay.obj
 0002:00000ed0       ??_7?$CComContainedObject@VCOPOSRemoteOrderDisplay@@@ATL@@6B?$IObjectSafetyImpl@VCOPOSRemoteOrderDisplay@@$02@1@@ 0000000180022ed0     RemoteOrderDisplay.obj
 0002:00000f00       ??_7?$CComContainedObject@VCOPOSRemoteOrderDisplay@@@ATL@@6B?$IPropertyNotifySinkCP@VCOPOSRemoteOrderDisplay@@VCComDynamicUnkArray@ATL@@@1@@ 0000000180022f00     RemoteOrderDisplay.obj
 0002:00000f40       ??_7?$CComContainedObject@VCOPOSRemoteOrderDisplay@@@ATL@@6B?$CProxy_IOPOSEvents@VCOPOSRemoteOrderDisplay@@@@@ 0000000180022f40     RemoteOrderDisplay.obj
 0002:00000f80       ??_7?$CComAggObject@VCOPOSRemoteOrderDisplay@@@ATL@@6B@ 0000000180022f80     RemoteOrderDisplay.obj
 0002:00000fa0       ??_7?$CComObject@VCOPOSRemoteOrderDisplay@@@ATL@@6B?$IDispatchImpl@UIOPOSRemoteOrderDisplay@@$1?IID_IOPOSRemoteOrderDisplay@@3U_GUID@@B$1?LIBID_OposRemoteOrderDisplay_CCO@@3U3@B$00$0A@VCComTypeInfoHolder@ATL@@@1@@ 0000000180022fa0     RemoteOrderDisplay.obj
 0002:000012f8       ??_7?$CComObject@VCOPOSRemoteOrderDisplay@@@ATL@@6BCComControlBase@1@@ 00000001800232f8     RemoteOrderDisplay.obj
 0002:00001320       ??_7?$CComObject@VCOPOSRemoteOrderDisplay@@@ATL@@6B?$CWindowImpl@VCOPOSRemoteOrderDisplay@@VCWindow@ATL@@V?$CWinTraits@$0FGAAAAAA@$0A@@3@@1@@ 0000000180023320     RemoteOrderDisplay.obj
 0002:00001340       ??_7?$CComObject@VCOPOSRemoteOrderDisplay@@@ATL@@6B?$IPersistStreamInitImpl@VCOPOSRemoteOrderDisplay@@@1@@ 0000000180023340     RemoteOrderDisplay.obj
 0002:00001388       ??_7?$CComObject@VCOPOSRemoteOrderDisplay@@@ATL@@6B?$IOleControlImpl@VCOPOSRemoteOrderDisplay@@@1@@ 0000000180023388     RemoteOrderDisplay.obj
 0002:000013c0       ??_7?$CComObject@VCOPOSRemoteOrderDisplay@@@ATL@@6B?$IOleObjectImpl@VCOPOSRemoteOrderDisplay@@@1@@ 00000001800233c0     RemoteOrderDisplay.obj
 0002:00001480       ??_7?$CComObject@VCOPOSRemoteOrderDisplay@@@ATL@@6B?$IOleInPlaceActiveObjectImpl@VCOPOSRemoteOrderDisplay@@@1@@ 0000000180023480     RemoteOrderDisplay.obj
 0002:000014d0       ??_7?$CComObject@VCOPOSRemoteOrderDisplay@@@ATL@@6B?$IViewObjectExImpl@VCOPOSRemoteOrderDisplay@@@1@@ 00000001800234d0     RemoteOrderDisplay.obj
 0002:00001548       ??_7?$CComObject@VCOPOSRemoteOrderDisplay@@@ATL@@6B?$IOleInPlaceObjectWindowlessImpl@VCOPOSRemoteOrderDisplay@@@1@@ 0000000180023548     RemoteOrderDisplay.obj
 0002:000015a0       ??_7?$CComObject@VCOPOSRemoteOrderDisplay@@@ATL@@6B?$IConnectionPointContainerImpl@VCOPOSRemoteOrderDisplay@@@1@@ 00000001800235a0     RemoteOrderDisplay.obj
 0002:000015c8       ??_7?$CComObject@VCOPOSRemoteOrderDisplay@@@ATL@@6B?$IPersistStorageImpl@VCOPOSRemoteOrderDisplay@@@1@@ 00000001800235c8     RemoteOrderDisplay.obj
 0002:00001618       ??_7?$CComObject@VCOPOSRemoteOrderDisplay@@@ATL@@6B?$ISpecifyPropertyPagesImpl@VCOPOSRemoteOrderDisplay@@@1@@ 0000000180023618     RemoteOrderDisplay.obj
 0002:00001638       ??_7?$CComObject@VCOPOSRemoteOrderDisplay@@@ATL@@6B?$IQuickActivateImpl@VCOPOSRemoteOrderDisplay@@@1@@ 0000000180023638     RemoteOrderDisplay.obj
 0002:00001668       ??_7?$CComObject@VCOPOSRemoteOrderDisplay@@@ATL@@6B?$IDataObjectImpl@VCOPOSRemoteOrderDisplay@@@1@@ 0000000180023668     RemoteOrderDisplay.obj
 0002:000016c8       ??_7?$CComObject@VCOPOSRemoteOrderDisplay@@@ATL@@6B?$IProvideClassInfo2Impl@$1?CLSID_OPOSRemoteOrderDisplay@@3U_GUID@@B$1?DIID__IOPOSRemoteOrderDisplayEvents@@3U2@B$1?LIBID_OposRemoteOrderDisplay_CCO@@3U2@B$00$0A@VCComTypeInfoHolder@ATL@@@1@@ 00000001800236c8     RemoteOrderDisplay.obj
 0002:000016f0       ??_7?$CComObject@VCOPOSRemoteOrderDisplay@@@ATL@@6B?$IObjectSafetyImpl@VCOPOSRemoteOrderDisplay@@$02@1@@ 00000001800236f0     RemoteOrderDisplay.obj
 0002:00001720       ??_7?$CComObject@VCOPOSRemoteOrderDisplay@@@ATL@@6B?$IPropertyNotifySinkCP@VCOPOSRemoteOrderDisplay@@VCComDynamicUnkArray@ATL@@@1@@ 0000000180023720     RemoteOrderDisplay.obj
 0002:00001760       ??_7?$CComObject@VCOPOSRemoteOrderDisplay@@@ATL@@6B?$CProxy_IOPOSEvents@VCOPOSRemoteOrderDisplay@@@@@ 0000000180023760     RemoteOrderDisplay.obj
 0002:000017a0       ??_C@_1O@GBFKGNEO@?$AAA?$AAT?$AAL?$AA?3?$AA?$CF?$AAp@ 00000001800237a0     RemoteOrderDisplay.obj
 0002:000017b0       ??_C@_1BA@PICGEGJB@?$AAD?$AAI?$AAS?$AAP?$AAL?$AAA?$AAY@ 00000001800237b0     RemoteOrderDisplay.obj
 0002:000017c0       _GUID_9bfbbc02_eff1_101a_84ed_00aa00341d07 00000001800237c0     RemoteOrderDisplay.obj
 0002:000017d0       ??_7CComClassFactory@ATL@@6B@ 00000001800237d0     RemoteOrderDisplay.obj
 0002:00001800       ?_entries@?1??_GetEntries@?$CComEnum@UIEnumConnectionPoints@@$1?_GUID_b196b285_bab4_101a_b69c_00aa00341d07@@3U__s_GUID@@BPEAUIConnectionPoint@@V?$_CopyInterface@UIConnectionPoint@@@ATL@@VCComSingleThreadModel@6@@ATL@@SAPEBU_ATL_INTMAP_ENTRY@3@XZ@4QBU43@B 0000000180023800     RemoteOrderDisplay.obj
 0002:00001830       ?_entries@?1??_GetEntries@CComClassFactory@ATL@@SAPEBU_ATL_INTMAP_ENTRY@3@XZ@4QBU43@B 0000000180023830     RemoteOrderDisplay.obj
 0002:00001860       _GUID_00000001_0000_0000_c000_000000000046 0000000180023860     RemoteOrderDisplay.obj
 0002:00001870       _GUID_00020412_0000_0000_c000_000000000046 0000000180023870     RemoteOrderDisplay.obj
 0002:00001880       _GUID_00020401_0000_0000_c000_000000000046 0000000180023880     RemoteOrderDisplay.obj
 0002:00001890       _GUID_55980ba0_35aa_11cf_b671_00aa004cd6d8 0000000180023890     RemoteOrderDisplay.obj
 0002:000018a0       _GUID_b196b28b_bab4_101a_b69c_00aa00341d07 00000001800238a0     RemoteOrderDisplay.obj
 0002:000018b0       ??_7?$CComObject@V?$CComEnum@UIEnumConnections@@$1?_GUID_b196b287_bab4_101a_b69c_00aa00341d07@@3U__s_GUID@@BUtagCONNECTDATA@@V?$_Copy@UtagCONNECTDATA@@@ATL@@VCComSingleThreadModel@6@@ATL@@@ATL@@6B@ 00000001800238b0     RemoteOrderDisplay.obj
 0002:000018f0       ??_C@_1BK@BIGILECK@?$AAA?$AAd?$AAv?$AAa?$AAp?$AAi?$AA3?$AA2?$AA?4?$AAd?$AAl?$AAl@ 00000001800238f0     RemoteOrderDisplay.obj
 0002:00001910       ??_C@_0BI@MNCFCPFK@RegCreateKeyTransactedW@ 0000000180023910     RemoteOrderDisplay.obj
 0002:00001928       _GUID_b196b287_bab4_101a_b69c_00aa00341d07 0000000180023928     RemoteOrderDisplay.obj
 0002:00001938       ?_entries@?1??_GetEntries@?$CComEnum@UIEnumConnections@@$1?_GUID_b196b287_bab4_101a_b69c_00aa00341d07@@3U__s_GUID@@BUtagCONNECTDATA@@V?$_Copy@UtagCONNECTDATA@@@ATL@@VCComSingleThreadModel@6@@ATL@@SAPEBU_ATL_INTMAP_ENTRY@3@XZ@4QBU43@B 0000000180023938     RemoteOrderDisplay.obj
 0002:00001968       _GUID_b196b285_bab4_101a_b69c_00aa00341d07 0000000180023968     RemoteOrderDisplay.obj
 0002:00001978       _GUID_a6bc3ac0_dbaa_11ce_9de3_00aa004bb851 0000000180023978     RemoteOrderDisplay.obj
 0002:00001988       _GUID_0000010c_0000_0000_c000_000000000046 0000000180023988     RemoteOrderDisplay.obj
 0002:00001998       _GUID_00000146_0000_0000_c000_000000000046 0000000180023998     RemoteOrderDisplay.obj
 0002:000019a8       IID_IOPOSRemoteOrderDisplay_1_5 00000001800239a8     RemoteOrderDisplay.obj
 0002:000019b8       IID_IOPOSRemoteOrderDisplay_1_7 00000001800239b8     RemoteOrderDisplay.obj
 0002:000019c8       IID_IOPOSRemoteOrderDisplay_1_8 00000001800239c8     RemoteOrderDisplay.obj
 0002:000019d8       IID_IOPOSRemoteOrderDisplay_1_9 00000001800239d8     RemoteOrderDisplay.obj
 0002:000019e8       IID_IOPOSRemoteOrderDisplay 00000001800239e8     RemoteOrderDisplay.obj
 0002:000019f8       LIBID_OposRemoteOrderDisplay_CCO 00000001800239f8     RemoteOrderDisplay.obj
 0002:00001a08       DIID__IOPOSRemoteOrderDisplayEvents 0000000180023a08     RemoteOrderDisplay.obj
 0002:00001a18       CLSID_OPOSRemoteOrderDisplay 0000000180023a18     RemoteOrderDisplay.obj
 0002:00001a28       ??_7CComModule@ATL@@6B@    0000000180023a28     RemoteOrderDisplay.obj
 0002:00001a78       _GUID_00000114_0000_0000_c000_000000000046 0000000180023a78     RemoteOrderDisplay.obj
 0002:00001a88       _GUID_00000000_0000_0000_c000_000000000046 0000000180023a88     RemoteOrderDisplay.obj
 0002:00001a98       _GUID_00020400_0000_0000_c000_000000000046 0000000180023a98     RemoteOrderDisplay.obj
 0002:00001aa8       ??_C@_1M@KANJNLFF@?$AAC?$AAL?$AAS?$AAI?$AAD@ 0000000180023aa8     RemoteOrderDisplay.obj
 0002:00001ab8       ??_C@_1M@EJNEECMJ@?$AAA?$AAp?$AAp?$AAI?$AAD@ 0000000180023ab8     RemoteOrderDisplay.obj
 0002:00001ad0       ?rgszNeverDelete@CRegParser@ATL@@1QBQEB_WB 0000000180023ad0     RemoteOrderDisplay.obj
 0002:00001b30       ??_7CRegObject@ATL@@6B@    0000000180023b30     RemoteOrderDisplay.obj
 0002:00001b60       ?_entries@?1??_GetEntries@COPOSRemoteOrderDisplay@@SAPEBU_ATL_INTMAP_ENTRY@ATL@@XZ@4QBU34@B 0000000180023b60     RemoteOrderDisplay.obj
 0002:00001de8       ??_C@_1CK@OEKPKBNA@?$AAC?$AAo?$AAm?$AAp?$AAo?$AAn?$AAe?$AAn?$AAt?$AA?5?$AAC?$AAa?$AAt?$AAe?$AAg@ 0000000180023de8     RemoteOrderDisplay.obj
 0002:00001e18       ??_C@_1BC@NKMMNMGL@?$AAF?$AAi?$AAl?$AAe?$AAT?$AAy?$AAp?$AAe@ 0000000180023e18     RemoteOrderDisplay.obj
 0002:00001e30       ??_C@_1BE@EKPAFMCP@?$AAI?$AAn?$AAt?$AAe?$AAr?$AAf?$AAa?$AAc?$AAe@ 0000000180023e30     RemoteOrderDisplay.obj
 0002:00001e48       ??_C@_1BC@MAICEHGI@?$AAH?$AAa?$AAr?$AAd?$AAw?$AAa?$AAr?$AAe@ 0000000180023e48     RemoteOrderDisplay.obj
 0002:00001e60       _GUID_922eada0_3424_11cf_b670_00aa004cd6d8 0000000180023e60     RemoteOrderDisplay.obj
 0002:00001e70       ??_C@_19HLLLM@?$AAM?$AAi?$AAm?$AAe@ 0000000180023e70     RemoteOrderDisplay.obj
 0002:00001e80       ??_C@_17OMAOINJK@?$AAS?$AAA?$AAM@ 0000000180023e80     RemoteOrderDisplay.obj
 0002:00001e88       ??_C@_1BC@IBECJAAI@?$AAS?$AAE?$AAC?$AAU?$AAR?$AAI?$AAT?$AAY@ 0000000180023e88     RemoteOrderDisplay.obj
 0002:00001ea0       ??_C@_1O@GBFINDKL@?$AAS?$AAY?$AAS?$AAT?$AAE?$AAM@ 0000000180023ea0     RemoteOrderDisplay.obj
 0002:00001eb0       ??_C@_1BC@EAHCMADO@?$AAS?$AAo?$AAf?$AAt?$AAw?$AAa?$AAr?$AAe@ 0000000180023eb0     RemoteOrderDisplay.obj
 0002:00001ec8       _GUID_9c2cad80_3424_11cf_b670_00aa004cd6d8 0000000180023ec8     RemoteOrderDisplay.obj
 0002:00001ed8       ??_C@_1BA@JIHHIEDE@?$AAT?$AAy?$AAp?$AAe?$AAL?$AAi?$AAb@ 0000000180023ed8     RemoteOrderDisplay.obj
 0002:00001ee8       _GUID_00000119_0000_0000_c000_000000000046 0000000180023ee8     RemoteOrderDisplay.obj
 0002:00001ef8       _GUID_b196b289_bab4_101a_b69c_00aa00341d07 0000000180023ef8     RemoteOrderDisplay.obj
 0002:00001f10       ?map@?1??HKeyFromString@CRegParser@ATL@@KAPEAUHKEY__@@PEA_W@Z@4QBUkeymap@?1??123@KAPEAU4@0@Z@B 0000000180023f10     RemoteOrderDisplay.obj
 0002:00001ff0       _GUID_cf51ed10_62fe_11cf_bf86_00a0c9034836 0000000180023ff0     RemoteOrderDisplay.obj
 0002:00002000       _GUID_0000010a_0000_0000_c000_000000000046 0000000180024000     RemoteOrderDisplay.obj
 0002:00002010       ??_C@_19NCHLBIN@?$AAH?$AAK?$AAC?$AAR@ 0000000180024010     RemoteOrderDisplay.obj
 0002:00002020       ??_C@_19JAPAIJDE@?$AAH?$AAK?$AAC?$AAU@ 0000000180024020     RemoteOrderDisplay.obj
 0002:00002030       ??_C@_19PEALEEJB@?$AAH?$AAK?$AAL?$AAM@ 0000000180024030     RemoteOrderDisplay.obj
 0002:00002040       _GUID_b196b283_bab4_101a_b69c_00aa00341d07 0000000180024040     RemoteOrderDisplay.obj
 0002:00002050       ??_C@_17PJOJPMPB@?$AAH?$AAK?$AAU@ 0000000180024050     RemoteOrderDisplay.obj
 0002:00002058       ??_C@_19PNBHMJPL@?$AAH?$AAK?$AAP?$AAD@ 0000000180024058     RemoteOrderDisplay.obj
 0002:00002068       ??_C@_19GFFAIJHG@?$AAH?$AAK?$AAD?$AAD@ 0000000180024068     RemoteOrderDisplay.obj
 0002:00002078       ??_C@_19OFICIBHH@?$AAH?$AAK?$AAC?$AAC@ 0000000180024078     RemoteOrderDisplay.obj
 0002:00002088       ??_C@_1CE@PACHPJFI@?$AAH?$AAK?$AAE?$AAY?$AA_?$AAC?$AAL?$AAA?$AAS?$AAS?$AAE?$AAS?$AA_?$AAR?$AAO@ 0000000180024088     RemoteOrderDisplay.obj
 0002:000020b0       ??_C@_1CE@HLHNCBPM@?$AAH?$AAK?$AAE?$AAY?$AA_?$AAC?$AAU?$AAR?$AAR?$AAE?$AAN?$AAT?$AA_?$AAU?$AAS@ 00000001800240b0     RemoteOrderDisplay.obj
 0002:000020d8       ??_C@_1CG@GFBEANJL@?$AAH?$AAK?$AAE?$AAY?$AA_?$AAL?$AAO?$AAC?$AAA?$AAL?$AA_?$AAM?$AAA?$AAC?$AAH@ 00000001800240d8     RemoteOrderDisplay.obj
 0002:00002100       ??_C@_1BG@BGODANIO@?$AAH?$AAK?$AAE?$AAY?$AA_?$AAU?$AAS?$AAE?$AAR?$AAS@ 0000000180024100     RemoteOrderDisplay.obj
 0002:00002118       ??_C@_1CM@KHNNAOIC@?$AAH?$AAK?$AAE?$AAY?$AA_?$AAP?$AAE?$AAR?$AAF?$AAO?$AAR?$AAM?$AAA?$AAN?$AAC@ 0000000180024118     RemoteOrderDisplay.obj
 0002:00002148       _GUID_cb5bdc81_93c1_11cf_8f20_00805f2cd064 0000000180024148     RemoteOrderDisplay.obj
 0002:00002158       ??_C@_1BM@HAGMMHIA@?$AAH?$AAK?$AAE?$AAY?$AA_?$AAD?$AAY?$AAN?$AA_?$AAD?$AAA?$AAT?$AAA@ 0000000180024158     RemoteOrderDisplay.obj
 0002:00002178       ??_C@_1CI@BBJOACGG@?$AAH?$AAK?$AAE?$AAY?$AA_?$AAC?$AAU?$AAR?$AAR?$AAE?$AAN?$AAT?$AA_?$AAC?$AAO@ 0000000180024178     RemoteOrderDisplay.obj
 0002:000021a0       ?pPropMap@?1??GetPropertyMap@COPOSRemoteOrderDisplay@@SAPEBUATL_PROPMAP_ENTRY@ATL@@XZ@4QBU34@B 00000001800241a0     RemoteOrderDisplay.obj
 0002:00002248       ??_C@_17DGDADEHL@?$AA_?$AAc?$AAx@ 0000000180024248     RemoteOrderDisplay.obj
 0002:00002250       ??_C@_17IOIMFDBO@?$AA_?$AAc?$AAy@ 0000000180024250     RemoteOrderDisplay.obj
 0002:00002258       _GUID_00000117_0000_0000_c000_000000000046 0000000180024258     RemoteOrderDisplay.obj
 0002:00002268       _GUID_00000109_0000_0000_c000_000000000046 0000000180024268     RemoteOrderDisplay.obj
 0002:00002278       _GUID_7fd52380_4e07_101b_ae2d_08002b2ec713 0000000180024278     RemoteOrderDisplay.obj
 0002:00002288       _GUID_b196b286_bab4_101a_b69c_00aa00341d07 0000000180024288     RemoteOrderDisplay.obj
 0002:00002298       ??_C@_1CE@PGFMOFKI@?$AAS?$AAt?$AAa?$AAt?$AAu?$AAs?$AAU?$AAp?$AAd?$AAa?$AAt?$AAe?$AAE?$AAv?$AAe@ 0000000180024298     RemoteOrderDisplay.obj
 0002:000022c0       ??_C@_1CI@HLBJDONE@?$AAO?$AAu?$AAt?$AAp?$AAu?$AAt?$AAC?$AAo?$AAm?$AAp?$AAl?$AAe?$AAt?$AAe?$AAE@ 00000001800242c0     RemoteOrderDisplay.obj
 0002:000022e8       ??_C@_1BG@LODEBHDD@?$AAE?$AAr?$AAr?$AAo?$AAr?$AAE?$AAv?$AAe?$AAn?$AAt@ 00000001800242e8     RemoteOrderDisplay.obj
 0002:00002300       ??_C@_1EA@NHKLICFA@?$AAH?$AAK?$AAC?$AAU?$AA?$AN?$AA?6?$AA?$HL?$AA?7?$AAS?$AAo?$AAf?$AAt?$AAw?$AAa?$AAr@ 0000000180024300     RemoteOrderDisplay.obj
 0002:00002340       ??_C@_1BE@LJOLIMEM@?$AA?$AN?$AA?6?$AA?7?$AA?$HN?$AA?$AN?$AA?6?$AA?$HN?$AA?$AN?$AA?6@ 0000000180024340     RemoteOrderDisplay.obj
 0002:00002358       ??_C@_1BM@CBGEBBBJ@?$AAD?$AAi?$AAr?$AAe?$AAc?$AAt?$AAI?$AAO?$AAE?$AAv?$AAe?$AAn?$AAt@ 0000000180024358     RemoteOrderDisplay.obj
 0002:00002378       ??_C@_1BE@IEBMACEM@?$AAD?$AAa?$AAt?$AAa?$AAE?$AAv?$AAe?$AAn?$AAt@ 0000000180024378     RemoteOrderDisplay.obj
 0002:00002390       ??_C@_1BC@ENICKDH@?$AAC?$AAo?$AAn?$AAt?$AAe?$AAn?$AAt?$AAs@ 0000000180024390     RemoteOrderDisplay.obj
 0002:000023a8       ??_C@_1O@MNLDABAF@?$AAM?$AAo?$AAd?$AAu?$AAl?$AAe@ 00000001800243a8     RemoteOrderDisplay.obj
 0002:000023b8       ??_C@_1BG@JBACFMF@?$AAM?$AAo?$AAd?$AAu?$AAl?$AAe?$AA_?$AAR?$AAa?$AAw@ 00000001800243b8     RemoteOrderDisplay.obj
 0002:000023d0       ??_C@_1BC@KAILKFFG@?$AAR?$AAE?$AAG?$AAI?$AAS?$AAT?$AAR?$AAY@ 00000001800243d0     RemoteOrderDisplay.obj
 0002:000023e8       ??_7?$CComObject@V?$CComEnum@UIEnumConnectionPoints@@$1?_GUID_b196b285_bab4_101a_b69c_00aa00341d07@@3U__s_GUID@@BPEAUIConnectionPoint@@V?$_CopyInterface@UIConnectionPoint@@@ATL@@VCComSingleThreadModel@6@@ATL@@@ATL@@6B@ 00000001800243e8     RemoteOrderDisplay.obj
 0002:00002428       _GUID_0000010e_0000_0000_c000_000000000046 0000000180024428     RemoteOrderDisplay.obj
 0002:00002438       _GUID_b196b288_bab4_101a_b69c_00aa00341d07 0000000180024438     RemoteOrderDisplay.obj
 0002:00002448       _GUID_00000113_0000_0000_c000_000000000046 0000000180024448     RemoteOrderDisplay.obj
 0002:00002458       _GUID_1c2056cc_5ef4_101b_8bc8_00aa003e3b29 0000000180024458     RemoteOrderDisplay.obj
 0002:00002468       _GUID_b196b284_bab4_101a_b69c_00aa00341d07 0000000180024468     RemoteOrderDisplay.obj
 0002:00002478       _GUID_00000112_0000_0000_c000_000000000046 0000000180024478     RemoteOrderDisplay.obj
 0002:00002488       _GUID_3af24292_0c96_11ce_a0cf_00aa00600ab8 0000000180024488     RemoteOrderDisplay.obj
 0002:00002498       _GUID_00000127_0000_0000_c000_000000000046 0000000180024498     RemoteOrderDisplay.obj
 0002:000024a8       _GUID_0000010d_0000_0000_c000_000000000046 00000001800244a8     RemoteOrderDisplay.obj
 0002:000024b8       ??_C@_0BG@EKFFMJIO@RegOpenKeyTransactedW@ 00000001800244b8     RemoteOrderDisplay.obj
 0002:000024d0       ??_C@_0BI@HAKLOOGP@RegDeleteKeyTransactedW@ 00000001800244d0     RemoteOrderDisplay.obj
 0002:000024e8       ??_C@_0BA@LILAPHGE@RegDeleteKeyExW@ 00000001800244e8     RemoteOrderDisplay.obj
 0002:000024f8       ??_C@_19ILOCMLCJ@?$AA?4?$AAt?$AAl?$AAb@ 00000001800244f8     RemoteOrderDisplay.obj
 0002:00002508       _GUID_0002e012_0000_0000_c000_000000000046 0000000180024508     RemoteOrderDisplay.obj
 0002:00002518       ??_C@_1O@FHBGLCIO@?$AAC?$AAL?$AAS?$AAI?$AAD?$AA?2@ 0000000180024518     RemoteOrderDisplay.obj
 0002:00002528       ??_C@_1CK@IFBKBFAA@?$AA?2?$AAR?$AAe?$AAq?$AAu?$AAi?$AAr?$AAe?$AAd?$AA?5?$AAC?$AAa?$AAt?$AAe?$AAg@ 0000000180024528     RemoteOrderDisplay.obj
 0002:00002558       ??_C@_1DA@BIHALFED@?$AA?2?$AAI?$AAm?$AAp?$AAl?$AAe?$AAm?$AAe?$AAn?$AAt?$AAe?$AAd?$AA?5?$AAC?$AAa@ 0000000180024558     RemoteOrderDisplay.obj
 0002:00002588       ??_C@_1BK@EDKOLFBJ@?$AAO?$AAL?$AAE?$AAA?$AAU?$AAT?$AA3?$AA2?$AA?4?$AAD?$AAL?$AAL@ 0000000180024588     RemoteOrderDisplay.obj
 0002:000025a8       ??_C@_0BJ@CNLFOMHB@UnRegisterTypeLibForUser@ 00000001800245a8     RemoteOrderDisplay.obj
 0002:000025c8       ??_C@_0BH@LBOMMKPJ@RegisterTypeLibForUser@ 00000001800245c8     RemoteOrderDisplay.obj
 0002:000025e0       ??_C@_0P@MMNMMLGK@COFreezeEvents@ 00000001800245e0     RemoteOrderDisplayImpl.obj
 0002:000025f0       ??_C@_0BC@OGCGGIMP@GetPropertyNumber@ 00000001800245f0     RemoteOrderDisplayImpl.obj
 0002:00002608       ??_C@_0BC@MDCNODNB@SetPropertyNumber@ 0000000180024608     RemoteOrderDisplayImpl.obj
 0002:00002620       ??_C@_0BC@CFCCMIMD@GetPropertyString@ 0000000180024620     RemoteOrderDisplayImpl.obj
 0002:00002638       ??_C@_0BC@CJEDNN@SetPropertyString@ 0000000180024638     RemoteOrderDisplayImpl.obj
 0002:00002650       ??_C@_0M@LNPKKKDA@OpenService@ 0000000180024650     RemoteOrderDisplayImpl.obj
 0002:00002660       ??_C@_0M@PCMCHHMH@CheckHealth@ 0000000180024660     RemoteOrderDisplayImpl.obj
 0002:00002670       ??_C@_0M@JGMIDNEK@ClaimDevice@ 0000000180024670     RemoteOrderDisplayImpl.obj
 0002:00002680       ??_C@_0L@BNEIFEJC@ClearInput@ 0000000180024680     RemoteOrderDisplayImpl.obj
 0002:00002690       ??_C@_0M@JMBCPNGJ@ClearOutput@ 0000000180024690     RemoteOrderDisplayImpl.obj
 0002:000026a0       ??_C@_0N@DDFIIBMP@CloseService@ 00000001800246a0     RemoteOrderDisplayImpl.obj
 0002:000026b0       ??_C@_08EEIHICPC@DirectIO@ 00000001800246b0     RemoteOrderDisplayImpl.obj
 0002:000026c0       ??_C@_0O@BCPMENMJ@ReleaseDevice@ 00000001800246c0     RemoteOrderDisplayImpl.obj
 0002:000026d0       ??_C@_0L@DHIDJAOO@ClearVideo@ 00000001800246d0     RemoteOrderDisplayImpl.obj
 0002:000026e0       ??_C@_0BB@BKDKAILF@ClearVideoRegion@ 00000001800246e0     RemoteOrderDisplayImpl.obj
 0002:000026f8       ??_C@_0N@LGFBJCKG@ControlClock@ 00000001800246f8     RemoteOrderDisplayImpl.obj
 0002:00002708       ??_C@_0O@MJLDLDBI@ControlCursor@ 0000000180024708     RemoteOrderDisplayImpl.obj
 0002:00002718       ??_C@_0BA@NDBMIPMF@CopyVideoRegion@ 0000000180024718     RemoteOrderDisplayImpl.obj
 0002:00002728       ??_C@_0M@PGFELKMF@DisplayData@ 0000000180024728     RemoteOrderDisplayImpl.obj
 0002:00002738       ??_C@_07FBNHCCPG@DrawBox@  0000000180024738     RemoteOrderDisplayImpl.obj
 0002:00002740       ??_C@_0BA@NNIFPCLA@FreeVideoRegion@ 0000000180024740     RemoteOrderDisplayImpl.obj
 0002:00002750       ??_C@_0L@JMKOKABE@ResetVideo@ 0000000180024750     RemoteOrderDisplayImpl.obj
 0002:00002760       ??_C@_0BD@DIHMIGHG@RestoreVideoRegion@ 0000000180024760     RemoteOrderDisplayImpl.obj
 0002:00002778       ??_C@_0BA@ODHPNLJ@SaveVideoRegion@ 0000000180024778     RemoteOrderDisplayImpl.obj
 0002:00002788       ??_C@_0BD@JJMHLHNM@SelectCharacterSet@ 0000000180024788     RemoteOrderDisplayImpl.obj
 0002:000027a0       ??_C@_09PKKOCJGB@SetCursor@ 00000001800247a0     RemoteOrderDisplayImpl.obj
 0002:000027b0       ??_C@_0BD@LPDOPKIP@TransactionDisplay@ 00000001800247b0     RemoteOrderDisplayImpl.obj
 0002:000027c8       ??_C@_0BL@KJCKLOMA@UpdateVideoRegionAttribute@ 00000001800247c8     RemoteOrderDisplayImpl.obj
 0002:000027e8       ??_C@_0L@EDLKLGFH@VideoSound@ 00000001800247e8     RemoteOrderDisplayImpl.obj
 0002:000027f8       ??_C@_0BA@GFABKEEE@ResetStatistics@ 00000001800247f8     RemoteOrderDisplayImpl.obj
 0002:00002808       ??_C@_0BD@DPALHJGC@RetrieveStatistics@ 0000000180024808     RemoteOrderDisplayImpl.obj
 0002:00002820       ??_C@_0BB@KOHIKNFC@UpdateStatistics@ 0000000180024820     RemoteOrderDisplayImpl.obj
 0002:00002838       ??_C@_0BH@PBKBNMGB@CompareFirmwareVersion@ 0000000180024838     RemoteOrderDisplayImpl.obj
 0002:00002850       ??_C@_0P@FBPDPIPA@UpdateFirmware@ 0000000180024850     RemoteOrderDisplayImpl.obj
 0002:00002860       ??_7?$CProxy_IOPOSEvents@VCOPOSRemoteOrderDisplay@@@@6B@ 0000000180024860     RemoteOrderDisplayImpl.obj
 0002:000028a0       ??_C@_1BA@IFHENID@?$AA?$FL?$AAE?$AAr?$AAr?$AAo?$AAr?$AA?$FN@ 00000001800248a0     RemoteOrderDisplayImpl.obj
 0002:000028b0       ??_C@_0DF@MMEIEIAP@SOFTWARE?2OLEforRetail?2ServiceOP@ 00000001800248b0     RemoteOrderDisplayImpl.obj
 0002:000028e8       ??_C@_1M@IAIJHCCH@?$AAC?$AAl?$AAo?$AAs?$AAe@ 00000001800248e8     RemoteOrderDisplayImpl.obj
 0002:000028f8       ??_C@_1M@PCPKGJAH@?$AAC?$AAl?$AAa?$AAi?$AAm@ 00000001800248f8     RemoteOrderDisplayImpl.obj
 0002:00002908       ??_C@_1BA@NDFKIOCP@?$AAR?$AAe?$AAl?$AAe?$AAa?$AAs?$AAe@ 0000000180024908     RemoteOrderDisplayImpl.obj
 0002:00002918       ??_C@_0BD@EAJOFGE@RemoteOrderDisplay@ 0000000180024918     RemoteOrderDisplayImpl.obj
 0002:00002930       ??_C@_1BM@IJMNMBPK@?$AAG?$AAe?$AAt?$AAO?$AAp?$AAe?$AAn?$AAR?$AAe?$AAs?$AAu?$AAl?$AAt@ 0000000180024930     RemoteOrderDisplayImpl.obj
 0002:00002950       IID_IPropertyNotifySink    0000000180024950     uuid:ocidl_i.obj
 0002:00002960       IID_IDispatch              0000000180024960     uuid:oaidl_i.obj
 0002:00002970       GUID_NULL                  0000000180024970     uuid:cguid_i.obj
 0002:00002980       CLSID_StdGlobalInterfaceTable 0000000180024980     uuid:cguid_i.obj
 0002:00002990       CLSID_StdComponentCategoriesMgr 0000000180024990     uuid:ieguids.obj
 0002:000029a0       IID_IUnknown               00000001800249a0     uuid:unknwn_i.obj
 0002:000029e0       ??_C@_1EC@JIJBPKFM@?$AAa?$AAp?$AAi?$AA?9?$AAm?$AAs?$AA?9?$AAw?$AAi?$AAn?$AA?9?$AAc?$AAo?$AAr?$AAe@ 00000001800249e0     LIBCMT:thread_safe_statics.obj
 0002:00002a28       ??_C@_1BK@MGMFAEKH@?$AAk?$AAe?$AAr?$AAn?$AAe?$AAl?$AA3?$AA2?$AA?4?$AAd?$AAl?$AAl@ 0000000180024a28     LIBCMT:thread_safe_statics.obj
 0002:00002a48       ??_C@_0BM@HLJJNPAH@InitializeConditionVariable@ 0000000180024a48     LIBCMT:thread_safe_statics.obj
 0002:00002a68       ??_C@_0BJ@JEBJOJFJ@SleepConditionVariableCS@ 0000000180024a68     LIBCMT:thread_safe_statics.obj
 0002:00002a88       ??_C@_0BJ@PGPPEPCC@WakeAllConditionVariable@ 0000000180024a88     LIBCMT:thread_safe_statics.obj
 0002:00002aa1       ?nothrow@std@@3Unothrow_t@1@B 0000000180024aa1     LIBCMT:std_nothrow.obj
 0002:00002ae0       _pDefaultRawDllMain        0000000180024ae0     LIBCMT:dll_dllmain.obj
 0002:00002ae0       _pRawDllMain               0000000180024ae0     LIBCMT:dll_dllmain.obj
 0002:00002af0       ??_7exception@std@@6B@     0000000180024af0     LIBCMT:throw_bad_alloc.obj
 0002:00002b00       ??_C@_0BC@EOODALEL@Unknown?5exception@ 0000000180024b00     LIBCMT:throw_bad_alloc.obj
 0002:00002b20       ??_7bad_alloc@std@@6B@     0000000180024b20     LIBCMT:throw_bad_alloc.obj
 0002:00002b30       ??_C@_0P@GHFPNOJB@bad?5allocation@ 0000000180024b30     LIBCMT:throw_bad_alloc.obj
 0002:00002b48       ??_7bad_array_new_length@std@@6B@ 0000000180024b48     LIBCMT:throw_bad_alloc.obj
 0002:00002b58       ??_C@_0BF@KINCDENJ@bad?5array?5new?5length@ 0000000180024b58     LIBCMT:throw_bad_alloc.obj
 0002:00002b78       ??_7type_info@@6B@         0000000180024b78     LIBCMT:std_type_info_static.obj
 0002:00002b80       GUID_ATLVer110             0000000180024b80     atls:atlbase.obj
 0002:00002b90       ??_C@_1IC@ONKHOIDK@?$AAE?$AAR?$AAR?$AAO?$AAR?$AA?5?$AA?3?$AA?5?$AAU?$AAn?$AAa?$AAb?$AAl?$AAe?$AA?5@ 0000000180024b90     atls:atlbase.obj
 0002:00002c18       ??_C@_0N@FJEPLCIH@atlthunk?4dll@ 0000000180024c18     atls:atlthunk.obj
 0002:00002c28       ??_C@_0BG@GAKFHCBM@AtlThunk_AllocateData@ 0000000180024c28     atls:atlthunk.obj
 0002:00002c40       ??_C@_0BC@JKONFIAH@AtlThunk_InitData@ 0000000180024c40     atls:atlthunk.obj
 0002:00002c58       ??_C@_0BE@IAOEELAK@AtlThunk_DataToCode@ 0000000180024c58     atls:atlthunk.obj
 0002:00002c70       ??_C@_0BC@GBGKAIPI@AtlThunk_FreeData@ 0000000180024c70     atls:atlthunk.obj
 0002:00002c88       _pDestructExceptionObject  0000000180024c88     libvcruntime:ehhelpers.obj
 0002:00002d88       ??_C@_1DM@KHCHBNEB@?$AAa?$AAp?$AAi?$AA?9?$AAm?$AAs?$AA?9?$AAw?$AAi?$AAn?$AA?9?$AAc?$AAo?$AAr?$AAe@ 0000000180024d88     libvcruntime:winapi_downlevel.obj
 0002:00002dc8       ??_C@_1DK@LPPGFMPP@?$AAa?$AAp?$AAi?$AA?9?$AAm?$AAs?$AA?9?$AAw?$AAi?$AAn?$AA?9?$AAc?$AAo?$AAr?$AAe@ 0000000180024dc8     libvcruntime:winapi_downlevel.obj
 0002:00002e08       ??_C@_1BC@GDMECMAK@?$AAk?$AAe?$AAr?$AAn?$AAe?$AAl?$AA3?$AA2@ 0000000180024e08     libvcruntime:winapi_downlevel.obj
 0002:00002e20       ??_C@_1BA@PFFKHIOG@?$AAa?$AAp?$AAi?$AA?9?$AAm?$AAs?$AA?9@ 0000000180024e20     libvcruntime:winapi_downlevel.obj
 0002:00002e30       ??_C@_1BA@IAIFMGEF@?$AAe?$AAx?$AAt?$AA?9?$AAm?$AAs?$AA?9@ 0000000180024e30     libvcruntime:winapi_downlevel.obj
 0002:00002e48       ??_C@_08KNHFBNJ@FlsAlloc@  0000000180024e48     libvcruntime:winapi_downlevel.obj
 0002:00002e60       ??_C@_07PEJMOBNF@FlsFree@  0000000180024e60     libvcruntime:winapi_downlevel.obj
 0002:00002e70       ??_C@_0M@GDNOONDI@FlsGetValue@ 0000000180024e70     libvcruntime:winapi_downlevel.obj
 0002:00002e88       ??_C@_0M@JCPCPOEF@FlsSetValue@ 0000000180024e88     libvcruntime:winapi_downlevel.obj
 0002:00002ea0       ??_C@_0BM@HCFOFFN@InitializeCriticalSectionEx@ 0000000180024ea0     libvcruntime:winapi_downlevel.obj
 0002:00002ec8       ??_7bad_exception@std@@6B@ 0000000180024ec8     libvcruntime:frame.obj
 0002:00002ed8       ??_C@_0O@DPKOEFFH@bad?5exception@ 0000000180024ed8     libvcruntime:frame.obj
 0002:00003228       ??_C@_08EHJDFFNH@__based?$CI@ 0000000180025228     libvcruntime:undname.obj
 0002:00003238       ??_C@_07KOLFKCDI@__cdecl@  0000000180025238     libvcruntime:undname.obj
 0002:00003240       ??_C@_08GHMPAG@__pascal@   0000000180025240     libvcruntime:undname.obj
 0002:00003250       ??_C@_09IFJBGAPI@__stdcall@ 0000000180025250     libvcruntime:undname.obj
 0002:00003260       ??_C@_0L@NPHFGOKO@__thiscall@ 0000000180025260     libvcruntime:undname.obj
 0002:00003270       ??_C@_0L@JMKHOMEK@__fastcall@ 0000000180025270     libvcruntime:undname.obj
 0002:00003280       ??_C@_0N@BCKKPABJ@__vectorcall@ 0000000180025280     libvcruntime:undname.obj
 0002:00003290       ??_C@_09HIJEGCPM@__clrcall@ 0000000180025290     libvcruntime:undname.obj
 0002:0000329c       ??_C@_06GHPCKEAG@__eabi@   000000018002529c     libvcruntime:undname.obj
 0002:000032a8       ??_C@_09IOPIDJLG@__swift_1@ 00000001800252a8     libvcruntime:undname.obj
 0002:000032b8       ??_C@_09KFNFGKHF@__swift_2@ 00000001800252b8     libvcruntime:undname.obj
 0002:000032c8       ??_C@_07JOMMBBKO@__ptr64@  00000001800252c8     libvcruntime:undname.obj
 0002:000032d0       ??_C@_0L@PILCLIHE@__restrict@ 00000001800252d0     libvcruntime:undname.obj
 0002:000032e0       ??_C@_0M@GFIIJFMG@__unaligned@ 00000001800252e0     libvcruntime:undname.obj
 0002:000032f0       ??_C@_09DHDLOLLB@restrict?$CI@ 00000001800252f0     libvcruntime:undname.obj
 0002:000032fa       ??_C@_00CNPNBAHC@@         00000001800252fa     libvcruntime:undname.obj
 0002:000032fc       ??_C@_04NIHEBCM@?5new@     00000001800252fc     libvcruntime:undname.obj
 0002:00003308       ??_C@_07FPCDHGMM@?5delete@ 0000000180025308     libvcruntime:undname.obj
 0002:00003310       ??_C@_01NEMOKFLO@?$DN@     0000000180025310     libvcruntime:undname.obj
 0002:00003314       ??_C@_02GPIOPFAK@?$DO?$DO@ 0000000180025314     libvcruntime:undname.obj
 0002:00003318       ??_C@_02FODMEDOG@?$DM?$DM@ 0000000180025318     libvcruntime:undname.obj
 0002:0000331c       ??_C@_01DCLJPIOD@?$CB@     000000018002531c     libvcruntime:undname.obj
 0002:00003320       ??_C@_02EGOFBIJA@?$DN?$DN@ 0000000180025320     libvcruntime:undname.obj
 0002:00003324       ??_C@_02FDNJECIE@?$CB?$DN@ 0000000180025324     libvcruntime:undname.obj
 0002:00003328       ??_C@_02GPECMEKF@?$FL?$FN@ 0000000180025328     libvcruntime:undname.obj
 0002:00003330       ??_C@_08LHJFAFGD@operator@ 0000000180025330     libvcruntime:undname.obj
 0002:0000333c       ??_C@_02HBOOOICD@?9?$DO@   000000018002533c     libvcruntime:undname.obj
 0002:00003340       ??_C@_01NBENCBCI@?$CK@     0000000180025340     libvcruntime:undname.obj
 0002:00003344       ??_C@_02ECNGHCIF@?$CL?$CL@ 0000000180025344     libvcruntime:undname.obj
 0002:00003348       ??_C@_02BAABKJLB@?9?9@     0000000180025348     libvcruntime:undname.obj
 0002:0000334c       ??_C@_01JOAMLHOP@?9@       000000018002534c     libvcruntime:undname.obj
 0002:00003350       ??_C@_01MIFGBAGJ@?$CL@     0000000180025350     libvcruntime:undname.obj
 0002:00003354       ??_C@_01HNPIGOCE@?$CG@     0000000180025354     libvcruntime:undname.obj
 0002:00003358       ??_C@_03MNHNFDLC@?9?$DO?$CK@ 0000000180025358     libvcruntime:undname.obj
 0002:0000335c       ??_C@_01KMDKNFGN@?1@       000000018002535c     libvcruntime:undname.obj
 0002:00003360       ??_C@_01FGNFDNOH@?$CF@     0000000180025360     libvcruntime:undname.obj
 0002:00003364       ??_C@_01MNNFJEPP@?$DM@     0000000180025364     libvcruntime:undname.obj
 0002:00003368       ??_C@_02EHCHHCKH@?$DM?$DN@ 0000000180025368     libvcruntime:undname.obj
 0002:0000336c       ??_C@_01PPODPGHN@?$DO@     000000018002536c     libvcruntime:undname.obj
 0002:00003370       ??_C@_02EEKDKGMJ@?$DO?$DN@ 0000000180025370     libvcruntime:undname.obj
 0002:00003374       ??_C@_01IHBHIGKO@?0@       0000000180025374     libvcruntime:undname.obj
 0002:00003378       ??_C@_02HCKGKOFO@?$CI?$CJ@ 0000000180025378     libvcruntime:undname.obj
 0002:0000337c       ??_C@_01PJKLJHI@?$HO@      000000018002537c     libvcruntime:undname.obj
 0002:00003380       ??_C@_01JKBOJNNK@?$FO@     0000000180025380     libvcruntime:undname.obj
 0002:00003384       ??_C@_01DNKMNLPK@?$HM@     0000000180025384     libvcruntime:undname.obj
 0002:00003388       ??_C@_02PPKAJPJL@?$CG?$CG@ 0000000180025388     libvcruntime:undname.obj
 0002:0000338c       ??_C@_02NONPIBCD@?$HM?$HM@ 000000018002538c     libvcruntime:undname.obj
 0002:00003390       ??_C@_02FPIMKNGF@?$CK?$DN@ 0000000180025390     libvcruntime:undname.obj
 0002:00003394       ??_C@_02FOEOMHFC@?$CL?$DN@ 0000000180025394     libvcruntime:undname.obj
 0002:00003398       ??_C@_02FKMDLLOA@?9?$DN@   0000000180025398     libvcruntime:undname.obj
 0002:0000339c       ??_C@_02FJEHGPIO@?1?$DN@   000000018002539c     libvcruntime:undname.obj
 0002:000033a0       ??_C@_02FENAOKFI@?$CF?$DN@ 00000001800253a0     libvcruntime:undname.obj
 0002:000033a4       ??_C@_03IKFCCPFF@?$DO?$DO?$DN@ 00000001800253a4     libvcruntime:undname.obj
 0002:000033a8       ??_C@_03CDNPDDLA@?$DM?$DM?$DN@ 00000001800253a8     libvcruntime:undname.obj
 0002:000033ac       ??_C@_02FGJGFEAB@?$CG?$DN@ 00000001800253ac     libvcruntime:undname.obj
 0002:000033b0       ??_C@_02DHLNPPGH@?$HM?$DN@ 00000001800253b0     libvcruntime:undname.obj
 0002:000033b4       ??_C@_02MHEGNOJ@?$FO?$DN@  00000001800253b4     libvcruntime:undname.obj
 0002:000033b8       ??_C@_09IFPLHPGF@?$GAvftable?8@ 00000001800253b8     libvcruntime:undname.obj
 0002:000033c8       ??_C@_09BLBHBJP@?$GAvbtable?8@ 00000001800253c8     libvcruntime:undname.obj
 0002:000033d8       ??_C@_07FEEIOKP@?$GAvcall?8@ 00000001800253d8     libvcruntime:undname.obj
 0002:000033e0       ??_C@_08LLFFHHDJ@?$GAtypeof?8@ 00000001800253e0     libvcruntime:undname.obj
 0002:000033f0       ??_C@_0BF@KDPPACIK@?$GAlocal?5static?5guard?8@ 00000001800253f0     libvcruntime:undname.obj
 0002:00003408       ??_C@_08OBABFOLI@?$GAstring?8@ 0000000180025408     libvcruntime:undname.obj
 0002:00003418       ??_C@_0BD@JDLKDPAB@?$GAvbase?5destructor?8@ 0000000180025418     libvcruntime:undname.obj
 0002:00003430       ??_C@_0BN@DEGPLNFK@?$GAvector?5deleting?5destructor?8@ 0000000180025430     libvcruntime:undname.obj
 0002:00003450       ??_C@_0BO@OBMKPJIG@?$GAdefault?5constructor?5closure?8@ 0000000180025450     libvcruntime:undname.obj
 0002:00003470       ??_C@_0BN@IMDCHIKM@?$GAscalar?5deleting?5destructor?8@ 0000000180025470     libvcruntime:undname.obj
 0002:00003490       ??_C@_0BO@PFGOCPJJ@?$GAvector?5constructor?5iterator?8@ 0000000180025490     libvcruntime:undname.obj
 0002:000034b0       ??_C@_0BN@LFPFMEDL@?$GAvector?5destructor?5iterator?8@ 00000001800254b0     libvcruntime:undname.obj
 0002:000034d0       ??_C@_0CE@IKBNEHA@?$GAvector?5vbase?5constructor?5itera@ 00000001800254d0     libvcruntime:undname.obj
 0002:000034f8       ??_C@_0BL@NILFHHPC@?$GAvirtual?5displacement?5map?8@ 00000001800254f8     libvcruntime:undname.obj
 0002:00003518       ??_C@_0CB@JONCMFFK@?$GAeh?5vector?5constructor?5iterator@ 0000000180025518     libvcruntime:undname.obj
 0002:00003540       ??_C@_0CA@GCEOPDGL@?$GAeh?5vector?5destructor?5iterator?8@ 0000000180025540     libvcruntime:undname.obj
 0002:00003560       ??_C@_0CH@OOJPLCPH@?$GAeh?5vector?5vbase?5constructor?5it@ 0000000180025560     libvcruntime:undname.obj
 0002:00003588       ??_C@_0BL@LLKPOHJI@?$GAcopy?5constructor?5closure?8@ 0000000180025588     libvcruntime:undname.obj
 0002:000035a8       ??_C@_0BA@KBCDOMBN@?$GAudt?5returning?8@ 00000001800255a8     libvcruntime:undname.obj
 0002:000035b8       ??_C@_03KLGMFNMG@?$GAEH@   00000001800255b8     libvcruntime:undname.obj
 0002:000035bc       ??_C@_05KHLCHHI@?$GARTTI@  00000001800255bc     libvcruntime:undname.obj
 0002:000035c8       ??_C@_0BA@KKLDJDLB@?$GAlocal?5vftable?8@ 00000001800255c8     libvcruntime:undname.obj
 0002:000035d8       ??_C@_0CE@IIHCMGGL@?$GAlocal?5vftable?5constructor?5clos@ 00000001800255d8     libvcruntime:undname.obj
 0002:000035fc       ??_C@_06FHBGPFGH@?5new?$FL?$FN@ 00000001800255fc     libvcruntime:undname.obj
 0002:00003608       ??_C@_09LBNFPBCA@?5delete?$FL?$FN@ 0000000180025608     libvcruntime:undname.obj
 0002:00003618       ??_C@_0P@HJKNJFNN@?$GAomni?5callsig?8@ 0000000180025618     libvcruntime:undname.obj
 0002:00003628       ??_C@_0BL@CNOONJFP@?$GAplacement?5delete?5closure?8@ 0000000180025628     libvcruntime:undname.obj
 0002:00003648       ??_C@_0BN@CKNJLHMB@?$GAplacement?5delete?$FL?$FN?5closure?8@ 0000000180025648     libvcruntime:undname.obj
 0002:00003668       ??_C@_0CG@CFDHKGGD@?$GAmanaged?5vector?5constructor?5ite@ 0000000180025668     libvcruntime:undname.obj
 0002:00003690       ??_C@_0CF@IMGKMJNO@?$GAmanaged?5vector?5destructor?5iter@ 0000000180025690     libvcruntime:undname.obj
 0002:000036b8       ??_C@_0CG@HLDDJMAG@?$GAeh?5vector?5copy?5constructor?5ite@ 00000001800256b8     libvcruntime:undname.obj
 0002:000036e0       ??_C@_0CM@FCBBDIGB@?$GAeh?5vector?5vbase?5copy?5construct@ 00000001800256e0     libvcruntime:undname.obj
 0002:00003710       ??_C@_0BL@CLIPGLGB@?$GAdynamic?5initializer?5for?5?8@ 0000000180025710     libvcruntime:undname.obj
 0002:00003730       ??_C@_0CB@PDBIFEP@?$GAdynamic?5atexit?5destructor?5for?5@ 0000000180025730     libvcruntime:undname.obj
 0002:00003758       ??_C@_0CD@CGAJBKEJ@?$GAvector?5copy?5constructor?5iterat@ 0000000180025758     libvcruntime:undname.obj
 0002:00003780       ??_C@_0CJ@GJELGAMM@?$GAvector?5vbase?5copy?5constructor?5@ 0000000180025780     libvcruntime:undname.obj
 0002:000037b0       ??_C@_0CL@FGIJHLCE@?$GAmanaged?5vector?5copy?5constructo@ 00000001800257b0     libvcruntime:undname.obj
 0002:000037e0       ??_C@_0BM@PMGGMLDN@?$GAlocal?5static?5thread?5guard?8@ 00000001800257e0     libvcruntime:undname.obj
 0002:00003800       ??_C@_0N@BDNMDMOL@operator?5?$CC?$CC?5@ 0000000180025800     libvcruntime:undname.obj
 0002:00003810       ??_C@_0BC@GGEBGALA@operator?5co_await@ 0000000180025810     libvcruntime:undname.obj
 0002:00003828       ??_C@_0BC@DAFEJGAK@?5Type?5Descriptor?8@ 0000000180025828     libvcruntime:undname.obj
 0002:00003840       ??_C@_0BM@LDKODKLH@?5Base?5Class?5Descriptor?5at?5?$CI@ 0000000180025840     libvcruntime:undname.obj
 0002:00003860       ??_C@_0BD@LGICGFMM@?5Base?5Class?5Array?8@ 0000000180025860     libvcruntime:undname.obj
 0002:00003878       ??_C@_0BN@MECKDCOJ@?5Class?5Hierarchy?5Descriptor?8@ 0000000180025878     libvcruntime:undname.obj
 0002:00003898       ??_C@_0BK@CFCOFLF@?5Complete?5Object?5Locator?8@ 0000000180025898     libvcruntime:undname.obj
 0002:00003a30       format_validation_lookup_table 0000000180025a30     libucrt:output.obj
 0002:00003a8c       ??_C@_06OJHGLDPL@?$CInull?$CJ?$AA@ 0000000180025a8c     libucrt:output.obj
 0002:00003a98       ??_C@_1O@CEDCILHN@?$AA?$CI?$AAn?$AAu?$AAl?$AAl?$AA?$CJ?$AA?$AA@ 0000000180025a98     libucrt:output.obj
 0002:00003ab0       __acrt_exception_action_table 0000000180025ab0     libucrt:exception_filter.obj
 0002:00003b70       __acrt_signal_action_table_count 0000000180025b70     libucrt:exception_filter.obj
 0002:00003b78       __acrt_signal_action_first_fpe_index 0000000180025b78     libucrt:exception_filter.obj
 0002:00003b80       __acrt_signal_action_fpe_count 0000000180025b80     libucrt:exception_filter.obj
 0002:00003b88       ??_C@_1BI@BGOHAHKC@?$AAm?$AAs?$AAc?$AAo?$AAr?$AAe?$AAe?$AA?4?$AAd?$AAl?$AAl?$AA?$AA@ 0000000180025b88     libucrt:exit.obj
 0002:00003ba0       ??_C@_0P@MIGLKIOC@CorExitProcess?$AA@ 0000000180025ba0     libucrt:exit.obj
 0002:00003d40       ??_C@_1EG@CNNIPFIM@?$AAa?$AAp?$AAi?$AA?9?$AAm?$AAs?$AA?9?$AAw?$AAi?$AAn?$AA?9?$AAa?$AAp?$AAp?$AAm?$AAo?$AAd?$AAe?$AAl?$AA?9?$AAr?$AAu?$AAn?$AAt?$AAi?$AAm?$AAe?$AA?9?$AAl?$AA1?$AA?9?$AA1@ 0000000180025d40     libucrt:winapi_thunks.obj
 0002:00003d90       ??_C@_1EA@JGEFHKEI@?$AAa?$AAp?$AAi?$AA?9?$AAm?$AAs?$AA?9?$AAw?$AAi?$AAn?$AA?9?$AAc?$AAo?$AAr?$AAe?$AA?9?$AAd?$AAa?$AAt?$AAe?$AAt?$AAi?$AAm?$AAe?$AA?9?$AAl?$AA1?$AA?9?$AA1?$AA?9?$AA1?$AA?$AA@ 0000000180025d90     libucrt:winapi_thunks.obj
 0002:00003dd0       ??_C@_1DM@KHCHBNEB@?$AAa?$AAp?$AAi?$AA?9?$AAm?$AAs?$AA?9?$AAw?$AAi?$AAn?$AA?9?$AAc?$AAo?$AAr?$AAe?$AA?9?$AAf?$AAi?$AAb?$AAe?$AAr?$AAs?$AA?9?$AAl?$AA1?$AA?9?$AA1?$AA?9?$AA1?$AA?$AA@ 0000000180025dd0     libucrt:winapi_thunks.obj
 0002:00003e10       ??_C@_1DI@GCIAAENM@?$AAa?$AAp?$AAi?$AA?9?$AAm?$AAs?$AA?9?$AAw?$AAi?$AAn?$AA?9?$AAc?$AAo?$AAr?$AAe?$AA?9?$AAf?$AAi?$AAl?$AAe?$AA?9?$AAl?$AA2?$AA?9?$AA1?$AA?9?$AA1?$AA?$AA@ 0000000180025e10     libucrt:winapi_thunks.obj
 0002:00003e50       ??_C@_1EI@MPIAOHOC@?$AAa?$AAp?$AAi?$AA?9?$AAm?$AAs?$AA?9?$AAw?$AAi?$AAn?$AA?9?$AAc?$AAo?$AAr?$AAe?$AA?9?$AAl?$AAo?$AAc?$AAa?$AAl?$AAi?$AAz?$AAa?$AAt?$AAi?$AAo?$AAn?$AA?9?$AAl?$AA1?$AA?9@ 0000000180025e50     libucrt:winapi_thunks.obj
 0002:00003ea0       ??_C@_1FK@FPHCKFIE@?$AAa?$AAp?$AAi?$AA?9?$AAm?$AAs?$AA?9?$AAw?$AAi?$AAn?$AA?9?$AAc?$AAo?$AAr?$AAe?$AA?9?$AAl?$AAo?$AAc?$AAa?$AAl?$AAi?$AAz?$AAa?$AAt?$AAi?$AAo?$AAn?$AA?9?$AAo?$AAb?$AAs@ 0000000180025ea0     libucrt:winapi_thunks.obj
 0002:00003f00       ??_C@_1EM@DILCGIIO@?$AAa?$AAp?$AAi?$AA?9?$AAm?$AAs?$AA?9?$AAw?$AAi?$AAn?$AA?9?$AAc?$AAo?$AAr?$AAe?$AA?9?$AAp?$AAr?$AAo?$AAc?$AAe?$AAs?$AAs?$AAt?$AAh?$AAr?$AAe?$AAa?$AAd?$AAs?$AA?9?$AAl@ 0000000180025f00     libucrt:winapi_thunks.obj
 0002:00003f50       ??_C@_1DM@LNCGDDPN@?$AAa?$AAp?$AAi?$AA?9?$AAm?$AAs?$AA?9?$AAw?$AAi?$AAn?$AA?9?$AAc?$AAo?$AAr?$AAe?$AA?9?$AAs?$AAt?$AAr?$AAi?$AAn?$AAg?$AA?9?$AAl?$AA1?$AA?9?$AA1?$AA?9?$AA0?$AA?$AA@ 0000000180025f50     libucrt:winapi_thunks.obj
 0002:00003f90       ??_C@_1DK@LPPGFMPP@?$AAa?$AAp?$AAi?$AA?9?$AAm?$AAs?$AA?9?$AAw?$AAi?$AAn?$AA?9?$AAc?$AAo?$AAr?$AAe?$AA?9?$AAs?$AAy?$AAn?$AAc?$AAh?$AA?9?$AAl?$AA1?$AA?9?$AA2?$AA?9?$AA0?$AA?$AA@ 0000000180025f90     libucrt:winapi_thunks.obj
 0002:00003fd0       ??_C@_1DO@FPAPJEMD@?$AAa?$AAp?$AAi?$AA?9?$AAm?$AAs?$AA?9?$AAw?$AAi?$AAn?$AA?9?$AAc?$AAo?$AAr?$AAe?$AA?9?$AAs?$AAy?$AAs?$AAi?$AAn?$AAf?$AAo?$AA?9?$AAl?$AA1?$AA?9?$AA2?$AA?9?$AA1?$AA?$AA@ 0000000180025fd0     libucrt:winapi_thunks.obj
 0002:00004010       ??_C@_1DK@NDHNAHIO@?$AAa?$AAp?$AAi?$AA?9?$AAm?$AAs?$AA?9?$AAw?$AAi?$AAn?$AA?9?$AAc?$AAo?$AAr?$AAe?$AA?9?$AAw?$AAi?$AAn?$AAr?$AAt?$AA?9?$AAl?$AA1?$AA?9?$AA1?$AA?9?$AA0?$AA?$AA@ 0000000180026010     libucrt:winapi_thunks.obj
 0002:00004050       ??_C@_1DM@KGHDGBCM@?$AAa?$AAp?$AAi?$AA?9?$AAm?$AAs?$AA?9?$AAw?$AAi?$AAn?$AA?9?$AAc?$AAo?$AAr?$AAe?$AA?9?$AAx?$AAs?$AAt?$AAa?$AAt?$AAe?$AA?9?$AAl?$AA2?$AA?9?$AA1?$AA?9?$AA0?$AA?$AA@ 0000000180026050     libucrt:winapi_thunks.obj
 0002:00004090       ??_C@_1EO@IJIOEFOH@?$AAa?$AAp?$AAi?$AA?9?$AAm?$AAs?$AA?9?$AAw?$AAi?$AAn?$AA?9?$AAr?$AAt?$AAc?$AAo?$AAr?$AAe?$AA?9?$AAn?$AAt?$AAu?$AAs?$AAe?$AAr?$AA?9?$AAw?$AAi?$AAn?$AAd?$AAo?$AAw?$AA?9@ 0000000180026090     libucrt:winapi_thunks.obj
 0002:000040e0       ??_C@_1FG@HHGEKANL@?$AAa?$AAp?$AAi?$AA?9?$AAm?$AAs?$AA?9?$AAw?$AAi?$AAn?$AA?9?$AAs?$AAe?$AAc?$AAu?$AAr?$AAi?$AAt?$AAy?$AA?9?$AAs?$AAy?$AAs?$AAt?$AAe?$AAm?$AAf?$AAu?$AAn?$AAc?$AAt?$AAi@ 00000001800260e0     libucrt:winapi_thunks.obj
 0002:00004140       ??_C@_1FG@NCKKOLKO@?$AAe?$AAx?$AAt?$AA?9?$AAm?$AAs?$AA?9?$AAw?$AAi?$AAn?$AA?9?$AAk?$AAe?$AAr?$AAn?$AAe?$AAl?$AA3?$AA2?$AA?9?$AAp?$AAa?$AAc?$AAk?$AAa?$AAg?$AAe?$AA?9?$AAc?$AAu?$AAr?$AAr@ 0000000180026140     libucrt:winapi_thunks.obj
 0002:000041a0       ??_C@_1EG@DBIOJECG@?$AAe?$AAx?$AAt?$AA?9?$AAm?$AAs?$AA?9?$AAw?$AAi?$AAn?$AA?9?$AAn?$AAt?$AAu?$AAs?$AAe?$AAr?$AA?9?$AAd?$AAi?$AAa?$AAl?$AAo?$AAg?$AAb?$AAo?$AAx?$AA?9?$AAl?$AA1?$AA?9?$AA1@ 00000001800261a0     libucrt:winapi_thunks.obj
 0002:000041f0       ??_C@_1EO@FIHMJCLF@?$AAe?$AAx?$AAt?$AA?9?$AAm?$AAs?$AA?9?$AAw?$AAi?$AAn?$AA?9?$AAn?$AAt?$AAu?$AAs?$AAe?$AAr?$AA?9?$AAw?$AAi?$AAn?$AAd?$AAo?$AAw?$AAs?$AAt?$AAa?$AAt?$AAi?$AAo?$AAn?$AA?9@ 00000001800261f0     libucrt:winapi_thunks.obj
 0002:00004240       ??_C@_1BC@DNHGCMLG@?$AAa?$AAd?$AAv?$AAa?$AAp?$AAi?$AA3?$AA2?$AA?$AA@ 0000000180026240     libucrt:winapi_thunks.obj
 0002:00004258       ??_C@_1BC@GDMECMAK@?$AAk?$AAe?$AAr?$AAn?$AAe?$AAl?$AA3?$AA2?$AA?$AA@ 0000000180026258     libucrt:winapi_thunks.obj
 0002:00004270       ??_C@_1O@BCCLBEOE@?$AAu?$AAs?$AAe?$AAr?$AA3?$AA2?$AA?$AA@ 0000000180026270     libucrt:winapi_thunks.obj
 0002:00004288       ??_C@_08KNHFBNJ@FlsAlloc?$AA@ 0000000180026288     libucrt:winapi_thunks.obj
 0002:000042a0       ??_C@_07PEJMOBNF@FlsFree?$AA@ 00000001800262a0     libucrt:winapi_thunks.obj
 0002:000042b0       ??_C@_0M@GDNOONDI@FlsGetValue?$AA@ 00000001800262b0     libucrt:winapi_thunks.obj
 0002:000042c8       ??_C@_0M@JCPCPOEF@FlsSetValue?$AA@ 00000001800262c8     libucrt:winapi_thunks.obj
 0002:000042e0       ??_C@_0BE@JOGNEJCI@GetCurrentPackageId?$AA@ 00000001800262e0     libucrt:winapi_thunks.obj
 0002:00004300       ??_C@_0BM@HCFOFFN@InitializeCriticalSectionEx?$AA@ 0000000180026300     libucrt:winapi_thunks.obj
 0002:00004328       ??_C@_0O@KKBNKAPF@LCMapStringEx?$AA@ 0000000180026328     libucrt:winapi_thunks.obj
 0002:00004340       ??_C@_0BB@HBDEELFH@LocaleNameToLCID?$AA@ 0000000180026340     libucrt:winapi_thunks.obj
 0002:00004360       ??_C@_0BI@BKLFFAPO@SetThreadStackGuarantee?$AA@ 0000000180026360     libucrt:winapi_thunks.obj
 0002:00004378       ??_C@_03OEIAHPBN@INF?$AA@  0000000180026378     libucrt:cvt.obj
 0002:0000437c       ??_C@_03OJHLLCGB@inf?$AA@  000000018002637c     libucrt:cvt.obj
 0002:00004380       ??_C@_03LKNCIKJB@NAN?$AA@  0000000180026380     libucrt:cvt.obj
 0002:00004384       ??_C@_03LHCJEHON@nan?$AA@  0000000180026384     libucrt:cvt.obj
 0002:00004388       ??_C@_09OFJJIMPC@NAN?$CISNAN?$CJ?$AA@ 0000000180026388     libucrt:cvt.obj
 0002:00004398       ??_C@_09IPFBKMDL@nan?$CIsnan?$CJ?$AA@ 0000000180026398     libucrt:cvt.obj
 0002:000043a8       ??_C@_08IKHNHAJ@NAN?$CIIND?$CJ?$AA@ 00000001800263a8     libucrt:cvt.obj
 0002:000043b8       ??_C@_08OFCDMILK@nan?$CIind?$CJ?$AA@ 00000001800263b8     libucrt:cvt.obj
 0002:000043c4       ??_C@_05KLBDPFGC@e?$CL000?$AA@ 00000001800263c4     libucrt:cvt.obj
 0002:000043d0       __lc_time_c                00000001800263d0     libucrt:nlsdata.obj
 0002:00004690       ??_C@_03KOEHGMDN@Sun?$AA@  0000000180026690     libucrt:nlsdata.obj
 0002:00004694       ??_C@_03PDAGKDH@Mon?$AA@   0000000180026694     libucrt:nlsdata.obj
 0002:00004698       ??_C@_03NAGEINEP@Tue?$AA@  0000000180026698     libucrt:nlsdata.obj
 0002:0000469c       ??_C@_03MHOMLAJA@Wed?$AA@  000000018002669c     libucrt:nlsdata.obj
 0002:000046a0       ??_C@_03IOFIKPDN@Thu?$AA@  00000001800266a0     libucrt:nlsdata.obj
 0002:000046a4       ??_C@_03IDIOELNC@Fri?$AA@  00000001800266a4     libucrt:nlsdata.obj
 0002:000046a8       ??_C@_03FEFJNEK@Sat?$AA@   00000001800266a8     libucrt:nlsdata.obj
 0002:000046ac       ??_C@_06OOPIFAJ@Sunday?$AA@ 00000001800266ac     libucrt:nlsdata.obj
 0002:000046b4       ??_C@_06JLEDEDGH@Monday?$AA@ 00000001800266b4     libucrt:nlsdata.obj
 0002:000046c0       ??_C@_07BAAGCFCM@Tuesday?$AA@ 00000001800266c0     libucrt:nlsdata.obj
 0002:000046c8       ??_C@_09DLIGFAKA@Wednesday?$AA@ 00000001800266c8     libucrt:nlsdata.obj
 0002:000046d8       ??_C@_08HACCIKIA@Thursday?$AA@ 00000001800266d8     libucrt:nlsdata.obj
 0002:000046e4       ??_C@_06JECMNKMI@Friday?$AA@ 00000001800266e4     libucrt:nlsdata.obj
 0002:000046f0       ??_C@_08INBOOONO@Saturday?$AA@ 00000001800266f0     libucrt:nlsdata.obj
 0002:000046fc       ??_C@_03JIHJHPIE@Jan?$AA@  00000001800266fc     libucrt:nlsdata.obj
 0002:00004700       ??_C@_03HJBDCHOM@Feb?$AA@  0000000180026700     libucrt:nlsdata.obj
 0002:00004704       ??_C@_03ODNJBKGA@Mar?$AA@  0000000180026704     libucrt:nlsdata.obj
 0002:00004708       ??_C@_03LEOLGMJP@Apr?$AA@  0000000180026708     libucrt:nlsdata.obj
 0002:0000470c       ??_C@_03CNMDKL@May?$AA@    000000018002670c     libucrt:nlsdata.obj
 0002:00004710       ??_C@_03IDFGHECI@Jun?$AA@  0000000180026710     libucrt:nlsdata.obj
 0002:00004714       ??_C@_03LBGABGKK@Jul?$AA@  0000000180026714     libucrt:nlsdata.obj
 0002:00004718       ??_C@_03IFJFEIGA@Aug?$AA@  0000000180026718     libucrt:nlsdata.obj
 0002:0000471c       ??_C@_03GGCAPAJC@Sep?$AA@  000000018002671c     libucrt:nlsdata.obj
 0002:00004720       ??_C@_03BMAOKBAD@Oct?$AA@  0000000180026720     libucrt:nlsdata.obj
 0002:00004724       ??_C@_03JPJOFNIA@Nov?$AA@  0000000180026724     libucrt:nlsdata.obj
 0002:00004728       ??_C@_03MKABNOCG@Dec?$AA@  0000000180026728     libucrt:nlsdata.obj
 0002:00004730       ??_C@_07CGJPFGJA@January?$AA@ 0000000180026730     libucrt:nlsdata.obj
 0002:00004738       ??_C@_08GNJGEPFN@February?$AA@ 0000000180026738     libucrt:nlsdata.obj
 0002:00004744       ??_C@_05HPCKOFNC@March?$AA@ 0000000180026744     libucrt:nlsdata.obj
 0002:0000474c       ??_C@_05DMJDNLEJ@April?$AA@ 000000018002674c     libucrt:nlsdata.obj
 0002:00004754       ??_C@_04CNLMGBGM@June?$AA@ 0000000180026754     libucrt:nlsdata.obj
 0002:0000475c       ??_C@_04MIEPOIFP@July?$AA@ 000000018002675c     libucrt:nlsdata.obj
 0002:00004764       ??_C@_06LBBHFDDG@August?$AA@ 0000000180026764     libucrt:nlsdata.obj
 0002:00004770       ??_C@_09BHHEALKD@September?$AA@ 0000000180026770     libucrt:nlsdata.obj
 0002:00004780       ??_C@_07JJNFCEND@October?$AA@ 0000000180026780     libucrt:nlsdata.obj
 0002:00004788       ??_C@_08HCHEGEOA@November?$AA@ 0000000180026788     libucrt:nlsdata.obj
 0002:00004798       ??_C@_08EDHMEBNP@December?$AA@ 0000000180026798     libucrt:nlsdata.obj
 0002:000047a4       ??_C@_02DEDBPAFC@AM?$AA@   00000001800267a4     libucrt:nlsdata.obj
 0002:000047a8       ??_C@_02CJNFDJBF@PM?$AA@   00000001800267a8     libucrt:nlsdata.obj
 0002:000047b0       ??_C@_08BPBNCDIB@MM?1dd?1yy?$AA@ 00000001800267b0     libucrt:nlsdata.obj
 0002:000047c0       ??_C@_0BE@CKGJFCPC@dddd?0?5MMMM?5dd?0?5yyyy?$AA@ 00000001800267c0     libucrt:nlsdata.obj
 0002:000047d8       ??_C@_08JCCMCCIL@HH?3mm?3ss?$AA@ 00000001800267d8     libucrt:nlsdata.obj
 0002:000047e8       ??_C@_17MBGCMIPB@?$AAS?$AAu?$AAn?$AA?$AA@ 00000001800267e8     libucrt:nlsdata.obj
 0002:000047f0       ??_C@_17KBOMKBF@?$AAM?$AAo?$AAn?$AA?$AA@ 00000001800267f0     libucrt:nlsdata.obj
 0002:000047f8       ??_C@_17BMKGEGOJ@?$AAT?$AAu?$AAe?$AA?$AA@ 00000001800267f8     libucrt:nlsdata.obj
 0002:00004800       ??_C@_17CJEDCEPE@?$AAW?$AAe?$AAd?$AA?$AA@ 0000000180026800     libucrt:nlsdata.obj
 0002:00004808       ??_C@_17PDPHAADD@?$AAT?$AAh?$AAu?$AA?$AA@ 0000000180026808     libucrt:nlsdata.obj
 0002:00004810       ??_C@_17HFOLPPLP@?$AAF?$AAr?$AAi?$AA?$AA@ 0000000180026810     libucrt:nlsdata.obj
 0002:00004818       ??_C@_17GGIBDPIH@?$AAS?$AAa?$AAt?$AA?$AA@ 0000000180026818     libucrt:nlsdata.obj
 0002:00004820       ??_C@_1O@IHNHDHPB@?$AAS?$AAu?$AAn?$AAd?$AAa?$AAy?$AA?$AA@ 0000000180026820     libucrt:nlsdata.obj
 0002:00004830       ??_C@_1O@MMNBFLIA@?$AAM?$AAo?$AAn?$AAd?$AAa?$AAy?$AA?$AA@ 0000000180026830     libucrt:nlsdata.obj
 0002:00004840       ??_C@_1BA@ENFBFFEK@?$AAT?$AAu?$AAe?$AAs?$AAd?$AAa?$AAy?$AA?$AA@ 0000000180026840     libucrt:nlsdata.obj
 0002:00004850       ??_C@_1BE@EBOGMDOH@?$AAW?$AAe?$AAd?$AAn?$AAe?$AAs?$AAd?$AAa?$AAy?$AA?$AA@ 0000000180026850     libucrt:nlsdata.obj
 0002:00004868       ??_C@_1BC@HHMNLIHE@?$AAT?$AAh?$AAu?$AAr?$AAs?$AAd?$AAa?$AAy?$AA?$AA@ 0000000180026868     libucrt:nlsdata.obj
 0002:00004880       ??_C@_1O@PDICJHAG@?$AAF?$AAr?$AAi?$AAd?$AAa?$AAy?$AA?$AA@ 0000000180026880     libucrt:nlsdata.obj
 0002:00004890       ??_C@_1BC@ENMNNPAJ@?$AAS?$AAa?$AAt?$AAu?$AAr?$AAd?$AAa?$AAy?$AA?$AA@ 0000000180026890     libucrt:nlsdata.obj
 0002:000048a8       ??_C@_17DKNBKCHM@?$AAJ?$AAa?$AAn?$AA?$AA@ 00000001800268a8     libucrt:nlsdata.obj
 0002:000048b0       ??_C@_17LMDJEKJN@?$AAF?$AAe?$AAb?$AA?$AA@ 00000001800268b0     libucrt:nlsdata.obj
 0002:000048b8       ??_C@_17CKNLEDEC@?$AAM?$AAa?$AAr?$AA?$AA@ 00000001800268b8     libucrt:nlsdata.obj
 0002:000048c0       ??_C@_17LFPOIHDD@?$AAA?$AAp?$AAr?$AA?$AA@ 00000001800268c0     libucrt:nlsdata.obj
 0002:000048c8       ??_C@_17PNNKMEED@?$AAM?$AAa?$AAy?$AA?$AA@ 00000001800268c8     libucrt:nlsdata.obj
 0002:000048d0       ??_C@_17KCJGOCPB@?$AAJ?$AAu?$AAn?$AA?$AA@ 00000001800268d0     libucrt:nlsdata.obj
 0002:000048d8       ??_C@_17IJPCKHK@?$AAJ?$AAu?$AAl?$AA?$AA@ 00000001800268d8     libucrt:nlsdata.obj
 0002:000048e0       ??_C@_17ICPELBCN@?$AAA?$AAu?$AAg?$AA?$AA@ 00000001800268e0     libucrt:nlsdata.obj
 0002:000048e8       ??_C@_17HCHCOKMG@?$AAS?$AAe?$AAp?$AA?$AA@ 00000001800268e8     libucrt:nlsdata.obj
 0002:000048f0       ??_C@_17FNLKOI@?$AAO?$AAc?$AAt?$AA?$AA@ 00000001800268f0     libucrt:nlsdata.obj
 0002:000048f8       ??_C@_17BBDMLCIG@?$AAN?$AAo?$AAv?$AA?$AA@ 00000001800268f8     libucrt:nlsdata.obj
 0002:00004900       ??_C@_17EGKACKIF@?$AAD?$AAe?$AAc?$AA?$AA@ 0000000180026900     libucrt:nlsdata.obj
 0002:00004908       ??_C@_1BA@EFMEIEBA@?$AAJ?$AAa?$AAn?$AAu?$AAa?$AAr?$AAy?$AA?$AA@ 0000000180026908     libucrt:nlsdata.obj
 0002:00004918       ??_C@_1BC@JGDDFFAM@?$AAF?$AAe?$AAb?$AAr?$AAu?$AAa?$AAr?$AAy?$AA?$AA@ 0000000180026918     libucrt:nlsdata.obj
 0002:00004930       ??_C@_1M@IKEENEDF@?$AAM?$AAa?$AAr?$AAc?$AAh?$AA?$AA@ 0000000180026930     libucrt:nlsdata.obj
 0002:00004940       ??_C@_1M@GJNLMHFD@?$AAA?$AAp?$AAr?$AAi?$AAl?$AA?$AA@ 0000000180026940     libucrt:nlsdata.obj
 0002:00004950       ??_C@_19EPFLPGAP@?$AAJ?$AAu?$AAn?$AAe?$AA?$AA@ 0000000180026950     libucrt:nlsdata.obj
 0002:00004960       ??_C@_19BIFMLPCD@?$AAJ?$AAu?$AAl?$AAy?$AA?$AA@ 0000000180026960     libucrt:nlsdata.obj
 0002:00004970       ??_C@_1O@PAHLKOAC@?$AAA?$AAu?$AAg?$AAu?$AAs?$AAt?$AA?$AA@ 0000000180026970     libucrt:nlsdata.obj
 0002:00004980       ??_C@_1BE@DKAAMBJL@?$AAS?$AAe?$AAp?$AAt?$AAe?$AAm?$AAb?$AAe?$AAr?$AA?$AA@ 0000000180026980     libucrt:nlsdata.obj
 0002:00004998       ??_C@_1BA@EPANDLNG@?$AAO?$AAc?$AAt?$AAo?$AAb?$AAe?$AAr?$AA?$AA@ 0000000180026998     libucrt:nlsdata.obj
 0002:000049a8       ??_C@_1BC@BGLIFPF@?$AAN?$AAo?$AAv?$AAe?$AAm?$AAb?$AAe?$AAr?$AA?$AA@ 00000001800269a8     libucrt:nlsdata.obj
 0002:000049c0       ??_C@_1BC@FEMKIFH@?$AAD?$AAe?$AAc?$AAe?$AAm?$AAb?$AAe?$AAr?$AA?$AA@ 00000001800269c0     libucrt:nlsdata.obj
 0002:000049d4       ??_C@_15ODEHAHHF@?$AAA?$AAM?$AA?$AA@ 00000001800269d4     libucrt:nlsdata.obj
 0002:000049dc       ??_C@_15CLMNNGEL@?$AAP?$AAM?$AA?$AA@ 00000001800269dc     libucrt:nlsdata.obj
 0002:000049e8       ??_C@_1BC@IEBCMHCM@?$AAM?$AAM?$AA?1?$AAd?$AAd?$AA?1?$AAy?$AAy?$AA?$AA@ 00000001800269e8     libucrt:nlsdata.obj
 0002:00004a00       ??_C@_1CI@KNAKOEBC@?$AAd?$AAd?$AAd?$AAd?$AA?0?$AA?5?$AAM?$AAM?$AAM?$AAM?$AA?5?$AAd?$AAd?$AA?0?$AA?5?$AAy?$AAy?$AAy?$AAy?$AA?$AA@ 0000000180026a00     libucrt:nlsdata.obj
 0002:00004a28       ??_C@_1BC@GDGBMEMK@?$AAH?$AAH?$AA?3?$AAm?$AAm?$AA?3?$AAs?$AAs?$AA?$AA@ 0000000180026a28     libucrt:nlsdata.obj
 0002:00004a40       ??_C@_1M@BMHNFIME@?$AAe?$AAn?$AA?9?$AAU?$AAS?$AA?$AA@ 0000000180026a40     libucrt:nlsdata.obj
 0002:00004a70       ??_C@_1M@HPNHIDJI@?$AAj?$AAa?$AA?9?$AAJ?$AAP?$AA?$AA@ 0000000180026a70     libucrt:mbctype.obj
 0002:00004a80       ??_C@_1M@BIBDDEMK@?$AAz?$AAh?$AA?9?$AAC?$AAN?$AA?$AA@ 0000000180026a80     libucrt:mbctype.obj
 0002:00004a90       ??_C@_1M@JLOOOEGK@?$AAk?$AAo?$AA?9?$AAK?$AAR?$AA?$AA@ 0000000180026a90     libucrt:mbctype.obj
 0002:00004aa0       ??_C@_1M@CLNBBOPM@?$AAz?$AAh?$AA?9?$AAT?$AAW?$AA?$AA@ 0000000180026aa0     libucrt:mbctype.obj
 0002:00004ab0       __newctype                 0000000180026ab0     libucrt:ctype.obj
 0002:00004db0       __newclmap                 0000000180026db0     libucrt:ctype.obj
 0002:00004f30       __newcumap                 0000000180026f30     libucrt:ctype.obj
 0002:000050b0       _wctype                    00000001800270b0     libucrt:ctype.obj
 0002:00006100       ??_C@_15EMKDOKLE@?$AAa?$AAr?$AA?$AA@ 0000000180028100     libucrt:lcidtoname_downlevel.obj
 0002:00006108       ??_C@_15KNPADPLH@?$AAb?$AAg?$AA?$AA@ 0000000180028108     libucrt:lcidtoname_downlevel.obj
 0002:00006110       ??_C@_15EDMHLDMO@?$AAc?$AAa?$AA?$AA@ 0000000180028110     libucrt:lcidtoname_downlevel.obj
 0002:00006118       ??_C@_1O@BPEAJADD@?$AAz?$AAh?$AA?9?$AAC?$AAH?$AAS?$AA?$AA@ 0000000180028118     libucrt:lcidtoname_downlevel.obj
 0002:00006128       ??_C@_15LJNHCMNK@?$AAc?$AAs?$AA?$AA@ 0000000180028128     libucrt:lcidtoname_downlevel.obj
 0002:00006130       ??_C@_15FOMCIDHG@?$AAd?$AAa?$AA?$AA@ 0000000180028130     libucrt:lcidtoname_downlevel.obj
 0002:00006138       ??_C@_15NBKABECB@?$AAd?$AAe?$AA?$AA@ 0000000180028138     libucrt:lcidtoname_downlevel.obj
 0002:00006140       ??_C@_15GHPEIIAO@?$AAe?$AAl?$AA?$AA@ 0000000180028140     libucrt:lcidtoname_downlevel.obj
 0002:00006148       ??_C@_15MNPNEAIF@?$AAe?$AAn?$AA?$AA@ 0000000180028148     libucrt:lcidtoname_downlevel.obj
 0002:00006150       ??_C@_15GPIOMPMH@?$AAe?$AAs?$AA?$AA@ 0000000180028150     libucrt:lcidtoname_downlevel.obj
 0002:00006158       ??_C@_15NGLOAKJC@?$AAf?$AAi?$AA?$AA@ 0000000180028158     libucrt:lcidtoname_downlevel.obj
 0002:00006160       ??_C@_15FBKGNKAM@?$AAf?$AAr?$AA?$AA@ 0000000180028160     libucrt:lcidtoname_downlevel.obj
 0002:00006168       ??_C@_15KGGCNEFK@?$AAh?$AAe?$AA?$AA@ 0000000180028168     libucrt:lcidtoname_downlevel.obj
 0002:00006170       ??_C@_15PGHLIDMF@?$AAh?$AAu?$AA?$AA@ 0000000180028170     libucrt:lcidtoname_downlevel.obj
 0002:00006178       ??_C@_15BIEMAPLM@?$AAi?$AAs?$AA?$AA@ 0000000180028178     libucrt:lcidtoname_downlevel.obj
 0002:00006180       ??_C@_15IFJLDHAF@?$AAi?$AAt?$AA?$AA@ 0000000180028180     libucrt:lcidtoname_downlevel.obj
 0002:00006188       ??_C@_15GEMIOCAG@?$AAj?$AAa?$AA?$AA@ 0000000180028188     libucrt:lcidtoname_downlevel.obj
 0002:00006190       ??_C@_15EPELEGJA@?$AAk?$AAo?$AA?$AA@ 0000000180028190     libucrt:lcidtoname_downlevel.obj
 0002:00006198       ??_C@_15NDDHIMN@?$AAn?$AAl?$AA?$AA@ 0000000180028198     libucrt:lcidtoname_downlevel.obj
 0002:000061a0       ??_C@_15BPIGNHCD@?$AAn?$AAo?$AA?$AA@ 00000001800281a0     libucrt:lcidtoname_downlevel.obj
 0002:000061a8       ??_C@_15DEOPBLCG@?$AAp?$AAl?$AA?$AA@ 00000001800281a8     libucrt:lcidtoname_downlevel.obj
 0002:000061b0       ??_C@_15KBECGEFG@?$AAp?$AAt?$AA?$AA@ 00000001800281b0     libucrt:lcidtoname_downlevel.obj
 0002:000061b8       ??_C@_15GLJCBFMD@?$AAr?$AAo?$AA?$AA@ 00000001800281b8     libucrt:lcidtoname_downlevel.obj
 0002:000061c0       ??_C@_15FEDGKCDI@?$AAr?$AAu?$AA?$AA@ 00000001800281c0     libucrt:lcidtoname_downlevel.obj
 0002:000061c8       ??_C@_15GLKMLLHM@?$AAh?$AAr?$AA?$AA@ 00000001800281c8     libucrt:lcidtoname_downlevel.obj
 0002:000061d0       ??_C@_15CPKMFBDB@?$AAs?$AAk?$AA?$AA@ 00000001800281d0     libucrt:lcidtoname_downlevel.obj
 0002:000061d8       ??_C@_15BAAIOGMK@?$AAs?$AAq?$AA?$AA@ 00000001800281d8     libucrt:lcidtoname_downlevel.obj
 0002:000061e0       ??_C@_15INNPNOHD@?$AAs?$AAv?$AA?$AA@ 00000001800281e0     libucrt:lcidtoname_downlevel.obj
 0002:000061e8       ??_C@_15CABMMOGH@?$AAt?$AAh?$AA?$AA@ 00000001800281e8     libucrt:lcidtoname_downlevel.obj
 0002:000061f0       ??_C@_15BPLIHJJM@?$AAt?$AAr?$AA?$AA@ 00000001800281f0     libucrt:lcidtoname_downlevel.obj
 0002:000061f8       ??_C@_15NEOEKKDJ@?$AAu?$AAr?$AA?$AA@ 00000001800281f8     libucrt:lcidtoname_downlevel.obj
 0002:00006200       ??_C@_15NFICGAJK@?$AAi?$AAd?$AA?$AA@ 0000000180028200     libucrt:lcidtoname_downlevel.obj
 0002:00006208       ??_C@_15PJPFLCCM@?$AAu?$AAk?$AA?$AA@ 0000000180028208     libucrt:lcidtoname_downlevel.obj
 0002:00006210       ??_C@_15HPJPHDM@?$AAb?$AAe?$AA?$AA@ 0000000180028210     libucrt:lcidtoname_downlevel.obj
 0002:00006218       ??_C@_15LCHLGJII@?$AAs?$AAl?$AA?$AA@ 0000000180028218     libucrt:lcidtoname_downlevel.obj
 0002:00006220       ??_C@_15PCFJPHHO@?$AAe?$AAt?$AA?$AA@ 0000000180028220     libucrt:lcidtoname_downlevel.obj
 0002:00006228       ??_C@_15HPFPGODN@?$AAl?$AAv?$AA?$AA@ 0000000180028228     libucrt:lcidtoname_downlevel.obj
 0002:00006230       ??_C@_15NFFGKGLG@?$AAl?$AAt?$AA?$AA@ 0000000180028230     libucrt:lcidtoname_downlevel.obj
 0002:00006238       ??_C@_15BDAKCCHN@?$AAf?$AAa?$AA?$AA@ 0000000180028238     libucrt:lcidtoname_downlevel.obj
 0002:00006240       ??_C@_15NFGIAIAJ@?$AAv?$AAi?$AA?$AA@ 0000000180028240     libucrt:lcidtoname_downlevel.obj
 0002:00006248       ??_C@_15LMKNDMHN@?$AAh?$AAy?$AA?$AA@ 0000000180028248     libucrt:lcidtoname_downlevel.obj
 0002:00006250       ??_C@_15IJBHMCFL@?$AAa?$AAz?$AA?$AA@ 0000000180028250     libucrt:lcidtoname_downlevel.obj
 0002:00006258       ??_C@_15EKOFJABL@?$AAe?$AAu?$AA?$AA@ 0000000180028258     libucrt:lcidtoname_downlevel.obj
 0002:00006260       ??_C@_15BGHADCNK@?$AAm?$AAk?$AA?$AA@ 0000000180028260     libucrt:lcidtoname_downlevel.obj
 0002:00006268       ??_C@_15JDNICKHM@?$AAa?$AAf?$AA?$AA@ 0000000180028268     libucrt:lcidtoname_downlevel.obj
 0002:00006270       ??_C@_15KPJEDBKD@?$AAk?$AAa?$AA?$AA@ 0000000180028270     libucrt:lcidtoname_downlevel.obj
 0002:00006278       ??_C@_15PDNFFFEO@?$AAf?$AAo?$AA?$AA@ 0000000180028278     libucrt:lcidtoname_downlevel.obj
 0002:00006280       ??_C@_15OMLEGLOC@?$AAh?$AAi?$AA?$AA@ 0000000180028280     libucrt:lcidtoname_downlevel.obj
 0002:00006288       ??_C@_15IDNNENKK@?$AAm?$AAs?$AA?$AA@ 0000000180028288     libucrt:lcidtoname_downlevel.obj
 0002:00006290       ??_C@_15MACJNBMH@?$AAk?$AAk?$AA?$AA@ 0000000180028290     libucrt:lcidtoname_downlevel.obj
 0002:00006298       ??_C@_15DKDJEOND@?$AAk?$AAy?$AA?$AA@ 0000000180028298     libucrt:lcidtoname_downlevel.obj
 0002:000062a0       ??_C@_15DFGDLJBG@?$AAs?$AAw?$AA?$AA@ 00000001800282a0     libucrt:lcidtoname_downlevel.obj
 0002:000062a8       ??_C@_15BBFAICNG@?$AAu?$AAz?$AA?$AA@ 00000001800282a8     libucrt:lcidtoname_downlevel.obj
 0002:000062b0       ??_C@_15DKNDCGEA@?$AAt?$AAt?$AA?$AA@ 00000001800282b0     libucrt:lcidtoname_downlevel.obj
 0002:000062b8       ??_C@_15MGIFMDPL@?$AAp?$AAa?$AA?$AA@ 00000001800282b8     libucrt:lcidtoname_downlevel.obj
 0002:000062c0       ??_C@_15HCNDBBA@?$AAg?$AAu?$AA?$AA@ 00000001800282c0     libucrt:lcidtoname_downlevel.obj
 0002:000062c8       ??_C@_15FNBEIBON@?$AAt?$AAa?$AA?$AA@ 00000001800282c8     libucrt:lcidtoname_downlevel.obj
 0002:000062d0       ??_C@_15NCHGBGLK@?$AAt?$AAe?$AA?$AA@ 00000001800282d0     libucrt:lcidtoname_downlevel.obj
 0002:000062d8       ??_C@_15PHPHCBPF@?$AAk?$AAn?$AA?$AA@ 00000001800282d8     libucrt:lcidtoname_downlevel.obj
 0002:000062e0       ??_C@_15DLGBCKMP@?$AAm?$AAr?$AA?$AA@ 00000001800282e0     libucrt:lcidtoname_downlevel.obj
 0002:000062e8       ??_C@_15EABBLBFF@?$AAs?$AAa?$AA?$AA@ 00000001800282e8     libucrt:lcidtoname_downlevel.obj
 0002:000062f0       ??_C@_15CBKOMCOI@?$AAm?$AAn?$AA?$AA@ 00000001800282f0     libucrt:lcidtoname_downlevel.obj
 0002:000062f8       ??_C@_15CKDMCJAF@?$AAg?$AAl?$AA?$AA@ 00000001800282f8     libucrt:lcidtoname_downlevel.obj
 0002:00006300       ??_C@_17CNJFBPG@?$AAk?$AAo?$AAk?$AA?$AA@ 0000000180028300     libucrt:lcidtoname_downlevel.obj
 0002:00006308       ??_C@_17FFBJICPL@?$AAs?$AAy?$AAr?$AA?$AA@ 0000000180028308     libucrt:lcidtoname_downlevel.obj
 0002:00006310       ??_C@_17KPNDCPAF@?$AAd?$AAi?$AAv?$AA?$AA@ 0000000180028310     libucrt:lcidtoname_downlevel.obj
 0002:00006318       ??_C@_11LOCGONAA@?$AA?$AA@ 0000000180028318     libucrt:lcidtoname_downlevel.obj
 0002:00006320       ??_C@_1M@OKAHONE@?$AAa?$AAr?$AA?9?$AAS?$AAA?$AA?$AA@ 0000000180028320     libucrt:lcidtoname_downlevel.obj
 0002:00006330       ??_C@_1M@FFFIGIGK@?$AAb?$AAg?$AA?9?$AAB?$AAG?$AA?$AA@ 0000000180028330     libucrt:lcidtoname_downlevel.obj
 0002:00006340       ??_C@_1M@BJNKEDC@?$AAc?$AAa?$AA?9?$AAE?$AAS?$AA?$AA@ 0000000180028340     libucrt:lcidtoname_downlevel.obj
 0002:00006350       ??_C@_1M@IJJHFJHA@?$AAc?$AAs?$AA?9?$AAC?$AAZ?$AA?$AA@ 0000000180028350     libucrt:lcidtoname_downlevel.obj
 0002:00006360       ??_C@_1M@CLPEOBGI@?$AAd?$AAa?$AA?9?$AAD?$AAK?$AA?$AA@ 0000000180028360     libucrt:lcidtoname_downlevel.obj
 0002:00006370       ??_C@_1M@MCMADGCB@?$AAd?$AAe?$AA?9?$AAD?$AAE?$AA?$AA@ 0000000180028370     libucrt:lcidtoname_downlevel.obj
 0002:00006380       ??_C@_1M@OOCKEMAM@?$AAe?$AAl?$AA?9?$AAG?$AAR?$AA?$AA@ 0000000180028380     libucrt:lcidtoname_downlevel.obj
 0002:00006390       ??_C@_1M@DDNJFGID@?$AAf?$AAi?$AA?9?$AAF?$AAI?$AA?$AA@ 0000000180028390     libucrt:lcidtoname_downlevel.obj
 0002:000063a0       ??_C@_1M@GLIPPMAC@?$AAf?$AAr?$AA?9?$AAF?$AAR?$AA?$AA@ 00000001800283a0     libucrt:lcidtoname_downlevel.obj
 0002:000063b0       ??_C@_1M@GFMCHPE@?$AAh?$AAe?$AA?9?$AAI?$AAL?$AA?$AA@ 00000001800283b0     libucrt:lcidtoname_downlevel.obj
 0002:000063c0       ??_C@_1M@MHLPGNKM@?$AAh?$AAu?$AA?9?$AAH?$AAU?$AA?$AA@ 00000001800283c0     libucrt:lcidtoname_downlevel.obj
 0002:000063d0       ??_C@_1M@LPDDNNPN@?$AAi?$AAs?$AA?9?$AAI?$AAS?$AA?$AA@ 00000001800283d0     libucrt:lcidtoname_downlevel.obj
 0002:000063e0       ??_C@_1M@MADIPODN@?$AAi?$AAt?$AA?9?$AAI?$AAT?$AA?$AA@ 00000001800283e0     libucrt:lcidtoname_downlevel.obj
 0002:000063f0       ??_C@_1M@IHBJJGG@?$AAn?$AAl?$AA?9?$AAN?$AAL?$AA?$AA@ 00000001800283f0     libucrt:lcidtoname_downlevel.obj
 0002:00006400       ??_C@_1M@EANAGDL@?$AAn?$AAb?$AA?9?$AAN?$AAO?$AA?$AA@ 0000000180028400     libucrt:lcidtoname_downlevel.obj
 0002:00006410       ??_C@_1M@NEIEMEGP@?$AAp?$AAl?$AA?9?$AAP?$AAL?$AA?$AA@ 0000000180028410     libucrt:lcidtoname_downlevel.obj
 0002:00006420       ??_C@_1M@BOCFIGEP@?$AAp?$AAt?$AA?9?$AAB?$AAR?$AA?$AA@ 0000000180028420     libucrt:lcidtoname_downlevel.obj
 0002:00006430       ??_C@_1M@IMPFOPBG@?$AAr?$AAo?$AA?9?$AAR?$AAO?$AA?$AA@ 0000000180028430     libucrt:lcidtoname_downlevel.obj
 0002:00006440       ??_C@_1M@IDNNEJMM@?$AAr?$AAu?$AA?9?$AAR?$AAU?$AA?$AA@ 0000000180028440     libucrt:lcidtoname_downlevel.obj
 0002:00006450       ??_C@_1M@LILEEOGM@?$AAh?$AAr?$AA?9?$AAH?$AAR?$AA?$AA@ 0000000180028450     libucrt:lcidtoname_downlevel.obj
 0002:00006460       ??_C@_1M@FKIFEHPB@?$AAs?$AAk?$AA?9?$AAS?$AAK?$AA?$AA@ 0000000180028460     libucrt:lcidtoname_downlevel.obj
 0002:00006470       ??_C@_1M@LJMAMNPJ@?$AAs?$AAq?$AA?9?$AAA?$AAL?$AA?$AA@ 0000000180028470     libucrt:lcidtoname_downlevel.obj
 0002:00006480       ??_C@_1M@GIAKDKJK@?$AAs?$AAv?$AA?9?$AAS?$AAE?$AA?$AA@ 0000000180028480     libucrt:lcidtoname_downlevel.obj
 0002:00006490       ??_C@_1M@MKJKIKCL@?$AAt?$AAh?$AA?9?$AAT?$AAH?$AA?$AA@ 0000000180028490     libucrt:lcidtoname_downlevel.obj
 0002:000064a0       ??_C@_1M@MFLCCMPB@?$AAt?$AAr?$AA?9?$AAT?$AAR?$AA?$AA@ 00000001800284a0     libucrt:lcidtoname_downlevel.obj
 0002:000064b0       ??_C@_1M@OIJHDKJN@?$AAu?$AAr?$AA?9?$AAP?$AAK?$AA?$AA@ 00000001800284b0     libucrt:lcidtoname_downlevel.obj
 0002:000064c0       ??_C@_1M@LHIPCIEK@?$AAi?$AAd?$AA?9?$AAI?$AAD?$AA?$AA@ 00000001800284c0     libucrt:lcidtoname_downlevel.obj
 0002:000064d0       ??_C@_1M@MFMOBGI@?$AAu?$AAk?$AA?9?$AAU?$AAA?$AA?$AA@ 00000001800284d0     libucrt:lcidtoname_downlevel.obj
 0002:000064e0       ??_C@_1M@OBGLJIPL@?$AAb?$AAe?$AA?9?$AAB?$AAY?$AA?$AA@ 00000001800284e0     libucrt:lcidtoname_downlevel.obj
 0002:000064f0       ??_C@_1M@BCFAJEAD@?$AAs?$AAl?$AA?9?$AAS?$AAI?$AA?$AA@ 00000001800284f0     libucrt:lcidtoname_downlevel.obj
 0002:00006500       ??_C@_1M@FKFFEDDN@?$AAe?$AAt?$AA?9?$AAE?$AAE?$AA?$AA@ 0000000180028500     libucrt:lcidtoname_downlevel.obj
 0002:00006510       ??_C@_1M@KGKKAACI@?$AAl?$AAv?$AA?9?$AAL?$AAV?$AA?$AA@ 0000000180028510     libucrt:lcidtoname_downlevel.obj
 0002:00006520       ??_C@_1M@IFGBIJO@?$AAl?$AAt?$AA?9?$AAL?$AAT?$AA?$AA@ 0000000180028520     libucrt:lcidtoname_downlevel.obj
 0002:00006530       ??_C@_1M@FGEAHEDM@?$AAf?$AAa?$AA?9?$AAI?$AAR?$AA?$AA@ 0000000180028530     libucrt:lcidtoname_downlevel.obj
 0002:00006540       ??_C@_1M@KBMAIBFN@?$AAv?$AAi?$AA?9?$AAV?$AAN?$AA?$AA@ 0000000180028540     libucrt:lcidtoname_downlevel.obj
 0002:00006550       ??_C@_1M@GPCBKDJK@?$AAh?$AAy?$AA?9?$AAA?$AAM?$AA?$AA@ 0000000180028550     libucrt:lcidtoname_downlevel.obj
 0002:00006560       ??_C@_1BG@BECMDDJB@?$AAa?$AAz?$AA?9?$AAA?$AAZ?$AA?9?$AAL?$AAa?$AAt?$AAn?$AA?$AA@ 0000000180028560     libucrt:lcidtoname_downlevel.obj
 0002:00006578       ??_C@_1M@MAOFCAEA@?$AAe?$AAu?$AA?9?$AAE?$AAS?$AA?$AA@ 0000000180028578     libucrt:lcidtoname_downlevel.obj
 0002:00006588       ??_C@_1M@IGHABKPI@?$AAm?$AAk?$AA?9?$AAM?$AAK?$AA?$AA@ 0000000180028588     libucrt:lcidtoname_downlevel.obj
 0002:00006598       ??_C@_1M@IAIGNEJG@?$AAt?$AAn?$AA?9?$AAZ?$AAA?$AA?$AA@ 0000000180028598     libucrt:lcidtoname_downlevel.obj
 0002:000065a8       ??_C@_1M@IIJCOJFA@?$AAx?$AAh?$AA?9?$AAZ?$AAA?$AA?$AA@ 00000001800285a8     libucrt:lcidtoname_downlevel.obj
 0002:000065b8       ??_C@_1M@LGPJHNJH@?$AAz?$AAu?$AA?9?$AAZ?$AAA?$AA?$AA@ 00000001800285b8     libucrt:lcidtoname_downlevel.obj
 0002:000065c8       ??_C@_1M@HOKAOIO@?$AAa?$AAf?$AA?9?$AAZ?$AAA?$AA?$AA@ 00000001800285c8     libucrt:lcidtoname_downlevel.obj
 0002:000065d8       ??_C@_1M@DPCLHLIE@?$AAk?$AAa?$AA?9?$AAG?$AAE?$AA?$AA@ 00000001800285d8     libucrt:lcidtoname_downlevel.obj
 0002:000065e8       ??_C@_1M@BLKMHJBI@?$AAf?$AAo?$AA?9?$AAF?$AAO?$AA?$AA@ 00000001800285e8     libucrt:lcidtoname_downlevel.obj
 0002:000065f8       ??_C@_1M@LGGJAPPB@?$AAh?$AAi?$AA?9?$AAI?$AAN?$AA?$AA@ 00000001800285f8     libucrt:lcidtoname_downlevel.obj
 0002:00006608       ??_C@_1M@FIKPIHFE@?$AAm?$AAt?$AA?9?$AAM?$AAT?$AA?$AA@ 0000000180028608     libucrt:lcidtoname_downlevel.obj
 0002:00006618       ??_C@_1M@HEGGPBFA@?$AAs?$AAe?$AA?9?$AAN?$AAO?$AA?$AA@ 0000000180028618     libucrt:lcidtoname_downlevel.obj
 0002:00006628       ??_C@_1M@EIBJEEPA@?$AAm?$AAs?$AA?9?$AAM?$AAY?$AA?$AA@ 0000000180028628     libucrt:lcidtoname_downlevel.obj
 0002:00006638       ??_C@_1M@FHLBGMPP@?$AAk?$AAk?$AA?9?$AAK?$AAZ?$AA?$AA@ 0000000180028638     libucrt:lcidtoname_downlevel.obj
 0002:00006648       ??_C@_1M@NGJJLCGI@?$AAk?$AAy?$AA?9?$AAK?$AAG?$AA?$AA@ 0000000180028648     libucrt:lcidtoname_downlevel.obj
 0002:00006658       ??_C@_1M@GIENNBFC@?$AAs?$AAw?$AA?9?$AAK?$AAE?$AA?$AA@ 0000000180028658     libucrt:lcidtoname_downlevel.obj
 0002:00006668       ??_C@_1BG@NDGMJIMJ@?$AAu?$AAz?$AA?9?$AAU?$AAZ?$AA?9?$AAL?$AAa?$AAt?$AAn?$AA?$AA@ 0000000180028668     libucrt:lcidtoname_downlevel.obj
 0002:00006680       ??_C@_1M@IDCCIHBC@?$AAt?$AAt?$AA?9?$AAR?$AAU?$AA?$AA@ 0000000180028680     libucrt:lcidtoname_downlevel.obj
 0002:00006690       ??_C@_1M@LOICPMOJ@?$AAb?$AAn?$AA?9?$AAI?$AAN?$AA?$AA@ 0000000180028690     libucrt:lcidtoname_downlevel.obj
 0002:000066a0       ??_C@_1M@KPKKNEAH@?$AAp?$AAa?$AA?9?$AAI?$AAN?$AA?$AA@ 00000001800286a0     libucrt:lcidtoname_downlevel.obj
 0002:000066b0       ??_C@_1M@PJGPPBOG@?$AAg?$AAu?$AA?9?$AAI?$AAN?$AA?$AA@ 00000001800286b0     libucrt:lcidtoname_downlevel.obj
 0002:000066c0       ??_C@_1M@KMKMOPHI@?$AAt?$AAa?$AA?9?$AAI?$AAN?$AA?$AA@ 00000001800286c0     libucrt:lcidtoname_downlevel.obj
 0002:000066d0       ??_C@_1M@KFEHEPAC@?$AAt?$AAe?$AA?9?$AAI?$AAN?$AA?$AA@ 00000001800286d0     libucrt:lcidtoname_downlevel.obj
 0002:000066e0       ??_C@_1M@CDCLMGHI@?$AAk?$AAn?$AA?9?$AAI?$AAN?$AA?$AA@ 00000001800286e0     libucrt:lcidtoname_downlevel.obj
 0002:000066f0       ??_C@_1M@MIODLDKF@?$AAm?$AAl?$AA?9?$AAI?$AAN?$AA?$AA@ 00000001800286f0     libucrt:lcidtoname_downlevel.obj
 0002:00006700       ??_C@_1M@PBIEACPO@?$AAm?$AAr?$AA?9?$AAI?$AAN?$AA?$AA@ 0000000180028700     libucrt:lcidtoname_downlevel.obj
 0002:00006710       ??_C@_1M@NIDEAGPH@?$AAs?$AAa?$AA?9?$AAI?$AAN?$AA?$AA@ 0000000180028710     libucrt:lcidtoname_downlevel.obj
 0002:00006720       ??_C@_1M@FHIHCBIO@?$AAm?$AAn?$AA?9?$AAM?$AAN?$AA?$AA@ 0000000180028720     libucrt:lcidtoname_downlevel.obj
 0002:00006730       ??_C@_1M@JAIJPENP@?$AAc?$AAy?$AA?9?$AAG?$AAB?$AA?$AA@ 0000000180028730     libucrt:lcidtoname_downlevel.obj
 0002:00006740       ??_C@_1M@PHGFBEPN@?$AAg?$AAl?$AA?9?$AAE?$AAS?$AA?$AA@ 0000000180028740     libucrt:lcidtoname_downlevel.obj
 0002:00006750       ??_C@_1O@KPIPDNCP@?$AAk?$AAo?$AAk?$AA?9?$AAI?$AAN?$AA?$AA@ 0000000180028750     libucrt:lcidtoname_downlevel.obj
 0002:00006760       ??_C@_1O@KNHJLDJA@?$AAs?$AAy?$AAr?$AA?9?$AAS?$AAY?$AA?$AA@ 0000000180028760     libucrt:lcidtoname_downlevel.obj
 0002:00006770       ??_C@_1O@MKEKBLAH@?$AAd?$AAi?$AAv?$AA?9?$AAM?$AAV?$AA?$AA@ 0000000180028770     libucrt:lcidtoname_downlevel.obj
 0002:00006780       ??_C@_1O@OHDCKDDF@?$AAq?$AAu?$AAz?$AA?9?$AAB?$AAO?$AA?$AA@ 0000000180028780     libucrt:lcidtoname_downlevel.obj
 0002:00006790       ??_C@_1M@LEPJNLFD@?$AAn?$AAs?$AA?9?$AAZ?$AAA?$AA?$AA@ 0000000180028790     libucrt:lcidtoname_downlevel.obj
 0002:000067a0       ??_C@_1M@OMLEIIJB@?$AAm?$AAi?$AA?9?$AAN?$AAZ?$AA?$AA@ 00000001800287a0     libucrt:lcidtoname_downlevel.obj
 0002:000067b0       ??_C@_1M@PMPEAILG@?$AAa?$AAr?$AA?9?$AAI?$AAQ?$AA?$AA@ 00000001800287b0     libucrt:lcidtoname_downlevel.obj
 0002:000067c0       ??_C@_1M@CNKPNOEE@?$AAd?$AAe?$AA?9?$AAC?$AAH?$AA?$AA@ 00000001800287c0     libucrt:lcidtoname_downlevel.obj
 0002:000067d0       ??_C@_1M@LKMGMLKO@?$AAe?$AAn?$AA?9?$AAG?$AAB?$AA?$AA@ 00000001800287d0     libucrt:lcidtoname_downlevel.obj
 0002:000067e0       ??_C@_1M@PGKJFFGL@?$AAe?$AAs?$AA?9?$AAM?$AAX?$AA?$AA@ 00000001800287e0     libucrt:lcidtoname_downlevel.obj
 0002:000067f0       ??_C@_1M@DNNANBDC@?$AAf?$AAr?$AA?9?$AAB?$AAE?$AA?$AA@ 00000001800287f0     libucrt:lcidtoname_downlevel.obj
 0002:00006800       ??_C@_1M@HLGMDFHM@?$AAi?$AAt?$AA?9?$AAC?$AAH?$AA?$AA@ 0000000180028800     libucrt:lcidtoname_downlevel.obj
 0002:00006810       ??_C@_1M@CLLBGJH@?$AAn?$AAl?$AA?9?$AAB?$AAE?$AA?$AA@ 0000000180028810     libucrt:lcidtoname_downlevel.obj
 0002:00006820       ??_C@_1M@BODBOGLF@?$AAn?$AAn?$AA?9?$AAN?$AAO?$AA?$AA@ 0000000180028820     libucrt:lcidtoname_downlevel.obj
 0002:00006830       ??_C@_1M@HFFAHKAD@?$AAp?$AAt?$AA?9?$AAP?$AAT?$AA?$AA@ 0000000180028830     libucrt:lcidtoname_downlevel.obj
 0002:00006840       ??_C@_1BG@LNOAKHIE@?$AAs?$AAr?$AA?9?$AAS?$AAP?$AA?9?$AAL?$AAa?$AAt?$AAn?$AA?$AA@ 0000000180028840     libucrt:lcidtoname_downlevel.obj
 0002:00006858       ??_C@_1M@HBMHBGAK@?$AAs?$AAv?$AA?9?$AAF?$AAI?$AA?$AA@ 0000000180028858     libucrt:lcidtoname_downlevel.obj
 0002:00006868       ??_C@_1BG@DGCJGJBE@?$AAa?$AAz?$AA?9?$AAA?$AAZ?$AA?9?$AAC?$AAy?$AAr?$AAl?$AA?$AA@ 0000000180028868     libucrt:lcidtoname_downlevel.obj
 0002:00006880       ??_C@_1M@KEJDAAHB@?$AAs?$AAe?$AA?9?$AAS?$AAE?$AA?$AA@ 0000000180028880     libucrt:lcidtoname_downlevel.obj
 0002:00006890       ??_C@_1M@HEIBJJAD@?$AAm?$AAs?$AA?9?$AAB?$AAN?$AA?$AA@ 0000000180028890     libucrt:lcidtoname_downlevel.obj
 0002:000068a0       ??_C@_1BG@PBGJMCEM@?$AAu?$AAz?$AA?9?$AAU?$AAZ?$AA?9?$AAC?$AAy?$AAr?$AAl?$AA?$AA@ 00000001800288a0     libucrt:lcidtoname_downlevel.obj
 0002:000068b8       ??_C@_1O@LAOBCMDF@?$AAq?$AAu?$AAz?$AA?9?$AAE?$AAC?$AA?$AA@ 00000001800288b8     libucrt:lcidtoname_downlevel.obj
 0002:000068c8       ??_C@_1M@POEEMAIO@?$AAa?$AAr?$AA?9?$AAE?$AAG?$AA?$AA@ 00000001800288c8     libucrt:lcidtoname_downlevel.obj
 0002:000068d8       ??_C@_1M@EFAKDEDL@?$AAz?$AAh?$AA?9?$AAH?$AAK?$AA?$AA@ 00000001800288d8     libucrt:lcidtoname_downlevel.obj
 0002:000068e8       ??_C@_1M@HKKIJHGI@?$AAd?$AAe?$AA?9?$AAA?$AAT?$AA?$AA@ 00000001800288e8     libucrt:lcidtoname_downlevel.obj
 0002:000068f8       ??_C@_1M@KBFBEHJF@?$AAe?$AAn?$AA?9?$AAA?$AAU?$AA?$AA@ 00000001800288f8     libucrt:lcidtoname_downlevel.obj
 0002:00006908       ??_C@_1M@MNPLFAAH@?$AAe?$AAs?$AA?9?$AAE?$AAS?$AA?$AA@ 0000000180028908     libucrt:lcidtoname_downlevel.obj
 0002:00006918       ??_C@_1M@HJOOJFMA@?$AAf?$AAr?$AA?9?$AAC?$AAA?$AA?$AA@ 0000000180028918     libucrt:lcidtoname_downlevel.obj
 0002:00006928       ??_C@_1BG@JPOFPNAB@?$AAs?$AAr?$AA?9?$AAS?$AAP?$AA?9?$AAC?$AAy?$AAr?$AAl?$AA?$AA@ 0000000180028928     libucrt:lcidtoname_downlevel.obj
 0002:00006940       ??_C@_1M@LNFOCMOB@?$AAs?$AAe?$AA?9?$AAF?$AAI?$AA?$AA@ 0000000180028940     libucrt:lcidtoname_downlevel.obj
 0002:00006950       ??_C@_1O@MGJBOAMB@?$AAq?$AAu?$AAz?$AA?9?$AAP?$AAE?$AA?$AA@ 0000000180028950     libucrt:lcidtoname_downlevel.obj
 0002:00006960       ??_C@_1M@GJINLBOK@?$AAa?$AAr?$AA?9?$AAL?$AAY?$AA?$AA@ 0000000180028960     libucrt:lcidtoname_downlevel.obj
 0002:00006970       ??_C@_1M@GGMNHJNL@?$AAz?$AAh?$AA?9?$AAS?$AAG?$AA?$AA@ 0000000180028970     libucrt:lcidtoname_downlevel.obj
 0002:00006980       ??_C@_1M@HOIKODND@?$AAd?$AAe?$AA?9?$AAL?$AAU?$AA?$AA@ 0000000180028980     libucrt:lcidtoname_downlevel.obj
 0002:00006990       ??_C@_1M@DDOCCGFG@?$AAe?$AAn?$AA?9?$AAC?$AAA?$AA?$AA@ 0000000180028990     libucrt:lcidtoname_downlevel.obj
 0002:000069a0       ??_C@_1M@BNOEMJLF@?$AAe?$AAs?$AA?9?$AAG?$AAT?$AA?$AA@ 00000001800289a0     libucrt:lcidtoname_downlevel.obj
 0002:000069b0       ??_C@_1M@EOGNKEK@?$AAf?$AAr?$AA?9?$AAC?$AAH?$AA?$AA@ 00000001800289b0     libucrt:lcidtoname_downlevel.obj
 0002:000069c0       ??_C@_1M@FLIDJFHL@?$AAh?$AAr?$AA?9?$AAB?$AAA?$AA?$AA@ 00000001800289c0     libucrt:lcidtoname_downlevel.obj
 0002:000069d0       ??_C@_1O@FMCELNAJ@?$AAs?$AAm?$AAj?$AA?9?$AAN?$AAO?$AA?$AA@ 00000001800289d0     libucrt:lcidtoname_downlevel.obj
 0002:000069e0       ??_C@_1M@JHGLJMGJ@?$AAa?$AAr?$AA?9?$AAD?$AAZ?$AA?$AA@ 00000001800289e0     libucrt:lcidtoname_downlevel.obj
 0002:000069f0       ??_C@_1M@JKKFDCNP@?$AAz?$AAh?$AA?9?$AAM?$AAO?$AA?$AA@ 00000001800289f0     libucrt:lcidtoname_downlevel.obj
 0002:00006a00       ??_C@_1M@GEEFALPE@?$AAd?$AAe?$AA?9?$AAL?$AAI?$AA?$AA@ 0000000180028a00     libucrt:lcidtoname_downlevel.obj
 0002:00006a10       ??_C@_1M@IGEOFBG@?$AAe?$AAn?$AA?9?$AAN?$AAZ?$AA?$AA@ 0000000180028a10     libucrt:lcidtoname_downlevel.obj
 0002:00006a20       ??_C@_1M@KDBONEHP@?$AAe?$AAs?$AA?9?$AAC?$AAR?$AA?$AA@ 0000000180028a20     libucrt:lcidtoname_downlevel.obj
 0002:00006a30       ??_C@_1M@FHMDOHNN@?$AAf?$AAr?$AA?9?$AAL?$AAU?$AA?$AA@ 0000000180028a30     libucrt:lcidtoname_downlevel.obj
 0002:00006a40       ??_C@_1BG@NFKKMAFG@?$AAb?$AAs?$AA?9?$AAB?$AAA?$AA?9?$AAL?$AAa?$AAt?$AAn?$AA?$AA@ 0000000180028a40     libucrt:lcidtoname_downlevel.obj
 0002:00006a58       ??_C@_1O@IMNBEMCI@?$AAs?$AAm?$AAj?$AA?9?$AAS?$AAE?$AA?$AA@ 0000000180028a58     libucrt:lcidtoname_downlevel.obj
 0002:00006a68       ??_C@_1M@DHHMBNDP@?$AAa?$AAr?$AA?9?$AAM?$AAA?$AA?$AA@ 0000000180028a68     libucrt:lcidtoname_downlevel.obj
 0002:00006a78       ??_C@_1M@BNBLJCGH@?$AAe?$AAn?$AA?9?$AAI?$AAE?$AA?$AA@ 0000000180028a78     libucrt:lcidtoname_downlevel.obj
 0002:00006a88       ??_C@_1M@GEPAFMDL@?$AAe?$AAs?$AA?9?$AAP?$AAA?$AA?$AA@ 0000000180028a88     libucrt:lcidtoname_downlevel.obj
 0002:00006a98       ??_C@_1M@OJONDMDL@?$AAf?$AAr?$AA?9?$AAM?$AAC?$AA?$AA@ 0000000180028a98     libucrt:lcidtoname_downlevel.obj
 0002:00006aa8       ??_C@_1BG@OBCNFJB@?$AAs?$AAr?$AA?9?$AAB?$AAA?$AA?9?$AAL?$AAa?$AAt?$AAn?$AA?$AA@ 0000000180028aa8     libucrt:lcidtoname_downlevel.obj
 0002:00006ac0       ??_C@_1O@KEMEEGPO@?$AAs?$AAm?$AAa?$AA?9?$AAN?$AAO?$AA?$AA@ 0000000180028ac0     libucrt:lcidtoname_downlevel.obj
 0002:00006ad0       ??_C@_1M@ELMGFODK@?$AAa?$AAr?$AA?9?$AAT?$AAN?$AA?$AA@ 0000000180028ad0     libucrt:lcidtoname_downlevel.obj
 0002:00006ae0       ??_C@_1M@BHDLHFAF@?$AAe?$AAn?$AA?9?$AAZ?$AAA?$AA?$AA@ 0000000180028ae0     libucrt:lcidtoname_downlevel.obj
 0002:00006af0       ??_C@_1M@BMGIGLIF@?$AAe?$AAs?$AA?9?$AAD?$AAO?$AA?$AA@ 0000000180028af0     libucrt:lcidtoname_downlevel.obj
 0002:00006b00       ??_C@_1BG@CMBHIPBE@?$AAs?$AAr?$AA?9?$AAB?$AAA?$AA?9?$AAC?$AAy?$AAr?$AAl?$AA?$AA@ 0000000180028b00     libucrt:lcidtoname_downlevel.obj
 0002:00006b18       ??_C@_1O@HEDBLHNP@?$AAs?$AAm?$AAa?$AA?9?$AAS?$AAE?$AA?$AA@ 0000000180028b18     libucrt:lcidtoname_downlevel.obj
 0002:00006b28       ??_C@_1M@DAGCADIM@?$AAa?$AAr?$AA?9?$AAO?$AAM?$AA?$AA@ 0000000180028b28     libucrt:lcidtoname_downlevel.obj
 0002:00006b38       ??_C@_1M@FODLMICG@?$AAe?$AAn?$AA?9?$AAJ?$AAM?$AA?$AA@ 0000000180028b38     libucrt:lcidtoname_downlevel.obj
 0002:00006b48       ??_C@_1M@DNMLCIHB@?$AAe?$AAs?$AA?9?$AAV?$AAE?$AA?$AA@ 0000000180028b48     libucrt:lcidtoname_downlevel.obj
 0002:00006b58       ??_C@_1O@EOKHMKJK@?$AAs?$AAm?$AAs?$AA?9?$AAF?$AAI?$AA?$AA@ 0000000180028b58     libucrt:lcidtoname_downlevel.obj
 0002:00006b68       ??_C@_1M@CAFJMKOF@?$AAa?$AAr?$AA?9?$AAY?$AAE?$AA?$AA@ 0000000180028b68     libucrt:lcidtoname_downlevel.obj
 0002:00006b78       ??_C@_1M@CBFHIJLI@?$AAe?$AAn?$AA?9?$AAC?$AAB?$AA?$AA@ 0000000180028b78     libucrt:lcidtoname_downlevel.obj
 0002:00006b88       ??_C@_1M@BGNFLDN@?$AAe?$AAs?$AA?9?$AAC?$AAO?$AA?$AA@ 0000000180028b88     libucrt:lcidtoname_downlevel.obj
 0002:00006b98       ??_C@_1O@JMPHMAMC@?$AAs?$AAm?$AAn?$AA?9?$AAF?$AAI?$AA?$AA@ 0000000180028b98     libucrt:lcidtoname_downlevel.obj
 0002:00006ba8       ??_C@_1M@JLANABKE@?$AAa?$AAr?$AA?9?$AAS?$AAY?$AA?$AA@ 0000000180028ba8     libucrt:lcidtoname_downlevel.obj
 0002:00006bb8       ??_C@_1M@HPKGCFGN@?$AAe?$AAn?$AA?9?$AAB?$AAZ?$AA?$AA@ 0000000180028bb8     libucrt:lcidtoname_downlevel.obj
 0002:00006bc8       ??_C@_1M@OLJCMLGM@?$AAe?$AAs?$AA?9?$AAP?$AAE?$AA?$AA@ 0000000180028bc8     libucrt:lcidtoname_downlevel.obj
 0002:00006bd8       ??_C@_1M@MKKGFKLE@?$AAa?$AAr?$AA?9?$AAJ?$AAO?$AA?$AA@ 0000000180028bd8     libucrt:lcidtoname_downlevel.obj
 0002:00006be8       ??_C@_1M@EKPGLDNI@?$AAe?$AAn?$AA?9?$AAT?$AAT?$AA?$AA@ 0000000180028be8     libucrt:lcidtoname_downlevel.obj
 0002:00006bf8       ??_C@_1M@OONGHFHE@?$AAe?$AAs?$AA?9?$AAA?$AAR?$AA?$AA@ 0000000180028bf8     libucrt:lcidtoname_downlevel.obj
 0002:00006c08       ??_C@_1M@OOJFGBHE@?$AAa?$AAr?$AA?9?$AAL?$AAB?$AA?$AA@ 0000000180028c08     libucrt:lcidtoname_downlevel.obj
 0002:00006c18       ??_C@_1M@GCEJHNEG@?$AAe?$AAn?$AA?9?$AAZ?$AAW?$AA?$AA@ 0000000180028c18     libucrt:lcidtoname_downlevel.obj
 0002:00006c28       ??_C@_1M@JNOCAHJI@?$AAe?$AAs?$AA?9?$AAE?$AAC?$AA?$AA@ 0000000180028c28     libucrt:lcidtoname_downlevel.obj
 0002:00006c38       ??_C@_1M@JEFHPGGB@?$AAa?$AAr?$AA?9?$AAK?$AAW?$AA?$AA@ 0000000180028c38     libucrt:lcidtoname_downlevel.obj
 0002:00006c48       ??_C@_1M@MLKIBJOJ@?$AAe?$AAn?$AA?9?$AAP?$AAH?$AA?$AA@ 0000000180028c48     libucrt:lcidtoname_downlevel.obj
 0002:00006c58       ??_C@_1M@BDNIPEND@?$AAe?$AAs?$AA?9?$AAC?$AAL?$AA?$AA@ 0000000180028c58     libucrt:lcidtoname_downlevel.obj
 0002:00006c68       ??_C@_1M@MPNMEKBD@?$AAa?$AAr?$AA?9?$AAA?$AAE?$AA?$AA@ 0000000180028c68     libucrt:lcidtoname_downlevel.obj
 0002:00006c78       ??_C@_1M@KBJALCPI@?$AAe?$AAs?$AA?9?$AAU?$AAY?$AA?$AA@ 0000000180028c78     libucrt:lcidtoname_downlevel.obj
 0002:00006c88       ??_C@_1M@LLCCOAGA@?$AAa?$AAr?$AA?9?$AAB?$AAH?$AA?$AA@ 0000000180028c88     libucrt:lcidtoname_downlevel.obj
 0002:00006c98       ??_C@_1M@PBFNCDEL@?$AAe?$AAs?$AA?9?$AAP?$AAY?$AA?$AA@ 0000000180028c98     libucrt:lcidtoname_downlevel.obj
 0002:00006ca8       ??_C@_1M@EDGINPNP@?$AAa?$AAr?$AA?9?$AAQ?$AAA?$AA?$AA@ 0000000180028ca8     libucrt:lcidtoname_downlevel.obj
 0002:00006cb8       ??_C@_1M@MKDBIIJI@?$AAe?$AAs?$AA?9?$AAB?$AAO?$AA?$AA@ 0000000180028cb8     libucrt:lcidtoname_downlevel.obj
 0002:00006cc8       ??_C@_1M@CPKKEBLD@?$AAe?$AAs?$AA?9?$AAS?$AAV?$AA?$AA@ 0000000180028cc8     libucrt:lcidtoname_downlevel.obj
 0002:00006cd8       ??_C@_1M@NDBGMMJL@?$AAe?$AAs?$AA?9?$AAH?$AAN?$AA?$AA@ 0000000180028cd8     libucrt:lcidtoname_downlevel.obj
 0002:00006ce8       ??_C@_1M@JIJIBHDP@?$AAe?$AAs?$AA?9?$AAN?$AAI?$AA?$AA@ 0000000180028ce8     libucrt:lcidtoname_downlevel.obj
 0002:00006cf8       ??_C@_1M@CGFMKEEK@?$AAe?$AAs?$AA?9?$AAP?$AAR?$AA?$AA@ 0000000180028cf8     libucrt:lcidtoname_downlevel.obj
 0002:00006d08       ??_C@_1O@ICJHKIIK@?$AAz?$AAh?$AA?9?$AAC?$AAH?$AAT?$AA?$AA@ 0000000180028d08     libucrt:lcidtoname_downlevel.obj
 0002:00006d18       ??_C@_15CLNEJCE@?$AAs?$AAr?$AA?$AA@ 0000000180028d18     libucrt:lcidtoname_downlevel.obj
 0002:00007b60       ??_C@_1M@KAHEKEIG@?$AAa?$AAf?$AA?9?$AAz?$AAa?$AA?$AA@ 0000000180029b60     libucrt:lcidtoname_downlevel.obj
 0002:00007b70       ??_C@_1M@GIECOABL@?$AAa?$AAr?$AA?9?$AAa?$AAe?$AA?$AA@ 0000000180029b70     libucrt:lcidtoname_downlevel.obj
 0002:00007b80       ??_C@_1M@BMLMEKGI@?$AAa?$AAr?$AA?9?$AAb?$AAh?$AA?$AA@ 0000000180029b80     libucrt:lcidtoname_downlevel.obj
 0002:00007b90       ??_C@_1M@DAPFDGGB@?$AAa?$AAr?$AA?9?$AAd?$AAz?$AA?$AA@ 0000000180029b90     libucrt:lcidtoname_downlevel.obj
 0002:00007ba0       ??_C@_1M@FJNKGKIG@?$AAa?$AAr?$AA?9?$AAe?$AAg?$AA?$AA@ 0000000180029ba0     libucrt:lcidtoname_downlevel.obj
 0002:00007bb0       ??_C@_1M@FLGKKCLO@?$AAa?$AAr?$AA?9?$AAi?$AAq?$AA?$AA@ 0000000180029bb0     libucrt:lcidtoname_downlevel.obj
 0002:00007bc0       ??_C@_1M@GNDIPALM@?$AAa?$AAr?$AA?9?$AAj?$AAo?$AA?$AA@ 0000000180029bc0     libucrt:lcidtoname_downlevel.obj
 0002:00007bd0       ??_C@_1M@DDMJFMGJ@?$AAa?$AAr?$AA?9?$AAk?$AAw?$AA?$AA@ 0000000180029bd0     libucrt:lcidtoname_downlevel.obj
 0002:00007be0       ??_C@_1M@EJALMLHM@?$AAa?$AAr?$AA?9?$AAl?$AAb?$AA?$AA@ 0000000180029be0     libucrt:lcidtoname_downlevel.obj
 0002:00007bf0       ??_C@_1M@MOBDBLOC@?$AAa?$AAr?$AA?9?$AAl?$AAy?$AA?$AA@ 0000000180029bf0     libucrt:lcidtoname_downlevel.obj
 0002:00007c00       ??_C@_1M@JAOCLHDH@?$AAa?$AAr?$AA?9?$AAm?$AAa?$AA?$AA@ 0000000180029c00     libucrt:lcidtoname_downlevel.obj
 0002:00007c10       ??_C@_1M@JHPMKJIE@?$AAa?$AAr?$AA?9?$AAo?$AAm?$AA?$AA@ 0000000180029c10     libucrt:lcidtoname_downlevel.obj
 0002:00007c20       ??_C@_1M@OEPGHFNH@?$AAa?$AAr?$AA?9?$AAq?$AAa?$AA?$AA@ 0000000180029c20     libucrt:lcidtoname_downlevel.obj
 0002:00007c30       ??_C@_1M@KJDONENM@?$AAa?$AAr?$AA?9?$AAs?$AAa?$AA?$AA@ 0000000180029c30     libucrt:lcidtoname_downlevel.obj
 0002:00007c40       ??_C@_1M@DMJDKLKM@?$AAa?$AAr?$AA?9?$AAs?$AAy?$AA?$AA@ 0000000180029c40     libucrt:lcidtoname_downlevel.obj
 0002:00007c50       ??_C@_1M@OMFIPEDC@?$AAa?$AAr?$AA?9?$AAt?$AAn?$AA?$AA@ 0000000180029c50     libucrt:lcidtoname_downlevel.obj
 0002:00007c60       ??_C@_1M@IHMHGAON@?$AAa?$AAr?$AA?9?$AAy?$AAe?$AA?$AA@ 0000000180029c60     libucrt:lcidtoname_downlevel.obj
 0002:00007c70       ??_C@_1BG@KDCPGJGB@?$AAa?$AAz?$AA?9?$AAa?$AAz?$AA?9?$AAc?$AAy?$AAr?$AAl?$AA?$AA@ 0000000180029c70     libucrt:lcidtoname_downlevel.obj
 0002:00007c88       ??_C@_1BG@IBCKDDOE@?$AAa?$AAz?$AA?9?$AAa?$AAz?$AA?9?$AAl?$AAa?$AAt?$AAn?$AA?$AA@ 0000000180029c88     libucrt:lcidtoname_downlevel.obj
 0002:00007ca0       ??_C@_1M@EGPFDCPD@?$AAb?$AAe?$AA?9?$AAb?$AAy?$AA?$AA@ 0000000180029ca0     libucrt:lcidtoname_downlevel.obj
 0002:00007cb0       ??_C@_1M@PCMGMCGC@?$AAb?$AAg?$AA?9?$AAb?$AAg?$AA?$AA@ 0000000180029cb0     libucrt:lcidtoname_downlevel.obj
 0002:00007cc0       ??_C@_1M@BJBMFGOB@?$AAb?$AAn?$AA?9?$AAi?$AAn?$AA?$AA@ 0000000180029cc0     libucrt:lcidtoname_downlevel.obj
 0002:00007cd0       ??_C@_1BG@EAKMMACD@?$AAb?$AAs?$AA?9?$AAb?$AAa?$AA?9?$AAl?$AAa?$AAt?$AAn?$AA?$AA@ 0000000180029cd0     libucrt:lcidtoname_downlevel.obj
 0002:00007ce8       ??_C@_1M@KGADAODK@?$AAc?$AAa?$AA?9?$AAe?$AAs?$AA?$AA@ 0000000180029ce8     libucrt:lcidtoname_downlevel.obj
 0002:00007cf8       ??_C@_1M@COAJPDHI@?$AAc?$AAs?$AA?9?$AAc?$AAz?$AA?$AA@ 0000000180029cf8     libucrt:lcidtoname_downlevel.obj
 0002:00007d08       ??_C@_1M@DHBHFONH@?$AAc?$AAy?$AA?9?$AAg?$AAb?$AA?$AA@ 0000000180029d08     libucrt:lcidtoname_downlevel.obj
 0002:00007d18       ??_C@_1M@IMGKELGA@?$AAd?$AAa?$AA?9?$AAd?$AAk?$AA?$AA@ 0000000180029d18     libucrt:lcidtoname_downlevel.obj
 0002:00007d28       ??_C@_1M@NNDGDNGA@?$AAd?$AAe?$AA?9?$AAa?$AAt?$AA?$AA@ 0000000180029d28     libucrt:lcidtoname_downlevel.obj
 0002:00007d38       ??_C@_1M@IKDBHEEM@?$AAd?$AAe?$AA?9?$AAc?$AAh?$AA?$AA@ 0000000180029d38     libucrt:lcidtoname_downlevel.obj
 0002:00007d48       ??_C@_1M@GFFOJMCJ@?$AAd?$AAe?$AA?9?$AAd?$AAe?$AA?$AA@ 0000000180029d48     libucrt:lcidtoname_downlevel.obj
 0002:00007d58       ??_C@_1M@MDNLKBPM@?$AAd?$AAe?$AA?9?$AAl?$AAi?$AA?$AA@ 0000000180029d58     libucrt:lcidtoname_downlevel.obj
 0002:00007d68       ??_C@_1M@NJBEEJNL@?$AAd?$AAe?$AA?9?$AAl?$AAu?$AA?$AA@ 0000000180029d68     libucrt:lcidtoname_downlevel.obj
 0002:00007d78       ??_C@_1O@GNNELBAP@?$AAd?$AAi?$AAv?$AA?9?$AAm?$AAv?$AA?$AA@ 0000000180029d78     libucrt:lcidtoname_downlevel.obj
 0002:00007d88       ??_C@_1M@EJLEOGAE@?$AAe?$AAl?$AA?9?$AAg?$AAr?$AA?$AA@ 0000000180029d88     libucrt:lcidtoname_downlevel.obj
 0002:00007d98       ??_C@_1M@GMPONJN@?$AAe?$AAn?$AA?9?$AAa?$AAu?$AA?$AA@ 0000000180029d98     libucrt:lcidtoname_downlevel.obj
 0002:00007da8       ??_C@_1M@NIDIIPGF@?$AAe?$AAn?$AA?9?$AAb?$AAz?$AA?$AA@ 0000000180029da8     libucrt:lcidtoname_downlevel.obj
 0002:00007db8       ??_C@_1M@JEHMIMFO@?$AAe?$AAn?$AA?9?$AAc?$AAa?$AA?$AA@ 0000000180029db8     libucrt:lcidtoname_downlevel.obj
 0002:00007dc8       ??_C@_1M@IGMJCDLA@?$AAe?$AAn?$AA?9?$AAc?$AAb?$AA?$AA@ 0000000180029dc8     libucrt:lcidtoname_downlevel.obj
 0002:00007dd8       ??_C@_1M@BNFIGBKG@?$AAe?$AAn?$AA?9?$AAg?$AAb?$AA?$AA@ 0000000180029dd8     libucrt:lcidtoname_downlevel.obj
 0002:00007de8       ??_C@_1M@LKIFDIGP@?$AAe?$AAn?$AA?9?$AAi?$AAe?$AA?$AA@ 0000000180029de8     libucrt:lcidtoname_downlevel.obj
 0002:00007df8       ??_C@_1M@PJKFGCCO@?$AAe?$AAn?$AA?9?$AAj?$AAm?$AA?$AA@ 0000000180029df8     libucrt:lcidtoname_downlevel.obj
 0002:00007e08       ??_C@_1M@KPPKEPBO@?$AAe?$AAn?$AA?9?$AAn?$AAz?$AA?$AA@ 0000000180029e08     libucrt:lcidtoname_downlevel.obj
 0002:00007e18       ??_C@_1M@GMDGLDOB@?$AAe?$AAn?$AA?9?$AAp?$AAh?$AA?$AA@ 0000000180029e18     libucrt:lcidtoname_downlevel.obj
 0002:00007e28       ??_C@_1M@ONGIBJNA@?$AAe?$AAn?$AA?9?$AAt?$AAt?$AA?$AA@ 0000000180029e28     libucrt:lcidtoname_downlevel.obj
 0002:00007e38       ??_C@_1M@LLODPCMM@?$AAe?$AAn?$AA?9?$AAu?$AAs?$AA?$AA@ 0000000180029e38     libucrt:lcidtoname_downlevel.obj
 0002:00007e48       ??_C@_1M@LAKFNPAN@?$AAe?$AAn?$AA?9?$AAz?$AAa?$AA?$AA@ 0000000180029e48     libucrt:lcidtoname_downlevel.obj
 0002:00007e58       ??_C@_1M@MFNHNHEO@?$AAe?$AAn?$AA?9?$AAz?$AAw?$AA?$AA@ 0000000180029e58     libucrt:lcidtoname_downlevel.obj
 0002:00007e68       ??_C@_1M@EJEINPHM@?$AAe?$AAs?$AA?9?$AAa?$AAr?$AA?$AA@ 0000000180029e68     libucrt:lcidtoname_downlevel.obj
 0002:00007e78       ??_C@_1M@GNKPCCJA@?$AAe?$AAs?$AA?9?$AAb?$AAo?$AA?$AA@ 0000000180029e78     libucrt:lcidtoname_downlevel.obj
 0002:00007e88       ??_C@_1M@LEEGFONL@?$AAe?$AAs?$AA?9?$AAc?$AAl?$AA?$AA@ 0000000180029e88     libucrt:lcidtoname_downlevel.obj
 0002:00007e98       ??_C@_1M@KGPDPBDF@?$AAe?$AAs?$AA?9?$AAc?$AAo?$AA?$AA@ 0000000180029e98     libucrt:lcidtoname_downlevel.obj
 0002:00007ea8       ??_C@_1M@EIAHOHH@?$AAe?$AAs?$AA?9?$AAc?$AAr?$AA?$AA@ 0000000180029ea8     libucrt:lcidtoname_downlevel.obj
 0002:00007eb8       ??_C@_1M@LLPGMBIN@?$AAe?$AAs?$AA?9?$AAd?$AAo?$AA?$AA@ 0000000180029eb8     libucrt:lcidtoname_downlevel.obj
 0002:00007ec8       ??_C@_1M@DKHMKNJA@?$AAe?$AAs?$AA?9?$AAe?$AAc?$AA?$AA@ 0000000180029ec8     libucrt:lcidtoname_downlevel.obj
 0002:00007ed8       ??_C@_1M@GKGFPKAP@?$AAe?$AAs?$AA?9?$AAe?$AAs?$AA?$AA@ 0000000180029ed8     libucrt:lcidtoname_downlevel.obj
 0002:00007ee8       ??_C@_1M@LKHKGDLN@?$AAe?$AAs?$AA?9?$AAg?$AAt?$AA?$AA@ 0000000180029ee8     libucrt:lcidtoname_downlevel.obj
 0002:00007ef8       ??_C@_1M@HEIIGGJD@?$AAe?$AAs?$AA?9?$AAh?$AAn?$AA?$AA@ 0000000180029ef8     libucrt:lcidtoname_downlevel.obj
 0002:00007f08       ??_C@_1M@FBDHPPGD@?$AAe?$AAs?$AA?9?$AAm?$AAx?$AA?$AA@ 0000000180029f08     libucrt:lcidtoname_downlevel.obj
 0002:00007f18       ??_C@_1M@DPAGLNDH@?$AAe?$AAs?$AA?9?$AAn?$AAi?$AA?$AA@ 0000000180029f18     libucrt:lcidtoname_downlevel.obj
 0002:00007f28       ??_C@_1M@MDGOPGDD@?$AAe?$AAs?$AA?9?$AAp?$AAa?$AA?$AA@ 0000000180029f28     libucrt:lcidtoname_downlevel.obj
 0002:00007f38       ??_C@_1M@EMAMGBGE@?$AAe?$AAs?$AA?9?$AAp?$AAe?$AA?$AA@ 0000000180029f38     libucrt:lcidtoname_downlevel.obj
 0002:00007f48       ??_C@_1M@IBMCAOEC@?$AAe?$AAs?$AA?9?$AAp?$AAr?$AA?$AA@ 0000000180029f48     libucrt:lcidtoname_downlevel.obj
 0002:00007f58       ??_C@_1M@FGMDIJED@?$AAe?$AAs?$AA?9?$AAp?$AAy?$AA?$AA@ 0000000180029f58     libucrt:lcidtoname_downlevel.obj
 0002:00007f68       ??_C@_1M@IIDEOLLL@?$AAe?$AAs?$AA?9?$AAs?$AAv?$AA?$AA@ 0000000180029f68     libucrt:lcidtoname_downlevel.obj
 0002:00007f78       ??_C@_1M@GAOBIPA@?$AAe?$AAs?$AA?9?$AAu?$AAy?$AA?$AA@ 0000000180029f78     libucrt:lcidtoname_downlevel.obj
 0002:00007f88       ??_C@_1M@JKFFICHJ@?$AAe?$AAs?$AA?9?$AAv?$AAe?$AA?$AA@ 0000000180029f88     libucrt:lcidtoname_downlevel.obj
 0002:00007f98       ??_C@_1M@PNMLOJDF@?$AAe?$AAt?$AA?9?$AAe?$AAe?$AA?$AA@ 0000000180029f98     libucrt:lcidtoname_downlevel.obj
 0002:00007fa8       ??_C@_1M@GHHLIKEI@?$AAe?$AAu?$AA?9?$AAe?$AAs?$AA?$AA@ 0000000180029fa8     libucrt:lcidtoname_downlevel.obj
 0002:00007fb8       ??_C@_1M@PBNONODE@?$AAf?$AAa?$AA?9?$AAi?$AAr?$AA?$AA@ 0000000180029fb8     libucrt:lcidtoname_downlevel.obj
 0002:00007fc8       ??_C@_1M@JEEHPMIL@?$AAf?$AAi?$AA?9?$AAf?$AAi?$AA?$AA@ 0000000180029fc8     libucrt:lcidtoname_downlevel.obj
 0002:00007fd8       ??_C@_1M@LMDCNDBA@?$AAf?$AAo?$AA?9?$AAf?$AAo?$AA?$AA@ 0000000180029fd8     libucrt:lcidtoname_downlevel.obj
 0002:00007fe8       ??_C@_1M@JKEOHLDK@?$AAf?$AAr?$AA?9?$AAb?$AAe?$AA?$AA@ 0000000180029fe8     libucrt:lcidtoname_downlevel.obj
 0002:00007ff8       ??_C@_1M@NOHADPMI@?$AAf?$AAr?$AA?9?$AAc?$AAa?$AA?$AA@ 0000000180029ff8     libucrt:lcidtoname_downlevel.obj
 0002:00008008       ??_C@_1M@KDHIHAEC@?$AAf?$AAr?$AA?9?$AAc?$AAh?$AA?$AA@ 000000018002a008     libucrt:lcidtoname_downlevel.obj
 0002:00008018       ??_C@_1M@MMBBFGAK@?$AAf?$AAr?$AA?9?$AAf?$AAr?$AA?$AA@ 000000018002a018     libucrt:lcidtoname_downlevel.obj
 0002:00008028       ??_C@_1M@PAFNENNF@?$AAf?$AAr?$AA?9?$AAl?$AAu?$AA?$AA@ 000000018002a028     libucrt:lcidtoname_downlevel.obj
 0002:00008038       ??_C@_1M@EOHDJGDD@?$AAf?$AAr?$AA?9?$AAm?$AAc?$AA?$AA@ 000000018002a038     libucrt:lcidtoname_downlevel.obj
 0002:00008048       ??_C@_1M@FAPLLOPF@?$AAg?$AAl?$AA?9?$AAe?$AAs?$AA?$AA@ 000000018002a048     libucrt:lcidtoname_downlevel.obj
 0002:00008058       ??_C@_1M@FOPBFLOO@?$AAg?$AAu?$AA?9?$AAi?$AAn?$AA?$AA@ 000000018002a058     libucrt:lcidtoname_downlevel.obj
 0002:00008068       ??_C@_1M@KBMCINPM@?$AAh?$AAe?$AA?9?$AAi?$AAl?$AA?$AA@ 000000018002a068     libucrt:lcidtoname_downlevel.obj
 0002:00008078       ??_C@_1M@BBPHKFPJ@?$AAh?$AAi?$AA?9?$AAi?$AAn?$AA?$AA@ 000000018002a078     libucrt:lcidtoname_downlevel.obj
 0002:00008088       ??_C@_1M@PMBNDPHD@?$AAh?$AAr?$AA?9?$AAb?$AAa?$AA?$AA@ 000000018002a088     libucrt:lcidtoname_downlevel.obj
 0002:00008098       ??_C@_1M@BPCKOEGE@?$AAh?$AAr?$AA?9?$AAh?$AAr?$AA?$AA@ 000000018002a098     libucrt:lcidtoname_downlevel.obj
 0002:000080a8       ??_C@_1M@GACBMHKE@?$AAh?$AAu?$AA?9?$AAh?$AAu?$AA?$AA@ 000000018002a0a8     libucrt:lcidtoname_downlevel.obj
 0002:000080b8       ??_C@_1M@MILPAJJC@?$AAh?$AAy?$AA?9?$AAa?$AAm?$AA?$AA@ 000000018002a0b8     libucrt:lcidtoname_downlevel.obj
 0002:000080c8       ??_C@_1M@BABBICEC@?$AAi?$AAd?$AA?9?$AAi?$AAd?$AA?$AA@ 000000018002a0c8     libucrt:lcidtoname_downlevel.obj
 0002:000080d8       ??_C@_1M@BIKNHHPF@?$AAi?$AAs?$AA?9?$AAi?$AAs?$AA?$AA@ 000000018002a0d8     libucrt:lcidtoname_downlevel.obj
 0002:000080e8       ??_C@_1M@NMPCJPHE@?$AAi?$AAt?$AA?9?$AAc?$AAh?$AA?$AA@ 000000018002a0e8     libucrt:lcidtoname_downlevel.obj
 0002:000080f8       ??_C@_1M@GHKGFEDF@?$AAi?$AAt?$AA?9?$AAi?$AAt?$AA?$AA@ 000000018002a0f8     libucrt:lcidtoname_downlevel.obj
 0002:00008108       ??_C@_1M@NIEJCJJA@?$AAj?$AAa?$AA?9?$AAj?$AAp?$AA?$AA@ 000000018002a108     libucrt:lcidtoname_downlevel.obj
 0002:00008118       ??_C@_1M@JILFNBIM@?$AAk?$AAa?$AA?9?$AAg?$AAe?$AA?$AA@ 000000018002a118     libucrt:lcidtoname_downlevel.obj
 0002:00008128       ??_C@_1M@PACPMGPH@?$AAk?$AAk?$AA?9?$AAk?$AAz?$AA?$AA@ 000000018002a128     libucrt:lcidtoname_downlevel.obj
 0002:00008138       ??_C@_1M@IELFGMHA@?$AAk?$AAn?$AA?9?$AAi?$AAn?$AA?$AA@ 000000018002a138     libucrt:lcidtoname_downlevel.obj
 0002:00008148       ??_C@_1O@IBBJHCH@?$AAk?$AAo?$AAk?$AA?9?$AAi?$AAn?$AA?$AA@ 000000018002a148     libucrt:lcidtoname_downlevel.obj
 0002:00008158       ??_C@_1M@DMHAEOGC@?$AAk?$AAo?$AA?9?$AAk?$AAr?$AA?$AA@ 000000018002a158     libucrt:lcidtoname_downlevel.obj
 0002:00008168       ??_C@_1M@HBAHBIGA@?$AAk?$AAy?$AA?9?$AAk?$AAg?$AA?$AA@ 000000018002a168     libucrt:lcidtoname_downlevel.obj
 0002:00008178       ??_C@_1M@KPMILCJG@?$AAl?$AAt?$AA?9?$AAl?$AAt?$AA?$AA@ 000000018002a178     libucrt:lcidtoname_downlevel.obj
 0002:00008188       ??_C@_1M@BDEKKCA@?$AAl?$AAv?$AA?9?$AAl?$AAv?$AA?$AA@ 000000018002a188     libucrt:lcidtoname_downlevel.obj
 0002:00008198       ??_C@_1M@ELCKCCJJ@?$AAm?$AAi?$AA?9?$AAn?$AAz?$AA?$AA@ 000000018002a198     libucrt:lcidtoname_downlevel.obj
 0002:000081a8       ??_C@_1M@CBOOLAPA@?$AAm?$AAk?$AA?9?$AAm?$AAk?$AA?$AA@ 000000018002a1a8     libucrt:lcidtoname_downlevel.obj
 0002:000081b8       ??_C@_1M@GPHNBJKN@?$AAm?$AAl?$AA?9?$AAi?$AAn?$AA?$AA@ 000000018002a1b8     libucrt:lcidtoname_downlevel.obj
 0002:000081c8       ??_C@_1M@PABJILIG@?$AAm?$AAn?$AA?9?$AAm?$AAn?$AA?$AA@ 000000018002a1c8     libucrt:lcidtoname_downlevel.obj
 0002:000081d8       ??_C@_1M@FGBKKIPG@?$AAm?$AAr?$AA?9?$AAi?$AAn?$AA?$AA@ 000000018002a1d8     libucrt:lcidtoname_downlevel.obj
 0002:000081e8       ??_C@_1M@NDBPDDAL@?$AAm?$AAs?$AA?9?$AAb?$AAn?$AA?$AA@ 000000018002a1e8     libucrt:lcidtoname_downlevel.obj
 0002:000081f8       ??_C@_1M@OPIHOOPI@?$AAm?$AAs?$AA?9?$AAm?$AAy?$AA?$AA@ 000000018002a1f8     libucrt:lcidtoname_downlevel.obj
 0002:00008208       ??_C@_1M@PPDBCNFM@?$AAm?$AAt?$AA?9?$AAm?$AAt?$AA?$AA@ 000000018002a208     libucrt:lcidtoname_downlevel.obj
 0002:00008218       ??_C@_1M@KDJDKMDD@?$AAn?$AAb?$AA?9?$AAn?$AAo?$AA?$AA@ 000000018002a218     libucrt:lcidtoname_downlevel.obj
 0002:00008228       ??_C@_1M@KFCFLMJP@?$AAn?$AAl?$AA?9?$AAb?$AAe?$AA?$AA@ 000000018002a228     libucrt:lcidtoname_downlevel.obj
 0002:00008238       ??_C@_1M@KPOPDDGO@?$AAn?$AAl?$AA?9?$AAn?$AAl?$AA?$AA@ 000000018002a238     libucrt:lcidtoname_downlevel.obj
 0002:00008248       ??_C@_1M@LJKPEMLN@?$AAn?$AAn?$AA?9?$AAn?$AAo?$AA?$AA@ 000000018002a248     libucrt:lcidtoname_downlevel.obj
 0002:00008258       ??_C@_1M@BDGHHBFL@?$AAn?$AAs?$AA?9?$AAz?$AAa?$AA?$AA@ 000000018002a258     libucrt:lcidtoname_downlevel.obj
 0002:00008268       ??_C@_1M@IDEHOAP@?$AAp?$AAa?$AA?9?$AAi?$AAn?$AA?$AA@ 000000018002a268     libucrt:lcidtoname_downlevel.obj
 0002:00008278       ??_C@_1M@HDBKGOGH@?$AAp?$AAl?$AA?9?$AAp?$AAl?$AA?$AA@ 000000018002a278     libucrt:lcidtoname_downlevel.obj
 0002:00008288       ??_C@_1M@LJLLCMEH@?$AAp?$AAt?$AA?9?$AAb?$AAr?$AA?$AA@ 000000018002a288     libucrt:lcidtoname_downlevel.obj
 0002:00008298       ??_C@_1M@NCMONAAL@?$AAp?$AAt?$AA?9?$AAp?$AAt?$AA?$AA@ 000000018002a298     libucrt:lcidtoname_downlevel.obj
 0002:000082a8       ??_C@_1O@EAKMAJDN@?$AAq?$AAu?$AAz?$AA?9?$AAb?$AAo?$AA?$AA@ 000000018002a2a8     libucrt:lcidtoname_downlevel.obj
 0002:000082b8       ??_C@_1O@BHHPIGDN@?$AAq?$AAu?$AAz?$AA?9?$AAe?$AAc?$AA?$AA@ 000000018002a2b8     libucrt:lcidtoname_downlevel.obj
 0002:000082c8       ??_C@_1O@GBAPEKMJ@?$AAq?$AAu?$AAz?$AA?9?$AAp?$AAe?$AA?$AA@ 000000018002a2c8     libucrt:lcidtoname_downlevel.obj
 0002:000082d8       ??_C@_1M@CLGLEFBO@?$AAr?$AAo?$AA?9?$AAr?$AAo?$AA?$AA@ 000000018002a2d8     libucrt:lcidtoname_downlevel.obj
 0002:000082e8       ??_C@_1M@CEEDODME@?$AAr?$AAu?$AA?9?$AAr?$AAu?$AA?$AA@ 000000018002a2e8     libucrt:lcidtoname_downlevel.obj
 0002:000082f8       ??_C@_1M@HPKKKMPP@?$AAs?$AAa?$AA?9?$AAi?$AAn?$AA?$AA@ 000000018002a2f8     libucrt:lcidtoname_downlevel.obj
 0002:00008308       ??_C@_1M@BKMAIGOJ@?$AAs?$AAe?$AA?9?$AAf?$AAi?$AA?$AA@ 000000018002a308     libucrt:lcidtoname_downlevel.obj
 0002:00008318       ??_C@_1M@NDPIFLFI@?$AAs?$AAe?$AA?9?$AAn?$AAo?$AA?$AA@ 000000018002a318     libucrt:lcidtoname_downlevel.obj
 0002:00008328       ??_C@_1M@DANKKHJ@?$AAs?$AAe?$AA?9?$AAs?$AAe?$AA?$AA@ 000000018002a328     libucrt:lcidtoname_downlevel.obj
 0002:00008338       ??_C@_1M@PNBLONPJ@?$AAs?$AAk?$AA?9?$AAs?$AAk?$AA?$AA@ 000000018002a338     libucrt:lcidtoname_downlevel.obj
 0002:00008348       ??_C@_1M@LFMODOAL@?$AAs?$AAl?$AA?9?$AAs?$AAi?$AA?$AA@ 000000018002a348     libucrt:lcidtoname_downlevel.obj
 0002:00008358       ??_C@_1O@DFKOMPG@?$AAs?$AAm?$AAa?$AA?9?$AAn?$AAo?$AA?$AA@ 000000018002a358     libucrt:lcidtoname_downlevel.obj
 0002:00008368       ??_C@_1O@NDKPBNNH@?$AAs?$AAm?$AAa?$AA?9?$AAs?$AAe?$AA?$AA@ 000000018002a368     libucrt:lcidtoname_downlevel.obj
 0002:00008378       ??_C@_1O@PLLKBHAB@?$AAs?$AAm?$AAj?$AA?9?$AAn?$AAo?$AA?$AA@ 000000018002a378     libucrt:lcidtoname_downlevel.obj
 0002:00008388       ??_C@_1O@CLEPOGCA@?$AAs?$AAm?$AAj?$AA?9?$AAs?$AAe?$AA?$AA@ 000000018002a388     libucrt:lcidtoname_downlevel.obj
 0002:00008398       ??_C@_1O@DLGJGKMK@?$AAs?$AAm?$AAn?$AA?9?$AAf?$AAi?$AA?$AA@ 000000018002a398     libucrt:lcidtoname_downlevel.obj
 0002:000083a8       ??_C@_1O@OJDJGAJC@?$AAs?$AAm?$AAs?$AA?9?$AAf?$AAi?$AA?$AA@ 000000018002a3a8     libucrt:lcidtoname_downlevel.obj
 0002:000083b8       ??_C@_1M@BOFOGHPB@?$AAs?$AAq?$AA?9?$AAa?$AAl?$AA?$AA@ 000000018002a3b8     libucrt:lcidtoname_downlevel.obj
 0002:000083c8       ??_C@_1BG@LJBBIPGB@?$AAs?$AAr?$AA?9?$AAb?$AAa?$AA?9?$AAc?$AAy?$AAr?$AAl?$AA?$AA@ 000000018002a3c8     libucrt:lcidtoname_downlevel.obj
 0002:000083e0       ??_C@_1BG@JLBENFOE@?$AAs?$AAr?$AA?9?$AAb?$AAa?$AA?9?$AAl?$AAa?$AAt?$AAn?$AA?$AA@ 000000018002a3e0     libucrt:lcidtoname_downlevel.obj
 0002:000083f8       ??_C@_1BG@KODPNHE@?$AAs?$AAr?$AA?9?$AAs?$AAp?$AA?9?$AAc?$AAy?$AAr?$AAl?$AA?$AA@ 000000018002a3f8     libucrt:lcidtoname_downlevel.obj
 0002:00008410       ??_C@_1BG@CIOGKHPB@?$AAs?$AAr?$AA?9?$AAs?$AAp?$AA?9?$AAl?$AAa?$AAt?$AAn?$AA?$AA@ 000000018002a410     libucrt:lcidtoname_downlevel.obj
 0002:00008428       ??_C@_1M@NGFJLMAC@?$AAs?$AAv?$AA?9?$AAf?$AAi?$AA?$AA@ 000000018002a428     libucrt:lcidtoname_downlevel.obj
 0002:00008438       ??_C@_1M@MPJEJAJC@?$AAs?$AAv?$AA?9?$AAs?$AAe?$AA?$AA@ 000000018002a438     libucrt:lcidtoname_downlevel.obj
 0002:00008448       ??_C@_1M@MPNDHLFK@?$AAs?$AAw?$AA?9?$AAk?$AAe?$AA?$AA@ 000000018002a448     libucrt:lcidtoname_downlevel.obj
 0002:00008458       ??_C@_1O@KOHBJJI@?$AAs?$AAy?$AAr?$AA?9?$AAs?$AAy?$AA?$AA@ 000000018002a458     libucrt:lcidtoname_downlevel.obj
 0002:00008468       ??_C@_1M@LDCEFHA@?$AAt?$AAa?$AA?9?$AAi?$AAn?$AA?$AA@ 000000018002a468     libucrt:lcidtoname_downlevel.obj
 0002:00008478       ??_C@_1M@CNJOFAK@?$AAt?$AAe?$AA?9?$AAi?$AAn?$AA?$AA@ 000000018002a478     libucrt:lcidtoname_downlevel.obj
 0002:00008488       ??_C@_1M@GNAECACD@?$AAt?$AAh?$AA?9?$AAt?$AAh?$AA?$AA@ 000000018002a488     libucrt:lcidtoname_downlevel.obj
 0002:00008498       ??_C@_1M@CHBIHOJO@?$AAt?$AAn?$AA?9?$AAz?$AAa?$AA?$AA@ 000000018002a498     libucrt:lcidtoname_downlevel.obj
 0002:000084a8       ??_C@_1M@GCCMIGPJ@?$AAt?$AAr?$AA?9?$AAt?$AAr?$AA?$AA@ 000000018002a4a8     libucrt:lcidtoname_downlevel.obj
 0002:000084b8       ??_C@_1M@CELMCNBK@?$AAt?$AAt?$AA?9?$AAr?$AAu?$AA?$AA@ 000000018002a4b8     libucrt:lcidtoname_downlevel.obj
 0002:000084c8       ??_C@_1M@KLMCELGA@?$AAu?$AAk?$AA?9?$AAu?$AAa?$AA?$AA@ 000000018002a4c8     libucrt:lcidtoname_downlevel.obj
 0002:000084d8       ??_C@_1M@EPAJJAJF@?$AAu?$AAr?$AA?9?$AAp?$AAk?$AA?$AA@ 000000018002a4d8     libucrt:lcidtoname_downlevel.obj
 0002:000084e8       ??_C@_1BG@GEGPMCDJ@?$AAu?$AAz?$AA?9?$AAu?$AAz?$AA?9?$AAc?$AAy?$AAr?$AAl?$AA?$AA@ 000000018002a4e8     libucrt:lcidtoname_downlevel.obj
 0002:00008500       ??_C@_1BG@EGGKJILM@?$AAu?$AAz?$AA?9?$AAu?$AAz?$AA?9?$AAl?$AAa?$AAt?$AAn?$AA?$AA@ 000000018002a500     libucrt:lcidtoname_downlevel.obj
 0002:00008518       ??_C@_1M@GFOCLFF@?$AAv?$AAi?$AA?9?$AAv?$AAn?$AA?$AA@ 000000018002a518     libucrt:lcidtoname_downlevel.obj
 0002:00008528       ??_C@_1M@CPAMEDFI@?$AAx?$AAh?$AA?9?$AAz?$AAa?$AA?$AA@ 000000018002a528     libucrt:lcidtoname_downlevel.obj
 0002:00008538       ??_C@_1O@EBKIFIGN@?$AAz?$AAh?$AA?9?$AAc?$AAh?$AAs?$AA?$AA@ 000000018002a538     libucrt:lcidtoname_downlevel.obj
 0002:00008548       ??_C@_1O@NMHPGANE@?$AAz?$AAh?$AA?9?$AAc?$AAh?$AAt?$AA?$AA@ 000000018002a548     libucrt:lcidtoname_downlevel.obj
 0002:00008558       ??_C@_1M@LPINJOMC@?$AAz?$AAh?$AA?9?$AAc?$AAn?$AA?$AA@ 000000018002a558     libucrt:lcidtoname_downlevel.obj
 0002:00008568       ??_C@_1M@OCJEJODD@?$AAz?$AAh?$AA?9?$AAh?$AAk?$AA?$AA@ 000000018002a568     libucrt:lcidtoname_downlevel.obj
 0002:00008578       ??_C@_1M@DNDLJINH@?$AAz?$AAh?$AA?9?$AAm?$AAo?$AA?$AA@ 000000018002a578     libucrt:lcidtoname_downlevel.obj
 0002:00008588       ??_C@_1M@MBFDNDND@?$AAz?$AAh?$AA?9?$AAs?$AAg?$AA?$AA@ 000000018002a588     libucrt:lcidtoname_downlevel.obj
 0002:00008598       ??_C@_1M@IMEPLEPE@?$AAz?$AAh?$AA?9?$AAt?$AAw?$AA?$AA@ 000000018002a598     libucrt:lcidtoname_downlevel.obj
 0002:000085a8       ??_C@_1M@BBGHNHJP@?$AAz?$AAu?$AA?9?$AAz?$AAa?$AA?$AA@ 000000018002a5a8     libucrt:lcidtoname_downlevel.obj
 0002:000085c0       ?large_power_data@?1??multiply_by_power_of_ten@__crt_strtox@@YA_NAEAUbig_integer@2@I@Z@4QBIB 000000018002a5c0     libucrt:cfout.obj
 0002:00008ed0       ?large_power_indices@?1??multiply_by_power_of_ten@__crt_strtox@@YA_NAEAUbig_integer@2@I@Z@4QBUunpack_index@?1??12@YA_N0I@Z@B 000000018002aed0     libucrt:cfout.obj
 0002:00008f68       ?small_powers_of_ten@?6??multiply_by_power_of_ten@__crt_strtox@@YA_NAEAUbig_integer@2@I@Z@4QBIB 000000018002af68     libucrt:cfout.obj
 0002:00008f8c       ??_C@_01GBGANLPD@0?$AA@    000000018002af8c     libucrt:cfout.obj
 0002:00008f90       ??_C@_05DNEBIAHO@1?$CDINF?$AA@ 000000018002af90     libucrt:cfout.obj
 0002:00008f98       ??_C@_06IMKFLFPG@1?$CDQNAN?$AA@ 000000018002af98     libucrt:cfout.obj
 0002:00008fa0       ??_C@_06PGGFOGJG@1?$CDSNAN?$AA@ 000000018002afa0     libucrt:cfout.obj
 0002:00008fa8       ??_C@_05PHHOCPM@1?$CDIND?$AA@ 000000018002afa8     libucrt:cfout.obj
 0002:00008fb0       __real@3ff0000000000000    000000018002afb0     libucrt:ceil.obj
 0002:00009210       __log10_256_lead           000000018002b210     libucrt:log10_256_lead_tail_table.obj
 0002:00009a20       __log10_256_tail           000000018002ba20     libucrt:log10_256_lead_tail_table.obj
 0002:0000a230       __log_F_inv_qword          000000018002c230     libucrt:log_f_inv_qword_table.obj
 0002:0000aa40       ??_C@_05HGHHAHAP@log10?$AA@ 000000018002ca40     libucrt:log_special.obj
 0002:0000aa60       ??_C@_1BA@BALFACEM@?$AAC?$AAO?$AAN?$AAO?$AAU?$AAT?$AA$?$AA?$AA@ 000000018002ca60     libucrt:initcon.obj
 0002:0000aad0       _load_config_used          000000018002cad0     LIBCMT:loadcfg.obj
 0002:0000abd0       _tls_used                  000000018002cbd0     LIBCMT:tlssup.obj
 0002:0000abf8       ??_R4exception@std@@6B@    000000018002cbf8     LIBCMT:throw_bad_alloc.obj
 0002:0000ac20       ??_R3exception@std@@8      000000018002cc20     LIBCMT:throw_bad_alloc.obj
 0002:0000ac38       ??_R2exception@std@@8      000000018002cc38     LIBCMT:throw_bad_alloc.obj
 0002:0000ac48       ??_R1A@?0A@EA@exception@std@@8 000000018002cc48     LIBCMT:throw_bad_alloc.obj
 0002:0000ac70       ??_R4bad_alloc@std@@6B@    000000018002cc70     LIBCMT:throw_bad_alloc.obj
 0002:0000ac98       ??_R3bad_alloc@std@@8      000000018002cc98     LIBCMT:throw_bad_alloc.obj
 0002:0000acb0       ??_R2bad_alloc@std@@8      000000018002ccb0     LIBCMT:throw_bad_alloc.obj
 0002:0000acc8       ??_R1A@?0A@EA@bad_alloc@std@@8 000000018002ccc8     LIBCMT:throw_bad_alloc.obj
 0002:0000acf0       ??_R4bad_array_new_length@std@@6B@ 000000018002ccf0     LIBCMT:throw_bad_alloc.obj
 0002:0000ad18       ??_R3bad_array_new_length@std@@8 000000018002cd18     LIBCMT:throw_bad_alloc.obj
 0002:0000ad30       ??_R2bad_array_new_length@std@@8 000000018002cd30     LIBCMT:throw_bad_alloc.obj
 0002:0000ad50       ??_R1A@?0A@EA@bad_array_new_length@std@@8 000000018002cd50     LIBCMT:throw_bad_alloc.obj
 0002:0000ad78       ??_R4type_info@@6B@        000000018002cd78     LIBCMT:std_type_info_static.obj
 0002:0000ada0       ??_R3type_info@@8          000000018002cda0     LIBCMT:std_type_info_static.obj
 0002:0000adb8       ??_R2type_info@@8          000000018002cdb8     LIBCMT:std_type_info_static.obj
 0002:0000adc8       ??_R1A@?0A@EA@type_info@@8 000000018002cdc8     LIBCMT:std_type_info_static.obj
 0002:0000adf0       ??_R4bad_exception@std@@6B@ 000000018002cdf0     libvcruntime:frame.obj
 0002:0000ae18       ??_R3bad_exception@std@@8  000000018002ce18     libvcruntime:frame.obj
 0002:0000ae30       ??_R2bad_exception@std@@8  000000018002ce30     libvcruntime:frame.obj
 0002:0000ae48       ??_R1A@?0A@EA@bad_exception@std@@8 000000018002ce48     libvcruntime:frame.obj
 0002:0000b270       __rtc_iaa                  000000018002d270     LIBCMT:initsect.obj
 0002:0000b278       __rtc_izz                  000000018002d278     LIBCMT:initsect.obj
 0002:0000b280       __rtc_taa                  000000018002d280     LIBCMT:initsect.obj
 0002:0000b288       __rtc_tzz                  000000018002d288     LIBCMT:initsect.obj
 0002:0000b290       _tls_start                 000000018002d290     LIBCMT:tlssup.obj
 0002:0000b294       _Init_thread_epoch         000000018002d294     LIBCMT:thread_safe_statics.obj
 0002:0000b298       _tls_end                   000000018002d298     LIBCMT:tlssup.obj
 0002:0000c9d0       _TI2?AVbad_alloc@std@@     000000018002e9d0     LIBCMT:throw_bad_alloc.obj
 0002:0000c9f0       _CTA2?AVbad_alloc@std@@    000000018002e9f0     LIBCMT:throw_bad_alloc.obj
 0002:0000ca08       _CT??_R0?AVbad_alloc@std@@@8??0bad_alloc@std@@QEAA@AEBV01@@Z24 000000018002ea08     LIBCMT:throw_bad_alloc.obj
 0002:0000ca30       _CT??_R0?AVexception@std@@@8??0exception@std@@QEAA@AEBV01@@Z24 000000018002ea30     LIBCMT:throw_bad_alloc.obj
 0002:0000ca58       _TI3?AVbad_array_new_length@std@@ 000000018002ea58     LIBCMT:throw_bad_alloc.obj
 0002:0000ca78       _CTA3?AVbad_array_new_length@std@@ 000000018002ea78     LIBCMT:throw_bad_alloc.obj
 0002:0000ca98       _CT??_R0?AVbad_array_new_length@std@@@8??0bad_array_new_length@std@@QEAA@AEBV01@@Z24 000000018002ea98     LIBCMT:throw_bad_alloc.obj
 0002:0000cac0       _TI2?AVbad_exception@std@@ 000000018002eac0     libvcruntime:frame.obj
 0002:0000cae0       _CTA2?AVbad_exception@std@@ 000000018002eae0     libvcruntime:frame.obj
 0002:0000caf8       _CT??_R0?AVbad_exception@std@@@8??0bad_exception@std@@QEAA@AEBV01@@Z24 000000018002eaf8     libvcruntime:frame.obj
 0002:0000cb20       __pobjMapEntryFirst        000000018002eb20     OposVariant.obj
 0002:0000cb28       __pobjMapEntryLast         000000018002eb28     OposVariant.obj
 0002:0000cbe4       __IMPORT_DESCRIPTOR_KERNEL32 000000018002ebe4     kernel32:KERNEL32.dll
 0002:0000cbf8       __IMPORT_DESCRIPTOR_USER32 000000018002ebf8     user32:USER32.dll
 0002:0000cc0c       __IMPORT_DESCRIPTOR_GDI32  000000018002ec0c     gdi32:GDI32.dll
 0002:0000cc20       __IMPORT_DESCRIPTOR_ADVAPI32 000000018002ec20     advapi32:ADVAPI32.dll
 0002:0000cc34       __IMPORT_DESCRIPTOR_ole32  000000018002ec34     ole32:ole32.dll
 0002:0000cc48       __IMPORT_DESCRIPTOR_OLEAUT32 000000018002ec48     oleaut32:OLEAUT32.dll
 0002:0000cc5c       __NULL_IMPORT_DESCRIPTOR   000000018002ec5c     kernel32:KERNEL32.dll
 0003:00000000       ?wc@?1??GetWndClassInfo@?$CWindowImpl@VCOPOSRemoteOrderDisplay@@VCWindow@ATL@@V?$CWinTraits@$0FGAAAAAA@$0A@@3@@ATL@@SAAEAU_ATL_WNDCLASSINFOW@3@XZ@4U43@A 0000000180030000     RemoteOrderDisplay.obj
 0003:000000f8       ?s_Claim@?7??GetIDsOfNames@CComTypeInfoHolder@ATL@@QEAAJAEBU_GUID@@PEAPEA_WIKPEAJ@Z@4PA_WA 00000001800300f8     RemoteOrderDisplay.obj
 0003:00000110       ?s_Release@?7??GetIDsOfNames@CComTypeInfoHolder@ATL@@QEAAJAEBU_GUID@@PEAPEA_WIKPEAJ@Z@4PA_WA 0000000180030110     RemoteOrderDisplay.obj
 0003:00000130       ?rcDefault@CWindow@ATL@@2UtagRECT@@A 0000000180030130     RemoteOrderDisplay.obj
 0003:00000140       ?_tih@?$IDispatchImpl@UIOPOSRemoteOrderDisplay@@$1?IID_IOPOSRemoteOrderDisplay@@3U_GUID@@B$1?LIBID_OposRemoteOrderDisplay_CCO@@3U3@B$00$0A@VCComTypeInfoHolder@ATL@@@ATL@@1VCComTypeInfoHolder@2@A 0000000180030140     RemoteOrderDisplay.obj
 0003:00000178       ?_tih@?$IProvideClassInfo2Impl@$1?CLSID_OPOSRemoteOrderDisplay@@3U_GUID@@B$1?DIID__IOPOSRemoteOrderDisplayEvents@@3U2@B$1?LIBID_OposRemoteOrderDisplay_CCO@@3U2@B$00$0A@VCComTypeInfoHolder@ATL@@@ATL@@1VCComTypeInfoHolder@2@A 0000000180030178     RemoteOrderDisplay.obj
 0003:000001b0       ?vszContents@?6??Save@?$IPersistStorageImpl@VCOPOSRemoteOrderDisplay@@@ATL@@UEAAJPEAUIStorage@@H@Z@4PEB_WEB 00000001800301b0     RemoteOrderDisplay.obj
 0003:00000250       ?g_WindowName@@3PA_WA      0000000180030250     RemoteOrderDisplayImpl.obj
 0003:00000284       ?g_ControlVersion@@3JA     0000000180030284     RemoteOrderDisplayImpl.obj
 0003:00000288       ?g_ControlDescription@@3PADA 0000000180030288     RemoteOrderDisplayImpl.obj
 0003:00000404       __scrt_native_dllmain_reason 0000000180030404     LIBCMT:utility.obj
 0003:00000408       _Init_global_epoch         0000000180030408     LIBCMT:thread_safe_statics.obj
 0003:00000410       __security_cookie_complement 0000000180030410     LIBCMT:gs_cookie.obj
 0003:00000418       __security_cookie          0000000180030418     LIBCMT:gs_cookie.obj
 0003:00000420       __isa_available            0000000180030420     LIBCMT:cpu_disp.obj
 0003:00000424       __isa_enabled              0000000180030424     LIBCMT:cpu_disp.obj
 0003:00000428       __memcpy_nt_iters          0000000180030428     LIBCMT:cpu_disp.obj
 0003:00000448       __abort_behavior           0000000180030448     libucrt:abort.obj
 0003:00000460       _iob                       0000000180030460     libucrt:_file.obj
 0003:00000570       __acrt_initial_locale_data 0000000180030570     libucrt:nlsdata.obj
 0003:000006c8       __acrt_initial_locale_pointers 00000001800306c8     libucrt:nlsdata.obj
 0003:000006d8       __acrt_wide_c_locale_string 00000001800306d8     libucrt:nlsdata.obj
 0003:000006e0       __acrt_initial_multibyte_data 00000001800306e0     libucrt:mbctype.obj
 0003:00000908       __acrt_current_multibyte_data 0000000180030908     libucrt:mbctype.obj
 0003:00000a10       _mbctype                   0000000180030a10     libucrt:mbctype.obj
 0003:00000b20       _mbcasemap                 0000000180030b20     libucrt:mbctype.obj
 0003:00000c20       _pwctype                   0000000180030c20     libucrt:ctype.obj
 0003:00000c28       __globallocalestatus       0000000180030c28     libucrt:glstatus.obj
 0003:00000c30       __acrt_lconv_c             0000000180030c30     libucrt:localeconv.obj
 0003:00000cc8       __acrt_lconv_static_decimal 0000000180030cc8     libucrt:localeconv.obj
 0003:00000ccc       __acrt_lconv_static_W_decimal 0000000180030ccc     libucrt:localeconv.obj
 0003:00000ce8       __dcrt_lowio_console_output_handle 0000000180030ce8     libucrt:initcon.obj
 0003:00000cf0       _fltused                   0000000180030cf0     LIBCMT:fltused.obj
 0003:00000cf8       ??_R0?AVbad_alloc@std@@@8  0000000180030cf8     LIBCMT:throw_bad_alloc.obj
 0003:00000d20       ??_R0?AVexception@std@@@8  0000000180030d20     LIBCMT:throw_bad_alloc.obj
 0003:00000d48       ??_R0?AVbad_array_new_length@std@@@8 0000000180030d48     LIBCMT:throw_bad_alloc.obj
 0003:00000d78       ??_R0?AVtype_info@@@8      0000000180030d78     LIBCMT:std_type_info_static.obj
 0003:00000d98       ??_R0?AVbad_exception@std@@@8 0000000180030d98     libvcruntime:frame.obj
 0003:00000dc0       ?m_bInitFailed@CAtlBaseModule@ATL@@2_NA 0000000180030dc0     OposVariant.obj
 0003:00000dc8       ?_pPerfRegFunc@ATL@@3P6AJPEAUHINSTANCE__@@@ZEA 0000000180030dc8     OposVariant.obj
 0003:00000dd0       ?_pPerfUnRegFunc@ATL@@3P6AJXZEA 0000000180030dd0     OposVariant.obj
 0003:00000dd8       ?_AtlRegisterPerUser@ATL@@3_NA 0000000180030dd8     OposVariant.obj
 0003:00000de0       ?_pAtlModule@ATL@@3PEAVCAtlModule@1@EA 0000000180030de0     OposVariant.obj
 0003:00000de8       ?_pModule@ATL@@3PEAVCComModule@1@EA 0000000180030de8     OposVariant.obj
 0003:00000df0       ?_AtlComModule@ATL@@3VCAtlComModule@1@A 0000000180030df0     OposVariant.obj
 0003:00000e40       ?_AtlWinModule@ATL@@3VCAtlWinModule@1@A 0000000180030e40     OposVariant.obj
 0003:00000e88       ?m_libid@CAtlModule@ATL@@2U_GUID@@A 0000000180030e88     RemoteOrderDisplay.obj
 0003:00000e98       ?_entries@?1??GetConnMap@COPOSRemoteOrderDisplay@@SAPEBU_ATL_CONNMAP_ENTRY@ATL@@PEAH@Z@4QBU34@B 0000000180030e98     RemoteOrderDisplay.obj
 0003:00000eb0       ?$TSS0@?1??GetConnMap@COPOSRemoteOrderDisplay@@SAPEBU_ATL_CONNMAP_ENTRY@ATL@@PEAH@Z@4HA 0000000180030eb0     RemoteOrderDisplay.obj
 0003:00000eb8       ?_OptionsStorage@?1??__local_stdio_printf_options@@9@4_KA 0000000180030eb8     RemoteOrderDisplay.obj
 0003:00000ec0       ?pfnRegDeleteKeyEx@?1??DeleteSubKey@CRegKey@ATL@@QEAAJPEB_W@Z@4P6AJPEAUHKEY__@@0KK@ZEA 0000000180030ec0     RemoteOrderDisplay.obj
 0003:00000ec8       ?bInitialized@?1??DeleteSubKey@CRegKey@ATL@@QEAAJPEB_W@Z@4_NA 0000000180030ec8     RemoteOrderDisplay.obj
 0003:00000ed0       ?_Module@@3VCComModule@ATL@@A 0000000180030ed0     RemoteOrderDisplay.obj
 0003:00000f20       ?pConnMap@?$IConnectionPointContainerImpl@VCOPOSRemoteOrderDisplay@@@ATL@@0PEBU_ATL_CONNMAP_ENTRY@2@EB 0000000180030f20     RemoteOrderDisplay.obj
 0003:00000f28       ?s_nInstances@COPOSRemoteOrderDisplay@@1HA 0000000180030f28     RemoteOrderDisplayImpl.obj
 0003:00000f30       __scrt_current_native_startup_state 0000000180030f30     LIBCMT:utility.obj
 0003:00000f38       __scrt_native_startup_lock 0000000180030f38     LIBCMT:utility.obj
 0003:00001530       _tls_index                 0000000180031530     LIBCMT:tlssup.obj
 0003:00001538       __favor                    0000000180031538     LIBCMT:cpu_disp.obj
 0003:0000153c       __scrt_debugger_hook_flag  000000018003153c     LIBCMT:utility_desktop.obj
 0003:00001540       ?__type_info_root_node@@3U__type_info_node@@A 0000000180031540     LIBCMT:tncleanup.obj
 0003:00001550       ?_OptionsStorage@?1??__local_stdio_scanf_options@@9@4_KA 0000000180031550     LIBCMT:default_local_stdio_options.obj
 0003:00001560       ?_AtlBaseModule@ATL@@3VCAtlBaseModule@1@A 0000000180031560     atls:atlbase.obj
 0003:000015c0       ?__AtlThunkPool@@3PEAT_SLIST_HEADER@@EA 00000001800315c0     atls:atlthunk.obj
 0003:000015ec       __@@_PchSym_@00@UztvmgUPdlipUCUhUrmgvinvwrzgvUexgllohUzgohOmzgrevkilqPBACIAJCBDBUlyqiUznwGEUhgwzucOlyq@4B2008FD98C1DD4 00000001800315ec     atls:stdafx.obj
 0003:000015f0       ?__WinRTOutOfMemoryExceptionCallback@@3P6APEAXXZEA 00000001800315f0     libvcruntime:ehhelpers.obj
 0003:000015f8       __pPurecall                00000001800315f8     libvcruntime:purevirt_data.obj
 0003:00001700       ?pArgList@UnDecorator@@0PEAVReplicator@@EA 0000000180031700     libvcruntime:undname.obj
 0003:00001708       ?pZNameList@UnDecorator@@0PEAVReplicator@@EA 0000000180031708     libvcruntime:undname.obj
 0003:00001710       ?pTemplateArgList@UnDecorator@@0PEAVReplicator@@EA 0000000180031710     libvcruntime:undname.obj
 0003:00001718       ?gName@UnDecorator@@0PEBDEB 0000000180031718     libvcruntime:undname.obj
 0003:00001720       ?name@UnDecorator@@0PEBDEB 0000000180031720     libvcruntime:undname.obj
 0003:00001728       ?disableFlags@UnDecorator@@0KA 0000000180031728     libvcruntime:undname.obj
 0003:0000172c       ?fExplicitTemplateParams@UnDecorator@@0_NA 000000018003172c     libvcruntime:undname.obj
 0003:0000172d       ?fGetTemplateArgumentList@UnDecorator@@0_NA 000000018003172d     libvcruntime:undname.obj
 0003:00001730       ?m_pGetParameter@UnDecorator@@0P6APEADJ@ZEA 0000000180031730     libvcruntime:undname.obj
 0003:00001738       ?m_CHPENameOffset@UnDecorator@@0KA 0000000180031738     libvcruntime:undname.obj
 0003:0000173c       ?m_recursionLevel@UnDecorator@@0KA 000000018003173c     libvcruntime:undname.obj
 0003:00001898       _environ_table             0000000180031898     libucrt:environment_initialization.obj
 0003:000018a0       _wenviron_table            00000001800318a0     libucrt:environment_initialization.obj
 0003:000018a8       __dcrt_initial_wide_environment 00000001800318a8     libucrt:environment_initialization.obj
 0003:000018b0       __dcrt_initial_narrow_environment 00000001800318b0     libucrt:environment_initialization.obj
 0003:000018b8       __acrt_atexit_table        00000001800318b8     libucrt:onexit.obj
 0003:000018d0       __acrt_at_quick_exit_table 00000001800318d0     libucrt:onexit.obj
 0003:00001a98       _nstream                   0000000180031a98     libucrt:_file.obj
 0003:00001aa0       __piob                     0000000180031aa0     libucrt:_file.obj
 0003:00001ab0       __acrt_stdout_buffer       0000000180031ab0     libucrt:_sftbuf.obj
 0003:00001ab8       __acrt_stderr_buffer       0000000180031ab8     libucrt:_sftbuf.obj
 0003:00001ac0       __acrt_locale_changed_data 0000000180031ac0     libucrt:wsetlocale.obj
 0003:00001ac8       __acrt_current_locale_data 0000000180031ac8     libucrt:nlsdata.obj
 0003:00001ad0       __pioinfo                  0000000180031ad0     libucrt:ioinit.obj
 0003:00001ed0       _nhandle                   0000000180031ed0     libucrt:ioinit.obj
 0003:000020ec       __mbcodepage               00000001800320ec     libucrt:mbctype.obj
 0003:000020f0       __ismbcodepage             00000001800320f0     libucrt:mbctype.obj
 0003:000020f8       __mbulinfo                 00000001800320f8     libucrt:mbctype.obj
 0003:00002108       __mblocalename             0000000180032108     libucrt:mbctype.obj
 0003:00002114       __argc                     0000000180032114     libucrt:argv_data.obj
 0003:00002118       __argv                     0000000180032118     libucrt:argv_data.obj
 0003:00002120       __wargv                    0000000180032120     libucrt:argv_data.obj
 0003:00002128       _acmdln                    0000000180032128     libucrt:argv_data.obj
 0003:00002130       _wcmdln                    0000000180032130     libucrt:argv_data.obj
 0003:00002138       _pgmptr                    0000000180032138     libucrt:argv_data.obj
 0003:00002140       __acrt_heap                0000000180032140     libucrt:heap_handle.obj
 0003:00002174       __acrt_lconv_static_null   0000000180032174     libucrt:localeconv.obj
 0003:00002178       __acrt_lconv_static_W_null 0000000180032178     libucrt:localeconv.obj
 0003:00002180       __fma3_is_available        0000000180032180     libucrt:fma3_available.obj
 0003:00002184       __use_fma3_lib             0000000180032184     libucrt:fma3_available.obj
 0003:00002188       __dyn_tls_init_callback    0000000180032188     <common>
 0003:00002190       __scrt_ucrt_dll_is_in_use  0000000180032190     <common>

 entry point at        0001:0000ff94

 Static symbols

 0000:fffc4000       .debug$S                   0000000180000000     gdi32:GDI32.dll
 0000:fffc4000       .debug$S                   0000000180000000     gdi32:GDI32.dll
 0000:fffc4000       .debug$S                   0000000180000000     gdi32:GDI32.dll
 0000:fffc4000       .debug$S                   0000000180000000     kernel32:KERNEL32.dll
 0000:fffc4000       .debug$S                   0000000180000000     gdi32:GDI32.dll
 0000:fffc4000       .debug$S                   0000000180000000     gdi32:GDI32.dll
 0000:fffc4000       .debug$S                   0000000180000000     kernel32:KERNEL32.dll
 0000:fffc4000       .debug$S                   0000000180000000     gdi32:GDI32.dll
 0000:fffc4000       .debug$S                   0000000180000000     gdi32:GDI32.dll
 0000:fffc4000       .debug$S                   0000000180000000     gdi32:GDI32.dll
 0000:fffc4000       .debug$S                   0000000180000000     advapi32:ADVAPI32.dll
 0000:fffc4000       .debug$S                   0000000180000000     advapi32:ADVAPI32.dll
 0000:fffc4000       .debug$S                   0000000180000000     advapi32:ADVAPI32.dll
 0000:fffc4000       .debug$S                   0000000180000000     advapi32:ADVAPI32.dll
 0000:fffc4000       .debug$S                   0000000180000000     kernel32:KERNEL32.dll
 0000:fffc4000       .debug$S                   0000000180000000     OPOSRemoteOrderDisplay.exp
 0000:fffc4000       .debug$S                   0000000180000000     kernel32:KERNEL32.dll
 0000:fffc4000       .debug$S                   0000000180000000     kernel32:KERNEL32.dll
 0000:fffc4000       .debug$S                   0000000180000000     advapi32:ADVAPI32.dll
 0000:fffc4000       .debug$S                   0000000180000000     advapi32:ADVAPI32.dll
 0000:fffc4000       .debug$S                   0000000180000000     kernel32:KERNEL32.dll
 0000:fffc4000       .debug$S                   0000000180000000     kernel32:KERNEL32.dll
 0000:fffc4000       .debug$S                   0000000180000000     advapi32:ADVAPI32.dll
 0000:fffc4000       .debug$S                   0000000180000000     advapi32:ADVAPI32.dll
 0000:fffc4000       .debug$S                   0000000180000000     advapi32:ADVAPI32.dll
 0000:fffc4000       .debug$S                   0000000180000000     kernel32:KERNEL32.dll
 0000:fffc4000       .debug$S                   0000000180000000     kernel32:KERNEL32.dll
 0000:fffc4000       .debug$S                   0000000180000000     kernel32:KERNEL32.dll
 0000:fffc4000       .debug$S                   0000000180000000     kernel32:KERNEL32.dll
 0000:fffc4000       .debug$S                   0000000180000000     kernel32:KERNEL32.dll
 0000:fffc4000       .debug$S                   0000000180000000     kernel32:KERNEL32.dll
 0000:fffc4000       .debug$S                   0000000180000000     kernel32:KERNEL32.dll
 0000:fffc4000       .debug$S                   0000000180000000     kernel32:KERNEL32.dll
 0000:fffc4000       .debug$S                   0000000180000000     kernel32:KERNEL32.dll
 0000:fffc4000       .debug$S                   0000000180000000     kernel32:KERNEL32.dll
 0000:fffc4000       .debug$S                   0000000180000000     kernel32:KERNEL32.dll
 0000:fffc4000       .debug$S                   0000000180000000     kernel32:KERNEL32.dll
 0000:fffc4000       .debug$S                   0000000180000000     kernel32:KERNEL32.dll
 0000:fffc4000       .debug$S                   0000000180000000     kernel32:KERNEL32.dll
 0000:fffc4000       .debug$S                   0000000180000000     kernel32:KERNEL32.dll
 0000:fffc4000       .debug$S                   0000000180000000     kernel32:KERNEL32.dll
 0000:fffc4000       .debug$S                   0000000180000000     kernel32:KERNEL32.dll
 0000:fffc4000       .debug$S                   0000000180000000     kernel32:KERNEL32.dll
 0000:fffc4000       .debug$S                   0000000180000000     kernel32:KERNEL32.dll
 0000:fffc4000       .debug$S                   0000000180000000     kernel32:KERNEL32.dll
 0000:fffc4000       .debug$S                   0000000180000000     kernel32:KERNEL32.dll
 0000:fffc4000       .debug$S                   0000000180000000     kernel32:KERNEL32.dll
 0000:fffc4000       .debug$S                   0000000180000000     kernel32:KERNEL32.dll
 0000:fffc4000       .debug$S                   0000000180000000     kernel32:KERNEL32.dll
 0000:fffc4000       .debug$S                   0000000180000000     kernel32:KERNEL32.dll
 0000:fffc4000       .debug$S                   0000000180000000     kernel32:KERNEL32.dll
 0000:fffc4000       .debug$S                   0000000180000000     kernel32:KERNEL32.dll
 0000:fffc4000       .debug$S                   0000000180000000     kernel32:KERNEL32.dll
 0000:fffc4000       .debug$S                   0000000180000000     kernel32:KERNEL32.dll
 0000:fffc4000       .debug$S                   0000000180000000     kernel32:KERNEL32.dll
 0000:fffc4000       .debug$S                   0000000180000000     kernel32:KERNEL32.dll
 0000:fffc4000       .debug$S                   0000000180000000     kernel32:KERNEL32.dll
 0000:fffc4000       .debug$S                   0000000180000000     kernel32:KERNEL32.dll
 0000:fffc4000       .debug$S                   0000000180000000     kernel32:KERNEL32.dll
 0000:fffc4000       .debug$S                   0000000180000000     kernel32:KERNEL32.dll
 0000:fffc4000       .debug$S                   0000000180000000     kernel32:KERNEL32.dll
 0000:fffc4000       .debug$S                   0000000180000000     kernel32:KERNEL32.dll
 0000:fffc4000       .debug$S                   0000000180000000     kernel32:KERNEL32.dll
 0000:fffc4000       .debug$S                   0000000180000000     kernel32:KERNEL32.dll
 0000:fffc4000       .debug$S                   0000000180000000     kernel32:KERNEL32.dll
 0000:fffc4000       .debug$S                   0000000180000000     kernel32:KERNEL32.dll
 0000:fffc4000       .debug$S                   0000000180000000     kernel32:KERNEL32.dll
 0000:fffc4000       .debug$S                   0000000180000000     kernel32:KERNEL32.dll
 0000:fffc4000       .debug$S                   0000000180000000     kernel32:KERNEL32.dll
 0000:fffc4000       .debug$S                   0000000180000000     kernel32:KERNEL32.dll
 0000:fffc4000       .debug$S                   0000000180000000     kernel32:KERNEL32.dll
 0000:fffc4000       .debug$S                   0000000180000000     kernel32:KERNEL32.dll
 0000:fffc4000       .debug$S                   0000000180000000     kernel32:KERNEL32.dll
 0000:fffc4000       .debug$S                   0000000180000000     kernel32:KERNEL32.dll
 0000:fffc4000       .debug$S                   0000000180000000     kernel32:KERNEL32.dll
 0000:fffc4000       .debug$S                   0000000180000000     kernel32:KERNEL32.dll
 0000:fffc4000       .debug$S                   0000000180000000     kernel32:KERNEL32.dll
 0000:fffc4000       .debug$S                   0000000180000000     kernel32:KERNEL32.dll
 0000:fffc4000       .debug$S                   0000000180000000     kernel32:KERNEL32.dll
 0000:fffc4000       .debug$S                   0000000180000000     kernel32:KERNEL32.dll
 0000:fffc4000       .debug$S                   0000000180000000     kernel32:KERNEL32.dll
 0000:fffc4000       .debug$S                   0000000180000000     kernel32:KERNEL32.dll
 0000:fffc4000       .debug$S                   0000000180000000     kernel32:KERNEL32.dll
 0000:fffc4000       .debug$S                   0000000180000000     kernel32:KERNEL32.dll
 0000:fffc4000       .debug$S                   0000000180000000     kernel32:KERNEL32.dll
 0000:fffc4000       .debug$S                   0000000180000000     kernel32:KERNEL32.dll
 0000:fffc4000       .debug$S                   0000000180000000     kernel32:KERNEL32.dll
 0000:fffc4000       .debug$S                   0000000180000000     kernel32:KERNEL32.dll
 0000:fffc4000       .debug$S                   0000000180000000     kernel32:KERNEL32.dll
 0000:fffc4000       .debug$S                   0000000180000000     kernel32:KERNEL32.dll
 0000:fffc4000       .debug$S                   0000000180000000     kernel32:KERNEL32.dll
 0000:fffc4000       .debug$S                   0000000180000000     kernel32:KERNEL32.dll
 0000:fffc4000       .debug$S                   0000000180000000     kernel32:KERNEL32.dll
 0000:fffc4000       .debug$S                   0000000180000000     kernel32:KERNEL32.dll
 0000:fffc4000       .debug$S                   0000000180000000     kernel32:KERNEL32.dll
 0000:fffc4000       .debug$S                   0000000180000000     kernel32:KERNEL32.dll
 0000:fffc4000       .debug$S                   0000000180000000     kernel32:KERNEL32.dll
 0000:fffc4000       .debug$S                   0000000180000000     kernel32:KERNEL32.dll
 0000:fffc4000       .debug$S                   0000000180000000     kernel32:KERNEL32.dll
 0000:fffc4000       .debug$S                   0000000180000000     kernel32:KERNEL32.dll
 0000:fffc4000       .debug$S                   0000000180000000     kernel32:KERNEL32.dll
 0000:fffc4000       .debug$S                   0000000180000000     kernel32:KERNEL32.dll
 0000:fffc4000       .debug$S                   0000000180000000     kernel32:KERNEL32.dll
 0000:fffc4000       .debug$S                   0000000180000000     ole32:ole32.dll
 0000:fffc4000       .debug$S                   0000000180000000     ole32:ole32.dll
 0000:fffc4000       .debug$S                   0000000180000000     ole32:ole32.dll
 0000:fffc4000       .debug$S                   0000000180000000     ole32:ole32.dll
 0000:fffc4000       .debug$S                   0000000180000000     gdi32:GDI32.dll
 0000:fffc4000       .debug$S                   0000000180000000     user32:USER32.dll
 0000:fffc4000       .debug$S                   0000000180000000     user32:USER32.dll
 0000:fffc4000       .debug$S                   0000000180000000     user32:USER32.dll
 0000:fffc4000       .debug$S                   0000000180000000     gdi32:GDI32.dll
 0000:fffc4000       .debug$S                   0000000180000000     user32:USER32.dll
 0000:fffc4000       .debug$S                   0000000180000000     ole32:ole32.dll
 0000:fffc4000       .debug$S                   0000000180000000     ole32:ole32.dll
 0000:fffc4000       .debug$S                   0000000180000000     user32:USER32.dll
 0000:fffc4000       .debug$S                   0000000180000000     ole32:ole32.dll
 0000:fffc4000       .debug$S                   0000000180000000     user32:USER32.dll
 0000:fffc4000       .debug$S                   0000000180000000     ole32:ole32.dll
 0000:fffc4000       .debug$S                   0000000180000000     ole32:ole32.dll
 0000:fffc4000       .debug$S                   0000000180000000     ole32:ole32.dll
 0000:fffc4000       .debug$S                   0000000180000000     ole32:ole32.dll
 0000:fffc4000       .debug$S                   0000000180000000     ole32:ole32.dll
 0000:fffc4000       .debug$S                   0000000180000000     ole32:ole32.dll
 0000:fffc4000       .debug$S                   0000000180000000     ole32:ole32.dll
 0000:fffc4000       .debug$S                   0000000180000000     oleaut32:OLEAUT32.dll
 0000:fffc4000       .debug$S                   0000000180000000     kernel32:KERNEL32.dll
 0000:fffc4000       .debug$S                   0000000180000000     user32:USER32.dll
 0000:fffc4000       .debug$S                   0000000180000000     user32:USER32.dll
 0000:fffc4000       .debug$S                   0000000180000000     gdi32:GDI32.dll
 0000:fffc4000       .debug$S                   0000000180000000     oleaut32:OLEAUT32.dll
 0000:fffc4000       .debug$S                   0000000180000000     user32:USER32.dll
 0000:fffc4000       .debug$S                   0000000180000000     kernel32:KERNEL32.dll
 0000:fffc4000       .debug$S                   0000000180000000     oleaut32:OLEAUT32.dll
 0000:fffc4000       .debug$S                   0000000180000000     kernel32:KERNEL32.dll
 0000:fffc4000       .debug$S                   0000000180000000     oleaut32:OLEAUT32.dll
 0000:fffc4000       .debug$S                   0000000180000000     oleaut32:OLEAUT32.dll
 0000:fffc4000       .debug$S                   0000000180000000     user32:USER32.dll
 0000:fffc4000       .debug$S                   0000000180000000     oleaut32:OLEAUT32.dll
 0000:fffc4000       .debug$S                   0000000180000000     user32:USER32.dll
 0000:fffc4000       .debug$S                   0000000180000000     oleaut32:OLEAUT32.dll
 0000:fffc4000       .debug$S                   0000000180000000     user32:USER32.dll
 0000:fffc4000       .debug$S                   0000000180000000     oleaut32:OLEAUT32.dll
 0000:fffc4000       .debug$S                   0000000180000000     user32:USER32.dll
 0000:fffc4000       .debug$S                   0000000180000000     oleaut32:OLEAUT32.dll
 0000:fffc4000       .debug$S                   0000000180000000     oleaut32:OLEAUT32.dll
 0000:fffc4000       .debug$S                   0000000180000000     oleaut32:OLEAUT32.dll
 0000:fffc4000       .debug$S                   0000000180000000     oleaut32:OLEAUT32.dll
 0000:fffc4000       .debug$S                   0000000180000000     oleaut32:OLEAUT32.dll
 0000:fffc4000       .debug$S                   0000000180000000     oleaut32:OLEAUT32.dll
 0000:fffc4000       .debug$S                   0000000180000000     oleaut32:OLEAUT32.dll
 0000:fffc4000       .debug$S                   0000000180000000     oleaut32:OLEAUT32.dll
 0000:fffc4000       .debug$S                   0000000180000000     kernel32:KERNEL32.dll
 0000:fffc4000       .debug$S                   0000000180000000     kernel32:KERNEL32.dll
 0000:fffc4000       .debug$S                   0000000180000000     gdi32:GDI32.dll
 0000:fffc4000       .debug$S                   0000000180000000     kernel32:KERNEL32.dll
 0000:fffc4000       .debug$S                   0000000180000000     kernel32:KERNEL32.dll
 0000:fffc4000       .debug$S                   0000000180000000     gdi32:GDI32.dll
 0000:fffc4000       .debug$S                   0000000180000000     kernel32:KERNEL32.dll
 0000:fffc4000       .debug$S                   0000000180000000     kernel32:KERNEL32.dll
 0000:fffc4000       .debug$S                   0000000180000000     kernel32:KERNEL32.dll
 0000:fffc4000       .debug$S                   0000000180000000     gdi32:GDI32.dll
 0000:fffc4000       .debug$S                   0000000180000000     kernel32:KERNEL32.dll
 0000:fffc4000       .debug$S                   0000000180000000     kernel32:KERNEL32.dll
 0000:fffc4000       .debug$S                   0000000180000000     kernel32:KERNEL32.dll
 0000:fffc4000       .debug$S                   0000000180000000     user32:USER32.dll
 0000:fffc4000       .debug$S                   0000000180000000     kernel32:KERNEL32.dll
 0000:fffc4000       .debug$S                   0000000180000000     gdi32:GDI32.dll
 0000:fffc4000       .debug$S                   0000000180000000     user32:USER32.dll
 0000:fffc4000       .debug$S                   0000000180000000     gdi32:GDI32.dll
 0000:fffc4000       .debug$S                   0000000180000000     kernel32:KERNEL32.dll
 0000:fffc4000       .debug$S                   0000000180000000     gdi32:GDI32.dll
 0000:fffc4000       .debug$S                   0000000180000000     kernel32:KERNEL32.dll
 0000:fffc4000       .debug$S                   0000000180000000     kernel32:KERNEL32.dll
 0000:fffc4000       .debug$S                   0000000180000000     user32:USER32.dll
 0000:fffc4000       .debug$S                   0000000180000000     user32:USER32.dll
 0000:fffc4000       .debug$S                   0000000180000000     kernel32:KERNEL32.dll
 0000:fffc4000       .debug$S                   0000000180000000     user32:USER32.dll
 0000:fffc4000       .debug$S                   0000000180000000     user32:USER32.dll
 0000:fffc4000       .debug$S                   0000000180000000     kernel32:KERNEL32.dll
 0000:fffc4000       .debug$S                   0000000180000000     kernel32:KERNEL32.dll
 0000:fffc4000       .debug$S                   0000000180000000     kernel32:KERNEL32.dll
 0000:fffc4000       .debug$S                   0000000180000000     kernel32:KERNEL32.dll
 0000:fffc4000       .debug$S                   0000000180000000     kernel32:KERNEL32.dll
 0000:fffc4000       .debug$S                   0000000180000000     user32:USER32.dll
 0000:fffc4000       .debug$S                   0000000180000000     kernel32:KERNEL32.dll
 0000:fffc4000       .debug$S                   0000000180000000     kernel32:KERNEL32.dll
 0000:fffc4000       .debug$S                   0000000180000000     kernel32:KERNEL32.dll
 0000:fffc4000       .debug$S                   0000000180000000     kernel32:KERNEL32.dll
 0000:fffc4000       .debug$S                   0000000180000000     kernel32:KERNEL32.dll
 0000:fffc4000       .debug$S                   0000000180000000     kernel32:KERNEL32.dll
 0000:fffc4000       .debug$S                   0000000180000000     user32:USER32.dll
 0000:fffc4000       .debug$S                   0000000180000000     user32:USER32.dll
 0000:fffc4000       .debug$S                   0000000180000000     user32:USER32.dll
 0000:fffc4000       .debug$S                   0000000180000000     user32:USER32.dll
 0000:fffc4000       .debug$S                   0000000180000000     user32:USER32.dll
 0000:fffc4000       .debug$S                   0000000180000000     user32:USER32.dll
 0000:fffc4000       .debug$S                   0000000180000000     user32:USER32.dll
 0000:fffc4000       .debug$S                   0000000180000000     user32:USER32.dll
 0000:fffc4000       .debug$S                   0000000180000000     user32:USER32.dll
 0000:fffc4000       .debug$S                   0000000180000000     user32:USER32.dll
 0000:fffc4000       .debug$S                   0000000180000000     gdi32:GDI32.dll
 0000:fffc4000       .debug$S                   0000000180000000     user32:USER32.dll
 0000:fffc4000       .debug$S                   0000000180000000     user32:USER32.dll
 0000:fffc4000       .debug$S                   0000000180000000     user32:USER32.dll
 0000:fffc4000       .debug$S                   0000000180000000     user32:USER32.dll
 0000:fffc4000       .debug$S                   0000000180000000     gdi32:GDI32.dll
 0000:fffc4000       .debug$S                   0000000180000000     user32:USER32.dll
 0001:00000000       ??__E_AtlComModule@ATL@@YAXXZ 0000000180001000 f   OposVariant.obj
 0001:00000020       ??__E_AtlWinModule@ATL@@YAXXZ 0000000180001020 f   OposVariant.obj
 0001:00000040       ??__E?pConnMap@?$IConnectionPointContainerImpl@VCOPOSRemoteOrderDisplay@@@ATL@@0PEBU_ATL_CONNMAP_ENTRY@2@EB@@YAXXZ 0000000180001040 f   RemoteOrderDisplay.obj
 0001:00000058       ??__E_Module@@YAXXZ        0000000180001058 f   RemoteOrderDisplay.obj
 0001:00000094       ??__E_AtlBaseModule@ATL@@YAXXZ 0000000180001094 f   atls:atlbase.obj
 0001:0000bbe0       memcpy_s                   000000018000cbe0 f   RemoteOrderDisplay.obj
 0001:0000f4e0       ?__scrt_initialize_thread_safe_statics@@YAHXZ 00000001800104e0 f   LIBCMT:thread_safe_statics.obj
 0001:0000f640       ?__scrt_uninitialize_thread_safe_statics@@YAXXZ 0000000180010640 f   LIBCMT:thread_safe_statics.obj
 0001:0000f9b0       capture_current_context    00000001800109b0 f   LIBCMT:gs_report.obj
 0001:0000fa20       capture_previous_context   0000000180010a20 f   LIBCMT:gs_report.obj
 0001:0000fbc0       $$000000                   0000000180010bc0     LIBCMT:chkstk.obj
 0001:0000fc30       $$000000                   0000000180010c30     LIBCMT:amdsecgs.obj
 0001:0000fc64       ?dllmain_crt_dispatch@@YAHQEAUHINSTANCE__@@KQEAX@Z 0000000180010c64 f   LIBCMT:dll_dllmain.obj
 0001:0000fcb4       ?dllmain_crt_process_attach@@YAHQEAUHINSTANCE__@@QEAX@Z 0000000180010cb4 f   LIBCMT:dll_dllmain.obj
 0001:0000fdd0       ?dllmain_crt_process_detach@@YAH_N@Z 0000000180010dd0 f   LIBCMT:dll_dllmain.obj
 0001:0000fe60       ?dllmain_dispatch@@YAHQEAUHINSTANCE__@@KQEAX@Z 0000000180010e60 f   LIBCMT:dll_dllmain.obj
 0001:00010748       ??$GetProcAddressAll@P6AXPEAUAtlThunkData_t@@@Z@@YAP6AXPEAUAtlThunkData_t@@@ZPEAP6AX0@Z@Z 0000000180011748 f   atls:atlthunk.obj
 0001:00010748       ??$GetProcAddressAll@P6AXPEAUAtlThunkData_t@@PEAX_K@Z@@YAP6AXPEAUAtlThunkData_t@@PEAX_K@ZPEAP6AX012@Z@Z 0000000180011748 f   atls:atlthunk.obj
 0001:00010748       ??$GetProcAddressAll@P6AP6A_JPEAUHWND__@@I_K_J@ZPEAUAtlThunkData_t@@@Z@@YAP6AP6A_JPEAUHWND__@@I_K_J@ZPEAUAtlThunkData_t@@@ZPEAP6AP6A_J0I12@Z3@Z@Z 0000000180011748 f   atls:atlthunk.obj
 0001:00010748       ??$GetProcAddressAll@P6APEAUAtlThunkData_t@@XZ@@YAP6APEAUAtlThunkData_t@@XZPEAP6APEAU0@XZ@Z 0000000180011748 f   atls:atlthunk.obj
 0001:00010920       ?__InitializeThunkPool@@YAHXZ 0000000180011920 f   atls:atlthunk.obj
 0001:00010b80       $$000000                   0000000180011b80     libvcruntime:memset.obj
 0001:00010c7c       MsetTab                    0000000180011c7c     libvcruntime:memset.obj
 0001:00010f90       $$000000                   0000000180011f90     libvcruntime:memcmp.obj
 0001:00011070       $$000000                   0000000180012070     libvcruntime:memcpy.obj
 0001:00011127       MoveSmall                  0000000180012127     libvcruntime:memcpy.obj
 0001:000122b0       ?try_get_function@@YAPEAXW4function_id@?A0xbfd18cd1@@QEBDQEBW4module_id@2@2@Z 00000001800132b0 f   libvcruntime:winapi_downlevel.obj
 0001:00012690       $$000000                   0000000180013690     libvcruntime:notify.obj
 0001:00012818       ??$BuildCatchObjectHelperInternal@V__FrameHandler3@@@@YAHPEAUEHExceptionRecord@@PEAXPEBU_s_HandlerType@@PEBU_s_CatchableType@@@Z 0000000180013818 f   libvcruntime:frame.obj
 0001:00012a18       ??$BuildCatchObjectInternal@V__FrameHandler3@@@@YAXPEAUEHExceptionRecord@@PEAXPEBU_s_HandlerType@@PEBU_s_CatchableType@@@Z 0000000180013a18 f   libvcruntime:frame.obj
 0001:00012ad8       ??$CatchIt@V__FrameHandler3@@@@YAXPEAUEHExceptionRecord@@PEA_KPEAU_CONTEXT@@PEAU_xDISPATCHER_CONTEXT@@PEBU_s_FuncInfo@@PEBU_s_HandlerType@@PEBU_s_CatchableType@@PEBU_s_TryBlockMapEntry@@H1EE@Z 0000000180013ad8 f   libvcruntime:frame.obj
 0001:00012ba8       ??$FindHandler@V__FrameHandler3@@@@YAXPEAUEHExceptionRecord@@PEA_KPEAU_CONTEXT@@PEAU_xDISPATCHER_CONTEXT@@PEBU_s_FuncInfo@@EH1@Z 0000000180013ba8 f   libvcruntime:frame.obj
 0001:0001300c       ??$FindHandlerForForeignException@V__FrameHandler3@@@@YAXPEAUEHExceptionRecord@@PEA_KPEAU_CONTEXT@@PEAU_xDISPATCHER_CONTEXT@@PEBU_s_FuncInfo@@HH1@Z 000000018001400c f   libvcruntime:frame.obj
 0001:00013814       ?ExFilterRethrow@@YAHPEAU_EXCEPTION_POINTERS@@PEAUEHExceptionRecord@@PEAH@Z 0000000180014814 f   libvcruntime:frame.obj
 0001:00013ac8       ?IsInExceptionSpec@@YAEPEAUEHExceptionRecord@@PEBU_s_ESTypeList@@@Z 0000000180014ac8 f   libvcruntime:frame.obj
 0001:00013ba0       ?Is_bad_exception_allowed@@YAEPEBU_s_ESTypeList@@@Z 0000000180014ba0 f   libvcruntime:frame.obj
 0001:00013c50       $$000000                   0000000180014c50     libvcruntime:handlers.obj
 0001:000143ec       ??$common_vsprintf@Vformat_validation_base@__crt_stdio_output@@_W@@YAH_KQEA_W0QEB_WQEAU__crt_locale_pointers@@QEAD@Z 00000001800153ec f   libucrt:output.obj
 0001:00015ba4       ?atexit_exception_filter@@YAHK@Z 0000000180016ba4 f   libucrt:exit.obj
 0001:00015bb0       ?common_exit@@YAXHW4_crt_exit_cleanup_mode@@W4_crt_exit_return_mode@@@Z 0000000180016bb0 f   libucrt:exit.obj
 0001:00015d1c       ?exit_or_terminate_process@@YAXI@Z 0000000180016d1c f   libucrt:exit.obj
 0001:00015d68       ?try_cor_exit_process@@YAXI@Z 0000000180016d68 f   libucrt:exit.obj
 0001:00015e00       ??$parse_command_line@D@@YAXPEADPEAPEAD0PEA_K2@Z 0000000180016e00 f   libucrt:argv_parsing.obj
 0001:00016198       ??$common_initialize_environment_nolock@D@@YAHXZ 0000000180017198 f   libucrt:environment_initialization.obj
 0001:00016204       ??$create_environment@D@@YAQEAPEADQEAD@Z 0000000180017204 f   libucrt:environment_initialization.obj
 0001:00016300       ??$free_environment@D@@YAXQEAPEAD@Z 0000000180017300 f   libucrt:environment_initialization.obj
 0001:00016300       ??$free_environment@_W@@YAXQEAPEA_W@Z 0000000180017300 f   libucrt:environment_initialization.obj
 0001:00016344       ??$uninitialize_environment_internal@D@@YAXAEAPEAPEAD@Z 0000000180017344 f   libucrt:environment_initialization.obj
 0001:00016360       ??$uninitialize_environment_internal@_W@@YAXAEAPEAPEA_W@Z 0000000180017360 f   libucrt:environment_initialization.obj
 0001:00016598       ??R<lambda_4e60a939b0d047cfe11ddc22648dfba9>@@QEBAHXZ 0000000180017598 f   libucrt:onexit.obj
 0001:00016848       initialize_global_variables 0000000180017848 f   libucrt:initialization.obj
 0001:0001685c       initialize_c               000000018001785c f   libucrt:initialization.obj
 0001:00016880       uninitialize_c             0000000180017880 f   libucrt:initialization.obj
 0001:00016880       initialize_environment     0000000180017880 f   libucrt:initialization.obj
 0001:00016880       report_memory_leaks        0000000180017880 f   libucrt:initialization.obj
 0001:00016880       uninitialize_global_state_isolation 0000000180017880 f   libucrt:initialization.obj
 0001:00016880       initialize_global_state_isolation 0000000180017880 f   libucrt:initialization.obj
 0001:00016884       uninitialize_environment   0000000180017884 f   libucrt:initialization.obj
 0001:00016894       initialize_pointers        0000000180017894 f   libucrt:initialization.obj
 0001:000168e8       uninitialize_vcruntime     00000001800178e8 f   libucrt:initialization.obj
 0001:000168f0       uninitialize_allocated_memory 00000001800178f0 f   libucrt:initialization.obj
 0001:00017330       $$000000                   0000000180018330     libucrt:strncmp.obj
 0001:00017528       ?construct_ptd_array@@YAXQEAU__acrt_ptd@@@Z 0000000180018528 f   libucrt:per_thread_data.obj
 0001:000175f8       ?destroy_fls@@YAXPEAX@Z    00000001800185f8 f   libucrt:per_thread_data.obj
 0001:00017618       ?destroy_ptd_array@@YAXQEAU__acrt_ptd@@@Z 0000000180018618 f   libucrt:per_thread_data.obj
 0001:00017710       ?replace_current_thread_locale_nolock@@YAXQEAU__acrt_ptd@@QEAU__crt_locale_data@@@Z 0000000180018710 f   libucrt:per_thread_data.obj
 0001:00017ae8       ?try_get_function@@YAPEAXW4function_id@?A0x63058377@@QEBDQEBW4module_id@2@2@Z 0000000180018ae8 f   libucrt:winapi_thunks.obj
 0001:00018190       ?internal_isupper_l@@YA_NHQEAU__crt_locale_pointers@@@Z 0000000180019190 f   libucrt:tolower_toupper.obj
 0001:000187a0       ?fp_format_a@@YAHQEBNPEAD_KQEAD2H_NIQEAU__crt_locale_pointers@@@Z 00000001800197a0 f   libucrt:cvt.obj
 0001:00018b00       ?fp_format_e@@YAHQEBNQEAD_K12H_NIQEAU__crt_locale_pointers@@@Z 0000000180019b00 f   libucrt:cvt.obj
 0001:00018bd0       ?fp_format_e_internal@@YAHQEAD_KH_NIQEAU_strflt@@2QEAU__crt_locale_pointers@@@Z 0000000180019bd0 f   libucrt:cvt.obj
 0001:00018dac       ?fp_format_f_internal@@YAHQEAD_KHQEAU_strflt@@_NQEAU__crt_locale_pointers@@@Z 0000000180019dac f   libucrt:cvt.obj
 0001:00018ef4       ?fp_format_g@@YAHQEBNQEAD_K12H_NIQEAU__crt_locale_pointers@@@Z 0000000180019ef4 f   libucrt:cvt.obj
 0001:0001902c       ?fp_format_nan_or_infinity@@YAHW4__acrt_fp_class@@_NPEAD_K1@Z 000000018001a02c f   libucrt:cvt.obj
 0001:000195dc       ?initialize_inherited_file_handles_nolock@@YAXXZ 000000018001a5dc f   libucrt:ioinit.obj
 0001:000196c8       ?initialize_stdio_handles_nolock@@YAXXZ 000000018001a6c8 f   libucrt:ioinit.obj
 0001:000198f8       ?<helper_func_cdecl>@<lambda_2feae5270eb4d0d5532525f423405775>@@CAHPEBX0@Z 000000018001a8f8 f   libucrt:argv_wildcards.obj
 0001:0001990c       ??$common_expand_argv_wildcards@D@@YAHQEAPEADQEAPEAPEAD@Z 000000018001a90c f   libucrt:argv_wildcards.obj
 0001:00019b18       ??$copy_and_add_argument_to_buffer@D@@YAHQEBD0_KAEAV?$argument_list@D@?A0xca0879c4@@@Z 000000018001ab18 f   libucrt:argv_wildcards.obj
 0001:00019c28       ??$expand_argument_wildcards@D@@YAHQEAD0AEAV?$argument_list@D@?A0xca0879c4@@@Z 000000018001ac28 f   libucrt:argv_wildcards.obj
 0001:00019edc       ??R<lambda_ad1ced32f4ac17aa236e5ef05d6b3b7c>@@QEBAXXZ 000000018001aedc f   libucrt:mbctype.obj
 0001:0001a0f4       ?getSystemCP@@YAHH@Z       000000018001b0f4 f   libucrt:mbctype.obj
 0001:0001a174       ?setSBCS@@YAXPEAU__crt_multibyte_data@@@Z 000000018001b174 f   libucrt:mbctype.obj
 0001:0001a204       ?setSBUpLow@@YAXPEAU__crt_multibyte_data@@@Z 000000018001b204 f   libucrt:mbctype.obj
 0001:0001a3e8       ?setmbcp_internal@@YAHH_N@Z 000000018001b3e8 f   libucrt:mbctype.obj
 0001:0001a930       ?x_ismbbtype_l@@YAHPEAU__crt_locale_pointers@@IHH@Z 000000018001b930 f   libucrt:ismbbyte.obj
 0001:0001b55c       ?GetTableIndexFromLocaleName@@YAHPEB_W@Z 000000018001c55c f   libucrt:lcidtoname_downlevel.obj
 0001:0001b698       ?__acrt_LCMapStringA_stat@@YAHPEAU__crt_locale_pointers@@PEB_WKPEBDHPEADHHH@Z 000000018001c698 f   libucrt:lcmapstringa.obj
 0001:0001d38c       memcpy_s                   000000018001e38c f   libucrt:cfout.obj
 0001:0001d598       common_flush_all           000000018001e598 f   libucrt:fflush.obj
 0001:0001d894       ?free_crt_array_internal@@YAXQEAPEBX_K@Z 000000018001e894 f   libucrt:inittime.obj
 0001:0001ded0       ?shortsort@@YAXPEAD0_KP6AHPEBX2@Z@Z 000000018001eed0 f   libucrt:qsort.obj
 0001:0001e4e8       ?initialize_multibyte@@YAHXZ 000000018001f4e8 f   libucrt:multibyte_initializer.obj
 0001:0001e6a0       $$000000                   000000018001f6a0     libucrt:log10.obj
 0001:0001ec4c       ?write_double_translated_ansi_nolock@@YA?AUwrite_result@?A0x9c548279@@HQEBDI@Z 000000018001fc4c f   libucrt:write.obj
 0001:0001ee54       ?write_text_ansi_nolock@@YA?AUwrite_result@?A0x9c548279@@HQEBDI@Z 000000018001fe54 f   libucrt:write.obj
 0001:0001ef5c       ?write_text_utf16le_nolock@@YA?AUwrite_result@?A0x9c548279@@HQEBDI@Z 000000018001ff5c f   libucrt:write.obj
 0001:0001f078       ?write_text_utf8_nolock@@YA?AUwrite_result@?A0x9c548279@@HQEBDI@Z 0000000180020078 f   libucrt:write.obj
 0001:0001f5bc       ??$common_lseek_nolock@_J@@YA_JH_JH@Z 00000001800205bc f   libucrt:lseek.obj
 0001:0001f9a8       common_control87           00000001800209a8 f   libucrt:ieee.obj
 0001:0001fc40       _call_matherr              0000000180020c40 f   libucrt:libm_error.obj
 0001:0001fca8       _exception_enabled         0000000180020ca8 f   libucrt:libm_error.obj
 0001:0001ff40       _log_special_common        0000000180020f40 f   libucrt:log_special.obj
 0001:00020250       $$000000                   0000000180021250     libucrt:fpsr.obj
 0001:00020970       $$000000                   0000000180021970     LIBCMT:guard_dispatch.obj
 0001:00020990       ?filt$0@?0??_AtlVerifyStackAvailable@_ATL_SAFE_ALLOCA_IMPL@ATL@@YA_N_K@Z@4HA 0000000180021990 f   RemoteOrderDisplay.obj
 0001:000209b1       __scrt_is_nonwritable_in_current_image$filt$0 00000001800219b1 f   LIBCMT:utility.obj
 0001:000209c9       ?catch$0@?0???2@YAPEAX_KAEBUnothrow_t@std@@@Z@4HA 00000001800219c9 f   LIBCMT:new_scalar_nothrow.obj
 0001:000209d6       __catch$??2@YAPEAX_KAEBUnothrow_t@std@@@Z$0 00000001800219d6 f   LIBCMT:new_scalar_nothrow.obj
 0001:000209e4       ?fin$0@?0??dllmain_crt_process_attach@@YAHQEAUHINSTANCE__@@QEAX@Z@4HA 00000001800219e4 f   LIBCMT:dll_dllmain.obj
 0001:000209fb       ?fin$0@?0??dllmain_crt_process_detach@@YAH_N@Z@4HA 00000001800219fb f   LIBCMT:dll_dllmain.obj
 0001:00020a17       ?filt$0@?0??dllmain_dispatch@@YAHQEAUHINSTANCE__@@KQEAX@Z@4HA 0000000180021a17 f   LIBCMT:dll_dllmain.obj
 0001:00020a4d       __DestructExceptionObject$filt$0 0000000180021a4d f   libvcruntime:ehhelpers.obj
 0001:00020a65       ?filt$0@?0???$_CallSETranslator@V__FrameHandler3@@@@YAHPEAUEHExceptionRecord@@PEA_KPEAU_CONTEXT@@PEAU_xDISPATCHER_CONTEXT@@PEBU_s_FuncInfo@@K1@Z@4HA 0000000180021a65 f   libvcruntime:risctrnsctrl.obj
 0001:00020af6       ?filt$0@?0??CxxCallCatchBlock@__FrameHandler3@@SAPEAXPEAU_EXCEPTION_RECORD@@@Z@4HA 0000000180021af6 f   libvcruntime:frame.obj
 0001:00020b1b       ?fin$1@?0??CxxCallCatchBlock@__FrameHandler3@@SAPEAXPEAU_EXCEPTION_RECORD@@@Z@4HA 0000000180021b1b f   libvcruntime:frame.obj
 0001:00020b93       ?filt$0@?0??FrameUnwindToState@__FrameHandler3@@SAXPEA_KPEAU_xDISPATCHER_CONTEXT@@PEBU_s_FuncInfo@@H@Z@4HA 0000000180021b93 f   libvcruntime:frame.obj
 0001:00020ba9       ?fin$1@?0??FrameUnwindToState@__FrameHandler3@@SAXPEA_KPEAU_xDISPATCHER_CONTEXT@@PEBU_s_FuncInfo@@H@Z@4HA 0000000180021ba9 f   libvcruntime:frame.obj
 0001:00020bcc       ?filt$0@?0??common_exit@@YAXHW4_crt_exit_cleanup_mode@@W4_crt_exit_return_mode@@@Z@4HA 0000000180021bcc f   libucrt:exit.obj
 0001:00020be7       ?fin$1@?0??common_exit@@YAXHW4_crt_exit_cleanup_mode@@W4_crt_exit_return_mode@@@Z@4HA 0000000180021be7 f   libucrt:exit.obj
 0001:00020c00       ?fin$0@?0???$?RV<lambda_5e887d1dcbef67a5eb4283622ba103bf>@@AEAV<lambda_4466841279450cc726390878d4a41900>@@V<lambda_341c25c0346d94847f1f3c463c57e077>@@@?$__crt_seh_guarded_call@X@@QEAAX$$QEAV<lambda_5e887d1dcbef67a5eb4283622ba103bf>@@AEAV<lambda_4466841279450cc726390878d4a41900>@@$$QEAV<lambda_341c25c0346d94847f1f3c463c57e077>@@@Z@4HA 0000000180021c00 f   libucrt:per_thread_data.obj
 0001:00020c00       ?fin$0@?0???$?RV<lambda_c36588078e9f5dfd39652860aa6b3aaf>@@AEAV<lambda_ec61778202f4f5fc7e7711acc23c3bca>@@V<lambda_dc9d2797ccde5d239b4a0efae8ebd7db>@@@?$__crt_seh_guarded_call@P6AXH@Z@@QEAAP6AXH@Z$$QEAV<lambda_c36588078e9f5dfd39652860aa6b3aaf>@@AEAV<lambda_ec61778202f4f5fc7e7711acc23c3bca>@@$$QEAV<lambda_dc9d2797ccde5d239b4a0efae8ebd7db>@@@Z@4HA 0000000180021c00 f   libucrt:signal.obj
 0001:00020c00       ?fin$0@?0???$?RV<lambda_99476a1ad63dd22509b5d3e65b0ffc95>@@AEAV<lambda_ad1ced32f4ac17aa236e5ef05d6b3b7c>@@V<lambda_f7424dd8d45958661754dc4f2697e9c3>@@@?$__crt_seh_guarded_call@X@@QEAAX$$QEAV<lambda_99476a1ad63dd22509b5d3e65b0ffc95>@@AEAV<lambda_ad1ced32f4ac17aa236e5ef05d6b3b7c>@@$$QEAV<lambda_f7424dd8d45958661754dc4f2697e9c3>@@@Z@4HA 0000000180021c00 f   libucrt:mbctype.obj
 0001:00020c00       ?fin$0@?0???$?RV<lambda_72d1df2b273a38828b1ce30cbf4cdab5>@@AEAV<lambda_876a65b173b8412d3a47c70a915b0cf4>@@V<lambda_41932305e351933ebe8f8be3ed8bb5dc>@@@?$__crt_seh_guarded_call@X@@QEAAX$$QEAV<lambda_72d1df2b273a38828b1ce30cbf4cdab5>@@AEAV<lambda_876a65b173b8412d3a47c70a915b0cf4>@@$$QEAV<lambda_41932305e351933ebe8f8be3ed8bb5dc>@@@Z@4HA 0000000180021c00 f   libucrt:per_thread_data.obj
 0001:00020c00       ?fin$0@?0???$?RV<lambda_b8c45f8f788dd370798f47cfe8ac3a86>@@AEAV<lambda_4e60a939b0d047cfe11ddc22648dfba9>@@V<lambda_332c3edc96d0294ec56c57d38c1cdfd5>@@@?$__crt_seh_guarded_call@H@@QEAAH$$QEAV<lambda_b8c45f8f788dd370798f47cfe8ac3a86>@@AEAV<lambda_4e60a939b0d047cfe11ddc22648dfba9>@@$$QEAV<lambda_332c3edc96d0294ec56c57d38c1cdfd5>@@@Z@4HA 0000000180021c00 f   libucrt:onexit.obj
 0001:00020c00       ?fin$0@?0???$?RV<lambda_fb3a7dec4e47f37f22dae91bb15c9095>@@AEAV<lambda_698284760c8add0bfb0756c19673e34b>@@V<lambda_dfb8eca1e75fef3034a8fb18dd509707>@@@?$__crt_seh_guarded_call@X@@QEAAX$$QEAV<lambda_fb3a7dec4e47f37f22dae91bb15c9095>@@AEAV<lambda_698284760c8add0bfb0756c19673e34b>@@$$QEAV<lambda_dfb8eca1e75fef3034a8fb18dd509707>@@@Z@4HA 0000000180021c00 f   libucrt:per_thread_data.obj
 0001:00020c00       ?fin$0@?0???$?RV<lambda_46352004c1216016012b18bd6f87e700>@@AEAV<lambda_3bd07e1a1191394380780325891bf33f>@@V<lambda_334532d3f185bcaa59b5be82d7d22bff>@@@?$__crt_seh_guarded_call@X@@QEAAX$$QEAV<lambda_46352004c1216016012b18bd6f87e700>@@AEAV<lambda_3bd07e1a1191394380780325891bf33f>@@$$QEAV<lambda_334532d3f185bcaa59b5be82d7d22bff>@@@Z@4HA 0000000180021c00 f   libucrt:per_thread_data.obj
 0001:00020c1a       ?fin$0@?0???$?RV<lambda_e24bbb7b643b32fcea6fa61b31d4c984>@@AEAV<lambda_275893d493268fdec8709772e3fcec0e>@@V<lambda_9d71df4d7cf3f480f8d633942495c3b0>@@@?$__crt_seh_guarded_call@H@@QEAAH$$QEAV<lambda_e24bbb7b643b32fcea6fa61b31d4c984>@@AEAV<lambda_275893d493268fdec8709772e3fcec0e>@@$$QEAV<lambda_9d71df4d7cf3f480f8d633942495c3b0>@@@Z@4HA 0000000180021c1a f   libucrt:onexit.obj
 0001:00020c37       _query_new_handler$fin$0   0000000180021c37 f   libucrt:new_handler.obj
 0001:00020c4d       __acrt_update_thread_locale_data$fin$0 0000000180021c4d f   libucrt:locale_refcounting.obj
 0001:00020c4d       __acrt_uninitialize_locale$fin$0 0000000180021c4d f   libucrt:wsetlocale.obj
 0001:00020c66       __acrt_lowio_ensure_fh_exists$fin$0 0000000180021c66 f   libucrt:osfinfo.obj
 0001:00020c66       __acrt_initialize_lowio$fin$0 0000000180021c66 f   libucrt:ioinit.obj
 0001:00020c7f       __acrt_update_thread_multibyte_data$fin$0 0000000180021c7f f   libucrt:mbctype.obj
 0001:00020c98       raise$fin$0                0000000180021c98 f   libucrt:signal.obj
 0001:00020cbc       _fcloseall$fin$0           0000000180021cbc f   libucrt:closeall.obj
 0001:00020cd5       common_flush_all$fin$0     0000000180021cd5 f   libucrt:fflush.obj
 0001:00020cef       common_flush_all$fin$1     0000000180021cef f   libucrt:fflush.obj
 0001:00020d08       _write$fin$0               0000000180021d08 f   libucrt:write.obj
 0001:00020d1f       fclose$fin$0               0000000180021d1f f   libucrt:fclose.obj
 0001:00020d37       ?fin$0@?0???$?RV<lambda_b521505b218e5242e90febf6bfebc422>@@AEAV<lambda_6978c1fb23f02e42e1d9e99668cc68aa>@@V<lambda_314360699dd331753a4119843814e9a7>@@@?$__crt_seh_guarded_call@H@@QEAAH$$QEAV<lambda_b521505b218e5242e90febf6bfebc422>@@AEAV<lambda_6978c1fb23f02e42e1d9e99668cc68aa>@@$$QEAV<lambda_314360699dd331753a4119843814e9a7>@@@Z@4HA 0000000180021d37 f   libucrt:commit.obj
 0001:00020d37       ?fin$0@?0???$?RV<lambda_bfedae4ebbf01fab1bb6dcc6a9e276e0>@@AEAV<lambda_2fe9b910cf3cbf4a0ab98a02ba45b3ec>@@V<lambda_237c231691f317818eb88cc1d5d642d6>@@@?$__crt_seh_guarded_call@H@@QEAAH$$QEAV<lambda_bfedae4ebbf01fab1bb6dcc6a9e276e0>@@AEAV<lambda_2fe9b910cf3cbf4a0ab98a02ba45b3ec>@@$$QEAV<lambda_237c231691f317818eb88cc1d5d642d6>@@@Z@4HA 0000000180021d37 f   libucrt:close.obj
 0001:00020d51       common_control87$filt$0    0000000180021d51 f   libucrt:ieee.obj
 0001:00020d51       _ctrlfp$filt$0             0000000180021d51 f   libucrt:fpctrl.obj
 0001:00020d80       _IsNonwritableInCurrentImage$filt$0 0000000180021d80 f   LIBCMT:pesect.obj
 0001:00020da0       ??__F_AtlComModule@ATL@@YAXXZ 0000000180021da0 f   OposVariant.obj
 0001:00020dac       ??__F_AtlWinModule@ATL@@YAXXZ 0000000180021dac f   OposVariant.obj
 0001:00020df0       ??__F_Module@@YAXXZ        0000000180021df0 f   RemoteOrderDisplay.obj
 0001:00020e54       ??__F_AtlBaseModule@ATL@@YAXXZ 0000000180021e54 f   atls:atlbase.obj
 0002:00000638       ?_AtlBaseModule$initializer$@ATL@@3P6AXXZEA 0000000180022638     atls:atlbase.obj
 0002:00000640       ?_AtlComModule$initializer$@ATL@@3P6AXXZEA 0000000180022640     OposVariant.obj
 0002:00000648       ?_AtlWinModule$initializer$@ATL@@3P6AXXZEA 0000000180022648     OposVariant.obj
 0002:00000650       ?_Module$initializer$@@3P6AXXZEA 0000000180022650     RemoteOrderDisplay.obj
 0002:00000658       ??pConnMap$initializer$@?$IConnectionPointContainerImpl@VCOPOSRemoteOrderDisplay@@@ATL@@0P6AXXZEA@@3P6AXXZEA 0000000180022658     RemoteOrderDisplay.obj
 0002:00000670       ?__scrt_initialize_tss_var@@3P6AHXZEA 0000000180022670     LIBCMT:thread_safe_statics.obj
 0002:000029b0       $cppxdata$?__scrt_initialize_thread_safe_statics@@YAHXZ 00000001800249b0     LIBCMT:thread_safe_statics.obj
 0002:00002aa8       GS_ExceptionPointers       0000000180024aa8     LIBCMT:gs_report.obj
 0002:00002ab8       $cppxdata$??2@YAPEAX_KAEBUnothrow_t@std@@@Z 0000000180024ab8     LIBCMT:new_scalar_nothrow.obj
 0002:00002c90       ?ExceptionTemplate@?1??UnwindNestedFrames@__FrameHandler3@@SAXPEA_KPEAUEHExceptionRecord@@PEAU_CONTEXT@@0PEAXPEBU_s_FuncInfo@@HHPEBU_s_HandlerType@@PEAU_xDISPATCHER_CONTEXT@@E@Z@4U_EXCEPTION_RECORD@@B 0000000180024c90     libvcruntime:risctrnsctrl.obj
 0002:00002d30       ?ExceptionTemplate@?1??_CxxThrowException@@9@4UEHExceptionRecord@@B 0000000180024d30     libvcruntime:throw.obj
 0002:00002d70       ?module_names@?A0xbfd18cd1@@3QBQEB_WB 0000000180024d70     libvcruntime:winapi_downlevel.obj
 0002:00002e40       ?candidate_modules@?1??try_get_FlsAlloc@@YAP6AKP6AXPEAX@Z@ZXZ@4QBW4module_id@?A0xbfd18cd1@@B 0000000180024e40     libvcruntime:winapi_downlevel.obj
 0002:00002e58       ?candidate_modules@?1??try_get_FlsFree@@YAP6AHK@ZXZ@4QBW4module_id@?A0xbfd18cd1@@B 0000000180024e58     libvcruntime:winapi_downlevel.obj
 0002:00002e68       ?candidate_modules@?1??try_get_FlsGetValue@@YAP6APEAXK@ZXZ@4QBW4module_id@?A0xbfd18cd1@@B 0000000180024e68     libvcruntime:winapi_downlevel.obj
 0002:00002e80       ?candidate_modules@?1??try_get_FlsSetValue@@YAP6AHKPEAX@ZXZ@4QBW4module_id@?A0xbfd18cd1@@B 0000000180024e80     libvcruntime:winapi_downlevel.obj
 0002:00002e98       ?candidate_modules@?1??try_get_InitializeCriticalSectionEx@@YAP6AHPEAU_RTL_CRITICAL_SECTION@@KK@ZXZ@4QBW4module_id@?A0xbfd18cd1@@B 0000000180024e98     libvcruntime:winapi_downlevel.obj
 0002:00002ef0       ?tokenTable@@3QBQEBDB      0000000180024ef0     libvcruntime:undname.obj
 0002:00002f70       ?nameTable@@3QBQEBDB       0000000180024f70     libvcruntime:undname.obj
 0002:00003200       ?rttiTable@@3QBQEBDB       0000000180025200     libvcruntime:undname.obj
 0002:000038c0       errtable                   00000001800258c0     libucrt:errno.obj
 0002:00003bb0       __acrt_initializers        0000000180025bb0     libucrt:initialization.obj
 0002:00003ca0       module_names               0000000180025ca0     libucrt:winapi_thunks.obj
 0002:00004280       ?candidate_modules@?1??try_get_FlsAlloc@@YAP6AKP6AXPEAX@Z@ZXZ@4QBW4module_id@?A0x63058377@@B 0000000180026280     libucrt:winapi_thunks.obj
 0002:00004298       ?candidate_modules@?1??try_get_FlsFree@@YAP6AHK@ZXZ@4QBW4module_id@?A0x63058377@@B 0000000180026298     libucrt:winapi_thunks.obj
 0002:000042a8       ?candidate_modules@?1??try_get_FlsGetValue@@YAP6APEAXK@ZXZ@4QBW4module_id@?A0x63058377@@B 00000001800262a8     libucrt:winapi_thunks.obj
 0002:000042c0       ?candidate_modules@?1??try_get_FlsSetValue@@YAP6AHKPEAX@ZXZ@4QBW4module_id@?A0x63058377@@B 00000001800262c0     libucrt:winapi_thunks.obj
 0002:000042d8       ?candidate_modules@?1??try_get_GetCurrentPackageId@@YAP6AJPEAIPEAE@ZXZ@4QBW4module_id@?A0x63058377@@B 00000001800262d8     libucrt:winapi_thunks.obj
 0002:000042f8       ?candidate_modules@?1??try_get_InitializeCriticalSectionEx@@YAP6AHPEAU_RTL_CRITICAL_SECTION@@KK@ZXZ@4QBW4module_id@?A0x63058377@@B 00000001800262f8     libucrt:winapi_thunks.obj
 0002:00004320       ?candidate_modules@?1??try_get_LCMapStringEx@@YAP6AHPEB_WK0HPEA_WHPEAU_nlsversioninfo@@PEAX_J@ZXZ@4QBW4module_id@?A0x63058377@@B 0000000180026320     libucrt:winapi_thunks.obj
 0002:00004338       ?candidate_modules@?1??try_get_LocaleNameToLCID@@YAP6AKPEB_WK@ZXZ@4QBW4module_id@?A0x63058377@@B 0000000180026338     libucrt:winapi_thunks.obj
 0002:00004358       ?candidate_modules@?1??try_get_SetThreadStackGuarantee@@YAP6AHPEAK@ZXZ@4QBW4module_id@?A0x63058377@@B 0000000180026358     libucrt:winapi_thunks.obj
 0002:00004a50       _mb_locale_names           0000000180026a50     libucrt:mbctype.obj
 0002:000052c0       LcidToLocaleNameTable      00000001800272c0     libucrt:lcidtoname_downlevel.obj
 0002:00006d20       LocaleNameToIndexTable     0000000180028d20     libucrt:lcidtoname_downlevel.obj
 0002:00008fc0       __real_ninf                000000018002afc0     libucrt:log10.obj
 0002:00008fd0       __real_inf                 000000018002afd0     libucrt:log10.obj
 0002:00008fe0       __real_neg_qnan            000000018002afe0     libucrt:log10.obj
 0002:00008ff0       __real_qnanbit             000000018002aff0     libucrt:log10.obj
 0002:00009000       __int_1023                 000000018002b000     libucrt:log10.obj
 0002:00009010       __mask_001                 000000018002b010     libucrt:log10.obj
 0002:00009020       __mask_mant                000000018002b020     libucrt:log10.obj
 0002:00009030       __mask_mant_top8           000000018002b030     libucrt:log10.obj
 0002:00009040       __mask_mant9               000000018002b040     libucrt:log10.obj
 0002:00009050       __real_log10_e             000000018002b050     libucrt:log10.obj
 0002:00009060       __real_log10_e_lead        000000018002b060     libucrt:log10.obj
 0002:00009070       __real_log10_e_tail        000000018002b070     libucrt:log10.obj
 0002:00009080       __real_log10_2_lead        000000018002b080     libucrt:log10.obj
 0002:00009090       __real_log10_2_tail        000000018002b090     libucrt:log10.obj
 0002:000090a0       __real_two                 000000018002b0a0     libucrt:log10.obj
 0002:000090b0       __real_one                 000000018002b0b0     libucrt:log10.obj
 0002:000090c0       __real_half                000000018002b0c0     libucrt:log10.obj
 0002:000090d0       __mask_100                 000000018002b0d0     libucrt:log10.obj
 0002:000090e0       __real_1_over_512          000000018002b0e0     libucrt:log10.obj
 0002:000090f0       __real_1_over_2            000000018002b0f0     libucrt:log10.obj
 0002:00009100       __real_1_over_3            000000018002b100     libucrt:log10.obj
 0002:00009110       __real_1_over_4            000000018002b110     libucrt:log10.obj
 0002:00009120       __real_1_over_5            000000018002b120     libucrt:log10.obj
 0002:00009130       __real_1_over_6            000000018002b130     libucrt:log10.obj
 0002:00009140       __real_neg_1023            000000018002b140     libucrt:log10.obj
 0002:00009150       __mask_2045                000000018002b150     libucrt:log10.obj
 0002:00009160       __real_threshold           000000018002b160     libucrt:log10.obj
 0002:00009170       __real_near_one_lt         000000018002b170     libucrt:log10.obj
 0002:00009180       __real_near_one_gt         000000018002b180     libucrt:log10.obj
 0002:00009190       __real_min_norm            000000018002b190     libucrt:log10.obj
 0002:000091a0       __real_notsign             000000018002b1a0     libucrt:log10.obj
 0002:000091b0       __real_ca1                 000000018002b1b0     libucrt:log10.obj
 0002:000091c0       __real_ca2                 000000018002b1c0     libucrt:log10.obj
 0002:000091d0       __real_ca3                 000000018002b1d0     libucrt:log10.obj
 0002:000091e0       __real_ca4                 000000018002b1e0     libucrt:log10.obj
 0002:000091f0       __mask_lower               000000018002b1f0     libucrt:log10.obj
 0002:00009200       __flag_x_zero              000000018002b200     libucrt:log10.obj
 0002:00009204       __flag_x_neg               000000018002b204     libucrt:log10.obj
 0002:00009208       __flag_x_nan               000000018002b208     libucrt:log10.obj
 0002:0000aa50       __real@433fffffffffffff    000000018002ca50     libucrt:fpsr.obj
 0002:0000aa58       __real@c33fffffffffffff    000000018002ca58     libucrt:fpsr.obj
 0002:0000b2a0       $unwind$_invalid_parameter_noinfo 000000018002d2a0     libucrt:invalid_parameter.obj
 0002:0000b2a0       $unwind$_log10_special     000000018002d2a0     libucrt:log_special.obj
 0002:0000b2a0       $unwind$?ProcessWindowMessage@?$CComControl@VCOPOSRemoteOrderDisplay@@V?$CWindowImpl@VCOPOSRemoteOrderDisplay@@VCWindow@ATL@@V?$CWinTraits@$0FGAAAAAA@$0A@@3@@ATL@@@ATL@@UEAAHPEAUHWND__@@I_K_JAEA_JK@Z 000000018002d2a0     RemoteOrderDisplay.obj
 0002:0000b2a0       $unwind$?cw_memcpy@@YAHPEA_WPEBDH@Z 000000018002d2a0     CWString.obj
 0002:0000b2a8       $unwind$__acrt_initialize_multibyte 000000018002d2a8     libucrt:mbctype.obj
 0002:0000b2a8       $unwind$__vcrt_thread_attach 000000018002d2a8     libvcruntime:initialization.obj
 0002:0000b2a8       $unwind$__doserrno         000000018002d2a8     libucrt:errno.obj
 0002:0000b2a8       $unwind$__vcrt_uninitialize_critical 000000018002d2a8     libvcruntime:initialization.obj
 0002:0000b2a8       $unwind$__acrt_initialize_command_line 000000018002d2a8     libucrt:argv_data.obj
 0002:0000b2a8       $unwind$__acrt_initialize_heap 000000018002d2a8     libucrt:heap_handle.obj
 0002:0000b2a8       $unwind$__vcrt_uninitialize 000000018002d2a8     libvcruntime:initialization.obj
 0002:0000b2a8       $unwind$_errno             000000018002d2a8     libucrt:errno.obj
 0002:0000b2a8       $unwind$__vcrt_initialize  000000018002d2a8     libvcruntime:initialization.obj
 0002:0000b2a8       $unwind$__pctype_func      000000018002d2a8     libucrt:ctype.obj
 0002:0000b2a8       $unwind$__acrt_release_locale_ref 000000018002d2a8     libucrt:locale_refcounting.obj
 0002:0000b2a8       $unwind$?AddReplacement@CRegObject@ATL@@UEAAJPEB_W0@Z 000000018002d2a8     RemoteOrderDisplay.obj
 0002:0000b2a8       $unwind$?cw_strcpy@@YAHPEA_WPEBD@Z 000000018002d2a8     CWString.obj
 0002:0000b2a8       $unwind$_purecall          000000018002d2a8     libvcruntime:purevirt.obj
 0002:0000b2a8       $unwind$__acrt_DownlevelLocaleNameToLCID 000000018002d2a8     libucrt:lcidtoname_downlevel.obj
 0002:0000b2a8       $unwind$__std_terminate    000000018002d2a8     libvcruntime:ehhelpers.obj
 0002:0000b2a8       $unwind$?CreateInstance@CComClassFactory@ATL@@UEAAJPEAUIUnknown@@AEBU_GUID@@PEAPEAX@Z 000000018002d2a8     RemoteOrderDisplay.obj
 0002:0000b2a8       $unwind$?LockServer@CComClassFactory@ATL@@UEAAJH@Z 000000018002d2a8     RemoteOrderDisplay.obj
 0002:0000b2a8       $unwind$__FrameUnwindFilter 000000018002d2a8     libvcruntime:ehhelpers.obj
 0002:0000b2a8       $unwind$_getfpstatusword   000000018002d2a8     libucrt:_fenvutils.obj
 0002:0000b2a8       $unwind$__acrt_uninitialize_critical 000000018002d2a8     libucrt:initialization.obj
 0002:0000b2a8       $unwind$_invoke_watson     000000018002d2a8     libucrt:invalid_parameter.obj
 0002:0000b2a8       $unwind$__acrt_thread_attach 000000018002d2a8     libucrt:initialization.obj
 0002:0000b2a8       $unwind$_getfpcontrolword  000000018002d2a8     libucrt:_fenvutils.obj
 0002:0000b2a8       $unwind$__acrt_thread_detach 000000018002d2a8     libucrt:initialization.obj
 0002:0000b2a8       $unwind$initialize_c       000000018002d2a8     libucrt:initialization.obj
 0002:0000b2a8       $unwind$_GetImageBase      000000018002d2a8     libvcruntime:risctrnsctrl.obj
 0002:0000b2a8       $unwind$uninitialize_environment 000000018002d2a8     libucrt:initialization.obj
 0002:0000b2a8       $unwind$_GetThrowImageBase 000000018002d2a8     libvcruntime:risctrnsctrl.obj
 0002:0000b2a8       $unwind$??$uninitialize_environment_internal@_W@@YAXAEAPEAPEA_W@Z 000000018002d2a8     libucrt:environment_initialization.obj
 0002:0000b2a8       $unwind$?get_State@COPOSRemoteOrderDisplay@@UEAAJPEAJ@Z 000000018002d2a8     RemoteOrderDisplayImpl.obj
 0002:0000b2a8       $unwind$??$uninitialize_environment_internal@D@@YAXAEAPEAPEAD@Z 000000018002d2a8     libucrt:environment_initialization.obj
 0002:0000b2a8       $unwind$?get_ResultCode@COPOSRemoteOrderDisplay@@UEAAJPEAJ@Z 000000018002d2a8     RemoteOrderDisplayImpl.obj
 0002:0000b2a8       $unwind$?DefaultReflectionHandler@?$CWindowImplRoot@VCWindow@ATL@@@ATL@@SAHPEAUHWND__@@I_K_JAEA_J@Z 000000018002d2a8     RemoteOrderDisplay.obj
 0002:0000b2a8       $unwind$__dcrt_uninitialize_environments_nolock 000000018002d2a8     libucrt:environment_initialization.obj
 0002:0000b2a8       $unwind$??__E_AtlBaseModule@ATL@@YAXXZ 000000018002d2a8     atls:atlbase.obj
 0002:0000b2a8       $unwind$abort              000000018002d2a8     libucrt:abort.obj
 0002:0000b2a8       $unwind$?FireViewChange@CComControlBase@ATL@@QEAAJXZ 000000018002d2a8     RemoteOrderDisplay.obj
 0002:0000b2a8       $unwind$?Unadvise@?$IOleObjectImpl@VCOPOSRemoteOrderDisplay@@@ATL@@UEAAJK@Z 000000018002d2a8     RemoteOrderDisplay.obj
 0002:0000b2a8       $unwind$__vcrt_initialize_ptd 000000018002d2a8     libvcruntime:per_thread_data.obj
 0002:0000b2a8       $unwind$_fileno            000000018002d2a8     libucrt:fileno.obj
 0002:0000b2a8       $unwind$?EnumAdvise@?$IOleObjectImpl@VCOPOSRemoteOrderDisplay@@@ATL@@UEAAJPEAPEAUIEnumSTATDATA@@@Z 000000018002d2a8     RemoteOrderDisplay.obj
 0002:0000b2a8       $unwind$?OnDocWindowActivate@?$IOleInPlaceActiveObjectImpl@VCOPOSRemoteOrderDisplay@@@ATL@@UEAAJH@Z 000000018002d2a8     RemoteOrderDisplay.obj
 0002:0000b2a8       $unwind$__acrt_initialize_ptd 000000018002d2a8     libucrt:per_thread_data.obj
 0002:0000b2a8       $unwind$__vcrt_uninitialize_ptd 000000018002d2a8     libvcruntime:per_thread_data.obj
 0002:0000b2a8       $unwind$__acrt_uninitialize_ptd 000000018002d2a8     libucrt:per_thread_data.obj
 0002:0000b2a8       $unwind$_isatty            000000018002d2a8     libucrt:isatty.obj
 0002:0000b2a8       $unwind$__vcrt_getptd      000000018002d2a8     libvcruntime:per_thread_data.obj
 0002:0000b2a8       $unwind$__vcrt_freefls     000000018002d2a8     libvcruntime:per_thread_data.obj
 0002:0000b2a8       $unwind$?FinalConstruct@COPOSRemoteOrderDisplay@@QEAAJXZ 000000018002d2a8     RemoteOrderDisplayImpl.obj
 0002:0000b2a8       $unwind$__scrt_initialize_default_local_stdio_options 000000018002d2a8     LIBCMT:default_local_stdio_options.obj
 0002:0000b2a8       $unwind$?dllmain_crt_dispatch@@YAHQEAUHINSTANCE__@@KQEAX@Z 000000018002d2a8     LIBCMT:dll_dllmain.obj
 0002:0000b2a8       $unwind$?GetAdvise@?$IViewObjectExImpl@VCOPOSRemoteOrderDisplay@@@ATL@@UEAAJPEAK0PEAPEAUIAdviseSink@@@Z 000000018002d2a8     RemoteOrderDisplay.obj
 0002:0000b2a8       $unwind$??__E_AtlComModule@ATL@@YAXXZ 000000018002d2a8     OposVariant.obj
 0002:0000b2a8       $unwind$?_LocCPQueryInterface@?$IConnectionPointImpl@VCOPOSRemoteOrderDisplay@@$1?IID_IPropertyNotifySink@@3U_GUID@@BVCComDynamicUnkArray@ATL@@@ATL@@UEAAJAEBU_GUID@@PEAPEAX@Z 000000018002d2a8     RemoteOrderDisplay.obj
 0002:0000b2a8       $unwind$__GSHandlerCheck   000000018002d2a8     LIBCMT:gshandler.obj
 0002:0000b2a8       $unwind$_get_osfhandle     000000018002d2a8     libucrt:osfinfo.obj
 0002:0000b2a8       $unwind$?_LocCPQueryInterface@?$IConnectionPointImpl@VCOPOSRemoteOrderDisplay@@$1?DIID__IOPOSRemoteOrderDisplayEvents@@3U_GUID@@BVCComDynamicUnkArray@ATL@@@ATL@@UEAAJAEBU_GUID@@PEAPEAX@Z 000000018002d2a8     RemoteOrderDisplay.obj
 0002:0000b2a8       $unwind$__report_rangecheckfailure 000000018002d2a8     LIBCMT:gs_report.obj
 0002:0000b2a8       $unwind$_msize             000000018002d2a8     libucrt:msize.obj
 0002:0000b2a8       $unwind$?__scrt_uninitialize_thread_safe_statics@@YAXXZ 000000018002d2a8     LIBCMT:thread_safe_statics.obj
 0002:0000b2a8       $unwind$??__E?pConnMap@?$IConnectionPointContainerImpl@VCOPOSRemoteOrderDisplay@@@ATL@@0PEBU_ATL_CONNMAP_ENTRY@2@EB@@YAXXZ 000000018002d2a8     RemoteOrderDisplay.obj
 0002:0000b2a8       $unwind$_Init_thread_notify 000000018002d2a8     LIBCMT:thread_safe_statics.obj
 0002:0000b2a8       $unwind$_set_errno_from_matherr 000000018002d2a8     libucrt:fpexcept.obj
 0002:0000b2a8       $unwind$?AtlHresultFromLastError@ATL@@YAJXZ 000000018002d2a8     RemoteOrderDisplay.obj
 0002:0000b2a8       $unwind$__vcrt_thread_detach 000000018002d2a8     libvcruntime:initialization.obj
 0002:0000b2a8       $unwind$?AtlThrowImpl@ATL@@YAXJ@Z 000000018002d2a8     RemoteOrderDisplay.obj
 0002:0000b2a8       $unwind$_statfp            000000018002d2a8     libucrt:fpctrl.obj
 0002:0000b2a8       $unwind$?initialize_multibyte@@YAHXZ 000000018002d2a8     libucrt:multibyte_initializer.obj
 0002:0000b2a8       $unwind$??__E_AtlWinModule@ATL@@YAXXZ 000000018002d2a8     OposVariant.obj
 0002:0000b2a8       $unwind$__scrt_dllmain_crt_thread_detach 000000018002d2a8     LIBCMT:utility.obj
 0002:0000b2a8       $unwind$__scrt_dllmain_crt_thread_attach 000000018002d2a8     LIBCMT:utility.obj
 0002:0000b2a8       $unwind$??__F_AtlWinModule@ATL@@YAXXZ 000000018002d2a8     OposVariant.obj
 0002:0000b2a8       $unwind$__scrt_dllmain_uninitialize_critical 000000018002d2a8     LIBCMT:utility.obj
 0002:0000b2a8       $unwind$?state_case_size@?$output_processor@_WV?$string_output_adapter@_W@__crt_stdio_output@@V?$format_validation_base@_WV?$string_output_adapter@_W@__crt_stdio_output@@@2@@__crt_stdio_output@@AEAA_NXZ 000000018002d2a8     libucrt:output.obj
 0002:0000b2a8       $unwind$__scrt_dllmain_uninitialize_c 000000018002d2a8     LIBCMT:utility.obj
 0002:0000b2a8       $unwind$tolower            000000018002d2a8     libucrt:tolower_toupper.obj
 0002:0000b2a8       $unwind$??1OposDispParms@@QEAA@XZ 000000018002d2a8     OposVariant.obj
 0002:0000b2a8       $unwind$?GetLONG@OposVariant@@QEAAJXZ 000000018002d2a8     OposVariant.obj
 0002:0000b2a8       $unwind$__dcrt_terminate_console_output 000000018002d2a8     libucrt:initcon.obj
 0002:0000b2a8       $unwind$atexit             000000018002d2a8     LIBCMT:utility.obj
 0002:0000b2a8       $unwind$__scrt_dllmain_after_initialize_c 000000018002d2a8     LIBCMT:utility.obj
 0002:0000b2a8       $unwind$__scrt_dllmain_before_initialize_c 000000018002d2a8     LIBCMT:utility.obj
 0002:0000b2a8       $unwind$__scrt_acquire_startup_lock 000000018002d2a8     LIBCMT:utility.obj
 0002:0000b2a8       $unwind$??__F_Module@@YAXXZ 000000018002d2a8     RemoteOrderDisplay.obj
 0002:0000b2a8       $unwind$?GetCurrentState@__FrameHandler3@@SAHPEA_KPEAU_xDISPATCHER_CONTEXT@@PEBU_s_FuncInfo@@@Z 000000018002d2a8     libvcruntime:ehstate.obj
 0002:0000b2b0       $unwind$_initterm          000000018002d2b0     libucrt:initterm.obj
 0002:0000b2b0       $unwind$?AtlModuleAddTermFunc@ATL@@YAJPEAU_ATL_MODULE70@1@P6AX_K@Z1@Z 000000018002d2b0     RemoteOrderDisplay.obj
 0002:0000b2b0       $unwind$?CreateInstance@?$CComCreator@V?$CComAggObject@VCOPOSRemoteOrderDisplay@@@ATL@@@ATL@@SAJPEAXAEBU_GUID@@PEAPEAX@Z 000000018002d2b0     RemoteOrderDisplay.obj
 0002:0000b2b0       $unwind$__acrt_initialize_stdio 000000018002d2b0     libucrt:_file.obj
 0002:0000b2b0       $unwind$?AtlComModuleUnregisterServer@ATL@@YAJPEAU_ATL_COM_MODULE70@1@HPEBU_GUID@@@Z 000000018002d2b0     RemoteOrderDisplay.obj
 0002:0000b2b0       $unwind$?AtlComModuleRegisterServer@ATL@@YAJPEAU_ATL_COM_MODULE70@1@HPEBU_GUID@@@Z 000000018002d2b0     RemoteOrderDisplay.obj
 0002:0000b2b0       $unwind$?GetPagesHelper@?$ISpecifyPropertyPagesImpl@VCOPOSRemoteOrderDisplay@@@ATL@@IEAAJPEAUtagCAUUID@@PEBUATL_PROPMAP_ENTRY@2@@Z 000000018002d2b0     RemoteOrderDisplay.obj
 0002:0000b2b0       $unwind$?cw_dup@@YAXPEBDAEAHAEAPEA_W1@Z 000000018002d2b0     CWString.obj
 0002:0000b2b0       $unwind$??$TypeMatchHelper@V__FrameHandler3@@@@YAHPEBU_s_HandlerType@@PEBU_s_CatchableType@@PEBU_s_ThrowInfo@@@Z 000000018002d2b0     libvcruntime:frame.obj
 0002:0000b2b0       $unwind$__GSHandlerCheck_SEH 000000018002d2b0     LIBCMT:gshandlerseh.obj
 0002:0000b2b0       $unwind$?process@?$output_processor@_WV?$string_output_adapter@_W@__crt_stdio_output@@V?$format_validation_base@_WV?$string_output_adapter@_W@__crt_stdio_output@@@2@@__crt_stdio_output@@QEAAHXZ 000000018002d2b0     libucrt:output.obj
 0002:0000b2b0       $unwind$??_Estringdispid@CComTypeInfoHolder@ATL@@QEAAPEAXI@Z 000000018002d2b0     OposVariant.obj
 0002:0000b2c8       $unwind$?GetUnwindTryBlock@__FrameHandler3@@SAHPEA_KPEAU_xDISPATCHER_CONTEXT@@PEBU_s_FuncInfo@@@Z 000000018002d2c8     libvcruntime:ehstate.obj
 0002:0000b2c8       $unwind$?AddRef@?$CComObjectCached@VCComClassFactory@ATL@@@ATL@@UEAAKXZ 000000018002d2c8     RemoteOrderDisplay.obj
 0002:0000b2c8       $unwind$?Release@?$CComObjectCached@VCComClassFactory@ATL@@@ATL@@UEAAKXZ 000000018002d2c8     RemoteOrderDisplay.obj
 0002:0000b2c8       $unwind$_set_statfp        000000018002d2c8     libucrt:fpctrl.obj
 0002:0000b2c8       $unwind$?QueryInterface@?$CComAggObject@VCOPOSRemoteOrderDisplay@@@ATL@@UEAAJAEBU_GUID@@PEAPEAX@Z 000000018002d2c8     RemoteOrderDisplay.obj
 0002:0000b2c8       $unwind$__acrt_initialize_locks 000000018002d2c8     libucrt:locks.obj
 0002:0000b2c8       $unwind$__acrt_uninitialize_locks 000000018002d2c8     libucrt:locks.obj
 0002:0000b2c8       $unwind$__acrt_uninitialize_winapi_thunks 000000018002d2c8     libucrt:winapi_thunks.obj
 0002:0000b2c8       $unwind$_IsExceptionObjectToBeDestroyed 000000018002d2c8     libvcruntime:ehhelpers.obj
 0002:0000b2c8       $unwind$??0?$output_processor@_WV?$string_output_adapter@_W@__crt_stdio_output@@V?$format_validation_base@_WV?$string_output_adapter@_W@__crt_stdio_output@@@2@@__crt_stdio_output@@QEAA@AEBV?$string_output_adapter@_W@1@_KQEB_WQEAU__crt_locale_pointers@@QEAD@Z 000000018002d2c8     libucrt:output.obj
 0002:0000b2c8       $unwind$??0?$CComObject@VCOPOSRemoteOrderDisplay@@@ATL@@QEAA@PEAX@Z 000000018002d2c8     RemoteOrderDisplay.obj
 0002:0000b2c8       $unwind$?AllocateHeap@?$CTempBuffer@_W$0EAA@VCCRTAllocator@ATL@@@ATL@@AEAAX_K@Z 000000018002d2c8     RemoteOrderDisplay.obj
 0002:0000b2c8       $unwind$_Init_thread_header 000000018002d2c8     LIBCMT:thread_safe_statics.obj
 0002:0000b2c8       $unwind$_clrfp             000000018002d2c8     libucrt:fpctrl.obj
 0002:0000b2c8       $unwind$_Init_thread_footer 000000018002d2c8     LIBCMT:thread_safe_statics.obj
 0002:0000b2c8       $unwind$??1?$CComObject@VCOPOSRemoteOrderDisplay@@@ATL@@UEAA@XZ 000000018002d2c8     RemoteOrderDisplay.obj
 0002:0000b2c8       $unwind$?AllocateHeap@?$CTempBuffer@_W$0BAA@VCCRTAllocator@ATL@@@ATL@@AEAAX_K@Z 000000018002d2c8     RemoteOrderDisplay.obj
 0002:0000b2c8       $unwind$__acrt_update_locale_info 000000018002d2c8     libucrt:locale_update.obj
 0002:0000b2c8       $unwind$fegetenv           000000018002d2c8     libucrt:fegetenv.obj
 0002:0000b2c8       $unwind$?AllocateHeap@?$CTempBuffer@E$0BAA@VCCRTAllocator@ATL@@@ATL@@AEAAX_K@Z 000000018002d2c8     RemoteOrderDisplay.obj
 0002:0000b2c8       $unwind$__acrt_update_multibyte_info 000000018002d2c8     libucrt:locale_update.obj
 0002:0000b2c8       $unwind$__vcrt_FlsGetValue 000000018002d2c8     libvcruntime:winapi_downlevel.obj
 0002:0000b2c8       $unwind$?IsEqualObject@?$CComPtrBase@UITypeInfo@@@ATL@@QEAA_NPEAUIUnknown@@@Z 000000018002d2c8     RemoteOrderDisplay.obj
 0002:0000b2c8       $unwind$??0bad_exception@std@@QEAA@AEBV01@@Z 000000018002d2c8     libvcruntime:frame.obj
 0002:0000b2c8       $unwind$fesetenv           000000018002d2c8     libucrt:fesetenv.obj
 0002:0000b2c8       $unwind$_malloc_base       000000018002d2c8     libucrt:malloc_base.obj
 0002:0000b2c8       $unwind$__acrt_fp_strflt_to_string 000000018002d2c8     libucrt:_fptostr.obj
 0002:0000b2c8       $unwind$_calloc_base       000000018002d2c8     libucrt:calloc_base.obj
 0002:0000b2c8       $unwind$feholdexcept       000000018002d2c8     libucrt:feholdexcept.obj
 0002:0000b2c8       $unwind$?exit_or_terminate_process@@YAXI@Z 000000018002d2c8     libucrt:exit.obj
 0002:0000b2c8       $unwind$wcscpy_s           000000018002d2c8     libucrt:wcscpy_s.obj
 0002:0000b2c8       $unwind$__raise_securityfailure 000000018002d2c8     LIBCMT:gs_report.obj
 0002:0000b2c8       $unwind$?GetConnMap@COPOSRemoteOrderDisplay@@SAPEBU_ATL_CONNMAP_ENTRY@ATL@@PEAH@Z 000000018002d2c8     RemoteOrderDisplay.obj
 0002:0000b2c8       $unwind$?Unadvise@?$IConnectionPointImpl@VCOPOSRemoteOrderDisplay@@$1?DIID__IOPOSRemoteOrderDisplayEvents@@3U_GUID@@BVCComDynamicUnkArray@ATL@@@ATL@@UEAAJK@Z 000000018002d2c8     RemoteOrderDisplay.obj
 0002:0000b2c8       $unwind$?ExFilterRethrow@@YAHPEAU_EXCEPTION_POINTERS@@PEAUEHExceptionRecord@@PEAH@Z 000000018002d2c8     libvcruntime:frame.obj
 0002:0000b2c8       $unwind$_clearfp           000000018002d2c8     libucrt:ieee.obj
 0002:0000b2c8       $unwind$wcscat_s           000000018002d2c8     libucrt:wcscat_s.obj
 0002:0000b2c8       $unwind$?Unadvise@?$IConnectionPointImpl@VCOPOSRemoteOrderDisplay@@$1?IID_IPropertyNotifySink@@3U_GUID@@BVCComDynamicUnkArray@ATL@@@ATL@@UEAAJK@Z 000000018002d2c8     RemoteOrderDisplay.obj
 0002:0000b2c8       $unwind$__scrt_uninitialize_crt 000000018002d2c8     LIBCMT:utility.obj
 0002:0000b2c8       $unwind$__scrt_initialize_crt 000000018002d2c8     LIBCMT:utility.obj
 0002:0000b2c8       $unwind$__scrt_release_startup_lock 000000018002d2c8     LIBCMT:utility.obj
 0002:0000b2c8       $unwind$?IPSI_GetIPersistStreamInit@?$IPersistStorageImpl@VCOPOSRemoteOrderDisplay@@@ATL@@AEAAPEAUIPersistStreamInit@@XZ 000000018002d2c8     RemoteOrderDisplay.obj
 0002:0000b2c8       $unwind$__vcrt_FlsFree     000000018002d2c8     libvcruntime:winapi_downlevel.obj
 0002:0000b2c8       $unwind$__vcrt_FlsAlloc    000000018002d2c8     libvcruntime:winapi_downlevel.obj
 0002:0000b2c8       $unwind$?QueryHitPoint@?$IViewObjectExImpl@VCOPOSRemoteOrderDisplay@@@ATL@@UEAAJKPEBUtagRECT@@UtagPOINT@@JPEAK@Z 000000018002d2c8     RemoteOrderDisplay.obj
 0002:0000b2c8       $unwind$??1CComControlBase@ATL@@UEAA@XZ 000000018002d2c8     RemoteOrderDisplayImpl.obj
 0002:0000b2c8       $unwind$?get_CapUpdateFirmware@COPOSRemoteOrderDisplay@@UEAAJPEAF@Z 000000018002d2c8     RemoteOrderDisplayImpl.obj
 0002:0000b2c8       $unwind$?type_case_integer@?$output_processor@_WV?$string_output_adapter@_W@__crt_stdio_output@@V?$format_validation_base@_WV?$string_output_adapter@_W@__crt_stdio_output@@@2@@__crt_stdio_output@@AEAA_NI_N@Z 000000018002d2c8     libucrt:output.obj
 0002:0000b2c8       $unwind$??2@YAPEAX_K@Z     000000018002d2c8     LIBCMT:new_scalar.obj
 0002:0000b2c8       $unwind$__vcrt_uninitialize_locks 000000018002d2c8     libvcruntime:locks.obj
 0002:0000b2c8       $unwind$?DupWide@_CW@@AEAAXXZ 000000018002d2c8     CWString.obj
 0002:0000b2c8       $unwind$__vcrt_initialize_locks 000000018002d2c8     libvcruntime:locks.obj
 0002:0000b2c8       $unwind$??1COPOSRemoteOrderDisplay@@UEAA@XZ 000000018002d2c8     RemoteOrderDisplayImpl.obj
 0002:0000b2c8       $unwind$__acrt_freeptd     000000018002d2c8     libucrt:per_thread_data.obj
 0002:0000b2c8       $unwind$??0exception@std@@QEAA@AEBV01@@Z 000000018002d2c8     LIBCMT:throw_bad_alloc.obj
 0002:0000b2c8       $unwind$__vcrt_freeptd     000000018002d2c8     libvcruntime:per_thread_data.obj
 0002:0000b2c8       $unwind$_onexit            000000018002d2c8     LIBCMT:utility.obj
 0002:0000b2c8       $unwind$?FreezeEvents@COPOSRemoteOrderDisplay@@MEAAJH@Z 000000018002d2c8     RemoteOrderDisplayImpl.obj
 0002:0000b2c8       $unwind$??0bad_alloc@std@@QEAA@AEBV01@@Z 000000018002d2c8     LIBCMT:throw_bad_alloc.obj
 0002:0000b2c8       $unwind$_Init_thread_wait  000000018002d2c8     LIBCMT:thread_safe_statics.obj
 0002:0000b2c8       $unwind$__acrt_stdio_free_buffer_nolock 000000018002d2c8     libucrt:_freebuf.obj
 0002:0000b2c8       $unwind$?get_CapCompareFirmwareVersion@COPOSRemoteOrderDisplay@@UEAAJPEAF@Z 000000018002d2c8     RemoteOrderDisplayImpl.obj
 0002:0000b2c8       $unwind$__acrt_allocate_buffer_for_argv 000000018002d2c8     libucrt:argv_parsing.obj
 0002:0000b2c8       $unwind$?SOProcessID@COPOSRemoteOrderDisplay@@UEAAJPEAJ@Z 000000018002d2c8     RemoteOrderDisplayImpl.obj
 0002:0000b2c8       $unwind$?get_Claimed@COPOSRemoteOrderDisplay@@UEAAJPEAF@Z 000000018002d2c8     RemoteOrderDisplayImpl.obj
 0002:0000b2c8       $unwind$?get_DataEventEnabled@COPOSRemoteOrderDisplay@@UEAAJPEAF@Z 000000018002d2c8     RemoteOrderDisplayImpl.obj
 0002:0000b2c8       $unwind$??__E_Module@@YAXXZ 000000018002d2c8     RemoteOrderDisplay.obj
 0002:0000b2c8       $unwind$?StateFromIp@__FrameHandler3@@SAHPEBU_s_FuncInfo@@PEAU_xDISPATCHER_CONTEXT@@_K@Z 000000018002d2c8     libvcruntime:ehstate.obj
 0002:0000b2c8       $unwind$?get_CapUpdateStatistics@COPOSRemoteOrderDisplay@@UEAAJPEAF@Z 000000018002d2c8     RemoteOrderDisplayImpl.obj
 0002:0000b2c8       $unwind$?GetClientSite@?$IOleObjectImpl@VCOPOSRemoteOrderDisplay@@@ATL@@UEAAJPEAPEAUIOleClientSite@@@Z 000000018002d2c8     RemoteOrderDisplay.obj
 0002:0000b2c8       $unwind$??0bad_array_new_length@std@@QEAA@AEBV01@@Z 000000018002d2c8     LIBCMT:throw_bad_alloc.obj
 0002:0000b2c8       $unwind$?AtlCreateTargetDC@ATL@@YAPEAUHDC__@@PEAU2@PEAUtagDVTARGETDEVICE@@@Z 000000018002d2c8     RemoteOrderDisplay.obj
 0002:0000b2c8       $unwind$?Load@?$IPersistStreamInitImpl@VCOPOSRemoteOrderDisplay@@@ATL@@UEAAJPEAUIStream@@@Z 000000018002d2c8     RemoteOrderDisplay.obj
 0002:0000b2c8       $unwind$__std_exception_destroy 000000018002d2c8     libvcruntime:std_exception.obj
 0002:0000b2c8       $unwind$??_Gtype_info@@UEAAPEAXI@Z 000000018002d2c8     LIBCMT:std_type_info_static.obj
 0002:0000b2c8       $unwind$?GetTypeInfo@?$IDispatchImpl@UIOPOSRemoteOrderDisplay@@$1?IID_IOPOSRemoteOrderDisplay@@3U_GUID@@B$1?LIBID_OposRemoteOrderDisplay_CCO@@3U3@B$00$0A@VCComTypeInfoHolder@ATL@@@ATL@@UEAAJIKPEAPEAUITypeInfo@@@Z 000000018002d2c8     RemoteOrderDisplay.obj
 0002:0000b2c8       $unwind$?get_DeviceEnabled@COPOSRemoteOrderDisplay@@UEAAJPEAF@Z 000000018002d2c8     RemoteOrderDisplayImpl.obj
 0002:0000b2c8       $unwind$__std_type_info_destroy_list 000000018002d2c8     libvcruntime:std_type_info.obj
 0002:0000b2c8       $unwind$strcpy_s           000000018002d2c8     libucrt:strcpy_s.obj
 0002:0000b2c8       $unwind$??1CAtlBaseModule@ATL@@QEAA@XZ 000000018002d2c8     atls:atlbase.obj
 0002:0000b2c8       $unwind$__acrt_uninitialize_stdio 000000018002d2c8     libucrt:_file.obj
 0002:0000b2c8       $unwind$?get_FreezeEvents@COPOSRemoteOrderDisplay@@UEAAJPEAF@Z 000000018002d2c8     RemoteOrderDisplayImpl.obj
 0002:0000b2c8       $unwind$?IOleInPlaceObject_InPlaceDeactivate@CComControlBase@ATL@@QEAAJXZ 000000018002d2c8     RemoteOrderDisplay.obj
 0002:0000b2c8       $unwind$?IOleObject_SetExtent@CComControlBase@ATL@@QEAAJKPEAUtagSIZE@@@Z 000000018002d2c8     RemoteOrderDisplay.obj
 0002:0000b2c8       $unwind$?get_CapStatisticsReporting@COPOSRemoteOrderDisplay@@UEAAJPEAF@Z 000000018002d2c8     RemoteOrderDisplayImpl.obj
 0002:0000b2c8       $unwind$?get_MapCharacterSet@COPOSRemoteOrderDisplay@@UEAAJPEAF@Z 000000018002d2c8     RemoteOrderDisplayImpl.obj
 0002:0000b2c8       $unwind$?IsEqualObject@?$CComPtrBase@UIOleClientSite@@@ATL@@QEAA_NPEAUIUnknown@@@Z 000000018002d2c8     RemoteOrderDisplay.obj
 0002:0000b2c8       $unwind$_setfpstatusword   000000018002d2c8     libucrt:_fenvutils.obj
 0002:0000b2c8       $unwind$AtlThunk_AllocateData 000000018002d2c8     atls:atlthunk.obj
 0002:0000b2c8       $unwind$?put_FreezeEvents@COPOSRemoteOrderDisplay@@UEAAJF@Z 000000018002d2c8     RemoteOrderDisplayImpl.obj
 0002:0000b2c8       $unwind$?GetClassInfoW@?$IProvideClassInfo2Impl@$1?CLSID_OPOSRemoteOrderDisplay@@3U_GUID@@B$1?DIID__IOPOSRemoteOrderDisplayEvents@@3U2@B$1?LIBID_OposRemoteOrderDisplay_CCO@@3U2@B$00$0A@VCComTypeInfoHolder@ATL@@@ATL@@UEAAJPEAPEAUITypeInfo@@@Z 000000018002d2c8     RemoteOrderDisplay.obj
 0002:0000b2c8       $unwind$_fflush_nolock     000000018002d2c8     libucrt:fflush.obj
 0002:0000b2c8       $unwind$_CreateFrameInfo   000000018002d2c8     libvcruntime:risctrnsctrl.obj
 0002:0000b2c8       $unwind$?get_AsyncMode@COPOSRemoteOrderDisplay@@UEAAJPEAF@Z 000000018002d2c8     RemoteOrderDisplayImpl.obj
 0002:0000b2c8       $unwind$?EventUninit@COPOSRemoteOrderDisplay@@IEAAXXZ 000000018002d2c8     RemoteOrderDisplayImpl.obj
 0002:0000b2c8       $unwind$_SetThrowImageBase 000000018002d2c8     libvcruntime:risctrnsctrl.obj
 0002:0000b2c8       $unwind$uninitialize_allocated_memory 000000018002d2c8     libucrt:initialization.obj
 0002:0000b2c8       $unwind$?get_CapSelectCharacterSet@COPOSRemoteOrderDisplay@@UEAAJPEAF@Z 000000018002d2c8     RemoteOrderDisplayImpl.obj
 0002:0000b2c8       $unwind$initialize_pointers 000000018002d2c8     libucrt:initialization.obj
 0002:0000b2c8       $unwind$_SetImageBase      000000018002d2c8     libvcruntime:risctrnsctrl.obj
 0002:0000b2c8       $unwind$?get_CapTone@COPOSRemoteOrderDisplay@@UEAAJPEAF@Z 000000018002d2c8     RemoteOrderDisplayImpl.obj
 0002:0000b2c8       $unwind$?get_CapTouch@COPOSRemoteOrderDisplay@@UEAAJPEAF@Z 000000018002d2c8     RemoteOrderDisplayImpl.obj
 0002:0000b2c8       $unwind$?get_CapTransaction@COPOSRemoteOrderDisplay@@UEAAJPEAF@Z 000000018002d2c8     RemoteOrderDisplayImpl.obj
 0002:0000b2c8       $unwind$?ExecutionInCatch@__FrameHandler3@@SA_NPEAU_xDISPATCHER_CONTEXT@@PEBU_s_FuncInfo@@@Z 000000018002d2c8     libvcruntime:risctrnsctrl.obj
 0002:0000b2c8       $unwind$?get_CapMapCharacterSet@COPOSRemoteOrderDisplay@@UEAAJPEAF@Z 000000018002d2c8     RemoteOrderDisplayImpl.obj
 0002:0000b2d0       $unwind$?SetControlFocus@CComControlBase@ATL@@QEAAHH@Z 000000018002d2d0     RemoteOrderDisplay.obj
 0002:0000b2d0       $unwind$?AtlWinModuleExtractCreateWndData@ATL@@YAPEAXPEAU_ATL_WIN_MODULE70@1@@Z 000000018002d2d0     RemoteOrderDisplay.obj
 0002:0000b2d0       $unwind$_recalloc_base     000000018002d2d0     libucrt:recalloc.obj
 0002:0000b2d0       $unwind$?DoVerb@?$IOleObjectImpl@VCOPOSRemoteOrderDisplay@@@ATL@@UEAAJJPEAUtagMSG@@PEAUIOleClientSite@@JPEAUHWND__@@PEBUtagRECT@@@Z 000000018002d2d0     RemoteOrderDisplay.obj
 0002:0000b2d0       $unwind$?s_EventWindowProc@COPOSRemoteOrderDisplay@@KA_JPEAUHWND__@@I_K_J@Z 000000018002d2d0     RemoteOrderDisplayImpl.obj
 0002:0000b2d0       $unwind$?Add@CComDynamicUnkArray@ATL@@QEAAKPEAUIUnknown@@@Z 000000018002d2d0     RemoteOrderDisplay.obj
 0002:0000b2d0       $unwind$?AtlWinModuleTerm@ATL@@YAJPEAU_ATL_WIN_MODULE70@1@PEAUHINSTANCE__@@@Z 000000018002d2d0     OposVariant.obj
 0002:0000b2d0       $unwind$?Is_bad_exception_allowed@@YAEPEBU_s_ESTypeList@@@Z 000000018002d2d0     libvcruntime:frame.obj
 0002:0000b2d0       $unwind$?Next@?$CComEnumImpl@UIEnumConnections@@$1?_GUID_b196b287_bab4_101a_b69c_00aa00341d07@@3U__s_GUID@@BUtagCONNECTDATA@@V?$_Copy@UtagCONNECTDATA@@@ATL@@@ATL@@UEAAJKPEAUtagCONNECTDATA@@PEAK@Z 000000018002d2d0     RemoteOrderDisplay.obj
 0002:0000b2d0       $unwind$?SODirectIO@COPOSRemoteOrderDisplay@@MEAAJJPEAJPEAPEA_W@Z 000000018002d2d0     RemoteOrderDisplay.obj
 0002:0000b2d0       $unwind$__acrt_lowio_create_handle_array 000000018002d2d0     libucrt:osfinfo.obj
 0002:0000b2d0       $unwind$?GetHandlerSearchState@__FrameHandler3@@SAHPEA_KPEAU_xDISPATCHER_CONTEXT@@PEBU_s_FuncInfo@@@Z 000000018002d2d0     libvcruntime:frame.obj
 0002:0000b2d0       $unwind$??$ensure_buffer_is_big_enough@D@formatting_buffer@__crt_stdio_output@@QEAA_N_K@Z 000000018002d2d0     libucrt:output.obj
 0002:0000b2d0       $unwind$_seh_filter_exe    000000018002d2d0     libucrt:exception_filter.obj
 0002:0000b2d0       $unwind$?DoEvent@COPOSRemoteOrderDisplay@@IEAAXI_K_J@Z 000000018002d2d0     RemoteOrderDisplay.obj
 0002:0000b2d0       $unwind$__acrt_InitializeCriticalSectionEx 000000018002d2d0     libucrt:winapi_thunks.obj
 0002:0000b2d0       $unwind$?Next@?$CComEnumImpl@UIEnumConnectionPoints@@$1?_GUID_b196b285_bab4_101a_b69c_00aa00341d07@@3U__s_GUID@@BPEAUIConnectionPoint@@V?$_CopyInterface@UIConnectionPoint@@@ATL@@@ATL@@UEAAJKPEAPEAUIConnectionPoint@@PEAK@Z 000000018002d2d0     RemoteOrderDisplay.obj
 0002:0000b2d0       $unwind$__acrt_free_locale 000000018002d2d0     libucrt:locale_refcounting.obj
 0002:0000b2d0       $unwind$?Append@CParseBuffer@CRegParser@ATL@@QEAAHPEB_WH@Z 000000018002d2d0     RemoteOrderDisplay.obj
 0002:0000b2d0       $unwind$?HKeyFromString@CRegParser@ATL@@KAPEAUHKEY__@@PEA_W@Z 000000018002d2d0     RemoteOrderDisplay.obj
 0002:0000b2d0       $unwind$__scrt_dllmain_exception_filter 000000018002d2d0     LIBCMT:utility.obj
 0002:0000b2d0       $unwind$__acrt_execute_initializers 000000018002d2d0     libucrt:shared_initialization.obj
 0002:0000b2d0       $unwind$?expand_if_necessary@?$argument_list@D@?A0xca0879c4@@AEAAHXZ 000000018002d2d0     libucrt:argv_wildcards.obj
 0002:0000b2d0       $unwind$?setSBCS@@YAXPEAU__crt_multibyte_data@@@Z 000000018002d2d0     libucrt:mbctype.obj
 0002:0000b2d0       $unwind$?CreateInstance@?$CComCreator@V?$CComObject@VCOPOSRemoteOrderDisplay@@@ATL@@@ATL@@SAJPEAXAEBU_GUID@@PEAPEAX@Z 000000018002d2d0     RemoteOrderDisplay.obj
 0002:0000b2e4       $unwind$??_Gbad_array_new_length@std@@UEAAPEAXI@Z 000000018002d2e4     LIBCMT:throw_bad_alloc.obj
 0002:0000b2e4       $unwind$__acrt_invoke_user_matherr 000000018002d2e4     libucrt:matherr.obj
 0002:0000b2e4       $unwind$_updatetlocinfoEx_nolock 000000018002d2e4     libucrt:locale_refcounting.obj
 0002:0000b2e4       $unwind$??_GCComClassFactory@ATL@@UEAAPEAXI@Z 000000018002d2e4     RemoteOrderDisplay.obj
 0002:0000b2e4       $unwind$__acrt_uninitialize_lowio 000000018002d2e4     libucrt:ioinit.obj
 0002:0000b2e4       $unwind$wcsncpy_s          000000018002d2e4     libucrt:wcsncpy_s.obj
 0002:0000b2e4       $unwind$??1?$IConnectionPointImpl@VCOPOSRemoteOrderDisplay@@$1?DIID__IOPOSRemoteOrderDisplayEvents@@3U_GUID@@BVCComDynamicUnkArray@ATL@@@ATL@@QEAA@XZ 000000018002d2e4     RemoteOrderDisplayImpl.obj
 0002:0000b2e4       $unwind$??0_LocaleUpdate@@QEAA@QEAU__crt_locale_pointers@@@Z 000000018002d2e4     libucrt:output.obj
 0002:0000b2e4       $unwind$??1?$IConnectionPointImpl@VCOPOSRemoteOrderDisplay@@$1?IID_IPropertyNotifySink@@3U_GUID@@BVCComDynamicUnkArray@ATL@@@ATL@@QEAA@XZ 000000018002d2e4     RemoteOrderDisplayImpl.obj
 0002:0000b2e4       $unwind$??$GetProcAddressAll@P6AXPEAUAtlThunkData_t@@@Z@@YAP6AXPEAUAtlThunkData_t@@@ZPEAP6AX0@Z@Z 000000018002d2e4     atls:atlthunk.obj
 0002:0000b2e4       $unwind$??0CAtlComModule@ATL@@QEAA@XZ 000000018002d2e4     OposVariant.obj
 0002:0000b2e4       $unwind$??$GetProcAddressAll@P6AXPEAUAtlThunkData_t@@PEAX_K@Z@@YAP6AXPEAUAtlThunkData_t@@PEAX_K@ZPEAP6AX012@Z@Z 000000018002d2e4     atls:atlthunk.obj
 0002:0000b2e4       $unwind$??$GetProcAddressAll@P6APEAUAtlThunkData_t@@XZ@@YAP6APEAUAtlThunkData_t@@XZPEAP6APEAU0@XZ@Z 000000018002d2e4     atls:atlthunk.obj
 0002:0000b2e4       $unwind$??$GetProcAddressAll@P6AP6A_JPEAUHWND__@@I_K_J@ZPEAUAtlThunkData_t@@@Z@@YAP6AP6A_JPEAUHWND__@@I_K_J@ZPEAUAtlThunkData_t@@@ZPEAP6AP6A_J0I12@Z3@Z@Z 000000018002d2e4     atls:atlthunk.obj
 0002:0000b2e4       $unwind$?__AllocStdCallThunk_cmn@@YAPEAXXZ 000000018002d2e4     atls:atlthunk.obj
 0002:0000b2e4       $unwind$?__InitializeThunkPool@@YAHXZ 000000018002d2e4     atls:atlthunk.obj
 0002:0000b2e4       $unwind$?force_decimal_point@__crt_stdio_output@@YAXPEADQEAU__crt_locale_pointers@@@Z 000000018002d2e4     libucrt:output.obj
 0002:0000b2e4       $unwind$AtlThunk_DataToCode 000000018002d2e4     atls:atlthunk.obj
 0002:0000b2e4       $unwind$_FindAndUnlinkFrame 000000018002d2e4     libvcruntime:risctrnsctrl.obj
 0002:0000b2e4       $unwind$??$common_initialize_environment_nolock@D@@YAHXZ 000000018002d2e4     libucrt:environment_initialization.obj
 0002:0000b2e4       $unwind$??_G?$CComObject@V?$CComEnum@UIEnumConnections@@$1?_GUID_b196b287_bab4_101a_b69c_00aa00341d07@@3U__s_GUID@@BUtagCONNECTDATA@@V?$_Copy@UtagCONNECTDATA@@@ATL@@VCComSingleThreadModel@6@@ATL@@@ATL@@UEAAPEAXI@Z 000000018002d2e4     RemoteOrderDisplay.obj
 0002:0000b2e4       $unwind$_callnewh          000000018002d2e4     libucrt:new_handler.obj
 0002:0000b2e4       $unwind$?Term@CComModule@ATL@@QEAAXXZ 000000018002d2e4     RemoteOrderDisplay.obj
 0002:0000b2e4       $unwind$??0CAtlModule@ATL@@QEAA@XZ 000000018002d2e4     RemoteOrderDisplay.obj
 0002:0000b2e4       $unwind$?DeleteSubKey@CRegKey@ATL@@QEAAJPEB_W@Z 000000018002d2e4     RemoteOrderDisplay.obj
 0002:0000b2e4       $unwind$_close_nolock      000000018002d2e4     libucrt:close.obj
 0002:0000b2e4       $unwind$?IOleObject_SetClientSite@CComControlBase@ATL@@QEAAJPEAUIOleClientSite@@@Z 000000018002d2e4     RemoteOrderDisplay.obj
 0002:0000b2e4       $unwind$?CreateInstance@?$CComObject@V?$CComEnum@UIEnumConnections@@$1?_GUID_b196b287_bab4_101a_b69c_00aa00341d07@@3U__s_GUID@@BUtagCONNECTDATA@@V?$_Copy@UtagCONNECTDATA@@@ATL@@VCComSingleThreadModel@6@@ATL@@@ATL@@SAJPEAPEAV12@@Z 000000018002d2e4     RemoteOrderDisplay.obj
 0002:0000b2e4       $unwind$??0CAtlBaseModule@ATL@@QEAA@XZ 000000018002d2e4     atls:atlbase.obj
 0002:0000b2e4       $unwind$_fclose_nolock     000000018002d2e4     libucrt:fclose.obj
 0002:0000b2e4       $unwind$?Release@?$CComObject@V?$CComEnum@UIEnumConnections@@$1?_GUID_b196b287_bab4_101a_b69c_00aa00341d07@@3U__s_GUID@@BUtagCONNECTDATA@@V?$_Copy@UtagCONNECTDATA@@@ATL@@VCComSingleThreadModel@6@@ATL@@@ATL@@UEAAKXZ 000000018002d2e4     RemoteOrderDisplay.obj
 0002:0000b2e4       $unwind$??_Gbad_exception@std@@UEAAPEAXI@Z 000000018002d2e4     libvcruntime:frame.obj
 0002:0000b2e4       $unwind$?SetAdvise@?$IViewObjectExImpl@VCOPOSRemoteOrderDisplay@@@ATL@@UEAAJKKPEAUIAdviseSink@@@Z 000000018002d2e4     RemoteOrderDisplay.obj
 0002:0000b2e4       $unwind$??_Gbad_alloc@std@@UEAAPEAXI@Z 000000018002d2e4     LIBCMT:throw_bad_alloc.obj
 0002:0000b2e4       $unwind$__acrt_getptd      000000018002d2e4     libucrt:per_thread_data.obj
 0002:0000b2e4       $unwind$??_Gexception@std@@UEAAPEAXI@Z 000000018002d2e4     LIBCMT:throw_bad_alloc.obj
 0002:0000b2e4       $unwind$??1?$CComEnumImpl@UIEnumConnections@@$1?_GUID_b196b287_bab4_101a_b69c_00aa00341d07@@3U__s_GUID@@BUtagCONNECTDATA@@V?$_Copy@UtagCONNECTDATA@@@ATL@@@ATL@@UEAA@XZ 000000018002d2e4     RemoteOrderDisplay.obj
 0002:0000b2e4       $unwind$??_G?$CComObject@VCOPOSRemoteOrderDisplay@@@ATL@@UEAAPEAXI@Z 000000018002d2e4     RemoteOrderDisplay.obj
 0002:0000b2e4       $unwind$_RTC_Terminate     000000018002d2e4     LIBCMT:initsect.obj
 0002:0000b2e4       $unwind$_RTC_Initialize    000000018002d2e4     LIBCMT:initsect.obj
 0002:0000b2e4       $unwind$?replace_current_thread_locale_nolock@@YAXQEAU__acrt_ptd@@QEAU__crt_locale_data@@@Z 000000018002d2e4     libucrt:per_thread_data.obj
 0002:0000b2e4       $unwind$?Release@?$CComObject@VCOPOSRemoteOrderDisplay@@@ATL@@UEAAKXZ 000000018002d2e4     RemoteOrderDisplay.obj
 0002:0000b2e4       $unwind$??0CAtlWinModule@ATL@@QEAA@XZ 000000018002d2e4     OposVariant.obj
 0002:0000b2e4       $unwind$?IsDirty@?$IPersistStorageImpl@VCOPOSRemoteOrderDisplay@@@ATL@@UEAAJXZ 000000018002d2e4     RemoteOrderDisplay.obj
 0002:0000b2e4       $unwind$?InitNew@?$IPersistStorageImpl@VCOPOSRemoteOrderDisplay@@@ATL@@UEAAJPEAUIStorage@@@Z 000000018002d2e4     RemoteOrderDisplay.obj
 0002:0000b2e4       $unwind$?SOData@COPOSRemoteOrderDisplay@@MEAAJJ@Z 000000018002d2e4     RemoteOrderDisplay.obj
 0002:0000b2e4       $unwind$_realloc_base      000000018002d2e4     libucrt:realloc_base.obj
 0002:0000b2e4       $unwind$?try_cor_exit_process@@YAXI@Z 000000018002d2e4     libucrt:exit.obj
 0002:0000b2e4       $unwind$?SOOutputComplete@COPOSRemoteOrderDisplay@@MEAAJJ@Z 000000018002d2e4     RemoteOrderDisplay.obj
 0002:0000b2e4       $unwind$?WriteToStream@CComBSTR@ATL@@QEAAJPEAUIStream@@@Z 000000018002d2e4     RemoteOrderDisplay.obj
 0002:0000b2e4       $unwind$__acrt_FlsAlloc    000000018002d2e4     libucrt:winapi_thunks.obj
 0002:0000b2e4       $unwind$__acrt_FlsFree     000000018002d2e4     libucrt:winapi_thunks.obj
 0002:0000b2e4       $unwind$??_G?$CComAggObject@VCOPOSRemoteOrderDisplay@@@ATL@@UEAAPEAXI@Z 000000018002d2e4     RemoteOrderDisplay.obj
 0002:0000b2e4       $unwind$__acrt_FlsGetValue 000000018002d2e4     libucrt:winapi_thunks.obj
 0002:0000b2e4       $unwind$__vcrt_FlsSetValue 000000018002d2e4     libvcruntime:winapi_downlevel.obj
 0002:0000b2e4       $unwind$??_G?$CComContainedObject@VCOPOSRemoteOrderDisplay@@@ATL@@UEAAPEAXI@Z 000000018002d2e4     RemoteOrderDisplay.obj
 0002:0000b2e4       $unwind$??0?$CComContainedObject@VCOPOSRemoteOrderDisplay@@@ATL@@QEAA@PEAX@Z 000000018002d2e4     RemoteOrderDisplay.obj
 0002:0000b2e4       $unwind$?SOStatusUpdate@COPOSRemoteOrderDisplay@@MEAAJJ@Z 000000018002d2e4     RemoteOrderDisplay.obj
 0002:0000b2e4       $unwind$?internal_isupper_l@@YA_NHQEAU__crt_locale_pointers@@@Z 000000018002d2e4     libucrt:tolower_toupper.obj
 0002:0000b2e4       $unwind$__acrt_SetThreadStackGuarantee 000000018002d2e4     libucrt:winapi_thunks.obj
 0002:0000b2e4       $unwind$?Release@?$CComAggObject@VCOPOSRemoteOrderDisplay@@@ATL@@UEAAKXZ 000000018002d2e4     RemoteOrderDisplay.obj
 0002:0000b2e4       $unwind$?SetVARIANT_BOOL@OposVariant@@QEAAXF@Z 000000018002d2e4     OposVariant.obj
 0002:0000b2e4       $unwind$??_G?$CComObjectCached@VCComClassFactory@ATL@@@ATL@@UEAAPEAXI@Z 000000018002d2e4     RemoteOrderDisplay.obj
 0002:0000b2e4       $unwind$DllMain            000000018002d2e4     RemoteOrderDisplay.obj
 0002:0000b2e4       $unwind$??_G?$CComObject@V?$CComEnum@UIEnumConnectionPoints@@$1?_GUID_b196b285_bab4_101a_b69c_00aa00341d07@@3U__s_GUID@@BPEAUIConnectionPoint@@V?$_CopyInterface@UIConnectionPoint@@@ATL@@VCComSingleThreadModel@6@@ATL@@@ATL@@UEAAPEAXI@Z 000000018002d2e4     RemoteOrderDisplay.obj
 0002:0000b2e4       $unwind$strncpy_s          000000018002d2e4     libucrt:strncpy_s.obj
 0002:0000b2e4       $unwind$??1?$CComEnumImpl@UIEnumConnectionPoints@@$1?_GUID_b196b285_bab4_101a_b69c_00aa00341d07@@3U__s_GUID@@BPEAUIConnectionPoint@@V?$_CopyInterface@UIConnectionPoint@@@ATL@@@ATL@@UEAA@XZ 000000018002d2e4     RemoteOrderDisplay.obj
 0002:0000b2e4       $unwind$?SetUnwindTryBlock@__FrameHandler3@@SAXPEA_KPEAU_xDISPATCHER_CONTEXT@@PEBU_s_FuncInfo@@H@Z 000000018002d2e4     libvcruntime:ehstate.obj
 0002:0000b2e4       $unwind$?Release@?$CComObject@V?$CComEnum@UIEnumConnectionPoints@@$1?_GUID_b196b285_bab4_101a_b69c_00aa00341d07@@3U__s_GUID@@BPEAUIConnectionPoint@@V?$_CopyInterface@UIConnectionPoint@@@ATL@@VCComSingleThreadModel@6@@ATL@@@ATL@@UEAAKXZ 000000018002d2e4     RemoteOrderDisplay.obj
 0002:0000b2e4       $unwind$?CreateInstance@?$CComObject@V?$CComEnum@UIEnumConnectionPoints@@$1?_GUID_b196b285_bab4_101a_b69c_00aa00341d07@@3U__s_GUID@@BPEAUIConnectionPoint@@V?$_CopyInterface@UIConnectionPoint@@@ATL@@VCComSingleThreadModel@6@@ATL@@@ATL@@SAJPEAPEAV12@@Z 000000018002d2e4     RemoteOrderDisplay.obj
 0002:0000b2e4       $unwind$?SetLONG@OposVariant@@QEAAXJ@Z 000000018002d2e4     OposVariant.obj
 0002:0000b2e4       $unwind$?SetBSTR@OposVariant@@QEAAXPEA_WAEAJ@Z 000000018002d2e4     OposVariant.obj
 0002:0000b2e4       $unwind$__acrt_errno_map_os_error 000000018002d2e4     libucrt:errno.obj
 0002:0000b2f0       $unwind$?SetBSTR_Copy@OposVariant@@QEAAXPEA_WAEAJ@Z 000000018002d2f0     OposVariant.obj
 0002:0000b2f0       $unwind$?SetBSTR_InOutPtr@OposVariant@@QEAA_NPEAPEA_WAEAJ@Z 000000018002d2f0     OposVariant.obj
 0002:0000b2f0       $unwind$?SetLONG_Ptr@OposVariant@@QEAAXPEAJAEAJ@Z 000000018002d2f0     OposVariant.obj
 0002:0000b2f0       $unwind$?type_case_s@?$output_processor@_WV?$string_output_adapter@_W@__crt_stdio_output@@V?$format_validation_base@_WV?$string_output_adapter@_W@__crt_stdio_output@@@2@@__crt_stdio_output@@AEAA_NXZ 000000018002d2f0     libucrt:output.obj
 0002:0000b2f0       $unwind$?type_case_n@?$output_processor@_WV?$string_output_adapter@_W@__crt_stdio_output@@V?$format_validation_base@_WV?$string_output_adapter@_W@__crt_stdio_output@@@2@@__crt_stdio_output@@AEAA_NXZ 000000018002d2f0     libucrt:output.obj
 0002:0000b2f0       $unwind$?SetString@OposVariant@@QEAAXPEB_WAEAJ@Z 000000018002d2f0     OposVariant.obj
 0002:0000b2f0       $unwind$?SetDispatch_Ptr@OposVariant@@QEAAXPEAUIDispatch@@AEAJ@Z 000000018002d2f0     OposVariant.obj
 0002:0000b2f0       $unwind$??0OposDispParms@@QEAA@PEAVOposVariant@@H@Z 000000018002d2f0     OposVariant.obj
 0002:0000b2f0       $unwind$__acrt_LocaleNameToLCID 000000018002d2f0     libucrt:winapi_thunks.obj
 0002:0000b2f0       $unwind$__acrt_FlsSetValue 000000018002d2f0     libucrt:winapi_thunks.obj
 0002:0000b2f0       $unwind$__vcrt_InitializeCriticalSectionEx 000000018002d2f0     libvcruntime:winapi_downlevel.obj
 0002:0000b2f0       $unwind$memcpy_s           000000018002d2f0     RemoteOrderDisplay.obj
 0002:0000b2f0       $unwind$?Add@?$CSimpleArray@GV?$CSimpleArrayEqualHelper@G@ATL@@@ATL@@QEAAHAEBG@Z 000000018002d2f0     RemoteOrderDisplay.obj
 0002:0000b2f0       $unwind$_DllMainCRTStartup 000000018002d2f0     LIBCMT:dll_dllmain.obj
 0002:0000b2f0       $unwind$__acrt_getptd_noexit 000000018002d2f0     libucrt:per_thread_data.obj
 0002:0000b2f0       $unwind$__vcrt_getptd_noexit 000000018002d2f0     libvcruntime:per_thread_data.obj
 0002:0000b2f0       $unwind$??$common_lseek_nolock@_J@@YA_JH_JH@Z 000000018002d2f0     libucrt:lseek.obj
 0002:0000b2f0       $unwind$?Advise@?$IOleObjectImpl@VCOPOSRemoteOrderDisplay@@@ATL@@UEAAJPEAUIAdviseSink@@PEAK@Z 000000018002d2f0     RemoteOrderDisplay.obj
 0002:0000b2f0       $unwind$?AtlCallTermFunc@ATL@@YAXPEAU_ATL_MODULE70@1@@Z 000000018002d2f0     RemoteOrderDisplay.obj
 0002:0000b2f0       $unwind$?RegisterServer@CComModule@ATL@@QEAAJHPEBU_GUID@@@Z 000000018002d2f0     RemoteOrderDisplay.obj
 0002:0000b2f0       $unwind$?free_crt_array_internal@@YAXQEAPEBX_K@Z 000000018002d2f0     libucrt:inittime.obj
 0002:0000b2f0       $unwind$_initterm_e        000000018002d2f0     libucrt:initterm.obj
 0002:0000b2f0       $unwind$?Term@CAtlComModule@ATL@@QEAAXXZ 000000018002d2f0     OposVariant.obj
 0002:0000b2f0       $unwind$?FrameUnwindToEmptyState@__FrameHandler3@@SAXPEA_KPEAU_xDISPATCHER_CONTEXT@@PEBU_s_FuncInfo@@@Z 000000018002d2f0     libvcruntime:risctrnsctrl.obj
 0002:0000b2f0       $unwind$?CatchTryBlock@__FrameHandler3@@SAPEBU_s_TryBlockMapEntry@@PEBU_s_FuncInfo@@H@Z 000000018002d2f0     libvcruntime:risctrnsctrl.obj
 0002:0000b2f0       $unwind$?UnregisterServer@CComModule@ATL@@QEAAJHPEBU_GUID@@@Z 000000018002d2f0     RemoteOrderDisplay.obj
 0002:0000b2f0       $unwind$??_GCComModule@ATL@@UEAAPEAXI@Z 000000018002d2f0     RemoteOrderDisplay.obj
 0002:0000b2f0       $unwind$__acrt_stdio_flush_nolock 000000018002d2f0     libucrt:fflush.obj
 0002:0000b2f0       $unwind$?Add@?$CSimpleMap@PEA_WPEA_WVCExpansionVectorEqualHelper@ATL@@@ATL@@QEAAHAEBQEA_W0@Z 000000018002d2f0     RemoteOrderDisplay.obj
 0002:0000b2f0       $unwind$?ClearReplacements@CExpansionVector@ATL@@QEAAJXZ 000000018002d2f0     RemoteOrderDisplay.obj
 0002:0000b2f0       $unwind$memcpy_s           000000018002d2f0     libucrt:cfout.obj
 0002:0000b2f0       $unwind$??_GCRegObject@ATL@@UEAAPEAXI@Z 000000018002d2f0     RemoteOrderDisplay.obj
 0002:0000b2f0       $unwind$_exception_enabled 000000018002d2f0     libucrt:libm_error.obj
 0002:0000b2f0       $unwind$__acrt_execute_uninitializers 000000018002d2f0     libucrt:shared_initialization.obj
 0002:0000b2f0       $unwind$??R<lambda_ad1ced32f4ac17aa236e5ef05d6b3b7c>@@QEBAXXZ 000000018002d2f0     libucrt:mbctype.obj
 0002:0000b2f0       $unwind$?type_case_Z@?$output_processor@_WV?$string_output_adapter@_W@__crt_stdio_output@@V?$format_validation_base@_WV?$string_output_adapter@_W@__crt_stdio_output@@@2@@__crt_stdio_output@@AEAA_NXZ 000000018002d2f0     libucrt:output.obj
 0002:0000b2f0       $unwind$?VTFromRegType@CRegParser@ATL@@KAHPEB_WAEAG@Z 000000018002d2f0     RemoteOrderDisplay.obj
 0002:0000b300       $unwind$?ChangeLONG@OposVariant@@QEAAXPEAJAEAJ@Z 000000018002d300     OposVariant.obj
 0002:0000b300       $unwind$?ChangeBSTR@OposVariant@@QEAAXPEAPEA_WAEAJ@Z 000000018002d300     OposVariant.obj
 0002:0000b300       $unwind$?x_ismbbtype_l@@YAHPEAU__crt_locale_pointers@@IHH@Z 000000018002d300     libucrt:ismbbyte.obj
 0002:0000b310       $unwind$swprintf_s         000000018002d310     RemoteOrderDisplay.obj
 0002:0000b320       $unwind$?_AtlVerifyStackAvailable@_ATL_SAFE_ALLOCA_IMPL@ATL@@YA_N_K@Z 000000018002d320     RemoteOrderDisplay.obj
 0002:0000b34c       $unwind$_IsNonwritableInCurrentImage$filt$0 000000018002d34c     LIBCMT:pesect.obj
 0002:0000b34c       $unwind$?fin$0@?0???$?RV<lambda_e24bbb7b643b32fcea6fa61b31d4c984>@@AEAV<lambda_275893d493268fdec8709772e3fcec0e>@@V<lambda_9d71df4d7cf3f480f8d633942495c3b0>@@@?$__crt_seh_guarded_call@H@@QEAAH$$QEAV<lambda_e24bbb7b643b32fcea6fa61b31d4c984>@@AEAV<lambda_275893d493268fdec8709772e3fcec0e>@@$$QEAV<lambda_9d71df4d7cf3f480f8d633942495c3b0>@@@Z@4HA 000000018002d34c     libucrt:onexit.obj
 0002:0000b34c       $unwind$?fin$0@?0???$?RV<lambda_72d1df2b273a38828b1ce30cbf4cdab5>@@AEAV<lambda_876a65b173b8412d3a47c70a915b0cf4>@@V<lambda_41932305e351933ebe8f8be3ed8bb5dc>@@@?$__crt_seh_guarded_call@X@@QEAAX$$QEAV<lambda_72d1df2b273a38828b1ce30cbf4cdab5>@@AEAV<lambda_876a65b173b8412d3a47c70a915b0cf4>@@$$QEAV<lambda_41932305e351933ebe8f8be3ed8bb5dc>@@@Z@4HA 000000018002d34c     libucrt:per_thread_data.obj
 0002:0000b34c       $unwind$?filt$0@?0??common_exit@@YAXHW4_crt_exit_cleanup_mode@@W4_crt_exit_return_mode@@@Z@4HA 000000018002d34c     libucrt:exit.obj
 0002:0000b34c       $unwind$?fin$0@?0???$?RV<lambda_5e887d1dcbef67a5eb4283622ba103bf>@@AEAV<lambda_4466841279450cc726390878d4a41900>@@V<lambda_341c25c0346d94847f1f3c463c57e077>@@@?$__crt_seh_guarded_call@X@@QEAAX$$QEAV<lambda_5e887d1dcbef67a5eb4283622ba103bf>@@AEAV<lambda_4466841279450cc726390878d4a41900>@@$$QEAV<lambda_341c25c0346d94847f1f3c463c57e077>@@@Z@4HA 000000018002d34c     libucrt:per_thread_data.obj
 0002:0000b34c       $unwind$?fin$0@?0???$?RV<lambda_46352004c1216016012b18bd6f87e700>@@AEAV<lambda_3bd07e1a1191394380780325891bf33f>@@V<lambda_334532d3f185bcaa59b5be82d7d22bff>@@@?$__crt_seh_guarded_call@X@@QEAAX$$QEAV<lambda_46352004c1216016012b18bd6f87e700>@@AEAV<lambda_3bd07e1a1191394380780325891bf33f>@@$$QEAV<lambda_334532d3f185bcaa59b5be82d7d22bff>@@@Z@4HA 000000018002d34c     libucrt:per_thread_data.obj
 0002:0000b34c       $unwind$common_flush_all$fin$1 000000018002d34c     libucrt:fflush.obj
 0002:0000b34c       $unwind$?fin$0@?0??dllmain_crt_process_detach@@YAH_N@Z@4HA 000000018002d34c     LIBCMT:dll_dllmain.obj
 0002:0000b34c       $unwind$?filt$0@?0??_AtlVerifyStackAvailable@_ATL_SAFE_ALLOCA_IMPL@ATL@@YA_N_K@Z@4HA 000000018002d34c     RemoteOrderDisplay.obj
 0002:0000b34c       $unwind$common_flush_all$fin$0 000000018002d34c     libucrt:fflush.obj
 0002:0000b34c       $unwind$__acrt_update_thread_locale_data$fin$0 000000018002d34c     libucrt:locale_refcounting.obj
 0002:0000b34c       $unwind$?fin$1@?0??common_exit@@YAXHW4_crt_exit_cleanup_mode@@W4_crt_exit_return_mode@@@Z@4HA 000000018002d34c     libucrt:exit.obj
 0002:0000b34c       $unwind$__acrt_lowio_ensure_fh_exists$fin$0 000000018002d34c     libucrt:osfinfo.obj
 0002:0000b34c       $unwind$?fin$0@?0???$?RV<lambda_b8c45f8f788dd370798f47cfe8ac3a86>@@AEAV<lambda_4e60a939b0d047cfe11ddc22648dfba9>@@V<lambda_332c3edc96d0294ec56c57d38c1cdfd5>@@@?$__crt_seh_guarded_call@H@@QEAAH$$QEAV<lambda_b8c45f8f788dd370798f47cfe8ac3a86>@@AEAV<lambda_4e60a939b0d047cfe11ddc22648dfba9>@@$$QEAV<lambda_332c3edc96d0294ec56c57d38c1cdfd5>@@@Z@4HA 000000018002d34c     libucrt:onexit.obj
 0002:0000b34c       $unwind$?fin$0@?0???$?RV<lambda_fb3a7dec4e47f37f22dae91bb15c9095>@@AEAV<lambda_698284760c8add0bfb0756c19673e34b>@@V<lambda_dfb8eca1e75fef3034a8fb18dd509707>@@@?$__crt_seh_guarded_call@X@@QEAAX$$QEAV<lambda_fb3a7dec4e47f37f22dae91bb15c9095>@@AEAV<lambda_698284760c8add0bfb0756c19673e34b>@@$$QEAV<lambda_dfb8eca1e75fef3034a8fb18dd509707>@@@Z@4HA 000000018002d34c     libucrt:per_thread_data.obj
 0002:0000b34c       $unwind$_fcloseall$fin$0   000000018002d34c     libucrt:closeall.obj
 0002:0000b34c       $unwind$?fin$0@?0???$?RV<lambda_bfedae4ebbf01fab1bb6dcc6a9e276e0>@@AEAV<lambda_2fe9b910cf3cbf4a0ab98a02ba45b3ec>@@V<lambda_237c231691f317818eb88cc1d5d642d6>@@@?$__crt_seh_guarded_call@H@@QEAAH$$QEAV<lambda_bfedae4ebbf01fab1bb6dcc6a9e276e0>@@AEAV<lambda_2fe9b910cf3cbf4a0ab98a02ba45b3ec>@@$$QEAV<lambda_237c231691f317818eb88cc1d5d642d6>@@@Z@4HA 000000018002d34c     libucrt:close.obj
 0002:0000b34c       $unwind$?fin$0@?0???$?RV<lambda_c36588078e9f5dfd39652860aa6b3aaf>@@AEAV<lambda_ec61778202f4f5fc7e7711acc23c3bca>@@V<lambda_dc9d2797ccde5d239b4a0efae8ebd7db>@@@?$__crt_seh_guarded_call@P6AXH@Z@@QEAAP6AXH@Z$$QEAV<lambda_c36588078e9f5dfd39652860aa6b3aaf>@@AEAV<lambda_ec61778202f4f5fc7e7711acc23c3bca>@@$$QEAV<lambda_dc9d2797ccde5d239b4a0efae8ebd7db>@@@Z@4HA 000000018002d34c     libucrt:signal.obj
 0002:0000b34c       $unwind$raise$fin$0        000000018002d34c     libucrt:signal.obj
 0002:0000b34c       $unwind$_write$fin$0       000000018002d34c     libucrt:write.obj
 0002:0000b34c       $unwind$common_control87$filt$0 000000018002d34c     libucrt:ieee.obj
 0002:0000b34c       $unwind$_query_new_handler$fin$0 000000018002d34c     libucrt:new_handler.obj
 0002:0000b34c       $unwind$__DestructExceptionObject$filt$0 000000018002d34c     libvcruntime:ehhelpers.obj
 0002:0000b34c       $unwind$_ctrlfp$filt$0     000000018002d34c     libucrt:fpctrl.obj
 0002:0000b34c       $unwind$__acrt_uninitialize_locale$fin$0 000000018002d34c     libucrt:wsetlocale.obj
 0002:0000b34c       $unwind$?filt$0@?0??FrameUnwindToState@__FrameHandler3@@SAXPEA_KPEAU_xDISPATCHER_CONTEXT@@PEBU_s_FuncInfo@@H@Z@4HA 000000018002d34c     libvcruntime:frame.obj
 0002:0000b34c       $unwind$?fin$0@?0???$?RV<lambda_99476a1ad63dd22509b5d3e65b0ffc95>@@AEAV<lambda_ad1ced32f4ac17aa236e5ef05d6b3b7c>@@V<lambda_f7424dd8d45958661754dc4f2697e9c3>@@@?$__crt_seh_guarded_call@X@@QEAAX$$QEAV<lambda_99476a1ad63dd22509b5d3e65b0ffc95>@@AEAV<lambda_ad1ced32f4ac17aa236e5ef05d6b3b7c>@@$$QEAV<lambda_f7424dd8d45958661754dc4f2697e9c3>@@@Z@4HA 000000018002d34c     libucrt:mbctype.obj
 0002:0000b34c       $unwind$?fin$1@?0??FrameUnwindToState@__FrameHandler3@@SAXPEA_KPEAU_xDISPATCHER_CONTEXT@@PEBU_s_FuncInfo@@H@Z@4HA 000000018002d34c     libvcruntime:frame.obj
 0002:0000b34c       $unwind$?fin$0@?0??dllmain_crt_process_attach@@YAHQEAUHINSTANCE__@@QEAX@Z@4HA 000000018002d34c     LIBCMT:dll_dllmain.obj
 0002:0000b34c       $unwind$fclose$fin$0       000000018002d34c     libucrt:fclose.obj
 0002:0000b34c       $unwind$?filt$0@?0??CxxCallCatchBlock@__FrameHandler3@@SAPEAXPEAU_EXCEPTION_RECORD@@@Z@4HA 000000018002d34c     libvcruntime:frame.obj
 0002:0000b34c       $unwind$__acrt_initialize_lowio$fin$0 000000018002d34c     libucrt:ioinit.obj
 0002:0000b34c       $unwind$?fin$0@?0???$?RV<lambda_b521505b218e5242e90febf6bfebc422>@@AEAV<lambda_6978c1fb23f02e42e1d9e99668cc68aa>@@V<lambda_314360699dd331753a4119843814e9a7>@@@?$__crt_seh_guarded_call@H@@QEAAH$$QEAV<lambda_b521505b218e5242e90febf6bfebc422>@@AEAV<lambda_6978c1fb23f02e42e1d9e99668cc68aa>@@$$QEAV<lambda_314360699dd331753a4119843814e9a7>@@@Z@4HA 000000018002d34c     libucrt:commit.obj
 0002:0000b34c       $unwind$__acrt_update_thread_multibyte_data$fin$0 000000018002d34c     libucrt:mbctype.obj
 0002:0000b354       $unwind$?AtlInternalOleLoadFromStream@ATL@@YAJPEAUIStream@@AEBU_GUID@@PEAPEAXTClassesAllowedInStream@1@K@Z 000000018002d354     RemoteOrderDisplay.obj
 0002:0000b370       $unwind$?PutProperty@?$CComPtr@UIDispatch@@@ATL@@SAJPEAUIDispatch@@JPEAUtagVARIANT@@@Z 000000018002d370     RemoteOrderDisplay.obj
 0002:0000b370       $unwind$?Close@COPOSRemoteOrderDisplay@@UEAAJPEAJ@Z 000000018002d370     RemoteOrderDisplayImpl.obj
 0002:0000b37c       $unwind$_configure_narrow_argv 000000018002d37c     libucrt:argv_parsing.obj
 0002:0000b37c       $unwind$?ReadFromStream@CComBSTR@ATL@@QEAAJPEAUIStream@@@Z 000000018002d37c     RemoteOrderDisplay.obj
 0002:0000b390       $unwind$?WriteToStream@CComVariant@ATL@@QEAAJPEAUIStream@@@Z 000000018002d390     RemoteOrderDisplay.obj
 0002:0000b3a4       $unwind$?RegOpenKeyExW@CAtlTransactionManager@ATL@@QEAAJPEAUHKEY__@@PEB_WKKPEAPEAU3@@Z 000000018002d3a4     RemoteOrderDisplay.obj
 0002:0000b3a4       $unwind$?WriteToStream@CComVariant@ATL@@QEAAJPEAUIStream@@G@Z 000000018002d3a4     RemoteOrderDisplay.obj
 0002:0000b3b8       $unwind$?ReadFromStream@CComVariant@ATL@@QEAAJPEAUIStream@@GTClassesAllowedInStream@2@K@Z 000000018002d3b8     RemoteOrderDisplay.obj
 0002:0000b3d0       $unwind$?GetSizeMax@CComVariant@ATL@@QEBAJPEAT_ULARGE_INTEGER@@@Z 000000018002d3d0     RemoteOrderDisplay.obj
 0002:0000b3e8       $unwind$?RegCreateKeyExW@CAtlTransactionManager@ATL@@QEAAJPEAUHKEY__@@PEB_WKPEA_WKKQEAU_SECURITY_ATTRIBUTES@@PEAPEAU3@PEAK@Z 000000018002d3e8     RemoteOrderDisplay.obj
 0002:0000b3fc       $unwind$?RegDeleteKeyW@CAtlTransactionManager@ATL@@QEAAJPEAUHKEY__@@PEB_W@Z 000000018002d3fc     RemoteOrderDisplay.obj
 0002:0000b3fc       $unwind$?GetGITPtr@CAtlModule@ATL@@UEAAJPEAPEAUIGlobalInterfaceTable@@@Z 000000018002d3fc     RemoteOrderDisplay.obj
 0002:0000b40c       $unwind$?AtlInternalQueryInterface@ATL@@YAJPEAXPEBU_ATL_INTMAP_ENTRY@1@AEBU_GUID@@PEAPEAX@Z 000000018002d40c     RemoteOrderDisplay.obj
 0002:0000b40c       $unwind$?AtlHiMetricToPixel@ATL@@YAXPEBUtagSIZE@@PEAU2@@Z 000000018002d40c     RemoteOrderDisplay.obj
 0002:0000b424       $unwind$?GetClassObject@CComModule@ATL@@QEAAJAEBU_GUID@@0PEAPEAX@Z 000000018002d424     RemoteOrderDisplay.obj
 0002:0000b424       $unwind$?Init@?$CComEnumImpl@UIEnumConnectionPoints@@$1?_GUID_b196b285_bab4_101a_b69c_00aa00341d07@@3U__s_GUID@@BPEAUIConnectionPoint@@V?$_CopyInterface@UIConnectionPoint@@@ATL@@@ATL@@QEAAJPEAPEAUIConnectionPoint@@0PEAUIUnknown@@W4CComEnumFlags@2@@Z 000000018002d424     RemoteOrderDisplay.obj
 0002:0000b424       $unwind$?AtlComModuleGetClassObject@ATL@@YAJPEAU_ATL_COM_MODULE70@1@AEBU_GUID@@1PEAPEAX@Z 000000018002d424     RemoteOrderDisplay.obj
 0002:0000b424       $unwind$?CreateInstance@?$CComCreator@V?$CComObjectCached@VCComClassFactory@ATL@@@ATL@@@ATL@@SAJPEAXAEBU_GUID@@PEAPEAX@Z 000000018002d424     RemoteOrderDisplay.obj
 0002:0000b424       $unwind$?NextToken@CRegParser@ATL@@IEAAJPEA_W@Z 000000018002d424     RemoteOrderDisplay.obj
 0002:0000b424       $unwind$?Init@?$CComEnumImpl@UIEnumConnections@@$1?_GUID_b196b287_bab4_101a_b69c_00aa00341d07@@3U__s_GUID@@BUtagCONNECTDATA@@V?$_Copy@UtagCONNECTDATA@@@ATL@@@ATL@@QEAAJPEAUtagCONNECTDATA@@0PEAUIUnknown@@W4CComEnumFlags@2@@Z 000000018002d424     RemoteOrderDisplay.obj
 0002:0000b43c       $unwind$?AtlRegisterClassCategoriesHelper@ATL@@YAJAEBU_GUID@@PEBU_ATL_CATMAP_ENTRY@1@H@Z 000000018002d43c     RemoteOrderDisplay.obj
 0002:0000b460       $unwind$?AtlLoadTypeLib@ATL@@YAJPEAUHINSTANCE__@@PEB_WPEAPEA_WPEAPEAUITypeLib@@@Z 000000018002d460     RemoteOrderDisplay.obj
 0002:0000b480       $unwind$?AtlRegisterTypeLib@ATL@@YAJPEAUHINSTANCE__@@PEB_W@Z 000000018002d480     RemoteOrderDisplay.obj
 0002:0000b49c       $unwind$?AtlUnRegisterTypeLib@ATL@@YAJPEAUHINSTANCE__@@PEB_W@Z 000000018002d49c     RemoteOrderDisplay.obj
 0002:0000b4a4       $unwind$?atlCreate@CRegKey@ATL@@QEAAJPEAUHKEY__@@PEB_WPEA_WKKPEAU_SECURITY_ATTRIBUTES@@PEAK@Z 000000018002d4a4     RemoteOrderDisplay.obj
 0002:0000b4b0       $unwind$?Open@CRegKey@ATL@@QEAAJPEAUHKEY__@@PEB_WK@Z 000000018002d4b0     RemoteOrderDisplay.obj
 0002:0000b4bc       $unwind$?RecurseDeleteKey@CRegKey@ATL@@QEAAJPEB_W@Z 000000018002d4bc     RemoteOrderDisplay.obj
 0002:0000b4d8       $unwind$?UpdateRegistryFromResource@CAtlModule@ATL@@QEAAJIHPEAU_ATL_REGMAP_ENTRY@2@@Z 000000018002d4d8     RemoteOrderDisplay.obj
 0002:0000b4d8       $unwind$?UpdateRegistryFromResource@CAtlModule@ATL@@QEAAJPEB_WHPEAU_ATL_REGMAP_ENTRY@2@@Z 000000018002d4d8     RemoteOrderDisplay.obj
 0002:0000b4f8       $unwind$?initialize_stdio_handles_nolock@@YAXXZ 000000018002d4f8     libucrt:ioinit.obj
 0002:0000b4f8       $unwind$__std_exception_copy 000000018002d4f8     libvcruntime:std_exception.obj
 0002:0000b4f8       $unwind$?Lookup@?$CSimpleMap@PEA_WPEA_WVCExpansionVectorEqualHelper@ATL@@@ATL@@QEBAPEA_WAEBQEA_W@Z 000000018002d4f8     RemoteOrderDisplay.obj
 0002:0000b4f8       $unwind$_free_osfhnd       000000018002d4f8     libucrt:osfinfo.obj
 0002:0000b50c       $unwind$?Add@CExpansionVector@ATL@@QEAAHPEB_W0@Z 000000018002d50c     RemoteOrderDisplay.obj
 0002:0000b524       $unwind$?PreProcessBuffer@CRegParser@ATL@@QEAAJPEA_WPEAPEA_W@Z 000000018002d524     RemoteOrderDisplay.obj
 0002:0000b548       $unwind$?RegisterBuffer@CRegParser@ATL@@QEAAJPEA_WH@Z 000000018002d548     RemoteOrderDisplay.obj
 0002:0000b568       $unwind$?AddValue@CRegParser@ATL@@IEAAJAEAVCRegKey@2@PEB_WPEA_W@Z 000000018002d568     RemoteOrderDisplay.obj
 0002:0000b588       $unwind$?RegisterSubkeys@CRegParser@ATL@@IEAAJPEA_WPEAUHKEY__@@HH@Z 000000018002d588     RemoteOrderDisplay.obj
 0002:0000b5a8       $unwind$?SkipAssignment@CRegParser@ATL@@IEAAJPEA_W@Z 000000018002d5a8     RemoteOrderDisplay.obj
 0002:0000b5c0       $unwind$?RegisterFromResource@CRegObject@ATL@@IEAAJPEB_W00H@Z 000000018002d5c0     RemoteOrderDisplay.obj
 0002:0000b5e0       $unwind$?AtlIPersistStreamInit_Load@ATL@@YAJPEAUIStream@@PEBUATL_PROPMAP_ENTRY@1@PEAXPEAUIUnknown@@@Z 000000018002d5e0     RemoteOrderDisplay.obj
 0002:0000b5f8       $unwind$?AtlIPersistStreamInit_Save@ATL@@YAJPEAUIStream@@HPEBUATL_PROPMAP_ENTRY@1@PEAXPEAUIUnknown@@@Z 000000018002d5f8     RemoteOrderDisplay.obj
 0002:0000b614       $unwind$?GetTI@CComTypeInfoHolder@ATL@@QEAAJK@Z 000000018002d614     RemoteOrderDisplay.obj
 0002:0000b634       $unwind$__acrt_locale_free_numeric 000000018002d634     libucrt:initnum.obj
 0002:0000b634       $unwind$_free_base         000000018002d634     libucrt:free_base.obj
 0002:0000b634       $unwind$?Cleanup@CComTypeInfoHolder@ATL@@SAX_K@Z 000000018002d634     RemoteOrderDisplay.obj
 0002:0000b634       $unwind$AtlThunk_FreeData  000000018002d634     atls:atlthunk.obj
 0002:0000b634       $unwind$?destroy_fls@@YAXPEAX@Z 000000018002d634     libucrt:per_thread_data.obj
 0002:0000b634       $unwind$__acrt_locale_free_lc_time_if_unreferenced 000000018002d634     libucrt:locale_refcounting.obj
 0002:0000b63c       $unwind$?GetIDsOfNames@CComTypeInfoHolder@ATL@@QEAAJAEBU_GUID@@PEAPEA_WIKPEAJ@Z 000000018002d63c     RemoteOrderDisplay.obj
 0002:0000b658       $unwind$?LoadNameCache@CComTypeInfoHolder@ATL@@QEAAJPEAUITypeInfo@@@Z 000000018002d658     RemoteOrderDisplay.obj
 0002:0000b66c       $unwind$?StartWindowProc@?$CWindowImplBaseT@VCWindow@ATL@@V?$CWinTraits@$0FGAAAAAA@$0A@@2@@ATL@@SA_JPEAUHWND__@@I_K_J@Z 000000018002d66c     RemoteOrderDisplay.obj
 0002:0000b66c       $unwind$??R<lambda_4e60a939b0d047cfe11ddc22648dfba9>@@QEBAHXZ 000000018002d66c     libucrt:onexit.obj
 0002:0000b66c       $unwind$??$parse_command_line@D@@YAXPEADPEAPEAD0PEA_K2@Z 000000018002d66c     libucrt:argv_parsing.obj
 0002:0000b688       $unwind$?WindowProc@?$CWindowImplBaseT@VCWindow@ATL@@V?$CWinTraits@$0FGAAAAAA@$0A@@2@@ATL@@SA_JPEAUHWND__@@I_K_J@Z 000000018002d688     RemoteOrderDisplay.obj
 0002:0000b6a0       $unwind$?atlCreate@?$CWindowImplBaseT@VCWindow@ATL@@V?$CWinTraits@$0FGAAAAAA@$0A@@2@@ATL@@QEAAPEAUHWND__@@PEAU3@V_U_RECT@2@PEB_WKKV_U_MENUorID@2@GPEAX@Z 000000018002d6a0     RemoteOrderDisplay.obj
 0002:0000b6b8       $unwind$??$AtlModuleRegisterWndClassInfoT@VAtlModuleRegisterWndClassInfoParamW@ATL@@@ATL@@YAGPEAU_ATL_BASE_MODULE70@0@PEAU_ATL_WIN_MODULE70@0@PEAU_ATL_WNDCLASSINFOW@0@PEAP6A_JPEAUHWND__@@I_K_J@ZVAtlModuleRegisterWndClassInfoParamW@0@@Z 000000018002d6b8     RemoteOrderDisplay.obj
 0002:0000b6d8       $unwind$?OnKillFocus@CComControlBase@ATL@@QEAA_JI_K_JAEAH@Z 000000018002d6d8     RemoteOrderDisplay.obj
 0002:0000b6d8       $unwind$iswctype           000000018002d6d8     libucrt:iswctype.obj
 0002:0000b6d8       $unwind$?GetZoomInfo@CComControlBase@ATL@@QEAAXAEAUATL_DRAWINFO@@@Z 000000018002d6d8     RemoteOrderDisplay.obj
 0002:0000b6d8       $unwind$__acrt_is_packaged_app 000000018002d6d8     libucrt:winapi_thunks.obj
 0002:0000b6e4       $unwind$?SendOnDataChange@CComControlBase@ATL@@QEAAJK@Z 000000018002d6e4     RemoteOrderDisplay.obj
 0002:0000b6f4       $unwind$?OnSetFocus@CComControlBase@ATL@@QEAA_JI_K_JAEAH@Z 000000018002d6f4     RemoteOrderDisplay.obj
 0002:0000b704       $unwind$?OnMouseActivate@CComControlBase@ATL@@QEAA_JI_K_JAEAH@Z 000000018002d704     RemoteOrderDisplay.obj
 0002:0000b70c       $unwind$?GetAmbientLocaleID@CComControlBase@ATL@@QEAAJAEAK@Z 000000018002d70c     RemoteOrderDisplay.obj
 0002:0000b71c       $unwind$?GetAmbientUserMode@CComControlBase@ATL@@QEAAJAEAH@Z 000000018002d71c     RemoteOrderDisplay.obj
 0002:0000b730       $unwind$?IQuickActivate_QuickActivate@CComControlBase@ATL@@QEAAJPEAUtagQACONTAINER@@PEAUtagQACONTROL@@@Z 000000018002d730     RemoteOrderDisplay.obj
 0002:0000b748       $unwind$?DoVerbProperties@CComControlBase@ATL@@QEAAJPEBUtagRECT@@PEAUHWND__@@@Z 000000018002d748     RemoteOrderDisplay.obj
 0002:0000b760       $unwind$?InPlaceActivate@CComControlBase@ATL@@QEAAJJPEBUtagRECT@@@Z 000000018002d760     RemoteOrderDisplay.obj
 0002:0000b780       $unwind$?IOleObject_Close@CComControlBase@ATL@@QEAAJK@Z 000000018002d780     RemoteOrderDisplay.obj
 0002:0000b780       $unwind$?type_case_c_tchar@?$output_processor@_WV?$string_output_adapter@_W@__crt_stdio_output@@V?$format_validation_base@_WV?$string_output_adapter@_W@__crt_stdio_output@@@2@@__crt_stdio_output@@AEAA_N_W@Z 000000018002d780     libucrt:output.obj
 0002:0000b790       $unwind$?IOleInPlaceObject_UIDeactivate@CComControlBase@ATL@@QEAAJXZ 000000018002d790     RemoteOrderDisplay.obj
 0002:0000b7a8       $unwind$?IOleInPlaceObject_SetObjectRects@CComControlBase@ATL@@QEAAJPEBUtagRECT@@0@Z 000000018002d7a8     RemoteOrderDisplay.obj
 0002:0000b7bc       $unwind$?IViewObject_Draw@CComControlBase@ATL@@QEAAJKJPEAXPEAUtagDVTARGETDEVICE@@PEAUHDC__@@2PEBU_RECTL@@3@Z 000000018002d7bc     RemoteOrderDisplay.obj
 0002:0000b7d8       $unwind$?IDataObject_GetData@CComControlBase@ATL@@QEAAJPEAUtagFORMATETC@@PEAUtagSTGMEDIUM@@@Z 000000018002d7d8     RemoteOrderDisplay.obj
 0002:0000b7f8       $unwind$?OnPaint@CComControlBase@ATL@@QEAA_JI_K_JAEAH@Z 000000018002d7f8     RemoteOrderDisplay.obj
 0002:0000b814       $unwind$?OnDrawAdvanced@CComControlBase@ATL@@UEAAJAEAUATL_DRAWINFO@@@Z 000000018002d814     RemoteOrderDisplay.obj
 0002:0000b82c       $unwind$?Invoke@?$IDispatchImpl@UIOPOSRemoteOrderDisplay@@$1?IID_IOPOSRemoteOrderDisplay@@3U_GUID@@B$1?LIBID_OposRemoteOrderDisplay_CCO@@3U3@B$00$0A@VCComTypeInfoHolder@ATL@@@ATL@@UEAAJJAEBU_GUID@@KGPEAUtagDISPPARAMS@@PEAUtagVARIANT@@PEAUtagEXCEPINFO@@PEAI@Z 000000018002d82c     RemoteOrderDisplay.obj
 0002:0000b82c       $unwind$_mbsdec_l          000000018002d82c     libucrt:mbsdec.obj
 0002:0000b82c       $unwind$?ReleaseDevice@COPOSRemoteOrderDisplay@@UEAAJPEAJ@Z 000000018002d82c     RemoteOrderDisplayImpl.obj
 0002:0000b838       $unwind$?atlCreate@?$CWindowImpl@VCOPOSRemoteOrderDisplay@@VCWindow@ATL@@V?$CWinTraits@$0FGAAAAAA@$0A@@3@@ATL@@QEAAPEAUHWND__@@PEAU3@V_U_RECT@2@PEB_WKKV_U_MENUorID@2@PEAX@Z 000000018002d838     RemoteOrderDisplay.obj
 0002:0000b838       $unwind$?fp_format_e@@YAHQEBNQEAD_K12H_NIQEAU__crt_locale_pointers@@@Z 000000018002d838     libucrt:cvt.obj
 0002:0000b84c       $unwind$__dcrt_lowio_initialize_console_output 000000018002d84c     libucrt:initcon.obj
 0002:0000b84c       $unwind$?__scrt_throw_std_bad_alloc@@YAXXZ 000000018002d84c     LIBCMT:throw_bad_alloc.obj
 0002:0000b84c       $unwind$?__scrt_throw_std_bad_array_new_length@@YAXXZ 000000018002d84c     LIBCMT:throw_bad_alloc.obj
 0002:0000b84c       $unwind$?ClearOutput@COPOSRemoteOrderDisplay@@UEAAJPEAJ@Z 000000018002d84c     RemoteOrderDisplayImpl.obj
 0002:0000b84c       $unwind$?ClearInput@COPOSRemoteOrderDisplay@@UEAAJPEAJ@Z 000000018002d84c     RemoteOrderDisplayImpl.obj
 0002:0000b84c       $unwind$?CreateControlWindow@?$CComControl@VCOPOSRemoteOrderDisplay@@V?$CWindowImpl@VCOPOSRemoteOrderDisplay@@VCWindow@ATL@@V?$CWinTraits@$0FGAAAAAA@$0A@@3@@ATL@@@ATL@@UEAAPEAUHWND__@@PEAU3@AEAUtagRECT@@@Z 000000018002d84c     RemoteOrderDisplay.obj
 0002:0000b84c       $unwind$_raise_exc         000000018002d84c     libucrt:fpexcept.obj
 0002:0000b854       $unwind$__stdio_common_vswprintf_s 000000018002d854     libucrt:output.obj
 0002:0000b854       $unwind$?Save@?$IPersistStreamInitImpl@VCOPOSRemoteOrderDisplay@@@ATL@@UEAAJPEAUIStream@@H@Z 000000018002d854     RemoteOrderDisplay.obj
 0002:0000b860       $unwind$?GetSizeMax@?$IPersistStreamInitImpl@VCOPOSRemoteOrderDisplay@@@ATL@@UEAAJPEAT_ULARGE_INTEGER@@@Z 000000018002d860     RemoteOrderDisplay.obj
 0002:0000b878       $unwind$?DoVerbPrimary@?$IOleObjectImpl@VCOPOSRemoteOrderDisplay@@@ATL@@QEAAJPEBUtagRECT@@PEAUHWND__@@@Z 000000018002d878     RemoteOrderDisplay.obj
 0002:0000b890       $unwind$?TranslateAcceleratorW@?$IOleInPlaceActiveObjectImpl@VCOPOSRemoteOrderDisplay@@@ATL@@UEAAJPEAUtagMSG@@@Z 000000018002d890     RemoteOrderDisplay.obj
 0002:0000b89c       $unwind$?Draw@?$IViewObjectExImpl@VCOPOSRemoteOrderDisplay@@@ATL@@UEAAJKJPEAXPEAUtagDVTARGETDEVICE@@PEAUHDC__@@2PEBU_RECTL@@3P6AH_K@Z4@Z 000000018002d89c     RemoteOrderDisplay.obj
 0002:0000b8a4       $unwind$?QueryHitRect@?$IViewObjectExImpl@VCOPOSRemoteOrderDisplay@@@ATL@@UEAAJKPEBUtagRECT@@0JPEAK@Z 000000018002d8a4     RemoteOrderDisplay.obj
 0002:0000b8b4       $unwind$?OnWindowMessage@?$IOleInPlaceObjectWindowlessImpl@VCOPOSRemoteOrderDisplay@@@ATL@@UEAAJI_K_JPEA_J@Z 000000018002d8b4     RemoteOrderDisplay.obj
 0002:0000b8c8       $unwind$?EnumConnectionPoints@?$IConnectionPointContainerImpl@VCOPOSRemoteOrderDisplay@@@ATL@@UEAAJPEAPEAUIEnumConnectionPoints@@@Z 000000018002d8c8     RemoteOrderDisplay.obj
 0002:0000b8f0       $unwind$?FindConnectionPoint@?$IConnectionPointContainerImpl@VCOPOSRemoteOrderDisplay@@@ATL@@UEAAJAEBU_GUID@@PEAPEAUIConnectionPoint@@@Z 000000018002d8f0     RemoteOrderDisplay.obj
 0002:0000b90c       $unwind$?Load@?$IPersistStorageImpl@VCOPOSRemoteOrderDisplay@@@ATL@@UEAAJPEAUIStorage@@@Z 000000018002d90c     RemoteOrderDisplay.obj
 0002:0000b91c       $unwind$?Save@?$IPersistStorageImpl@VCOPOSRemoteOrderDisplay@@@ATL@@UEAAJPEAUIStorage@@H@Z 000000018002d91c     RemoteOrderDisplay.obj
 0002:0000b930       $unwind$?DAdvise@?$IDataObjectImpl@VCOPOSRemoteOrderDisplay@@@ATL@@UEAAJPEAUtagFORMATETC@@KPEAUIAdviseSink@@PEAK@Z 000000018002d930     RemoteOrderDisplay.obj
 0002:0000b930       $unwind$_invalid_parameter 000000018002d930     libucrt:invalid_parameter.obj
 0002:0000b948       $unwind$?GetInterfaceSafetyOptions@?$IObjectSafetyImpl@VCOPOSRemoteOrderDisplay@@$02@ATL@@UEAAJAEBU_GUID@@PEAK1@Z 000000018002d948     RemoteOrderDisplay.obj
 0002:0000b95c       $unwind$?parse_int_from_format_string@?$output_processor@_WV?$string_output_adapter@_W@__crt_stdio_output@@V?$format_validation_base@_WV?$string_output_adapter@_W@__crt_stdio_output@@@2@@__crt_stdio_output@@AEAA_NQEAH@Z 000000018002d95c     libucrt:output.obj
 0002:0000b95c       $unwind$?SetInterfaceSafetyOptions@?$IObjectSafetyImpl@VCOPOSRemoteOrderDisplay@@$02@ATL@@UEAAJAEBU_GUID@@KK@Z 000000018002d95c     RemoteOrderDisplay.obj
 0002:0000b970       $unwind$?Advise@?$IConnectionPointImpl@VCOPOSRemoteOrderDisplay@@$1?IID_IPropertyNotifySink@@3U_GUID@@BVCComDynamicUnkArray@ATL@@@ATL@@UEAAJPEAUIUnknown@@PEAK@Z 000000018002d970     RemoteOrderDisplay.obj
 0002:0000b970       $unwind$?Advise@?$IConnectionPointImpl@VCOPOSRemoteOrderDisplay@@$1?DIID__IOPOSRemoteOrderDisplayEvents@@3U_GUID@@BVCComDynamicUnkArray@ATL@@@ATL@@UEAAJPEAUIUnknown@@PEAK@Z 000000018002d970     RemoteOrderDisplay.obj
 0002:0000b984       $unwind$?EnumConnections@?$IConnectionPointImpl@VCOPOSRemoteOrderDisplay@@$1?IID_IPropertyNotifySink@@3U_GUID@@BVCComDynamicUnkArray@ATL@@@ATL@@UEAAJPEAPEAUIEnumConnections@@@Z 000000018002d984     RemoteOrderDisplay.obj
 0002:0000b984       $unwind$?EnumConnections@?$IConnectionPointImpl@VCOPOSRemoteOrderDisplay@@$1?DIID__IOPOSRemoteOrderDisplayEvents@@3U_GUID@@BVCComDynamicUnkArray@ATL@@@ATL@@UEAAJPEAPEAUIEnumConnections@@@Z 000000018002d984     RemoteOrderDisplay.obj
 0002:0000b984       $unwind$??$create_environment@D@@YAQEAPEADQEAD@Z 000000018002d984     libucrt:environment_initialization.obj
 0002:0000b99c       $unwind$?Fire_StatusUpdateEvent@?$CProxy_IOPOSEvents@VCOPOSRemoteOrderDisplay@@@@QEAAXJ@Z 000000018002d99c     RemoteOrderDisplay.obj
 0002:0000b99c       $unwind$_mbtowc_l          000000018002d99c     libucrt:mbtowc.obj
 0002:0000b99c       $unwind$?Fire_DataEvent@?$CProxy_IOPOSEvents@VCOPOSRemoteOrderDisplay@@@@QEAAXJ@Z 000000018002d99c     RemoteOrderDisplay.obj
 0002:0000b99c       $unwind$__acrt_LCMapStringEx 000000018002d99c     libucrt:winapi_thunks.obj
 0002:0000b99c       $unwind$?Fire_OutputCompleteEvent@?$CProxy_IOPOSEvents@VCOPOSRemoteOrderDisplay@@@@QEAAXJ@Z 000000018002d99c     RemoteOrderDisplay.obj
 0002:0000b99c       $unwind$??$__InternalCxxFrameHandler@V__FrameHandler3@@@@YA?AW4_EXCEPTION_DISPOSITION@@PEAUEHExceptionRecord@@PEA_KPEAU_CONTEXT@@PEAU_xDISPATCHER_CONTEXT@@PEBU_s_FuncInfo@@H1E@Z 000000018002d99c     libvcruntime:frame.obj
 0002:0000b9b4       $unwind$?Fire_DirectIOEvent@?$CProxy_IOPOSEvents@VCOPOSRemoteOrderDisplay@@@@QEAAXJPEAJPEAPEA_W@Z 000000018002d9b4     RemoteOrderDisplay.obj
 0002:0000b9d4       $unwind$?Fire_ErrorEvent@?$CProxy_IOPOSEvents@VCOPOSRemoteOrderDisplay@@@@QEAAXJJJPEAJ@Z 000000018002d9d4     RemoteOrderDisplay.obj
 0002:0000b9f4       $unwind$?FireTheEvent@?$CProxy_IOPOSEvents@VCOPOSRemoteOrderDisplay@@@@IEAAXPEAVOposVariant@@IAEAJPEB_WJ@Z 000000018002d9f4     RemoteOrderDisplay.obj
 0002:0000ba04       $unwind$?fp_format_f_internal@@YAHQEAD_KHQEAU_strflt@@_NQEAU__crt_locale_pointers@@@Z 000000018002da04     libucrt:cvt.obj
 0002:0000ba04       $unwind$?ProcessWindowMessage@COPOSRemoteOrderDisplay@@UEAAHPEAUHWND__@@I_K_JAEA_JK@Z 000000018002da04     RemoteOrderDisplay.obj
 0002:0000ba04       $unwind$__dcrt_get_narrow_environment_from_os 000000018002da04     libucrt:get_environment_from_os.obj
 0002:0000ba1c       $unwind$?SOError@COPOSRemoteOrderDisplay@@MEAAJJJJPEAJ@Z 000000018002da1c     RemoteOrderDisplay.obj
 0002:0000ba30       $unwind$?Clone@?$CComEnumImpl@UIEnumConnections@@$1?_GUID_b196b287_bab4_101a_b69c_00aa00341d07@@3U__s_GUID@@BUtagCONNECTDATA@@V?$_Copy@UtagCONNECTDATA@@@ATL@@@ATL@@UEAAJPEAPEAUIEnumConnections@@@Z 000000018002da30     RemoteOrderDisplay.obj
 0002:0000ba30       $unwind$?Clone@?$CComEnumImpl@UIEnumConnectionPoints@@$1?_GUID_b196b285_bab4_101a_b69c_00aa00341d07@@3U__s_GUID@@BPEAUIConnectionPoint@@V?$_CopyInterface@UIConnectionPoint@@@ATL@@@ATL@@UEAAJPEAPEAUIEnumConnectionPoints@@@Z 000000018002da30     RemoteOrderDisplay.obj
 0002:0000ba48       $unwind$?GetOposProp@COPOSRemoteOrderDisplay@@IEAAJJPEAPEA_WJ@Z 000000018002da48     RemoteOrderDisplayImpl.obj
 0002:0000ba48       $unwind$?GetOposProp@COPOSRemoteOrderDisplay@@IEAAJJPEAJJ@Z 000000018002da48     RemoteOrderDisplayImpl.obj
 0002:0000ba60       $unwind$?SetOposProp@COPOSRemoteOrderDisplay@@IEAAJJJJ@Z 000000018002da60     RemoteOrderDisplayImpl.obj
 0002:0000ba80       $unwind$?DoInvoke@COPOSRemoteOrderDisplay@@IEAAJJPEAVOposVariant@@IHPEAJ_N@Z 000000018002da80     RemoteOrderDisplayImpl.obj
 0002:0000ba98       $unwind$?SetCOFreezeEvents@COPOSRemoteOrderDisplay@@IEAAXF@Z 000000018002da98     RemoteOrderDisplayImpl.obj
 0002:0000baac       $unwind$?OnDraw@COPOSRemoteOrderDisplay@@MEAAJAEAUATL_DRAWINFO@@@Z 000000018002daac     RemoteOrderDisplayImpl.obj
 0002:0000bac4       $unwind$?EventInit@COPOSRemoteOrderDisplay@@IEAAJXZ 000000018002dac4     RemoteOrderDisplayImpl.obj
 0002:0000bad8       $unwind$?EventWindowProc@COPOSRemoteOrderDisplay@@IEAA_JI_K_J@Z 000000018002dad8     RemoteOrderDisplayImpl.obj
 0002:0000bae8       $unwind$isdigit            000000018002dae8     libucrt:_ctype.obj
 0002:0000bae8       $unwind$_isleadbyte_l      000000018002dae8     libucrt:_wctype.obj
 0002:0000bae8       $unwind$__scrt_initialize_onexit_tables 000000018002dae8     LIBCMT:utility.obj
 0002:0000bae8       $unwind$?getSystemCP@@YAHH@Z 000000018002dae8     libucrt:mbctype.obj
 0002:0000bae8       $unwind$?get_ControlObjectDescription@COPOSRemoteOrderDisplay@@UEAAJPEAPEA_W@Z 000000018002dae8     RemoteOrderDisplayImpl.obj
 0002:0000baf0       $unwind$?CheckHealth@COPOSRemoteOrderDisplay@@UEAAJJPEAJ@Z 000000018002daf0     RemoteOrderDisplayImpl.obj
 0002:0000baf0       $unwind$?UpdateFirmware@COPOSRemoteOrderDisplay@@UEAAJPEA_WPEAJ@Z 000000018002daf0     RemoteOrderDisplayImpl.obj
 0002:0000baf0       $unwind$?UpdateStatistics@COPOSRemoteOrderDisplay@@UEAAJPEA_WPEAJ@Z 000000018002daf0     RemoteOrderDisplayImpl.obj
 0002:0000baf0       $unwind$?RetrieveStatistics@COPOSRemoteOrderDisplay@@UEAAJPEAPEA_WPEAJ@Z 000000018002daf0     RemoteOrderDisplayImpl.obj
 0002:0000baf0       $unwind$?ResetStatistics@COPOSRemoteOrderDisplay@@UEAAJPEA_WPEAJ@Z 000000018002daf0     RemoteOrderDisplayImpl.obj
 0002:0000baf0       $unwind$?ResetVideo@COPOSRemoteOrderDisplay@@UEAAJJPEAJ@Z 000000018002daf0     RemoteOrderDisplayImpl.obj
 0002:0000bb00       $unwind$?ClaimDevice@COPOSRemoteOrderDisplay@@UEAAJJPEAJ@Z 000000018002db00     RemoteOrderDisplayImpl.obj
 0002:0000bb10       $unwind$?DirectIO@COPOSRemoteOrderDisplay@@UEAAJJPEAJPEAPEA_W0@Z 000000018002db10     RemoteOrderDisplayImpl.obj
 0002:0000bb2c       $unwind$?Open@COPOSRemoteOrderDisplay@@UEAAJPEA_WPEAJ@Z 000000018002db2c     RemoteOrderDisplayImpl.obj
 0002:0000bb50       $unwind$?TransactionDisplay@COPOSRemoteOrderDisplay@@UEAAJJJPEAJ@Z 000000018002db50     RemoteOrderDisplayImpl.obj
 0002:0000bb50       $unwind$?ControlCursor@COPOSRemoteOrderDisplay@@UEAAJJJPEAJ@Z 000000018002db50     RemoteOrderDisplayImpl.obj
 0002:0000bb50       $unwind$?SelectCharacterSet@COPOSRemoteOrderDisplay@@UEAAJJJPEAJ@Z 000000018002db50     RemoteOrderDisplayImpl.obj
 0002:0000bb50       $unwind$?FreeVideoRegion@COPOSRemoteOrderDisplay@@UEAAJJJPEAJ@Z 000000018002db50     RemoteOrderDisplayImpl.obj
 0002:0000bb50       $unwind$?ClearVideo@COPOSRemoteOrderDisplay@@UEAAJJJPEAJ@Z 000000018002db50     RemoteOrderDisplayImpl.obj
 0002:0000bb68       $unwind$?SaveVideoRegion@COPOSRemoteOrderDisplay@@UEAAJJJJJJJPEAJ@Z 000000018002db68     RemoteOrderDisplayImpl.obj
 0002:0000bb68       $unwind$?ClearVideoRegion@COPOSRemoteOrderDisplay@@UEAAJJJJJJJPEAJ@Z 000000018002db68     RemoteOrderDisplayImpl.obj
 0002:0000bb84       $unwind$?ControlClock@COPOSRemoteOrderDisplay@@UEAAJJJJJJJJJJJPEAJ@Z 000000018002db84     RemoteOrderDisplayImpl.obj
 0002:0000bba4       $unwind$?CopyVideoRegion@COPOSRemoteOrderDisplay@@UEAAJJJJJJJJPEAJ@Z 000000018002dba4     RemoteOrderDisplayImpl.obj
 0002:0000bba4       $unwind$?UpdateVideoRegionAttribute@COPOSRemoteOrderDisplay@@UEAAJJJJJJJJPEAJ@Z 000000018002dba4     RemoteOrderDisplayImpl.obj
 0002:0000bba4       $unwind$?DrawBox@COPOSRemoteOrderDisplay@@UEAAJJJJJJJJPEAJ@Z 000000018002dba4     RemoteOrderDisplayImpl.obj
 0002:0000bbc0       $unwind$?DisplayData@COPOSRemoteOrderDisplay@@UEAAJJJJJPEA_WPEAJ@Z 000000018002dbc0     RemoteOrderDisplayImpl.obj
 0002:0000bbe0       $unwind$?RestoreVideoRegion@COPOSRemoteOrderDisplay@@UEAAJJJJJPEAJ@Z 000000018002dbe0     RemoteOrderDisplayImpl.obj
 0002:0000bbfc       $unwind$?SetCursor@COPOSRemoteOrderDisplay@@UEAAJJJJPEAJ@Z 000000018002dbfc     RemoteOrderDisplayImpl.obj
 0002:0000bc18       $unwind$?VideoSound@COPOSRemoteOrderDisplay@@UEAAJJJJJJPEAJ@Z 000000018002dc18     RemoteOrderDisplayImpl.obj
 0002:0000bc34       $unwind$?CompareFirmwareVersion@COPOSRemoteOrderDisplay@@UEAAJPEA_WPEAJ1@Z 000000018002dc34     RemoteOrderDisplayImpl.obj
 0002:0000bc34       $unwind$?initialize_inherited_file_handles_nolock@@YAXXZ 000000018002dc34     libucrt:ioinit.obj
 0002:0000bc50       $unwind$__scrt_is_nonwritable_in_current_image 000000018002dc50     LIBCMT:utility.obj
 0002:0000bc70       $unwind$__scrt_is_nonwritable_in_current_image$filt$0 000000018002dc70     LIBCMT:utility.obj
 0002:0000bc78       $unwind$?__scrt_initialize_thread_safe_statics@@YAHXZ 000000018002dc78     LIBCMT:thread_safe_statics.obj
 0002:0000bc90       $stateUnwindMap$?__scrt_initialize_thread_safe_statics@@YAHXZ 000000018002dc90     LIBCMT:thread_safe_statics.obj
 0002:0000bc98       $ip2state$?__scrt_initialize_thread_safe_statics@@YAHXZ 000000018002dc98     LIBCMT:thread_safe_statics.obj
 0002:0000bca0       $unwind$__report_securityfailure 000000018002dca0     LIBCMT:gs_report.obj
 0002:0000bca8       $unwind$__report_gsfailure 000000018002dca8     LIBCMT:gs_report.obj
 0002:0000bca8       $unwind$_putwch_nolock     000000018002dca8     libucrt:putwch.obj
 0002:0000bcb0       $unwind$capture_current_context 000000018002dcb0     LIBCMT:gs_report.obj
 0002:0000bcbc       $unwind$capture_previous_context 000000018002dcbc     LIBCMT:gs_report.obj
 0002:0000bcc8       $unwind$??2@YAPEAX_KAEBUnothrow_t@std@@@Z 000000018002dcc8     LIBCMT:new_scalar_nothrow.obj
 0002:0000bcd8       $stateUnwindMap$??2@YAPEAX_KAEBUnothrow_t@std@@@Z 000000018002dcd8     LIBCMT:new_scalar_nothrow.obj
 0002:0000bce8       $tryMap$??2@YAPEAX_KAEBUnothrow_t@std@@@Z 000000018002dce8     LIBCMT:new_scalar_nothrow.obj
 0002:0000bcfc       $handlerMap$0$??2@YAPEAX_KAEBUnothrow_t@std@@@Z 000000018002dcfc     LIBCMT:new_scalar_nothrow.obj
 0002:0000bd10       $ip2state$??2@YAPEAX_KAEBUnothrow_t@std@@@Z 000000018002dd10     LIBCMT:new_scalar_nothrow.obj
 0002:0000bd18       $unwind$?catch$0@?0???2@YAPEAX_KAEBUnothrow_t@std@@@Z@4HA 000000018002dd18     LIBCMT:new_scalar_nothrow.obj
 0002:0000bd28       $unwind$__GSHandlerCheckCommon 000000018002dd28     LIBCMT:gshandler.obj
 0002:0000bd30       $xdatasym                  000000018002dd30     LIBCMT:chkstk.obj
 0002:0000bd38       $xdatasym                  000000018002dd38     LIBCMT:amdsecgs.obj
 0002:0000bd3c       $unwind$?dllmain_crt_process_attach@@YAHQEAUHINSTANCE__@@QEAX@Z 000000018002dd3c     LIBCMT:dll_dllmain.obj
 0002:0000bd78       $unwind$?dllmain_crt_process_detach@@YAH_N@Z 000000018002dd78     LIBCMT:dll_dllmain.obj
 0002:0000bdb0       $unwind$?dllmain_dispatch@@YAHQEAUHINSTANCE__@@KQEAX@Z 000000018002ddb0     LIBCMT:dll_dllmain.obj
 0002:0000bdd8       $unwind$?filt$0@?0??dllmain_dispatch@@YAHQEAUHINSTANCE__@@KQEAX@Z@4HA 000000018002ddd8     LIBCMT:dll_dllmain.obj
 0002:0000bde0       $unwind$__isa_available_init 000000018002dde0     LIBCMT:cpu_disp.obj
 0002:0000bdf4       $unwind$__scrt_fastfail    000000018002ddf4     LIBCMT:utility_desktop.obj
 0002:0000be04       $unwind$__security_init_cookie 000000018002de04     LIBCMT:gs_support.obj
 0002:0000be10       $xdatasym                  000000018002de10     LIBCMT:guard_dispatch.obj
 0002:0000be14       $unwind$AtlThunk_InitData  000000018002de14     atls:atlthunk.obj
 0002:0000be28       $xdatasym                  000000018002de28     libvcruntime:memset.obj
 0002:0000be38       $unwind$wcsstr             000000018002de38     libvcruntime:wcsstr.obj
 0002:0000be50       $xdatasym                  000000018002de50     libvcruntime:memcmp.obj
 0002:0000be58       $xdatasym                  000000018002de58     libvcruntime:memcpy.obj
 0002:0000be68       $unwind$__C_specific_handler 000000018002de68     libvcruntime:riscchandler.obj
 0002:0000be84       $unwind$__DestructExceptionObject 000000018002de84     libvcruntime:ehhelpers.obj
 0002:0000bea4       $unwind$?GetEstablisherFrame@__FrameHandler3@@SAPEA_KPEA_KPEAU_xDISPATCHER_CONTEXT@@PEBU_s_FuncInfo@@0@Z 000000018002dea4     libvcruntime:risctrnsctrl.obj
 0002:0000bebc       $unwind$?UnwindNestedFrames@__FrameHandler3@@SAXPEA_KPEAUEHExceptionRecord@@PEAU_CONTEXT@@0PEAXPEBU_s_FuncInfo@@HHPEBU_s_HandlerType@@PEAU_xDISPATCHER_CONTEXT@@E@Z 000000018002debc     libvcruntime:risctrnsctrl.obj
 0002:0000bed0       $unwind$?GetRangeOfTrysToCheck@__FrameHandler3@@SA?AU?$pair@Viterator@TryBlockMap@__FrameHandler3@@V123@@std@@AEAVTryBlockMap@1@HH@Z 000000018002ded0     libvcruntime:risctrnsctrl.obj
 0002:0000bee8       $unwind$__CxxFrameHandler3 000000018002dee8     libvcruntime:risctrnsctrl.obj
 0002:0000bef8       $unwind$??$_CallSETranslator@V__FrameHandler3@@@@YAHPEAUEHExceptionRecord@@PEA_KPEAU_CONTEXT@@PEAU_xDISPATCHER_CONTEXT@@PEBU_s_FuncInfo@@K1@Z 000000018002def8     libvcruntime:risctrnsctrl.obj
 0002:0000bf18       $unwind$?filt$0@?0???$_CallSETranslator@V__FrameHandler3@@@@YAHPEAUEHExceptionRecord@@PEA_KPEAU_CONTEXT@@PEAU_xDISPATCHER_CONTEXT@@PEBU_s_FuncInfo@@K1@Z@4HA 000000018002df18     libvcruntime:risctrnsctrl.obj
 0002:0000bf24       $unwind$_CxxThrowException 000000018002df24     libvcruntime:throw.obj
 0002:0000bf34       $unwind$__vcrt_initialize_winapi_thunks 000000018002df34     libvcruntime:winapi_downlevel.obj
 0002:0000bf34       $unwind$__acrt_initialize_winapi_thunks 000000018002df34     libucrt:winapi_thunks.obj
 0002:0000bf3c       $unwind$__vcrt_uninitialize_winapi_thunks 000000018002df3c     libvcruntime:winapi_downlevel.obj
 0002:0000bf44       $unwind$?try_get_function@@YAPEAXW4function_id@?A0xbfd18cd1@@QEBDQEBW4module_id@2@2@Z 000000018002df44     libvcruntime:winapi_downlevel.obj
 0002:0000bf44       $unwind$?IsInExceptionSpec@@YAEPEAUEHExceptionRecord@@PEBU_s_ESTypeList@@@Z 000000018002df44     libvcruntime:frame.obj
 0002:0000bf44       $unwind$?try_get_function@@YAPEAXW4function_id@?A0x63058377@@QEBDQEBW4module_id@2@2@Z 000000018002df44     libucrt:winapi_thunks.obj
 0002:0000bf44       $unwind$?write_string@?$string_output_adapter@_W@__crt_stdio_output@@QEBAXQEB_WHQEAH1@Z 000000018002df44     libucrt:output.obj
 0002:0000bf60       $xdatasym                  000000018002df60     libvcruntime:notify.obj
 0002:0000bf6c       $unwind$?FrameUnwindToState@__FrameHandler3@@SAXPEA_KPEAU_xDISPATCHER_CONTEXT@@PEBU_s_FuncInfo@@H@Z 000000018002df6c     libvcruntime:frame.obj
 0002:0000bfb8       $unwind$?CxxCallCatchBlock@__FrameHandler3@@SAPEAXPEAU_EXCEPTION_RECORD@@@Z 000000018002dfb8     libvcruntime:frame.obj
 0002:0000bff4       $unwind$?fin$1@?0??CxxCallCatchBlock@__FrameHandler3@@SAPEAXPEAU_EXCEPTION_RECORD@@@Z@4HA 000000018002dff4     libvcruntime:frame.obj
 0002:0000c000       $unwind$??$BuildCatchObjectHelperInternal@V__FrameHandler3@@@@YAHPEAUEHExceptionRecord@@PEAXPEBU_s_HandlerType@@PEBU_s_CatchableType@@@Z 000000018002e000     libvcruntime:frame.obj
 0002:0000c040       $unwind$??$BuildCatchObjectInternal@V__FrameHandler3@@@@YAXPEAUEHExceptionRecord@@PEAXPEBU_s_HandlerType@@PEBU_s_CatchableType@@@Z 000000018002e040     libvcruntime:frame.obj
 0002:0000c06c       $unwind$??$FindHandler@V__FrameHandler3@@@@YAXPEAUEHExceptionRecord@@PEA_KPEAU_CONTEXT@@PEAU_xDISPATCHER_CONTEXT@@PEBU_s_FuncInfo@@EH1@Z 000000018002e06c     libvcruntime:frame.obj
 0002:0000c088       $unwind$??$CatchIt@V__FrameHandler3@@@@YAXPEAUEHExceptionRecord@@PEA_KPEAU_CONTEXT@@PEAU_xDISPATCHER_CONTEXT@@PEBU_s_FuncInfo@@PEBU_s_HandlerType@@PEBU_s_CatchableType@@PEBU_s_TryBlockMapEntry@@H1EE@Z 000000018002e088     libvcruntime:frame.obj
 0002:0000c0a0       $unwind$??$FindHandlerForForeignException@V__FrameHandler3@@@@YAXPEAUEHExceptionRecord@@PEA_KPEAU_CONTEXT@@PEAU_xDISPATCHER_CONTEXT@@PEBU_s_FuncInfo@@HH1@Z 000000018002e0a0     libvcruntime:frame.obj
 0002:0000c0c0       $xdatasym                  000000018002e0c0     libvcruntime:handlers.obj
 0002:0000c0d0       $unwind$__acrt_call_reportfault 000000018002e0d0     libucrt:invalid_parameter.obj
 0002:0000c0f0       $unwind$_resetstkoflw      000000018002e0f0     libucrt:resetstk.obj
 0002:0000c114       $unwind$??$common_vsprintf@Vformat_validation_base@__crt_stdio_output@@_W@@YAH_KQEA_W0QEB_WQEAU__crt_locale_pointers@@QEAD@Z 000000018002e114     libucrt:output.obj
 0002:0000c138       $unwind$??$write_multiple_characters@V?$string_output_adapter@_W@__crt_stdio_output@@D@__crt_stdio_output@@YAXAEBV?$string_output_adapter@_W@0@DHQEAH@Z 000000018002e138     libucrt:output.obj
 0002:0000c144       $unwind$?state_case_type@?$output_processor@_WV?$string_output_adapter@_W@__crt_stdio_output@@V?$format_validation_base@_WV?$string_output_adapter@_W@__crt_stdio_output@@@2@@__crt_stdio_output@@AEAA_NXZ 000000018002e144     libucrt:output.obj
 0002:0000c168       $unwind$?type_case_a@?$output_processor@_WV?$string_output_adapter@_W@__crt_stdio_output@@V?$format_validation_base@_WV?$string_output_adapter@_W@__crt_stdio_output@@@2@@__crt_stdio_output@@AEAA_NXZ 000000018002e168     libucrt:output.obj
 0002:0000c178       $unwind$?write_stored_string_tchar@?$output_processor@_WV?$string_output_adapter@_W@__crt_stdio_output@@V?$format_validation_base@_WV?$string_output_adapter@_W@__crt_stdio_output@@@2@@__crt_stdio_output@@AEAA_N_W@Z 000000018002e178     libucrt:output.obj
 0002:0000c18c       $unwind$??$type_case_integer_parse_into_buffer@I@?$output_processor@_WV?$string_output_adapter@_W@__crt_stdio_output@@V?$format_validation_base@_WV?$string_output_adapter@_W@__crt_stdio_output@@@2@@__crt_stdio_output@@AEAAXII_N@Z 000000018002e18c     libucrt:output.obj
 0002:0000c18c       $unwind$??$type_case_integer_parse_into_buffer@_K@?$output_processor@_WV?$string_output_adapter@_W@__crt_stdio_output@@V?$format_validation_base@_WV?$string_output_adapter@_W@__crt_stdio_output@@@2@@__crt_stdio_output@@AEAAX_KI_N@Z 000000018002e18c     libucrt:output.obj
 0002:0000c194       $unwind$?common_exit@@YAXHW4_crt_exit_cleanup_mode@@W4_crt_exit_return_mode@@@Z 000000018002e194     libucrt:exit.obj
 0002:0000c1d4       $unwind$??$free_environment@D@@YAXQEAPEAD@Z 000000018002e1d4     libucrt:environment_initialization.obj
 0002:0000c1d4       $unwind$??$free_environment@_W@@YAXQEAPEA_W@Z 000000018002e1d4     libucrt:environment_initialization.obj
 0002:0000c1e0       $unwind$_register_onexit_function 000000018002e1e0     libucrt:onexit.obj
 0002:0000c1e8       $unwind$_execute_onexit_table 000000018002e1e8     libucrt:onexit.obj
 0002:0000c1f0       $unwind$??$?RV<lambda_b8c45f8f788dd370798f47cfe8ac3a86>@@AEAV<lambda_4e60a939b0d047cfe11ddc22648dfba9>@@V<lambda_332c3edc96d0294ec56c57d38c1cdfd5>@@@?$__crt_seh_guarded_call@H@@QEAAH$$QEAV<lambda_b8c45f8f788dd370798f47cfe8ac3a86>@@AEAV<lambda_4e60a939b0d047cfe11ddc22648dfba9>@@$$QEAV<lambda_332c3edc96d0294ec56c57d38c1cdfd5>@@@Z 000000018002e1f0     libucrt:onexit.obj
 0002:0000c214       $unwind$??$?RV<lambda_e24bbb7b643b32fcea6fa61b31d4c984>@@AEAV<lambda_275893d493268fdec8709772e3fcec0e>@@V<lambda_9d71df4d7cf3f480f8d633942495c3b0>@@@?$__crt_seh_guarded_call@H@@QEAAH$$QEAV<lambda_e24bbb7b643b32fcea6fa61b31d4c984>@@AEAV<lambda_275893d493268fdec8709772e3fcec0e>@@$$QEAV<lambda_9d71df4d7cf3f480f8d633942495c3b0>@@@Z 000000018002e214     libucrt:onexit.obj
 0002:0000c244       $unwind$_query_new_handler 000000018002e244     libucrt:new_handler.obj
 0002:0000c264       $unwind$terminate          000000018002e264     libucrt:terminate.obj
 0002:0000c284       $unwind$??$parse_integer@KV?$c_string_character_source@_W@__crt_strtox@@@__crt_strtox@@YAKQEAU__crt_locale_pointers@@V?$c_string_character_source@_W@0@H_N@Z 000000018002e284     libucrt:atox.obj
 0002:0000c2a0       $xdatasym                  000000018002e2a0     libucrt:strncmp.obj
 0002:0000c2a4       $unwind$?construct_ptd_array@@YAXQEAU__acrt_ptd@@@Z 000000018002e2a4     libucrt:per_thread_data.obj
 0002:0000c2ac       $unwind$?destroy_ptd_array@@YAXQEAU__acrt_ptd@@@Z 000000018002e2ac     libucrt:per_thread_data.obj
 0002:0000c2b4       $unwind$??$?RV<lambda_72d1df2b273a38828b1ce30cbf4cdab5>@@AEAV<lambda_876a65b173b8412d3a47c70a915b0cf4>@@V<lambda_41932305e351933ebe8f8be3ed8bb5dc>@@@?$__crt_seh_guarded_call@X@@QEAAX$$QEAV<lambda_72d1df2b273a38828b1ce30cbf4cdab5>@@AEAV<lambda_876a65b173b8412d3a47c70a915b0cf4>@@$$QEAV<lambda_41932305e351933ebe8f8be3ed8bb5dc>@@@Z 000000018002e2b4     libucrt:per_thread_data.obj
 0002:0000c2d8       $unwind$??$?RV<lambda_5e887d1dcbef67a5eb4283622ba103bf>@@AEAV<lambda_4466841279450cc726390878d4a41900>@@V<lambda_341c25c0346d94847f1f3c463c57e077>@@@?$__crt_seh_guarded_call@X@@QEAAX$$QEAV<lambda_5e887d1dcbef67a5eb4283622ba103bf>@@AEAV<lambda_4466841279450cc726390878d4a41900>@@$$QEAV<lambda_341c25c0346d94847f1f3c463c57e077>@@@Z 000000018002e2d8     libucrt:per_thread_data.obj
 0002:0000c2fc       $unwind$??$?RV<lambda_46352004c1216016012b18bd6f87e700>@@AEAV<lambda_3bd07e1a1191394380780325891bf33f>@@V<lambda_334532d3f185bcaa59b5be82d7d22bff>@@@?$__crt_seh_guarded_call@X@@QEAAX$$QEAV<lambda_46352004c1216016012b18bd6f87e700>@@AEAV<lambda_3bd07e1a1191394380780325891bf33f>@@$$QEAV<lambda_334532d3f185bcaa59b5be82d7d22bff>@@@Z 000000018002e2fc     libucrt:per_thread_data.obj
 0002:0000c320       $unwind$??$?RV<lambda_fb3a7dec4e47f37f22dae91bb15c9095>@@AEAV<lambda_698284760c8add0bfb0756c19673e34b>@@V<lambda_dfb8eca1e75fef3034a8fb18dd509707>@@@?$__crt_seh_guarded_call@X@@QEAAX$$QEAV<lambda_fb3a7dec4e47f37f22dae91bb15c9095>@@AEAV<lambda_698284760c8add0bfb0756c19673e34b>@@$$QEAV<lambda_dfb8eca1e75fef3034a8fb18dd509707>@@@Z 000000018002e320     libucrt:per_thread_data.obj
 0002:0000c344       $unwind$_tolower_l         000000018002e344     libucrt:tolower_toupper.obj
 0002:0000c354       $unwind$wcstol             000000018002e354     libucrt:strtox.obj
 0002:0000c35c       $unwind$wcsnlen            000000018002e35c     libucrt:strnlen.obj
 0002:0000c364       $unwind$__acrt_fp_format   000000018002e364     libucrt:cvt.obj
 0002:0000c380       $unwind$?fp_format_nan_or_infinity@@YAHW4__acrt_fp_class@@_NPEAD_K1@Z 000000018002e380     libucrt:cvt.obj
 0002:0000c394       $unwind$?fp_format_e_internal@@YAHQEAD_KH_NIQEAU_strflt@@2QEAU__crt_locale_pointers@@@Z 000000018002e394     libucrt:cvt.obj
 0002:0000c3ac       $unwind$?fp_format_a@@YAHQEBNPEAD_KQEAD2H_NIQEAU__crt_locale_pointers@@@Z 000000018002e3ac     libucrt:cvt.obj
 0002:0000c3c8       $unwind$?fp_format_g@@YAHQEBNQEAD_K12H_NIQEAU__crt_locale_pointers@@@Z 000000018002e3c8     libucrt:cvt.obj
 0002:0000c3dc       $unwind$__acrt_uninitialize_locale 000000018002e3dc     libucrt:wsetlocale.obj
 0002:0000c3fc       $unwind$__acrt_initialize_lowio 000000018002e3fc     libucrt:ioinit.obj
 0002:0000c41c       $unwind$??$common_expand_argv_wildcards@D@@YAHQEAPEADQEAPEAPEAD@Z 000000018002e41c     libucrt:argv_wildcards.obj
 0002:0000c434       $unwind$??$copy_and_add_argument_to_buffer@D@@YAHQEBD0_KAEAV?$argument_list@D@?A0xca0879c4@@@Z 000000018002e434     libucrt:argv_wildcards.obj
 0002:0000c450       $unwind$??$expand_argument_wildcards@D@@YAHQEAD0AEAV?$argument_list@D@?A0xca0879c4@@@Z 000000018002e450     libucrt:argv_wildcards.obj
 0002:0000c470       $unwind$__acrt_update_thread_multibyte_data 000000018002e470     libucrt:mbctype.obj
 0002:0000c494       $unwind$_setmbcp_nolock    000000018002e494     libucrt:mbctype.obj
 0002:0000c4b4       $unwind$?setSBUpLow@@YAXPEAU__crt_multibyte_data@@@Z 000000018002e4b4     libucrt:mbctype.obj
 0002:0000c4d0       $unwind$?setmbcp_internal@@YAHH_N@Z 000000018002e4d0     libucrt:mbctype.obj
 0002:0000c4e0       $unwind$??$?RV<lambda_99476a1ad63dd22509b5d3e65b0ffc95>@@AEAV<lambda_ad1ced32f4ac17aa236e5ef05d6b3b7c>@@V<lambda_f7424dd8d45958661754dc4f2697e9c3>@@@?$__crt_seh_guarded_call@X@@QEAAX$$QEAV<lambda_99476a1ad63dd22509b5d3e65b0ffc95>@@AEAV<lambda_ad1ced32f4ac17aa236e5ef05d6b3b7c>@@$$QEAV<lambda_f7424dd8d45958661754dc4f2697e9c3>@@@Z 000000018002e4e0     libucrt:mbctype.obj
 0002:0000c504       $unwind$__acrt_get_sigabrt_handler 000000018002e504     libucrt:signal.obj
 0002:0000c50c       $unwind$raise              000000018002e50c     libucrt:signal.obj
 0002:0000c538       $unwind$??$?RV<lambda_c36588078e9f5dfd39652860aa6b3aaf>@@AEAV<lambda_ec61778202f4f5fc7e7711acc23c3bca>@@V<lambda_dc9d2797ccde5d239b4a0efae8ebd7db>@@@?$__crt_seh_guarded_call@P6AXH@Z@@QEAAP6AXH@Z$$QEAV<lambda_c36588078e9f5dfd39652860aa6b3aaf>@@AEAV<lambda_ec61778202f4f5fc7e7711acc23c3bca>@@$$QEAV<lambda_dc9d2797ccde5d239b4a0efae8ebd7db>@@@Z 000000018002e538     libucrt:signal.obj
 0002:0000c55c       $unwind$_isctype_l         000000018002e55c     libucrt:isctype.obj
 0002:0000c578       $unwind$__acrt_update_thread_locale_data 000000018002e578     libucrt:locale_refcounting.obj
 0002:0000c59c       $unwind$?GetTableIndexFromLocaleName@@YAHPEB_W@Z 000000018002e59c     libucrt:lcidtoname_downlevel.obj
 0002:0000c5b4       $unwind$__acrt_LCMapStringA 000000018002e5b4     libucrt:lcmapstringa.obj
 0002:0000c5c4       $unwind$?__acrt_LCMapStringA_stat@@YAHPEAU__crt_locale_pointers@@PEB_WKPEBDHPEADHHH@Z 000000018002e5c4     libucrt:lcmapstringa.obj
 0002:0000c5ec       $unwind$__acrt_fltout      000000018002e5ec     libucrt:cfout.obj
 0002:0000c60c       $unwind$?divide@__crt_strtox@@YA_KAEAUbig_integer@1@AEBU21@@Z 000000018002e60c     libucrt:cfout.obj
 0002:0000c62c       $chain$5$?divide@__crt_strtox@@YA_KAEAUbig_integer@1@AEBU21@@Z 000000018002e62c     libucrt:cfout.obj
 0002:0000c640       $chain$6$?divide@__crt_strtox@@YA_KAEAUbig_integer@1@AEBU21@@Z 000000018002e640     libucrt:cfout.obj
 0002:0000c650       $unwind$_fcloseall         000000018002e650     libucrt:closeall.obj
 0002:0000c674       $unwind$common_flush_all   000000018002e674     libucrt:fflush.obj
 0002:0000c6b0       $unwind$__acrt_locale_free_monetary 000000018002e6b0     libucrt:initmon.obj
 0002:0000c6b8       $unwind$__acrt_locale_free_time 000000018002e6b8     libucrt:inittime.obj
 0002:0000c6c8       $unwind$__acrt_GetStringTypeA 000000018002e6c8     libucrt:getstringtypea.obj
 0002:0000c6f0       $unwind$__acrt_lowio_destroy_handle_array 000000018002e6f0     libucrt:osfinfo.obj
 0002:0000c700       $unwind$__acrt_lowio_ensure_fh_exists 000000018002e700     libucrt:osfinfo.obj
 0002:0000c72c       $unwind$qsort              000000018002e72c     libucrt:qsort.obj
 0002:0000c744       $chain$4$qsort             000000018002e744     libucrt:qsort.obj
 0002:0000c768       $chain$5$qsort             000000018002e768     libucrt:qsort.obj
 0002:0000c778       $unwind$?shortsort@@YAXPEAD0_KP6AHPEBX2@Z@Z 000000018002e778     libucrt:qsort.obj
 0002:0000c788       $chain$2$?shortsort@@YAXPEAD0_KP6AHPEBX2@Z@Z 000000018002e788     libucrt:qsort.obj
 0002:0000c7a4       $chain$3$?shortsort@@YAXPEAD0_KP6AHPEBX2@Z@Z 000000018002e7a4     libucrt:qsort.obj
 0002:0000c7b4       $unwind$strpbrk            000000018002e7b4     libucrt:strpbrk.obj
 0002:0000c7c8       $xdatasym                  000000018002e7c8     libucrt:log10.obj
 0002:0000c7d4       $unwind$_write             000000018002e7d4     libucrt:write.obj
 0002:0000c804       $unwind$_write_nolock      000000018002e804     libucrt:write.obj
 0002:0000c81c       $unwind$?write_double_translated_ansi_nolock@@YA?AUwrite_result@?A0x9c548279@@HQEBDI@Z 000000018002e81c     libucrt:write.obj
 0002:0000c83c       $unwind$?write_text_utf16le_nolock@@YA?AUwrite_result@?A0x9c548279@@HQEBDI@Z 000000018002e83c     libucrt:write.obj
 0002:0000c83c       $unwind$?write_text_ansi_nolock@@YA?AUwrite_result@?A0x9c548279@@HQEBDI@Z 000000018002e83c     libucrt:write.obj
 0002:0000c85c       $unwind$?write_text_utf8_nolock@@YA?AUwrite_result@?A0x9c548279@@HQEBDI@Z 000000018002e85c     libucrt:write.obj
 0002:0000c880       $unwind$fclose             000000018002e880     libucrt:fclose.obj
 0002:0000c8a4       $unwind$_commit            000000018002e8a4     libucrt:commit.obj
 0002:0000c8a4       $unwind$_close             000000018002e8a4     libucrt:close.obj
 0002:0000c8ac       $unwind$??$?RV<lambda_b521505b218e5242e90febf6bfebc422>@@AEAV<lambda_6978c1fb23f02e42e1d9e99668cc68aa>@@V<lambda_314360699dd331753a4119843814e9a7>@@@?$__crt_seh_guarded_call@H@@QEAAH$$QEAV<lambda_b521505b218e5242e90febf6bfebc422>@@AEAV<lambda_6978c1fb23f02e42e1d9e99668cc68aa>@@$$QEAV<lambda_314360699dd331753a4119843814e9a7>@@@Z 000000018002e8ac     libucrt:commit.obj
 0002:0000c8d0       $unwind$common_control87   000000018002e8d0     libucrt:ieee.obj
 0002:0000c900       $unwind$_call_matherr      000000018002e900     libucrt:libm_error.obj
 0002:0000c908       $unwind$_handle_error      000000018002e908     libucrt:libm_error.obj
 0002:0000c928       $unwind$__acrt_initialize_fma3 000000018002e928     libucrt:fma3_available.obj
 0002:0000c930       $unwind$_log_special_common 000000018002e930     libucrt:log_special.obj
 0002:0000c93c       $unwind$??$?RV<lambda_bfedae4ebbf01fab1bb6dcc6a9e276e0>@@AEAV<lambda_2fe9b910cf3cbf4a0ab98a02ba45b3ec>@@V<lambda_237c231691f317818eb88cc1d5d642d6>@@@?$__crt_seh_guarded_call@H@@QEAAH$$QEAV<lambda_bfedae4ebbf01fab1bb6dcc6a9e276e0>@@AEAV<lambda_2fe9b910cf3cbf4a0ab98a02ba45b3ec>@@$$QEAV<lambda_237c231691f317818eb88cc1d5d642d6>@@@Z 000000018002e93c     libucrt:close.obj
 0002:0000c960       $xdatasym                  000000018002e960     libucrt:fpsr.obj
 0002:0000c968       $unwind$_raise_exc_ex      000000018002e968     libucrt:fpexcept.obj
 0002:0000c97c       $unwind$_ctrlfp            000000018002e97c     libucrt:fpctrl.obj
 0002:0000c9a4       $unwind$_IsNonwritableInCurrentImage 000000018002e9a4     LIBCMT:pesect.obj
 0002:0000c9c8       $unwind$strrchr            000000018002e9c8     libvcruntime:strrchr.obj
 0002:0000cb30       .edata                     000000018002eb30     OPOSRemoteOrderDisplay.exp
 0002:0000cb58       rgpv                       000000018002eb58     OPOSRemoteOrderDisplay.exp
 0002:0000cb68       rgszName                   000000018002eb68     OPOSRemoteOrderDisplay.exp
 0002:0000cb78       rgwOrd                     000000018002eb78     OPOSRemoteOrderDisplay.exp
 0002:0000cb80       szName                     000000018002eb80     OPOSRemoteOrderDisplay.exp
 0002:0000cb9b       $N00001                    000000018002eb9b     OPOSRemoteOrderDisplay.exp
 0002:0000cbab       $N00002                    000000018002ebab     OPOSRemoteOrderDisplay.exp
 0002:0000cbbd       $N00003                    000000018002ebbd     OPOSRemoteOrderDisplay.exp
 0002:0000cbcf       $N00004                    000000018002ebcf     OPOSRemoteOrderDisplay.exp
 0002:0000d502       .idata$6                   000000018002f502     kernel32:KERNEL32.dll
 0002:0000d71a       .idata$6                   000000018002f71a     user32:USER32.dll
 0002:0000d84e       .idata$6                   000000018002f84e     gdi32:GDI32.dll
 0002:0000d8f4       .idata$6                   000000018002f8f4     advapi32:ADVAPI32.dll
 0002:0000da10       .idata$6                   000000018002fa10     ole32:ole32.dll
 0002:0000da1a       .idata$6                   000000018002fa1a     oleaut32:OLEAUT32.dll
 0003:000001c0       ?ObjectMap@@3PAU_ATL_OBJMAP_ENTRY30@ATL@@A 00000001800301c0     RemoteOrderDisplay.obj
 0003:000002d0       ?s_SOMethodNames@@3PAPEADA 00000001800302d0     RemoteOrderDisplayImpl.obj
 0003:000003e8       ?s_RequiredMethodsPerRelease@@3PAHA 00000001800303e8     RemoteOrderDisplayImpl.obj
 0003:00000430       ?__vcrt_flsindex@@3KA      0000000180030430     libvcruntime:per_thread_data.obj
 0003:00000440       errno_no_memory            0000000180030440     libucrt:errno.obj
 0003:00000444       doserrno_no_memory         0000000180030444     libucrt:errno.obj
 0003:00000450       __acrt_flsindex            0000000180030450     libucrt:per_thread_data.obj
 0003:00000910       __rgctypeflag              0000000180030910     libucrt:mbctype.obj
 0003:00000920       __rgcode_page_info         0000000180030920     libucrt:mbctype.obj
 0003:00000cd0       ?dazSupported@?1??common_control87@@9@9 0000000180030cd0     libucrt:ieee.obj
 0003:00000ce0       ?dazSupported@?1??_ctrlfp@@9@9 0000000180030ce0     libucrt:fpctrl.obj
 0003:00000f40       ?is_initialized_as_dll@@3_NA 0000000180030f40     LIBCMT:utility.obj
 0003:00000f41       ?module_local_atexit_table_initialized@@3_NA 0000000180030f41     LIBCMT:utility.obj
 0003:00000f48       ?module_local_atexit_table@@3U_onexit_table_t@@A 0000000180030f48     LIBCMT:utility.obj
 0003:00000f60       ?module_local_at_quick_exit_table@@3U_onexit_table_t@@A 0000000180030f60     LIBCMT:utility.obj
 0003:00000f78       ?_Tss_mutex@@3U_RTL_CRITICAL_SECTION@@A 0000000180030f78     LIBCMT:thread_safe_statics.obj
 0003:00000fa0       ?_Tss_cv@@3U_RTL_CONDITION_VARIABLE@@A 0000000180030fa0     LIBCMT:thread_safe_statics.obj
 0003:00000fa8       ?_Tss_event@@3PEAXEA       0000000180030fa8     LIBCMT:thread_safe_statics.obj
 0003:00000fb0       ?encoded_sleep_condition_variable_cs@@3P6AHPEAU_RTL_CONDITION_VARIABLE@@PEAU_RTL_CRITICAL_SECTION@@K@ZEA 0000000180030fb0     LIBCMT:thread_safe_statics.obj
 0003:00000fb8       ?encoded_wake_all_condition_variable@@3P6AXPEAU_RTL_CONDITION_VARIABLE@@@ZEA 0000000180030fb8     LIBCMT:thread_safe_statics.obj
 0003:00000fc0       GS_ExceptionRecord         0000000180030fc0     LIBCMT:gs_report.obj
 0003:00001060       GS_ContextRecord           0000000180031060     LIBCMT:gs_report.obj
 0003:00001534       ?__proc_attached@@3HA      0000000180031534     LIBCMT:dll_dllmain.obj
 0003:000015c8       ?AllocateData@@3P6APEAUAtlThunkData_t@@XZEA 00000001800315c8     atls:atlthunk.obj
 0003:000015d0       ?InitData@@3P6AXPEAUAtlThunkData_t@@PEAX_K@ZEA 00000001800315d0     atls:atlthunk.obj
 0003:000015d8       ?DataToCode@@3P6AP6A_JPEAUHWND__@@I_K_J@ZPEAUAtlThunkData_t@@@ZEA 00000001800315d8     atls:atlthunk.obj
 0003:000015e0       ?FreeData@@3P6AXPEAUAtlThunkData_t@@@ZEA 00000001800315e0     atls:atlthunk.obj
 0003:000015e8       ?Initialized@@3_NA         00000001800315e8     atls:atlthunk.obj
 0003:00001600       ?__vcrt_startup_thread_ptd@@3U__vcrt_ptd@@A 0000000180031600     libvcruntime:per_thread_data.obj
 0003:00001690       __vcrt_lock_table          0000000180031690     libvcruntime:locks.obj
 0003:000016b8       __vcrt_locks_initialized   00000001800316b8     libvcruntime:locks.obj
 0003:000016c0       ?module_handles@@3PAPEAUHINSTANCE__@@A 00000001800316c0     libvcruntime:winapi_downlevel.obj
 0003:000016d8       ?encoded_function_pointers@@3PAPEAXA 00000001800316d8     libvcruntime:winapi_downlevel.obj
 0003:00001740       ?heap@@3V_HeapManager@@A   0000000180031740     libvcruntime:undname.obj
 0003:00001768       __acrt_invalid_parameter_handler 0000000180031768     libucrt:invalid_parameter.obj
 0003:00001770       c_termination_complete     0000000180031770     libucrt:exit.obj
 0003:00001778       thread_local_exit_callback_func 0000000180031778     libucrt:exit.obj
 0003:00001780       ?c_exit_complete@?5??common_exit@@YAXHW4_crt_exit_cleanup_mode@@W4_crt_exit_return_mode@@@Z@4_NA 0000000180031780     libucrt:exit.obj
 0003:00001790       ?program_name@?5???$common_configure_argv@D@@YAHW4_crt_argv_mode@@@Z@4PADA 0000000180031790     libucrt:argv_parsing.obj
 0003:000018e8       __acrt_new_handler         00000001800318e8     libucrt:new_handler.obj
 0003:000018f0       module_handles             00000001800318f0     libucrt:winapi_thunks.obj
 0003:00001990       encoded_function_pointers  0000000180031990     libucrt:winapi_thunks.obj
 0003:00001a90       ?state_cache@?1??__acrt_is_packaged_app@@9@4JA 0000000180031a90     libucrt:winapi_thunks.obj
 0003:00001aa8       enable_percent_n           0000000180031aa8     libucrt:printf_count_output.obj
 0003:00001ee0       __acrt_lock_table          0000000180031ee0     libucrt:locks.obj
 0003:000020e8       __acrt_locks_initialized   00000001800320e8     libucrt:locks.obj
 0003:00002104       fSystemSet                 0000000180032104     libucrt:mbctype.obj
 0003:00002110       ?initialized@?1??__acrt_initialize_multibyte@@9@4_NA 0000000180032110     libucrt:mbctype.obj
 0003:00002148       ctrlc_action               0000000180032148     libucrt:signal.obj
 0003:00002150       ctrlbreak_action           0000000180032150     libucrt:signal.obj
 0003:00002158       abort_action               0000000180032158     libucrt:signal.obj
 0003:00002160       term_action                0000000180032160     libucrt:signal.obj
 0003:00002168       user_matherr               0000000180032168     libucrt:matherr.obj
 0003:00002170       __acrt_global_new_mode     0000000180032170     libucrt:new_mode.obj
 0003:0000217c       __acrt_app_type            000000018003217c     libucrt:report_runtime_error.obj
 0004:00000000       $pdata$?cw_memcpy@@YAHPEA_WPEBDH@Z 0000000180033000     CWString.obj
 0004:0000000c       $pdata$?cw_strcpy@@YAHPEA_WPEBD@Z 000000018003300c     CWString.obj
 0004:00000018       $pdata$?cw_dup@@YAXPEBDAEAHAEAPEA_W1@Z 0000000180033018     CWString.obj
 0004:00000024       $pdata$?DupWide@_CW@@AEAAXXZ 0000000180033024     CWString.obj
 0004:00000030       $pdata$?AtlWinModuleTerm@ATL@@YAJPEAU_ATL_WIN_MODULE70@1@PEAUHINSTANCE__@@@Z 0000000180033030     OposVariant.obj
 0004:0000003c       $pdata$??0CAtlComModule@ATL@@QEAA@XZ 000000018003303c     OposVariant.obj
 0004:00000048       $pdata$?Term@CAtlComModule@ATL@@QEAAXXZ 0000000180033048     OposVariant.obj
 0004:00000054       $pdata$??__E_AtlComModule@ATL@@YAXXZ 0000000180033054     OposVariant.obj
 0004:00000060       $pdata$??0CAtlWinModule@ATL@@QEAA@XZ 0000000180033060     OposVariant.obj
 0004:0000006c       $pdata$??__E_AtlWinModule@ATL@@YAXXZ 000000018003306c     OposVariant.obj
 0004:00000078       $pdata$??__F_AtlWinModule@ATL@@YAXXZ 0000000180033078     OposVariant.obj
 0004:00000084       $pdata$??_Estringdispid@CComTypeInfoHolder@ATL@@QEAAPEAXI@Z 0000000180033084     OposVariant.obj
 0004:00000090       $pdata$?SetVARIANT_BOOL@OposVariant@@QEAAXF@Z 0000000180033090     OposVariant.obj
 0004:0000009c       $pdata$?GetLONG@OposVariant@@QEAAJXZ 000000018003309c     OposVariant.obj
 0004:000000a8       $pdata$?ChangeLONG@OposVariant@@QEAAXPEAJAEAJ@Z 00000001800330a8     OposVariant.obj
 0004:000000b4       $pdata$?SetLONG@OposVariant@@QEAAXJ@Z 00000001800330b4     OposVariant.obj
 0004:000000c0       $pdata$?SetLONG_Ptr@OposVariant@@QEAAXPEAJAEAJ@Z 00000001800330c0     OposVariant.obj
 0004:000000cc       $pdata$?ChangeBSTR@OposVariant@@QEAAXPEAPEA_WAEAJ@Z 00000001800330cc     OposVariant.obj
 0004:000000d8       $pdata$?SetBSTR@OposVariant@@QEAAXPEA_WAEAJ@Z 00000001800330d8     OposVariant.obj
 0004:000000e4       $pdata$?SetBSTR_Copy@OposVariant@@QEAAXPEA_WAEAJ@Z 00000001800330e4     OposVariant.obj
 0004:000000f0       $pdata$?SetBSTR_InOutPtr@OposVariant@@QEAA_NPEAPEA_WAEAJ@Z 00000001800330f0     OposVariant.obj
 0004:000000fc       $pdata$?SetString@OposVariant@@QEAAXPEB_WAEAJ@Z 00000001800330fc     OposVariant.obj
 0004:00000108       $pdata$?SetDispatch_Ptr@OposVariant@@QEAAXPEAUIDispatch@@AEAJ@Z 0000000180033108     OposVariant.obj
 0004:00000114       $pdata$??0OposDispParms@@QEAA@PEAVOposVariant@@H@Z 0000000180033114     OposVariant.obj
 0004:00000120       $pdata$??1OposDispParms@@QEAA@XZ 0000000180033120     OposVariant.obj
 0004:0000012c       $pdata$memcpy_s            000000018003312c     RemoteOrderDisplay.obj
 0004:00000138       $pdata$?AtlThrowImpl@ATL@@YAXJ@Z 0000000180033138     RemoteOrderDisplay.obj
 0004:00000144       $pdata$swprintf_s          0000000180033144     RemoteOrderDisplay.obj
 0004:00000150       $pdata$?_AtlVerifyStackAvailable@_ATL_SAFE_ALLOCA_IMPL@ATL@@YA_N_K@Z 0000000180033150     RemoteOrderDisplay.obj
 0004:0000015c       $pdata$?filt$0@?0??_AtlVerifyStackAvailable@_ATL_SAFE_ALLOCA_IMPL@ATL@@YA_N_K@Z@4HA 000000018003315c     RemoteOrderDisplay.obj
 0004:00000168       $pdata$?AtlHresultFromLastError@ATL@@YAJXZ 0000000180033168     RemoteOrderDisplay.obj
 0004:00000174       $pdata$?AtlInternalOleLoadFromStream@ATL@@YAJPEAUIStream@@AEBU_GUID@@PEAPEAXTClassesAllowedInStream@1@K@Z 0000000180033174     RemoteOrderDisplay.obj
 0004:00000180       $pdata$?PutProperty@?$CComPtr@UIDispatch@@@ATL@@SAJPEAUIDispatch@@JPEAUtagVARIANT@@@Z 0000000180033180     RemoteOrderDisplay.obj
 0004:0000018c       $pdata$?WriteToStream@CComBSTR@ATL@@QEAAJPEAUIStream@@@Z 000000018003318c     RemoteOrderDisplay.obj
 0004:00000198       $pdata$?ReadFromStream@CComBSTR@ATL@@QEAAJPEAUIStream@@@Z 0000000180033198     RemoteOrderDisplay.obj
 0004:000001a4       $pdata$?WriteToStream@CComVariant@ATL@@QEAAJPEAUIStream@@@Z 00000001800331a4     RemoteOrderDisplay.obj
 0004:000001b0       $pdata$?WriteToStream@CComVariant@ATL@@QEAAJPEAUIStream@@G@Z 00000001800331b0     RemoteOrderDisplay.obj
 0004:000001bc       $pdata$?ReadFromStream@CComVariant@ATL@@QEAAJPEAUIStream@@GTClassesAllowedInStream@2@K@Z 00000001800331bc     RemoteOrderDisplay.obj
 0004:000001c8       $pdata$?GetSizeMax@CComVariant@ATL@@QEBAJPEAT_ULARGE_INTEGER@@@Z 00000001800331c8     RemoteOrderDisplay.obj
 0004:000001d4       $pdata$?RegCreateKeyExW@CAtlTransactionManager@ATL@@QEAAJPEAUHKEY__@@PEB_WKPEA_WKKQEAU_SECURITY_ATTRIBUTES@@PEAPEAU3@PEAK@Z 00000001800331d4     RemoteOrderDisplay.obj
 0004:000001e0       $pdata$?RegOpenKeyExW@CAtlTransactionManager@ATL@@QEAAJPEAUHKEY__@@PEB_WKKPEAPEAU3@@Z 00000001800331e0     RemoteOrderDisplay.obj
 0004:000001ec       $pdata$?RegDeleteKeyW@CAtlTransactionManager@ATL@@QEAAJPEAUHKEY__@@PEB_W@Z 00000001800331ec     RemoteOrderDisplay.obj
 0004:000001f8       $pdata$?Add@?$CSimpleArray@GV?$CSimpleArrayEqualHelper@G@ATL@@@ATL@@QEAAHAEBG@Z 00000001800331f8     RemoteOrderDisplay.obj
 0004:00000204       $pdata$?AtlInternalQueryInterface@ATL@@YAJPEAXPEBU_ATL_INTMAP_ENTRY@1@AEBU_GUID@@PEAPEAX@Z 0000000180033204     RemoteOrderDisplay.obj
 0004:00000210       $pdata$?AtlComModuleGetClassObject@ATL@@YAJPEAU_ATL_COM_MODULE70@1@AEBU_GUID@@1PEAPEAX@Z 0000000180033210     RemoteOrderDisplay.obj
 0004:0000021c       $pdata$?AtlRegisterClassCategoriesHelper@ATL@@YAJAEBU_GUID@@PEBU_ATL_CATMAP_ENTRY@1@H@Z 000000018003321c     RemoteOrderDisplay.obj
 0004:00000228       $pdata$?AtlLoadTypeLib@ATL@@YAJPEAUHINSTANCE__@@PEB_WPEAPEA_WPEAPEAUITypeLib@@@Z 0000000180033228     RemoteOrderDisplay.obj
 0004:00000234       $pdata$?AtlRegisterTypeLib@ATL@@YAJPEAUHINSTANCE__@@PEB_W@Z 0000000180033234     RemoteOrderDisplay.obj
 0004:00000240       $pdata$?AtlUnRegisterTypeLib@ATL@@YAJPEAUHINSTANCE__@@PEB_W@Z 0000000180033240     RemoteOrderDisplay.obj
 0004:0000024c       $pdata$?AtlComModuleRegisterServer@ATL@@YAJPEAU_ATL_COM_MODULE70@1@HPEBU_GUID@@@Z 000000018003324c     RemoteOrderDisplay.obj
 0004:00000258       $pdata$?AtlComModuleUnregisterServer@ATL@@YAJPEAU_ATL_COM_MODULE70@1@HPEBU_GUID@@@Z 0000000180033258     RemoteOrderDisplay.obj
 0004:00000264       $pdata$?AtlModuleAddTermFunc@ATL@@YAJPEAU_ATL_MODULE70@1@P6AX_K@Z1@Z 0000000180033264     RemoteOrderDisplay.obj
 0004:00000270       $pdata$?AtlCallTermFunc@ATL@@YAXPEAU_ATL_MODULE70@1@@Z 0000000180033270     RemoteOrderDisplay.obj
 0004:0000027c       $pdata$?AtlWinModuleExtractCreateWndData@ATL@@YAPEAXPEAU_ATL_WIN_MODULE70@1@@Z 000000018003327c     RemoteOrderDisplay.obj
 0004:00000288       $pdata$?atlCreate@CRegKey@ATL@@QEAAJPEAUHKEY__@@PEB_WPEA_WKKPEAU_SECURITY_ATTRIBUTES@@PEAK@Z 0000000180033288     RemoteOrderDisplay.obj
 0004:00000294       $pdata$?Open@CRegKey@ATL@@QEAAJPEAUHKEY__@@PEB_WK@Z 0000000180033294     RemoteOrderDisplay.obj
 0004:000002a0       $pdata$?DeleteSubKey@CRegKey@ATL@@QEAAJPEB_W@Z 00000001800332a0     RemoteOrderDisplay.obj
 0004:000002ac       $pdata$?RecurseDeleteKey@CRegKey@ATL@@QEAAJPEB_W@Z 00000001800332ac     RemoteOrderDisplay.obj
 0004:000002b8       $pdata$??0CAtlModule@ATL@@QEAA@XZ 00000001800332b8     RemoteOrderDisplay.obj
 0004:000002c4       $pdata$?GetGITPtr@CAtlModule@ATL@@UEAAJPEAPEAUIGlobalInterfaceTable@@@Z 00000001800332c4     RemoteOrderDisplay.obj
 0004:000002d0       $pdata$?UpdateRegistryFromResource@CAtlModule@ATL@@QEAAJPEB_WHPEAU_ATL_REGMAP_ENTRY@2@@Z 00000001800332d0     RemoteOrderDisplay.obj
 0004:000002dc       $pdata$?UpdateRegistryFromResource@CAtlModule@ATL@@QEAAJIHPEAU_ATL_REGMAP_ENTRY@2@@Z 00000001800332dc     RemoteOrderDisplay.obj
 0004:000002e8       $pdata$?Term@CComModule@ATL@@QEAAXXZ 00000001800332e8     RemoteOrderDisplay.obj
 0004:000002f4       $pdata$?GetClassObject@CComModule@ATL@@QEAAJAEBU_GUID@@0PEAPEAX@Z 00000001800332f4     RemoteOrderDisplay.obj
 0004:00000300       $pdata$?RegisterServer@CComModule@ATL@@QEAAJHPEBU_GUID@@@Z 0000000180033300     RemoteOrderDisplay.obj
 0004:0000030c       $pdata$?UnregisterServer@CComModule@ATL@@QEAAJHPEBU_GUID@@@Z 000000018003330c     RemoteOrderDisplay.obj
 0004:00000318       $pdata$??_GCComModule@ATL@@UEAAPEAXI@Z 0000000180033318     RemoteOrderDisplay.obj
 0004:00000324       $pdata$?Add@?$CSimpleMap@PEA_WPEA_WVCExpansionVectorEqualHelper@ATL@@@ATL@@QEAAHAEBQEA_W0@Z 0000000180033324     RemoteOrderDisplay.obj
 0004:00000330       $pdata$?Lookup@?$CSimpleMap@PEA_WPEA_WVCExpansionVectorEqualHelper@ATL@@@ATL@@QEBAPEA_WAEBQEA_W@Z 0000000180033330     RemoteOrderDisplay.obj
 0004:0000033c       $pdata$?Add@CExpansionVector@ATL@@QEAAHPEB_W0@Z 000000018003333c     RemoteOrderDisplay.obj
 0004:00000348       $pdata$?ClearReplacements@CExpansionVector@ATL@@QEAAJXZ 0000000180033348     RemoteOrderDisplay.obj
 0004:00000354       $pdata$?PreProcessBuffer@CRegParser@ATL@@QEAAJPEA_WPEAPEA_W@Z 0000000180033354     RemoteOrderDisplay.obj
 0004:00000360       $pdata$?RegisterBuffer@CRegParser@ATL@@QEAAJPEA_WH@Z 0000000180033360     RemoteOrderDisplay.obj
 0004:0000036c       $pdata$?NextToken@CRegParser@ATL@@IEAAJPEA_W@Z 000000018003336c     RemoteOrderDisplay.obj
 0004:00000378       $pdata$?AddValue@CRegParser@ATL@@IEAAJAEAVCRegKey@2@PEB_WPEA_W@Z 0000000180033378     RemoteOrderDisplay.obj
 0004:00000384       $pdata$?RegisterSubkeys@CRegParser@ATL@@IEAAJPEA_WPEAUHKEY__@@HH@Z 0000000180033384     RemoteOrderDisplay.obj
 0004:00000390       $pdata$?SkipAssignment@CRegParser@ATL@@IEAAJPEA_W@Z 0000000180033390     RemoteOrderDisplay.obj
 0004:0000039c       $pdata$?HKeyFromString@CRegParser@ATL@@KAPEAUHKEY__@@PEA_W@Z 000000018003339c     RemoteOrderDisplay.obj
 0004:000003a8       $pdata$?VTFromRegType@CRegParser@ATL@@KAHPEB_WAEAG@Z 00000001800333a8     RemoteOrderDisplay.obj
 0004:000003b4       $pdata$?Append@CParseBuffer@CRegParser@ATL@@QEAAHPEB_WH@Z 00000001800333b4     RemoteOrderDisplay.obj
 0004:000003c0       $pdata$?AddReplacement@CRegObject@ATL@@UEAAJPEB_W0@Z 00000001800333c0     RemoteOrderDisplay.obj
 0004:000003cc       $pdata$?RegisterFromResource@CRegObject@ATL@@IEAAJPEB_W00H@Z 00000001800333cc     RemoteOrderDisplay.obj
 0004:000003d8       $pdata$??_GCRegObject@ATL@@UEAAPEAXI@Z 00000001800333d8     RemoteOrderDisplay.obj
 0004:000003e4       $pdata$?AllocateHeap@?$CTempBuffer@E$0BAA@VCCRTAllocator@ATL@@@ATL@@AEAAX_K@Z 00000001800333e4     RemoteOrderDisplay.obj
 0004:000003e4       $pdata$?AllocateHeap@?$CTempBuffer@_W$0EAA@VCCRTAllocator@ATL@@@ATL@@AEAAX_K@Z 00000001800333e4     RemoteOrderDisplay.obj
 0004:000003e4       $pdata$?AllocateHeap@?$CTempBuffer@_W$0BAA@VCCRTAllocator@ATL@@@ATL@@AEAAX_K@Z 00000001800333e4     RemoteOrderDisplay.obj
 0004:000003f0       $pdata$?IsEqualObject@?$CComPtrBase@UIOleClientSite@@@ATL@@QEAA_NPEAUIUnknown@@@Z 00000001800333f0     RemoteOrderDisplay.obj
 0004:000003f0       $pdata$?IsEqualObject@?$CComPtrBase@UITypeInfo@@@ATL@@QEAA_NPEAUIUnknown@@@Z 00000001800333f0     RemoteOrderDisplay.obj
 0004:000003fc       $pdata$?AtlIPersistStreamInit_Load@ATL@@YAJPEAUIStream@@PEBUATL_PROPMAP_ENTRY@1@PEAXPEAUIUnknown@@@Z 00000001800333fc     RemoteOrderDisplay.obj
 0004:00000408       $pdata$?AtlIPersistStreamInit_Save@ATL@@YAJPEAUIStream@@HPEBUATL_PROPMAP_ENTRY@1@PEAXPEAUIUnknown@@@Z 0000000180033408     RemoteOrderDisplay.obj
 0004:00000414       $pdata$?CreateInstance@CComClassFactory@ATL@@UEAAJPEAUIUnknown@@AEBU_GUID@@PEAPEAX@Z 0000000180033414     RemoteOrderDisplay.obj
 0004:00000420       $pdata$?LockServer@CComClassFactory@ATL@@UEAAJH@Z 0000000180033420     RemoteOrderDisplay.obj
 0004:0000042c       $pdata$??_GCComClassFactory@ATL@@UEAAPEAXI@Z 000000018003342c     RemoteOrderDisplay.obj
 0004:00000438       $pdata$?GetTI@CComTypeInfoHolder@ATL@@QEAAJK@Z 0000000180033438     RemoteOrderDisplay.obj
 0004:00000444       $pdata$?Cleanup@CComTypeInfoHolder@ATL@@SAX_K@Z 0000000180033444     RemoteOrderDisplay.obj
 0004:00000450       $pdata$?GetIDsOfNames@CComTypeInfoHolder@ATL@@QEAAJAEBU_GUID@@PEAPEA_WIKPEAJ@Z 0000000180033450     RemoteOrderDisplay.obj
 0004:0000045c       $pdata$?LoadNameCache@CComTypeInfoHolder@ATL@@QEAAJPEAUITypeInfo@@@Z 000000018003345c     RemoteOrderDisplay.obj
 0004:00000468       $pdata$?Add@CComDynamicUnkArray@ATL@@QEAAKPEAUIUnknown@@@Z 0000000180033468     RemoteOrderDisplay.obj
 0004:00000474       $pdata$?AtlCreateTargetDC@ATL@@YAPEAUHDC__@@PEAU2@PEAUtagDVTARGETDEVICE@@@Z 0000000180033474     RemoteOrderDisplay.obj
 0004:00000480       $pdata$?AtlHiMetricToPixel@ATL@@YAXPEBUtagSIZE@@PEAU2@@Z 0000000180033480     RemoteOrderDisplay.obj
 0004:0000048c       $pdata$?DefaultReflectionHandler@?$CWindowImplRoot@VCWindow@ATL@@@ATL@@SAHPEAUHWND__@@I_K_JAEA_J@Z 000000018003348c     RemoteOrderDisplay.obj
 0004:00000498       $pdata$?StartWindowProc@?$CWindowImplBaseT@VCWindow@ATL@@V?$CWinTraits@$0FGAAAAAA@$0A@@2@@ATL@@SA_JPEAUHWND__@@I_K_J@Z 0000000180033498     RemoteOrderDisplay.obj
 0004:000004a4       $pdata$?WindowProc@?$CWindowImplBaseT@VCWindow@ATL@@V?$CWinTraits@$0FGAAAAAA@$0A@@2@@ATL@@SA_JPEAUHWND__@@I_K_J@Z 00000001800334a4     RemoteOrderDisplay.obj
 0004:000004b0       $pdata$?atlCreate@?$CWindowImplBaseT@VCWindow@ATL@@V?$CWinTraits@$0FGAAAAAA@$0A@@2@@ATL@@QEAAPEAUHWND__@@PEAU3@V_U_RECT@2@PEB_WKKV_U_MENUorID@2@GPEAX@Z 00000001800334b0     RemoteOrderDisplay.obj
 0004:000004bc       $pdata$??$AtlModuleRegisterWndClassInfoT@VAtlModuleRegisterWndClassInfoParamW@ATL@@@ATL@@YAGPEAU_ATL_BASE_MODULE70@0@PEAU_ATL_WIN_MODULE70@0@PEAU_ATL_WNDCLASSINFOW@0@PEAP6A_JPEAUHWND__@@I_K_J@ZVAtlModuleRegisterWndClassInfoParamW@0@@Z 00000001800334bc     RemoteOrderDisplay.obj
 0004:000004c8       $pdata$?GetZoomInfo@CComControlBase@ATL@@QEAAXAEAUATL_DRAWINFO@@@Z 00000001800334c8     RemoteOrderDisplay.obj
 0004:000004d4       $pdata$?SendOnDataChange@CComControlBase@ATL@@QEAAJK@Z 00000001800334d4     RemoteOrderDisplay.obj
 0004:000004e0       $pdata$?OnSetFocus@CComControlBase@ATL@@QEAA_JI_K_JAEAH@Z 00000001800334e0     RemoteOrderDisplay.obj
 0004:000004ec       $pdata$?OnKillFocus@CComControlBase@ATL@@QEAA_JI_K_JAEAH@Z 00000001800334ec     RemoteOrderDisplay.obj
 0004:000004f8       $pdata$?OnMouseActivate@CComControlBase@ATL@@QEAA_JI_K_JAEAH@Z 00000001800334f8     RemoteOrderDisplay.obj
 0004:00000504       $pdata$?GetAmbientLocaleID@CComControlBase@ATL@@QEAAJAEAK@Z 0000000180033504     RemoteOrderDisplay.obj
 0004:00000510       $pdata$?GetAmbientUserMode@CComControlBase@ATL@@QEAAJAEAH@Z 0000000180033510     RemoteOrderDisplay.obj
 0004:0000051c       $pdata$?SetControlFocus@CComControlBase@ATL@@QEAAHH@Z 000000018003351c     RemoteOrderDisplay.obj
 0004:00000528       $pdata$?IQuickActivate_QuickActivate@CComControlBase@ATL@@QEAAJPEAUtagQACONTAINER@@PEAUtagQACONTROL@@@Z 0000000180033528     RemoteOrderDisplay.obj
 0004:00000534       $pdata$?DoVerbProperties@CComControlBase@ATL@@QEAAJPEBUtagRECT@@PEAUHWND__@@@Z 0000000180033534     RemoteOrderDisplay.obj
 0004:00000540       $pdata$?InPlaceActivate@CComControlBase@ATL@@QEAAJJPEBUtagRECT@@@Z 0000000180033540     RemoteOrderDisplay.obj
 0004:0000054c       $pdata$?IOleObject_SetClientSite@CComControlBase@ATL@@QEAAJPEAUIOleClientSite@@@Z 000000018003354c     RemoteOrderDisplay.obj
 0004:00000558       $pdata$?IOleObject_Close@CComControlBase@ATL@@QEAAJK@Z 0000000180033558     RemoteOrderDisplay.obj
 0004:00000564       $pdata$?IOleObject_SetExtent@CComControlBase@ATL@@QEAAJKPEAUtagSIZE@@@Z 0000000180033564     RemoteOrderDisplay.obj
 0004:00000570       $pdata$?IOleInPlaceObject_InPlaceDeactivate@CComControlBase@ATL@@QEAAJXZ 0000000180033570     RemoteOrderDisplay.obj
 0004:0000057c       $pdata$?IOleInPlaceObject_UIDeactivate@CComControlBase@ATL@@QEAAJXZ 000000018003357c     RemoteOrderDisplay.obj
 0004:00000588       $pdata$?IOleInPlaceObject_SetObjectRects@CComControlBase@ATL@@QEAAJPEBUtagRECT@@0@Z 0000000180033588     RemoteOrderDisplay.obj
 0004:00000594       $pdata$?IViewObject_Draw@CComControlBase@ATL@@QEAAJKJPEAXPEAUtagDVTARGETDEVICE@@PEAUHDC__@@2PEBU_RECTL@@3@Z 0000000180033594     RemoteOrderDisplay.obj
 0004:000005a0       $pdata$?IDataObject_GetData@CComControlBase@ATL@@QEAAJPEAUtagFORMATETC@@PEAUtagSTGMEDIUM@@@Z 00000001800335a0     RemoteOrderDisplay.obj
 0004:000005ac       $pdata$?FireViewChange@CComControlBase@ATL@@QEAAJXZ 00000001800335ac     RemoteOrderDisplay.obj
 0004:000005b8       $pdata$?OnPaint@CComControlBase@ATL@@QEAA_JI_K_JAEAH@Z 00000001800335b8     RemoteOrderDisplay.obj
 0004:000005c4       $pdata$?OnDrawAdvanced@CComControlBase@ATL@@UEAAJAEAUATL_DRAWINFO@@@Z 00000001800335c4     RemoteOrderDisplay.obj
 0004:000005d0       $pdata$?GetTypeInfo@?$IDispatchImpl@UIOPOSRemoteOrderDisplay@@$1?IID_IOPOSRemoteOrderDisplay@@3U_GUID@@B$1?LIBID_OposRemoteOrderDisplay_CCO@@3U3@B$00$0A@VCComTypeInfoHolder@ATL@@@ATL@@UEAAJIKPEAPEAUITypeInfo@@@Z 00000001800335d0     RemoteOrderDisplay.obj
 0004:000005dc       $pdata$?Invoke@?$IDispatchImpl@UIOPOSRemoteOrderDisplay@@$1?IID_IOPOSRemoteOrderDisplay@@3U_GUID@@B$1?LIBID_OposRemoteOrderDisplay_CCO@@3U3@B$00$0A@VCComTypeInfoHolder@ATL@@@ATL@@UEAAJJAEBU_GUID@@KGPEAUtagDISPPARAMS@@PEAUtagVARIANT@@PEAUtagEXCEPINFO@@PEAI@Z 00000001800335dc     RemoteOrderDisplay.obj
 0004:000005e8       $pdata$?atlCreate@?$CWindowImpl@VCOPOSRemoteOrderDisplay@@VCWindow@ATL@@V?$CWinTraits@$0FGAAAAAA@$0A@@3@@ATL@@QEAAPEAUHWND__@@PEAU3@V_U_RECT@2@PEB_WKKV_U_MENUorID@2@PEAX@Z 00000001800335e8     RemoteOrderDisplay.obj
 0004:000005f4       $pdata$?CreateControlWindow@?$CComControl@VCOPOSRemoteOrderDisplay@@V?$CWindowImpl@VCOPOSRemoteOrderDisplay@@VCWindow@ATL@@V?$CWinTraits@$0FGAAAAAA@$0A@@3@@ATL@@@ATL@@UEAAPEAUHWND__@@PEAU3@AEAUtagRECT@@@Z 00000001800335f4     RemoteOrderDisplay.obj
 0004:00000600       $pdata$?ProcessWindowMessage@?$CComControl@VCOPOSRemoteOrderDisplay@@V?$CWindowImpl@VCOPOSRemoteOrderDisplay@@VCWindow@ATL@@V?$CWinTraits@$0FGAAAAAA@$0A@@3@@ATL@@@ATL@@UEAAHPEAUHWND__@@I_K_JAEA_JK@Z 0000000180033600     RemoteOrderDisplay.obj
 0004:0000060c       $pdata$?Load@?$IPersistStreamInitImpl@VCOPOSRemoteOrderDisplay@@@ATL@@UEAAJPEAUIStream@@@Z 000000018003360c     RemoteOrderDisplay.obj
 0004:00000618       $pdata$?Save@?$IPersistStreamInitImpl@VCOPOSRemoteOrderDisplay@@@ATL@@UEAAJPEAUIStream@@H@Z 0000000180033618     RemoteOrderDisplay.obj
 0004:00000624       $pdata$?GetSizeMax@?$IPersistStreamInitImpl@VCOPOSRemoteOrderDisplay@@@ATL@@UEAAJPEAT_ULARGE_INTEGER@@@Z 0000000180033624     RemoteOrderDisplay.obj
 0004:00000630       $pdata$?GetClientSite@?$IOleObjectImpl@VCOPOSRemoteOrderDisplay@@@ATL@@UEAAJPEAPEAUIOleClientSite@@@Z 0000000180033630     RemoteOrderDisplay.obj
 0004:0000063c       $pdata$?DoVerbPrimary@?$IOleObjectImpl@VCOPOSRemoteOrderDisplay@@@ATL@@QEAAJPEBUtagRECT@@PEAUHWND__@@@Z 000000018003363c     RemoteOrderDisplay.obj
 0004:00000648       $pdata$?DoVerb@?$IOleObjectImpl@VCOPOSRemoteOrderDisplay@@@ATL@@UEAAJJPEAUtagMSG@@PEAUIOleClientSite@@JPEAUHWND__@@PEBUtagRECT@@@Z 0000000180033648     RemoteOrderDisplay.obj
 0004:00000654       $pdata$?Advise@?$IOleObjectImpl@VCOPOSRemoteOrderDisplay@@@ATL@@UEAAJPEAUIAdviseSink@@PEAK@Z 0000000180033654     RemoteOrderDisplay.obj
 0004:00000660       $pdata$?Unadvise@?$IOleObjectImpl@VCOPOSRemoteOrderDisplay@@@ATL@@UEAAJK@Z 0000000180033660     RemoteOrderDisplay.obj
 0004:0000066c       $pdata$?EnumAdvise@?$IOleObjectImpl@VCOPOSRemoteOrderDisplay@@@ATL@@UEAAJPEAPEAUIEnumSTATDATA@@@Z 000000018003366c     RemoteOrderDisplay.obj
 0004:00000678       $pdata$?TranslateAcceleratorW@?$IOleInPlaceActiveObjectImpl@VCOPOSRemoteOrderDisplay@@@ATL@@UEAAJPEAUtagMSG@@@Z 0000000180033678     RemoteOrderDisplay.obj
 0004:00000684       $pdata$?OnDocWindowActivate@?$IOleInPlaceActiveObjectImpl@VCOPOSRemoteOrderDisplay@@@ATL@@UEAAJH@Z 0000000180033684     RemoteOrderDisplay.obj
 0004:00000690       $pdata$?Draw@?$IViewObjectExImpl@VCOPOSRemoteOrderDisplay@@@ATL@@UEAAJKJPEAXPEAUtagDVTARGETDEVICE@@PEAUHDC__@@2PEBU_RECTL@@3P6AH_K@Z4@Z 0000000180033690     RemoteOrderDisplay.obj
 0004:0000069c       $pdata$?SetAdvise@?$IViewObjectExImpl@VCOPOSRemoteOrderDisplay@@@ATL@@UEAAJKKPEAUIAdviseSink@@@Z 000000018003369c     RemoteOrderDisplay.obj
 0004:000006a8       $pdata$?GetAdvise@?$IViewObjectExImpl@VCOPOSRemoteOrderDisplay@@@ATL@@UEAAJPEAK0PEAPEAUIAdviseSink@@@Z 00000001800336a8     RemoteOrderDisplay.obj
 0004:000006b4       $pdata$?QueryHitPoint@?$IViewObjectExImpl@VCOPOSRemoteOrderDisplay@@@ATL@@UEAAJKPEBUtagRECT@@UtagPOINT@@JPEAK@Z 00000001800336b4     RemoteOrderDisplay.obj
 0004:000006c0       $pdata$?QueryHitRect@?$IViewObjectExImpl@VCOPOSRemoteOrderDisplay@@@ATL@@UEAAJKPEBUtagRECT@@0JPEAK@Z 00000001800336c0     RemoteOrderDisplay.obj
 0004:000006cc       $pdata$?OnWindowMessage@?$IOleInPlaceObjectWindowlessImpl@VCOPOSRemoteOrderDisplay@@@ATL@@UEAAJI_K_JPEA_J@Z 00000001800336cc     RemoteOrderDisplay.obj
 0004:000006d8       $pdata$?EnumConnectionPoints@?$IConnectionPointContainerImpl@VCOPOSRemoteOrderDisplay@@@ATL@@UEAAJPEAPEAUIEnumConnectionPoints@@@Z 00000001800336d8     RemoteOrderDisplay.obj
 0004:000006e4       $pdata$?FindConnectionPoint@?$IConnectionPointContainerImpl@VCOPOSRemoteOrderDisplay@@@ATL@@UEAAJAEBU_GUID@@PEAPEAUIConnectionPoint@@@Z 00000001800336e4     RemoteOrderDisplay.obj
 0004:000006f0       $pdata$?IsDirty@?$IPersistStorageImpl@VCOPOSRemoteOrderDisplay@@@ATL@@UEAAJXZ 00000001800336f0     RemoteOrderDisplay.obj
 0004:000006fc       $pdata$?InitNew@?$IPersistStorageImpl@VCOPOSRemoteOrderDisplay@@@ATL@@UEAAJPEAUIStorage@@@Z 00000001800336fc     RemoteOrderDisplay.obj
 0004:00000708       $pdata$?Load@?$IPersistStorageImpl@VCOPOSRemoteOrderDisplay@@@ATL@@UEAAJPEAUIStorage@@@Z 0000000180033708     RemoteOrderDisplay.obj
 0004:00000714       $pdata$?Save@?$IPersistStorageImpl@VCOPOSRemoteOrderDisplay@@@ATL@@UEAAJPEAUIStorage@@H@Z 0000000180033714     RemoteOrderDisplay.obj
 0004:00000720       $pdata$?IPSI_GetIPersistStreamInit@?$IPersistStorageImpl@VCOPOSRemoteOrderDisplay@@@ATL@@AEAAPEAUIPersistStreamInit@@XZ 0000000180033720     RemoteOrderDisplay.obj
 0004:0000072c       $pdata$?GetPagesHelper@?$ISpecifyPropertyPagesImpl@VCOPOSRemoteOrderDisplay@@@ATL@@IEAAJPEAUtagCAUUID@@PEBUATL_PROPMAP_ENTRY@2@@Z 000000018003372c     RemoteOrderDisplay.obj
 0004:00000738       $pdata$?DAdvise@?$IDataObjectImpl@VCOPOSRemoteOrderDisplay@@@ATL@@UEAAJPEAUtagFORMATETC@@KPEAUIAdviseSink@@PEAK@Z 0000000180033738     RemoteOrderDisplay.obj
 0004:00000744       $pdata$?GetClassInfoW@?$IProvideClassInfo2Impl@$1?CLSID_OPOSRemoteOrderDisplay@@3U_GUID@@B$1?DIID__IOPOSRemoteOrderDisplayEvents@@3U2@B$1?LIBID_OposRemoteOrderDisplay_CCO@@3U2@B$00$0A@VCComTypeInfoHolder@ATL@@@ATL@@UEAAJPEAPEAUITypeInfo@@@Z 0000000180033744     RemoteOrderDisplay.obj
 0004:00000750       $pdata$?GetInterfaceSafetyOptions@?$IObjectSafetyImpl@VCOPOSRemoteOrderDisplay@@$02@ATL@@UEAAJAEBU_GUID@@PEAK1@Z 0000000180033750     RemoteOrderDisplay.obj
 0004:0000075c       $pdata$?SetInterfaceSafetyOptions@?$IObjectSafetyImpl@VCOPOSRemoteOrderDisplay@@$02@ATL@@UEAAJAEBU_GUID@@KK@Z 000000018003375c     RemoteOrderDisplay.obj
 0004:00000768       $pdata$?_LocCPQueryInterface@?$IConnectionPointImpl@VCOPOSRemoteOrderDisplay@@$1?IID_IPropertyNotifySink@@3U_GUID@@BVCComDynamicUnkArray@ATL@@@ATL@@UEAAJAEBU_GUID@@PEAPEAX@Z 0000000180033768     RemoteOrderDisplay.obj
 0004:00000768       $pdata$?_LocCPQueryInterface@?$IConnectionPointImpl@VCOPOSRemoteOrderDisplay@@$1?DIID__IOPOSRemoteOrderDisplayEvents@@3U_GUID@@BVCComDynamicUnkArray@ATL@@@ATL@@UEAAJAEBU_GUID@@PEAPEAX@Z 0000000180033768     RemoteOrderDisplay.obj
 0004:00000774       $pdata$?Advise@?$IConnectionPointImpl@VCOPOSRemoteOrderDisplay@@$1?DIID__IOPOSRemoteOrderDisplayEvents@@3U_GUID@@BVCComDynamicUnkArray@ATL@@@ATL@@UEAAJPEAUIUnknown@@PEAK@Z 0000000180033774     RemoteOrderDisplay.obj
 0004:00000774       $pdata$?Advise@?$IConnectionPointImpl@VCOPOSRemoteOrderDisplay@@$1?IID_IPropertyNotifySink@@3U_GUID@@BVCComDynamicUnkArray@ATL@@@ATL@@UEAAJPEAUIUnknown@@PEAK@Z 0000000180033774     RemoteOrderDisplay.obj
 0004:00000780       $pdata$?Unadvise@?$IConnectionPointImpl@VCOPOSRemoteOrderDisplay@@$1?IID_IPropertyNotifySink@@3U_GUID@@BVCComDynamicUnkArray@ATL@@@ATL@@UEAAJK@Z 0000000180033780     RemoteOrderDisplay.obj
 0004:00000780       $pdata$?Unadvise@?$IConnectionPointImpl@VCOPOSRemoteOrderDisplay@@$1?DIID__IOPOSRemoteOrderDisplayEvents@@3U_GUID@@BVCComDynamicUnkArray@ATL@@@ATL@@UEAAJK@Z 0000000180033780     RemoteOrderDisplay.obj
 0004:0000078c       $pdata$?EnumConnections@?$IConnectionPointImpl@VCOPOSRemoteOrderDisplay@@$1?DIID__IOPOSRemoteOrderDisplayEvents@@3U_GUID@@BVCComDynamicUnkArray@ATL@@@ATL@@UEAAJPEAPEAUIEnumConnections@@@Z 000000018003378c     RemoteOrderDisplay.obj
 0004:0000078c       $pdata$?EnumConnections@?$IConnectionPointImpl@VCOPOSRemoteOrderDisplay@@$1?IID_IPropertyNotifySink@@3U_GUID@@BVCComDynamicUnkArray@ATL@@@ATL@@UEAAJPEAPEAUIEnumConnections@@@Z 000000018003378c     RemoteOrderDisplay.obj
 0004:00000798       $pdata$?Fire_DataEvent@?$CProxy_IOPOSEvents@VCOPOSRemoteOrderDisplay@@@@QEAAXJ@Z 0000000180033798     RemoteOrderDisplay.obj
 0004:000007a4       $pdata$?Fire_DirectIOEvent@?$CProxy_IOPOSEvents@VCOPOSRemoteOrderDisplay@@@@QEAAXJPEAJPEAPEA_W@Z 00000001800337a4     RemoteOrderDisplay.obj
 0004:000007b0       $pdata$?Fire_ErrorEvent@?$CProxy_IOPOSEvents@VCOPOSRemoteOrderDisplay@@@@QEAAXJJJPEAJ@Z 00000001800337b0     RemoteOrderDisplay.obj
 0004:000007bc       $pdata$?Fire_OutputCompleteEvent@?$CProxy_IOPOSEvents@VCOPOSRemoteOrderDisplay@@@@QEAAXJ@Z 00000001800337bc     RemoteOrderDisplay.obj
 0004:000007c8       $pdata$?Fire_StatusUpdateEvent@?$CProxy_IOPOSEvents@VCOPOSRemoteOrderDisplay@@@@QEAAXJ@Z 00000001800337c8     RemoteOrderDisplay.obj
 0004:000007d4       $pdata$?FireTheEvent@?$CProxy_IOPOSEvents@VCOPOSRemoteOrderDisplay@@@@IEAAXPEAVOposVariant@@IAEAJPEB_WJ@Z 00000001800337d4     RemoteOrderDisplay.obj
 0004:000007e0       $pdata$?GetConnMap@COPOSRemoteOrderDisplay@@SAPEBU_ATL_CONNMAP_ENTRY@ATL@@PEAH@Z 00000001800337e0     RemoteOrderDisplay.obj
 0004:000007ec       $pdata$?ProcessWindowMessage@COPOSRemoteOrderDisplay@@UEAAHPEAUHWND__@@I_K_JAEA_JK@Z 00000001800337ec     RemoteOrderDisplay.obj
 0004:000007f8       $pdata$?SOData@COPOSRemoteOrderDisplay@@MEAAJJ@Z 00000001800337f8     RemoteOrderDisplay.obj
 0004:00000804       $pdata$?SODirectIO@COPOSRemoteOrderDisplay@@MEAAJJPEAJPEAPEA_W@Z 0000000180033804     RemoteOrderDisplay.obj
 0004:00000810       $pdata$?SOError@COPOSRemoteOrderDisplay@@MEAAJJJJPEAJ@Z 0000000180033810     RemoteOrderDisplay.obj
 0004:0000081c       $pdata$?SOOutputComplete@COPOSRemoteOrderDisplay@@MEAAJJ@Z 000000018003381c     RemoteOrderDisplay.obj
 0004:00000828       $pdata$?SOStatusUpdate@COPOSRemoteOrderDisplay@@MEAAJJ@Z 0000000180033828     RemoteOrderDisplay.obj
 0004:00000834       $pdata$?DoEvent@COPOSRemoteOrderDisplay@@IEAAXI_K_J@Z 0000000180033834     RemoteOrderDisplay.obj
 0004:00000840       $pdata$??__E_Module@@YAXXZ 0000000180033840     RemoteOrderDisplay.obj
 0004:0000084c       $pdata$??__F_Module@@YAXXZ 000000018003384c     RemoteOrderDisplay.obj
 0004:00000858       $pdata$?CreateInstance@?$CComCreator@V?$CComObjectCached@VCComClassFactory@ATL@@@ATL@@@ATL@@SAJPEAXAEBU_GUID@@PEAPEAX@Z 0000000180033858     RemoteOrderDisplay.obj
 0004:00000864       $pdata$DllMain             0000000180033864     RemoteOrderDisplay.obj
 0004:00000870       $pdata$?CreateInstance@?$CComCreator@V?$CComObject@VCOPOSRemoteOrderDisplay@@@ATL@@@ATL@@SAJPEAXAEBU_GUID@@PEAPEAX@Z 0000000180033870     RemoteOrderDisplay.obj
 0004:0000087c       $pdata$?CreateInstance@?$CComCreator@V?$CComAggObject@VCOPOSRemoteOrderDisplay@@@ATL@@@ATL@@SAJPEAXAEBU_GUID@@PEAPEAX@Z 000000018003387c     RemoteOrderDisplay.obj
 0004:00000888       $pdata$??1?$CComEnumImpl@UIEnumConnectionPoints@@$1?_GUID_b196b285_bab4_101a_b69c_00aa00341d07@@3U__s_GUID@@BPEAUIConnectionPoint@@V?$_CopyInterface@UIConnectionPoint@@@ATL@@@ATL@@UEAA@XZ 0000000180033888     RemoteOrderDisplay.obj
 0004:00000894       $pdata$?Next@?$CComEnumImpl@UIEnumConnectionPoints@@$1?_GUID_b196b285_bab4_101a_b69c_00aa00341d07@@3U__s_GUID@@BPEAUIConnectionPoint@@V?$_CopyInterface@UIConnectionPoint@@@ATL@@@ATL@@UEAAJKPEAPEAUIConnectionPoint@@PEAK@Z 0000000180033894     RemoteOrderDisplay.obj
 0004:000008a0       $pdata$?Clone@?$CComEnumImpl@UIEnumConnectionPoints@@$1?_GUID_b196b285_bab4_101a_b69c_00aa00341d07@@3U__s_GUID@@BPEAUIConnectionPoint@@V?$_CopyInterface@UIConnectionPoint@@@ATL@@@ATL@@UEAAJPEAPEAUIEnumConnectionPoints@@@Z 00000001800338a0     RemoteOrderDisplay.obj
 0004:000008ac       $pdata$?Init@?$CComEnumImpl@UIEnumConnectionPoints@@$1?_GUID_b196b285_bab4_101a_b69c_00aa00341d07@@3U__s_GUID@@BPEAUIConnectionPoint@@V?$_CopyInterface@UIConnectionPoint@@@ATL@@@ATL@@QEAAJPEAPEAUIConnectionPoint@@0PEAUIUnknown@@W4CComEnumFlags@2@@Z 00000001800338ac     RemoteOrderDisplay.obj
 0004:000008b8       $pdata$?Release@?$CComObject@V?$CComEnum@UIEnumConnectionPoints@@$1?_GUID_b196b285_bab4_101a_b69c_00aa00341d07@@3U__s_GUID@@BPEAUIConnectionPoint@@V?$_CopyInterface@UIConnectionPoint@@@ATL@@VCComSingleThreadModel@6@@ATL@@@ATL@@UEAAKXZ 00000001800338b8     RemoteOrderDisplay.obj
 0004:000008b8       $pdata$?Release@?$CComObject@V?$CComEnum@UIEnumConnections@@$1?_GUID_b196b287_bab4_101a_b69c_00aa00341d07@@3U__s_GUID@@BUtagCONNECTDATA@@V?$_Copy@UtagCONNECTDATA@@@ATL@@VCComSingleThreadModel@6@@ATL@@@ATL@@UEAAKXZ 00000001800338b8     RemoteOrderDisplay.obj
 0004:000008c4       $pdata$?CreateInstance@?$CComObject@V?$CComEnum@UIEnumConnectionPoints@@$1?_GUID_b196b285_bab4_101a_b69c_00aa00341d07@@3U__s_GUID@@BPEAUIConnectionPoint@@V?$_CopyInterface@UIConnectionPoint@@@ATL@@VCComSingleThreadModel@6@@ATL@@@ATL@@SAJPEAPEAV12@@Z 00000001800338c4     RemoteOrderDisplay.obj
 0004:000008d0       $pdata$??_G?$CComObject@V?$CComEnum@UIEnumConnectionPoints@@$1?_GUID_b196b285_bab4_101a_b69c_00aa00341d07@@3U__s_GUID@@BPEAUIConnectionPoint@@V?$_CopyInterface@UIConnectionPoint@@@ATL@@VCComSingleThreadModel@6@@ATL@@@ATL@@UEAAPEAXI@Z 00000001800338d0     RemoteOrderDisplay.obj
 0004:000008dc       $pdata$?AddRef@?$CComObjectCached@VCComClassFactory@ATL@@@ATL@@UEAAKXZ 00000001800338dc     RemoteOrderDisplay.obj
 0004:000008e8       $pdata$?Release@?$CComObjectCached@VCComClassFactory@ATL@@@ATL@@UEAAKXZ 00000001800338e8     RemoteOrderDisplay.obj
 0004:000008f4       $pdata$??_G?$CComObjectCached@VCComClassFactory@ATL@@@ATL@@UEAAPEAXI@Z 00000001800338f4     RemoteOrderDisplay.obj
 0004:00000900       $pdata$?Release@?$CComAggObject@VCOPOSRemoteOrderDisplay@@@ATL@@UEAAKXZ 0000000180033900     RemoteOrderDisplay.obj
 0004:0000090c       $pdata$?QueryInterface@?$CComAggObject@VCOPOSRemoteOrderDisplay@@@ATL@@UEAAJAEBU_GUID@@PEAPEAX@Z 000000018003390c     RemoteOrderDisplay.obj
 0004:00000918       $pdata$??0?$CComContainedObject@VCOPOSRemoteOrderDisplay@@@ATL@@QEAA@PEAX@Z 0000000180033918     RemoteOrderDisplay.obj
 0004:00000924       $pdata$??_G?$CComContainedObject@VCOPOSRemoteOrderDisplay@@@ATL@@UEAAPEAXI@Z 0000000180033924     RemoteOrderDisplay.obj
 0004:00000930       $pdata$??_G?$CComAggObject@VCOPOSRemoteOrderDisplay@@@ATL@@UEAAPEAXI@Z 0000000180033930     RemoteOrderDisplay.obj
 0004:0000093c       $pdata$??0?$CComObject@VCOPOSRemoteOrderDisplay@@@ATL@@QEAA@PEAX@Z 000000018003393c     RemoteOrderDisplay.obj
 0004:00000948       $pdata$??1?$CComObject@VCOPOSRemoteOrderDisplay@@@ATL@@UEAA@XZ 0000000180033948     RemoteOrderDisplay.obj
 0004:00000954       $pdata$?Release@?$CComObject@VCOPOSRemoteOrderDisplay@@@ATL@@UEAAKXZ 0000000180033954     RemoteOrderDisplay.obj
 0004:00000960       $pdata$??_G?$CComObject@VCOPOSRemoteOrderDisplay@@@ATL@@UEAAPEAXI@Z 0000000180033960     RemoteOrderDisplay.obj
 0004:0000096c       $pdata$??__E?pConnMap@?$IConnectionPointContainerImpl@VCOPOSRemoteOrderDisplay@@@ATL@@0PEBU_ATL_CONNMAP_ENTRY@2@EB@@YAXXZ 000000018003396c     RemoteOrderDisplay.obj
 0004:00000978       $pdata$??1?$CComEnumImpl@UIEnumConnections@@$1?_GUID_b196b287_bab4_101a_b69c_00aa00341d07@@3U__s_GUID@@BUtagCONNECTDATA@@V?$_Copy@UtagCONNECTDATA@@@ATL@@@ATL@@UEAA@XZ 0000000180033978     RemoteOrderDisplay.obj
 0004:00000984       $pdata$?Next@?$CComEnumImpl@UIEnumConnections@@$1?_GUID_b196b287_bab4_101a_b69c_00aa00341d07@@3U__s_GUID@@BUtagCONNECTDATA@@V?$_Copy@UtagCONNECTDATA@@@ATL@@@ATL@@UEAAJKPEAUtagCONNECTDATA@@PEAK@Z 0000000180033984     RemoteOrderDisplay.obj
 0004:00000990       $pdata$?Clone@?$CComEnumImpl@UIEnumConnections@@$1?_GUID_b196b287_bab4_101a_b69c_00aa00341d07@@3U__s_GUID@@BUtagCONNECTDATA@@V?$_Copy@UtagCONNECTDATA@@@ATL@@@ATL@@UEAAJPEAPEAUIEnumConnections@@@Z 0000000180033990     RemoteOrderDisplay.obj
 0004:0000099c       $pdata$?Init@?$CComEnumImpl@UIEnumConnections@@$1?_GUID_b196b287_bab4_101a_b69c_00aa00341d07@@3U__s_GUID@@BUtagCONNECTDATA@@V?$_Copy@UtagCONNECTDATA@@@ATL@@@ATL@@QEAAJPEAUtagCONNECTDATA@@0PEAUIUnknown@@W4CComEnumFlags@2@@Z 000000018003399c     RemoteOrderDisplay.obj
 0004:000009a8       $pdata$?CreateInstance@?$CComObject@V?$CComEnum@UIEnumConnections@@$1?_GUID_b196b287_bab4_101a_b69c_00aa00341d07@@3U__s_GUID@@BUtagCONNECTDATA@@V?$_Copy@UtagCONNECTDATA@@@ATL@@VCComSingleThreadModel@6@@ATL@@@ATL@@SAJPEAPEAV12@@Z 00000001800339a8     RemoteOrderDisplay.obj
 0004:000009b4       $pdata$??_G?$CComObject@V?$CComEnum@UIEnumConnections@@$1?_GUID_b196b287_bab4_101a_b69c_00aa00341d07@@3U__s_GUID@@BUtagCONNECTDATA@@V?$_Copy@UtagCONNECTDATA@@@ATL@@VCComSingleThreadModel@6@@ATL@@@ATL@@UEAAPEAXI@Z 00000001800339b4     RemoteOrderDisplay.obj
 0004:000009c0       $pdata$??1CComControlBase@ATL@@UEAA@XZ 00000001800339c0     RemoteOrderDisplayImpl.obj
 0004:000009cc       $pdata$??1?$IConnectionPointImpl@VCOPOSRemoteOrderDisplay@@$1?IID_IPropertyNotifySink@@3U_GUID@@BVCComDynamicUnkArray@ATL@@@ATL@@QEAA@XZ 00000001800339cc     RemoteOrderDisplayImpl.obj
 0004:000009cc       $pdata$??1?$IConnectionPointImpl@VCOPOSRemoteOrderDisplay@@$1?DIID__IOPOSRemoteOrderDisplayEvents@@3U_GUID@@BVCComDynamicUnkArray@ATL@@@ATL@@QEAA@XZ 00000001800339cc     RemoteOrderDisplayImpl.obj
 0004:000009d8       $pdata$?FinalConstruct@COPOSRemoteOrderDisplay@@QEAAJXZ 00000001800339d8     RemoteOrderDisplayImpl.obj
 0004:000009e4       $pdata$??1COPOSRemoteOrderDisplay@@UEAA@XZ 00000001800339e4     RemoteOrderDisplayImpl.obj
 0004:000009f0       $pdata$?GetOposProp@COPOSRemoteOrderDisplay@@IEAAJJPEAJJ@Z 00000001800339f0     RemoteOrderDisplayImpl.obj
 0004:000009fc       $pdata$?SetOposProp@COPOSRemoteOrderDisplay@@IEAAJJJJ@Z 00000001800339fc     RemoteOrderDisplayImpl.obj
 0004:00000a08       $pdata$?GetOposProp@COPOSRemoteOrderDisplay@@IEAAJJPEAPEA_WJ@Z 0000000180033a08     RemoteOrderDisplayImpl.obj
 0004:00000a14       $pdata$?DoInvoke@COPOSRemoteOrderDisplay@@IEAAJJPEAVOposVariant@@IHPEAJ_N@Z 0000000180033a14     RemoteOrderDisplayImpl.obj
 0004:00000a20       $pdata$?SetCOFreezeEvents@COPOSRemoteOrderDisplay@@IEAAXF@Z 0000000180033a20     RemoteOrderDisplayImpl.obj
 0004:00000a2c       $pdata$?FreezeEvents@COPOSRemoteOrderDisplay@@MEAAJH@Z 0000000180033a2c     RemoteOrderDisplayImpl.obj
 0004:00000a38       $pdata$?OnDraw@COPOSRemoteOrderDisplay@@MEAAJAEAUATL_DRAWINFO@@@Z 0000000180033a38     RemoteOrderDisplayImpl.obj
 0004:00000a44       $pdata$?EventInit@COPOSRemoteOrderDisplay@@IEAAJXZ 0000000180033a44     RemoteOrderDisplayImpl.obj
 0004:00000a50       $pdata$?EventUninit@COPOSRemoteOrderDisplay@@IEAAXXZ 0000000180033a50     RemoteOrderDisplayImpl.obj
 0004:00000a5c       $pdata$?s_EventWindowProc@COPOSRemoteOrderDisplay@@KA_JPEAUHWND__@@I_K_J@Z 0000000180033a5c     RemoteOrderDisplayImpl.obj
 0004:00000a68       $pdata$?EventWindowProc@COPOSRemoteOrderDisplay@@IEAA_JI_K_J@Z 0000000180033a68     RemoteOrderDisplayImpl.obj
 0004:00000a74       $pdata$?SOProcessID@COPOSRemoteOrderDisplay@@UEAAJPEAJ@Z 0000000180033a74     RemoteOrderDisplayImpl.obj
 0004:00000a80       $pdata$?get_Claimed@COPOSRemoteOrderDisplay@@UEAAJPEAF@Z 0000000180033a80     RemoteOrderDisplayImpl.obj
 0004:00000a8c       $pdata$?get_DataEventEnabled@COPOSRemoteOrderDisplay@@UEAAJPEAF@Z 0000000180033a8c     RemoteOrderDisplayImpl.obj
 0004:00000a98       $pdata$?get_DeviceEnabled@COPOSRemoteOrderDisplay@@UEAAJPEAF@Z 0000000180033a98     RemoteOrderDisplayImpl.obj
 0004:00000aa4       $pdata$?get_FreezeEvents@COPOSRemoteOrderDisplay@@UEAAJPEAF@Z 0000000180033aa4     RemoteOrderDisplayImpl.obj
 0004:00000ab0       $pdata$?put_FreezeEvents@COPOSRemoteOrderDisplay@@UEAAJF@Z 0000000180033ab0     RemoteOrderDisplayImpl.obj
 0004:00000abc       $pdata$?get_ResultCode@COPOSRemoteOrderDisplay@@UEAAJPEAJ@Z 0000000180033abc     RemoteOrderDisplayImpl.obj
 0004:00000ac8       $pdata$?get_State@COPOSRemoteOrderDisplay@@UEAAJPEAJ@Z 0000000180033ac8     RemoteOrderDisplayImpl.obj
 0004:00000ad4       $pdata$?get_ControlObjectDescription@COPOSRemoteOrderDisplay@@UEAAJPEAPEA_W@Z 0000000180033ad4     RemoteOrderDisplayImpl.obj
 0004:00000ae0       $pdata$?CheckHealth@COPOSRemoteOrderDisplay@@UEAAJJPEAJ@Z 0000000180033ae0     RemoteOrderDisplayImpl.obj
 0004:00000aec       $pdata$?ClaimDevice@COPOSRemoteOrderDisplay@@UEAAJJPEAJ@Z 0000000180033aec     RemoteOrderDisplayImpl.obj
 0004:00000af8       $pdata$?ClearInput@COPOSRemoteOrderDisplay@@UEAAJPEAJ@Z 0000000180033af8     RemoteOrderDisplayImpl.obj
 0004:00000b04       $pdata$?ClearOutput@COPOSRemoteOrderDisplay@@UEAAJPEAJ@Z 0000000180033b04     RemoteOrderDisplayImpl.obj
 0004:00000b10       $pdata$?Close@COPOSRemoteOrderDisplay@@UEAAJPEAJ@Z 0000000180033b10     RemoteOrderDisplayImpl.obj
 0004:00000b1c       $pdata$?DirectIO@COPOSRemoteOrderDisplay@@UEAAJJPEAJPEAPEA_W0@Z 0000000180033b1c     RemoteOrderDisplayImpl.obj
 0004:00000b28       $pdata$?Open@COPOSRemoteOrderDisplay@@UEAAJPEA_WPEAJ@Z 0000000180033b28     RemoteOrderDisplayImpl.obj
 0004:00000b34       $pdata$?ReleaseDevice@COPOSRemoteOrderDisplay@@UEAAJPEAJ@Z 0000000180033b34     RemoteOrderDisplayImpl.obj
 0004:00000b40       $pdata$?get_AsyncMode@COPOSRemoteOrderDisplay@@UEAAJPEAF@Z 0000000180033b40     RemoteOrderDisplayImpl.obj
 0004:00000b4c       $pdata$?get_CapSelectCharacterSet@COPOSRemoteOrderDisplay@@UEAAJPEAF@Z 0000000180033b4c     RemoteOrderDisplayImpl.obj
 0004:00000b58       $pdata$?get_CapTone@COPOSRemoteOrderDisplay@@UEAAJPEAF@Z 0000000180033b58     RemoteOrderDisplayImpl.obj
 0004:00000b64       $pdata$?get_CapTouch@COPOSRemoteOrderDisplay@@UEAAJPEAF@Z 0000000180033b64     RemoteOrderDisplayImpl.obj
 0004:00000b70       $pdata$?get_CapTransaction@COPOSRemoteOrderDisplay@@UEAAJPEAF@Z 0000000180033b70     RemoteOrderDisplayImpl.obj
 0004:00000b7c       $pdata$?ClearVideo@COPOSRemoteOrderDisplay@@UEAAJJJPEAJ@Z 0000000180033b7c     RemoteOrderDisplayImpl.obj
 0004:00000b88       $pdata$?ClearVideoRegion@COPOSRemoteOrderDisplay@@UEAAJJJJJJJPEAJ@Z 0000000180033b88     RemoteOrderDisplayImpl.obj
 0004:00000b94       $pdata$?ControlClock@COPOSRemoteOrderDisplay@@UEAAJJJJJJJJJJJPEAJ@Z 0000000180033b94     RemoteOrderDisplayImpl.obj
 0004:00000ba0       $pdata$?ControlCursor@COPOSRemoteOrderDisplay@@UEAAJJJPEAJ@Z 0000000180033ba0     RemoteOrderDisplayImpl.obj
 0004:00000bac       $pdata$?CopyVideoRegion@COPOSRemoteOrderDisplay@@UEAAJJJJJJJJPEAJ@Z 0000000180033bac     RemoteOrderDisplayImpl.obj
 0004:00000bb8       $pdata$?DisplayData@COPOSRemoteOrderDisplay@@UEAAJJJJJPEA_WPEAJ@Z 0000000180033bb8     RemoteOrderDisplayImpl.obj
 0004:00000bc4       $pdata$?DrawBox@COPOSRemoteOrderDisplay@@UEAAJJJJJJJJPEAJ@Z 0000000180033bc4     RemoteOrderDisplayImpl.obj
 0004:00000bd0       $pdata$?FreeVideoRegion@COPOSRemoteOrderDisplay@@UEAAJJJPEAJ@Z 0000000180033bd0     RemoteOrderDisplayImpl.obj
 0004:00000bdc       $pdata$?ResetVideo@COPOSRemoteOrderDisplay@@UEAAJJPEAJ@Z 0000000180033bdc     RemoteOrderDisplayImpl.obj
 0004:00000be8       $pdata$?RestoreVideoRegion@COPOSRemoteOrderDisplay@@UEAAJJJJJPEAJ@Z 0000000180033be8     RemoteOrderDisplayImpl.obj
 0004:00000bf4       $pdata$?SaveVideoRegion@COPOSRemoteOrderDisplay@@UEAAJJJJJJJPEAJ@Z 0000000180033bf4     RemoteOrderDisplayImpl.obj
 0004:00000c00       $pdata$?SelectCharacterSet@COPOSRemoteOrderDisplay@@UEAAJJJPEAJ@Z 0000000180033c00     RemoteOrderDisplayImpl.obj
 0004:00000c0c       $pdata$?SetCursor@COPOSRemoteOrderDisplay@@UEAAJJJJPEAJ@Z 0000000180033c0c     RemoteOrderDisplayImpl.obj
 0004:00000c18       $pdata$?TransactionDisplay@COPOSRemoteOrderDisplay@@UEAAJJJPEAJ@Z 0000000180033c18     RemoteOrderDisplayImpl.obj
 0004:00000c24       $pdata$?UpdateVideoRegionAttribute@COPOSRemoteOrderDisplay@@UEAAJJJJJJJJPEAJ@Z 0000000180033c24     RemoteOrderDisplayImpl.obj
 0004:00000c30       $pdata$?VideoSound@COPOSRemoteOrderDisplay@@UEAAJJJJJJPEAJ@Z 0000000180033c30     RemoteOrderDisplayImpl.obj
 0004:00000c3c       $pdata$?get_CapMapCharacterSet@COPOSRemoteOrderDisplay@@UEAAJPEAF@Z 0000000180033c3c     RemoteOrderDisplayImpl.obj
 0004:00000c48       $pdata$?get_MapCharacterSet@COPOSRemoteOrderDisplay@@UEAAJPEAF@Z 0000000180033c48     RemoteOrderDisplayImpl.obj
 0004:00000c54       $pdata$?get_CapStatisticsReporting@COPOSRemoteOrderDisplay@@UEAAJPEAF@Z 0000000180033c54     RemoteOrderDisplayImpl.obj
 0004:00000c60       $pdata$?get_CapUpdateStatistics@COPOSRemoteOrderDisplay@@UEAAJPEAF@Z 0000000180033c60     RemoteOrderDisplayImpl.obj
 0004:00000c6c       $pdata$?ResetStatistics@COPOSRemoteOrderDisplay@@UEAAJPEA_WPEAJ@Z 0000000180033c6c     RemoteOrderDisplayImpl.obj
 0004:00000c78       $pdata$?RetrieveStatistics@COPOSRemoteOrderDisplay@@UEAAJPEAPEA_WPEAJ@Z 0000000180033c78     RemoteOrderDisplayImpl.obj
 0004:00000c84       $pdata$?UpdateStatistics@COPOSRemoteOrderDisplay@@UEAAJPEA_WPEAJ@Z 0000000180033c84     RemoteOrderDisplayImpl.obj
 0004:00000c90       $pdata$?get_CapCompareFirmwareVersion@COPOSRemoteOrderDisplay@@UEAAJPEAF@Z 0000000180033c90     RemoteOrderDisplayImpl.obj
 0004:00000c9c       $pdata$?get_CapUpdateFirmware@COPOSRemoteOrderDisplay@@UEAAJPEAF@Z 0000000180033c9c     RemoteOrderDisplayImpl.obj
 0004:00000ca8       $pdata$?CompareFirmwareVersion@COPOSRemoteOrderDisplay@@UEAAJPEA_WPEAJ1@Z 0000000180033ca8     RemoteOrderDisplayImpl.obj
 0004:00000cb4       $pdata$?UpdateFirmware@COPOSRemoteOrderDisplay@@UEAAJPEA_WPEAJ@Z 0000000180033cb4     RemoteOrderDisplayImpl.obj
 0004:00000cc0       $pdata$atexit              0000000180033cc0     LIBCMT:utility.obj
 0004:00000ccc       $pdata$_onexit             0000000180033ccc     LIBCMT:utility.obj
 0004:00000cd8       $pdata$__scrt_is_nonwritable_in_current_image 0000000180033cd8     LIBCMT:utility.obj
 0004:00000ce4       $pdata$__scrt_is_nonwritable_in_current_image$filt$0 0000000180033ce4     LIBCMT:utility.obj
 0004:00000cf0       $pdata$__scrt_acquire_startup_lock 0000000180033cf0     LIBCMT:utility.obj
 0004:00000cfc       $pdata$__scrt_release_startup_lock 0000000180033cfc     LIBCMT:utility.obj
 0004:00000d08       $pdata$__scrt_initialize_crt 0000000180033d08     LIBCMT:utility.obj
 0004:00000d14       $pdata$__scrt_uninitialize_crt 0000000180033d14     LIBCMT:utility.obj
 0004:00000d20       $pdata$__scrt_initialize_onexit_tables 0000000180033d20     LIBCMT:utility.obj
 0004:00000d2c       $pdata$__scrt_dllmain_exception_filter 0000000180033d2c     LIBCMT:utility.obj
 0004:00000d38       $pdata$__scrt_dllmain_before_initialize_c 0000000180033d38     LIBCMT:utility.obj
 0004:00000d44       $pdata$__scrt_dllmain_after_initialize_c 0000000180033d44     LIBCMT:utility.obj
 0004:00000d50       $pdata$__scrt_dllmain_uninitialize_c 0000000180033d50     LIBCMT:utility.obj
 0004:00000d5c       $pdata$__scrt_dllmain_uninitialize_critical 0000000180033d5c     LIBCMT:utility.obj
 0004:00000d68       $pdata$__scrt_dllmain_crt_thread_attach 0000000180033d68     LIBCMT:utility.obj
 0004:00000d74       $pdata$__scrt_dllmain_crt_thread_detach 0000000180033d74     LIBCMT:utility.obj
 0004:00000d80       $pdata$_Init_thread_header 0000000180033d80     LIBCMT:thread_safe_statics.obj
 0004:00000d8c       $pdata$_Init_thread_footer 0000000180033d8c     LIBCMT:thread_safe_statics.obj
 0004:00000d98       $pdata$_Init_thread_wait   0000000180033d98     LIBCMT:thread_safe_statics.obj
 0004:00000da4       $pdata$_Init_thread_notify 0000000180033da4     LIBCMT:thread_safe_statics.obj
 0004:00000db0       $pdata$?__scrt_uninitialize_thread_safe_statics@@YAXXZ 0000000180033db0     LIBCMT:thread_safe_statics.obj
 0004:00000dbc       $pdata$?__scrt_initialize_thread_safe_statics@@YAHXZ 0000000180033dbc     LIBCMT:thread_safe_statics.obj
 0004:00000dc8       $pdata$__report_securityfailure 0000000180033dc8     LIBCMT:gs_report.obj
 0004:00000dd4       $pdata$__report_rangecheckfailure 0000000180033dd4     LIBCMT:gs_report.obj
 0004:00000de0       $pdata$__report_gsfailure  0000000180033de0     LIBCMT:gs_report.obj
 0004:00000dec       $pdata$capture_current_context 0000000180033dec     LIBCMT:gs_report.obj
 0004:00000df8       $pdata$capture_previous_context 0000000180033df8     LIBCMT:gs_report.obj
 0004:00000e04       $pdata$__raise_securityfailure 0000000180033e04     LIBCMT:gs_report.obj
 0004:00000e10       $pdata$??2@YAPEAX_KAEBUnothrow_t@std@@@Z 0000000180033e10     LIBCMT:new_scalar_nothrow.obj
 0004:00000e1c       $pdata$?catch$0@?0???2@YAPEAX_KAEBUnothrow_t@std@@@Z@4HA 0000000180033e1c     LIBCMT:new_scalar_nothrow.obj
 0004:00000e28       $pdata$__GSHandlerCheckCommon 0000000180033e28     LIBCMT:gshandler.obj
 0004:00000e34       $pdata$__GSHandlerCheck    0000000180033e34     LIBCMT:gshandler.obj
 0004:00000e40       $pdata$__GSHandlerCheck_SEH 0000000180033e40     LIBCMT:gshandlerseh.obj
 0004:00000e64       $pdata$?dllmain_crt_process_attach@@YAHQEAUHINSTANCE__@@QEAX@Z 0000000180033e64     LIBCMT:dll_dllmain.obj
 0004:00000e70       $pdata$?fin$0@?0??dllmain_crt_process_attach@@YAHQEAUHINSTANCE__@@QEAX@Z@4HA 0000000180033e70     LIBCMT:dll_dllmain.obj
 0004:00000e7c       $pdata$?dllmain_crt_process_detach@@YAH_N@Z 0000000180033e7c     LIBCMT:dll_dllmain.obj
 0004:00000e88       $pdata$?fin$0@?0??dllmain_crt_process_detach@@YAH_N@Z@4HA 0000000180033e88     LIBCMT:dll_dllmain.obj
 0004:00000e94       $pdata$?dllmain_crt_dispatch@@YAHQEAUHINSTANCE__@@KQEAX@Z 0000000180033e94     LIBCMT:dll_dllmain.obj
 0004:00000ea0       $pdata$?dllmain_dispatch@@YAHQEAUHINSTANCE__@@KQEAX@Z 0000000180033ea0     LIBCMT:dll_dllmain.obj
 0004:00000eac       $pdata$?filt$0@?0??dllmain_dispatch@@YAHQEAUHINSTANCE__@@KQEAX@Z@4HA 0000000180033eac     LIBCMT:dll_dllmain.obj
 0004:00000eb8       $pdata$_DllMainCRTStartup  0000000180033eb8     LIBCMT:dll_dllmain.obj
 0004:00000ec4       $pdata$??2@YAPEAX_K@Z      0000000180033ec4     LIBCMT:new_scalar.obj
 0004:00000ed0       $pdata$__isa_available_init 0000000180033ed0     LIBCMT:cpu_disp.obj
 0004:00000edc       $pdata$__scrt_fastfail     0000000180033edc     LIBCMT:utility_desktop.obj
 0004:00000ee8       $pdata$__security_init_cookie 0000000180033ee8     LIBCMT:gs_support.obj
 0004:00000ef4       $pdata$__scrt_initialize_default_local_stdio_options 0000000180033ef4     LIBCMT:default_local_stdio_options.obj
 0004:00000f00       $pdata$_RTC_Initialize     0000000180033f00     LIBCMT:initsect.obj
 0004:00000f0c       $pdata$_RTC_Terminate      0000000180033f0c     LIBCMT:initsect.obj
 0004:00000f18       $pdata$??0exception@std@@QEAA@AEBV01@@Z 0000000180033f18     LIBCMT:throw_bad_alloc.obj
 0004:00000f24       $pdata$??_Gexception@std@@UEAAPEAXI@Z 0000000180033f24     LIBCMT:throw_bad_alloc.obj
 0004:00000f24       $pdata$??_Gbad_alloc@std@@UEAAPEAXI@Z 0000000180033f24     LIBCMT:throw_bad_alloc.obj
 0004:00000f24       $pdata$??_Gbad_exception@std@@UEAAPEAXI@Z 0000000180033f24     libvcruntime:frame.obj
 0004:00000f24       $pdata$??_Gbad_array_new_length@std@@UEAAPEAXI@Z 0000000180033f24     LIBCMT:throw_bad_alloc.obj
 0004:00000f30       $pdata$??0bad_alloc@std@@QEAA@AEBV01@@Z 0000000180033f30     LIBCMT:throw_bad_alloc.obj
 0004:00000f3c       $pdata$??0bad_array_new_length@std@@QEAA@AEBV01@@Z 0000000180033f3c     LIBCMT:throw_bad_alloc.obj
 0004:00000f48       $pdata$?__scrt_throw_std_bad_alloc@@YAXXZ 0000000180033f48     LIBCMT:throw_bad_alloc.obj
 0004:00000f54       $pdata$?__scrt_throw_std_bad_array_new_length@@YAXXZ 0000000180033f54     LIBCMT:throw_bad_alloc.obj
 0004:00000f6c       $pdata$??_Gtype_info@@UEAAPEAXI@Z 0000000180033f6c     LIBCMT:std_type_info_static.obj
 0004:00000f78       $pdata$??0CAtlBaseModule@ATL@@QEAA@XZ 0000000180033f78     atls:atlbase.obj
 0004:00000f84       $pdata$??1CAtlBaseModule@ATL@@QEAA@XZ 0000000180033f84     atls:atlbase.obj
 0004:00000f90       $pdata$??__E_AtlBaseModule@ATL@@YAXXZ 0000000180033f90     atls:atlbase.obj
 0004:00000f9c       $pdata$AtlThunk_AllocateData 0000000180033f9c     atls:atlthunk.obj
 0004:00000fa8       $pdata$AtlThunk_InitData   0000000180033fa8     atls:atlthunk.obj
 0004:00000fb4       $pdata$AtlThunk_DataToCode 0000000180033fb4     atls:atlthunk.obj
 0004:00000fc0       $pdata$AtlThunk_FreeData   0000000180033fc0     atls:atlthunk.obj
 0004:00000fcc       $pdata$?__InitializeThunkPool@@YAHXZ 0000000180033fcc     atls:atlthunk.obj
 0004:00000fd8       $pdata$?__AllocStdCallThunk_cmn@@YAPEAXXZ 0000000180033fd8     atls:atlthunk.obj
 0004:00000fe4       $pdata$??$GetProcAddressAll@P6APEAUAtlThunkData_t@@XZ@@YAP6APEAUAtlThunkData_t@@XZPEAP6APEAU0@XZ@Z 0000000180033fe4     atls:atlthunk.obj
 0004:00000fe4       $pdata$??$GetProcAddressAll@P6AXPEAUAtlThunkData_t@@@Z@@YAP6AXPEAUAtlThunkData_t@@@ZPEAP6AX0@Z@Z 0000000180033fe4     atls:atlthunk.obj
 0004:00000fe4       $pdata$??$GetProcAddressAll@P6AXPEAUAtlThunkData_t@@PEAX_K@Z@@YAP6AXPEAUAtlThunkData_t@@PEAX_K@ZPEAP6AX012@Z@Z 0000000180033fe4     atls:atlthunk.obj
 0004:00000fe4       $pdata$??$GetProcAddressAll@P6AP6A_JPEAUHWND__@@I_K_J@ZPEAUAtlThunkData_t@@@Z@@YAP6AP6A_JPEAUHWND__@@I_K_J@ZPEAUAtlThunkData_t@@@ZPEAP6AP6A_J0I12@Z3@Z@Z 0000000180033fe4     atls:atlthunk.obj
 0004:00001008       $pdata$_purecall           0000000180034008     libvcruntime:purevirt.obj
 0004:00001014       $pdata$wcsstr              0000000180034014     libvcruntime:wcsstr.obj
 0004:00001044       $pdata$__vcrt_initialize   0000000180034044     libvcruntime:initialization.obj
 0004:00001050       $pdata$__vcrt_uninitialize 0000000180034050     libvcruntime:initialization.obj
 0004:0000105c       $pdata$__vcrt_uninitialize_critical 000000018003405c     libvcruntime:initialization.obj
 0004:00001068       $pdata$__vcrt_thread_attach 0000000180034068     libvcruntime:initialization.obj
 0004:00001074       $pdata$__vcrt_thread_detach 0000000180034074     libvcruntime:initialization.obj
 0004:00001080       $pdata$__C_specific_handler 0000000180034080     libvcruntime:riscchandler.obj
 0004:0000108c       $pdata$__std_terminate     000000018003408c     libvcruntime:ehhelpers.obj
 0004:00001098       $pdata$_IsExceptionObjectToBeDestroyed 0000000180034098     libvcruntime:ehhelpers.obj
 0004:000010a4       $pdata$__FrameUnwindFilter 00000001800340a4     libvcruntime:ehhelpers.obj
 0004:000010b0       $pdata$__DestructExceptionObject 00000001800340b0     libvcruntime:ehhelpers.obj
 0004:000010bc       $pdata$__DestructExceptionObject$filt$0 00000001800340bc     libvcruntime:ehhelpers.obj
 0004:000010c8       $pdata$?CatchTryBlock@__FrameHandler3@@SAPEBU_s_TryBlockMapEntry@@PEBU_s_FuncInfo@@H@Z 00000001800340c8     libvcruntime:risctrnsctrl.obj
 0004:000010d4       $pdata$?ExecutionInCatch@__FrameHandler3@@SA_NPEAU_xDISPATCHER_CONTEXT@@PEBU_s_FuncInfo@@@Z 00000001800340d4     libvcruntime:risctrnsctrl.obj
 0004:000010e0       $pdata$?FrameUnwindToEmptyState@__FrameHandler3@@SAXPEA_KPEAU_xDISPATCHER_CONTEXT@@PEBU_s_FuncInfo@@@Z 00000001800340e0     libvcruntime:risctrnsctrl.obj
 0004:000010ec       $pdata$?GetEstablisherFrame@__FrameHandler3@@SAPEA_KPEA_KPEAU_xDISPATCHER_CONTEXT@@PEBU_s_FuncInfo@@0@Z 00000001800340ec     libvcruntime:risctrnsctrl.obj
 0004:000010f8       $pdata$?UnwindNestedFrames@__FrameHandler3@@SAXPEA_KPEAUEHExceptionRecord@@PEAU_CONTEXT@@0PEAXPEBU_s_FuncInfo@@HHPEBU_s_HandlerType@@PEAU_xDISPATCHER_CONTEXT@@E@Z 00000001800340f8     libvcruntime:risctrnsctrl.obj
 0004:00001104       $pdata$?GetRangeOfTrysToCheck@__FrameHandler3@@SA?AU?$pair@Viterator@TryBlockMap@__FrameHandler3@@V123@@std@@AEAVTryBlockMap@1@HH@Z 0000000180034104     libvcruntime:risctrnsctrl.obj
 0004:00001110       $pdata$_GetImageBase       0000000180034110     libvcruntime:risctrnsctrl.obj
 0004:0000111c       $pdata$_SetImageBase       000000018003411c     libvcruntime:risctrnsctrl.obj
 0004:00001128       $pdata$_GetThrowImageBase  0000000180034128     libvcruntime:risctrnsctrl.obj
 0004:00001134       $pdata$_SetThrowImageBase  0000000180034134     libvcruntime:risctrnsctrl.obj
 0004:00001140       $pdata$_CreateFrameInfo    0000000180034140     libvcruntime:risctrnsctrl.obj
 0004:0000114c       $pdata$_FindAndUnlinkFrame 000000018003414c     libvcruntime:risctrnsctrl.obj
 0004:00001158       $pdata$__CxxFrameHandler3  0000000180034158     libvcruntime:risctrnsctrl.obj
 0004:00001164       $pdata$??$_CallSETranslator@V__FrameHandler3@@@@YAHPEAUEHExceptionRecord@@PEA_KPEAU_CONTEXT@@PEAU_xDISPATCHER_CONTEXT@@PEBU_s_FuncInfo@@K1@Z 0000000180034164     libvcruntime:risctrnsctrl.obj
 0004:00001170       $pdata$?filt$0@?0???$_CallSETranslator@V__FrameHandler3@@@@YAHPEAUEHExceptionRecord@@PEA_KPEAU_CONTEXT@@PEAU_xDISPATCHER_CONTEXT@@PEBU_s_FuncInfo@@K1@Z@4HA 0000000180034170     libvcruntime:risctrnsctrl.obj
 0004:0000117c       $pdata$__std_type_info_destroy_list 000000018003417c     libvcruntime:std_type_info.obj
 0004:00001188       $pdata$__std_exception_copy 0000000180034188     libvcruntime:std_exception.obj
 0004:00001194       $pdata$__std_exception_destroy 0000000180034194     libvcruntime:std_exception.obj
 0004:000011a0       $pdata$_CxxThrowException  00000001800341a0     libvcruntime:throw.obj
 0004:000011ac       $pdata$__vcrt_initialize_ptd 00000001800341ac     libvcruntime:per_thread_data.obj
 0004:000011b8       $pdata$__vcrt_uninitialize_ptd 00000001800341b8     libvcruntime:per_thread_data.obj
 0004:000011c4       $pdata$__vcrt_getptd       00000001800341c4     libvcruntime:per_thread_data.obj
 0004:000011d0       $pdata$__vcrt_getptd_noexit 00000001800341d0     libvcruntime:per_thread_data.obj
 0004:000011dc       $pdata$__vcrt_freeptd      00000001800341dc     libvcruntime:per_thread_data.obj
 0004:000011e8       $pdata$__vcrt_freefls      00000001800341e8     libvcruntime:per_thread_data.obj
 0004:000011f4       $pdata$__vcrt_initialize_locks 00000001800341f4     libvcruntime:locks.obj
 0004:00001200       $pdata$__vcrt_uninitialize_locks 0000000180034200     libvcruntime:locks.obj
 0004:0000120c       $pdata$__vcrt_FlsAlloc     000000018003420c     libvcruntime:winapi_downlevel.obj
 0004:00001218       $pdata$__vcrt_FlsFree      0000000180034218     libvcruntime:winapi_downlevel.obj
 0004:00001224       $pdata$__vcrt_FlsGetValue  0000000180034224     libvcruntime:winapi_downlevel.obj
 0004:00001230       $pdata$__vcrt_FlsSetValue  0000000180034230     libvcruntime:winapi_downlevel.obj
 0004:0000123c       $pdata$__vcrt_InitializeCriticalSectionEx 000000018003423c     libvcruntime:winapi_downlevel.obj
 0004:00001248       $pdata$__vcrt_initialize_winapi_thunks 0000000180034248     libvcruntime:winapi_downlevel.obj
 0004:00001254       $pdata$__vcrt_uninitialize_winapi_thunks 0000000180034254     libvcruntime:winapi_downlevel.obj
 0004:00001260       $pdata$?try_get_function@@YAPEAXW4function_id@?A0xbfd18cd1@@QEBDQEBW4module_id@2@2@Z 0000000180034260     libvcruntime:winapi_downlevel.obj
 0004:00001290       $pdata$?StateFromIp@__FrameHandler3@@SAHPEBU_s_FuncInfo@@PEAU_xDISPATCHER_CONTEXT@@_K@Z 0000000180034290     libvcruntime:ehstate.obj
 0004:0000129c       $pdata$?GetCurrentState@__FrameHandler3@@SAHPEA_KPEAU_xDISPATCHER_CONTEXT@@PEBU_s_FuncInfo@@@Z 000000018003429c     libvcruntime:ehstate.obj
 0004:000012a8       $pdata$?SetUnwindTryBlock@__FrameHandler3@@SAXPEA_KPEAU_xDISPATCHER_CONTEXT@@PEBU_s_FuncInfo@@H@Z 00000001800342a8     libvcruntime:ehstate.obj
 0004:000012b4       $pdata$?GetUnwindTryBlock@__FrameHandler3@@SAHPEA_KPEAU_xDISPATCHER_CONTEXT@@PEBU_s_FuncInfo@@@Z 00000001800342b4     libvcruntime:ehstate.obj
 0004:000012c0       $pdata$?FrameUnwindToState@__FrameHandler3@@SAXPEA_KPEAU_xDISPATCHER_CONTEXT@@PEBU_s_FuncInfo@@H@Z 00000001800342c0     libvcruntime:frame.obj
 0004:000012cc       $pdata$?filt$0@?0??FrameUnwindToState@__FrameHandler3@@SAXPEA_KPEAU_xDISPATCHER_CONTEXT@@PEBU_s_FuncInfo@@H@Z@4HA 00000001800342cc     libvcruntime:frame.obj
 0004:000012d8       $pdata$?fin$1@?0??FrameUnwindToState@__FrameHandler3@@SAXPEA_KPEAU_xDISPATCHER_CONTEXT@@PEBU_s_FuncInfo@@H@Z@4HA 00000001800342d8     libvcruntime:frame.obj
 0004:000012e4       $pdata$?GetHandlerSearchState@__FrameHandler3@@SAHPEA_KPEAU_xDISPATCHER_CONTEXT@@PEBU_s_FuncInfo@@@Z 00000001800342e4     libvcruntime:frame.obj
 0004:000012f0       $pdata$?CxxCallCatchBlock@__FrameHandler3@@SAPEAXPEAU_EXCEPTION_RECORD@@@Z 00000001800342f0     libvcruntime:frame.obj
 0004:000012fc       $pdata$?filt$0@?0??CxxCallCatchBlock@__FrameHandler3@@SAPEAXPEAU_EXCEPTION_RECORD@@@Z@4HA 00000001800342fc     libvcruntime:frame.obj
 0004:00001308       $pdata$?fin$1@?0??CxxCallCatchBlock@__FrameHandler3@@SAPEAXPEAU_EXCEPTION_RECORD@@@Z@4HA 0000000180034308     libvcruntime:frame.obj
 0004:00001314       $pdata$??0bad_exception@std@@QEAA@AEBV01@@Z 0000000180034314     libvcruntime:frame.obj
 0004:00001320       $pdata$?ExFilterRethrow@@YAHPEAU_EXCEPTION_POINTERS@@PEAUEHExceptionRecord@@PEAH@Z 0000000180034320     libvcruntime:frame.obj
 0004:0000132c       $pdata$?IsInExceptionSpec@@YAEPEAUEHExceptionRecord@@PEBU_s_ESTypeList@@@Z 000000018003432c     libvcruntime:frame.obj
 0004:00001338       $pdata$?Is_bad_exception_allowed@@YAEPEBU_s_ESTypeList@@@Z 0000000180034338     libvcruntime:frame.obj
 0004:00001344       $pdata$??$__InternalCxxFrameHandler@V__FrameHandler3@@@@YA?AW4_EXCEPTION_DISPOSITION@@PEAUEHExceptionRecord@@PEA_KPEAU_CONTEXT@@PEAU_xDISPATCHER_CONTEXT@@PEBU_s_FuncInfo@@H1E@Z 0000000180034344     libvcruntime:frame.obj
 0004:00001350       $pdata$??$TypeMatchHelper@V__FrameHandler3@@@@YAHPEBU_s_HandlerType@@PEBU_s_CatchableType@@PEBU_s_ThrowInfo@@@Z 0000000180034350     libvcruntime:frame.obj
 0004:0000135c       $pdata$??$BuildCatchObjectHelperInternal@V__FrameHandler3@@@@YAHPEAUEHExceptionRecord@@PEAXPEBU_s_HandlerType@@PEBU_s_CatchableType@@@Z 000000018003435c     libvcruntime:frame.obj
 0004:00001368       $pdata$??$BuildCatchObjectInternal@V__FrameHandler3@@@@YAXPEAUEHExceptionRecord@@PEAXPEBU_s_HandlerType@@PEBU_s_CatchableType@@@Z 0000000180034368     libvcruntime:frame.obj
 0004:00001374       $pdata$??$FindHandler@V__FrameHandler3@@@@YAXPEAUEHExceptionRecord@@PEA_KPEAU_CONTEXT@@PEAU_xDISPATCHER_CONTEXT@@PEBU_s_FuncInfo@@EH1@Z 0000000180034374     libvcruntime:frame.obj
 0004:00001380       $pdata$??$CatchIt@V__FrameHandler3@@@@YAXPEAUEHExceptionRecord@@PEA_KPEAU_CONTEXT@@PEAU_xDISPATCHER_CONTEXT@@PEBU_s_FuncInfo@@PEBU_s_HandlerType@@PEBU_s_CatchableType@@PEBU_s_TryBlockMapEntry@@H1EE@Z 0000000180034380     libvcruntime:frame.obj
 0004:0000138c       $pdata$??$FindHandlerForForeignException@V__FrameHandler3@@@@YAXPEAUEHExceptionRecord@@PEA_KPEAU_CONTEXT@@PEAU_xDISPATCHER_CONTEXT@@PEBU_s_FuncInfo@@HH1@Z 000000018003438c     libvcruntime:frame.obj
 0004:000013b0       $pdata$_invalid_parameter_noinfo 00000001800343b0     libucrt:invalid_parameter.obj
 0004:000013bc       $pdata$_invoke_watson      00000001800343bc     libucrt:invalid_parameter.obj
 0004:000013c8       $pdata$__acrt_call_reportfault 00000001800343c8     libucrt:invalid_parameter.obj
 0004:000013d4       $pdata$_invalid_parameter  00000001800343d4     libucrt:invalid_parameter.obj
 0004:000013e0       $pdata$_errno              00000001800343e0     libucrt:errno.obj
 0004:000013ec       $pdata$__doserrno          00000001800343ec     libucrt:errno.obj
 0004:000013f8       $pdata$__acrt_errno_map_os_error 00000001800343f8     libucrt:errno.obj
 0004:00001404       $pdata$_recalloc_base      0000000180034404     libucrt:recalloc.obj
 0004:00001410       $pdata$_resetstkoflw       0000000180034410     libucrt:resetstk.obj
 0004:0000141c       $pdata$wcscat_s            000000018003441c     libucrt:wcscat_s.obj
 0004:00001428       $pdata$wcscpy_s            0000000180034428     libucrt:wcscpy_s.obj
 0004:00001434       $pdata$wcsncpy_s           0000000180034434     libucrt:wcsncpy_s.obj
 0004:00001440       $pdata$??0_LocaleUpdate@@QEAA@QEAU__crt_locale_pointers@@@Z 0000000180034440     libucrt:output.obj
 0004:0000144c       $pdata$__stdio_common_vswprintf_s 000000018003444c     libucrt:output.obj
 0004:00001458       $pdata$?force_decimal_point@__crt_stdio_output@@YAXPEADQEAU__crt_locale_pointers@@@Z 0000000180034458     libucrt:output.obj
 0004:00001464       $pdata$?write_string@?$string_output_adapter@_W@__crt_stdio_output@@QEBAXQEB_WHQEAH1@Z 0000000180034464     libucrt:output.obj
 0004:00001470       $pdata$??$common_vsprintf@Vformat_validation_base@__crt_stdio_output@@_W@@YAH_KQEA_W0QEB_WQEAU__crt_locale_pointers@@QEAD@Z 0000000180034470     libucrt:output.obj
 0004:0000147c       $pdata$??$write_multiple_characters@V?$string_output_adapter@_W@__crt_stdio_output@@D@__crt_stdio_output@@YAXAEBV?$string_output_adapter@_W@0@DHQEAH@Z 000000018003447c     libucrt:output.obj
 0004:00001488       $pdata$??$ensure_buffer_is_big_enough@D@formatting_buffer@__crt_stdio_output@@QEAA_N_K@Z 0000000180034488     libucrt:output.obj
 0004:00001494       $pdata$??0?$output_processor@_WV?$string_output_adapter@_W@__crt_stdio_output@@V?$format_validation_base@_WV?$string_output_adapter@_W@__crt_stdio_output@@@2@@__crt_stdio_output@@QEAA@AEBV?$string_output_adapter@_W@1@_KQEB_WQEAU__crt_locale_pointers@@QEAD@Z 0000000180034494     libucrt:output.obj
 0004:000014a0       $pdata$?process@?$output_processor@_WV?$string_output_adapter@_W@__crt_stdio_output@@V?$format_validation_base@_WV?$string_output_adapter@_W@__crt_stdio_output@@@2@@__crt_stdio_output@@QEAAHXZ 00000001800344a0     libucrt:output.obj
 0004:000014ac       $pdata$?parse_int_from_format_string@?$output_processor@_WV?$string_output_adapter@_W@__crt_stdio_output@@V?$format_validation_base@_WV?$string_output_adapter@_W@__crt_stdio_output@@@2@@__crt_stdio_output@@AEAA_NQEAH@Z 00000001800344ac     libucrt:output.obj
 0004:000014b8       $pdata$?state_case_size@?$output_processor@_WV?$string_output_adapter@_W@__crt_stdio_output@@V?$format_validation_base@_WV?$string_output_adapter@_W@__crt_stdio_output@@@2@@__crt_stdio_output@@AEAA_NXZ 00000001800344b8     libucrt:output.obj
 0004:000014c4       $pdata$?state_case_type@?$output_processor@_WV?$string_output_adapter@_W@__crt_stdio_output@@V?$format_validation_base@_WV?$string_output_adapter@_W@__crt_stdio_output@@@2@@__crt_stdio_output@@AEAA_NXZ 00000001800344c4     libucrt:output.obj
 0004:000014d0       $pdata$?type_case_c_tchar@?$output_processor@_WV?$string_output_adapter@_W@__crt_stdio_output@@V?$format_validation_base@_WV?$string_output_adapter@_W@__crt_stdio_output@@@2@@__crt_stdio_output@@AEAA_N_W@Z 00000001800344d0     libucrt:output.obj
 0004:000014dc       $pdata$?type_case_Z@?$output_processor@_WV?$string_output_adapter@_W@__crt_stdio_output@@V?$format_validation_base@_WV?$string_output_adapter@_W@__crt_stdio_output@@@2@@__crt_stdio_output@@AEAA_NXZ 00000001800344dc     libucrt:output.obj
 0004:000014e8       $pdata$?type_case_s@?$output_processor@_WV?$string_output_adapter@_W@__crt_stdio_output@@V?$format_validation_base@_WV?$string_output_adapter@_W@__crt_stdio_output@@@2@@__crt_stdio_output@@AEAA_NXZ 00000001800344e8     libucrt:output.obj
 0004:000014f4       $pdata$?type_case_a@?$output_processor@_WV?$string_output_adapter@_W@__crt_stdio_output@@V?$format_validation_base@_WV?$string_output_adapter@_W@__crt_stdio_output@@@2@@__crt_stdio_output@@AEAA_NXZ 00000001800344f4     libucrt:output.obj
 0004:00001500       $pdata$?type_case_integer@?$output_processor@_WV?$string_output_adapter@_W@__crt_stdio_output@@V?$format_validation_base@_WV?$string_output_adapter@_W@__crt_stdio_output@@@2@@__crt_stdio_output@@AEAA_NI_N@Z 0000000180034500     libucrt:output.obj
 0004:0000150c       $pdata$?type_case_n@?$output_processor@_WV?$string_output_adapter@_W@__crt_stdio_output@@V?$format_validation_base@_WV?$string_output_adapter@_W@__crt_stdio_output@@@2@@__crt_stdio_output@@AEAA_NXZ 000000018003450c     libucrt:output.obj
 0004:00001518       $pdata$?write_stored_string_tchar@?$output_processor@_WV?$string_output_adapter@_W@__crt_stdio_output@@V?$format_validation_base@_WV?$string_output_adapter@_W@__crt_stdio_output@@@2@@__crt_stdio_output@@AEAA_N_W@Z 0000000180034518     libucrt:output.obj
 0004:00001524       $pdata$??$type_case_integer_parse_into_buffer@_K@?$output_processor@_WV?$string_output_adapter@_W@__crt_stdio_output@@V?$format_validation_base@_WV?$string_output_adapter@_W@__crt_stdio_output@@@2@@__crt_stdio_output@@AEAAX_KI_N@Z 0000000180034524     libucrt:output.obj
 0004:00001530       $pdata$??$type_case_integer_parse_into_buffer@I@?$output_processor@_WV?$string_output_adapter@_W@__crt_stdio_output@@V?$format_validation_base@_WV?$string_output_adapter@_W@__crt_stdio_output@@@2@@__crt_stdio_output@@AEAAXII_N@Z 0000000180034530     libucrt:output.obj
 0004:0000153c       $pdata$_seh_filter_exe     000000018003453c     libucrt:exception_filter.obj
 0004:00001548       $pdata$?try_cor_exit_process@@YAXI@Z 0000000180034548     libucrt:exit.obj
 0004:00001554       $pdata$?exit_or_terminate_process@@YAXI@Z 0000000180034554     libucrt:exit.obj
 0004:00001560       $pdata$?common_exit@@YAXHW4_crt_exit_cleanup_mode@@W4_crt_exit_return_mode@@@Z 0000000180034560     libucrt:exit.obj
 0004:0000156c       $pdata$?filt$0@?0??common_exit@@YAXHW4_crt_exit_cleanup_mode@@W4_crt_exit_return_mode@@@Z@4HA 000000018003456c     libucrt:exit.obj
 0004:00001578       $pdata$?fin$1@?0??common_exit@@YAXHW4_crt_exit_cleanup_mode@@W4_crt_exit_return_mode@@@Z@4HA 0000000180034578     libucrt:exit.obj
 0004:00001584       $pdata$_configure_narrow_argv 0000000180034584     libucrt:argv_parsing.obj
 0004:00001590       $pdata$__acrt_allocate_buffer_for_argv 0000000180034590     libucrt:argv_parsing.obj
 0004:0000159c       $pdata$??$parse_command_line@D@@YAXPEADPEAPEAD0PEA_K2@Z 000000018003459c     libucrt:argv_parsing.obj
 0004:000015a8       $pdata$__dcrt_uninitialize_environments_nolock 00000001800345a8     libucrt:environment_initialization.obj
 0004:000015b4       $pdata$??$common_initialize_environment_nolock@D@@YAHXZ 00000001800345b4     libucrt:environment_initialization.obj
 0004:000015c0       $pdata$??$uninitialize_environment_internal@D@@YAXAEAPEAPEAD@Z 00000001800345c0     libucrt:environment_initialization.obj
 0004:000015cc       $pdata$??$uninitialize_environment_internal@_W@@YAXAEAPEAPEA_W@Z 00000001800345cc     libucrt:environment_initialization.obj
 0004:000015d8       $pdata$??$free_environment@D@@YAXQEAPEAD@Z 00000001800345d8     libucrt:environment_initialization.obj
 0004:000015d8       $pdata$??$free_environment@_W@@YAXQEAPEA_W@Z 00000001800345d8     libucrt:environment_initialization.obj
 0004:000015e4       $pdata$??$create_environment@D@@YAQEAPEADQEAD@Z 00000001800345e4     libucrt:environment_initialization.obj
 0004:000015f0       $pdata$_register_onexit_function 00000001800345f0     libucrt:onexit.obj
 0004:000015fc       $pdata$_execute_onexit_table 00000001800345fc     libucrt:onexit.obj
 0004:00001608       $pdata$??R<lambda_4e60a939b0d047cfe11ddc22648dfba9>@@QEBAHXZ 0000000180034608     libucrt:onexit.obj
 0004:00001614       $pdata$??$?RV<lambda_b8c45f8f788dd370798f47cfe8ac3a86>@@AEAV<lambda_4e60a939b0d047cfe11ddc22648dfba9>@@V<lambda_332c3edc96d0294ec56c57d38c1cdfd5>@@@?$__crt_seh_guarded_call@H@@QEAAH$$QEAV<lambda_b8c45f8f788dd370798f47cfe8ac3a86>@@AEAV<lambda_4e60a939b0d047cfe11ddc22648dfba9>@@$$QEAV<lambda_332c3edc96d0294ec56c57d38c1cdfd5>@@@Z 0000000180034614     libucrt:onexit.obj
 0004:00001620       $pdata$?fin$0@?0???$?RV<lambda_99476a1ad63dd22509b5d3e65b0ffc95>@@AEAV<lambda_ad1ced32f4ac17aa236e5ef05d6b3b7c>@@V<lambda_f7424dd8d45958661754dc4f2697e9c3>@@@?$__crt_seh_guarded_call@X@@QEAAX$$QEAV<lambda_99476a1ad63dd22509b5d3e65b0ffc95>@@AEAV<lambda_ad1ced32f4ac17aa236e5ef05d6b3b7c>@@$$QEAV<lambda_f7424dd8d45958661754dc4f2697e9c3>@@@Z@4HA 0000000180034620     libucrt:mbctype.obj
 0004:00001620       $pdata$?fin$0@?0???$?RV<lambda_b8c45f8f788dd370798f47cfe8ac3a86>@@AEAV<lambda_4e60a939b0d047cfe11ddc22648dfba9>@@V<lambda_332c3edc96d0294ec56c57d38c1cdfd5>@@@?$__crt_seh_guarded_call@H@@QEAAH$$QEAV<lambda_b8c45f8f788dd370798f47cfe8ac3a86>@@AEAV<lambda_4e60a939b0d047cfe11ddc22648dfba9>@@$$QEAV<lambda_332c3edc96d0294ec56c57d38c1cdfd5>@@@Z@4HA 0000000180034620     libucrt:onexit.obj
 0004:00001620       $pdata$?fin$0@?0???$?RV<lambda_46352004c1216016012b18bd6f87e700>@@AEAV<lambda_3bd07e1a1191394380780325891bf33f>@@V<lambda_334532d3f185bcaa59b5be82d7d22bff>@@@?$__crt_seh_guarded_call@X@@QEAAX$$QEAV<lambda_46352004c1216016012b18bd6f87e700>@@AEAV<lambda_3bd07e1a1191394380780325891bf33f>@@$$QEAV<lambda_334532d3f185bcaa59b5be82d7d22bff>@@@Z@4HA 0000000180034620     libucrt:per_thread_data.obj
 0004:00001620       $pdata$?fin$0@?0???$?RV<lambda_c36588078e9f5dfd39652860aa6b3aaf>@@AEAV<lambda_ec61778202f4f5fc7e7711acc23c3bca>@@V<lambda_dc9d2797ccde5d239b4a0efae8ebd7db>@@@?$__crt_seh_guarded_call@P6AXH@Z@@QEAAP6AXH@Z$$QEAV<lambda_c36588078e9f5dfd39652860aa6b3aaf>@@AEAV<lambda_ec61778202f4f5fc7e7711acc23c3bca>@@$$QEAV<lambda_dc9d2797ccde5d239b4a0efae8ebd7db>@@@Z@4HA 0000000180034620     libucrt:signal.obj
 0004:00001620       $pdata$?fin$0@?0???$?RV<lambda_fb3a7dec4e47f37f22dae91bb15c9095>@@AEAV<lambda_698284760c8add0bfb0756c19673e34b>@@V<lambda_dfb8eca1e75fef3034a8fb18dd509707>@@@?$__crt_seh_guarded_call@X@@QEAAX$$QEAV<lambda_fb3a7dec4e47f37f22dae91bb15c9095>@@AEAV<lambda_698284760c8add0bfb0756c19673e34b>@@$$QEAV<lambda_dfb8eca1e75fef3034a8fb18dd509707>@@@Z@4HA 0000000180034620     libucrt:per_thread_data.obj
 0004:00001620       $pdata$?fin$0@?0???$?RV<lambda_5e887d1dcbef67a5eb4283622ba103bf>@@AEAV<lambda_4466841279450cc726390878d4a41900>@@V<lambda_341c25c0346d94847f1f3c463c57e077>@@@?$__crt_seh_guarded_call@X@@QEAAX$$QEAV<lambda_5e887d1dcbef67a5eb4283622ba103bf>@@AEAV<lambda_4466841279450cc726390878d4a41900>@@$$QEAV<lambda_341c25c0346d94847f1f3c463c57e077>@@@Z@4HA 0000000180034620     libucrt:per_thread_data.obj
 0004:00001620       $pdata$?fin$0@?0???$?RV<lambda_72d1df2b273a38828b1ce30cbf4cdab5>@@AEAV<lambda_876a65b173b8412d3a47c70a915b0cf4>@@V<lambda_41932305e351933ebe8f8be3ed8bb5dc>@@@?$__crt_seh_guarded_call@X@@QEAAX$$QEAV<lambda_72d1df2b273a38828b1ce30cbf4cdab5>@@AEAV<lambda_876a65b173b8412d3a47c70a915b0cf4>@@$$QEAV<lambda_41932305e351933ebe8f8be3ed8bb5dc>@@@Z@4HA 0000000180034620     libucrt:per_thread_data.obj
 0004:0000162c       $pdata$??$?RV<lambda_e24bbb7b643b32fcea6fa61b31d4c984>@@AEAV<lambda_275893d493268fdec8709772e3fcec0e>@@V<lambda_9d71df4d7cf3f480f8d633942495c3b0>@@@?$__crt_seh_guarded_call@H@@QEAAH$$QEAV<lambda_e24bbb7b643b32fcea6fa61b31d4c984>@@AEAV<lambda_275893d493268fdec8709772e3fcec0e>@@$$QEAV<lambda_9d71df4d7cf3f480f8d633942495c3b0>@@@Z 000000018003462c     libucrt:onexit.obj
 0004:00001638       $pdata$?fin$0@?0???$?RV<lambda_e24bbb7b643b32fcea6fa61b31d4c984>@@AEAV<lambda_275893d493268fdec8709772e3fcec0e>@@V<lambda_9d71df4d7cf3f480f8d633942495c3b0>@@@?$__crt_seh_guarded_call@H@@QEAAH$$QEAV<lambda_e24bbb7b643b32fcea6fa61b31d4c984>@@AEAV<lambda_275893d493268fdec8709772e3fcec0e>@@$$QEAV<lambda_9d71df4d7cf3f480f8d633942495c3b0>@@@Z@4HA 0000000180034638     libucrt:onexit.obj
 0004:00001644       $pdata$__acrt_uninitialize_critical 0000000180034644     libucrt:initialization.obj
 0004:00001650       $pdata$__acrt_thread_attach 0000000180034650     libucrt:initialization.obj
 0004:0000165c       $pdata$__acrt_thread_detach 000000018003465c     libucrt:initialization.obj
 0004:00001668       $pdata$initialize_c        0000000180034668     libucrt:initialization.obj
 0004:00001674       $pdata$uninitialize_environment 0000000180034674     libucrt:initialization.obj
 0004:00001680       $pdata$initialize_pointers 0000000180034680     libucrt:initialization.obj
 0004:0000168c       $pdata$uninitialize_allocated_memory 000000018003468c     libucrt:initialization.obj
 0004:00001698       $pdata$_initterm           0000000180034698     libucrt:initterm.obj
 0004:000016a4       $pdata$_initterm_e         00000001800346a4     libucrt:initterm.obj
 0004:000016b0       $pdata$_callnewh           00000001800346b0     libucrt:new_handler.obj
 0004:000016bc       $pdata$_query_new_handler  00000001800346bc     libucrt:new_handler.obj
 0004:000016c8       $pdata$_query_new_handler$fin$0 00000001800346c8     libucrt:new_handler.obj
 0004:000016d4       $pdata$terminate           00000001800346d4     libucrt:terminate.obj
 0004:000016e0       $pdata$abort               00000001800346e0     libucrt:abort.obj
 0004:000016ec       $pdata$strcpy_s            00000001800346ec     libucrt:strcpy_s.obj
 0004:000016f8       $pdata$??$parse_integer@KV?$c_string_character_source@_W@__crt_strtox@@@__crt_strtox@@YAKQEAU__crt_locale_pointers@@V?$c_string_character_source@_W@0@H_N@Z 00000001800346f8     libucrt:atox.obj
 0004:00001710       $pdata$_free_base          0000000180034710     libucrt:free_base.obj
 0004:0000171c       $pdata$__acrt_initialize_ptd 000000018003471c     libucrt:per_thread_data.obj
 0004:00001728       $pdata$__acrt_uninitialize_ptd 0000000180034728     libucrt:per_thread_data.obj
 0004:00001734       $pdata$__acrt_getptd       0000000180034734     libucrt:per_thread_data.obj
 0004:00001740       $pdata$__acrt_getptd_noexit 0000000180034740     libucrt:per_thread_data.obj
 0004:0000174c       $pdata$__acrt_freeptd      000000018003474c     libucrt:per_thread_data.obj
 0004:00001758       $pdata$?destroy_fls@@YAXPEAX@Z 0000000180034758     libucrt:per_thread_data.obj
 0004:00001764       $pdata$?replace_current_thread_locale_nolock@@YAXQEAU__acrt_ptd@@QEAU__crt_locale_data@@@Z 0000000180034764     libucrt:per_thread_data.obj
 0004:00001770       $pdata$?construct_ptd_array@@YAXQEAU__acrt_ptd@@@Z 0000000180034770     libucrt:per_thread_data.obj
 0004:0000177c       $pdata$?destroy_ptd_array@@YAXQEAU__acrt_ptd@@@Z 000000018003477c     libucrt:per_thread_data.obj
 0004:00001788       $pdata$??$?RV<lambda_72d1df2b273a38828b1ce30cbf4cdab5>@@AEAV<lambda_876a65b173b8412d3a47c70a915b0cf4>@@V<lambda_41932305e351933ebe8f8be3ed8bb5dc>@@@?$__crt_seh_guarded_call@X@@QEAAX$$QEAV<lambda_72d1df2b273a38828b1ce30cbf4cdab5>@@AEAV<lambda_876a65b173b8412d3a47c70a915b0cf4>@@$$QEAV<lambda_41932305e351933ebe8f8be3ed8bb5dc>@@@Z 0000000180034788     libucrt:per_thread_data.obj
 0004:00001794       $pdata$??$?RV<lambda_5e887d1dcbef67a5eb4283622ba103bf>@@AEAV<lambda_4466841279450cc726390878d4a41900>@@V<lambda_341c25c0346d94847f1f3c463c57e077>@@@?$__crt_seh_guarded_call@X@@QEAAX$$QEAV<lambda_5e887d1dcbef67a5eb4283622ba103bf>@@AEAV<lambda_4466841279450cc726390878d4a41900>@@$$QEAV<lambda_341c25c0346d94847f1f3c463c57e077>@@@Z 0000000180034794     libucrt:per_thread_data.obj
 0004:000017a0       $pdata$??$?RV<lambda_46352004c1216016012b18bd6f87e700>@@AEAV<lambda_3bd07e1a1191394380780325891bf33f>@@V<lambda_334532d3f185bcaa59b5be82d7d22bff>@@@?$__crt_seh_guarded_call@X@@QEAAX$$QEAV<lambda_46352004c1216016012b18bd6f87e700>@@AEAV<lambda_3bd07e1a1191394380780325891bf33f>@@$$QEAV<lambda_334532d3f185bcaa59b5be82d7d22bff>@@@Z 00000001800347a0     libucrt:per_thread_data.obj
 0004:000017ac       $pdata$??$?RV<lambda_fb3a7dec4e47f37f22dae91bb15c9095>@@AEAV<lambda_698284760c8add0bfb0756c19673e34b>@@V<lambda_dfb8eca1e75fef3034a8fb18dd509707>@@@?$__crt_seh_guarded_call@X@@QEAAX$$QEAV<lambda_fb3a7dec4e47f37f22dae91bb15c9095>@@AEAV<lambda_698284760c8add0bfb0756c19673e34b>@@$$QEAV<lambda_dfb8eca1e75fef3034a8fb18dd509707>@@@Z 00000001800347ac     libucrt:per_thread_data.obj
 0004:000017b8       $pdata$_calloc_base        00000001800347b8     libucrt:calloc_base.obj
 0004:000017c4       $pdata$_malloc_base        00000001800347c4     libucrt:malloc_base.obj
 0004:000017d0       $pdata$_msize              00000001800347d0     libucrt:msize.obj
 0004:000017dc       $pdata$_realloc_base       00000001800347dc     libucrt:realloc_base.obj
 0004:000017e8       $pdata$__acrt_FlsAlloc     00000001800347e8     libucrt:winapi_thunks.obj
 0004:000017f4       $pdata$__acrt_FlsFree      00000001800347f4     libucrt:winapi_thunks.obj
 0004:00001800       $pdata$__acrt_FlsGetValue  0000000180034800     libucrt:winapi_thunks.obj
 0004:0000180c       $pdata$__acrt_FlsSetValue  000000018003480c     libucrt:winapi_thunks.obj
 0004:00001818       $pdata$__acrt_initialize_winapi_thunks 0000000180034818     libucrt:winapi_thunks.obj
 0004:00001824       $pdata$__acrt_uninitialize_winapi_thunks 0000000180034824     libucrt:winapi_thunks.obj
 0004:00001830       $pdata$__acrt_InitializeCriticalSectionEx 0000000180034830     libucrt:winapi_thunks.obj
 0004:0000183c       $pdata$__acrt_LCMapStringEx 000000018003483c     libucrt:winapi_thunks.obj
 0004:00001848       $pdata$__acrt_LocaleNameToLCID 0000000180034848     libucrt:winapi_thunks.obj
 0004:00001854       $pdata$__acrt_SetThreadStackGuarantee 0000000180034854     libucrt:winapi_thunks.obj
 0004:00001860       $pdata$__acrt_is_packaged_app 0000000180034860     libucrt:winapi_thunks.obj
 0004:0000186c       $pdata$?try_get_function@@YAPEAXW4function_id@?A0x63058377@@QEBDQEBW4module_id@2@2@Z 000000018003486c     libucrt:winapi_thunks.obj
 0004:00001878       $pdata$isdigit             0000000180034878     libucrt:_ctype.obj
 0004:00001884       $pdata$tolower             0000000180034884     libucrt:tolower_toupper.obj
 0004:00001890       $pdata$_tolower_l          0000000180034890     libucrt:tolower_toupper.obj
 0004:0000189c       $pdata$?internal_isupper_l@@YA_NHQEAU__crt_locale_pointers@@@Z 000000018003489c     libucrt:tolower_toupper.obj
 0004:000018a8       $pdata$wcstol              00000001800348a8     libucrt:strtox.obj
 0004:000018b4       $pdata$_mbtowc_l           00000001800348b4     libucrt:mbtowc.obj
 0004:000018c0       $pdata$wcsnlen             00000001800348c0     libucrt:strnlen.obj
 0004:000018cc       $pdata$__acrt_update_locale_info 00000001800348cc     libucrt:locale_update.obj
 0004:000018d8       $pdata$__acrt_update_multibyte_info 00000001800348d8     libucrt:locale_update.obj
 0004:000018e4       $pdata$__acrt_fp_format    00000001800348e4     libucrt:cvt.obj
 0004:000018f0       $pdata$?fp_format_nan_or_infinity@@YAHW4__acrt_fp_class@@_NPEAD_K1@Z 00000001800348f0     libucrt:cvt.obj
 0004:000018fc       $pdata$?fp_format_e_internal@@YAHQEAD_KH_NIQEAU_strflt@@2QEAU__crt_locale_pointers@@@Z 00000001800348fc     libucrt:cvt.obj
 0004:00001908       $pdata$?fp_format_e@@YAHQEBNQEAD_K12H_NIQEAU__crt_locale_pointers@@@Z 0000000180034908     libucrt:cvt.obj
