 OPOSSoundPlayer

 Timestamp is 61a757c9 (Wed Dec  1 20:08:57 2021)

 Preferred load address is 0000000180000000

 Start         Length     Name                   Class
 0001:00000000 000000c0H .text$di                CODE
 0001:000000c0 00023b70H .text$mn                CODE
 0001:00023c30 00000040H .text$mn$00             CODE
 0001:00023c70 00000660H .text$x                 CODE
 0001:000242d0 00000078H .text$yd                CODE
 0002:00000000 00000638H .idata$5                DATA
 0002:00000638 00000030H .00cfg                  DATA
 0002:00000668 00000008H .CRT$XCA                DATA
 0002:00000670 00000008H .CRT$XCL                DATA
 0002:00000678 00000020H .CRT$XCU                DATA
 0002:00000698 00000008H .CRT$XCZ                DATA
 0002:000006a0 00000008H .CRT$XIA                DATA
 0002:000006a8 00000020H .CRT$XIC                DATA
 0002:000006c8 00000008H .CRT$XIZ                DATA
 0002:000006d0 00000008H .CRT$XLA                DATA
 0002:000006d8 00000008H .CRT$XLZ                DATA
 0002:000006e0 00000008H .CRT$XPA                DATA
 0002:000006e8 00000010H .CRT$XPX                DATA
 0002:000006f8 00000008H .CRT$XPXA               DATA
 0002:00000700 00000008H .CRT$XPZ                DATA
 0002:00000708 00000008H .CRT$XTA                DATA
 0002:00000710 00000010H .CRT$XTZ                DATA
 0002:00000718 00000000H .gehcont$y              DATA
 0002:00000718 00000000H .gfids$y                DATA
 0002:00000720 0000a3e0H .rdata                  DATA
 0002:0000ab00 00000000H .rdata$CastGuardVftablesA DATA
 0002:0000ab00 00000000H .rdata$CastGuardVftablesC DATA
 0002:0000ab00 00000028H .rdata$T                DATA
 0002:0000ab28 00000274H .rdata$r                DATA
 0002:0000ad9c 00000048H .rdata$voltmd           DATA
 0002:0000ade4 00000434H .rdata$zzzdbg           DATA
 0002:0000b218 00000008H .rtc$IAA                DATA
 0002:0000b220 00000008H .rtc$IZZ                DATA
 0002:0000b228 00000008H .rtc$TAA                DATA
 0002:0000b230 00000008H .rtc$TZZ                DATA
 0002:0000b238 00000004H .tls                    DATA
 0002:0000b23c 00000004H .tls$                   DATA
 0002:0000b240 00000008H .tls$ZZZ                DATA
 0002:0000b248 00001920H .xdata                  DATA
 0002:0000cb68 00000150H .xdata$x                DATA
 0002:0000ccb8 00000008H ATL$__a                 DATA
 0002:0000ccc0 00000010H ATL$__z                 DATA
 0002:0000ccd0 000000acH .edata                  DATA
 0002:0000cd7c 00000078H .idata$2                DATA
 0002:0000cdf4 00000014H .idata$3                DATA
 0002:0000ce08 00000638H .idata$4                DATA
 0002:0000d440 00000c5cH .idata$6                DATA
 0003:00000000 00000d58H .data                   DATA
 0003:00000d58 000000a8H .data$r                 DATA
 0003:00000e00 00000020H .data$rs                DATA
 0003:00000e20 000013ecH .bss                    DATA
 0004:00000000 00001fe0H .pdata                  DATA
 0005:00000000 000000f4H _RDATA                  DATA
 0006:00000000 00000220H .rsrc$01                DATA
 0006:00000220 00003af0H .rsrc$02                DATA

  Address         Publics by Value              Rva+Base               Lib:Object

 0000:00000000       __x64_code_ranges_to_entry_points 0000000000000000     <absolute>
 0000:00000000       __x64_code_ranges_to_entry_points_count 0000000000000000     <absolute>
 0000:00000000       __guard_longjmp_table      0000000000000000     <absolute>
 0000:00000000       __guard_fids_count         0000000000000000     <absolute>
 0000:00000000       __arm64x_redirection_metadata 0000000000000000     <absolute>
 0000:00000000       __arm64x_extra_rfe_table   0000000000000000     <absolute>
 0000:00000000       __guard_iat_table          0000000000000000     <absolute>
 0000:00000000       __hybrid_code_map          0000000000000000     <absolute>
 0000:00000000       __arm64x_extra_rfe_table_size 0000000000000000     <absolute>
 0000:00000000       ___safe_se_handler_count   0000000000000000     <absolute>
 0000:00000000       __guard_iat_count          0000000000000000     <absolute>
 0000:00000000       __guard_longjmp_count      0000000000000000     <absolute>
 0000:00000000       ___safe_se_handler_table   0000000000000000     <absolute>
 0000:00000000       __dynamic_value_reloc_table 0000000000000000     <absolute>
 0000:00000000       __hybrid_auxiliary_iat     0000000000000000     <absolute>
 0000:00000000       __hybrid_auxiliary_iat_copy 0000000000000000     <absolute>
 0000:00000000       __AbsoluteZero             0000000000000000     <absolute>
 0000:00000000       __guard_eh_cont_count      0000000000000000     <absolute>
 0000:00000000       __guard_check_icall_a64n_fptr 0000000000000000     <absolute>
 0000:00000000       __guard_fids_table         0000000000000000     <absolute>
 0000:00000000       __arm64x_redirection_metadata_count 0000000000000000     <absolute>
 0000:00000000       __enclave_config           0000000000000000     <absolute>
 0000:00000000       __guard_eh_cont_table      0000000000000000     <absolute>
 0000:00000000       __arm64x_native_entrypoint 0000000000000000     <absolute>
 0000:00000000       __hybrid_code_map_count    0000000000000000     <absolute>
 0000:00000100       __guard_flags              0000000000000100     <absolute>
 0000:00000000       __ImageBase                0000000180000000     <linker-defined>
 0001:000000c0       ?DupWide@_CW@@AEAAXXZ      00000001800010c0 f   CWString.obj
 0001:000000e8       ?cw_dup@@YAXPEBDAEAHAEAPEA_W1@Z 00000001800010e8 f   CWString.obj
 0001:000001c8       ?cw_memcpy@@YAHPEA_WPEBDH@Z 00000001800011c8 f   CWString.obj
 0001:00000214       ?cw_strcpy@@YAHPEA_WPEBD@Z 0000000180001214 f   CWString.obj
 0001:00000228       ??0CAtlComModule@ATL@@QEAA@XZ 0000000180001228 f i OposVariant.obj
 0001:000002a8       ??0CAtlWinModule@ATL@@QEAA@XZ 00000001800012a8 f i OposVariant.obj
 0001:00000314       ??0OposDispParms@@QEAA@PEAVOposVariant@@H@Z 0000000180001314 f   OposVariant.obj
 0001:000003bc       ??1OposDispParms@@QEAA@XZ  00000001800013bc f   OposVariant.obj
 0001:000003d4       ??_Estringdispid@CComTypeInfoHolder@ATL@@QEAAPEAXI@Z 00000001800013d4 f i OposVariant.obj
 0001:00000478       ?AtlWinModuleTerm@ATL@@YAJPEAU_ATL_WIN_MODULE70@1@PEAUHINSTANCE__@@@Z 0000000180001478 f i OposVariant.obj
 0001:00000528       ?ChangeBSTR@OposVariant@@QEAAXPEAPEA_WAEAJ@Z 0000000180001528 f   OposVariant.obj
 0001:00000588       ?ChangeLONG@OposVariant@@QEAAXPEAJAEAJ@Z 0000000180001588 f   OposVariant.obj
 0001:000005e4       ?GetLONG@OposVariant@@QEAAJXZ 00000001800015e4 f   OposVariant.obj
 0001:00000608       ?SetBSTR@OposVariant@@QEAAXPEA_WAEAJ@Z 0000000180001608 f   OposVariant.obj
 0001:00000648       ?SetBSTR_Copy@OposVariant@@QEAAXPEA_WAEAJ@Z 0000000180001648 f   OposVariant.obj
 0001:000006b8       ?SetBSTR_InOutPtr@OposVariant@@QEAA_NPEAPEA_WAEAJ@Z 00000001800016b8 f   OposVariant.obj
 0001:00000708       ?SetDispatch_Ptr@OposVariant@@QEAAXPEAUIDispatch@@AEAJ@Z 0000000180001708 f   OposVariant.obj
 0001:00000760       ?SetLONG@OposVariant@@QEAAXJ@Z 0000000180001760 f   OposVariant.obj
 0001:00000790       ?SetLONG_Ptr@OposVariant@@QEAAXPEAJAEAJ@Z 0000000180001790 f   OposVariant.obj
 0001:000007dc       ?SetString@OposVariant@@QEAAXPEB_WAEAJ@Z 00000001800017dc f   OposVariant.obj
 0001:00000840       ?SetVARIANT_BOOL@OposVariant@@QEAAXF@Z 0000000180001840 f   OposVariant.obj
 0001:00000878       ?Term@CAtlComModule@ATL@@QEAAXXZ 0000000180001878 f i OposVariant.obj
 0001:000008e8       ?_AtlInitializeCriticalSectionEx@ATL@@YAHPEAU_RTL_CRITICAL_SECTION@@KK@Z 00000001800018e8 f i OposVariant.obj
 0001:000008f0       ?_AtlRaiseException@ATL@@YAXKK@Z 00000001800018f0 f i OposVariant.obj
 0001:00000900       ?Next@?$CComEnumImpl@UIEnumConnections@@$1?_GUID_b196b287_bab4_101a_b69c_00aa00341d07@@3U__s_GUID@@BUtagCONNECTDATA@@V?$_Copy@UtagCONNECTDATA@@@ATL@@@ATL@@UEAAJKPEAUtagCONNECTDATA@@PEAK@Z 0000000180001900 f i SoundPlayer.obj
 0001:000009c8       ?Skip@?$CComEnumImpl@UIEnumConnections@@$1?_GUID_b196b287_bab4_101a_b69c_00aa00341d07@@3U__s_GUID@@BUtagCONNECTDATA@@V?$_Copy@UtagCONNECTDATA@@@ATL@@@ATL@@UEAAJK@Z 00000001800019c8 f i SoundPlayer.obj
 0001:000009f4       ?Reset@?$CComEnumImpl@UIEnumConnections@@$1?_GUID_b196b287_bab4_101a_b69c_00aa00341d07@@3U__s_GUID@@BUtagCONNECTDATA@@V?$_Copy@UtagCONNECTDATA@@@ATL@@@ATL@@UEAAJXZ 00000001800019f4 f i SoundPlayer.obj
 0001:000009f4       ?Reset@?$CComEnumImpl@UIEnumConnectionPoints@@$1?_GUID_b196b285_bab4_101a_b69c_00aa00341d07@@3U__s_GUID@@BPEAUIConnectionPoint@@V?$_CopyInterface@UIConnectionPoint@@@ATL@@@ATL@@UEAAJXZ 00000001800019f4 f i SoundPlayer.obj
 0001:00000a00       ?Clone@?$CComEnumImpl@UIEnumConnections@@$1?_GUID_b196b287_bab4_101a_b69c_00aa00341d07@@3U__s_GUID@@BUtagCONNECTDATA@@V?$_Copy@UtagCONNECTDATA@@@ATL@@@ATL@@UEAAJPEAPEAUIEnumConnections@@@Z 0000000180001a00 f i SoundPlayer.obj
 0001:00000b2c       ?AddRef@?$CComObject@V?$CComEnum@UIEnumConnections@@$1?_GUID_b196b287_bab4_101a_b69c_00aa00341d07@@3U__s_GUID@@BUtagCONNECTDATA@@V?$_Copy@UtagCONNECTDATA@@@ATL@@VCComSingleThreadModel@6@@ATL@@@ATL@@UEAAKXZ 0000000180001b2c f i SoundPlayer.obj
 0001:00000b2c       ?AddRef@?$CComObject@V?$CComEnum@UIEnumConnectionPoints@@$1?_GUID_b196b285_bab4_101a_b69c_00aa00341d07@@3U__s_GUID@@BPEAUIConnectionPoint@@V?$_CopyInterface@UIConnectionPoint@@@ATL@@VCComSingleThreadModel@6@@ATL@@@ATL@@UEAAKXZ 0000000180001b2c f i SoundPlayer.obj
 0001:00000b38       ?Release@?$CComObject@V?$CComEnum@UIEnumConnections@@$1?_GUID_b196b287_bab4_101a_b69c_00aa00341d07@@3U__s_GUID@@BUtagCONNECTDATA@@V?$_Copy@UtagCONNECTDATA@@@ATL@@VCComSingleThreadModel@6@@ATL@@@ATL@@UEAAKXZ 0000000180001b38 f i SoundPlayer.obj
 0001:00000b38       ?Release@?$CComObject@V?$CComEnum@UIEnumConnectionPoints@@$1?_GUID_b196b285_bab4_101a_b69c_00aa00341d07@@3U__s_GUID@@BPEAUIConnectionPoint@@V?$_CopyInterface@UIConnectionPoint@@@ATL@@VCComSingleThreadModel@6@@ATL@@@ATL@@UEAAKXZ 0000000180001b38 f i SoundPlayer.obj
 0001:00000b8c       ?QueryInterface@?$CComObject@V?$CComEnum@UIEnumConnections@@$1?_GUID_b196b287_bab4_101a_b69c_00aa00341d07@@3U__s_GUID@@BUtagCONNECTDATA@@V?$_Copy@UtagCONNECTDATA@@@ATL@@VCComSingleThreadModel@6@@ATL@@@ATL@@UEAAJAEBU_GUID@@PEAPEAX@Z 0000000180001b8c f i SoundPlayer.obj
 0001:00000ba0       ??_E?$CComObject@V?$CComEnum@UIEnumConnections@@$1?_GUID_b196b287_bab4_101a_b69c_00aa00341d07@@3U__s_GUID@@BUtagCONNECTDATA@@V?$_Copy@UtagCONNECTDATA@@@ATL@@VCComSingleThreadModel@6@@ATL@@@ATL@@UEAAPEAXI@Z 0000000180001ba0 f i SoundPlayer.obj
 0001:00000ba0       ??_G?$CComObject@V?$CComEnum@UIEnumConnections@@$1?_GUID_b196b287_bab4_101a_b69c_00aa00341d07@@3U__s_GUID@@BUtagCONNECTDATA@@V?$_Copy@UtagCONNECTDATA@@@ATL@@VCComSingleThreadModel@6@@ATL@@@ATL@@UEAAPEAXI@Z 0000000180001ba0 f i SoundPlayer.obj
 0001:00000bf8       _guard_check_icall_nop     0000000180001bf8 f i LIBCMT:guard_support.obj
 0001:00000bf8       ?ObjectMain@CComObjectRootBase@ATL@@SAX_N@Z 0000000180001bf8 f i SoundPlayer.obj
 0001:00000bf8       ?OnFinalMessage@?$CWindowImplBaseT@VCWindow@ATL@@V?$CWinTraits@$0FGAAAAAA@$0A@@2@@ATL@@UEAAXPEAUHWND__@@@Z 0000000180001bf8 f i SoundPlayer.obj
 0001:00000bfc       ?SetHostNames@?$IOleObjectImpl@VCOPOSSoundPlayer@@@ATL@@UEAAJPEB_W0@Z 0000000180001bfc f i SoundPlayer.obj
 0001:00000bfc       ?IsUpToDate@?$IOleObjectImpl@VCOPOSSoundPlayer@@@ATL@@UEAAJXZ 0000000180001bfc f i SoundPlayer.obj
 0001:00000bfc       ?HandsOffStorage@?$IPersistStorageImpl@VCOPOSSoundPlayer@@@ATL@@UEAAJXZ 0000000180001bfc f i SoundPlayer.obj
 0001:00000bfc       ?Release@CRegObject@ATL@@UEAAKXZ 0000000180001bfc f i SoundPlayer.obj
 0001:00000bfc       ?SaveCompleted@?$IPersistStorageImpl@VCOPOSSoundPlayer@@@ATL@@UEAAJPEAUIStorage@@@Z 0000000180001bfc f i SoundPlayer.obj
 0001:00000bfc       ?GetCategoryMap@CComObjectRootBase@ATL@@SAPEBU_ATL_CATMAP_ENTRY@2@XZ 0000000180001bfc f i SoundPlayer.obj
 0001:00000bfc       ?EnableModeless@?$IOleInPlaceActiveObjectImpl@VCOPOSSoundPlayer@@@ATL@@UEAAJH@Z 0000000180001bfc f i SoundPlayer.obj
 0001:00000bfc       ?OnAmbientPropertyChange@?$IOleControlImpl@VCOPOSSoundPlayer@@@ATL@@UEAAJJ@Z 0000000180001bfc f i SoundPlayer.obj
 0001:00000bfc       ?GetObjectDescription@?$CComCoClass@VCOPOSSoundPlayer@@$1?CLSID_OPOSSoundPlayer@@3U_GUID@@B@ATL@@SAPEB_WXZ 0000000180001bfc f i SoundPlayer.obj
 0001:00000bfc       ?OnFrameWindowActivate@?$IOleInPlaceActiveObjectImpl@VCOPOSSoundPlayer@@@ATL@@UEAAJH@Z 0000000180001bfc f i SoundPlayer.obj
 0001:00000bfc       ?ResizeBorder@?$IOleInPlaceActiveObjectImpl@VCOPOSSoundPlayer@@@ATL@@UEAAJPEBUtagRECT@@PEAUIOleInPlaceUIWindow@@H@Z 0000000180001bfc f i SoundPlayer.obj
 0001:00000bfc       ?Update@?$IOleObjectImpl@VCOPOSSoundPlayer@@@ATL@@UEAAJXZ 0000000180001bfc f i SoundPlayer.obj
 0001:00000c00       ??_E?$CComObject@VCOPOSSoundPlayer@@@ATL@@W7EAAPEAXI@Z 0000000180001c00 f i SoundPlayer.obj
 0001:00000c0c       ??_E?$CComObject@VCOPOSSoundPlayer@@@ATL@@WHA@EAAPEAXI@Z 0000000180001c0c f i SoundPlayer.obj
 0001:00000c18       ?QueryInterface@?$CComObject@VCOPOSSoundPlayer@@@ATL@@WLI@EAAJAEBU_GUID@@PEAPEAX@Z 0000000180001c18 f i SoundPlayer.obj
 0001:00000c24       ?AddRef@?$CComObject@VCOPOSSoundPlayer@@@ATL@@WLI@EAAKXZ 0000000180001c24 f i SoundPlayer.obj
 0001:00000c30       ?Release@?$CComObject@VCOPOSSoundPlayer@@@ATL@@WLI@EAAKXZ 0000000180001c30 f i SoundPlayer.obj
 0001:00000c3c       ?QueryInterface@?$CComObject@VCOPOSSoundPlayer@@@ATL@@WMA@EAAJAEBU_GUID@@PEAPEAX@Z 0000000180001c3c f i SoundPlayer.obj
 0001:00000c48       ?AddRef@?$CComObject@VCOPOSSoundPlayer@@@ATL@@WMA@EAAKXZ 0000000180001c48 f i SoundPlayer.obj
 0001:00000c54       ?Release@?$CComObject@VCOPOSSoundPlayer@@@ATL@@WMA@EAAKXZ 0000000180001c54 f i SoundPlayer.obj
 0001:00000c60       ?QueryInterface@?$CComObject@VCOPOSSoundPlayer@@@ATL@@WMI@EAAJAEBU_GUID@@PEAPEAX@Z 0000000180001c60 f i SoundPlayer.obj
 0001:00000c6c       ?AddRef@?$CComObject@VCOPOSSoundPlayer@@@ATL@@WMI@EAAKXZ 0000000180001c6c f i SoundPlayer.obj
 0001:00000c78       ?Release@?$CComObject@VCOPOSSoundPlayer@@@ATL@@WMI@EAAKXZ 0000000180001c78 f i SoundPlayer.obj
 0001:00000c84       ?QueryInterface@?$CComObject@VCOPOSSoundPlayer@@@ATL@@WNA@EAAJAEBU_GUID@@PEAPEAX@Z 0000000180001c84 f i SoundPlayer.obj
 0001:00000c90       ?AddRef@?$CComObject@VCOPOSSoundPlayer@@@ATL@@WNA@EAAKXZ 0000000180001c90 f i SoundPlayer.obj
 0001:00000c9c       ?Release@?$CComObject@VCOPOSSoundPlayer@@@ATL@@WNA@EAAKXZ 0000000180001c9c f i SoundPlayer.obj
 0001:00000ca8       ?QueryInterface@?$CComObject@VCOPOSSoundPlayer@@@ATL@@WNI@EAAJAEBU_GUID@@PEAPEAX@Z 0000000180001ca8 f i SoundPlayer.obj
 0001:00000cb4       ?AddRef@?$CComObject@VCOPOSSoundPlayer@@@ATL@@WNI@EAAKXZ 0000000180001cb4 f i SoundPlayer.obj
 0001:00000cc0       ?Release@?$CComObject@VCOPOSSoundPlayer@@@ATL@@WNI@EAAKXZ 0000000180001cc0 f i SoundPlayer.obj
 0001:00000ccc       ?QueryInterface@?$CComObject@VCOPOSSoundPlayer@@@ATL@@WOA@EAAJAEBU_GUID@@PEAPEAX@Z 0000000180001ccc f i SoundPlayer.obj
 0001:00000cd8       ?AddRef@?$CComObject@VCOPOSSoundPlayer@@@ATL@@WOA@EAAKXZ 0000000180001cd8 f i SoundPlayer.obj
 0001:00000ce4       ?Release@?$CComObject@VCOPOSSoundPlayer@@@ATL@@WOA@EAAKXZ 0000000180001ce4 f i SoundPlayer.obj
 0001:00000cf0       ?QueryInterface@?$CComObject@VCOPOSSoundPlayer@@@ATL@@WOI@EAAJAEBU_GUID@@PEAPEAX@Z 0000000180001cf0 f i SoundPlayer.obj
 0001:00000cfc       ?AddRef@?$CComObject@VCOPOSSoundPlayer@@@ATL@@WOI@EAAKXZ 0000000180001cfc f i SoundPlayer.obj
 0001:00000d08       ?Release@?$CComObject@VCOPOSSoundPlayer@@@ATL@@WOI@EAAKXZ 0000000180001d08 f i SoundPlayer.obj
 0001:00000d14       ?QueryInterface@?$CComObject@VCOPOSSoundPlayer@@@ATL@@WPA@EAAJAEBU_GUID@@PEAPEAX@Z 0000000180001d14 f i SoundPlayer.obj
 0001:00000d20       ?AddRef@?$CComObject@VCOPOSSoundPlayer@@@ATL@@WPA@EAAKXZ 0000000180001d20 f i SoundPlayer.obj
 0001:00000d2c       ?Release@?$CComObject@VCOPOSSoundPlayer@@@ATL@@WPA@EAAKXZ 0000000180001d2c f i SoundPlayer.obj
 0001:00000d38       ?QueryInterface@?$CComObject@VCOPOSSoundPlayer@@@ATL@@WPI@EAAJAEBU_GUID@@PEAPEAX@Z 0000000180001d38 f i SoundPlayer.obj
 0001:00000d44       ?AddRef@?$CComObject@VCOPOSSoundPlayer@@@ATL@@WPI@EAAKXZ 0000000180001d44 f i SoundPlayer.obj
 0001:00000d50       ?Release@?$CComObject@VCOPOSSoundPlayer@@@ATL@@WPI@EAAKXZ 0000000180001d50 f i SoundPlayer.obj
 0001:00000d5c       ?QueryInterface@?$CComObject@VCOPOSSoundPlayer@@@ATL@@WBAA@EAAJAEBU_GUID@@PEAPEAX@Z 0000000180001d5c f i SoundPlayer.obj
 0001:00000d68       ?AddRef@?$CComObject@VCOPOSSoundPlayer@@@ATL@@WBAA@EAAKXZ 0000000180001d68 f i SoundPlayer.obj
 0001:00000d74       ?Release@?$CComObject@VCOPOSSoundPlayer@@@ATL@@WBAA@EAAKXZ 0000000180001d74 f i SoundPlayer.obj
 0001:00000d80       ?QueryInterface@?$CComObject@VCOPOSSoundPlayer@@@ATL@@WBAI@EAAJAEBU_GUID@@PEAPEAX@Z 0000000180001d80 f i SoundPlayer.obj
 0001:00000d8c       ?AddRef@?$CComObject@VCOPOSSoundPlayer@@@ATL@@WBAI@EAAKXZ 0000000180001d8c f i SoundPlayer.obj
 0001:00000d98       ?Release@?$CComObject@VCOPOSSoundPlayer@@@ATL@@WBAI@EAAKXZ 0000000180001d98 f i SoundPlayer.obj
 0001:00000da4       ?QueryInterface@?$CComObject@VCOPOSSoundPlayer@@@ATL@@WBBA@EAAJAEBU_GUID@@PEAPEAX@Z 0000000180001da4 f i SoundPlayer.obj
 0001:00000db0       ?AddRef@?$CComObject@VCOPOSSoundPlayer@@@ATL@@WBBA@EAAKXZ 0000000180001db0 f i SoundPlayer.obj
 0001:00000dbc       ?Release@?$CComObject@VCOPOSSoundPlayer@@@ATL@@WBBA@EAAKXZ 0000000180001dbc f i SoundPlayer.obj
 0001:00000dc8       ?QueryInterface@?$CComObject@VCOPOSSoundPlayer@@@ATL@@WBBI@EAAJAEBU_GUID@@PEAPEAX@Z 0000000180001dc8 f i SoundPlayer.obj
 0001:00000dd4       ?AddRef@?$CComObject@VCOPOSSoundPlayer@@@ATL@@WBBI@EAAKXZ 0000000180001dd4 f i SoundPlayer.obj
 0001:00000de0       ?Release@?$CComObject@VCOPOSSoundPlayer@@@ATL@@WBBI@EAAKXZ 0000000180001de0 f i SoundPlayer.obj
 0001:00000dec       ?AddRef@?$CComObject@VCOPOSSoundPlayer@@@ATL@@WBCI@EAAKXZ 0000000180001dec f i SoundPlayer.obj
 0001:00000df8       ?Release@?$CComObject@VCOPOSSoundPlayer@@@ATL@@WBCI@EAAKXZ 0000000180001df8 f i SoundPlayer.obj
 0001:00000e04       ?AddRef@?$CComObject@VCOPOSSoundPlayer@@@ATL@@WBEA@EAAKXZ 0000000180001e04 f i SoundPlayer.obj
 0001:00000e10       ?Release@?$CComObject@VCOPOSSoundPlayer@@@ATL@@WBEA@EAAKXZ 0000000180001e10 f i SoundPlayer.obj
 0001:00000e1c       ??_E?$CComContainedObject@VCOPOSSoundPlayer@@@ATL@@W7EAAPEAXI@Z 0000000180001e1c f i SoundPlayer.obj
 0001:00000e28       ??_E?$CComContainedObject@VCOPOSSoundPlayer@@@ATL@@WHA@EAAPEAXI@Z 0000000180001e28 f i SoundPlayer.obj
 0001:00000e34       ?QueryInterface@?$CComContainedObject@VCOPOSSoundPlayer@@@ATL@@WLI@EAAJAEBU_GUID@@PEAPEAX@Z 0000000180001e34 f i SoundPlayer.obj
 0001:00000e40       ?AddRef@?$CComContainedObject@VCOPOSSoundPlayer@@@ATL@@WLI@EAAKXZ 0000000180001e40 f i SoundPlayer.obj
 0001:00000e4c       ?Release@?$CComContainedObject@VCOPOSSoundPlayer@@@ATL@@WLI@EAAKXZ 0000000180001e4c f i SoundPlayer.obj
 0001:00000e58       ?QueryInterface@?$CComContainedObject@VCOPOSSoundPlayer@@@ATL@@WMA@EAAJAEBU_GUID@@PEAPEAX@Z 0000000180001e58 f i SoundPlayer.obj
 0001:00000e64       ?AddRef@?$CComContainedObject@VCOPOSSoundPlayer@@@ATL@@WMA@EAAKXZ 0000000180001e64 f i SoundPlayer.obj
 0001:00000e70       ?Release@?$CComContainedObject@VCOPOSSoundPlayer@@@ATL@@WMA@EAAKXZ 0000000180001e70 f i SoundPlayer.obj
 0001:00000e7c       ?QueryInterface@?$CComContainedObject@VCOPOSSoundPlayer@@@ATL@@WMI@EAAJAEBU_GUID@@PEAPEAX@Z 0000000180001e7c f i SoundPlayer.obj
 0001:00000e88       ?AddRef@?$CComContainedObject@VCOPOSSoundPlayer@@@ATL@@WMI@EAAKXZ 0000000180001e88 f i SoundPlayer.obj
 0001:00000e94       ?Release@?$CComContainedObject@VCOPOSSoundPlayer@@@ATL@@WMI@EAAKXZ 0000000180001e94 f i SoundPlayer.obj
 0001:00000ea0       ?QueryInterface@?$CComContainedObject@VCOPOSSoundPlayer@@@ATL@@WNA@EAAJAEBU_GUID@@PEAPEAX@Z 0000000180001ea0 f i SoundPlayer.obj
 0001:00000eac       ?AddRef@?$CComContainedObject@VCOPOSSoundPlayer@@@ATL@@WNA@EAAKXZ 0000000180001eac f i SoundPlayer.obj
 0001:00000eb8       ?Release@?$CComContainedObject@VCOPOSSoundPlayer@@@ATL@@WNA@EAAKXZ 0000000180001eb8 f i SoundPlayer.obj
 0001:00000ec4       ?QueryInterface@?$CComContainedObject@VCOPOSSoundPlayer@@@ATL@@WNI@EAAJAEBU_GUID@@PEAPEAX@Z 0000000180001ec4 f i SoundPlayer.obj
 0001:00000ed0       ?AddRef@?$CComContainedObject@VCOPOSSoundPlayer@@@ATL@@WNI@EAAKXZ 0000000180001ed0 f i SoundPlayer.obj
 0001:00000edc       ?Release@?$CComContainedObject@VCOPOSSoundPlayer@@@ATL@@WNI@EAAKXZ 0000000180001edc f i SoundPlayer.obj
 0001:00000ee8       ?QueryInterface@?$CComContainedObject@VCOPOSSoundPlayer@@@ATL@@WOA@EAAJAEBU_GUID@@PEAPEAX@Z 0000000180001ee8 f i SoundPlayer.obj
 0001:00000ef4       ?AddRef@?$CComContainedObject@VCOPOSSoundPlayer@@@ATL@@WOA@EAAKXZ 0000000180001ef4 f i SoundPlayer.obj
 0001:00000f00       ?Release@?$CComContainedObject@VCOPOSSoundPlayer@@@ATL@@WOA@EAAKXZ 0000000180001f00 f i SoundPlayer.obj
 0001:00000f0c       ?QueryInterface@?$CComContainedObject@VCOPOSSoundPlayer@@@ATL@@WOI@EAAJAEBU_GUID@@PEAPEAX@Z 0000000180001f0c f i SoundPlayer.obj
 0001:00000f18       ?AddRef@?$CComContainedObject@VCOPOSSoundPlayer@@@ATL@@WOI@EAAKXZ 0000000180001f18 f i SoundPlayer.obj
 0001:00000f24       ?Release@?$CComContainedObject@VCOPOSSoundPlayer@@@ATL@@WOI@EAAKXZ 0000000180001f24 f i SoundPlayer.obj
 0001:00000f30       ?QueryInterface@?$CComContainedObject@VCOPOSSoundPlayer@@@ATL@@WPA@EAAJAEBU_GUID@@PEAPEAX@Z 0000000180001f30 f i SoundPlayer.obj
 0001:00000f3c       ?AddRef@?$CComContainedObject@VCOPOSSoundPlayer@@@ATL@@WPA@EAAKXZ 0000000180001f3c f i SoundPlayer.obj
 0001:00000f48       ?Release@?$CComContainedObject@VCOPOSSoundPlayer@@@ATL@@WPA@EAAKXZ 0000000180001f48 f i SoundPlayer.obj
 0001:00000f54       ?QueryInterface@?$CComContainedObject@VCOPOSSoundPlayer@@@ATL@@WPI@EAAJAEBU_GUID@@PEAPEAX@Z 0000000180001f54 f i SoundPlayer.obj
 0001:00000f60       ?AddRef@?$CComContainedObject@VCOPOSSoundPlayer@@@ATL@@WPI@EAAKXZ 0000000180001f60 f i SoundPlayer.obj
 0001:00000f6c       ?Release@?$CComContainedObject@VCOPOSSoundPlayer@@@ATL@@WPI@EAAKXZ 0000000180001f6c f i SoundPlayer.obj
 0001:00000f78       ?QueryInterface@?$CComContainedObject@VCOPOSSoundPlayer@@@ATL@@WBAA@EAAJAEBU_GUID@@PEAPEAX@Z 0000000180001f78 f i SoundPlayer.obj
 0001:00000f84       ?AddRef@?$CComContainedObject@VCOPOSSoundPlayer@@@ATL@@WBAA@EAAKXZ 0000000180001f84 f i SoundPlayer.obj
 0001:00000f90       ?Release@?$CComContainedObject@VCOPOSSoundPlayer@@@ATL@@WBAA@EAAKXZ 0000000180001f90 f i SoundPlayer.obj
 0001:00000f9c       ?QueryInterface@?$CComContainedObject@VCOPOSSoundPlayer@@@ATL@@WBAI@EAAJAEBU_GUID@@PEAPEAX@Z 0000000180001f9c f i SoundPlayer.obj
 0001:00000fa8       ?AddRef@?$CComContainedObject@VCOPOSSoundPlayer@@@ATL@@WBAI@EAAKXZ 0000000180001fa8 f i SoundPlayer.obj
 0001:00000fb4       ?Release@?$CComContainedObject@VCOPOSSoundPlayer@@@ATL@@WBAI@EAAKXZ 0000000180001fb4 f i SoundPlayer.obj
 0001:00000fc0       ?QueryInterface@?$CComContainedObject@VCOPOSSoundPlayer@@@ATL@@WBBA@EAAJAEBU_GUID@@PEAPEAX@Z 0000000180001fc0 f i SoundPlayer.obj
 0001:00000fcc       ?AddRef@?$CComContainedObject@VCOPOSSoundPlayer@@@ATL@@WBBA@EAAKXZ 0000000180001fcc f i SoundPlayer.obj
 0001:00000fd8       ?Release@?$CComContainedObject@VCOPOSSoundPlayer@@@ATL@@WBBA@EAAKXZ 0000000180001fd8 f i SoundPlayer.obj
 0001:00000fe4       ?QueryInterface@?$CComContainedObject@VCOPOSSoundPlayer@@@ATL@@WBBI@EAAJAEBU_GUID@@PEAPEAX@Z 0000000180001fe4 f i SoundPlayer.obj
 0001:00000ff0       ?AddRef@?$CComContainedObject@VCOPOSSoundPlayer@@@ATL@@WBBI@EAAKXZ 0000000180001ff0 f i SoundPlayer.obj
 0001:00000ffc       ?Release@?$CComContainedObject@VCOPOSSoundPlayer@@@ATL@@WBBI@EAAKXZ 0000000180001ffc f i SoundPlayer.obj
 0001:00001008       ?AddRef@?$CComContainedObject@VCOPOSSoundPlayer@@@ATL@@WBCI@EAAKXZ 0000000180002008 f i SoundPlayer.obj
 0001:00001014       ?Release@?$CComContainedObject@VCOPOSSoundPlayer@@@ATL@@WBCI@EAAKXZ 0000000180002014 f i SoundPlayer.obj
 0001:00001020       ?AddRef@?$CComContainedObject@VCOPOSSoundPlayer@@@ATL@@WBEA@EAAKXZ 0000000180002020 f i SoundPlayer.obj
 0001:0000102c       ?Release@?$CComContainedObject@VCOPOSSoundPlayer@@@ATL@@WBEA@EAAKXZ 000000018000202c f i SoundPlayer.obj
 0001:00001038       ?CreateInstance@CComClassFactory@ATL@@UEAAJPEAUIUnknown@@AEBU_GUID@@PEAPEAX@Z 0000000180002038 f i SoundPlayer.obj
 0001:00001098       ?LockServer@CComClassFactory@ATL@@UEAAJH@Z 0000000180002098 f i SoundPlayer.obj
 0001:000010bc       ??_GCComClassFactory@ATL@@UEAAPEAXI@Z 00000001800020bc f i SoundPlayer.obj
 0001:000010bc       ??_ECComClassFactory@ATL@@UEAAPEAXI@Z 00000001800020bc f i SoundPlayer.obj
 0001:0000110c       ?GetWindowProc@?$CWindowImplBaseT@VCWindow@ATL@@V?$CWinTraits@$0FGAAAAAA@$0A@@2@@ATL@@UEAAP6A_JPEAUHWND__@@I_K_J@ZXZ 000000018000210c f i SoundPlayer.obj
 0001:00001114       ?StartWindowProc@?$CWindowImplBaseT@VCWindow@ATL@@V?$CWinTraits@$0FGAAAAAA@$0A@@2@@ATL@@SA_JPEAUHWND__@@I_K_J@Z 0000000180002114 f i SoundPlayer.obj
 0001:000011c8       ?GetTypeInfoCount@?$IDispatchImpl@UIOPOSSoundPlayer@@$1?IID_IOPOSSoundPlayer@@3U_GUID@@B$1?LIBID_OposSoundPlayer_CCO@@3U3@B$00$0A@VCComTypeInfoHolder@ATL@@@ATL@@UEAAJPEAI@Z 00000001800021c8 f i SoundPlayer.obj
 0001:000011dc       ?GetTypeInfo@?$IDispatchImpl@UIOPOSSoundPlayer@@$1?IID_IOPOSSoundPlayer@@3U_GUID@@B$1?LIBID_OposSoundPlayer_CCO@@3U3@B$00$0A@VCComTypeInfoHolder@ATL@@@ATL@@UEAAJIKPEAPEAUITypeInfo@@@Z 00000001800021dc f i SoundPlayer.obj
 0001:00001240       ?GetIDsOfNames@?$IDispatchImpl@UIOPOSSoundPlayer@@$1?IID_IOPOSSoundPlayer@@3U_GUID@@B$1?LIBID_OposSoundPlayer_CCO@@3U3@B$00$0A@VCComTypeInfoHolder@ATL@@@ATL@@UEAAJAEBU_GUID@@PEAPEA_WIKPEAJ@Z 0000000180002240 f i SoundPlayer.obj
 0001:0000124c       ?Invoke@?$IDispatchImpl@UIOPOSSoundPlayer@@$1?IID_IOPOSSoundPlayer@@3U_GUID@@B$1?LIBID_OposSoundPlayer_CCO@@3U3@B$00$0A@VCComTypeInfoHolder@ATL@@@ATL@@UEAAJJAEBU_GUID@@KGPEAUtagDISPPARAMS@@PEAUtagVARIANT@@PEAUtagEXCEPINFO@@PEAI@Z 000000018000224c f i SoundPlayer.obj
 0001:000012dc       ?CreateControlWindow@?$CComControl@VCOPOSSoundPlayer@@V?$CWindowImpl@VCOPOSSoundPlayer@@VCWindow@ATL@@V?$CWinTraits@$0FGAAAAAA@$0A@@3@@ATL@@@ATL@@UEAAPEAUHWND__@@PEAU3@AEAUtagRECT@@@Z 00000001800022dc f i SoundPlayer.obj
 0001:00001314       ?ControlQueryInterface@?$CComControl@VCOPOSSoundPlayer@@V?$CWindowImpl@VCOPOSSoundPlayer@@VCWindow@ATL@@V?$CWinTraits@$0FGAAAAAA@$0A@@3@@ATL@@@ATL@@UEAAJAEBU_GUID@@PEAPEAX@Z 0000000180002314 f i SoundPlayer.obj
 0001:00001328       ?GetClassID@?$IPersistStreamInitImpl@VCOPOSSoundPlayer@@@ATL@@UEAAJPEAU_GUID@@@Z 0000000180002328 f i SoundPlayer.obj
 0001:00001328       ?GetClassID@?$IPersistStorageImpl@VCOPOSSoundPlayer@@@ATL@@UEAAJPEAU_GUID@@@Z 0000000180002328 f i SoundPlayer.obj
 0001:00001328       ?GetUserClassID@?$IOleObjectImpl@VCOPOSSoundPlayer@@@ATL@@UEAAJPEAU_GUID@@@Z 0000000180002328 f i SoundPlayer.obj
 0001:00001344       ?IsDirty@?$IPersistStreamInitImpl@VCOPOSSoundPlayer@@@ATL@@UEAAJXZ 0000000180002344 f i SoundPlayer.obj
 0001:00001360       ?Load@?$IPersistStreamInitImpl@VCOPOSSoundPlayer@@@ATL@@UEAAJPEAUIStream@@@Z 0000000180002360 f i SoundPlayer.obj
 0001:00001378       ?Save@?$IPersistStreamInitImpl@VCOPOSSoundPlayer@@@ATL@@UEAAJPEAUIStream@@H@Z 0000000180002378 f i SoundPlayer.obj
 0001:00001390       ?GetSizeMax@?$IPersistStreamInitImpl@VCOPOSSoundPlayer@@@ATL@@UEAAJPEAT_ULARGE_INTEGER@@@Z 0000000180002390 f i SoundPlayer.obj
 0001:000015b4       ?InitNew@?$IPersistStreamInitImpl@VCOPOSSoundPlayer@@@ATL@@UEAAJXZ 00000001800025b4 f i SoundPlayer.obj
 0001:000015cc       ?EnumFormatEtc@?$IDataObjectImpl@VCOPOSSoundPlayer@@@ATL@@UEAAJKPEAPEAUIEnumFORMATETC@@@Z 00000001800025cc f i SoundPlayer.obj
 0001:000015cc       ?GetCanonicalFormatEtc@?$IDataObjectImpl@VCOPOSSoundPlayer@@@ATL@@UEAAJPEAUtagFORMATETC@@0@Z 00000001800025cc f i SoundPlayer.obj
 0001:000015cc       ?SetMoniker@?$IOleObjectImpl@VCOPOSSoundPlayer@@@ATL@@UEAAJKPEAUIMoniker@@@Z 00000001800025cc f i SoundPlayer.obj
 0001:000015cc       ?GetDropTarget@?$IOleInPlaceObjectWindowlessImpl@VCOPOSSoundPlayer@@@ATL@@UEAAJPEAPEAUIDropTarget@@@Z 00000001800025cc f i SoundPlayer.obj
 0001:000015cc       ?SODataDummy@COPOSSoundPlayer@@MEAAJJ@Z 00000001800025cc f i SoundPlayer.obj
 0001:000015cc       ?GetControlInfo@?$IOleControlImpl@VCOPOSSoundPlayer@@@ATL@@UEAAJPEAUtagCONTROLINFO@@@Z 00000001800025cc f i SoundPlayer.obj
 0001:000015cc       ?SetData@?$IDataObjectImpl@VCOPOSSoundPlayer@@@ATL@@UEAAJPEAUtagFORMATETC@@PEAUtagSTGMEDIUM@@H@Z 00000001800025cc f i SoundPlayer.obj
 0001:000015cc       ?GetMoniker@?$IOleObjectImpl@VCOPOSSoundPlayer@@@ATL@@UEAAJKKPEAPEAUIMoniker@@@Z 00000001800025cc f i SoundPlayer.obj
 0001:000015cc       ?GetDataHere@?$IDataObjectImpl@VCOPOSSoundPlayer@@@ATL@@UEAAJPEAUtagFORMATETC@@PEAUtagSTGMEDIUM@@@Z 00000001800025cc f i SoundPlayer.obj
 0001:000015cc       ?QueryGetData@?$IDataObjectImpl@VCOPOSSoundPlayer@@@ATL@@UEAAJPEAUtagFORMATETC@@@Z 00000001800025cc f i SoundPlayer.obj
 0001:000015cc       ?GetRect@?$IViewObjectExImpl@VCOPOSSoundPlayer@@@ATL@@UEAAJKPEAU_RECTL@@@Z 00000001800025cc f i SoundPlayer.obj
 0001:000015cc       ?SetColorScheme@?$IOleObjectImpl@VCOPOSSoundPlayer@@@ATL@@UEAAJPEAUtagLOGPALETTE@@@Z 00000001800025cc f i SoundPlayer.obj
 0001:000015cc       ?GetColorSet@?$IViewObjectExImpl@VCOPOSSoundPlayer@@@ATL@@UEAAJKJPEAXPEAUtagDVTARGETDEVICE@@PEAUHDC__@@PEAPEAUtagLOGPALETTE@@@Z 00000001800025cc f i SoundPlayer.obj
 0001:000015cc       ?ContextSensitiveHelp@?$IOleInPlaceObjectWindowlessImpl@VCOPOSSoundPlayer@@@ATL@@UEAAJH@Z 00000001800025cc f i SoundPlayer.obj
 0001:000015cc       ?ContextSensitiveHelp@?$IOleInPlaceActiveObjectImpl@VCOPOSSoundPlayer@@@ATL@@UEAAJH@Z 00000001800025cc f i SoundPlayer.obj
 0001:000015cc       ?OnMnemonic@?$IOleControlImpl@VCOPOSSoundPlayer@@@ATL@@UEAAJPEAUtagMSG@@@Z 00000001800025cc f i SoundPlayer.obj
 0001:000015cc       ?QueryInterface@CRegObject@ATL@@UEAAJAEBU_GUID@@PEAPEAX@Z 00000001800025cc f i SoundPlayer.obj
 0001:000015cc       ?InitFromData@?$IOleObjectImpl@VCOPOSSoundPlayer@@@ATL@@UEAAJPEAUIDataObject@@HK@Z 00000001800025cc f i SoundPlayer.obj
 0001:000015cc       ?GetClipboardData@?$IOleObjectImpl@VCOPOSSoundPlayer@@@ATL@@UEAAJKPEAPEAUIDataObject@@@Z 00000001800025cc f i SoundPlayer.obj
 0001:000015cc       ?Unfreeze@?$IViewObjectExImpl@VCOPOSSoundPlayer@@@ATL@@UEAAJK@Z 00000001800025cc f i SoundPlayer.obj
 0001:000015cc       ?Freeze@?$IViewObjectExImpl@VCOPOSSoundPlayer@@@ATL@@UEAAJKJPEAXPEAK@Z 00000001800025cc f i SoundPlayer.obj
 0001:000015cc       ?ReactivateAndUndo@?$IOleInPlaceObjectWindowlessImpl@VCOPOSSoundPlayer@@@ATL@@UEAAJXZ 00000001800025cc f i SoundPlayer.obj
 0001:000015d4       ?SetClientSite@?$IOleObjectImpl@VCOPOSSoundPlayer@@@ATL@@UEAAJPEAUIOleClientSite@@@Z 00000001800025d4 f i SoundPlayer.obj
 0001:000015f0       ?GetClientSite@?$IOleObjectImpl@VCOPOSSoundPlayer@@@ATL@@UEAAJPEAPEAUIOleClientSite@@@Z 00000001800025f0 f i SoundPlayer.obj
 0001:00001638       ?Close@?$IOleObjectImpl@VCOPOSSoundPlayer@@@ATL@@UEAAJK@Z 0000000180002638 f i SoundPlayer.obj
 0001:00001654       ?DoVerb@?$IOleObjectImpl@VCOPOSSoundPlayer@@@ATL@@UEAAJJPEAUtagMSG@@PEAUIOleClientSite@@JPEAUHWND__@@PEBUtagRECT@@@Z 0000000180002654 f i SoundPlayer.obj
 0001:000017f8       ?EnumVerbs@?$IOleObjectImpl@VCOPOSSoundPlayer@@@ATL@@UEAAJPEAPEAUIEnumOLEVERB@@@Z 00000001800027f8 f i SoundPlayer.obj
 0001:00001814       ?GetUserType@?$IOleObjectImpl@VCOPOSSoundPlayer@@@ATL@@UEAAJKPEAPEA_W@Z 0000000180002814 f i SoundPlayer.obj
 0001:00001824       ?SetExtent@?$IOleObjectImpl@VCOPOSSoundPlayer@@@ATL@@UEAAJKPEAUtagSIZE@@@Z 0000000180002824 f i SoundPlayer.obj
 0001:00001840       ?GetExtent@?$IOleObjectImpl@VCOPOSSoundPlayer@@@ATL@@UEAAJKPEAUtagSIZE@@@Z 0000000180002840 f i SoundPlayer.obj
 0001:00001870       ?Advise@?$IOleObjectImpl@VCOPOSSoundPlayer@@@ATL@@UEAAJPEAUIAdviseSink@@PEAK@Z 0000000180002870 f i SoundPlayer.obj
 0001:000018cc       ?Unadvise@?$IOleObjectImpl@VCOPOSSoundPlayer@@@ATL@@UEAAJK@Z 00000001800028cc f i SoundPlayer.obj
 0001:00001904       ?EnumAdvise@?$IOleObjectImpl@VCOPOSSoundPlayer@@@ATL@@UEAAJPEAPEAUIEnumSTATDATA@@@Z 0000000180002904 f i SoundPlayer.obj
 0001:0000194c       ?GetMiscStatus@?$IOleObjectImpl@VCOPOSSoundPlayer@@@ATL@@UEAAJKPEAK@Z 000000018000294c f i SoundPlayer.obj
 0001:0000195c       ?GetWindow@?$IOleInPlaceActiveObjectImpl@VCOPOSSoundPlayer@@@ATL@@UEAAJPEAPEAUHWND__@@@Z 000000018000295c f i SoundPlayer.obj
 0001:000019b0       ?TranslateAcceleratorW@?$IOleInPlaceActiveObjectImpl@VCOPOSSoundPlayer@@@ATL@@UEAAJPEAUtagMSG@@@Z 00000001800029b0 f i SoundPlayer.obj
 0001:00001aa4       ?OnDocWindowActivate@?$IOleInPlaceActiveObjectImpl@VCOPOSSoundPlayer@@@ATL@@UEAAJH@Z 0000000180002aa4 f i SoundPlayer.obj
 0001:00001ad0       ?Draw@?$IViewObjectExImpl@VCOPOSSoundPlayer@@@ATL@@UEAAJKJPEAXPEAUtagDVTARGETDEVICE@@PEAUHDC__@@2PEBU_RECTL@@3P6AH_K@Z4@Z 0000000180002ad0 f i SoundPlayer.obj
 0001:00001b34       ?SetAdvise@?$IViewObjectExImpl@VCOPOSSoundPlayer@@@ATL@@UEAAJKKPEAUIAdviseSink@@@Z 0000000180002b34 f i SoundPlayer.obj
 0001:00001b88       ?GetAdvise@?$IViewObjectExImpl@VCOPOSSoundPlayer@@@ATL@@UEAAJPEAK0PEAPEAUIAdviseSink@@@Z 0000000180002b88 f i SoundPlayer.obj
 0001:00001bc4       ?GetExtent@?$IViewObjectExImpl@VCOPOSSoundPlayer@@@ATL@@UEAAJKJPEAUtagDVTARGETDEVICE@@PEAUtagSIZE@@@Z 0000000180002bc4 f i SoundPlayer.obj
 0001:00001bf4       ?GetViewStatus@?$IViewObjectExImpl@VCOPOSSoundPlayer@@@ATL@@UEAAJPEAK@Z 0000000180002bf4 f i SoundPlayer.obj
 0001:00001c08       ?QueryHitPoint@?$IViewObjectExImpl@VCOPOSSoundPlayer@@@ATL@@UEAAJKPEBUtagRECT@@UtagPOINT@@JPEAK@Z 0000000180002c08 f i SoundPlayer.obj
 0001:00001c4c       ?QueryHitRect@?$IViewObjectExImpl@VCOPOSSoundPlayer@@@ATL@@UEAAJKPEBUtagRECT@@0JPEAK@Z 0000000180002c4c f i SoundPlayer.obj
 0001:00001cb4       ?GetNaturalExtent@?$IViewObjectExImpl@VCOPOSSoundPlayer@@@ATL@@UEAAJKJPEAUtagDVTARGETDEVICE@@PEAUHDC__@@PEAUtagExtentInfo@@PEAUtagSIZE@@@Z 0000000180002cb4 f i SoundPlayer.obj
 0001:00001cfc       ?GetWindow@?$IOleInPlaceObjectWindowlessImpl@VCOPOSSoundPlayer@@@ATL@@UEAAJPEAPEAUHWND__@@@Z 0000000180002cfc f i SoundPlayer.obj
 0001:00001d50       ?InPlaceDeactivate@?$IOleInPlaceObjectWindowlessImpl@VCOPOSSoundPlayer@@@ATL@@UEAAJXZ 0000000180002d50 f i SoundPlayer.obj
 0001:00001d6c       ?UIDeactivate@?$IOleInPlaceObjectWindowlessImpl@VCOPOSSoundPlayer@@@ATL@@UEAAJXZ 0000000180002d6c f i SoundPlayer.obj
 0001:00001d88       ?SetObjectRects@?$IOleInPlaceObjectWindowlessImpl@VCOPOSSoundPlayer@@@ATL@@UEAAJPEBUtagRECT@@0@Z 0000000180002d88 f i SoundPlayer.obj
 0001:00001da4       ?OnWindowMessage@?$IOleInPlaceObjectWindowlessImpl@VCOPOSSoundPlayer@@@ATL@@UEAAJI_K_JPEA_J@Z 0000000180002da4 f i SoundPlayer.obj
 0001:00001e6c       ?EnumConnectionPoints@?$IConnectionPointContainerImpl@VCOPOSSoundPlayer@@@ATL@@UEAAJPEAPEAUIEnumConnectionPoints@@@Z 0000000180002e6c f i SoundPlayer.obj
 0001:000020b4       ?FindConnectionPoint@?$IConnectionPointContainerImpl@VCOPOSSoundPlayer@@@ATL@@UEAAJAEBU_GUID@@PEAPEAUIConnectionPoint@@@Z 00000001800030b4 f i SoundPlayer.obj
 0001:00002184       ?IsDirty@?$IPersistStorageImpl@VCOPOSSoundPlayer@@@ATL@@UEAAJXZ 0000000180003184 f i SoundPlayer.obj
 0001:000021c4       ?InitNew@?$IPersistStorageImpl@VCOPOSSoundPlayer@@@ATL@@UEAAJPEAUIStorage@@@Z 00000001800031c4 f i SoundPlayer.obj
 0001:00002204       ?Load@?$IPersistStorageImpl@VCOPOSSoundPlayer@@@ATL@@UEAAJPEAUIStorage@@@Z 0000000180003204 f i SoundPlayer.obj
 0001:000022a4       ?Save@?$IPersistStorageImpl@VCOPOSSoundPlayer@@@ATL@@UEAAJPEAUIStorage@@H@Z 00000001800032a4 f i SoundPlayer.obj
 0001:00002354       ?GetPages@?$ISpecifyPropertyPagesImpl@VCOPOSSoundPlayer@@@ATL@@UEAAJPEAUtagCAUUID@@@Z 0000000180003354 f i SoundPlayer.obj
 0001:00002360       ?QuickActivate@?$IQuickActivateImpl@VCOPOSSoundPlayer@@@ATL@@UEAAJPEAUtagQACONTAINER@@PEAUtagQACONTROL@@@Z 0000000180003360 f i SoundPlayer.obj
 0001:0000237c       ?SetContentExtent@?$IQuickActivateImpl@VCOPOSSoundPlayer@@@ATL@@UEAAJPEAUtagSIZE@@@Z 000000018000337c f i SoundPlayer.obj
 0001:000023b0       ?GetContentExtent@?$IQuickActivateImpl@VCOPOSSoundPlayer@@@ATL@@UEAAJPEAUtagSIZE@@@Z 00000001800033b0 f i SoundPlayer.obj
 0001:000023e8       ?GetData@?$IDataObjectImpl@VCOPOSSoundPlayer@@@ATL@@UEAAJPEAUtagFORMATETC@@PEAUtagSTGMEDIUM@@@Z 00000001800033e8 f i SoundPlayer.obj
 0001:00002404       ?DAdvise@?$IDataObjectImpl@VCOPOSSoundPlayer@@@ATL@@UEAAJPEAUtagFORMATETC@@KPEAUIAdviseSink@@PEAK@Z 0000000180003404 f i SoundPlayer.obj
 0001:0000248c       ?DUnadvise@?$IDataObjectImpl@VCOPOSSoundPlayer@@@ATL@@UEAAJK@Z 000000018000348c f i SoundPlayer.obj
 0001:000024b8       ?EnumDAdvise@?$IDataObjectImpl@VCOPOSSoundPlayer@@@ATL@@UEAAJPEAPEAUIEnumSTATDATA@@@Z 00000001800034b8 f i SoundPlayer.obj
 0001:000024f4       ?GetClassInfoW@?$IProvideClassInfo2Impl@$1?CLSID_OPOSSoundPlayer@@3U_GUID@@B$1?DIID__IOPOSSoundPlayerEvents@@3U2@B$1?LIBID_OposSoundPlayer_CCO@@3U2@B$00$0A@VCComTypeInfoHolder@ATL@@@ATL@@UEAAJPEAPEAUITypeInfo@@@Z 00000001800034f4 f i SoundPlayer.obj
 0001:0000254c       ?GetGUID@?$IProvideClassInfo2Impl@$1?CLSID_OPOSSoundPlayer@@3U_GUID@@B$1?DIID__IOPOSSoundPlayerEvents@@3U2@B$1?LIBID_OposSoundPlayer_CCO@@3U2@B$00$0A@VCComTypeInfoHolder@ATL@@@ATL@@UEAAJKPEAU_GUID@@@Z 000000018000354c f i SoundPlayer.obj
 0001:00002580       _get_startup_argv_mode     0000000180003580 f i LIBCMT:argv_mode.obj
 0001:00002580       ?AddRef@CRegObject@ATL@@UEAAKXZ 0000000180003580 f i SoundPlayer.obj
 0001:00002580       ?FAccessAllowed@?$IObjectSafetyImpl@VCOPOSSoundPlayer@@$02@ATL@@MEAAHXZ 0000000180003580 f i SoundPlayer.obj
 0001:00002588       ?GetInterfaceSafetyOptions@?$IObjectSafetyImpl@VCOPOSSoundPlayer@@$02@ATL@@UEAAJAEBU_GUID@@PEAK1@Z 0000000180003588 f i SoundPlayer.obj
 0001:0000261c       ?SetInterfaceSafetyOptions@?$IObjectSafetyImpl@VCOPOSSoundPlayer@@$02@ATL@@UEAAJAEBU_GUID@@KK@Z 000000018000361c f i SoundPlayer.obj
 0001:000026c0       ?_LocCPQueryInterface@?$IConnectionPointImpl@VCOPOSSoundPlayer@@$1?DIID__IOPOSSoundPlayerEvents@@3U_GUID@@BVCComDynamicUnkArray@ATL@@@ATL@@UEAAJAEBU_GUID@@PEAPEAX@Z 00000001800036c0 f i SoundPlayer.obj
 0001:000026c0       ?_LocCPQueryInterface@?$IConnectionPointImpl@VCOPOSSoundPlayer@@$1?IID_IPropertyNotifySink@@3U_GUID@@BVCComDynamicUnkArray@ATL@@@ATL@@UEAAJAEBU_GUID@@PEAPEAX@Z 00000001800036c0 f i SoundPlayer.obj
 0001:00002734       ?GetConnectionInterface@?$IConnectionPointImpl@VCOPOSSoundPlayer@@$1?IID_IPropertyNotifySink@@3U_GUID@@BVCComDynamicUnkArray@ATL@@@ATL@@UEAAJPEAU_GUID@@@Z 0000000180003734 f i SoundPlayer.obj
 0001:00002750       ?GetConnectionPointContainer@?$IConnectionPointImpl@VCOPOSSoundPlayer@@$1?IID_IPropertyNotifySink@@3U_GUID@@BVCComDynamicUnkArray@ATL@@@ATL@@UEAAJPEAPEAUIConnectionPointContainer@@@Z 0000000180003750 f i SoundPlayer.obj
 0001:00002770       ?Advise@?$IConnectionPointImpl@VCOPOSSoundPlayer@@$1?IID_IPropertyNotifySink@@3U_GUID@@BVCComDynamicUnkArray@ATL@@@ATL@@UEAAJPEAUIUnknown@@PEAK@Z 0000000180003770 f i SoundPlayer.obj
 0001:00002770       ?Advise@?$IConnectionPointImpl@VCOPOSSoundPlayer@@$1?DIID__IOPOSSoundPlayerEvents@@3U_GUID@@BVCComDynamicUnkArray@ATL@@@ATL@@UEAAJPEAUIUnknown@@PEAK@Z 0000000180003770 f i SoundPlayer.obj
 0001:0000282c       ?Unadvise@?$IConnectionPointImpl@VCOPOSSoundPlayer@@$1?DIID__IOPOSSoundPlayerEvents@@3U_GUID@@BVCComDynamicUnkArray@ATL@@@ATL@@UEAAJK@Z 000000018000382c f i SoundPlayer.obj
 0001:0000282c       ?Unadvise@?$IConnectionPointImpl@VCOPOSSoundPlayer@@$1?IID_IPropertyNotifySink@@3U_GUID@@BVCComDynamicUnkArray@ATL@@@ATL@@UEAAJK@Z 000000018000382c f i SoundPlayer.obj
 0001:00002894       ?EnumConnections@?$IConnectionPointImpl@VCOPOSSoundPlayer@@$1?DIID__IOPOSSoundPlayerEvents@@3U_GUID@@BVCComDynamicUnkArray@ATL@@@ATL@@UEAAJPEAPEAUIEnumConnections@@@Z 0000000180003894 f i SoundPlayer.obj
 0001:00002894       ?EnumConnections@?$IConnectionPointImpl@VCOPOSSoundPlayer@@$1?IID_IPropertyNotifySink@@3U_GUID@@BVCComDynamicUnkArray@ATL@@@ATL@@UEAAJPEAPEAUIEnumConnections@@@Z 0000000180003894 f i SoundPlayer.obj
 0001:00002a28       ?GetConnectionInterface@?$IConnectionPointImpl@VCOPOSSoundPlayer@@$1?DIID__IOPOSSoundPlayerEvents@@3U_GUID@@BVCComDynamicUnkArray@ATL@@@ATL@@UEAAJPEAU_GUID@@@Z 0000000180003a28 f i SoundPlayer.obj
 0001:00002a44       ?GetConnectionPointContainer@?$IConnectionPointImpl@VCOPOSSoundPlayer@@$1?DIID__IOPOSSoundPlayerEvents@@3U_GUID@@BVCComDynamicUnkArray@ATL@@@ATL@@UEAAJPEAPEAUIConnectionPointContainer@@@Z 0000000180003a44 f i SoundPlayer.obj
 0001:00002a64       ?Lock@CAtlModule@ATL@@UEAAJXZ 0000000180003a64 f i SoundPlayer.obj
 0001:00002a74       ?Unlock@CAtlModule@ATL@@UEAAJXZ 0000000180003a74 f i SoundPlayer.obj
 0001:00002a80       ?GetLockCount@CAtlModule@ATL@@UEAAJXZ 0000000180003a80 f i SoundPlayer.obj
 0001:00002a84       ?GetGITPtr@CAtlModule@ATL@@UEAAJPEAPEAUIGlobalInterfaceTable@@@Z 0000000180003a84 f i SoundPlayer.obj
 0001:00002af4       ?UpdateRegistry@COPOSSoundPlayer@@SAJH@Z 0000000180003af4 f i SoundPlayer.obj
 0001:00002b0c       ?ProcessWindowMessage@COPOSSoundPlayer@@UEAAHPEAUHWND__@@I_K_JAEA_JK@Z 0000000180003b0c f i SoundPlayer.obj
 0001:00002b9c       ?SODirectIO@COPOSSoundPlayer@@MEAAJJPEAJPEAPEA_W@Z 0000000180003b9c f i SoundPlayer.obj
 0001:00002c14       ?SOError@COPOSSoundPlayer@@MEAAJJJJPEAJ@Z 0000000180003c14 f i SoundPlayer.obj
 0001:00002c9c       ?SOOutputComplete@COPOSSoundPlayer@@MEAAJJ@Z 0000000180003c9c f i SoundPlayer.obj
 0001:00002cec       ?SOStatusUpdate@COPOSSoundPlayer@@MEAAJJ@Z 0000000180003cec f i SoundPlayer.obj
 0001:00002d3c       ?AddCommonRGSReplacements@?$CAtlModuleT@VCComModule@ATL@@@ATL@@UEAAJPEAUIRegistrarBase@@@Z 0000000180003d3c f i SoundPlayer.obj
 0001:00002d54       ?UpdateRegistryFromResourceD@CComModule@ATL@@UEAAJIHPEAU_ATL_REGMAP_ENTRY@2@@Z 0000000180003d54 f i SoundPlayer.obj
 0001:00002d54       ?UpdateRegistryFromResourceD@CComModule@ATL@@UEAAJPEB_WHPEAU_ATL_REGMAP_ENTRY@2@@Z 0000000180003d54 f i SoundPlayer.obj
 0001:00002d5c       ?UpdateRegistryFromResource@CComModule@ATL@@UEAAJPEB_WHPEAU_ATL_REGMAP_ENTRY@2@@Z 0000000180003d5c f i SoundPlayer.obj
 0001:00002d64       ?UpdateRegistryFromResource@CComModule@ATL@@UEAAJIHPEAU_ATL_REGMAP_ENTRY@2@@Z 0000000180003d64 f i SoundPlayer.obj
 0001:00002d6c       ??_ECComModule@ATL@@UEAAPEAXI@Z 0000000180003d6c f i SoundPlayer.obj
 0001:00002d6c       ??_GCComModule@ATL@@UEAAPEAXI@Z 0000000180003d6c f i SoundPlayer.obj
 0001:00002dac       ?CreateInstance@?$CComCreator@V?$CComObjectCached@VCComClassFactory@ATL@@@ATL@@@ATL@@SAJPEAXAEBU_GUID@@PEAPEAX@Z 0000000180003dac f i SoundPlayer.obj
 0001:00002ed0       ?CreateInstance@?$CComCreator2@V?$CComCreator@V?$CComObject@VCOPOSSoundPlayer@@@ATL@@@ATL@@V?$CComCreator@V?$CComAggObject@VCOPOSSoundPlayer@@@ATL@@@2@@ATL@@SAJPEAXAEBU_GUID@@PEAPEAX@Z 0000000180003ed0 f i SoundPlayer.obj
 0001:00002ee0       ?AddRef@?$CComObjectCached@VCComClassFactory@ATL@@@ATL@@UEAAKXZ 0000000180003ee0 f i SoundPlayer.obj
 0001:00002f0c       ?Release@?$CComObjectCached@VCComClassFactory@ATL@@@ATL@@UEAAKXZ 0000000180003f0c f i SoundPlayer.obj
 0001:00002f4c       ?QueryInterface@?$CComObjectCached@VCComClassFactory@ATL@@@ATL@@UEAAJAEBU_GUID@@PEAPEAX@Z 0000000180003f4c f i SoundPlayer.obj
 0001:00002f60       ??_G?$CComObjectCached@VCComClassFactory@ATL@@@ATL@@UEAAPEAXI@Z 0000000180003f60 f i SoundPlayer.obj
 0001:00002f60       ??_E?$CComObjectCached@VCComClassFactory@ATL@@@ATL@@UEAAPEAXI@Z 0000000180003f60 f i SoundPlayer.obj
 0001:00002fb8       ?Next@?$CComEnumImpl@UIEnumConnectionPoints@@$1?_GUID_b196b285_bab4_101a_b69c_00aa00341d07@@3U__s_GUID@@BPEAUIConnectionPoint@@V?$_CopyInterface@UIConnectionPoint@@@ATL@@@ATL@@UEAAJKPEAPEAUIConnectionPoint@@PEAK@Z 0000000180003fb8 f i SoundPlayer.obj
 0001:0000307c       ?Skip@?$CComEnumImpl@UIEnumConnectionPoints@@$1?_GUID_b196b285_bab4_101a_b69c_00aa00341d07@@3U__s_GUID@@BPEAUIConnectionPoint@@V?$_CopyInterface@UIConnectionPoint@@@ATL@@@ATL@@UEAAJK@Z 000000018000407c f i SoundPlayer.obj
 0001:000030a8       ?Clone@?$CComEnumImpl@UIEnumConnectionPoints@@$1?_GUID_b196b285_bab4_101a_b69c_00aa00341d07@@3U__s_GUID@@BPEAUIConnectionPoint@@V?$_CopyInterface@UIConnectionPoint@@@ATL@@@ATL@@UEAAJPEAPEAUIEnumConnectionPoints@@@Z 00000001800040a8 f i SoundPlayer.obj
 0001:000031d4       ?QueryInterface@?$CComObject@V?$CComEnum@UIEnumConnectionPoints@@$1?_GUID_b196b285_bab4_101a_b69c_00aa00341d07@@3U__s_GUID@@BPEAUIConnectionPoint@@V?$_CopyInterface@UIConnectionPoint@@@ATL@@VCComSingleThreadModel@6@@ATL@@@ATL@@UEAAJAEBU_GUID@@PEAPEAX@Z 00000001800041d4 f i SoundPlayer.obj
 0001:000031e8       ??_G?$CComObject@V?$CComEnum@UIEnumConnectionPoints@@$1?_GUID_b196b285_bab4_101a_b69c_00aa00341d07@@3U__s_GUID@@BPEAUIConnectionPoint@@V?$_CopyInterface@UIConnectionPoint@@@ATL@@VCComSingleThreadModel@6@@ATL@@@ATL@@UEAAPEAXI@Z 00000001800041e8 f i SoundPlayer.obj
 0001:000031e8       ??_E?$CComObject@V?$CComEnum@UIEnumConnectionPoints@@$1?_GUID_b196b285_bab4_101a_b69c_00aa00341d07@@3U__s_GUID@@BPEAUIConnectionPoint@@V?$_CopyInterface@UIConnectionPoint@@@ATL@@VCComSingleThreadModel@6@@ATL@@@ATL@@UEAAPEAXI@Z 00000001800041e8 f i SoundPlayer.obj
 0001:00003240       ?AddReplacement@CRegObject@ATL@@UEAAJPEB_W0@Z 0000000180004240 f i SoundPlayer.obj
 0001:00003270       ?ClearReplacements@CRegObject@ATL@@UEAAJXZ 0000000180004270 f i SoundPlayer.obj
 0001:0000327c       ??_GCRegObject@ATL@@UEAAPEAXI@Z 000000018000427c f i SoundPlayer.obj
 0001:0000327c       ??_ECRegObject@ATL@@UEAAPEAXI@Z 000000018000427c f i SoundPlayer.obj
 0001:000032fc       ?AddRef@?$CComAggObject@VCOPOSSoundPlayer@@@ATL@@UEAAKXZ 00000001800042fc f i SoundPlayer.obj
 0001:00003308       ?Release@?$CComAggObject@VCOPOSSoundPlayer@@@ATL@@UEAAKXZ 0000000180004308 f i SoundPlayer.obj
 0001:0000335c       ?QueryInterface@?$CComAggObject@VCOPOSSoundPlayer@@@ATL@@UEAAJAEBU_GUID@@PEAPEAX@Z 000000018000435c f i SoundPlayer.obj
 0001:000033bc       ?AddRef@?$CComContainedObject@VCOPOSSoundPlayer@@@ATL@@UEAAKXZ 00000001800043bc f i SoundPlayer.obj
 0001:000033cc       ?Release@?$CComContainedObject@VCOPOSSoundPlayer@@@ATL@@UEAAKXZ 00000001800043cc f i SoundPlayer.obj
 0001:000033dc       ?QueryInterface@?$CComContainedObject@VCOPOSSoundPlayer@@@ATL@@UEAAJAEBU_GUID@@PEAPEAX@Z 00000001800043dc f i SoundPlayer.obj
 0001:000033ec       ??_E?$CComAggObject@VCOPOSSoundPlayer@@@ATL@@UEAAPEAXI@Z 00000001800043ec f i SoundPlayer.obj
 0001:000033ec       ??_G?$CComAggObject@VCOPOSSoundPlayer@@@ATL@@UEAAPEAXI@Z 00000001800043ec f i SoundPlayer.obj
 0001:00003444       ?AddRef@?$CComObject@VCOPOSSoundPlayer@@@ATL@@UEAAKXZ 0000000180004444 f i SoundPlayer.obj
 0001:00003454       ?Release@?$CComObject@VCOPOSSoundPlayer@@@ATL@@UEAAKXZ 0000000180004454 f i SoundPlayer.obj
 0001:000034ac       ?QueryInterface@?$CComObject@VCOPOSSoundPlayer@@@ATL@@UEAAJAEBU_GUID@@PEAPEAX@Z 00000001800044ac f i SoundPlayer.obj
 0001:000034c0       ?OnDrawAdvanced@CComControlBase@ATL@@UEAAJAEAUATL_DRAWINFO@@@Z 00000001800044c0 f i SoundPlayer.obj
 0001:0000364c       ??$AtlModuleRegisterWndClassInfoT@VAtlModuleRegisterWndClassInfoParamW@ATL@@@ATL@@YAGPEAU_ATL_BASE_MODULE70@0@PEAU_ATL_WIN_MODULE70@0@PEAU_ATL_WNDCLASSINFOW@0@PEAP6A_JPEAUHWND__@@I_K_J@ZVAtlModuleRegisterWndClassInfoParamW@0@@Z 000000018000464c f i SoundPlayer.obj
 0001:0000384c       ??0?$CComContainedObject@VCOPOSSoundPlayer@@@ATL@@QEAA@PEAX@Z 000000018000484c f i SoundPlayer.obj
 0001:00003968       ??0?$CComObject@VCOPOSSoundPlayer@@@ATL@@QEAA@PEAX@Z 0000000180004968 f i SoundPlayer.obj
 0001:00003a80       ??0CAtlModule@ATL@@QEAA@XZ 0000000180004a80 f i SoundPlayer.obj
 0001:00003af4       ??1?$CComEnumImpl@UIEnumConnectionPoints@@$1?_GUID_b196b285_bab4_101a_b69c_00aa00341d07@@3U__s_GUID@@BPEAUIConnectionPoint@@V?$_CopyInterface@UIConnectionPoint@@@ATL@@@ATL@@UEAA@XZ 0000000180004af4 f i SoundPlayer.obj
 0001:00003b4c       ??1?$CComEnumImpl@UIEnumConnections@@$1?_GUID_b196b287_bab4_101a_b69c_00aa00341d07@@3U__s_GUID@@BUtagCONNECTDATA@@V?$_Copy@UtagCONNECTDATA@@@ATL@@@ATL@@UEAA@XZ 0000000180004b4c f i SoundPlayer.obj
 0001:00003ba4       ??1?$CComObject@VCOPOSSoundPlayer@@@ATL@@UEAA@XZ 0000000180004ba4 f i SoundPlayer.obj
 0001:00003cc4       ??_G?$CComContainedObject@VCOPOSSoundPlayer@@@ATL@@UEAAPEAXI@Z 0000000180004cc4 f i SoundPlayer.obj
 0001:00003cc4       ??_E?$CComContainedObject@VCOPOSSoundPlayer@@@ATL@@UEAAPEAXI@Z 0000000180004cc4 f i SoundPlayer.obj
 0001:00003cf8       ??_G?$CComObject@VCOPOSSoundPlayer@@@ATL@@UEAAPEAXI@Z 0000000180004cf8 f i SoundPlayer.obj
 0001:00003cf8       ??_E?$CComObject@VCOPOSSoundPlayer@@@ATL@@UEAAPEAXI@Z 0000000180004cf8 f i SoundPlayer.obj
 0001:00003d2c       ?Add@?$CSimpleArray@GV?$CSimpleArrayEqualHelper@G@ATL@@@ATL@@QEAAHAEBG@Z 0000000180004d2c f i SoundPlayer.obj
 0001:00003dcc       ?Add@?$CSimpleMap@PEA_WPEA_WVCExpansionVectorEqualHelper@ATL@@@ATL@@QEAAHAEBQEA_W0@Z 0000000180004dcc f i SoundPlayer.obj
 0001:00003e68       ?Add@CComDynamicUnkArray@ATL@@QEAAKPEAUIUnknown@@@Z 0000000180004e68 f i SoundPlayer.obj
 0001:00003f4c       ?Add@CExpansionVector@ATL@@QEAAHPEB_W0@Z 0000000180004f4c f i SoundPlayer.obj
 0001:00004080       ?AddTermFunc@CAtlModule@ATL@@QEAAJP6AX_K@Z0@Z 0000000180005080 f i SoundPlayer.obj
 0001:0000411c       ?AddValue@CRegParser@ATL@@IEAAJAEAVCRegKey@2@PEB_WPEA_W@Z 000000018000511c f i SoundPlayer.obj
 0001:0000452c       ?AllocateHeap@?$CTempBuffer@_W$0BAA@VCCRTAllocator@ATL@@@ATL@@AEAAX_K@Z 000000018000552c f i SoundPlayer.obj
 0001:0000452c       ?AllocateHeap@?$CTempBuffer@_W$0EAA@VCCRTAllocator@ATL@@@ATL@@AEAAX_K@Z 000000018000552c f i SoundPlayer.obj
 0001:0000452c       ?AllocateHeap@?$CTempBuffer@E$0BAA@VCCRTAllocator@ATL@@@ATL@@AEAAX_K@Z 000000018000552c f i SoundPlayer.obj
 0001:00004558       ?Append@CParseBuffer@CRegParser@ATL@@QEAAHPEB_WH@Z 0000000180005558 f i SoundPlayer.obj
 0001:0000468c       ?AtlComModuleGetClassObject@ATL@@YAJPEAU_ATL_COM_MODULE70@1@AEBU_GUID@@1PEAPEAX@Z 000000018000568c f i SoundPlayer.obj
 0001:000047c8       ?AtlComModuleRegisterServer@ATL@@YAJPEAU_ATL_COM_MODULE70@1@HPEBU_GUID@@@Z 00000001800057c8 f i SoundPlayer.obj
 0001:00004888       ?AtlComModuleUnregisterServer@ATL@@YAJPEAU_ATL_COM_MODULE70@1@HPEBU_GUID@@@Z 0000000180005888 f i SoundPlayer.obj
 0001:00004944       ?AtlHiMetricToPixel@ATL@@YAXPEBUtagSIZE@@PEAU2@@Z 0000000180005944 f i SoundPlayer.obj
 0001:000049f4       ?AtlHresultFromLastError@ATL@@YAJXZ 00000001800059f4 f i SoundPlayer.obj
 0001:00004a14       ?AtlHresultFromWin32@ATL@@YAJK@Z 0000000180005a14 f i SoundPlayer.obj
 0001:00004a24       ?AtlInternalOleLoadFromStream@ATL@@YAJPEAUIStream@@AEBU_GUID@@PEAPEAXTClassesAllowedInStream@1@K@Z 0000000180005a24 f i SoundPlayer.obj
 0001:00004b74       ?AtlInternalQueryInterface@ATL@@YAJPEAXPEBU_ATL_INTMAP_ENTRY@1@AEBU_GUID@@PEAPEAX@Z 0000000180005b74 f i SoundPlayer.obj
 0001:00004c7c       ?AtlLoadTypeLib@ATL@@YAJPEAUHINSTANCE__@@PEB_WPEAPEA_WPEAPEAUITypeLib@@@Z 0000000180005c7c f i SoundPlayer.obj
 0001:00004ed8       ?AtlRegisterClassCategoriesHelper@ATL@@YAJAEBU_GUID@@PEBU_ATL_CATMAP_ENTRY@1@H@Z 0000000180005ed8 f i SoundPlayer.obj
 0001:0000535c       ?AtlRegisterTypeLib@ATL@@YAJPEAUHINSTANCE__@@PEB_W@Z 000000018000635c f i SoundPlayer.obj
 0001:00005558       ?AtlThrowImpl@ATL@@YAXJ@Z  0000000180006558 f i SoundPlayer.obj
 0001:0000557c       ?AtlUnRegisterTypeLib@ATL@@YAJPEAUHINSTANCE__@@PEB_W@Z 000000018000657c f i SoundPlayer.obj
 0001:00005644       ?AtlWinModuleExtractCreateWndData@ATL@@YAPEAXPEAU_ATL_WIN_MODULE70@1@@Z 0000000180006644 f i SoundPlayer.obj
 0001:000056d0       ?ChToByte@CRegParser@ATL@@KAE_W@Z 00000001800066d0 f i SoundPlayer.obj
 0001:0000575c       ?Cleanup@CComTypeInfoHolder@ATL@@SAX_K@Z 000000018000675c f i SoundPlayer.obj
 0001:0000579c       ?ClearReplacements@CExpansionVector@ATL@@QEAAJXZ 000000018000679c f i SoundPlayer.obj
 0001:00005838       ?CreateInstance@?$CComCreator@V?$CComAggObject@VCOPOSSoundPlayer@@@ATL@@@ATL@@SAJPEAXAEBU_GUID@@PEAPEAX@Z 0000000180006838 f i SoundPlayer.obj
 0001:0000591c       ?CreateInstance@?$CComCreator@V?$CComObject@VCOPOSSoundPlayer@@@ATL@@@ATL@@SAJPEAXAEBU_GUID@@PEAPEAX@Z 000000018000691c f i SoundPlayer.obj
 0001:000059dc       ?CreateInstance@?$CComObject@V?$CComEnum@UIEnumConnectionPoints@@$1?_GUID_b196b285_bab4_101a_b69c_00aa00341d07@@3U__s_GUID@@BPEAUIConnectionPoint@@V?$_CopyInterface@UIConnectionPoint@@@ATL@@VCComSingleThreadModel@6@@ATL@@@ATL@@SAJPEAPEAV12@@Z 00000001800069dc f i SoundPlayer.obj
 0001:00005a6c       ?CreateInstance@?$CComObject@V?$CComEnum@UIEnumConnections@@$1?_GUID_b196b287_bab4_101a_b69c_00aa00341d07@@3U__s_GUID@@BUtagCONNECTDATA@@V?$_Copy@UtagCONNECTDATA@@@ATL@@VCComSingleThreadModel@6@@ATL@@@ATL@@SAJPEAPEAV12@@Z 0000000180006a6c f i SoundPlayer.obj
 0001:00005afc       ?DefaultReflectionHandler@?$CWindowImplRoot@VCWindow@ATL@@@ATL@@SAHPEAUHWND__@@I_K_JAEA_J@Z 0000000180006afc f i SoundPlayer.obj
 0001:00005b90       ?DeleteSubKey@CRegKey@ATL@@QEAAJPEB_W@Z 0000000180006b90 f i SoundPlayer.obj
 0001:00005c28       ?DoEvent@COPOSSoundPlayer@@IEAAXI_K_J@Z 0000000180006c28 f i SoundPlayer.obj
 0001:00005cdc       ?DoVerbPrimary@?$IOleObjectImpl@VCOPOSSoundPlayer@@@ATL@@QEAAJPEBUtagRECT@@PEAUHWND__@@@Z 0000000180006cdc f i SoundPlayer.obj
 0001:00005e08       ?DoVerbProperties@CComControlBase@ATL@@QEAAJPEBUtagRECT@@PEAUHWND__@@@Z 0000000180006e08 f i SoundPlayer.obj
 0001:00006030       ?FireTheEvent@?$CProxy_IOPOSEvents@VCOPOSSoundPlayer@@@@IEAAXPEAVOposVariant@@IAEAJPEB_WJ@Z 0000000180007030 f i SoundPlayer.obj
 0001:0000611c       ?FireViewChange@CComControlBase@ATL@@QEAAJXZ 000000018000711c f i SoundPlayer.obj
 0001:00006180       ?Fire_DirectIOEvent@?$CProxy_IOPOSEvents@VCOPOSSoundPlayer@@@@QEAAXJPEAJPEAPEA_W@Z 0000000180007180 f i SoundPlayer.obj
 0001:000062e0       ?Fire_ErrorEvent@?$CProxy_IOPOSEvents@VCOPOSSoundPlayer@@@@QEAAXJJJPEAJ@Z 00000001800072e0 f i SoundPlayer.obj
 0001:00006454       ?Fire_OutputCompleteEvent@?$CProxy_IOPOSEvents@VCOPOSSoundPlayer@@@@QEAAXJ@Z 0000000180007454 f i SoundPlayer.obj
 0001:00006540       ?Fire_StatusUpdateEvent@?$CProxy_IOPOSEvents@VCOPOSSoundPlayer@@@@QEAAXJ@Z 0000000180007540 f i SoundPlayer.obj
 0001:0000662c       ?FreeHeap@?$CTempBuffer@E$0BAA@VCCRTAllocator@ATL@@@ATL@@AEAAXXZ 000000018000762c f i SoundPlayer.obj
 0001:0000662c       ?FreeHeap@?$CTempBuffer@_W$0BAA@VCCRTAllocator@ATL@@@ATL@@AEAAXXZ 000000018000762c f i SoundPlayer.obj
 0001:0000662c       ?FreeHeap@?$CTempBuffer@_W$0EAA@VCCRTAllocator@ATL@@@ATL@@AEAAXXZ 000000018000762c f i SoundPlayer.obj
 0001:00006634       ?GetAmbientLocaleID@CComControlBase@ATL@@QEAAJAEAK@Z 0000000180007634 f i SoundPlayer.obj
 0001:000066f4       ?GetAmbientUserMode@CComControlBase@ATL@@QEAAJAEAH@Z 00000001800076f4 f i SoundPlayer.obj
 0001:000067c4       ?GetClassObject@CComModule@ATL@@QEAAJAEBU_GUID@@0PEAPEAX@Z 00000001800077c4 f i SoundPlayer.obj
 0001:000068b8       ?GetConnMap@COPOSSoundPlayer@@SAPEBU_ATL_CONNMAP_ENTRY@ATL@@PEAH@Z 00000001800078b8 f i SoundPlayer.obj
 0001:00006940       ?GetIDsOfNames@CComTypeInfoHolder@ATL@@QEAAJAEBU_GUID@@PEAPEA_WIKPEAJ@Z 0000000180007940 f i SoundPlayer.obj
 0001:00006ab0       ?GetPagesHelper@?$ISpecifyPropertyPagesImpl@VCOPOSSoundPlayer@@@ATL@@IEAAJPEAUtagCAUUID@@PEBUATL_PROPMAP_ENTRY@2@@Z 0000000180007ab0 f i SoundPlayer.obj
 0001:00006c50       ?GetSizeMax@CComVariant@ATL@@QEBAJPEAT_ULARGE_INTEGER@@@Z 0000000180007c50 f i SoundPlayer.obj
 0001:00006e80       ?GetTI@CComTypeInfoHolder@ATL@@QEAAJK@Z 0000000180007e80 f i SoundPlayer.obj
 0001:00007164       ?GetZoomInfo@CComControlBase@ATL@@QEAAXAEAUATL_DRAWINFO@@@Z 0000000180008164 f i SoundPlayer.obj
 0001:00007208       ?HKeyFromString@CRegParser@ATL@@KAPEAUHKEY__@@PEA_W@Z 0000000180008208 f i SoundPlayer.obj
 0001:0000726c       ?IDataObject_GetData@CComControlBase@ATL@@QEAAJPEAUtagFORMATETC@@PEAUtagSTGMEDIUM@@@Z 000000018000826c f i SoundPlayer.obj
 0001:00007460       ?IOleInPlaceObject_InPlaceDeactivate@CComControlBase@ATL@@QEAAJXZ 0000000180008460 f i SoundPlayer.obj
 0001:00007500       ?IOleInPlaceObject_SetObjectRects@CComControlBase@ATL@@QEAAJPEBUtagRECT@@0@Z 0000000180008500 f i SoundPlayer.obj
 0001:000075f0       ?IOleInPlaceObject_UIDeactivate@CComControlBase@ATL@@QEAAJXZ 00000001800085f0 f i SoundPlayer.obj
 0001:000076fc       ?IOleObject_Close@CComControlBase@ATL@@QEAAJK@Z 00000001800086fc f i SoundPlayer.obj
 0001:00007814       ?IOleObject_SetClientSite@CComControlBase@ATL@@QEAAJPEAUIOleClientSite@@@Z 0000000180008814 f i SoundPlayer.obj
 0001:00007888       ?IOleObject_SetExtent@CComControlBase@ATL@@QEAAJKPEAUtagSIZE@@@Z 0000000180008888 f i SoundPlayer.obj
 0001:00007920       ?IPSI_GetIPersistStreamInit@?$IPersistStorageImpl@VCOPOSSoundPlayer@@@ATL@@AEAAPEAUIPersistStreamInit@@XZ 0000000180008920 f i SoundPlayer.obj
 0001:00007a08       ?IPersistStreamInit_Load@?$IPersistStreamInitImpl@VCOPOSSoundPlayer@@@ATL@@QEAAJPEAUIStream@@PEBUATL_PROPMAP_ENTRY@2@@Z 0000000180008a08 f i SoundPlayer.obj
 0001:00007d30       ?IPersistStreamInit_Save@?$IPersistStreamInitImpl@VCOPOSSoundPlayer@@@ATL@@QEAAJPEAUIStream@@HPEBUATL_PROPMAP_ENTRY@2@@Z 0000000180008d30 f i SoundPlayer.obj
 0001:00007fcc       ?IQuickActivate_QuickActivate@CComControlBase@ATL@@QEAAJPEAUtagQACONTAINER@@PEAUtagQACONTROL@@@Z 0000000180008fcc f i SoundPlayer.obj
 0001:00008290       ?IViewObject_Draw@CComControlBase@ATL@@QEAAJKJPEAXPEAUtagDVTARGETDEVICE@@PEAUHDC__@@2PEBU_RECTL@@3@Z 0000000180009290 f i SoundPlayer.obj
 0001:000083a4       ?InPlaceActivate@CComControlBase@ATL@@QEAAJJPEBUtagRECT@@@Z 00000001800093a4 f i SoundPlayer.obj
 0001:000086d4       ?Init@?$CComEnumImpl@UIEnumConnectionPoints@@$1?_GUID_b196b285_bab4_101a_b69c_00aa00341d07@@3U__s_GUID@@BPEAUIConnectionPoint@@V?$_CopyInterface@UIConnectionPoint@@@ATL@@@ATL@@QEAAJPEAPEAUIConnectionPoint@@0PEAUIUnknown@@W4CComEnumFlags@2@@Z 00000001800096d4 f i SoundPlayer.obj
 0001:000087f0       ?Init@?$CComEnumImpl@UIEnumConnections@@$1?_GUID_b196b287_bab4_101a_b69c_00aa00341d07@@3U__s_GUID@@BUtagCONNECTDATA@@V?$_Copy@UtagCONNECTDATA@@@ATL@@@ATL@@QEAAJPEAUtagCONNECTDATA@@0PEAUIUnknown@@W4CComEnumFlags@2@@Z 00000001800097f0 f i SoundPlayer.obj
 0001:00008910       ?IsEqualObject@?$CComPtrBase@UIOleClientSite@@@ATL@@QEAA_NPEAUIUnknown@@@Z 0000000180009910 f i SoundPlayer.obj
 0001:0000899c       ?LoadNameCache@CComTypeInfoHolder@ATL@@QEAAJPEAUITypeInfo@@@Z 000000018000999c f i SoundPlayer.obj
 0001:00008b2c       ?Lookup@?$CSimpleMap@PEA_WPEA_WVCExpansionVectorEqualHelper@ATL@@@ATL@@QEBAPEA_WAEBQEA_W@Z 0000000180009b2c f i SoundPlayer.obj
 0001:00008bb4       ?NextToken@CRegParser@ATL@@IEAAJPEA_W@Z 0000000180009bb4 f i SoundPlayer.obj
 0001:00008d50       ?OnKillFocus@CComControlBase@ATL@@QEAA_JI_K_JAEAH@Z 0000000180009d50 f i SoundPlayer.obj
 0001:00008dec       ?OnMouseActivate@CComControlBase@ATL@@QEAA_JI_K_JAEAH@Z 0000000180009dec f i SoundPlayer.obj
 0001:00008e8c       ?OnPaint@CComControlBase@ATL@@QEAA_JI_K_JAEAH@Z 0000000180009e8c f i SoundPlayer.obj
 0001:00008f78       ?OnSetFocus@CComControlBase@ATL@@QEAA_JI_K_JAEAH@Z 0000000180009f78 f i SoundPlayer.obj
 0001:00009080       ?PreProcessBuffer@CRegParser@ATL@@QEAAJPEA_WPEAPEA_W@Z 000000018000a080 f i SoundPlayer.obj
 0001:00009408       ?ProcessWindowMessage@?$CComControl@VCOPOSSoundPlayer@@V?$CWindowImpl@VCOPOSSoundPlayer@@VCWindow@ATL@@V?$CWinTraits@$0FGAAAAAA@$0A@@3@@ATL@@@ATL@@UEAAHPEAUHWND__@@I_K_JAEA_JK@Z 000000018000a408 f i SoundPlayer.obj
 0001:000094f4       ?ReadFromStream@CComBSTR@ATL@@QEAAJPEAUIStream@@@Z 000000018000a4f4 f i SoundPlayer.obj
 0001:00009644       ?ReadFromStream@CComVariant@ATL@@QEAAJPEAUIStream@@GTClassesAllowedInStream@2@K@Z 000000018000a644 f i SoundPlayer.obj
 0001:00009888       ?RecurseDeleteKey@CRegKey@ATL@@QEAAJPEB_W@Z 000000018000a888 f i SoundPlayer.obj
 0001:000099e0       ?RegCreateKeyExW@CAtlTransactionManager@ATL@@QEAAJPEAUHKEY__@@PEB_WKPEA_WKKQEAU_SECURITY_ATTRIBUTES@@PEAPEAU3@PEAK@Z 000000018000a9e0 f i SoundPlayer.obj
 0001:00009b14       ?RegDeleteKeyW@CAtlTransactionManager@ATL@@QEAAJPEAUHKEY__@@PEB_W@Z 000000018000ab14 f i SoundPlayer.obj
 0001:00009ba0       ?RegOpenKeyExW@CAtlTransactionManager@ATL@@QEAAJPEAUHKEY__@@PEB_WKKPEAPEAU3@@Z 000000018000aba0 f i SoundPlayer.obj
 0001:00009c58       ?RegisterBuffer@CRegParser@ATL@@QEAAJPEA_WH@Z 000000018000ac58 f i SoundPlayer.obj
 0001:00009dc4       ?RegisterFromResource@CRegObject@ATL@@IEAAJPEB_W00H@Z 000000018000adc4 f i SoundPlayer.obj
 0001:00009f80       ?RegisterServer@CComModule@ATL@@QEAAJHPEBU_GUID@@@Z 000000018000af80 f i SoundPlayer.obj
 0001:0000a03c       ?RegisterSubkeys@CRegParser@ATL@@IEAAJPEA_WPEAUHKEY__@@HH@Z 000000018000b03c f i SoundPlayer.obj
 0001:0000a8bc       ?SendOnDataChange@CComControlBase@ATL@@QEAAJK@Z 000000018000b8bc f i SoundPlayer.obj
 0001:0000a92c       ?SetControlFocus@CComControlBase@ATL@@QEAAHH@Z 000000018000b92c f i SoundPlayer.obj
 0001:0000a9fc       ?SkipAssignment@CRegParser@ATL@@IEAAJPEA_W@Z 000000018000b9fc f i SoundPlayer.obj
 0001:0000aab4       ?Term@CAtlModule@ATL@@QEAAXXZ 000000018000bab4 f i SoundPlayer.obj
 0001:0000ab6c       ?Term@CComModule@ATL@@QEAAXXZ 000000018000bb6c f i SoundPlayer.obj
 0001:0000abe8       ?UnregisterServer@CComModule@ATL@@QEAAJHPEBU_GUID@@@Z 000000018000bbe8 f i SoundPlayer.obj
 0001:0000ac98       ?UpdateRegistryFromResource@CAtlModule@ATL@@QEAAJIHPEAU_ATL_REGMAP_ENTRY@2@@Z 000000018000bc98 f i SoundPlayer.obj
 0001:0000afa4       ?UpdateRegistryFromResource@CAtlModule@ATL@@QEAAJPEB_WHPEAU_ATL_REGMAP_ENTRY@2@@Z 000000018000bfa4 f i SoundPlayer.obj
 0001:0000b2c8       ?VTFromRegType@CRegParser@ATL@@KAHPEB_WAEAG@Z 000000018000c2c8 f i SoundPlayer.obj
 0001:0000b364       ?WindowProc@?$CWindowImplBaseT@VCWindow@ATL@@V?$CWinTraits@$0FGAAAAAA@$0A@@2@@ATL@@SA_JPEAUHWND__@@I_K_J@Z 000000018000c364 f i SoundPlayer.obj
 0001:0000b4d0       ?WriteToStream@CComVariant@ATL@@QEAAJPEAUIStream@@@Z 000000018000c4d0 f i SoundPlayer.obj
 0001:0000b73c       ?WriteToStream@CComVariant@ATL@@QEAAJPEAUIStream@@G@Z 000000018000c73c f i SoundPlayer.obj
 0001:0000b7d4       ?_AtlVerifyStackAvailable@_ATL_SAFE_ALLOCA_IMPL@ATL@@YA_N_K@Z 000000018000c7d4 f i SoundPlayer.obj
 0001:0000b858       ?atlCreate@?$CWindowImpl@VCOPOSSoundPlayer@@VCWindow@ATL@@V?$CWinTraits@$0FGAAAAAA@$0A@@3@@ATL@@QEAAPEAUHWND__@@PEAU3@V_U_RECT@2@PEB_WKKV_U_MENUorID@2@PEAX@Z 000000018000c858 f i SoundPlayer.obj
 0001:0000b914       ?atlCreate@?$CWindowImplBaseT@VCWindow@ATL@@V?$CWinTraits@$0FGAAAAAA@$0A@@2@@ATL@@QEAAPEAUHWND__@@PEAU3@V_U_RECT@2@PEB_WKKV_U_MENUorID@2@GPEAX@Z 000000018000c914 f i SoundPlayer.obj
 0001:0000ba84       ?ocscpy_s@@YA_NPEA_W_KPEB_W@Z 000000018000ca84 f i SoundPlayer.obj
 0001:0000bb34       DllCanUnloadNow            000000018000cb34 f   SoundPlayer.obj
 0001:0000bb40       DllGetClassObject          000000018000cb40 f   SoundPlayer.obj
 0001:0000bb58       DllMain                    000000018000cb58 f   SoundPlayer.obj
 0001:0000bc00       DllRegisterServer          000000018000cc00 f   SoundPlayer.obj
 0001:0000bc14       DllUnregisterServer        000000018000cc14 f   SoundPlayer.obj
 0001:0000bc28       __local_stdio_printf_options 000000018000cc28 f i SoundPlayer.obj
 0001:0000bc30       swprintf_s                 000000018000cc30 f i SoundPlayer.obj
 0001:0000bc84       ??0COPOSSoundPlayer@@QEAA@XZ 000000018000cc84 f   SoundPlayerImpl.obj
 0001:0000bd54       ??1?$IConnectionPointImpl@VCOPOSSoundPlayer@@$1?DIID__IOPOSSoundPlayerEvents@@3U_GUID@@BVCComDynamicUnkArray@ATL@@@ATL@@QEAA@XZ 000000018000cd54 f i SoundPlayerImpl.obj
 0001:0000bd54       ??1?$IConnectionPointImpl@VCOPOSSoundPlayer@@$1?IID_IPropertyNotifySink@@3U_GUID@@BVCComDynamicUnkArray@ATL@@@ATL@@QEAA@XZ 000000018000cd54 f i SoundPlayerImpl.obj
 0001:0000bdb0       ??1CComControlBase@ATL@@UEAA@XZ 000000018000cdb0 f i SoundPlayerImpl.obj
 0001:0000be2c       ??1COPOSSoundPlayer@@UEAA@XZ 000000018000ce2c f   SoundPlayerImpl.obj
 0001:0000be90       ?CheckHealth@COPOSSoundPlayer@@UEAAJJPEAJ@Z 000000018000ce90 f   SoundPlayerImpl.obj
 0001:0000bf0c       ?ClaimDevice@COPOSSoundPlayer@@UEAAJJPEAJ@Z 000000018000cf0c f   SoundPlayerImpl.obj
 0001:0000bfac       ?ClearOutput@COPOSSoundPlayer@@UEAAJPEAJ@Z 000000018000cfac f   SoundPlayerImpl.obj
 0001:0000bfd4       ?Close@COPOSSoundPlayer@@UEAAJPEAJ@Z 000000018000cfd4 f   SoundPlayerImpl.obj
 0001:0000c08c       ?CompareFirmwareVersion@COPOSSoundPlayer@@UEAAJPEA_WPEAJ1@Z 000000018000d08c f   SoundPlayerImpl.obj
 0001:0000c168       ?DirectIO@COPOSSoundPlayer@@UEAAJJPEAJPEAPEA_W0@Z 000000018000d168 f   SoundPlayerImpl.obj
 0001:0000c264       ?DoInvoke@COPOSSoundPlayer@@IEAAJJPEAVOposVariant@@IHPEAJ_N@Z 000000018000d264 f   SoundPlayerImpl.obj
 0001:0000c398       ?EventInit@COPOSSoundPlayer@@IEAAJXZ 000000018000d398 f i SoundPlayerImpl.obj
 0001:0000c4e8       ?EventUninit@COPOSSoundPlayer@@IEAAXXZ 000000018000d4e8 f i SoundPlayerImpl.obj
 0001:0000c54c       ?EventWindowProc@COPOSSoundPlayer@@IEAA_JI_K_J@Z 000000018000d54c f i SoundPlayerImpl.obj
 0001:0000c6c8       ?FinalConstruct@COPOSSoundPlayer@@QEAAJXZ 000000018000d6c8 f   SoundPlayerImpl.obj
 0001:0000c704       ?FreezeEvents@COPOSSoundPlayer@@MEAAJH@Z 000000018000d704 f   SoundPlayerImpl.obj
 0001:0000c770       ?GetOposProp@COPOSSoundPlayer@@IEAAJJPEAJJ@Z 000000018000d770 f   SoundPlayerImpl.obj
 0001:0000c88c       ?GetOposProp@COPOSSoundPlayer@@IEAAJJPEAPEA_WJ@Z 000000018000d88c f   SoundPlayerImpl.obj
 0001:0000c9b8       ?OnDraw@COPOSSoundPlayer@@MEAAJAEAUATL_DRAWINFO@@@Z 000000018000d9b8 f   SoundPlayerImpl.obj
 0001:0000caa4       ?Open@COPOSSoundPlayer@@UEAAJPEA_WPEAJ@Z 000000018000daa4 f   SoundPlayerImpl.obj
 0001:0000d314       ?PlaySoundW@COPOSSoundPlayer@@UEAAJPEA_WFPEAJ@Z 000000018000e314 f   SoundPlayerImpl.obj
 0001:0000d3ec       ?ReleaseDevice@COPOSSoundPlayer@@UEAAJPEAJ@Z 000000018000e3ec f   SoundPlayerImpl.obj
 0001:0000d458       ?ResetStatistics@COPOSSoundPlayer@@UEAAJPEA_WPEAJ@Z 000000018000e458 f   SoundPlayerImpl.obj
 0001:0000d4e0       ?RetrieveStatistics@COPOSSoundPlayer@@UEAAJPEAPEA_WPEAJ@Z 000000018000e4e0 f   SoundPlayerImpl.obj
 0001:0000d568       ?SOProcessID@COPOSSoundPlayer@@UEAAJPEAJ@Z 000000018000e568 f   SoundPlayerImpl.obj
 0001:0000d584       ?SetCOFreezeEvents@COPOSSoundPlayer@@IEAAXF@Z 000000018000e584 f   SoundPlayerImpl.obj
 0001:0000d668       ?SetOposProp@COPOSSoundPlayer@@IEAAJJJJ@Z 000000018000e668 f   SoundPlayerImpl.obj
 0001:0000d7c8       ?StopSound@COPOSSoundPlayer@@UEAAJJPEAJ@Z 000000018000e7c8 f   SoundPlayerImpl.obj
 0001:0000d844       ?UpdateFirmware@COPOSSoundPlayer@@UEAAJPEA_WPEAJ@Z 000000018000e844 f   SoundPlayerImpl.obj
 0001:0000d8cc       ?UpdateStatistics@COPOSSoundPlayer@@UEAAJPEA_WPEAJ@Z 000000018000e8cc f   SoundPlayerImpl.obj
 0001:0000d954       ?get_BinaryConversion@COPOSSoundPlayer@@UEAAJPEAJ@Z 000000018000e954 f   SoundPlayerImpl.obj
 0001:0000d968       ?get_CapAssociatedHardTotalsDevice@COPOSSoundPlayer@@UEAAJPEAPEA_W@Z 000000018000e968 f   SoundPlayerImpl.obj
 0001:0000d97c       ?get_CapCompareFirmwareVersion@COPOSSoundPlayer@@UEAAJPEAF@Z 000000018000e97c f   SoundPlayerImpl.obj
 0001:0000d9b0       ?get_CapMultiPlay@COPOSSoundPlayer@@UEAAJPEAF@Z 000000018000e9b0 f   SoundPlayerImpl.obj
 0001:0000d9e4       ?get_CapPowerReporting@COPOSSoundPlayer@@UEAAJPEAJ@Z 000000018000e9e4 f   SoundPlayerImpl.obj
 0001:0000d9f8       ?get_CapSoundTypeList@COPOSSoundPlayer@@UEAAJPEAPEA_W@Z 000000018000e9f8 f   SoundPlayerImpl.obj
 0001:0000da0c       ?get_CapStatisticsReporting@COPOSSoundPlayer@@UEAAJPEAF@Z 000000018000ea0c f   SoundPlayerImpl.obj
 0001:0000da40       ?get_CapStorage@COPOSSoundPlayer@@UEAAJPEAJ@Z 000000018000ea40 f   SoundPlayerImpl.obj
 0001:0000da54       ?get_CapUpdateFirmware@COPOSSoundPlayer@@UEAAJPEAF@Z 000000018000ea54 f   SoundPlayerImpl.obj
 0001:0000da88       ?get_CapUpdateStatistics@COPOSSoundPlayer@@UEAAJPEAF@Z 000000018000ea88 f   SoundPlayerImpl.obj
 0001:0000dabc       ?get_CapVolume@COPOSSoundPlayer@@UEAAJPEAF@Z 000000018000eabc f   SoundPlayerImpl.obj
 0001:0000daf0       ?get_CheckHealthText@COPOSSoundPlayer@@UEAAJPEAPEA_W@Z 000000018000eaf0 f   SoundPlayerImpl.obj
 0001:0000db04       ?get_Claimed@COPOSSoundPlayer@@UEAAJPEAF@Z 000000018000eb04 f   SoundPlayerImpl.obj
 0001:0000db38       ?get_ControlObjectDescription@COPOSSoundPlayer@@UEAAJPEAPEA_W@Z 000000018000eb38 f   SoundPlayerImpl.obj
 0001:0000db9c       ?get_ControlObjectVersion@COPOSSoundPlayer@@UEAAJPEAJ@Z 000000018000eb9c f   SoundPlayerImpl.obj
 0001:0000dba8       ?get_DeviceDescription@COPOSSoundPlayer@@UEAAJPEAPEA_W@Z 000000018000eba8 f   SoundPlayerImpl.obj
 0001:0000dbbc       ?get_DeviceEnabled@COPOSSoundPlayer@@UEAAJPEAF@Z 000000018000ebbc f   SoundPlayerImpl.obj
 0001:0000dbf0       ?get_DeviceName@COPOSSoundPlayer@@UEAAJPEAPEA_W@Z 000000018000ebf0 f   SoundPlayerImpl.obj
 0001:0000dc04       ?get_DeviceSoundList@COPOSSoundPlayer@@UEAAJPEAPEA_W@Z 000000018000ec04 f   SoundPlayerImpl.obj
 0001:0000dc18       ?get_FreezeEvents@COPOSSoundPlayer@@UEAAJPEAF@Z 000000018000ec18 f   SoundPlayerImpl.obj
 0001:0000dc48       ?get_OpenResult@COPOSSoundPlayer@@UEAAJPEAJ@Z 000000018000ec48 f   SoundPlayerImpl.obj
 0001:0000dc54       ?get_OutputID@COPOSSoundPlayer@@UEAAJPEAJ@Z 000000018000ec54 f   SoundPlayerImpl.obj
 0001:0000dc68       ?get_OutputIDList@COPOSSoundPlayer@@UEAAJPEAPEA_W@Z 000000018000ec68 f   SoundPlayerImpl.obj
 0001:0000dc7c       ?get_PowerNotify@COPOSSoundPlayer@@UEAAJPEAJ@Z 000000018000ec7c f   SoundPlayerImpl.obj
 0001:0000dc90       ?get_PowerState@COPOSSoundPlayer@@UEAAJPEAJ@Z 000000018000ec90 f   SoundPlayerImpl.obj
 0001:0000dca4       ?get_ResultCode@COPOSSoundPlayer@@UEAAJPEAJ@Z 000000018000eca4 f   SoundPlayerImpl.obj
 0001:0000dce0       ?get_ResultCodeExtended@COPOSSoundPlayer@@UEAAJPEAJ@Z 000000018000ece0 f   SoundPlayerImpl.obj
 0001:0000dcf4       ?get_ServiceObjectDescription@COPOSSoundPlayer@@UEAAJPEAPEA_W@Z 000000018000ecf4 f   SoundPlayerImpl.obj
 0001:0000dd08       ?get_ServiceObjectVersion@COPOSSoundPlayer@@UEAAJPEAJ@Z 000000018000ed08 f   SoundPlayerImpl.obj
 0001:0000dd1c       ?get_State@COPOSSoundPlayer@@UEAAJPEAJ@Z 000000018000ed1c f   SoundPlayerImpl.obj
 0001:0000dd48       ?get_Storage@COPOSSoundPlayer@@UEAAJPEAJ@Z 000000018000ed48 f   SoundPlayerImpl.obj
 0001:0000dd5c       ?get_Volume@COPOSSoundPlayer@@UEAAJPEAJ@Z 000000018000ed5c f   SoundPlayerImpl.obj
 0001:0000dd70       ?put_BinaryConversion@COPOSSoundPlayer@@UEAAJJ@Z 000000018000ed70 f   SoundPlayerImpl.obj
 0001:0000dd84       ?put_DeviceEnabled@COPOSSoundPlayer@@UEAAJF@Z 000000018000ed84 f   SoundPlayerImpl.obj
 0001:0000dd9c       ?put_FreezeEvents@COPOSSoundPlayer@@UEAAJF@Z 000000018000ed9c f   SoundPlayerImpl.obj
 0001:0000ddec       ?put_PowerNotify@COPOSSoundPlayer@@UEAAJJ@Z 000000018000edec f   SoundPlayerImpl.obj
 0001:0000de00       ?put_Storage@COPOSSoundPlayer@@UEAAJJ@Z 000000018000ee00 f   SoundPlayerImpl.obj
 0001:0000de14       ?put_Volume@COPOSSoundPlayer@@UEAAJJ@Z 000000018000ee14 f   SoundPlayerImpl.obj
 0001:0000de28       ?s_EventWindowProc@COPOSSoundPlayer@@KA_JPEAUHWND__@@I_K_J@Z 000000018000ee28 f i SoundPlayerImpl.obj
 0001:0000dea4       ??_U@YAPEAX_K@Z            000000018000eea4 f   LIBCMT:new_array.obj
 0001:0000deac       ??_V@YAXPEAX@Z             000000018000eeac f   LIBCMT:delete_array.obj
 0001:0000deac       ??3@YAXPEAX_K@Z            000000018000eeac f   LIBCMT:delete_scalar_size.obj
 0001:0000deb4       ??_V@YAXPEAX_K@Z           000000018000eeb4 f   LIBCMT:delete_array_size.obj
 0001:0000debc       __scrt_acquire_startup_lock 000000018000eebc f   LIBCMT:utility.obj
 0001:0000def8       __scrt_dllmain_after_initialize_c 000000018000eef8 f   LIBCMT:utility.obj
 0001:0000df2c       __scrt_dllmain_before_initialize_c 000000018000ef2c f   LIBCMT:utility.obj
 0001:0000df44       __scrt_dllmain_crt_thread_attach 000000018000ef44 f   LIBCMT:utility.obj
 0001:0000df6c       __scrt_dllmain_crt_thread_detach 000000018000ef6c f   LIBCMT:utility.obj
 0001:0000df84       __scrt_dllmain_exception_filter 000000018000ef84 f   LIBCMT:utility.obj
 0001:0000dfe4       __scrt_dllmain_uninitialize_c 000000018000efe4 f   LIBCMT:utility.obj
 0001:0000e014       __scrt_dllmain_uninitialize_critical 000000018000f014 f   LIBCMT:utility.obj
 0001:0000e028       __scrt_initialize_crt      000000018000f028 f   LIBCMT:utility.obj
 0001:0000e074       __scrt_initialize_onexit_tables 000000018000f074 f   LIBCMT:utility.obj
 0001:0000e100       __scrt_is_nonwritable_in_current_image 000000018000f100 f   LIBCMT:utility.obj
 0001:0000e198       __scrt_release_startup_lock 000000018000f198 f   LIBCMT:utility.obj
 0001:0000e1bc       __scrt_uninitialize_crt    000000018000f1bc f   LIBCMT:utility.obj
 0001:0000e1e8       _onexit                    000000018000f1e8 f   LIBCMT:utility.obj
 0001:0000e224       atexit                     000000018000f224 f   LIBCMT:utility.obj
 0001:0000e23c       ??3@YAXPEAX@Z              000000018000f23c f   LIBCMT:delete_scalar.obj
 0001:0000e33c       _Init_thread_footer        000000018000f33c f   LIBCMT:thread_safe_statics.obj
 0001:0000e39c       _Init_thread_header        000000018000f39c f   LIBCMT:thread_safe_statics.obj
 0001:0000e404       _Init_thread_notify        000000018000f404 f   LIBCMT:thread_safe_statics.obj
 0001:0000e448       _Init_thread_wait          000000018000f448 f   LIBCMT:thread_safe_statics.obj
 0001:0000e4ac       __raise_securityfailure    000000018000f4ac f   LIBCMT:gs_report.obj
 0001:0000e4e0       __report_gsfailure         000000018000f4e0 f   LIBCMT:gs_report.obj
 0001:0000e5b4       __report_rangecheckfailure 000000018000f5b4 f   LIBCMT:gs_report.obj
 0001:0000e5c8       __report_securityfailure   000000018000f5c8 f   LIBCMT:gs_report.obj
 0001:0000e748       ??2@YAPEAX_KAEBUnothrow_t@std@@@Z 000000018000f748 f   LIBCMT:new_scalar_nothrow.obj
 0001:0000e75c       ??_U@YAPEAX_KAEBUnothrow_t@std@@@Z 000000018000f75c f   LIBCMT:new_array_nothrow.obj
 0001:0000e764       __GSHandlerCheck           000000018000f764 f   LIBCMT:gshandler.obj
 0001:0000e784       __GSHandlerCheckCommon     000000018000f784 f   LIBCMT:gshandler.obj
 0001:0000e7e0       __GSHandlerCheck_SEH       000000018000f7e0 f   LIBCMT:gshandlerseh.obj
 0001:0000e880       __chkstk                   000000018000f880 f   LIBCMT:chkstk.obj
 0001:0000e880       _alloca_probe              000000018000f880 f   LIBCMT:chkstk.obj
 0001:0000e8e0       __security_check_cookie    000000018000f8e0 f   LIBCMT:amdsecgs.obj
 0001:0000ec20       _DllMainCRTStartup         000000018000fc20 f   LIBCMT:dll_dllmain.obj
 0001:0000ec60       ??2@YAPEAX_K@Z             000000018000fc60 f   LIBCMT:new_scalar.obj
 0001:0000ec9c       __isa_available_init       000000018000fc9c f   LIBCMT:cpu_disp.obj
 0001:0000ee40       __scrt_is_ucrt_dll_in_use  000000018000fe40 f   LIBCMT:ucrt_detection.obj
 0001:0000ee4c       __crt_debugger_hook        000000018000fe4c f   LIBCMT:utility_desktop.obj
 0001:0000ee54       __scrt_fastfail            000000018000fe54 f   LIBCMT:utility_desktop.obj
 0001:0000efa0       __security_init_cookie     000000018000ffa0 f   LIBCMT:gs_support.obj
 0001:0000f04c       ?__scrt_initialize_type_info@@YAXXZ 000000018001004c f   LIBCMT:tncleanup.obj
 0001:0000f05c       ?__scrt_uninitialize_type_info@@YAXXZ 000000018001005c f   LIBCMT:tncleanup.obj
 0001:0000f068       __local_stdio_scanf_options 0000000180010068 f i LIBCMT:default_local_stdio_options.obj
 0001:0000f070       __scrt_initialize_default_local_stdio_options 0000000180010070 f   LIBCMT:default_local_stdio_options.obj
 0001:0000f08c       __scrt_get_dyn_tls_init_callback 000000018001008c f   LIBCMT:dyn_tls_init.obj
 0001:0000f094       _RTC_Initialize            0000000180010094 f   LIBCMT:initsect.obj
 0001:0000f0d0       _RTC_Terminate             00000001800100d0 f   LIBCMT:initsect.obj
 0001:0000f10c       ??0bad_alloc@std@@QEAA@AEBV01@@Z 000000018001010c f i LIBCMT:throw_bad_alloc.obj
 0001:0000f148       ??0bad_alloc@std@@QEAA@XZ  0000000180010148 f i LIBCMT:throw_bad_alloc.obj
 0001:0000f168       ??0bad_array_new_length@std@@QEAA@AEBV01@@Z 0000000180010168 f i LIBCMT:throw_bad_alloc.obj
 0001:0000f1a4       ??0bad_array_new_length@std@@QEAA@XZ 00000001800101a4 f i LIBCMT:throw_bad_alloc.obj
 0001:0000f1c4       ??0exception@std@@QEAA@AEBV01@@Z 00000001800101c4 f i LIBCMT:throw_bad_alloc.obj
 0001:0000f1f8       ??1bad_alloc@std@@UEAA@XZ  00000001800101f8 f i LIBCMT:throw_bad_alloc.obj
 0001:0000f1f8       ??1bad_array_new_length@std@@UEAA@XZ 00000001800101f8 f i LIBCMT:throw_bad_alloc.obj
 0001:0000f1f8       ??1bad_exception@std@@UEAA@XZ 00000001800101f8 f i libvcruntime:frame.obj
 0001:0000f20c       ??_Gbad_exception@std@@UEAAPEAXI@Z 000000018001020c f i libvcruntime:frame.obj
 0001:0000f20c       ??_Gexception@std@@UEAAPEAXI@Z 000000018001020c f i LIBCMT:throw_bad_alloc.obj
 0001:0000f20c       ??_Gbad_alloc@std@@UEAAPEAXI@Z 000000018001020c f i LIBCMT:throw_bad_alloc.obj
 0001:0000f20c       ??_Ebad_exception@std@@UEAAPEAXI@Z 000000018001020c f i libvcruntime:frame.obj
 0001:0000f20c       ??_Gbad_array_new_length@std@@UEAAPEAXI@Z 000000018001020c f i LIBCMT:throw_bad_alloc.obj
 0001:0000f20c       ??_Ebad_array_new_length@std@@UEAAPEAXI@Z 000000018001020c f i LIBCMT:throw_bad_alloc.obj
 0001:0000f20c       ??_Ebad_alloc@std@@UEAAPEAXI@Z 000000018001020c f i LIBCMT:throw_bad_alloc.obj
 0001:0000f20c       ??_Eexception@std@@UEAAPEAXI@Z 000000018001020c f i LIBCMT:throw_bad_alloc.obj
 0001:0000f250       ?__scrt_throw_std_bad_alloc@@YAXXZ 0000000180010250 f   LIBCMT:throw_bad_alloc.obj
 0001:0000f270       ?__scrt_throw_std_bad_array_new_length@@YAXXZ 0000000180010270 f   LIBCMT:throw_bad_alloc.obj
 0001:0000f290       ?what@exception@std@@UEBAPEBDXZ 0000000180010290 f i LIBCMT:throw_bad_alloc.obj
 0001:0000f2b0       ??_Etype_info@@UEAAPEAXI@Z 00000001800102b0 f i LIBCMT:std_type_info_static.obj
 0001:0000f2b0       ??_Gtype_info@@UEAAPEAXI@Z 00000001800102b0 f i LIBCMT:std_type_info_static.obj
 0001:0000f2dc       ??0CAtlBaseModule@ATL@@QEAA@XZ 00000001800102dc f   atls:atlbase.obj
 0001:0000f384       ??1CAtlBaseModule@ATL@@QEAA@XZ 0000000180010384 f   atls:atlbase.obj
 0001:0000f4b8       ?__AllocStdCallThunk_cmn@@YAPEAXXZ 00000001800104b8 f   atls:atlthunk.obj
 0001:0000f610       AtlThunk_AllocateData      0000000180010610 f   atls:atlthunk.obj
 0001:0000f68c       AtlThunk_DataToCode        000000018001068c f   atls:atlthunk.obj
 0001:0000f6e0       AtlThunk_FreeData          00000001800106e0 f   atls:atlthunk.obj
 0001:0000f740       AtlThunk_InitData          0000000180010740 f   atls:atlthunk.obj
 0001:0000f7e8       _get_purecall_handler      00000001800107e8 f   libvcruntime:purevirt.obj
 0001:0000f7f4       _purecall                  00000001800107f4 f   libvcruntime:purevirt.obj
 0001:0000f810       wcsstr                     0000000180010810 f   libvcruntime:wcsstr.obj
 0001:0000fa40       memcmp                     0000000180010a40 f   libvcruntime:memcmp.obj
 0001:0000fb20       memcpy_repmovs             0000000180010b20 f   libvcruntime:memcpy.obj
 0001:0000fb40       memmove                    0000000180010b40 f   libvcruntime:memcpy.obj
 0001:0000fb40       memcpy                     0000000180010b40 f   libvcruntime:memcpy.obj
 0001:000101d0       memset_repmovs             00000001800111d0 f   libvcruntime:memset.obj
 0001:000101f0       memset                     00000001800111f0 f   libvcruntime:memset.obj
 0001:00010380       __vcrt_initialize          0000000180011380 f   libvcruntime:initialization.obj
 0001:000103a8       __vcrt_thread_attach       00000001800113a8 f   libvcruntime:initialization.obj
 0001:000103bc       __vcrt_thread_detach       00000001800113bc f   libvcruntime:initialization.obj
 0001:000103d0       __vcrt_uninitialize        00000001800113d0 f   libvcruntime:initialization.obj
 0001:000103ec       __vcrt_uninitialize_critical 00000001800113ec f   libvcruntime:initialization.obj
 0001:000103fc       __C_specific_handler       00000001800113fc f   libvcruntime:riscchandler.obj
 0001:000105f4       ??$_CallSETranslator@V__FrameHandler3@@@@YAHPEAUEHExceptionRecord@@PEA_KPEAU_CONTEXT@@PEAU_xDISPATCHER_CONTEXT@@PEBU_s_FuncInfo@@K1H@Z 00000001800115f4 f i libvcruntime:risctrnsctrl.obj
 0001:00010648       ??$_CallSETranslator@V__FrameHandler4@@@@YAHPEAUEHExceptionRecord@@PEA_KPEAU_CONTEXT@@PEAU_xDISPATCHER_CONTEXT@@PEAUFuncInfo4@FH4@@K1H@Z 0000000180011648 f i libvcruntime:risctrnsctrl.obj
 0001:0001069c       ?CatchTryBlock@__FrameHandler3@@SAPEBU_s_TryBlockMapEntry@@PEBU_s_FuncInfo@@H@Z 000000018001169c f   libvcruntime:risctrnsctrl.obj
 0001:00010700       ?DecompFuncInfo@FH4@@YA_JPEAEAEAUFuncInfo4@1@_KH_N@Z 0000000180011700 f i libvcruntime:risctrnsctrl.obj
 0001:00010824       ?ExecutionInCatch@__FrameHandler3@@SA_NPEAU_xDISPATCHER_CONTEXT@@PEBU_s_FuncInfo@@@Z 0000000180011824 f   libvcruntime:risctrnsctrl.obj
 0001:00010850       ?ExecutionInCatch@__FrameHandler4@@SA_NPEAU_xDISPATCHER_CONTEXT@@PEAUFuncInfo4@FH4@@@Z 0000000180011850 f   libvcruntime:risctrnsctrl.obj
 0001:00010858       ?FrameUnwindToEmptyState@__FrameHandler3@@SAXPEA_KPEAU_xDISPATCHER_CONTEXT@@PEBU_s_FuncInfo@@@Z 0000000180011858 f   libvcruntime:risctrnsctrl.obj
 0001:000108bc       ?FrameUnwindToEmptyState@__FrameHandler4@@SAXPEA_KPEAU_xDISPATCHER_CONTEXT@@PEAUFuncInfo4@FH4@@@Z 00000001800118bc f   libvcruntime:risctrnsctrl.obj
 0001:000108f0       ?GetEstablisherFrame@__FrameHandler3@@SAPEA_KPEA_KPEAU_xDISPATCHER_CONTEXT@@PEBU_s_FuncInfo@@0@Z 00000001800118f0 f   libvcruntime:risctrnsctrl.obj
 0001:000109bc       ?GetEstablisherFrame@__FrameHandler4@@SAPEA_KPEA_KPEAU_xDISPATCHER_CONTEXT@@PEAUFuncInfo4@FH4@@0@Z 00000001800119bc f   libvcruntime:risctrnsctrl.obj
 0001:000109e0       ?GetRangeOfTrysToCheck@__FrameHandler3@@SA?AU?$pair@Viterator@TryBlockMap@__FrameHandler3@@V123@@std@@AEAVTryBlockMap@1@HPEAU_xDISPATCHER_CONTEXT@@PEBU_s_FuncInfo@@H@Z 00000001800119e0 f   libvcruntime:risctrnsctrl.obj
 0001:00010b20       ?GetRangeOfTrysToCheck@__FrameHandler4@@SA?AU?$pair@Viterator@TryBlockMap4@FH4@@V123@@std@@AEAVTryBlockMap4@FH4@@HPEAU_xDISPATCHER_CONTEXT@@PEAUFuncInfo4@5@H@Z 0000000180011b20 f   libvcruntime:risctrnsctrl.obj
 0001:00010c8c       ?UnwindNestedFrames@__FrameHandler3@@SAXPEA_KPEAUEHExceptionRecord@@PEAU_CONTEXT@@0PEAXPEBU_s_FuncInfo@@HHPEBU_s_HandlerType@@PEAU_xDISPATCHER_CONTEXT@@E@Z 0000000180011c8c f   libvcruntime:risctrnsctrl.obj
 0001:00010d90       ?UnwindNestedFrames@__FrameHandler4@@SAXPEA_KPEAUEHExceptionRecord@@PEAU_CONTEXT@@0PEAXPEAUFuncInfo4@FH4@@HHPEAUHandlerType4@5@PEAU_xDISPATCHER_CONTEXT@@E@Z 0000000180011d90 f   libvcruntime:risctrnsctrl.obj
 0001:00010eb0       ?setBuffer@TryBlockMap4@FH4@@QEAAXViterator@12@@Z 0000000180011eb0 f i libvcruntime:risctrnsctrl.obj
 0001:00011074       _CreateFrameInfo           0000000180012074 f   libvcruntime:risctrnsctrl.obj
 0001:000110b0       _FindAndUnlinkFrame        00000001800120b0 f   libvcruntime:risctrnsctrl.obj
 0001:00011104       _GetImageBase              0000000180012104 f   libvcruntime:risctrnsctrl.obj
 0001:00011118       _GetThrowImageBase         0000000180012118 f   libvcruntime:risctrnsctrl.obj
 0001:0001112c       _SetImageBase              000000018001212c f   libvcruntime:risctrnsctrl.obj
 0001:00011144       _SetThrowImageBase         0000000180012144 f   libvcruntime:risctrnsctrl.obj
 0001:0001115c       __CxxFrameHandler3         000000018001215c f   libvcruntime:risctrnsctrl.obj
 0001:000111e4       __CxxFrameHandler4         00000001800121e4 f   libvcruntime:risctrnsctrl.obj
 0001:000112a4       __DestructExceptionObject  00000001800122a4 f   libvcruntime:ehhelpers.obj
 0001:00011314       ?_CallMemberFunction0@@YAXQEAX0@Z 0000000180012314 f i libvcruntime:ehhelpers.obj
 0001:00011318       _IsExceptionObjectToBeDestroyed 0000000180012318 f   libvcruntime:ehhelpers.obj
 0001:00011348       __AdjustPointer            0000000180012348 f   libvcruntime:ehhelpers.obj
 0001:0001136c       __FrameUnwindFilter        000000018001236c f   libvcruntime:ehhelpers.obj
 0001:000113d4       __std_terminate            00000001800123d4 f   libvcruntime:ehhelpers.obj
 0001:000113e0       __std_type_info_compare    00000001800123e0 f   libvcruntime:std_type_info.obj
 0001:00011408       __std_type_info_destroy_list 0000000180012408 f   libvcruntime:std_type_info.obj
 0001:00011434       __std_exception_copy       0000000180012434 f   libvcruntime:std_exception.obj
 0001:000114c4       __std_exception_destroy    00000001800124c4 f   libvcruntime:std_exception.obj
 0001:000114ec       _CxxThrowException         00000001800124ec f   libvcruntime:throw.obj
 0001:0001158c       __vcrt_freefls             000000018001258c f   libvcruntime:per_thread_data.obj
 0001:000115ac       __vcrt_freeptd             00000001800125ac f   libvcruntime:per_thread_data.obj
 0001:000115fc       __vcrt_getptd              00000001800125fc f   libvcruntime:per_thread_data.obj
 0001:00011618       __vcrt_getptd_noexit       0000000180012618 f   libvcruntime:per_thread_data.obj
 0001:000116d8       __vcrt_initialize_ptd      00000001800126d8 f   libvcruntime:per_thread_data.obj
 0001:00011720       __vcrt_uninitialize_ptd    0000000180012720 f   libvcruntime:per_thread_data.obj
 0001:00011744       __vcrt_initialize_locks    0000000180012744 f   libvcruntime:locks.obj
 0001:0001178c       __vcrt_uninitialize_locks  000000018001278c f   libvcruntime:locks.obj
 0001:000117e0       _NLG_Notify                00000001800127e0 f   libvcruntime:notify.obj
 0001:00011800       __NLG_Dispatch2            0000000180012800 f   libvcruntime:notify.obj
 0001:00011810       __NLG_Return2              0000000180012810 f   libvcruntime:notify.obj
 0001:00011814       __except_validate_context_record 0000000180012814 f   libvcruntime:jbcxrval.obj
 0001:0001184c       ?GetCurrentState@__FrameHandler3@@SAHPEA_KPEAU_xDISPATCHER_CONTEXT@@PEBU_s_FuncInfo@@@Z 000000018001284c f   libvcruntime:ehstate.obj
 0001:00011874       ?GetUnwindTryBlock@__FrameHandler3@@SAHPEA_KPEAU_xDISPATCHER_CONTEXT@@PEBU_s_FuncInfo@@@Z 0000000180012874 f   libvcruntime:ehstate.obj
 0001:000118a0       ?SetState@__FrameHandler3@@SAXPEA_KPEBU_s_FuncInfo@@H@Z 00000001800128a0 f   libvcruntime:ehstate.obj
 0001:000118ac       ?SetUnwindTryBlock@__FrameHandler3@@SAXPEA_KPEAU_xDISPATCHER_CONTEXT@@PEBU_s_FuncInfo@@H@Z 00000001800128ac f   libvcruntime:ehstate.obj
 0001:000118e8       ?StateFromControlPc@__FrameHandler3@@SAHPEBU_s_FuncInfo@@PEAU_xDISPATCHER_CONTEXT@@@Z 00000001800128e8 f   libvcruntime:ehstate.obj
 0001:000118f0       ?StateFromControlPc@__FrameHandler4@@SAHPEAUFuncInfo4@FH4@@PEAU_xDISPATCHER_CONTEXT@@@Z 00000001800128f0 f   libvcruntime:ehstate.obj
 0001:000118f8       ?StateFromIp@__FrameHandler3@@SAHPEBU_s_FuncInfo@@PEAU_xDISPATCHER_CONTEXT@@_K@Z 00000001800128f8 f   libvcruntime:ehstate.obj
 0001:00011960       ?StateFromIp@__FrameHandler4@@SAHPEAUFuncInfo4@FH4@@PEAU_xDISPATCHER_CONTEXT@@_K@Z 0000000180012960 f   libvcruntime:ehstate.obj
 0001:00013060       ??$TypeMatchHelper@V__FrameHandler3@@@@YAHPEBU_s_HandlerType@@PEBU_s_CatchableType@@PEBU_s_ThrowInfo@@@Z 0000000180014060 f i libvcruntime:frame.obj
 0001:000131a0       ??$TypeMatchHelper@V__FrameHandler4@@@@YAHPEAUHandlerType4@FH4@@PEBU_s_CatchableType@@PEBU_s_ThrowInfo@@@Z 00000001800141a0 f i libvcruntime:frame.obj
 0001:000132e4       ??$__InternalCxxFrameHandler@V__FrameHandler3@@@@YA?AW4_EXCEPTION_DISPOSITION@@PEAUEHExceptionRecord@@PEA_KPEAU_CONTEXT@@PEAU_xDISPATCHER_CONTEXT@@PEBU_s_FuncInfo@@H1E@Z 00000001800142e4 f i libvcruntime:frame.obj
 0001:0001351c       ??$__InternalCxxFrameHandler@V__FrameHandler4@@@@YA?AW4_EXCEPTION_DISPOSITION@@PEAUEHExceptionRecord@@PEA_KPEAU_CONTEXT@@PEAU_xDISPATCHER_CONTEXT@@PEAUFuncInfo4@FH4@@H1E@Z 000000018001451c f i libvcruntime:frame.obj
 0001:000137b0       ??0HandlerMap4@FH4@@QEAA@PEBUTryBlockMapEntry4@1@_KH@Z 00000001800147b0 f i libvcruntime:frame.obj
 0001:0001382c       ??0TryBlockMap4@FH4@@QEAA@PEBUFuncInfo4@1@_K@Z 000000018001482c f i libvcruntime:frame.obj
 0001:00013904       ??0bad_exception@std@@QEAA@AEBV01@@Z 0000000180014904 f i libvcruntime:frame.obj
 0001:00013940       ??0bad_exception@std@@QEAA@XZ 0000000180014940 f i libvcruntime:frame.obj
 0001:00013960       ?CxxCallCatchBlock@__FrameHandler3@@SAPEAXPEAU_EXCEPTION_RECORD@@@Z 0000000180014960 f   libvcruntime:frame.obj
 0001:00013b4c       ?CxxCallCatchBlock@__FrameHandler4@@SAPEAXPEAU_EXCEPTION_RECORD@@@Z 0000000180014b4c f   libvcruntime:frame.obj
 0001:00013d9c       ?DecompHandler@HandlerMap4@FH4@@AEAAXXZ 0000000180014d9c f i libvcruntime:frame.obj
 0001:00013fe8       ?FrameUnwindToState@__FrameHandler3@@SAXPEA_KPEAU_xDISPATCHER_CONTEXT@@PEBU_s_FuncInfo@@H@Z 0000000180014fe8 f   libvcruntime:frame.obj
 0001:00014174       ?FrameUnwindToState@__FrameHandler4@@SAXPEA_KPEAU_xDISPATCHER_CONTEXT@@PEAUFuncInfo4@FH4@@H@Z 0000000180015174 f   libvcruntime:frame.obj
 0001:00014470       ?GetHandlerSearchState@__FrameHandler3@@SAHPEA_KPEAU_xDISPATCHER_CONTEXT@@PEBU_s_FuncInfo@@@Z 0000000180015470 f i libvcruntime:frame.obj
 0001:00014680       ?ReadEntry@UWMap4@FH4@@AEAAXPEAPEAE@Z 0000000180015680 f i libvcruntime:frame.obj
 0001:0001471c       ?_CallMemberFunction1@@YAXQEAX00@Z 000000018001571c f i libvcruntime:frame.obj
 0001:00014728       ?_CallMemberFunction2@@YAXQEAX00H@Z 0000000180015728 f i libvcruntime:frame.obj
 0001:00014738       ?getStartStop@UWMap4@FH4@@QEAAXHHAEAViterator@12@0@Z 0000000180015738 f i libvcruntime:frame.obj
 0001:00014808       ?getStateFromIterators@UWMap4@FH4@@SAHAEBViterator@12@H0H0@Z 0000000180015808 f i libvcruntime:frame.obj
 0001:00014a24       __vcrt_FlsAlloc            0000000180015a24 f   libvcruntime:winapi_downlevel.obj
 0001:00014a6c       __vcrt_FlsFree             0000000180015a6c f   libvcruntime:winapi_downlevel.obj
 0001:00014ab4       __vcrt_FlsGetValue         0000000180015ab4 f   libvcruntime:winapi_downlevel.obj
 0001:00014afc       __vcrt_FlsSetValue         0000000180015afc f   libvcruntime:winapi_downlevel.obj
 0001:00014b50       __vcrt_InitializeCriticalSectionEx 0000000180015b50 f   libvcruntime:winapi_downlevel.obj
 0001:00014bd0       _CallSettingFrame          0000000180015bd0 f   libvcruntime:handlers.obj
 0001:00014c20       _CallSettingFrame_LookupContinuationIndex 0000000180015c20 f   libvcruntime:handlers.obj
 0001:00014c50       _CallSettingFrame_NotifyContinuationAddr 0000000180015c50 f   libvcruntime:handlers.obj
 0001:00014c80       _CallSettingFrameEncoded   0000000180015c80 f   libvcruntime:handlers.obj
 0001:00014cc8       free                       0000000180015cc8 f   libucrt:free.obj
 0001:00014cdc       ?get_raw_ptd@__crt_cached_ptd_host@@QEAAPEAU__acrt_ptd@@XZ 0000000180015cdc f i libucrt:invalid_parameter.obj
 0001:00014d44       ?get_raw_ptd_noexit@__crt_cached_ptd_host@@QEAAPEAU__acrt_ptd@@XZ 0000000180015d44 f i libucrt:invalid_parameter.obj
 0001:00014db0       ?value@?$dual_state_global@P6AXPEB_W00I_K@Z@__crt_state_management@@QEAAAEAP6AXPEB_W00I_K@ZAEAV__crt_cached_ptd_host@@@Z 0000000180015db0 f i libucrt:invalid_parameter.obj
 0001:00014dfc       __acrt_call_reportfault    0000000180015dfc f   libucrt:invalid_parameter.obj
 0001:00014f58       __acrt_initialize_invalid_parameter_handler 0000000180015f58 f   libucrt:invalid_parameter.obj
 0001:00014f60       _invalid_parameter         0000000180015f60 f   libucrt:invalid_parameter.obj
 0001:00014ffc       _invalid_parameter_internal 0000000180015ffc f   libucrt:invalid_parameter.obj
 0001:000150cc       _invalid_parameter_noinfo  00000001800160cc f   libucrt:invalid_parameter.obj
 0001:000150ec       _invoke_watson             00000001800160ec f   libucrt:invalid_parameter.obj
 0001:00015134       __acrt_errno_from_os_error 0000000180016134 f   libucrt:errno.obj
 0001:0001517c       __acrt_errno_map_os_error  000000018001617c f   libucrt:errno.obj
 0001:000151c4       __acrt_errno_map_os_error_ptd 00000001800161c4 f   libucrt:errno.obj
 0001:000151e8       __doserrno                 00000001800161e8 f   libucrt:errno.obj
 0001:00015208       _errno                     0000000180016208 f   libucrt:errno.obj
 0001:00015228       calloc                     0000000180016228 f   libucrt:calloc.obj
 0001:00015230       malloc                     0000000180016230 f   libucrt:malloc.obj
 0001:00015238       _recalloc                  0000000180016238 f   libucrt:recalloc.obj
 0001:00015240       _recalloc_base             0000000180016240 f   libucrt:recalloc.obj
 0001:000152d8       _resetstkoflw              00000001800162d8 f   libucrt:resetstk.obj
 0001:00015404       wcscat_s                   0000000180016404 f   libucrt:wcscat_s.obj
 0001:00015488       wcscpy_s                   0000000180016488 f   libucrt:wcscpy_s.obj
 0001:000154f0       wcsncpy_s                  00000001800164f0 f   libucrt:wcsncpy_s.obj
 0001:000157a4       ??$ensure_buffer_is_big_enough@D@formatting_buffer@__crt_stdio_output@@QEAA_N_KAEAV__crt_cached_ptd_host@@@Z 00000001800167a4 f i libucrt:output.obj
 0001:0001584c       ??$ensure_buffer_is_big_enough@_W@formatting_buffer@__crt_stdio_output@@QEAA_N_KAEAV__crt_cached_ptd_host@@@Z 000000018001684c f i libucrt:output.obj
 0001:000158f8       ??$is_wide_character_specifier@_W@__crt_stdio_output@@YA_N_K_WW4length_modifier@0@@Z 00000001800168f8 f i libucrt:output.obj
 0001:00015938       ??$parse_integer@KV?$c_string_character_source@_W@__crt_strtox@@$0A@@__crt_strtox@@YAKAEAV__crt_cached_ptd_host@@V?$c_string_character_source@_W@0@H_N@Z 0000000180016938 f i libucrt:output.obj
 0001:00016090       ??$type_case_integer@$07@?$output_processor@_WV?$string_output_adapter@_W@__crt_stdio_output@@V?$format_validation_base@_WV?$string_output_adapter@_W@__crt_stdio_output@@@2@@__crt_stdio_output@@AEAA_N_N@Z 0000000180017090 f i libucrt:output.obj
 0001:0001627c       ??$type_case_integer@$09@?$output_processor@_WV?$string_output_adapter@_W@__crt_stdio_output@@V?$format_validation_base@_WV?$string_output_adapter@_W@__crt_stdio_output@@@2@@__crt_stdio_output@@AEAA_N_N@Z 000000018001727c f i libucrt:output.obj
 0001:00016468       ??$type_case_integer@$0BA@@?$output_processor@_WV?$string_output_adapter@_W@__crt_stdio_output@@V?$format_validation_base@_WV?$string_output_adapter@_W@__crt_stdio_output@@@2@@__crt_stdio_output@@AEAA_N_N@Z 0000000180017468 f i libucrt:output.obj
 0001:00016654       ??$type_case_integer_parse_into_buffer@I$07@?$output_processor@_WV?$string_output_adapter@_W@__crt_stdio_output@@V?$format_validation_base@_WV?$string_output_adapter@_W@__crt_stdio_output@@@2@@__crt_stdio_output@@AEAAXI_N@Z 0000000180017654 f i libucrt:output.obj
 0001:000166dc       ??$type_case_integer_parse_into_buffer@I$09@?$output_processor@_WV?$string_output_adapter@_W@__crt_stdio_output@@V?$format_validation_base@_WV?$string_output_adapter@_W@__crt_stdio_output@@@2@@__crt_stdio_output@@AEAAXI_N@Z 00000001800176dc f i libucrt:output.obj
 0001:00016794       ??$type_case_integer_parse_into_buffer@I$0BA@@?$output_processor@_WV?$string_output_adapter@_W@__crt_stdio_output@@V?$format_validation_base@_WV?$string_output_adapter@_W@__crt_stdio_output@@@2@@__crt_stdio_output@@AEAAXI_N@Z 0000000180017794 f i libucrt:output.obj
 0001:00016838       ??$type_case_integer_parse_into_buffer@_K$07@?$output_processor@_WV?$string_output_adapter@_W@__crt_stdio_output@@V?$format_validation_base@_WV?$string_output_adapter@_W@__crt_stdio_output@@@2@@__crt_stdio_output@@AEAAX_K_N@Z 0000000180017838 f i libucrt:output.obj
 0001:000168c0       ??$type_case_integer_parse_into_buffer@_K$09@?$output_processor@_WV?$string_output_adapter@_W@__crt_stdio_output@@V?$format_validation_base@_WV?$string_output_adapter@_W@__crt_stdio_output@@@2@@__crt_stdio_output@@AEAAX_K_N@Z 00000001800178c0 f i libucrt:output.obj
 0001:00016980       ??$type_case_integer_parse_into_buffer@_K$0BA@@?$output_processor@_WV?$string_output_adapter@_W@__crt_stdio_output@@V?$format_validation_base@_WV?$string_output_adapter@_W@__crt_stdio_output@@@2@@__crt_stdio_output@@AEAAX_K_N@Z 0000000180017980 f i libucrt:output.obj
 0001:00016a24       ?crop_zeroes@__crt_stdio_output@@YAXPEADQEAU__crt_locale_pointers@@@Z 0000000180017a24 f i libucrt:output.obj
 0001:00016a90       ?parse_int_from_format_string@?$output_processor@_WV?$string_output_adapter@_W@__crt_stdio_output@@V?$format_validation_base@_WV?$string_output_adapter@_W@__crt_stdio_output@@@2@@__crt_stdio_output@@AEAA_NQEAH@Z 0000000180017a90 f i libucrt:output.obj
 0001:00016b20       ?process@?$output_processor@_WV?$string_output_adapter@_W@__crt_stdio_output@@V?$format_validation_base@_WV?$string_output_adapter@_W@__crt_stdio_output@@@2@@__crt_stdio_output@@QEAAHXZ 0000000180017b20 f i libucrt:output.obj
 0001:00016dfc       ?state_case_size@?$output_processor@_WV?$string_output_adapter@_W@__crt_stdio_output@@V?$format_validation_base@_WV?$string_output_adapter@_W@__crt_stdio_output@@@2@@__crt_stdio_output@@AEAA_NXZ 0000000180017dfc f i libucrt:output.obj
 0001:00016fa8       ?state_case_type@?$output_processor@_WV?$string_output_adapter@_W@__crt_stdio_output@@V?$format_validation_base@_WV?$string_output_adapter@_W@__crt_stdio_output@@@2@@__crt_stdio_output@@AEAA_NXZ 0000000180017fa8 f i libucrt:output.obj
 0001:00017404       ?type_case_Z@?$output_processor@_WV?$string_output_adapter@_W@__crt_stdio_output@@V?$format_validation_base@_WV?$string_output_adapter@_W@__crt_stdio_output@@@2@@__crt_stdio_output@@AEAA_NXZ 0000000180018404 f i libucrt:output.obj
 0001:00017480       ?type_case_a@?$output_processor@_WV?$string_output_adapter@_W@__crt_stdio_output@@V?$format_validation_base@_WV?$string_output_adapter@_W@__crt_stdio_output@@@2@@__crt_stdio_output@@AEAA_NXZ 0000000180018480 f i libucrt:output.obj
 0001:000176e0       ?type_case_c_tchar@?$output_processor@_WV?$string_output_adapter@_W@__crt_stdio_output@@V?$format_validation_base@_WV?$string_output_adapter@_W@__crt_stdio_output@@@2@@__crt_stdio_output@@AEAA_N_W@Z 00000001800186e0 f i libucrt:output.obj
 0001:000177a4       ?type_case_n@?$output_processor@_WV?$string_output_adapter@_W@__crt_stdio_output@@V?$format_validation_base@_WV?$string_output_adapter@_W@__crt_stdio_output@@@2@@__crt_stdio_output@@AEAA_NXZ 00000001800187a4 f i libucrt:output.obj
 0001:00017858       ?type_case_s@?$output_processor@_WV?$string_output_adapter@_W@__crt_stdio_output@@V?$format_validation_base@_WV?$string_output_adapter@_W@__crt_stdio_output@@@2@@__crt_stdio_output@@AEAA_NXZ 0000000180018858 f i libucrt:output.obj
 0001:000178f0       ?type_case_s_compute_narrow_string_length@?$output_processor@_WV?$string_output_adapter@_W@__crt_stdio_output@@V?$format_validation_base@_WV?$string_output_adapter@_W@__crt_stdio_output@@@2@@__crt_stdio_output@@AEAAHH_W@Z 00000001800188f0 f i libucrt:output.obj
 0001:00017970       ?update_locale_slow@__crt_cached_ptd_host@@AEAAXXZ 0000000180018970 f i libucrt:output.obj
 0001:000179e8       ?write_string@?$string_output_adapter@_W@__crt_stdio_output@@QEBAXQEB_WHQEAHAEAV__crt_cached_ptd_host@@@Z 00000001800189e8 f i libucrt:output.obj
 0001:00017a90       __stdio_common_vswprintf_s 0000000180018a90 f   libucrt:output.obj
 0001:00017ba4       _seh_filter_dll            0000000180018ba4 f   libucrt:exception_filter.obj
 0001:00017bb8       _seh_filter_exe            0000000180018bb8 f   libucrt:exception_filter.obj
 0001:00017fdc       __acrt_initialize_thread_local_exit_callback 0000000180018fdc f   libucrt:exit.obj
 0001:00017fe4       _cexit                     0000000180018fe4 f   libucrt:exit.obj
 0001:00017ff4       _exit                      0000000180018ff4 f   libucrt:exit.obj
 0001:00018000       _is_c_termination_complete 0000000180019000 f   libucrt:exit.obj
 0001:000181c8       __acrt_allocate_buffer_for_argv 00000001800191c8 f   libucrt:argv_parsing.obj
 0001:00018228       _configure_narrow_argv     0000000180019228 f   libucrt:argv_parsing.obj
 0001:000185b0       __dcrt_uninitialize_environments_nolock 00000001800195b0 f   libucrt:environment_initialization.obj
 0001:000185f4       _initialize_narrow_environment 00000001800195f4 f   libucrt:environment_initialization.obj
 0001:00018944       _crt_atexit                0000000180019944 f   libucrt:onexit.obj
 0001:00018954       _execute_onexit_table      0000000180019954 f   libucrt:onexit.obj
 0001:00018998       _initialize_onexit_table   0000000180019998 f   libucrt:onexit.obj
 0001:000189c0       _register_onexit_function  00000001800199c0 f   libucrt:onexit.obj
 0001:00018a40       __acrt_uninitialize_command_line 0000000180019a40 f   libucrt:argv_data.obj
 0001:00018b38       __acrt_initialize          0000000180019b38 f   libucrt:initialization.obj
 0001:00018b4c       __acrt_thread_attach       0000000180019b4c f   libucrt:initialization.obj
 0001:00018b60       __acrt_thread_detach       0000000180019b60 f   libucrt:initialization.obj
 0001:00018b70       __acrt_uninitialize        0000000180019b70 f   libucrt:initialization.obj
 0001:00018ba8       __acrt_uninitialize_critical 0000000180019ba8 f   libucrt:initialization.obj
 0001:00018bb8       _initterm                  0000000180019bb8 f   libucrt:initterm.obj
 0001:00018bfc       _initterm_e                0000000180019bfc f   libucrt:initterm.obj
 0001:00018c44       __acrt_initialize_new_handler 0000000180019c44 f   libucrt:new_handler.obj
 0001:00018c4c       _callnewh                  0000000180019c4c f   libucrt:new_handler.obj
 0001:00018c88       _query_new_handler         0000000180019c88 f   libucrt:new_handler.obj
 0001:00018cbc       terminate                  0000000180019cbc f   libucrt:terminate.obj
 0001:00018ce8       abort                      0000000180019ce8 f   libucrt:abort.obj
 0001:00018d40       strcpy_s                   0000000180019d40 f   libucrt:strcpy_s.obj
 0001:00018db0       strncmp                    0000000180019db0 f   libucrt:strncmp.obj
 0001:00018e30       wcsncmp                    0000000180019e30 f   libucrt:wcsncmp.obj
 0001:00018e5c       _free_base                 0000000180019e5c f   libucrt:free_base.obj
 0001:00019210       __acrt_freeptd             000000018001a210 f   libucrt:per_thread_data.obj
 0001:00019254       __acrt_getptd              000000018001a254 f   libucrt:per_thread_data.obj
 0001:00019328       __acrt_getptd_head         000000018001a328 f   libucrt:per_thread_data.obj
 0001:000193cc       __acrt_getptd_noexit       000000018001a3cc f   libucrt:per_thread_data.obj
 0001:00019494       __acrt_getptd_noexit_explicit 000000018001a494 f   libucrt:per_thread_data.obj
 0001:00019554       __acrt_initialize_ptd      000000018001a554 f   libucrt:per_thread_data.obj
 0001:00019590       __acrt_uninitialize_ptd    000000018001a590 f   libucrt:per_thread_data.obj
 0001:00019624       __acrt_set_locale_changed  000000018001a624 f   libucrt:wsetlocale.obj
 0001:00019630       __acrt_uninitialize_locale 000000018001a630 f   libucrt:wsetlocale.obj
 0001:00019660       _calloc_base               000000018001a660 f   libucrt:calloc_base.obj
 0001:000196d8       _malloc_base               000000018001a6d8 f   libucrt:malloc_base.obj
 0001:00019738       _msize_base                000000018001a738 f   libucrt:msize.obj
 0001:00019774       _realloc_base              000000018001a774 f   libucrt:realloc_base.obj
 0001:000199b0       __acrt_AppPolicyGetProcessTerminationMethodInternal 000000018001a9b0 f   libucrt:winapi_thunks.obj
 0001:00019a08       __acrt_AreFileApisANSI     000000018001aa08 f   libucrt:winapi_thunks.obj
 0001:00019a4c       __acrt_FlsAlloc            000000018001aa4c f   libucrt:winapi_thunks.obj
 0001:00019a54       __acrt_FlsFree             000000018001aa54 f   libucrt:winapi_thunks.obj
 0001:00019a5c       __acrt_FlsGetValue         000000018001aa5c f   libucrt:winapi_thunks.obj
 0001:00019a64       __acrt_FlsSetValue         000000018001aa64 f   libucrt:winapi_thunks.obj
 0001:00019a6c       __acrt_InitializeCriticalSectionEx 000000018001aa6c f   libucrt:winapi_thunks.obj
 0001:00019adc       __acrt_LCMapStringEx       000000018001aadc f   libucrt:winapi_thunks.obj
 0001:00019bc8       __acrt_LocaleNameToLCID    000000018001abc8 f   libucrt:winapi_thunks.obj
 0001:00019c28       __acrt_SetThreadStackGuarantee 000000018001ac28 f   libucrt:winapi_thunks.obj
 0001:00019c74       __acrt_initialize_winapi_thunks 000000018001ac74 f   libucrt:winapi_thunks.obj
 0001:00019c98       __acrt_uninitialize_winapi_thunks 000000018001ac98 f   libucrt:winapi_thunks.obj
 0001:00019cdc       wcsnlen                    000000018001acdc f   libucrt:strnlen.obj
 0001:00019eb4       __acrt_update_locale_info  000000018001aeb4 f   libucrt:locale_update.obj
 0001:00019ee8       __acrt_update_locale_info_explicit 000000018001aee8 f   libucrt:locale_update.obj
 0001:00019f20       __acrt_update_multibyte_info 000000018001af20 f   libucrt:locale_update.obj
 0001:00019f54       __acrt_update_multibyte_info_explicit 000000018001af54 f   libucrt:locale_update.obj
 0001:0001aabc       __acrt_fp_format           000000018001babc f   libucrt:cvt.obj
 0001:0001ada4       _mbtowc_internal           000000018001bda4 f   libucrt:mbtowc.obj
 0001:0001af1c       _fileno                    000000018001bf1c f   libucrt:fileno.obj
 0001:0001af44       __acrt_initialize_stdio    000000018001bf44 f   libucrt:_file.obj
 0001:0001b064       __acrt_uninitialize_stdio  000000018001c064 f   libucrt:_file.obj
 0001:0001b0c0       _lock_file                 000000018001c0c0 f   libucrt:_file.obj
 0001:0001b0cc       _unlock_file               000000018001c0cc f   libucrt:_file.obj
 0001:0001b0d8       _get_printf_count_output   000000018001c0d8 f   libucrt:printf_count_output.obj
 0001:0001b2e8       __acrt_initialize_lowio    000000018001c2e8 f   libucrt:ioinit.obj
 0001:0001b324       __acrt_uninitialize_lowio  000000018001c324 f   libucrt:ioinit.obj
 0001:0001b364       __acrt_initialize_locks    000000018001c364 f   libucrt:locks.obj
 0001:0001b3ac       __acrt_lock                000000018001c3ac f   libucrt:locks.obj
 0001:0001b3c8       __acrt_uninitialize_locks  000000018001c3c8 f   libucrt:locks.obj
 0001:0001b400       __acrt_unlock              000000018001c400 f   libucrt:locks.obj
 0001:0001b41c       __acrt_get_process_end_policy 000000018001c41c f   libucrt:win_policies.obj
 0001:0001b46c       ??$__acrt_convert_wcs_mbs_cp@D_WV<lambda_7c9dea7b4ca7285d2cdb541a38da6275>@@U__crt_win32_buffer_internal_dynamic_resizing@@@@YAHQEBDAEAV?$__crt_win32_buffer@_WU__crt_win32_buffer_internal_dynamic_resizing@@@@AEBV<lambda_7c9dea7b4ca7285d2cdb541a38da6275>@@I@Z 000000018001c46c f i libucrt:argv_wildcards.obj
 0001:0001b5e8       ??$__acrt_convert_wcs_mbs_cp@_WDV<lambda_d8593a27d1aa8c02be35c86a17d324c4>@@U__crt_win32_buffer_internal_dynamic_resizing@@@@YAHQEB_WAEAV?$__crt_win32_buffer@DU__crt_win32_buffer_internal_dynamic_resizing@@@@AEBV<lambda_d8593a27d1aa8c02be35c86a17d324c4>@@I@Z 000000018001c5e8 f i libucrt:argv_wildcards.obj
 0001:0001be90       ??0_LocaleUpdate@@QEAA@QEAU__crt_locale_pointers@@@Z 000000018001ce90 f i libucrt:argv_wildcards.obj
 0001:0001bf2c       __acrt_expand_narrow_argv_wildcards 000000018001cf2c f   libucrt:argv_wildcards.obj
 0001:0001bf34       ??$__acrt_convert_wcs_mbs_cp@_WDV<lambda_f788ae46380686e8b737efdd8c720d07>@@U__crt_win32_buffer_no_resizing@@@@YAHQEB_WAEAV?$__crt_win32_buffer@DU__crt_win32_buffer_no_resizing@@@@AEBV<lambda_f788ae46380686e8b737efdd8c720d07>@@I@Z 000000018001cf34 f i libucrt:getmodulefilenamea.obj
 0001:0001c050       __acrt_GetModuleFileNameA  000000018001d050 f   libucrt:getmodulefilenamea.obj
 0001:0001c96c       __acrt_initialize_multibyte 000000018001d96c f   libucrt:mbctype.obj
 0001:0001c9cc       __acrt_update_thread_multibyte_data 000000018001d9cc f   libucrt:mbctype.obj
 0001:0001c9e8       _setmbcp_nolock            000000018001d9e8 f   libucrt:mbctype.obj
 0001:0001cd1c       _ismbblead                 000000018001dd1c f   libucrt:ismbbyte.obj
 0001:0001cd30       __acrt_initialize_command_line 000000018001dd30 f   libucrt:argv_data.obj
 0001:0001cd58       __acrt_MultiByteToWideChar 000000018001dd58 f   libucrt:multibytetowidechar.obj
 0001:0001cdb4       __acrt_WideCharToMultiByte 000000018001ddb4 f   libucrt:widechartomultibyte.obj
 0001:0001ce64       __dcrt_get_narrow_environment_from_os 000000018001de64 f   libucrt:get_environment_from_os.obj
 0001:0001cf74       __acrt_initialize_heap     000000018001df74 f   libucrt:heap_handle.obj
 0001:0001cf90       __acrt_uninitialize_heap   000000018001df90 f   libucrt:heap_handle.obj
 0001:0001cf9c       __acrt_execute_initializers 000000018001df9c f   libucrt:shared_initialization.obj
 0001:0001d030       __acrt_execute_uninitializers 000000018001e030 f   libucrt:shared_initialization.obj
 0001:0001d0c0       __acrt_get_sigabrt_handler 000000018001e0c0 f   libucrt:signal.obj
 0001:0001d0f0       __acrt_initialize_signal_handlers 000000018001e0f0 f   libucrt:signal.obj
 0001:0001d110       raise                      000000018001e110 f   libucrt:signal.obj
 0001:0001d390       __acrt_has_user_matherr    000000018001e390 f   libucrt:matherr.obj
 0001:0001d3b0       __acrt_initialize_user_matherr 000000018001e3b0 f   libucrt:matherr.obj
 0001:0001d3b8       __acrt_invoke_user_matherr 000000018001e3b8 f   libucrt:matherr.obj
 0001:0001d5cc       __acrt_stdio_flush_nolock  000000018001e5cc f   libucrt:fflush.obj
 0001:0001d658       _fflush_nolock             000000018001e658 f   libucrt:fflush.obj
 0001:0001d72c       _flushall                  000000018001e72c f   libucrt:fflush.obj
 0001:0001d734       __acrt_add_locale_ref      000000018001e734 f   libucrt:locale_refcounting.obj
 0001:0001d7c0       __acrt_free_locale         000000018001e7c0 f   libucrt:locale_refcounting.obj
 0001:0001d938       __acrt_locale_add_lc_time_reference 000000018001e938 f   libucrt:locale_refcounting.obj
 0001:0001d960       __acrt_locale_free_lc_time_if_unreferenced 000000018001e960 f   libucrt:locale_refcounting.obj
 0001:0001d998       __acrt_locale_release_lc_time_reference 000000018001e998 f   libucrt:locale_refcounting.obj
 0001:0001d9c0       __acrt_release_locale_ref  000000018001e9c0 f   libucrt:locale_refcounting.obj
 0001:0001da68       __acrt_update_thread_locale_data 000000018001ea68 f   libucrt:locale_refcounting.obj
 0001:0001dad8       _updatetlocinfoEx_nolock   000000018001ead8 f   libucrt:locale_refcounting.obj
 0001:0001db40       __acrt_locale_free_monetary 000000018001eb40 f   libucrt:initmon.obj
 0001:0001dc4c       __acrt_locale_free_numeric 000000018001ec4c f   libucrt:initnum.obj
 0001:0001dcec       __acrt_locale_free_time    000000018001ecec f   libucrt:inittime.obj
 0001:0001ddf4       __acrt_GetStringTypeA      000000018001edf4 f   libucrt:getstringtypea.obj
 0001:0001df90       _query_new_mode            000000018001ef90 f   libucrt:new_mode.obj
 0001:0001df98       __acrt_DownlevelLocaleNameToLCID 000000018001ef98 f   libucrt:lcidtoname_downlevel.obj
 0001:0001e040       __acrt_fp_strflt_to_string 000000018001f040 f   libucrt:_fptostr.obj
 0001:0001e1d0       ?divide@__crt_strtox@@YA_KAEAUbig_integer@1@AEBU21@@Z 000000018001f1d0 f i libucrt:cfout.obj
 0001:0001e65c       __acrt_fltout              000000018001f65c f   libucrt:cfout.obj
 0001:0001f924       fegetround                 0000000180020924 f   libucrt:fegetround.obj
 0001:0001f938       ?__mbrtowc_utf8@__crt_mbstring@@YA_KPEA_WPEBD_KPEAU_Mbstatet@@AEAV__crt_cached_ptd_host@@@Z 0000000180020938 f   libucrt:mbrtowc.obj
 0001:0001f97c       ?__mbsrtowcs_utf8@__crt_mbstring@@YA_KPEA_WPEAPEBD_KPEAU_Mbstatet@@AEAV__crt_cached_ptd_host@@@Z 000000018002097c f   libucrt:mbrtowc.obj
 0001:0001fb20       _fcloseall                 0000000180020b20 f   libucrt:closeall.obj
 0001:0001fbd4       __acrt_stdio_free_buffer_nolock 0000000180020bd4 f   libucrt:_freebuf.obj
 0001:0001fc14       _isatty                    0000000180020c14 f   libucrt:isatty.obj
 0001:0001fc74       __acrt_lowio_create_handle_array 0000000180020c74 f   libucrt:osfinfo.obj
 0001:0001fd1c       __acrt_lowio_destroy_handle_array 0000000180020d1c f   libucrt:osfinfo.obj
 0001:0001fd6c       __acrt_lowio_ensure_fh_exists 0000000180020d6c f   libucrt:osfinfo.obj
 0001:0001fe14       __acrt_lowio_lock_fh       0000000180020e14 f   libucrt:osfinfo.obj
 0001:0001fe3c       __acrt_lowio_unlock_fh     0000000180020e3c f   libucrt:osfinfo.obj
 0001:0001fe64       _free_osfhnd               0000000180020e64 f   libucrt:osfinfo.obj
 0001:0001ff20       _get_osfhandle             0000000180020f20 f   libucrt:osfinfo.obj
 0001:0001ffa0       qsort                      0000000180020fa0 f   libucrt:qsort.obj
 0001:000203b0       strncpy_s                  00000001800213b0 f   libucrt:strncpy_s.obj
 0001:00020540       strpbrk                    0000000180021540 f   libucrt:strpbrk.obj
 0001:00020908       _mbsdec                    0000000180021908 f   libucrt:mbsdec.obj
 0001:00020910       _mbsdec_l                  0000000180021910 f   libucrt:mbsdec.obj
 0001:00020cc4       __acrt_LCMapStringA        0000000180021cc4 f   libucrt:lcmapstringa.obj
 0001:00020e00       _commit                    0000000180021e00 f   libucrt:commit.obj
 0001:000216b0       _write_internal            00000001800226b0 f   libucrt:write.obj
 0001:000217d8       _write_nolock              00000001800227d8 f   libucrt:write.obj
 0001:00021ae8       __ascii_wcsnicmp           0000000180022ae8 f   libucrt:wcsnicmp.obj
 0001:00021b34       _controlfp_s               0000000180022b34 f   libucrt:contrlfp.obj
 0001:00021b98       fegetenv                   0000000180022b98 f   libucrt:fegetenv.obj
 0001:00021bb8       fesetenv                   0000000180022bb8 f   libucrt:fesetenv.obj
 0001:00021c04       feholdexcept               0000000180022c04 f   libucrt:feholdexcept.obj
 0001:00021c54       ceil                       0000000180022c54 f   libucrt:ceil.obj
 0001:00021d20       log10                      0000000180022d20 f   libucrt:log10.obj
 0001:000222cc       __acrt_fenv_get_common_round_control 00000001800232cc f   libucrt:_fenvutils.obj
 0001:000222d8       __acrt_fenv_get_control    00000001800232d8 f   libucrt:_fenvutils.obj
 0001:000223bc       __acrt_fenv_get_status     00000001800233bc f   libucrt:_fenvutils.obj
 0001:00022414       __acrt_fenv_set_control    0000000180023414 f   libucrt:_fenvutils.obj
 0001:00022550       __acrt_fenv_set_status     0000000180023550 f   libucrt:_fenvutils.obj
 0001:000225c4       ?reset_and_return@__crt_mbstring@@YA_K_KPEAU_Mbstatet@@@Z 00000001800235c4 f   libucrt:common_utf8.obj
 0001:000225cc       ?return_illegal_sequence@__crt_mbstring@@YA_KPEAU_Mbstatet@@AEAV__crt_cached_ptd_host@@@Z 00000001800235cc f   libucrt:common_utf8.obj
 0001:000225e0       ?__mbrtoc32_utf8@__crt_mbstring@@YA_KPEA_UPEBD_KPEAU_Mbstatet@@AEAV__crt_cached_ptd_host@@@Z 00000001800235e0 f   libucrt:mbrtoc32.obj
 0001:000228dc       fclose                     00000001800238dc f   libucrt:fclose.obj
 0001:00022a20       _lseeki64_nolock_internal  0000000180023a20 f   libucrt:lseek.obj
 0001:00022a28       _query_app_type            0000000180023a28 f   libucrt:report_runtime_error.obj
 0001:00022a30       __strncnt                  0000000180023a30 f   libucrt:strncnt.obj
 0001:00022a48       _putwch_nolock             0000000180023a48 f   libucrt:putwch.obj
 0001:00022a84       _clearfp                   0000000180023a84 f   libucrt:ieee.obj
 0001:00022af4       _control87                 0000000180023af4 f   libucrt:ieee.obj
 0001:00022ee0       _handle_error              0000000180023ee0 f   libucrt:libm_error.obj
 0001:00023008       _handle_nan                0000000180024008 f   libucrt:libm_error.obj
 0001:00023030       __acrt_initialize_fma3     0000000180024030 f   libucrt:fma3_available.obj
 0001:000230a0       _log10_special             00000001800240a0 f   libucrt:log_special.obj
 0001:000231d0       _close_internal            00000001800241d0 f   libucrt:close.obj
 0001:00023294       _close_nolock_internal     0000000180024294 f   libucrt:close.obj
 0001:00023364       ?__acrt_stdio_free_stream@@YAXV__crt_stdio_stream@@@Z 0000000180024364 f   libucrt:stream.obj
 0001:00023380       __dcrt_lowio_ensure_console_output_initialized 0000000180024380 f   libucrt:initcon.obj
 0001:000233d4       __dcrt_terminate_console_output 00000001800243d4 f   libucrt:initcon.obj
 0001:000233f0       __dcrt_write_console       00000001800243f0 f   libucrt:initcon.obj
 0001:000234c0       _get_fpsr                  00000001800244c0 f   libucrt:fpsr.obj
 0001:000234d0       _set_fpsr                  00000001800244d0 f   libucrt:fpsr.obj
 0001:000234da       _fclrf                     00000001800244da f   libucrt:fpsr.obj
 0001:000234ee       _frnd                      00000001800244ee f   libucrt:fpsr.obj
 0001:00023510       _raise_exc                 0000000180024510 f   libucrt:fpexcept.obj
 0001:00023538       _raise_exc_ex              0000000180024538 f   libucrt:fpexcept.obj
 0001:00023848       _set_errno_from_matherr    0000000180024848 f   libucrt:fpexcept.obj
 0001:00023878       _clrfp                     0000000180024878 f   libucrt:fpctrl.obj
 0001:00023898       _ctrlfp                    0000000180024898 f   libucrt:fpctrl.obj
 0001:00023914       _set_statfp                0000000180024914 f   libucrt:fpctrl.obj
 0001:00023934       _statfp                    0000000180024934 f   libucrt:fpctrl.obj
 0001:00023950       _FindPESection             0000000180024950 f   LIBCMT:pesect.obj
 0001:000239a0       _IsNonwritableInCurrentImage 00000001800249a0 f   LIBCMT:pesect.obj
 0001:000239f0       _ValidateImageBase         00000001800249f0 f   LIBCMT:pesect.obj
 0001:00023a1c       __GSHandlerCheck_EH        0000000180024a1c f   LIBCMT:gshandlereh.obj
 0001:00023a9c       __C_specific_handler_noexcept 0000000180024a9c f   libvcruntime:chandler_noexcept.obj
 0001:00023ae8       strrchr                    0000000180024ae8 f   libvcruntime:strrchr.obj
 0001:00023c40       _guard_dispatch_icall_nop  0000000180024c40 f   LIBCMT:guard_dispatch.obj
 0001:00023c60       _guard_xfg_dispatch_icall_nop 0000000180024c60 f   LIBCMT:guard_xfg_dispatch.obj
 0002:00000000       __imp_RegQueryValueExW     0000000180026000     advapi32:ADVAPI32.dll
 0002:00000008       __imp_RegSetValueExW       0000000180026008     advapi32:ADVAPI32.dll
 0002:00000010       __imp_RegQueryInfoKeyW     0000000180026010     advapi32:ADVAPI32.dll
 0002:00000018       __imp_RegOpenKeyExW        0000000180026018     advapi32:ADVAPI32.dll
 0002:00000020       __imp_RegEnumKeyExW        0000000180026020     advapi32:ADVAPI32.dll
 0002:00000028       __imp_RegDeleteValueW      0000000180026028     advapi32:ADVAPI32.dll
 0002:00000030       __imp_RegDeleteKeyW        0000000180026030     advapi32:ADVAPI32.dll
 0002:00000038       __imp_RegCreateKeyExW      0000000180026038     advapi32:ADVAPI32.dll
 0002:00000040       __imp_RegCloseKey          0000000180026040     advapi32:ADVAPI32.dll
 0002:00000048       \177ADVAPI32_NULL_THUNK_DATA 0000000180026048     advapi32:ADVAPI32.dll
 0002:00000050       __imp_GetObjectW           0000000180026050     gdi32:GDI32.dll
 0002:00000058       __imp_SelectObject         0000000180026058     gdi32:GDI32.dll
 0002:00000060       __imp_DeleteObject         0000000180026060     gdi32:GDI32.dll
 0002:00000068       __imp_CreateCompatibleDC   0000000180026068     gdi32:GDI32.dll
 0002:00000070       __imp_BitBlt               0000000180026070     gdi32:GDI32.dll
 0002:00000078       __imp_SetWindowOrgEx       0000000180026078     gdi32:GDI32.dll
 0002:00000080       __imp_SetWindowExtEx       0000000180026080     gdi32:GDI32.dll
 0002:00000088       __imp_SetViewportOrgEx     0000000180026088     gdi32:GDI32.dll
 0002:00000090       __imp_LPtoDP               0000000180026090     gdi32:GDI32.dll
 0002:00000098       __imp_SetMapMode           0000000180026098     gdi32:GDI32.dll
 0002:000000a0       __imp_SaveDC               00000001800260a0     gdi32:GDI32.dll
 0002:000000a8       __imp_RestoreDC            00000001800260a8     gdi32:GDI32.dll
 0002:000000b0       __imp_GetDeviceCaps        00000001800260b0     gdi32:GDI32.dll
 0002:000000b8       __imp_DeleteMetaFile       00000001800260b8     gdi32:GDI32.dll
 0002:000000c0       __imp_DeleteDC             00000001800260c0     gdi32:GDI32.dll
 0002:000000c8       __imp_CreateRectRgnIndirect 00000001800260c8     gdi32:GDI32.dll
 0002:000000d0       __imp_CreateMetaFileW      00000001800260d0     gdi32:GDI32.dll
 0002:000000d8       __imp_CreateDCW            00000001800260d8     gdi32:GDI32.dll
 0002:000000e0       __imp_CloseMetaFile        00000001800260e0     gdi32:GDI32.dll
 0002:000000e8       \177GDI32_NULL_THUNK_DATA  00000001800260e8     gdi32:GDI32.dll
 0002:000000f0       __imp_CloseHandle          00000001800260f0     kernel32:KERNEL32.dll
 0002:000000f8       __imp_SetEvent             00000001800260f8     kernel32:KERNEL32.dll
 0002:00000100       __imp_CreateMutexW         0000000180026100     kernel32:KERNEL32.dll
 0002:00000108       __imp_CreateEventW         0000000180026108     kernel32:KERNEL32.dll
 0002:00000110       __imp_GetCurrentProcessId  0000000180026110     kernel32:KERNEL32.dll
 0002:00000118       __imp_WriteConsoleW        0000000180026118     kernel32:KERNEL32.dll
 0002:00000120       __imp_CreateFileW          0000000180026120     kernel32:KERNEL32.dll
 0002:00000128       __imp_GetConsoleMode       0000000180026128     kernel32:KERNEL32.dll
 0002:00000130       __imp_GetConsoleOutputCP   0000000180026130     kernel32:KERNEL32.dll
 0002:00000138       __imp_WriteFile            0000000180026138     kernel32:KERNEL32.dll
 0002:00000140       __imp_FlushFileBuffers     0000000180026140     kernel32:KERNEL32.dll
 0002:00000148       __imp_SetStdHandle         0000000180026148     kernel32:KERNEL32.dll
 0002:00000150       __imp_SetFilePointerEx     0000000180026150     kernel32:KERNEL32.dll
 0002:00000158       __imp_GetStringTypeW       0000000180026158     kernel32:KERNEL32.dll
 0002:00000160       __imp_FreeEnvironmentStringsW 0000000180026160     kernel32:KERNEL32.dll
 0002:00000168       __imp_lstrcmpiW            0000000180026168     kernel32:KERNEL32.dll
 0002:00000170       __imp_GetCommandLineW      0000000180026170     kernel32:KERNEL32.dll
 0002:00000178       __imp_GetCommandLineA      0000000180026178     kernel32:KERNEL32.dll
 0002:00000180       __imp_GetCPInfo            0000000180026180     kernel32:KERNEL32.dll
 0002:00000188       __imp_GetOEMCP             0000000180026188     kernel32:KERNEL32.dll
 0002:00000190       __imp_GetACP               0000000180026190     kernel32:KERNEL32.dll
 0002:00000198       __imp_IsValidCodePage      0000000180026198     kernel32:KERNEL32.dll
 0002:000001a0       __imp_FindNextFileW        00000001800261a0     kernel32:KERNEL32.dll
 0002:000001a8       __imp_FindFirstFileExW     00000001800261a8     kernel32:KERNEL32.dll
 0002:000001b0       __imp_FindClose            00000001800261b0     kernel32:KERNEL32.dll
 0002:000001b8       __imp_GetFileType          00000001800261b8     kernel32:KERNEL32.dll
 0002:000001c0       __imp_GetStdHandle         00000001800261c0     kernel32:KERNEL32.dll
 0002:000001c8       __imp_LCMapStringW         00000001800261c8     kernel32:KERNEL32.dll
 0002:000001d0       __imp_FlsFree              00000001800261d0     kernel32:KERNEL32.dll
 0002:000001d8       __imp_FlsSetValue          00000001800261d8     kernel32:KERNEL32.dll
 0002:000001e0       __imp_MulDiv               00000001800261e0     kernel32:KERNEL32.dll
 0002:000001e8       __imp_GlobalLock           00000001800261e8     kernel32:KERNEL32.dll
 0002:000001f0       __imp_GlobalUnlock         00000001800261f0     kernel32:KERNEL32.dll
 0002:000001f8       __imp_GlobalAlloc          00000001800261f8     kernel32:KERNEL32.dll
 0002:00000200       __imp_FindResourceW        0000000180026200     kernel32:KERNEL32.dll
 0002:00000208       __imp_SizeofResource       0000000180026208     kernel32:KERNEL32.dll
 0002:00000210       __imp_LoadResource         0000000180026210     kernel32:KERNEL32.dll
 0002:00000218       __imp_LoadLibraryExW       0000000180026218     kernel32:KERNEL32.dll
 0002:00000220       __imp_GetProcAddress       0000000180026220     kernel32:KERNEL32.dll
 0002:00000228       __imp_GetModuleHandleW     0000000180026228     kernel32:KERNEL32.dll
 0002:00000230       __imp_GetModuleFileNameW   0000000180026230     kernel32:KERNEL32.dll
 0002:00000238       __imp_FreeLibrary          0000000180026238     kernel32:KERNEL32.dll
 0002:00000240       __imp_DisableThreadLibraryCalls 0000000180026240     kernel32:KERNEL32.dll
 0002:00000248       __imp_GetCurrentThreadId   0000000180026248     kernel32:KERNEL32.dll
 0002:00000250       __imp_Sleep                0000000180026250     kernel32:KERNEL32.dll
 0002:00000258       __imp_WaitForSingleObject  0000000180026258     kernel32:KERNEL32.dll
 0002:00000260       __imp_ReleaseMutex         0000000180026260     kernel32:KERNEL32.dll
 0002:00000268       __imp_ResetEvent           0000000180026268     kernel32:KERNEL32.dll
 0002:00000270       __imp_EnterCriticalSection 0000000180026270     kernel32:KERNEL32.dll
 0002:00000278       __imp_LeaveCriticalSection 0000000180026278     kernel32:KERNEL32.dll
 0002:00000280       __imp_SetLastError         0000000180026280     kernel32:KERNEL32.dll
 0002:00000288       __imp_EncodePointer        0000000180026288     kernel32:KERNEL32.dll
 0002:00000290       __imp_DeleteCriticalSection 0000000180026290     kernel32:KERNEL32.dll
 0002:00000298       __imp_InitializeCriticalSectionEx 0000000180026298     kernel32:KERNEL32.dll
 0002:000002a0       __imp_GetLastError         00000001800262a0     kernel32:KERNEL32.dll
 0002:000002a8       __imp_RaiseException       00000001800262a8     kernel32:KERNEL32.dll
 0002:000002b0       __imp_DecodePointer        00000001800262b0     kernel32:KERNEL32.dll
 0002:000002b8       __imp_WideCharToMultiByte  00000001800262b8     kernel32:KERNEL32.dll
 0002:000002c0       __imp_GetEnvironmentStringsW 00000001800262c0     kernel32:KERNEL32.dll
 0002:000002c8       __imp_MultiByteToWideChar  00000001800262c8     kernel32:KERNEL32.dll
 0002:000002d0       __imp_FlsGetValue          00000001800262d0     kernel32:KERNEL32.dll
 0002:000002d8       __imp_FlsAlloc             00000001800262d8     kernel32:KERNEL32.dll
 0002:000002e0       __imp_HeapReAlloc          00000001800262e0     kernel32:KERNEL32.dll
 0002:000002e8       __imp_HeapSize             00000001800262e8     kernel32:KERNEL32.dll
 0002:000002f0       __imp_GetModuleHandleExW   00000001800262f0     kernel32:KERNEL32.dll
 0002:000002f8       __imp_ExitProcess          00000001800262f8     kernel32:KERNEL32.dll
 0002:00000300       __imp_VirtualQuery         0000000180026300     kernel32:KERNEL32.dll
 0002:00000308       __imp_VirtualProtect       0000000180026308     kernel32:KERNEL32.dll
 0002:00000310       __imp_GetSystemInfo        0000000180026310     kernel32:KERNEL32.dll
 0002:00000318       __imp_TlsFree              0000000180026318     kernel32:KERNEL32.dll
 0002:00000320       __imp_TlsSetValue          0000000180026320     kernel32:KERNEL32.dll
 0002:00000328       __imp_TlsGetValue          0000000180026328     kernel32:KERNEL32.dll
 0002:00000330       __imp_TlsAlloc             0000000180026330     kernel32:KERNEL32.dll
 0002:00000338       __imp_RtlPcToFileHeader    0000000180026338     kernel32:KERNEL32.dll
 0002:00000340       __imp_InterlockedFlushSList 0000000180026340     kernel32:KERNEL32.dll
 0002:00000348       __imp_RtlUnwindEx          0000000180026348     kernel32:KERNEL32.dll
 0002:00000350       __imp_LoadLibraryExA       0000000180026350     kernel32:KERNEL32.dll
 0002:00000358       __imp_VirtualFree          0000000180026358     kernel32:KERNEL32.dll
 0002:00000360       __imp_VirtualAlloc         0000000180026360     kernel32:KERNEL32.dll
 0002:00000368       __imp_FlushInstructionCache 0000000180026368     kernel32:KERNEL32.dll
 0002:00000370       __imp_InterlockedPushEntrySList 0000000180026370     kernel32:KERNEL32.dll
 0002:00000378       __imp_InterlockedPopEntrySList 0000000180026378     kernel32:KERNEL32.dll
 0002:00000380       __imp_GetProcessHeap       0000000180026380     kernel32:KERNEL32.dll
 0002:00000388       __imp_HeapFree             0000000180026388     kernel32:KERNEL32.dll
 0002:00000390       __imp_HeapAlloc            0000000180026390     kernel32:KERNEL32.dll
 0002:00000398       __imp_OutputDebugStringW   0000000180026398     kernel32:KERNEL32.dll
 0002:000003a0       __imp_InitializeSListHead  00000001800263a0     kernel32:KERNEL32.dll
 0002:000003a8       __imp_GetSystemTimeAsFileTime 00000001800263a8     kernel32:KERNEL32.dll
 0002:000003b0       __imp_QueryPerformanceCounter 00000001800263b0     kernel32:KERNEL32.dll
 0002:000003b8       __imp_GetStartupInfoW      00000001800263b8     kernel32:KERNEL32.dll
 0002:000003c0       __imp_InitializeCriticalSectionAndSpinCount 00000001800263c0     kernel32:KERNEL32.dll
 0002:000003c8       __imp_WaitForSingleObjectEx 00000001800263c8     kernel32:KERNEL32.dll
 0002:000003d0       __imp_RtlCaptureContext    00000001800263d0     kernel32:KERNEL32.dll
 0002:000003d8       __imp_RtlLookupFunctionEntry 00000001800263d8     kernel32:KERNEL32.dll
 0002:000003e0       __imp_RtlVirtualUnwind     00000001800263e0     kernel32:KERNEL32.dll
 0002:000003e8       __imp_UnhandledExceptionFilter 00000001800263e8     kernel32:KERNEL32.dll
 0002:000003f0       __imp_SetUnhandledExceptionFilter 00000001800263f0     kernel32:KERNEL32.dll
 0002:000003f8       __imp_GetCurrentProcess    00000001800263f8     kernel32:KERNEL32.dll
 0002:00000400       __imp_TerminateProcess     0000000180026400     kernel32:KERNEL32.dll
 0002:00000408       __imp_IsProcessorFeaturePresent 0000000180026408     kernel32:KERNEL32.dll
 0002:00000410       __imp_IsDebuggerPresent    0000000180026410     kernel32:KERNEL32.dll
 0002:00000418       \177KERNEL32_NULL_THUNK_DATA 0000000180026418     kernel32:KERNEL32.dll
 0002:00000420       __imp_OleCreatePropertyFrame 0000000180026420     oleaut32:OLEAUT32.dll
 0002:00000428       __imp_UnRegisterTypeLib    0000000180026428     oleaut32:OLEAUT32.dll
 0002:00000430       __imp_RegisterTypeLib      0000000180026430     oleaut32:OLEAUT32.dll
 0002:00000438       __imp_LoadRegTypeLib       0000000180026438     oleaut32:OLEAUT32.dll
 0002:00000440       __imp_LoadTypeLib          0000000180026440     oleaut32:OLEAUT32.dll
 0002:00000448       __imp_VarUI4FromStr        0000000180026448     oleaut32:OLEAUT32.dll
 0002:00000450       __imp_VariantInit          0000000180026450     oleaut32:OLEAUT32.dll
 0002:00000458       __imp_SysAllocStringByteLen 0000000180026458     oleaut32:OLEAUT32.dll
 0002:00000460       __imp_SysStringByteLen     0000000180026460     oleaut32:OLEAUT32.dll
 0002:00000468       __imp_VariantChangeType    0000000180026468     oleaut32:OLEAUT32.dll
 0002:00000470       __imp_VariantClear         0000000180026470     oleaut32:OLEAUT32.dll
 0002:00000478       __imp_SysStringLen         0000000180026478     oleaut32:OLEAUT32.dll
 0002:00000480       __imp_SysFreeString        0000000180026480     oleaut32:OLEAUT32.dll
 0002:00000488       __imp_SysAllocStringLen    0000000180026488     oleaut32:OLEAUT32.dll
 0002:00000490       __imp_SysAllocString       0000000180026490     oleaut32:OLEAUT32.dll
 0002:00000498       \177OLEAUT32_NULL_THUNK_DATA 0000000180026498     oleaut32:OLEAUT32.dll
 0002:000004a0       __imp_UnregisterClassW     00000001800264a0     user32:USER32.dll
 0002:000004a8       __imp_PostMessageW         00000001800264a8     user32:USER32.dll
 0002:000004b0       __imp_DefWindowProcW       00000001800264b0     user32:USER32.dll
 0002:000004b8       __imp_CallWindowProcW      00000001800264b8     user32:USER32.dll
 0002:000004c0       __imp_RegisterClassExW     00000001800264c0     user32:USER32.dll
 0002:000004c8       __imp_GetClassInfoExW      00000001800264c8     user32:USER32.dll
 0002:000004d0       __imp_CreateWindowExW      00000001800264d0     user32:USER32.dll
 0002:000004d8       __imp_IsWindow             00000001800264d8     user32:USER32.dll
 0002:000004e0       __imp_IsChild              00000001800264e0     user32:USER32.dll
 0002:000004e8       __imp_DestroyWindow        00000001800264e8     user32:USER32.dll
 0002:000004f0       __imp_ShowWindow           00000001800264f0     user32:USER32.dll
 0002:000004f8       __imp_SetWindowPos         00000001800264f8     user32:USER32.dll
 0002:00000500       __imp_CharNextW            0000000180026500     user32:USER32.dll
 0002:00000508       __imp_SetFocus             0000000180026508     user32:USER32.dll
 0002:00000510       __imp_LoadBitmapW          0000000180026510     user32:USER32.dll
 0002:00000518       __imp_RegisterClassW       0000000180026518     user32:USER32.dll
 0002:00000520       __imp_PeekMessageW         0000000180026520     user32:USER32.dll
 0002:00000528       __imp_LoadCursorW          0000000180026528     user32:USER32.dll
 0002:00000530       __imp_GetParent            0000000180026530     user32:USER32.dll
 0002:00000538       __imp_SetWindowLongPtrW    0000000180026538     user32:USER32.dll
 0002:00000540       __imp_GetWindowLongPtrW    0000000180026540     user32:USER32.dll
 0002:00000548       __imp_PtInRect             0000000180026548     user32:USER32.dll
 0002:00000550       __imp_EqualRect            0000000180026550     user32:USER32.dll
 0002:00000558       __imp_OffsetRect           0000000180026558     user32:USER32.dll
 0002:00000560       __imp_UnionRect            0000000180026560     user32:USER32.dll
 0002:00000568       __imp_IntersectRect        0000000180026568     user32:USER32.dll
 0002:00000570       __imp_GetClientRect        0000000180026570     user32:USER32.dll
 0002:00000578       __imp_InvalidateRect       0000000180026578     user32:USER32.dll
 0002:00000580       __imp_SetWindowRgn         0000000180026580     user32:USER32.dll
 0002:00000588       __imp_EndPaint             0000000180026588     user32:USER32.dll
 0002:00000590       __imp_BeginPaint           0000000180026590     user32:USER32.dll
 0002:00000598       __imp_ReleaseDC            0000000180026598     user32:USER32.dll
 0002:000005a0       __imp_GetDC                00000001800265a0     user32:USER32.dll
 0002:000005a8       __imp_GetKeyState          00000001800265a8     user32:USER32.dll
 0002:000005b0       __imp_GetFocus             00000001800265b0     user32:USER32.dll
 0002:000005b8       \177USER32_NULL_THUNK_DATA 00000001800265b8     user32:USER32.dll
 0002:000005c0       __imp_CoCreateInstance     00000001800265c0     ole32:ole32.dll
 0002:000005c8       __imp_StringFromGUID2      00000001800265c8     ole32:ole32.dll
 0002:000005d0       __imp_CoTaskMemAlloc       00000001800265d0     ole32:ole32.dll
 0002:000005d8       __imp_CoTaskMemRealloc     00000001800265d8     ole32:ole32.dll
 0002:000005e0       __imp_CoTaskMemFree        00000001800265e0     ole32:ole32.dll
 0002:000005e8       __imp_WriteClassStm        00000001800265e8     ole32:ole32.dll
 0002:000005f0       __imp_CreateDataAdviseHolder 00000001800265f0     ole32:ole32.dll
 0002:000005f8       __imp_OleSaveToStream      00000001800265f8     ole32:ole32.dll
 0002:00000600       __imp_CreateOleAdviseHolder 0000000180026600     ole32:ole32.dll
 0002:00000608       __imp_OleRegGetUserType    0000000180026608     ole32:ole32.dll
 0002:00000610       __imp_OleRegGetMiscStatus  0000000180026610     ole32:ole32.dll
 0002:00000618       __imp_OleRegEnumVerbs      0000000180026618     ole32:ole32.dll
 0002:00000620       __imp_CLSIDFromProgID      0000000180026620     ole32:ole32.dll
 0002:00000628       __imp_ReadClassStm         0000000180026628     ole32:ole32.dll
 0002:00000630       \177ole32_NULL_THUNK_DATA  0000000180026630     ole32:ole32.dll
 0002:00000638       __guard_check_icall_fptr   0000000180026638     LIBCMT:guard_support.obj
 0002:00000640       __guard_xfg_check_icall_fptr 0000000180026640     LIBCMT:guard_support.obj
 0002:00000648       __guard_dispatch_icall_fptr 0000000180026648     LIBCMT:guard_support.obj
 0002:00000650       __guard_xfg_dispatch_icall_fptr 0000000180026650     LIBCMT:guard_support.obj
 0002:00000658       __guard_xfg_table_dispatch_icall_fptr 0000000180026658     LIBCMT:guard_support.obj
 0002:00000660       __castguard_check_failure_os_handled_fptr 0000000180026660     LIBCMT:guard_support.obj
 0002:00000668       __xc_a                     0000000180026668     LIBCMT:initializers.obj
 0002:00000698       __xc_z                     0000000180026698     LIBCMT:initializers.obj
 0002:000006a0       __xi_a                     00000001800266a0     LIBCMT:initializers.obj
 0002:000006b0       __acrt_stdio_initializer   00000001800266b0     libucrt:stdio_initializer.obj
 0002:000006b8       __acrt_multibyte_initializer 00000001800266b8     libucrt:multibyte_initializer.obj
 0002:000006c0       __acrt_tran_fma3_initializer 00000001800266c0     libucrt:fma3_initializer.obj
 0002:000006c8       __xi_z                     00000001800266c8     LIBCMT:initializers.obj
 0002:000006d0       __xl_a                     00000001800266d0     LIBCMT:tlssup.obj
 0002:000006d8       __xl_z                     00000001800266d8     LIBCMT:tlssup.obj
 0002:000006e0       __xp_a                     00000001800266e0     LIBCMT:initializers.obj
 0002:000006e8       __acrt_locale_terminator   00000001800266e8     libucrt:locale_initializer.obj
 0002:000006f0       __dcrt_console_output_terminator 00000001800266f0     libucrt:console_output_initializer.obj
 0002:000006f8       __acrt_stdio_terminator    00000001800266f8     libucrt:stdio_initializer.obj
 0002:00000700       __xp_z                     0000000180026700     LIBCMT:initializers.obj
 0002:00000708       __xt_a                     0000000180026708     LIBCMT:initializers.obj
 0002:00000710       __xt_z                     0000000180026710     LIBCMT:initializers.obj
 0002:00000720       ??_C@_13HADIAKP@?$AAS@     0000000180026720     OposVariant.obj
 0002:00000724       ??_C@_13LHMFKAAD@?$AAM@    0000000180026724     OposVariant.obj
 0002:00000728       ??_C@_13MKMNOPIJ@?$AAD@    0000000180026728     OposVariant.obj
 0002:0000072c       ??_C@_13OPKGLAFF@?$AAB@    000000018002672c     OposVariant.obj
 0002:00000730       ??_C@_17LLMMEOJD@?$AAV?$AAa?$AAl@ 0000000180026730     OposVariant.obj
 0002:00000738       ??_C@_1BI@JFAIJMHL@?$AAF?$AAo?$AAr?$AAc?$AAe?$AAR?$AAe?$AAm?$AAo?$AAv?$AAe@ 0000000180026738     OposVariant.obj
 0002:00000750       ??_C@_1BC@GCKHIPE@?$AAN?$AAo?$AAR?$AAe?$AAm?$AAo?$AAv?$AAe@ 0000000180026750     OposVariant.obj
 0002:00000768       ??_C@_1O@JDLOHAN@?$AAD?$AAe?$AAl?$AAe?$AAt?$AAe@ 0000000180026768     OposVariant.obj
 0002:00000778       ??_C@_11LOCGONAA@@         0000000180026778     OposVariant.obj
 0002:00000780       ??_7?$CComObject@V?$CComEnum@UIEnumConnections@@$1?_GUID_b196b287_bab4_101a_b69c_00aa00341d07@@3U__s_GUID@@BUtagCONNECTDATA@@V?$_Copy@UtagCONNECTDATA@@@ATL@@VCComSingleThreadModel@6@@ATL@@@ATL@@6B@ 0000000180026780     SoundPlayer.obj
 0002:000007c0       _GUID_55980ba0_35aa_11cf_b671_00aa004cd6d8 00000001800267c0     SoundPlayer.obj
 0002:000007d0       _GUID_b196b28b_bab4_101a_b69c_00aa00341d07 00000001800267d0     SoundPlayer.obj
 0002:000007e0       ?_entries@?1??_GetEntries@?$CComEnum@UIEnumConnections@@$1?_GUID_b196b287_bab4_101a_b69c_00aa00341d07@@3U__s_GUID@@BUtagCONNECTDATA@@V?$_Copy@UtagCONNECTDATA@@@ATL@@VCComSingleThreadModel@6@@ATL@@SAPEBU_ATL_INTMAP_ENTRY@3@XZ@4QBU43@B 00000001800267e0     SoundPlayer.obj
 0002:00000810       ??_7CComClassFactory@ATL@@6B@ 0000000180026810     SoundPlayer.obj
 0002:00000840       ?_entries@?1??_GetEntries@CComClassFactory@ATL@@SAPEBU_ATL_INTMAP_ENTRY@3@XZ@4QBU43@B 0000000180026840     SoundPlayer.obj
 0002:00000870       _GUID_00000001_0000_0000_c000_000000000046 0000000180026870     SoundPlayer.obj
 0002:00000880       IID_IOPOSSoundPlayer_1_16  0000000180026880     SoundPlayer.obj
 0002:00000890       IID_IOPOSSoundPlayer       0000000180026890     SoundPlayer.obj
 0002:000008a0       LIBID_OposSoundPlayer_CCO  00000001800268a0     SoundPlayer.obj
 0002:000008b0       DIID__IOPOSSoundPlayerEvents 00000001800268b0     SoundPlayer.obj
 0002:000008c0       CLSID_OPOSSoundPlayer      00000001800268c0     SoundPlayer.obj
 0002:000008d0       ??_C@_1BK@BIGILECK@?$AAA?$AAd?$AAv?$AAa?$AAp?$AAi?$AA3?$AA2?$AA?4?$AAd?$AAl?$AAl@ 00000001800268d0     SoundPlayer.obj
 0002:000008f0       ??_C@_0BI@MNCFCPFK@RegCreateKeyTransactedW@ 00000001800268f0     SoundPlayer.obj
 0002:00000908       _GUID_00000114_0000_0000_c000_000000000046 0000000180026908     SoundPlayer.obj
 0002:00000918       _GUID_b196b287_bab4_101a_b69c_00aa00341d07 0000000180026918     SoundPlayer.obj
 0002:00000928       _GUID_b196b285_bab4_101a_b69c_00aa00341d07 0000000180026928     SoundPlayer.obj
 0002:00000938       _GUID_a6bc3ac0_dbaa_11ce_9de3_00aa004bb851 0000000180026938     SoundPlayer.obj
 0002:00000948       _GUID_0000010c_0000_0000_c000_000000000046 0000000180026948     SoundPlayer.obj
 0002:00000958       _GUID_00000146_0000_0000_c000_000000000046 0000000180026958     SoundPlayer.obj
 0002:00000970       ?_entries@?1??_GetEntries@COPOSSoundPlayer@@SAPEBU_ATL_INTMAP_ENTRY@ATL@@XZ@4QBU34@B 0000000180026970     SoundPlayer.obj
 0002:00000bb0       _GUID_cf51ed10_62fe_11cf_bf86_00a0c9034836 0000000180026bb0     SoundPlayer.obj
 0002:00000bc0       _GUID_0000010a_0000_0000_c000_000000000046 0000000180026bc0     SoundPlayer.obj
 0002:00000bd0       _GUID_b196b283_bab4_101a_b69c_00aa00341d07 0000000180026bd0     SoundPlayer.obj
 0002:00000be0       _GUID_cb5bdc81_93c1_11cf_8f20_00805f2cd064 0000000180026be0     SoundPlayer.obj
 0002:00000bf0       ?pPropMap@?1??GetPropertyMap@COPOSSoundPlayer@@SAPEBUATL_PROPMAP_ENTRY@ATL@@XZ@4QBU34@B 0000000180026bf0     SoundPlayer.obj
 0002:00000c98       ??_C@_17DGDADEHL@?$AA_?$AAc?$AAx@ 0000000180026c98     SoundPlayer.obj
 0002:00000ca0       ??_C@_17IOIMFDBO@?$AA_?$AAc?$AAy@ 0000000180026ca0     SoundPlayer.obj
 0002:00000ca8       ??_7CComModule@ATL@@6B@    0000000180026ca8     SoundPlayer.obj
 0002:00000cf8       _GUID_00000000_0000_0000_c000_000000000046 0000000180026cf8     SoundPlayer.obj
 0002:00000d08       _GUID_00020400_0000_0000_c000_000000000046 0000000180026d08     SoundPlayer.obj
 0002:00000d18       _GUID_922eada0_3424_11cf_b670_00aa004cd6d8 0000000180026d18     SoundPlayer.obj
 0002:00000d28       _GUID_9c2cad80_3424_11cf_b670_00aa004cd6d8 0000000180026d28     SoundPlayer.obj
 0002:00000d38       _GUID_00000119_0000_0000_c000_000000000046 0000000180026d38     SoundPlayer.obj
 0002:00000d48       _GUID_b196b289_bab4_101a_b69c_00aa00341d07 0000000180026d48     SoundPlayer.obj
 0002:00000d58       ??_7?$CComObjectCached@VCComClassFactory@ATL@@@ATL@@6B@ 0000000180026d58     SoundPlayer.obj
 0002:00000d88       ??_C@_1CE@PGFMOFKI@?$AAS?$AAt?$AAa?$AAt?$AAu?$AAs?$AAU?$AAp?$AAd?$AAa?$AAt?$AAe?$AAE?$AAv?$AAe@ 0000000180026d88     SoundPlayer.obj
 0002:00000db0       ??_C@_1CI@HLBJDONE@?$AAO?$AAu?$AAt?$AAp?$AAu?$AAt?$AAC?$AAo?$AAm?$AAp?$AAl?$AAe?$AAt?$AAe?$AAE@ 0000000180026db0     SoundPlayer.obj
 0002:00000dd8       ??_C@_1BG@LODEBHDD@?$AAE?$AAr?$AAr?$AAo?$AAr?$AAE?$AAv?$AAe?$AAn?$AAt@ 0000000180026dd8     SoundPlayer.obj
 0002:00000df0       ??_C@_1BM@CBGEBBBJ@?$AAD?$AAi?$AAr?$AAe?$AAc?$AAt?$AAI?$AAO?$AAE?$AAv?$AAe?$AAn?$AAt@ 0000000180026df0     SoundPlayer.obj
 0002:00000e10       _GUID_b196b286_bab4_101a_b69c_00aa00341d07 0000000180026e10     SoundPlayer.obj
 0002:00000e20       _GUID_00000117_0000_0000_c000_000000000046 0000000180026e20     SoundPlayer.obj
 0002:00000e30       ??_C@_1BC@ENICKDH@?$AAC?$AAo?$AAn?$AAt?$AAe?$AAn?$AAt?$AAs@ 0000000180026e30     SoundPlayer.obj
 0002:00000e48       ??_7?$CComObject@V?$CComEnum@UIEnumConnectionPoints@@$1?_GUID_b196b285_bab4_101a_b69c_00aa00341d07@@3U__s_GUID@@BPEAUIConnectionPoint@@V?$_CopyInterface@UIConnectionPoint@@@ATL@@VCComSingleThreadModel@6@@ATL@@@ATL@@6B@ 0000000180026e48     SoundPlayer.obj
 0002:00000e88       ??_C@_1M@KANJNLFF@?$AAC?$AAL?$AAS?$AAI?$AAD@ 0000000180026e88     SoundPlayer.obj
 0002:00000e98       ??_C@_1M@EJNEECMJ@?$AAA?$AAp?$AAp?$AAI?$AAD@ 0000000180026e98     SoundPlayer.obj
 0002:00000ea8       _GUID_0000010e_0000_0000_c000_000000000046 0000000180026ea8     SoundPlayer.obj
 0002:00000ec0       ?rgszNeverDelete@CRegParser@ATL@@1QBQEB_WB 0000000180026ec0     SoundPlayer.obj
 0002:00000f20       _GUID_b196b288_bab4_101a_b69c_00aa00341d07 0000000180026f20     SoundPlayer.obj
 0002:00000f30       ??_7CRegObject@ATL@@6B@    0000000180026f30     SoundPlayer.obj
 0002:00000f60       _GUID_00000113_0000_0000_c000_000000000046 0000000180026f60     SoundPlayer.obj
 0002:00000f70       ??_C@_1CK@OEKPKBNA@?$AAC?$AAo?$AAm?$AAp?$AAo?$AAn?$AAe?$AAn?$AAt?$AA?5?$AAC?$AAa?$AAt?$AAe?$AAg@ 0000000180026f70     SoundPlayer.obj
 0002:00000fa0       ??_C@_1BC@NKMMNMGL@?$AAF?$AAi?$AAl?$AAe?$AAT?$AAy?$AAp?$AAe@ 0000000180026fa0     SoundPlayer.obj
 0002:00000fb8       ??_C@_1BE@EKPAFMCP@?$AAI?$AAn?$AAt?$AAe?$AAr?$AAf?$AAa?$AAc?$AAe@ 0000000180026fb8     SoundPlayer.obj
 0002:00000fd0       ??_C@_1BC@MAICEHGI@?$AAH?$AAa?$AAr?$AAd?$AAw?$AAa?$AAr?$AAe@ 0000000180026fd0     SoundPlayer.obj
 0002:00000fe8       ??_C@_19HLLLM@?$AAM?$AAi?$AAm?$AAe@ 0000000180026fe8     SoundPlayer.obj
 0002:00000ff8       ??_C@_17OMAOINJK@?$AAS?$AAA?$AAM@ 0000000180026ff8     SoundPlayer.obj
 0002:00001000       ??_C@_1BC@IBECJAAI@?$AAS?$AAE?$AAC?$AAU?$AAR?$AAI?$AAT?$AAY@ 0000000180027000     SoundPlayer.obj
 0002:00001018       ??_C@_1O@GBFINDKL@?$AAS?$AAY?$AAS?$AAT?$AAE?$AAM@ 0000000180027018     SoundPlayer.obj
 0002:00001028       ??_C@_1BC@EAHCMADO@?$AAS?$AAo?$AAf?$AAt?$AAw?$AAa?$AAr?$AAe@ 0000000180027028     SoundPlayer.obj
 0002:00001040       ??_C@_1BA@JIHHIEDE@?$AAT?$AAy?$AAp?$AAe?$AAL?$AAi?$AAb@ 0000000180027040     SoundPlayer.obj
 0002:00001050       _GUID_1c2056cc_5ef4_101b_8bc8_00aa003e3b29 0000000180027050     SoundPlayer.obj
 0002:00001060       ?map@?1??HKeyFromString@CRegParser@ATL@@KAPEAUHKEY__@@PEA_W@Z@4QBUkeymap@?1??123@KAPEAU4@0@Z@B 0000000180027060     SoundPlayer.obj
 0002:00001140       ??_C@_19NCHLBIN@?$AAH?$AAK?$AAC?$AAR@ 0000000180027140     SoundPlayer.obj
 0002:00001150       ??_C@_19JAPAIJDE@?$AAH?$AAK?$AAC?$AAU@ 0000000180027150     SoundPlayer.obj
 0002:00001160       ??_C@_19PEALEEJB@?$AAH?$AAK?$AAL?$AAM@ 0000000180027160     SoundPlayer.obj
 0002:00001170       ??_C@_17PJOJPMPB@?$AAH?$AAK?$AAU@ 0000000180027170     SoundPlayer.obj
 0002:00001178       ??_C@_19PNBHMJPL@?$AAH?$AAK?$AAP?$AAD@ 0000000180027178     SoundPlayer.obj
 0002:00001188       ??_C@_19GFFAIJHG@?$AAH?$AAK?$AAD?$AAD@ 0000000180027188     SoundPlayer.obj
 0002:00001198       ??_C@_19OFICIBHH@?$AAH?$AAK?$AAC?$AAC@ 0000000180027198     SoundPlayer.obj
 0002:000011a8       ??_C@_1CE@PACHPJFI@?$AAH?$AAK?$AAE?$AAY?$AA_?$AAC?$AAL?$AAA?$AAS?$AAS?$AAE?$AAS?$AA_?$AAR?$AAO@ 00000001800271a8     SoundPlayer.obj
 0002:000011d0       ??_C@_1CE@HLHNCBPM@?$AAH?$AAK?$AAE?$AAY?$AA_?$AAC?$AAU?$AAR?$AAR?$AAE?$AAN?$AAT?$AA_?$AAU?$AAS@ 00000001800271d0     SoundPlayer.obj
 0002:000011f8       ??_C@_1CG@GFBEANJL@?$AAH?$AAK?$AAE?$AAY?$AA_?$AAL?$AAO?$AAC?$AAA?$AAL?$AA_?$AAM?$AAA?$AAC?$AAH@ 00000001800271f8     SoundPlayer.obj
 0002:00001220       ??_C@_1BG@BGODANIO@?$AAH?$AAK?$AAE?$AAY?$AA_?$AAU?$AAS?$AAE?$AAR?$AAS@ 0000000180027220     SoundPlayer.obj
 0002:00001238       ??_C@_1CM@KHNNAOIC@?$AAH?$AAK?$AAE?$AAY?$AA_?$AAP?$AAE?$AAR?$AAF?$AAO?$AAR?$AAM?$AAA?$AAN?$AAC@ 0000000180027238     SoundPlayer.obj
 0002:00001268       ??_C@_1BM@HAGMMHIA@?$AAH?$AAK?$AAE?$AAY?$AA_?$AAD?$AAY?$AAN?$AA_?$AAD?$AAA?$AAT?$AAA@ 0000000180027268     SoundPlayer.obj
 0002:00001288       ??_C@_1CI@BBJOACGG@?$AAH?$AAK?$AAE?$AAY?$AA_?$AAC?$AAU?$AAR?$AAR?$AAE?$AAN?$AAT?$AA_?$AAC?$AAO@ 0000000180027288     SoundPlayer.obj
 0002:000012b0       _GUID_00000109_0000_0000_c000_000000000046 00000001800272b0     SoundPlayer.obj
 0002:000012c0       _GUID_7fd52380_4e07_101b_ae2d_08002b2ec713 00000001800272c0     SoundPlayer.obj
 0002:000012d0       _GUID_00000112_0000_0000_c000_000000000046 00000001800272d0     SoundPlayer.obj
 0002:000012e0       ??_C@_1EA@NHKLICFA@?$AAH?$AAK?$AAC?$AAU?$AA?$AN?$AA?6?$AA?$HL?$AA?7?$AAS?$AAo?$AAf?$AAt?$AAw?$AAa?$AAr@ 00000001800272e0     SoundPlayer.obj
 0002:00001320       ??_C@_1BE@LJOLIMEM@?$AA?$AN?$AA?6?$AA?7?$AA?$HN?$AA?$AN?$AA?6?$AA?$HN?$AA?$AN?$AA?6@ 0000000180027320     SoundPlayer.obj
 0002:00001338       _GUID_3af24292_0c96_11ce_a0cf_00aa00600ab8 0000000180027338     SoundPlayer.obj
 0002:00001348       _GUID_00000127_0000_0000_c000_000000000046 0000000180027348     SoundPlayer.obj
 0002:00001358       _GUID_0000010d_0000_0000_c000_000000000046 0000000180027358     SoundPlayer.obj
 0002:00001368       ??_C@_1M@PPPPCDEP@?$AAA?$AAP?$AAP?$AAI?$AAD@ 0000000180027368     SoundPlayer.obj
 0002:00001378       ??_C@_1O@MNLDABAF@?$AAM?$AAo?$AAd?$AAu?$AAl?$AAe@ 0000000180027378     SoundPlayer.obj
 0002:00001388       ??_C@_1BG@JBACFMF@?$AAM?$AAo?$AAd?$AAu?$AAl?$AAe?$AA_?$AAR?$AAa?$AAw@ 0000000180027388     SoundPlayer.obj
 0002:000013a0       ??_C@_1BC@KAILKFFG@?$AAR?$AAE?$AAG?$AAI?$AAS?$AAT?$AAR?$AAY@ 00000001800273a0     SoundPlayer.obj
 0002:000013b8       ??_7?$CComContainedObject@VCOPOSSoundPlayer@@@ATL@@6B?$IDispatchImpl@UIOPOSSoundPlayer@@$1?IID_IOPOSSoundPlayer@@3U_GUID@@B$1?LIBID_OposSoundPlayer_CCO@@3U3@B$00$0A@VCComTypeInfoHolder@ATL@@@1@@ 00000001800273b8     SoundPlayer.obj
 0002:000015c0       ??_7?$CComContainedObject@VCOPOSSoundPlayer@@@ATL@@6BCComControlBase@1@@ 00000001800275c0     SoundPlayer.obj
 0002:000015e8       ??_7?$CComContainedObject@VCOPOSSoundPlayer@@@ATL@@6B?$CWindowImpl@VCOPOSSoundPlayer@@VCWindow@ATL@@V?$CWinTraits@$0FGAAAAAA@$0A@@3@@1@@ 00000001800275e8     SoundPlayer.obj
 0002:00001608       ??_7?$CComContainedObject@VCOPOSSoundPlayer@@@ATL@@6B?$IPersistStreamInitImpl@VCOPOSSoundPlayer@@@1@@ 0000000180027608     SoundPlayer.obj
 0002:00001650       ??_7?$CComContainedObject@VCOPOSSoundPlayer@@@ATL@@6B?$IOleControlImpl@VCOPOSSoundPlayer@@@1@@ 0000000180027650     SoundPlayer.obj
 0002:00001688       ??_7?$CComContainedObject@VCOPOSSoundPlayer@@@ATL@@6B?$IOleObjectImpl@VCOPOSSoundPlayer@@@1@@ 0000000180027688     SoundPlayer.obj
 0002:00001748       ??_7?$CComContainedObject@VCOPOSSoundPlayer@@@ATL@@6B?$IOleInPlaceActiveObjectImpl@VCOPOSSoundPlayer@@@1@@ 0000000180027748     SoundPlayer.obj
 0002:00001798       ??_7?$CComContainedObject@VCOPOSSoundPlayer@@@ATL@@6B?$IViewObjectExImpl@VCOPOSSoundPlayer@@@1@@ 0000000180027798     SoundPlayer.obj
 0002:00001810       ??_7?$CComContainedObject@VCOPOSSoundPlayer@@@ATL@@6B?$IOleInPlaceObjectWindowlessImpl@VCOPOSSoundPlayer@@@1@@ 0000000180027810     SoundPlayer.obj
 0002:00001868       ??_7?$CComContainedObject@VCOPOSSoundPlayer@@@ATL@@6B?$IConnectionPointContainerImpl@VCOPOSSoundPlayer@@@1@@ 0000000180027868     SoundPlayer.obj
 0002:00001890       ??_7?$CComContainedObject@VCOPOSSoundPlayer@@@ATL@@6B?$IPersistStorageImpl@VCOPOSSoundPlayer@@@1@@ 0000000180027890     SoundPlayer.obj
 0002:000018e0       ??_7?$CComContainedObject@VCOPOSSoundPlayer@@@ATL@@6B?$ISpecifyPropertyPagesImpl@VCOPOSSoundPlayer@@@1@@ 00000001800278e0     SoundPlayer.obj
 0002:00001900       ??_7?$CComContainedObject@VCOPOSSoundPlayer@@@ATL@@6B?$IQuickActivateImpl@VCOPOSSoundPlayer@@@1@@ 0000000180027900     SoundPlayer.obj
 0002:00001930       ??_7?$CComContainedObject@VCOPOSSoundPlayer@@@ATL@@6B?$IDataObjectImpl@VCOPOSSoundPlayer@@@1@@ 0000000180027930     SoundPlayer.obj
 0002:00001990       ??_7?$CComContainedObject@VCOPOSSoundPlayer@@@ATL@@6B?$IProvideClassInfo2Impl@$1?CLSID_OPOSSoundPlayer@@3U_GUID@@B$1?DIID__IOPOSSoundPlayerEvents@@3U2@B$1?LIBID_OposSoundPlayer_CCO@@3U2@B$00$0A@VCComTypeInfoHolder@ATL@@@1@@ 0000000180027990     SoundPlayer.obj
 0002:000019b8       ??_7?$CComContainedObject@VCOPOSSoundPlayer@@@ATL@@6B?$IObjectSafetyImpl@VCOPOSSoundPlayer@@$02@1@@ 00000001800279b8     SoundPlayer.obj
 0002:000019e8       ??_7?$CComContainedObject@VCOPOSSoundPlayer@@@ATL@@6B?$IPropertyNotifySinkCP@VCOPOSSoundPlayer@@VCComDynamicUnkArray@ATL@@@1@@ 00000001800279e8     SoundPlayer.obj
 0002:00001a28       ??_7?$CComContainedObject@VCOPOSSoundPlayer@@@ATL@@6B?$CProxy_IOPOSEvents@VCOPOSSoundPlayer@@@@@ 0000000180027a28     SoundPlayer.obj
 0002:00001a68       ??_7?$CComAggObject@VCOPOSSoundPlayer@@@ATL@@6B@ 0000000180027a68     SoundPlayer.obj
 0002:00001a88       ??_7?$CComObject@VCOPOSSoundPlayer@@@ATL@@6B?$IDispatchImpl@UIOPOSSoundPlayer@@$1?IID_IOPOSSoundPlayer@@3U_GUID@@B$1?LIBID_OposSoundPlayer_CCO@@3U3@B$00$0A@VCComTypeInfoHolder@ATL@@@1@@ 0000000180027a88     SoundPlayer.obj
 0002:00001c90       ??_7?$CComObject@VCOPOSSoundPlayer@@@ATL@@6BCComControlBase@1@@ 0000000180027c90     SoundPlayer.obj
 0002:00001cb8       ??_7?$CComObject@VCOPOSSoundPlayer@@@ATL@@6B?$CWindowImpl@VCOPOSSoundPlayer@@VCWindow@ATL@@V?$CWinTraits@$0FGAAAAAA@$0A@@3@@1@@ 0000000180027cb8     SoundPlayer.obj
 0002:00001cd8       ??_7?$CComObject@VCOPOSSoundPlayer@@@ATL@@6B?$IPersistStreamInitImpl@VCOPOSSoundPlayer@@@1@@ 0000000180027cd8     SoundPlayer.obj
 0002:00001d20       ??_7?$CComObject@VCOPOSSoundPlayer@@@ATL@@6B?$IOleControlImpl@VCOPOSSoundPlayer@@@1@@ 0000000180027d20     SoundPlayer.obj
 0002:00001d58       ??_7?$CComObject@VCOPOSSoundPlayer@@@ATL@@6B?$IOleObjectImpl@VCOPOSSoundPlayer@@@1@@ 0000000180027d58     SoundPlayer.obj
 0002:00001e18       ??_7?$CComObject@VCOPOSSoundPlayer@@@ATL@@6B?$IOleInPlaceActiveObjectImpl@VCOPOSSoundPlayer@@@1@@ 0000000180027e18     SoundPlayer.obj
 0002:00001e68       ??_7?$CComObject@VCOPOSSoundPlayer@@@ATL@@6B?$IViewObjectExImpl@VCOPOSSoundPlayer@@@1@@ 0000000180027e68     SoundPlayer.obj
 0002:00001ee0       ??_7?$CComObject@VCOPOSSoundPlayer@@@ATL@@6B?$IOleInPlaceObjectWindowlessImpl@VCOPOSSoundPlayer@@@1@@ 0000000180027ee0     SoundPlayer.obj
 0002:00001f38       ??_7?$CComObject@VCOPOSSoundPlayer@@@ATL@@6B?$IConnectionPointContainerImpl@VCOPOSSoundPlayer@@@1@@ 0000000180027f38     SoundPlayer.obj
 0002:00001f60       ??_7?$CComObject@VCOPOSSoundPlayer@@@ATL@@6B?$IPersistStorageImpl@VCOPOSSoundPlayer@@@1@@ 0000000180027f60     SoundPlayer.obj
 0002:00001fb0       ??_7?$CComObject@VCOPOSSoundPlayer@@@ATL@@6B?$ISpecifyPropertyPagesImpl@VCOPOSSoundPlayer@@@1@@ 0000000180027fb0     SoundPlayer.obj
 0002:00001fd0       ??_7?$CComObject@VCOPOSSoundPlayer@@@ATL@@6B?$IQuickActivateImpl@VCOPOSSoundPlayer@@@1@@ 0000000180027fd0     SoundPlayer.obj
 0002:00002000       ??_7?$CComObject@VCOPOSSoundPlayer@@@ATL@@6B?$IDataObjectImpl@VCOPOSSoundPlayer@@@1@@ 0000000180028000     SoundPlayer.obj
 0002:00002060       ??_7?$CComObject@VCOPOSSoundPlayer@@@ATL@@6B?$IProvideClassInfo2Impl@$1?CLSID_OPOSSoundPlayer@@3U_GUID@@B$1?DIID__IOPOSSoundPlayerEvents@@3U2@B$1?LIBID_OposSoundPlayer_CCO@@3U2@B$00$0A@VCComTypeInfoHolder@ATL@@@1@@ 0000000180028060     SoundPlayer.obj
 0002:00002088       ??_7?$CComObject@VCOPOSSoundPlayer@@@ATL@@6B?$IObjectSafetyImpl@VCOPOSSoundPlayer@@$02@1@@ 0000000180028088     SoundPlayer.obj
 0002:000020b8       ??_7?$CComObject@VCOPOSSoundPlayer@@@ATL@@6B?$IPropertyNotifySinkCP@VCOPOSSoundPlayer@@VCComDynamicUnkArray@ATL@@@1@@ 00000001800280b8     SoundPlayer.obj
 0002:000020f8       ??_7?$CComObject@VCOPOSSoundPlayer@@@ATL@@6B?$CProxy_IOPOSEvents@VCOPOSSoundPlayer@@@@@ 00000001800280f8     SoundPlayer.obj
 0002:00002138       ??_C@_1O@GBFKGNEO@?$AAA?$AAT?$AAL?$AA?3?$AA?$CF?$AAp@ 0000000180028138     SoundPlayer.obj
 0002:00002148       ??_C@_1BA@PICGEGJB@?$AAD?$AAI?$AAS?$AAP?$AAL?$AAA?$AAY@ 0000000180028148     SoundPlayer.obj
 0002:00002158       _GUID_b196b284_bab4_101a_b69c_00aa00341d07 0000000180028158     SoundPlayer.obj
 0002:00002168       _GUID_9bfbbc02_eff1_101a_84ed_00aa00341d07 0000000180028168     SoundPlayer.obj
 0002:00002178       ?_entries@?1??_GetEntries@?$CComEnum@UIEnumConnectionPoints@@$1?_GUID_b196b285_bab4_101a_b69c_00aa00341d07@@3U__s_GUID@@BPEAUIConnectionPoint@@V?$_CopyInterface@UIConnectionPoint@@@ATL@@VCComSingleThreadModel@6@@ATL@@SAPEBU_ATL_INTMAP_ENTRY@3@XZ@4QBU43@B 0000000180028178     SoundPlayer.obj
 0002:000021a8       _GUID_00020412_0000_0000_c000_000000000046 00000001800281a8     SoundPlayer.obj
 0002:000021b8       _GUID_00020401_0000_0000_c000_000000000046 00000001800281b8     SoundPlayer.obj
 0002:000021c8       ??_C@_0BG@EKFFMJIO@RegOpenKeyTransactedW@ 00000001800281c8     SoundPlayer.obj
 0002:000021e0       ??_C@_0BI@HAKLOOGP@RegDeleteKeyTransactedW@ 00000001800281e0     SoundPlayer.obj
 0002:000021f8       ??_C@_0BA@LILAPHGE@RegDeleteKeyExW@ 00000001800281f8     SoundPlayer.obj
 0002:00002208       ??_C@_19ILOCMLCJ@?$AA?4?$AAt?$AAl?$AAb@ 0000000180028208     SoundPlayer.obj
 0002:00002218       _GUID_0002e012_0000_0000_c000_000000000046 0000000180028218     SoundPlayer.obj
 0002:00002228       ??_C@_1O@FHBGLCIO@?$AAC?$AAL?$AAS?$AAI?$AAD?$AA?2@ 0000000180028228     SoundPlayer.obj
 0002:00002238       ??_C@_1CK@IFBKBFAA@?$AA?2?$AAR?$AAe?$AAq?$AAu?$AAi?$AAr?$AAe?$AAd?$AA?5?$AAC?$AAa?$AAt?$AAe?$AAg@ 0000000180028238     SoundPlayer.obj
 0002:00002268       ??_C@_1DA@BIHALFED@?$AA?2?$AAI?$AAm?$AAp?$AAl?$AAe?$AAm?$AAe?$AAn?$AAt?$AAe?$AAd?$AA?5?$AAC?$AAa@ 0000000180028268     SoundPlayer.obj
 0002:00002298       ??_C@_1BK@EDKOLFBJ@?$AAO?$AAL?$AAE?$AAA?$AAU?$AAT?$AA3?$AA2?$AA?4?$AAD?$AAL?$AAL@ 0000000180028298     SoundPlayer.obj
 0002:000022b8       ??_C@_0BJ@CNLFOMHB@UnRegisterTypeLibForUser@ 00000001800282b8     SoundPlayer.obj
 0002:000022d8       ??_C@_0BH@LBOMMKPJ@RegisterTypeLibForUser@ 00000001800282d8     SoundPlayer.obj
 0002:000022f0       ??_C@_0P@MMNMMLGK@COFreezeEvents@ 00000001800282f0     SoundPlayerImpl.obj
 0002:00002300       ??_C@_0BC@OGCGGIMP@GetPropertyNumber@ 0000000180028300     SoundPlayerImpl.obj
 0002:00002318       ??_C@_0BC@MDCNODNB@SetPropertyNumber@ 0000000180028318     SoundPlayerImpl.obj
 0002:00002330       ??_C@_0BC@CFCCMIMD@GetPropertyString@ 0000000180028330     SoundPlayerImpl.obj
 0002:00002348       ??_C@_0BC@CJEDNN@SetPropertyString@ 0000000180028348     SoundPlayerImpl.obj
 0002:00002360       ??_C@_0M@LNPKKKDA@OpenService@ 0000000180028360     SoundPlayerImpl.obj
 0002:00002370       ??_C@_0M@PCMCHHMH@CheckHealth@ 0000000180028370     SoundPlayerImpl.obj
 0002:00002380       ??_C@_0M@JGMIDNEK@ClaimDevice@ 0000000180028380     SoundPlayerImpl.obj
 0002:00002390       ??_C@_0M@JMBCPNGJ@ClearOutput@ 0000000180028390     SoundPlayerImpl.obj
 0002:000023a0       ??_C@_0N@DDFIIBMP@CloseService@ 00000001800283a0     SoundPlayerImpl.obj
 0002:000023b0       ??_C@_08EEIHICPC@DirectIO@ 00000001800283b0     SoundPlayerImpl.obj
 0002:000023c0       ??_C@_0O@BCPMENMJ@ReleaseDevice@ 00000001800283c0     SoundPlayerImpl.obj
 0002:000023d0       ??_C@_0BA@GFABKEEE@ResetStatistics@ 00000001800283d0     SoundPlayerImpl.obj
 0002:000023e0       ??_C@_0BD@DPALHJGC@RetrieveStatistics@ 00000001800283e0     SoundPlayerImpl.obj
 0002:000023f8       ??_C@_0BB@KOHIKNFC@UpdateStatistics@ 00000001800283f8     SoundPlayerImpl.obj
 0002:00002410       ??_C@_0BH@PBKBNMGB@CompareFirmwareVersion@ 0000000180028410     SoundPlayerImpl.obj
 0002:00002428       ??_C@_0P@FBPDPIPA@UpdateFirmware@ 0000000180028428     SoundPlayerImpl.obj
 0002:00002438       ??_C@_09PEMGNEEO@PlaySound@ 0000000180028438     SoundPlayerImpl.obj
 0002:00002448       ??_C@_09IIPLNIMF@StopSound@ 0000000180028448     SoundPlayerImpl.obj
 0002:00002458       ??_7?$CProxy_IOPOSEvents@VCOPOSSoundPlayer@@@@6B@ 0000000180028458     SoundPlayerImpl.obj
 0002:00002498       ??_C@_1BA@IFHENID@?$AA?$FL?$AAE?$AAr?$AAr?$AAo?$AAr?$AA?$FN@ 0000000180028498     SoundPlayerImpl.obj
 0002:000024a8       ??_C@_0CO@MENBAAH@SOFTWARE?2OLEforRetail?2ServiceOP@ 00000001800284a8     SoundPlayerImpl.obj
 0002:000024d8       ??_C@_1M@IAIJHCCH@?$AAC?$AAl?$AAo?$AAs?$AAe@ 00000001800284d8     SoundPlayerImpl.obj
 0002:000024e8       ??_C@_1M@PCPKGJAH@?$AAC?$AAl?$AAa?$AAi?$AAm@ 00000001800284e8     SoundPlayerImpl.obj
 0002:000024f8       ??_C@_1BA@NDFKIOCP@?$AAR?$AAe?$AAl?$AAe?$AAa?$AAs?$AAe@ 00000001800284f8     SoundPlayerImpl.obj
 0002:00002508       ??_C@_0M@GBBAOMPL@SoundPlayer@ 0000000180028508     SoundPlayerImpl.obj
 0002:00002518       ??_C@_1BM@IJMNMBPK@?$AAG?$AAe?$AAt?$AAO?$AAp?$AAe?$AAn?$AAR?$AAe?$AAs?$AAu?$AAl?$AAt@ 0000000180028518     SoundPlayerImpl.obj
 0002:00002538       IID_IDispatch              0000000180028538     uuid:oaidl_i.obj
 0002:00002548       IID_IPropertyNotifySink    0000000180028548     uuid:ocidl_i.obj
 0002:00002558       GUID_NULL                  0000000180028558     uuid:cguid_i.obj
 0002:00002568       CLSID_StdGlobalInterfaceTable 0000000180028568     uuid:cguid_i.obj
 0002:00002578       CLSID_StdComponentCategoriesMgr 0000000180028578     uuid:ieguids.obj
 0002:00002588       IID_IUnknown               0000000180028588     uuid:unknwn_i.obj
 0002:000025a0       __xmm@ffffffffffffffffffffffffffffffff 00000001800285a0     LIBCMT:utility.obj
 0002:000025b0       ??_C@_1EC@JIJBPKFM@?$AAa?$AAp?$AAi?$AA?9?$AAm?$AAs?$AA?9?$AAw?$AAi?$AAn?$AA?9?$AAc?$AAo?$AAr?$AAe@ 00000001800285b0     LIBCMT:thread_safe_statics.obj
 0002:000025f8       ??_C@_1BK@MGMFAEKH@?$AAk?$AAe?$AAr?$AAn?$AAe?$AAl?$AA3?$AA2?$AA?4?$AAd?$AAl?$AAl@ 00000001800285f8     LIBCMT:thread_safe_statics.obj
 0002:00002618       ??_C@_0BJ@JEBJOJFJ@SleepConditionVariableCS@ 0000000180028618     LIBCMT:thread_safe_statics.obj
 0002:00002638       ??_C@_0BJ@PGPPEPCC@WakeAllConditionVariable@ 0000000180028638     LIBCMT:thread_safe_statics.obj
 0002:00002651       ?nothrow@std@@3Unothrow_t@1@B 0000000180028651     LIBCMT:std_nothrow.obj
 0002:00002668       _pDefaultRawDllMain        0000000180028668     LIBCMT:dll_dllmain.obj
 0002:00002668       _pRawDllMain               0000000180028668     LIBCMT:dll_dllmain.obj
 0002:00002678       ??_7exception@std@@6B@     0000000180028678     LIBCMT:throw_bad_alloc.obj
 0002:00002688       ??_C@_0BC@EOODALEL@Unknown?5exception@ 0000000180028688     LIBCMT:throw_bad_alloc.obj
 0002:000026a8       ??_7bad_alloc@std@@6B@     00000001800286a8     LIBCMT:throw_bad_alloc.obj
 0002:000026b8       ??_C@_0P@GHFPNOJB@bad?5allocation@ 00000001800286b8     LIBCMT:throw_bad_alloc.obj
 0002:000026d0       ??_7bad_array_new_length@std@@6B@ 00000001800286d0     LIBCMT:throw_bad_alloc.obj
 0002:000026e0       ??_C@_0BF@KINCDENJ@bad?5array?5new?5length@ 00000001800286e0     LIBCMT:throw_bad_alloc.obj
 0002:00002700       ??_7type_info@@6B@         0000000180028700     LIBCMT:std_type_info_static.obj
 0002:00002708       GUID_ATLVer110             0000000180028708     atls:atlbase.obj
 0002:00002720       ??_C@_1IC@ONKHOIDK@?$AAE?$AAR?$AAR?$AAO?$AAR?$AA?5?$AA?3?$AA?5?$AAU?$AAn?$AAa?$AAb?$AAl?$AAe?$AA?5@ 0000000180028720     atls:atlbase.obj
 0002:000027a8       ??_C@_0N@FJEPLCIH@atlthunk?4dll@ 00000001800287a8     atls:atlthunk.obj
 0002:000027b8       ??_C@_0BG@GAKFHCBM@AtlThunk_AllocateData@ 00000001800287b8     atls:atlthunk.obj
 0002:000027d0       ??_C@_0BC@JKONFIAH@AtlThunk_InitData@ 00000001800287d0     atls:atlthunk.obj
 0002:000027e8       ??_C@_0BE@IAOEELAK@AtlThunk_DataToCode@ 00000001800287e8     atls:atlthunk.obj
 0002:00002800       ??_C@_0BC@GBGKAIPI@AtlThunk_FreeData@ 0000000180028800     atls:atlthunk.obj
 0002:00002818       ?s_negLengthTab@FH4@@3QBCB 0000000180028818     libvcruntime:risctrnsctrl.obj
 0002:00002828       ?s_shiftTab@FH4@@3QBEB     0000000180028828     libvcruntime:risctrnsctrl.obj
 0002:00002978       _pDestructExceptionObject  0000000180028978     libvcruntime:ehhelpers.obj
 0002:00002988       ??_7bad_exception@std@@6B@ 0000000180028988     libvcruntime:frame.obj
 0002:00002998       ??_C@_0O@DPKOEFFH@bad?5exception@ 0000000180028998     libvcruntime:frame.obj
 0002:000030c0       ??_C@_08EHJDFFNH@__based?$CI@ 00000001800290c0     libvcruntime:undname.obj
 0002:000030d0       ??_C@_07KOLFKCDI@__cdecl@  00000001800290d0     libvcruntime:undname.obj
 0002:000030d8       ??_C@_08GHMPAG@__pascal@   00000001800290d8     libvcruntime:undname.obj
 0002:000030e8       ??_C@_09IFJBGAPI@__stdcall@ 00000001800290e8     libvcruntime:undname.obj
 0002:000030f8       ??_C@_0L@NPHFGOKO@__thiscall@ 00000001800290f8     libvcruntime:undname.obj
 0002:00003108       ??_C@_0L@JMKHOMEK@__fastcall@ 0000000180029108     libvcruntime:undname.obj
 0002:00003118       ??_C@_0N@BCKKPABJ@__vectorcall@ 0000000180029118     libvcruntime:undname.obj
 0002:00003128       ??_C@_09HIJEGCPM@__clrcall@ 0000000180029128     libvcruntime:undname.obj
 0002:00003134       ??_C@_06GHPCKEAG@__eabi@   0000000180029134     libvcruntime:undname.obj
 0002:00003140       ??_C@_09IOPIDJLG@__swift_1@ 0000000180029140     libvcruntime:undname.obj
 0002:00003150       ??_C@_09KFNFGKHF@__swift_2@ 0000000180029150     libvcruntime:undname.obj
 0002:00003160       ??_C@_09LMMOFLDE@__swift_3@ 0000000180029160     libvcruntime:undname.obj
 0002:00003170       ??_C@_07JOMMBBKO@__ptr64@  0000000180029170     libvcruntime:undname.obj
 0002:00003178       ??_C@_0L@PILCLIHE@__restrict@ 0000000180029178     libvcruntime:undname.obj
 0002:00003188       ??_C@_0M@GFIIJFMG@__unaligned@ 0000000180029188     libvcruntime:undname.obj
 0002:00003198       ??_C@_09DHDLOLLB@restrict?$CI@ 0000000180029198     libvcruntime:undname.obj
 0002:000031a2       ??_C@_00CNPNBAHC@@         00000001800291a2     libvcruntime:undname.obj
 0002:000031a4       ??_C@_04NIHEBCM@?5new@     00000001800291a4     libvcruntime:undname.obj
 0002:000031b0       ??_C@_07FPCDHGMM@?5delete@ 00000001800291b0     libvcruntime:undname.obj
 0002:000031b8       ??_C@_01NEMOKFLO@?$DN@     00000001800291b8     libvcruntime:undname.obj
 0002:000031bc       ??_C@_02GPIOPFAK@?$DO?$DO@ 00000001800291bc     libvcruntime:undname.obj
 0002:000031c0       ??_C@_02FODMEDOG@?$DM?$DM@ 00000001800291c0     libvcruntime:undname.obj
 0002:000031c4       ??_C@_01DCLJPIOD@?$CB@     00000001800291c4     libvcruntime:undname.obj
 0002:000031c8       ??_C@_02EGOFBIJA@?$DN?$DN@ 00000001800291c8     libvcruntime:undname.obj
 0002:000031cc       ??_C@_02FDNJECIE@?$CB?$DN@ 00000001800291cc     libvcruntime:undname.obj
 0002:000031d0       ??_C@_02GPECMEKF@?$FL?$FN@ 00000001800291d0     libvcruntime:undname.obj
 0002:000031d8       ??_C@_08LHJFAFGD@operator@ 00000001800291d8     libvcruntime:undname.obj
 0002:000031e4       ??_C@_02HBOOOICD@?9?$DO@   00000001800291e4     libvcruntime:undname.obj
 0002:000031e8       ??_C@_01NBENCBCI@?$CK@     00000001800291e8     libvcruntime:undname.obj
 0002:000031ec       ??_C@_02ECNGHCIF@?$CL?$CL@ 00000001800291ec     libvcruntime:undname.obj
 0002:000031f0       ??_C@_02BAABKJLB@?9?9@     00000001800291f0     libvcruntime:undname.obj
 0002:000031f4       ??_C@_01JOAMLHOP@?9@       00000001800291f4     libvcruntime:undname.obj
 0002:000031f8       ??_C@_01MIFGBAGJ@?$CL@     00000001800291f8     libvcruntime:undname.obj
 0002:000031fc       ??_C@_01HNPIGOCE@?$CG@     00000001800291fc     libvcruntime:undname.obj
 0002:00003200       ??_C@_03MNHNFDLC@?9?$DO?$CK@ 0000000180029200     libvcruntime:undname.obj
 0002:00003204       ??_C@_01KMDKNFGN@?1@       0000000180029204     libvcruntime:undname.obj
 0002:00003208       ??_C@_01FGNFDNOH@?$CF@     0000000180029208     libvcruntime:undname.obj
 0002:0000320c       ??_C@_01MNNFJEPP@?$DM@     000000018002920c     libvcruntime:undname.obj
 0002:00003210       ??_C@_02EHCHHCKH@?$DM?$DN@ 0000000180029210     libvcruntime:undname.obj
 0002:00003214       ??_C@_01PPODPGHN@?$DO@     0000000180029214     libvcruntime:undname.obj
 0002:00003218       ??_C@_02EEKDKGMJ@?$DO?$DN@ 0000000180029218     libvcruntime:undname.obj
 0002:0000321c       ??_C@_01IHBHIGKO@?0@       000000018002921c     libvcruntime:undname.obj
 0002:00003220       ??_C@_02HCKGKOFO@?$CI?$CJ@ 0000000180029220     libvcruntime:undname.obj
 0002:00003224       ??_C@_01PJKLJHI@?$HO@      0000000180029224     libvcruntime:undname.obj
 0002:00003228       ??_C@_01JKBOJNNK@?$FO@     0000000180029228     libvcruntime:undname.obj
 0002:0000322c       ??_C@_01DNKMNLPK@?$HM@     000000018002922c     libvcruntime:undname.obj
 0002:00003230       ??_C@_02PPKAJPJL@?$CG?$CG@ 0000000180029230     libvcruntime:undname.obj
 0002:00003234       ??_C@_02NONPIBCD@?$HM?$HM@ 0000000180029234     libvcruntime:undname.obj
 0002:00003238       ??_C@_02FPIMKNGF@?$CK?$DN@ 0000000180029238     libvcruntime:undname.obj
 0002:0000323c       ??_C@_02FOEOMHFC@?$CL?$DN@ 000000018002923c     libvcruntime:undname.obj
 0002:00003240       ??_C@_02FKMDLLOA@?9?$DN@   0000000180029240     libvcruntime:undname.obj
 0002:00003244       ??_C@_02FJEHGPIO@?1?$DN@   0000000180029244     libvcruntime:undname.obj
 0002:00003248       ??_C@_02FENAOKFI@?$CF?$DN@ 0000000180029248     libvcruntime:undname.obj
 0002:0000324c       ??_C@_03IKFCCPFF@?$DO?$DO?$DN@ 000000018002924c     libvcruntime:undname.obj
 0002:00003250       ??_C@_03CDNPDDLA@?$DM?$DM?$DN@ 0000000180029250     libvcruntime:undname.obj
 0002:00003254       ??_C@_02FGJGFEAB@?$CG?$DN@ 0000000180029254     libvcruntime:undname.obj
 0002:00003258       ??_C@_02DHLNPPGH@?$HM?$DN@ 0000000180029258     libvcruntime:undname.obj
 0002:0000325c       ??_C@_02MHEGNOJ@?$FO?$DN@  000000018002925c     libvcruntime:undname.obj
 0002:00003260       ??_C@_09IFPLHPGF@?$GAvftable?8@ 0000000180029260     libvcruntime:undname.obj
 0002:00003270       ??_C@_09BLBHBJP@?$GAvbtable?8@ 0000000180029270     libvcruntime:undname.obj
 0002:00003280       ??_C@_07FEEIOKP@?$GAvcall?8@ 0000000180029280     libvcruntime:undname.obj
 0002:00003288       ??_C@_08LLFFHHDJ@?$GAtypeof?8@ 0000000180029288     libvcruntime:undname.obj
 0002:00003298       ??_C@_0BF@KDPPACIK@?$GAlocal?5static?5guard?8@ 0000000180029298     libvcruntime:undname.obj
 0002:000032b0       ??_C@_08OBABFOLI@?$GAstring?8@ 00000001800292b0     libvcruntime:undname.obj
 0002:000032c0       ??_C@_0BD@JDLKDPAB@?$GAvbase?5destructor?8@ 00000001800292c0     libvcruntime:undname.obj
 0002:000032d8       ??_C@_0BN@DEGPLNFK@?$GAvector?5deleting?5destructor?8@ 00000001800292d8     libvcruntime:undname.obj
 0002:000032f8       ??_C@_0BO@OBMKPJIG@?$GAdefault?5constructor?5closure?8@ 00000001800292f8     libvcruntime:undname.obj
 0002:00003318       ??_C@_0BN@IMDCHIKM@?$GAscalar?5deleting?5destructor?8@ 0000000180029318     libvcruntime:undname.obj
 0002:00003338       ??_C@_0BO@PFGOCPJJ@?$GAvector?5constructor?5iterator?8@ 0000000180029338     libvcruntime:undname.obj
 0002:00003358       ??_C@_0BN@LFPFMEDL@?$GAvector?5destructor?5iterator?8@ 0000000180029358     libvcruntime:undname.obj
 0002:00003378       ??_C@_0CE@IKBNEHA@?$GAvector?5vbase?5constructor?5itera@ 0000000180029378     libvcruntime:undname.obj
 0002:000033a0       ??_C@_0BL@NILFHHPC@?$GAvirtual?5displacement?5map?8@ 00000001800293a0     libvcruntime:undname.obj
 0002:000033c0       ??_C@_0CB@JONCMFFK@?$GAeh?5vector?5constructor?5iterator@ 00000001800293c0     libvcruntime:undname.obj
 0002:000033e8       ??_C@_0CA@GCEOPDGL@?$GAeh?5vector?5destructor?5iterator?8@ 00000001800293e8     libvcruntime:undname.obj
 0002:00003408       ??_C@_0CH@OOJPLCPH@?$GAeh?5vector?5vbase?5constructor?5it@ 0000000180029408     libvcruntime:undname.obj
 0002:00003430       ??_C@_0BL@LLKPOHJI@?$GAcopy?5constructor?5closure?8@ 0000000180029430     libvcruntime:undname.obj
 0002:00003450       ??_C@_0BA@KBCDOMBN@?$GAudt?5returning?8@ 0000000180029450     libvcruntime:undname.obj
 0002:00003460       ??_C@_03KLGMFNMG@?$GAEH@   0000000180029460     libvcruntime:undname.obj
 0002:00003464       ??_C@_05KHLCHHI@?$GARTTI@  0000000180029464     libvcruntime:undname.obj
 0002:00003470       ??_C@_0BA@KKLDJDLB@?$GAlocal?5vftable?8@ 0000000180029470     libvcruntime:undname.obj
 0002:00003480       ??_C@_0CE@IIHCMGGL@?$GAlocal?5vftable?5constructor?5clos@ 0000000180029480     libvcruntime:undname.obj
 0002:000034a4       ??_C@_06FHBGPFGH@?5new?$FL?$FN@ 00000001800294a4     libvcruntime:undname.obj
 0002:000034b0       ??_C@_09LBNFPBCA@?5delete?$FL?$FN@ 00000001800294b0     libvcruntime:undname.obj
 0002:000034c0       ??_C@_0P@HJKNJFNN@?$GAomni?5callsig?8@ 00000001800294c0     libvcruntime:undname.obj
 0002:000034d0       ??_C@_0BL@CNOONJFP@?$GAplacement?5delete?5closure?8@ 00000001800294d0     libvcruntime:undname.obj
 0002:000034f0       ??_C@_0BN@CKNJLHMB@?$GAplacement?5delete?$FL?$FN?5closure?8@ 00000001800294f0     libvcruntime:undname.obj
 0002:00003510       ??_C@_0CG@CFDHKGGD@?$GAmanaged?5vector?5constructor?5ite@ 0000000180029510     libvcruntime:undname.obj
 0002:00003538       ??_C@_0CF@IMGKMJNO@?$GAmanaged?5vector?5destructor?5iter@ 0000000180029538     libvcruntime:undname.obj
 0002:00003560       ??_C@_0CG@HLDDJMAG@?$GAeh?5vector?5copy?5constructor?5ite@ 0000000180029560     libvcruntime:undname.obj
 0002:00003588       ??_C@_0CM@FCBBDIGB@?$GAeh?5vector?5vbase?5copy?5construct@ 0000000180029588     libvcruntime:undname.obj
 0002:000035b8       ??_C@_0BL@CLIPGLGB@?$GAdynamic?5initializer?5for?5?8@ 00000001800295b8     libvcruntime:undname.obj
 0002:000035d8       ??_C@_0CB@PDBIFEP@?$GAdynamic?5atexit?5destructor?5for?5@ 00000001800295d8     libvcruntime:undname.obj
 0002:00003600       ??_C@_0CD@CGAJBKEJ@?$GAvector?5copy?5constructor?5iterat@ 0000000180029600     libvcruntime:undname.obj
 0002:00003628       ??_C@_0CJ@GJELGAMM@?$GAvector?5vbase?5copy?5constructor?5@ 0000000180029628     libvcruntime:undname.obj
 0002:00003658       ??_C@_0CL@FGIJHLCE@?$GAmanaged?5vector?5copy?5constructo@ 0000000180029658     libvcruntime:undname.obj
 0002:00003688       ??_C@_0BM@PMGGMLDN@?$GAlocal?5static?5thread?5guard?8@ 0000000180029688     libvcruntime:undname.obj
 0002:000036a8       ??_C@_0N@BDNMDMOL@operator?5?$CC?$CC?5@ 00000001800296a8     libvcruntime:undname.obj
 0002:000036b8       ??_C@_0BC@GGEBGALA@operator?5co_await@ 00000001800296b8     libvcruntime:undname.obj
 0002:000036d0       ??_C@_0M@GAAIMMOH@operator?$DM?$DN?$DO@ 00000001800296d0     libvcruntime:undname.obj
 0002:000036e0       ??_C@_0BC@DAFEJGAK@?5Type?5Descriptor?8@ 00000001800296e0     libvcruntime:undname.obj
 0002:000036f8       ??_C@_0BM@LDKODKLH@?5Base?5Class?5Descriptor?5at?5?$CI@ 00000001800296f8     libvcruntime:undname.obj
 0002:00003718       ??_C@_0BD@LGICGFMM@?5Base?5Class?5Array?8@ 0000000180029718     libvcruntime:undname.obj
 0002:00003730       ??_C@_0BN@MECKDCOJ@?5Class?5Hierarchy?5Descriptor?8@ 0000000180029730     libvcruntime:undname.obj
 0002:00003750       ??_C@_0BK@CFCOFLF@?5Complete?5Object?5Locator?8@ 0000000180029750     libvcruntime:undname.obj
 0002:00003770       ??_C@_0BG@JNJLAMPM@?$GAanonymous?5namespace?8@ 0000000180029770     libvcruntime:undname.obj
 0002:000037a0       ??_C@_1DM@KHCHBNEB@?$AAa?$AAp?$AAi?$AA?9?$AAm?$AAs?$AA?9?$AAw?$AAi?$AAn?$AA?9?$AAc?$AAo?$AAr?$AAe@ 00000001800297a0     libvcruntime:winapi_downlevel.obj
 0002:000037e0       ??_C@_1DK@LPPGFMPP@?$AAa?$AAp?$AAi?$AA?9?$AAm?$AAs?$AA?9?$AAw?$AAi?$AAn?$AA?9?$AAc?$AAo?$AAr?$AAe@ 00000001800297e0     libvcruntime:winapi_downlevel.obj
 0002:00003820       ??_C@_1BC@GDMECMAK@?$AAk?$AAe?$AAr?$AAn?$AAe?$AAl?$AA3?$AA2@ 0000000180029820     libvcruntime:winapi_downlevel.obj
 0002:00003838       ??_C@_1BA@PFFKHIOG@?$AAa?$AAp?$AAi?$AA?9?$AAm?$AAs?$AA?9@ 0000000180029838     libvcruntime:winapi_downlevel.obj
 0002:00003850       ??_C@_08KNHFBNJ@FlsAlloc@  0000000180029850     libvcruntime:winapi_downlevel.obj
 0002:00003868       ??_C@_07PEJMOBNF@FlsFree@  0000000180029868     libvcruntime:winapi_downlevel.obj
 0002:00003878       ??_C@_0M@GDNOONDI@FlsGetValue@ 0000000180029878     libvcruntime:winapi_downlevel.obj
 0002:00003890       ??_C@_0M@JCPCPOEF@FlsSetValue@ 0000000180029890     libvcruntime:winapi_downlevel.obj
 0002:000038a8       ??_C@_0BM@HCFOFFN@InitializeCriticalSectionEx@ 00000001800298a8     libvcruntime:winapi_downlevel.obj
 0002:00003a40       ?format_validation_lookup_table_spectre@__crt_stdio_output@@3V?$spectre_mitigated_lookup_table@Ustate_transition_pair@__crt_stdio_output@@$0IA@@1@B 0000000180029a40     libucrt:output.obj
 0002:00003b40       ??_C@_1O@CEDCILHN@?$AA?$CI?$AAn?$AAu?$AAl?$AAl?$AA?$CJ@ 0000000180029b40     libucrt:output.obj
 0002:00003b50       ??_C@_06OJHGLDPL@?$CInull?$CJ@ 0000000180029b50     libucrt:output.obj
 0002:00003b60       __acrt_exception_action_table 0000000180029b60     libucrt:exception_filter.obj
 0002:00003c20       __acrt_signal_action_table_count 0000000180029c20     libucrt:exception_filter.obj
 0002:00003c28       __acrt_signal_action_first_fpe_index 0000000180029c28     libucrt:exception_filter.obj
 0002:00003c30       __acrt_signal_action_fpe_count 0000000180029c30     libucrt:exception_filter.obj
 0002:00003c88       ??_C@_1BI@BGOHAHKC@?$AAm?$AAs?$AAc?$AAo?$AAr?$AAe?$AAe?$AA?4?$AAd?$AAl?$AAl@ 0000000180029c88     libucrt:exit.obj
 0002:00003ca0       ??_C@_0P@MIGLKIOC@CorExitProcess@ 0000000180029ca0     libucrt:exit.obj
 0002:00003e00       __lc_time_c                0000000180029e00     libucrt:nlsdata.obj
 0002:000040c0       ??_C@_03KOEHGMDN@Sun@      000000018002a0c0     libucrt:nlsdata.obj
 0002:000040c4       ??_C@_03PDAGKDH@Mon@       000000018002a0c4     libucrt:nlsdata.obj
 0002:000040c8       ??_C@_03NAGEINEP@Tue@      000000018002a0c8     libucrt:nlsdata.obj
 0002:000040cc       ??_C@_03MHOMLAJA@Wed@      000000018002a0cc     libucrt:nlsdata.obj
 0002:000040d0       ??_C@_03IOFIKPDN@Thu@      000000018002a0d0     libucrt:nlsdata.obj
 0002:000040d4       ??_C@_03IDIOELNC@Fri@      000000018002a0d4     libucrt:nlsdata.obj
 0002:000040d8       ??_C@_03FEFJNEK@Sat@       000000018002a0d8     libucrt:nlsdata.obj
 0002:000040dc       ??_C@_06OOPIFAJ@Sunday@    000000018002a0dc     libucrt:nlsdata.obj
 0002:000040e4       ??_C@_06JLEDEDGH@Monday@   000000018002a0e4     libucrt:nlsdata.obj
 0002:000040f0       ??_C@_07BAAGCFCM@Tuesday@  000000018002a0f0     libucrt:nlsdata.obj
 0002:000040f8       ??_C@_09DLIGFAKA@Wednesday@ 000000018002a0f8     libucrt:nlsdata.obj
 0002:00004108       ??_C@_08HACCIKIA@Thursday@ 000000018002a108     libucrt:nlsdata.obj
 0002:00004114       ??_C@_06JECMNKMI@Friday@   000000018002a114     libucrt:nlsdata.obj
 0002:00004120       ??_C@_08INBOOONO@Saturday@ 000000018002a120     libucrt:nlsdata.obj
 0002:0000412c       ??_C@_03JIHJHPIE@Jan@      000000018002a12c     libucrt:nlsdata.obj
 0002:00004130       ??_C@_03HJBDCHOM@Feb@      000000018002a130     libucrt:nlsdata.obj
 0002:00004134       ??_C@_03ODNJBKGA@Mar@      000000018002a134     libucrt:nlsdata.obj
 0002:00004138       ??_C@_03LEOLGMJP@Apr@      000000018002a138     libucrt:nlsdata.obj
 0002:0000413c       ??_C@_03CNMDKL@May@        000000018002a13c     libucrt:nlsdata.obj
 0002:00004140       ??_C@_03IDFGHECI@Jun@      000000018002a140     libucrt:nlsdata.obj
 0002:00004144       ??_C@_03LBGABGKK@Jul@      000000018002a144     libucrt:nlsdata.obj
 0002:00004148       ??_C@_03IFJFEIGA@Aug@      000000018002a148     libucrt:nlsdata.obj
 0002:0000414c       ??_C@_03GGCAPAJC@Sep@      000000018002a14c     libucrt:nlsdata.obj
 0002:00004150       ??_C@_03BMAOKBAD@Oct@      000000018002a150     libucrt:nlsdata.obj
 0002:00004154       ??_C@_03JPJOFNIA@Nov@      000000018002a154     libucrt:nlsdata.obj
 0002:00004158       ??_C@_03MKABNOCG@Dec@      000000018002a158     libucrt:nlsdata.obj
 0002:00004160       ??_C@_07CGJPFGJA@January@  000000018002a160     libucrt:nlsdata.obj
 0002:00004168       ??_C@_08GNJGEPFN@February@ 000000018002a168     libucrt:nlsdata.obj
 0002:00004174       ??_C@_05HPCKOFNC@March@    000000018002a174     libucrt:nlsdata.obj
 0002:0000417c       ??_C@_05DMJDNLEJ@April@    000000018002a17c     libucrt:nlsdata.obj
 0002:00004184       ??_C@_04CNLMGBGM@June@     000000018002a184     libucrt:nlsdata.obj
 0002:0000418c       ??_C@_04MIEPOIFP@July@     000000018002a18c     libucrt:nlsdata.obj
 0002:00004194       ??_C@_06LBBHFDDG@August@   000000018002a194     libucrt:nlsdata.obj
 0002:000041a0       ??_C@_09BHHEALKD@September@ 000000018002a1a0     libucrt:nlsdata.obj
 0002:000041b0       ??_C@_07JJNFCEND@October@  000000018002a1b0     libucrt:nlsdata.obj
 0002:000041b8       ??_C@_08HCHEGEOA@November@ 000000018002a1b8     libucrt:nlsdata.obj
 0002:000041c8       ??_C@_08EDHMEBNP@December@ 000000018002a1c8     libucrt:nlsdata.obj
 0002:000041d4       ??_C@_02DEDBPAFC@AM@       000000018002a1d4     libucrt:nlsdata.obj
 0002:000041d8       ??_C@_02CJNFDJBF@PM@       000000018002a1d8     libucrt:nlsdata.obj
 0002:000041e0       ??_C@_08BPBNCDIB@MM?1dd?1yy@ 000000018002a1e0     libucrt:nlsdata.obj
 0002:000041f0       ??_C@_0BE@CKGJFCPC@dddd?0?5MMMM?5dd?0?5yyyy@ 000000018002a1f0     libucrt:nlsdata.obj
 0002:00004208       ??_C@_08JCCMCCIL@HH?3mm?3ss@ 000000018002a208     libucrt:nlsdata.obj
 0002:00004218       ??_C@_17MBGCMIPB@?$AAS?$AAu?$AAn@ 000000018002a218     libucrt:nlsdata.obj
 0002:00004220       ??_C@_17KBOMKBF@?$AAM?$AAo?$AAn@ 000000018002a220     libucrt:nlsdata.obj
 0002:00004228       ??_C@_17BMKGEGOJ@?$AAT?$AAu?$AAe@ 000000018002a228     libucrt:nlsdata.obj
 0002:00004230       ??_C@_17CJEDCEPE@?$AAW?$AAe?$AAd@ 000000018002a230     libucrt:nlsdata.obj
 0002:00004238       ??_C@_17PDPHAADD@?$AAT?$AAh?$AAu@ 000000018002a238     libucrt:nlsdata.obj
 0002:00004240       ??_C@_17HFOLPPLP@?$AAF?$AAr?$AAi@ 000000018002a240     libucrt:nlsdata.obj
 0002:00004248       ??_C@_17GGIBDPIH@?$AAS?$AAa?$AAt@ 000000018002a248     libucrt:nlsdata.obj
 0002:00004250       ??_C@_1O@IHNHDHPB@?$AAS?$AAu?$AAn?$AAd?$AAa?$AAy@ 000000018002a250     libucrt:nlsdata.obj
 0002:00004260       ??_C@_1O@MMNBFLIA@?$AAM?$AAo?$AAn?$AAd?$AAa?$AAy@ 000000018002a260     libucrt:nlsdata.obj
 0002:00004270       ??_C@_1BA@ENFBFFEK@?$AAT?$AAu?$AAe?$AAs?$AAd?$AAa?$AAy@ 000000018002a270     libucrt:nlsdata.obj
 0002:00004280       ??_C@_1BE@EBOGMDOH@?$AAW?$AAe?$AAd?$AAn?$AAe?$AAs?$AAd?$AAa?$AAy@ 000000018002a280     libucrt:nlsdata.obj
 0002:00004298       ??_C@_1BC@HHMNLIHE@?$AAT?$AAh?$AAu?$AAr?$AAs?$AAd?$AAa?$AAy@ 000000018002a298     libucrt:nlsdata.obj
 0002:000042b0       ??_C@_1O@PDICJHAG@?$AAF?$AAr?$AAi?$AAd?$AAa?$AAy@ 000000018002a2b0     libucrt:nlsdata.obj
 0002:000042c0       ??_C@_1BC@ENMNNPAJ@?$AAS?$AAa?$AAt?$AAu?$AAr?$AAd?$AAa?$AAy@ 000000018002a2c0     libucrt:nlsdata.obj
 0002:000042d8       ??_C@_17DKNBKCHM@?$AAJ?$AAa?$AAn@ 000000018002a2d8     libucrt:nlsdata.obj
 0002:000042e0       ??_C@_17LMDJEKJN@?$AAF?$AAe?$AAb@ 000000018002a2e0     libucrt:nlsdata.obj
 0002:000042e8       ??_C@_17CKNLEDEC@?$AAM?$AAa?$AAr@ 000000018002a2e8     libucrt:nlsdata.obj
 0002:000042f0       ??_C@_17LFPOIHDD@?$AAA?$AAp?$AAr@ 000000018002a2f0     libucrt:nlsdata.obj
 0002:000042f8       ??_C@_17PNNKMEED@?$AAM?$AAa?$AAy@ 000000018002a2f8     libucrt:nlsdata.obj
 0002:00004300       ??_C@_17KCJGOCPB@?$AAJ?$AAu?$AAn@ 000000018002a300     libucrt:nlsdata.obj
 0002:00004308       ??_C@_17IJPCKHK@?$AAJ?$AAu?$AAl@ 000000018002a308     libucrt:nlsdata.obj
 0002:00004310       ??_C@_17ICPELBCN@?$AAA?$AAu?$AAg@ 000000018002a310     libucrt:nlsdata.obj
 0002:00004318       ??_C@_17HCHCOKMG@?$AAS?$AAe?$AAp@ 000000018002a318     libucrt:nlsdata.obj
 0002:00004320       ??_C@_17FNLKOI@?$AAO?$AAc?$AAt@ 000000018002a320     libucrt:nlsdata.obj
 0002:00004328       ??_C@_17BBDMLCIG@?$AAN?$AAo?$AAv@ 000000018002a328     libucrt:nlsdata.obj
 0002:00004330       ??_C@_17EGKACKIF@?$AAD?$AAe?$AAc@ 000000018002a330     libucrt:nlsdata.obj
 0002:00004338       ??_C@_1BA@EFMEIEBA@?$AAJ?$AAa?$AAn?$AAu?$AAa?$AAr?$AAy@ 000000018002a338     libucrt:nlsdata.obj
 0002:00004348       ??_C@_1BC@JGDDFFAM@?$AAF?$AAe?$AAb?$AAr?$AAu?$AAa?$AAr?$AAy@ 000000018002a348     libucrt:nlsdata.obj
 0002:00004360       ??_C@_1M@IKEENEDF@?$AAM?$AAa?$AAr?$AAc?$AAh@ 000000018002a360     libucrt:nlsdata.obj
 0002:00004370       ??_C@_1M@GJNLMHFD@?$AAA?$AAp?$AAr?$AAi?$AAl@ 000000018002a370     libucrt:nlsdata.obj
 0002:00004380       ??_C@_19EPFLPGAP@?$AAJ?$AAu?$AAn?$AAe@ 000000018002a380     libucrt:nlsdata.obj
 0002:00004390       ??_C@_19BIFMLPCD@?$AAJ?$AAu?$AAl?$AAy@ 000000018002a390     libucrt:nlsdata.obj
 0002:000043a0       ??_C@_1O@PAHLKOAC@?$AAA?$AAu?$AAg?$AAu?$AAs?$AAt@ 000000018002a3a0     libucrt:nlsdata.obj
 0002:000043b0       ??_C@_1BE@DKAAMBJL@?$AAS?$AAe?$AAp?$AAt?$AAe?$AAm?$AAb?$AAe?$AAr@ 000000018002a3b0     libucrt:nlsdata.obj
 0002:000043c8       ??_C@_1BA@EPANDLNG@?$AAO?$AAc?$AAt?$AAo?$AAb?$AAe?$AAr@ 000000018002a3c8     libucrt:nlsdata.obj
 0002:000043d8       ??_C@_1BC@BGLIFPF@?$AAN?$AAo?$AAv?$AAe?$AAm?$AAb?$AAe?$AAr@ 000000018002a3d8     libucrt:nlsdata.obj
 0002:000043f0       ??_C@_1BC@FEMKIFH@?$AAD?$AAe?$AAc?$AAe?$AAm?$AAb?$AAe?$AAr@ 000000018002a3f0     libucrt:nlsdata.obj
 0002:00004404       ??_C@_15ODEHAHHF@?$AAA?$AAM@ 000000018002a404     libucrt:nlsdata.obj
 0002:0000440c       ??_C@_15CLMNNGEL@?$AAP?$AAM@ 000000018002a40c     libucrt:nlsdata.obj
 0002:00004418       ??_C@_1BC@IEBCMHCM@?$AAM?$AAM?$AA?1?$AAd?$AAd?$AA?1?$AAy?$AAy@ 000000018002a418     libucrt:nlsdata.obj
 0002:00004430       ??_C@_1CI@KNAKOEBC@?$AAd?$AAd?$AAd?$AAd?$AA?0?$AA?5?$AAM?$AAM?$AAM?$AAM?$AA?5?$AAd?$AAd?$AA?0?$AA?5@ 000000018002a430     libucrt:nlsdata.obj
 0002:00004458       ??_C@_1BC@GDGBMEMK@?$AAH?$AAH?$AA?3?$AAm?$AAm?$AA?3?$AAs?$AAs@ 000000018002a458     libucrt:nlsdata.obj
 0002:00004470       ??_C@_1M@BMHNFIME@?$AAe?$AAn?$AA?9?$AAU?$AAS@ 000000018002a470     libucrt:nlsdata.obj
 0002:00004520       ??_C@_1EA@JGEFHKEI@?$AAa?$AAp?$AAi?$AA?9?$AAm?$AAs?$AA?9?$AAw?$AAi?$AAn?$AA?9?$AAc?$AAo?$AAr?$AAe@ 000000018002a520     libucrt:winapi_thunks.obj
 0002:00004560       ??_C@_1DI@IJCEHOCB@?$AAa?$AAp?$AAi?$AA?9?$AAm?$AAs?$AA?9?$AAw?$AAi?$AAn?$AA?9?$AAc?$AAo?$AAr?$AAe@ 000000018002a560     libucrt:winapi_thunks.obj
 0002:000045a0       ??_C@_1EI@MPIAOHOC@?$AAa?$AAp?$AAi?$AA?9?$AAm?$AAs?$AA?9?$AAw?$AAi?$AAn?$AA?9?$AAc?$AAo?$AAr?$AAe@ 000000018002a5a0     libucrt:winapi_thunks.obj
 0002:000045f0       ??_C@_1FK@FPHCKFIE@?$AAa?$AAp?$AAi?$AA?9?$AAm?$AAs?$AA?9?$AAw?$AAi?$AAn?$AA?9?$AAc?$AAo?$AAr?$AAe@ 000000018002a5f0     libucrt:winapi_thunks.obj
 0002:00004650       ??_C@_1EM@DILCGIIO@?$AAa?$AAp?$AAi?$AA?9?$AAm?$AAs?$AA?9?$AAw?$AAi?$AAn?$AA?9?$AAc?$AAo?$AAr?$AAe@ 000000018002a650     libucrt:winapi_thunks.obj
 0002:000046a0       ??_C@_1DM@LNCGDDPN@?$AAa?$AAp?$AAi?$AA?9?$AAm?$AAs?$AA?9?$AAw?$AAi?$AAn?$AA?9?$AAc?$AAo?$AAr?$AAe@ 000000018002a6a0     libucrt:winapi_thunks.obj
 0002:000046e0       ??_C@_1DO@FPAPJEMD@?$AAa?$AAp?$AAi?$AA?9?$AAm?$AAs?$AA?9?$AAw?$AAi?$AAn?$AA?9?$AAc?$AAo?$AAr?$AAe@ 000000018002a6e0     libucrt:winapi_thunks.obj
 0002:00004720       ??_C@_1DK@NDHNAHIO@?$AAa?$AAp?$AAi?$AA?9?$AAm?$AAs?$AA?9?$AAw?$AAi?$AAn?$AA?9?$AAc?$AAo?$AAr?$AAe@ 000000018002a720     libucrt:winapi_thunks.obj
 0002:00004760       ??_C@_1DM@KGHDGBCM@?$AAa?$AAp?$AAi?$AA?9?$AAm?$AAs?$AA?9?$AAw?$AAi?$AAn?$AA?9?$AAc?$AAo?$AAr?$AAe@ 000000018002a760     libucrt:winapi_thunks.obj
 0002:000047a0       ??_C@_1EO@IJIOEFOH@?$AAa?$AAp?$AAi?$AA?9?$AAm?$AAs?$AA?9?$AAw?$AAi?$AAn?$AA?9?$AAr?$AAt?$AAc?$AAo@ 000000018002a7a0     libucrt:winapi_thunks.obj
 0002:000047f0       ??_C@_1FG@HHGEKANL@?$AAa?$AAp?$AAi?$AA?9?$AAm?$AAs?$AA?9?$AAw?$AAi?$AAn?$AA?9?$AAs?$AAe?$AAc?$AAu@ 000000018002a7f0     libucrt:winapi_thunks.obj
 0002:00004850       ??_C@_1EG@DBIOJECG@?$AAe?$AAx?$AAt?$AA?9?$AAm?$AAs?$AA?9?$AAw?$AAi?$AAn?$AA?9?$AAn?$AAt?$AAu?$AAs@ 000000018002a850     libucrt:winapi_thunks.obj
 0002:000048a0       ??_C@_1EO@FIHMJCLF@?$AAe?$AAx?$AAt?$AA?9?$AAm?$AAs?$AA?9?$AAw?$AAi?$AAn?$AA?9?$AAn?$AAt?$AAu?$AAs@ 000000018002a8a0     libucrt:winapi_thunks.obj
 0002:000048f0       ??_C@_1BC@DNHGCMLG@?$AAa?$AAd?$AAv?$AAa?$AAp?$AAi?$AA3?$AA2@ 000000018002a8f0     libucrt:winapi_thunks.obj
 0002:00004908       ??_C@_1M@OAIMIKLP@?$AAn?$AAt?$AAd?$AAl?$AAl@ 000000018002a908     libucrt:winapi_thunks.obj
 0002:00004920       ??_C@_1EG@DPGNFKGC@?$AAa?$AAp?$AAi?$AA?9?$AAm?$AAs?$AA?9?$AAw?$AAi?$AAn?$AA?9?$AAa?$AAp?$AAp?$AAm@ 000000018002a920     libucrt:winapi_thunks.obj
 0002:00004968       ??_C@_1O@BCCLBEOE@?$AAu?$AAs?$AAe?$AAr?$AA3?$AA2@ 000000018002a968     libucrt:winapi_thunks.obj
 0002:00004978       ??_C@_1BA@IAIFMGEF@?$AAe?$AAx?$AAt?$AA?9?$AAm?$AAs?$AA?9@ 000000018002a978     libucrt:winapi_thunks.obj
 0002:00004990       ??_C@_0BA@FHFNEAED@AreFileApisANSI@ 000000018002a990     libucrt:winapi_thunks.obj
 0002:000049b0       ??_C@_0O@KKBNKAPF@LCMapStringEx@ 000000018002a9b0     libucrt:winapi_thunks.obj
 0002:000049c8       ??_C@_0BB@HBDEELFH@LocaleNameToLCID@ 000000018002a9c8     libucrt:winapi_thunks.obj
 0002:000049e0       ??_C@_0CF@OJOFEIGO@AppPolicyGetProcessTerminationM@ 000000018002a9e0     libucrt:winapi_thunks.obj
 0002:00004a10       ??_C@_0BI@BKLFFAPO@SetThreadStackGuarantee@ 000000018002aa10     libucrt:winapi_thunks.obj
 0002:00004ab0       ??_C@_03OEIAHPBN@INF@      000000018002aab0     libucrt:cvt.obj
 0002:00004ab4       ??_C@_03OJHLLCGB@inf@      000000018002aab4     libucrt:cvt.obj
 0002:00004ab8       ??_C@_03LKNCIKJB@NAN@      000000018002aab8     libucrt:cvt.obj
 0002:00004abc       ??_C@_03LHCJEHON@nan@      000000018002aabc     libucrt:cvt.obj
 0002:00004ac0       ??_C@_09OFJJIMPC@NAN?$CISNAN?$CJ@ 000000018002aac0     libucrt:cvt.obj
 0002:00004ad0       ??_C@_09IPFBKMDL@nan?$CIsnan?$CJ@ 000000018002aad0     libucrt:cvt.obj
 0002:00004ae0       ??_C@_08IKHNHAJ@NAN?$CIIND?$CJ@ 000000018002aae0     libucrt:cvt.obj
 0002:00004af0       ??_C@_08OFCDMILK@nan?$CIind?$CJ@ 000000018002aaf0     libucrt:cvt.obj
 0002:00004afc       ??_C@_05KLBDPFGC@e?$CL000@ 000000018002aafc     libucrt:cvt.obj
 0002:00004b28       ??_C@_1M@HPNHIDJI@?$AAj?$AAa?$AA?9?$AAJ?$AAP@ 000000018002ab28     libucrt:mbctype.obj
 0002:00004b38       ??_C@_1M@BIBDDEMK@?$AAz?$AAh?$AA?9?$AAC?$AAN@ 000000018002ab38     libucrt:mbctype.obj
 0002:00004b48       ??_C@_1M@JLOOOEGK@?$AAk?$AAo?$AA?9?$AAK?$AAR@ 000000018002ab48     libucrt:mbctype.obj
 0002:00004b58       ??_C@_1M@CLNBBOPM@?$AAz?$AAh?$AA?9?$AAT?$AAW@ 000000018002ab58     libucrt:mbctype.obj
 0002:00004b70       __newctype                 000000018002ab70     libucrt:ctype.obj
 0002:00004e70       __newclmap                 000000018002ae70     libucrt:ctype.obj
 0002:00004ff0       __newcumap                 000000018002aff0     libucrt:ctype.obj
 0002:00005170       ??_C@_15PJPFLCCM@?$AAu?$AAk@ 000000018002b170     libucrt:get_qualified_locale.obj
 0002:00005fc0       ??_C@_15EMKDOKLE@?$AAa?$AAr@ 000000018002bfc0     libucrt:lcidtoname_downlevel.obj
 0002:00005fc8       ??_C@_15KNPADPLH@?$AAb?$AAg@ 000000018002bfc8     libucrt:lcidtoname_downlevel.obj
 0002:00005fd0       ??_C@_15EDMHLDMO@?$AAc?$AAa@ 000000018002bfd0     libucrt:lcidtoname_downlevel.obj
 0002:00005fd8       ??_C@_1O@BPEAJADD@?$AAz?$AAh?$AA?9?$AAC?$AAH?$AAS@ 000000018002bfd8     libucrt:lcidtoname_downlevel.obj
 0002:00005fe8       ??_C@_15LJNHCMNK@?$AAc?$AAs@ 000000018002bfe8     libucrt:lcidtoname_downlevel.obj
 0002:00005ff0       ??_C@_15FOMCIDHG@?$AAd?$AAa@ 000000018002bff0     libucrt:lcidtoname_downlevel.obj
 0002:00005ff8       ??_C@_15NBKABECB@?$AAd?$AAe@ 000000018002bff8     libucrt:lcidtoname_downlevel.obj
 0002:00006000       ??_C@_15GHPEIIAO@?$AAe?$AAl@ 000000018002c000     libucrt:lcidtoname_downlevel.obj
 0002:00006008       ??_C@_15MNPNEAIF@?$AAe?$AAn@ 000000018002c008     libucrt:lcidtoname_downlevel.obj
 0002:00006010       ??_C@_15GPIOMPMH@?$AAe?$AAs@ 000000018002c010     libucrt:lcidtoname_downlevel.obj
 0002:00006018       ??_C@_15NGLOAKJC@?$AAf?$AAi@ 000000018002c018     libucrt:lcidtoname_downlevel.obj
 0002:00006020       ??_C@_15FBKGNKAM@?$AAf?$AAr@ 000000018002c020     libucrt:lcidtoname_downlevel.obj
 0002:00006028       ??_C@_15KGGCNEFK@?$AAh?$AAe@ 000000018002c028     libucrt:lcidtoname_downlevel.obj
 0002:00006030       ??_C@_15PGHLIDMF@?$AAh?$AAu@ 000000018002c030     libucrt:lcidtoname_downlevel.obj
 0002:00006038       ??_C@_15BIEMAPLM@?$AAi?$AAs@ 000000018002c038     libucrt:lcidtoname_downlevel.obj
 0002:00006040       ??_C@_15IFJLDHAF@?$AAi?$AAt@ 000000018002c040     libucrt:lcidtoname_downlevel.obj
 0002:00006048       ??_C@_15GEMIOCAG@?$AAj?$AAa@ 000000018002c048     libucrt:lcidtoname_downlevel.obj
 0002:00006050       ??_C@_15EPELEGJA@?$AAk?$AAo@ 000000018002c050     libucrt:lcidtoname_downlevel.obj
 0002:00006058       ??_C@_15NDDHIMN@?$AAn?$AAl@ 000000018002c058     libucrt:lcidtoname_downlevel.obj
 0002:00006060       ??_C@_15BPIGNHCD@?$AAn?$AAo@ 000000018002c060     libucrt:lcidtoname_downlevel.obj
 0002:00006068       ??_C@_15DEOPBLCG@?$AAp?$AAl@ 000000018002c068     libucrt:lcidtoname_downlevel.obj
 0002:00006070       ??_C@_15KBECGEFG@?$AAp?$AAt@ 000000018002c070     libucrt:lcidtoname_downlevel.obj
 0002:00006078       ??_C@_15GLJCBFMD@?$AAr?$AAo@ 000000018002c078     libucrt:lcidtoname_downlevel.obj
 0002:00006080       ??_C@_15FEDGKCDI@?$AAr?$AAu@ 000000018002c080     libucrt:lcidtoname_downlevel.obj
 0002:00006088       ??_C@_15GLKMLLHM@?$AAh?$AAr@ 000000018002c088     libucrt:lcidtoname_downlevel.obj
 0002:00006090       ??_C@_15CPKMFBDB@?$AAs?$AAk@ 000000018002c090     libucrt:lcidtoname_downlevel.obj
 0002:00006098       ??_C@_15BAAIOGMK@?$AAs?$AAq@ 000000018002c098     libucrt:lcidtoname_downlevel.obj
 0002:000060a0       ??_C@_15INNPNOHD@?$AAs?$AAv@ 000000018002c0a0     libucrt:lcidtoname_downlevel.obj
 0002:000060a8       ??_C@_15CABMMOGH@?$AAt?$AAh@ 000000018002c0a8     libucrt:lcidtoname_downlevel.obj
 0002:000060b0       ??_C@_15BPLIHJJM@?$AAt?$AAr@ 000000018002c0b0     libucrt:lcidtoname_downlevel.obj
 0002:000060b8       ??_C@_15NEOEKKDJ@?$AAu?$AAr@ 000000018002c0b8     libucrt:lcidtoname_downlevel.obj
 0002:000060c0       ??_C@_15NFICGAJK@?$AAi?$AAd@ 000000018002c0c0     libucrt:lcidtoname_downlevel.obj
 0002:000060c8       ??_C@_15HPJPHDM@?$AAb?$AAe@ 000000018002c0c8     libucrt:lcidtoname_downlevel.obj
 0002:000060d0       ??_C@_15LCHLGJII@?$AAs?$AAl@ 000000018002c0d0     libucrt:lcidtoname_downlevel.obj
 0002:000060d8       ??_C@_15PCFJPHHO@?$AAe?$AAt@ 000000018002c0d8     libucrt:lcidtoname_downlevel.obj
 0002:000060e0       ??_C@_15HPFPGODN@?$AAl?$AAv@ 000000018002c0e0     libucrt:lcidtoname_downlevel.obj
 0002:000060e8       ??_C@_15NFFGKGLG@?$AAl?$AAt@ 000000018002c0e8     libucrt:lcidtoname_downlevel.obj
 0002:000060f0       ??_C@_15BDAKCCHN@?$AAf?$AAa@ 000000018002c0f0     libucrt:lcidtoname_downlevel.obj
 0002:000060f8       ??_C@_15NFGIAIAJ@?$AAv?$AAi@ 000000018002c0f8     libucrt:lcidtoname_downlevel.obj
 0002:00006100       ??_C@_15LMKNDMHN@?$AAh?$AAy@ 000000018002c100     libucrt:lcidtoname_downlevel.obj
 0002:00006108       ??_C@_15IJBHMCFL@?$AAa?$AAz@ 000000018002c108     libucrt:lcidtoname_downlevel.obj
 0002:00006110       ??_C@_15EKOFJABL@?$AAe?$AAu@ 000000018002c110     libucrt:lcidtoname_downlevel.obj
 0002:00006118       ??_C@_15BGHADCNK@?$AAm?$AAk@ 000000018002c118     libucrt:lcidtoname_downlevel.obj
 0002:00006120       ??_C@_15JDNICKHM@?$AAa?$AAf@ 000000018002c120     libucrt:lcidtoname_downlevel.obj
 0002:00006128       ??_C@_15KPJEDBKD@?$AAk?$AAa@ 000000018002c128     libucrt:lcidtoname_downlevel.obj
 0002:00006130       ??_C@_15PDNFFFEO@?$AAf?$AAo@ 000000018002c130     libucrt:lcidtoname_downlevel.obj
 0002:00006138       ??_C@_15OMLEGLOC@?$AAh?$AAi@ 000000018002c138     libucrt:lcidtoname_downlevel.obj
 0002:00006140       ??_C@_15IDNNENKK@?$AAm?$AAs@ 000000018002c140     libucrt:lcidtoname_downlevel.obj
 0002:00006148       ??_C@_15MACJNBMH@?$AAk?$AAk@ 000000018002c148     libucrt:lcidtoname_downlevel.obj
 0002:00006150       ??_C@_15DKDJEOND@?$AAk?$AAy@ 000000018002c150     libucrt:lcidtoname_downlevel.obj
 0002:00006158       ??_C@_15DFGDLJBG@?$AAs?$AAw@ 000000018002c158     libucrt:lcidtoname_downlevel.obj
 0002:00006160       ??_C@_15BBFAICNG@?$AAu?$AAz@ 000000018002c160     libucrt:lcidtoname_downlevel.obj
 0002:00006168       ??_C@_15DKNDCGEA@?$AAt?$AAt@ 000000018002c168     libucrt:lcidtoname_downlevel.obj
 0002:00006170       ??_C@_15MGIFMDPL@?$AAp?$AAa@ 000000018002c170     libucrt:lcidtoname_downlevel.obj
 0002:00006178       ??_C@_15HCNDBBA@?$AAg?$AAu@ 000000018002c178     libucrt:lcidtoname_downlevel.obj
 0002:00006180       ??_C@_15FNBEIBON@?$AAt?$AAa@ 000000018002c180     libucrt:lcidtoname_downlevel.obj
 0002:00006188       ??_C@_15NCHGBGLK@?$AAt?$AAe@ 000000018002c188     libucrt:lcidtoname_downlevel.obj
 0002:00006190       ??_C@_15PHPHCBPF@?$AAk?$AAn@ 000000018002c190     libucrt:lcidtoname_downlevel.obj
 0002:00006198       ??_C@_15DLGBCKMP@?$AAm?$AAr@ 000000018002c198     libucrt:lcidtoname_downlevel.obj
 0002:000061a0       ??_C@_15EABBLBFF@?$AAs?$AAa@ 000000018002c1a0     libucrt:lcidtoname_downlevel.obj
 0002:000061a8       ??_C@_15CBKOMCOI@?$AAm?$AAn@ 000000018002c1a8     libucrt:lcidtoname_downlevel.obj
 0002:000061b0       ??_C@_15CKDMCJAF@?$AAg?$AAl@ 000000018002c1b0     libucrt:lcidtoname_downlevel.obj
 0002:000061b8       ??_C@_17CNJFBPG@?$AAk?$AAo?$AAk@ 000000018002c1b8     libucrt:lcidtoname_downlevel.obj
 0002:000061c0       ??_C@_17FFBJICPL@?$AAs?$AAy?$AAr@ 000000018002c1c0     libucrt:lcidtoname_downlevel.obj
 0002:000061c8       ??_C@_17KPNDCPAF@?$AAd?$AAi?$AAv@ 000000018002c1c8     libucrt:lcidtoname_downlevel.obj
 0002:000061d0       ??_C@_1M@OKAHONE@?$AAa?$AAr?$AA?9?$AAS?$AAA@ 000000018002c1d0     libucrt:lcidtoname_downlevel.obj
 0002:000061e0       ??_C@_1M@FFFIGIGK@?$AAb?$AAg?$AA?9?$AAB?$AAG@ 000000018002c1e0     libucrt:lcidtoname_downlevel.obj
 0002:000061f0       ??_C@_1M@BJNKEDC@?$AAc?$AAa?$AA?9?$AAE?$AAS@ 000000018002c1f0     libucrt:lcidtoname_downlevel.obj
 0002:00006200       ??_C@_1M@IJJHFJHA@?$AAc?$AAs?$AA?9?$AAC?$AAZ@ 000000018002c200     libucrt:lcidtoname_downlevel.obj
 0002:00006210       ??_C@_1M@CLPEOBGI@?$AAd?$AAa?$AA?9?$AAD?$AAK@ 000000018002c210     libucrt:lcidtoname_downlevel.obj
 0002:00006220       ??_C@_1M@MCMADGCB@?$AAd?$AAe?$AA?9?$AAD?$AAE@ 000000018002c220     libucrt:lcidtoname_downlevel.obj
 0002:00006230       ??_C@_1M@OOCKEMAM@?$AAe?$AAl?$AA?9?$AAG?$AAR@ 000000018002c230     libucrt:lcidtoname_downlevel.obj
 0002:00006240       ??_C@_1M@DDNJFGID@?$AAf?$AAi?$AA?9?$AAF?$AAI@ 000000018002c240     libucrt:lcidtoname_downlevel.obj
 0002:00006250       ??_C@_1M@GLIPPMAC@?$AAf?$AAr?$AA?9?$AAF?$AAR@ 000000018002c250     libucrt:lcidtoname_downlevel.obj
 0002:00006260       ??_C@_1M@GFMCHPE@?$AAh?$AAe?$AA?9?$AAI?$AAL@ 000000018002c260     libucrt:lcidtoname_downlevel.obj
 0002:00006270       ??_C@_1M@MHLPGNKM@?$AAh?$AAu?$AA?9?$AAH?$AAU@ 000000018002c270     libucrt:lcidtoname_downlevel.obj
 0002:00006280       ??_C@_1M@LPDDNNPN@?$AAi?$AAs?$AA?9?$AAI?$AAS@ 000000018002c280     libucrt:lcidtoname_downlevel.obj
 0002:00006290       ??_C@_1M@MADIPODN@?$AAi?$AAt?$AA?9?$AAI?$AAT@ 000000018002c290     libucrt:lcidtoname_downlevel.obj
 0002:000062a0       ??_C@_1M@IHBJJGG@?$AAn?$AAl?$AA?9?$AAN?$AAL@ 000000018002c2a0     libucrt:lcidtoname_downlevel.obj
 0002:000062b0       ??_C@_1M@EANAGDL@?$AAn?$AAb?$AA?9?$AAN?$AAO@ 000000018002c2b0     libucrt:lcidtoname_downlevel.obj
 0002:000062c0       ??_C@_1M@NEIEMEGP@?$AAp?$AAl?$AA?9?$AAP?$AAL@ 000000018002c2c0     libucrt:lcidtoname_downlevel.obj
 0002:000062d0       ??_C@_1M@BOCFIGEP@?$AAp?$AAt?$AA?9?$AAB?$AAR@ 000000018002c2d0     libucrt:lcidtoname_downlevel.obj
 0002:000062e0       ??_C@_1M@IMPFOPBG@?$AAr?$AAo?$AA?9?$AAR?$AAO@ 000000018002c2e0     libucrt:lcidtoname_downlevel.obj
 0002:000062f0       ??_C@_1M@IDNNEJMM@?$AAr?$AAu?$AA?9?$AAR?$AAU@ 000000018002c2f0     libucrt:lcidtoname_downlevel.obj
 0002:00006300       ??_C@_1M@LILEEOGM@?$AAh?$AAr?$AA?9?$AAH?$AAR@ 000000018002c300     libucrt:lcidtoname_downlevel.obj
 0002:00006310       ??_C@_1M@FKIFEHPB@?$AAs?$AAk?$AA?9?$AAS?$AAK@ 000000018002c310     libucrt:lcidtoname_downlevel.obj
 0002:00006320       ??_C@_1M@LJMAMNPJ@?$AAs?$AAq?$AA?9?$AAA?$AAL@ 000000018002c320     libucrt:lcidtoname_downlevel.obj
 0002:00006330       ??_C@_1M@GIAKDKJK@?$AAs?$AAv?$AA?9?$AAS?$AAE@ 000000018002c330     libucrt:lcidtoname_downlevel.obj
 0002:00006340       ??_C@_1M@MKJKIKCL@?$AAt?$AAh?$AA?9?$AAT?$AAH@ 000000018002c340     libucrt:lcidtoname_downlevel.obj
 0002:00006350       ??_C@_1M@MFLCCMPB@?$AAt?$AAr?$AA?9?$AAT?$AAR@ 000000018002c350     libucrt:lcidtoname_downlevel.obj
 0002:00006360       ??_C@_1M@OIJHDKJN@?$AAu?$AAr?$AA?9?$AAP?$AAK@ 000000018002c360     libucrt:lcidtoname_downlevel.obj
 0002:00006370       ??_C@_1M@LHIPCIEK@?$AAi?$AAd?$AA?9?$AAI?$AAD@ 000000018002c370     libucrt:lcidtoname_downlevel.obj
 0002:00006380       ??_C@_1M@MFMOBGI@?$AAu?$AAk?$AA?9?$AAU?$AAA@ 000000018002c380     libucrt:lcidtoname_downlevel.obj
 0002:00006390       ??_C@_1M@OBGLJIPL@?$AAb?$AAe?$AA?9?$AAB?$AAY@ 000000018002c390     libucrt:lcidtoname_downlevel.obj
 0002:000063a0       ??_C@_1M@BCFAJEAD@?$AAs?$AAl?$AA?9?$AAS?$AAI@ 000000018002c3a0     libucrt:lcidtoname_downlevel.obj
 0002:000063b0       ??_C@_1M@FKFFEDDN@?$AAe?$AAt?$AA?9?$AAE?$AAE@ 000000018002c3b0     libucrt:lcidtoname_downlevel.obj
 0002:000063c0       ??_C@_1M@KGKKAACI@?$AAl?$AAv?$AA?9?$AAL?$AAV@ 000000018002c3c0     libucrt:lcidtoname_downlevel.obj
 0002:000063d0       ??_C@_1M@IFGBIJO@?$AAl?$AAt?$AA?9?$AAL?$AAT@ 000000018002c3d0     libucrt:lcidtoname_downlevel.obj
 0002:000063e0       ??_C@_1M@FGEAHEDM@?$AAf?$AAa?$AA?9?$AAI?$AAR@ 000000018002c3e0     libucrt:lcidtoname_downlevel.obj
 0002:000063f0       ??_C@_1M@KBMAIBFN@?$AAv?$AAi?$AA?9?$AAV?$AAN@ 000000018002c3f0     libucrt:lcidtoname_downlevel.obj
 0002:00006400       ??_C@_1M@GPCBKDJK@?$AAh?$AAy?$AA?9?$AAA?$AAM@ 000000018002c400     libucrt:lcidtoname_downlevel.obj
 0002:00006410       ??_C@_1BG@BECMDDJB@?$AAa?$AAz?$AA?9?$AAA?$AAZ?$AA?9?$AAL?$AAa?$AAt?$AAn@ 000000018002c410     libucrt:lcidtoname_downlevel.obj
 0002:00006428       ??_C@_1M@MAOFCAEA@?$AAe?$AAu?$AA?9?$AAE?$AAS@ 000000018002c428     libucrt:lcidtoname_downlevel.obj
 0002:00006438       ??_C@_1M@IGHABKPI@?$AAm?$AAk?$AA?9?$AAM?$AAK@ 000000018002c438     libucrt:lcidtoname_downlevel.obj
 0002:00006448       ??_C@_1M@IAIGNEJG@?$AAt?$AAn?$AA?9?$AAZ?$AAA@ 000000018002c448     libucrt:lcidtoname_downlevel.obj
 0002:00006458       ??_C@_1M@IIJCOJFA@?$AAx?$AAh?$AA?9?$AAZ?$AAA@ 000000018002c458     libucrt:lcidtoname_downlevel.obj
 0002:00006468       ??_C@_1M@LGPJHNJH@?$AAz?$AAu?$AA?9?$AAZ?$AAA@ 000000018002c468     libucrt:lcidtoname_downlevel.obj
 0002:00006478       ??_C@_1M@HOKAOIO@?$AAa?$AAf?$AA?9?$AAZ?$AAA@ 000000018002c478     libucrt:lcidtoname_downlevel.obj
 0002:00006488       ??_C@_1M@DPCLHLIE@?$AAk?$AAa?$AA?9?$AAG?$AAE@ 000000018002c488     libucrt:lcidtoname_downlevel.obj
 0002:00006498       ??_C@_1M@BLKMHJBI@?$AAf?$AAo?$AA?9?$AAF?$AAO@ 000000018002c498     libucrt:lcidtoname_downlevel.obj
 0002:000064a8       ??_C@_1M@LGGJAPPB@?$AAh?$AAi?$AA?9?$AAI?$AAN@ 000000018002c4a8     libucrt:lcidtoname_downlevel.obj
 0002:000064b8       ??_C@_1M@FIKPIHFE@?$AAm?$AAt?$AA?9?$AAM?$AAT@ 000000018002c4b8     libucrt:lcidtoname_downlevel.obj
 0002:000064c8       ??_C@_1M@HEGGPBFA@?$AAs?$AAe?$AA?9?$AAN?$AAO@ 000000018002c4c8     libucrt:lcidtoname_downlevel.obj
 0002:000064d8       ??_C@_1M@EIBJEEPA@?$AAm?$AAs?$AA?9?$AAM?$AAY@ 000000018002c4d8     libucrt:lcidtoname_downlevel.obj
 0002:000064e8       ??_C@_1M@FHLBGMPP@?$AAk?$AAk?$AA?9?$AAK?$AAZ@ 000000018002c4e8     libucrt:lcidtoname_downlevel.obj
 0002:000064f8       ??_C@_1M@NGJJLCGI@?$AAk?$AAy?$AA?9?$AAK?$AAG@ 000000018002c4f8     libucrt:lcidtoname_downlevel.obj
 0002:00006508       ??_C@_1M@GIENNBFC@?$AAs?$AAw?$AA?9?$AAK?$AAE@ 000000018002c508     libucrt:lcidtoname_downlevel.obj
 0002:00006518       ??_C@_1BG@NDGMJIMJ@?$AAu?$AAz?$AA?9?$AAU?$AAZ?$AA?9?$AAL?$AAa?$AAt?$AAn@ 000000018002c518     libucrt:lcidtoname_downlevel.obj
 0002:00006530       ??_C@_1M@IDCCIHBC@?$AAt?$AAt?$AA?9?$AAR?$AAU@ 000000018002c530     libucrt:lcidtoname_downlevel.obj
 0002:00006540       ??_C@_1M@LOICPMOJ@?$AAb?$AAn?$AA?9?$AAI?$AAN@ 000000018002c540     libucrt:lcidtoname_downlevel.obj
 0002:00006550       ??_C@_1M@KPKKNEAH@?$AAp?$AAa?$AA?9?$AAI?$AAN@ 000000018002c550     libucrt:lcidtoname_downlevel.obj
 0002:00006560       ??_C@_1M@PJGPPBOG@?$AAg?$AAu?$AA?9?$AAI?$AAN@ 000000018002c560     libucrt:lcidtoname_downlevel.obj
 0002:00006570       ??_C@_1M@KMKMOPHI@?$AAt?$AAa?$AA?9?$AAI?$AAN@ 000000018002c570     libucrt:lcidtoname_downlevel.obj
 0002:00006580       ??_C@_1M@KFEHEPAC@?$AAt?$AAe?$AA?9?$AAI?$AAN@ 000000018002c580     libucrt:lcidtoname_downlevel.obj
 0002:00006590       ??_C@_1M@CDCLMGHI@?$AAk?$AAn?$AA?9?$AAI?$AAN@ 000000018002c590     libucrt:lcidtoname_downlevel.obj
 0002:000065a0       ??_C@_1M@MIODLDKF@?$AAm?$AAl?$AA?9?$AAI?$AAN@ 000000018002c5a0     libucrt:lcidtoname_downlevel.obj
 0002:000065b0       ??_C@_1M@PBIEACPO@?$AAm?$AAr?$AA?9?$AAI?$AAN@ 000000018002c5b0     libucrt:lcidtoname_downlevel.obj
 0002:000065c0       ??_C@_1M@NIDEAGPH@?$AAs?$AAa?$AA?9?$AAI?$AAN@ 000000018002c5c0     libucrt:lcidtoname_downlevel.obj
 0002:000065d0       ??_C@_1M@FHIHCBIO@?$AAm?$AAn?$AA?9?$AAM?$AAN@ 000000018002c5d0     libucrt:lcidtoname_downlevel.obj
 0002:000065e0       ??_C@_1M@JAIJPENP@?$AAc?$AAy?$AA?9?$AAG?$AAB@ 000000018002c5e0     libucrt:lcidtoname_downlevel.obj
 0002:000065f0       ??_C@_1M@PHGFBEPN@?$AAg?$AAl?$AA?9?$AAE?$AAS@ 000000018002c5f0     libucrt:lcidtoname_downlevel.obj
 0002:00006600       ??_C@_1O@KPIPDNCP@?$AAk?$AAo?$AAk?$AA?9?$AAI?$AAN@ 000000018002c600     libucrt:lcidtoname_downlevel.obj
 0002:00006610       ??_C@_1O@KNHJLDJA@?$AAs?$AAy?$AAr?$AA?9?$AAS?$AAY@ 000000018002c610     libucrt:lcidtoname_downlevel.obj
 0002:00006620       ??_C@_1O@MKEKBLAH@?$AAd?$AAi?$AAv?$AA?9?$AAM?$AAV@ 000000018002c620     libucrt:lcidtoname_downlevel.obj
 0002:00006630       ??_C@_1O@OHDCKDDF@?$AAq?$AAu?$AAz?$AA?9?$AAB?$AAO@ 000000018002c630     libucrt:lcidtoname_downlevel.obj
 0002:00006640       ??_C@_1M@LEPJNLFD@?$AAn?$AAs?$AA?9?$AAZ?$AAA@ 000000018002c640     libucrt:lcidtoname_downlevel.obj
 0002:00006650       ??_C@_1M@OMLEIIJB@?$AAm?$AAi?$AA?9?$AAN?$AAZ@ 000000018002c650     libucrt:lcidtoname_downlevel.obj
 0002:00006660       ??_C@_1M@PMPEAILG@?$AAa?$AAr?$AA?9?$AAI?$AAQ@ 000000018002c660     libucrt:lcidtoname_downlevel.obj
 0002:00006670       ??_C@_1M@CNKPNOEE@?$AAd?$AAe?$AA?9?$AAC?$AAH@ 000000018002c670     libucrt:lcidtoname_downlevel.obj
 0002:00006680       ??_C@_1M@LKMGMLKO@?$AAe?$AAn?$AA?9?$AAG?$AAB@ 000000018002c680     libucrt:lcidtoname_downlevel.obj
 0002:00006690       ??_C@_1M@PGKJFFGL@?$AAe?$AAs?$AA?9?$AAM?$AAX@ 000000018002c690     libucrt:lcidtoname_downlevel.obj
 0002:000066a0       ??_C@_1M@DNNANBDC@?$AAf?$AAr?$AA?9?$AAB?$AAE@ 000000018002c6a0     libucrt:lcidtoname_downlevel.obj
 0002:000066b0       ??_C@_1M@HLGMDFHM@?$AAi?$AAt?$AA?9?$AAC?$AAH@ 000000018002c6b0     libucrt:lcidtoname_downlevel.obj
 0002:000066c0       ??_C@_1M@CLLBGJH@?$AAn?$AAl?$AA?9?$AAB?$AAE@ 000000018002c6c0     libucrt:lcidtoname_downlevel.obj
 0002:000066d0       ??_C@_1M@BODBOGLF@?$AAn?$AAn?$AA?9?$AAN?$AAO@ 000000018002c6d0     libucrt:lcidtoname_downlevel.obj
 0002:000066e0       ??_C@_1M@HFFAHKAD@?$AAp?$AAt?$AA?9?$AAP?$AAT@ 000000018002c6e0     libucrt:lcidtoname_downlevel.obj
 0002:000066f0       ??_C@_1BG@LNOAKHIE@?$AAs?$AAr?$AA?9?$AAS?$AAP?$AA?9?$AAL?$AAa?$AAt?$AAn@ 000000018002c6f0     libucrt:lcidtoname_downlevel.obj
 0002:00006708       ??_C@_1M@HBMHBGAK@?$AAs?$AAv?$AA?9?$AAF?$AAI@ 000000018002c708     libucrt:lcidtoname_downlevel.obj
 0002:00006718       ??_C@_1BG@DGCJGJBE@?$AAa?$AAz?$AA?9?$AAA?$AAZ?$AA?9?$AAC?$AAy?$AAr?$AAl@ 000000018002c718     libucrt:lcidtoname_downlevel.obj
 0002:00006730       ??_C@_1M@KEJDAAHB@?$AAs?$AAe?$AA?9?$AAS?$AAE@ 000000018002c730     libucrt:lcidtoname_downlevel.obj
 0002:00006740       ??_C@_1M@HEIBJJAD@?$AAm?$AAs?$AA?9?$AAB?$AAN@ 000000018002c740     libucrt:lcidtoname_downlevel.obj
 0002:00006750       ??_C@_1BG@PBGJMCEM@?$AAu?$AAz?$AA?9?$AAU?$AAZ?$AA?9?$AAC?$AAy?$AAr?$AAl@ 000000018002c750     libucrt:lcidtoname_downlevel.obj
 0002:00006768       ??_C@_1O@LAOBCMDF@?$AAq?$AAu?$AAz?$AA?9?$AAE?$AAC@ 000000018002c768     libucrt:lcidtoname_downlevel.obj
 0002:00006778       ??_C@_1M@POEEMAIO@?$AAa?$AAr?$AA?9?$AAE?$AAG@ 000000018002c778     libucrt:lcidtoname_downlevel.obj
 0002:00006788       ??_C@_1M@EFAKDEDL@?$AAz?$AAh?$AA?9?$AAH?$AAK@ 000000018002c788     libucrt:lcidtoname_downlevel.obj
 0002:00006798       ??_C@_1M@HKKIJHGI@?$AAd?$AAe?$AA?9?$AAA?$AAT@ 000000018002c798     libucrt:lcidtoname_downlevel.obj
 0002:000067a8       ??_C@_1M@KBFBEHJF@?$AAe?$AAn?$AA?9?$AAA?$AAU@ 000000018002c7a8     libucrt:lcidtoname_downlevel.obj
 0002:000067b8       ??_C@_1M@MNPLFAAH@?$AAe?$AAs?$AA?9?$AAE?$AAS@ 000000018002c7b8     libucrt:lcidtoname_downlevel.obj
 0002:000067c8       ??_C@_1M@HJOOJFMA@?$AAf?$AAr?$AA?9?$AAC?$AAA@ 000000018002c7c8     libucrt:lcidtoname_downlevel.obj
 0002:000067d8       ??_C@_1BG@JPOFPNAB@?$AAs?$AAr?$AA?9?$AAS?$AAP?$AA?9?$AAC?$AAy?$AAr?$AAl@ 000000018002c7d8     libucrt:lcidtoname_downlevel.obj
 0002:000067f0       ??_C@_1M@LNFOCMOB@?$AAs?$AAe?$AA?9?$AAF?$AAI@ 000000018002c7f0     libucrt:lcidtoname_downlevel.obj
 0002:00006800       ??_C@_1O@MGJBOAMB@?$AAq?$AAu?$AAz?$AA?9?$AAP?$AAE@ 000000018002c800     libucrt:lcidtoname_downlevel.obj
 0002:00006810       ??_C@_1M@GJINLBOK@?$AAa?$AAr?$AA?9?$AAL?$AAY@ 000000018002c810     libucrt:lcidtoname_downlevel.obj
 0002:00006820       ??_C@_1M@GGMNHJNL@?$AAz?$AAh?$AA?9?$AAS?$AAG@ 000000018002c820     libucrt:lcidtoname_downlevel.obj
 0002:00006830       ??_C@_1M@HOIKODND@?$AAd?$AAe?$AA?9?$AAL?$AAU@ 000000018002c830     libucrt:lcidtoname_downlevel.obj
 0002:00006840       ??_C@_1M@DDOCCGFG@?$AAe?$AAn?$AA?9?$AAC?$AAA@ 000000018002c840     libucrt:lcidtoname_downlevel.obj
 0002:00006850       ??_C@_1M@BNOEMJLF@?$AAe?$AAs?$AA?9?$AAG?$AAT@ 000000018002c850     libucrt:lcidtoname_downlevel.obj
 0002:00006860       ??_C@_1M@EOGNKEK@?$AAf?$AAr?$AA?9?$AAC?$AAH@ 000000018002c860     libucrt:lcidtoname_downlevel.obj
 0002:00006870       ??_C@_1M@FLIDJFHL@?$AAh?$AAr?$AA?9?$AAB?$AAA@ 000000018002c870     libucrt:lcidtoname_downlevel.obj
 0002:00006880       ??_C@_1O@FMCELNAJ@?$AAs?$AAm?$AAj?$AA?9?$AAN?$AAO@ 000000018002c880     libucrt:lcidtoname_downlevel.obj
 0002:00006890       ??_C@_1M@JHGLJMGJ@?$AAa?$AAr?$AA?9?$AAD?$AAZ@ 000000018002c890     libucrt:lcidtoname_downlevel.obj
 0002:000068a0       ??_C@_1M@JKKFDCNP@?$AAz?$AAh?$AA?9?$AAM?$AAO@ 000000018002c8a0     libucrt:lcidtoname_downlevel.obj
 0002:000068b0       ??_C@_1M@GEEFALPE@?$AAd?$AAe?$AA?9?$AAL?$AAI@ 000000018002c8b0     libucrt:lcidtoname_downlevel.obj
 0002:000068c0       ??_C@_1M@IGEOFBG@?$AAe?$AAn?$AA?9?$AAN?$AAZ@ 000000018002c8c0     libucrt:lcidtoname_downlevel.obj
 0002:000068d0       ??_C@_1M@KDBONEHP@?$AAe?$AAs?$AA?9?$AAC?$AAR@ 000000018002c8d0     libucrt:lcidtoname_downlevel.obj
 0002:000068e0       ??_C@_1M@FHMDOHNN@?$AAf?$AAr?$AA?9?$AAL?$AAU@ 000000018002c8e0     libucrt:lcidtoname_downlevel.obj
 0002:000068f0       ??_C@_1BG@NFKKMAFG@?$AAb?$AAs?$AA?9?$AAB?$AAA?$AA?9?$AAL?$AAa?$AAt?$AAn@ 000000018002c8f0     libucrt:lcidtoname_downlevel.obj
 0002:00006908       ??_C@_1O@IMNBEMCI@?$AAs?$AAm?$AAj?$AA?9?$AAS?$AAE@ 000000018002c908     libucrt:lcidtoname_downlevel.obj
 0002:00006918       ??_C@_1M@DHHMBNDP@?$AAa?$AAr?$AA?9?$AAM?$AAA@ 000000018002c918     libucrt:lcidtoname_downlevel.obj
 0002:00006928       ??_C@_1M@BNBLJCGH@?$AAe?$AAn?$AA?9?$AAI?$AAE@ 000000018002c928     libucrt:lcidtoname_downlevel.obj
 0002:00006938       ??_C@_1M@GEPAFMDL@?$AAe?$AAs?$AA?9?$AAP?$AAA@ 000000018002c938     libucrt:lcidtoname_downlevel.obj
 0002:00006948       ??_C@_1M@OJONDMDL@?$AAf?$AAr?$AA?9?$AAM?$AAC@ 000000018002c948     libucrt:lcidtoname_downlevel.obj
 0002:00006958       ??_C@_1BG@OBCNFJB@?$AAs?$AAr?$AA?9?$AAB?$AAA?$AA?9?$AAL?$AAa?$AAt?$AAn@ 000000018002c958     libucrt:lcidtoname_downlevel.obj
 0002:00006970       ??_C@_1O@KEMEEGPO@?$AAs?$AAm?$AAa?$AA?9?$AAN?$AAO@ 000000018002c970     libucrt:lcidtoname_downlevel.obj
 0002:00006980       ??_C@_1M@ELMGFODK@?$AAa?$AAr?$AA?9?$AAT?$AAN@ 000000018002c980     libucrt:lcidtoname_downlevel.obj
 0002:00006990       ??_C@_1M@BHDLHFAF@?$AAe?$AAn?$AA?9?$AAZ?$AAA@ 000000018002c990     libucrt:lcidtoname_downlevel.obj
 0002:000069a0       ??_C@_1M@BMGIGLIF@?$AAe?$AAs?$AA?9?$AAD?$AAO@ 000000018002c9a0     libucrt:lcidtoname_downlevel.obj
 0002:000069b0       ??_C@_1BG@CMBHIPBE@?$AAs?$AAr?$AA?9?$AAB?$AAA?$AA?9?$AAC?$AAy?$AAr?$AAl@ 000000018002c9b0     libucrt:lcidtoname_downlevel.obj
 0002:000069c8       ??_C@_1O@HEDBLHNP@?$AAs?$AAm?$AAa?$AA?9?$AAS?$AAE@ 000000018002c9c8     libucrt:lcidtoname_downlevel.obj
 0002:000069d8       ??_C@_1M@DAGCADIM@?$AAa?$AAr?$AA?9?$AAO?$AAM@ 000000018002c9d8     libucrt:lcidtoname_downlevel.obj
 0002:000069e8       ??_C@_1M@FODLMICG@?$AAe?$AAn?$AA?9?$AAJ?$AAM@ 000000018002c9e8     libucrt:lcidtoname_downlevel.obj
 0002:000069f8       ??_C@_1M@DNMLCIHB@?$AAe?$AAs?$AA?9?$AAV?$AAE@ 000000018002c9f8     libucrt:lcidtoname_downlevel.obj
 0002:00006a08       ??_C@_1O@EOKHMKJK@?$AAs?$AAm?$AAs?$AA?9?$AAF?$AAI@ 000000018002ca08     libucrt:lcidtoname_downlevel.obj
 0002:00006a18       ??_C@_1M@CAFJMKOF@?$AAa?$AAr?$AA?9?$AAY?$AAE@ 000000018002ca18     libucrt:lcidtoname_downlevel.obj
 0002:00006a28       ??_C@_1M@CBFHIJLI@?$AAe?$AAn?$AA?9?$AAC?$AAB@ 000000018002ca28     libucrt:lcidtoname_downlevel.obj
 0002:00006a38       ??_C@_1M@BGNFLDN@?$AAe?$AAs?$AA?9?$AAC?$AAO@ 000000018002ca38     libucrt:lcidtoname_downlevel.obj
 0002:00006a48       ??_C@_1O@JMPHMAMC@?$AAs?$AAm?$AAn?$AA?9?$AAF?$AAI@ 000000018002ca48     libucrt:lcidtoname_downlevel.obj
 0002:00006a58       ??_C@_1M@JLANABKE@?$AAa?$AAr?$AA?9?$AAS?$AAY@ 000000018002ca58     libucrt:lcidtoname_downlevel.obj
 0002:00006a68       ??_C@_1M@HPKGCFGN@?$AAe?$AAn?$AA?9?$AAB?$AAZ@ 000000018002ca68     libucrt:lcidtoname_downlevel.obj
 0002:00006a78       ??_C@_1M@OLJCMLGM@?$AAe?$AAs?$AA?9?$AAP?$AAE@ 000000018002ca78     libucrt:lcidtoname_downlevel.obj
 0002:00006a88       ??_C@_1M@MKKGFKLE@?$AAa?$AAr?$AA?9?$AAJ?$AAO@ 000000018002ca88     libucrt:lcidtoname_downlevel.obj
 0002:00006a98       ??_C@_1M@EKPGLDNI@?$AAe?$AAn?$AA?9?$AAT?$AAT@ 000000018002ca98     libucrt:lcidtoname_downlevel.obj
 0002:00006aa8       ??_C@_1M@OONGHFHE@?$AAe?$AAs?$AA?9?$AAA?$AAR@ 000000018002caa8     libucrt:lcidtoname_downlevel.obj
 0002:00006ab8       ??_C@_1M@OOJFGBHE@?$AAa?$AAr?$AA?9?$AAL?$AAB@ 000000018002cab8     libucrt:lcidtoname_downlevel.obj
 0002:00006ac8       ??_C@_1M@GCEJHNEG@?$AAe?$AAn?$AA?9?$AAZ?$AAW@ 000000018002cac8     libucrt:lcidtoname_downlevel.obj
 0002:00006ad8       ??_C@_1M@JNOCAHJI@?$AAe?$AAs?$AA?9?$AAE?$AAC@ 000000018002cad8     libucrt:lcidtoname_downlevel.obj
 0002:00006ae8       ??_C@_1M@JEFHPGGB@?$AAa?$AAr?$AA?9?$AAK?$AAW@ 000000018002cae8     libucrt:lcidtoname_downlevel.obj
 0002:00006af8       ??_C@_1M@MLKIBJOJ@?$AAe?$AAn?$AA?9?$AAP?$AAH@ 000000018002caf8     libucrt:lcidtoname_downlevel.obj
 0002:00006b08       ??_C@_1M@BDNIPEND@?$AAe?$AAs?$AA?9?$AAC?$AAL@ 000000018002cb08     libucrt:lcidtoname_downlevel.obj
 0002:00006b18       ??_C@_1M@MPNMEKBD@?$AAa?$AAr?$AA?9?$AAA?$AAE@ 000000018002cb18     libucrt:lcidtoname_downlevel.obj
 0002:00006b28       ??_C@_1M@KBJALCPI@?$AAe?$AAs?$AA?9?$AAU?$AAY@ 000000018002cb28     libucrt:lcidtoname_downlevel.obj
 0002:00006b38       ??_C@_1M@LLCCOAGA@?$AAa?$AAr?$AA?9?$AAB?$AAH@ 000000018002cb38     libucrt:lcidtoname_downlevel.obj
 0002:00006b48       ??_C@_1M@PBFNCDEL@?$AAe?$AAs?$AA?9?$AAP?$AAY@ 000000018002cb48     libucrt:lcidtoname_downlevel.obj
 0002:00006b58       ??_C@_1M@EDGINPNP@?$AAa?$AAr?$AA?9?$AAQ?$AAA@ 000000018002cb58     libucrt:lcidtoname_downlevel.obj
 0002:00006b68       ??_C@_1M@MKDBIIJI@?$AAe?$AAs?$AA?9?$AAB?$AAO@ 000000018002cb68     libucrt:lcidtoname_downlevel.obj
 0002:00006b78       ??_C@_1M@CPKKEBLD@?$AAe?$AAs?$AA?9?$AAS?$AAV@ 000000018002cb78     libucrt:lcidtoname_downlevel.obj
 0002:00006b88       ??_C@_1M@NDBGMMJL@?$AAe?$AAs?$AA?9?$AAH?$AAN@ 000000018002cb88     libucrt:lcidtoname_downlevel.obj
 0002:00006b98       ??_C@_1M@JIJIBHDP@?$AAe?$AAs?$AA?9?$AAN?$AAI@ 000000018002cb98     libucrt:lcidtoname_downlevel.obj
 0002:00006ba8       ??_C@_1M@CGFMKEEK@?$AAe?$AAs?$AA?9?$AAP?$AAR@ 000000018002cba8     libucrt:lcidtoname_downlevel.obj
 0002:00006bb8       ??_C@_1O@ICJHKIIK@?$AAz?$AAh?$AA?9?$AAC?$AAH?$AAT@ 000000018002cbb8     libucrt:lcidtoname_downlevel.obj
 0002:00006bc8       ??_C@_15CLNEJCE@?$AAs?$AAr@ 000000018002cbc8     libucrt:lcidtoname_downlevel.obj
 0002:00007a10       ??_C@_1M@KAHEKEIG@?$AAa?$AAf?$AA?9?$AAz?$AAa@ 000000018002da10     libucrt:lcidtoname_downlevel.obj
 0002:00007a20       ??_C@_1M@GIECOABL@?$AAa?$AAr?$AA?9?$AAa?$AAe@ 000000018002da20     libucrt:lcidtoname_downlevel.obj
 0002:00007a30       ??_C@_1M@BMLMEKGI@?$AAa?$AAr?$AA?9?$AAb?$AAh@ 000000018002da30     libucrt:lcidtoname_downlevel.obj
 0002:00007a40       ??_C@_1M@DAPFDGGB@?$AAa?$AAr?$AA?9?$AAd?$AAz@ 000000018002da40     libucrt:lcidtoname_downlevel.obj
 0002:00007a50       ??_C@_1M@FJNKGKIG@?$AAa?$AAr?$AA?9?$AAe?$AAg@ 000000018002da50     libucrt:lcidtoname_downlevel.obj
 0002:00007a60       ??_C@_1M@FLGKKCLO@?$AAa?$AAr?$AA?9?$AAi?$AAq@ 000000018002da60     libucrt:lcidtoname_downlevel.obj
 0002:00007a70       ??_C@_1M@GNDIPALM@?$AAa?$AAr?$AA?9?$AAj?$AAo@ 000000018002da70     libucrt:lcidtoname_downlevel.obj
 0002:00007a80       ??_C@_1M@DDMJFMGJ@?$AAa?$AAr?$AA?9?$AAk?$AAw@ 000000018002da80     libucrt:lcidtoname_downlevel.obj
 0002:00007a90       ??_C@_1M@EJALMLHM@?$AAa?$AAr?$AA?9?$AAl?$AAb@ 000000018002da90     libucrt:lcidtoname_downlevel.obj
 0002:00007aa0       ??_C@_1M@MOBDBLOC@?$AAa?$AAr?$AA?9?$AAl?$AAy@ 000000018002daa0     libucrt:lcidtoname_downlevel.obj
 0002:00007ab0       ??_C@_1M@JAOCLHDH@?$AAa?$AAr?$AA?9?$AAm?$AAa@ 000000018002dab0     libucrt:lcidtoname_downlevel.obj
 0002:00007ac0       ??_C@_1M@JHPMKJIE@?$AAa?$AAr?$AA?9?$AAo?$AAm@ 000000018002dac0     libucrt:lcidtoname_downlevel.obj
 0002:00007ad0       ??_C@_1M@OEPGHFNH@?$AAa?$AAr?$AA?9?$AAq?$AAa@ 000000018002dad0     libucrt:lcidtoname_downlevel.obj
 0002:00007ae0       ??_C@_1M@KJDONENM@?$AAa?$AAr?$AA?9?$AAs?$AAa@ 000000018002dae0     libucrt:lcidtoname_downlevel.obj
 0002:00007af0       ??_C@_1M@DMJDKLKM@?$AAa?$AAr?$AA?9?$AAs?$AAy@ 000000018002daf0     libucrt:lcidtoname_downlevel.obj
 0002:00007b00       ??_C@_1M@OMFIPEDC@?$AAa?$AAr?$AA?9?$AAt?$AAn@ 000000018002db00     libucrt:lcidtoname_downlevel.obj
 0002:00007b10       ??_C@_1M@IHMHGAON@?$AAa?$AAr?$AA?9?$AAy?$AAe@ 000000018002db10     libucrt:lcidtoname_downlevel.obj
 0002:00007b20       ??_C@_1BG@KDCPGJGB@?$AAa?$AAz?$AA?9?$AAa?$AAz?$AA?9?$AAc?$AAy?$AAr?$AAl@ 000000018002db20     libucrt:lcidtoname_downlevel.obj
 0002:00007b38       ??_C@_1BG@IBCKDDOE@?$AAa?$AAz?$AA?9?$AAa?$AAz?$AA?9?$AAl?$AAa?$AAt?$AAn@ 000000018002db38     libucrt:lcidtoname_downlevel.obj
 0002:00007b50       ??_C@_1M@EGPFDCPD@?$AAb?$AAe?$AA?9?$AAb?$AAy@ 000000018002db50     libucrt:lcidtoname_downlevel.obj
 0002:00007b60       ??_C@_1M@PCMGMCGC@?$AAb?$AAg?$AA?9?$AAb?$AAg@ 000000018002db60     libucrt:lcidtoname_downlevel.obj
 0002:00007b70       ??_C@_1M@BJBMFGOB@?$AAb?$AAn?$AA?9?$AAi?$AAn@ 000000018002db70     libucrt:lcidtoname_downlevel.obj
 0002:00007b80       ??_C@_1BG@EAKMMACD@?$AAb?$AAs?$AA?9?$AAb?$AAa?$AA?9?$AAl?$AAa?$AAt?$AAn@ 000000018002db80     libucrt:lcidtoname_downlevel.obj
 0002:00007b98       ??_C@_1M@KGADAODK@?$AAc?$AAa?$AA?9?$AAe?$AAs@ 000000018002db98     libucrt:lcidtoname_downlevel.obj
 0002:00007ba8       ??_C@_1M@COAJPDHI@?$AAc?$AAs?$AA?9?$AAc?$AAz@ 000000018002dba8     libucrt:lcidtoname_downlevel.obj
 0002:00007bb8       ??_C@_1M@DHBHFONH@?$AAc?$AAy?$AA?9?$AAg?$AAb@ 000000018002dbb8     libucrt:lcidtoname_downlevel.obj
 0002:00007bc8       ??_C@_1M@IMGKELGA@?$AAd?$AAa?$AA?9?$AAd?$AAk@ 000000018002dbc8     libucrt:lcidtoname_downlevel.obj
 0002:00007bd8       ??_C@_1M@NNDGDNGA@?$AAd?$AAe?$AA?9?$AAa?$AAt@ 000000018002dbd8     libucrt:lcidtoname_downlevel.obj
 0002:00007be8       ??_C@_1M@IKDBHEEM@?$AAd?$AAe?$AA?9?$AAc?$AAh@ 000000018002dbe8     libucrt:lcidtoname_downlevel.obj
 0002:00007bf8       ??_C@_1M@GFFOJMCJ@?$AAd?$AAe?$AA?9?$AAd?$AAe@ 000000018002dbf8     libucrt:lcidtoname_downlevel.obj
 0002:00007c08       ??_C@_1M@MDNLKBPM@?$AAd?$AAe?$AA?9?$AAl?$AAi@ 000000018002dc08     libucrt:lcidtoname_downlevel.obj
 0002:00007c18       ??_C@_1M@NJBEEJNL@?$AAd?$AAe?$AA?9?$AAl?$AAu@ 000000018002dc18     libucrt:lcidtoname_downlevel.obj
 0002:00007c28       ??_C@_1O@GNNELBAP@?$AAd?$AAi?$AAv?$AA?9?$AAm?$AAv@ 000000018002dc28     libucrt:lcidtoname_downlevel.obj
 0002:00007c38       ??_C@_1M@EJLEOGAE@?$AAe?$AAl?$AA?9?$AAg?$AAr@ 000000018002dc38     libucrt:lcidtoname_downlevel.obj
 0002:00007c48       ??_C@_1M@GMPONJN@?$AAe?$AAn?$AA?9?$AAa?$AAu@ 000000018002dc48     libucrt:lcidtoname_downlevel.obj
 0002:00007c58       ??_C@_1M@NIDIIPGF@?$AAe?$AAn?$AA?9?$AAb?$AAz@ 000000018002dc58     libucrt:lcidtoname_downlevel.obj
 0002:00007c68       ??_C@_1M@JEHMIMFO@?$AAe?$AAn?$AA?9?$AAc?$AAa@ 000000018002dc68     libucrt:lcidtoname_downlevel.obj
 0002:00007c78       ??_C@_1M@IGMJCDLA@?$AAe?$AAn?$AA?9?$AAc?$AAb@ 000000018002dc78     libucrt:lcidtoname_downlevel.obj
 0002:00007c88       ??_C@_1M@BNFIGBKG@?$AAe?$AAn?$AA?9?$AAg?$AAb@ 000000018002dc88     libucrt:lcidtoname_downlevel.obj
 0002:00007c98       ??_C@_1M@LKIFDIGP@?$AAe?$AAn?$AA?9?$AAi?$AAe@ 000000018002dc98     libucrt:lcidtoname_downlevel.obj
 0002:00007ca8       ??_C@_1M@PJKFGCCO@?$AAe?$AAn?$AA?9?$AAj?$AAm@ 000000018002dca8     libucrt:lcidtoname_downlevel.obj
 0002:00007cb8       ??_C@_1M@KPPKEPBO@?$AAe?$AAn?$AA?9?$AAn?$AAz@ 000000018002dcb8     libucrt:lcidtoname_downlevel.obj
 0002:00007cc8       ??_C@_1M@GMDGLDOB@?$AAe?$AAn?$AA?9?$AAp?$AAh@ 000000018002dcc8     libucrt:lcidtoname_downlevel.obj
 0002:00007cd8       ??_C@_1M@ONGIBJNA@?$AAe?$AAn?$AA?9?$AAt?$AAt@ 000000018002dcd8     libucrt:lcidtoname_downlevel.obj
 0002:00007ce8       ??_C@_1M@LLODPCMM@?$AAe?$AAn?$AA?9?$AAu?$AAs@ 000000018002dce8     libucrt:lcidtoname_downlevel.obj
 0002:00007cf8       ??_C@_1M@LAKFNPAN@?$AAe?$AAn?$AA?9?$AAz?$AAa@ 000000018002dcf8     libucrt:lcidtoname_downlevel.obj
 0002:00007d08       ??_C@_1M@MFNHNHEO@?$AAe?$AAn?$AA?9?$AAz?$AAw@ 000000018002dd08     libucrt:lcidtoname_downlevel.obj
 0002:00007d18       ??_C@_1M@EJEINPHM@?$AAe?$AAs?$AA?9?$AAa?$AAr@ 000000018002dd18     libucrt:lcidtoname_downlevel.obj
 0002:00007d28       ??_C@_1M@GNKPCCJA@?$AAe?$AAs?$AA?9?$AAb?$AAo@ 000000018002dd28     libucrt:lcidtoname_downlevel.obj
 0002:00007d38       ??_C@_1M@LEEGFONL@?$AAe?$AAs?$AA?9?$AAc?$AAl@ 000000018002dd38     libucrt:lcidtoname_downlevel.obj
 0002:00007d48       ??_C@_1M@KGPDPBDF@?$AAe?$AAs?$AA?9?$AAc?$AAo@ 000000018002dd48     libucrt:lcidtoname_downlevel.obj
 0002:00007d58       ??_C@_1M@EIAHOHH@?$AAe?$AAs?$AA?9?$AAc?$AAr@ 000000018002dd58     libucrt:lcidtoname_downlevel.obj
 0002:00007d68       ??_C@_1M@LLPGMBIN@?$AAe?$AAs?$AA?9?$AAd?$AAo@ 000000018002dd68     libucrt:lcidtoname_downlevel.obj
 0002:00007d78       ??_C@_1M@DKHMKNJA@?$AAe?$AAs?$AA?9?$AAe?$AAc@ 000000018002dd78     libucrt:lcidtoname_downlevel.obj
 0002:00007d88       ??_C@_1M@GKGFPKAP@?$AAe?$AAs?$AA?9?$AAe?$AAs@ 000000018002dd88     libucrt:lcidtoname_downlevel.obj
 0002:00007d98       ??_C@_1M@LKHKGDLN@?$AAe?$AAs?$AA?9?$AAg?$AAt@ 000000018002dd98     libucrt:lcidtoname_downlevel.obj
 0002:00007da8       ??_C@_1M@HEIIGGJD@?$AAe?$AAs?$AA?9?$AAh?$AAn@ 000000018002dda8     libucrt:lcidtoname_downlevel.obj
 0002:00007db8       ??_C@_1M@FBDHPPGD@?$AAe?$AAs?$AA?9?$AAm?$AAx@ 000000018002ddb8     libucrt:lcidtoname_downlevel.obj
 0002:00007dc8       ??_C@_1M@DPAGLNDH@?$AAe?$AAs?$AA?9?$AAn?$AAi@ 000000018002ddc8     libucrt:lcidtoname_downlevel.obj
 0002:00007dd8       ??_C@_1M@MDGOPGDD@?$AAe?$AAs?$AA?9?$AAp?$AAa@ 000000018002ddd8     libucrt:lcidtoname_downlevel.obj
 0002:00007de8       ??_C@_1M@EMAMGBGE@?$AAe?$AAs?$AA?9?$AAp?$AAe@ 000000018002dde8     libucrt:lcidtoname_downlevel.obj
 0002:00007df8       ??_C@_1M@IBMCAOEC@?$AAe?$AAs?$AA?9?$AAp?$AAr@ 000000018002ddf8     libucrt:lcidtoname_downlevel.obj
 0002:00007e08       ??_C@_1M@FGMDIJED@?$AAe?$AAs?$AA?9?$AAp?$AAy@ 000000018002de08     libucrt:lcidtoname_downlevel.obj
 0002:00007e18       ??_C@_1M@IIDEOLLL@?$AAe?$AAs?$AA?9?$AAs?$AAv@ 000000018002de18     libucrt:lcidtoname_downlevel.obj
 0002:00007e28       ??_C@_1M@GAOBIPA@?$AAe?$AAs?$AA?9?$AAu?$AAy@ 000000018002de28     libucrt:lcidtoname_downlevel.obj
 0002:00007e38       ??_C@_1M@JKFFICHJ@?$AAe?$AAs?$AA?9?$AAv?$AAe@ 000000018002de38     libucrt:lcidtoname_downlevel.obj
 0002:00007e48       ??_C@_1M@PNMLOJDF@?$AAe?$AAt?$AA?9?$AAe?$AAe@ 000000018002de48     libucrt:lcidtoname_downlevel.obj
 0002:00007e58       ??_C@_1M@GHHLIKEI@?$AAe?$AAu?$AA?9?$AAe?$AAs@ 000000018002de58     libucrt:lcidtoname_downlevel.obj
 0002:00007e68       ??_C@_1M@PBNONODE@?$AAf?$AAa?$AA?9?$AAi?$AAr@ 000000018002de68     libucrt:lcidtoname_downlevel.obj
 0002:00007e78       ??_C@_1M@JEEHPMIL@?$AAf?$AAi?$AA?9?$AAf?$AAi@ 000000018002de78     libucrt:lcidtoname_downlevel.obj
 0002:00007e88       ??_C@_1M@LMDCNDBA@?$AAf?$AAo?$AA?9?$AAf?$AAo@ 000000018002de88     libucrt:lcidtoname_downlevel.obj
 0002:00007e98       ??_C@_1M@JKEOHLDK@?$AAf?$AAr?$AA?9?$AAb?$AAe@ 000000018002de98     libucrt:lcidtoname_downlevel.obj
 0002:00007ea8       ??_C@_1M@NOHADPMI@?$AAf?$AAr?$AA?9?$AAc?$AAa@ 000000018002dea8     libucrt:lcidtoname_downlevel.obj
 0002:00007eb8       ??_C@_1M@KDHIHAEC@?$AAf?$AAr?$AA?9?$AAc?$AAh@ 000000018002deb8     libucrt:lcidtoname_downlevel.obj
 0002:00007ec8       ??_C@_1M@MMBBFGAK@?$AAf?$AAr?$AA?9?$AAf?$AAr@ 000000018002dec8     libucrt:lcidtoname_downlevel.obj
 0002:00007ed8       ??_C@_1M@PAFNENNF@?$AAf?$AAr?$AA?9?$AAl?$AAu@ 000000018002ded8     libucrt:lcidtoname_downlevel.obj
 0002:00007ee8       ??_C@_1M@EOHDJGDD@?$AAf?$AAr?$AA?9?$AAm?$AAc@ 000000018002dee8     libucrt:lcidtoname_downlevel.obj
 0002:00007ef8       ??_C@_1M@FAPLLOPF@?$AAg?$AAl?$AA?9?$AAe?$AAs@ 000000018002def8     libucrt:lcidtoname_downlevel.obj
 0002:00007f08       ??_C@_1M@FOPBFLOO@?$AAg?$AAu?$AA?9?$AAi?$AAn@ 000000018002df08     libucrt:lcidtoname_downlevel.obj
 0002:00007f18       ??_C@_1M@KBMCINPM@?$AAh?$AAe?$AA?9?$AAi?$AAl@ 000000018002df18     libucrt:lcidtoname_downlevel.obj
 0002:00007f28       ??_C@_1M@BBPHKFPJ@?$AAh?$AAi?$AA?9?$AAi?$AAn@ 000000018002df28     libucrt:lcidtoname_downlevel.obj
 0002:00007f38       ??_C@_1M@PMBNDPHD@?$AAh?$AAr?$AA?9?$AAb?$AAa@ 000000018002df38     libucrt:lcidtoname_downlevel.obj
 0002:00007f48       ??_C@_1M@BPCKOEGE@?$AAh?$AAr?$AA?9?$AAh?$AAr@ 000000018002df48     libucrt:lcidtoname_downlevel.obj
 0002:00007f58       ??_C@_1M@GACBMHKE@?$AAh?$AAu?$AA?9?$AAh?$AAu@ 000000018002df58     libucrt:lcidtoname_downlevel.obj
 0002:00007f68       ??_C@_1M@MILPAJJC@?$AAh?$AAy?$AA?9?$AAa?$AAm@ 000000018002df68     libucrt:lcidtoname_downlevel.obj
 0002:00007f78       ??_C@_1M@BABBICEC@?$AAi?$AAd?$AA?9?$AAi?$AAd@ 000000018002df78     libucrt:lcidtoname_downlevel.obj
 0002:00007f88       ??_C@_1M@BIKNHHPF@?$AAi?$AAs?$AA?9?$AAi?$AAs@ 000000018002df88     libucrt:lcidtoname_downlevel.obj
 0002:00007f98       ??_C@_1M@NMPCJPHE@?$AAi?$AAt?$AA?9?$AAc?$AAh@ 000000018002df98     libucrt:lcidtoname_downlevel.obj
 0002:00007fa8       ??_C@_1M@GHKGFEDF@?$AAi?$AAt?$AA?9?$AAi?$AAt@ 000000018002dfa8     libucrt:lcidtoname_downlevel.obj
 0002:00007fb8       ??_C@_1M@NIEJCJJA@?$AAj?$AAa?$AA?9?$AAj?$AAp@ 000000018002dfb8     libucrt:lcidtoname_downlevel.obj
 0002:00007fc8       ??_C@_1M@JILFNBIM@?$AAk?$AAa?$AA?9?$AAg?$AAe@ 000000018002dfc8     libucrt:lcidtoname_downlevel.obj
 0002:00007fd8       ??_C@_1M@PACPMGPH@?$AAk?$AAk?$AA?9?$AAk?$AAz@ 000000018002dfd8     libucrt:lcidtoname_downlevel.obj
 0002:00007fe8       ??_C@_1M@IELFGMHA@?$AAk?$AAn?$AA?9?$AAi?$AAn@ 000000018002dfe8     libucrt:lcidtoname_downlevel.obj
 0002:00007ff8       ??_C@_1O@IBBJHCH@?$AAk?$AAo?$AAk?$AA?9?$AAi?$AAn@ 000000018002dff8     libucrt:lcidtoname_downlevel.obj
 0002:00008008       ??_C@_1M@DMHAEOGC@?$AAk?$AAo?$AA?9?$AAk?$AAr@ 000000018002e008     libucrt:lcidtoname_downlevel.obj
 0002:00008018       ??_C@_1M@HBAHBIGA@?$AAk?$AAy?$AA?9?$AAk?$AAg@ 000000018002e018     libucrt:lcidtoname_downlevel.obj
 0002:00008028       ??_C@_1M@KPMILCJG@?$AAl?$AAt?$AA?9?$AAl?$AAt@ 000000018002e028     libucrt:lcidtoname_downlevel.obj
 0002:00008038       ??_C@_1M@BDEKKCA@?$AAl?$AAv?$AA?9?$AAl?$AAv@ 000000018002e038     libucrt:lcidtoname_downlevel.obj
 0002:00008048       ??_C@_1M@ELCKCCJJ@?$AAm?$AAi?$AA?9?$AAn?$AAz@ 000000018002e048     libucrt:lcidtoname_downlevel.obj
 0002:00008058       ??_C@_1M@CBOOLAPA@?$AAm?$AAk?$AA?9?$AAm?$AAk@ 000000018002e058     libucrt:lcidtoname_downlevel.obj
 0002:00008068       ??_C@_1M@GPHNBJKN@?$AAm?$AAl?$AA?9?$AAi?$AAn@ 000000018002e068     libucrt:lcidtoname_downlevel.obj
 0002:00008078       ??_C@_1M@PABJILIG@?$AAm?$AAn?$AA?9?$AAm?$AAn@ 000000018002e078     libucrt:lcidtoname_downlevel.obj
 0002:00008088       ??_C@_1M@FGBKKIPG@?$AAm?$AAr?$AA?9?$AAi?$AAn@ 000000018002e088     libucrt:lcidtoname_downlevel.obj
 0002:00008098       ??_C@_1M@NDBPDDAL@?$AAm?$AAs?$AA?9?$AAb?$AAn@ 000000018002e098     libucrt:lcidtoname_downlevel.obj
 0002:000080a8       ??_C@_1M@OPIHOOPI@?$AAm?$AAs?$AA?9?$AAm?$AAy@ 000000018002e0a8     libucrt:lcidtoname_downlevel.obj
 0002:000080b8       ??_C@_1M@PPDBCNFM@?$AAm?$AAt?$AA?9?$AAm?$AAt@ 000000018002e0b8     libucrt:lcidtoname_downlevel.obj
 0002:000080c8       ??_C@_1M@KDJDKMDD@?$AAn?$AAb?$AA?9?$AAn?$AAo@ 000000018002e0c8     libucrt:lcidtoname_downlevel.obj
 0002:000080d8       ??_C@_1M@KFCFLMJP@?$AAn?$AAl?$AA?9?$AAb?$AAe@ 000000018002e0d8     libucrt:lcidtoname_downlevel.obj
 0002:000080e8       ??_C@_1M@KPOPDDGO@?$AAn?$AAl?$AA?9?$AAn?$AAl@ 000000018002e0e8     libucrt:lcidtoname_downlevel.obj
 0002:000080f8       ??_C@_1M@LJKPEMLN@?$AAn?$AAn?$AA?9?$AAn?$AAo@ 000000018002e0f8     libucrt:lcidtoname_downlevel.obj
 0002:00008108       ??_C@_1M@BDGHHBFL@?$AAn?$AAs?$AA?9?$AAz?$AAa@ 000000018002e108     libucrt:lcidtoname_downlevel.obj
 0002:00008118       ??_C@_1M@IDEHOAP@?$AAp?$AAa?$AA?9?$AAi?$AAn@ 000000018002e118     libucrt:lcidtoname_downlevel.obj
 0002:00008128       ??_C@_1M@HDBKGOGH@?$AAp?$AAl?$AA?9?$AAp?$AAl@ 000000018002e128     libucrt:lcidtoname_downlevel.obj
 0002:00008138       ??_C@_1M@LJLLCMEH@?$AAp?$AAt?$AA?9?$AAb?$AAr@ 000000018002e138     libucrt:lcidtoname_downlevel.obj
 0002:00008148       ??_C@_1M@NCMONAAL@?$AAp?$AAt?$AA?9?$AAp?$AAt@ 000000018002e148     libucrt:lcidtoname_downlevel.obj
 0002:00008158       ??_C@_1O@EAKMAJDN@?$AAq?$AAu?$AAz?$AA?9?$AAb?$AAo@ 000000018002e158     libucrt:lcidtoname_downlevel.obj
 0002:00008168       ??_C@_1O@BHHPIGDN@?$AAq?$AAu?$AAz?$AA?9?$AAe?$AAc@ 000000018002e168     libucrt:lcidtoname_downlevel.obj
 0002:00008178       ??_C@_1O@GBAPEKMJ@?$AAq?$AAu?$AAz?$AA?9?$AAp?$AAe@ 000000018002e178     libucrt:lcidtoname_downlevel.obj
 0002:00008188       ??_C@_1M@CLGLEFBO@?$AAr?$AAo?$AA?9?$AAr?$AAo@ 000000018002e188     libucrt:lcidtoname_downlevel.obj
 0002:00008198       ??_C@_1M@CEEDODME@?$AAr?$AAu?$AA?9?$AAr?$AAu@ 000000018002e198     libucrt:lcidtoname_downlevel.obj
 0002:000081a8       ??_C@_1M@HPKKKMPP@?$AAs?$AAa?$AA?9?$AAi?$AAn@ 000000018002e1a8     libucrt:lcidtoname_downlevel.obj
 0002:000081b8       ??_C@_1M@BKMAIGOJ@?$AAs?$AAe?$AA?9?$AAf?$AAi@ 000000018002e1b8     libucrt:lcidtoname_downlevel.obj
 0002:000081c8       ??_C@_1M@NDPIFLFI@?$AAs?$AAe?$AA?9?$AAn?$AAo@ 000000018002e1c8     libucrt:lcidtoname_downlevel.obj
 0002:000081d8       ??_C@_1M@DANKKHJ@?$AAs?$AAe?$AA?9?$AAs?$AAe@ 000000018002e1d8     libucrt:lcidtoname_downlevel.obj
 0002:000081e8       ??_C@_1M@PNBLONPJ@?$AAs?$AAk?$AA?9?$AAs?$AAk@ 000000018002e1e8     libucrt:lcidtoname_downlevel.obj
 0002:000081f8       ??_C@_1M@LFMODOAL@?$AAs?$AAl?$AA?9?$AAs?$AAi@ 000000018002e1f8     libucrt:lcidtoname_downlevel.obj
 0002:00008208       ??_C@_1O@DFKOMPG@?$AAs?$AAm?$AAa?$AA?9?$AAn?$AAo@ 000000018002e208     libucrt:lcidtoname_downlevel.obj
 0002:00008218       ??_C@_1O@NDKPBNNH@?$AAs?$AAm?$AAa?$AA?9?$AAs?$AAe@ 000000018002e218     libucrt:lcidtoname_downlevel.obj
 0002:00008228       ??_C@_1O@PLLKBHAB@?$AAs?$AAm?$AAj?$AA?9?$AAn?$AAo@ 000000018002e228     libucrt:lcidtoname_downlevel.obj
 0002:00008238       ??_C@_1O@CLEPOGCA@?$AAs?$AAm?$AAj?$AA?9?$AAs?$AAe@ 000000018002e238     libucrt:lcidtoname_downlevel.obj
 0002:00008248       ??_C@_1O@DLGJGKMK@?$AAs?$AAm?$AAn?$AA?9?$AAf?$AAi@ 000000018002e248     libucrt:lcidtoname_downlevel.obj
 0002:00008258       ??_C@_1O@OJDJGAJC@?$AAs?$AAm?$AAs?$AA?9?$AAf?$AAi@ 000000018002e258     libucrt:lcidtoname_downlevel.obj
 0002:00008268       ??_C@_1M@BOFOGHPB@?$AAs?$AAq?$AA?9?$AAa?$AAl@ 000000018002e268     libucrt:lcidtoname_downlevel.obj
 0002:00008278       ??_C@_1BG@LJBBIPGB@?$AAs?$AAr?$AA?9?$AAb?$AAa?$AA?9?$AAc?$AAy?$AAr?$AAl@ 000000018002e278     libucrt:lcidtoname_downlevel.obj
 0002:00008290       ??_C@_1BG@JLBENFOE@?$AAs?$AAr?$AA?9?$AAb?$AAa?$AA?9?$AAl?$AAa?$AAt?$AAn@ 000000018002e290     libucrt:lcidtoname_downlevel.obj
 0002:000082a8       ??_C@_1BG@KODPNHE@?$AAs?$AAr?$AA?9?$AAs?$AAp?$AA?9?$AAc?$AAy?$AAr?$AAl@ 000000018002e2a8     libucrt:lcidtoname_downlevel.obj
 0002:000082c0       ??_C@_1BG@CIOGKHPB@?$AAs?$AAr?$AA?9?$AAs?$AAp?$AA?9?$AAl?$AAa?$AAt?$AAn@ 000000018002e2c0     libucrt:lcidtoname_downlevel.obj
 0002:000082d8       ??_C@_1M@NGFJLMAC@?$AAs?$AAv?$AA?9?$AAf?$AAi@ 000000018002e2d8     libucrt:lcidtoname_downlevel.obj
 0002:000082e8       ??_C@_1M@MPJEJAJC@?$AAs?$AAv?$AA?9?$AAs?$AAe@ 000000018002e2e8     libucrt:lcidtoname_downlevel.obj
 0002:000082f8       ??_C@_1M@MPNDHLFK@?$AAs?$AAw?$AA?9?$AAk?$AAe@ 000000018002e2f8     libucrt:lcidtoname_downlevel.obj
 0002:00008308       ??_C@_1O@KOHBJJI@?$AAs?$AAy?$AAr?$AA?9?$AAs?$AAy@ 000000018002e308     libucrt:lcidtoname_downlevel.obj
 0002:00008318       ??_C@_1M@LDCEFHA@?$AAt?$AAa?$AA?9?$AAi?$AAn@ 000000018002e318     libucrt:lcidtoname_downlevel.obj
 0002:00008328       ??_C@_1M@CNJOFAK@?$AAt?$AAe?$AA?9?$AAi?$AAn@ 000000018002e328     libucrt:lcidtoname_downlevel.obj
 0002:00008338       ??_C@_1M@GNAECACD@?$AAt?$AAh?$AA?9?$AAt?$AAh@ 000000018002e338     libucrt:lcidtoname_downlevel.obj
 0002:00008348       ??_C@_1M@CHBIHOJO@?$AAt?$AAn?$AA?9?$AAz?$AAa@ 000000018002e348     libucrt:lcidtoname_downlevel.obj
 0002:00008358       ??_C@_1M@GCCMIGPJ@?$AAt?$AAr?$AA?9?$AAt?$AAr@ 000000018002e358     libucrt:lcidtoname_downlevel.obj
 0002:00008368       ??_C@_1M@CELMCNBK@?$AAt?$AAt?$AA?9?$AAr?$AAu@ 000000018002e368     libucrt:lcidtoname_downlevel.obj
 0002:00008378       ??_C@_1M@KLMCELGA@?$AAu?$AAk?$AA?9?$AAu?$AAa@ 000000018002e378     libucrt:lcidtoname_downlevel.obj
 0002:00008388       ??_C@_1M@EPAJJAJF@?$AAu?$AAr?$AA?9?$AAp?$AAk@ 000000018002e388     libucrt:lcidtoname_downlevel.obj
 0002:00008398       ??_C@_1BG@GEGPMCDJ@?$AAu?$AAz?$AA?9?$AAu?$AAz?$AA?9?$AAc?$AAy?$AAr?$AAl@ 000000018002e398     libucrt:lcidtoname_downlevel.obj
 0002:000083b0       ??_C@_1BG@EGGKJILM@?$AAu?$AAz?$AA?9?$AAu?$AAz?$AA?9?$AAl?$AAa?$AAt?$AAn@ 000000018002e3b0     libucrt:lcidtoname_downlevel.obj
 0002:000083c8       ??_C@_1M@GFOCLFF@?$AAv?$AAi?$AA?9?$AAv?$AAn@ 000000018002e3c8     libucrt:lcidtoname_downlevel.obj
 0002:000083d8       ??_C@_1M@CPAMEDFI@?$AAx?$AAh?$AA?9?$AAz?$AAa@ 000000018002e3d8     libucrt:lcidtoname_downlevel.obj
 0002:000083e8       ??_C@_1O@EBKIFIGN@?$AAz?$AAh?$AA?9?$AAc?$AAh?$AAs@ 000000018002e3e8     libucrt:lcidtoname_downlevel.obj
 0002:000083f8       ??_C@_1O@NMHPGANE@?$AAz?$AAh?$AA?9?$AAc?$AAh?$AAt@ 000000018002e3f8     libucrt:lcidtoname_downlevel.obj
 0002:00008408       ??_C@_1M@LPINJOMC@?$AAz?$AAh?$AA?9?$AAc?$AAn@ 000000018002e408     libucrt:lcidtoname_downlevel.obj
 0002:00008418       ??_C@_1M@OCJEJODD@?$AAz?$AAh?$AA?9?$AAh?$AAk@ 000000018002e418     libucrt:lcidtoname_downlevel.obj
 0002:00008428       ??_C@_1M@DNDLJINH@?$AAz?$AAh?$AA?9?$AAm?$AAo@ 000000018002e428     libucrt:lcidtoname_downlevel.obj
 0002:00008438       ??_C@_1M@MBFDNDND@?$AAz?$AAh?$AA?9?$AAs?$AAg@ 000000018002e438     libucrt:lcidtoname_downlevel.obj
 0002:00008448       ??_C@_1M@IMEPLEPE@?$AAz?$AAh?$AA?9?$AAt?$AAw@ 000000018002e448     libucrt:lcidtoname_downlevel.obj
 0002:00008458       ??_C@_1M@BBGHNHJP@?$AAz?$AAu?$AA?9?$AAz?$AAa@ 000000018002e458     libucrt:lcidtoname_downlevel.obj
 0002:00008470       ?large_power_data@?1??multiply_by_power_of_ten@__crt_strtox@@YA_NAEAUbig_integer@2@I@Z@4QBIB 000000018002e470     libucrt:cfout.obj
 0002:00008d80       ?large_power_indices@?1??multiply_by_power_of_ten@__crt_strtox@@YA_NAEAUbig_integer@2@I@Z@4QBUunpack_index@?1??12@YA_N0I@Z@B 000000018002ed80     libucrt:cfout.obj
 0002:00008e18       ?small_powers_of_ten@?1??multiply_by_power_of_ten@__crt_strtox@@YA_NAEAUbig_integer@2@I@Z@4QBIB 000000018002ee18     libucrt:cfout.obj
 0002:00008e3c       ??_C@_01GBGANLPD@0@        000000018002ee3c     libucrt:cfout.obj
 0002:00008e40       ??_C@_05DNEBIAHO@1?$CDINF@ 000000018002ee40     libucrt:cfout.obj
 0002:00008e48       ??_C@_06IMKFLFPG@1?$CDQNAN@ 000000018002ee48     libucrt:cfout.obj
 0002:00008e50       ??_C@_06PGGFOGJG@1?$CDSNAN@ 000000018002ee50     libucrt:cfout.obj
 0002:00008e58       ??_C@_05PHHOCPM@1?$CDIND@  000000018002ee58     libucrt:cfout.obj
 0002:00008e88       __real@3ff0000000000000    000000018002ee88     libucrt:ceil.obj
 0002:000090e0       __log10_256_lead           000000018002f0e0     libucrt:log10_256_lead_tail_table.obj
 0002:000098f0       __log10_256_tail           000000018002f8f0     libucrt:log10_256_lead_tail_table.obj
 0002:0000a100       __log_F_inv_qword          0000000180030100     libucrt:log_f_inv_qword_table.obj
 0002:0000a910       ??_C@_05HGHHAHAP@log10@    0000000180030910     libucrt:log_special.obj
 0002:0000a918       ??_C@_1BA@BALFACEM@?$AAC?$AAO?$AAN?$AAO?$AAU?$AAT?$AA$@ 0000000180030918     libucrt:initcon.obj
 0002:0000a9a0       _load_config_used          00000001800309a0     LIBCMT:loadcfg.obj
 0002:0000ab00       _tls_used                  0000000180030b00     LIBCMT:tlssup.obj
 0002:0000ab28       ??_R4exception@std@@6B@    0000000180030b28     LIBCMT:throw_bad_alloc.obj
 0002:0000ab50       ??_R3exception@std@@8      0000000180030b50     LIBCMT:throw_bad_alloc.obj
 0002:0000ab68       ??_R2exception@std@@8      0000000180030b68     LIBCMT:throw_bad_alloc.obj
 0002:0000ab78       ??_R1A@?0A@EA@exception@std@@8 0000000180030b78     LIBCMT:throw_bad_alloc.obj
 0002:0000aba0       ??_R4bad_alloc@std@@6B@    0000000180030ba0     LIBCMT:throw_bad_alloc.obj
 0002:0000abc8       ??_R3bad_alloc@std@@8      0000000180030bc8     LIBCMT:throw_bad_alloc.obj
 0002:0000abe0       ??_R2bad_alloc@std@@8      0000000180030be0     LIBCMT:throw_bad_alloc.obj
 0002:0000abf8       ??_R1A@?0A@EA@bad_alloc@std@@8 0000000180030bf8     LIBCMT:throw_bad_alloc.obj
 0002:0000ac20       ??_R4bad_array_new_length@std@@6B@ 0000000180030c20     LIBCMT:throw_bad_alloc.obj
 0002:0000ac48       ??_R3bad_array_new_length@std@@8 0000000180030c48     LIBCMT:throw_bad_alloc.obj
 0002:0000ac60       ??_R2bad_array_new_length@std@@8 0000000180030c60     LIBCMT:throw_bad_alloc.obj
 0002:0000ac80       ??_R1A@?0A@EA@bad_array_new_length@std@@8 0000000180030c80     LIBCMT:throw_bad_alloc.obj
 0002:0000aca8       ??_R4type_info@@6B@        0000000180030ca8     LIBCMT:std_type_info_static.obj
 0002:0000acd0       ??_R3type_info@@8          0000000180030cd0     LIBCMT:std_type_info_static.obj
 0002:0000ace8       ??_R2type_info@@8          0000000180030ce8     LIBCMT:std_type_info_static.obj
 0002:0000acf8       ??_R1A@?0A@EA@type_info@@8 0000000180030cf8     LIBCMT:std_type_info_static.obj
 0002:0000ad20       ??_R4bad_exception@std@@6B@ 0000000180030d20     libvcruntime:frame.obj
 0002:0000ad48       ??_R3bad_exception@std@@8  0000000180030d48     libvcruntime:frame.obj
 0002:0000ad60       ??_R2bad_exception@std@@8  0000000180030d60     libvcruntime:frame.obj
 0002:0000ad78       ??_R1A@?0A@EA@bad_exception@std@@8 0000000180030d78     libvcruntime:frame.obj
 0002:0000ad9c       __volatile_metadata        0000000180030d9c     <linker-defined>
 0002:0000b218       __rtc_iaa                  0000000180031218     LIBCMT:initsect.obj
 0002:0000b220       __rtc_izz                  0000000180031220     LIBCMT:initsect.obj
 0002:0000b228       __rtc_taa                  0000000180031228     LIBCMT:initsect.obj
 0002:0000b230       __rtc_tzz                  0000000180031230     LIBCMT:initsect.obj
 0002:0000b238       _tls_start                 0000000180031238     LIBCMT:tlssup.obj
 0002:0000b23c       _Init_thread_epoch         000000018003123c     LIBCMT:thread_safe_statics.obj
 0002:0000b240       _tls_end                   0000000180031240     LIBCMT:tlssup.obj
 0002:0000cb68       _TI2?AVbad_alloc@std@@     0000000180032b68     LIBCMT:throw_bad_alloc.obj
 0002:0000cb88       _CTA2?AVbad_alloc@std@@    0000000180032b88     LIBCMT:throw_bad_alloc.obj
 0002:0000cba0       _CT??_R0?AVbad_alloc@std@@@8??0bad_alloc@std@@QEAA@AEBV01@@Z24 0000000180032ba0     LIBCMT:throw_bad_alloc.obj
 0002:0000cbc8       _CT??_R0?AVexception@std@@@8??0exception@std@@QEAA@AEBV01@@Z24 0000000180032bc8     LIBCMT:throw_bad_alloc.obj
 0002:0000cbf0       _TI3?AVbad_array_new_length@std@@ 0000000180032bf0     LIBCMT:throw_bad_alloc.obj
 0002:0000cc10       _CTA3?AVbad_array_new_length@std@@ 0000000180032c10     LIBCMT:throw_bad_alloc.obj
 0002:0000cc30       _CT??_R0?AVbad_array_new_length@std@@@8??0bad_array_new_length@std@@QEAA@AEBV01@@Z24 0000000180032c30     LIBCMT:throw_bad_alloc.obj
 0002:0000cc58       _TI2?AVbad_exception@std@@ 0000000180032c58     libvcruntime:frame.obj
 0002:0000cc78       _CTA2?AVbad_exception@std@@ 0000000180032c78     libvcruntime:frame.obj
 0002:0000cc90       _CT??_R0?AVbad_exception@std@@@8??0bad_exception@std@@QEAA@AEBV01@@Z24 0000000180032c90     libvcruntime:frame.obj
 0002:0000ccb8       __pobjMapEntryFirst        0000000180032cb8     OposVariant.obj
 0002:0000ccc0       __pobjMapEntryLast         0000000180032cc0     OposVariant.obj
 0002:0000cd7c       __IMPORT_DESCRIPTOR_KERNEL32 0000000180032d7c     kernel32:KERNEL32.dll
 0002:0000cd90       __IMPORT_DESCRIPTOR_USER32 0000000180032d90     user32:USER32.dll
 0002:0000cda4       __IMPORT_DESCRIPTOR_GDI32  0000000180032da4     gdi32:GDI32.dll
 0002:0000cdb8       __IMPORT_DESCRIPTOR_ADVAPI32 0000000180032db8     advapi32:ADVAPI32.dll
 0002:0000cdcc       __IMPORT_DESCRIPTOR_ole32  0000000180032dcc     ole32:ole32.dll
 0002:0000cde0       __IMPORT_DESCRIPTOR_OLEAUT32 0000000180032de0     oleaut32:OLEAUT32.dll
 0002:0000cdf4       __NULL_IMPORT_DESCRIPTOR   0000000180032df4     kernel32:KERNEL32.dll
 0003:00000000       ?rcDefault@CWindow@ATL@@2UtagRECT@@A 0000000180035000     SoundPlayer.obj
 0003:00000010       ?s_Claim@?7??GetIDsOfNames@CComTypeInfoHolder@ATL@@QEAAJAEBU_GUID@@PEAPEA_WIKPEAJ@Z@4PA_WA 0000000180035010     SoundPlayer.obj
 0003:00000028       ?s_Release@?7??GetIDsOfNames@CComTypeInfoHolder@ATL@@QEAAJAEBU_GUID@@PEAPEA_WIKPEAJ@Z@4PA_WA 0000000180035028     SoundPlayer.obj
 0003:00000048       ?_tih@?$IDispatchImpl@UIOPOSSoundPlayer@@$1?IID_IOPOSSoundPlayer@@3U_GUID@@B$1?LIBID_OposSoundPlayer_CCO@@3U3@B$00$0A@VCComTypeInfoHolder@ATL@@@ATL@@1VCComTypeInfoHolder@2@A 0000000180035048     SoundPlayer.obj
 0003:00000080       ?_tih@?$IProvideClassInfo2Impl@$1?CLSID_OPOSSoundPlayer@@3U_GUID@@B$1?DIID__IOPOSSoundPlayerEvents@@3U2@B$1?LIBID_OposSoundPlayer_CCO@@3U2@B$00$0A@VCComTypeInfoHolder@ATL@@@ATL@@1VCComTypeInfoHolder@2@A 0000000180035080     SoundPlayer.obj
 0003:000000b8       ?vszContents@?6??Save@?$IPersistStorageImpl@VCOPOSSoundPlayer@@@ATL@@UEAAJPEAUIStorage@@H@Z@4PEB_WEB 00000001800350b8     SoundPlayer.obj
 0003:000000c0       ?wc@?1??GetWndClassInfo@?$CWindowImpl@VCOPOSSoundPlayer@@VCWindow@ATL@@V?$CWinTraits@$0FGAAAAAA@$0A@@3@@ATL@@SAAEAU_ATL_WNDCLASSINFOW@3@XZ@4U43@A 00000001800350c0     SoundPlayer.obj
 0003:00000250       ?g_WindowName@@3PA_WA      0000000180035250     SoundPlayerImpl.obj
 0003:00000278       ?g_ControlDescription@@3PADA 0000000180035278     SoundPlayerImpl.obj
 0003:000002ac       ?g_ControlVersion@@3JA     00000001800352ac     SoundPlayerImpl.obj
 0003:00000354       __scrt_native_dllmain_reason 0000000180035354     LIBCMT:utility.obj
 0003:00000358       _Init_global_epoch         0000000180035358     LIBCMT:thread_safe_statics.obj
 0003:00000360       __security_cookie          0000000180035360     LIBCMT:gs_cookie.obj
 0003:00000368       __security_cookie_complement 0000000180035368     LIBCMT:gs_cookie.obj
 0003:00000370       __isa_available            0000000180035370     LIBCMT:cpu_disp.obj
 0003:00000374       __isa_enabled              0000000180035374     LIBCMT:cpu_disp.obj
 0003:00000378       __memcpy_nt_iters          0000000180035378     LIBCMT:cpu_disp.obj
 0003:00000380       __memset_nt_iters          0000000180035380     LIBCMT:cpu_disp.obj
 0003:000003a8       __abort_behavior           00000001800353a8     libucrt:abort.obj
 0003:000003c0       __acrt_initial_locale_data 00000001800353c0     libucrt:nlsdata.obj
 0003:00000518       __acrt_initial_locale_pointers 0000000180035518     libucrt:nlsdata.obj
 0003:00000528       __acrt_wide_c_locale_string 0000000180035528     libucrt:nlsdata.obj
 0003:00000530       _iob                       0000000180035530     libucrt:_file.obj
 0003:00000640       __acrt_initial_multibyte_data 0000000180035640     libucrt:mbctype.obj
 0003:00000b80       __acrt_lconv_c             0000000180035b80     libucrt:localeconv.obj
 0003:00000c18       __acrt_lconv_static_decimal 0000000180035c18     libucrt:localeconv.obj
 0003:00000c1c       __acrt_lconv_static_W_decimal 0000000180035c1c     libucrt:localeconv.obj
 0003:00000c20       __globallocalestatus       0000000180035c20     libucrt:glstatus.obj
 0003:00000c30       _lookuptrailbytes          0000000180035c30     libucrt:read.obj
 0003:00000d54       _fltused                   0000000180035d54     LIBCMT:fltused.obj
 0003:00000d58       ??_R0?AVbad_alloc@std@@@8  0000000180035d58     LIBCMT:throw_bad_alloc.obj
 0003:00000d80       ??_R0?AVexception@std@@@8  0000000180035d80     LIBCMT:throw_bad_alloc.obj
 0003:00000da8       ??_R0?AVbad_array_new_length@std@@@8 0000000180035da8     LIBCMT:throw_bad_alloc.obj
 0003:00000dd8       ??_R0?AVbad_exception@std@@@8 0000000180035dd8     libvcruntime:frame.obj
 0003:00000e00       ??_R0?AVtype_info@@@8      0000000180035e00     LIBCMT:std_type_info_static.obj
 0003:00000e20       ?m_bInitFailed@CAtlBaseModule@ATL@@2_NA 0000000180035e20     OposVariant.obj
 0003:00000e28       ?_pPerfRegFunc@ATL@@3P6AJPEAUHINSTANCE__@@@ZEA 0000000180035e28     OposVariant.obj
 0003:00000e30       ?_pPerfUnRegFunc@ATL@@3P6AJXZEA 0000000180035e30     OposVariant.obj
 0003:00000e38       ?_AtlRegisterPerUser@ATL@@3_NA 0000000180035e38     OposVariant.obj
 0003:00000e40       ?_pAtlModule@ATL@@3PEAVCAtlModule@1@EA 0000000180035e40     OposVariant.obj
 0003:00000e48       ?_pModule@ATL@@3PEAVCComModule@1@EA 0000000180035e48     OposVariant.obj
 0003:00000e50       ?_AtlComModule@ATL@@3VCAtlComModule@1@A 0000000180035e50     OposVariant.obj
 0003:00000ea0       ?_AtlWinModule@ATL@@3VCAtlWinModule@1@A 0000000180035ea0     OposVariant.obj
 0003:00000ee8       ?m_libid@CAtlModule@ATL@@2U_GUID@@A 0000000180035ee8     SoundPlayer.obj
 0003:00000ef8       ?_entries@?1??GetConnMap@COPOSSoundPlayer@@SAPEBU_ATL_CONNMAP_ENTRY@ATL@@PEAH@Z@4QBU34@B 0000000180035ef8     SoundPlayer.obj
 0003:00000f10       ?$TSS0@?1??GetConnMap@COPOSSoundPlayer@@SAPEBU_ATL_CONNMAP_ENTRY@ATL@@PEAH@Z@4HA 0000000180035f10     SoundPlayer.obj
 0003:00000f18       ?_OptionsStorage@?1??__local_stdio_printf_options@@9@4_KA 0000000180035f18     SoundPlayer.obj
 0003:00000f20       ?pfnRegDeleteKeyEx@?1??DeleteSubKey@CRegKey@ATL@@QEAAJPEB_W@Z@4P6AJPEAUHKEY__@@0KK@ZEA 0000000180035f20     SoundPlayer.obj
 0003:00000f28       ?bInitialized@?1??DeleteSubKey@CRegKey@ATL@@QEAAJPEB_W@Z@4_NA 0000000180035f28     SoundPlayer.obj
 0003:00000f30       ?_Module@@3VCComModule@ATL@@A 0000000180035f30     SoundPlayer.obj
 0003:00000f80       ?pConnMap@?$IConnectionPointContainerImpl@VCOPOSSoundPlayer@@@ATL@@0PEBU_ATL_CONNMAP_ENTRY@2@EB 0000000180035f80     SoundPlayer.obj
 0003:00000f88       ?s_nInstances@COPOSSoundPlayer@@1HA 0000000180035f88     SoundPlayerImpl.obj
 0003:00000f90       __scrt_current_native_startup_state 0000000180035f90     LIBCMT:utility.obj
 0003:00000f98       __scrt_native_startup_lock 0000000180035f98     LIBCMT:utility.obj
 0003:00001590       _tls_index                 0000000180036590     LIBCMT:tlssup.obj
 0003:00001598       __favor                    0000000180036598     LIBCMT:cpu_disp.obj
 0003:0000159c       __scrt_debugger_hook_flag  000000018003659c     LIBCMT:utility_desktop.obj
 0003:000015a0       ?__type_info_root_node@@3U__type_info_node@@A 00000001800365a0     LIBCMT:tncleanup.obj
 0003:000015b0       ?_OptionsStorage@?1??__local_stdio_scanf_options@@9@4_KA 00000001800365b0     LIBCMT:default_local_stdio_options.obj
 0003:000015c0       ?_AtlBaseModule@ATL@@3VCAtlBaseModule@1@A 00000001800365c0     atls:atlbase.obj
 0003:00001620       ?__AtlThunkPool@@3PEAT_SLIST_HEADER@@EA 0000000180036620     atls:atlthunk.obj
 0003:0000164c       __@@_PchSym_@00@UzABUPdlipUCAUhUrmgvinvwrzgvUexgllohUzgohOmzgrevkilqPBACIAJCBDBUlyqiUznwGEUhgwzucOlyq@4B2008FD98C1DD4 000000018003664c     atls:stdafx.obj
 0003:00001650       ?__WinRTOutOfMemoryExceptionCallback@@3P6APEAXXZEA 0000000180036650     libvcruntime:ehhelpers.obj
 0003:00001658       __pPurecall                0000000180036658     libvcruntime:purevirt_data.obj
 0003:00001710       ?pArgList@UnDecorator@@0PEAVReplicator@@EA 0000000180036710     libvcruntime:undname.obj
 0003:00001718       ?pZNameList@UnDecorator@@0PEAVReplicator@@EA 0000000180036718     libvcruntime:undname.obj
 0003:00001720       ?pTemplateArgList@UnDecorator@@0PEAVReplicator@@EA 0000000180036720     libvcruntime:undname.obj
 0003:00001728       ?gName@UnDecorator@@0PEBDEB 0000000180036728     libvcruntime:undname.obj
 0003:00001730       ?name@UnDecorator@@0PEBDEB 0000000180036730     libvcruntime:undname.obj
 0003:00001738       ?disableFlags@UnDecorator@@0KA 0000000180036738     libvcruntime:undname.obj
 0003:0000173c       ?fExplicitTemplateParams@UnDecorator@@0_NA 000000018003673c     libvcruntime:undname.obj
 0003:0000173d       ?fGetTemplateArgumentList@UnDecorator@@0_NA 000000018003673d     libvcruntime:undname.obj
 0003:00001740       ?m_pGetParameter@UnDecorator@@0P6APEADJ@ZEA 0000000180036740     libvcruntime:undname.obj
 0003:00001748       ?m_CHPENameOffset@UnDecorator@@0KA 0000000180036748     libvcruntime:undname.obj
 0003:0000174c       ?m_recursionLevel@UnDecorator@@0KA 000000018003674c     libvcruntime:undname.obj
 0003:000017d0       ?c_exit_complete@?1???R<lambda_6e4b09c48022b2350581041d5f6b0c4c>@@QEBA@XZ@4_NA 00000001800367d0     libucrt:exit.obj
 0003:000018e8       _environ_table             00000001800368e8     libucrt:environment_initialization.obj
 0003:000018f0       _wenviron_table            00000001800368f0     libucrt:environment_initialization.obj
 0003:000018f8       __dcrt_initial_wide_environment 00000001800368f8     libucrt:environment_initialization.obj
 0003:00001900       __dcrt_initial_narrow_environment 0000000180036900     libucrt:environment_initialization.obj
 0003:00001908       __acrt_atexit_table        0000000180036908     libucrt:onexit.obj
 0003:00001920       __acrt_at_quick_exit_table 0000000180036920     libucrt:onexit.obj
 0003:00001940       __acrt_locale_changed_data 0000000180036940     libucrt:wsetlocale.obj
 0003:00001948       __acrt_current_locale_data 0000000180036948     libucrt:nlsdata.obj
 0003:00001ae8       _nstream                   0000000180036ae8     libucrt:_file.obj
 0003:00001af0       __piob                     0000000180036af0     libucrt:_file.obj
 0003:00001b00       __acrt_stdout_buffer       0000000180036b00     libucrt:_sftbuf.obj
 0003:00001b08       __acrt_stderr_buffer       0000000180036b08     libucrt:_sftbuf.obj
 0003:00001b10       __pioinfo                  0000000180036b10     libucrt:ioinit.obj
 0003:00001f10       _nhandle                   0000000180036f10     libucrt:ioinit.obj
 0003:00002158       _mbctype                   0000000180037158     libucrt:mbctype.obj
 0003:00002160       _mbcasemap                 0000000180037160     libucrt:mbctype.obj
 0003:00002168       __acrt_current_multibyte_data 0000000180037168     libucrt:mbctype.obj
 0003:00002178       _pgmptr                    0000000180037178     libucrt:argv_data.obj
 0003:00002180       __argc                     0000000180037180     libucrt:argv_data.obj
 0003:00002188       __argv                     0000000180037188     libucrt:argv_data.obj
 0003:00002190       __wargv                    0000000180037190     libucrt:argv_data.obj
 0003:00002198       _acmdln                    0000000180037198     libucrt:argv_data.obj
 0003:000021a0       _wcmdln                    00000001800371a0     libucrt:argv_data.obj
 0003:000021a8       __acrt_heap                00000001800371a8     libucrt:heap_handle.obj
 0003:000021d8       __acrt_lconv_static_null   00000001800371d8     libucrt:localeconv.obj
 0003:000021dc       __acrt_lconv_static_W_null 00000001800371dc     libucrt:localeconv.obj
 0003:000021f4       __fma3_is_available        00000001800371f4     libucrt:fma3_available.obj
 0003:000021f8       __use_fma3_lib             00000001800371f8     libucrt:fma3_available.obj
 0003:00002200       __dyn_tls_init_callback    0000000180037200     <common>
 0003:00002208       __scrt_ucrt_dll_is_in_use  0000000180037208     <common>

 entry point at        0001:0000ec20

 Static symbols

 0000:fffc0000       .debug$S                   0000000180000000     OPOSSoundPlayer.exp
 0000:fffc0000       .debug$S                   0000000180000000     advapi32:ADVAPI32.dll
 0000:fffc0000       .debug$S                   0000000180000000     advapi32:ADVAPI32.dll
 0000:fffc0000       .debug$S                   0000000180000000     advapi32:ADVAPI32.dll
 0000:fffc0000       .debug$S                   0000000180000000     advapi32:ADVAPI32.dll
 0000:fffc0000       .debug$S                   0000000180000000     advapi32:ADVAPI32.dll
 0000:fffc0000       .debug$S                   0000000180000000     advapi32:ADVAPI32.dll
 0000:fffc0000       .debug$S                   0000000180000000     advapi32:ADVAPI32.dll
 0000:fffc0000       .debug$S                   0000000180000000     advapi32:ADVAPI32.dll
 0000:fffc0000       .debug$S                   0000000180000000     advapi32:ADVAPI32.dll
 0000:fffc0000       .debug$S                   0000000180000000     gdi32:GDI32.dll
 0000:fffc0000       .debug$S                   0000000180000000     gdi32:GDI32.dll
 0000:fffc0000       .debug$S                   0000000180000000     gdi32:GDI32.dll
 0000:fffc0000       .debug$S                   0000000180000000     gdi32:GDI32.dll
 0000:fffc0000       .debug$S                   0000000180000000     gdi32:GDI32.dll
 0000:fffc0000       .debug$S                   0000000180000000     gdi32:GDI32.dll
 0000:fffc0000       .debug$S                   0000000180000000     gdi32:GDI32.dll
 0000:fffc0000       .debug$S                   0000000180000000     gdi32:GDI32.dll
 0000:fffc0000       .debug$S                   0000000180000000     gdi32:GDI32.dll
 0000:fffc0000       .debug$S                   0000000180000000     gdi32:GDI32.dll
 0000:fffc0000       .debug$S                   0000000180000000     gdi32:GDI32.dll
 0000:fffc0000       .debug$S                   0000000180000000     gdi32:GDI32.dll
 0000:fffc0000       .debug$S                   0000000180000000     gdi32:GDI32.dll
 0000:fffc0000       .debug$S                   0000000180000000     gdi32:GDI32.dll
 0000:fffc0000       .debug$S                   0000000180000000     gdi32:GDI32.dll
 0000:fffc0000       .debug$S                   0000000180000000     gdi32:GDI32.dll
 0000:fffc0000       .debug$S                   0000000180000000     gdi32:GDI32.dll
 0000:fffc0000       .debug$S                   0000000180000000     gdi32:GDI32.dll
 0000:fffc0000       .debug$S                   0000000180000000     gdi32:GDI32.dll
 0000:fffc0000       .debug$S                   0000000180000000     kernel32:KERNEL32.dll
 0000:fffc0000       .debug$S                   0000000180000000     kernel32:KERNEL32.dll
 0000:fffc0000       .debug$S                   0000000180000000     kernel32:KERNEL32.dll
 0000:fffc0000       .debug$S                   0000000180000000     kernel32:KERNEL32.dll
 0000:fffc0000       .debug$S                   0000000180000000     kernel32:KERNEL32.dll
 0000:fffc0000       .debug$S                   0000000180000000     kernel32:KERNEL32.dll
 0000:fffc0000       .debug$S                   0000000180000000     kernel32:KERNEL32.dll
 0000:fffc0000       .debug$S                   0000000180000000     kernel32:KERNEL32.dll
 0000:fffc0000       .debug$S                   0000000180000000     kernel32:KERNEL32.dll
 0000:fffc0000       .debug$S                   0000000180000000     kernel32:KERNEL32.dll
 0000:fffc0000       .debug$S                   0000000180000000     kernel32:KERNEL32.dll
 0000:fffc0000       .debug$S                   0000000180000000     kernel32:KERNEL32.dll
 0000:fffc0000       .debug$S                   0000000180000000     kernel32:KERNEL32.dll
 0000:fffc0000       .debug$S                   0000000180000000     kernel32:KERNEL32.dll
 0000:fffc0000       .debug$S                   0000000180000000     kernel32:KERNEL32.dll
 0000:fffc0000       .debug$S                   0000000180000000     kernel32:KERNEL32.dll
 0000:fffc0000       .debug$S                   0000000180000000     kernel32:KERNEL32.dll
 0000:fffc0000       .debug$S                   0000000180000000     kernel32:KERNEL32.dll
 0000:fffc0000       .debug$S                   0000000180000000     kernel32:KERNEL32.dll
 0000:fffc0000       .debug$S                   0000000180000000     kernel32:KERNEL32.dll
 0000:fffc0000       .debug$S                   0000000180000000     kernel32:KERNEL32.dll
 0000:fffc0000       .debug$S                   0000000180000000     kernel32:KERNEL32.dll
 0000:fffc0000       .debug$S                   0000000180000000     kernel32:KERNEL32.dll
 0000:fffc0000       .debug$S                   0000000180000000     kernel32:KERNEL32.dll
 0000:fffc0000       .debug$S                   0000000180000000     kernel32:KERNEL32.dll
 0000:fffc0000       .debug$S                   0000000180000000     kernel32:KERNEL32.dll
 0000:fffc0000       .debug$S                   0000000180000000     kernel32:KERNEL32.dll
 0000:fffc0000       .debug$S                   0000000180000000     kernel32:KERNEL32.dll
 0000:fffc0000       .debug$S                   0000000180000000     kernel32:KERNEL32.dll
 0000:fffc0000       .debug$S                   0000000180000000     kernel32:KERNEL32.dll
 0000:fffc0000       .debug$S                   0000000180000000     kernel32:KERNEL32.dll
 0000:fffc0000       .debug$S                   0000000180000000     kernel32:KERNEL32.dll
 0000:fffc0000       .debug$S                   0000000180000000     kernel32:KERNEL32.dll
 0000:fffc0000       .debug$S                   0000000180000000     kernel32:KERNEL32.dll
 0000:fffc0000       .debug$S                   0000000180000000     kernel32:KERNEL32.dll
 0000:fffc0000       .debug$S                   0000000180000000     kernel32:KERNEL32.dll
 0000:fffc0000       .debug$S                   0000000180000000     kernel32:KERNEL32.dll
 0000:fffc0000       .debug$S                   0000000180000000     kernel32:KERNEL32.dll
 0000:fffc0000       .debug$S                   0000000180000000     kernel32:KERNEL32.dll
 0000:fffc0000       .debug$S                   0000000180000000     kernel32:KERNEL32.dll
 0000:fffc0000       .debug$S                   0000000180000000     kernel32:KERNEL32.dll
 0000:fffc0000       .debug$S                   0000000180000000     kernel32:KERNEL32.dll
 0000:fffc0000       .debug$S                   0000000180000000     kernel32:KERNEL32.dll
 0000:fffc0000       .debug$S                   0000000180000000     kernel32:KERNEL32.dll
 0000:fffc0000       .debug$S                   0000000180000000     kernel32:KERNEL32.dll
 0000:fffc0000       .debug$S                   0000000180000000     kernel32:KERNEL32.dll
 0000:fffc0000       .debug$S                   0000000180000000     kernel32:KERNEL32.dll
 0000:fffc0000       .debug$S                   0000000180000000     kernel32:KERNEL32.dll
 0000:fffc0000       .debug$S                   0000000180000000     kernel32:KERNEL32.dll
 0000:fffc0000       .debug$S                   0000000180000000     kernel32:KERNEL32.dll
 0000:fffc0000       .debug$S                   0000000180000000     kernel32:KERNEL32.dll
 0000:fffc0000       .debug$S                   0000000180000000     kernel32:KERNEL32.dll
 0000:fffc0000       .debug$S                   0000000180000000     kernel32:KERNEL32.dll
 0000:fffc0000       .debug$S                   0000000180000000     kernel32:KERNEL32.dll
 0000:fffc0000       .debug$S                   0000000180000000     kernel32:KERNEL32.dll
 0000:fffc0000       .debug$S                   0000000180000000     kernel32:KERNEL32.dll
 0000:fffc0000       .debug$S                   0000000180000000     kernel32:KERNEL32.dll
 0000:fffc0000       .debug$S                   0000000180000000     kernel32:KERNEL32.dll
 0000:fffc0000       .debug$S                   0000000180000000     kernel32:KERNEL32.dll
 0000:fffc0000       .debug$S                   0000000180000000     kernel32:KERNEL32.dll
 0000:fffc0000       .debug$S                   0000000180000000     kernel32:KERNEL32.dll
 0000:fffc0000       .debug$S                   0000000180000000     kernel32:KERNEL32.dll
 0000:fffc0000       .debug$S                   0000000180000000     kernel32:KERNEL32.dll
 0000:fffc0000       .debug$S                   0000000180000000     kernel32:KERNEL32.dll
 0000:fffc0000       .debug$S                   0000000180000000     kernel32:KERNEL32.dll
 0000:fffc0000       .debug$S                   0000000180000000     kernel32:KERNEL32.dll
 0000:fffc0000       .debug$S                   0000000180000000     kernel32:KERNEL32.dll
 0000:fffc0000       .debug$S                   0000000180000000     kernel32:KERNEL32.dll
 0000:fffc0000       .debug$S                   0000000180000000     kernel32:KERNEL32.dll
 0000:fffc0000       .debug$S                   0000000180000000     kernel32:KERNEL32.dll
 0000:fffc0000       .debug$S                   0000000180000000     kernel32:KERNEL32.dll
 0000:fffc0000       .debug$S                   0000000180000000     kernel32:KERNEL32.dll
 0000:fffc0000       .debug$S                   0000000180000000     kernel32:KERNEL32.dll
 0000:fffc0000       .debug$S                   0000000180000000     kernel32:KERNEL32.dll
 0000:fffc0000       .debug$S                   0000000180000000     kernel32:KERNEL32.dll
 0000:fffc0000       .debug$S                   0000000180000000     kernel32:KERNEL32.dll
 0000:fffc0000       .debug$S                   0000000180000000     kernel32:KERNEL32.dll
 0000:fffc0000       .debug$S                   0000000180000000     kernel32:KERNEL32.dll
 0000:fffc0000       .debug$S                   0000000180000000     kernel32:KERNEL32.dll
 0000:fffc0000       .debug$S                   0000000180000000     kernel32:KERNEL32.dll
 0000:fffc0000       .debug$S                   0000000180000000     kernel32:KERNEL32.dll
 0000:fffc0000       .debug$S                   0000000180000000     kernel32:KERNEL32.dll
 0000:fffc0000       .debug$S                   0000000180000000     kernel32:KERNEL32.dll
 0000:fffc0000       .debug$S                   0000000180000000     kernel32:KERNEL32.dll
 0000:fffc0000       .debug$S                   0000000180000000     kernel32:KERNEL32.dll
 0000:fffc0000       .debug$S                   0000000180000000     kernel32:KERNEL32.dll
 0000:fffc0000       .debug$S                   0000000180000000     kernel32:KERNEL32.dll
 0000:fffc0000       .debug$S                   0000000180000000     kernel32:KERNEL32.dll
 0000:fffc0000       .debug$S                   0000000180000000     kernel32:KERNEL32.dll
 0000:fffc0000       .debug$S                   0000000180000000     kernel32:KERNEL32.dll
 0000:fffc0000       .debug$S                   0000000180000000     kernel32:KERNEL32.dll
 0000:fffc0000       .debug$S                   0000000180000000     kernel32:KERNEL32.dll
 0000:fffc0000       .debug$S                   0000000180000000     kernel32:KERNEL32.dll
 0000:fffc0000       .debug$S                   0000000180000000     kernel32:KERNEL32.dll
 0000:fffc0000       .debug$S                   0000000180000000     kernel32:KERNEL32.dll
 0000:fffc0000       .debug$S                   0000000180000000     kernel32:KERNEL32.dll
 0000:fffc0000       .debug$S                   0000000180000000     kernel32:KERNEL32.dll
 0000:fffc0000       .debug$S                   0000000180000000     kernel32:KERNEL32.dll
 0000:fffc0000       .debug$S                   0000000180000000     kernel32:KERNEL32.dll
 0000:fffc0000       .debug$S                   0000000180000000     kernel32:KERNEL32.dll
 0000:fffc0000       .debug$S                   0000000180000000     kernel32:KERNEL32.dll
 0000:fffc0000       .debug$S                   0000000180000000     kernel32:KERNEL32.dll
 0000:fffc0000       .debug$S                   0000000180000000     kernel32:KERNEL32.dll
 0000:fffc0000       .debug$S                   0000000180000000     kernel32:KERNEL32.dll
 0000:fffc0000       .debug$S                   0000000180000000     kernel32:KERNEL32.dll
 0000:fffc0000       .debug$S                   0000000180000000     kernel32:KERNEL32.dll
 0000:fffc0000       .debug$S                   0000000180000000     kernel32:KERNEL32.dll
 0000:fffc0000       .debug$S                   0000000180000000     kernel32:KERNEL32.dll
 0000:fffc0000       .debug$S                   0000000180000000     kernel32:KERNEL32.dll
 0000:fffc0000       .debug$S                   0000000180000000     kernel32:KERNEL32.dll
 0000:fffc0000       .debug$S                   0000000180000000     kernel32:KERNEL32.dll
 0000:fffc0000       .debug$S                   0000000180000000     kernel32:KERNEL32.dll
 0000:fffc0000       .debug$S                   0000000180000000     kernel32:KERNEL32.dll
 0000:fffc0000       .debug$S                   0000000180000000     kernel32:KERNEL32.dll
 0000:fffc0000       .debug$S                   0000000180000000     kernel32:KERNEL32.dll
 0000:fffc0000       .debug$S                   0000000180000000     ole32:ole32.dll
 0000:fffc0000       .debug$S                   0000000180000000     ole32:ole32.dll
 0000:fffc0000       .debug$S                   0000000180000000     ole32:ole32.dll
 0000:fffc0000       .debug$S                   0000000180000000     ole32:ole32.dll
 0000:fffc0000       .debug$S                   0000000180000000     ole32:ole32.dll
 0000:fffc0000       .debug$S                   0000000180000000     ole32:ole32.dll
 0000:fffc0000       .debug$S                   0000000180000000     ole32:ole32.dll
 0000:fffc0000       .debug$S                   0000000180000000     ole32:ole32.dll
 0000:fffc0000       .debug$S                   0000000180000000     ole32:ole32.dll
 0000:fffc0000       .debug$S                   0000000180000000     ole32:ole32.dll
 0000:fffc0000       .debug$S                   0000000180000000     ole32:ole32.dll
 0000:fffc0000       .debug$S                   0000000180000000     ole32:ole32.dll
 0000:fffc0000       .debug$S                   0000000180000000     ole32:ole32.dll
 0000:fffc0000       .debug$S                   0000000180000000     ole32:ole32.dll
 0000:fffc0000       .debug$S                   0000000180000000     oleaut32:OLEAUT32.dll
 0000:fffc0000       .debug$S                   0000000180000000     oleaut32:OLEAUT32.dll
 0000:fffc0000       .debug$S                   0000000180000000     oleaut32:OLEAUT32.dll
 0000:fffc0000       .debug$S                   0000000180000000     oleaut32:OLEAUT32.dll
 0000:fffc0000       .debug$S                   0000000180000000     oleaut32:OLEAUT32.dll
 0000:fffc0000       .debug$S                   0000000180000000     oleaut32:OLEAUT32.dll
 0000:fffc0000       .debug$S                   0000000180000000     oleaut32:OLEAUT32.dll
 0000:fffc0000       .debug$S                   0000000180000000     oleaut32:OLEAUT32.dll
 0000:fffc0000       .debug$S                   0000000180000000     oleaut32:OLEAUT32.dll
 0000:fffc0000       .debug$S                   0000000180000000     oleaut32:OLEAUT32.dll
 0000:fffc0000       .debug$S                   0000000180000000     oleaut32:OLEAUT32.dll
 0000:fffc0000       .debug$S                   0000000180000000     oleaut32:OLEAUT32.dll
 0000:fffc0000       .debug$S                   0000000180000000     oleaut32:OLEAUT32.dll
 0000:fffc0000       .debug$S                   0000000180000000     oleaut32:OLEAUT32.dll
 0000:fffc0000       .debug$S                   0000000180000000     oleaut32:OLEAUT32.dll
 0000:fffc0000       .debug$S                   0000000180000000     oleaut32:OLEAUT32.dll
 0000:fffc0000       .debug$S                   0000000180000000     user32:USER32.dll
 0000:fffc0000       .debug$S                   0000000180000000     user32:USER32.dll
 0000:fffc0000       .debug$S                   0000000180000000     user32:USER32.dll
 0000:fffc0000       .debug$S                   0000000180000000     user32:USER32.dll
 0000:fffc0000       .debug$S                   0000000180000000     user32:USER32.dll
 0000:fffc0000       .debug$S                   0000000180000000     user32:USER32.dll
 0000:fffc0000       .debug$S                   0000000180000000     user32:USER32.dll
 0000:fffc0000       .debug$S                   0000000180000000     user32:USER32.dll
 0000:fffc0000       .debug$S                   0000000180000000     user32:USER32.dll
 0000:fffc0000       .debug$S                   0000000180000000     user32:USER32.dll
 0000:fffc0000       .debug$S                   0000000180000000     user32:USER32.dll
 0000:fffc0000       .debug$S                   0000000180000000     user32:USER32.dll
 0000:fffc0000       .debug$S                   0000000180000000     user32:USER32.dll
 0000:fffc0000       .debug$S                   0000000180000000     user32:USER32.dll
 0000:fffc0000       .debug$S                   0000000180000000     user32:USER32.dll
 0000:fffc0000       .debug$S                   0000000180000000     user32:USER32.dll
 0000:fffc0000       .debug$S                   0000000180000000     user32:USER32.dll
 0000:fffc0000       .debug$S                   0000000180000000     user32:USER32.dll
 0000:fffc0000       .debug$S                   0000000180000000     user32:USER32.dll
 0000:fffc0000       .debug$S                   0000000180000000     user32:USER32.dll
 0000:fffc0000       .debug$S                   0000000180000000     user32:USER32.dll
 0000:fffc0000       .debug$S                   0000000180000000     user32:USER32.dll
 0000:fffc0000       .debug$S                   0000000180000000     user32:USER32.dll
 0000:fffc0000       .debug$S                   0000000180000000     user32:USER32.dll
 0000:fffc0000       .debug$S                   0000000180000000     user32:USER32.dll
 0000:fffc0000       .debug$S                   0000000180000000     user32:USER32.dll
 0000:fffc0000       .debug$S                   0000000180000000     user32:USER32.dll
 0000:fffc0000       .debug$S                   0000000180000000     user32:USER32.dll
 0000:fffc0000       .debug$S                   0000000180000000     user32:USER32.dll
 0000:fffc0000       .debug$S                   0000000180000000     user32:USER32.dll
 0000:fffc0000       .debug$S                   0000000180000000     user32:USER32.dll
 0000:fffc0000       .debug$S                   0000000180000000     user32:USER32.dll
 0000:fffc0000       .debug$S                   0000000180000000     user32:USER32.dll
 0000:fffc0000       .debug$S                   0000000180000000     user32:USER32.dll
 0000:fffc0000       .debug$S                   0000000180000000     user32:USER32.dll
 0001:00000000       ??__E_AtlComModule@ATL@@YAXXZ 0000000180001000 f   OposVariant.obj
 0001:00000020       ??__E_AtlWinModule@ATL@@YAXXZ 0000000180001020 f   OposVariant.obj
 0001:00000040       ??__E?pConnMap@?$IConnectionPointContainerImpl@VCOPOSSoundPlayer@@@ATL@@0PEBU_ATL_CONNMAP_ENTRY@2@EB@@YAXXZ 0000000180001040 f   SoundPlayer.obj
 0001:00000058       ??__E_Module@@YAXXZ        0000000180001058 f   SoundPlayer.obj
 0001:00000094       ??__E_AtlBaseModule@ATL@@YAXXZ 0000000180001094 f   atls:atlbase.obj
 0001:0000e244       ?__scrt_initialize_thread_safe_statics@@YAHXZ 000000018000f244 f   LIBCMT:thread_safe_statics.obj
 0001:0000e314       ?__scrt_uninitialize_thread_safe_statics@@YAXXZ 000000018000f314 f   LIBCMT:thread_safe_statics.obj
 0001:0000e664       capture_current_context    000000018000f664 f   LIBCMT:gs_report.obj
 0001:0000e6d4       capture_previous_context   000000018000f6d4 f   LIBCMT:gs_report.obj
 0001:0000e870       $$000000                   000000018000f870     LIBCMT:chkstk.obj
 0001:0000e8d0       $$000000                   000000018000f8d0     LIBCMT:amdsecgs.obj
 0001:0000e900       ?dllmain_crt_dispatch@@YAHQEAUHINSTANCE__@@KQEAX@Z 000000018000f900 f   LIBCMT:dll_dllmain.obj
 0001:0000e950       ?dllmain_crt_process_attach@@YAHQEAUHINSTANCE__@@QEAX@Z 000000018000f950 f   LIBCMT:dll_dllmain.obj
 0001:0000ea68       ?dllmain_crt_process_detach@@YAH_N@Z 000000018000fa68 f   LIBCMT:dll_dllmain.obj
 0001:0000eaec       ?dllmain_dispatch@@YAHQEAUHINSTANCE__@@KQEAX@Z 000000018000faec f   LIBCMT:dll_dllmain.obj
 0001:0000f3b8       ??$GetProcAddressAll@P6AP6A_JPEAUHWND__@@I_K_J@ZPEAUAtlThunkData_t@@@Z@@YAP6AP6A_JPEAUHWND__@@I_K_J@ZPEAUAtlThunkData_t@@@ZPEAP6AP6A_J0I12@Z3@Z@Z 00000001800103b8 f   atls:atlthunk.obj
 0001:0000f3b8       ??$GetProcAddressAll@P6APEAUAtlThunkData_t@@XZ@@YAP6APEAUAtlThunkData_t@@XZPEAP6APEAU0@XZ@Z 00000001800103b8 f   atls:atlthunk.obj
 0001:0000f3b8       ??$GetProcAddressAll@P6AXPEAUAtlThunkData_t@@@Z@@YAP6AXPEAUAtlThunkData_t@@@ZPEAP6AX0@Z@Z 00000001800103b8 f   atls:atlthunk.obj
 0001:0000f3b8       ??$GetProcAddressAll@P6AXPEAUAtlThunkData_t@@PEAX_K@Z@@YAP6AXPEAUAtlThunkData_t@@PEAX_K@ZPEAP6AX012@Z@Z 00000001800103b8 f   atls:atlthunk.obj
 0001:0000f590       ?__InitializeThunkPool@@YAHXZ 0000000180010590 f   atls:atlthunk.obj
 0001:0000fa30       $$000000                   0000000180010a30     libvcruntime:memcmp.obj
 0001:0000fb10       $$000000                   0000000180010b10     libvcruntime:memcpy.obj
 0001:000101c0       $$000000                   00000001800111c0     libvcruntime:memset.obj
 0001:000117d0       $$000000                   00000001800127d0     libvcruntime:notify.obj
 0001:00011a50       ??$BuildCatchObjectHelperInternal@V__FrameHandler3@@@@YAHPEAUEHExceptionRecord@@PEAXPEBU_s_HandlerType@@PEBU_s_CatchableType@@@Z 0000000180012a50 f   libvcruntime:frame.obj
 0001:00011c50       ??$BuildCatchObjectHelperInternal@V__FrameHandler4@@@@YAHPEAUEHExceptionRecord@@PEAXPEAUHandlerType4@FH4@@PEBU_s_CatchableType@@@Z 0000000180012c50 f   libvcruntime:frame.obj
 0001:00011e54       ??$BuildCatchObjectInternal@V__FrameHandler3@@@@YAXPEAUEHExceptionRecord@@PEAXPEBU_s_HandlerType@@PEBU_s_CatchableType@@@Z 0000000180012e54 f   libvcruntime:frame.obj
 0001:00011f14       ??$BuildCatchObjectInternal@V__FrameHandler4@@@@YAXPEAUEHExceptionRecord@@PEAXPEAUHandlerType4@FH4@@PEBU_s_CatchableType@@@Z 0000000180012f14 f   libvcruntime:frame.obj
 0001:00011fd8       ??$CatchIt@V__FrameHandler3@@@@YAXPEAUEHExceptionRecord@@PEA_KPEAU_CONTEXT@@PEAU_xDISPATCHER_CONTEXT@@PEBU_s_FuncInfo@@PEBU_s_HandlerType@@PEBU_s_CatchableType@@PEBU_s_TryBlockMapEntry@@H1EE@Z 0000000180012fd8 f   libvcruntime:frame.obj
 0001:000120ac       ??$CatchIt@V__FrameHandler4@@@@YAXPEAUEHExceptionRecord@@PEA_KPEAU_CONTEXT@@PEAU_xDISPATCHER_CONTEXT@@PEAUFuncInfo4@FH4@@PEAUHandlerType4@4@PEBU_s_CatchableType@@PEAUTryBlockMapEntry4@4@H1EE@Z 00000001800130ac f   libvcruntime:frame.obj
 0001:00012180       ??$FindHandler@V__FrameHandler3@@@@YAXPEAUEHExceptionRecord@@PEA_KPEAU_CONTEXT@@PEAU_xDISPATCHER_CONTEXT@@PEBU_s_FuncInfo@@EH1@Z 0000000180013180 f   libvcruntime:frame.obj
 0001:00012658       ??$FindHandler@V__FrameHandler4@@@@YAXPEAUEHExceptionRecord@@PEA_KPEAU_CONTEXT@@PEAU_xDISPATCHER_CONTEXT@@PEAUFuncInfo4@FH4@@EH1@Z 0000000180013658 f   libvcruntime:frame.obj
 0001:00012b54       ??$FindHandlerForForeignException@V__FrameHandler3@@@@YAXPEAUEHExceptionRecord@@PEA_KPEAU_CONTEXT@@PEAU_xDISPATCHER_CONTEXT@@PEBU_s_FuncInfo@@HH1@Z 0000000180013b54 f   libvcruntime:frame.obj
 0001:00012d70       ??$FindHandlerForForeignException@V__FrameHandler4@@@@YAXPEAUEHExceptionRecord@@PEA_KPEAU_CONTEXT@@PEAU_xDISPATCHER_CONTEXT@@PEAUFuncInfo4@FH4@@HH1@Z 0000000180013d70 f   libvcruntime:frame.obj
 0001:00013f30       ?ExFilterRethrow@@YAHPEAU_EXCEPTION_POINTERS@@PEAUEHExceptionRecord@@PEAH@Z 0000000180014f30 f   libvcruntime:frame.obj
 0001:00013fb8       ?ExFilterRethrowFH4@@YAHPEAU_EXCEPTION_POINTERS@@PEAUEHExceptionRecord@@HPEAH@Z 0000000180014fb8 f   libvcruntime:frame.obj
 0001:00014508       ?IsInExceptionSpec@@YAEPEAUEHExceptionRecord@@PEBU_s_ESTypeList@@@Z 0000000180015508 f   libvcruntime:frame.obj
 0001:000145f8       ?Is_bad_exception_allowed@@YAEPEBU_s_ESTypeList@@@Z 00000001800155f8 f   libvcruntime:frame.obj
 0001:000148d4       ?try_get_function@@YAPEAXW4function_id@?A0xbc0cc709@@QEBDQEBW4module_id@2@2@Z 00000001800158d4 f   libvcruntime:winapi_downlevel.obj
 0001:00014bc0       $$000000                   0000000180015bc0     libvcruntime:handlers.obj
 0001:000155ec       ??$common_vsprintf@Vformat_validation_base@__crt_stdio_output@@_W@@YAH_KQEA_W0QEB_WAEAV__crt_cached_ptd_host@@QEAD@Z 00000001800165ec f   libucrt:output.obj
 0001:00017d3c       ??$?RV<lambda_d80eeec6fff315bfe5c115232f3240e3>@@AEAV<lambda_6e4b09c48022b2350581041d5f6b0c4c>@@V<lambda_2358e3775559c9db80273638284d5e45>@@@?$__crt_seh_guarded_call@X@@QEAAX$$QEAV<lambda_d80eeec6fff315bfe5c115232f3240e3>@@AEAV<lambda_6e4b09c48022b2350581041d5f6b0c4c>@@$$QEAV<lambda_2358e3775559c9db80273638284d5e45>@@@Z 0000000180018d3c f   libucrt:exit.obj
 0001:00017d74       ??R<lambda_6e4b09c48022b2350581041d5f6b0c4c>@@QEBA@XZ 0000000180018d74 f   libucrt:exit.obj
 0001:00017e40       ?common_exit@@YAXHW4_crt_exit_cleanup_mode@@W4_crt_exit_return_mode@@@Z 0000000180018e40 f   libucrt:exit.obj
 0001:00017f08       ?exit_or_terminate_process@@YAXI@Z 0000000180018f08 f   libucrt:exit.obj
 0001:00017f3c       ?should_call_terminate_process@@YA_NXZ 0000000180018f3c f   libucrt:exit.obj
 0001:00017f6c       ?try_cor_exit_process@@YAXI@Z 0000000180018f6c f   libucrt:exit.obj
 0001:00018008       ??$parse_command_line@D@@YAXPEADPEAPEAD0PEA_K2@Z 0000000180019008 f   libucrt:argv_parsing.obj
 0001:000183b0       ??$common_initialize_environment_nolock@D@@YAHXZ 00000001800193b0 f   libucrt:environment_initialization.obj
 0001:00018424       ??$create_environment@D@@YAQEAPEADQEAD@Z 0000000180019424 f   libucrt:environment_initialization.obj
 0001:00018534       ??$free_environment@D@@YAXQEAPEAD@Z 0000000180019534 f   libucrt:environment_initialization.obj
 0001:00018534       ??$free_environment@_W@@YAXQEAPEA_W@Z 0000000180019534 f   libucrt:environment_initialization.obj
 0001:00018578       ??$uninitialize_environment_internal@D@@YAXAEAPEAPEAD@Z 0000000180019578 f   libucrt:environment_initialization.obj
 0001:00018594       ??$uninitialize_environment_internal@_W@@YAXAEAPEAPEA_W@Z 0000000180019594 f   libucrt:environment_initialization.obj
 0001:000185fc       ??$?RV<lambda_638799b9deba96c50f710eeac98168cd>@@AEAV<lambda_22ebabd17bc4fa466a2aca6d8deb888d>@@V<lambda_a6f7d7db0129f75315ebf26d50c089f1>@@@?$__crt_seh_guarded_call@H@@QEAAH$$QEAV<lambda_638799b9deba96c50f710eeac98168cd>@@AEAV<lambda_22ebabd17bc4fa466a2aca6d8deb888d>@@$$QEAV<lambda_a6f7d7db0129f75315ebf26d50c089f1>@@@Z 00000001800195fc f   libucrt:onexit.obj
 0001:00018638       ??$?RV<lambda_7777bce6b2f8c936911f934f8298dc43>@@AEAV<lambda_f03950bc5685219e0bcd2087efbe011e>@@V<lambda_3883c3dff614d5e0c5f61bb1ac94921c>@@@?$__crt_seh_guarded_call@H@@QEAAH$$QEAV<lambda_7777bce6b2f8c936911f934f8298dc43>@@AEAV<lambda_f03950bc5685219e0bcd2087efbe011e>@@$$QEAV<lambda_3883c3dff614d5e0c5f61bb1ac94921c>@@@Z 0000000180019638 f   libucrt:onexit.obj
 0001:00018674       ??R<lambda_22ebabd17bc4fa466a2aca6d8deb888d>@@QEBAHXZ 0000000180019674 f   libucrt:onexit.obj
 0001:00018824       ??R<lambda_f03950bc5685219e0bcd2087efbe011e>@@QEBAHXZ 0000000180019824 f   libucrt:onexit.obj
 0001:00018a08       initialize_global_variables 0000000180019a08 f   libucrt:initialization.obj
 0001:00018a1c       initialize_c               0000000180019a1c f   libucrt:initialization.obj
 0001:00018a40       initialize_environment     0000000180019a40 f   libucrt:initialization.obj
 0001:00018a40       initialize_global_state_isolation 0000000180019a40 f   libucrt:initialization.obj
 0001:00018a40       report_memory_leaks        0000000180019a40 f   libucrt:initialization.obj
 0001:00018a40       uninitialize_c             0000000180019a40 f   libucrt:initialization.obj
 0001:00018a40       uninitialize_global_state_isolation 0000000180019a40 f   libucrt:initialization.obj
 0001:00018a44       uninitialize_environment   0000000180019a44 f   libucrt:initialization.obj
 0001:00018a54       initialize_pointers        0000000180019a54 f   libucrt:initialization.obj
 0001:00018a94       uninitialize_vcruntime     0000000180019a94 f   libucrt:initialization.obj
 0001:00018a9c       uninitialize_allocated_memory 0000000180019a9c f   libucrt:initialization.obj
 0001:00018adc       uninitialize_allocated_io_buffers 0000000180019adc f   libucrt:initialization.obj
 0001:00018da0       $$000000                   0000000180019da0     libucrt:strncmp.obj
 0001:00018e98       ??$?RV<lambda_0ae27a3a962d80f24befdcbee591983d>@@AEAV<lambda_8d0ee55de4b1038c4002e0adecdf1839>@@V<lambda_dc504788e8f1664fe9b84e20bfb512f2>@@@?$__crt_seh_guarded_call@X@@QEAAX$$QEAV<lambda_0ae27a3a962d80f24befdcbee591983d>@@AEAV<lambda_8d0ee55de4b1038c4002e0adecdf1839>@@$$QEAV<lambda_dc504788e8f1664fe9b84e20bfb512f2>@@@Z 0000000180019e98 f   libucrt:per_thread_data.obj
 0001:00018ed8       ??$?RV<lambda_2d41944a1d46af3157314b8a01080d33>@@AEAV<lambda_8f455de75cd7d7f24b4096f044d8b9e6>@@V<lambda_aa500f224e6afead328df44964fe2772>@@@?$__crt_seh_guarded_call@X@@QEAAX$$QEAV<lambda_2d41944a1d46af3157314b8a01080d33>@@AEAV<lambda_8f455de75cd7d7f24b4096f044d8b9e6>@@$$QEAV<lambda_aa500f224e6afead328df44964fe2772>@@@Z 0000000180019ed8 f   libucrt:per_thread_data.obj
 0001:00018f18       ??$?RV<lambda_aa87e3671a710a21b5dc78c0bdf72e11>@@AEAV<lambda_92619d2358a28f41a33ba319515a20b9>@@V<lambda_6992ecaafeb10aed2b74cb1fae11a551>@@@?$__crt_seh_guarded_call@X@@QEAAX$$QEAV<lambda_aa87e3671a710a21b5dc78c0bdf72e11>@@AEAV<lambda_92619d2358a28f41a33ba319515a20b9>@@$$QEAV<lambda_6992ecaafeb10aed2b74cb1fae11a551>@@@Z 0000000180019f18 f   libucrt:per_thread_data.obj
 0001:00018f60       ??$?RV<lambda_f2e299630e499de9f9a165e60fcd3db5>@@AEAV<lambda_2ae9d31cdba2644fcbeaf08da7c24588>@@V<lambda_40d01ff24d0e7b3814fdbdcee8eab3c7>@@@?$__crt_seh_guarded_call@X@@QEAAX$$QEAV<lambda_f2e299630e499de9f9a165e60fcd3db5>@@AEAV<lambda_2ae9d31cdba2644fcbeaf08da7c24588>@@$$QEAV<lambda_40d01ff24d0e7b3814fdbdcee8eab3c7>@@@Z 0000000180019f60 f   libucrt:per_thread_data.obj
 0001:00018fc0       ?construct_ptd_array@@YAXQEAU__acrt_ptd@@@Z 0000000180019fc0 f   libucrt:per_thread_data.obj
 0001:00019090       ?destroy_fls@@YAXPEAX@Z    000000018001a090 f   libucrt:per_thread_data.obj
 0001:000190b0       ?destroy_ptd_array@@YAXQEAU__acrt_ptd@@@Z 000000018001a0b0 f   libucrt:per_thread_data.obj
 0001:000191a8       ?replace_current_thread_locale_nolock@@YAXQEAU__acrt_ptd@@QEAU__crt_locale_data@@@Z 000000018001a1a8 f   libucrt:per_thread_data.obj
 0001:000195b4       ??$?RV<lambda_410d79af7f07d98d83a3f525b3859a53>@@AEAV<lambda_3e16ef9562a7dcce91392c22ab16ea36>@@V<lambda_38119f0e861e05405d8a144b9b982f0a>@@@?$__crt_seh_guarded_call@X@@QEAAX$$QEAV<lambda_410d79af7f07d98d83a3f525b3859a53>@@AEAV<lambda_3e16ef9562a7dcce91392c22ab16ea36>@@$$QEAV<lambda_38119f0e861e05405d8a144b9b982f0a>@@@Z 000000018001a5b4 f   libucrt:wsetlocale.obj
 0001:000197f0       ?try_get_function@@YAPEAXW4function_id@?A0x391cf84c@@QEBDQEBW4module_id@2@2@Z 000000018001a7f0 f   libucrt:winapi_thunks.obj
 0001:00019f8c       ?fp_format_a@@YAHQEBNPEAD_KQEAD2H_NIW4__acrt_rounding_mode@@AEAV__crt_cached_ptd_host@@@Z 000000018001af8c f   libucrt:cvt.obj
 0001:0001a340       ?fp_format_e@@YAHQEBNQEAD_K12H_NIW4__acrt_rounding_mode@@AEAV__crt_cached_ptd_host@@@Z 000000018001b340 f   libucrt:cvt.obj
 0001:0001a43c       ?fp_format_e_internal@@YAHQEAD_KH_NIQEAU_strflt@@2AEAV__crt_cached_ptd_host@@@Z 000000018001b43c f   libucrt:cvt.obj
 0001:0001a620       ?fp_format_f@@YAHQEBNQEAD_K12HW4__acrt_rounding_mode@@AEAV__crt_cached_ptd_host@@@Z 000000018001b620 f   libucrt:cvt.obj
 0001:0001a6f8       ?fp_format_f_internal@@YAHQEAD_KHQEAU_strflt@@_NAEAV__crt_cached_ptd_host@@@Z 000000018001b6f8 f   libucrt:cvt.obj
 0001:0001a850       ?fp_format_g@@YAHQEBNQEAD_K12H_NIW4__acrt_rounding_mode@@AEAV__crt_cached_ptd_host@@@Z 000000018001b850 f   libucrt:cvt.obj
 0001:0001a9a4       ?should_round_up@@YA_NQEBN_KFW4__acrt_rounding_mode@@@Z 000000018001b9a4 f   libucrt:cvt.obj
 0001:0001b0f0       ?initialize_inherited_file_handles_nolock@@YAXXZ 000000018001c0f0 f   libucrt:ioinit.obj
 0001:0001b1e0       ?initialize_stdio_handles_nolock@@YAXXZ 000000018001c1e0 f   libucrt:ioinit.obj
 0001:0001b458       ?<lambda_invoker_cdecl>@<lambda_a1ce4c8ae42411fd470c77163914f50e>@@CAHPEBX0@Z 000000018001c458 f   libucrt:argv_wildcards.obj
 0001:0001b774       ??$common_expand_argv_wildcards@D@@YAHQEAPEADQEAPEAPEAD@Z 000000018001c774 f   libucrt:argv_wildcards.obj
 0001:0001b9b8       ??$copy_and_add_argument_to_buffer@D@@YAHQEBD0_KAEAV?$argument_list@D@?A0x5f5c8891@@@Z 000000018001c9b8 f   libucrt:argv_wildcards.obj
 0001:0001bb40       ??$expand_argument_wildcards@D@@YAHQEAD0AEAV?$argument_list@D@?A0x5f5c8891@@@Z 000000018001cb40 f   libucrt:argv_wildcards.obj
 0001:0001c174       ??$?RV<lambda_efdfa57d1f175319df784efa44bb7b81>@@AEAV<lambda_5f0a4c1567f8adc6734073e5d1e1b35c>@@V<lambda_2e8a7d3640ea6ccb4c2413664c2db6fd>@@@?$__crt_seh_guarded_call@X@@QEAAX$$QEAV<lambda_efdfa57d1f175319df784efa44bb7b81>@@AEAV<lambda_5f0a4c1567f8adc6734073e5d1e1b35c>@@$$QEAV<lambda_2e8a7d3640ea6ccb4c2413664c2db6fd>@@@Z 000000018001d174 f   libucrt:mbctype.obj
 0001:0001c344       ?getSystemCP@@YAHH@Z       000000018001d344 f   libucrt:mbctype.obj
 0001:0001c3c4       ?setSBCS@@YAXPEAU__crt_multibyte_data@@@Z 000000018001d3c4 f   libucrt:mbctype.obj
 0001:0001c45c       ?setSBUpLow@@YAXPEAU__crt_multibyte_data@@@Z 000000018001d45c f   libucrt:mbctype.obj
 0001:0001c644       ?setmbcp_internal@@YAHH_NQEAU__acrt_ptd@@QEAPEAU__crt_multibyte_data@@@Z 000000018001d644 f   libucrt:mbctype.obj
 0001:0001c8b4       ?update_thread_multibyte_data_internal@@YAPEAU__crt_multibyte_data@@QEAU__acrt_ptd@@QEAPEAU1@@Z 000000018001d8b4 f   libucrt:mbctype.obj
 0001:0001cca8       ?x_ismbbtype_l@@YAHPEAU__crt_locale_pointers@@IHH@Z 000000018001dca8 f   libucrt:ismbbyte.obj
 0001:0001d078       ??$?RV<lambda_450d765d439847d4c735a33c368b5fc0>@@AEAV<lambda_44731a7d0e6d81c3e6aa82d741081786>@@V<lambda_601a2a7da3b7a96e9554ac7215c4b07c>@@@?$__crt_seh_guarded_call@P6AXH@Z@@QEAAP6AXH@Z$$QEAV<lambda_450d765d439847d4c735a33c368b5fc0>@@AEAV<lambda_44731a7d0e6d81c3e6aa82d741081786>@@$$QEAV<lambda_601a2a7da3b7a96e9554ac7215c4b07c>@@@Z 000000018001e078 f   libucrt:signal.obj
 0001:0001d3f0       ??$?RV<lambda_842d9ff0dc9ef11c61343bbaebe7f885>@@AEAV<lambda_c5860995281e5c4ce005b3de8f5874ee>@@V<lambda_d90129c13df834fdcbf8d2b88dafcf2d>@@@?$__crt_seh_guarded_call@X@@QEAAX$$QEAV<lambda_842d9ff0dc9ef11c61343bbaebe7f885>@@AEAV<lambda_c5860995281e5c4ce005b3de8f5874ee>@@$$QEAV<lambda_d90129c13df834fdcbf8d2b88dafcf2d>@@@Z 000000018001e3f0 f   libucrt:fflush.obj
 0001:0001d48c       ??$?RV<lambda_886d6c58226a84441f68b9f2b8217b83>@@AEAV<lambda_ab61a845afdef5b7c387490eaf3616ee>@@V<lambda_f7f22ab5edc0698d5f6905b0d3f44752>@@@?$__crt_seh_guarded_call@X@@QEAAX$$QEAV<lambda_886d6c58226a84441f68b9f2b8217b83>@@AEAV<lambda_ab61a845afdef5b7c387490eaf3616ee>@@$$QEAV<lambda_f7f22ab5edc0698d5f6905b0d3f44752>@@@Z 000000018001e48c f   libucrt:fflush.obj
 0001:0001d56c       ?common_flush_all@@YAH_N@Z 000000018001e56c f   libucrt:fflush.obj
 0001:0001dcb8       ?free_crt_array_internal@@YAXQEAPEBX_K@Z 000000018001ecb8 f   libucrt:inittime.obj
 0001:0001f89c       memcpy_s                   000000018002089c f   libucrt:cfout.obj
 0001:000204a0       fallbackMethod             00000001800214a0 f   libucrt:strpbrk.obj
 0001:0002084c       $LN78                      000000018002184c     libucrt:strpbrk.obj
 0001:00020888       $LN77                      0000000180021888     libucrt:strpbrk.obj
 0001:000208c8       $LN76                      00000001800218c8     libucrt:strpbrk.obj
 0001:000209a4       ?__acrt_LCMapStringA_stat@@YAHPEAU__crt_locale_pointers@@PEB_WKPEBDHPEADHHH@Z 00000001800219a4 f   libucrt:lcmapstringa.obj
 0001:00020d5c       ?initialize_multibyte@@YAHXZ 0000000180021d5c f   libucrt:multibyte_initializer.obj
 0001:00020d74       ??$?RV<lambda_a37b2b86f63e897a80ea819b0eb08c01>@@AEAV<lambda_38ce7e780aa69e748d6df282ebc68efe>@@V<lambda_99fb1378e971ab6e7edea83e3a7a83a2>@@@?$__crt_seh_guarded_call@H@@QEAAH$$QEAV<lambda_a37b2b86f63e897a80ea819b0eb08c01>@@AEAV<lambda_38ce7e780aa69e748d6df282ebc68efe>@@$$QEAV<lambda_99fb1378e971ab6e7edea83e3a7a83a2>@@@Z 0000000180021d74 f   libucrt:commit.obj
 0001:00020e94       ?write_double_translated_ansi_nolock@@YA?AUwrite_result@?A0x17268360@@HQEBDIAEAV__crt_cached_ptd_host@@@Z 0000000180021e94 f   libucrt:write.obj
 0001:00021320       ?write_text_ansi_nolock@@YA?AUwrite_result@?A0x17268360@@HQEBDI@Z 0000000180022320 f   libucrt:write.obj
 0001:00021424       ?write_text_utf16le_nolock@@YA?AUwrite_result@?A0x17268360@@HQEBDI@Z 0000000180022424 f   libucrt:write.obj
 0001:00021540       ?write_text_utf8_nolock@@YA?AUwrite_result@?A0x17268360@@HQEBDI@Z 0000000180022540 f   libucrt:write.obj
 0001:00021d20       $$000000                   0000000180022d20     libucrt:log10.obj
 0001:000227bc       ?_fclose_internal@@YAHQEAU_iobuf@@AEAV__crt_cached_ptd_host@@@Z 00000001800237bc f   libucrt:fclose.obj
 0001:00022838       ?_fclose_nolock_internal@@YAHQEAU_iobuf@@AEAV__crt_cached_ptd_host@@@Z 0000000180023838 f   libucrt:fclose.obj
 0001:00022974       ??$common_lseek_nolock@_J@@YA_JH_JHAEAV__crt_cached_ptd_host@@@Z 0000000180023974 f   libucrt:lseek.obj
 0001:00022afc       common_control87           0000000180023afc f   libucrt:ieee.obj
 0001:00022dbc       _call_matherr              0000000180023dbc f   libucrt:libm_error.obj
 0001:00022e24       _exception_enabled         0000000180023e24 f   libucrt:libm_error.obj
 0001:000230c0       _log_special_common        00000001800240c0 f   libucrt:log_special.obj
 0001:00023158       ??$?RV<lambda_ad8af0d99a0adf03d037d7dffe354bb5>@@AEAV<lambda_c9ba49e555ba839a7b07aa3fbecb7617>@@V<lambda_2f1ebd5d68526518146ae959c9e734c8>@@@?$__crt_seh_guarded_call@H@@QEAAH$$QEAV<lambda_ad8af0d99a0adf03d037d7dffe354bb5>@@AEAV<lambda_c9ba49e555ba839a7b07aa3fbecb7617>@@$$QEAV<lambda_2f1ebd5d68526518146ae959c9e734c8>@@@Z 0000000180024158 f   libucrt:close.obj
 0001:000234b0       $$000000                   00000001800244b0     libucrt:fpsr.obj
 0001:00023c30       $$000000                   0000000180024c30     LIBCMT:guard_dispatch.obj
 0001:00023c50       $$000000                   0000000180024c50     LIBCMT:guard_xfg_dispatch.obj
 0001:00023c70       ?filt$0@?0??_AtlVerifyStackAvailable@_ATL_SAFE_ALLOCA_IMPL@ATL@@YA_N_K@Z@4HA 0000000180024c70 f   SoundPlayer.obj
 0001:00023c91       __scrt_is_nonwritable_in_current_image$filt$0 0000000180024c91 f   LIBCMT:utility.obj
 0001:00023ca9       ?catch$0@?0???2@YAPEAX_KAEBUnothrow_t@std@@@Z@4HA 0000000180024ca9 f   LIBCMT:new_scalar_nothrow.obj
 0001:00023cb6       __catch$??2@YAPEAX_KAEBUnothrow_t@std@@@Z$0 0000000180024cb6 f   LIBCMT:new_scalar_nothrow.obj
 0001:00023cc7       ?fin$0@?0??dllmain_crt_process_attach@@YAHQEAUHINSTANCE__@@QEAX@Z@4HA 0000000180024cc7 f   LIBCMT:dll_dllmain.obj
 0001:00023cde       ?fin$0@?0??dllmain_crt_process_detach@@YAH_N@Z@4HA 0000000180024cde f   LIBCMT:dll_dllmain.obj
 0001:00023cf7       ?fin$1@?0??dllmain_crt_process_detach@@YAH_N@Z@4HA 0000000180024cf7 f   LIBCMT:dll_dllmain.obj
 0001:00023d0b       ?filt$0@?0??dllmain_dispatch@@YAHQEAUHINSTANCE__@@KQEAX@Z@4HA 0000000180024d0b f   LIBCMT:dll_dllmain.obj
 0001:00023d41       ?filt$0@?0???$_CallSETranslator@V__FrameHandler3@@@@YAHPEAUEHExceptionRecord@@PEA_KPEAU_CONTEXT@@PEAU_xDISPATCHER_CONTEXT@@PEBU_s_FuncInfo@@K1H@Z@4HA 0000000180024d41 f   libvcruntime:risctrnsctrl.obj
 0001:00023dd2       ?filt$0@?0???$_CallSETranslator@V__FrameHandler4@@@@YAHPEAUEHExceptionRecord@@PEA_KPEAU_CONTEXT@@PEAU_xDISPATCHER_CONTEXT@@PEAUFuncInfo4@FH4@@K1H@Z@4HA 0000000180024dd2 f   libvcruntime:risctrnsctrl.obj
 0001:00023e71       __DestructExceptionObject$filt$0 0000000180024e71 f   libvcruntime:ehhelpers.obj
 0001:00023f07       ?filt$0@?0??CxxCallCatchBlock@__FrameHandler3@@SAPEAXPEAU_EXCEPTION_RECORD@@@Z@4HA 0000000180024f07 f   libvcruntime:frame.obj
 0001:00023f2c       ?fin$1@?0??CxxCallCatchBlock@__FrameHandler3@@SAPEAXPEAU_EXCEPTION_RECORD@@@Z@4HA 0000000180024f2c f   libvcruntime:frame.obj
 0001:00023fb2       ?filt$0@?0??CxxCallCatchBlock@__FrameHandler4@@SAPEAXPEAU_EXCEPTION_RECORD@@@Z@4HA 0000000180024fb2 f   libvcruntime:frame.obj
 0001:00023fe1       ?fin$1@?0??CxxCallCatchBlock@__FrameHandler4@@SAPEAXPEAU_EXCEPTION_RECORD@@@Z@4HA 0000000180024fe1 f   libvcruntime:frame.obj
 0001:00024072       ?filt$0@?0??FrameUnwindToState@__FrameHandler3@@SAXPEA_KPEAU_xDISPATCHER_CONTEXT@@PEBU_s_FuncInfo@@H@Z@4HA 0000000180025072 f   libvcruntime:frame.obj
 0001:00024088       ?fin$1@?0??FrameUnwindToState@__FrameHandler3@@SAXPEA_KPEAU_xDISPATCHER_CONTEXT@@PEBU_s_FuncInfo@@H@Z@4HA 0000000180025088 f   libvcruntime:frame.obj
 0001:000240ab       ?filt$0@?0??FrameUnwindToState@__FrameHandler4@@SAXPEA_KPEAU_xDISPATCHER_CONTEXT@@PEAUFuncInfo4@FH4@@H@Z@4HA 00000001800250ab f   libvcruntime:frame.obj
 0001:000240c1       ?fin$1@?0??FrameUnwindToState@__FrameHandler4@@SAXPEA_KPEAU_xDISPATCHER_CONTEXT@@PEAUFuncInfo4@FH4@@H@Z@4HA 00000001800250c1 f   libvcruntime:frame.obj
 0001:000240e4       ?fin$0@?0???$?RV<lambda_0ae27a3a962d80f24befdcbee591983d>@@AEAV<lambda_8d0ee55de4b1038c4002e0adecdf1839>@@V<lambda_dc504788e8f1664fe9b84e20bfb512f2>@@@?$__crt_seh_guarded_call@X@@QEAAX$$QEAV<lambda_0ae27a3a962d80f24befdcbee591983d>@@AEAV<lambda_8d0ee55de4b1038c4002e0adecdf1839>@@$$QEAV<lambda_dc504788e8f1664fe9b84e20bfb512f2>@@@Z@4HA 00000001800250e4 f   libucrt:per_thread_data.obj
 0001:000240e4       ?fin$0@?0???$?RV<lambda_2d41944a1d46af3157314b8a01080d33>@@AEAV<lambda_8f455de75cd7d7f24b4096f044d8b9e6>@@V<lambda_aa500f224e6afead328df44964fe2772>@@@?$__crt_seh_guarded_call@X@@QEAAX$$QEAV<lambda_2d41944a1d46af3157314b8a01080d33>@@AEAV<lambda_8f455de75cd7d7f24b4096f044d8b9e6>@@$$QEAV<lambda_aa500f224e6afead328df44964fe2772>@@@Z@4HA 00000001800250e4 f   libucrt:per_thread_data.obj
 0001:000240e4       ?fin$0@?0???$?RV<lambda_aa87e3671a710a21b5dc78c0bdf72e11>@@AEAV<lambda_92619d2358a28f41a33ba319515a20b9>@@V<lambda_6992ecaafeb10aed2b74cb1fae11a551>@@@?$__crt_seh_guarded_call@X@@QEAAX$$QEAV<lambda_aa87e3671a710a21b5dc78c0bdf72e11>@@AEAV<lambda_92619d2358a28f41a33ba319515a20b9>@@$$QEAV<lambda_6992ecaafeb10aed2b74cb1fae11a551>@@@Z@4HA 00000001800250e4 f   libucrt:per_thread_data.obj
 0001:000240e4       ?fin$0@?0???$?RV<lambda_f2e299630e499de9f9a165e60fcd3db5>@@AEAV<lambda_2ae9d31cdba2644fcbeaf08da7c24588>@@V<lambda_40d01ff24d0e7b3814fdbdcee8eab3c7>@@@?$__crt_seh_guarded_call@X@@QEAAX$$QEAV<lambda_f2e299630e499de9f9a165e60fcd3db5>@@AEAV<lambda_2ae9d31cdba2644fcbeaf08da7c24588>@@$$QEAV<lambda_40d01ff24d0e7b3814fdbdcee8eab3c7>@@@Z@4HA 00000001800250e4 f   libucrt:per_thread_data.obj
 0001:000240e4       ?fin$0@?0???$?RV<lambda_450d765d439847d4c735a33c368b5fc0>@@AEAV<lambda_44731a7d0e6d81c3e6aa82d741081786>@@V<lambda_601a2a7da3b7a96e9554ac7215c4b07c>@@@?$__crt_seh_guarded_call@P6AXH@Z@@QEAAP6AXH@Z$$QEAV<lambda_450d765d439847d4c735a33c368b5fc0>@@AEAV<lambda_44731a7d0e6d81c3e6aa82d741081786>@@$$QEAV<lambda_601a2a7da3b7a96e9554ac7215c4b07c>@@@Z@4HA 00000001800250e4 f   libucrt:signal.obj
 0001:000240e4       ?fin$0@?0???$?RV<lambda_d80eeec6fff315bfe5c115232f3240e3>@@AEAV<lambda_6e4b09c48022b2350581041d5f6b0c4c>@@V<lambda_2358e3775559c9db80273638284d5e45>@@@?$__crt_seh_guarded_call@X@@QEAAX$$QEAV<lambda_d80eeec6fff315bfe5c115232f3240e3>@@AEAV<lambda_6e4b09c48022b2350581041d5f6b0c4c>@@$$QEAV<lambda_2358e3775559c9db80273638284d5e45>@@@Z@4HA 00000001800250e4 f   libucrt:exit.obj
 0001:000240e4       ?fin$0@?0???$?RV<lambda_638799b9deba96c50f710eeac98168cd>@@AEAV<lambda_22ebabd17bc4fa466a2aca6d8deb888d>@@V<lambda_a6f7d7db0129f75315ebf26d50c089f1>@@@?$__crt_seh_guarded_call@H@@QEAAH$$QEAV<lambda_638799b9deba96c50f710eeac98168cd>@@AEAV<lambda_22ebabd17bc4fa466a2aca6d8deb888d>@@$$QEAV<lambda_a6f7d7db0129f75315ebf26d50c089f1>@@@Z@4HA 00000001800250e4 f   libucrt:onexit.obj
 0001:000240e4       ?fin$0@?0???$?RV<lambda_7777bce6b2f8c936911f934f8298dc43>@@AEAV<lambda_f03950bc5685219e0bcd2087efbe011e>@@V<lambda_3883c3dff614d5e0c5f61bb1ac94921c>@@@?$__crt_seh_guarded_call@H@@QEAAH$$QEAV<lambda_7777bce6b2f8c936911f934f8298dc43>@@AEAV<lambda_f03950bc5685219e0bcd2087efbe011e>@@$$QEAV<lambda_3883c3dff614d5e0c5f61bb1ac94921c>@@@Z@4HA 00000001800250e4 f   libucrt:onexit.obj
 0001:000240fe       ?filt$0@?0???R<lambda_6e4b09c48022b2350581041d5f6b0c4c>@@QEBA@XZ@4HA 00000001800250fe f   libucrt:exit.obj
 0001:0002412b       _query_new_handler$fin$0   000000018002512b f   libucrt:new_handler.obj
 0001:00024141       ?fin$0@?0???$?RV<lambda_410d79af7f07d98d83a3f525b3859a53>@@AEAV<lambda_3e16ef9562a7dcce91392c22ab16ea36>@@V<lambda_38119f0e861e05405d8a144b9b982f0a>@@@?$__crt_seh_guarded_call@X@@QEAAX$$QEAV<lambda_410d79af7f07d98d83a3f525b3859a53>@@AEAV<lambda_3e16ef9562a7dcce91392c22ab16ea36>@@$$QEAV<lambda_38119f0e861e05405d8a144b9b982f0a>@@@Z@4HA 0000000180025141 f   libucrt:wsetlocale.obj
 0001:0002415b       __acrt_initialize_lowio$fin$0 000000018002515b f   libucrt:ioinit.obj
 0001:0002415b       __acrt_lowio_ensure_fh_exists$fin$0 000000018002515b f   libucrt:osfinfo.obj
 0001:00024174       ?fin$0@?0???$?RV<lambda_efdfa57d1f175319df784efa44bb7b81>@@AEAV<lambda_5f0a4c1567f8adc6734073e5d1e1b35c>@@V<lambda_2e8a7d3640ea6ccb4c2413664c2db6fd>@@@?$__crt_seh_guarded_call@X@@QEAAX$$QEAV<lambda_efdfa57d1f175319df784efa44bb7b81>@@AEAV<lambda_5f0a4c1567f8adc6734073e5d1e1b35c>@@$$QEAV<lambda_2e8a7d3640ea6ccb4c2413664c2db6fd>@@@Z@4HA 0000000180025174 f   libucrt:mbctype.obj
 0001:0002418e       ?fin$0@?0??update_thread_multibyte_data_internal@@YAPEAU__crt_multibyte_data@@QEAU__acrt_ptd@@QEAPEAU1@@Z@4HA 000000018002518e f   libucrt:mbctype.obj
 0001:000241a7       raise$fin$0                00000001800251a7 f   libucrt:signal.obj
 0001:000241c8       ?fin$0@?0???$?RV<lambda_842d9ff0dc9ef11c61343bbaebe7f885>@@AEAV<lambda_c5860995281e5c4ce005b3de8f5874ee>@@V<lambda_d90129c13df834fdcbf8d2b88dafcf2d>@@@?$__crt_seh_guarded_call@X@@QEAAX$$QEAV<lambda_842d9ff0dc9ef11c61343bbaebe7f885>@@AEAV<lambda_c5860995281e5c4ce005b3de8f5874ee>@@$$QEAV<lambda_d90129c13df834fdcbf8d2b88dafcf2d>@@@Z@4HA 00000001800251c8 f   libucrt:fflush.obj
 0001:000241e3       ?fin$0@?0???$?RV<lambda_886d6c58226a84441f68b9f2b8217b83>@@AEAV<lambda_ab61a845afdef5b7c387490eaf3616ee>@@V<lambda_f7f22ab5edc0698d5f6905b0d3f44752>@@@?$__crt_seh_guarded_call@X@@QEAAX$$QEAV<lambda_886d6c58226a84441f68b9f2b8217b83>@@AEAV<lambda_ab61a845afdef5b7c387490eaf3616ee>@@$$QEAV<lambda_f7f22ab5edc0698d5f6905b0d3f44752>@@@Z@4HA 00000001800251e3 f   libucrt:fflush.obj
 0001:00024200       __acrt_update_thread_locale_data$fin$0 0000000180025200 f   libucrt:locale_refcounting.obj
 0001:00024219       _fcloseall$fin$0           0000000180025219 f   libucrt:closeall.obj
 0001:00024232       ?fin$0@?0???$?RV<lambda_ad8af0d99a0adf03d037d7dffe354bb5>@@AEAV<lambda_c9ba49e555ba839a7b07aa3fbecb7617>@@V<lambda_2f1ebd5d68526518146ae959c9e734c8>@@@?$__crt_seh_guarded_call@H@@QEAAH$$QEAV<lambda_ad8af0d99a0adf03d037d7dffe354bb5>@@AEAV<lambda_c9ba49e555ba839a7b07aa3fbecb7617>@@$$QEAV<lambda_2f1ebd5d68526518146ae959c9e734c8>@@@Z@4HA 0000000180025232 f   libucrt:close.obj
 0001:00024232       ?fin$0@?0???$?RV<lambda_a37b2b86f63e897a80ea819b0eb08c01>@@AEAV<lambda_38ce7e780aa69e748d6df282ebc68efe>@@V<lambda_99fb1378e971ab6e7edea83e3a7a83a2>@@@?$__crt_seh_guarded_call@H@@QEAAH$$QEAV<lambda_a37b2b86f63e897a80ea819b0eb08c01>@@AEAV<lambda_38ce7e780aa69e748d6df282ebc68efe>@@$$QEAV<lambda_99fb1378e971ab6e7edea83e3a7a83a2>@@@Z@4HA 0000000180025232 f   libucrt:commit.obj
 0001:0002424c       _write_internal$fin$0      000000018002524c f   libucrt:write.obj
 0001:00024263       ?fin$0@?0??_fclose_internal@@YAHQEAU_iobuf@@AEAV__crt_cached_ptd_host@@@Z@4HA 0000000180025263 f   libucrt:fclose.obj
 0001:0002427b       _ctrlfp$filt$0             000000018002527b f   libucrt:fpctrl.obj
 0001:0002427b       common_control87$filt$0    000000018002527b f   libucrt:ieee.obj
 0001:000242b0       _IsNonwritableInCurrentImage$filt$0 00000001800252b0 f   LIBCMT:pesect.obj
 0001:000242d0       ??__F_AtlComModule@ATL@@YAXXZ 00000001800252d0 f   OposVariant.obj
 0001:000242dc       ??__F_AtlWinModule@ATL@@YAXXZ 00000001800252dc f   OposVariant.obj
 0001:00024320       ??__F_Module@@YAXXZ        0000000180025320 f   SoundPlayer.obj
 0001:0002433c       ??__F_AtlBaseModule@ATL@@YAXXZ 000000018002533c f   atls:atlbase.obj
 0002:00000670       ?_AtlBaseModule$initializer$@ATL@@3P6AXXZEA 0000000180026670     atls:atlbase.obj
 0002:00000678       ?_AtlComModule$initializer$@ATL@@3P6AXXZEA 0000000180026678     OposVariant.obj
 0002:00000680       ?_AtlWinModule$initializer$@ATL@@3P6AXXZEA 0000000180026680     OposVariant.obj
 0002:00000688       ?_Module$initializer$@@3P6AXXZEA 0000000180026688     SoundPlayer.obj
 0002:00000690       ??pConnMap$initializer$@?$IConnectionPointContainerImpl@VCOPOSSoundPlayer@@@ATL@@0P6AXXZEA@@3P6AXXZEA 0000000180026690     SoundPlayer.obj
 0002:000006a8       ?__scrt_initialize_tss_var@@3P6AHXZEA 00000001800266a8     LIBCMT:thread_safe_statics.obj
 0002:00002658       GS_ExceptionPointers       0000000180028658     LIBCMT:gs_report.obj
 0002:00002840       ?ExceptionTemplate@?1??UnwindNestedFrames@__FrameHandler4@@SAXPEA_KPEAUEHExceptionRecord@@PEAU_CONTEXT@@0PEAXPEAUFuncInfo4@FH4@@HHPEAUHandlerType4@6@PEAU_xDISPATCHER_CONTEXT@@E@Z@4U_EXCEPTION_RECORD@@B 0000000180028840     libvcruntime:risctrnsctrl.obj
 0002:000028e0       ?ExceptionTemplate@?1??UnwindNestedFrames@__FrameHandler3@@SAXPEA_KPEAUEHExceptionRecord@@PEAU_CONTEXT@@0PEAXPEBU_s_FuncInfo@@HHPEBU_s_HandlerType@@PEAU_xDISPATCHER_CONTEXT@@E@Z@4U_EXCEPTION_RECORD@@B 00000001800288e0     libvcruntime:risctrnsctrl.obj
 0002:000029b0       ?tokenTable@@3QBUStringLiteral@@B 00000001800289b0     libvcruntime:undname.obj
 0002:00002ac0       ?nameTable@@3QBUStringLiteral@@B 0000000180028ac0     libvcruntime:undname.obj
 0002:00002ff0       ?rttiTable@@3QBUStringLiteral@@B 0000000180028ff0     libvcruntime:undname.obj
 0002:00003040       ?IndirectionName@@3QBUStringLiteral@@B 0000000180029040     libvcruntime:undname.obj
 0002:000030a0       ?PrefixName@@3QBUStringLiteral@@B 00000001800290a0     libvcruntime:undname.obj
 0002:00003788       ?module_names@?A0xbc0cc709@@3QBQEB_WB 0000000180029788     libvcruntime:winapi_downlevel.obj
 0002:00003848       ?candidate_modules@?1??try_get_FlsAlloc@@YAP6AKP6AXPEAX@Z@ZXZ@4QBW4module_id@?A0xbc0cc709@@B 0000000180029848     libvcruntime:winapi_downlevel.obj
 0002:00003860       ?candidate_modules@?1??try_get_FlsFree@@YAP6AHK@ZXZ@4QBW4module_id@?A0xbc0cc709@@B 0000000180029860     libvcruntime:winapi_downlevel.obj
 0002:00003870       ?candidate_modules@?1??try_get_FlsGetValue@@YAP6APEAXK@ZXZ@4QBW4module_id@?A0xbc0cc709@@B 0000000180029870     libvcruntime:winapi_downlevel.obj
 0002:00003888       ?candidate_modules@?1??try_get_FlsSetValue@@YAP6AHKPEAX@ZXZ@4QBW4module_id@?A0xbc0cc709@@B 0000000180029888     libvcruntime:winapi_downlevel.obj
 0002:000038a0       ?candidate_modules@?1??try_get_InitializeCriticalSectionEx@@YAP6AHPEAU_RTL_CRITICAL_SECTION@@KK@ZXZ@4QBW4module_id@?A0xbc0cc709@@B 00000001800298a0     libvcruntime:winapi_downlevel.obj
 0002:000038d0       ?errtable@@3QBUerrentry@?A0x31fdb9ec@@B 00000001800298d0     libucrt:errno.obj
 0002:00003c38       $cppxdata$?try_cor_exit_process@@YAXI@Z 0000000180029c38     libucrt:exit.obj
 0002:00003c60       $cppxdata$?common_exit@@YAXHW4_crt_exit_cleanup_mode@@W4_crt_exit_return_mode@@@Z 0000000180029c60     libucrt:exit.obj
 0002:00003cb0       $cppxdata$__dcrt_uninitialize_environments_nolock 0000000180029cb0     libucrt:environment_initialization.obj
 0002:00003cd8       $cppxdata$_execute_onexit_table 0000000180029cd8     libucrt:onexit.obj
 0002:00003d00       __acrt_initializers        0000000180029d00     libucrt:initialization.obj
 0002:00004480       ?module_names@?A0x391cf84c@@3QBQEB_WB 000000018002a480     libucrt:winapi_thunks.obj
 0002:00004988       ?candidate_modules@?1??try_get_AreFileApisANSI@@YAP6AHXZXZ@4QBW4module_id@?A0x391cf84c@@B 000000018002a988     libucrt:winapi_thunks.obj
 0002:000049a0       ?candidate_modules@?1??try_get_InitializeCriticalSectionEx@@YAP6AHPEAU_RTL_CRITICAL_SECTION@@KK@ZXZ@4QBW4module_id@?A0x391cf84c@@B 000000018002a9a0     libucrt:winapi_thunks.obj
 0002:000049a8       ?candidate_modules@?1??try_get_LCMapStringEx@@YAP6AHPEB_WK0HPEA_WHPEAU_nlsversioninfo@@PEAX_J@ZXZ@4QBW4module_id@?A0x391cf84c@@B 000000018002a9a8     libucrt:winapi_thunks.obj
 0002:000049c0       ?candidate_modules@?1??try_get_LocaleNameToLCID@@YAP6AKPEB_WK@ZXZ@4QBW4module_id@?A0x391cf84c@@B 000000018002a9c0     libucrt:winapi_thunks.obj
 0002:000049dc       ?candidate_modules@?1??try_get_AppPolicyGetProcessTerminationMethod@@YAP6AJPEAXPEAW4AppPolicyProcessTerminationMethod@@@ZXZ@4QBW4module_id@?A0x391cf84c@@B 000000018002a9dc     libucrt:winapi_thunks.obj
 0002:00004a08       ?candidate_modules@?1??try_get_SetThreadStackGuarantee@@YAP6AHPEAK@ZXZ@4QBW4module_id@?A0x391cf84c@@B 000000018002aa08     libucrt:winapi_thunks.obj
 0002:00004a30       ?strings@?1??fp_format_nan_or_infinity@@YAHW4__acrt_fp_class@@_NPEAD_K1@Z@4QAY03QEBDA 000000018002aa30     libucrt:cvt.obj
 0002:00004b08       ?_mb_locale_names@@3QBQEB_WB 000000018002ab08     libucrt:mbctype.obj
 0002:00005180       ?LcidToLocaleNameTable@?A0x881e4c05@@3QBULcidToLocaleName@1@B 000000018002b180     libucrt:lcidtoname_downlevel.obj
 0002:00006bd0       ?LocaleNameToIndexTable@?A0x881e4c05@@3QBULocaleNameIndex@1@B 000000018002cbd0     libucrt:lcidtoname_downlevel.obj
 0002:00008e60       $cppxdata$?write_double_translated_ansi_nolock@@YA?AUwrite_result@?A0x17268360@@HQEBDIAEAV__crt_cached_ptd_host@@@Z 000000018002ee60     libucrt:write.obj
 0002:00008e90       __real_ninf                000000018002ee90     libucrt:log10.obj
 0002:00008ea0       __real_inf                 000000018002eea0     libucrt:log10.obj
 0002:00008eb0       __real_neg_qnan            000000018002eeb0     libucrt:log10.obj
 0002:00008ec0       __real_qnanbit             000000018002eec0     libucrt:log10.obj
 0002:00008ed0       __int_1023                 000000018002eed0     libucrt:log10.obj
 0002:00008ee0       __mask_001                 000000018002eee0     libucrt:log10.obj
 0002:00008ef0       __mask_mant                000000018002eef0     libucrt:log10.obj
 0002:00008f00       __mask_mant_top8           000000018002ef00     libucrt:log10.obj
 0002:00008f10       __mask_mant9               000000018002ef10     libucrt:log10.obj
 0002:00008f20       __real_log10_e             000000018002ef20     libucrt:log10.obj
 0002:00008f30       __real_log10_e_lead        000000018002ef30     libucrt:log10.obj
 0002:00008f40       __real_log10_e_tail        000000018002ef40     libucrt:log10.obj
 0002:00008f50       __real_log10_2_lead        000000018002ef50     libucrt:log10.obj
 0002:00008f60       __real_log10_2_tail        000000018002ef60     libucrt:log10.obj
 0002:00008f70       __real_two                 000000018002ef70     libucrt:log10.obj
 0002:00008f80       __real_one                 000000018002ef80     libucrt:log10.obj
 0002:00008f90       __real_half                000000018002ef90     libucrt:log10.obj
 0002:00008fa0       __mask_100                 000000018002efa0     libucrt:log10.obj
 0002:00008fb0       __real_1_over_512          000000018002efb0     libucrt:log10.obj
 0002:00008fc0       __real_1_over_2            000000018002efc0     libucrt:log10.obj
 0002:00008fd0       __real_1_over_3            000000018002efd0     libucrt:log10.obj
 0002:00008fe0       __real_1_over_4            000000018002efe0     libucrt:log10.obj
 0002:00008ff0       __real_1_over_5            000000018002eff0     libucrt:log10.obj
 0002:00009000       __real_1_over_6            000000018002f000     libucrt:log10.obj
 0002:00009010       __real_neg_1023            000000018002f010     libucrt:log10.obj
 0002:00009020       __mask_2045                000000018002f020     libucrt:log10.obj
 0002:00009030       __real_threshold           000000018002f030     libucrt:log10.obj
 0002:00009040       __real_near_one_lt         000000018002f040     libucrt:log10.obj
 0002:00009050       __real_near_one_gt         000000018002f050     libucrt:log10.obj
 0002:00009060       __real_min_norm            000000018002f060     libucrt:log10.obj
 0002:00009070       __real_notsign             000000018002f070     libucrt:log10.obj
 0002:00009080       __real_ca1                 000000018002f080     libucrt:log10.obj
 0002:00009090       __real_ca2                 000000018002f090     libucrt:log10.obj
 0002:000090a0       __real_ca3                 000000018002f0a0     libucrt:log10.obj
 0002:000090b0       __real_ca4                 000000018002f0b0     libucrt:log10.obj
 0002:000090c0       __mask_lower               000000018002f0c0     libucrt:log10.obj
 0002:000090d0       __flag_x_zero              000000018002f0d0     libucrt:log10.obj
 0002:000090d4       __flag_x_neg               000000018002f0d4     libucrt:log10.obj
 0002:000090d8       __flag_x_nan               000000018002f0d8     libucrt:log10.obj
 0002:0000a930       __real@433fffffffffffff    0000000180030930     libucrt:fpsr.obj
 0002:0000a938       __real@c33fffffffffffff    0000000180030938     libucrt:fpsr.obj
 0002:0000b248       $unwind$?cw_memcpy@@YAHPEA_WPEBDH@Z 0000000180031248     CWString.obj
 0002:0000b248       $unwind$_invalid_parameter_noinfo 0000000180031248     libucrt:invalid_parameter.obj
 0002:0000b248       $unwind$?state_case_size@?$output_processor@_WV?$string_output_adapter@_W@__crt_stdio_output@@V?$format_validation_base@_WV?$string_output_adapter@_W@__crt_stdio_output@@@2@@__crt_stdio_output@@AEAA_NXZ 0000000180031248     libucrt:output.obj
 0002:0000b248       $unwind$_log10_special     0000000180031248     libucrt:log_special.obj
 0002:0000b250       $unwind$?cw_strcpy@@YAHPEA_WPEBD@Z 0000000180031250     CWString.obj
 0002:0000b250       $unwind$??1OposDispParms@@QEAA@XZ 0000000180031250     OposVariant.obj
 0002:0000b250       $unwind$??__E_AtlComModule@ATL@@YAXXZ 0000000180031250     OposVariant.obj
 0002:0000b250       $unwind$??__E_AtlWinModule@ATL@@YAXXZ 0000000180031250     OposVariant.obj
 0002:0000b250       $unwind$??__F_AtlWinModule@ATL@@YAXXZ 0000000180031250     OposVariant.obj
 0002:0000b250       $unwind$?GetLONG@OposVariant@@QEAAJXZ 0000000180031250     OposVariant.obj
 0002:0000b250       $unwind$??__E?pConnMap@?$IConnectionPointContainerImpl@VCOPOSSoundPlayer@@@ATL@@0PEBU_ATL_CONNMAP_ENTRY@2@EB@@YAXXZ 0000000180031250     SoundPlayer.obj
 0002:0000b250       $unwind$?AddReplacement@CRegObject@ATL@@UEAAJPEB_W0@Z 0000000180031250     SoundPlayer.obj
 0002:0000b250       $unwind$?AtlHresultFromLastError@ATL@@YAJXZ 0000000180031250     SoundPlayer.obj
 0002:0000b250       $unwind$?AtlThrowImpl@ATL@@YAXJ@Z 0000000180031250     SoundPlayer.obj
 0002:0000b250       $unwind$?CreateInstance@CComClassFactory@ATL@@UEAAJPEAUIUnknown@@AEBU_GUID@@PEAPEAX@Z 0000000180031250     SoundPlayer.obj
 0002:0000b250       $unwind$?DefaultReflectionHandler@?$CWindowImplRoot@VCWindow@ATL@@@ATL@@SAHPEAUHWND__@@I_K_JAEA_J@Z 0000000180031250     SoundPlayer.obj
 0002:0000b250       $unwind$?EnumAdvise@?$IOleObjectImpl@VCOPOSSoundPlayer@@@ATL@@UEAAJPEAPEAUIEnumSTATDATA@@@Z 0000000180031250     SoundPlayer.obj
 0002:0000b250       $unwind$?FireViewChange@CComControlBase@ATL@@QEAAJXZ 0000000180031250     SoundPlayer.obj
 0002:0000b250       $unwind$?GetAdvise@?$IViewObjectExImpl@VCOPOSSoundPlayer@@@ATL@@UEAAJPEAK0PEAPEAUIAdviseSink@@@Z 0000000180031250     SoundPlayer.obj
 0002:0000b250       $unwind$?LockServer@CComClassFactory@ATL@@UEAAJH@Z 0000000180031250     SoundPlayer.obj
 0002:0000b250       $unwind$?OnDocWindowActivate@?$IOleInPlaceActiveObjectImpl@VCOPOSSoundPlayer@@@ATL@@UEAAJH@Z 0000000180031250     SoundPlayer.obj
 0002:0000b250       $unwind$?Unadvise@?$IOleObjectImpl@VCOPOSSoundPlayer@@@ATL@@UEAAJK@Z 0000000180031250     SoundPlayer.obj
 0002:0000b250       $unwind$?_LocCPQueryInterface@?$IConnectionPointImpl@VCOPOSSoundPlayer@@$1?DIID__IOPOSSoundPlayerEvents@@3U_GUID@@BVCComDynamicUnkArray@ATL@@@ATL@@UEAAJAEBU_GUID@@PEAPEAX@Z 0000000180031250     SoundPlayer.obj
 0002:0000b250       $unwind$?_LocCPQueryInterface@?$IConnectionPointImpl@VCOPOSSoundPlayer@@$1?IID_IPropertyNotifySink@@3U_GUID@@BVCComDynamicUnkArray@ATL@@@ATL@@UEAAJAEBU_GUID@@PEAPEAX@Z 0000000180031250     SoundPlayer.obj
 0002:0000b250       $unwind$?FinalConstruct@COPOSSoundPlayer@@QEAAJXZ 0000000180031250     SoundPlayerImpl.obj
 0002:0000b250       $unwind$?get_ResultCode@COPOSSoundPlayer@@UEAAJPEAJ@Z 0000000180031250     SoundPlayerImpl.obj
 0002:0000b250       $unwind$?get_State@COPOSSoundPlayer@@UEAAJPEAJ@Z 0000000180031250     SoundPlayerImpl.obj
 0002:0000b250       $unwind$__dcrt_terminate_console_output 0000000180031250     libucrt:initcon.obj
 0002:0000b250       $unwind$??$uninitialize_environment_internal@D@@YAXAEAPEAPEAD@Z 0000000180031250     libucrt:environment_initialization.obj
 0002:0000b250       $unwind$??$uninitialize_environment_internal@_W@@YAXAEAPEAPEA_W@Z 0000000180031250     libucrt:environment_initialization.obj
 0002:0000b250       $unwind$__acrt_initialize_heap 0000000180031250     libucrt:heap_handle.obj
 0002:0000b250       $unwind$_msize_base        0000000180031250     libucrt:msize.obj
 0002:0000b250       $unwind$?initialize_multibyte@@YAHXZ 0000000180031250     libucrt:multibyte_initializer.obj
 0002:0000b250       $unwind$__acrt_thread_attach 0000000180031250     libucrt:initialization.obj
 0002:0000b250       $unwind$__acrt_thread_detach 0000000180031250     libucrt:initialization.obj
 0002:0000b250       $unwind$__acrt_uninitialize 0000000180031250     libucrt:initialization.obj
 0002:0000b250       $unwind$__acrt_uninitialize_critical 0000000180031250     libucrt:initialization.obj
 0002:0000b250       $unwind$initialize_c       0000000180031250     libucrt:initialization.obj
 0002:0000b250       $unwind$uninitialize_allocated_io_buffers 0000000180031250     libucrt:initialization.obj
 0002:0000b250       $unwind$uninitialize_environment 0000000180031250     libucrt:initialization.obj
 0002:0000b250       $unwind$__acrt_initialize_ptd 0000000180031250     libucrt:per_thread_data.obj
 0002:0000b250       $unwind$__acrt_uninitialize_ptd 0000000180031250     libucrt:per_thread_data.obj
 0002:0000b250       $unwind$__acrt_AreFileApisANSI 0000000180031250     libucrt:winapi_thunks.obj
 0002:0000b250       $unwind$__acrt_release_locale_ref 0000000180031250     libucrt:locale_refcounting.obj
 0002:0000b250       $unwind$_isatty            0000000180031250     libucrt:isatty.obj
 0002:0000b250       $unwind$_get_osfhandle     0000000180031250     libucrt:osfinfo.obj
 0002:0000b250       $unwind$__acrt_initialize_multibyte 0000000180031250     libucrt:mbctype.obj
 0002:0000b250       $unwind$__acrt_update_thread_multibyte_data 0000000180031250     libucrt:mbctype.obj
 0002:0000b250       $unwind$__doserrno         0000000180031250     libucrt:errno.obj
 0002:0000b250       $unwind$_errno             0000000180031250     libucrt:errno.obj
 0002:0000b250       $unwind$_invoke_watson     0000000180031250     libucrt:invalid_parameter.obj
 0002:0000b250       $unwind$abort              0000000180031250     libucrt:abort.obj
 0002:0000b250       $unwind$__acrt_initialize_command_line 0000000180031250     libucrt:argv_data.obj
 0002:0000b250       $unwind$?should_call_terminate_process@@YA_NXZ 0000000180031250     libucrt:exit.obj
 0002:0000b250       $unwind$_fileno            0000000180031250     libucrt:fileno.obj
 0002:0000b250       $unwind$_statfp            0000000180031250     libucrt:fpctrl.obj
 0002:0000b250       $unwind$fegetround         0000000180031250     libucrt:fegetround.obj
 0002:0000b250       $unwind$_set_errno_from_matherr 0000000180031250     libucrt:fpexcept.obj
 0002:0000b250       $unwind$??__E_AtlBaseModule@ATL@@YAXXZ 0000000180031250     atls:atlbase.obj
 0002:0000b250       $unwind$__scrt_initialize_default_local_stdio_options 0000000180031250     LIBCMT:default_local_stdio_options.obj
 0002:0000b250       $unwind$?dllmain_crt_dispatch@@YAHQEAUHINSTANCE__@@KQEAX@Z 0000000180031250     LIBCMT:dll_dllmain.obj
 0002:0000b250       $unwind$__report_rangecheckfailure 0000000180031250     LIBCMT:gs_report.obj
 0002:0000b250       $unwind$__GSHandlerCheck   0000000180031250     LIBCMT:gshandler.obj
 0002:0000b250       $unwind$?__scrt_uninitialize_thread_safe_statics@@YAXXZ 0000000180031250     LIBCMT:thread_safe_statics.obj
 0002:0000b250       $unwind$_Init_thread_notify 0000000180031250     LIBCMT:thread_safe_statics.obj
 0002:0000b250       $unwind$__scrt_acquire_startup_lock 0000000180031250     LIBCMT:utility.obj
 0002:0000b250       $unwind$__scrt_dllmain_after_initialize_c 0000000180031250     LIBCMT:utility.obj
 0002:0000b250       $unwind$__scrt_dllmain_before_initialize_c 0000000180031250     LIBCMT:utility.obj
 0002:0000b250       $unwind$__scrt_dllmain_crt_thread_attach 0000000180031250     LIBCMT:utility.obj
 0002:0000b250       $unwind$__scrt_dllmain_crt_thread_detach 0000000180031250     LIBCMT:utility.obj
 0002:0000b250       $unwind$__scrt_dllmain_uninitialize_c 0000000180031250     LIBCMT:utility.obj
 0002:0000b250       $unwind$__scrt_dllmain_uninitialize_critical 0000000180031250     LIBCMT:utility.obj
 0002:0000b250       $unwind$atexit             0000000180031250     LIBCMT:utility.obj
 0002:0000b250       $unwind$__std_terminate    0000000180031250     libvcruntime:ehhelpers.obj
 0002:0000b250       $unwind$?GetCurrentState@__FrameHandler3@@SAHPEA_KPEAU_xDISPATCHER_CONTEXT@@PEBU_s_FuncInfo@@@Z 0000000180031250     libvcruntime:ehstate.obj
 0002:0000b250       $unwind$__vcrt_initialize  0000000180031250     libvcruntime:initialization.obj
 0002:0000b250       $unwind$__vcrt_thread_attach 0000000180031250     libvcruntime:initialization.obj
 0002:0000b250       $unwind$__vcrt_thread_detach 0000000180031250     libvcruntime:initialization.obj
 0002:0000b250       $unwind$__vcrt_uninitialize 0000000180031250     libvcruntime:initialization.obj
 0002:0000b250       $unwind$__vcrt_uninitialize_critical 0000000180031250     libvcruntime:initialization.obj
 0002:0000b250       $unwind$__vcrt_freefls     0000000180031250     libvcruntime:per_thread_data.obj
 0002:0000b250       $unwind$__vcrt_getptd      0000000180031250     libvcruntime:per_thread_data.obj
 0002:0000b250       $unwind$__vcrt_initialize_ptd 0000000180031250     libvcruntime:per_thread_data.obj
 0002:0000b250       $unwind$__vcrt_uninitialize_ptd 0000000180031250     libvcruntime:per_thread_data.obj
 0002:0000b250       $unwind$_purecall          0000000180031250     libvcruntime:purevirt.obj
 0002:0000b250       $unwind$?FrameUnwindToEmptyState@__FrameHandler4@@SAXPEA_KPEAU_xDISPATCHER_CONTEXT@@PEAUFuncInfo4@FH4@@@Z 0000000180031250     libvcruntime:risctrnsctrl.obj
 0002:0000b250       $unwind$_GetImageBase      0000000180031250     libvcruntime:risctrnsctrl.obj
 0002:0000b250       $unwind$_GetThrowImageBase 0000000180031250     libvcruntime:risctrnsctrl.obj
 0002:0000b258       $unwind$?cw_dup@@YAXPEBDAEAHAEAPEA_W1@Z 0000000180031258     CWString.obj
 0002:0000b258       $unwind$?DAdvise@?$IDataObjectImpl@VCOPOSSoundPlayer@@@ATL@@UEAAJPEAUtagFORMATETC@@KPEAUIAdviseSink@@PEAK@Z 0000000180031258     SoundPlayer.obj
 0002:0000b258       $unwind$??$create_environment@D@@YAQEAPEADQEAD@Z 0000000180031258     libucrt:environment_initialization.obj
 0002:0000b258       $unwind$_mbtowc_internal   0000000180031258     libucrt:mbtowc.obj
 0002:0000b258       $unwind$??$__acrt_convert_wcs_mbs_cp@D_WV<lambda_7c9dea7b4ca7285d2cdb541a38da6275>@@U__crt_win32_buffer_internal_dynamic_resizing@@@@YAHQEBDAEAV?$__crt_win32_buffer@_WU__crt_win32_buffer_internal_dynamic_resizing@@@@AEBV<lambda_7c9dea7b4ca7285d2cdb541a38da6275>@@I@Z 0000000180031258     libucrt:argv_wildcards.obj
 0002:0000b258       $unwind$?process@?$output_processor@_WV?$string_output_adapter@_W@__crt_stdio_output@@V?$format_validation_base@_WV?$string_output_adapter@_W@__crt_stdio_output@@@2@@__crt_stdio_output@@QEAAHXZ 0000000180031258     libucrt:output.obj
 0002:0000b270       $unwind$?DupWide@_CW@@AEAAXXZ 0000000180031270     CWString.obj
 0002:0000b270       $unwind$??0CAtlComModule@ATL@@QEAA@XZ 0000000180031270     OposVariant.obj
 0002:0000b270       $unwind$??0CAtlWinModule@ATL@@QEAA@XZ 0000000180031270     OposVariant.obj
 0002:0000b270       $unwind$??0?$CComObject@VCOPOSSoundPlayer@@@ATL@@QEAA@PEAX@Z 0000000180031270     SoundPlayer.obj
 0002:0000b270       $unwind$??0CAtlModule@ATL@@QEAA@XZ 0000000180031270     SoundPlayer.obj
 0002:0000b270       $unwind$??1?$CComObject@VCOPOSSoundPlayer@@@ATL@@UEAA@XZ 0000000180031270     SoundPlayer.obj
 0002:0000b270       $unwind$??__E_Module@@YAXXZ 0000000180031270     SoundPlayer.obj
 0002:0000b270       $unwind$?AddRef@?$CComObjectCached@VCComClassFactory@ATL@@@ATL@@UEAAKXZ 0000000180031270     SoundPlayer.obj
 0002:0000b270       $unwind$?AllocateHeap@?$CTempBuffer@E$0BAA@VCCRTAllocator@ATL@@@ATL@@AEAAX_K@Z 0000000180031270     SoundPlayer.obj
 0002:0000b270       $unwind$?AllocateHeap@?$CTempBuffer@_W$0BAA@VCCRTAllocator@ATL@@@ATL@@AEAAX_K@Z 0000000180031270     SoundPlayer.obj
 0002:0000b270       $unwind$?AllocateHeap@?$CTempBuffer@_W$0EAA@VCCRTAllocator@ATL@@@ATL@@AEAAX_K@Z 0000000180031270     SoundPlayer.obj
 0002:0000b270       $unwind$?GetClassInfoW@?$IProvideClassInfo2Impl@$1?CLSID_OPOSSoundPlayer@@3U_GUID@@B$1?DIID__IOPOSSoundPlayerEvents@@3U2@B$1?LIBID_OposSoundPlayer_CCO@@3U2@B$00$0A@VCComTypeInfoHolder@ATL@@@ATL@@UEAAJPEAPEAUITypeInfo@@@Z 0000000180031270     SoundPlayer.obj
 0002:0000b270       $unwind$?GetClientSite@?$IOleObjectImpl@VCOPOSSoundPlayer@@@ATL@@UEAAJPEAPEAUIOleClientSite@@@Z 0000000180031270     SoundPlayer.obj
 0002:0000b270       $unwind$?GetConnMap@COPOSSoundPlayer@@SAPEBU_ATL_CONNMAP_ENTRY@ATL@@PEAH@Z 0000000180031270     SoundPlayer.obj
 0002:0000b270       $unwind$?GetTypeInfo@?$IDispatchImpl@UIOPOSSoundPlayer@@$1?IID_IOPOSSoundPlayer@@3U_GUID@@B$1?LIBID_OposSoundPlayer_CCO@@3U3@B$00$0A@VCComTypeInfoHolder@ATL@@@ATL@@UEAAJIKPEAPEAUITypeInfo@@@Z 0000000180031270     SoundPlayer.obj
 0002:0000b270       $unwind$?IOleInPlaceObject_InPlaceDeactivate@CComControlBase@ATL@@QEAAJXZ 0000000180031270     SoundPlayer.obj
 0002:0000b270       $unwind$?IOleObject_SetExtent@CComControlBase@ATL@@QEAAJKPEAUtagSIZE@@@Z 0000000180031270     SoundPlayer.obj
 0002:0000b270       $unwind$?IsEqualObject@?$CComPtrBase@UIOleClientSite@@@ATL@@QEAA_NPEAUIUnknown@@@Z 0000000180031270     SoundPlayer.obj
 0002:0000b270       $unwind$?QueryHitPoint@?$IViewObjectExImpl@VCOPOSSoundPlayer@@@ATL@@UEAAJKPEBUtagRECT@@UtagPOINT@@JPEAK@Z 0000000180031270     SoundPlayer.obj
 0002:0000b270       $unwind$?QueryInterface@?$CComAggObject@VCOPOSSoundPlayer@@@ATL@@UEAAJAEBU_GUID@@PEAPEAX@Z 0000000180031270     SoundPlayer.obj
 0002:0000b270       $unwind$?Release@?$CComObjectCached@VCComClassFactory@ATL@@@ATL@@UEAAKXZ 0000000180031270     SoundPlayer.obj
 0002:0000b270       $unwind$?Unadvise@?$IConnectionPointImpl@VCOPOSSoundPlayer@@$1?DIID__IOPOSSoundPlayerEvents@@3U_GUID@@BVCComDynamicUnkArray@ATL@@@ATL@@UEAAJK@Z 0000000180031270     SoundPlayer.obj
 0002:0000b270       $unwind$?Unadvise@?$IConnectionPointImpl@VCOPOSSoundPlayer@@$1?IID_IPropertyNotifySink@@3U_GUID@@BVCComDynamicUnkArray@ATL@@@ATL@@UEAAJK@Z 0000000180031270     SoundPlayer.obj
 0002:0000b270       $unwind$??1CComControlBase@ATL@@UEAA@XZ 0000000180031270     SoundPlayerImpl.obj
 0002:0000b270       $unwind$??1COPOSSoundPlayer@@UEAA@XZ 0000000180031270     SoundPlayerImpl.obj
 0002:0000b270       $unwind$?EventUninit@COPOSSoundPlayer@@IEAAXXZ 0000000180031270     SoundPlayerImpl.obj
 0002:0000b270       $unwind$?FreezeEvents@COPOSSoundPlayer@@MEAAJH@Z 0000000180031270     SoundPlayerImpl.obj
 0002:0000b270       $unwind$?SOProcessID@COPOSSoundPlayer@@UEAAJPEAJ@Z 0000000180031270     SoundPlayerImpl.obj
 0002:0000b270       $unwind$?get_CapCompareFirmwareVersion@COPOSSoundPlayer@@UEAAJPEAF@Z 0000000180031270     SoundPlayerImpl.obj
 0002:0000b270       $unwind$?get_CapMultiPlay@COPOSSoundPlayer@@UEAAJPEAF@Z 0000000180031270     SoundPlayerImpl.obj
 0002:0000b270       $unwind$?get_CapStatisticsReporting@COPOSSoundPlayer@@UEAAJPEAF@Z 0000000180031270     SoundPlayerImpl.obj
 0002:0000b270       $unwind$?get_CapUpdateFirmware@COPOSSoundPlayer@@UEAAJPEAF@Z 0000000180031270     SoundPlayerImpl.obj
 0002:0000b270       $unwind$?get_CapUpdateStatistics@COPOSSoundPlayer@@UEAAJPEAF@Z 0000000180031270     SoundPlayerImpl.obj
 0002:0000b270       $unwind$?get_CapVolume@COPOSSoundPlayer@@UEAAJPEAF@Z 0000000180031270     SoundPlayerImpl.obj
 0002:0000b270       $unwind$?get_Claimed@COPOSSoundPlayer@@UEAAJPEAF@Z 0000000180031270     SoundPlayerImpl.obj
 0002:0000b270       $unwind$?get_DeviceEnabled@COPOSSoundPlayer@@UEAAJPEAF@Z 0000000180031270     SoundPlayerImpl.obj
 0002:0000b270       $unwind$?get_FreezeEvents@COPOSSoundPlayer@@UEAAJPEAF@Z 0000000180031270     SoundPlayerImpl.obj
 0002:0000b270       $unwind$?put_FreezeEvents@COPOSSoundPlayer@@UEAAJF@Z 0000000180031270     SoundPlayerImpl.obj
 0002:0000b270       $unwind$_calloc_base       0000000180031270     libucrt:calloc_base.obj
 0002:0000b270       $unwind$_malloc_base       0000000180031270     libucrt:malloc_base.obj
 0002:0000b270       $unwind$_callnewh          0000000180031270     libucrt:new_handler.obj
 0002:0000b270       $unwind$initialize_pointers 0000000180031270     libucrt:initialization.obj
 0002:0000b270       $unwind$uninitialize_allocated_memory 0000000180031270     libucrt:initialization.obj
 0002:0000b270       $unwind$__acrt_initialize_locks 0000000180031270     libucrt:locks.obj
 0002:0000b270       $unwind$__acrt_uninitialize_locks 0000000180031270     libucrt:locks.obj
 0002:0000b270       $unwind$__acrt_freeptd     0000000180031270     libucrt:per_thread_data.obj
 0002:0000b270       $unwind$__acrt_getptd_head 0000000180031270     libucrt:per_thread_data.obj
 0002:0000b270       $unwind$__acrt_get_process_end_policy 0000000180031270     libucrt:win_policies.obj
 0002:0000b270       $unwind$__acrt_AppPolicyGetProcessTerminationMethodInternal 0000000180031270     libucrt:winapi_thunks.obj
 0002:0000b270       $unwind$__acrt_SetThreadStackGuarantee 0000000180031270     libucrt:winapi_thunks.obj
 0002:0000b270       $unwind$__acrt_uninitialize_winapi_thunks 0000000180031270     libucrt:winapi_thunks.obj
 0002:0000b270       $unwind$__acrt_update_locale_info 0000000180031270     libucrt:locale_update.obj
 0002:0000b270       $unwind$__acrt_update_locale_info_explicit 0000000180031270     libucrt:locale_update.obj
 0002:0000b270       $unwind$__acrt_update_multibyte_info 0000000180031270     libucrt:locale_update.obj
 0002:0000b270       $unwind$__acrt_update_multibyte_info_explicit 0000000180031270     libucrt:locale_update.obj
 0002:0000b270       $unwind$__acrt_errno_map_os_error 0000000180031270     libucrt:errno.obj
 0002:0000b270       $unwind$__acrt_errno_map_os_error_ptd 0000000180031270     libucrt:errno.obj
 0002:0000b270       $unwind$__acrt_allocate_buffer_for_argv 0000000180031270     libucrt:argv_parsing.obj
 0002:0000b270       $unwind$?exit_or_terminate_process@@YAXI@Z 0000000180031270     libucrt:exit.obj
 0002:0000b270       $unwind$__acrt_uninitialize_stdio 0000000180031270     libucrt:_file.obj
 0002:0000b270       $unwind$__acrt_stdio_free_buffer_nolock 0000000180031270     libucrt:_freebuf.obj
 0002:0000b270       $unwind$strcpy_s           0000000180031270     libucrt:strcpy_s.obj
 0002:0000b270       $unwind$wcscat_s           0000000180031270     libucrt:wcscat_s.obj
 0002:0000b270       $unwind$wcscpy_s           0000000180031270     libucrt:wcscpy_s.obj
 0002:0000b270       $unwind$_clrfp             0000000180031270     libucrt:fpctrl.obj
 0002:0000b270       $unwind$_set_statfp        0000000180031270     libucrt:fpctrl.obj
 0002:0000b270       $unwind$_clearfp           0000000180031270     libucrt:ieee.obj
 0002:0000b270       $unwind$_controlfp_s       0000000180031270     libucrt:contrlfp.obj
 0002:0000b270       $unwind$fegetenv           0000000180031270     libucrt:fegetenv.obj
 0002:0000b270       $unwind$feholdexcept       0000000180031270     libucrt:feholdexcept.obj
 0002:0000b270       $unwind$fesetenv           0000000180031270     libucrt:fesetenv.obj
 0002:0000b270       $unwind$??1CAtlBaseModule@ATL@@QEAA@XZ 0000000180031270     atls:atlbase.obj
 0002:0000b270       $unwind$AtlThunk_AllocateData 0000000180031270     atls:atlthunk.obj
 0002:0000b270       $unwind$__raise_securityfailure 0000000180031270     LIBCMT:gs_report.obj
 0002:0000b270       $unwind$??2@YAPEAX_K@Z     0000000180031270     LIBCMT:new_scalar.obj
 0002:0000b270       $unwind$??_Gtype_info@@UEAAPEAXI@Z 0000000180031270     LIBCMT:std_type_info_static.obj
 0002:0000b270       $unwind$_Init_thread_footer 0000000180031270     LIBCMT:thread_safe_statics.obj
 0002:0000b270       $unwind$_Init_thread_header 0000000180031270     LIBCMT:thread_safe_statics.obj
 0002:0000b270       $unwind$_Init_thread_wait  0000000180031270     LIBCMT:thread_safe_statics.obj
 0002:0000b270       $unwind$??0bad_alloc@std@@QEAA@AEBV01@@Z 0000000180031270     LIBCMT:throw_bad_alloc.obj
 0002:0000b270       $unwind$??0bad_array_new_length@std@@QEAA@AEBV01@@Z 0000000180031270     LIBCMT:throw_bad_alloc.obj
 0002:0000b270       $unwind$??0exception@std@@QEAA@AEBV01@@Z 0000000180031270     LIBCMT:throw_bad_alloc.obj
 0002:0000b270       $unwind$__scrt_initialize_crt 0000000180031270     LIBCMT:utility.obj
 0002:0000b270       $unwind$__scrt_initialize_onexit_tables 0000000180031270     LIBCMT:utility.obj
 0002:0000b270       $unwind$__scrt_release_startup_lock 0000000180031270     LIBCMT:utility.obj
 0002:0000b270       $unwind$__scrt_uninitialize_crt 0000000180031270     LIBCMT:utility.obj
 0002:0000b270       $unwind$_onexit            0000000180031270     LIBCMT:utility.obj
 0002:0000b270       $unwind$_IsExceptionObjectToBeDestroyed 0000000180031270     libvcruntime:ehhelpers.obj
 0002:0000b270       $unwind$?GetUnwindTryBlock@__FrameHandler3@@SAHPEA_KPEAU_xDISPATCHER_CONTEXT@@PEBU_s_FuncInfo@@@Z 0000000180031270     libvcruntime:ehstate.obj
 0002:0000b270       $unwind$?StateFromIp@__FrameHandler3@@SAHPEBU_s_FuncInfo@@PEAU_xDISPATCHER_CONTEXT@@_K@Z 0000000180031270     libvcruntime:ehstate.obj
 0002:0000b270       $unwind$??0HandlerMap4@FH4@@QEAA@PEBUTryBlockMapEntry4@1@_KH@Z 0000000180031270     libvcruntime:frame.obj
 0002:0000b270       $unwind$??0bad_exception@std@@QEAA@AEBV01@@Z 0000000180031270     libvcruntime:frame.obj
 0002:0000b270       $unwind$__vcrt_initialize_locks 0000000180031270     libvcruntime:locks.obj
 0002:0000b270       $unwind$__vcrt_uninitialize_locks 0000000180031270     libvcruntime:locks.obj
 0002:0000b270       $unwind$__vcrt_freeptd     0000000180031270     libvcruntime:per_thread_data.obj
 0002:0000b270       $unwind$?ExecutionInCatch@__FrameHandler3@@SA_NPEAU_xDISPATCHER_CONTEXT@@PEBU_s_FuncInfo@@@Z 0000000180031270     libvcruntime:risctrnsctrl.obj
 0002:0000b270       $unwind$_CreateFrameInfo   0000000180031270     libvcruntime:risctrnsctrl.obj
 0002:0000b270       $unwind$_SetImageBase      0000000180031270     libvcruntime:risctrnsctrl.obj
 0002:0000b270       $unwind$_SetThrowImageBase 0000000180031270     libvcruntime:risctrnsctrl.obj
 0002:0000b270       $unwind$__std_exception_destroy 0000000180031270     libvcruntime:std_exception.obj
 0002:0000b270       $unwind$__std_type_info_destroy_list 0000000180031270     libvcruntime:std_type_info.obj
 0002:0000b270       $unwind$__vcrt_FlsAlloc    0000000180031270     libvcruntime:winapi_downlevel.obj
 0002:0000b270       $unwind$__vcrt_FlsFree     0000000180031270     libvcruntime:winapi_downlevel.obj
 0002:0000b270       $unwind$__vcrt_FlsGetValue 0000000180031270     libvcruntime:winapi_downlevel.obj
 0002:0000b278       $unwind$?AtlWinModuleTerm@ATL@@YAJPEAU_ATL_WIN_MODULE70@1@PEAUHINSTANCE__@@@Z 0000000180031278     OposVariant.obj
 0002:0000b278       $unwind$?AtlWinModuleExtractCreateWndData@ATL@@YAPEAXPEAU_ATL_WIN_MODULE70@1@@Z 0000000180031278     SoundPlayer.obj
 0002:0000b278       $unwind$?CreateInstance@?$CComCreator@V?$CComObject@VCOPOSSoundPlayer@@@ATL@@@ATL@@SAJPEAXAEBU_GUID@@PEAPEAX@Z 0000000180031278     SoundPlayer.obj
 0002:0000b278       $unwind$?DoEvent@COPOSSoundPlayer@@IEAAXI_K_J@Z 0000000180031278     SoundPlayer.obj
 0002:0000b278       $unwind$?DoVerb@?$IOleObjectImpl@VCOPOSSoundPlayer@@@ATL@@UEAAJJPEAUtagMSG@@PEAUIOleClientSite@@JPEAUHWND__@@PEBUtagRECT@@@Z 0000000180031278     SoundPlayer.obj
 0002:0000b278       $unwind$?HKeyFromString@CRegParser@ATL@@KAPEAUHKEY__@@PEA_W@Z 0000000180031278     SoundPlayer.obj
 0002:0000b278       $unwind$?Next@?$CComEnumImpl@UIEnumConnectionPoints@@$1?_GUID_b196b285_bab4_101a_b69c_00aa00341d07@@3U__s_GUID@@BPEAUIConnectionPoint@@V?$_CopyInterface@UIConnectionPoint@@@ATL@@@ATL@@UEAAJKPEAPEAUIConnectionPoint@@PEAK@Z 0000000180031278     SoundPlayer.obj
 0002:0000b278       $unwind$?Next@?$CComEnumImpl@UIEnumConnections@@$1?_GUID_b196b287_bab4_101a_b69c_00aa00341d07@@3U__s_GUID@@BUtagCONNECTDATA@@V?$_Copy@UtagCONNECTDATA@@@ATL@@@ATL@@UEAAJKPEAUtagCONNECTDATA@@PEAK@Z 0000000180031278     SoundPlayer.obj
 0002:0000b278       $unwind$?SODirectIO@COPOSSoundPlayer@@MEAAJJPEAJPEAPEA_W@Z 0000000180031278     SoundPlayer.obj
 0002:0000b278       $unwind$?SetControlFocus@CComControlBase@ATL@@QEAAHH@Z 0000000180031278     SoundPlayer.obj
 0002:0000b278       $unwind$?ocscpy_s@@YA_NPEA_W_KPEB_W@Z 0000000180031278     SoundPlayer.obj
 0002:0000b278       $unwind$?s_EventWindowProc@COPOSSoundPlayer@@KA_JPEAUHWND__@@I_K_J@Z 0000000180031278     SoundPlayerImpl.obj
 0002:0000b278       $unwind$_recalloc_base     0000000180031278     libucrt:recalloc.obj
 0002:0000b278       $unwind$__acrt_free_locale 0000000180031278     libucrt:locale_refcounting.obj
 0002:0000b278       $unwind$__acrt_lowio_create_handle_array 0000000180031278     libucrt:osfinfo.obj
 0002:0000b278       $unwind$_seh_filter_exe    0000000180031278     libucrt:exception_filter.obj
 0002:0000b278       $unwind$__acrt_stdio_flush_nolock 0000000180031278     libucrt:fflush.obj
 0002:0000b278       $unwind$??$ensure_buffer_is_big_enough@D@formatting_buffer@__crt_stdio_output@@QEAA_N_KAEAV__crt_cached_ptd_host@@@Z 0000000180031278     libucrt:output.obj
 0002:0000b278       $unwind$??$ensure_buffer_is_big_enough@_W@formatting_buffer@__crt_stdio_output@@QEAA_N_KAEAV__crt_cached_ptd_host@@@Z 0000000180031278     libucrt:output.obj
 0002:0000b278       $unwind$__scrt_dllmain_exception_filter 0000000180031278     LIBCMT:utility.obj
 0002:0000b278       $unwind$?GetHandlerSearchState@__FrameHandler3@@SAHPEA_KPEAU_xDISPATCHER_CONTEXT@@PEBU_s_FuncInfo@@@Z 0000000180031278     libvcruntime:frame.obj
 0002:0000b278       $unwind$?Is_bad_exception_allowed@@YAEPEBU_s_ESTypeList@@@Z 0000000180031278     libvcruntime:frame.obj
 0002:0000b278       $unwind$?CatchTryBlock@__FrameHandler3@@SAPEBU_s_TryBlockMapEntry@@PEBU_s_FuncInfo@@H@Z 0000000180031278     libvcruntime:risctrnsctrl.obj
 0002:0000b28c       $unwind$??0OposDispParms@@QEAA@PEAVOposVariant@@H@Z 000000018003128c     OposVariant.obj
 0002:0000b28c       $unwind$?SetBSTR_Copy@OposVariant@@QEAAXPEA_WAEAJ@Z 000000018003128c     OposVariant.obj
 0002:0000b28c       $unwind$?SetBSTR_InOutPtr@OposVariant@@QEAA_NPEAPEA_WAEAJ@Z 000000018003128c     OposVariant.obj
 0002:0000b28c       $unwind$?SetDispatch_Ptr@OposVariant@@QEAAXPEAUIDispatch@@AEAJ@Z 000000018003128c     OposVariant.obj
 0002:0000b28c       $unwind$?SetLONG_Ptr@OposVariant@@QEAAXPEAJAEAJ@Z 000000018003128c     OposVariant.obj
 0002:0000b28c       $unwind$?SetString@OposVariant@@QEAAXPEB_WAEAJ@Z 000000018003128c     OposVariant.obj
 0002:0000b28c       $unwind$?Term@CAtlComModule@ATL@@QEAAXXZ 000000018003128c     OposVariant.obj
 0002:0000b28c       $unwind$??_GCRegObject@ATL@@UEAAPEAXI@Z 000000018003128c     SoundPlayer.obj
 0002:0000b28c       $unwind$?Add@?$CSimpleArray@GV?$CSimpleArrayEqualHelper@G@ATL@@@ATL@@QEAAHAEBG@Z 000000018003128c     SoundPlayer.obj
 0002:0000b28c       $unwind$?Add@?$CSimpleMap@PEA_WPEA_WVCExpansionVectorEqualHelper@ATL@@@ATL@@QEAAHAEBQEA_W0@Z 000000018003128c     SoundPlayer.obj
 0002:0000b28c       $unwind$?Add@CComDynamicUnkArray@ATL@@QEAAKPEAUIUnknown@@@Z 000000018003128c     SoundPlayer.obj
 0002:0000b28c       $unwind$?Advise@?$IOleObjectImpl@VCOPOSSoundPlayer@@@ATL@@UEAAJPEAUIAdviseSink@@PEAK@Z 000000018003128c     SoundPlayer.obj
 0002:0000b28c       $unwind$?ClearReplacements@CExpansionVector@ATL@@QEAAJXZ 000000018003128c     SoundPlayer.obj
 0002:0000b28c       $unwind$?CreateInstance@?$CComObject@V?$CComEnum@UIEnumConnectionPoints@@$1?_GUID_b196b285_bab4_101a_b69c_00aa00341d07@@3U__s_GUID@@BPEAUIConnectionPoint@@V?$_CopyInterface@UIConnectionPoint@@@ATL@@VCComSingleThreadModel@6@@ATL@@@ATL@@SAJPEAPEAV12@@Z 000000018003128c     SoundPlayer.obj
 0002:0000b28c       $unwind$?CreateInstance@?$CComObject@V?$CComEnum@UIEnumConnections@@$1?_GUID_b196b287_bab4_101a_b69c_00aa00341d07@@3U__s_GUID@@BUtagCONNECTDATA@@V?$_Copy@UtagCONNECTDATA@@@ATL@@VCComSingleThreadModel@6@@ATL@@@ATL@@SAJPEAPEAV12@@Z 000000018003128c     SoundPlayer.obj
 0002:0000b28c       $unwind$?RegisterServer@CComModule@ATL@@QEAAJHPEBU_GUID@@@Z 000000018003128c     SoundPlayer.obj
 0002:0000b28c       $unwind$?UnregisterServer@CComModule@ATL@@QEAAJHPEBU_GUID@@@Z 000000018003128c     SoundPlayer.obj
 0002:0000b28c       $unwind$?VTFromRegType@CRegParser@ATL@@KAHPEB_WAEAG@Z 000000018003128c     SoundPlayer.obj
 0002:0000b28c       $unwind$memcpy_s           000000018003128c     libucrt:cfout.obj
 0002:0000b28c       $unwind$__acrt_getptd      000000018003128c     libucrt:per_thread_data.obj
 0002:0000b28c       $unwind$__acrt_getptd_noexit 000000018003128c     libucrt:per_thread_data.obj
 0002:0000b28c       $unwind$__acrt_getptd_noexit_explicit 000000018003128c     libucrt:per_thread_data.obj
 0002:0000b28c       $unwind$__acrt_execute_initializers 000000018003128c     libucrt:shared_initialization.obj
 0002:0000b28c       $unwind$__acrt_InitializeCriticalSectionEx 000000018003128c     libucrt:winapi_thunks.obj
 0002:0000b28c       $unwind$_close_nolock_internal 000000018003128c     libucrt:close.obj
 0002:0000b28c       $unwind$?value@?$dual_state_global@P6AXPEB_W00I_K@Z@__crt_state_management@@QEAAAEAP6AXPEB_W00I_K@ZAEAV__crt_cached_ptd_host@@@Z 000000018003128c     libucrt:invalid_parameter.obj
 0002:0000b28c       $unwind$??0_LocaleUpdate@@QEAA@QEAU__crt_locale_pointers@@@Z 000000018003128c     libucrt:argv_wildcards.obj
 0002:0000b28c       $unwind$?type_case_Z@?$output_processor@_WV?$string_output_adapter@_W@__crt_stdio_output@@V?$format_validation_base@_WV?$string_output_adapter@_W@__crt_stdio_output@@@2@@__crt_stdio_output@@AEAA_NXZ 000000018003128c     libucrt:output.obj
 0002:0000b28c       $unwind$?type_case_s@?$output_processor@_WV?$string_output_adapter@_W@__crt_stdio_output@@V?$format_validation_base@_WV?$string_output_adapter@_W@__crt_stdio_output@@@2@@__crt_stdio_output@@AEAA_NXZ 000000018003128c     libucrt:output.obj
 0002:0000b28c       $unwind$?type_case_s_compute_narrow_string_length@?$output_processor@_WV?$string_output_adapter@_W@__crt_stdio_output@@V?$format_validation_base@_WV?$string_output_adapter@_W@__crt_stdio_output@@@2@@__crt_stdio_output@@AEAAHH_W@Z 000000018003128c     libucrt:output.obj
 0002:0000b28c       $unwind$?update_locale_slow@__crt_cached_ptd_host@@AEAAXXZ 000000018003128c     libucrt:output.obj
 0002:0000b28c       $unwind$strncpy_s          000000018003128c     libucrt:strncpy_s.obj
 0002:0000b28c       $unwind$wcsncpy_s          000000018003128c     libucrt:wcsncpy_s.obj
 0002:0000b28c       $unwind$_exception_enabled 000000018003128c     libucrt:libm_error.obj
 0002:0000b28c       $unwind$_DllMainCRTStartup 000000018003128c     LIBCMT:dll_dllmain.obj
 0002:0000b28c       $unwind$__vcrt_getptd_noexit 000000018003128c     libvcruntime:per_thread_data.obj
 0002:0000b28c       $unwind$?FrameUnwindToEmptyState@__FrameHandler3@@SAXPEA_KPEAU_xDISPATCHER_CONTEXT@@PEBU_s_FuncInfo@@@Z 000000018003128c     libvcruntime:risctrnsctrl.obj
 0002:0000b28c       $unwind$__vcrt_InitializeCriticalSectionEx 000000018003128c     libvcruntime:winapi_downlevel.obj
 0002:0000b29c       $unwind$??_Estringdispid@CComTypeInfoHolder@ATL@@QEAAPEAXI@Z 000000018003129c     OposVariant.obj
 0002:0000b29c       $unwind$?AddTermFunc@CAtlModule@ATL@@QEAAJP6AX_K@Z0@Z 000000018003129c     SoundPlayer.obj
 0002:0000b29c       $unwind$?AtlComModuleRegisterServer@ATL@@YAJPEAU_ATL_COM_MODULE70@1@HPEBU_GUID@@@Z 000000018003129c     SoundPlayer.obj
 0002:0000b29c       $unwind$?AtlComModuleUnregisterServer@ATL@@YAJPEAU_ATL_COM_MODULE70@1@HPEBU_GUID@@@Z 000000018003129c     SoundPlayer.obj
 0002:0000b29c       $unwind$?CreateInstance@?$CComCreator@V?$CComAggObject@VCOPOSSoundPlayer@@@ATL@@@ATL@@SAJPEAXAEBU_GUID@@PEAPEAX@Z 000000018003129c     SoundPlayer.obj
 0002:0000b29c       $unwind$?CreateInstance@?$CComCreator@V?$CComObjectCached@VCComClassFactory@ATL@@@ATL@@@ATL@@SAJPEAXAEBU_GUID@@PEAPEAX@Z 000000018003129c     SoundPlayer.obj
 0002:0000b29c       $unwind$?GetPagesHelper@?$ISpecifyPropertyPagesImpl@VCOPOSSoundPlayer@@@ATL@@IEAAJPEAUtagCAUUID@@PEBUATL_PROPMAP_ENTRY@2@@Z 000000018003129c     SoundPlayer.obj
 0002:0000b29c       $unwind$?Term@CAtlModule@ATL@@QEAAXXZ 000000018003129c     SoundPlayer.obj
 0002:0000b29c       $unwind$?initialize_stdio_handles_nolock@@YAXXZ 000000018003129c     libucrt:ioinit.obj
 0002:0000b29c       $unwind$__acrt_initialize_stdio 000000018003129c     libucrt:_file.obj
 0002:0000b29c       $unwind$__GSHandlerCheck_EH 000000018003129c     LIBCMT:gshandlereh.obj
 0002:0000b29c       $unwind$__GSHandlerCheck_SEH 000000018003129c     LIBCMT:gshandlerseh.obj
 0002:0000b29c       $unwind$??$TypeMatchHelper@V__FrameHandler3@@@@YAHPEBU_s_HandlerType@@PEBU_s_CatchableType@@PEBU_s_ThrowInfo@@@Z 000000018003129c     libvcruntime:frame.obj
 0002:0000b29c       $unwind$??$TypeMatchHelper@V__FrameHandler4@@@@YAHPEAUHandlerType4@FH4@@PEBU_s_CatchableType@@PEBU_s_ThrowInfo@@@Z 000000018003129c     libvcruntime:frame.obj
 0002:0000b2b4       $unwind$?SetBSTR@OposVariant@@QEAAXPEA_WAEAJ@Z 00000001800312b4     OposVariant.obj
 0002:0000b2b4       $unwind$?SetLONG@OposVariant@@QEAAXJ@Z 00000001800312b4     OposVariant.obj
 0002:0000b2b4       $unwind$?SetVARIANT_BOOL@OposVariant@@QEAAXF@Z 00000001800312b4     OposVariant.obj
 0002:0000b2b4       $unwind$??0?$CComContainedObject@VCOPOSSoundPlayer@@@ATL@@QEAA@PEAX@Z 00000001800312b4     SoundPlayer.obj
 0002:0000b2b4       $unwind$??1?$CComEnumImpl@UIEnumConnectionPoints@@$1?_GUID_b196b285_bab4_101a_b69c_00aa00341d07@@3U__s_GUID@@BPEAUIConnectionPoint@@V?$_CopyInterface@UIConnectionPoint@@@ATL@@@ATL@@UEAA@XZ 00000001800312b4     SoundPlayer.obj
 0002:0000b2b4       $unwind$??1?$CComEnumImpl@UIEnumConnections@@$1?_GUID_b196b287_bab4_101a_b69c_00aa00341d07@@3U__s_GUID@@BUtagCONNECTDATA@@V?$_Copy@UtagCONNECTDATA@@@ATL@@@ATL@@UEAA@XZ 00000001800312b4     SoundPlayer.obj
 0002:0000b2b4       $unwind$??_G?$CComAggObject@VCOPOSSoundPlayer@@@ATL@@UEAAPEAXI@Z 00000001800312b4     SoundPlayer.obj
 0002:0000b2b4       $unwind$??_G?$CComContainedObject@VCOPOSSoundPlayer@@@ATL@@UEAAPEAXI@Z 00000001800312b4     SoundPlayer.obj
 0002:0000b2b4       $unwind$??_G?$CComObject@V?$CComEnum@UIEnumConnectionPoints@@$1?_GUID_b196b285_bab4_101a_b69c_00aa00341d07@@3U__s_GUID@@BPEAUIConnectionPoint@@V?$_CopyInterface@UIConnectionPoint@@@ATL@@VCComSingleThreadModel@6@@ATL@@@ATL@@UEAAPEAXI@Z 00000001800312b4     SoundPlayer.obj
 0002:0000b2b4       $unwind$??_G?$CComObject@V?$CComEnum@UIEnumConnections@@$1?_GUID_b196b287_bab4_101a_b69c_00aa00341d07@@3U__s_GUID@@BUtagCONNECTDATA@@V?$_Copy@UtagCONNECTDATA@@@ATL@@VCComSingleThreadModel@6@@ATL@@@ATL@@UEAAPEAXI@Z 00000001800312b4     SoundPlayer.obj
 0002:0000b2b4       $unwind$??_G?$CComObject@VCOPOSSoundPlayer@@@ATL@@UEAAPEAXI@Z 00000001800312b4     SoundPlayer.obj
 0002:0000b2b4       $unwind$??_G?$CComObjectCached@VCComClassFactory@ATL@@@ATL@@UEAAPEAXI@Z 00000001800312b4     SoundPlayer.obj
 0002:0000b2b4       $unwind$??_GCComClassFactory@ATL@@UEAAPEAXI@Z 00000001800312b4     SoundPlayer.obj
 0002:0000b2b4       $unwind$??_GCComModule@ATL@@UEAAPEAXI@Z 00000001800312b4     SoundPlayer.obj
 0002:0000b2b4       $unwind$?DeleteSubKey@CRegKey@ATL@@QEAAJPEB_W@Z 00000001800312b4     SoundPlayer.obj
 0002:0000b2b4       $unwind$?IOleObject_SetClientSite@CComControlBase@ATL@@QEAAJPEAUIOleClientSite@@@Z 00000001800312b4     SoundPlayer.obj
 0002:0000b2b4       $unwind$?InitNew@?$IPersistStorageImpl@VCOPOSSoundPlayer@@@ATL@@UEAAJPEAUIStorage@@@Z 00000001800312b4     SoundPlayer.obj
 0002:0000b2b4       $unwind$?IsDirty@?$IPersistStorageImpl@VCOPOSSoundPlayer@@@ATL@@UEAAJXZ 00000001800312b4     SoundPlayer.obj
 0002:0000b2b4       $unwind$?Release@?$CComAggObject@VCOPOSSoundPlayer@@@ATL@@UEAAKXZ 00000001800312b4     SoundPlayer.obj
 0002:0000b2b4       $unwind$?Release@?$CComObject@V?$CComEnum@UIEnumConnectionPoints@@$1?_GUID_b196b285_bab4_101a_b69c_00aa00341d07@@3U__s_GUID@@BPEAUIConnectionPoint@@V?$_CopyInterface@UIConnectionPoint@@@ATL@@VCComSingleThreadModel@6@@ATL@@@ATL@@UEAAKXZ 00000001800312b4     SoundPlayer.obj
 0002:0000b2b4       $unwind$?Release@?$CComObject@V?$CComEnum@UIEnumConnections@@$1?_GUID_b196b287_bab4_101a_b69c_00aa00341d07@@3U__s_GUID@@BUtagCONNECTDATA@@V?$_Copy@UtagCONNECTDATA@@@ATL@@VCComSingleThreadModel@6@@ATL@@@ATL@@UEAAKXZ 00000001800312b4     SoundPlayer.obj
 0002:0000b2b4       $unwind$?Release@?$CComObject@VCOPOSSoundPlayer@@@ATL@@UEAAKXZ 00000001800312b4     SoundPlayer.obj
 0002:0000b2b4       $unwind$?SOOutputComplete@COPOSSoundPlayer@@MEAAJJ@Z 00000001800312b4     SoundPlayer.obj
 0002:0000b2b4       $unwind$?SOStatusUpdate@COPOSSoundPlayer@@MEAAJJ@Z 00000001800312b4     SoundPlayer.obj
 0002:0000b2b4       $unwind$?SetAdvise@?$IViewObjectExImpl@VCOPOSSoundPlayer@@@ATL@@UEAAJKKPEAUIAdviseSink@@@Z 00000001800312b4     SoundPlayer.obj
 0002:0000b2b4       $unwind$?Term@CComModule@ATL@@QEAAXXZ 00000001800312b4     SoundPlayer.obj
 0002:0000b2b4       $unwind$DllMain            00000001800312b4     SoundPlayer.obj
 0002:0000b2b4       $unwind$??1?$IConnectionPointImpl@VCOPOSSoundPlayer@@$1?DIID__IOPOSSoundPlayerEvents@@3U_GUID@@BVCComDynamicUnkArray@ATL@@@ATL@@QEAA@XZ 00000001800312b4     SoundPlayerImpl.obj
 0002:0000b2b4       $unwind$??1?$IConnectionPointImpl@VCOPOSSoundPlayer@@$1?IID_IPropertyNotifySink@@3U_GUID@@BVCComDynamicUnkArray@ATL@@@ATL@@QEAA@XZ 00000001800312b4     SoundPlayerImpl.obj
 0002:0000b2b4       $unwind$??$common_initialize_environment_nolock@D@@YAHXZ 00000001800312b4     libucrt:environment_initialization.obj
 0002:0000b2b4       $unwind$_realloc_base      00000001800312b4     libucrt:realloc_base.obj
 0002:0000b2b4       $unwind$?replace_current_thread_locale_nolock@@YAXQEAU__acrt_ptd@@QEAU__crt_locale_data@@@Z 00000001800312b4     libucrt:per_thread_data.obj
 0002:0000b2b4       $unwind$__acrt_execute_uninitializers 00000001800312b4     libucrt:shared_initialization.obj
 0002:0000b2b4       $unwind$__acrt_LocaleNameToLCID 00000001800312b4     libucrt:winapi_thunks.obj
 0002:0000b2b4       $unwind$?free_crt_array_internal@@YAXQEAPEBX_K@Z 00000001800312b4     libucrt:inittime.obj
 0002:0000b2b4       $unwind$_updatetlocinfoEx_nolock 00000001800312b4     libucrt:locale_refcounting.obj
 0002:0000b2b4       $unwind$__acrt_uninitialize_lowio 00000001800312b4     libucrt:ioinit.obj
 0002:0000b2b4       $unwind$?setSBCS@@YAXPEAU__crt_multibyte_data@@@Z 00000001800312b4     libucrt:mbctype.obj
 0002:0000b2b4       $unwind$_initterm_e        00000001800312b4     libucrt:initterm.obj
 0002:0000b2b4       $unwind$??0CAtlBaseModule@ATL@@QEAA@XZ 00000001800312b4     atls:atlbase.obj
 0002:0000b2b4       $unwind$??$GetProcAddressAll@P6AP6A_JPEAUHWND__@@I_K_J@ZPEAUAtlThunkData_t@@@Z@@YAP6AP6A_JPEAUHWND__@@I_K_J@ZPEAUAtlThunkData_t@@@ZPEAP6AP6A_J0I12@Z3@Z@Z 00000001800312b4     atls:atlthunk.obj
 0002:0000b2b4       $unwind$??$GetProcAddressAll@P6APEAUAtlThunkData_t@@XZ@@YAP6APEAUAtlThunkData_t@@XZPEAP6APEAU0@XZ@Z 00000001800312b4     atls:atlthunk.obj
 0002:0000b2b4       $unwind$??$GetProcAddressAll@P6AXPEAUAtlThunkData_t@@@Z@@YAP6AXPEAUAtlThunkData_t@@@ZPEAP6AX0@Z@Z 00000001800312b4     atls:atlthunk.obj
 0002:0000b2b4       $unwind$??$GetProcAddressAll@P6AXPEAUAtlThunkData_t@@PEAX_K@Z@@YAP6AXPEAUAtlThunkData_t@@PEAX_K@ZPEAP6AX012@Z@Z 00000001800312b4     atls:atlthunk.obj
 0002:0000b2b4       $unwind$?__AllocStdCallThunk_cmn@@YAPEAXXZ 00000001800312b4     atls:atlthunk.obj
 0002:0000b2b4       $unwind$?__InitializeThunkPool@@YAHXZ 00000001800312b4     atls:atlthunk.obj
 0002:0000b2b4       $unwind$AtlThunk_DataToCode 00000001800312b4     atls:atlthunk.obj
 0002:0000b2b4       $unwind$_RTC_Initialize    00000001800312b4     LIBCMT:initsect.obj
 0002:0000b2b4       $unwind$_RTC_Terminate     00000001800312b4     LIBCMT:initsect.obj
 0002:0000b2b4       $unwind$?__scrt_initialize_thread_safe_statics@@YAHXZ 00000001800312b4     LIBCMT:thread_safe_statics.obj
 0002:0000b2b4       $unwind$??_Gbad_alloc@std@@UEAAPEAXI@Z 00000001800312b4     LIBCMT:throw_bad_alloc.obj
 0002:0000b2b4       $unwind$??_Gbad_array_new_length@std@@UEAAPEAXI@Z 00000001800312b4     LIBCMT:throw_bad_alloc.obj
 0002:0000b2b4       $unwind$??_Gexception@std@@UEAAPEAXI@Z 00000001800312b4     LIBCMT:throw_bad_alloc.obj
 0002:0000b2b4       $unwind$__C_specific_handler_noexcept 00000001800312b4     libvcruntime:chandler_noexcept.obj
 0002:0000b2b4       $unwind$__FrameUnwindFilter 00000001800312b4     libvcruntime:ehhelpers.obj
 0002:0000b2b4       $unwind$?SetUnwindTryBlock@__FrameHandler3@@SAXPEA_KPEAU_xDISPATCHER_CONTEXT@@PEBU_s_FuncInfo@@H@Z 00000001800312b4     libvcruntime:ehstate.obj
 0002:0000b2b4       $unwind$??_Gbad_exception@std@@UEAAPEAXI@Z 00000001800312b4     libvcruntime:frame.obj
 0002:0000b2b4       $unwind$?ExFilterRethrow@@YAHPEAU_EXCEPTION_POINTERS@@PEAUEHExceptionRecord@@PEAH@Z 00000001800312b4     libvcruntime:frame.obj
 0002:0000b2b4       $unwind$?ExFilterRethrowFH4@@YAHPEAU_EXCEPTION_POINTERS@@PEAUEHExceptionRecord@@HPEAH@Z 00000001800312b4     libvcruntime:frame.obj
 0002:0000b2b4       $unwind$_FindAndUnlinkFrame 00000001800312b4     libvcruntime:risctrnsctrl.obj
 0002:0000b2b4       $unwind$__vcrt_FlsSetValue 00000001800312b4     libvcruntime:winapi_downlevel.obj
 0002:0000b2c0       $unwind$?ChangeBSTR@OposVariant@@QEAAXPEAPEA_WAEAJ@Z 00000001800312c0     OposVariant.obj
 0002:0000b2c0       $unwind$?ChangeLONG@OposVariant@@QEAAXPEAJAEAJ@Z 00000001800312c0     OposVariant.obj
 0002:0000b2c0       $unwind$?x_ismbbtype_l@@YAHPEAU__crt_locale_pointers@@IHH@Z 00000001800312c0     libucrt:ismbbyte.obj
 0002:0000b2d0       $unwind$swprintf_s         00000001800312d0     SoundPlayer.obj
 0002:0000b2e0       $unwind$?_AtlVerifyStackAvailable@_ATL_SAFE_ALLOCA_IMPL@ATL@@YA_N_K@Z 00000001800312e0     SoundPlayer.obj
 0002:0000b30c       $unwind$?filt$0@?0??_AtlVerifyStackAvailable@_ATL_SAFE_ALLOCA_IMPL@ATL@@YA_N_K@Z@4HA 000000018003130c     SoundPlayer.obj
 0002:0000b30c       $unwind$_query_new_handler$fin$0 000000018003130c     libucrt:new_handler.obj
 0002:0000b30c       $unwind$?fin$0@?0???$?RV<lambda_0ae27a3a962d80f24befdcbee591983d>@@AEAV<lambda_8d0ee55de4b1038c4002e0adecdf1839>@@V<lambda_dc504788e8f1664fe9b84e20bfb512f2>@@@?$__crt_seh_guarded_call@X@@QEAAX$$QEAV<lambda_0ae27a3a962d80f24befdcbee591983d>@@AEAV<lambda_8d0ee55de4b1038c4002e0adecdf1839>@@$$QEAV<lambda_dc504788e8f1664fe9b84e20bfb512f2>@@@Z@4HA 000000018003130c     libucrt:per_thread_data.obj
 0002:0000b30c       $unwind$?fin$0@?0???$?RV<lambda_2d41944a1d46af3157314b8a01080d33>@@AEAV<lambda_8f455de75cd7d7f24b4096f044d8b9e6>@@V<lambda_aa500f224e6afead328df44964fe2772>@@@?$__crt_seh_guarded_call@X@@QEAAX$$QEAV<lambda_2d41944a1d46af3157314b8a01080d33>@@AEAV<lambda_8f455de75cd7d7f24b4096f044d8b9e6>@@$$QEAV<lambda_aa500f224e6afead328df44964fe2772>@@@Z@4HA 000000018003130c     libucrt:per_thread_data.obj
 0002:0000b30c       $unwind$?fin$0@?0???$?RV<lambda_aa87e3671a710a21b5dc78c0bdf72e11>@@AEAV<lambda_92619d2358a28f41a33ba319515a20b9>@@V<lambda_6992ecaafeb10aed2b74cb1fae11a551>@@@?$__crt_seh_guarded_call@X@@QEAAX$$QEAV<lambda_aa87e3671a710a21b5dc78c0bdf72e11>@@AEAV<lambda_92619d2358a28f41a33ba319515a20b9>@@$$QEAV<lambda_6992ecaafeb10aed2b74cb1fae11a551>@@@Z@4HA 000000018003130c     libucrt:per_thread_data.obj
 0002:0000b30c       $unwind$?fin$0@?0???$?RV<lambda_f2e299630e499de9f9a165e60fcd3db5>@@AEAV<lambda_2ae9d31cdba2644fcbeaf08da7c24588>@@V<lambda_40d01ff24d0e7b3814fdbdcee8eab3c7>@@@?$__crt_seh_guarded_call@X@@QEAAX$$QEAV<lambda_f2e299630e499de9f9a165e60fcd3db5>@@AEAV<lambda_2ae9d31cdba2644fcbeaf08da7c24588>@@$$QEAV<lambda_40d01ff24d0e7b3814fdbdcee8eab3c7>@@@Z@4HA 000000018003130c     libucrt:per_thread_data.obj
 0002:0000b30c       $unwind$__acrt_update_thread_locale_data$fin$0 000000018003130c     libucrt:locale_refcounting.obj
 0002:0000b30c       $unwind$?fin$0@?0???$?RV<lambda_410d79af7f07d98d83a3f525b3859a53>@@AEAV<lambda_3e16ef9562a7dcce91392c22ab16ea36>@@V<lambda_38119f0e861e05405d8a144b9b982f0a>@@@?$__crt_seh_guarded_call@X@@QEAAX$$QEAV<lambda_410d79af7f07d98d83a3f525b3859a53>@@AEAV<lambda_3e16ef9562a7dcce91392c22ab16ea36>@@$$QEAV<lambda_38119f0e861e05405d8a144b9b982f0a>@@@Z@4HA 000000018003130c     libucrt:wsetlocale.obj
 0002:0000b30c       $unwind$?fin$0@?0???$?RV<lambda_ad8af0d99a0adf03d037d7dffe354bb5>@@AEAV<lambda_c9ba49e555ba839a7b07aa3fbecb7617>@@V<lambda_2f1ebd5d68526518146ae959c9e734c8>@@@?$__crt_seh_guarded_call@H@@QEAAH$$QEAV<lambda_ad8af0d99a0adf03d037d7dffe354bb5>@@AEAV<lambda_c9ba49e555ba839a7b07aa3fbecb7617>@@$$QEAV<lambda_2f1ebd5d68526518146ae959c9e734c8>@@@Z@4HA 000000018003130c     libucrt:close.obj
 0002:0000b30c       $unwind$?fin$0@?0???$?RV<lambda_a37b2b86f63e897a80ea819b0eb08c01>@@AEAV<lambda_38ce7e780aa69e748d6df282ebc68efe>@@V<lambda_99fb1378e971ab6e7edea83e3a7a83a2>@@@?$__crt_seh_guarded_call@H@@QEAAH$$QEAV<lambda_a37b2b86f63e897a80ea819b0eb08c01>@@AEAV<lambda_38ce7e780aa69e748d6df282ebc68efe>@@$$QEAV<lambda_99fb1378e971ab6e7edea83e3a7a83a2>@@@Z@4HA 000000018003130c     libucrt:commit.obj
 0002:0000b30c       $unwind$__acrt_initialize_lowio$fin$0 000000018003130c     libucrt:ioinit.obj
 0002:0000b30c       $unwind$__acrt_lowio_ensure_fh_exists$fin$0 000000018003130c     libucrt:osfinfo.obj
 0002:0000b30c       $unwind$?fin$0@?0???$?RV<lambda_efdfa57d1f175319df784efa44bb7b81>@@AEAV<lambda_5f0a4c1567f8adc6734073e5d1e1b35c>@@V<lambda_2e8a7d3640ea6ccb4c2413664c2db6fd>@@@?$__crt_seh_guarded_call@X@@QEAAX$$QEAV<lambda_efdfa57d1f175319df784efa44bb7b81>@@AEAV<lambda_5f0a4c1567f8adc6734073e5d1e1b35c>@@$$QEAV<lambda_2e8a7d3640ea6ccb4c2413664c2db6fd>@@@Z@4HA 000000018003130c     libucrt:mbctype.obj
 0002:0000b30c       $unwind$?fin$0@?0??update_thread_multibyte_data_internal@@YAPEAU__crt_multibyte_data@@QEAU__acrt_ptd@@QEAPEAU1@@Z@4HA 000000018003130c     libucrt:mbctype.obj
 0002:0000b30c       $unwind$?fin$0@?0???$?RV<lambda_450d765d439847d4c735a33c368b5fc0>@@AEAV<lambda_44731a7d0e6d81c3e6aa82d741081786>@@V<lambda_601a2a7da3b7a96e9554ac7215c4b07c>@@@?$__crt_seh_guarded_call@P6AXH@Z@@QEAAP6AXH@Z$$QEAV<lambda_450d765d439847d4c735a33c368b5fc0>@@AEAV<lambda_44731a7d0e6d81c3e6aa82d741081786>@@$$QEAV<lambda_601a2a7da3b7a96e9554ac7215c4b07c>@@@Z@4HA 000000018003130c     libucrt:signal.obj
 0002:0000b30c       $unwind$raise$fin$0        000000018003130c     libucrt:signal.obj
 0002:0000b30c       $unwind$?filt$0@?0???R<lambda_6e4b09c48022b2350581041d5f6b0c4c>@@QEBA@XZ@4HA 000000018003130c     libucrt:exit.obj
 0002:0000b30c       $unwind$?fin$0@?0???$?RV<lambda_d80eeec6fff315bfe5c115232f3240e3>@@AEAV<lambda_6e4b09c48022b2350581041d5f6b0c4c>@@V<lambda_2358e3775559c9db80273638284d5e45>@@@?$__crt_seh_guarded_call@X@@QEAAX$$QEAV<lambda_d80eeec6fff315bfe5c115232f3240e3>@@AEAV<lambda_6e4b09c48022b2350581041d5f6b0c4c>@@$$QEAV<lambda_2358e3775559c9db80273638284d5e45>@@@Z@4HA 000000018003130c     libucrt:exit.obj
 0002:0000b30c       $unwind$?fin$0@?0???$?RV<lambda_638799b9deba96c50f710eeac98168cd>@@AEAV<lambda_22ebabd17bc4fa466a2aca6d8deb888d>@@V<lambda_a6f7d7db0129f75315ebf26d50c089f1>@@@?$__crt_seh_guarded_call@H@@QEAAH$$QEAV<lambda_638799b9deba96c50f710eeac98168cd>@@AEAV<lambda_22ebabd17bc4fa466a2aca6d8deb888d>@@$$QEAV<lambda_a6f7d7db0129f75315ebf26d50c089f1>@@@Z@4HA 000000018003130c     libucrt:onexit.obj
 0002:0000b30c       $unwind$?fin$0@?0???$?RV<lambda_7777bce6b2f8c936911f934f8298dc43>@@AEAV<lambda_f03950bc5685219e0bcd2087efbe011e>@@V<lambda_3883c3dff614d5e0c5f61bb1ac94921c>@@@?$__crt_seh_guarded_call@H@@QEAAH$$QEAV<lambda_7777bce6b2f8c936911f934f8298dc43>@@AEAV<lambda_f03950bc5685219e0bcd2087efbe011e>@@$$QEAV<lambda_3883c3dff614d5e0c5f61bb1ac94921c>@@@Z@4HA 000000018003130c     libucrt:onexit.obj
 0002:0000b30c       $unwind$_fcloseall$fin$0   000000018003130c     libucrt:closeall.obj
 0002:0000b30c       $unwind$?fin$0@?0???$?RV<lambda_842d9ff0dc9ef11c61343bbaebe7f885>@@AEAV<lambda_c5860995281e5c4ce005b3de8f5874ee>@@V<lambda_d90129c13df834fdcbf8d2b88dafcf2d>@@@?$__crt_seh_guarded_call@X@@QEAAX$$QEAV<lambda_842d9ff0dc9ef11c61343bbaebe7f885>@@AEAV<lambda_c5860995281e5c4ce005b3de8f5874ee>@@$$QEAV<lambda_d90129c13df834fdcbf8d2b88dafcf2d>@@@Z@4HA 000000018003130c     libucrt:fflush.obj
 0002:0000b30c       $unwind$?fin$0@?0???$?RV<lambda_886d6c58226a84441f68b9f2b8217b83>@@AEAV<lambda_ab61a845afdef5b7c387490eaf3616ee>@@V<lambda_f7f22ab5edc0698d5f6905b0d3f44752>@@@?$__crt_seh_guarded_call@X@@QEAAX$$QEAV<lambda_886d6c58226a84441f68b9f2b8217b83>@@AEAV<lambda_ab61a845afdef5b7c387490eaf3616ee>@@$$QEAV<lambda_f7f22ab5edc0698d5f6905b0d3f44752>@@@Z@4HA 000000018003130c     libucrt:fflush.obj
 0002:0000b30c       $unwind$_ctrlfp$filt$0     000000018003130c     libucrt:fpctrl.obj
 0002:0000b30c       $unwind$common_control87$filt$0 000000018003130c     libucrt:ieee.obj
 0002:0000b30c       $unwind$?fin$0@?0??dllmain_crt_process_attach@@YAHQEAUHINSTANCE__@@QEAX@Z@4HA 000000018003130c     LIBCMT:dll_dllmain.obj
 0002:0000b30c       $unwind$?fin$0@?0??dllmain_crt_process_detach@@YAH_N@Z@4HA 000000018003130c     LIBCMT:dll_dllmain.obj
 0002:0000b30c       $unwind$?fin$1@?0??dllmain_crt_process_detach@@YAH_N@Z@4HA 000000018003130c     LIBCMT:dll_dllmain.obj
 0002:0000b30c       $unwind$_IsNonwritableInCurrentImage$filt$0 000000018003130c     LIBCMT:pesect.obj
 0002:0000b30c       $unwind$?filt$0@?0??CxxCallCatchBlock@__FrameHandler3@@SAPEAXPEAU_EXCEPTION_RECORD@@@Z@4HA 000000018003130c     libvcruntime:frame.obj
 0002:0000b30c       $unwind$?filt$0@?0??CxxCallCatchBlock@__FrameHandler4@@SAPEAXPEAU_EXCEPTION_RECORD@@@Z@4HA 000000018003130c     libvcruntime:frame.obj
 0002:0000b30c       $unwind$?filt$0@?0??FrameUnwindToState@__FrameHandler3@@SAXPEA_KPEAU_xDISPATCHER_CONTEXT@@PEBU_s_FuncInfo@@H@Z@4HA 000000018003130c     libvcruntime:frame.obj
 0002:0000b30c       $unwind$?fin$1@?0??FrameUnwindToState@__FrameHandler3@@SAXPEA_KPEAU_xDISPATCHER_CONTEXT@@PEBU_s_FuncInfo@@H@Z@4HA 000000018003130c     libvcruntime:frame.obj
 0002:0000b314       $unwind$?AtlInternalOleLoadFromStream@ATL@@YAJPEAUIStream@@AEBU_GUID@@PEAPEAXTClassesAllowedInStream@1@K@Z 0000000180031314     SoundPlayer.obj
 0002:0000b330       $unwind$?ReadFromStream@CComBSTR@ATL@@QEAAJPEAUIStream@@@Z 0000000180031330     SoundPlayer.obj
 0002:0000b330       $unwind$_configure_narrow_argv 0000000180031330     libucrt:argv_parsing.obj
 0002:0000b344       $unwind$?WriteToStream@CComVariant@ATL@@QEAAJPEAUIStream@@@Z 0000000180031344     SoundPlayer.obj
 0002:0000b358       $unwind$?RegOpenKeyExW@CAtlTransactionManager@ATL@@QEAAJPEAUHKEY__@@PEB_WKKPEAPEAU3@@Z 0000000180031358     SoundPlayer.obj
 0002:0000b358       $unwind$?WriteToStream@CComVariant@ATL@@QEAAJPEAUIStream@@G@Z 0000000180031358     SoundPlayer.obj
 0002:0000b358       $unwind$__dcrt_write_console 0000000180031358     libucrt:initcon.obj
 0002:0000b358       $unwind$??$__acrt_convert_wcs_mbs_cp@_WDV<lambda_f788ae46380686e8b737efdd8c720d07>@@U__crt_win32_buffer_no_resizing@@@@YAHQEB_WAEAV?$__crt_win32_buffer@DU__crt_win32_buffer_no_resizing@@@@AEBV<lambda_f788ae46380686e8b737efdd8c720d07>@@I@Z 0000000180031358     libucrt:getmodulefilenamea.obj
 0002:0000b36c       $unwind$?ReadFromStream@CComVariant@ATL@@QEAAJPEAUIStream@@GTClassesAllowedInStream@2@K@Z 000000018003136c     SoundPlayer.obj
 0002:0000b384       $unwind$?GetSizeMax@CComVariant@ATL@@QEBAJPEAT_ULARGE_INTEGER@@@Z 0000000180031384     SoundPlayer.obj
 0002:0000b398       $unwind$?RegCreateKeyExW@CAtlTransactionManager@ATL@@QEAAJPEAUHKEY__@@PEB_WKPEA_WKKQEAU_SECURITY_ATTRIBUTES@@PEAPEAU3@PEAK@Z 0000000180031398     SoundPlayer.obj
 0002:0000b3ac       $unwind$?GetGITPtr@CAtlModule@ATL@@UEAAJPEAPEAUIGlobalInterfaceTable@@@Z 00000001800313ac     SoundPlayer.obj
 0002:0000b3ac       $unwind$?RegDeleteKeyW@CAtlTransactionManager@ATL@@QEAAJPEAUHKEY__@@PEB_W@Z 00000001800313ac     SoundPlayer.obj
 0002:0000b3ac       $unwind$?getStateFromIterators@UWMap4@FH4@@SAHAEBViterator@12@H0H0@Z 00000001800313ac     libvcruntime:frame.obj
 0002:0000b3bc       $unwind$?AtlHiMetricToPixel@ATL@@YAXPEBUtagSIZE@@PEAU2@@Z 00000001800313bc     SoundPlayer.obj
 0002:0000b3bc       $unwind$?AtlInternalQueryInterface@ATL@@YAJPEAXPEBU_ATL_INTMAP_ENTRY@1@AEBU_GUID@@PEAPEAX@Z 00000001800313bc     SoundPlayer.obj
 0002:0000b3d4       $unwind$?Append@CParseBuffer@CRegParser@ATL@@QEAAHPEB_WH@Z 00000001800313d4     SoundPlayer.obj
 0002:0000b3d4       $unwind$?AtlComModuleGetClassObject@ATL@@YAJPEAU_ATL_COM_MODULE70@1@AEBU_GUID@@1PEAPEAX@Z 00000001800313d4     SoundPlayer.obj
 0002:0000b3d4       $unwind$?GetClassObject@CComModule@ATL@@QEAAJAEBU_GUID@@0PEAPEAX@Z 00000001800313d4     SoundPlayer.obj
 0002:0000b3d4       $unwind$?NextToken@CRegParser@ATL@@IEAAJPEA_W@Z 00000001800313d4     SoundPlayer.obj
 0002:0000b3d4       $unwind$?StartWindowProc@?$CWindowImplBaseT@VCWindow@ATL@@V?$CWinTraits@$0FGAAAAAA@$0A@@2@@ATL@@SA_JPEAUHWND__@@I_K_J@Z 00000001800313d4     SoundPlayer.obj
 0002:0000b3d4       $unwind$?fp_format_f_internal@@YAHQEAD_KHQEAU_strflt@@_NAEAV__crt_cached_ptd_host@@@Z 00000001800313d4     libucrt:cvt.obj
 0002:0000b3d4       $unwind$__acrt_DownlevelLocaleNameToLCID 00000001800313d4     libucrt:lcidtoname_downlevel.obj
 0002:0000b3d4       $unwind$??R<lambda_f03950bc5685219e0bcd2087efbe011e>@@QEBAHXZ 00000001800313d4     libucrt:onexit.obj
 0002:0000b3ec       $unwind$?AtlRegisterClassCategoriesHelper@ATL@@YAJAEBU_GUID@@PEBU_ATL_CATMAP_ENTRY@1@H@Z 00000001800313ec     SoundPlayer.obj
 0002:0000b410       $unwind$?AtlLoadTypeLib@ATL@@YAJPEAUHINSTANCE__@@PEB_WPEAPEA_WPEAPEAUITypeLib@@@Z 0000000180031410     SoundPlayer.obj
 0002:0000b430       $unwind$?AtlRegisterTypeLib@ATL@@YAJPEAUHINSTANCE__@@PEB_W@Z 0000000180031430     SoundPlayer.obj
 0002:0000b44c       $unwind$?AtlUnRegisterTypeLib@ATL@@YAJPEAUHINSTANCE__@@PEB_W@Z 000000018003144c     SoundPlayer.obj
 0002:0000b454       $unwind$?GetTI@CComTypeInfoHolder@ATL@@QEAAJK@Z 0000000180031454     SoundPlayer.obj
 0002:0000b454       $unwind$?RecurseDeleteKey@CRegKey@ATL@@QEAAJPEB_W@Z 0000000180031454     SoundPlayer.obj
 0002:0000b474       $unwind$?UpdateRegistryFromResource@CAtlModule@ATL@@QEAAJIHPEAU_ATL_REGMAP_ENTRY@2@@Z 0000000180031474     SoundPlayer.obj
 0002:0000b474       $unwind$?UpdateRegistryFromResource@CAtlModule@ATL@@QEAAJPEB_WHPEAU_ATL_REGMAP_ENTRY@2@@Z 0000000180031474     SoundPlayer.obj
 0002:0000b494       $unwind$?Lookup@?$CSimpleMap@PEA_WPEA_WVCExpansionVectorEqualHelper@ATL@@@ATL@@QEBAPEA_WAEBQEA_W@Z 0000000180031494     SoundPlayer.obj
 0002:0000b494       $unwind$_free_osfhnd       0000000180031494     libucrt:osfinfo.obj
 0002:0000b494       $unwind$__std_exception_copy 0000000180031494     libvcruntime:std_exception.obj
 0002:0000b4a8       $unwind$?Add@CExpansionVector@ATL@@QEAAHPEB_W0@Z 00000001800314a8     SoundPlayer.obj
 0002:0000b4c0       $unwind$?PreProcessBuffer@CRegParser@ATL@@QEAAJPEA_WPEAPEA_W@Z 00000001800314c0     SoundPlayer.obj
 0002:0000b4e4       $unwind$?RegisterBuffer@CRegParser@ATL@@QEAAJPEA_WH@Z 00000001800314e4     SoundPlayer.obj
 0002:0000b504       $unwind$?AddValue@CRegParser@ATL@@IEAAJAEAVCRegKey@2@PEB_WPEA_W@Z 0000000180031504     SoundPlayer.obj
 0002:0000b524       $unwind$?RegisterSubkeys@CRegParser@ATL@@IEAAJPEA_WPEAUHKEY__@@HH@Z 0000000180031524     SoundPlayer.obj
 0002:0000b544       $unwind$?SkipAssignment@CRegParser@ATL@@IEAAJPEA_W@Z 0000000180031544     SoundPlayer.obj
 0002:0000b560       $unwind$?RegisterFromResource@CRegObject@ATL@@IEAAJPEB_W00H@Z 0000000180031560     SoundPlayer.obj
 0002:0000b580       $unwind$?Cleanup@CComTypeInfoHolder@ATL@@SAX_K@Z 0000000180031580     SoundPlayer.obj
 0002:0000b580       $unwind$_free_base         0000000180031580     libucrt:free_base.obj
 0002:0000b580       $unwind$?destroy_fls@@YAXPEAX@Z 0000000180031580     libucrt:per_thread_data.obj
 0002:0000b580       $unwind$__acrt_locale_free_numeric 0000000180031580     libucrt:initnum.obj
 0002:0000b580       $unwind$__acrt_locale_free_lc_time_if_unreferenced 0000000180031580     libucrt:locale_refcounting.obj
 0002:0000b580       $unwind$AtlThunk_FreeData  0000000180031580     atls:atlthunk.obj
 0002:0000b588       $unwind$?GetIDsOfNames@CComTypeInfoHolder@ATL@@QEAAJAEBU_GUID@@PEAPEA_WIKPEAJ@Z 0000000180031588     SoundPlayer.obj
 0002:0000b5a4       $unwind$?LoadNameCache@CComTypeInfoHolder@ATL@@QEAAJPEAUITypeInfo@@@Z 00000001800315a4     SoundPlayer.obj
 0002:0000b5bc       $unwind$?WindowProc@?$CWindowImplBaseT@VCWindow@ATL@@V?$CWinTraits@$0FGAAAAAA@$0A@@2@@ATL@@SA_JPEAUHWND__@@I_K_J@Z 00000001800315bc     SoundPlayer.obj
 0002:0000b5d4       $unwind$?atlCreate@?$CWindowImplBaseT@VCWindow@ATL@@V?$CWinTraits@$0FGAAAAAA@$0A@@2@@ATL@@QEAAPEAUHWND__@@PEAU3@V_U_RECT@2@PEB_WKKV_U_MENUorID@2@GPEAX@Z 00000001800315d4     SoundPlayer.obj
 0002:0000b5ec       $unwind$??$AtlModuleRegisterWndClassInfoT@VAtlModuleRegisterWndClassInfoParamW@ATL@@@ATL@@YAGPEAU_ATL_BASE_MODULE70@0@PEAU_ATL_WIN_MODULE70@0@PEAU_ATL_WNDCLASSINFOW@0@PEAP6A_JPEAUHWND__@@I_K_J@ZVAtlModuleRegisterWndClassInfoParamW@0@@Z 00000001800315ec     SoundPlayer.obj
 0002:0000b60c       $unwind$?GetZoomInfo@CComControlBase@ATL@@QEAAXAEAUATL_DRAWINFO@@@Z 000000018003160c     SoundPlayer.obj
 0002:0000b60c       $unwind$?OnKillFocus@CComControlBase@ATL@@QEAA_JI_K_JAEAH@Z 000000018003160c     SoundPlayer.obj
 0002:0000b60c       $unwind$?get_raw_ptd@__crt_cached_ptd_host@@QEAAPEAU__acrt_ptd@@XZ 000000018003160c     libucrt:invalid_parameter.obj
 0002:0000b618       $unwind$?SendOnDataChange@CComControlBase@ATL@@QEAAJK@Z 0000000180031618     SoundPlayer.obj
 0002:0000b628       $unwind$?OnSetFocus@CComControlBase@ATL@@QEAA_JI_K_JAEAH@Z 0000000180031628     SoundPlayer.obj
 0002:0000b63c       $unwind$?OnMouseActivate@CComControlBase@ATL@@QEAA_JI_K_JAEAH@Z 000000018003163c     SoundPlayer.obj
 0002:0000b644       $unwind$?GetAmbientLocaleID@CComControlBase@ATL@@QEAAJAEAK@Z 0000000180031644     SoundPlayer.obj
 0002:0000b644       $unwind$?GetAmbientUserMode@CComControlBase@ATL@@QEAAJAEAH@Z 0000000180031644     SoundPlayer.obj
 0002:0000b654       $unwind$?IQuickActivate_QuickActivate@CComControlBase@ATL@@QEAAJPEAUtagQACONTAINER@@PEAUtagQACONTROL@@@Z 0000000180031654     SoundPlayer.obj
 0002:0000b66c       $unwind$?DoVerbProperties@CComControlBase@ATL@@QEAAJPEBUtagRECT@@PEAUHWND__@@@Z 000000018003166c     SoundPlayer.obj
 0002:0000b684       $unwind$?InPlaceActivate@CComControlBase@ATL@@QEAAJJPEBUtagRECT@@@Z 0000000180031684     SoundPlayer.obj
 0002:0000b6a4       $unwind$?IOleObject_Close@CComControlBase@ATL@@QEAAJK@Z 00000001800316a4     SoundPlayer.obj
 0002:0000b6a4       $unwind$?get_raw_ptd_noexit@__crt_cached_ptd_host@@QEAAPEAU__acrt_ptd@@XZ 00000001800316a4     libucrt:invalid_parameter.obj
 0002:0000b6a4       $unwind$?type_case_c_tchar@?$output_processor@_WV?$string_output_adapter@_W@__crt_stdio_output@@V?$format_validation_base@_WV?$string_output_adapter@_W@__crt_stdio_output@@@2@@__crt_stdio_output@@AEAA_N_W@Z 00000001800316a4     libucrt:output.obj
 0002:0000b6b4       $unwind$?IOleInPlaceObject_UIDeactivate@CComControlBase@ATL@@QEAAJXZ 00000001800316b4     SoundPlayer.obj
 0002:0000b6cc       $unwind$?IOleInPlaceObject_SetObjectRects@CComControlBase@ATL@@QEAAJPEBUtagRECT@@0@Z 00000001800316cc     SoundPlayer.obj
 0002:0000b6e0       $unwind$?IViewObject_Draw@CComControlBase@ATL@@QEAAJKJPEAXPEAUtagDVTARGETDEVICE@@PEAUHDC__@@2PEBU_RECTL@@3@Z 00000001800316e0     SoundPlayer.obj
 0002:0000b6fc       $unwind$?IDataObject_GetData@CComControlBase@ATL@@QEAAJPEAUtagFORMATETC@@PEAUtagSTGMEDIUM@@@Z 00000001800316fc     SoundPlayer.obj
 0002:0000b71c       $unwind$?OnPaint@CComControlBase@ATL@@QEAA_JI_K_JAEAH@Z 000000018003171c     SoundPlayer.obj
 0002:0000b738       $unwind$?OnDrawAdvanced@CComControlBase@ATL@@UEAAJAEAUATL_DRAWINFO@@@Z 0000000180031738     SoundPlayer.obj
 0002:0000b754       $unwind$?Invoke@?$IDispatchImpl@UIOPOSSoundPlayer@@$1?IID_IOPOSSoundPlayer@@3U_GUID@@B$1?LIBID_OposSoundPlayer_CCO@@3U3@B$00$0A@VCComTypeInfoHolder@ATL@@@ATL@@UEAAJJAEBU_GUID@@KGPEAUtagDISPPARAMS@@PEAUtagVARIANT@@PEAUtagEXCEPINFO@@PEAI@Z 0000000180031754     SoundPlayer.obj
 0002:0000b754       $unwind$?ReleaseDevice@COPOSSoundPlayer@@UEAAJPEAJ@Z 0000000180031754     SoundPlayerImpl.obj
 0002:0000b754       $unwind$_mbsdec_l          0000000180031754     libucrt:mbsdec.obj
 0002:0000b760       $unwind$?atlCreate@?$CWindowImpl@VCOPOSSoundPlayer@@VCWindow@ATL@@V?$CWinTraits@$0FGAAAAAA@$0A@@3@@ATL@@QEAAPEAUHWND__@@PEAU3@V_U_RECT@2@PEB_WKKV_U_MENUorID@2@PEAX@Z 0000000180031760     SoundPlayer.obj
 0002:0000b760       $unwind$?fp_format_f@@YAHQEBNQEAD_K12HW4__acrt_rounding_mode@@AEAV__crt_cached_ptd_host@@@Z 0000000180031760     libucrt:cvt.obj
 0002:0000b760       $unwind$__acrt_LCMapStringEx 0000000180031760     libucrt:winapi_thunks.obj
 0002:0000b774       $unwind$?CreateControlWindow@?$CComControl@VCOPOSSoundPlayer@@V?$CWindowImpl@VCOPOSSoundPlayer@@VCWindow@ATL@@V?$CWinTraits@$0FGAAAAAA@$0A@@3@@ATL@@@ATL@@UEAAPEAUHWND__@@PEAU3@AEAUtagRECT@@@Z 0000000180031774     SoundPlayer.obj
 0002:0000b774       $unwind$?ClearOutput@COPOSSoundPlayer@@UEAAJPEAJ@Z 0000000180031774     SoundPlayerImpl.obj
 0002:0000b774       $unwind$_raise_exc         0000000180031774     libucrt:fpexcept.obj
 0002:0000b774       $unwind$?__scrt_throw_std_bad_alloc@@YAXXZ 0000000180031774     LIBCMT:throw_bad_alloc.obj
 0002:0000b774       $unwind$?__scrt_throw_std_bad_array_new_length@@YAXXZ 0000000180031774     LIBCMT:throw_bad_alloc.obj
 0002:0000b77c       $unwind$?ProcessWindowMessage@?$CComControl@VCOPOSSoundPlayer@@V?$CWindowImpl@VCOPOSSoundPlayer@@VCWindow@ATL@@V?$CWinTraits@$0FGAAAAAA@$0A@@3@@ATL@@@ATL@@UEAAHPEAUHWND__@@I_K_JAEA_JK@Z 000000018003177c     SoundPlayer.obj
 0002:0000b784       $unwind$?GetSizeMax@?$IPersistStreamInitImpl@VCOPOSSoundPlayer@@@ATL@@UEAAJPEAT_ULARGE_INTEGER@@@Z 0000000180031784     SoundPlayer.obj
 0002:0000b79c       $unwind$?IPersistStreamInit_Load@?$IPersistStreamInitImpl@VCOPOSSoundPlayer@@@ATL@@QEAAJPEAUIStream@@PEBUATL_PROPMAP_ENTRY@2@@Z 000000018003179c     SoundPlayer.obj
 0002:0000b7b8       $unwind$?IPersistStreamInit_Save@?$IPersistStreamInitImpl@VCOPOSSoundPlayer@@@ATL@@QEAAJPEAUIStream@@HPEBUATL_PROPMAP_ENTRY@2@@Z 00000001800317b8     SoundPlayer.obj
 0002:0000b7d4       $unwind$?DoVerbPrimary@?$IOleObjectImpl@VCOPOSSoundPlayer@@@ATL@@QEAAJPEBUtagRECT@@PEAUHWND__@@@Z 00000001800317d4     SoundPlayer.obj
 0002:0000b7ec       $unwind$?TranslateAcceleratorW@?$IOleInPlaceActiveObjectImpl@VCOPOSSoundPlayer@@@ATL@@UEAAJPEAUtagMSG@@@Z 00000001800317ec     SoundPlayer.obj
 0002:0000b7f8       $unwind$?Draw@?$IViewObjectExImpl@VCOPOSSoundPlayer@@@ATL@@UEAAJKJPEAXPEAUtagDVTARGETDEVICE@@PEAUHDC__@@2PEBU_RECTL@@3P6AH_K@Z4@Z 00000001800317f8     SoundPlayer.obj
 0002:0000b800       $unwind$?QueryHitRect@?$IViewObjectExImpl@VCOPOSSoundPlayer@@@ATL@@UEAAJKPEBUtagRECT@@0JPEAK@Z 0000000180031800     SoundPlayer.obj
 0002:0000b810       $unwind$?OnWindowMessage@?$IOleInPlaceObjectWindowlessImpl@VCOPOSSoundPlayer@@@ATL@@UEAAJI_K_JPEA_J@Z 0000000180031810     SoundPlayer.obj
 0002:0000b824       $unwind$?EnumConnectionPoints@?$IConnectionPointContainerImpl@VCOPOSSoundPlayer@@@ATL@@UEAAJPEAPEAUIEnumConnectionPoints@@@Z 0000000180031824     SoundPlayer.obj
 0002:0000b84c       $unwind$?FindConnectionPoint@?$IConnectionPointContainerImpl@VCOPOSSoundPlayer@@@ATL@@UEAAJAEBU_GUID@@PEAPEAUIConnectionPoint@@@Z 000000018003184c     SoundPlayer.obj
 0002:0000b868       $unwind$?Load@?$IPersistStorageImpl@VCOPOSSoundPlayer@@@ATL@@UEAAJPEAUIStorage@@@Z 0000000180031868     SoundPlayer.obj
 0002:0000b878       $unwind$?Save@?$IPersistStorageImpl@VCOPOSSoundPlayer@@@ATL@@UEAAJPEAUIStorage@@H@Z 0000000180031878     SoundPlayer.obj
 0002:0000b88c       $unwind$?IPSI_GetIPersistStreamInit@?$IPersistStorageImpl@VCOPOSSoundPlayer@@@ATL@@AEAAPEAUIPersistStreamInit@@XZ 000000018003188c     SoundPlayer.obj
 0002:0000b8a0       $unwind$?GetInterfaceSafetyOptions@?$IObjectSafetyImpl@VCOPOSSoundPlayer@@$02@ATL@@UEAAJAEBU_GUID@@PEAK1@Z 00000001800318a0     SoundPlayer.obj
 0002:0000b8b4       $unwind$?SetInterfaceSafetyOptions@?$IObjectSafetyImpl@VCOPOSSoundPlayer@@$02@ATL@@UEAAJAEBU_GUID@@KK@Z 00000001800318b4     SoundPlayer.obj
 0002:0000b8c8       $unwind$?Advise@?$IConnectionPointImpl@VCOPOSSoundPlayer@@$1?DIID__IOPOSSoundPlayerEvents@@3U_GUID@@BVCComDynamicUnkArray@ATL@@@ATL@@UEAAJPEAUIUnknown@@PEAK@Z 00000001800318c8     SoundPlayer.obj
 0002:0000b8c8       $unwind$?Advise@?$IConnectionPointImpl@VCOPOSSoundPlayer@@$1?IID_IPropertyNotifySink@@3U_GUID@@BVCComDynamicUnkArray@ATL@@@ATL@@UEAAJPEAUIUnknown@@PEAK@Z 00000001800318c8     SoundPlayer.obj
 0002:0000b8dc       $unwind$?EnumConnections@?$IConnectionPointImpl@VCOPOSSoundPlayer@@$1?DIID__IOPOSSoundPlayerEvents@@3U_GUID@@BVCComDynamicUnkArray@ATL@@@ATL@@UEAAJPEAPEAUIEnumConnections@@@Z 00000001800318dc     SoundPlayer.obj
 0002:0000b8dc       $unwind$?EnumConnections@?$IConnectionPointImpl@VCOPOSSoundPlayer@@$1?IID_IPropertyNotifySink@@3U_GUID@@BVCComDynamicUnkArray@ATL@@@ATL@@UEAAJPEAPEAUIEnumConnections@@@Z 00000001800318dc     SoundPlayer.obj
 0002:0000b8f4       $unwind$?Fire_DirectIOEvent@?$CProxy_IOPOSEvents@VCOPOSSoundPlayer@@@@QEAAXJPEAJPEAPEA_W@Z 00000001800318f4     SoundPlayer.obj
 0002:0000b914       $unwind$?Fire_ErrorEvent@?$CProxy_IOPOSEvents@VCOPOSSoundPlayer@@@@QEAAXJJJPEAJ@Z 0000000180031914     SoundPlayer.obj
 0002:0000b934       $unwind$?Fire_OutputCompleteEvent@?$CProxy_IOPOSEvents@VCOPOSSoundPlayer@@@@QEAAXJ@Z 0000000180031934     SoundPlayer.obj
 0002:0000b934       $unwind$?Fire_StatusUpdateEvent@?$CProxy_IOPOSEvents@VCOPOSSoundPlayer@@@@QEAAXJ@Z 0000000180031934     SoundPlayer.obj
 0002:0000b934       $unwind$?fp_format_e@@YAHQEBNQEAD_K12H_NIW4__acrt_rounding_mode@@AEAV__crt_cached_ptd_host@@@Z 0000000180031934     libucrt:cvt.obj
 0002:0000b934       $unwind$??$__InternalCxxFrameHandler@V__FrameHandler3@@@@YA?AW4_EXCEPTION_DISPOSITION@@PEAUEHExceptionRecord@@PEA_KPEAU_CONTEXT@@PEAU_xDISPATCHER_CONTEXT@@PEBU_s_FuncInfo@@H1E@Z 0000000180031934     libvcruntime:frame.obj
 0002:0000b94c       $unwind$?FireTheEvent@?$CProxy_IOPOSEvents@VCOPOSSoundPlayer@@@@IEAAXPEAVOposVariant@@IAEAJPEB_WJ@Z 000000018003194c     SoundPlayer.obj
 0002:0000b95c       $unwind$?ProcessWindowMessage@COPOSSoundPlayer@@UEAAHPEAUHWND__@@I_K_JAEA_JK@Z 000000018003195c     SoundPlayer.obj
 0002:0000b974       $unwind$?SOError@COPOSSoundPlayer@@MEAAJJJJPEAJ@Z 0000000180031974     SoundPlayer.obj
 0002:0000b974       $unwind$??$common_lseek_nolock@_J@@YA_JH_JHAEAV__crt_cached_ptd_host@@@Z 0000000180031974     libucrt:lseek.obj
 0002:0000b974       $unwind$_invalid_parameter_internal 0000000180031974     libucrt:invalid_parameter.obj
 0002:0000b974       $unwind$??$type_case_integer@$07@?$output_processor@_WV?$string_output_adapter@_W@__crt_stdio_output@@V?$format_validation_base@_WV?$string_output_adapter@_W@__crt_stdio_output@@@2@@__crt_stdio_output@@AEAA_N_N@Z 0000000180031974     libucrt:output.obj
 0002:0000b974       $unwind$??$type_case_integer@$09@?$output_processor@_WV?$string_output_adapter@_W@__crt_stdio_output@@V?$format_validation_base@_WV?$string_output_adapter@_W@__crt_stdio_output@@@2@@__crt_stdio_output@@AEAA_N_N@Z 0000000180031974     libucrt:output.obj
 0002:0000b974       $unwind$??$type_case_integer@$0BA@@?$output_processor@_WV?$string_output_adapter@_W@__crt_stdio_output@@V?$format_validation_base@_WV?$string_output_adapter@_W@__crt_stdio_output@@@2@@__crt_stdio_output@@AEAA_N_N@Z 0000000180031974     libucrt:output.obj
 0002:0000b988       $unwind$?Clone@?$CComEnumImpl@UIEnumConnectionPoints@@$1?_GUID_b196b285_bab4_101a_b69c_00aa00341d07@@3U__s_GUID@@BPEAUIConnectionPoint@@V?$_CopyInterface@UIConnectionPoint@@@ATL@@@ATL@@UEAAJPEAPEAUIEnumConnectionPoints@@@Z 0000000180031988     SoundPlayer.obj
 0002:0000b988       $unwind$?Clone@?$CComEnumImpl@UIEnumConnections@@$1?_GUID_b196b287_bab4_101a_b69c_00aa00341d07@@3U__s_GUID@@BUtagCONNECTDATA@@V?$_Copy@UtagCONNECTDATA@@@ATL@@@ATL@@UEAAJPEAPEAUIEnumConnections@@@Z 0000000180031988     SoundPlayer.obj
 0002:0000b9a0       $unwind$?Init@?$CComEnumImpl@UIEnumConnectionPoints@@$1?_GUID_b196b285_bab4_101a_b69c_00aa00341d07@@3U__s_GUID@@BPEAUIConnectionPoint@@V?$_CopyInterface@UIConnectionPoint@@@ATL@@@ATL@@QEAAJPEAPEAUIConnectionPoint@@0PEAUIUnknown@@W4CComEnumFlags@2@@Z 00000001800319a0     SoundPlayer.obj
 0002:0000b9a0       $unwind$?Init@?$CComEnumImpl@UIEnumConnections@@$1?_GUID_b196b287_bab4_101a_b69c_00aa00341d07@@3U__s_GUID@@BUtagCONNECTDATA@@V?$_Copy@UtagCONNECTDATA@@@ATL@@@ATL@@QEAAJPEAUtagCONNECTDATA@@0PEAUIUnknown@@W4CComEnumFlags@2@@Z 00000001800319a0     SoundPlayer.obj
 0002:0000b9a0       $unwind$?should_round_up@@YA_NQEBN_KFW4__acrt_rounding_mode@@@Z 00000001800319a0     libucrt:cvt.obj
 0002:0000b9a0       $unwind$??$parse_command_line@D@@YAXPEADPEAPEAD0PEA_K2@Z 00000001800319a0     libucrt:argv_parsing.obj
 0002:0000b9bc       $unwind$?GetOposProp@COPOSSoundPlayer@@IEAAJJPEAJJ@Z 00000001800319bc     SoundPlayerImpl.obj
 0002:0000b9bc       $unwind$?GetOposProp@COPOSSoundPlayer@@IEAAJJPEAPEA_WJ@Z 00000001800319bc     SoundPlayerImpl.obj
 0002:0000b9d4       $unwind$?SetOposProp@COPOSSoundPlayer@@IEAAJJJJ@Z 00000001800319d4     SoundPlayerImpl.obj
 0002:0000b9f4       $unwind$?DoInvoke@COPOSSoundPlayer@@IEAAJJPEAVOposVariant@@IHPEAJ_N@Z 00000001800319f4     SoundPlayerImpl.obj
 0002:0000ba0c       $unwind$?SetCOFreezeEvents@COPOSSoundPlayer@@IEAAXF@Z 0000000180031a0c     SoundPlayerImpl.obj
 0002:0000ba20       $unwind$?OnDraw@COPOSSoundPlayer@@MEAAJAEAUATL_DRAWINFO@@@Z 0000000180031a20     SoundPlayerImpl.obj
 0002:0000ba38       $unwind$?EventInit@COPOSSoundPlayer@@IEAAJXZ 0000000180031a38     SoundPlayerImpl.obj
 0002:0000ba4c       $unwind$?EventWindowProc@COPOSSoundPlayer@@IEAA_JI_K_J@Z 0000000180031a4c     SoundPlayerImpl.obj
 0002:0000ba4c       $unwind$?type_case_n@?$output_processor@_WV?$string_output_adapter@_W@__crt_stdio_output@@V?$format_validation_base@_WV?$string_output_adapter@_W@__crt_stdio_output@@@2@@__crt_stdio_output@@AEAA_NXZ 0000000180031a4c     libucrt:output.obj
 0002:0000ba58       $unwind$?get_ControlObjectDescription@COPOSSoundPlayer@@UEAAJPEAPEA_W@Z 0000000180031a58     SoundPlayerImpl.obj
 0002:0000ba58       $unwind$__dcrt_lowio_ensure_console_output_initialized 0000000180031a58     libucrt:initcon.obj
 0002:0000ba58       $unwind$?__mbrtowc_utf8@__crt_mbstring@@YA_KPEA_WPEBD_KPEAU_Mbstatet@@AEAV__crt_cached_ptd_host@@@Z 0000000180031a58     libucrt:mbrtowc.obj
 0002:0000ba58       $unwind$?getSystemCP@@YAHH@Z 0000000180031a58     libucrt:mbctype.obj
 0002:0000ba60       $unwind$?CheckHealth@COPOSSoundPlayer@@UEAAJJPEAJ@Z 0000000180031a60     SoundPlayerImpl.obj
 0002:0000ba60       $unwind$?ResetStatistics@COPOSSoundPlayer@@UEAAJPEA_WPEAJ@Z 0000000180031a60     SoundPlayerImpl.obj
 0002:0000ba60       $unwind$?RetrieveStatistics@COPOSSoundPlayer@@UEAAJPEAPEA_WPEAJ@Z 0000000180031a60     SoundPlayerImpl.obj
 0002:0000ba60       $unwind$?StopSound@COPOSSoundPlayer@@UEAAJJPEAJ@Z 0000000180031a60     SoundPlayerImpl.obj
 0002:0000ba60       $unwind$?UpdateFirmware@COPOSSoundPlayer@@UEAAJPEA_WPEAJ@Z 0000000180031a60     SoundPlayerImpl.obj
 0002:0000ba60       $unwind$?UpdateStatistics@COPOSSoundPlayer@@UEAAJPEA_WPEAJ@Z 0000000180031a60     SoundPlayerImpl.obj
 0002:0000ba70       $unwind$?ClaimDevice@COPOSSoundPlayer@@UEAAJJPEAJ@Z 0000000180031a70     SoundPlayerImpl.obj
 0002:0000ba80       $unwind$?Close@COPOSSoundPlayer@@UEAAJPEAJ@Z 0000000180031a80     SoundPlayerImpl.obj
 0002:0000ba8c       $unwind$?DirectIO@COPOSSoundPlayer@@UEAAJJPEAJPEAPEA_W0@Z 0000000180031a8c     SoundPlayerImpl.obj
 0002:0000baa8       $unwind$?Open@COPOSSoundPlayer@@UEAAJPEA_WPEAJ@Z 0000000180031aa8     SoundPlayerImpl.obj
 0002:0000bacc       $unwind$?CompareFirmwareVersion@COPOSSoundPlayer@@UEAAJPEA_WPEAJ1@Z 0000000180031acc     SoundPlayerImpl.obj
 0002:0000bacc       $unwind$?PlaySoundW@COPOSSoundPlayer@@UEAAJPEA_WFPEAJ@Z 0000000180031acc     SoundPlayerImpl.obj
 0002:0000bacc       $unwind$?initialize_inherited_file_handles_nolock@@YAXXZ 0000000180031acc     libucrt:ioinit.obj
 0002:0000bae8       $unwind$__scrt_is_nonwritable_in_current_image 0000000180031ae8     LIBCMT:utility.obj
 0002:0000bb08       $unwind$__scrt_is_nonwritable_in_current_image$filt$0 0000000180031b08     LIBCMT:utility.obj
 0002:0000bb10       $unwind$__report_securityfailure 0000000180031b10     LIBCMT:gs_report.obj
 0002:0000bb18       $unwind$__report_gsfailure 0000000180031b18     LIBCMT:gs_report.obj
 0002:0000bb20       $unwind$capture_current_context 0000000180031b20     LIBCMT:gs_report.obj
 0002:0000bb2c       $unwind$capture_previous_context 0000000180031b2c     LIBCMT:gs_report.obj
 0002:0000bb38       $unwind$??2@YAPEAX_KAEBUnothrow_t@std@@@Z 0000000180031b38     LIBCMT:new_scalar_nothrow.obj
 0002:0000bb48       $cppxdata$??2@YAPEAX_KAEBUnothrow_t@std@@@Z 0000000180031b48     LIBCMT:new_scalar_nothrow.obj
 0002:0000bb55       $stateUnwindMap$??2@YAPEAX_KAEBUnothrow_t@std@@@Z 0000000180031b55     LIBCMT:new_scalar_nothrow.obj
 0002:0000bb58       $tryMap$??2@YAPEAX_KAEBUnothrow_t@std@@@Z 0000000180031b58     LIBCMT:new_scalar_nothrow.obj
 0002:0000bb60       $handlerMap$??2@YAPEAX_KAEBUnothrow_t@std@@@Z 0000000180031b60     LIBCMT:new_scalar_nothrow.obj
 0002:0000bb68       $ip2state$??2@YAPEAX_KAEBUnothrow_t@std@@@Z 0000000180031b68     LIBCMT:new_scalar_nothrow.obj
 0002:0000bb6c       $unwind$?catch$0@?0???2@YAPEAX_KAEBUnothrow_t@std@@@Z@4HA 0000000180031b6c     LIBCMT:new_scalar_nothrow.obj
 0002:0000bb7c       $cppxdata$?catch$0@?0???2@YAPEAX_KAEBUnothrow_t@std@@@Z@4HA 0000000180031b7c     LIBCMT:new_scalar_nothrow.obj
 0002:0000bb86       $stateUnwindMap$?catch$0@?0???2@YAPEAX_KAEBUnothrow_t@std@@@Z@4HA 0000000180031b86     LIBCMT:new_scalar_nothrow.obj
 0002:0000bb88       $ip2state$?catch$0@?0???2@YAPEAX_KAEBUnothrow_t@std@@@Z@4HA 0000000180031b88     LIBCMT:new_scalar_nothrow.obj
 0002:0000bb8c       $unwind$__GSHandlerCheckCommon 0000000180031b8c     LIBCMT:gshandler.obj
 0002:0000bb98       $xdatasym                  0000000180031b98     LIBCMT:chkstk.obj
 0002:0000bba0       $xdatasym                  0000000180031ba0     LIBCMT:amdsecgs.obj
 0002:0000bba4       $unwind$?dllmain_crt_process_attach@@YAHQEAUHINSTANCE__@@QEAX@Z 0000000180031ba4     LIBCMT:dll_dllmain.obj
 0002:0000bbe0       $unwind$?dllmain_crt_process_detach@@YAH_N@Z 0000000180031be0     LIBCMT:dll_dllmain.obj
 0002:0000bc34       $unwind$?dllmain_dispatch@@YAHQEAUHINSTANCE__@@KQEAX@Z 0000000180031c34     LIBCMT:dll_dllmain.obj
 0002:0000bc5c       $unwind$_write_internal$fin$0 0000000180031c5c     libucrt:write.obj
 0002:0000bc5c       $unwind$?fin$0@?0??_fclose_internal@@YAHQEAU_iobuf@@AEAV__crt_cached_ptd_host@@@Z@4HA 0000000180031c5c     libucrt:fclose.obj
 0002:0000bc5c       $unwind$?filt$0@?0??dllmain_dispatch@@YAHQEAUHINSTANCE__@@KQEAX@Z@4HA 0000000180031c5c     LIBCMT:dll_dllmain.obj
 0002:0000bc5c       $unwind$?filt$0@?0??FrameUnwindToState@__FrameHandler4@@SAXPEA_KPEAU_xDISPATCHER_CONTEXT@@PEAUFuncInfo4@FH4@@H@Z@4HA 0000000180031c5c     libvcruntime:frame.obj
 0002:0000bc5c       $unwind$?fin$1@?0??FrameUnwindToState@__FrameHandler4@@SAXPEA_KPEAU_xDISPATCHER_CONTEXT@@PEAUFuncInfo4@FH4@@H@Z@4HA 0000000180031c5c     libvcruntime:frame.obj
 0002:0000bc64       $unwind$__isa_available_init 0000000180031c64     LIBCMT:cpu_disp.obj
 0002:0000bc74       $unwind$__scrt_fastfail    0000000180031c74     LIBCMT:utility_desktop.obj
 0002:0000bc84       $unwind$__security_init_cookie 0000000180031c84     LIBCMT:gs_support.obj
 0002:0000bc90       $xdatasym                  0000000180031c90     LIBCMT:guard_dispatch.obj
 0002:0000bc98       $xdatasym                  0000000180031c98     LIBCMT:guard_xfg_dispatch.obj
 0002:0000bc9c       $unwind$AtlThunk_InitData  0000000180031c9c     atls:atlthunk.obj
 0002:0000bcb0       $unwind$wcsstr             0000000180031cb0     libvcruntime:wcsstr.obj
 0002:0000bcc8       $xdatasym                  0000000180031cc8     libvcruntime:memcmp.obj
 0002:0000bcd0       $xdatasym                  0000000180031cd0     libvcruntime:memcpy.obj
 0002:0000bce0       $xdatasym                  0000000180031ce0     libvcruntime:memset.obj
 0002:0000bcf0       $unwind$__C_specific_handler 0000000180031cf0     libvcruntime:riscchandler.obj
 0002:0000bcf0       $unwind$?GetRangeOfTrysToCheck@__FrameHandler3@@SA?AU?$pair@Viterator@TryBlockMap@__FrameHandler3@@V123@@std@@AEAVTryBlockMap@1@HPEAU_xDISPATCHER_CONTEXT@@PEBU_s_FuncInfo@@H@Z 0000000180031cf0     libvcruntime:risctrnsctrl.obj
 0002:0000bd0c       $unwind$?StateFromIp@__FrameHandler4@@SAHPEAUFuncInfo4@FH4@@PEAU_xDISPATCHER_CONTEXT@@_K@Z 0000000180031d0c     libvcruntime:ehstate.obj
 0002:0000bd0c       $unwind$?DecompFuncInfo@FH4@@YA_JPEAEAEAUFuncInfo4@1@_KH_N@Z 0000000180031d0c     libvcruntime:risctrnsctrl.obj
 0002:0000bd24       $unwind$?GetEstablisherFrame@__FrameHandler3@@SAPEA_KPEA_KPEAU_xDISPATCHER_CONTEXT@@PEBU_s_FuncInfo@@0@Z 0000000180031d24     libvcruntime:risctrnsctrl.obj
 0002:0000bd3c       $unwind$?UnwindNestedFrames@__FrameHandler3@@SAXPEA_KPEAUEHExceptionRecord@@PEAU_CONTEXT@@0PEAXPEBU_s_FuncInfo@@HHPEBU_s_HandlerType@@PEAU_xDISPATCHER_CONTEXT@@E@Z 0000000180031d3c     libvcruntime:risctrnsctrl.obj
 0002:0000bd3c       $unwind$?UnwindNestedFrames@__FrameHandler4@@SAXPEA_KPEAUEHExceptionRecord@@PEAU_CONTEXT@@0PEAXPEAUFuncInfo4@FH4@@HHPEAUHandlerType4@5@PEAU_xDISPATCHER_CONTEXT@@E@Z 0000000180031d3c     libvcruntime:risctrnsctrl.obj
 0002:0000bd50       $unwind$?GetRangeOfTrysToCheck@__FrameHandler4@@SA?AU?$pair@Viterator@TryBlockMap4@FH4@@V123@@std@@AEAVTryBlockMap4@FH4@@HPEAU_xDISPATCHER_CONTEXT@@PEAUFuncInfo4@5@H@Z 0000000180031d50     libvcruntime:risctrnsctrl.obj
 0002:0000bd6c       $unwind$__CxxFrameHandler3 0000000180031d6c     libvcruntime:risctrnsctrl.obj
 0002:0000bd80       $unwind$__CxxFrameHandler4 0000000180031d80     libvcruntime:risctrnsctrl.obj
 0002:0000bd94       $unwind$??$_CallSETranslator@V__FrameHandler4@@@@YAHPEAUEHExceptionRecord@@PEA_KPEAU_CONTEXT@@PEAU_xDISPATCHER_CONTEXT@@PEAUFuncInfo4@FH4@@K1H@Z 0000000180031d94     libvcruntime:risctrnsctrl.obj
 0002:0000bdb4       $unwind$?filt$0@?0???$_CallSETranslator@V__FrameHandler3@@@@YAHPEAUEHExceptionRecord@@PEA_KPEAU_CONTEXT@@PEAU_xDISPATCHER_CONTEXT@@PEBU_s_FuncInfo@@K1H@Z@4HA 0000000180031db4     libvcruntime:risctrnsctrl.obj
 0002:0000bdb4       $unwind$?filt$0@?0???$_CallSETranslator@V__FrameHandler4@@@@YAHPEAUEHExceptionRecord@@PEA_KPEAU_CONTEXT@@PEAU_xDISPATCHER_CONTEXT@@PEAUFuncInfo4@FH4@@K1H@Z@4HA 0000000180031db4     libvcruntime:risctrnsctrl.obj
 0002:0000bdc0       $unwind$??$_CallSETranslator@V__FrameHandler3@@@@YAHPEAUEHExceptionRecord@@PEA_KPEAU_CONTEXT@@PEAU_xDISPATCHER_CONTEXT@@PEBU_s_FuncInfo@@K1H@Z 0000000180031dc0     libvcruntime:risctrnsctrl.obj
 0002:0000bde0       $unwind$__DestructExceptionObject 0000000180031de0     libvcruntime:ehhelpers.obj
 0002:0000be00       $unwind$__DestructExceptionObject$filt$0 0000000180031e00     libvcruntime:ehhelpers.obj
 0002:0000be00       $unwind$?fin$1@?0??CxxCallCatchBlock@__FrameHandler3@@SAPEAXPEAU_EXCEPTION_RECORD@@@Z@4HA 0000000180031e00     libvcruntime:frame.obj
 0002:0000be00       $unwind$?fin$1@?0??CxxCallCatchBlock@__FrameHandler4@@SAPEAXPEAU_EXCEPTION_RECORD@@@Z@4HA 0000000180031e00     libvcruntime:frame.obj
 0002:0000be0c       $unwind$_CxxThrowException 0000000180031e0c     libvcruntime:throw.obj
 0002:0000be20       $xdatasym                  0000000180031e20     libvcruntime:notify.obj
 0002:0000be2c       $unwind$?getStartStop@UWMap4@FH4@@QEAAXHHAEAViterator@12@0@Z 0000000180031e2c     libvcruntime:frame.obj
 0002:0000be44       $unwind$?FrameUnwindToState@__FrameHandler3@@SAXPEA_KPEAU_xDISPATCHER_CONTEXT@@PEBU_s_FuncInfo@@H@Z 0000000180031e44     libvcruntime:frame.obj
 0002:0000be90       $unwind$?CxxCallCatchBlock@__FrameHandler3@@SAPEAXPEAU_EXCEPTION_RECORD@@@Z 0000000180031e90     libvcruntime:frame.obj
 0002:0000becc       $unwind$?FrameUnwindToState@__FrameHandler4@@SAXPEA_KPEAU_xDISPATCHER_CONTEXT@@PEAUFuncInfo4@FH4@@H@Z 0000000180031ecc     libvcruntime:frame.obj
 0002:0000bf14       $unwind$?CxxCallCatchBlock@__FrameHandler4@@SAPEAXPEAU_EXCEPTION_RECORD@@@Z 0000000180031f14     libvcruntime:frame.obj
 0002:0000bf70       $unwind$?IsInExceptionSpec@@YAEPEAUEHExceptionRecord@@PEBU_s_ESTypeList@@@Z 0000000180031f70     libvcruntime:frame.obj
 0002:0000bf8c       $unwind$??$__InternalCxxFrameHandler@V__FrameHandler4@@@@YA?AW4_EXCEPTION_DISPOSITION@@PEAUEHExceptionRecord@@PEA_KPEAU_CONTEXT@@PEAU_xDISPATCHER_CONTEXT@@PEAUFuncInfo4@FH4@@H1E@Z 0000000180031f8c     libvcruntime:frame.obj
 0002:0000bfa4       $unwind$??$BuildCatchObjectHelperInternal@V__FrameHandler3@@@@YAHPEAUEHExceptionRecord@@PEAXPEBU_s_HandlerType@@PEBU_s_CatchableType@@@Z 0000000180031fa4     libvcruntime:frame.obj
 0002:0000bfe4       $unwind$??$BuildCatchObjectHelperInternal@V__FrameHandler4@@@@YAHPEAUEHExceptionRecord@@PEAXPEAUHandlerType4@FH4@@PEBU_s_CatchableType@@@Z 0000000180031fe4     libvcruntime:frame.obj
 0002:0000c024       $unwind$??$BuildCatchObjectInternal@V__FrameHandler3@@@@YAXPEAUEHExceptionRecord@@PEAXPEBU_s_HandlerType@@PEBU_s_CatchableType@@@Z 0000000180032024     libvcruntime:frame.obj
 0002:0000c050       $unwind$??$BuildCatchObjectInternal@V__FrameHandler4@@@@YAXPEAUEHExceptionRecord@@PEAXPEAUHandlerType4@FH4@@PEBU_s_CatchableType@@@Z 0000000180032050     libvcruntime:frame.obj
 0002:0000c07c       $unwind$??$FindHandler@V__FrameHandler3@@@@YAXPEAUEHExceptionRecord@@PEA_KPEAU_CONTEXT@@PEAU_xDISPATCHER_CONTEXT@@PEBU_s_FuncInfo@@EH1@Z 000000018003207c     libvcruntime:frame.obj
 0002:0000c09c       $unwind$??$FindHandler@V__FrameHandler4@@@@YAXPEAUEHExceptionRecord@@PEA_KPEAU_CONTEXT@@PEAU_xDISPATCHER_CONTEXT@@PEAUFuncInfo4@FH4@@EH1@Z 000000018003209c     libvcruntime:frame.obj
 0002:0000c0bc       $unwind$??$CatchIt@V__FrameHandler3@@@@YAXPEAUEHExceptionRecord@@PEA_KPEAU_CONTEXT@@PEAU_xDISPATCHER_CONTEXT@@PEBU_s_FuncInfo@@PEBU_s_HandlerType@@PEBU_s_CatchableType@@PEBU_s_TryBlockMapEntry@@H1EE@Z 00000001800320bc     libvcruntime:frame.obj
 0002:0000c0bc       $unwind$??$CatchIt@V__FrameHandler4@@@@YAXPEAUEHExceptionRecord@@PEA_KPEAU_CONTEXT@@PEAU_xDISPATCHER_CONTEXT@@PEAUFuncInfo4@FH4@@PEAUHandlerType4@4@PEBU_s_CatchableType@@PEAUTryBlockMapEntry4@4@H1EE@Z 00000001800320bc     libvcruntime:frame.obj
 0002:0000c0d4       $unwind$??$FindHandlerForForeignException@V__FrameHandler3@@@@YAXPEAUEHExceptionRecord@@PEA_KPEAU_CONTEXT@@PEAU_xDISPATCHER_CONTEXT@@PEBU_s_FuncInfo@@HH1@Z 00000001800320d4     libvcruntime:frame.obj
 0002:0000c0f0       $unwind$??$FindHandlerForForeignException@V__FrameHandler4@@@@YAXPEAUEHExceptionRecord@@PEA_KPEAU_CONTEXT@@PEAU_xDISPATCHER_CONTEXT@@PEAUFuncInfo4@FH4@@HH1@Z 00000001800320f0     libvcruntime:frame.obj
 0002:0000c110       $unwind$?try_get_function@@YAPEAXW4function_id@?A0x391cf84c@@QEBDQEBW4module_id@2@2@Z 0000000180032110     libucrt:winapi_thunks.obj
 0002:0000c110       $unwind$?try_get_function@@YAPEAXW4function_id@?A0xbc0cc709@@QEBDQEBW4module_id@2@2@Z 0000000180032110     libvcruntime:winapi_downlevel.obj
 0002:0000c130       $xdatasym                  0000000180032130     libvcruntime:handlers.obj
 0002:0000c150       $unwind$__acrt_call_reportfault 0000000180032150     libucrt:invalid_parameter.obj
 0002:0000c170       $unwind$_invalid_parameter 0000000180032170     libucrt:invalid_parameter.obj
 0002:0000c17c       $unwind$_resetstkoflw      000000018003217c     libucrt:resetstk.obj
 0002:0000c1a0       $unwind$__stdio_common_vswprintf_s 00000001800321a0     libucrt:output.obj
 0002:0000c1b4       $unwind$?write_string@?$string_output_adapter@_W@__crt_stdio_output@@QEBAXQEB_WHQEAHAEAV__crt_cached_ptd_host@@@Z 00000001800321b4     libucrt:output.obj
 0002:0000c1cc       $unwind$??$common_vsprintf@Vformat_validation_base@__crt_stdio_output@@_W@@YAH_KQEA_W0QEB_WAEAV__crt_cached_ptd_host@@QEAD@Z 00000001800321cc     libucrt:output.obj
 0002:0000c1ec       $unwind$?parse_int_from_format_string@?$output_processor@_WV?$string_output_adapter@_W@__crt_stdio_output@@V?$format_validation_base@_WV?$string_output_adapter@_W@__crt_stdio_output@@@2@@__crt_stdio_output@@AEAA_NQEAH@Z 00000001800321ec     libucrt:output.obj
 0002:0000c200       $unwind$?state_case_type@?$output_processor@_WV?$string_output_adapter@_W@__crt_stdio_output@@V?$format_validation_base@_WV?$string_output_adapter@_W@__crt_stdio_output@@@2@@__crt_stdio_output@@AEAA_NXZ 0000000180032200     libucrt:output.obj
 0002:0000c224       $unwind$?type_case_a@?$output_processor@_WV?$string_output_adapter@_W@__crt_stdio_output@@V?$format_validation_base@_WV?$string_output_adapter@_W@__crt_stdio_output@@@2@@__crt_stdio_output@@AEAA_NXZ 0000000180032224     libucrt:output.obj
 0002:0000c238       $unwind$??$parse_integer@KV?$c_string_character_source@_W@__crt_strtox@@$0A@@__crt_strtox@@YAKAEAV__crt_cached_ptd_host@@V?$c_string_character_source@_W@0@H_N@Z 0000000180032238     libucrt:output.obj
 0002:0000c254       $unwind$?try_cor_exit_process@@YAXI@Z 0000000180032254     libucrt:exit.obj
 0002:0000c268       $ip2state$?try_cor_exit_process@@YAXI@Z 0000000180032268     libucrt:exit.obj
 0002:0000c270       $unwind$?common_exit@@YAXHW4_crt_exit_cleanup_mode@@W4_crt_exit_return_mode@@@Z 0000000180032270     libucrt:exit.obj
 0002:0000c284       $stateUnwindMap$__dcrt_uninitialize_environments_nolock 0000000180032284     libucrt:environment_initialization.obj
 0002:0000c284       $stateUnwindMap$?common_exit@@YAXHW4_crt_exit_cleanup_mode@@W4_crt_exit_return_mode@@@Z 0000000180032284     libucrt:exit.obj
 0002:0000c284       $stateUnwindMap$_execute_onexit_table 0000000180032284     libucrt:onexit.obj
 0002:0000c290       $ip2state$?common_exit@@YAXHW4_crt_exit_cleanup_mode@@W4_crt_exit_return_mode@@@Z 0000000180032290     libucrt:exit.obj
 0002:0000c298       $unwind$??R<lambda_6e4b09c48022b2350581041d5f6b0c4c>@@QEBA@XZ 0000000180032298     libucrt:exit.obj
 0002:0000c2b8       $unwind$??$?RV<lambda_d80eeec6fff315bfe5c115232f3240e3>@@AEAV<lambda_6e4b09c48022b2350581041d5f6b0c4c>@@V<lambda_2358e3775559c9db80273638284d5e45>@@@?$__crt_seh_guarded_call@X@@QEAAX$$QEAV<lambda_d80eeec6fff315bfe5c115232f3240e3>@@AEAV<lambda_6e4b09c48022b2350581041d5f6b0c4c>@@$$QEAV<lambda_2358e3775559c9db80273638284d5e45>@@@Z 00000001800322b8     libucrt:exit.obj
 0002:0000c2dc       $unwind$__dcrt_uninitialize_environments_nolock 00000001800322dc     libucrt:environment_initialization.obj
 0002:0000c2ec       $unwind$??$free_environment@D@@YAXQEAPEAD@Z 00000001800322ec     libucrt:environment_initialization.obj
 0002:0000c2ec       $unwind$??$free_environment@_W@@YAXQEAPEA_W@Z 00000001800322ec     libucrt:environment_initialization.obj
 0002:0000c2ec       $unwind$_initterm          00000001800322ec     libucrt:initterm.obj
 0002:0000c2f8       $unwind$_register_onexit_function 00000001800322f8     libucrt:onexit.obj
 0002:0000c300       $unwind$_execute_onexit_table 0000000180032300     libucrt:onexit.obj
 0002:0000c310       $ip2state$_execute_onexit_table 0000000180032310     libucrt:onexit.obj
 0002:0000c318       $unwind$??R<lambda_22ebabd17bc4fa466a2aca6d8deb888d>@@QEBAHXZ 0000000180032318     libucrt:onexit.obj
 0002:0000c330       $unwind$??$?RV<lambda_638799b9deba96c50f710eeac98168cd>@@AEAV<lambda_22ebabd17bc4fa466a2aca6d8deb888d>@@V<lambda_a6f7d7db0129f75315ebf26d50c089f1>@@@?$__crt_seh_guarded_call@H@@QEAAH$$QEAV<lambda_638799b9deba96c50f710eeac98168cd>@@AEAV<lambda_22ebabd17bc4fa466a2aca6d8deb888d>@@$$QEAV<lambda_a6f7d7db0129f75315ebf26d50c089f1>@@@Z 0000000180032330     libucrt:onexit.obj
 0002:0000c354       $unwind$??$?RV<lambda_7777bce6b2f8c936911f934f8298dc43>@@AEAV<lambda_f03950bc5685219e0bcd2087efbe011e>@@V<lambda_3883c3dff614d5e0c5f61bb1ac94921c>@@@?$__crt_seh_guarded_call@H@@QEAAH$$QEAV<lambda_7777bce6b2f8c936911f934f8298dc43>@@AEAV<lambda_f03950bc5685219e0bcd2087efbe011e>@@$$QEAV<lambda_3883c3dff614d5e0c5f61bb1ac94921c>@@@Z 0000000180032354     libucrt:onexit.obj
 0002:0000c378       $unwind$_query_new_handler 0000000180032378     libucrt:new_handler.obj
 0002:0000c398       $unwind$terminate          0000000180032398     libucrt:terminate.obj
 0002:0000c3b8       $xdatasym                  00000001800323b8     libucrt:strncmp.obj
 0002:0000c3bc       $unwind$?construct_ptd_array@@YAXQEAU__acrt_ptd@@@Z 00000001800323bc     libucrt:per_thread_data.obj
 0002:0000c3c4       $unwind$?destroy_ptd_array@@YAXQEAU__acrt_ptd@@@Z 00000001800323c4     libucrt:per_thread_data.obj
 0002:0000c3cc       $unwind$??$?RV<lambda_0ae27a3a962d80f24befdcbee591983d>@@AEAV<lambda_8d0ee55de4b1038c4002e0adecdf1839>@@V<lambda_dc504788e8f1664fe9b84e20bfb512f2>@@@?$__crt_seh_guarded_call@X@@QEAAX$$QEAV<lambda_0ae27a3a962d80f24befdcbee591983d>@@AEAV<lambda_8d0ee55de4b1038c4002e0adecdf1839>@@$$QEAV<lambda_dc504788e8f1664fe9b84e20bfb512f2>@@@Z 00000001800323cc     libucrt:per_thread_data.obj
 0002:0000c3f0       $unwind$??$?RV<lambda_aa87e3671a710a21b5dc78c0bdf72e11>@@AEAV<lambda_92619d2358a28f41a33ba319515a20b9>@@V<lambda_6992ecaafeb10aed2b74cb1fae11a551>@@@?$__crt_seh_guarded_call@X@@QEAAX$$QEAV<lambda_aa87e3671a710a21b5dc78c0bdf72e11>@@AEAV<lambda_92619d2358a28f41a33ba319515a20b9>@@$$QEAV<lambda_6992ecaafeb10aed2b74cb1fae11a551>@@@Z 00000001800323f0     libucrt:per_thread_data.obj
 0002:0000c414       $unwind$??$?RV<lambda_f2e299630e499de9f9a165e60fcd3db5>@@AEAV<lambda_2ae9d31cdba2644fcbeaf08da7c24588>@@V<lambda_40d01ff24d0e7b3814fdbdcee8eab3c7>@@@?$__crt_seh_guarded_call@X@@QEAAX$$QEAV<lambda_f2e299630e499de9f9a165e60fcd3db5>@@AEAV<lambda_2ae9d31cdba2644fcbeaf08da7c24588>@@$$QEAV<lambda_40d01ff24d0e7b3814fdbdcee8eab3c7>@@@Z 0000000180032414     libucrt:per_thread_data.obj
 0002:0000c438       $unwind$??$?RV<lambda_2d41944a1d46af3157314b8a01080d33>@@AEAV<lambda_8f455de75cd7d7f24b4096f044d8b9e6>@@V<lambda_aa500f224e6afead328df44964fe2772>@@@?$__crt_seh_guarded_call@X@@QEAAX$$QEAV<lambda_2d41944a1d46af3157314b8a01080d33>@@AEAV<lambda_8f455de75cd7d7f24b4096f044d8b9e6>@@$$QEAV<lambda_aa500f224e6afead328df44964fe2772>@@@Z 0000000180032438     libucrt:per_thread_data.obj
 0002:0000c45c       $unwind$__acrt_uninitialize_locale 000000018003245c     libucrt:wsetlocale.obj
 0002:0000c45c       $unwind$__acrt_get_sigabrt_handler 000000018003245c     libucrt:signal.obj
 0002:0000c464       $unwind$??$?RV<lambda_410d79af7f07d98d83a3f525b3859a53>@@AEAV<lambda_3e16ef9562a7dcce91392c22ab16ea36>@@V<lambda_38119f0e861e05405d8a144b9b982f0a>@@@?$__crt_seh_guarded_call@X@@QEAAX$$QEAV<lambda_410d79af7f07d98d83a3f525b3859a53>@@AEAV<lambda_3e16ef9562a7dcce91392c22ab16ea36>@@$$QEAV<lambda_38119f0e861e05405d8a144b9b982f0a>@@@Z 0000000180032464     libucrt:wsetlocale.obj
 0002:0000c48c       $unwind$__acrt_initialize_winapi_thunks 000000018003248c     libucrt:winapi_thunks.obj
 0002:0000c48c       $unwind$__acrt_fenv_get_control 000000018003248c     libucrt:_fenvutils.obj
 0002:0000c494       $unwind$__acrt_fp_format   0000000180032494     libucrt:cvt.obj
 0002:0000c4a4       $unwind$?fp_format_e_internal@@YAHQEAD_KH_NIQEAU_strflt@@2AEAV__crt_cached_ptd_host@@@Z 00000001800324a4     libucrt:cvt.obj
 0002:0000c4c0       $unwind$?fp_format_a@@YAHQEBNPEAD_KQEAD2H_NIW4__acrt_rounding_mode@@AEAV__crt_cached_ptd_host@@@Z 00000001800324c0     libucrt:cvt.obj
 0002:0000c4dc       $unwind$?fp_format_g@@YAHQEBNQEAD_K12H_NIW4__acrt_rounding_mode@@AEAV__crt_cached_ptd_host@@@Z 00000001800324dc     libucrt:cvt.obj
 0002:0000c4f4       $unwind$__acrt_initialize_lowio 00000001800324f4     libucrt:ioinit.obj
 0002:0000c514       $unwind$??$common_expand_argv_wildcards@D@@YAHQEAPEADQEAPEAPEAD@Z 0000000180032514     libucrt:argv_wildcards.obj
 0002:0000c52c       $unwind$__dcrt_get_narrow_environment_from_os 000000018003252c     libucrt:get_environment_from_os.obj
 0002:0000c52c       $unwind$??$__acrt_convert_wcs_mbs_cp@_WDV<lambda_d8593a27d1aa8c02be35c86a17d324c4>@@U__crt_win32_buffer_internal_dynamic_resizing@@@@YAHQEB_WAEAV?$__crt_win32_buffer@DU__crt_win32_buffer_internal_dynamic_resizing@@@@AEBV<lambda_d8593a27d1aa8c02be35c86a17d324c4>@@I@Z 000000018003252c     libucrt:argv_wildcards.obj
 0002:0000c544       $unwind$??$copy_and_add_argument_to_buffer@D@@YAHQEBD0_KAEAV?$argument_list@D@?A0x5f5c8891@@@Z 0000000180032544     libucrt:argv_wildcards.obj
 0002:0000c560       $unwind$??$expand_argument_wildcards@D@@YAHQEAD0AEAV?$argument_list@D@?A0x5f5c8891@@@Z 0000000180032560     libucrt:argv_wildcards.obj
 0002:0000c580       $unwind$__acrt_GetModuleFileNameA 0000000180032580     libucrt:getmodulefilenamea.obj
 0002:0000c59c       $unwind$_setmbcp_nolock    000000018003259c     libucrt:mbctype.obj
 0002:0000c5bc       $unwind$?update_thread_multibyte_data_internal@@YAPEAU__crt_multibyte_data@@QEAU__acrt_ptd@@QEAPEAU1@@Z 00000001800325bc     libucrt:mbctype.obj
 0002:0000c5e4       $unwind$?setmbcp_internal@@YAHH_NQEAU__acrt_ptd@@QEAPEAU__crt_multibyte_data@@@Z 00000001800325e4     libucrt:mbctype.obj
 0002:0000c5fc       $unwind$?setSBUpLow@@YAXPEAU__crt_multibyte_data@@@Z 00000001800325fc     libucrt:mbctype.obj
 0002:0000c618       $unwind$??$?RV<lambda_efdfa57d1f175319df784efa44bb7b81>@@AEAV<lambda_5f0a4c1567f8adc6734073e5d1e1b35c>@@V<lambda_2e8a7d3640ea6ccb4c2413664c2db6fd>@@@?$__crt_seh_guarded_call@X@@QEAAX$$QEAV<lambda_efdfa57d1f175319df784efa44bb7b81>@@AEAV<lambda_5f0a4c1567f8adc6734073e5d1e1b35c>@@$$QEAV<lambda_2e8a7d3640ea6ccb4c2413664c2db6fd>@@@Z 0000000180032618     libucrt:mbctype.obj
 0002:0000c63c       $unwind$__acrt_WideCharToMultiByte 000000018003263c     libucrt:widechartomultibyte.obj
 0002:0000c648       $unwind$raise              0000000180032648     libucrt:signal.obj
 0002:0000c684       $unwind$??$?RV<lambda_450d765d439847d4c735a33c368b5fc0>@@AEAV<lambda_44731a7d0e6d81c3e6aa82d741081786>@@V<lambda_601a2a7da3b7a96e9554ac7215c4b07c>@@@?$__crt_seh_guarded_call@P6AXH@Z@@QEAAP6AXH@Z$$QEAV<lambda_450d765d439847d4c735a33c368b5fc0>@@AEAV<lambda_44731a7d0e6d81c3e6aa82d741081786>@@$$QEAV<lambda_601a2a7da3b7a96e9554ac7215c4b07c>@@@Z 0000000180032684     libucrt:signal.obj
 0002:0000c6a8       $unwind$fclose             00000001800326a8     libucrt:fclose.obj
 0002:0000c6a8       $unwind$_fflush_nolock     00000001800326a8     libucrt:fflush.obj
 0002:0000c6b8       $unwind$?common_flush_all@@YAH_N@Z 00000001800326b8     libucrt:fflush.obj
 0002:0000c6c0       $unwind$??$?RV<lambda_842d9ff0dc9ef11c61343bbaebe7f885>@@AEAV<lambda_c5860995281e5c4ce005b3de8f5874ee>@@V<lambda_d90129c13df834fdcbf8d2b88dafcf2d>@@@?$__crt_seh_guarded_call@X@@QEAAX$$QEAV<lambda_842d9ff0dc9ef11c61343bbaebe7f885>@@AEAV<lambda_c5860995281e5c4ce005b3de8f5874ee>@@$$QEAV<lambda_d90129c13df834fdcbf8d2b88dafcf2d>@@@Z 00000001800326c0     libucrt:fflush.obj
 0002:0000c6e4       $unwind$??$?RV<lambda_886d6c58226a84441f68b9f2b8217b83>@@AEAV<lambda_ab61a845afdef5b7c387490eaf3616ee>@@V<lambda_f7f22ab5edc0698d5f6905b0d3f44752>@@@?$__crt_seh_guarded_call@X@@QEAAX$$QEAV<lambda_886d6c58226a84441f68b9f2b8217b83>@@AEAV<lambda_ab61a845afdef5b7c387490eaf3616ee>@@$$QEAV<lambda_f7f22ab5edc0698d5f6905b0d3f44752>@@@Z 00000001800326e4     libucrt:fflush.obj
 0002:0000c70c       $unwind$__acrt_update_thread_locale_data 000000018003270c     libucrt:locale_refcounting.obj
 0002:0000c730       $unwind$__acrt_locale_free_monetary 0000000180032730     libucrt:initmon.obj
 0002:0000c738       $unwind$__acrt_locale_free_time 0000000180032738     libucrt:inittime.obj
 0002:0000c748       $unwind$__acrt_GetStringTypeA 0000000180032748     libucrt:getstringtypea.obj
 0002:0000c770       $unwind$__acrt_fp_strflt_to_string 0000000180032770     libucrt:_fptostr.obj
 0002:0000c78c       $unwind$__acrt_fltout      000000018003278c     libucrt:cfout.obj
 0002:0000c7ac       $unwind$?divide@__crt_strtox@@YA_KAEAUbig_integer@1@AEBU21@@Z 00000001800327ac     libucrt:cfout.obj
 0002:0000c7c4       $chain$0$?divide@__crt_strtox@@YA_KAEAUbig_integer@1@AEBU21@@Z 00000001800327c4     libucrt:cfout.obj
 0002:0000c7d8       $chain$1$?divide@__crt_strtox@@YA_KAEAUbig_integer@1@AEBU21@@Z 00000001800327d8     libucrt:cfout.obj
 0002:0000c7e8       $unwind$?__mbsrtowcs_utf8@__crt_mbstring@@YA_KPEA_WPEAPEBD_KPEAU_Mbstatet@@AEAV__crt_cached_ptd_host@@@Z 00000001800327e8     libucrt:mbrtowc.obj
 0002:0000c800       $unwind$_fcloseall         0000000180032800     libucrt:closeall.obj
 0002:0000c824       $unwind$__acrt_lowio_destroy_handle_array 0000000180032824     libucrt:osfinfo.obj
 0002:0000c834       $unwind$__acrt_lowio_ensure_fh_exists 0000000180032834     libucrt:osfinfo.obj
 0002:0000c860       $unwind$qsort              0000000180032860     libucrt:qsort.obj
 0002:0000c878       $chain$4$qsort             0000000180032878     libucrt:qsort.obj
 0002:0000c89c       $chain$5$qsort             000000018003289c     libucrt:qsort.obj
 0002:0000c8ac       $unwind$strpbrk            00000001800328ac     libucrt:strpbrk.obj
 0002:0000c8bc       $unwind$fallbackMethod     00000001800328bc     libucrt:strpbrk.obj
 0002:0000c8cc       $unwind$__acrt_LCMapStringA 00000001800328cc     libucrt:lcmapstringa.obj
 0002:0000c8dc       $unwind$?__acrt_LCMapStringA_stat@@YAHPEAU__crt_locale_pointers@@PEB_WKPEBDHPEADHHH@Z 00000001800328dc     libucrt:lcmapstringa.obj
 0002:0000c904       $unwind$_commit            0000000180032904     libucrt:commit.obj
 0002:0000c90c       $unwind$??$?RV<lambda_a37b2b86f63e897a80ea819b0eb08c01>@@AEAV<lambda_38ce7e780aa69e748d6df282ebc68efe>@@V<lambda_99fb1378e971ab6e7edea83e3a7a83a2>@@@?$__crt_seh_guarded_call@H@@QEAAH$$QEAV<lambda_a37b2b86f63e897a80ea819b0eb08c01>@@AEAV<lambda_38ce7e780aa69e748d6df282ebc68efe>@@$$QEAV<lambda_99fb1378e971ab6e7edea83e3a7a83a2>@@@Z 000000018003290c     libucrt:commit.obj
 0002:0000c930       $unwind$_write_nolock      0000000180032930     libucrt:write.obj
 0002:0000c948       $unwind$_write_internal    0000000180032948     libucrt:write.obj
 0002:0000c978       $unwind$?write_double_translated_ansi_nolock@@YA?AUwrite_result@?A0x17268360@@HQEBDIAEAV__crt_cached_ptd_host@@@Z 0000000180032978     libucrt:write.obj
 0002:0000c9a0       $ip2state$?write_double_translated_ansi_nolock@@YA?AUwrite_result@?A0x17268360@@HQEBDIAEAV__crt_cached_ptd_host@@@Z 00000001800329a0     libucrt:write.obj
 0002:0000c9a8       $unwind$?write_text_ansi_nolock@@YA?AUwrite_result@?A0x17268360@@HQEBDI@Z 00000001800329a8     libucrt:write.obj
 0002:0000c9a8       $unwind$?write_text_utf16le_nolock@@YA?AUwrite_result@?A0x17268360@@HQEBDI@Z 00000001800329a8     libucrt:write.obj
 0002:0000c9c8       $unwind$?write_text_utf8_nolock@@YA?AUwrite_result@?A0x17268360@@HQEBDI@Z 00000001800329c8     libucrt:write.obj
 0002:0000c9f0       $xdatasym                  00000001800329f0     libucrt:log10.obj
 0002:0000c9fc       $unwind$__acrt_fenv_set_control 00000001800329fc     libucrt:_fenvutils.obj
 0002:0000ca0c       $unwind$?__mbrtoc32_utf8@__crt_mbstring@@YA_KPEA_UPEBD_KPEAU_Mbstatet@@AEAV__crt_cached_ptd_host@@@Z 0000000180032a0c     libucrt:mbrtoc32.obj
 0002:0000ca28       $unwind$?_fclose_nolock_internal@@YAHQEAU_iobuf@@AEAV__crt_cached_ptd_host@@@Z 0000000180032a28     libucrt:fclose.obj
 0002:0000ca38       $unwind$?_fclose_internal@@YAHQEAU_iobuf@@AEAV__crt_cached_ptd_host@@@Z 0000000180032a38     libucrt:fclose.obj
 0002:0000ca5c       $unwind$_putwch_nolock     0000000180032a5c     libucrt:putwch.obj
 0002:0000ca64       $unwind$common_control87   0000000180032a64     libucrt:ieee.obj
 0002:0000ca90       $unwind$_call_matherr      0000000180032a90     libucrt:libm_error.obj
 0002:0000ca98       $unwind$_handle_error      0000000180032a98     libucrt:libm_error.obj
 0002:0000cab8       $unwind$__acrt_initialize_fma3 0000000180032ab8     libucrt:fma3_available.obj
 0002:0000cac0       $unwind$_log_special_common 0000000180032ac0     libucrt:log_special.obj
 0002:0000cacc       $unwind$_close_internal    0000000180032acc     libucrt:close.obj
 0002:0000cad4       $unwind$??$?RV<lambda_ad8af0d99a0adf03d037d7dffe354bb5>@@AEAV<lambda_c9ba49e555ba839a7b07aa3fbecb7617>@@V<lambda_2f1ebd5d68526518146ae959c9e734c8>@@@?$__crt_seh_guarded_call@H@@QEAAH$$QEAV<lambda_ad8af0d99a0adf03d037d7dffe354bb5>@@AEAV<lambda_c9ba49e555ba839a7b07aa3fbecb7617>@@$$QEAV<lambda_2f1ebd5d68526518146ae959c9e734c8>@@@Z 0000000180032ad4     libucrt:close.obj
 0002:0000caf8       $xdatasym                  0000000180032af8     libucrt:fpsr.obj
 0002:0000cb00       $unwind$_raise_exc_ex      0000000180032b00     libucrt:fpexcept.obj
 0002:0000cb14       $unwind$_ctrlfp            0000000180032b14     libucrt:fpctrl.obj
 0002:0000cb3c       $unwind$_IsNonwritableInCurrentImage 0000000180032b3c     LIBCMT:pesect.obj
 0002:0000cb60       $unwind$strrchr            0000000180032b60     libvcruntime:strrchr.obj
 0002:0000ccd0       .edata                     0000000180032cd0     OPOSSoundPlayer.exp
 0002:0000ccf8       rgpv                       0000000180032cf8     OPOSSoundPlayer.exp
 0002:0000cd08       rgszName                   0000000180032d08     OPOSSoundPlayer.exp
 0002:0000cd18       rgwOrd                     0000000180032d18     OPOSSoundPlayer.exp
 0002:0000cd20       szName                     0000000180032d20     OPOSSoundPlayer.exp
 0002:0000cd34       $N00001                    0000000180032d34     OPOSSoundPlayer.exp
 0002:0000cd44       $N00002                    0000000180032d44     OPOSSoundPlayer.exp
 0002:0000cd56       $N00003                    0000000180032d56     OPOSSoundPlayer.exp
 0002:0000cd68       $N00004                    0000000180032d68     OPOSSoundPlayer.exp
 0002:0000d6b2       .idata$6                   00000001800336b2     kernel32:KERNEL32.dll
 0002:0000d8ca       .idata$6                   00000001800338ca     user32:USER32.dll
 0002:0000d9fe       .idata$6                   00000001800339fe     gdi32:GDI32.dll
 0002:0000daa4       .idata$6                   0000000180033aa4     advapi32:ADVAPI32.dll
 0002:0000dbc0       .idata$6                   0000000180033bc0     ole32:ole32.dll
 0002:0000dbca       .idata$6                   0000000180033bca     oleaut32:OLEAUT32.dll
 0003:000001c0       ?ObjectMap@@3PAU_ATL_OBJMAP_ENTRY30@ATL@@A 00000001800351c0     SoundPlayer.obj
 0003:000002b0       ?s_SOMethodNames@@3PAPEADA 00000001800352b0     SoundPlayerImpl.obj
 0003:00000350       ?s_RequiredMethodsPerRelease@@3PAHA 0000000180035350     SoundPlayerImpl.obj
 0003:00000390       ?__vcrt_flsindex@@3KA      0000000180035390     libvcruntime:per_thread_data.obj
 0003:000003a0       ?errno_no_memory@@3HA      00000001800353a0     libucrt:errno.obj
 0003:000003a4       ?doserrno_no_memory@@3KA   00000001800353a4     libucrt:errno.obj
 0003:000003b0       ?__acrt_flsindex@@3KA      00000001800353b0     libucrt:per_thread_data.obj
 0003:00000870       _mbctypes                  0000000180035870     libucrt:mbctype.obj
 0003:00000980       _mbcasemaps                0000000180035980     libucrt:mbctype.obj
 0003:00000a80       ?__rgctypeflag@@3PADA      0000000180035a80     libucrt:mbctype.obj
 0003:00000a90       ?__rgcode_page_info@@3PAUcode_page_info@@A 0000000180035a90     libucrt:mbctype.obj
 0003:00000d30       ?dazSupported@?1??common_control87@@9@9 0000000180035d30     libucrt:ieee.obj
 0003:00000d40       ?__dcrt_lowio_console_output_handle@@3PEAXEA 0000000180035d40     libucrt:initcon.obj
 0003:00000d50       ?dazSupported@?1??_ctrlfp@@9@9 0000000180035d50     libucrt:fpctrl.obj
 0003:00000fa0       ?is_initialized_as_dll@@3_NA 0000000180035fa0     LIBCMT:utility.obj
 0003:00000fa1       ?module_local_atexit_table_initialized@@3_NA 0000000180035fa1     LIBCMT:utility.obj
 0003:00000fa8       ?module_local_atexit_table@@3U_onexit_table_t@@A 0000000180035fa8     LIBCMT:utility.obj
 0003:00000fc0       ?module_local_at_quick_exit_table@@3U_onexit_table_t@@A 0000000180035fc0     LIBCMT:utility.obj
 0003:00000fd8       ?g_tss_cv@@3U_RTL_CONDITION_VARIABLE@@A 0000000180035fd8     LIBCMT:thread_safe_statics.obj
 0003:00000fe0       ?g_tss_event@@3PEAXEA      0000000180035fe0     LIBCMT:thread_safe_statics.obj
 0003:00000fe8       ?g_tss_mutex@@3U_RTL_CRITICAL_SECTION@@A 0000000180035fe8     LIBCMT:thread_safe_statics.obj
 0003:00001010       ?g_sleep_condition_variable_cs@@3P6AHPEAU_RTL_CONDITION_VARIABLE@@PEAU_RTL_CRITICAL_SECTION@@K@ZEA 0000000180036010     LIBCMT:thread_safe_statics.obj
 0003:00001018       ?g_wake_all_condition_variable@@3P6AXPEAU_RTL_CONDITION_VARIABLE@@@ZEA 0000000180036018     LIBCMT:thread_safe_statics.obj
 0003:00001020       GS_ExceptionRecord         0000000180036020     LIBCMT:gs_report.obj
 0003:000010c0       GS_ContextRecord           00000001800360c0     LIBCMT:gs_report.obj
 0003:00001594       ?__proc_attached@@3HA      0000000180036594     LIBCMT:dll_dllmain.obj
 0003:00001628       ?AllocateData@@3P6APEAUAtlThunkData_t@@XZEA 0000000180036628     atls:atlthunk.obj
 0003:00001630       ?InitData@@3P6AXPEAUAtlThunkData_t@@PEAX_K@ZEA 0000000180036630     atls:atlthunk.obj
 0003:00001638       ?DataToCode@@3P6AP6A_JPEAUHWND__@@I_K_J@ZPEAUAtlThunkData_t@@@ZEA 0000000180036638     atls:atlthunk.obj
 0003:00001640       ?FreeData@@3P6AXPEAUAtlThunkData_t@@@ZEA 0000000180036640     atls:atlthunk.obj
 0003:00001648       ?Initialized@@3_NA         0000000180036648     atls:atlthunk.obj
 0003:00001660       ?__vcrt_startup_thread_ptd@@3U__vcrt_ptd@@A 0000000180036660     libvcruntime:per_thread_data.obj
 0003:000016e0       __vcrt_lock_table          00000001800366e0     libvcruntime:locks.obj
 0003:00001708       __vcrt_locks_initialized   0000000180036708     libvcruntime:locks.obj
 0003:00001750       ?heap@@3V_HeapManager@@A   0000000180036750     libvcruntime:undname.obj
 0003:00001778       ?module_handles@@3PAPEAUHINSTANCE__@@A 0000000180036778     libvcruntime:winapi_downlevel.obj
 0003:00001790       ?function_pointers@@3PAPEAXA 0000000180036790     libvcruntime:winapi_downlevel.obj
 0003:000017b8       ?__acrt_invalid_parameter_handler@@3V?$dual_state_global@P6AXPEB_W00I_K@Z@__crt_state_management@@A 00000001800367b8     libucrt:invalid_parameter.obj
 0003:000017c0       ?c_termination_complete@@3JA 00000001800367c0     libucrt:exit.obj
 0003:000017c8       ?thread_local_exit_callback_func@@3P6AXPEAXK0@ZEA 00000001800367c8     libucrt:exit.obj
 0003:000017e0       ?program_name@?1???$common_configure_argv@D@@YAHW4_crt_argv_mode@@@Z@4PADA 00000001800367e0     libucrt:argv_parsing.obj
 0003:00001938       ?__acrt_new_handler@@3V?$dual_state_global@P6AH_K@Z@__crt_state_management@@A 0000000180036938     libucrt:new_handler.obj
 0003:00001950       ?module_handles@@3PAPEAUHINSTANCE__@@A 0000000180036950     libucrt:winapi_thunks.obj
 0003:000019f0       ?encoded_function_pointers@@3PAPEAXA 00000001800369f0     libucrt:winapi_thunks.obj
 0003:00001ae0       ?internal_state@?1??_mbtowc_internal@@9@4U_Mbstatet@@A 0000000180036ae0     libucrt:mbtowc.obj
 0003:00001af8       ?enable_percent_n@@3_KA    0000000180036af8     libucrt:printf_count_output.obj
 0003:00001f20       ?__acrt_lock_table@@3PAU_RTL_CRITICAL_SECTION@@A 0000000180036f20     libucrt:locks.obj
 0003:00002150       ?__acrt_locks_initialized@@3IA 0000000180037150     libucrt:locks.obj
 0003:00002170       ?fSystemSet@@3HA           0000000180037170     libucrt:mbctype.obj
 0003:00002174       ?initialized@?1??__acrt_initialize_multibyte@@9@4_NA 0000000180037174     libucrt:mbctype.obj
 0003:000021b0       ?ctrlc_action@@3V?$dual_state_global@P6AXH@Z@__crt_state_management@@A 00000001800371b0     libucrt:signal.obj
 0003:000021b8       ?ctrlbreak_action@@3V?$dual_state_global@P6AXH@Z@__crt_state_management@@A 00000001800371b8     libucrt:signal.obj
 0003:000021c0       ?abort_action@@3V?$dual_state_global@P6AXH@Z@__crt_state_management@@A 00000001800371c0     libucrt:signal.obj
 0003:000021c8       ?term_action@@3V?$dual_state_global@P6AXH@Z@__crt_state_management@@A 00000001800371c8     libucrt:signal.obj
 0003:000021d0       ?user_matherr@@3V?$dual_state_global@P6AHPEAU_exception@@@Z@__crt_state_management@@A 00000001800371d0     libucrt:matherr.obj
 0003:000021e0       ?__acrt_global_new_mode@@3V?$dual_state_global@J@__crt_state_management@@A 00000001800371e0     libucrt:new_mode.obj
 0003:000021e8       ?internal_pst@?1??__mbrtoc32_utf8@__crt_mbstring@@YA_KPEA_UPEBD_KPEAU_Mbstatet@@AEAV__crt_cached_ptd_host@@@Z@4U3@A 00000001800371e8     libucrt:mbrtoc32.obj
 0003:000021f0       ?__acrt_app_type@@3W4_crt_app_type@@A 00000001800371f0     libucrt:report_runtime_error.obj
 0005:00000000       MoveSmall                  000000018003a000     libvcruntime:memcpy.obj
 0005:00000040       MoveSmallYmm               000000018003a040     libvcruntime:memcpy.obj
 0005:00000064       MoveSmallYmmNT             000000018003a064     libvcruntime:memcpy.obj
 0005:00000088       MoveSmallXmm               000000018003a088     libvcruntime:memcpy.obj
 0005:000000b0       MsetTab                    000000018003a0b0     libvcruntime:memset.obj
 0006:00000220       $R000000                   000000018003b220     SoundPlayer.res
 0006:00000b60       $R000940                   000000018003bb60     SoundPlayer.res
 0006:00000c48       $R000A28                   000000018003bc48     SoundPlayer.res
 0006:00000eb0       $R000C90                   000000018003beb0     SoundPlayer.res
 0006:00001378       $R001158                   000000018003c378     SoundPlayer.res
 0006:00003b58       $R003938                   000000018003eb58     SoundPlayer.res
 0006:00003b90       $R003970                   000000018003eb90     SoundPlayer.res
