 OPOSCashDrawer

 Timestamp is 5d429d46 (Thu Aug  1 17:05:26 2019)

 Preferred load address is 0000000180000000

 Start         Length     Name                   Class
 0001:00000000 000000c0H .text$di                CODE
 0001:000000c0 0001f9d0H .text$mn                CODE
 0001:0001fa90 00000020H .text$mn$00             CODE
 0001:0001fab0 00000400H .text$x                 CODE
 0001:0001feb0 000000c0H .text$yd                CODE
 0002:00000000 00000618H .idata$5                DATA
 0002:00000618 00000010H .00cfg                  DATA
 0002:00000628 00000008H .CRT$XCA                DATA
 0002:00000630 00000008H .CRT$XCL                DATA
 0002:00000638 00000020H .CRT$XCU                DATA
 0002:00000658 00000008H .CRT$XCZ                DATA
 0002:00000660 00000008H .CRT$XIA                DATA
 0002:00000668 00000020H .CRT$XIC                DATA
 0002:00000688 00000008H .CRT$XIZ                DATA
 0002:00000690 00000008H .CRT$XLA                DATA
 0002:00000698 00000008H .CRT$XLZ                DATA
 0002:000006a0 00000008H .CRT$XPA                DATA
 0002:000006a8 00000010H .CRT$XPX                DATA
 0002:000006b8 00000008H .CRT$XPXA               DATA
 0002:000006c0 00000008H .CRT$XPZ                DATA
 0002:000006c8 00000008H .CRT$XTA                DATA
 0002:000006d0 00000010H .CRT$XTZ                DATA
 0002:000006d8 00000000H .gfids$y                DATA
 0002:000006e0 00009f58H .rdata                  DATA
 0002:0000a638 00000028H .rdata$T                DATA
 0002:0000a660 00000274H .rdata$r                DATA
 0002:0000a8d4 0000040cH .rdata$zzzdbg           DATA
 0002:0000ace0 00000008H .rtc$IAA                DATA
 0002:0000ace8 00000008H .rtc$IZZ                DATA
 0002:0000acf0 00000008H .rtc$TAA                DATA
 0002:0000acf8 00000008H .rtc$TZZ                DATA
 0002:0000ad00 00000004H .tls                    DATA
 0002:0000ad04 00000004H .tls$                   DATA
 0002:0000ad08 00000008H .tls$ZZZ                DATA
 0002:0000ad10 00001618H .xdata                  DATA
 0002:0000c328 00000150H .xdata$x                DATA
 0002:0000c478 00000008H ATL$__a                 DATA
 0002:0000c480 00000010H ATL$__z                 DATA
 0002:0000c490 000000acH .edata                  DATA
 0002:0000c53c 00000078H .idata$2                DATA
 0002:0000c5b4 00000014H .idata$3                DATA
 0002:0000c5c8 00000618H .idata$4                DATA
 0002:0000cbe0 00000c24H .idata$6                DATA
 0003:00000000 00000d68H .data                   DATA
 0003:00000d68 000000c8H .data$r                 DATA
 0003:00000e30 0000140cH .bss                    DATA
 0004:00000000 00001e24H .pdata                  DATA
 0005:00000000 00000094H _RDATA                  DATA
 0006:00000000 00000220H .rsrc$01                DATA
 0006:00000220 00003850H .rsrc$02                DATA

  Address         Publics by Value              Rva+Base               Lib:Object

 0000:00000000       __guard_fids_count         0000000000000000     <absolute>
 0000:00000000       __guard_longjmp_count      0000000000000000     <absolute>
 0000:00000000       __hybrid_code_map          0000000000000000     <absolute>
 0000:00000000       __guard_longjmp_table      0000000000000000     <absolute>
 0000:00000000       __guard_iat_count          0000000000000000     <absolute>
 0000:00000000       __volatile_metadata        0000000000000000     <absolute>
 0000:00000000       __guard_iat_table          0000000000000000     <absolute>
 0000:00000000       __hybrid_code_map_count    0000000000000000     <absolute>
 0000:00000000       __enclave_config           0000000000000000     <absolute>
 0000:00000000       ___safe_se_handler_count   0000000000000000     <absolute>
 0000:00000000       __AbsoluteZero             0000000000000000     <absolute>
 0000:00000000       ___safe_se_handler_table   0000000000000000     <absolute>
 0000:00000000       __guard_fids_table         0000000000000000     <absolute>
 0000:00000000       __hybrid_auxiliary_iat     0000000000000000     <absolute>
 0000:00000000       __dynamic_value_reloc_table 0000000000000000     <absolute>
 0000:00000100       __guard_flags              0000000000000100     <absolute>
 0000:00000000       __ImageBase                0000000180000000     <linker-defined>
 0001:000000c0       ?DupWide@_CW@@AEAAXXZ      00000001800010c0 f   CWString.obj
 0001:000000e8       ?cw_dup@@YAXPEBDAEAHAEAPEA_W1@Z 00000001800010e8 f   CWString.obj
 0001:00000194       ?cw_memcpy@@YAHPEA_WPEBDH@Z 0000000180001194 f   CWString.obj
 0001:000001e0       ?cw_strcpy@@YAHPEA_WPEBD@Z 00000001800011e0 f   CWString.obj
 0001:000001f4       ??0CAtlComModule@ATL@@QEAA@XZ 00000001800011f4 f i OposVariant.obj
 0001:00000274       ??0CAtlWinModule@ATL@@QEAA@XZ 0000000180001274 f i OposVariant.obj
 0001:000002e0       ??0OposDispParms@@QEAA@PEAVOposVariant@@H@Z 00000001800012e0 f   OposVariant.obj
 0001:00000388       ??1OposDispParms@@QEAA@XZ  0000000180001388 f   OposVariant.obj
 0001:000003a0       ??_Estringdispid@CComTypeInfoHolder@ATL@@QEAAPEAXI@Z 00000001800013a0 f i OposVariant.obj
 0001:00000444       ?AtlWinModuleTerm@ATL@@YAJPEAU_ATL_WIN_MODULE70@1@PEAUHINSTANCE__@@@Z 0000000180001444 f i OposVariant.obj
 0001:000004f4       ?ChangeBSTR@OposVariant@@QEAAXPEAPEA_WAEAJ@Z 00000001800014f4 f   OposVariant.obj
 0001:00000554       ?ChangeLONG@OposVariant@@QEAAXPEAJAEAJ@Z 0000000180001554 f   OposVariant.obj
 0001:000005b0       ?GetLONG@OposVariant@@QEAAJXZ 00000001800015b0 f   OposVariant.obj
 0001:000005d4       ?SetBSTR@OposVariant@@QEAAXPEA_WAEAJ@Z 00000001800015d4 f   OposVariant.obj
 0001:00000614       ?SetBSTR_Copy@OposVariant@@QEAAXPEA_WAEAJ@Z 0000000180001614 f   OposVariant.obj
 0001:00000684       ?SetBSTR_InOutPtr@OposVariant@@QEAA_NPEAPEA_WAEAJ@Z 0000000180001684 f   OposVariant.obj
 0001:000006d4       ?SetDispatch_Ptr@OposVariant@@QEAAXPEAUIDispatch@@AEAJ@Z 00000001800016d4 f   OposVariant.obj
 0001:0000072c       ?SetLONG@OposVariant@@QEAAXJ@Z 000000018000172c f   OposVariant.obj
 0001:0000075c       ?SetLONG_Ptr@OposVariant@@QEAAXPEAJAEAJ@Z 000000018000175c f   OposVariant.obj
 0001:000007a8       ?SetString@OposVariant@@QEAAXPEB_WAEAJ@Z 00000001800017a8 f   OposVariant.obj
 0001:0000080c       ?SetVARIANT_BOOL@OposVariant@@QEAAXF@Z 000000018000180c f   OposVariant.obj
 0001:00000844       ?Term@CAtlComModule@ATL@@QEAAXXZ 0000000180001844 f i OposVariant.obj
 0001:000008b4       ?_AtlInitializeCriticalSectionEx@ATL@@YAHPEAU_RTL_CRITICAL_SECTION@@KK@Z 00000001800018b4 f i OposVariant.obj
 0001:000008bc       ?_AtlRaiseException@ATL@@YAXKK@Z 00000001800018bc f i OposVariant.obj
 0001:000008cc       ?AddRef@?$CComObjectCached@VCComClassFactory@ATL@@@ATL@@UEAAKXZ 00000001800018cc f i CashDrawer.obj
 0001:000008f8       ?Release@?$CComObjectCached@VCComClassFactory@ATL@@@ATL@@UEAAKXZ 00000001800018f8 f i CashDrawer.obj
 0001:00000938       ?QueryInterface@?$CComObjectCached@VCComClassFactory@ATL@@@ATL@@UEAAJAEBU_GUID@@PEAPEAX@Z 0000000180001938 f i CashDrawer.obj
 0001:0000094c       ??_G?$CComObjectCached@VCComClassFactory@ATL@@@ATL@@UEAAPEAXI@Z 000000018000194c f i CashDrawer.obj
 0001:0000094c       ??_E?$CComObjectCached@VCComClassFactory@ATL@@@ATL@@UEAAPEAXI@Z 000000018000194c f i CashDrawer.obj
 0001:000009a4       ?AddRef@?$CComAggObject@VCOPOSCashDrawer@@@ATL@@UEAAKXZ 00000001800019a4 f i CashDrawer.obj
 0001:000009b0       ?Release@?$CComAggObject@VCOPOSCashDrawer@@@ATL@@UEAAKXZ 00000001800019b0 f i CashDrawer.obj
 0001:00000a04       ?QueryInterface@?$CComAggObject@VCOPOSCashDrawer@@@ATL@@UEAAJAEBU_GUID@@PEAPEAX@Z 0000000180001a04 f i CashDrawer.obj
 0001:00000a64       ?AddRef@?$CComContainedObject@VCOPOSCashDrawer@@@ATL@@UEAAKXZ 0000000180001a64 f i CashDrawer.obj
 0001:00000a74       ?Release@?$CComContainedObject@VCOPOSCashDrawer@@@ATL@@UEAAKXZ 0000000180001a74 f i CashDrawer.obj
 0001:00000a84       ?QueryInterface@?$CComContainedObject@VCOPOSCashDrawer@@@ATL@@UEAAJAEBU_GUID@@PEAPEAX@Z 0000000180001a84 f i CashDrawer.obj
 0001:00000a94       ??_G?$CComAggObject@VCOPOSCashDrawer@@@ATL@@UEAAPEAXI@Z 0000000180001a94 f i CashDrawer.obj
 0001:00000a94       ??_E?$CComAggObject@VCOPOSCashDrawer@@@ATL@@UEAAPEAXI@Z 0000000180001a94 f i CashDrawer.obj
 0001:00000aec       ?AddRef@?$CComObject@VCOPOSCashDrawer@@@ATL@@UEAAKXZ 0000000180001aec f i CashDrawer.obj
 0001:00000afc       ?Release@?$CComObject@VCOPOSCashDrawer@@@ATL@@UEAAKXZ 0000000180001afc f i CashDrawer.obj
 0001:00000b54       ?QueryInterface@?$CComObject@VCOPOSCashDrawer@@@ATL@@UEAAJAEBU_GUID@@PEAPEAX@Z 0000000180001b54 f i CashDrawer.obj
 0001:00000b68       ?Lock@CAtlModule@ATL@@UEAAJXZ 0000000180001b68 f i CashDrawer.obj
 0001:00000b78       ?Unlock@CAtlModule@ATL@@UEAAJXZ 0000000180001b78 f i CashDrawer.obj
 0001:00000b84       ?GetLockCount@CAtlModule@ATL@@UEAAJXZ 0000000180001b84 f i CashDrawer.obj
 0001:00000b88       ?GetGITPtr@CAtlModule@ATL@@UEAAJPEAPEAUIGlobalInterfaceTable@@@Z 0000000180001b88 f i CashDrawer.obj
 0001:00000bf8       ?AddCommonRGSReplacements@?$CAtlModuleT@VCComModule@ATL@@@ATL@@UEAAJPEAUIRegistrarBase@@@Z 0000000180001bf8 f i CashDrawer.obj
 0001:00000c10       ?UpdateRegistryFromResourceD@CComModule@ATL@@UEAAJIHPEAU_ATL_REGMAP_ENTRY@2@@Z 0000000180001c10 f i CashDrawer.obj
 0001:00000c10       ?UpdateRegistryFromResourceD@CComModule@ATL@@UEAAJPEB_WHPEAU_ATL_REGMAP_ENTRY@2@@Z 0000000180001c10 f i CashDrawer.obj
 0001:00000c18       ?UpdateRegistryFromResource@CComModule@ATL@@UEAAJPEB_WHPEAU_ATL_REGMAP_ENTRY@2@@Z 0000000180001c18 f i CashDrawer.obj
 0001:00000c20       ?OnDrawAdvanced@CComControlBase@ATL@@UEAAJAEAUATL_DRAWINFO@@@Z 0000000180001c20 f i CashDrawer.obj
 0001:00000d40       ?UpdateRegistryFromResource@CComModule@ATL@@UEAAJIHPEAU_ATL_REGMAP_ENTRY@2@@Z 0000000180001d40 f i CashDrawer.obj
 0001:00000d48       ??_GCComModule@ATL@@UEAAPEAXI@Z 0000000180001d48 f i CashDrawer.obj
 0001:00000d48       ??_ECComModule@ATL@@UEAAPEAXI@Z 0000000180001d48 f i CashDrawer.obj
 0001:00000dc8       ?Next@?$CComEnumImpl@UIEnumConnections@@$1?_GUID_b196b287_bab4_101a_b69c_00aa00341d07@@3U__s_GUID@@BUtagCONNECTDATA@@V?$_Copy@UtagCONNECTDATA@@@ATL@@@ATL@@UEAAJKPEAUtagCONNECTDATA@@PEAK@Z 0000000180001dc8 f i CashDrawer.obj
 0001:00000e9c       ?Skip@?$CComEnumImpl@UIEnumConnections@@$1?_GUID_b196b287_bab4_101a_b69c_00aa00341d07@@3U__s_GUID@@BUtagCONNECTDATA@@V?$_Copy@UtagCONNECTDATA@@@ATL@@@ATL@@UEAAJK@Z 0000000180001e9c f i CashDrawer.obj
 0001:00000ec8       ?Reset@?$CComEnumImpl@UIEnumConnectionPoints@@$1?_GUID_b196b285_bab4_101a_b69c_00aa00341d07@@3U__s_GUID@@BPEAUIConnectionPoint@@V?$_CopyInterface@UIConnectionPoint@@@ATL@@@ATL@@UEAAJXZ 0000000180001ec8 f i CashDrawer.obj
 0001:00000ec8       ?Reset@?$CComEnumImpl@UIEnumConnections@@$1?_GUID_b196b287_bab4_101a_b69c_00aa00341d07@@3U__s_GUID@@BUtagCONNECTDATA@@V?$_Copy@UtagCONNECTDATA@@@ATL@@@ATL@@UEAAJXZ 0000000180001ec8 f i CashDrawer.obj
 0001:00000ed4       ?Clone@?$CComEnumImpl@UIEnumConnections@@$1?_GUID_b196b287_bab4_101a_b69c_00aa00341d07@@3U__s_GUID@@BUtagCONNECTDATA@@V?$_Copy@UtagCONNECTDATA@@@ATL@@@ATL@@UEAAJPEAPEAUIEnumConnections@@@Z 0000000180001ed4 f i CashDrawer.obj
 0001:00001000       ?AddRef@?$CComObject@V?$CComEnum@UIEnumConnections@@$1?_GUID_b196b287_bab4_101a_b69c_00aa00341d07@@3U__s_GUID@@BUtagCONNECTDATA@@V?$_Copy@UtagCONNECTDATA@@@ATL@@VCComSingleThreadModel@6@@ATL@@@ATL@@UEAAKXZ 0000000180002000 f i CashDrawer.obj
 0001:00001000       ?AddRef@?$CComObject@V?$CComEnum@UIEnumConnectionPoints@@$1?_GUID_b196b285_bab4_101a_b69c_00aa00341d07@@3U__s_GUID@@BPEAUIConnectionPoint@@V?$_CopyInterface@UIConnectionPoint@@@ATL@@VCComSingleThreadModel@6@@ATL@@@ATL@@UEAAKXZ 0000000180002000 f i CashDrawer.obj
 0001:0000100c       ?Release@?$CComObject@V?$CComEnum@UIEnumConnectionPoints@@$1?_GUID_b196b285_bab4_101a_b69c_00aa00341d07@@3U__s_GUID@@BPEAUIConnectionPoint@@V?$_CopyInterface@UIConnectionPoint@@@ATL@@VCComSingleThreadModel@6@@ATL@@@ATL@@UEAAKXZ 000000018000200c f i CashDrawer.obj
 0001:0000100c       ?Release@?$CComObject@V?$CComEnum@UIEnumConnections@@$1?_GUID_b196b287_bab4_101a_b69c_00aa00341d07@@3U__s_GUID@@BUtagCONNECTDATA@@V?$_Copy@UtagCONNECTDATA@@@ATL@@VCComSingleThreadModel@6@@ATL@@@ATL@@UEAAKXZ 000000018000200c f i CashDrawer.obj
 0001:00001060       ?QueryInterface@?$CComObject@V?$CComEnum@UIEnumConnections@@$1?_GUID_b196b287_bab4_101a_b69c_00aa00341d07@@3U__s_GUID@@BUtagCONNECTDATA@@V?$_Copy@UtagCONNECTDATA@@@ATL@@VCComSingleThreadModel@6@@ATL@@@ATL@@UEAAJAEBU_GUID@@PEAPEAX@Z 0000000180002060 f i CashDrawer.obj
 0001:00001074       ??_E?$CComObject@V?$CComEnum@UIEnumConnections@@$1?_GUID_b196b287_bab4_101a_b69c_00aa00341d07@@3U__s_GUID@@BUtagCONNECTDATA@@V?$_Copy@UtagCONNECTDATA@@@ATL@@VCComSingleThreadModel@6@@ATL@@@ATL@@UEAAPEAXI@Z 0000000180002074 f i CashDrawer.obj
 0001:00001074       ??_G?$CComObject@V?$CComEnum@UIEnumConnections@@$1?_GUID_b196b287_bab4_101a_b69c_00aa00341d07@@3U__s_GUID@@BUtagCONNECTDATA@@V?$_Copy@UtagCONNECTDATA@@@ATL@@VCComSingleThreadModel@6@@ATL@@@ATL@@UEAAPEAXI@Z 0000000180002074 f i CashDrawer.obj
 0001:000010cc       ??_E?$CComObject@VCOPOSCashDrawer@@@ATL@@W7EAAPEAXI@Z 00000001800020cc f i CashDrawer.obj
 0001:000010d8       ??_E?$CComObject@VCOPOSCashDrawer@@@ATL@@WHA@EAAPEAXI@Z 00000001800020d8 f i CashDrawer.obj
 0001:000010e4       ?QueryInterface@?$CComObject@VCOPOSCashDrawer@@@ATL@@WLI@EAAJAEBU_GUID@@PEAPEAX@Z 00000001800020e4 f i CashDrawer.obj
 0001:000010f0       ?AddRef@?$CComObject@VCOPOSCashDrawer@@@ATL@@WLI@EAAKXZ 00000001800020f0 f i CashDrawer.obj
 0001:000010fc       ?Release@?$CComObject@VCOPOSCashDrawer@@@ATL@@WLI@EAAKXZ 00000001800020fc f i CashDrawer.obj
 0001:00001108       ?QueryInterface@?$CComObject@VCOPOSCashDrawer@@@ATL@@WMA@EAAJAEBU_GUID@@PEAPEAX@Z 0000000180002108 f i CashDrawer.obj
 0001:00001114       ?AddRef@?$CComObject@VCOPOSCashDrawer@@@ATL@@WMA@EAAKXZ 0000000180002114 f i CashDrawer.obj
 0001:00001120       ?Release@?$CComObject@VCOPOSCashDrawer@@@ATL@@WMA@EAAKXZ 0000000180002120 f i CashDrawer.obj
 0001:0000112c       ?QueryInterface@?$CComObject@VCOPOSCashDrawer@@@ATL@@WMI@EAAJAEBU_GUID@@PEAPEAX@Z 000000018000212c f i CashDrawer.obj
 0001:00001138       ?AddRef@?$CComObject@VCOPOSCashDrawer@@@ATL@@WMI@EAAKXZ 0000000180002138 f i CashDrawer.obj
 0001:00001144       ?Release@?$CComObject@VCOPOSCashDrawer@@@ATL@@WMI@EAAKXZ 0000000180002144 f i CashDrawer.obj
 0001:00001150       ?QueryInterface@?$CComObject@VCOPOSCashDrawer@@@ATL@@WNA@EAAJAEBU_GUID@@PEAPEAX@Z 0000000180002150 f i CashDrawer.obj
 0001:0000115c       ?AddRef@?$CComObject@VCOPOSCashDrawer@@@ATL@@WNA@EAAKXZ 000000018000215c f i CashDrawer.obj
 0001:00001168       ?Release@?$CComObject@VCOPOSCashDrawer@@@ATL@@WNA@EAAKXZ 0000000180002168 f i CashDrawer.obj
 0001:00001174       ?QueryInterface@?$CComObject@VCOPOSCashDrawer@@@ATL@@WNI@EAAJAEBU_GUID@@PEAPEAX@Z 0000000180002174 f i CashDrawer.obj
 0001:00001180       ?AddRef@?$CComObject@VCOPOSCashDrawer@@@ATL@@WNI@EAAKXZ 0000000180002180 f i CashDrawer.obj
 0001:0000118c       ?Release@?$CComObject@VCOPOSCashDrawer@@@ATL@@WNI@EAAKXZ 000000018000218c f i CashDrawer.obj
 0001:00001198       ?QueryInterface@?$CComObject@VCOPOSCashDrawer@@@ATL@@WOA@EAAJAEBU_GUID@@PEAPEAX@Z 0000000180002198 f i CashDrawer.obj
 0001:000011a4       ?AddRef@?$CComObject@VCOPOSCashDrawer@@@ATL@@WOA@EAAKXZ 00000001800021a4 f i CashDrawer.obj
 0001:000011b0       ?Release@?$CComObject@VCOPOSCashDrawer@@@ATL@@WOA@EAAKXZ 00000001800021b0 f i CashDrawer.obj
 0001:000011bc       ?QueryInterface@?$CComObject@VCOPOSCashDrawer@@@ATL@@WOI@EAAJAEBU_GUID@@PEAPEAX@Z 00000001800021bc f i CashDrawer.obj
 0001:000011c8       ?AddRef@?$CComObject@VCOPOSCashDrawer@@@ATL@@WOI@EAAKXZ 00000001800021c8 f i CashDrawer.obj
 0001:000011d4       ?Release@?$CComObject@VCOPOSCashDrawer@@@ATL@@WOI@EAAKXZ 00000001800021d4 f i CashDrawer.obj
 0001:000011e0       ?QueryInterface@?$CComObject@VCOPOSCashDrawer@@@ATL@@WPA@EAAJAEBU_GUID@@PEAPEAX@Z 00000001800021e0 f i CashDrawer.obj
 0001:000011ec       ?AddRef@?$CComObject@VCOPOSCashDrawer@@@ATL@@WPA@EAAKXZ 00000001800021ec f i CashDrawer.obj
 0001:000011f8       ?Release@?$CComObject@VCOPOSCashDrawer@@@ATL@@WPA@EAAKXZ 00000001800021f8 f i CashDrawer.obj
 0001:00001204       ?QueryInterface@?$CComObject@VCOPOSCashDrawer@@@ATL@@WPI@EAAJAEBU_GUID@@PEAPEAX@Z 0000000180002204 f i CashDrawer.obj
 0001:00001210       ?AddRef@?$CComObject@VCOPOSCashDrawer@@@ATL@@WPI@EAAKXZ 0000000180002210 f i CashDrawer.obj
 0001:0000121c       ?Release@?$CComObject@VCOPOSCashDrawer@@@ATL@@WPI@EAAKXZ 000000018000221c f i CashDrawer.obj
 0001:00001228       ?QueryInterface@?$CComObject@VCOPOSCashDrawer@@@ATL@@WBAA@EAAJAEBU_GUID@@PEAPEAX@Z 0000000180002228 f i CashDrawer.obj
 0001:00001234       ?SetMoniker@?$IOleObjectImpl@VCOPOSCashDrawer@@@ATL@@UEAAJKPEAUIMoniker@@@Z 0000000180002234 f i CashDrawer.obj
 0001:00001234       ?SetData@?$IDataObjectImpl@VCOPOSCashDrawer@@@ATL@@UEAAJPEAUtagFORMATETC@@PEAUtagSTGMEDIUM@@H@Z 0000000180002234 f i CashDrawer.obj
 0001:00001234       ?InitFromData@?$IOleObjectImpl@VCOPOSCashDrawer@@@ATL@@UEAAJPEAUIDataObject@@HK@Z 0000000180002234 f i CashDrawer.obj
 0001:00001234       ?GetControlInfo@?$IOleControlImpl@VCOPOSCashDrawer@@@ATL@@UEAAJPEAUtagCONTROLINFO@@@Z 0000000180002234 f i CashDrawer.obj
 0001:00001234       ?ContextSensitiveHelp@?$IOleInPlaceActiveObjectImpl@VCOPOSCashDrawer@@@ATL@@UEAAJH@Z 0000000180002234 f i CashDrawer.obj
 0001:00001234       ?GetCanonicalFormatEtc@?$IDataObjectImpl@VCOPOSCashDrawer@@@ATL@@UEAAJPEAUtagFORMATETC@@0@Z 0000000180002234 f i CashDrawer.obj
 0001:00001234       ?SOOutputCompleteDummy@COPOSCashDrawer@@MEAAJJ@Z 0000000180002234 f i CashDrawer.obj
 0001:00001234       ?GetDataHere@?$IDataObjectImpl@VCOPOSCashDrawer@@@ATL@@UEAAJPEAUtagFORMATETC@@PEAUtagSTGMEDIUM@@@Z 0000000180002234 f i CashDrawer.obj
 0001:00001234       ?GetDropTarget@?$IOleInPlaceObjectWindowlessImpl@VCOPOSCashDrawer@@@ATL@@UEAAJPEAPEAUIDropTarget@@@Z 0000000180002234 f i CashDrawer.obj
 0001:00001234       ?ReactivateAndUndo@?$IOleInPlaceObjectWindowlessImpl@VCOPOSCashDrawer@@@ATL@@UEAAJXZ 0000000180002234 f i CashDrawer.obj
 0001:00001234       ?GetMoniker@?$IOleObjectImpl@VCOPOSCashDrawer@@@ATL@@UEAAJKKPEAPEAUIMoniker@@@Z 0000000180002234 f i CashDrawer.obj
 0001:00001234       ?GetClipboardData@?$IOleObjectImpl@VCOPOSCashDrawer@@@ATL@@UEAAJKPEAPEAUIDataObject@@@Z 0000000180002234 f i CashDrawer.obj
 0001:00001234       ?SOErrorDummy@COPOSCashDrawer@@MEAAJJJJPEAJ@Z 0000000180002234 f i CashDrawer.obj
 0001:00001234       ?QueryGetData@?$IDataObjectImpl@VCOPOSCashDrawer@@@ATL@@UEAAJPEAUtagFORMATETC@@@Z 0000000180002234 f i CashDrawer.obj
 0001:00001234       ?EnumFormatEtc@?$IDataObjectImpl@VCOPOSCashDrawer@@@ATL@@UEAAJKPEAPEAUIEnumFORMATETC@@@Z 0000000180002234 f i CashDrawer.obj
 0001:00001234       ?SetColorScheme@?$IOleObjectImpl@VCOPOSCashDrawer@@@ATL@@UEAAJPEAUtagLOGPALETTE@@@Z 0000000180002234 f i CashDrawer.obj
 0001:00001234       ?GetRect@?$IViewObjectExImpl@VCOPOSCashDrawer@@@ATL@@UEAAJKPEAU_RECTL@@@Z 0000000180002234 f i CashDrawer.obj
 0001:00001234       ?Freeze@?$IViewObjectExImpl@VCOPOSCashDrawer@@@ATL@@UEAAJKJPEAXPEAK@Z 0000000180002234 f i CashDrawer.obj
 0001:00001234       ?SODataDummy@COPOSCashDrawer@@MEAAJJ@Z 0000000180002234 f i CashDrawer.obj
 0001:00001234       ?ContextSensitiveHelp@?$IOleInPlaceObjectWindowlessImpl@VCOPOSCashDrawer@@@ATL@@UEAAJH@Z 0000000180002234 f i CashDrawer.obj
 0001:00001234       ?QueryInterface@CRegObject@ATL@@UEAAJAEBU_GUID@@PEAPEAX@Z 0000000180002234 f i CashDrawer.obj
 0001:00001234       ?Unfreeze@?$IViewObjectExImpl@VCOPOSCashDrawer@@@ATL@@UEAAJK@Z 0000000180002234 f i CashDrawer.obj
 0001:00001234       ?GetColorSet@?$IViewObjectExImpl@VCOPOSCashDrawer@@@ATL@@UEAAJKJPEAXPEAUtagDVTARGETDEVICE@@PEAUHDC__@@PEAPEAUtagLOGPALETTE@@@Z 0000000180002234 f i CashDrawer.obj
 0001:00001234       ?OnMnemonic@?$IOleControlImpl@VCOPOSCashDrawer@@@ATL@@UEAAJPEAUtagMSG@@@Z 0000000180002234 f i CashDrawer.obj
 0001:0000123c       ?AddRef@?$CComObject@VCOPOSCashDrawer@@@ATL@@WBAA@EAAKXZ 000000018000223c f i CashDrawer.obj
 0001:00001248       ?Release@?$CComObject@VCOPOSCashDrawer@@@ATL@@WBAA@EAAKXZ 0000000180002248 f i CashDrawer.obj
 0001:00001254       _get_startup_argv_mode     0000000180002254 f i LIBCMT:argv_mode.obj
 0001:00001254       ?AddRef@CRegObject@ATL@@UEAAKXZ 0000000180002254 f i CashDrawer.obj
 0001:00001254       ?FAccessAllowed@?$IObjectSafetyImpl@VCOPOSCashDrawer@@$02@ATL@@MEAAHXZ 0000000180002254 f i CashDrawer.obj
 0001:0000125c       ?QueryInterface@?$CComObject@VCOPOSCashDrawer@@@ATL@@WBAI@EAAJAEBU_GUID@@PEAPEAX@Z 000000018000225c f i CashDrawer.obj
 0001:00001268       ?AddRef@?$CComObject@VCOPOSCashDrawer@@@ATL@@WBAI@EAAKXZ 0000000180002268 f i CashDrawer.obj
 0001:00001274       ?OnFrameWindowActivate@?$IOleInPlaceActiveObjectImpl@VCOPOSCashDrawer@@@ATL@@UEAAJH@Z 0000000180002274 f i CashDrawer.obj
 0001:00001274       ?SetHostNames@?$IOleObjectImpl@VCOPOSCashDrawer@@@ATL@@UEAAJPEB_W0@Z 0000000180002274 f i CashDrawer.obj
 0001:00001274       ?OnAmbientPropertyChange@?$IOleControlImpl@VCOPOSCashDrawer@@@ATL@@UEAAJJ@Z 0000000180002274 f i CashDrawer.obj
 0001:00001274       ?IsUpToDate@?$IOleObjectImpl@VCOPOSCashDrawer@@@ATL@@UEAAJXZ 0000000180002274 f i CashDrawer.obj
 0001:00001274       ?SaveCompleted@?$IPersistStorageImpl@VCOPOSCashDrawer@@@ATL@@UEAAJPEAUIStorage@@@Z 0000000180002274 f i CashDrawer.obj
 0001:00001274       ?Release@CRegObject@ATL@@UEAAKXZ 0000000180002274 f i CashDrawer.obj
 0001:00001274       ?HandsOffStorage@?$IPersistStorageImpl@VCOPOSCashDrawer@@@ATL@@UEAAJXZ 0000000180002274 f i CashDrawer.obj
 0001:00001274       ?EnableModeless@?$IOleInPlaceActiveObjectImpl@VCOPOSCashDrawer@@@ATL@@UEAAJH@Z 0000000180002274 f i CashDrawer.obj
 0001:00001274       ?Update@?$IOleObjectImpl@VCOPOSCashDrawer@@@ATL@@UEAAJXZ 0000000180002274 f i CashDrawer.obj
 0001:00001274       ?GetCategoryMap@CComObjectRootBase@ATL@@SAPEBU_ATL_CATMAP_ENTRY@2@XZ 0000000180002274 f i CashDrawer.obj
 0001:00001274       ?GetObjectDescription@?$CComCoClass@VCOPOSCashDrawer@@$1?CLSID_OPOSCashDrawer@@3U_GUID@@B@ATL@@SAPEB_WXZ 0000000180002274 f i CashDrawer.obj
 0001:00001274       ?ResizeBorder@?$IOleInPlaceActiveObjectImpl@VCOPOSCashDrawer@@@ATL@@UEAAJPEBUtagRECT@@PEAUIOleInPlaceUIWindow@@H@Z 0000000180002274 f i CashDrawer.obj
 0001:00001278       ?Release@?$CComObject@VCOPOSCashDrawer@@@ATL@@WBAI@EAAKXZ 0000000180002278 f i CashDrawer.obj
 0001:00001284       ?QueryInterface@?$CComObject@VCOPOSCashDrawer@@@ATL@@WBBA@EAAJAEBU_GUID@@PEAPEAX@Z 0000000180002284 f i CashDrawer.obj
 0001:00001290       ?AddRef@?$CComObject@VCOPOSCashDrawer@@@ATL@@WBBA@EAAKXZ 0000000180002290 f i CashDrawer.obj
 0001:0000129c       ?Release@?$CComObject@VCOPOSCashDrawer@@@ATL@@WBBA@EAAKXZ 000000018000229c f i CashDrawer.obj
 0001:000012a8       ?QueryInterface@?$CComObject@VCOPOSCashDrawer@@@ATL@@WBBI@EAAJAEBU_GUID@@PEAPEAX@Z 00000001800022a8 f i CashDrawer.obj
 0001:000012b4       ?AddRef@?$CComObject@VCOPOSCashDrawer@@@ATL@@WBBI@EAAKXZ 00000001800022b4 f i CashDrawer.obj
 0001:000012c0       ?AddReplacement@CRegObject@ATL@@UEAAJPEB_W0@Z 00000001800022c0 f i CashDrawer.obj
 0001:000012f0       ?Release@?$CComObject@VCOPOSCashDrawer@@@ATL@@WBBI@EAAKXZ 00000001800022f0 f i CashDrawer.obj
 0001:000012fc       ?ClearReplacements@CRegObject@ATL@@UEAAJXZ 00000001800022fc f i CashDrawer.obj
 0001:00001308       ?AddRef@?$CComObject@VCOPOSCashDrawer@@@ATL@@WBCI@EAAKXZ 0000000180002308 f i CashDrawer.obj
 0001:00001314       ?Release@?$CComObject@VCOPOSCashDrawer@@@ATL@@WBCI@EAAKXZ 0000000180002314 f i CashDrawer.obj
 0001:00001320       ?AddRef@?$CComObject@VCOPOSCashDrawer@@@ATL@@WBEA@EAAKXZ 0000000180002320 f i CashDrawer.obj
 0001:0000132c       ?Release@?$CComObject@VCOPOSCashDrawer@@@ATL@@WBEA@EAAKXZ 000000018000232c f i CashDrawer.obj
 0001:00001338       ??_E?$CComContainedObject@VCOPOSCashDrawer@@@ATL@@W7EAAPEAXI@Z 0000000180002338 f i CashDrawer.obj
 0001:00001344       ??_E?$CComContainedObject@VCOPOSCashDrawer@@@ATL@@WHA@EAAPEAXI@Z 0000000180002344 f i CashDrawer.obj
 0001:00001350       ?QueryInterface@?$CComContainedObject@VCOPOSCashDrawer@@@ATL@@WLI@EAAJAEBU_GUID@@PEAPEAX@Z 0000000180002350 f i CashDrawer.obj
 0001:0000135c       ?AddRef@?$CComContainedObject@VCOPOSCashDrawer@@@ATL@@WLI@EAAKXZ 000000018000235c f i CashDrawer.obj
 0001:00001368       ?Release@?$CComContainedObject@VCOPOSCashDrawer@@@ATL@@WLI@EAAKXZ 0000000180002368 f i CashDrawer.obj
 0001:00001374       ?QueryInterface@?$CComContainedObject@VCOPOSCashDrawer@@@ATL@@WMA@EAAJAEBU_GUID@@PEAPEAX@Z 0000000180002374 f i CashDrawer.obj
 0001:00001380       ?AddRef@?$CComContainedObject@VCOPOSCashDrawer@@@ATL@@WMA@EAAKXZ 0000000180002380 f i CashDrawer.obj
 0001:0000138c       ?Release@?$CComContainedObject@VCOPOSCashDrawer@@@ATL@@WMA@EAAKXZ 000000018000238c f i CashDrawer.obj
 0001:00001398       ?QueryInterface@?$CComContainedObject@VCOPOSCashDrawer@@@ATL@@WMI@EAAJAEBU_GUID@@PEAPEAX@Z 0000000180002398 f i CashDrawer.obj
 0001:000013a4       ?AddRef@?$CComContainedObject@VCOPOSCashDrawer@@@ATL@@WMI@EAAKXZ 00000001800023a4 f i CashDrawer.obj
 0001:000013b0       ?Release@?$CComContainedObject@VCOPOSCashDrawer@@@ATL@@WMI@EAAKXZ 00000001800023b0 f i CashDrawer.obj
 0001:000013bc       ?QueryInterface@?$CComContainedObject@VCOPOSCashDrawer@@@ATL@@WNA@EAAJAEBU_GUID@@PEAPEAX@Z 00000001800023bc f i CashDrawer.obj
 0001:000013c8       ?AddRef@?$CComContainedObject@VCOPOSCashDrawer@@@ATL@@WNA@EAAKXZ 00000001800023c8 f i CashDrawer.obj
 0001:000013d4       ?Release@?$CComContainedObject@VCOPOSCashDrawer@@@ATL@@WNA@EAAKXZ 00000001800023d4 f i CashDrawer.obj
 0001:000013e0       ?QueryInterface@?$CComContainedObject@VCOPOSCashDrawer@@@ATL@@WNI@EAAJAEBU_GUID@@PEAPEAX@Z 00000001800023e0 f i CashDrawer.obj
 0001:000013ec       ?AddRef@?$CComContainedObject@VCOPOSCashDrawer@@@ATL@@WNI@EAAKXZ 00000001800023ec f i CashDrawer.obj
 0001:000013f8       ?Release@?$CComContainedObject@VCOPOSCashDrawer@@@ATL@@WNI@EAAKXZ 00000001800023f8 f i CashDrawer.obj
 0001:00001404       ?QueryInterface@?$CComContainedObject@VCOPOSCashDrawer@@@ATL@@WOA@EAAJAEBU_GUID@@PEAPEAX@Z 0000000180002404 f i CashDrawer.obj
 0001:00001410       ?AddRef@?$CComContainedObject@VCOPOSCashDrawer@@@ATL@@WOA@EAAKXZ 0000000180002410 f i CashDrawer.obj
 0001:0000141c       ??_ECRegObject@ATL@@UEAAPEAXI@Z 000000018000241c f i CashDrawer.obj
 0001:0000141c       ??_GCRegObject@ATL@@UEAAPEAXI@Z 000000018000241c f i CashDrawer.obj
 0001:0000149c       ?Release@?$CComContainedObject@VCOPOSCashDrawer@@@ATL@@WOA@EAAKXZ 000000018000249c f i CashDrawer.obj
 0001:000014a8       ?QueryInterface@?$CComContainedObject@VCOPOSCashDrawer@@@ATL@@WOI@EAAJAEBU_GUID@@PEAPEAX@Z 00000001800024a8 f i CashDrawer.obj
 0001:000014b4       ?AddRef@?$CComContainedObject@VCOPOSCashDrawer@@@ATL@@WOI@EAAKXZ 00000001800024b4 f i CashDrawer.obj
 0001:000014c0       ?Release@?$CComContainedObject@VCOPOSCashDrawer@@@ATL@@WOI@EAAKXZ 00000001800024c0 f i CashDrawer.obj
 0001:000014cc       ?QueryInterface@?$CComContainedObject@VCOPOSCashDrawer@@@ATL@@WPA@EAAJAEBU_GUID@@PEAPEAX@Z 00000001800024cc f i CashDrawer.obj
 0001:000014d8       ?AddRef@?$CComContainedObject@VCOPOSCashDrawer@@@ATL@@WPA@EAAKXZ 00000001800024d8 f i CashDrawer.obj
 0001:000014e4       ?Release@?$CComContainedObject@VCOPOSCashDrawer@@@ATL@@WPA@EAAKXZ 00000001800024e4 f i CashDrawer.obj
 0001:000014f0       ?QueryInterface@?$CComContainedObject@VCOPOSCashDrawer@@@ATL@@WPI@EAAJAEBU_GUID@@PEAPEAX@Z 00000001800024f0 f i CashDrawer.obj
 0001:000014fc       ?AddRef@?$CComContainedObject@VCOPOSCashDrawer@@@ATL@@WPI@EAAKXZ 00000001800024fc f i CashDrawer.obj
 0001:00001508       ?Release@?$CComContainedObject@VCOPOSCashDrawer@@@ATL@@WPI@EAAKXZ 0000000180002508 f i CashDrawer.obj
 0001:00001514       ?QueryInterface@?$CComContainedObject@VCOPOSCashDrawer@@@ATL@@WBAA@EAAJAEBU_GUID@@PEAPEAX@Z 0000000180002514 f i CashDrawer.obj
 0001:00001520       ?AddRef@?$CComContainedObject@VCOPOSCashDrawer@@@ATL@@WBAA@EAAKXZ 0000000180002520 f i CashDrawer.obj
 0001:0000152c       ?Release@?$CComContainedObject@VCOPOSCashDrawer@@@ATL@@WBAA@EAAKXZ 000000018000252c f i CashDrawer.obj
 0001:00001538       ?QueryInterface@?$CComContainedObject@VCOPOSCashDrawer@@@ATL@@WBAI@EAAJAEBU_GUID@@PEAPEAX@Z 0000000180002538 f i CashDrawer.obj
 0001:00001544       ?AddRef@?$CComContainedObject@VCOPOSCashDrawer@@@ATL@@WBAI@EAAKXZ 0000000180002544 f i CashDrawer.obj
 0001:00001550       ?Release@?$CComContainedObject@VCOPOSCashDrawer@@@ATL@@WBAI@EAAKXZ 0000000180002550 f i CashDrawer.obj
 0001:0000155c       ?QueryInterface@?$CComContainedObject@VCOPOSCashDrawer@@@ATL@@WBBA@EAAJAEBU_GUID@@PEAPEAX@Z 000000018000255c f i CashDrawer.obj
 0001:00001568       ?AddRef@?$CComContainedObject@VCOPOSCashDrawer@@@ATL@@WBBA@EAAKXZ 0000000180002568 f i CashDrawer.obj
 0001:00001574       ?Release@?$CComContainedObject@VCOPOSCashDrawer@@@ATL@@WBBA@EAAKXZ 0000000180002574 f i CashDrawer.obj
 0001:00001580       ?QueryInterface@?$CComContainedObject@VCOPOSCashDrawer@@@ATL@@WBBI@EAAJAEBU_GUID@@PEAPEAX@Z 0000000180002580 f i CashDrawer.obj
 0001:0000158c       ?AddRef@?$CComContainedObject@VCOPOSCashDrawer@@@ATL@@WBBI@EAAKXZ 000000018000258c f i CashDrawer.obj
 0001:00001598       ?Release@?$CComContainedObject@VCOPOSCashDrawer@@@ATL@@WBBI@EAAKXZ 0000000180002598 f i CashDrawer.obj
 0001:000015a4       ?AddRef@?$CComContainedObject@VCOPOSCashDrawer@@@ATL@@WBCI@EAAKXZ 00000001800025a4 f i CashDrawer.obj
 0001:000015b0       ?Release@?$CComContainedObject@VCOPOSCashDrawer@@@ATL@@WBCI@EAAKXZ 00000001800025b0 f i CashDrawer.obj
 0001:000015bc       ?AddRef@?$CComContainedObject@VCOPOSCashDrawer@@@ATL@@WBEA@EAAKXZ 00000001800025bc f i CashDrawer.obj
 0001:000015c8       ?Release@?$CComContainedObject@VCOPOSCashDrawer@@@ATL@@WBEA@EAAKXZ 00000001800025c8 f i CashDrawer.obj
 0001:000015d4       ?GetWindowProc@?$CWindowImplBaseT@VCWindow@ATL@@V?$CWinTraits@$0FGAAAAAA@$0A@@2@@ATL@@UEAAP6A_JPEAUHWND__@@I_K_J@ZXZ 00000001800025d4 f i CashDrawer.obj
 0001:000015dc       ?StartWindowProc@?$CWindowImplBaseT@VCWindow@ATL@@V?$CWinTraits@$0FGAAAAAA@$0A@@2@@ATL@@SA_JPEAUHWND__@@I_K_J@Z 00000001800025dc f i CashDrawer.obj
 0001:000016a0       ?ObjectMain@CComObjectRootBase@ATL@@SAX_N@Z 00000001800026a0 f i CashDrawer.obj
 0001:000016a0       ?OnFinalMessage@?$CWindowImplBaseT@VCWindow@ATL@@V?$CWinTraits@$0FGAAAAAA@$0A@@2@@ATL@@UEAAXPEAUHWND__@@@Z 00000001800026a0 f i CashDrawer.obj
 0001:000016a0       _guard_check_icall_nop     00000001800026a0 f i LIBCMT:guard_support.obj
 0001:000016a4       ?GetTypeInfoCount@?$IDispatchImpl@UIOPOSCashDrawer@@$1?IID_IOPOSCashDrawer@@3U_GUID@@B$1?LIBID_OposCashDrawer_CCO@@3U3@B$00$0A@VCComTypeInfoHolder@ATL@@@ATL@@UEAAJPEAI@Z 00000001800026a4 f i CashDrawer.obj
 0001:000016b8       ?GetTypeInfo@?$IDispatchImpl@UIOPOSCashDrawer@@$1?IID_IOPOSCashDrawer@@3U_GUID@@B$1?LIBID_OposCashDrawer_CCO@@3U3@B$00$0A@VCComTypeInfoHolder@ATL@@@ATL@@UEAAJIKPEAPEAUITypeInfo@@@Z 00000001800026b8 f i CashDrawer.obj
 0001:0000171c       ?GetIDsOfNames@?$IDispatchImpl@UIOPOSCashDrawer@@$1?IID_IOPOSCashDrawer@@3U_GUID@@B$1?LIBID_OposCashDrawer_CCO@@3U3@B$00$0A@VCComTypeInfoHolder@ATL@@@ATL@@UEAAJAEBU_GUID@@PEAPEA_WIKPEAJ@Z 000000018000271c f i CashDrawer.obj
 0001:00001728       ?Invoke@?$IDispatchImpl@UIOPOSCashDrawer@@$1?IID_IOPOSCashDrawer@@3U_GUID@@B$1?LIBID_OposCashDrawer_CCO@@3U3@B$00$0A@VCComTypeInfoHolder@ATL@@@ATL@@UEAAJJAEBU_GUID@@KGPEAUtagDISPPARAMS@@PEAUtagVARIANT@@PEAUtagEXCEPINFO@@PEAI@Z 0000000180002728 f i CashDrawer.obj
 0001:000017b8       ?CreateControlWindow@?$CComControl@VCOPOSCashDrawer@@V?$CWindowImpl@VCOPOSCashDrawer@@VCWindow@ATL@@V?$CWinTraits@$0FGAAAAAA@$0A@@3@@ATL@@@ATL@@UEAAPEAUHWND__@@PEAU3@AEAUtagRECT@@@Z 00000001800027b8 f i CashDrawer.obj
 0001:000017f0       ?ControlQueryInterface@?$CComControl@VCOPOSCashDrawer@@V?$CWindowImpl@VCOPOSCashDrawer@@VCWindow@ATL@@V?$CWinTraits@$0FGAAAAAA@$0A@@3@@ATL@@@ATL@@UEAAJAEBU_GUID@@PEAPEAX@Z 00000001800027f0 f i CashDrawer.obj
 0001:00001804       ?GetClassID@?$IPersistStorageImpl@VCOPOSCashDrawer@@@ATL@@UEAAJPEAU_GUID@@@Z 0000000180002804 f i CashDrawer.obj
 0001:00001804       ?GetUserClassID@?$IOleObjectImpl@VCOPOSCashDrawer@@@ATL@@UEAAJPEAU_GUID@@@Z 0000000180002804 f i CashDrawer.obj
 0001:00001804       ?GetClassID@?$IPersistStreamInitImpl@VCOPOSCashDrawer@@@ATL@@UEAAJPEAU_GUID@@@Z 0000000180002804 f i CashDrawer.obj
 0001:00001820       ?IsDirty@?$IPersistStreamInitImpl@VCOPOSCashDrawer@@@ATL@@UEAAJXZ 0000000180002820 f i CashDrawer.obj
 0001:0000183c       ?Load@?$IPersistStreamInitImpl@VCOPOSCashDrawer@@@ATL@@UEAAJPEAUIStream@@@Z 000000018000283c f i CashDrawer.obj
 0001:0000188c       ?Save@?$IPersistStreamInitImpl@VCOPOSCashDrawer@@@ATL@@UEAAJPEAUIStream@@H@Z 000000018000288c f i CashDrawer.obj
 0001:000018f0       ?GetSizeMax@?$IPersistStreamInitImpl@VCOPOSCashDrawer@@@ATL@@UEAAJPEAT_ULARGE_INTEGER@@@Z 00000001800028f0 f i CashDrawer.obj
 0001:00001b1c       ?InitNew@?$IPersistStreamInitImpl@VCOPOSCashDrawer@@@ATL@@UEAAJXZ 0000000180002b1c f i CashDrawer.obj
 0001:00001b34       ?SetClientSite@?$IOleObjectImpl@VCOPOSCashDrawer@@@ATL@@UEAAJPEAUIOleClientSite@@@Z 0000000180002b34 f i CashDrawer.obj
 0001:00001b50       ?GetClientSite@?$IOleObjectImpl@VCOPOSCashDrawer@@@ATL@@UEAAJPEAPEAUIOleClientSite@@@Z 0000000180002b50 f i CashDrawer.obj
 0001:00001b98       ?Close@?$IOleObjectImpl@VCOPOSCashDrawer@@@ATL@@UEAAJK@Z 0000000180002b98 f i CashDrawer.obj
 0001:00001bb4       ?DoVerb@?$IOleObjectImpl@VCOPOSCashDrawer@@@ATL@@UEAAJJPEAUtagMSG@@PEAUIOleClientSite@@JPEAUHWND__@@PEBUtagRECT@@@Z 0000000180002bb4 f i CashDrawer.obj
 0001:00001d58       ?EnumVerbs@?$IOleObjectImpl@VCOPOSCashDrawer@@@ATL@@UEAAJPEAPEAUIEnumOLEVERB@@@Z 0000000180002d58 f i CashDrawer.obj
 0001:00001d74       ?GetUserType@?$IOleObjectImpl@VCOPOSCashDrawer@@@ATL@@UEAAJKPEAPEA_W@Z 0000000180002d74 f i CashDrawer.obj
 0001:00001d84       ?SetExtent@?$IOleObjectImpl@VCOPOSCashDrawer@@@ATL@@UEAAJKPEAUtagSIZE@@@Z 0000000180002d84 f i CashDrawer.obj
 0001:00001da0       ?GetExtent@?$IOleObjectImpl@VCOPOSCashDrawer@@@ATL@@UEAAJKPEAUtagSIZE@@@Z 0000000180002da0 f i CashDrawer.obj
 0001:00001dd0       ?Advise@?$IOleObjectImpl@VCOPOSCashDrawer@@@ATL@@UEAAJPEAUIAdviseSink@@PEAK@Z 0000000180002dd0 f i CashDrawer.obj
 0001:00001e2c       ?Unadvise@?$IOleObjectImpl@VCOPOSCashDrawer@@@ATL@@UEAAJK@Z 0000000180002e2c f i CashDrawer.obj
 0001:00001e64       ?EnumAdvise@?$IOleObjectImpl@VCOPOSCashDrawer@@@ATL@@UEAAJPEAPEAUIEnumSTATDATA@@@Z 0000000180002e64 f i CashDrawer.obj
 0001:00001eac       ?GetMiscStatus@?$IOleObjectImpl@VCOPOSCashDrawer@@@ATL@@UEAAJKPEAK@Z 0000000180002eac f i CashDrawer.obj
 0001:00001ebc       ?GetWindow@?$IOleInPlaceActiveObjectImpl@VCOPOSCashDrawer@@@ATL@@UEAAJPEAPEAUHWND__@@@Z 0000000180002ebc f i CashDrawer.obj
 0001:00001f10       ?TranslateAcceleratorW@?$IOleInPlaceActiveObjectImpl@VCOPOSCashDrawer@@@ATL@@UEAAJPEAUtagMSG@@@Z 0000000180002f10 f i CashDrawer.obj
 0001:00002004       ?OnDocWindowActivate@?$IOleInPlaceActiveObjectImpl@VCOPOSCashDrawer@@@ATL@@UEAAJH@Z 0000000180003004 f i CashDrawer.obj
 0001:00002030       ?Draw@?$IViewObjectExImpl@VCOPOSCashDrawer@@@ATL@@UEAAJKJPEAXPEAUtagDVTARGETDEVICE@@PEAUHDC__@@2PEBU_RECTL@@3P6AH_K@Z4@Z 0000000180003030 f i CashDrawer.obj
 0001:00002094       ?SetAdvise@?$IViewObjectExImpl@VCOPOSCashDrawer@@@ATL@@UEAAJKKPEAUIAdviseSink@@@Z 0000000180003094 f i CashDrawer.obj
 0001:000020e8       ?GetAdvise@?$IViewObjectExImpl@VCOPOSCashDrawer@@@ATL@@UEAAJPEAK0PEAPEAUIAdviseSink@@@Z 00000001800030e8 f i CashDrawer.obj
 0001:00002124       ?GetExtent@?$IViewObjectExImpl@VCOPOSCashDrawer@@@ATL@@UEAAJKJPEAUtagDVTARGETDEVICE@@PEAUtagSIZE@@@Z 0000000180003124 f i CashDrawer.obj
 0001:00002154       ?GetViewStatus@?$IViewObjectExImpl@VCOPOSCashDrawer@@@ATL@@UEAAJPEAK@Z 0000000180003154 f i CashDrawer.obj
 0001:00002168       ?QueryHitPoint@?$IViewObjectExImpl@VCOPOSCashDrawer@@@ATL@@UEAAJKPEBUtagRECT@@UtagPOINT@@JPEAK@Z 0000000180003168 f i CashDrawer.obj
 0001:000021ac       ?QueryHitRect@?$IViewObjectExImpl@VCOPOSCashDrawer@@@ATL@@UEAAJKPEBUtagRECT@@0JPEAK@Z 00000001800031ac f i CashDrawer.obj
 0001:00002214       ?GetNaturalExtent@?$IViewObjectExImpl@VCOPOSCashDrawer@@@ATL@@UEAAJKJPEAUtagDVTARGETDEVICE@@PEAUHDC__@@PEAUtagExtentInfo@@PEAUtagSIZE@@@Z 0000000180003214 f i CashDrawer.obj
 0001:0000225c       ?GetWindow@?$IOleInPlaceObjectWindowlessImpl@VCOPOSCashDrawer@@@ATL@@UEAAJPEAPEAUHWND__@@@Z 000000018000325c f i CashDrawer.obj
 0001:000022b0       ?InPlaceDeactivate@?$IOleInPlaceObjectWindowlessImpl@VCOPOSCashDrawer@@@ATL@@UEAAJXZ 00000001800032b0 f i CashDrawer.obj
 0001:000022cc       ?UIDeactivate@?$IOleInPlaceObjectWindowlessImpl@VCOPOSCashDrawer@@@ATL@@UEAAJXZ 00000001800032cc f i CashDrawer.obj
 0001:000022e8       ?SetObjectRects@?$IOleInPlaceObjectWindowlessImpl@VCOPOSCashDrawer@@@ATL@@UEAAJPEBUtagRECT@@0@Z 00000001800032e8 f i CashDrawer.obj
 0001:00002304       ?OnWindowMessage@?$IOleInPlaceObjectWindowlessImpl@VCOPOSCashDrawer@@@ATL@@UEAAJI_K_JPEA_J@Z 0000000180003304 f i CashDrawer.obj
 0001:000023cc       ?EnumConnectionPoints@?$IConnectionPointContainerImpl@VCOPOSCashDrawer@@@ATL@@UEAAJPEAPEAUIEnumConnectionPoints@@@Z 00000001800033cc f i CashDrawer.obj
 0001:000025ec       ?FindConnectionPoint@?$IConnectionPointContainerImpl@VCOPOSCashDrawer@@@ATL@@UEAAJAEBU_GUID@@PEAPEAUIConnectionPoint@@@Z 00000001800035ec f i CashDrawer.obj
 0001:000026bc       ?IsDirty@?$IPersistStorageImpl@VCOPOSCashDrawer@@@ATL@@UEAAJXZ 00000001800036bc f i CashDrawer.obj
 0001:00002700       ?InitNew@?$IPersistStorageImpl@VCOPOSCashDrawer@@@ATL@@UEAAJPEAUIStorage@@@Z 0000000180003700 f i CashDrawer.obj
 0001:00002744       ?Load@?$IPersistStorageImpl@VCOPOSCashDrawer@@@ATL@@UEAAJPEAUIStorage@@@Z 0000000180003744 f i CashDrawer.obj
 0001:000027e4       ?Save@?$IPersistStorageImpl@VCOPOSCashDrawer@@@ATL@@UEAAJPEAUIStorage@@H@Z 00000001800037e4 f i CashDrawer.obj
 0001:00002894       ?GetPages@?$ISpecifyPropertyPagesImpl@VCOPOSCashDrawer@@@ATL@@UEAAJPEAUtagCAUUID@@@Z 0000000180003894 f i CashDrawer.obj
 0001:000028a0       ?QuickActivate@?$IQuickActivateImpl@VCOPOSCashDrawer@@@ATL@@UEAAJPEAUtagQACONTAINER@@PEAUtagQACONTROL@@@Z 00000001800038a0 f i CashDrawer.obj
 0001:000028bc       ?SetContentExtent@?$IQuickActivateImpl@VCOPOSCashDrawer@@@ATL@@UEAAJPEAUtagSIZE@@@Z 00000001800038bc f i CashDrawer.obj
 0001:000028f0       ?GetContentExtent@?$IQuickActivateImpl@VCOPOSCashDrawer@@@ATL@@UEAAJPEAUtagSIZE@@@Z 00000001800038f0 f i CashDrawer.obj
 0001:00002928       ?GetData@?$IDataObjectImpl@VCOPOSCashDrawer@@@ATL@@UEAAJPEAUtagFORMATETC@@PEAUtagSTGMEDIUM@@@Z 0000000180003928 f i CashDrawer.obj
 0001:00002944       ?DAdvise@?$IDataObjectImpl@VCOPOSCashDrawer@@@ATL@@UEAAJPEAUtagFORMATETC@@KPEAUIAdviseSink@@PEAK@Z 0000000180003944 f i CashDrawer.obj
 0001:000029cc       ?DUnadvise@?$IDataObjectImpl@VCOPOSCashDrawer@@@ATL@@UEAAJK@Z 00000001800039cc f i CashDrawer.obj
 0001:000029f8       ?EnumDAdvise@?$IDataObjectImpl@VCOPOSCashDrawer@@@ATL@@UEAAJPEAPEAUIEnumSTATDATA@@@Z 00000001800039f8 f i CashDrawer.obj
 0001:00002a34       ?GetClassInfoW@?$IProvideClassInfo2Impl@$1?CLSID_OPOSCashDrawer@@3U_GUID@@B$1?DIID__IOPOSCashDrawerEvents@@3U2@B$1?LIBID_OposCashDrawer_CCO@@3U2@B$00$0A@VCComTypeInfoHolder@ATL@@@ATL@@UEAAJPEAPEAUITypeInfo@@@Z 0000000180003a34 f i CashDrawer.obj
 0001:00002a8c       ?GetGUID@?$IProvideClassInfo2Impl@$1?CLSID_OPOSCashDrawer@@3U_GUID@@B$1?DIID__IOPOSCashDrawerEvents@@3U2@B$1?LIBID_OposCashDrawer_CCO@@3U2@B$00$0A@VCComTypeInfoHolder@ATL@@@ATL@@UEAAJKPEAU_GUID@@@Z 0000000180003a8c f i CashDrawer.obj
 0001:00002ac0       ?GetInterfaceSafetyOptions@?$IObjectSafetyImpl@VCOPOSCashDrawer@@$02@ATL@@UEAAJAEBU_GUID@@PEAK1@Z 0000000180003ac0 f i CashDrawer.obj
 0001:00002b54       ?SetInterfaceSafetyOptions@?$IObjectSafetyImpl@VCOPOSCashDrawer@@$02@ATL@@UEAAJAEBU_GUID@@KK@Z 0000000180003b54 f i CashDrawer.obj
 0001:00002bf8       ?_LocCPQueryInterface@?$IConnectionPointImpl@VCOPOSCashDrawer@@$1?DIID__IOPOSCashDrawerEvents@@3U_GUID@@BVCComDynamicUnkArray@ATL@@@ATL@@UEAAJAEBU_GUID@@PEAPEAX@Z 0000000180003bf8 f i CashDrawer.obj
 0001:00002bf8       ?_LocCPQueryInterface@?$IConnectionPointImpl@VCOPOSCashDrawer@@$1?IID_IPropertyNotifySink@@3U_GUID@@BVCComDynamicUnkArray@ATL@@@ATL@@UEAAJAEBU_GUID@@PEAPEAX@Z 0000000180003bf8 f i CashDrawer.obj
 0001:00002c6c       ?GetConnectionInterface@?$IConnectionPointImpl@VCOPOSCashDrawer@@$1?IID_IPropertyNotifySink@@3U_GUID@@BVCComDynamicUnkArray@ATL@@@ATL@@UEAAJPEAU_GUID@@@Z 0000000180003c6c f i CashDrawer.obj
 0001:00002c88       ?GetConnectionPointContainer@?$IConnectionPointImpl@VCOPOSCashDrawer@@$1?IID_IPropertyNotifySink@@3U_GUID@@BVCComDynamicUnkArray@ATL@@@ATL@@UEAAJPEAPEAUIConnectionPointContainer@@@Z 0000000180003c88 f i CashDrawer.obj
 0001:00002ca8       ?Advise@?$IConnectionPointImpl@VCOPOSCashDrawer@@$1?IID_IPropertyNotifySink@@3U_GUID@@BVCComDynamicUnkArray@ATL@@@ATL@@UEAAJPEAUIUnknown@@PEAK@Z 0000000180003ca8 f i CashDrawer.obj
 0001:00002ca8       ?Advise@?$IConnectionPointImpl@VCOPOSCashDrawer@@$1?DIID__IOPOSCashDrawerEvents@@3U_GUID@@BVCComDynamicUnkArray@ATL@@@ATL@@UEAAJPEAUIUnknown@@PEAK@Z 0000000180003ca8 f i CashDrawer.obj
 0001:00002d68       ?Unadvise@?$IConnectionPointImpl@VCOPOSCashDrawer@@$1?DIID__IOPOSCashDrawerEvents@@3U_GUID@@BVCComDynamicUnkArray@ATL@@@ATL@@UEAAJK@Z 0000000180003d68 f i CashDrawer.obj
 0001:00002d68       ?Unadvise@?$IConnectionPointImpl@VCOPOSCashDrawer@@$1?IID_IPropertyNotifySink@@3U_GUID@@BVCComDynamicUnkArray@ATL@@@ATL@@UEAAJK@Z 0000000180003d68 f i CashDrawer.obj
 0001:00002de4       ?EnumConnections@?$IConnectionPointImpl@VCOPOSCashDrawer@@$1?IID_IPropertyNotifySink@@3U_GUID@@BVCComDynamicUnkArray@ATL@@@ATL@@UEAAJPEAPEAUIEnumConnections@@@Z 0000000180003de4 f i CashDrawer.obj
 0001:00002de4       ?EnumConnections@?$IConnectionPointImpl@VCOPOSCashDrawer@@$1?DIID__IOPOSCashDrawerEvents@@3U_GUID@@BVCComDynamicUnkArray@ATL@@@ATL@@UEAAJPEAPEAUIEnumConnections@@@Z 0000000180003de4 f i CashDrawer.obj
 0001:00002f8c       ?GetConnectionInterface@?$IConnectionPointImpl@VCOPOSCashDrawer@@$1?DIID__IOPOSCashDrawerEvents@@3U_GUID@@BVCComDynamicUnkArray@ATL@@@ATL@@UEAAJPEAU_GUID@@@Z 0000000180003f8c f i CashDrawer.obj
 0001:00002fa8       ?GetConnectionPointContainer@?$IConnectionPointImpl@VCOPOSCashDrawer@@$1?DIID__IOPOSCashDrawerEvents@@3U_GUID@@BVCComDynamicUnkArray@ATL@@@ATL@@UEAAJPEAPEAUIConnectionPointContainer@@@Z 0000000180003fa8 f i CashDrawer.obj
 0001:00002fc8       ?UpdateRegistry@COPOSCashDrawer@@SAJH@Z 0000000180003fc8 f i CashDrawer.obj
 0001:00002fe0       ?ProcessWindowMessage@COPOSCashDrawer@@UEAAHPEAUHWND__@@I_K_JAEA_JK@Z 0000000180003fe0 f i CashDrawer.obj
 0001:00003068       ?SODirectIO@COPOSCashDrawer@@MEAAJJPEAJPEAPEA_W@Z 0000000180004068 f i CashDrawer.obj
 0001:000030e0       ?SOStatusUpdate@COPOSCashDrawer@@MEAAJJ@Z 00000001800040e0 f i CashDrawer.obj
 0001:00003130       ?CreateInstance@?$CComCreator@V?$CComObjectCached@VCComClassFactory@ATL@@@ATL@@@ATL@@SAJPEAXAEBU_GUID@@PEAPEAX@Z 0000000180004130 f i CashDrawer.obj
 0001:00003238       ?CreateInstance@?$CComCreator2@V?$CComCreator@V?$CComObject@VCOPOSCashDrawer@@@ATL@@@ATL@@V?$CComCreator@V?$CComAggObject@VCOPOSCashDrawer@@@ATL@@@2@@ATL@@SAJPEAXAEBU_GUID@@PEAPEAX@Z 0000000180004238 f i CashDrawer.obj
 0001:00003248       ?Next@?$CComEnumImpl@UIEnumConnectionPoints@@$1?_GUID_b196b285_bab4_101a_b69c_00aa00341d07@@3U__s_GUID@@BPEAUIConnectionPoint@@V?$_CopyInterface@UIConnectionPoint@@@ATL@@@ATL@@UEAAJKPEAPEAUIConnectionPoint@@PEAK@Z 0000000180004248 f i CashDrawer.obj
 0001:00003314       ?Skip@?$CComEnumImpl@UIEnumConnectionPoints@@$1?_GUID_b196b285_bab4_101a_b69c_00aa00341d07@@3U__s_GUID@@BPEAUIConnectionPoint@@V?$_CopyInterface@UIConnectionPoint@@@ATL@@@ATL@@UEAAJK@Z 0000000180004314 f i CashDrawer.obj
 0001:00003340       ?Clone@?$CComEnumImpl@UIEnumConnectionPoints@@$1?_GUID_b196b285_bab4_101a_b69c_00aa00341d07@@3U__s_GUID@@BPEAUIConnectionPoint@@V?$_CopyInterface@UIConnectionPoint@@@ATL@@@ATL@@UEAAJPEAPEAUIEnumConnectionPoints@@@Z 0000000180004340 f i CashDrawer.obj
 0001:0000346c       ?QueryInterface@?$CComObject@V?$CComEnum@UIEnumConnectionPoints@@$1?_GUID_b196b285_bab4_101a_b69c_00aa00341d07@@3U__s_GUID@@BPEAUIConnectionPoint@@V?$_CopyInterface@UIConnectionPoint@@@ATL@@VCComSingleThreadModel@6@@ATL@@@ATL@@UEAAJAEBU_GUID@@PEAPEAX@Z 000000018000446c f i CashDrawer.obj
 0001:00003480       ??_E?$CComObject@V?$CComEnum@UIEnumConnectionPoints@@$1?_GUID_b196b285_bab4_101a_b69c_00aa00341d07@@3U__s_GUID@@BPEAUIConnectionPoint@@V?$_CopyInterface@UIConnectionPoint@@@ATL@@VCComSingleThreadModel@6@@ATL@@@ATL@@UEAAPEAXI@Z 0000000180004480 f i CashDrawer.obj
 0001:00003480       ??_G?$CComObject@V?$CComEnum@UIEnumConnectionPoints@@$1?_GUID_b196b285_bab4_101a_b69c_00aa00341d07@@3U__s_GUID@@BPEAUIConnectionPoint@@V?$_CopyInterface@UIConnectionPoint@@@ATL@@VCComSingleThreadModel@6@@ATL@@@ATL@@UEAAPEAXI@Z 0000000180004480 f i CashDrawer.obj
 0001:000034d8       ?CreateInstance@CComClassFactory@ATL@@UEAAJPEAUIUnknown@@AEBU_GUID@@PEAPEAX@Z 00000001800044d8 f i CashDrawer.obj
 0001:00003538       ?LockServer@CComClassFactory@ATL@@UEAAJH@Z 0000000180004538 f i CashDrawer.obj
 0001:0000355c       ??_ECComClassFactory@ATL@@UEAAPEAXI@Z 000000018000455c f i CashDrawer.obj
 0001:0000355c       ??_GCComClassFactory@ATL@@UEAAPEAXI@Z 000000018000455c f i CashDrawer.obj
 0001:000035ac       ??$AtlModuleRegisterWndClassInfoT@VAtlModuleRegisterWndClassInfoParamW@ATL@@@ATL@@YAGPEAU_ATL_BASE_MODULE70@0@PEAU_ATL_WIN_MODULE70@0@PEAU_ATL_WNDCLASSINFOW@0@PEAP6A_JPEAUHWND__@@I_K_J@ZVAtlModuleRegisterWndClassInfoParamW@0@@Z 00000001800045ac f i CashDrawer.obj
 0001:000037ac       ??0?$CComContainedObject@VCOPOSCashDrawer@@@ATL@@QEAA@PEAX@Z 00000001800047ac f i CashDrawer.obj
 0001:000038c8       ??0?$CComObject@VCOPOSCashDrawer@@@ATL@@QEAA@PEAX@Z 00000001800048c8 f i CashDrawer.obj
 0001:000039e0       ??0CAtlModule@ATL@@QEAA@XZ 00000001800049e0 f i CashDrawer.obj
 0001:00003a54       ??1?$CComEnumImpl@UIEnumConnectionPoints@@$1?_GUID_b196b285_bab4_101a_b69c_00aa00341d07@@3U__s_GUID@@BPEAUIConnectionPoint@@V?$_CopyInterface@UIConnectionPoint@@@ATL@@@ATL@@UEAA@XZ 0000000180004a54 f i CashDrawer.obj
 0001:00003ab0       ??1?$CComEnumImpl@UIEnumConnections@@$1?_GUID_b196b287_bab4_101a_b69c_00aa00341d07@@3U__s_GUID@@BUtagCONNECTDATA@@V?$_Copy@UtagCONNECTDATA@@@ATL@@@ATL@@UEAA@XZ 0000000180004ab0 f i CashDrawer.obj
 0001:00003b0c       ??1?$CComObject@VCOPOSCashDrawer@@@ATL@@UEAA@XZ 0000000180004b0c f i CashDrawer.obj
 0001:00003c2c       ??_E?$CComContainedObject@VCOPOSCashDrawer@@@ATL@@UEAAPEAXI@Z 0000000180004c2c f i CashDrawer.obj
 0001:00003c2c       ??_G?$CComContainedObject@VCOPOSCashDrawer@@@ATL@@UEAAPEAXI@Z 0000000180004c2c f i CashDrawer.obj
 0001:00003c60       ??_G?$CComObject@VCOPOSCashDrawer@@@ATL@@UEAAPEAXI@Z 0000000180004c60 f i CashDrawer.obj
 0001:00003c60       ??_E?$CComObject@VCOPOSCashDrawer@@@ATL@@UEAAPEAXI@Z 0000000180004c60 f i CashDrawer.obj
 0001:00003c94       ?Add@?$CSimpleArray@GV?$CSimpleArrayEqualHelper@G@ATL@@@ATL@@QEAAHAEBG@Z 0000000180004c94 f i CashDrawer.obj
 0001:00003d48       ?Add@?$CSimpleMap@PEA_WPEA_WVCExpansionVectorEqualHelper@ATL@@@ATL@@QEAAHAEBQEA_W0@Z 0000000180004d48 f i CashDrawer.obj
 0001:00003de8       ?Add@CComDynamicUnkArray@ATL@@QEAAKPEAUIUnknown@@@Z 0000000180004de8 f i CashDrawer.obj
 0001:00003ed0       ?Add@CExpansionVector@ATL@@QEAAHPEB_W0@Z 0000000180004ed0 f i CashDrawer.obj
 0001:00004060       ?AddValue@CRegParser@ATL@@IEAAJAEAVCRegKey@2@PEB_WPEA_W@Z 0000000180005060 f i CashDrawer.obj
 0001:000044a8       ?AllocateHeap@?$CTempBuffer@E$0BAA@VCCRTAllocator@ATL@@@ATL@@AEAAX_K@Z 00000001800054a8 f i CashDrawer.obj
 0001:000044a8       ?AllocateHeap@?$CTempBuffer@_W$0BAA@VCCRTAllocator@ATL@@@ATL@@AEAAX_K@Z 00000001800054a8 f i CashDrawer.obj
 0001:000044a8       ?AllocateHeap@?$CTempBuffer@_W$0EAA@VCCRTAllocator@ATL@@@ATL@@AEAAX_K@Z 00000001800054a8 f i CashDrawer.obj
 0001:000044d4       ?Append@CParseBuffer@CRegParser@ATL@@QEAAHPEB_WH@Z 00000001800054d4 f i CashDrawer.obj
 0001:000045ec       ?AtlCallTermFunc@ATL@@YAXPEAU_ATL_MODULE70@1@@Z 00000001800055ec f i CashDrawer.obj
 0001:00004650       ?AtlComModuleGetClassObject@ATL@@YAJPEAU_ATL_COM_MODULE70@1@AEBU_GUID@@1PEAPEAX@Z 0000000180005650 f i CashDrawer.obj
 0001:00004790       ?AtlComModuleRegisterServer@ATL@@YAJPEAU_ATL_COM_MODULE70@1@HPEBU_GUID@@@Z 0000000180005790 f i CashDrawer.obj
 0001:00004850       ?AtlComModuleUnregisterServer@ATL@@YAJPEAU_ATL_COM_MODULE70@1@HPEBU_GUID@@@Z 0000000180005850 f i CashDrawer.obj
 0001:0000490c       ?AtlCreateTargetDC@ATL@@YAPEAUHDC__@@PEAU2@PEAUtagDVTARGETDEVICE@@@Z 000000018000590c f i CashDrawer.obj
 0001:00004980       ?AtlHiMetricToPixel@ATL@@YAXPEBUtagSIZE@@PEAU2@@Z 0000000180005980 f i CashDrawer.obj
 0001:00004a30       ?AtlHresultFromLastError@ATL@@YAJXZ 0000000180005a30 f i CashDrawer.obj
 0001:00004a50       ?AtlHresultFromWin32@ATL@@YAJK@Z 0000000180005a50 f i CashDrawer.obj
 0001:00004a60       ?AtlIPersistStreamInit_Load@ATL@@YAJPEAUIStream@@PEBUATL_PROPMAP_ENTRY@1@PEAXPEAUIUnknown@@@Z 0000000180005a60 f i CashDrawer.obj
 0001:00004c98       ?AtlIPersistStreamInit_Save@ATL@@YAJPEAUIStream@@HPEBUATL_PROPMAP_ENTRY@1@PEAXPEAUIUnknown@@@Z 0000000180005c98 f i CashDrawer.obj
 0001:00004ed0       ?AtlInternalOleLoadFromStream@ATL@@YAJPEAUIStream@@AEBU_GUID@@PEAPEAXTClassesAllowedInStream@1@K@Z 0000000180005ed0 f i CashDrawer.obj
 0001:00005014       ?AtlInternalQueryInterface@ATL@@YAJPEAXPEBU_ATL_INTMAP_ENTRY@1@AEBU_GUID@@PEAPEAX@Z 0000000180006014 f i CashDrawer.obj
 0001:0000511c       ?AtlLoadTypeLib@ATL@@YAJPEAUHINSTANCE__@@PEB_WPEAPEA_WPEAPEAUITypeLib@@@Z 000000018000611c f i CashDrawer.obj
 0001:00005378       ?AtlModuleAddTermFunc@ATL@@YAJPEAU_ATL_MODULE70@1@P6AX_K@Z1@Z 0000000180006378 f i CashDrawer.obj
 0001:0000540c       ?AtlRegisterClassCategoriesHelper@ATL@@YAJAEBU_GUID@@PEBU_ATL_CATMAP_ENTRY@1@H@Z 000000018000640c f i CashDrawer.obj
 0001:00005874       ?AtlRegisterTypeLib@ATL@@YAJPEAUHINSTANCE__@@PEB_W@Z 0000000180006874 f i CashDrawer.obj
 0001:00005a70       ?AtlThrowImpl@ATL@@YAXJ@Z  0000000180006a70 f i CashDrawer.obj
 0001:00005a94       ?AtlUnRegisterTypeLib@ATL@@YAJPEAUHINSTANCE__@@PEB_W@Z 0000000180006a94 f i CashDrawer.obj
 0001:00005b5c       ?AtlWinModuleExtractCreateWndData@ATL@@YAPEAXPEAU_ATL_WIN_MODULE70@1@@Z 0000000180006b5c f i CashDrawer.obj
 0001:00005be8       ?Cleanup@CComTypeInfoHolder@ATL@@SAX_K@Z 0000000180006be8 f i CashDrawer.obj
 0001:00005c28       ?ClearReplacements@CExpansionVector@ATL@@QEAAJXZ 0000000180006c28 f i CashDrawer.obj
 0001:00005cc4       ?CreateInstance@?$CComCreator@V?$CComAggObject@VCOPOSCashDrawer@@@ATL@@@ATL@@SAJPEAXAEBU_GUID@@PEAPEAX@Z 0000000180006cc4 f i CashDrawer.obj
 0001:00005d9c       ?CreateInstance@?$CComCreator@V?$CComObject@VCOPOSCashDrawer@@@ATL@@@ATL@@SAJPEAXAEBU_GUID@@PEAPEAX@Z 0000000180006d9c f i CashDrawer.obj
 0001:00005e54       ?CreateInstance@?$CComObject@V?$CComEnum@UIEnumConnectionPoints@@$1?_GUID_b196b285_bab4_101a_b69c_00aa00341d07@@3U__s_GUID@@BPEAUIConnectionPoint@@V?$_CopyInterface@UIConnectionPoint@@@ATL@@VCComSingleThreadModel@6@@ATL@@@ATL@@SAJPEAPEAV12@@Z 0000000180006e54 f i CashDrawer.obj
 0001:00005ee0       ?CreateInstance@?$CComObject@V?$CComEnum@UIEnumConnections@@$1?_GUID_b196b287_bab4_101a_b69c_00aa00341d07@@3U__s_GUID@@BUtagCONNECTDATA@@V?$_Copy@UtagCONNECTDATA@@@ATL@@VCComSingleThreadModel@6@@ATL@@@ATL@@SAJPEAPEAV12@@Z 0000000180006ee0 f i CashDrawer.obj
 0001:00005f6c       ?DefaultReflectionHandler@?$CWindowImplRoot@VCWindow@ATL@@@ATL@@SAHPEAUHWND__@@I_K_JAEA_J@Z 0000000180006f6c f i CashDrawer.obj
 0001:00005fd0       ?DeleteSubKey@CRegKey@ATL@@QEAAJPEB_W@Z 0000000180006fd0 f i CashDrawer.obj
 0001:00006068       ?DoEvent@COPOSCashDrawer@@IEAAXI_K_J@Z 0000000180007068 f i CashDrawer.obj
 0001:0000611c       ?DoVerbPrimary@?$IOleObjectImpl@VCOPOSCashDrawer@@@ATL@@QEAAJPEBUtagRECT@@PEAUHWND__@@@Z 000000018000711c f i CashDrawer.obj
 0001:00006248       ?DoVerbProperties@CComControlBase@ATL@@QEAAJPEBUtagRECT@@PEAUHWND__@@@Z 0000000180007248 f i CashDrawer.obj
 0001:00006470       ?FireTheEvent@?$CProxy_IOPOSEvents@VCOPOSCashDrawer@@@@IEAAXPEAVOposVariant@@IAEAJPEB_WJ@Z 0000000180007470 f i CashDrawer.obj
 0001:0000655c       ?FireViewChange@CComControlBase@ATL@@QEAAJXZ 000000018000755c f i CashDrawer.obj
 0001:000065c0       ?Fire_DirectIOEvent@?$CProxy_IOPOSEvents@VCOPOSCashDrawer@@@@QEAAXJPEAJPEAPEA_W@Z 00000001800075c0 f i CashDrawer.obj
 0001:00006718       ?Fire_StatusUpdateEvent@?$CProxy_IOPOSEvents@VCOPOSCashDrawer@@@@QEAAXJ@Z 0000000180007718 f i CashDrawer.obj
 0001:00006804       ?FreeHeap@?$CTempBuffer@_W$0EAA@VCCRTAllocator@ATL@@@ATL@@AEAAXXZ 0000000180007804 f i CashDrawer.obj
 0001:00006804       ?FreeHeap@?$CTempBuffer@_W$0BAA@VCCRTAllocator@ATL@@@ATL@@AEAAXXZ 0000000180007804 f i CashDrawer.obj
 0001:00006804       ?FreeHeap@?$CTempBuffer@E$0BAA@VCCRTAllocator@ATL@@@ATL@@AEAAXXZ 0000000180007804 f i CashDrawer.obj
 0001:0000680c       ?GetAmbientLocaleID@CComControlBase@ATL@@QEAAJAEAK@Z 000000018000780c f i CashDrawer.obj
 0001:000068cc       ?GetAmbientUserMode@CComControlBase@ATL@@QEAAJAEAH@Z 00000001800078cc f i CashDrawer.obj
 0001:0000699c       ?GetClassObject@CComModule@ATL@@QEAAJAEBU_GUID@@0PEAPEAX@Z 000000018000799c f i CashDrawer.obj
 0001:00006a90       ?GetConnMap@COPOSCashDrawer@@SAPEBU_ATL_CONNMAP_ENTRY@ATL@@PEAH@Z 0000000180007a90 f i CashDrawer.obj
 0001:00006b18       ?GetIDsOfNames@CComTypeInfoHolder@ATL@@QEAAJAEBU_GUID@@PEAPEA_WIKPEAJ@Z 0000000180007b18 f i CashDrawer.obj
 0001:00006c90       ?GetPagesHelper@?$ISpecifyPropertyPagesImpl@VCOPOSCashDrawer@@@ATL@@IEAAJPEAUtagCAUUID@@PEBUATL_PROPMAP_ENTRY@2@@Z 0000000180007c90 f i CashDrawer.obj
 0001:00006e30       ?GetSizeMax@CComVariant@ATL@@QEBAJPEAT_ULARGE_INTEGER@@@Z 0000000180007e30 f i CashDrawer.obj
 0001:00007064       ?GetTI@CComTypeInfoHolder@ATL@@QEAAJK@Z 0000000180008064 f i CashDrawer.obj
 0001:000072dc       ?GetZoomInfo@CComControlBase@ATL@@QEAAXAEAUATL_DRAWINFO@@@Z 00000001800082dc f i CashDrawer.obj
 0001:00007380       ?HKeyFromString@CRegParser@ATL@@KAPEAUHKEY__@@PEA_W@Z 0000000180008380 f i CashDrawer.obj
 0001:000073e4       ?IDataObject_GetData@CComControlBase@ATL@@QEAAJPEAUtagFORMATETC@@PEAUtagSTGMEDIUM@@@Z 00000001800083e4 f i CashDrawer.obj
 0001:000075d8       ?IOleInPlaceObject_InPlaceDeactivate@CComControlBase@ATL@@QEAAJXZ 00000001800085d8 f i CashDrawer.obj
 0001:00007678       ?IOleInPlaceObject_SetObjectRects@CComControlBase@ATL@@QEAAJPEBUtagRECT@@0@Z 0000000180008678 f i CashDrawer.obj
 0001:00007768       ?IOleInPlaceObject_UIDeactivate@CComControlBase@ATL@@QEAAJXZ 0000000180008768 f i CashDrawer.obj
 0001:00007874       ?IOleObject_Close@CComControlBase@ATL@@QEAAJK@Z 0000000180008874 f i CashDrawer.obj
 0001:0000798c       ?IOleObject_SetClientSite@CComControlBase@ATL@@QEAAJPEAUIOleClientSite@@@Z 000000018000898c f i CashDrawer.obj
 0001:00007a04       ?IOleObject_SetExtent@CComControlBase@ATL@@QEAAJKPEAUtagSIZE@@@Z 0000000180008a04 f i CashDrawer.obj
 0001:00007a9c       ?IPSI_GetIPersistStreamInit@?$IPersistStorageImpl@VCOPOSCashDrawer@@@ATL@@AEAAPEAUIPersistStreamInit@@XZ 0000000180008a9c f i CashDrawer.obj
 0001:00007af8       ?IQuickActivate_QuickActivate@CComControlBase@ATL@@QEAAJPEAUtagQACONTAINER@@PEAUtagQACONTROL@@@Z 0000000180008af8 f i CashDrawer.obj
 0001:00007dbc       ?IViewObject_Draw@CComControlBase@ATL@@QEAAJKJPEAXPEAUtagDVTARGETDEVICE@@PEAUHDC__@@2PEBU_RECTL@@3@Z 0000000180008dbc f i CashDrawer.obj
 0001:00007ed0       ?InPlaceActivate@CComControlBase@ATL@@QEAAJJPEBUtagRECT@@@Z 0000000180008ed0 f i CashDrawer.obj
 0001:00008208       ?Init@?$CComEnumImpl@UIEnumConnectionPoints@@$1?_GUID_b196b285_bab4_101a_b69c_00aa00341d07@@3U__s_GUID@@BPEAUIConnectionPoint@@V?$_CopyInterface@UIConnectionPoint@@@ATL@@@ATL@@QEAAJPEAPEAUIConnectionPoint@@0PEAUIUnknown@@W4CComEnumFlags@2@@Z 0000000180009208 f i CashDrawer.obj
 0001:00008328       ?Init@?$CComEnumImpl@UIEnumConnections@@$1?_GUID_b196b287_bab4_101a_b69c_00aa00341d07@@3U__s_GUID@@BUtagCONNECTDATA@@V?$_Copy@UtagCONNECTDATA@@@ATL@@@ATL@@QEAAJPEAUtagCONNECTDATA@@0PEAUIUnknown@@W4CComEnumFlags@2@@Z 0000000180009328 f i CashDrawer.obj
 0001:0000844c       ?IsEqualObject@?$CComPtrBase@UIOleClientSite@@@ATL@@QEAA_NPEAUIUnknown@@@Z 000000018000944c f i CashDrawer.obj
 0001:0000844c       ?IsEqualObject@?$CComPtrBase@UITypeInfo@@@ATL@@QEAA_NPEAUIUnknown@@@Z 000000018000944c f i CashDrawer.obj
 0001:000084d8       ?LoadNameCache@CComTypeInfoHolder@ATL@@QEAAJPEAUITypeInfo@@@Z 00000001800094d8 f i CashDrawer.obj
 0001:0000865c       ?Lookup@?$CSimpleMap@PEA_WPEA_WVCExpansionVectorEqualHelper@ATL@@@ATL@@QEBAPEA_WAEBQEA_W@Z 000000018000965c f i CashDrawer.obj
 0001:000086e8       ?NextToken@CRegParser@ATL@@IEAAJPEA_W@Z 00000001800096e8 f i CashDrawer.obj
 0001:000088a0       ?OnKillFocus@CComControlBase@ATL@@QEAA_JI_K_JAEAH@Z 00000001800098a0 f i CashDrawer.obj
 0001:0000893c       ?OnMouseActivate@CComControlBase@ATL@@QEAA_JI_K_JAEAH@Z 000000018000993c f i CashDrawer.obj
 0001:000089dc       ?OnPaint@CComControlBase@ATL@@QEAA_JI_K_JAEAH@Z 00000001800099dc f i CashDrawer.obj
 0001:00008ac8       ?OnSetFocus@CComControlBase@ATL@@QEAA_JI_K_JAEAH@Z 0000000180009ac8 f i CashDrawer.obj
 0001:00008bc4       ?Open@CRegKey@ATL@@QEAAJPEAUHKEY__@@PEB_WK@Z 0000000180009bc4 f i CashDrawer.obj
 0001:00008c50       ?PreProcessBuffer@CRegParser@ATL@@QEAAJPEA_WPEAPEA_W@Z 0000000180009c50 f i CashDrawer.obj
 0001:00008fd4       ?ProcessWindowMessage@?$CComControl@VCOPOSCashDrawer@@V?$CWindowImpl@VCOPOSCashDrawer@@VCWindow@ATL@@V?$CWinTraits@$0FGAAAAAA@$0A@@3@@ATL@@@ATL@@UEAAHPEAUHWND__@@I_K_JAEA_JK@Z 0000000180009fd4 f i CashDrawer.obj
 0001:000090b8       ?PutProperty@?$CComPtr@UIDispatch@@@ATL@@SAJPEAUIDispatch@@JPEAUtagVARIANT@@@Z 000000018000a0b8 f i CashDrawer.obj
 0001:000091bc       ?ReadFromStream@CComBSTR@ATL@@QEAAJPEAUIStream@@@Z 000000018000a1bc f i CashDrawer.obj
 0001:00009318       ?ReadFromStream@CComVariant@ATL@@QEAAJPEAUIStream@@GTClassesAllowedInStream@2@K@Z 000000018000a318 f i CashDrawer.obj
 0001:00009528       ?RecurseDeleteKey@CRegKey@ATL@@QEAAJPEB_W@Z 000000018000a528 f i CashDrawer.obj
 0001:00009634       ?RegCreateKeyExW@CAtlTransactionManager@ATL@@QEAAJPEAUHKEY__@@PEB_WKPEA_WKKQEAU_SECURITY_ATTRIBUTES@@PEAPEAU3@PEAK@Z 000000018000a634 f i CashDrawer.obj
 0001:00009768       ?RegDeleteKeyW@CAtlTransactionManager@ATL@@QEAAJPEAUHKEY__@@PEB_W@Z 000000018000a768 f i CashDrawer.obj
 0001:000097f4       ?RegOpenKeyExW@CAtlTransactionManager@ATL@@QEAAJPEAUHKEY__@@PEB_WKKPEAPEAU3@@Z 000000018000a7f4 f i CashDrawer.obj
 0001:000098ac       ?RegisterBuffer@CRegParser@ATL@@QEAAJPEA_WH@Z 000000018000a8ac f i CashDrawer.obj
 0001:00009a14       ?RegisterFromResource@CRegObject@ATL@@IEAAJPEB_W00H@Z 000000018000aa14 f i CashDrawer.obj
 0001:00009bd0       ?RegisterServer@CComModule@ATL@@QEAAJHPEBU_GUID@@@Z 000000018000abd0 f i CashDrawer.obj
 0001:00009c90       ?RegisterSubkeys@CRegParser@ATL@@IEAAJPEA_WPEAUHKEY__@@HH@Z 000000018000ac90 f i CashDrawer.obj
 0001:0000a384       ?SendOnDataChange@CComControlBase@ATL@@QEAAJK@Z 000000018000b384 f i CashDrawer.obj
 0001:0000a3f4       ?SetControlFocus@CComControlBase@ATL@@QEAAHH@Z 000000018000b3f4 f i CashDrawer.obj
 0001:0000a4d0       ?SkipAssignment@CRegParser@ATL@@IEAAJPEA_W@Z 000000018000b4d0 f i CashDrawer.obj
 0001:0000a574       ?Term@CComModule@ATL@@QEAAXXZ 000000018000b574 f i CashDrawer.obj
 0001:0000a620       ?UnregisterServer@CComModule@ATL@@QEAAJHPEBU_GUID@@@Z 000000018000b620 f i CashDrawer.obj
 0001:0000a6d0       ?UpdateRegistryFromResource@CAtlModule@ATL@@QEAAJIHPEAU_ATL_REGMAP_ENTRY@2@@Z 000000018000b6d0 f i CashDrawer.obj
 0001:0000aa08       ?UpdateRegistryFromResource@CAtlModule@ATL@@QEAAJPEB_WHPEAU_ATL_REGMAP_ENTRY@2@@Z 000000018000ba08 f i CashDrawer.obj
 0001:0000ad60       ?VTFromRegType@CRegParser@ATL@@KAHPEB_WAEAG@Z 000000018000bd60 f i CashDrawer.obj
 0001:0000adfc       ?WindowProc@?$CWindowImplBaseT@VCWindow@ATL@@V?$CWinTraits@$0FGAAAAAA@$0A@@2@@ATL@@SA_JPEAUHWND__@@I_K_J@Z 000000018000bdfc f i CashDrawer.obj
 0001:0000af68       ?WriteToStream@CComBSTR@ATL@@QEAAJPEAUIStream@@@Z 000000018000bf68 f i CashDrawer.obj
 0001:0000afe8       ?WriteToStream@CComVariant@ATL@@QEAAJPEAUIStream@@@Z 000000018000bfe8 f i CashDrawer.obj
 0001:0000b1fc       ?WriteToStream@CComVariant@ATL@@QEAAJPEAUIStream@@G@Z 000000018000c1fc f i CashDrawer.obj
 0001:0000b294       ?_AtlVerifyStackAvailable@_ATL_SAFE_ALLOCA_IMPL@ATL@@YA_N_K@Z 000000018000c294 f i CashDrawer.obj
 0001:0000b318       ?atlCreate@?$CWindowImpl@VCOPOSCashDrawer@@VCWindow@ATL@@V?$CWinTraits@$0FGAAAAAA@$0A@@3@@ATL@@QEAAPEAUHWND__@@PEAU3@V_U_RECT@2@PEB_WKKV_U_MENUorID@2@PEAX@Z 000000018000c318 f i CashDrawer.obj
 0001:0000b3c8       ?atlCreate@?$CWindowImplBaseT@VCWindow@ATL@@V?$CWinTraits@$0FGAAAAAA@$0A@@2@@ATL@@QEAAPEAUHWND__@@PEAU3@V_U_RECT@2@PEB_WKKV_U_MENUorID@2@GPEAX@Z 000000018000c3c8 f i CashDrawer.obj
 0001:0000b538       ?atlCreate@CRegKey@ATL@@QEAAJPEAUHKEY__@@PEB_WPEA_WKKPEAU_SECURITY_ATTRIBUTES@@PEAK@Z 000000018000c538 f i CashDrawer.obj
 0001:0000b624       DllCanUnloadNow            000000018000c624 f   CashDrawer.obj
 0001:0000b630       DllGetClassObject          000000018000c630 f   CashDrawer.obj
 0001:0000b648       DllMain                    000000018000c648 f   CashDrawer.obj
 0001:0000b6f0       DllRegisterServer          000000018000c6f0 f   CashDrawer.obj
 0001:0000b704       DllUnregisterServer        000000018000c704 f   CashDrawer.obj
 0001:0000b718       __local_stdio_printf_options 000000018000c718 f i CashDrawer.obj
 0001:0000b7a8       swprintf_s                 000000018000c7a8 f i CashDrawer.obj
 0001:0000b7fc       ??0COPOSCashDrawer@@QEAA@XZ 000000018000c7fc f   CashDrawerImpl.obj
 0001:0000b8b8       ??1?$IConnectionPointImpl@VCOPOSCashDrawer@@$1?DIID__IOPOSCashDrawerEvents@@3U_GUID@@BVCComDynamicUnkArray@ATL@@@ATL@@QEAA@XZ 000000018000c8b8 f i CashDrawerImpl.obj
 0001:0000b8b8       ??1?$IConnectionPointImpl@VCOPOSCashDrawer@@$1?IID_IPropertyNotifySink@@3U_GUID@@BVCComDynamicUnkArray@ATL@@@ATL@@QEAA@XZ 000000018000c8b8 f i CashDrawerImpl.obj
 0001:0000b914       ??1CComControlBase@ATL@@UEAA@XZ 000000018000c914 f i CashDrawerImpl.obj
 0001:0000b990       ??1COPOSCashDrawer@@UEAA@XZ 000000018000c990 f   CashDrawerImpl.obj
 0001:0000b9f4       ?CheckHealth@COPOSCashDrawer@@UEAAJJPEAJ@Z 000000018000c9f4 f   CashDrawerImpl.obj
 0001:0000ba70       ?ClaimDevice@COPOSCashDrawer@@UEAAJJPEAJ@Z 000000018000ca70 f   CashDrawerImpl.obj
 0001:0000bb08       ?Close@COPOSCashDrawer@@UEAAJPEAJ@Z 000000018000cb08 f   CashDrawerImpl.obj
 0001:0000bbc0       ?CompareFirmwareVersion@COPOSCashDrawer@@UEAAJPEA_WPEAJ1@Z 000000018000cbc0 f   CashDrawerImpl.obj
 0001:0000bc9c       ?DirectIO@COPOSCashDrawer@@UEAAJJPEAJPEAPEA_W0@Z 000000018000cc9c f   CashDrawerImpl.obj
 0001:0000bd98       ?DoInvoke@COPOSCashDrawer@@IEAAJJPEAVOposVariant@@IHPEAJ_N@Z 000000018000cd98 f   CashDrawerImpl.obj
 0001:0000becc       ?EventInit@COPOSCashDrawer@@IEAAJXZ 000000018000cecc f i CashDrawerImpl.obj
 0001:0000c014       ?EventUninit@COPOSCashDrawer@@IEAAXXZ 000000018000d014 f i CashDrawerImpl.obj
 0001:0000c078       ?EventWindowProc@COPOSCashDrawer@@IEAA_JI_K_J@Z 000000018000d078 f i CashDrawerImpl.obj
 0001:0000c170       ?FinalConstruct@COPOSCashDrawer@@QEAAJXZ 000000018000d170 f   CashDrawerImpl.obj
 0001:0000c1ac       ?FreezeEvents@COPOSCashDrawer@@MEAAJH@Z 000000018000d1ac f   CashDrawerImpl.obj
 0001:0000c220       ?GetOposProp@COPOSCashDrawer@@IEAAJJPEAJJ@Z 000000018000d220 f   CashDrawerImpl.obj
 0001:0000c33c       ?GetOposProp@COPOSCashDrawer@@IEAAJJPEAPEA_WJ@Z 000000018000d33c f   CashDrawerImpl.obj
 0001:0000c468       ?OnDraw@COPOSCashDrawer@@MEAAJAEAUATL_DRAWINFO@@@Z 000000018000d468 f   CashDrawerImpl.obj
 0001:0000c554       ?Open@COPOSCashDrawer@@UEAAJPEA_WPEAJ@Z 000000018000d554 f   CashDrawerImpl.obj
 0001:0000cddc       ?OpenDrawer@COPOSCashDrawer@@UEAAJPEAJ@Z 000000018000dddc f   CashDrawerImpl.obj
 0001:0000ce04       ?ReleaseDevice@COPOSCashDrawer@@UEAAJPEAJ@Z 000000018000de04 f   CashDrawerImpl.obj
 0001:0000ce48       ?ResetStatistics@COPOSCashDrawer@@UEAAJPEA_WPEAJ@Z 000000018000de48 f   CashDrawerImpl.obj
 0001:0000ced0       ?RetrieveStatistics@COPOSCashDrawer@@UEAAJPEAPEA_WPEAJ@Z 000000018000ded0 f   CashDrawerImpl.obj
 0001:0000cf58       ?SOProcessID@COPOSCashDrawer@@UEAAJPEAJ@Z 000000018000df58 f   CashDrawerImpl.obj
 0001:0000cf74       ?SetCOFreezeEvents@COPOSCashDrawer@@IEAAXF@Z 000000018000df74 f   CashDrawerImpl.obj
 0001:0000d058       ?SetOposProp@COPOSCashDrawer@@IEAAJJJJ@Z 000000018000e058 f   CashDrawerImpl.obj
 0001:0000d1b8       ?UpdateFirmware@COPOSCashDrawer@@UEAAJPEA_WPEAJ@Z 000000018000e1b8 f   CashDrawerImpl.obj
 0001:0000d240       ?UpdateStatistics@COPOSCashDrawer@@UEAAJPEA_WPEAJ@Z 000000018000e240 f   CashDrawerImpl.obj
 0001:0000d2c8       ?WaitForDrawerClose@COPOSCashDrawer@@UEAAJJJJJPEAJ@Z 000000018000e2c8 f   CashDrawerImpl.obj
 0001:0000d3c4       ?get_BinaryConversion@COPOSCashDrawer@@UEAAJPEAJ@Z 000000018000e3c4 f   CashDrawerImpl.obj
 0001:0000d3d8       ?get_CapCompareFirmwareVersion@COPOSCashDrawer@@UEAAJPEAF@Z 000000018000e3d8 f   CashDrawerImpl.obj
 0001:0000d40c       ?get_CapPowerReporting@COPOSCashDrawer@@UEAAJPEAJ@Z 000000018000e40c f   CashDrawerImpl.obj
 0001:0000d420       ?get_CapStatisticsReporting@COPOSCashDrawer@@UEAAJPEAF@Z 000000018000e420 f   CashDrawerImpl.obj
 0001:0000d454       ?get_CapStatus@COPOSCashDrawer@@UEAAJPEAF@Z 000000018000e454 f   CashDrawerImpl.obj
 0001:0000d484       ?get_CapStatusMultiDrawerDetect@COPOSCashDrawer@@UEAAJPEAF@Z 000000018000e484 f   CashDrawerImpl.obj
 0001:0000d4b8       ?get_CapUpdateFirmware@COPOSCashDrawer@@UEAAJPEAF@Z 000000018000e4b8 f   CashDrawerImpl.obj
 0001:0000d4ec       ?get_CapUpdateStatistics@COPOSCashDrawer@@UEAAJPEAF@Z 000000018000e4ec f   CashDrawerImpl.obj
 0001:0000d520       ?get_CheckHealthText@COPOSCashDrawer@@UEAAJPEAPEA_W@Z 000000018000e520 f   CashDrawerImpl.obj
 0001:0000d530       ?get_Claimed@COPOSCashDrawer@@UEAAJPEAF@Z 000000018000e530 f   CashDrawerImpl.obj
 0001:0000d560       ?get_ControlObjectDescription@COPOSCashDrawer@@UEAAJPEAPEA_W@Z 000000018000e560 f   CashDrawerImpl.obj
 0001:0000d5c4       ?get_ControlObjectVersion@COPOSCashDrawer@@UEAAJPEAJ@Z 000000018000e5c4 f   CashDrawerImpl.obj
 0001:0000d5d0       ?get_DeviceDescription@COPOSCashDrawer@@UEAAJPEAPEA_W@Z 000000018000e5d0 f   CashDrawerImpl.obj
 0001:0000d5e0       ?get_DeviceEnabled@COPOSCashDrawer@@UEAAJPEAF@Z 000000018000e5e0 f   CashDrawerImpl.obj
 0001:0000d610       ?get_DeviceName@COPOSCashDrawer@@UEAAJPEAPEA_W@Z 000000018000e610 f   CashDrawerImpl.obj
 0001:0000d620       ?get_DrawerOpened@COPOSCashDrawer@@UEAAJPEAF@Z 000000018000e620 f   CashDrawerImpl.obj
 0001:0000d650       ?get_FreezeEvents@COPOSCashDrawer@@UEAAJPEAF@Z 000000018000e650 f   CashDrawerImpl.obj
 0001:0000d680       ?get_OpenResult@COPOSCashDrawer@@UEAAJPEAJ@Z 000000018000e680 f   CashDrawerImpl.obj
 0001:0000d68c       ?get_PowerNotify@COPOSCashDrawer@@UEAAJPEAJ@Z 000000018000e68c f   CashDrawerImpl.obj
 0001:0000d6a0       ?get_PowerState@COPOSCashDrawer@@UEAAJPEAJ@Z 000000018000e6a0 f   CashDrawerImpl.obj
 0001:0000d6b4       ?get_ResultCode@COPOSCashDrawer@@UEAAJPEAJ@Z 000000018000e6b4 f   CashDrawerImpl.obj
 0001:0000d6f0       ?get_ResultCodeExtended@COPOSCashDrawer@@UEAAJPEAJ@Z 000000018000e6f0 f   CashDrawerImpl.obj
 0001:0000d700       ?get_ServiceObjectDescription@COPOSCashDrawer@@UEAAJPEAPEA_W@Z 000000018000e700 f   CashDrawerImpl.obj
 0001:0000d710       ?get_ServiceObjectVersion@COPOSCashDrawer@@UEAAJPEAJ@Z 000000018000e710 f   CashDrawerImpl.obj
 0001:0000d720       ?get_State@COPOSCashDrawer@@UEAAJPEAJ@Z 000000018000e720 f   CashDrawerImpl.obj
 0001:0000d74c       ?put_BinaryConversion@COPOSCashDrawer@@UEAAJJ@Z 000000018000e74c f   CashDrawerImpl.obj
 0001:0000d760       ?put_DeviceEnabled@COPOSCashDrawer@@UEAAJF@Z 000000018000e760 f   CashDrawerImpl.obj
 0001:0000d778       ?put_FreezeEvents@COPOSCashDrawer@@UEAAJF@Z 000000018000e778 f   CashDrawerImpl.obj
 0001:0000d7c8       ?put_PowerNotify@COPOSCashDrawer@@UEAAJJ@Z 000000018000e7c8 f   CashDrawerImpl.obj
 0001:0000d7dc       ?s_EventWindowProc@COPOSCashDrawer@@KA_JPEAUHWND__@@I_K_J@Z 000000018000e7dc f i CashDrawerImpl.obj
 0001:0000d858       ??_U@YAPEAX_K@Z            000000018000e858 f   LIBCMT:new_array.obj
 0001:0000d860       ??3@YAXPEAX_K@Z            000000018000e860 f   LIBCMT:delete_scalar_size.obj
 0001:0000d860       ??_V@YAXPEAX@Z             000000018000e860 f   LIBCMT:delete_array.obj
 0001:0000d868       ??_V@YAXPEAX_K@Z           000000018000e868 f   LIBCMT:delete_array_size.obj
 0001:0000d870       __scrt_acquire_startup_lock 000000018000e870 f   LIBCMT:utility.obj
 0001:0000d8ac       __scrt_dllmain_after_initialize_c 000000018000e8ac f   LIBCMT:utility.obj
 0001:0000d8e0       __scrt_dllmain_before_initialize_c 000000018000e8e0 f   LIBCMT:utility.obj
 0001:0000d8f8       __scrt_dllmain_crt_thread_attach 000000018000e8f8 f   LIBCMT:utility.obj
 0001:0000d920       __scrt_dllmain_crt_thread_detach 000000018000e920 f   LIBCMT:utility.obj
 0001:0000d938       __scrt_dllmain_exception_filter 000000018000e938 f   LIBCMT:utility.obj
 0001:0000d998       __scrt_dllmain_uninitialize_c 000000018000e998 f   LIBCMT:utility.obj
 0001:0000d9c8       __scrt_dllmain_uninitialize_critical 000000018000e9c8 f   LIBCMT:utility.obj
 0001:0000d9dc       __scrt_initialize_crt      000000018000e9dc f   LIBCMT:utility.obj
 0001:0000da28       __scrt_initialize_onexit_tables 000000018000ea28 f   LIBCMT:utility.obj
 0001:0000dab4       __scrt_is_nonwritable_in_current_image 000000018000eab4 f   LIBCMT:utility.obj
 0001:0000db4c       __scrt_release_startup_lock 000000018000eb4c f   LIBCMT:utility.obj
 0001:0000db70       __scrt_uninitialize_crt    000000018000eb70 f   LIBCMT:utility.obj
 0001:0000db9c       _onexit                    000000018000eb9c f   LIBCMT:utility.obj
 0001:0000dbd8       atexit                     000000018000ebd8 f   LIBCMT:utility.obj
 0001:0000dbf0       ??3@YAXPEAX@Z              000000018000ebf0 f   LIBCMT:delete_scalar.obj
 0001:0000dcf0       _Init_thread_footer        000000018000ecf0 f   LIBCMT:thread_safe_statics.obj
 0001:0000dd50       _Init_thread_header        000000018000ed50 f   LIBCMT:thread_safe_statics.obj
 0001:0000ddb8       _Init_thread_notify        000000018000edb8 f   LIBCMT:thread_safe_statics.obj
 0001:0000ddfc       _Init_thread_wait          000000018000edfc f   LIBCMT:thread_safe_statics.obj
 0001:0000de60       __raise_securityfailure    000000018000ee60 f   LIBCMT:gs_report.obj
 0001:0000de94       __report_gsfailure         000000018000ee94 f   LIBCMT:gs_report.obj
 0001:0000df68       __report_rangecheckfailure 000000018000ef68 f   LIBCMT:gs_report.obj
 0001:0000df7c       __report_securityfailure   000000018000ef7c f   LIBCMT:gs_report.obj
 0001:0000e0fc       ??2@YAPEAX_KAEBUnothrow_t@std@@@Z 000000018000f0fc f   LIBCMT:new_scalar_nothrow.obj
 0001:0000e11c       ??_U@YAPEAX_KAEBUnothrow_t@std@@@Z 000000018000f11c f   LIBCMT:new_array_nothrow.obj
 0001:0000e124       __GSHandlerCheck           000000018000f124 f   LIBCMT:gshandler.obj
 0001:0000e144       __GSHandlerCheckCommon     000000018000f144 f   LIBCMT:gshandler.obj
 0001:0000e1a0       __GSHandlerCheck_SEH       000000018000f1a0 f   LIBCMT:gshandlerseh.obj
 0001:0000e240       __chkstk                   000000018000f240 f   LIBCMT:chkstk.obj
 0001:0000e240       _alloca_probe              000000018000f240 f   LIBCMT:chkstk.obj
 0001:0000e2b0       __security_check_cookie    000000018000f2b0 f   LIBCMT:amdsecgs.obj
 0001:0000e5f4       _DllMainCRTStartup         000000018000f5f4 f   LIBCMT:dll_dllmain.obj
 0001:0000e634       ??2@YAPEAX_K@Z             000000018000f634 f   LIBCMT:new_scalar.obj
 0001:0000e670       __isa_available_init       000000018000f670 f   LIBCMT:cpu_disp.obj
 0001:0000e7ec       __scrt_is_ucrt_dll_in_use  000000018000f7ec f   LIBCMT:ucrt_detection.obj
 0001:0000e7f8       __crt_debugger_hook        000000018000f7f8 f   LIBCMT:utility_desktop.obj
 0001:0000e800       __scrt_fastfail            000000018000f800 f   LIBCMT:utility_desktop.obj
 0001:0000e94c       __security_init_cookie     000000018000f94c f   LIBCMT:gs_support.obj
 0001:0000e9f8       ?__scrt_initialize_type_info@@YAXXZ 000000018000f9f8 f   LIBCMT:tncleanup.obj
 0001:0000ea08       ?__scrt_uninitialize_type_info@@YAXXZ 000000018000fa08 f   LIBCMT:tncleanup.obj
 0001:0000ea14       __local_stdio_scanf_options 000000018000fa14 f i LIBCMT:default_local_stdio_options.obj
 0001:0000ea1c       __scrt_initialize_default_local_stdio_options 000000018000fa1c f   LIBCMT:default_local_stdio_options.obj
 0001:0000ea38       __scrt_get_dyn_tls_init_callback 000000018000fa38 f   LIBCMT:dyn_tls_init.obj
 0001:0000ea40       _RTC_Initialize            000000018000fa40 f   LIBCMT:initsect.obj
 0001:0000ea7c       _RTC_Terminate             000000018000fa7c f   LIBCMT:initsect.obj
 0001:0000eab8       ??0bad_alloc@std@@QEAA@AEBV01@@Z 000000018000fab8 f i LIBCMT:throw_bad_alloc.obj
 0001:0000eaf4       ??0bad_alloc@std@@QEAA@XZ  000000018000faf4 f i LIBCMT:throw_bad_alloc.obj
 0001:0000eb14       ??0bad_array_new_length@std@@QEAA@AEBV01@@Z 000000018000fb14 f i LIBCMT:throw_bad_alloc.obj
 0001:0000eb50       ??0bad_array_new_length@std@@QEAA@XZ 000000018000fb50 f i LIBCMT:throw_bad_alloc.obj
 0001:0000eb70       ??0exception@std@@QEAA@AEBV01@@Z 000000018000fb70 f i LIBCMT:throw_bad_alloc.obj
 0001:0000eba4       ??1bad_exception@std@@UEAA@XZ 000000018000fba4 f i libvcruntime:frame.obj
 0001:0000eba4       ??1bad_alloc@std@@UEAA@XZ  000000018000fba4 f i LIBCMT:throw_bad_alloc.obj
 0001:0000eba4       ??1bad_array_new_length@std@@UEAA@XZ 000000018000fba4 f i LIBCMT:throw_bad_alloc.obj
 0001:0000ebb8       ??_Gbad_exception@std@@UEAAPEAXI@Z 000000018000fbb8 f i libvcruntime:frame.obj
 0001:0000ebb8       ??_Eexception@std@@UEAAPEAXI@Z 000000018000fbb8 f i LIBCMT:throw_bad_alloc.obj
 0001:0000ebb8       ??_Ebad_exception@std@@UEAAPEAXI@Z 000000018000fbb8 f i libvcruntime:frame.obj
 0001:0000ebb8       ??_Gbad_array_new_length@std@@UEAAPEAXI@Z 000000018000fbb8 f i LIBCMT:throw_bad_alloc.obj
 0001:0000ebb8       ??_Gbad_alloc@std@@UEAAPEAXI@Z 000000018000fbb8 f i LIBCMT:throw_bad_alloc.obj
 0001:0000ebb8       ??_Gexception@std@@UEAAPEAXI@Z 000000018000fbb8 f i LIBCMT:throw_bad_alloc.obj
 0001:0000ebb8       ??_Ebad_array_new_length@std@@UEAAPEAXI@Z 000000018000fbb8 f i LIBCMT:throw_bad_alloc.obj
 0001:0000ebb8       ??_Ebad_alloc@std@@UEAAPEAXI@Z 000000018000fbb8 f i LIBCMT:throw_bad_alloc.obj
 0001:0000ebfc       ?__scrt_throw_std_bad_alloc@@YAXXZ 000000018000fbfc f   LIBCMT:throw_bad_alloc.obj
 0001:0000ec1c       ?__scrt_throw_std_bad_array_new_length@@YAXXZ 000000018000fc1c f   LIBCMT:throw_bad_alloc.obj
 0001:0000ec3c       ?what@exception@std@@UEBAPEBDXZ 000000018000fc3c f i LIBCMT:throw_bad_alloc.obj
 0001:0000ec50       ??_Gtype_info@@UEAAPEAXI@Z 000000018000fc50 f i LIBCMT:std_type_info_static.obj
 0001:0000ec50       ??_Etype_info@@UEAAPEAXI@Z 000000018000fc50 f i LIBCMT:std_type_info_static.obj
 0001:0000ec7c       ??0CAtlBaseModule@ATL@@QEAA@XZ 000000018000fc7c f   atls:atlbase.obj
 0001:0000ed24       ??1CAtlBaseModule@ATL@@QEAA@XZ 000000018000fd24 f   atls:atlbase.obj
 0001:0000ee58       ?__AllocStdCallThunk_cmn@@YAPEAXXZ 000000018000fe58 f   atls:atlthunk.obj
 0001:0000efb0       AtlThunk_AllocateData      000000018000ffb0 f   atls:atlthunk.obj
 0001:0000f02c       AtlThunk_DataToCode        000000018001002c f   atls:atlthunk.obj
 0001:0000f080       AtlThunk_FreeData          0000000180010080 f   atls:atlthunk.obj
 0001:0000f0e0       AtlThunk_InitData          00000001800100e0 f   atls:atlthunk.obj
 0001:0000f188       _purecall                  0000000180010188 f   libvcruntime:purevirt.obj
 0001:0000f1a4       wcsstr                     00000001800101a4 f   libvcruntime:wcsstr.obj
 0001:0000f3d0       memcmp                     00000001800103d0 f   libvcruntime:memcmp.obj
 0001:0000f4b0       memcpy_repmovs             00000001800104b0 f   libvcruntime:memcpy.obj
 0001:0000f4d0       memcpy                     00000001800104d0 f   libvcruntime:memcpy.obj
 0001:0000f4d0       memmove                    00000001800104d0 f   libvcruntime:memcpy.obj
 0001:0000f8c0       memset_repmovs             00000001800108c0 f   libvcruntime:memset.obj
 0001:0000f8e0       memset                     00000001800108e0 f   libvcruntime:memset.obj
 0001:0000fa70       __vcrt_initialize          0000000180010a70 f   libvcruntime:initialization.obj
 0001:0000fa98       __vcrt_thread_attach       0000000180010a98 f   libvcruntime:initialization.obj
 0001:0000faac       __vcrt_thread_detach       0000000180010aac f   libvcruntime:initialization.obj
 0001:0000fac0       __vcrt_uninitialize        0000000180010ac0 f   libvcruntime:initialization.obj
 0001:0000fadc       __vcrt_uninitialize_critical 0000000180010adc f   libvcruntime:initialization.obj
 0001:0000faec       __C_specific_handler       0000000180010aec f   libvcruntime:riscchandler.obj
 0001:0000fcf8       ??$_CallSETranslator@V__FrameHandler3@@@@YAHPEAUEHExceptionRecord@@PEA_KPEAU_CONTEXT@@PEAU_xDISPATCHER_CONTEXT@@PEBU_s_FuncInfo@@K1@Z 0000000180010cf8 f i libvcruntime:risctrnsctrl.obj
 0001:0000fd4c       ?CatchTryBlock@__FrameHandler3@@SAPEBU_s_TryBlockMapEntry@@PEBU_s_FuncInfo@@H@Z 0000000180010d4c f   libvcruntime:risctrnsctrl.obj
 0001:0000fda0       ?ExecutionInCatch@__FrameHandler3@@SA_NPEAU_xDISPATCHER_CONTEXT@@PEBU_s_FuncInfo@@@Z 0000000180010da0 f   libvcruntime:risctrnsctrl.obj
 0001:0000fdcc       ?FrameUnwindToEmptyState@__FrameHandler3@@SAXPEA_KPEAU_xDISPATCHER_CONTEXT@@PEBU_s_FuncInfo@@@Z 0000000180010dcc f   libvcruntime:risctrnsctrl.obj
 0001:0000fe30       ?GetEstablisherFrame@__FrameHandler3@@SAPEA_KPEA_KPEAU_xDISPATCHER_CONTEXT@@PEBU_s_FuncInfo@@0@Z 0000000180010e30 f   libvcruntime:risctrnsctrl.obj
 0001:0000fefc       ?GetRangeOfTrysToCheck@__FrameHandler3@@SA?AU?$pair@Viterator@TryBlockMap@__FrameHandler3@@V123@@std@@AEAVTryBlockMap@1@HPEAU_xDISPATCHER_CONTEXT@@PEBU_s_FuncInfo@@H@Z 0000000180010efc f   libvcruntime:risctrnsctrl.obj
 0001:0001003c       ?UnwindNestedFrames@__FrameHandler3@@SAXPEA_KPEAUEHExceptionRecord@@PEAU_CONTEXT@@0PEAXPEBU_s_FuncInfo@@HHPEBU_s_HandlerType@@PEAU_xDISPATCHER_CONTEXT@@E@Z 000000018001103c f   libvcruntime:risctrnsctrl.obj
 0001:00010160       _CreateFrameInfo           0000000180011160 f   libvcruntime:risctrnsctrl.obj
 0001:0001019c       _FindAndUnlinkFrame        000000018001119c f   libvcruntime:risctrnsctrl.obj
 0001:000101f0       _GetImageBase              00000001800111f0 f   libvcruntime:risctrnsctrl.obj
 0001:00010204       _GetThrowImageBase         0000000180011204 f   libvcruntime:risctrnsctrl.obj
 0001:00010218       _SetImageBase              0000000180011218 f   libvcruntime:risctrnsctrl.obj
 0001:00010230       _SetThrowImageBase         0000000180011230 f   libvcruntime:risctrnsctrl.obj
 0001:00010248       __CxxFrameHandler3         0000000180011248 f   libvcruntime:risctrnsctrl.obj
 0001:000102d0       __std_type_info_compare    00000001800112d0 f   libvcruntime:std_type_info.obj
 0001:000102f8       __std_type_info_destroy_list 00000001800112f8 f   libvcruntime:std_type_info.obj
 0001:00010324       __std_exception_copy       0000000180011324 f   libvcruntime:std_exception.obj
 0001:000103b4       __std_exception_destroy    00000001800113b4 f   libvcruntime:std_exception.obj
 0001:000103dc       _CxxThrowException         00000001800113dc f   libvcruntime:throw.obj
 0001:0001049c       __vcrt_freefls             000000018001149c f   libvcruntime:per_thread_data.obj
 0001:000104bc       __vcrt_freeptd             00000001800114bc f   libvcruntime:per_thread_data.obj
 0001:0001050c       __vcrt_getptd              000000018001150c f   libvcruntime:per_thread_data.obj
 0001:00010528       __vcrt_getptd_noexit       0000000180011528 f   libvcruntime:per_thread_data.obj
 0001:000105e8       __vcrt_initialize_ptd      00000001800115e8 f   libvcruntime:per_thread_data.obj
 0001:00010630       __vcrt_uninitialize_ptd    0000000180011630 f   libvcruntime:per_thread_data.obj
 0001:00010654       __vcrt_initialize_locks    0000000180011654 f   libvcruntime:locks.obj
 0001:00010688       __vcrt_uninitialize_locks  0000000180011688 f   libvcruntime:locks.obj
 0001:000106d0       _NLG_Notify                00000001800116d0 f   libvcruntime:notify.obj
 0001:000106f0       __NLG_Dispatch2            00000001800116f0 f   libvcruntime:notify.obj
 0001:00010700       __NLG_Return2              0000000180011700 f   libvcruntime:notify.obj
 0001:00010704       __except_validate_context_record 0000000180011704 f   libvcruntime:jbcxrval.obj
 0001:0001073c       __DestructExceptionObject  000000018001173c f   libvcruntime:ehhelpers.obj
 0001:000107b0       ?_CallMemberFunction0@@YAXQEAX0@Z 00000001800117b0 f i libvcruntime:ehhelpers.obj
 0001:000107b4       _IsExceptionObjectToBeDestroyed 00000001800117b4 f   libvcruntime:ehhelpers.obj
 0001:000107e4       __AdjustPointer            00000001800117e4 f   libvcruntime:ehhelpers.obj
 0001:00010808       __FrameUnwindFilter        0000000180011808 f   libvcruntime:ehhelpers.obj
 0001:00010854       ?GetCurrentState@__FrameHandler3@@SAHPEA_KPEAU_xDISPATCHER_CONTEXT@@PEBU_s_FuncInfo@@@Z 0000000180011854 f   libvcruntime:ehstate.obj
 0001:0001087c       ?GetUnwindTryBlock@__FrameHandler3@@SAHPEA_KPEAU_xDISPATCHER_CONTEXT@@PEBU_s_FuncInfo@@@Z 000000018001187c f   libvcruntime:ehstate.obj
 0001:000108a8       ?SetState@__FrameHandler3@@SAXPEA_KPEBU_s_FuncInfo@@H@Z 00000001800118a8 f   libvcruntime:ehstate.obj
 0001:000108b4       ?SetUnwindTryBlock@__FrameHandler3@@SAXPEA_KPEAU_xDISPATCHER_CONTEXT@@PEBU_s_FuncInfo@@H@Z 00000001800118b4 f   libvcruntime:ehstate.obj
 0001:000108f0       ?StateFromControlPc@__FrameHandler3@@SAHPEBU_s_FuncInfo@@PEAU_xDISPATCHER_CONTEXT@@@Z 00000001800118f0 f   libvcruntime:ehstate.obj
 0001:000108f8       ?StateFromIp@__FrameHandler3@@SAHPEBU_s_FuncInfo@@PEAU_xDISPATCHER_CONTEXT@@_K@Z 00000001800118f8 f   libvcruntime:ehstate.obj
 0001:000113e4       ??$TypeMatchHelper@V__FrameHandler3@@@@YAHPEBU_s_HandlerType@@PEBU_s_CatchableType@@PEBU_s_ThrowInfo@@@Z 00000001800123e4 f i libvcruntime:frame.obj
 0001:00011528       ??$__InternalCxxFrameHandler@V__FrameHandler3@@@@YA?AW4_EXCEPTION_DISPOSITION@@PEAUEHExceptionRecord@@PEA_KPEAU_CONTEXT@@PEAU_xDISPATCHER_CONTEXT@@PEBU_s_FuncInfo@@H1E@Z 0000000180012528 f i libvcruntime:frame.obj
 0001:00011770       ??0bad_exception@std@@QEAA@AEBV01@@Z 0000000180012770 f i libvcruntime:frame.obj
 0001:000117ac       ??0bad_exception@std@@QEAA@XZ 00000001800127ac f i libvcruntime:frame.obj
 0001:000117cc       ?CxxCallCatchBlock@__FrameHandler3@@SAPEAXPEAU_EXCEPTION_RECORD@@@Z 00000001800127cc f   libvcruntime:frame.obj
 0001:00011a40       ?FrameUnwindToState@__FrameHandler3@@SAXPEA_KPEAU_xDISPATCHER_CONTEXT@@PEBU_s_FuncInfo@@H@Z 0000000180012a40 f   libvcruntime:frame.obj
 0001:00011bcc       ?GetHandlerSearchState@__FrameHandler3@@SAHPEA_KPEAU_xDISPATCHER_CONTEXT@@PEBU_s_FuncInfo@@@Z 0000000180012bcc f i libvcruntime:frame.obj
 0001:00011ddc       ?_CallMemberFunction1@@YAXQEAX00@Z 0000000180012ddc f i libvcruntime:frame.obj
 0001:00011de8       ?_CallMemberFunction2@@YAXQEAX00H@Z 0000000180012de8 f i libvcruntime:frame.obj
 0001:00011f54       __vcrt_FlsAlloc            0000000180012f54 f   libvcruntime:winapi_downlevel.obj
 0001:00011f9c       __vcrt_FlsFree             0000000180012f9c f   libvcruntime:winapi_downlevel.obj
 0001:00011fe4       __vcrt_FlsGetValue         0000000180012fe4 f   libvcruntime:winapi_downlevel.obj
 0001:0001202c       __vcrt_FlsSetValue         000000018001302c f   libvcruntime:winapi_downlevel.obj
 0001:00012080       __vcrt_InitializeCriticalSectionEx 0000000180013080 f   libvcruntime:winapi_downlevel.obj
 0001:00012100       _CallSettingFrame          0000000180013100 f   libvcruntime:handlers.obj
 0001:00012150       _CallSettingFrame_LookupContinuationIndex 0000000180013150 f   libvcruntime:handlers.obj
 0001:00012180       _CallSettingFrame_NotifyContinuationAddr 0000000180013180 f   libvcruntime:handlers.obj
 0001:000121b0       _CallSettingFrameEncoded   00000001800131b0 f   libvcruntime:handlers.obj
 0001:000121f8       free                       00000001800131f8 f   libucrt:free.obj
 0001:0001220c       __acrt_call_reportfault    000000018001320c f   libucrt:invalid_parameter.obj
 0001:00012368       __acrt_initialize_invalid_parameter_handler 0000000180013368 f   libucrt:invalid_parameter.obj
 0001:00012370       _invalid_parameter         0000000180013370 f   libucrt:invalid_parameter.obj
 0001:00012420       _invalid_parameter_noinfo  0000000180013420 f   libucrt:invalid_parameter.obj
 0001:00012440       _invoke_watson             0000000180013440 f   libucrt:invalid_parameter.obj
 0001:00012488       __acrt_errno_from_os_error 0000000180013488 f   libucrt:errno.obj
 0001:000124d0       __acrt_errno_map_os_error  00000001800134d0 f   libucrt:errno.obj
 0001:00012520       __doserrno                 0000000180013520 f   libucrt:errno.obj
 0001:00012540       _errno                     0000000180013540 f   libucrt:errno.obj
 0001:00012560       calloc                     0000000180013560 f   libucrt:calloc.obj
 0001:00012568       malloc                     0000000180013568 f   libucrt:malloc.obj
 0001:00012570       _recalloc                  0000000180013570 f   libucrt:recalloc.obj
 0001:00012578       _recalloc_base             0000000180013578 f   libucrt:recalloc.obj
 0001:00012610       _resetstkoflw              0000000180013610 f   libucrt:resetstk.obj
 0001:0001273c       wcscat_s                   000000018001373c f   libucrt:wcscat_s.obj
 0001:000127bc       wcscpy_s                   00000001800137bc f   libucrt:wcscpy_s.obj
 0001:00012824       wcsncpy_s                  0000000180013824 f   libucrt:wcsncpy_s.obj
 0001:00012adc       ??$ensure_buffer_is_big_enough@D@formatting_buffer@__crt_stdio_output@@QEAA_N_K@Z 0000000180013adc f i libucrt:output.obj
 0001:00012b84       ??$ensure_buffer_is_big_enough@_W@formatting_buffer@__crt_stdio_output@@QEAA_N_K@Z 0000000180013b84 f i libucrt:output.obj
 0001:00012c30       ??$is_wide_character_specifier@_W@__crt_stdio_output@@YA_N_K_WW4length_modifier@0@@Z 0000000180013c30 f i libucrt:output.obj
 0001:00012c70       ??$type_case_integer_parse_into_buffer@I@?$output_processor@_WV?$string_output_adapter@_W@__crt_stdio_output@@V?$format_validation_base@_WV?$string_output_adapter@_W@__crt_stdio_output@@@2@@__crt_stdio_output@@AEAAXII_N@Z 0000000180013c70 f i libucrt:output.obj
 0001:00012d14       ??$type_case_integer_parse_into_buffer@_K@?$output_processor@_WV?$string_output_adapter@_W@__crt_stdio_output@@V?$format_validation_base@_WV?$string_output_adapter@_W@__crt_stdio_output@@@2@@__crt_stdio_output@@AEAAX_KI_N@Z 0000000180013d14 f i libucrt:output.obj
 0001:00012db8       ??$write_multiple_characters@V?$string_output_adapter@_W@__crt_stdio_output@@D@__crt_stdio_output@@YAXAEBV?$string_output_adapter@_W@0@DHQEAH@Z 0000000180013db8 f i libucrt:output.obj
 0001:00012e34       ??0_LocaleUpdate@@QEAA@QEAU__crt_locale_pointers@@@Z 0000000180013e34 f i libucrt:output.obj
 0001:00012ed0       ?crop_zeroes@__crt_stdio_output@@YAXPEADQEAU__crt_locale_pointers@@@Z 0000000180013ed0 f i libucrt:output.obj
 0001:00012f3c       ?parse_int_from_format_string@?$output_processor@_WV?$string_output_adapter@_W@__crt_stdio_output@@V?$format_validation_base@_WV?$string_output_adapter@_W@__crt_stdio_output@@@2@@__crt_stdio_output@@AEAA_NQEAH@Z 0000000180013f3c f i libucrt:output.obj
 0001:00012fe0       ?process@?$output_processor@_WV?$string_output_adapter@_W@__crt_stdio_output@@V?$format_validation_base@_WV?$string_output_adapter@_W@__crt_stdio_output@@@2@@__crt_stdio_output@@QEAAHXZ 0000000180013fe0 f i libucrt:output.obj
 0001:00013268       ?state_case_size@?$output_processor@_WV?$string_output_adapter@_W@__crt_stdio_output@@V?$format_validation_base@_WV?$string_output_adapter@_W@__crt_stdio_output@@@2@@__crt_stdio_output@@AEAA_NXZ 0000000180014268 f i libucrt:output.obj
 0001:00013400       ?state_case_type@?$output_processor@_WV?$string_output_adapter@_W@__crt_stdio_output@@V?$format_validation_base@_WV?$string_output_adapter@_W@__crt_stdio_output@@@2@@__crt_stdio_output@@AEAA_NXZ 0000000180014400 f i libucrt:output.obj
 0001:000136cc       ?type_case_Z@?$output_processor@_WV?$string_output_adapter@_W@__crt_stdio_output@@V?$format_validation_base@_WV?$string_output_adapter@_W@__crt_stdio_output@@@2@@__crt_stdio_output@@AEAA_NXZ 00000001800146cc f i libucrt:output.obj
 0001:00013748       ?type_case_a@?$output_processor@_WV?$string_output_adapter@_W@__crt_stdio_output@@V?$format_validation_base@_WV?$string_output_adapter@_W@__crt_stdio_output@@@2@@__crt_stdio_output@@AEAA_NXZ 0000000180014748 f i libucrt:output.obj
 0001:00013984       ?type_case_c_tchar@?$output_processor@_WV?$string_output_adapter@_W@__crt_stdio_output@@V?$format_validation_base@_WV?$string_output_adapter@_W@__crt_stdio_output@@@2@@__crt_stdio_output@@AEAA_N_W@Z 0000000180014984 f i libucrt:output.obj
 0001:00013a2c       ?type_case_integer@?$output_processor@_WV?$string_output_adapter@_W@__crt_stdio_output@@V?$format_validation_base@_WV?$string_output_adapter@_W@__crt_stdio_output@@@2@@__crt_stdio_output@@AEAA_NI_N@Z 0000000180014a2c f i libucrt:output.obj
 0001:00013bf8       ?type_case_n@?$output_processor@_WV?$string_output_adapter@_W@__crt_stdio_output@@V?$format_validation_base@_WV?$string_output_adapter@_W@__crt_stdio_output@@@2@@__crt_stdio_output@@AEAA_NXZ 0000000180014bf8 f i libucrt:output.obj
 0001:00013cd4       ?type_case_s@?$output_processor@_WV?$string_output_adapter@_W@__crt_stdio_output@@V?$format_validation_base@_WV?$string_output_adapter@_W@__crt_stdio_output@@@2@@__crt_stdio_output@@AEAA_NXZ 0000000180014cd4 f i libucrt:output.obj
 0001:00013d9c       ?write_stored_string_tchar@?$output_processor@_WV?$string_output_adapter@_W@__crt_stdio_output@@V?$format_validation_base@_WV?$string_output_adapter@_W@__crt_stdio_output@@@2@@__crt_stdio_output@@AEAA_N_W@Z 0000000180014d9c f i libucrt:output.obj
 0001:00013e88       ?write_string@?$string_output_adapter@_W@__crt_stdio_output@@QEBAXQEB_WHQEAHAEAV__crt_deferred_errno_cache@@@Z 0000000180014e88 f i libucrt:output.obj
 0001:00013f30       __stdio_common_vswprintf_s 0000000180014f30 f   libucrt:output.obj
 0001:00013fa0       _seh_filter_dll            0000000180014fa0 f   libucrt:exception_filter.obj
 0001:00013fb4       _seh_filter_exe            0000000180014fb4 f   libucrt:exception_filter.obj
 0001:000143a4       __acrt_initialize_thread_local_exit_callback 00000001800153a4 f   libucrt:exit.obj
 0001:000143ac       _cexit                     00000001800153ac f   libucrt:exit.obj
 0001:000143bc       _exit                      00000001800153bc f   libucrt:exit.obj
 0001:000143c8       _is_c_termination_complete 00000001800153c8 f   libucrt:exit.obj
 0001:00014594       __acrt_allocate_buffer_for_argv 0000000180015594 f   libucrt:argv_parsing.obj
 0001:000145f4       _configure_narrow_argv     00000001800155f4 f   libucrt:argv_parsing.obj
 0001:0001496c       __dcrt_uninitialize_environments_nolock 000000018001596c f   libucrt:environment_initialization.obj
 0001:000149a4       _initialize_narrow_environment 00000001800159a4 f   libucrt:environment_initialization.obj
 0001:00014cec       _crt_atexit                0000000180015cec f   libucrt:onexit.obj
 0001:00014cfc       _execute_onexit_table      0000000180015cfc f   libucrt:onexit.obj
 0001:00014d38       _initialize_onexit_table   0000000180015d38 f   libucrt:onexit.obj
 0001:00014d60       _register_onexit_function  0000000180015d60 f   libucrt:onexit.obj
 0001:00014de0       __acrt_uninitialize_command_line 0000000180015de0 f   libucrt:argv_data.obj
 0001:00014ed8       __acrt_initialize          0000000180015ed8 f   libucrt:initialization.obj
 0001:00014eec       __acrt_thread_attach       0000000180015eec f   libucrt:initialization.obj
 0001:00014f00       __acrt_thread_detach       0000000180015f00 f   libucrt:initialization.obj
 0001:00014f10       __acrt_uninitialize        0000000180015f10 f   libucrt:initialization.obj
 0001:00014f48       __acrt_uninitialize_critical 0000000180015f48 f   libucrt:initialization.obj
 0001:00014f58       _initterm                  0000000180015f58 f   libucrt:initterm.obj
 0001:00014fbc       _initterm_e                0000000180015fbc f   libucrt:initterm.obj
 0001:00014ffc       __acrt_initialize_new_handler 0000000180015ffc f   libucrt:new_handler.obj
 0001:00015004       _callnewh                  0000000180016004 f   libucrt:new_handler.obj
 0001:00015034       _query_new_handler         0000000180016034 f   libucrt:new_handler.obj
 0001:00015068       terminate                  0000000180016068 f   libucrt:terminate.obj
 0001:00015088       abort                      0000000180016088 f   libucrt:abort.obj
 0001:000150e0       strcpy_s                   00000001800160e0 f   libucrt:strcpy_s.obj
 0001:00015140       ??$parse_integer@KV?$c_string_character_source@_W@__crt_strtox@@@__crt_strtox@@YAKQEAU__crt_locale_pointers@@V?$c_string_character_source@_W@0@H_N@Z 0000000180016140 f i libucrt:atox.obj
 0001:00015800       strncmp                    0000000180016800 f   libucrt:strncmp.obj
 0001:00015880       wcsncmp                    0000000180016880 f   libucrt:wcsncmp.obj
 0001:000158ac       _free_base                 00000001800168ac f   libucrt:free_base.obj
 0001:00015c64       __acrt_freeptd             0000000180016c64 f   libucrt:per_thread_data.obj
 0001:00015ca8       __acrt_getptd              0000000180016ca8 f   libucrt:per_thread_data.obj
 0001:00015d7c       __acrt_getptd_head         0000000180016d7c f   libucrt:per_thread_data.obj
 0001:00015e24       __acrt_getptd_noexit       0000000180016e24 f   libucrt:per_thread_data.obj
 0001:00015ef0       __acrt_initialize_ptd      0000000180016ef0 f   libucrt:per_thread_data.obj
 0001:00015f2c       __acrt_uninitialize_ptd    0000000180016f2c f   libucrt:per_thread_data.obj
 0001:00015f50       _calloc_base               0000000180016f50 f   libucrt:calloc_base.obj
 0001:00015fc8       _malloc_base               0000000180016fc8 f   libucrt:malloc_base.obj
 0001:00016028       _msize_base                0000000180017028 f   libucrt:msize.obj
 0001:00016064       _realloc_base              0000000180017064 f   libucrt:realloc_base.obj
 0001:000162b8       __acrt_AppPolicyGetProcessTerminationMethodInternal 00000001800172b8 f   libucrt:winapi_thunks.obj
 0001:00016308       __acrt_AreFileApisANSI     0000000180017308 f   libucrt:winapi_thunks.obj
 0001:00016344       __acrt_FlsAlloc            0000000180017344 f   libucrt:winapi_thunks.obj
 0001:0001638c       __acrt_FlsFree             000000018001738c f   libucrt:winapi_thunks.obj
 0001:000163d4       __acrt_FlsGetValue         00000001800173d4 f   libucrt:winapi_thunks.obj
 0001:0001641c       __acrt_FlsSetValue         000000018001741c f   libucrt:winapi_thunks.obj
 0001:00016470       __acrt_InitializeCriticalSectionEx 0000000180017470 f   libucrt:winapi_thunks.obj
 0001:000164d4       __acrt_LCMapStringEx       00000001800174d4 f   libucrt:winapi_thunks.obj
 0001:000165b0       __acrt_LocaleNameToLCID    00000001800175b0 f   libucrt:winapi_thunks.obj
 0001:00016600       __acrt_SetThreadStackGuarantee 0000000180017600 f   libucrt:winapi_thunks.obj
 0001:00016644       __acrt_initialize_winapi_thunks 0000000180017644 f   libucrt:winapi_thunks.obj
 0001:00016678       __acrt_uninitialize_winapi_thunks 0000000180017678 f   libucrt:winapi_thunks.obj
 0001:000166bc       wcstol                     00000001800176bc f   libucrt:strtox.obj
 0001:000166e8       _mbtowc_l                  00000001800176e8 f   libucrt:mbtowc.obj
 0001:00016868       mbtowc                     0000000180017868 f   libucrt:mbtowc.obj
 0001:00016870       wcsnlen                    0000000180017870 f   libucrt:strnlen.obj
 0001:00016a48       __acrt_update_locale_info  0000000180017a48 f   libucrt:locale_update.obj
 0001:00016a7c       __acrt_update_multibyte_info 0000000180017a7c f   libucrt:locale_update.obj
 0001:00017348       __acrt_fp_format           0000000180018348 f   libucrt:cvt.obj
 0001:0001764c       _fileno                    000000018001864c f   libucrt:fileno.obj
 0001:00017674       __acrt_initialize_stdio    0000000180018674 f   libucrt:_file.obj
 0001:00017794       __acrt_uninitialize_stdio  0000000180018794 f   libucrt:_file.obj
 0001:000177f0       _lock_file                 00000001800187f0 f   libucrt:_file.obj
 0001:000177fc       _unlock_file               00000001800187fc f   libucrt:_file.obj
 0001:00017808       _get_printf_count_output   0000000180018808 f   libucrt:printf_count_output.obj
 0001:00017890       __acrt_set_locale_changed  0000000180018890 f   libucrt:wsetlocale.obj
 0001:0001789c       __acrt_uninitialize_locale 000000018001889c f   libucrt:wsetlocale.obj
 0001:00017ac8       __acrt_initialize_lowio    0000000180018ac8 f   libucrt:ioinit.obj
 0001:00017b04       __acrt_uninitialize_lowio  0000000180018b04 f   libucrt:ioinit.obj
 0001:00017b44       __acrt_initialize_locks    0000000180018b44 f   libucrt:locks.obj
 0001:00017b8c       __acrt_lock                0000000180018b8c f   libucrt:locks.obj
 0001:00017ba8       __acrt_uninitialize_locks  0000000180018ba8 f   libucrt:locks.obj
 0001:00017be0       __acrt_unlock              0000000180018be0 f   libucrt:locks.obj
 0001:00017bfc       __acrt_get_process_end_policy 0000000180018bfc f   libucrt:win_policies.obj
 0001:00017c4c       ??$__acrt_mbs_to_wcs_cp@U__crt_win32_buffer_internal_dynamic_resizing@@@@YAHQEBDAEAV?$__crt_win32_buffer@_WU__crt_win32_buffer_internal_dynamic_resizing@@@@I@Z 0000000180018c4c f i libucrt:argv_wildcards.obj
 0001:00017dc4       ??$__acrt_wcs_to_mbs_cp@U__crt_win32_buffer_internal_dynamic_resizing@@@@YAHQEB_WAEAV?$__crt_win32_buffer@DU__crt_win32_buffer_internal_dynamic_resizing@@@@I@Z 0000000180018dc4 f i libucrt:argv_wildcards.obj
 0001:000185f4       __acrt_expand_narrow_argv_wildcards 00000001800195f4 f   libucrt:argv_wildcards.obj
 0001:000185fc       ??$__acrt_wcs_to_mbs_cp@U__crt_win32_buffer_no_resizing@@@@YAHQEB_WAEAV?$__crt_win32_buffer@DU__crt_win32_buffer_no_resizing@@@@I@Z 00000001800195fc f i libucrt:getmodulefilenamea.obj
 0001:00018710       __acrt_GetModuleFileNameA  0000000180019710 f   libucrt:getmodulefilenamea.obj
 0001:00018f5c       __acrt_initialize_multibyte 0000000180019f5c f   libucrt:mbctype.obj
 0001:00018fbc       __acrt_update_thread_multibyte_data 0000000180019fbc f   libucrt:mbctype.obj
 0001:00018fd8       _setmbcp_nolock            0000000180019fd8 f   libucrt:mbctype.obj
 0001:0001930c       _ismbblead                 000000018001a30c f   libucrt:ismbbyte.obj
 0001:00019320       __acrt_initialize_command_line 000000018001a320 f   libucrt:argv_data.obj
 0001:00019348       __acrt_MultiByteToWideChar 000000018001a348 f   libucrt:multibytetowidechar.obj
 0001:000193a4       __acrt_WideCharToMultiByte 000000018001a3a4 f   libucrt:widechartomultibyte.obj
 0001:0001943c       __dcrt_get_narrow_environment_from_os 000000018001a43c f   libucrt:get_environment_from_os.obj
 0001:00019540       __acrt_initialize_heap     000000018001a540 f   libucrt:heap_handle.obj
 0001:0001955c       __acrt_uninitialize_heap   000000018001a55c f   libucrt:heap_handle.obj
 0001:00019568       __acrt_execute_initializers 000000018001a568 f   libucrt:shared_initialization.obj
 0001:000195e8       __acrt_execute_uninitializers 000000018001a5e8 f   libucrt:shared_initialization.obj
 0001:0001966c       __acrt_get_sigabrt_handler 000000018001a66c f   libucrt:signal.obj
 0001:0001969c       __acrt_initialize_signal_handlers 000000018001a69c f   libucrt:signal.obj
 0001:000196bc       raise                      000000018001a6bc f   libucrt:signal.obj
 0001:00019928       __acrt_has_user_matherr    000000018001a928 f   libucrt:matherr.obj
 0001:00019948       __acrt_initialize_user_matherr 000000018001a948 f   libucrt:matherr.obj
 0001:00019950       __acrt_invoke_user_matherr 000000018001a950 f   libucrt:matherr.obj
 0001:00019b5c       __acrt_stdio_flush_nolock  000000018001ab5c f   libucrt:fflush.obj
 0001:00019bd8       _fflush_nolock             000000018001abd8 f   libucrt:fflush.obj
 0001:00019c24       _flushall                  000000018001ac24 f   libucrt:fflush.obj
 0001:00019c2c       __pctype_func              000000018001ac2c f   libucrt:ctype.obj
 0001:00019c5c       iswctype                   000000018001ac5c f   libucrt:iswctype.obj
 0001:00019ccc       __acrt_add_locale_ref      000000018001accc f   libucrt:locale_refcounting.obj
 0001:00019d58       __acrt_free_locale         000000018001ad58 f   libucrt:locale_refcounting.obj
 0001:00019ed0       __acrt_locale_add_lc_time_reference 000000018001aed0 f   libucrt:locale_refcounting.obj
 0001:00019ef8       __acrt_locale_free_lc_time_if_unreferenced 000000018001aef8 f   libucrt:locale_refcounting.obj
 0001:00019f30       __acrt_locale_release_lc_time_reference 000000018001af30 f   libucrt:locale_refcounting.obj
 0001:00019f58       __acrt_release_locale_ref  000000018001af58 f   libucrt:locale_refcounting.obj
 0001:0001a000       __acrt_update_thread_locale_data 000000018001b000 f   libucrt:locale_refcounting.obj
 0001:0001a06c       _updatetlocinfoEx_nolock   000000018001b06c f   libucrt:locale_refcounting.obj
 0001:0001a0d4       _query_new_mode            000000018001b0d4 f   libucrt:new_mode.obj
 0001:0001a0dc       __acrt_DownlevelLocaleNameToLCID 000000018001b0dc f   libucrt:lcidtoname_downlevel.obj
 0001:0001a18c       _isleadbyte_l              000000018001b18c f i libucrt:_wctype.obj
 0001:0001a1d8       ?__mbrtowc_utf8@__crt_mbstring@@YA_KPEA_WPEBD_KPEAU_Mbstatet@@@Z 000000018001b1d8 f   libucrt:mbrtowc.obj
 0001:0001a214       ?__mbsrtowcs_utf8@__crt_mbstring@@YA_KPEA_WPEAPEBD_KPEAU_Mbstatet@@@Z 000000018001b214 f   libucrt:mbrtowc.obj
 0001:0001a38c       __acrt_fp_strflt_to_string 000000018001b38c f   libucrt:_fptostr.obj
 0001:0001a470       ?divide@__crt_strtox@@YA_KAEAUbig_integer@1@AEBU21@@Z 000000018001b470 f i libucrt:cfout.obj
 0001:0001a89c       __acrt_fltout              000000018001b89c f   libucrt:cfout.obj
 0001:0001bad0       _fcloseall                 000000018001cad0 f   libucrt:closeall.obj
 0001:0001bb84       __acrt_stdio_free_buffer_nolock 000000018001cb84 f   libucrt:_freebuf.obj
 0001:0001bbc4       _isatty                    000000018001cbc4 f   libucrt:isatty.obj
 0001:0001bc24       __acrt_locale_free_monetary 000000018001cc24 f   libucrt:initmon.obj
 0001:0001bd30       __acrt_locale_free_numeric 000000018001cd30 f   libucrt:initnum.obj
 0001:0001bdf4       __acrt_locale_free_time    000000018001cdf4 f   libucrt:inittime.obj
 0001:0001befc       __acrt_GetStringTypeA      000000018001cefc f   libucrt:getstringtypea.obj
 0001:0001c08c       __acrt_lowio_create_handle_array 000000018001d08c f   libucrt:osfinfo.obj
 0001:0001c134       __acrt_lowio_destroy_handle_array 000000018001d134 f   libucrt:osfinfo.obj
 0001:0001c184       __acrt_lowio_ensure_fh_exists 000000018001d184 f   libucrt:osfinfo.obj
 0001:0001c22c       __acrt_lowio_lock_fh       000000018001d22c f   libucrt:osfinfo.obj
 0001:0001c254       __acrt_lowio_unlock_fh     000000018001d254 f   libucrt:osfinfo.obj
 0001:0001c27c       _free_osfhnd               000000018001d27c f   libucrt:osfinfo.obj
 0001:0001c338       _get_osfhandle             000000018001d338 f   libucrt:osfinfo.obj
 0001:0001c3b0       qsort                      000000018001d3b0 f   libucrt:qsort.obj
 0001:0001c760       strncpy_s                  000000018001d760 f   libucrt:strncpy_s.obj
 0001:0001c8e0       strpbrk                    000000018001d8e0 f   libucrt:strpbrk.obj
 0001:0001ccc0       _mbsdec                    000000018001dcc0 f   libucrt:mbsdec.obj
 0001:0001ccc8       _mbsdec_l                  000000018001dcc8 f   libucrt:mbsdec.obj
 0001:0001d074       __acrt_LCMapStringA        000000018001e074 f   libucrt:lcmapstringa.obj
 0001:0001d1b0       _commit                    000000018001e1b0 f   libucrt:commit.obj
 0001:0001daa4       _write                     000000018001eaa4 f   libucrt:write.obj
 0001:0001db90       _write_nolock              000000018001eb90 f   libucrt:write.obj
 0001:0001de6c       __acrt_GetStringTypeW      000000018001ee6c f   libucrt:getstringtypew.obj
 0001:0001de74       __ascii_wcsnicmp           000000018001ee74 f   libucrt:wcsnicmp.obj
 0001:0001dec0       ?__mbrtoc32_utf8@__crt_mbstring@@YA_KPEA_UPEBD_KPEAU_Mbstatet@@@Z 000000018001eec0 f   libucrt:mbrtoc32.obj
 0001:0001e09c       fegetenv                   000000018001f09c f   libucrt:fegetenv.obj
 0001:0001e0bc       fesetenv                   000000018001f0bc f   libucrt:fesetenv.obj
 0001:0001e108       feholdexcept               000000018001f108 f   libucrt:feholdexcept.obj
 0001:0001e158       ceil                       000000018001f158 f   libucrt:ceil.obj
 0001:0001e220       log10                      000000018001f220 f   libucrt:log10.obj
 0001:0001e868       _lseeki64_nolock           000000018001f868 f   libucrt:lseek.obj
 0001:0001e870       _fclose_nolock             000000018001f870 f   libucrt:fclose.obj
 0001:0001e8f4       fclose                     000000018001f8f4 f   libucrt:fclose.obj
 0001:0001e958       _query_app_type            000000018001f958 f   libucrt:report_runtime_error.obj
 0001:0001e960       __strncnt                  000000018001f960 f   libucrt:strncnt.obj
 0001:0001e978       _putwch_nolock             000000018001f978 f   libucrt:putwch.obj
 0001:0001e9b4       __acrt_fenv_get_control    000000018001f9b4 f   libucrt:_fenvutils.obj
 0001:0001eaa8       __acrt_fenv_get_status     000000018001faa8 f   libucrt:_fenvutils.obj
 0001:0001eafc       __acrt_fenv_set_control    000000018001fafc f   libucrt:_fenvutils.obj
 0001:0001ec44       __acrt_fenv_set_status     000000018001fc44 f   libucrt:_fenvutils.obj
 0001:0001ecc8       _clearfp                   000000018001fcc8 f   libucrt:ieee.obj
 0001:0001ee5c       _handle_error              000000018001fe5c f   libucrt:libm_error.obj
 0001:0001ef84       _handle_nan                000000018001ff84 f   libucrt:libm_error.obj
 0001:0001efa0       __acrt_initialize_fma3     000000018001ffa0 f   libucrt:fma3_available.obj
 0001:0001f010       _log10_special             0000000180020010 f   libucrt:log_special.obj
 0001:0001f13c       _close                     000000018002013c f   libucrt:close.obj
 0001:0001f1e0       _close_nolock              00000001800201e0 f   libucrt:close.obj
 0001:0001f2a0       ?__acrt_stdio_free_stream@@YAXV__crt_stdio_stream@@@Z 00000001800202a0 f   libucrt:stream.obj
 0001:0001f2bc       __dcrt_lowio_ensure_console_output_initialized 00000001800202bc f   libucrt:initcon.obj
 0001:0001f310       __dcrt_terminate_console_output 0000000180020310 f   libucrt:initcon.obj
 0001:0001f32c       __dcrt_write_console       000000018002032c f   libucrt:initcon.obj
 0001:0001f400       _get_fpsr                  0000000180020400 f   libucrt:fpsr.obj
 0001:0001f410       _set_fpsr                  0000000180020410 f   libucrt:fpsr.obj
 0001:0001f41a       _fclrf                     000000018002041a f   libucrt:fpsr.obj
 0001:0001f42e       _frnd                      000000018002042e f   libucrt:fpsr.obj
 0001:0001f450       _raise_exc                 0000000180020450 f   libucrt:fpexcept.obj
 0001:0001f478       _raise_exc_ex              0000000180020478 f   libucrt:fpexcept.obj
 0001:0001f788       _set_errno_from_matherr    0000000180020788 f   libucrt:fpexcept.obj
 0001:0001f7b8       _clrfp                     00000001800207b8 f   libucrt:fpctrl.obj
 0001:0001f7d8       _ctrlfp                    00000001800207d8 f   libucrt:fpctrl.obj
 0001:0001f854       _set_statfp                0000000180020854 f   libucrt:fpctrl.obj
 0001:0001f874       _statfp                    0000000180020874 f   libucrt:fpctrl.obj
 0001:0001f885       IsProcessorFeaturePresent  0000000180020885 f   kernel32:KERNEL32.dll
 0001:0001f890       _FindPESection             0000000180020890 f   LIBCMT:pesect.obj
 0001:0001f8e0       _IsNonwritableInCurrentImage 00000001800208e0 f   LIBCMT:pesect.obj
 0001:0001f930       _ValidateImageBase         0000000180020930 f   LIBCMT:pesect.obj
 0001:0001f960       strrchr                    0000000180020960 f   libvcruntime:strrchr.obj
 0001:0001faa0       _guard_dispatch_icall_nop  0000000180020aa0 f   LIBCMT:guard_dispatch.obj
 0002:00000000       __imp_RegQueryValueExW     0000000180021000     advapi32:ADVAPI32.dll
 0002:00000008       __imp_RegSetValueExW       0000000180021008     advapi32:ADVAPI32.dll
 0002:00000010       __imp_RegQueryInfoKeyW     0000000180021010     advapi32:ADVAPI32.dll
 0002:00000018       __imp_RegOpenKeyExW        0000000180021018     advapi32:ADVAPI32.dll
 0002:00000020       __imp_RegEnumKeyExW        0000000180021020     advapi32:ADVAPI32.dll
 0002:00000028       __imp_RegDeleteValueW      0000000180021028     advapi32:ADVAPI32.dll
 0002:00000030       __imp_RegDeleteKeyW        0000000180021030     advapi32:ADVAPI32.dll
 0002:00000038       __imp_RegCreateKeyExW      0000000180021038     advapi32:ADVAPI32.dll
 0002:00000040       __imp_RegCloseKey          0000000180021040     advapi32:ADVAPI32.dll
 0002:00000048       \177ADVAPI32_NULL_THUNK_DATA 0000000180021048     advapi32:ADVAPI32.dll
 0002:00000050       __imp_GetObjectW           0000000180021050     gdi32:GDI32.dll
 0002:00000058       __imp_SelectObject         0000000180021058     gdi32:GDI32.dll
 0002:00000060       __imp_DeleteObject         0000000180021060     gdi32:GDI32.dll
 0002:00000068       __imp_CreateCompatibleDC   0000000180021068     gdi32:GDI32.dll
 0002:00000070       __imp_BitBlt               0000000180021070     gdi32:GDI32.dll
 0002:00000078       __imp_SetWindowOrgEx       0000000180021078     gdi32:GDI32.dll
 0002:00000080       __imp_SetWindowExtEx       0000000180021080     gdi32:GDI32.dll
 0002:00000088       __imp_SetViewportOrgEx     0000000180021088     gdi32:GDI32.dll
 0002:00000090       __imp_LPtoDP               0000000180021090     gdi32:GDI32.dll
 0002:00000098       __imp_SetMapMode           0000000180021098     gdi32:GDI32.dll
 0002:000000a0       __imp_SaveDC               00000001800210a0     gdi32:GDI32.dll
 0002:000000a8       __imp_RestoreDC            00000001800210a8     gdi32:GDI32.dll
 0002:000000b0       __imp_GetDeviceCaps        00000001800210b0     gdi32:GDI32.dll
 0002:000000b8       __imp_DeleteMetaFile       00000001800210b8     gdi32:GDI32.dll
 0002:000000c0       __imp_DeleteDC             00000001800210c0     gdi32:GDI32.dll
 0002:000000c8       __imp_CreateRectRgnIndirect 00000001800210c8     gdi32:GDI32.dll
 0002:000000d0       __imp_CreateMetaFileW      00000001800210d0     gdi32:GDI32.dll
 0002:000000d8       __imp_CreateDCW            00000001800210d8     gdi32:GDI32.dll
 0002:000000e0       __imp_CloseMetaFile        00000001800210e0     gdi32:GDI32.dll
 0002:000000e8       \177GDI32_NULL_THUNK_DATA  00000001800210e8     gdi32:GDI32.dll
 0002:000000f0       __imp_CloseHandle          00000001800210f0     kernel32:KERNEL32.dll
 0002:000000f8       __imp_SetEvent             00000001800210f8     kernel32:KERNEL32.dll
 0002:00000100       __imp_CreateMutexW         0000000180021100     kernel32:KERNEL32.dll
 0002:00000108       __imp_CreateEventW         0000000180021108     kernel32:KERNEL32.dll
 0002:00000110       __imp_GetCurrentProcessId  0000000180021110     kernel32:KERNEL32.dll
 0002:00000118       __imp_WriteConsoleW        0000000180021118     kernel32:KERNEL32.dll
 0002:00000120       __imp_CreateFileW          0000000180021120     kernel32:KERNEL32.dll
 0002:00000128       __imp_GetConsoleMode       0000000180021128     kernel32:KERNEL32.dll
 0002:00000130       __imp_GetConsoleCP         0000000180021130     kernel32:KERNEL32.dll
 0002:00000138       __imp_WriteFile            0000000180021138     kernel32:KERNEL32.dll
 0002:00000140       __imp_FlushFileBuffers     0000000180021140     kernel32:KERNEL32.dll
 0002:00000148       __imp_SetStdHandle         0000000180021148     kernel32:KERNEL32.dll
 0002:00000150       __imp_GetStringTypeW       0000000180021150     kernel32:KERNEL32.dll
 0002:00000158       __imp_SetFilePointerEx     0000000180021158     kernel32:KERNEL32.dll
 0002:00000160       __imp_FreeEnvironmentStringsW 0000000180021160     kernel32:KERNEL32.dll
 0002:00000168       __imp_lstrcmpiW            0000000180021168     kernel32:KERNEL32.dll
 0002:00000170       __imp_GetCommandLineW      0000000180021170     kernel32:KERNEL32.dll
 0002:00000178       __imp_GetCommandLineA      0000000180021178     kernel32:KERNEL32.dll
 0002:00000180       __imp_GetCPInfo            0000000180021180     kernel32:KERNEL32.dll
 0002:00000188       __imp_GetOEMCP             0000000180021188     kernel32:KERNEL32.dll
 0002:00000190       __imp_GetACP               0000000180021190     kernel32:KERNEL32.dll
 0002:00000198       __imp_IsValidCodePage      0000000180021198     kernel32:KERNEL32.dll
 0002:000001a0       __imp_FindNextFileW        00000001800211a0     kernel32:KERNEL32.dll
 0002:000001a8       __imp_FindFirstFileExW     00000001800211a8     kernel32:KERNEL32.dll
 0002:000001b0       __imp_FindClose            00000001800211b0     kernel32:KERNEL32.dll
 0002:000001b8       __imp_GetFileType          00000001800211b8     kernel32:KERNEL32.dll
 0002:000001c0       __imp_GetStdHandle         00000001800211c0     kernel32:KERNEL32.dll
 0002:000001c8       __imp_LCMapStringW         00000001800211c8     kernel32:KERNEL32.dll
 0002:000001d0       __imp_HeapReAlloc          00000001800211d0     kernel32:KERNEL32.dll
 0002:000001d8       __imp_HeapSize             00000001800211d8     kernel32:KERNEL32.dll
 0002:000001e0       __imp_MulDiv               00000001800211e0     kernel32:KERNEL32.dll
 0002:000001e8       __imp_GlobalLock           00000001800211e8     kernel32:KERNEL32.dll
 0002:000001f0       __imp_GlobalUnlock         00000001800211f0     kernel32:KERNEL32.dll
 0002:000001f8       __imp_GlobalAlloc          00000001800211f8     kernel32:KERNEL32.dll
 0002:00000200       __imp_FindResourceW        0000000180021200     kernel32:KERNEL32.dll
 0002:00000208       __imp_SizeofResource       0000000180021208     kernel32:KERNEL32.dll
 0002:00000210       __imp_LoadResource         0000000180021210     kernel32:KERNEL32.dll
 0002:00000218       __imp_LoadLibraryExW       0000000180021218     kernel32:KERNEL32.dll
 0002:00000220       __imp_GetProcAddress       0000000180021220     kernel32:KERNEL32.dll
 0002:00000228       __imp_GetModuleHandleW     0000000180021228     kernel32:KERNEL32.dll
 0002:00000230       __imp_GetModuleFileNameW   0000000180021230     kernel32:KERNEL32.dll
 0002:00000238       __imp_FreeLibrary          0000000180021238     kernel32:KERNEL32.dll
 0002:00000240       __imp_DisableThreadLibraryCalls 0000000180021240     kernel32:KERNEL32.dll
 0002:00000248       __imp_GetCurrentThreadId   0000000180021248     kernel32:KERNEL32.dll
 0002:00000250       __imp_Sleep                0000000180021250     kernel32:KERNEL32.dll
 0002:00000258       __imp_WaitForSingleObject  0000000180021258     kernel32:KERNEL32.dll
 0002:00000260       __imp_ReleaseMutex         0000000180021260     kernel32:KERNEL32.dll
 0002:00000268       __imp_ResetEvent           0000000180021268     kernel32:KERNEL32.dll
 0002:00000270       __imp_EnterCriticalSection 0000000180021270     kernel32:KERNEL32.dll
 0002:00000278       __imp_LeaveCriticalSection 0000000180021278     kernel32:KERNEL32.dll
 0002:00000280       __imp_SetLastError         0000000180021280     kernel32:KERNEL32.dll
 0002:00000288       __imp_EncodePointer        0000000180021288     kernel32:KERNEL32.dll
 0002:00000290       __imp_DeleteCriticalSection 0000000180021290     kernel32:KERNEL32.dll
 0002:00000298       __imp_InitializeCriticalSectionEx 0000000180021298     kernel32:KERNEL32.dll
 0002:000002a0       __imp_GetLastError         00000001800212a0     kernel32:KERNEL32.dll
 0002:000002a8       __imp_RaiseException       00000001800212a8     kernel32:KERNEL32.dll
 0002:000002b0       __imp_DecodePointer        00000001800212b0     kernel32:KERNEL32.dll
 0002:000002b8       __imp_WideCharToMultiByte  00000001800212b8     kernel32:KERNEL32.dll
 0002:000002c0       __imp_GetEnvironmentStringsW 00000001800212c0     kernel32:KERNEL32.dll
 0002:000002c8       __imp_MultiByteToWideChar  00000001800212c8     kernel32:KERNEL32.dll
 0002:000002d0       __imp_GetModuleHandleExW   00000001800212d0     kernel32:KERNEL32.dll
 0002:000002d8       __imp_ExitProcess          00000001800212d8     kernel32:KERNEL32.dll
 0002:000002e0       __imp_VirtualQuery         00000001800212e0     kernel32:KERNEL32.dll
 0002:000002e8       __imp_VirtualProtect       00000001800212e8     kernel32:KERNEL32.dll
 0002:000002f0       __imp_GetSystemInfo        00000001800212f0     kernel32:KERNEL32.dll
 0002:000002f8       __imp_TlsFree              00000001800212f8     kernel32:KERNEL32.dll
 0002:00000300       __imp_TlsSetValue          0000000180021300     kernel32:KERNEL32.dll
 0002:00000308       __imp_TlsGetValue          0000000180021308     kernel32:KERNEL32.dll
 0002:00000310       __imp_TlsAlloc             0000000180021310     kernel32:KERNEL32.dll
 0002:00000318       __imp_RtlPcToFileHeader    0000000180021318     kernel32:KERNEL32.dll
 0002:00000320       __imp_InterlockedFlushSList 0000000180021320     kernel32:KERNEL32.dll
 0002:00000328       __imp_RtlUnwindEx          0000000180021328     kernel32:KERNEL32.dll
 0002:00000330       __imp_LoadLibraryExA       0000000180021330     kernel32:KERNEL32.dll
 0002:00000338       __imp_VirtualFree          0000000180021338     kernel32:KERNEL32.dll
 0002:00000340       __imp_VirtualAlloc         0000000180021340     kernel32:KERNEL32.dll
 0002:00000348       __imp_FlushInstructionCache 0000000180021348     kernel32:KERNEL32.dll
 0002:00000350       __imp_InterlockedPushEntrySList 0000000180021350     kernel32:KERNEL32.dll
 0002:00000358       __imp_InterlockedPopEntrySList 0000000180021358     kernel32:KERNEL32.dll
 0002:00000360       __imp_GetProcessHeap       0000000180021360     kernel32:KERNEL32.dll
 0002:00000368       __imp_HeapFree             0000000180021368     kernel32:KERNEL32.dll
 0002:00000370       __imp_HeapAlloc            0000000180021370     kernel32:KERNEL32.dll
 0002:00000378       __imp_OutputDebugStringW   0000000180021378     kernel32:KERNEL32.dll
 0002:00000380       __imp_InitializeSListHead  0000000180021380     kernel32:KERNEL32.dll
 0002:00000388       __imp_GetSystemTimeAsFileTime 0000000180021388     kernel32:KERNEL32.dll
 0002:00000390       __imp_QueryPerformanceCounter 0000000180021390     kernel32:KERNEL32.dll
 0002:00000398       __imp_GetStartupInfoW      0000000180021398     kernel32:KERNEL32.dll
 0002:000003a0       __imp_IsDebuggerPresent    00000001800213a0     kernel32:KERNEL32.dll
 0002:000003a8       __imp_IsProcessorFeaturePresent 00000001800213a8     kernel32:KERNEL32.dll
 0002:000003b0       __imp_TerminateProcess     00000001800213b0     kernel32:KERNEL32.dll
 0002:000003b8       __imp_GetCurrentProcess    00000001800213b8     kernel32:KERNEL32.dll
 0002:000003c0       __imp_InitializeCriticalSectionAndSpinCount 00000001800213c0     kernel32:KERNEL32.dll
 0002:000003c8       __imp_WaitForSingleObjectEx 00000001800213c8     kernel32:KERNEL32.dll
 0002:000003d0       __imp_RtlCaptureContext    00000001800213d0     kernel32:KERNEL32.dll
 0002:000003d8       __imp_RtlLookupFunctionEntry 00000001800213d8     kernel32:KERNEL32.dll
 0002:000003e0       __imp_RtlVirtualUnwind     00000001800213e0     kernel32:KERNEL32.dll
 0002:000003e8       __imp_UnhandledExceptionFilter 00000001800213e8     kernel32:KERNEL32.dll
 0002:000003f0       __imp_SetUnhandledExceptionFilter 00000001800213f0     kernel32:KERNEL32.dll
 0002:000003f8       \177KERNEL32_NULL_THUNK_DATA 00000001800213f8     kernel32:KERNEL32.dll
 0002:00000400       __imp_OleCreatePropertyFrame 0000000180021400     oleaut32:OLEAUT32.dll
 0002:00000408       __imp_UnRegisterTypeLib    0000000180021408     oleaut32:OLEAUT32.dll
 0002:00000410       __imp_RegisterTypeLib      0000000180021410     oleaut32:OLEAUT32.dll
 0002:00000418       __imp_LoadRegTypeLib       0000000180021418     oleaut32:OLEAUT32.dll
 0002:00000420       __imp_LoadTypeLib          0000000180021420     oleaut32:OLEAUT32.dll
 0002:00000428       __imp_VarUI4FromStr        0000000180021428     oleaut32:OLEAUT32.dll
 0002:00000430       __imp_VariantInit          0000000180021430     oleaut32:OLEAUT32.dll
 0002:00000438       __imp_SysAllocStringByteLen 0000000180021438     oleaut32:OLEAUT32.dll
 0002:00000440       __imp_SysStringByteLen     0000000180021440     oleaut32:OLEAUT32.dll
 0002:00000448       __imp_VariantChangeType    0000000180021448     oleaut32:OLEAUT32.dll
 0002:00000450       __imp_VariantClear         0000000180021450     oleaut32:OLEAUT32.dll
 0002:00000458       __imp_SysStringLen         0000000180021458     oleaut32:OLEAUT32.dll
 0002:00000460       __imp_SysFreeString        0000000180021460     oleaut32:OLEAUT32.dll
 0002:00000468       __imp_SysAllocStringLen    0000000180021468     oleaut32:OLEAUT32.dll
 0002:00000470       __imp_SysAllocString       0000000180021470     oleaut32:OLEAUT32.dll
 0002:00000478       \177OLEAUT32_NULL_THUNK_DATA 0000000180021478     oleaut32:OLEAUT32.dll
 0002:00000480       __imp_UnregisterClassW     0000000180021480     user32:USER32.dll
 0002:00000488       __imp_PostMessageW         0000000180021488     user32:USER32.dll
 0002:00000490       __imp_DefWindowProcW       0000000180021490     user32:USER32.dll
 0002:00000498       __imp_CallWindowProcW      0000000180021498     user32:USER32.dll
 0002:000004a0       __imp_RegisterClassExW     00000001800214a0     user32:USER32.dll
 0002:000004a8       __imp_GetClassInfoExW      00000001800214a8     user32:USER32.dll
 0002:000004b0       __imp_CreateWindowExW      00000001800214b0     user32:USER32.dll
 0002:000004b8       __imp_IsWindow             00000001800214b8     user32:USER32.dll
 0002:000004c0       __imp_IsChild              00000001800214c0     user32:USER32.dll
 0002:000004c8       __imp_DestroyWindow        00000001800214c8     user32:USER32.dll
 0002:000004d0       __imp_ShowWindow           00000001800214d0     user32:USER32.dll
 0002:000004d8       __imp_SetWindowPos         00000001800214d8     user32:USER32.dll
 0002:000004e0       __imp_CharNextW            00000001800214e0     user32:USER32.dll
 0002:000004e8       __imp_SetFocus             00000001800214e8     user32:USER32.dll
 0002:000004f0       __imp_LoadBitmapW          00000001800214f0     user32:USER32.dll
 0002:000004f8       __imp_RegisterClassW       00000001800214f8     user32:USER32.dll
 0002:00000500       __imp_PeekMessageW         0000000180021500     user32:USER32.dll
 0002:00000508       __imp_LoadCursorW          0000000180021508     user32:USER32.dll
 0002:00000510       __imp_GetParent            0000000180021510     user32:USER32.dll
 0002:00000518       __imp_SetWindowLongPtrW    0000000180021518     user32:USER32.dll
 0002:00000520       __imp_GetWindowLongPtrW    0000000180021520     user32:USER32.dll
 0002:00000528       __imp_PtInRect             0000000180021528     user32:USER32.dll
 0002:00000530       __imp_EqualRect            0000000180021530     user32:USER32.dll
 0002:00000538       __imp_OffsetRect           0000000180021538     user32:USER32.dll
 0002:00000540       __imp_UnionRect            0000000180021540     user32:USER32.dll
 0002:00000548       __imp_IntersectRect        0000000180021548     user32:USER32.dll
 0002:00000550       __imp_GetClientRect        0000000180021550     user32:USER32.dll
 0002:00000558       __imp_InvalidateRect       0000000180021558     user32:USER32.dll
 0002:00000560       __imp_SetWindowRgn         0000000180021560     user32:USER32.dll
 0002:00000568       __imp_EndPaint             0000000180021568     user32:USER32.dll
 0002:00000570       __imp_BeginPaint           0000000180021570     user32:USER32.dll
 0002:00000578       __imp_ReleaseDC            0000000180021578     user32:USER32.dll
 0002:00000580       __imp_GetDC                0000000180021580     user32:USER32.dll
 0002:00000588       __imp_GetKeyState          0000000180021588     user32:USER32.dll
 0002:00000590       __imp_GetFocus             0000000180021590     user32:USER32.dll
 0002:00000598       \177USER32_NULL_THUNK_DATA 0000000180021598     user32:USER32.dll
 0002:000005a0       __imp_CoCreateInstance     00000001800215a0     ole32:ole32.dll
 0002:000005a8       __imp_StringFromGUID2      00000001800215a8     ole32:ole32.dll
 0002:000005b0       __imp_CoTaskMemAlloc       00000001800215b0     ole32:ole32.dll
 0002:000005b8       __imp_CoTaskMemFree        00000001800215b8     ole32:ole32.dll
 0002:000005c0       __imp_ReadClassStm         00000001800215c0     ole32:ole32.dll
 0002:000005c8       __imp_WriteClassStm        00000001800215c8     ole32:ole32.dll
 0002:000005d0       __imp_CreateDataAdviseHolder 00000001800215d0     ole32:ole32.dll
 0002:000005d8       __imp_OleSaveToStream      00000001800215d8     ole32:ole32.dll
 0002:000005e0       __imp_CreateOleAdviseHolder 00000001800215e0     ole32:ole32.dll
 0002:000005e8       __imp_OleRegGetUserType    00000001800215e8     ole32:ole32.dll
 0002:000005f0       __imp_OleRegGetMiscStatus  00000001800215f0     ole32:ole32.dll
 0002:000005f8       __imp_OleRegEnumVerbs      00000001800215f8     ole32:ole32.dll
 0002:00000600       __imp_CLSIDFromProgID      0000000180021600     ole32:ole32.dll
 0002:00000608       __imp_CoTaskMemRealloc     0000000180021608     ole32:ole32.dll
 0002:00000610       \177ole32_NULL_THUNK_DATA  0000000180021610     ole32:ole32.dll
 0002:00000618       __guard_check_icall_fptr   0000000180021618     LIBCMT:guard_support.obj
 0002:00000620       __guard_dispatch_icall_fptr 0000000180021620     LIBCMT:guard_support.obj
 0002:00000628       __xc_a                     0000000180021628     LIBCMT:initializers.obj
 0002:00000658       __xc_z                     0000000180021658     LIBCMT:initializers.obj
 0002:00000660       __xi_a                     0000000180021660     LIBCMT:initializers.obj
 0002:00000670       __acrt_stdio_initializer   0000000180021670     libucrt:stdio_initializer.obj
 0002:00000678       __acrt_multibyte_initializer 0000000180021678     libucrt:multibyte_initializer.obj
 0002:00000680       __acrt_tran_fma3_initializer 0000000180021680     libucrt:fma3_initializer.obj
 0002:00000688       __xi_z                     0000000180021688     LIBCMT:initializers.obj
 0002:00000690       __xl_a                     0000000180021690     LIBCMT:tlssup.obj
 0002:00000698       __xl_z                     0000000180021698     LIBCMT:tlssup.obj
 0002:000006a0       __xp_a                     00000001800216a0     LIBCMT:initializers.obj
 0002:000006a8       __acrt_locale_terminator   00000001800216a8     libucrt:locale_initializer.obj
 0002:000006b0       __dcrt_console_output_terminator 00000001800216b0     libucrt:console_output_initializer.obj
 0002:000006b8       __acrt_stdio_terminator    00000001800216b8     libucrt:stdio_initializer.obj
 0002:000006c0       __xp_z                     00000001800216c0     LIBCMT:initializers.obj
 0002:000006c8       __xt_a                     00000001800216c8     LIBCMT:initializers.obj
 0002:000006d0       __xt_z                     00000001800216d0     LIBCMT:initializers.obj
 0002:000006e0       ??_C@_13HADIAKP@?$AAS@     00000001800216e0     OposVariant.obj
 0002:000006e4       ??_C@_13LHMFKAAD@?$AAM@    00000001800216e4     OposVariant.obj
 0002:000006e8       ??_C@_13MKMNOPIJ@?$AAD@    00000001800216e8     OposVariant.obj
 0002:000006ec       ??_C@_13OPKGLAFF@?$AAB@    00000001800216ec     OposVariant.obj
 0002:000006f0       ??_C@_17LLMMEOJD@?$AAV?$AAa?$AAl@ 00000001800216f0     OposVariant.obj
 0002:000006f8       ??_C@_1BI@JFAIJMHL@?$AAF?$AAo?$AAr?$AAc?$AAe?$AAR?$AAe?$AAm?$AAo?$AAv?$AAe@ 00000001800216f8     OposVariant.obj
 0002:00000710       ??_C@_1BC@GCKHIPE@?$AAN?$AAo?$AAR?$AAe?$AAm?$AAo?$AAv?$AAe@ 0000000180021710     OposVariant.obj
 0002:00000728       ??_C@_1O@JDLOHAN@?$AAD?$AAe?$AAl?$AAe?$AAt?$AAe@ 0000000180021728     OposVariant.obj
 0002:00000738       ??_C@_11LOCGONAA@@         0000000180021738     OposVariant.obj
 0002:00000740       ??_7?$CComObjectCached@VCComClassFactory@ATL@@@ATL@@6B@ 0000000180021740     CashDrawer.obj
 0002:00000770       _GUID_00000112_0000_0000_c000_000000000046 0000000180021770     CashDrawer.obj
 0002:00000780       _GUID_3af24292_0c96_11ce_a0cf_00aa00600ab8 0000000180021780     CashDrawer.obj
 0002:00000790       _GUID_00000127_0000_0000_c000_000000000046 0000000180021790     CashDrawer.obj
 0002:000007a0       _GUID_0000010d_0000_0000_c000_000000000046 00000001800217a0     CashDrawer.obj
 0002:000007b0       ??_C@_1M@PPPPCDEP@?$AAA?$AAP?$AAP?$AAI?$AAD@ 00000001800217b0     CashDrawer.obj
 0002:000007c0       ??_C@_1BK@BIGILECK@?$AAA?$AAd?$AAv?$AAa?$AAp?$AAi?$AA3?$AA2?$AA?4?$AAd?$AAl?$AAl@ 00000001800217c0     CashDrawer.obj
 0002:000007e0       ??_C@_0BI@MNCFCPFK@RegCreateKeyTransactedW@ 00000001800217e0     CashDrawer.obj
 0002:000007f8       ??_7?$CComContainedObject@VCOPOSCashDrawer@@@ATL@@6B?$IDispatchImpl@UIOPOSCashDrawer@@$1?IID_IOPOSCashDrawer@@3U_GUID@@B$1?LIBID_OposCashDrawer_CCO@@3U3@B$00$0A@VCComTypeInfoHolder@ATL@@@1@@ 00000001800217f8     CashDrawer.obj
 0002:000009b0       ??_7?$CComContainedObject@VCOPOSCashDrawer@@@ATL@@6BCComControlBase@1@@ 00000001800219b0     CashDrawer.obj
 0002:000009d8       ??_7?$CComContainedObject@VCOPOSCashDrawer@@@ATL@@6B?$CWindowImpl@VCOPOSCashDrawer@@VCWindow@ATL@@V?$CWinTraits@$0FGAAAAAA@$0A@@3@@1@@ 00000001800219d8     CashDrawer.obj
 0002:000009f8       ??_7?$CComContainedObject@VCOPOSCashDrawer@@@ATL@@6B?$IPersistStreamInitImpl@VCOPOSCashDrawer@@@1@@ 00000001800219f8     CashDrawer.obj
 0002:00000a40       ??_7?$CComContainedObject@VCOPOSCashDrawer@@@ATL@@6B?$IOleControlImpl@VCOPOSCashDrawer@@@1@@ 0000000180021a40     CashDrawer.obj
 0002:00000a78       ??_7?$CComContainedObject@VCOPOSCashDrawer@@@ATL@@6B?$IOleObjectImpl@VCOPOSCashDrawer@@@1@@ 0000000180021a78     CashDrawer.obj
 0002:00000b38       ??_7?$CComContainedObject@VCOPOSCashDrawer@@@ATL@@6B?$IOleInPlaceActiveObjectImpl@VCOPOSCashDrawer@@@1@@ 0000000180021b38     CashDrawer.obj
 0002:00000b88       ??_7?$CComContainedObject@VCOPOSCashDrawer@@@ATL@@6B?$IViewObjectExImpl@VCOPOSCashDrawer@@@1@@ 0000000180021b88     CashDrawer.obj
 0002:00000c00       ??_7?$CComContainedObject@VCOPOSCashDrawer@@@ATL@@6B?$IOleInPlaceObjectWindowlessImpl@VCOPOSCashDrawer@@@1@@ 0000000180021c00     CashDrawer.obj
 0002:00000c58       ??_7?$CComContainedObject@VCOPOSCashDrawer@@@ATL@@6B?$IConnectionPointContainerImpl@VCOPOSCashDrawer@@@1@@ 0000000180021c58     CashDrawer.obj
 0002:00000c80       ??_7?$CComContainedObject@VCOPOSCashDrawer@@@ATL@@6B?$IPersistStorageImpl@VCOPOSCashDrawer@@@1@@ 0000000180021c80     CashDrawer.obj
 0002:00000cd0       ??_7?$CComContainedObject@VCOPOSCashDrawer@@@ATL@@6B?$ISpecifyPropertyPagesImpl@VCOPOSCashDrawer@@@1@@ 0000000180021cd0     CashDrawer.obj
 0002:00000cf0       ??_7?$CComContainedObject@VCOPOSCashDrawer@@@ATL@@6B?$IQuickActivateImpl@VCOPOSCashDrawer@@@1@@ 0000000180021cf0     CashDrawer.obj
 0002:00000d20       ??_7?$CComContainedObject@VCOPOSCashDrawer@@@ATL@@6B?$IDataObjectImpl@VCOPOSCashDrawer@@@1@@ 0000000180021d20     CashDrawer.obj
 0002:00000d80       ??_7?$CComContainedObject@VCOPOSCashDrawer@@@ATL@@6B?$IProvideClassInfo2Impl@$1?CLSID_OPOSCashDrawer@@3U_GUID@@B$1?DIID__IOPOSCashDrawerEvents@@3U2@B$1?LIBID_OposCashDrawer_CCO@@3U2@B$00$0A@VCComTypeInfoHolder@ATL@@@1@@ 0000000180021d80     CashDrawer.obj
 0002:00000da8       ??_7?$CComContainedObject@VCOPOSCashDrawer@@@ATL@@6B?$IObjectSafetyImpl@VCOPOSCashDrawer@@$02@1@@ 0000000180021da8     CashDrawer.obj
 0002:00000dd8       ??_7?$CComContainedObject@VCOPOSCashDrawer@@@ATL@@6B?$IPropertyNotifySinkCP@VCOPOSCashDrawer@@VCComDynamicUnkArray@ATL@@@1@@ 0000000180021dd8     CashDrawer.obj
 0002:00000e18       ??_7?$CComContainedObject@VCOPOSCashDrawer@@@ATL@@6B?$CProxy_IOPOSEvents@VCOPOSCashDrawer@@@@@ 0000000180021e18     CashDrawer.obj
 0002:00000e58       ??_7?$CComAggObject@VCOPOSCashDrawer@@@ATL@@6B@ 0000000180021e58     CashDrawer.obj
 0002:00000e78       ??_7?$CComObject@VCOPOSCashDrawer@@@ATL@@6B?$IDispatchImpl@UIOPOSCashDrawer@@$1?IID_IOPOSCashDrawer@@3U_GUID@@B$1?LIBID_OposCashDrawer_CCO@@3U3@B$00$0A@VCComTypeInfoHolder@ATL@@@1@@ 0000000180021e78     CashDrawer.obj
 0002:00001030       ??_7?$CComObject@VCOPOSCashDrawer@@@ATL@@6BCComControlBase@1@@ 0000000180022030     CashDrawer.obj
 0002:00001058       ??_7?$CComObject@VCOPOSCashDrawer@@@ATL@@6B?$CWindowImpl@VCOPOSCashDrawer@@VCWindow@ATL@@V?$CWinTraits@$0FGAAAAAA@$0A@@3@@1@@ 0000000180022058     CashDrawer.obj
 0002:00001078       ??_7?$CComObject@VCOPOSCashDrawer@@@ATL@@6B?$IPersistStreamInitImpl@VCOPOSCashDrawer@@@1@@ 0000000180022078     CashDrawer.obj
 0002:000010c0       ??_7?$CComObject@VCOPOSCashDrawer@@@ATL@@6B?$IOleControlImpl@VCOPOSCashDrawer@@@1@@ 00000001800220c0     CashDrawer.obj
 0002:000010f8       ??_7?$CComObject@VCOPOSCashDrawer@@@ATL@@6B?$IOleObjectImpl@VCOPOSCashDrawer@@@1@@ 00000001800220f8     CashDrawer.obj
 0002:000011b8       ??_7?$CComObject@VCOPOSCashDrawer@@@ATL@@6B?$IOleInPlaceActiveObjectImpl@VCOPOSCashDrawer@@@1@@ 00000001800221b8     CashDrawer.obj
 0002:00001208       ??_7?$CComObject@VCOPOSCashDrawer@@@ATL@@6B?$IViewObjectExImpl@VCOPOSCashDrawer@@@1@@ 0000000180022208     CashDrawer.obj
 0002:00001280       ??_7?$CComObject@VCOPOSCashDrawer@@@ATL@@6B?$IOleInPlaceObjectWindowlessImpl@VCOPOSCashDrawer@@@1@@ 0000000180022280     CashDrawer.obj
 0002:000012d8       ??_7?$CComObject@VCOPOSCashDrawer@@@ATL@@6B?$IConnectionPointContainerImpl@VCOPOSCashDrawer@@@1@@ 00000001800222d8     CashDrawer.obj
 0002:00001300       ??_7?$CComObject@VCOPOSCashDrawer@@@ATL@@6B?$IPersistStorageImpl@VCOPOSCashDrawer@@@1@@ 0000000180022300     CashDrawer.obj
 0002:00001350       ??_7?$CComObject@VCOPOSCashDrawer@@@ATL@@6B?$ISpecifyPropertyPagesImpl@VCOPOSCashDrawer@@@1@@ 0000000180022350     CashDrawer.obj
 0002:00001370       ??_7?$CComObject@VCOPOSCashDrawer@@@ATL@@6B?$IQuickActivateImpl@VCOPOSCashDrawer@@@1@@ 0000000180022370     CashDrawer.obj
 0002:000013a0       ??_7?$CComObject@VCOPOSCashDrawer@@@ATL@@6B?$IDataObjectImpl@VCOPOSCashDrawer@@@1@@ 00000001800223a0     CashDrawer.obj
 0002:00001400       ??_7?$CComObject@VCOPOSCashDrawer@@@ATL@@6B?$IProvideClassInfo2Impl@$1?CLSID_OPOSCashDrawer@@3U_GUID@@B$1?DIID__IOPOSCashDrawerEvents@@3U2@B$1?LIBID_OposCashDrawer_CCO@@3U2@B$00$0A@VCComTypeInfoHolder@ATL@@@1@@ 0000000180022400     CashDrawer.obj
 0002:00001428       ??_7?$CComObject@VCOPOSCashDrawer@@@ATL@@6B?$IObjectSafetyImpl@VCOPOSCashDrawer@@$02@1@@ 0000000180022428     CashDrawer.obj
 0002:00001458       ??_7?$CComObject@VCOPOSCashDrawer@@@ATL@@6B?$IPropertyNotifySinkCP@VCOPOSCashDrawer@@VCComDynamicUnkArray@ATL@@@1@@ 0000000180022458     CashDrawer.obj
 0002:00001498       ??_7?$CComObject@VCOPOSCashDrawer@@@ATL@@6B?$CProxy_IOPOSEvents@VCOPOSCashDrawer@@@@@ 0000000180022498     CashDrawer.obj
 0002:000014d8       _GUID_b196b287_bab4_101a_b69c_00aa00341d07 00000001800224d8     CashDrawer.obj
 0002:000014e8       _GUID_b196b285_bab4_101a_b69c_00aa00341d07 00000001800224e8     CashDrawer.obj
 0002:000014f8       ??_C@_1O@GBFKGNEO@?$AAA?$AAT?$AAL?$AA?3?$AA?$CF?$AAp@ 00000001800224f8     CashDrawer.obj
 0002:00001508       ??_C@_1BA@PICGEGJB@?$AAD?$AAI?$AAS?$AAP?$AAL?$AAA?$AAY@ 0000000180022508     CashDrawer.obj
 0002:00001518       _GUID_a6bc3ac0_dbaa_11ce_9de3_00aa004bb851 0000000180022518     CashDrawer.obj
 0002:00001528       _GUID_0000010c_0000_0000_c000_000000000046 0000000180022528     CashDrawer.obj
 0002:00001538       _GUID_9bfbbc02_eff1_101a_84ed_00aa00341d07 0000000180022538     CashDrawer.obj
 0002:00001548       ?_entries@?1??_GetEntries@?$CComEnum@UIEnumConnectionPoints@@$1?_GUID_b196b285_bab4_101a_b69c_00aa00341d07@@3U__s_GUID@@BPEAUIConnectionPoint@@V?$_CopyInterface@UIConnectionPoint@@@ATL@@VCComSingleThreadModel@6@@ATL@@SAPEBU_ATL_INTMAP_ENTRY@3@XZ@4QBU43@B 0000000180022548     CashDrawer.obj
 0002:00001578       _GUID_00000146_0000_0000_c000_000000000046 0000000180022578     CashDrawer.obj
 0002:00001588       _GUID_00020412_0000_0000_c000_000000000046 0000000180022588     CashDrawer.obj
 0002:00001598       _GUID_00020401_0000_0000_c000_000000000046 0000000180022598     CashDrawer.obj
 0002:000015a8       ??_7CComModule@ATL@@6B@    00000001800225a8     CashDrawer.obj
 0002:000015f8       _GUID_00000000_0000_0000_c000_000000000046 00000001800225f8     CashDrawer.obj
 0002:00001608       _GUID_00020400_0000_0000_c000_000000000046 0000000180022608     CashDrawer.obj
 0002:00001618       ??_7?$CComObject@V?$CComEnum@UIEnumConnections@@$1?_GUID_b196b287_bab4_101a_b69c_00aa00341d07@@3U__s_GUID@@BUtagCONNECTDATA@@V?$_Copy@UtagCONNECTDATA@@@ATL@@VCComSingleThreadModel@6@@ATL@@@ATL@@6B@ 0000000180022618     CashDrawer.obj
 0002:00001658       _GUID_55980ba0_35aa_11cf_b671_00aa004cd6d8 0000000180022658     CashDrawer.obj
 0002:00001668       _GUID_b196b28b_bab4_101a_b69c_00aa00341d07 0000000180022668     CashDrawer.obj
 0002:00001678       ??_C@_1M@KANJNLFF@?$AAC?$AAL?$AAS?$AAI?$AAD@ 0000000180022678     CashDrawer.obj
 0002:00001688       ??_C@_1M@EJNEECMJ@?$AAA?$AAp?$AAp?$AAI?$AAD@ 0000000180022688     CashDrawer.obj
 0002:00001698       ?_entries@?1??_GetEntries@?$CComEnum@UIEnumConnections@@$1?_GUID_b196b287_bab4_101a_b69c_00aa00341d07@@3U__s_GUID@@BUtagCONNECTDATA@@V?$_Copy@UtagCONNECTDATA@@@ATL@@VCComSingleThreadModel@6@@ATL@@SAPEBU_ATL_INTMAP_ENTRY@3@XZ@4QBU43@B 0000000180022698     CashDrawer.obj
 0002:000016d0       ?rgszNeverDelete@CRegParser@ATL@@1QBQEB_WB 00000001800226d0     CashDrawer.obj
 0002:00001730       ??_7CRegObject@ATL@@6B@    0000000180022730     CashDrawer.obj
 0002:00001760       ??_C@_1CK@OEKPKBNA@?$AAC?$AAo?$AAm?$AAp?$AAo?$AAn?$AAe?$AAn?$AAt?$AA?5?$AAC?$AAa?$AAt?$AAe?$AAg@ 0000000180022760     CashDrawer.obj
 0002:00001790       ??_C@_1BC@NKMMNMGL@?$AAF?$AAi?$AAl?$AAe?$AAT?$AAy?$AAp?$AAe@ 0000000180022790     CashDrawer.obj
 0002:000017a8       ??_C@_1BE@EKPAFMCP@?$AAI?$AAn?$AAt?$AAe?$AAr?$AAf?$AAa?$AAc?$AAe@ 00000001800227a8     CashDrawer.obj
 0002:000017c0       ??_C@_1BC@MAICEHGI@?$AAH?$AAa?$AAr?$AAd?$AAw?$AAa?$AAr?$AAe@ 00000001800227c0     CashDrawer.obj
 0002:000017d8       ??_C@_19HLLLM@?$AAM?$AAi?$AAm?$AAe@ 00000001800227d8     CashDrawer.obj
 0002:000017e8       ??_C@_17OMAOINJK@?$AAS?$AAA?$AAM@ 00000001800227e8     CashDrawer.obj
 0002:000017f0       ??_C@_1BC@IBECJAAI@?$AAS?$AAE?$AAC?$AAU?$AAR?$AAI?$AAT?$AAY@ 00000001800227f0     CashDrawer.obj
 0002:00001808       ??_C@_1O@GBFINDKL@?$AAS?$AAY?$AAS?$AAT?$AAE?$AAM@ 0000000180022808     CashDrawer.obj
 0002:00001818       ??_C@_1BC@EAHCMADO@?$AAS?$AAo?$AAf?$AAt?$AAw?$AAa?$AAr?$AAe@ 0000000180022818     CashDrawer.obj
 0002:00001830       ??_C@_1BA@JIHHIEDE@?$AAT?$AAy?$AAp?$AAe?$AAL?$AAi?$AAb@ 0000000180022830     CashDrawer.obj
 0002:00001840       ?map@?1??HKeyFromString@CRegParser@ATL@@KAPEAUHKEY__@@PEA_W@Z@4QBUkeymap@?1??123@KAPEAU4@0@Z@B 0000000180022840     CashDrawer.obj
 0002:00001920       ??_C@_19NCHLBIN@?$AAH?$AAK?$AAC?$AAR@ 0000000180022920     CashDrawer.obj
 0002:00001930       ??_C@_19JAPAIJDE@?$AAH?$AAK?$AAC?$AAU@ 0000000180022930     CashDrawer.obj
 0002:00001940       ??_C@_19PEALEEJB@?$AAH?$AAK?$AAL?$AAM@ 0000000180022940     CashDrawer.obj
 0002:00001950       ??_C@_17PJOJPMPB@?$AAH?$AAK?$AAU@ 0000000180022950     CashDrawer.obj
 0002:00001958       ??_C@_19PNBHMJPL@?$AAH?$AAK?$AAP?$AAD@ 0000000180022958     CashDrawer.obj
 0002:00001968       ??_C@_19GFFAIJHG@?$AAH?$AAK?$AAD?$AAD@ 0000000180022968     CashDrawer.obj
 0002:00001978       ??_C@_19OFICIBHH@?$AAH?$AAK?$AAC?$AAC@ 0000000180022978     CashDrawer.obj
 0002:00001988       ??_C@_1CE@PACHPJFI@?$AAH?$AAK?$AAE?$AAY?$AA_?$AAC?$AAL?$AAA?$AAS?$AAS?$AAE?$AAS?$AA_?$AAR?$AAO@ 0000000180022988     CashDrawer.obj
 0002:000019b0       ??_C@_1CE@HLHNCBPM@?$AAH?$AAK?$AAE?$AAY?$AA_?$AAC?$AAU?$AAR?$AAR?$AAE?$AAN?$AAT?$AA_?$AAU?$AAS@ 00000001800229b0     CashDrawer.obj
 0002:000019d8       ??_C@_1CG@GFBEANJL@?$AAH?$AAK?$AAE?$AAY?$AA_?$AAL?$AAO?$AAC?$AAA?$AAL?$AA_?$AAM?$AAA?$AAC?$AAH@ 00000001800229d8     CashDrawer.obj
 0002:00001a00       ??_C@_1BG@BGODANIO@?$AAH?$AAK?$AAE?$AAY?$AA_?$AAU?$AAS?$AAE?$AAR?$AAS@ 0000000180022a00     CashDrawer.obj
 0002:00001a18       ??_C@_1CM@KHNNAOIC@?$AAH?$AAK?$AAE?$AAY?$AA_?$AAP?$AAE?$AAR?$AAF?$AAO?$AAR?$AAM?$AAA?$AAN?$AAC@ 0000000180022a18     CashDrawer.obj
 0002:00001a48       ??_C@_1BM@HAGMMHIA@?$AAH?$AAK?$AAE?$AAY?$AA_?$AAD?$AAY?$AAN?$AA_?$AAD?$AAA?$AAT?$AAA@ 0000000180022a48     CashDrawer.obj
 0002:00001a68       ??_C@_1CI@BBJOACGG@?$AAH?$AAK?$AAE?$AAY?$AA_?$AAC?$AAU?$AAR?$AAR?$AAE?$AAN?$AAT?$AA_?$AAC?$AAO@ 0000000180022a68     CashDrawer.obj
 0002:00001a90       _GUID_00000109_0000_0000_c000_000000000046 0000000180022a90     CashDrawer.obj
 0002:00001aa0       _GUID_7fd52380_4e07_101b_ae2d_08002b2ec713 0000000180022aa0     CashDrawer.obj
 0002:00001ab0       ??_C@_1EA@NHKLICFA@?$AAH?$AAK?$AAC?$AAU?$AA?$AN?$AA?6?$AA?$HL?$AA?7?$AAS?$AAo?$AAf?$AAt?$AAw?$AAa?$AAr@ 0000000180022ab0     CashDrawer.obj
 0002:00001af0       ??_C@_1BE@LJOLIMEM@?$AA?$AN?$AA?6?$AA?7?$AA?$HN?$AA?$AN?$AA?6?$AA?$HN?$AA?$AN?$AA?6@ 0000000180022af0     CashDrawer.obj
 0002:00001b08       ??_C@_1O@MNLDABAF@?$AAM?$AAo?$AAd?$AAu?$AAl?$AAe@ 0000000180022b08     CashDrawer.obj
 0002:00001b18       ??_C@_1BG@JBACFMF@?$AAM?$AAo?$AAd?$AAu?$AAl?$AAe?$AA_?$AAR?$AAa?$AAw@ 0000000180022b18     CashDrawer.obj
 0002:00001b30       ??_C@_1BC@KAILKFFG@?$AAR?$AAE?$AAG?$AAI?$AAS?$AAT?$AAR?$AAY@ 0000000180022b30     CashDrawer.obj
 0002:00001b48       IID_IOPOSCashDrawer_1_5    0000000180022b48     CashDrawer.obj
 0002:00001b58       IID_IOPOSCashDrawer_1_8    0000000180022b58     CashDrawer.obj
 0002:00001b68       IID_IOPOSCashDrawer_1_9    0000000180022b68     CashDrawer.obj
 0002:00001b78       IID_IOPOSCashDrawer        0000000180022b78     CashDrawer.obj
 0002:00001b88       LIBID_OposCashDrawer_CCO   0000000180022b88     CashDrawer.obj
 0002:00001b98       DIID__IOPOSCashDrawerEvents 0000000180022b98     CashDrawer.obj
 0002:00001ba8       CLSID_OPOSCashDrawer       0000000180022ba8     CashDrawer.obj
 0002:00001bb8       _GUID_00000114_0000_0000_c000_000000000046 0000000180022bb8     CashDrawer.obj
 0002:00001bc8       _GUID_b196b284_bab4_101a_b69c_00aa00341d07 0000000180022bc8     CashDrawer.obj
 0002:00001be0       ?_entries@?1??_GetEntries@COPOSCashDrawer@@SAPEBU_ATL_INTMAP_ENTRY@ATL@@XZ@4QBU34@B 0000000180022be0     CashDrawer.obj
 0002:00001e50       _GUID_cf51ed10_62fe_11cf_bf86_00a0c9034836 0000000180022e50     CashDrawer.obj
 0002:00001e60       _GUID_0000010a_0000_0000_c000_000000000046 0000000180022e60     CashDrawer.obj
 0002:00001e70       _GUID_b196b283_bab4_101a_b69c_00aa00341d07 0000000180022e70     CashDrawer.obj
 0002:00001e80       _GUID_cb5bdc81_93c1_11cf_8f20_00805f2cd064 0000000180022e80     CashDrawer.obj
 0002:00001e90       ?pPropMap@?1??GetPropertyMap@COPOSCashDrawer@@SAPEBUATL_PROPMAP_ENTRY@ATL@@XZ@4QBU34@B 0000000180022e90     CashDrawer.obj
 0002:00001f38       ??_C@_17DGDADEHL@?$AA_?$AAc?$AAx@ 0000000180022f38     CashDrawer.obj
 0002:00001f40       ??_C@_17IOIMFDBO@?$AA_?$AAc?$AAy@ 0000000180022f40     CashDrawer.obj
 0002:00001f48       _GUID_b196b286_bab4_101a_b69c_00aa00341d07 0000000180022f48     CashDrawer.obj
 0002:00001f58       ??_C@_1CE@PGFMOFKI@?$AAS?$AAt?$AAa?$AAt?$AAu?$AAs?$AAU?$AAp?$AAd?$AAa?$AAt?$AAe?$AAE?$AAv?$AAe@ 0000000180022f58     CashDrawer.obj
 0002:00001f80       ??_C@_1BM@CBGEBBBJ@?$AAD?$AAi?$AAr?$AAe?$AAc?$AAt?$AAI?$AAO?$AAE?$AAv?$AAe?$AAn?$AAt@ 0000000180022f80     CashDrawer.obj
 0002:00001fa0       _GUID_922eada0_3424_11cf_b670_00aa004cd6d8 0000000180022fa0     CashDrawer.obj
 0002:00001fb0       _GUID_9c2cad80_3424_11cf_b670_00aa004cd6d8 0000000180022fb0     CashDrawer.obj
 0002:00001fc0       _GUID_00000119_0000_0000_c000_000000000046 0000000180022fc0     CashDrawer.obj
 0002:00001fd0       _GUID_b196b289_bab4_101a_b69c_00aa00341d07 0000000180022fd0     CashDrawer.obj
 0002:00001fe0       ??_C@_1BC@ENICKDH@?$AAC?$AAo?$AAn?$AAt?$AAe?$AAn?$AAt?$AAs@ 0000000180022fe0     CashDrawer.obj
 0002:00001ff8       _GUID_00000117_0000_0000_c000_000000000046 0000000180022ff8     CashDrawer.obj
 0002:00002008       ??_7?$CComObject@V?$CComEnum@UIEnumConnectionPoints@@$1?_GUID_b196b285_bab4_101a_b69c_00aa00341d07@@3U__s_GUID@@BPEAUIConnectionPoint@@V?$_CopyInterface@UIConnectionPoint@@@ATL@@VCComSingleThreadModel@6@@ATL@@@ATL@@6B@ 0000000180023008     CashDrawer.obj
 0002:00002048       ??_7CComClassFactory@ATL@@6B@ 0000000180023048     CashDrawer.obj
 0002:00002078       ?_entries@?1??_GetEntries@CComClassFactory@ATL@@SAPEBU_ATL_INTMAP_ENTRY@3@XZ@4QBU43@B 0000000180023078     CashDrawer.obj
 0002:000020a8       _GUID_00000001_0000_0000_c000_000000000046 00000001800230a8     CashDrawer.obj
 0002:000020b8       _GUID_0000010e_0000_0000_c000_000000000046 00000001800230b8     CashDrawer.obj
 0002:000020c8       _GUID_b196b288_bab4_101a_b69c_00aa00341d07 00000001800230c8     CashDrawer.obj
 0002:000020d8       _GUID_00000113_0000_0000_c000_000000000046 00000001800230d8     CashDrawer.obj
 0002:000020e8       _GUID_1c2056cc_5ef4_101b_8bc8_00aa003e3b29 00000001800230e8     CashDrawer.obj
 0002:000020f8       ??_C@_0BG@EKFFMJIO@RegOpenKeyTransactedW@ 00000001800230f8     CashDrawer.obj
 0002:00002110       ??_C@_0BI@HAKLOOGP@RegDeleteKeyTransactedW@ 0000000180023110     CashDrawer.obj
 0002:00002128       ??_C@_0BA@LILAPHGE@RegDeleteKeyExW@ 0000000180023128     CashDrawer.obj
 0002:00002138       ??_C@_19ILOCMLCJ@?$AA?4?$AAt?$AAl?$AAb@ 0000000180023138     CashDrawer.obj
 0002:00002148       _GUID_0002e012_0000_0000_c000_000000000046 0000000180023148     CashDrawer.obj
 0002:00002158       ??_C@_1O@FHBGLCIO@?$AAC?$AAL?$AAS?$AAI?$AAD?$AA?2@ 0000000180023158     CashDrawer.obj
 0002:00002168       ??_C@_1CK@IFBKBFAA@?$AA?2?$AAR?$AAe?$AAq?$AAu?$AAi?$AAr?$AAe?$AAd?$AA?5?$AAC?$AAa?$AAt?$AAe?$AAg@ 0000000180023168     CashDrawer.obj
 0002:00002198       ??_C@_1DA@BIHALFED@?$AA?2?$AAI?$AAm?$AAp?$AAl?$AAe?$AAm?$AAe?$AAn?$AAt?$AAe?$AAd?$AA?5?$AAC?$AAa@ 0000000180023198     CashDrawer.obj
 0002:000021c8       ??_C@_1BK@EDKOLFBJ@?$AAO?$AAL?$AAE?$AAA?$AAU?$AAT?$AA3?$AA2?$AA?4?$AAD?$AAL?$AAL@ 00000001800231c8     CashDrawer.obj
 0002:000021e8       ??_C@_0BJ@CNLFOMHB@UnRegisterTypeLibForUser@ 00000001800231e8     CashDrawer.obj
 0002:00002208       ??_C@_0BH@LBOMMKPJ@RegisterTypeLibForUser@ 0000000180023208     CashDrawer.obj
 0002:00002220       ??_C@_0P@MMNMMLGK@COFreezeEvents@ 0000000180023220     CashDrawerImpl.obj
 0002:00002230       ??_C@_0BC@OGCGGIMP@GetPropertyNumber@ 0000000180023230     CashDrawerImpl.obj
 0002:00002248       ??_C@_0BC@MDCNODNB@SetPropertyNumber@ 0000000180023248     CashDrawerImpl.obj
 0002:00002260       ??_C@_0BC@CFCCMIMD@GetPropertyString@ 0000000180023260     CashDrawerImpl.obj
 0002:00002278       ??_C@_0BC@CJEDNN@SetPropertyString@ 0000000180023278     CashDrawerImpl.obj
 0002:00002290       ??_C@_0M@LNPKKKDA@OpenService@ 0000000180023290     CashDrawerImpl.obj
 0002:000022a0       ??_C@_0M@PCMCHHMH@CheckHealth@ 00000001800232a0     CashDrawerImpl.obj
 0002:000022b0       ??_C@_0M@JGMIDNEK@ClaimDevice@ 00000001800232b0     CashDrawerImpl.obj
 0002:000022c0       ??_C@_0N@DDFIIBMP@CloseService@ 00000001800232c0     CashDrawerImpl.obj
 0002:000022d0       ??_C@_08EEIHICPC@DirectIO@ 00000001800232d0     CashDrawerImpl.obj
 0002:000022e0       ??_C@_0O@BCPMENMJ@ReleaseDevice@ 00000001800232e0     CashDrawerImpl.obj
 0002:000022f0       ??_C@_0L@DBFHJAH@OpenDrawer@ 00000001800232f0     CashDrawerImpl.obj
 0002:00002300       ??_C@_0BD@OMLIOAJI@WaitForDrawerClose@ 0000000180023300     CashDrawerImpl.obj
 0002:00002318       ??_C@_0BA@GFABKEEE@ResetStatistics@ 0000000180023318     CashDrawerImpl.obj
 0002:00002328       ??_C@_0BD@DPALHJGC@RetrieveStatistics@ 0000000180023328     CashDrawerImpl.obj
 0002:00002340       ??_C@_0BB@KOHIKNFC@UpdateStatistics@ 0000000180023340     CashDrawerImpl.obj
 0002:00002358       ??_C@_0BH@PBKBNMGB@CompareFirmwareVersion@ 0000000180023358     CashDrawerImpl.obj
 0002:00002370       ??_C@_0P@FBPDPIPA@UpdateFirmware@ 0000000180023370     CashDrawerImpl.obj
 0002:00002380       ??_7?$CProxy_IOPOSEvents@VCOPOSCashDrawer@@@@6B@ 0000000180023380     CashDrawerImpl.obj
 0002:000023c0       ??_C@_1BA@IFHENID@?$AA?$FL?$AAE?$AAr?$AAr?$AAo?$AAr?$AA?$FN@ 00000001800233c0     CashDrawerImpl.obj
 0002:000023d0       ??_C@_0CN@FIMOCEHP@SOFTWARE?2OLEforRetail?2ServiceOP@ 00000001800233d0     CashDrawerImpl.obj
 0002:00002400       ??_C@_1M@IAIJHCCH@?$AAC?$AAl?$AAo?$AAs?$AAe@ 0000000180023400     CashDrawerImpl.obj
 0002:00002410       ??_C@_1M@PCPKGJAH@?$AAC?$AAl?$AAa?$AAi?$AAm@ 0000000180023410     CashDrawerImpl.obj
 0002:00002420       ??_C@_1BA@NDFKIOCP@?$AAR?$AAe?$AAl?$AAe?$AAa?$AAs?$AAe@ 0000000180023420     CashDrawerImpl.obj
 0002:00002430       ??_C@_0L@NINGDDGK@CashDrawer@ 0000000180023430     CashDrawerImpl.obj
 0002:00002440       ??_C@_1BM@IJMNMBPK@?$AAG?$AAe?$AAt?$AAO?$AAp?$AAe?$AAn?$AAR?$AAe?$AAs?$AAu?$AAl?$AAt@ 0000000180023440     CashDrawerImpl.obj
 0002:00002460       IID_IPropertyNotifySink    0000000180023460     uuid:ocidl_i.obj
 0002:00002470       IID_IDispatch              0000000180023470     uuid:oaidl_i.obj
 0002:00002480       GUID_NULL                  0000000180023480     uuid:cguid_i.obj
 0002:00002490       CLSID_StdGlobalInterfaceTable 0000000180023490     uuid:cguid_i.obj
 0002:000024a0       CLSID_StdComponentCategoriesMgr 00000001800234a0     uuid:ieguids.obj
 0002:000024b0       IID_IUnknown               00000001800234b0     uuid:unknwn_i.obj
 0002:000024c0       __xmm@ffffffffffffffffffffffffffffffff 00000001800234c0     LIBCMT:utility.obj
 0002:000024d0       ??_C@_1EC@JIJBPKFM@?$AAa?$AAp?$AAi?$AA?9?$AAm?$AAs?$AA?9?$AAw?$AAi?$AAn?$AA?9?$AAc?$AAo?$AAr?$AAe@ 00000001800234d0     LIBCMT:thread_safe_statics.obj
 0002:00002518       ??_C@_1BK@MGMFAEKH@?$AAk?$AAe?$AAr?$AAn?$AAe?$AAl?$AA3?$AA2?$AA?4?$AAd?$AAl?$AAl@ 0000000180023518     LIBCMT:thread_safe_statics.obj
 0002:00002538       ??_C@_0BJ@JEBJOJFJ@SleepConditionVariableCS@ 0000000180023538     LIBCMT:thread_safe_statics.obj
 0002:00002558       ??_C@_0BJ@PGPPEPCC@WakeAllConditionVariable@ 0000000180023558     LIBCMT:thread_safe_statics.obj
 0002:00002571       ?nothrow@std@@3Unothrow_t@1@B 0000000180023571     LIBCMT:std_nothrow.obj
 0002:000025b0       _pDefaultRawDllMain        00000001800235b0     LIBCMT:dll_dllmain.obj
 0002:000025b0       _pRawDllMain               00000001800235b0     LIBCMT:dll_dllmain.obj
 0002:000025c0       ??_7exception@std@@6B@     00000001800235c0     LIBCMT:throw_bad_alloc.obj
 0002:000025d0       ??_C@_0BC@EOODALEL@Unknown?5exception@ 00000001800235d0     LIBCMT:throw_bad_alloc.obj
 0002:000025f0       ??_7bad_alloc@std@@6B@     00000001800235f0     LIBCMT:throw_bad_alloc.obj
 0002:00002600       ??_C@_0P@GHFPNOJB@bad?5allocation@ 0000000180023600     LIBCMT:throw_bad_alloc.obj
 0002:00002618       ??_7bad_array_new_length@std@@6B@ 0000000180023618     LIBCMT:throw_bad_alloc.obj
 0002:00002628       ??_C@_0BF@KINCDENJ@bad?5array?5new?5length@ 0000000180023628     LIBCMT:throw_bad_alloc.obj
 0002:00002648       ??_7type_info@@6B@         0000000180023648     LIBCMT:std_type_info_static.obj
 0002:00002650       GUID_ATLVer110             0000000180023650     atls:atlbase.obj
 0002:00002660       ??_C@_1IC@ONKHOIDK@?$AAE?$AAR?$AAR?$AAO?$AAR?$AA?5?$AA?3?$AA?5?$AAU?$AAn?$AAa?$AAb?$AAl?$AAe?$AA?5@ 0000000180023660     atls:atlbase.obj
 0002:000026e8       ??_C@_0N@FJEPLCIH@atlthunk?4dll@ 00000001800236e8     atls:atlthunk.obj
 0002:000026f8       ??_C@_0BG@GAKFHCBM@AtlThunk_AllocateData@ 00000001800236f8     atls:atlthunk.obj
 0002:00002710       ??_C@_0BC@JKONFIAH@AtlThunk_InitData@ 0000000180023710     atls:atlthunk.obj
 0002:00002728       ??_C@_0BE@IAOEELAK@AtlThunk_DataToCode@ 0000000180023728     atls:atlthunk.obj
 0002:00002740       ??_C@_0BC@GBGKAIPI@AtlThunk_FreeData@ 0000000180023740     atls:atlthunk.obj
 0002:00002840       _pDestructExceptionObject  0000000180023840     libvcruntime:ehhelpers.obj
 0002:00002850       ??_7bad_exception@std@@6B@ 0000000180023850     libvcruntime:frame.obj
 0002:00002860       ??_C@_0O@DPKOEFFH@bad?5exception@ 0000000180023860     libvcruntime:frame.obj
 0002:00002bb0       ??_C@_08EHJDFFNH@__based?$CI@ 0000000180023bb0     libvcruntime:undname.obj
 0002:00002bc0       ??_C@_07KOLFKCDI@__cdecl@  0000000180023bc0     libvcruntime:undname.obj
 0002:00002bc8       ??_C@_08GHMPAG@__pascal@   0000000180023bc8     libvcruntime:undname.obj
 0002:00002bd8       ??_C@_09IFJBGAPI@__stdcall@ 0000000180023bd8     libvcruntime:undname.obj
 0002:00002be8       ??_C@_0L@NPHFGOKO@__thiscall@ 0000000180023be8     libvcruntime:undname.obj
 0002:00002bf8       ??_C@_0L@JMKHOMEK@__fastcall@ 0000000180023bf8     libvcruntime:undname.obj
 0002:00002c08       ??_C@_0N@BCKKPABJ@__vectorcall@ 0000000180023c08     libvcruntime:undname.obj
 0002:00002c18       ??_C@_09HIJEGCPM@__clrcall@ 0000000180023c18     libvcruntime:undname.obj
 0002:00002c24       ??_C@_06GHPCKEAG@__eabi@   0000000180023c24     libvcruntime:undname.obj
 0002:00002c30       ??_C@_09IOPIDJLG@__swift_1@ 0000000180023c30     libvcruntime:undname.obj
 0002:00002c40       ??_C@_09KFNFGKHF@__swift_2@ 0000000180023c40     libvcruntime:undname.obj
 0002:00002c50       ??_C@_07JOMMBBKO@__ptr64@  0000000180023c50     libvcruntime:undname.obj
 0002:00002c58       ??_C@_0L@PILCLIHE@__restrict@ 0000000180023c58     libvcruntime:undname.obj
 0002:00002c68       ??_C@_0M@GFIIJFMG@__unaligned@ 0000000180023c68     libvcruntime:undname.obj
 0002:00002c78       ??_C@_09DHDLOLLB@restrict?$CI@ 0000000180023c78     libvcruntime:undname.obj
 0002:00002c82       ??_C@_00CNPNBAHC@@         0000000180023c82     libvcruntime:undname.obj
 0002:00002c84       ??_C@_04NIHEBCM@?5new@     0000000180023c84     libvcruntime:undname.obj
 0002:00002c90       ??_C@_07FPCDHGMM@?5delete@ 0000000180023c90     libvcruntime:undname.obj
 0002:00002c98       ??_C@_01NEMOKFLO@?$DN@     0000000180023c98     libvcruntime:undname.obj
 0002:00002c9c       ??_C@_02GPIOPFAK@?$DO?$DO@ 0000000180023c9c     libvcruntime:undname.obj
 0002:00002ca0       ??_C@_02FODMEDOG@?$DM?$DM@ 0000000180023ca0     libvcruntime:undname.obj
 0002:00002ca4       ??_C@_01DCLJPIOD@?$CB@     0000000180023ca4     libvcruntime:undname.obj
 0002:00002ca8       ??_C@_02EGOFBIJA@?$DN?$DN@ 0000000180023ca8     libvcruntime:undname.obj
 0002:00002cac       ??_C@_02FDNJECIE@?$CB?$DN@ 0000000180023cac     libvcruntime:undname.obj
 0002:00002cb0       ??_C@_02GPECMEKF@?$FL?$FN@ 0000000180023cb0     libvcruntime:undname.obj
 0002:00002cb8       ??_C@_08LHJFAFGD@operator@ 0000000180023cb8     libvcruntime:undname.obj
 0002:00002cc4       ??_C@_02HBOOOICD@?9?$DO@   0000000180023cc4     libvcruntime:undname.obj
 0002:00002cc8       ??_C@_01NBENCBCI@?$CK@     0000000180023cc8     libvcruntime:undname.obj
 0002:00002ccc       ??_C@_02ECNGHCIF@?$CL?$CL@ 0000000180023ccc     libvcruntime:undname.obj
 0002:00002cd0       ??_C@_02BAABKJLB@?9?9@     0000000180023cd0     libvcruntime:undname.obj
 0002:00002cd4       ??_C@_01JOAMLHOP@?9@       0000000180023cd4     libvcruntime:undname.obj
 0002:00002cd8       ??_C@_01MIFGBAGJ@?$CL@     0000000180023cd8     libvcruntime:undname.obj
 0002:00002cdc       ??_C@_01HNPIGOCE@?$CG@     0000000180023cdc     libvcruntime:undname.obj
 0002:00002ce0       ??_C@_03MNHNFDLC@?9?$DO?$CK@ 0000000180023ce0     libvcruntime:undname.obj
 0002:00002ce4       ??_C@_01KMDKNFGN@?1@       0000000180023ce4     libvcruntime:undname.obj
 0002:00002ce8       ??_C@_01FGNFDNOH@?$CF@     0000000180023ce8     libvcruntime:undname.obj
 0002:00002cec       ??_C@_01MNNFJEPP@?$DM@     0000000180023cec     libvcruntime:undname.obj
 0002:00002cf0       ??_C@_02EHCHHCKH@?$DM?$DN@ 0000000180023cf0     libvcruntime:undname.obj
 0002:00002cf4       ??_C@_01PPODPGHN@?$DO@     0000000180023cf4     libvcruntime:undname.obj
 0002:00002cf8       ??_C@_02EEKDKGMJ@?$DO?$DN@ 0000000180023cf8     libvcruntime:undname.obj
 0002:00002cfc       ??_C@_01IHBHIGKO@?0@       0000000180023cfc     libvcruntime:undname.obj
 0002:00002d00       ??_C@_02HCKGKOFO@?$CI?$CJ@ 0000000180023d00     libvcruntime:undname.obj
 0002:00002d04       ??_C@_01PJKLJHI@?$HO@      0000000180023d04     libvcruntime:undname.obj
 0002:00002d08       ??_C@_01JKBOJNNK@?$FO@     0000000180023d08     libvcruntime:undname.obj
 0002:00002d0c       ??_C@_01DNKMNLPK@?$HM@     0000000180023d0c     libvcruntime:undname.obj
 0002:00002d10       ??_C@_02PPKAJPJL@?$CG?$CG@ 0000000180023d10     libvcruntime:undname.obj
 0002:00002d14       ??_C@_02NONPIBCD@?$HM?$HM@ 0000000180023d14     libvcruntime:undname.obj
 0002:00002d18       ??_C@_02FPIMKNGF@?$CK?$DN@ 0000000180023d18     libvcruntime:undname.obj
 0002:00002d1c       ??_C@_02FOEOMHFC@?$CL?$DN@ 0000000180023d1c     libvcruntime:undname.obj
 0002:00002d20       ??_C@_02FKMDLLOA@?9?$DN@   0000000180023d20     libvcruntime:undname.obj
 0002:00002d24       ??_C@_02FJEHGPIO@?1?$DN@   0000000180023d24     libvcruntime:undname.obj
 0002:00002d28       ??_C@_02FENAOKFI@?$CF?$DN@ 0000000180023d28     libvcruntime:undname.obj
 0002:00002d2c       ??_C@_03IKFCCPFF@?$DO?$DO?$DN@ 0000000180023d2c     libvcruntime:undname.obj
 0002:00002d30       ??_C@_03CDNPDDLA@?$DM?$DM?$DN@ 0000000180023d30     libvcruntime:undname.obj
 0002:00002d34       ??_C@_02FGJGFEAB@?$CG?$DN@ 0000000180023d34     libvcruntime:undname.obj
 0002:00002d38       ??_C@_02DHLNPPGH@?$HM?$DN@ 0000000180023d38     libvcruntime:undname.obj
 0002:00002d3c       ??_C@_02MHEGNOJ@?$FO?$DN@  0000000180023d3c     libvcruntime:undname.obj
 0002:00002d40       ??_C@_09IFPLHPGF@?$GAvftable?8@ 0000000180023d40     libvcruntime:undname.obj
 0002:00002d50       ??_C@_09BLBHBJP@?$GAvbtable?8@ 0000000180023d50     libvcruntime:undname.obj
 0002:00002d60       ??_C@_07FEEIOKP@?$GAvcall?8@ 0000000180023d60     libvcruntime:undname.obj
 0002:00002d68       ??_C@_08LLFFHHDJ@?$GAtypeof?8@ 0000000180023d68     libvcruntime:undname.obj
 0002:00002d78       ??_C@_0BF@KDPPACIK@?$GAlocal?5static?5guard?8@ 0000000180023d78     libvcruntime:undname.obj
 0002:00002d90       ??_C@_08OBABFOLI@?$GAstring?8@ 0000000180023d90     libvcruntime:undname.obj
 0002:00002da0       ??_C@_0BD@JDLKDPAB@?$GAvbase?5destructor?8@ 0000000180023da0     libvcruntime:undname.obj
 0002:00002db8       ??_C@_0BN@DEGPLNFK@?$GAvector?5deleting?5destructor?8@ 0000000180023db8     libvcruntime:undname.obj
 0002:00002dd8       ??_C@_0BO@OBMKPJIG@?$GAdefault?5constructor?5closure?8@ 0000000180023dd8     libvcruntime:undname.obj
 0002:00002df8       ??_C@_0BN@IMDCHIKM@?$GAscalar?5deleting?5destructor?8@ 0000000180023df8     libvcruntime:undname.obj
 0002:00002e18       ??_C@_0BO@PFGOCPJJ@?$GAvector?5constructor?5iterator?8@ 0000000180023e18     libvcruntime:undname.obj
 0002:00002e38       ??_C@_0BN@LFPFMEDL@?$GAvector?5destructor?5iterator?8@ 0000000180023e38     libvcruntime:undname.obj
 0002:00002e58       ??_C@_0CE@IKBNEHA@?$GAvector?5vbase?5constructor?5itera@ 0000000180023e58     libvcruntime:undname.obj
 0002:00002e80       ??_C@_0BL@NILFHHPC@?$GAvirtual?5displacement?5map?8@ 0000000180023e80     libvcruntime:undname.obj
 0002:00002ea0       ??_C@_0CB@JONCMFFK@?$GAeh?5vector?5constructor?5iterator@ 0000000180023ea0     libvcruntime:undname.obj
 0002:00002ec8       ??_C@_0CA@GCEOPDGL@?$GAeh?5vector?5destructor?5iterator?8@ 0000000180023ec8     libvcruntime:undname.obj
 0002:00002ee8       ??_C@_0CH@OOJPLCPH@?$GAeh?5vector?5vbase?5constructor?5it@ 0000000180023ee8     libvcruntime:undname.obj
 0002:00002f10       ??_C@_0BL@LLKPOHJI@?$GAcopy?5constructor?5closure?8@ 0000000180023f10     libvcruntime:undname.obj
 0002:00002f30       ??_C@_0BA@KBCDOMBN@?$GAudt?5returning?8@ 0000000180023f30     libvcruntime:undname.obj
 0002:00002f40       ??_C@_03KLGMFNMG@?$GAEH@   0000000180023f40     libvcruntime:undname.obj
 0002:00002f44       ??_C@_05KHLCHHI@?$GARTTI@  0000000180023f44     libvcruntime:undname.obj
 0002:00002f50       ??_C@_0BA@KKLDJDLB@?$GAlocal?5vftable?8@ 0000000180023f50     libvcruntime:undname.obj
 0002:00002f60       ??_C@_0CE@IIHCMGGL@?$GAlocal?5vftable?5constructor?5clos@ 0000000180023f60     libvcruntime:undname.obj
 0002:00002f84       ??_C@_06FHBGPFGH@?5new?$FL?$FN@ 0000000180023f84     libvcruntime:undname.obj
 0002:00002f90       ??_C@_09LBNFPBCA@?5delete?$FL?$FN@ 0000000180023f90     libvcruntime:undname.obj
 0002:00002fa0       ??_C@_0P@HJKNJFNN@?$GAomni?5callsig?8@ 0000000180023fa0     libvcruntime:undname.obj
 0002:00002fb0       ??_C@_0BL@CNOONJFP@?$GAplacement?5delete?5closure?8@ 0000000180023fb0     libvcruntime:undname.obj
 0002:00002fd0       ??_C@_0BN@CKNJLHMB@?$GAplacement?5delete?$FL?$FN?5closure?8@ 0000000180023fd0     libvcruntime:undname.obj
 0002:00002ff0       ??_C@_0CG@CFDHKGGD@?$GAmanaged?5vector?5constructor?5ite@ 0000000180023ff0     libvcruntime:undname.obj
 0002:00003018       ??_C@_0CF@IMGKMJNO@?$GAmanaged?5vector?5destructor?5iter@ 0000000180024018     libvcruntime:undname.obj
 0002:00003040       ??_C@_0CG@HLDDJMAG@?$GAeh?5vector?5copy?5constructor?5ite@ 0000000180024040     libvcruntime:undname.obj
 0002:00003068       ??_C@_0CM@FCBBDIGB@?$GAeh?5vector?5vbase?5copy?5construct@ 0000000180024068     libvcruntime:undname.obj
 0002:00003098       ??_C@_0BL@CLIPGLGB@?$GAdynamic?5initializer?5for?5?8@ 0000000180024098     libvcruntime:undname.obj
 0002:000030b8       ??_C@_0CB@PDBIFEP@?$GAdynamic?5atexit?5destructor?5for?5@ 00000001800240b8     libvcruntime:undname.obj
 0002:000030e0       ??_C@_0CD@CGAJBKEJ@?$GAvector?5copy?5constructor?5iterat@ 00000001800240e0     libvcruntime:undname.obj
 0002:00003108       ??_C@_0CJ@GJELGAMM@?$GAvector?5vbase?5copy?5constructor?5@ 0000000180024108     libvcruntime:undname.obj
 0002:00003138       ??_C@_0CL@FGIJHLCE@?$GAmanaged?5vector?5copy?5constructo@ 0000000180024138     libvcruntime:undname.obj
 0002:00003168       ??_C@_0BM@PMGGMLDN@?$GAlocal?5static?5thread?5guard?8@ 0000000180024168     libvcruntime:undname.obj
 0002:00003188       ??_C@_0N@BDNMDMOL@operator?5?$CC?$CC?5@ 0000000180024188     libvcruntime:undname.obj
 0002:00003198       ??_C@_0BC@GGEBGALA@operator?5co_await@ 0000000180024198     libvcruntime:undname.obj
 0002:000031b0       ??_C@_0M@GAAIMMOH@operator?$DM?$DN?$DO@ 00000001800241b0     libvcruntime:undname.obj
 0002:000031c0       ??_C@_0BC@DAFEJGAK@?5Type?5Descriptor?8@ 00000001800241c0     libvcruntime:undname.obj
 0002:000031d8       ??_C@_0BM@LDKODKLH@?5Base?5Class?5Descriptor?5at?5?$CI@ 00000001800241d8     libvcruntime:undname.obj
 0002:000031f8       ??_C@_0BD@LGICGFMM@?5Base?5Class?5Array?8@ 00000001800241f8     libvcruntime:undname.obj
 0002:00003210       ??_C@_0BN@MECKDCOJ@?5Class?5Hierarchy?5Descriptor?8@ 0000000180024210     libvcruntime:undname.obj
 0002:00003230       ??_C@_0BK@CFCOFLF@?5Complete?5Object?5Locator?8@ 0000000180024230     libvcruntime:undname.obj
 0002:00003268       ??_C@_1DM@KHCHBNEB@?$AAa?$AAp?$AAi?$AA?9?$AAm?$AAs?$AA?9?$AAw?$AAi?$AAn?$AA?9?$AAc?$AAo?$AAr?$AAe@ 0000000180024268     libvcruntime:winapi_downlevel.obj
 0002:000032a8       ??_C@_1DK@LPPGFMPP@?$AAa?$AAp?$AAi?$AA?9?$AAm?$AAs?$AA?9?$AAw?$AAi?$AAn?$AA?9?$AAc?$AAo?$AAr?$AAe@ 00000001800242a8     libvcruntime:winapi_downlevel.obj
 0002:000032e8       ??_C@_1BC@GDMECMAK@?$AAk?$AAe?$AAr?$AAn?$AAe?$AAl?$AA3?$AA2@ 00000001800242e8     libvcruntime:winapi_downlevel.obj
 0002:00003300       ??_C@_1BA@PFFKHIOG@?$AAa?$AAp?$AAi?$AA?9?$AAm?$AAs?$AA?9@ 0000000180024300     libvcruntime:winapi_downlevel.obj
 0002:00003318       ??_C@_08KNHFBNJ@FlsAlloc@  0000000180024318     libvcruntime:winapi_downlevel.obj
 0002:00003330       ??_C@_07PEJMOBNF@FlsFree@  0000000180024330     libvcruntime:winapi_downlevel.obj
 0002:00003340       ??_C@_0M@GDNOONDI@FlsGetValue@ 0000000180024340     libvcruntime:winapi_downlevel.obj
 0002:00003358       ??_C@_0M@JCPCPOEF@FlsSetValue@ 0000000180024358     libvcruntime:winapi_downlevel.obj
 0002:00003370       ??_C@_0BM@HCFOFFN@InitializeCriticalSectionEx@ 0000000180024370     libvcruntime:winapi_downlevel.obj
 0002:00003500       format_validation_lookup_table 0000000180024500     libucrt:output.obj
 0002:00003560       ??_C@_1O@CEDCILHN@?$AA?$CI?$AAn?$AAu?$AAl?$AAl?$AA?$CJ@ 0000000180024560     libucrt:output.obj
 0002:00003570       ??_C@_06OJHGLDPL@?$CInull?$CJ@ 0000000180024570     libucrt:output.obj
 0002:00003580       __acrt_exception_action_table 0000000180024580     libucrt:exception_filter.obj
 0002:00003640       __acrt_signal_action_table_count 0000000180024640     libucrt:exception_filter.obj
 0002:00003648       __acrt_signal_action_first_fpe_index 0000000180024648     libucrt:exception_filter.obj
 0002:00003650       __acrt_signal_action_fpe_count 0000000180024650     libucrt:exception_filter.obj
 0002:00003658       ??_C@_1BI@BGOHAHKC@?$AAm?$AAs?$AAc?$AAo?$AAr?$AAe?$AAe?$AA?4?$AAd?$AAl?$AAl@ 0000000180024658     libucrt:exit.obj
 0002:00003670       ??_C@_0P@MIGLKIOC@CorExitProcess@ 0000000180024670     libucrt:exit.obj
 0002:00003820       ??_C@_1EA@JGEFHKEI@?$AAa?$AAp?$AAi?$AA?9?$AAm?$AAs?$AA?9?$AAw?$AAi?$AAn?$AA?9?$AAc?$AAo?$AAr?$AAe@ 0000000180024820     libucrt:winapi_thunks.obj
 0002:00003860       ??_C@_1DI@IJCEHOCB@?$AAa?$AAp?$AAi?$AA?9?$AAm?$AAs?$AA?9?$AAw?$AAi?$AAn?$AA?9?$AAc?$AAo?$AAr?$AAe@ 0000000180024860     libucrt:winapi_thunks.obj
 0002:000038a0       ??_C@_1EI@MPIAOHOC@?$AAa?$AAp?$AAi?$AA?9?$AAm?$AAs?$AA?9?$AAw?$AAi?$AAn?$AA?9?$AAc?$AAo?$AAr?$AAe@ 00000001800248a0     libucrt:winapi_thunks.obj
 0002:000038f0       ??_C@_1FK@FPHCKFIE@?$AAa?$AAp?$AAi?$AA?9?$AAm?$AAs?$AA?9?$AAw?$AAi?$AAn?$AA?9?$AAc?$AAo?$AAr?$AAe@ 00000001800248f0     libucrt:winapi_thunks.obj
 0002:00003950       ??_C@_1EM@DILCGIIO@?$AAa?$AAp?$AAi?$AA?9?$AAm?$AAs?$AA?9?$AAw?$AAi?$AAn?$AA?9?$AAc?$AAo?$AAr?$AAe@ 0000000180024950     libucrt:winapi_thunks.obj
 0002:000039a0       ??_C@_1DM@LNCGDDPN@?$AAa?$AAp?$AAi?$AA?9?$AAm?$AAs?$AA?9?$AAw?$AAi?$AAn?$AA?9?$AAc?$AAo?$AAr?$AAe@ 00000001800249a0     libucrt:winapi_thunks.obj
 0002:000039e0       ??_C@_1DO@FPAPJEMD@?$AAa?$AAp?$AAi?$AA?9?$AAm?$AAs?$AA?9?$AAw?$AAi?$AAn?$AA?9?$AAc?$AAo?$AAr?$AAe@ 00000001800249e0     libucrt:winapi_thunks.obj
 0002:00003a20       ??_C@_1DK@NDHNAHIO@?$AAa?$AAp?$AAi?$AA?9?$AAm?$AAs?$AA?9?$AAw?$AAi?$AAn?$AA?9?$AAc?$AAo?$AAr?$AAe@ 0000000180024a20     libucrt:winapi_thunks.obj
 0002:00003a60       ??_C@_1DM@KGHDGBCM@?$AAa?$AAp?$AAi?$AA?9?$AAm?$AAs?$AA?9?$AAw?$AAi?$AAn?$AA?9?$AAc?$AAo?$AAr?$AAe@ 0000000180024a60     libucrt:winapi_thunks.obj
 0002:00003aa0       ??_C@_1EO@IJIOEFOH@?$AAa?$AAp?$AAi?$AA?9?$AAm?$AAs?$AA?9?$AAw?$AAi?$AAn?$AA?9?$AAr?$AAt?$AAc?$AAo@ 0000000180024aa0     libucrt:winapi_thunks.obj
 0002:00003af0       ??_C@_1FG@HHGEKANL@?$AAa?$AAp?$AAi?$AA?9?$AAm?$AAs?$AA?9?$AAw?$AAi?$AAn?$AA?9?$AAs?$AAe?$AAc?$AAu@ 0000000180024af0     libucrt:winapi_thunks.obj
 0002:00003b50       ??_C@_1EG@DBIOJECG@?$AAe?$AAx?$AAt?$AA?9?$AAm?$AAs?$AA?9?$AAw?$AAi?$AAn?$AA?9?$AAn?$AAt?$AAu?$AAs@ 0000000180024b50     libucrt:winapi_thunks.obj
 0002:00003ba0       ??_C@_1EO@FIHMJCLF@?$AAe?$AAx?$AAt?$AA?9?$AAm?$AAs?$AA?9?$AAw?$AAi?$AAn?$AA?9?$AAn?$AAt?$AAu?$AAs@ 0000000180024ba0     libucrt:winapi_thunks.obj
 0002:00003bf0       ??_C@_1BC@DNHGCMLG@?$AAa?$AAd?$AAv?$AAa?$AAp?$AAi?$AA3?$AA2@ 0000000180024bf0     libucrt:winapi_thunks.obj
 0002:00003c08       ??_C@_1M@OAIMIKLP@?$AAn?$AAt?$AAd?$AAl?$AAl@ 0000000180024c08     libucrt:winapi_thunks.obj
 0002:00003c20       ??_C@_1EG@DPGNFKGC@?$AAa?$AAp?$AAi?$AA?9?$AAm?$AAs?$AA?9?$AAw?$AAi?$AAn?$AA?9?$AAa?$AAp?$AAp?$AAm@ 0000000180024c20     libucrt:winapi_thunks.obj
 0002:00003c68       ??_C@_1O@BCCLBEOE@?$AAu?$AAs?$AAe?$AAr?$AA3?$AA2@ 0000000180024c68     libucrt:winapi_thunks.obj
 0002:00003c78       ??_C@_1BA@IAIFMGEF@?$AAe?$AAx?$AAt?$AA?9?$AAm?$AAs?$AA?9@ 0000000180024c78     libucrt:winapi_thunks.obj
 0002:00003c90       ??_C@_0BA@FHFNEAED@AreFileApisANSI@ 0000000180024c90     libucrt:winapi_thunks.obj
 0002:00003cd0       ??_C@_0O@KKBNKAPF@LCMapStringEx@ 0000000180024cd0     libucrt:winapi_thunks.obj
 0002:00003ce8       ??_C@_0BB@HBDEELFH@LocaleNameToLCID@ 0000000180024ce8     libucrt:winapi_thunks.obj
 0002:00003d00       ??_C@_0CF@OJOFEIGO@AppPolicyGetProcessTerminationM@ 0000000180024d00     libucrt:winapi_thunks.obj
 0002:00003d30       ??_C@_0BI@BKLFFAPO@SetThreadStackGuarantee@ 0000000180024d30     libucrt:winapi_thunks.obj
 0002:00003dd0       ??_C@_03OEIAHPBN@INF@      0000000180024dd0     libucrt:cvt.obj
 0002:00003dd4       ??_C@_03OJHLLCGB@inf@      0000000180024dd4     libucrt:cvt.obj
 0002:00003dd8       ??_C@_03LKNCIKJB@NAN@      0000000180024dd8     libucrt:cvt.obj
 0002:00003ddc       ??_C@_03LHCJEHON@nan@      0000000180024ddc     libucrt:cvt.obj
 0002:00003de0       ??_C@_09OFJJIMPC@NAN?$CISNAN?$CJ@ 0000000180024de0     libucrt:cvt.obj
 0002:00003df0       ??_C@_09IPFBKMDL@nan?$CIsnan?$CJ@ 0000000180024df0     libucrt:cvt.obj
 0002:00003e00       ??_C@_08IKHNHAJ@NAN?$CIIND?$CJ@ 0000000180024e00     libucrt:cvt.obj
 0002:00003e10       ??_C@_08OFCDMILK@nan?$CIind?$CJ@ 0000000180024e10     libucrt:cvt.obj
 0002:00003e1c       ??_C@_05KLBDPFGC@e?$CL000@ 0000000180024e1c     libucrt:cvt.obj
 0002:00003e30       __lc_time_c                0000000180024e30     libucrt:nlsdata.obj
 0002:000040f0       ??_C@_03KOEHGMDN@Sun@      00000001800250f0     libucrt:nlsdata.obj
 0002:000040f4       ??_C@_03PDAGKDH@Mon@       00000001800250f4     libucrt:nlsdata.obj
 0002:000040f8       ??_C@_03NAGEINEP@Tue@      00000001800250f8     libucrt:nlsdata.obj
 0002:000040fc       ??_C@_03MHOMLAJA@Wed@      00000001800250fc     libucrt:nlsdata.obj
 0002:00004100       ??_C@_03IOFIKPDN@Thu@      0000000180025100     libucrt:nlsdata.obj
 0002:00004104       ??_C@_03IDIOELNC@Fri@      0000000180025104     libucrt:nlsdata.obj
 0002:00004108       ??_C@_03FEFJNEK@Sat@       0000000180025108     libucrt:nlsdata.obj
 0002:0000410c       ??_C@_06OOPIFAJ@Sunday@    000000018002510c     libucrt:nlsdata.obj
 0002:00004114       ??_C@_06JLEDEDGH@Monday@   0000000180025114     libucrt:nlsdata.obj
 0002:00004120       ??_C@_07BAAGCFCM@Tuesday@  0000000180025120     libucrt:nlsdata.obj
 0002:00004128       ??_C@_09DLIGFAKA@Wednesday@ 0000000180025128     libucrt:nlsdata.obj
 0002:00004138       ??_C@_08HACCIKIA@Thursday@ 0000000180025138     libucrt:nlsdata.obj
 0002:00004144       ??_C@_06JECMNKMI@Friday@   0000000180025144     libucrt:nlsdata.obj
 0002:00004150       ??_C@_08INBOOONO@Saturday@ 0000000180025150     libucrt:nlsdata.obj
 0002:0000415c       ??_C@_03JIHJHPIE@Jan@      000000018002515c     libucrt:nlsdata.obj
 0002:00004160       ??_C@_03HJBDCHOM@Feb@      0000000180025160     libucrt:nlsdata.obj
 0002:00004164       ??_C@_03ODNJBKGA@Mar@      0000000180025164     libucrt:nlsdata.obj
 0002:00004168       ??_C@_03LEOLGMJP@Apr@      0000000180025168     libucrt:nlsdata.obj
 0002:0000416c       ??_C@_03CNMDKL@May@        000000018002516c     libucrt:nlsdata.obj
 0002:00004170       ??_C@_03IDFGHECI@Jun@      0000000180025170     libucrt:nlsdata.obj
 0002:00004174       ??_C@_03LBGABGKK@Jul@      0000000180025174     libucrt:nlsdata.obj
 0002:00004178       ??_C@_03IFJFEIGA@Aug@      0000000180025178     libucrt:nlsdata.obj
 0002:0000417c       ??_C@_03GGCAPAJC@Sep@      000000018002517c     libucrt:nlsdata.obj
 0002:00004180       ??_C@_03BMAOKBAD@Oct@      0000000180025180     libucrt:nlsdata.obj
 0002:00004184       ??_C@_03JPJOFNIA@Nov@      0000000180025184     libucrt:nlsdata.obj
 0002:00004188       ??_C@_03MKABNOCG@Dec@      0000000180025188     libucrt:nlsdata.obj
 0002:00004190       ??_C@_07CGJPFGJA@January@  0000000180025190     libucrt:nlsdata.obj
 0002:00004198       ??_C@_08GNJGEPFN@February@ 0000000180025198     libucrt:nlsdata.obj
 0002:000041a4       ??_C@_05HPCKOFNC@March@    00000001800251a4     libucrt:nlsdata.obj
 0002:000041ac       ??_C@_05DMJDNLEJ@April@    00000001800251ac     libucrt:nlsdata.obj
 0002:000041b4       ??_C@_04CNLMGBGM@June@     00000001800251b4     libucrt:nlsdata.obj
 0002:000041bc       ??_C@_04MIEPOIFP@July@     00000001800251bc     libucrt:nlsdata.obj
 0002:000041c4       ??_C@_06LBBHFDDG@August@   00000001800251c4     libucrt:nlsdata.obj
 0002:000041d0       ??_C@_09BHHEALKD@September@ 00000001800251d0     libucrt:nlsdata.obj
 0002:000041e0       ??_C@_07JJNFCEND@October@  00000001800251e0     libucrt:nlsdata.obj
 0002:000041e8       ??_C@_08HCHEGEOA@November@ 00000001800251e8     libucrt:nlsdata.obj
 0002:000041f8       ??_C@_08EDHMEBNP@December@ 00000001800251f8     libucrt:nlsdata.obj
 0002:00004204       ??_C@_02DEDBPAFC@AM@       0000000180025204     libucrt:nlsdata.obj
 0002:00004208       ??_C@_02CJNFDJBF@PM@       0000000180025208     libucrt:nlsdata.obj
 0002:00004210       ??_C@_08BPBNCDIB@MM?1dd?1yy@ 0000000180025210     libucrt:nlsdata.obj
 0002:00004220       ??_C@_0BE@CKGJFCPC@dddd?0?5MMMM?5dd?0?5yyyy@ 0000000180025220     libucrt:nlsdata.obj
 0002:00004238       ??_C@_08JCCMCCIL@HH?3mm?3ss@ 0000000180025238     libucrt:nlsdata.obj
 0002:00004248       ??_C@_17MBGCMIPB@?$AAS?$AAu?$AAn@ 0000000180025248     libucrt:nlsdata.obj
 0002:00004250       ??_C@_17KBOMKBF@?$AAM?$AAo?$AAn@ 0000000180025250     libucrt:nlsdata.obj
 0002:00004258       ??_C@_17BMKGEGOJ@?$AAT?$AAu?$AAe@ 0000000180025258     libucrt:nlsdata.obj
 0002:00004260       ??_C@_17CJEDCEPE@?$AAW?$AAe?$AAd@ 0000000180025260     libucrt:nlsdata.obj
 0002:00004268       ??_C@_17PDPHAADD@?$AAT?$AAh?$AAu@ 0000000180025268     libucrt:nlsdata.obj
 0002:00004270       ??_C@_17HFOLPPLP@?$AAF?$AAr?$AAi@ 0000000180025270     libucrt:nlsdata.obj
 0002:00004278       ??_C@_17GGIBDPIH@?$AAS?$AAa?$AAt@ 0000000180025278     libucrt:nlsdata.obj
 0002:00004280       ??_C@_1O@IHNHDHPB@?$AAS?$AAu?$AAn?$AAd?$AAa?$AAy@ 0000000180025280     libucrt:nlsdata.obj
 0002:00004290       ??_C@_1O@MMNBFLIA@?$AAM?$AAo?$AAn?$AAd?$AAa?$AAy@ 0000000180025290     libucrt:nlsdata.obj
 0002:000042a0       ??_C@_1BA@ENFBFFEK@?$AAT?$AAu?$AAe?$AAs?$AAd?$AAa?$AAy@ 00000001800252a0     libucrt:nlsdata.obj
 0002:000042b0       ??_C@_1BE@EBOGMDOH@?$AAW?$AAe?$AAd?$AAn?$AAe?$AAs?$AAd?$AAa?$AAy@ 00000001800252b0     libucrt:nlsdata.obj
 0002:000042c8       ??_C@_1BC@HHMNLIHE@?$AAT?$AAh?$AAu?$AAr?$AAs?$AAd?$AAa?$AAy@ 00000001800252c8     libucrt:nlsdata.obj
 0002:000042e0       ??_C@_1O@PDICJHAG@?$AAF?$AAr?$AAi?$AAd?$AAa?$AAy@ 00000001800252e0     libucrt:nlsdata.obj
 0002:000042f0       ??_C@_1BC@ENMNNPAJ@?$AAS?$AAa?$AAt?$AAu?$AAr?$AAd?$AAa?$AAy@ 00000001800252f0     libucrt:nlsdata.obj
 0002:00004308       ??_C@_17DKNBKCHM@?$AAJ?$AAa?$AAn@ 0000000180025308     libucrt:nlsdata.obj
 0002:00004310       ??_C@_17LMDJEKJN@?$AAF?$AAe?$AAb@ 0000000180025310     libucrt:nlsdata.obj
 0002:00004318       ??_C@_17CKNLEDEC@?$AAM?$AAa?$AAr@ 0000000180025318     libucrt:nlsdata.obj
 0002:00004320       ??_C@_17LFPOIHDD@?$AAA?$AAp?$AAr@ 0000000180025320     libucrt:nlsdata.obj
 0002:00004328       ??_C@_17PNNKMEED@?$AAM?$AAa?$AAy@ 0000000180025328     libucrt:nlsdata.obj
 0002:00004330       ??_C@_17KCJGOCPB@?$AAJ?$AAu?$AAn@ 0000000180025330     libucrt:nlsdata.obj
 0002:00004338       ??_C@_17IJPCKHK@?$AAJ?$AAu?$AAl@ 0000000180025338     libucrt:nlsdata.obj
 0002:00004340       ??_C@_17ICPELBCN@?$AAA?$AAu?$AAg@ 0000000180025340     libucrt:nlsdata.obj
 0002:00004348       ??_C@_17HCHCOKMG@?$AAS?$AAe?$AAp@ 0000000180025348     libucrt:nlsdata.obj
 0002:00004350       ??_C@_17FNLKOI@?$AAO?$AAc?$AAt@ 0000000180025350     libucrt:nlsdata.obj
 0002:00004358       ??_C@_17BBDMLCIG@?$AAN?$AAo?$AAv@ 0000000180025358     libucrt:nlsdata.obj
 0002:00004360       ??_C@_17EGKACKIF@?$AAD?$AAe?$AAc@ 0000000180025360     libucrt:nlsdata.obj
 0002:00004368       ??_C@_1BA@EFMEIEBA@?$AAJ?$AAa?$AAn?$AAu?$AAa?$AAr?$AAy@ 0000000180025368     libucrt:nlsdata.obj
 0002:00004378       ??_C@_1BC@JGDDFFAM@?$AAF?$AAe?$AAb?$AAr?$AAu?$AAa?$AAr?$AAy@ 0000000180025378     libucrt:nlsdata.obj
 0002:00004390       ??_C@_1M@IKEENEDF@?$AAM?$AAa?$AAr?$AAc?$AAh@ 0000000180025390     libucrt:nlsdata.obj
 0002:000043a0       ??_C@_1M@GJNLMHFD@?$AAA?$AAp?$AAr?$AAi?$AAl@ 00000001800253a0     libucrt:nlsdata.obj
 0002:000043b0       ??_C@_19EPFLPGAP@?$AAJ?$AAu?$AAn?$AAe@ 00000001800253b0     libucrt:nlsdata.obj
 0002:000043c0       ??_C@_19BIFMLPCD@?$AAJ?$AAu?$AAl?$AAy@ 00000001800253c0     libucrt:nlsdata.obj
 0002:000043d0       ??_C@_1O@PAHLKOAC@?$AAA?$AAu?$AAg?$AAu?$AAs?$AAt@ 00000001800253d0     libucrt:nlsdata.obj
 0002:000043e0       ??_C@_1BE@DKAAMBJL@?$AAS?$AAe?$AAp?$AAt?$AAe?$AAm?$AAb?$AAe?$AAr@ 00000001800253e0     libucrt:nlsdata.obj
 0002:000043f8       ??_C@_1BA@EPANDLNG@?$AAO?$AAc?$AAt?$AAo?$AAb?$AAe?$AAr@ 00000001800253f8     libucrt:nlsdata.obj
 0002:00004408       ??_C@_1BC@BGLIFPF@?$AAN?$AAo?$AAv?$AAe?$AAm?$AAb?$AAe?$AAr@ 0000000180025408     libucrt:nlsdata.obj
 0002:00004420       ??_C@_1BC@FEMKIFH@?$AAD?$AAe?$AAc?$AAe?$AAm?$AAb?$AAe?$AAr@ 0000000180025420     libucrt:nlsdata.obj
 0002:00004434       ??_C@_15ODEHAHHF@?$AAA?$AAM@ 0000000180025434     libucrt:nlsdata.obj
 0002:0000443c       ??_C@_15CLMNNGEL@?$AAP?$AAM@ 000000018002543c     libucrt:nlsdata.obj
 0002:00004448       ??_C@_1BC@IEBCMHCM@?$AAM?$AAM?$AA?1?$AAd?$AAd?$AA?1?$AAy?$AAy@ 0000000180025448     libucrt:nlsdata.obj
 0002:00004460       ??_C@_1CI@KNAKOEBC@?$AAd?$AAd?$AAd?$AAd?$AA?0?$AA?5?$AAM?$AAM?$AAM?$AAM?$AA?5?$AAd?$AAd?$AA?0?$AA?5@ 0000000180025460     libucrt:nlsdata.obj
 0002:00004488       ??_C@_1BC@GDGBMEMK@?$AAH?$AAH?$AA?3?$AAm?$AAm?$AA?3?$AAs?$AAs@ 0000000180025488     libucrt:nlsdata.obj
 0002:000044a0       ??_C@_1M@BMHNFIME@?$AAe?$AAn?$AA?9?$AAU?$AAS@ 00000001800254a0     libucrt:nlsdata.obj
 0002:000044d0       ??_C@_1M@HPNHIDJI@?$AAj?$AAa?$AA?9?$AAJ?$AAP@ 00000001800254d0     libucrt:mbctype.obj
 0002:000044e0       ??_C@_1M@BIBDDEMK@?$AAz?$AAh?$AA?9?$AAC?$AAN@ 00000001800254e0     libucrt:mbctype.obj
 0002:000044f0       ??_C@_1M@JLOOOEGK@?$AAk?$AAo?$AA?9?$AAK?$AAR@ 00000001800254f0     libucrt:mbctype.obj
 0002:00004500       ??_C@_1M@CLNBBOPM@?$AAz?$AAh?$AA?9?$AAT?$AAW@ 0000000180025500     libucrt:mbctype.obj
 0002:00004510       __newctype                 0000000180025510     libucrt:ctype.obj
 0002:00004810       __newclmap                 0000000180025810     libucrt:ctype.obj
 0002:00004990       __newcumap                 0000000180025990     libucrt:ctype.obj
 0002:00004b10       _wctype                    0000000180025b10     libucrt:ctype.obj
 0002:00005b60       ??_C@_15EMKDOKLE@?$AAa?$AAr@ 0000000180026b60     libucrt:lcidtoname_downlevel.obj
 0002:00005b68       ??_C@_15KNPADPLH@?$AAb?$AAg@ 0000000180026b68     libucrt:lcidtoname_downlevel.obj
 0002:00005b70       ??_C@_15EDMHLDMO@?$AAc?$AAa@ 0000000180026b70     libucrt:lcidtoname_downlevel.obj
 0002:00005b78       ??_C@_1O@BPEAJADD@?$AAz?$AAh?$AA?9?$AAC?$AAH?$AAS@ 0000000180026b78     libucrt:lcidtoname_downlevel.obj
 0002:00005b88       ??_C@_15LJNHCMNK@?$AAc?$AAs@ 0000000180026b88     libucrt:lcidtoname_downlevel.obj
 0002:00005b90       ??_C@_15FOMCIDHG@?$AAd?$AAa@ 0000000180026b90     libucrt:lcidtoname_downlevel.obj
 0002:00005b98       ??_C@_15NBKABECB@?$AAd?$AAe@ 0000000180026b98     libucrt:lcidtoname_downlevel.obj
 0002:00005ba0       ??_C@_15GHPEIIAO@?$AAe?$AAl@ 0000000180026ba0     libucrt:lcidtoname_downlevel.obj
 0002:00005ba8       ??_C@_15MNPNEAIF@?$AAe?$AAn@ 0000000180026ba8     libucrt:lcidtoname_downlevel.obj
 0002:00005bb0       ??_C@_15GPIOMPMH@?$AAe?$AAs@ 0000000180026bb0     libucrt:lcidtoname_downlevel.obj
 0002:00005bb8       ??_C@_15NGLOAKJC@?$AAf?$AAi@ 0000000180026bb8     libucrt:lcidtoname_downlevel.obj
 0002:00005bc0       ??_C@_15FBKGNKAM@?$AAf?$AAr@ 0000000180026bc0     libucrt:lcidtoname_downlevel.obj
 0002:00005bc8       ??_C@_15KGGCNEFK@?$AAh?$AAe@ 0000000180026bc8     libucrt:lcidtoname_downlevel.obj
 0002:00005bd0       ??_C@_15PGHLIDMF@?$AAh?$AAu@ 0000000180026bd0     libucrt:lcidtoname_downlevel.obj
 0002:00005bd8       ??_C@_15BIEMAPLM@?$AAi?$AAs@ 0000000180026bd8     libucrt:lcidtoname_downlevel.obj
 0002:00005be0       ??_C@_15IFJLDHAF@?$AAi?$AAt@ 0000000180026be0     libucrt:lcidtoname_downlevel.obj
 0002:00005be8       ??_C@_15GEMIOCAG@?$AAj?$AAa@ 0000000180026be8     libucrt:lcidtoname_downlevel.obj
 0002:00005bf0       ??_C@_15EPELEGJA@?$AAk?$AAo@ 0000000180026bf0     libucrt:lcidtoname_downlevel.obj
 0002:00005bf8       ??_C@_15NDDHIMN@?$AAn?$AAl@ 0000000180026bf8     libucrt:lcidtoname_downlevel.obj
 0002:00005c00       ??_C@_15BPIGNHCD@?$AAn?$AAo@ 0000000180026c00     libucrt:lcidtoname_downlevel.obj
 0002:00005c08       ??_C@_15DEOPBLCG@?$AAp?$AAl@ 0000000180026c08     libucrt:lcidtoname_downlevel.obj
 0002:00005c10       ??_C@_15KBECGEFG@?$AAp?$AAt@ 0000000180026c10     libucrt:lcidtoname_downlevel.obj
 0002:00005c18       ??_C@_15GLJCBFMD@?$AAr?$AAo@ 0000000180026c18     libucrt:lcidtoname_downlevel.obj
 0002:00005c20       ??_C@_15FEDGKCDI@?$AAr?$AAu@ 0000000180026c20     libucrt:lcidtoname_downlevel.obj
 0002:00005c28       ??_C@_15GLKMLLHM@?$AAh?$AAr@ 0000000180026c28     libucrt:lcidtoname_downlevel.obj
 0002:00005c30       ??_C@_15CPKMFBDB@?$AAs?$AAk@ 0000000180026c30     libucrt:lcidtoname_downlevel.obj
 0002:00005c38       ??_C@_15BAAIOGMK@?$AAs?$AAq@ 0000000180026c38     libucrt:lcidtoname_downlevel.obj
 0002:00005c40       ??_C@_15INNPNOHD@?$AAs?$AAv@ 0000000180026c40     libucrt:lcidtoname_downlevel.obj
 0002:00005c48       ??_C@_15CABMMOGH@?$AAt?$AAh@ 0000000180026c48     libucrt:lcidtoname_downlevel.obj
 0002:00005c50       ??_C@_15BPLIHJJM@?$AAt?$AAr@ 0000000180026c50     libucrt:lcidtoname_downlevel.obj
 0002:00005c58       ??_C@_15NEOEKKDJ@?$AAu?$AAr@ 0000000180026c58     libucrt:lcidtoname_downlevel.obj
 0002:00005c60       ??_C@_15NFICGAJK@?$AAi?$AAd@ 0000000180026c60     libucrt:lcidtoname_downlevel.obj
 0002:00005c68       ??_C@_15PJPFLCCM@?$AAu?$AAk@ 0000000180026c68     libucrt:lcidtoname_downlevel.obj
 0002:00005c70       ??_C@_15HPJPHDM@?$AAb?$AAe@ 0000000180026c70     libucrt:lcidtoname_downlevel.obj
 0002:00005c78       ??_C@_15LCHLGJII@?$AAs?$AAl@ 0000000180026c78     libucrt:lcidtoname_downlevel.obj
 0002:00005c80       ??_C@_15PCFJPHHO@?$AAe?$AAt@ 0000000180026c80     libucrt:lcidtoname_downlevel.obj
 0002:00005c88       ??_C@_15HPFPGODN@?$AAl?$AAv@ 0000000180026c88     libucrt:lcidtoname_downlevel.obj
 0002:00005c90       ??_C@_15NFFGKGLG@?$AAl?$AAt@ 0000000180026c90     libucrt:lcidtoname_downlevel.obj
 0002:00005c98       ??_C@_15BDAKCCHN@?$AAf?$AAa@ 0000000180026c98     libucrt:lcidtoname_downlevel.obj
 0002:00005ca0       ??_C@_15NFGIAIAJ@?$AAv?$AAi@ 0000000180026ca0     libucrt:lcidtoname_downlevel.obj
 0002:00005ca8       ??_C@_15LMKNDMHN@?$AAh?$AAy@ 0000000180026ca8     libucrt:lcidtoname_downlevel.obj
 0002:00005cb0       ??_C@_15IJBHMCFL@?$AAa?$AAz@ 0000000180026cb0     libucrt:lcidtoname_downlevel.obj
 0002:00005cb8       ??_C@_15EKOFJABL@?$AAe?$AAu@ 0000000180026cb8     libucrt:lcidtoname_downlevel.obj
 0002:00005cc0       ??_C@_15BGHADCNK@?$AAm?$AAk@ 0000000180026cc0     libucrt:lcidtoname_downlevel.obj
 0002:00005cc8       ??_C@_15JDNICKHM@?$AAa?$AAf@ 0000000180026cc8     libucrt:lcidtoname_downlevel.obj
 0002:00005cd0       ??_C@_15KPJEDBKD@?$AAk?$AAa@ 0000000180026cd0     libucrt:lcidtoname_downlevel.obj
 0002:00005cd8       ??_C@_15PDNFFFEO@?$AAf?$AAo@ 0000000180026cd8     libucrt:lcidtoname_downlevel.obj
 0002:00005ce0       ??_C@_15OMLEGLOC@?$AAh?$AAi@ 0000000180026ce0     libucrt:lcidtoname_downlevel.obj
 0002:00005ce8       ??_C@_15IDNNENKK@?$AAm?$AAs@ 0000000180026ce8     libucrt:lcidtoname_downlevel.obj
 0002:00005cf0       ??_C@_15MACJNBMH@?$AAk?$AAk@ 0000000180026cf0     libucrt:lcidtoname_downlevel.obj
 0002:00005cf8       ??_C@_15DKDJEOND@?$AAk?$AAy@ 0000000180026cf8     libucrt:lcidtoname_downlevel.obj
 0002:00005d00       ??_C@_15DFGDLJBG@?$AAs?$AAw@ 0000000180026d00     libucrt:lcidtoname_downlevel.obj
 0002:00005d08       ??_C@_15BBFAICNG@?$AAu?$AAz@ 0000000180026d08     libucrt:lcidtoname_downlevel.obj
 0002:00005d10       ??_C@_15DKNDCGEA@?$AAt?$AAt@ 0000000180026d10     libucrt:lcidtoname_downlevel.obj
 0002:00005d18       ??_C@_15MGIFMDPL@?$AAp?$AAa@ 0000000180026d18     libucrt:lcidtoname_downlevel.obj
 0002:00005d20       ??_C@_15HCNDBBA@?$AAg?$AAu@ 0000000180026d20     libucrt:lcidtoname_downlevel.obj
 0002:00005d28       ??_C@_15FNBEIBON@?$AAt?$AAa@ 0000000180026d28     libucrt:lcidtoname_downlevel.obj
 0002:00005d30       ??_C@_15NCHGBGLK@?$AAt?$AAe@ 0000000180026d30     libucrt:lcidtoname_downlevel.obj
 0002:00005d38       ??_C@_15PHPHCBPF@?$AAk?$AAn@ 0000000180026d38     libucrt:lcidtoname_downlevel.obj
 0002:00005d40       ??_C@_15DLGBCKMP@?$AAm?$AAr@ 0000000180026d40     libucrt:lcidtoname_downlevel.obj
 0002:00005d48       ??_C@_15EABBLBFF@?$AAs?$AAa@ 0000000180026d48     libucrt:lcidtoname_downlevel.obj
 0002:00005d50       ??_C@_15CBKOMCOI@?$AAm?$AAn@ 0000000180026d50     libucrt:lcidtoname_downlevel.obj
 0002:00005d58       ??_C@_15CKDMCJAF@?$AAg?$AAl@ 0000000180026d58     libucrt:lcidtoname_downlevel.obj
 0002:00005d60       ??_C@_17CNJFBPG@?$AAk?$AAo?$AAk@ 0000000180026d60     libucrt:lcidtoname_downlevel.obj
 0002:00005d68       ??_C@_17FFBJICPL@?$AAs?$AAy?$AAr@ 0000000180026d68     libucrt:lcidtoname_downlevel.obj
 0002:00005d70       ??_C@_17KPNDCPAF@?$AAd?$AAi?$AAv@ 0000000180026d70     libucrt:lcidtoname_downlevel.obj
 0002:00005d78       ??_C@_1M@OKAHONE@?$AAa?$AAr?$AA?9?$AAS?$AAA@ 0000000180026d78     libucrt:lcidtoname_downlevel.obj
 0002:00005d88       ??_C@_1M@FFFIGIGK@?$AAb?$AAg?$AA?9?$AAB?$AAG@ 0000000180026d88     libucrt:lcidtoname_downlevel.obj
 0002:00005d98       ??_C@_1M@BJNKEDC@?$AAc?$AAa?$AA?9?$AAE?$AAS@ 0000000180026d98     libucrt:lcidtoname_downlevel.obj
 0002:00005da8       ??_C@_1M@IJJHFJHA@?$AAc?$AAs?$AA?9?$AAC?$AAZ@ 0000000180026da8     libucrt:lcidtoname_downlevel.obj
 0002:00005db8       ??_C@_1M@CLPEOBGI@?$AAd?$AAa?$AA?9?$AAD?$AAK@ 0000000180026db8     libucrt:lcidtoname_downlevel.obj
 0002:00005dc8       ??_C@_1M@MCMADGCB@?$AAd?$AAe?$AA?9?$AAD?$AAE@ 0000000180026dc8     libucrt:lcidtoname_downlevel.obj
 0002:00005dd8       ??_C@_1M@OOCKEMAM@?$AAe?$AAl?$AA?9?$AAG?$AAR@ 0000000180026dd8     libucrt:lcidtoname_downlevel.obj
 0002:00005de8       ??_C@_1M@DDNJFGID@?$AAf?$AAi?$AA?9?$AAF?$AAI@ 0000000180026de8     libucrt:lcidtoname_downlevel.obj
 0002:00005df8       ??_C@_1M@GLIPPMAC@?$AAf?$AAr?$AA?9?$AAF?$AAR@ 0000000180026df8     libucrt:lcidtoname_downlevel.obj
 0002:00005e08       ??_C@_1M@GFMCHPE@?$AAh?$AAe?$AA?9?$AAI?$AAL@ 0000000180026e08     libucrt:lcidtoname_downlevel.obj
 0002:00005e18       ??_C@_1M@MHLPGNKM@?$AAh?$AAu?$AA?9?$AAH?$AAU@ 0000000180026e18     libucrt:lcidtoname_downlevel.obj
 0002:00005e28       ??_C@_1M@LPDDNNPN@?$AAi?$AAs?$AA?9?$AAI?$AAS@ 0000000180026e28     libucrt:lcidtoname_downlevel.obj
 0002:00005e38       ??_C@_1M@MADIPODN@?$AAi?$AAt?$AA?9?$AAI?$AAT@ 0000000180026e38     libucrt:lcidtoname_downlevel.obj
 0002:00005e48       ??_C@_1M@IHBJJGG@?$AAn?$AAl?$AA?9?$AAN?$AAL@ 0000000180026e48     libucrt:lcidtoname_downlevel.obj
 0002:00005e58       ??_C@_1M@EANAGDL@?$AAn?$AAb?$AA?9?$AAN?$AAO@ 0000000180026e58     libucrt:lcidtoname_downlevel.obj
 0002:00005e68       ??_C@_1M@NEIEMEGP@?$AAp?$AAl?$AA?9?$AAP?$AAL@ 0000000180026e68     libucrt:lcidtoname_downlevel.obj
 0002:00005e78       ??_C@_1M@BOCFIGEP@?$AAp?$AAt?$AA?9?$AAB?$AAR@ 0000000180026e78     libucrt:lcidtoname_downlevel.obj
 0002:00005e88       ??_C@_1M@IMPFOPBG@?$AAr?$AAo?$AA?9?$AAR?$AAO@ 0000000180026e88     libucrt:lcidtoname_downlevel.obj
 0002:00005e98       ??_C@_1M@IDNNEJMM@?$AAr?$AAu?$AA?9?$AAR?$AAU@ 0000000180026e98     libucrt:lcidtoname_downlevel.obj
 0002:00005ea8       ??_C@_1M@LILEEOGM@?$AAh?$AAr?$AA?9?$AAH?$AAR@ 0000000180026ea8     libucrt:lcidtoname_downlevel.obj
 0002:00005eb8       ??_C@_1M@FKIFEHPB@?$AAs?$AAk?$AA?9?$AAS?$AAK@ 0000000180026eb8     libucrt:lcidtoname_downlevel.obj
 0002:00005ec8       ??_C@_1M@LJMAMNPJ@?$AAs?$AAq?$AA?9?$AAA?$AAL@ 0000000180026ec8     libucrt:lcidtoname_downlevel.obj
 0002:00005ed8       ??_C@_1M@GIAKDKJK@?$AAs?$AAv?$AA?9?$AAS?$AAE@ 0000000180026ed8     libucrt:lcidtoname_downlevel.obj
 0002:00005ee8       ??_C@_1M@MKJKIKCL@?$AAt?$AAh?$AA?9?$AAT?$AAH@ 0000000180026ee8     libucrt:lcidtoname_downlevel.obj
 0002:00005ef8       ??_C@_1M@MFLCCMPB@?$AAt?$AAr?$AA?9?$AAT?$AAR@ 0000000180026ef8     libucrt:lcidtoname_downlevel.obj
 0002:00005f08       ??_C@_1M@OIJHDKJN@?$AAu?$AAr?$AA?9?$AAP?$AAK@ 0000000180026f08     libucrt:lcidtoname_downlevel.obj
 0002:00005f18       ??_C@_1M@LHIPCIEK@?$AAi?$AAd?$AA?9?$AAI?$AAD@ 0000000180026f18     libucrt:lcidtoname_downlevel.obj
 0002:00005f28       ??_C@_1M@MFMOBGI@?$AAu?$AAk?$AA?9?$AAU?$AAA@ 0000000180026f28     libucrt:lcidtoname_downlevel.obj
 0002:00005f38       ??_C@_1M@OBGLJIPL@?$AAb?$AAe?$AA?9?$AAB?$AAY@ 0000000180026f38     libucrt:lcidtoname_downlevel.obj
 0002:00005f48       ??_C@_1M@BCFAJEAD@?$AAs?$AAl?$AA?9?$AAS?$AAI@ 0000000180026f48     libucrt:lcidtoname_downlevel.obj
 0002:00005f58       ??_C@_1M@FKFFEDDN@?$AAe?$AAt?$AA?9?$AAE?$AAE@ 0000000180026f58     libucrt:lcidtoname_downlevel.obj
 0002:00005f68       ??_C@_1M@KGKKAACI@?$AAl?$AAv?$AA?9?$AAL?$AAV@ 0000000180026f68     libucrt:lcidtoname_downlevel.obj
 0002:00005f78       ??_C@_1M@IFGBIJO@?$AAl?$AAt?$AA?9?$AAL?$AAT@ 0000000180026f78     libucrt:lcidtoname_downlevel.obj
 0002:00005f88       ??_C@_1M@FGEAHEDM@?$AAf?$AAa?$AA?9?$AAI?$AAR@ 0000000180026f88     libucrt:lcidtoname_downlevel.obj
 0002:00005f98       ??_C@_1M@KBMAIBFN@?$AAv?$AAi?$AA?9?$AAV?$AAN@ 0000000180026f98     libucrt:lcidtoname_downlevel.obj
 0002:00005fa8       ??_C@_1M@GPCBKDJK@?$AAh?$AAy?$AA?9?$AAA?$AAM@ 0000000180026fa8     libucrt:lcidtoname_downlevel.obj
 0002:00005fb8       ??_C@_1BG@BECMDDJB@?$AAa?$AAz?$AA?9?$AAA?$AAZ?$AA?9?$AAL?$AAa?$AAt?$AAn@ 0000000180026fb8     libucrt:lcidtoname_downlevel.obj
 0002:00005fd0       ??_C@_1M@MAOFCAEA@?$AAe?$AAu?$AA?9?$AAE?$AAS@ 0000000180026fd0     libucrt:lcidtoname_downlevel.obj
 0002:00005fe0       ??_C@_1M@IGHABKPI@?$AAm?$AAk?$AA?9?$AAM?$AAK@ 0000000180026fe0     libucrt:lcidtoname_downlevel.obj
 0002:00005ff0       ??_C@_1M@IAIGNEJG@?$AAt?$AAn?$AA?9?$AAZ?$AAA@ 0000000180026ff0     libucrt:lcidtoname_downlevel.obj
 0002:00006000       ??_C@_1M@IIJCOJFA@?$AAx?$AAh?$AA?9?$AAZ?$AAA@ 0000000180027000     libucrt:lcidtoname_downlevel.obj
 0002:00006010       ??_C@_1M@LGPJHNJH@?$AAz?$AAu?$AA?9?$AAZ?$AAA@ 0000000180027010     libucrt:lcidtoname_downlevel.obj
 0002:00006020       ??_C@_1M@HOKAOIO@?$AAa?$AAf?$AA?9?$AAZ?$AAA@ 0000000180027020     libucrt:lcidtoname_downlevel.obj
 0002:00006030       ??_C@_1M@DPCLHLIE@?$AAk?$AAa?$AA?9?$AAG?$AAE@ 0000000180027030     libucrt:lcidtoname_downlevel.obj
 0002:00006040       ??_C@_1M@BLKMHJBI@?$AAf?$AAo?$AA?9?$AAF?$AAO@ 0000000180027040     libucrt:lcidtoname_downlevel.obj
 0002:00006050       ??_C@_1M@LGGJAPPB@?$AAh?$AAi?$AA?9?$AAI?$AAN@ 0000000180027050     libucrt:lcidtoname_downlevel.obj
 0002:00006060       ??_C@_1M@FIKPIHFE@?$AAm?$AAt?$AA?9?$AAM?$AAT@ 0000000180027060     libucrt:lcidtoname_downlevel.obj
 0002:00006070       ??_C@_1M@HEGGPBFA@?$AAs?$AAe?$AA?9?$AAN?$AAO@ 0000000180027070     libucrt:lcidtoname_downlevel.obj
 0002:00006080       ??_C@_1M@EIBJEEPA@?$AAm?$AAs?$AA?9?$AAM?$AAY@ 0000000180027080     libucrt:lcidtoname_downlevel.obj
 0002:00006090       ??_C@_1M@FHLBGMPP@?$AAk?$AAk?$AA?9?$AAK?$AAZ@ 0000000180027090     libucrt:lcidtoname_downlevel.obj
 0002:000060a0       ??_C@_1M@NGJJLCGI@?$AAk?$AAy?$AA?9?$AAK?$AAG@ 00000001800270a0     libucrt:lcidtoname_downlevel.obj
 0002:000060b0       ??_C@_1M@GIENNBFC@?$AAs?$AAw?$AA?9?$AAK?$AAE@ 00000001800270b0     libucrt:lcidtoname_downlevel.obj
 0002:000060c0       ??_C@_1BG@NDGMJIMJ@?$AAu?$AAz?$AA?9?$AAU?$AAZ?$AA?9?$AAL?$AAa?$AAt?$AAn@ 00000001800270c0     libucrt:lcidtoname_downlevel.obj
 0002:000060d8       ??_C@_1M@IDCCIHBC@?$AAt?$AAt?$AA?9?$AAR?$AAU@ 00000001800270d8     libucrt:lcidtoname_downlevel.obj
 0002:000060e8       ??_C@_1M@LOICPMOJ@?$AAb?$AAn?$AA?9?$AAI?$AAN@ 00000001800270e8     libucrt:lcidtoname_downlevel.obj
 0002:000060f8       ??_C@_1M@KPKKNEAH@?$AAp?$AAa?$AA?9?$AAI?$AAN@ 00000001800270f8     libucrt:lcidtoname_downlevel.obj
 0002:00006108       ??_C@_1M@PJGPPBOG@?$AAg?$AAu?$AA?9?$AAI?$AAN@ 0000000180027108     libucrt:lcidtoname_downlevel.obj
 0002:00006118       ??_C@_1M@KMKMOPHI@?$AAt?$AAa?$AA?9?$AAI?$AAN@ 0000000180027118     libucrt:lcidtoname_downlevel.obj
 0002:00006128       ??_C@_1M@KFEHEPAC@?$AAt?$AAe?$AA?9?$AAI?$AAN@ 0000000180027128     libucrt:lcidtoname_downlevel.obj
 0002:00006138       ??_C@_1M@CDCLMGHI@?$AAk?$AAn?$AA?9?$AAI?$AAN@ 0000000180027138     libucrt:lcidtoname_downlevel.obj
 0002:00006148       ??_C@_1M@MIODLDKF@?$AAm?$AAl?$AA?9?$AAI?$AAN@ 0000000180027148     libucrt:lcidtoname_downlevel.obj
 0002:00006158       ??_C@_1M@PBIEACPO@?$AAm?$AAr?$AA?9?$AAI?$AAN@ 0000000180027158     libucrt:lcidtoname_downlevel.obj
 0002:00006168       ??_C@_1M@NIDEAGPH@?$AAs?$AAa?$AA?9?$AAI?$AAN@ 0000000180027168     libucrt:lcidtoname_downlevel.obj
 0002:00006178       ??_C@_1M@FHIHCBIO@?$AAm?$AAn?$AA?9?$AAM?$AAN@ 0000000180027178     libucrt:lcidtoname_downlevel.obj
 0002:00006188       ??_C@_1M@JAIJPENP@?$AAc?$AAy?$AA?9?$AAG?$AAB@ 0000000180027188     libucrt:lcidtoname_downlevel.obj
 0002:00006198       ??_C@_1M@PHGFBEPN@?$AAg?$AAl?$AA?9?$AAE?$AAS@ 0000000180027198     libucrt:lcidtoname_downlevel.obj
 0002:000061a8       ??_C@_1O@KPIPDNCP@?$AAk?$AAo?$AAk?$AA?9?$AAI?$AAN@ 00000001800271a8     libucrt:lcidtoname_downlevel.obj
 0002:000061b8       ??_C@_1O@KNHJLDJA@?$AAs?$AAy?$AAr?$AA?9?$AAS?$AAY@ 00000001800271b8     libucrt:lcidtoname_downlevel.obj
 0002:000061c8       ??_C@_1O@MKEKBLAH@?$AAd?$AAi?$AAv?$AA?9?$AAM?$AAV@ 00000001800271c8     libucrt:lcidtoname_downlevel.obj
 0002:000061d8       ??_C@_1O@OHDCKDDF@?$AAq?$AAu?$AAz?$AA?9?$AAB?$AAO@ 00000001800271d8     libucrt:lcidtoname_downlevel.obj
 0002:000061e8       ??_C@_1M@LEPJNLFD@?$AAn?$AAs?$AA?9?$AAZ?$AAA@ 00000001800271e8     libucrt:lcidtoname_downlevel.obj
 0002:000061f8       ??_C@_1M@OMLEIIJB@?$AAm?$AAi?$AA?9?$AAN?$AAZ@ 00000001800271f8     libucrt:lcidtoname_downlevel.obj
 0002:00006208       ??_C@_1M@PMPEAILG@?$AAa?$AAr?$AA?9?$AAI?$AAQ@ 0000000180027208     libucrt:lcidtoname_downlevel.obj
 0002:00006218       ??_C@_1M@CNKPNOEE@?$AAd?$AAe?$AA?9?$AAC?$AAH@ 0000000180027218     libucrt:lcidtoname_downlevel.obj
 0002:00006228       ??_C@_1M@LKMGMLKO@?$AAe?$AAn?$AA?9?$AAG?$AAB@ 0000000180027228     libucrt:lcidtoname_downlevel.obj
 0002:00006238       ??_C@_1M@PGKJFFGL@?$AAe?$AAs?$AA?9?$AAM?$AAX@ 0000000180027238     libucrt:lcidtoname_downlevel.obj
 0002:00006248       ??_C@_1M@DNNANBDC@?$AAf?$AAr?$AA?9?$AAB?$AAE@ 0000000180027248     libucrt:lcidtoname_downlevel.obj
 0002:00006258       ??_C@_1M@HLGMDFHM@?$AAi?$AAt?$AA?9?$AAC?$AAH@ 0000000180027258     libucrt:lcidtoname_downlevel.obj
 0002:00006268       ??_C@_1M@CLLBGJH@?$AAn?$AAl?$AA?9?$AAB?$AAE@ 0000000180027268     libucrt:lcidtoname_downlevel.obj
 0002:00006278       ??_C@_1M@BODBOGLF@?$AAn?$AAn?$AA?9?$AAN?$AAO@ 0000000180027278     libucrt:lcidtoname_downlevel.obj
 0002:00006288       ??_C@_1M@HFFAHKAD@?$AAp?$AAt?$AA?9?$AAP?$AAT@ 0000000180027288     libucrt:lcidtoname_downlevel.obj
 0002:00006298       ??_C@_1BG@LNOAKHIE@?$AAs?$AAr?$AA?9?$AAS?$AAP?$AA?9?$AAL?$AAa?$AAt?$AAn@ 0000000180027298     libucrt:lcidtoname_downlevel.obj
 0002:000062b0       ??_C@_1M@HBMHBGAK@?$AAs?$AAv?$AA?9?$AAF?$AAI@ 00000001800272b0     libucrt:lcidtoname_downlevel.obj
 0002:000062c0       ??_C@_1BG@DGCJGJBE@?$AAa?$AAz?$AA?9?$AAA?$AAZ?$AA?9?$AAC?$AAy?$AAr?$AAl@ 00000001800272c0     libucrt:lcidtoname_downlevel.obj
 0002:000062d8       ??_C@_1M@KEJDAAHB@?$AAs?$AAe?$AA?9?$AAS?$AAE@ 00000001800272d8     libucrt:lcidtoname_downlevel.obj
 0002:000062e8       ??_C@_1M@HEIBJJAD@?$AAm?$AAs?$AA?9?$AAB?$AAN@ 00000001800272e8     libucrt:lcidtoname_downlevel.obj
 0002:000062f8       ??_C@_1BG@PBGJMCEM@?$AAu?$AAz?$AA?9?$AAU?$AAZ?$AA?9?$AAC?$AAy?$AAr?$AAl@ 00000001800272f8     libucrt:lcidtoname_downlevel.obj
 0002:00006310       ??_C@_1O@LAOBCMDF@?$AAq?$AAu?$AAz?$AA?9?$AAE?$AAC@ 0000000180027310     libucrt:lcidtoname_downlevel.obj
 0002:00006320       ??_C@_1M@POEEMAIO@?$AAa?$AAr?$AA?9?$AAE?$AAG@ 0000000180027320     libucrt:lcidtoname_downlevel.obj
 0002:00006330       ??_C@_1M@EFAKDEDL@?$AAz?$AAh?$AA?9?$AAH?$AAK@ 0000000180027330     libucrt:lcidtoname_downlevel.obj
 0002:00006340       ??_C@_1M@HKKIJHGI@?$AAd?$AAe?$AA?9?$AAA?$AAT@ 0000000180027340     libucrt:lcidtoname_downlevel.obj
 0002:00006350       ??_C@_1M@KBFBEHJF@?$AAe?$AAn?$AA?9?$AAA?$AAU@ 0000000180027350     libucrt:lcidtoname_downlevel.obj
 0002:00006360       ??_C@_1M@MNPLFAAH@?$AAe?$AAs?$AA?9?$AAE?$AAS@ 0000000180027360     libucrt:lcidtoname_downlevel.obj
 0002:00006370       ??_C@_1M@HJOOJFMA@?$AAf?$AAr?$AA?9?$AAC?$AAA@ 0000000180027370     libucrt:lcidtoname_downlevel.obj
 0002:00006380       ??_C@_1BG@JPOFPNAB@?$AAs?$AAr?$AA?9?$AAS?$AAP?$AA?9?$AAC?$AAy?$AAr?$AAl@ 0000000180027380     libucrt:lcidtoname_downlevel.obj
 0002:00006398       ??_C@_1M@LNFOCMOB@?$AAs?$AAe?$AA?9?$AAF?$AAI@ 0000000180027398     libucrt:lcidtoname_downlevel.obj
 0002:000063a8       ??_C@_1O@MGJBOAMB@?$AAq?$AAu?$AAz?$AA?9?$AAP?$AAE@ 00000001800273a8     libucrt:lcidtoname_downlevel.obj
 0002:000063b8       ??_C@_1M@GJINLBOK@?$AAa?$AAr?$AA?9?$AAL?$AAY@ 00000001800273b8     libucrt:lcidtoname_downlevel.obj
 0002:000063c8       ??_C@_1M@GGMNHJNL@?$AAz?$AAh?$AA?9?$AAS?$AAG@ 00000001800273c8     libucrt:lcidtoname_downlevel.obj
 0002:000063d8       ??_C@_1M@HOIKODND@?$AAd?$AAe?$AA?9?$AAL?$AAU@ 00000001800273d8     libucrt:lcidtoname_downlevel.obj
 0002:000063e8       ??_C@_1M@DDOCCGFG@?$AAe?$AAn?$AA?9?$AAC?$AAA@ 00000001800273e8     libucrt:lcidtoname_downlevel.obj
 0002:000063f8       ??_C@_1M@BNOEMJLF@?$AAe?$AAs?$AA?9?$AAG?$AAT@ 00000001800273f8     libucrt:lcidtoname_downlevel.obj
 0002:00006408       ??_C@_1M@EOGNKEK@?$AAf?$AAr?$AA?9?$AAC?$AAH@ 0000000180027408     libucrt:lcidtoname_downlevel.obj
 0002:00006418       ??_C@_1M@FLIDJFHL@?$AAh?$AAr?$AA?9?$AAB?$AAA@ 0000000180027418     libucrt:lcidtoname_downlevel.obj
 0002:00006428       ??_C@_1O@FMCELNAJ@?$AAs?$AAm?$AAj?$AA?9?$AAN?$AAO@ 0000000180027428     libucrt:lcidtoname_downlevel.obj
 0002:00006438       ??_C@_1M@JHGLJMGJ@?$AAa?$AAr?$AA?9?$AAD?$AAZ@ 0000000180027438     libucrt:lcidtoname_downlevel.obj
 0002:00006448       ??_C@_1M@JKKFDCNP@?$AAz?$AAh?$AA?9?$AAM?$AAO@ 0000000180027448     libucrt:lcidtoname_downlevel.obj
 0002:00006458       ??_C@_1M@GEEFALPE@?$AAd?$AAe?$AA?9?$AAL?$AAI@ 0000000180027458     libucrt:lcidtoname_downlevel.obj
 0002:00006468       ??_C@_1M@IGEOFBG@?$AAe?$AAn?$AA?9?$AAN?$AAZ@ 0000000180027468     libucrt:lcidtoname_downlevel.obj
 0002:00006478       ??_C@_1M@KDBONEHP@?$AAe?$AAs?$AA?9?$AAC?$AAR@ 0000000180027478     libucrt:lcidtoname_downlevel.obj
 0002:00006488       ??_C@_1M@FHMDOHNN@?$AAf?$AAr?$AA?9?$AAL?$AAU@ 0000000180027488     libucrt:lcidtoname_downlevel.obj
 0002:00006498       ??_C@_1BG@NFKKMAFG@?$AAb?$AAs?$AA?9?$AAB?$AAA?$AA?9?$AAL?$AAa?$AAt?$AAn@ 0000000180027498     libucrt:lcidtoname_downlevel.obj
 0002:000064b0       ??_C@_1O@IMNBEMCI@?$AAs?$AAm?$AAj?$AA?9?$AAS?$AAE@ 00000001800274b0     libucrt:lcidtoname_downlevel.obj
 0002:000064c0       ??_C@_1M@DHHMBNDP@?$AAa?$AAr?$AA?9?$AAM?$AAA@ 00000001800274c0     libucrt:lcidtoname_downlevel.obj
 0002:000064d0       ??_C@_1M@BNBLJCGH@?$AAe?$AAn?$AA?9?$AAI?$AAE@ 00000001800274d0     libucrt:lcidtoname_downlevel.obj
 0002:000064e0       ??_C@_1M@GEPAFMDL@?$AAe?$AAs?$AA?9?$AAP?$AAA@ 00000001800274e0     libucrt:lcidtoname_downlevel.obj
 0002:000064f0       ??_C@_1M@OJONDMDL@?$AAf?$AAr?$AA?9?$AAM?$AAC@ 00000001800274f0     libucrt:lcidtoname_downlevel.obj
 0002:00006500       ??_C@_1BG@OBCNFJB@?$AAs?$AAr?$AA?9?$AAB?$AAA?$AA?9?$AAL?$AAa?$AAt?$AAn@ 0000000180027500     libucrt:lcidtoname_downlevel.obj
 0002:00006518       ??_C@_1O@KEMEEGPO@?$AAs?$AAm?$AAa?$AA?9?$AAN?$AAO@ 0000000180027518     libucrt:lcidtoname_downlevel.obj
 0002:00006528       ??_C@_1M@ELMGFODK@?$AAa?$AAr?$AA?9?$AAT?$AAN@ 0000000180027528     libucrt:lcidtoname_downlevel.obj
 0002:00006538       ??_C@_1M@BHDLHFAF@?$AAe?$AAn?$AA?9?$AAZ?$AAA@ 0000000180027538     libucrt:lcidtoname_downlevel.obj
 0002:00006548       ??_C@_1M@BMGIGLIF@?$AAe?$AAs?$AA?9?$AAD?$AAO@ 0000000180027548     libucrt:lcidtoname_downlevel.obj
 0002:00006558       ??_C@_1BG@CMBHIPBE@?$AAs?$AAr?$AA?9?$AAB?$AAA?$AA?9?$AAC?$AAy?$AAr?$AAl@ 0000000180027558     libucrt:lcidtoname_downlevel.obj
 0002:00006570       ??_C@_1O@HEDBLHNP@?$AAs?$AAm?$AAa?$AA?9?$AAS?$AAE@ 0000000180027570     libucrt:lcidtoname_downlevel.obj
 0002:00006580       ??_C@_1M@DAGCADIM@?$AAa?$AAr?$AA?9?$AAO?$AAM@ 0000000180027580     libucrt:lcidtoname_downlevel.obj
 0002:00006590       ??_C@_1M@FODLMICG@?$AAe?$AAn?$AA?9?$AAJ?$AAM@ 0000000180027590     libucrt:lcidtoname_downlevel.obj
 0002:000065a0       ??_C@_1M@DNMLCIHB@?$AAe?$AAs?$AA?9?$AAV?$AAE@ 00000001800275a0     libucrt:lcidtoname_downlevel.obj
 0002:000065b0       ??_C@_1O@EOKHMKJK@?$AAs?$AAm?$AAs?$AA?9?$AAF?$AAI@ 00000001800275b0     libucrt:lcidtoname_downlevel.obj
 0002:000065c0       ??_C@_1M@CAFJMKOF@?$AAa?$AAr?$AA?9?$AAY?$AAE@ 00000001800275c0     libucrt:lcidtoname_downlevel.obj
 0002:000065d0       ??_C@_1M@CBFHIJLI@?$AAe?$AAn?$AA?9?$AAC?$AAB@ 00000001800275d0     libucrt:lcidtoname_downlevel.obj
 0002:000065e0       ??_C@_1M@BGNFLDN@?$AAe?$AAs?$AA?9?$AAC?$AAO@ 00000001800275e0     libucrt:lcidtoname_downlevel.obj
 0002:000065f0       ??_C@_1O@JMPHMAMC@?$AAs?$AAm?$AAn?$AA?9?$AAF?$AAI@ 00000001800275f0     libucrt:lcidtoname_downlevel.obj
 0002:00006600       ??_C@_1M@JLANABKE@?$AAa?$AAr?$AA?9?$AAS?$AAY@ 0000000180027600     libucrt:lcidtoname_downlevel.obj
 0002:00006610       ??_C@_1M@HPKGCFGN@?$AAe?$AAn?$AA?9?$AAB?$AAZ@ 0000000180027610     libucrt:lcidtoname_downlevel.obj
 0002:00006620       ??_C@_1M@OLJCMLGM@?$AAe?$AAs?$AA?9?$AAP?$AAE@ 0000000180027620     libucrt:lcidtoname_downlevel.obj
 0002:00006630       ??_C@_1M@MKKGFKLE@?$AAa?$AAr?$AA?9?$AAJ?$AAO@ 0000000180027630     libucrt:lcidtoname_downlevel.obj
 0002:00006640       ??_C@_1M@EKPGLDNI@?$AAe?$AAn?$AA?9?$AAT?$AAT@ 0000000180027640     libucrt:lcidtoname_downlevel.obj
 0002:00006650       ??_C@_1M@OONGHFHE@?$AAe?$AAs?$AA?9?$AAA?$AAR@ 0000000180027650     libucrt:lcidtoname_downlevel.obj
 0002:00006660       ??_C@_1M@OOJFGBHE@?$AAa?$AAr?$AA?9?$AAL?$AAB@ 0000000180027660     libucrt:lcidtoname_downlevel.obj
 0002:00006670       ??_C@_1M@GCEJHNEG@?$AAe?$AAn?$AA?9?$AAZ?$AAW@ 0000000180027670     libucrt:lcidtoname_downlevel.obj
 0002:00006680       ??_C@_1M@JNOCAHJI@?$AAe?$AAs?$AA?9?$AAE?$AAC@ 0000000180027680     libucrt:lcidtoname_downlevel.obj
 0002:00006690       ??_C@_1M@JEFHPGGB@?$AAa?$AAr?$AA?9?$AAK?$AAW@ 0000000180027690     libucrt:lcidtoname_downlevel.obj
 0002:000066a0       ??_C@_1M@MLKIBJOJ@?$AAe?$AAn?$AA?9?$AAP?$AAH@ 00000001800276a0     libucrt:lcidtoname_downlevel.obj
 0002:000066b0       ??_C@_1M@BDNIPEND@?$AAe?$AAs?$AA?9?$AAC?$AAL@ 00000001800276b0     libucrt:lcidtoname_downlevel.obj
 0002:000066c0       ??_C@_1M@MPNMEKBD@?$AAa?$AAr?$AA?9?$AAA?$AAE@ 00000001800276c0     libucrt:lcidtoname_downlevel.obj
 0002:000066d0       ??_C@_1M@KBJALCPI@?$AAe?$AAs?$AA?9?$AAU?$AAY@ 00000001800276d0     libucrt:lcidtoname_downlevel.obj
 0002:000066e0       ??_C@_1M@LLCCOAGA@?$AAa?$AAr?$AA?9?$AAB?$AAH@ 00000001800276e0     libucrt:lcidtoname_downlevel.obj
 0002:000066f0       ??_C@_1M@PBFNCDEL@?$AAe?$AAs?$AA?9?$AAP?$AAY@ 00000001800276f0     libucrt:lcidtoname_downlevel.obj
 0002:00006700       ??_C@_1M@EDGINPNP@?$AAa?$AAr?$AA?9?$AAQ?$AAA@ 0000000180027700     libucrt:lcidtoname_downlevel.obj
 0002:00006710       ??_C@_1M@MKDBIIJI@?$AAe?$AAs?$AA?9?$AAB?$AAO@ 0000000180027710     libucrt:lcidtoname_downlevel.obj
 0002:00006720       ??_C@_1M@CPKKEBLD@?$AAe?$AAs?$AA?9?$AAS?$AAV@ 0000000180027720     libucrt:lcidtoname_downlevel.obj
 0002:00006730       ??_C@_1M@NDBGMMJL@?$AAe?$AAs?$AA?9?$AAH?$AAN@ 0000000180027730     libucrt:lcidtoname_downlevel.obj
 0002:00006740       ??_C@_1M@JIJIBHDP@?$AAe?$AAs?$AA?9?$AAN?$AAI@ 0000000180027740     libucrt:lcidtoname_downlevel.obj
 0002:00006750       ??_C@_1M@CGFMKEEK@?$AAe?$AAs?$AA?9?$AAP?$AAR@ 0000000180027750     libucrt:lcidtoname_downlevel.obj
 0002:00006760       ??_C@_1O@ICJHKIIK@?$AAz?$AAh?$AA?9?$AAC?$AAH?$AAT@ 0000000180027760     libucrt:lcidtoname_downlevel.obj
 0002:00006770       ??_C@_15CLNEJCE@?$AAs?$AAr@ 0000000180027770     libucrt:lcidtoname_downlevel.obj
 0002:000075c0       ??_C@_1M@KAHEKEIG@?$AAa?$AAf?$AA?9?$AAz?$AAa@ 00000001800285c0     libucrt:lcidtoname_downlevel.obj
 0002:000075d0       ??_C@_1M@GIECOABL@?$AAa?$AAr?$AA?9?$AAa?$AAe@ 00000001800285d0     libucrt:lcidtoname_downlevel.obj
 0002:000075e0       ??_C@_1M@BMLMEKGI@?$AAa?$AAr?$AA?9?$AAb?$AAh@ 00000001800285e0     libucrt:lcidtoname_downlevel.obj
 0002:000075f0       ??_C@_1M@DAPFDGGB@?$AAa?$AAr?$AA?9?$AAd?$AAz@ 00000001800285f0     libucrt:lcidtoname_downlevel.obj
 0002:00007600       ??_C@_1M@FJNKGKIG@?$AAa?$AAr?$AA?9?$AAe?$AAg@ 0000000180028600     libucrt:lcidtoname_downlevel.obj
 0002:00007610       ??_C@_1M@FLGKKCLO@?$AAa?$AAr?$AA?9?$AAi?$AAq@ 0000000180028610     libucrt:lcidtoname_downlevel.obj
 0002:00007620       ??_C@_1M@GNDIPALM@?$AAa?$AAr?$AA?9?$AAj?$AAo@ 0000000180028620     libucrt:lcidtoname_downlevel.obj
 0002:00007630       ??_C@_1M@DDMJFMGJ@?$AAa?$AAr?$AA?9?$AAk?$AAw@ 0000000180028630     libucrt:lcidtoname_downlevel.obj
 0002:00007640       ??_C@_1M@EJALMLHM@?$AAa?$AAr?$AA?9?$AAl?$AAb@ 0000000180028640     libucrt:lcidtoname_downlevel.obj
 0002:00007650       ??_C@_1M@MOBDBLOC@?$AAa?$AAr?$AA?9?$AAl?$AAy@ 0000000180028650     libucrt:lcidtoname_downlevel.obj
 0002:00007660       ??_C@_1M@JAOCLHDH@?$AAa?$AAr?$AA?9?$AAm?$AAa@ 0000000180028660     libucrt:lcidtoname_downlevel.obj
 0002:00007670       ??_C@_1M@JHPMKJIE@?$AAa?$AAr?$AA?9?$AAo?$AAm@ 0000000180028670     libucrt:lcidtoname_downlevel.obj
 0002:00007680       ??_C@_1M@OEPGHFNH@?$AAa?$AAr?$AA?9?$AAq?$AAa@ 0000000180028680     libucrt:lcidtoname_downlevel.obj
 0002:00007690       ??_C@_1M@KJDONENM@?$AAa?$AAr?$AA?9?$AAs?$AAa@ 0000000180028690     libucrt:lcidtoname_downlevel.obj
 0002:000076a0       ??_C@_1M@DMJDKLKM@?$AAa?$AAr?$AA?9?$AAs?$AAy@ 00000001800286a0     libucrt:lcidtoname_downlevel.obj
 0002:000076b0       ??_C@_1M@OMFIPEDC@?$AAa?$AAr?$AA?9?$AAt?$AAn@ 00000001800286b0     libucrt:lcidtoname_downlevel.obj
 0002:000076c0       ??_C@_1M@IHMHGAON@?$AAa?$AAr?$AA?9?$AAy?$AAe@ 00000001800286c0     libucrt:lcidtoname_downlevel.obj
 0002:000076d0       ??_C@_1BG@KDCPGJGB@?$AAa?$AAz?$AA?9?$AAa?$AAz?$AA?9?$AAc?$AAy?$AAr?$AAl@ 00000001800286d0     libucrt:lcidtoname_downlevel.obj
 0002:000076e8       ??_C@_1BG@IBCKDDOE@?$AAa?$AAz?$AA?9?$AAa?$AAz?$AA?9?$AAl?$AAa?$AAt?$AAn@ 00000001800286e8     libucrt:lcidtoname_downlevel.obj
 0002:00007700       ??_C@_1M@EGPFDCPD@?$AAb?$AAe?$AA?9?$AAb?$AAy@ 0000000180028700     libucrt:lcidtoname_downlevel.obj
 0002:00007710       ??_C@_1M@PCMGMCGC@?$AAb?$AAg?$AA?9?$AAb?$AAg@ 0000000180028710     libucrt:lcidtoname_downlevel.obj
 0002:00007720       ??_C@_1M@BJBMFGOB@?$AAb?$AAn?$AA?9?$AAi?$AAn@ 0000000180028720     libucrt:lcidtoname_downlevel.obj
 0002:00007730       ??_C@_1BG@EAKMMACD@?$AAb?$AAs?$AA?9?$AAb?$AAa?$AA?9?$AAl?$AAa?$AAt?$AAn@ 0000000180028730     libucrt:lcidtoname_downlevel.obj
 0002:00007748       ??_C@_1M@KGADAODK@?$AAc?$AAa?$AA?9?$AAe?$AAs@ 0000000180028748     libucrt:lcidtoname_downlevel.obj
 0002:00007758       ??_C@_1M@COAJPDHI@?$AAc?$AAs?$AA?9?$AAc?$AAz@ 0000000180028758     libucrt:lcidtoname_downlevel.obj
 0002:00007768       ??_C@_1M@DHBHFONH@?$AAc?$AAy?$AA?9?$AAg?$AAb@ 0000000180028768     libucrt:lcidtoname_downlevel.obj
 0002:00007778       ??_C@_1M@IMGKELGA@?$AAd?$AAa?$AA?9?$AAd?$AAk@ 0000000180028778     libucrt:lcidtoname_downlevel.obj
 0002:00007788       ??_C@_1M@NNDGDNGA@?$AAd?$AAe?$AA?9?$AAa?$AAt@ 0000000180028788     libucrt:lcidtoname_downlevel.obj
 0002:00007798       ??_C@_1M@IKDBHEEM@?$AAd?$AAe?$AA?9?$AAc?$AAh@ 0000000180028798     libucrt:lcidtoname_downlevel.obj
 0002:000077a8       ??_C@_1M@GFFOJMCJ@?$AAd?$AAe?$AA?9?$AAd?$AAe@ 00000001800287a8     libucrt:lcidtoname_downlevel.obj
 0002:000077b8       ??_C@_1M@MDNLKBPM@?$AAd?$AAe?$AA?9?$AAl?$AAi@ 00000001800287b8     libucrt:lcidtoname_downlevel.obj
 0002:000077c8       ??_C@_1M@NJBEEJNL@?$AAd?$AAe?$AA?9?$AAl?$AAu@ 00000001800287c8     libucrt:lcidtoname_downlevel.obj
 0002:000077d8       ??_C@_1O@GNNELBAP@?$AAd?$AAi?$AAv?$AA?9?$AAm?$AAv@ 00000001800287d8     libucrt:lcidtoname_downlevel.obj
 0002:000077e8       ??_C@_1M@EJLEOGAE@?$AAe?$AAl?$AA?9?$AAg?$AAr@ 00000001800287e8     libucrt:lcidtoname_downlevel.obj
 0002:000077f8       ??_C@_1M@GMPONJN@?$AAe?$AAn?$AA?9?$AAa?$AAu@ 00000001800287f8     libucrt:lcidtoname_downlevel.obj
 0002:00007808       ??_C@_1M@NIDIIPGF@?$AAe?$AAn?$AA?9?$AAb?$AAz@ 0000000180028808     libucrt:lcidtoname_downlevel.obj
 0002:00007818       ??_C@_1M@JEHMIMFO@?$AAe?$AAn?$AA?9?$AAc?$AAa@ 0000000180028818     libucrt:lcidtoname_downlevel.obj
 0002:00007828       ??_C@_1M@IGMJCDLA@?$AAe?$AAn?$AA?9?$AAc?$AAb@ 0000000180028828     libucrt:lcidtoname_downlevel.obj
 0002:00007838       ??_C@_1M@BNFIGBKG@?$AAe?$AAn?$AA?9?$AAg?$AAb@ 0000000180028838     libucrt:lcidtoname_downlevel.obj
 0002:00007848       ??_C@_1M@LKIFDIGP@?$AAe?$AAn?$AA?9?$AAi?$AAe@ 0000000180028848     libucrt:lcidtoname_downlevel.obj
 0002:00007858       ??_C@_1M@PJKFGCCO@?$AAe?$AAn?$AA?9?$AAj?$AAm@ 0000000180028858     libucrt:lcidtoname_downlevel.obj
 0002:00007868       ??_C@_1M@KPPKEPBO@?$AAe?$AAn?$AA?9?$AAn?$AAz@ 0000000180028868     libucrt:lcidtoname_downlevel.obj
 0002:00007878       ??_C@_1M@GMDGLDOB@?$AAe?$AAn?$AA?9?$AAp?$AAh@ 0000000180028878     libucrt:lcidtoname_downlevel.obj
 0002:00007888       ??_C@_1M@ONGIBJNA@?$AAe?$AAn?$AA?9?$AAt?$AAt@ 0000000180028888     libucrt:lcidtoname_downlevel.obj
 0002:00007898       ??_C@_1M@LLODPCMM@?$AAe?$AAn?$AA?9?$AAu?$AAs@ 0000000180028898     libucrt:lcidtoname_downlevel.obj
 0002:000078a8       ??_C@_1M@LAKFNPAN@?$AAe?$AAn?$AA?9?$AAz?$AAa@ 00000001800288a8     libucrt:lcidtoname_downlevel.obj
 0002:000078b8       ??_C@_1M@MFNHNHEO@?$AAe?$AAn?$AA?9?$AAz?$AAw@ 00000001800288b8     libucrt:lcidtoname_downlevel.obj
 0002:000078c8       ??_C@_1M@EJEINPHM@?$AAe?$AAs?$AA?9?$AAa?$AAr@ 00000001800288c8     libucrt:lcidtoname_downlevel.obj
 0002:000078d8       ??_C@_1M@GNKPCCJA@?$AAe?$AAs?$AA?9?$AAb?$AAo@ 00000001800288d8     libucrt:lcidtoname_downlevel.obj
 0002:000078e8       ??_C@_1M@LEEGFONL@?$AAe?$AAs?$AA?9?$AAc?$AAl@ 00000001800288e8     libucrt:lcidtoname_downlevel.obj
 0002:000078f8       ??_C@_1M@KGPDPBDF@?$AAe?$AAs?$AA?9?$AAc?$AAo@ 00000001800288f8     libucrt:lcidtoname_downlevel.obj
 0002:00007908       ??_C@_1M@EIAHOHH@?$AAe?$AAs?$AA?9?$AAc?$AAr@ 0000000180028908     libucrt:lcidtoname_downlevel.obj
 0002:00007918       ??_C@_1M@LLPGMBIN@?$AAe?$AAs?$AA?9?$AAd?$AAo@ 0000000180028918     libucrt:lcidtoname_downlevel.obj
 0002:00007928       ??_C@_1M@DKHMKNJA@?$AAe?$AAs?$AA?9?$AAe?$AAc@ 0000000180028928     libucrt:lcidtoname_downlevel.obj
 0002:00007938       ??_C@_1M@GKGFPKAP@?$AAe?$AAs?$AA?9?$AAe?$AAs@ 0000000180028938     libucrt:lcidtoname_downlevel.obj
 0002:00007948       ??_C@_1M@LKHKGDLN@?$AAe?$AAs?$AA?9?$AAg?$AAt@ 0000000180028948     libucrt:lcidtoname_downlevel.obj
 0002:00007958       ??_C@_1M@HEIIGGJD@?$AAe?$AAs?$AA?9?$AAh?$AAn@ 0000000180028958     libucrt:lcidtoname_downlevel.obj
 0002:00007968       ??_C@_1M@FBDHPPGD@?$AAe?$AAs?$AA?9?$AAm?$AAx@ 0000000180028968     libucrt:lcidtoname_downlevel.obj
 0002:00007978       ??_C@_1M@DPAGLNDH@?$AAe?$AAs?$AA?9?$AAn?$AAi@ 0000000180028978     libucrt:lcidtoname_downlevel.obj
 0002:00007988       ??_C@_1M@MDGOPGDD@?$AAe?$AAs?$AA?9?$AAp?$AAa@ 0000000180028988     libucrt:lcidtoname_downlevel.obj
 0002:00007998       ??_C@_1M@EMAMGBGE@?$AAe?$AAs?$AA?9?$AAp?$AAe@ 0000000180028998     libucrt:lcidtoname_downlevel.obj
 0002:000079a8       ??_C@_1M@IBMCAOEC@?$AAe?$AAs?$AA?9?$AAp?$AAr@ 00000001800289a8     libucrt:lcidtoname_downlevel.obj
 0002:000079b8       ??_C@_1M@FGMDIJED@?$AAe?$AAs?$AA?9?$AAp?$AAy@ 00000001800289b8     libucrt:lcidtoname_downlevel.obj
 0002:000079c8       ??_C@_1M@IIDEOLLL@?$AAe?$AAs?$AA?9?$AAs?$AAv@ 00000001800289c8     libucrt:lcidtoname_downlevel.obj
 0002:000079d8       ??_C@_1M@GAOBIPA@?$AAe?$AAs?$AA?9?$AAu?$AAy@ 00000001800289d8     libucrt:lcidtoname_downlevel.obj
 0002:000079e8       ??_C@_1M@JKFFICHJ@?$AAe?$AAs?$AA?9?$AAv?$AAe@ 00000001800289e8     libucrt:lcidtoname_downlevel.obj
 0002:000079f8       ??_C@_1M@PNMLOJDF@?$AAe?$AAt?$AA?9?$AAe?$AAe@ 00000001800289f8     libucrt:lcidtoname_downlevel.obj
 0002:00007a08       ??_C@_1M@GHHLIKEI@?$AAe?$AAu?$AA?9?$AAe?$AAs@ 0000000180028a08     libucrt:lcidtoname_downlevel.obj
 0002:00007a18       ??_C@_1M@PBNONODE@?$AAf?$AAa?$AA?9?$AAi?$AAr@ 0000000180028a18     libucrt:lcidtoname_downlevel.obj
 0002:00007a28       ??_C@_1M@JEEHPMIL@?$AAf?$AAi?$AA?9?$AAf?$AAi@ 0000000180028a28     libucrt:lcidtoname_downlevel.obj
 0002:00007a38       ??_C@_1M@LMDCNDBA@?$AAf?$AAo?$AA?9?$AAf?$AAo@ 0000000180028a38     libucrt:lcidtoname_downlevel.obj
 0002:00007a48       ??_C@_1M@JKEOHLDK@?$AAf?$AAr?$AA?9?$AAb?$AAe@ 0000000180028a48     libucrt:lcidtoname_downlevel.obj
 0002:00007a58       ??_C@_1M@NOHADPMI@?$AAf?$AAr?$AA?9?$AAc?$AAa@ 0000000180028a58     libucrt:lcidtoname_downlevel.obj
 0002:00007a68       ??_C@_1M@KDHIHAEC@?$AAf?$AAr?$AA?9?$AAc?$AAh@ 0000000180028a68     libucrt:lcidtoname_downlevel.obj
 0002:00007a78       ??_C@_1M@MMBBFGAK@?$AAf?$AAr?$AA?9?$AAf?$AAr@ 0000000180028a78     libucrt:lcidtoname_downlevel.obj
 0002:00007a88       ??_C@_1M@PAFNENNF@?$AAf?$AAr?$AA?9?$AAl?$AAu@ 0000000180028a88     libucrt:lcidtoname_downlevel.obj
 0002:00007a98       ??_C@_1M@EOHDJGDD@?$AAf?$AAr?$AA?9?$AAm?$AAc@ 0000000180028a98     libucrt:lcidtoname_downlevel.obj
 0002:00007aa8       ??_C@_1M@FAPLLOPF@?$AAg?$AAl?$AA?9?$AAe?$AAs@ 0000000180028aa8     libucrt:lcidtoname_downlevel.obj
 0002:00007ab8       ??_C@_1M@FOPBFLOO@?$AAg?$AAu?$AA?9?$AAi?$AAn@ 0000000180028ab8     libucrt:lcidtoname_downlevel.obj
 0002:00007ac8       ??_C@_1M@KBMCINPM@?$AAh?$AAe?$AA?9?$AAi?$AAl@ 0000000180028ac8     libucrt:lcidtoname_downlevel.obj
 0002:00007ad8       ??_C@_1M@BBPHKFPJ@?$AAh?$AAi?$AA?9?$AAi?$AAn@ 0000000180028ad8     libucrt:lcidtoname_downlevel.obj
 0002:00007ae8       ??_C@_1M@PMBNDPHD@?$AAh?$AAr?$AA?9?$AAb?$AAa@ 0000000180028ae8     libucrt:lcidtoname_downlevel.obj
 0002:00007af8       ??_C@_1M@BPCKOEGE@?$AAh?$AAr?$AA?9?$AAh?$AAr@ 0000000180028af8     libucrt:lcidtoname_downlevel.obj
 0002:00007b08       ??_C@_1M@GACBMHKE@?$AAh?$AAu?$AA?9?$AAh?$AAu@ 0000000180028b08     libucrt:lcidtoname_downlevel.obj
 0002:00007b18       ??_C@_1M@MILPAJJC@?$AAh?$AAy?$AA?9?$AAa?$AAm@ 0000000180028b18     libucrt:lcidtoname_downlevel.obj
 0002:00007b28       ??_C@_1M@BABBICEC@?$AAi?$AAd?$AA?9?$AAi?$AAd@ 0000000180028b28     libucrt:lcidtoname_downlevel.obj
 0002:00007b38       ??_C@_1M@BIKNHHPF@?$AAi?$AAs?$AA?9?$AAi?$AAs@ 0000000180028b38     libucrt:lcidtoname_downlevel.obj
 0002:00007b48       ??_C@_1M@NMPCJPHE@?$AAi?$AAt?$AA?9?$AAc?$AAh@ 0000000180028b48     libucrt:lcidtoname_downlevel.obj
 0002:00007b58       ??_C@_1M@GHKGFEDF@?$AAi?$AAt?$AA?9?$AAi?$AAt@ 0000000180028b58     libucrt:lcidtoname_downlevel.obj
 0002:00007b68       ??_C@_1M@NIEJCJJA@?$AAj?$AAa?$AA?9?$AAj?$AAp@ 0000000180028b68     libucrt:lcidtoname_downlevel.obj
 0002:00007b78       ??_C@_1M@JILFNBIM@?$AAk?$AAa?$AA?9?$AAg?$AAe@ 0000000180028b78     libucrt:lcidtoname_downlevel.obj
 0002:00007b88       ??_C@_1M@PACPMGPH@?$AAk?$AAk?$AA?9?$AAk?$AAz@ 0000000180028b88     libucrt:lcidtoname_downlevel.obj
 0002:00007b98       ??_C@_1M@IELFGMHA@?$AAk?$AAn?$AA?9?$AAi?$AAn@ 0000000180028b98     libucrt:lcidtoname_downlevel.obj
 0002:00007ba8       ??_C@_1O@IBBJHCH@?$AAk?$AAo?$AAk?$AA?9?$AAi?$AAn@ 0000000180028ba8     libucrt:lcidtoname_downlevel.obj
 0002:00007bb8       ??_C@_1M@DMHAEOGC@?$AAk?$AAo?$AA?9?$AAk?$AAr@ 0000000180028bb8     libucrt:lcidtoname_downlevel.obj
 0002:00007bc8       ??_C@_1M@HBAHBIGA@?$AAk?$AAy?$AA?9?$AAk?$AAg@ 0000000180028bc8     libucrt:lcidtoname_downlevel.obj
 0002:00007bd8       ??_C@_1M@KPMILCJG@?$AAl?$AAt?$AA?9?$AAl?$AAt@ 0000000180028bd8     libucrt:lcidtoname_downlevel.obj
 0002:00007be8       ??_C@_1M@BDEKKCA@?$AAl?$AAv?$AA?9?$AAl?$AAv@ 0000000180028be8     libucrt:lcidtoname_downlevel.obj
 0002:00007bf8       ??_C@_1M@ELCKCCJJ@?$AAm?$AAi?$AA?9?$AAn?$AAz@ 0000000180028bf8     libucrt:lcidtoname_downlevel.obj
 0002:00007c08       ??_C@_1M@CBOOLAPA@?$AAm?$AAk?$AA?9?$AAm?$AAk@ 0000000180028c08     libucrt:lcidtoname_downlevel.obj
 0002:00007c18       ??_C@_1M@GPHNBJKN@?$AAm?$AAl?$AA?9?$AAi?$AAn@ 0000000180028c18     libucrt:lcidtoname_downlevel.obj
 0002:00007c28       ??_C@_1M@PABJILIG@?$AAm?$AAn?$AA?9?$AAm?$AAn@ 0000000180028c28     libucrt:lcidtoname_downlevel.obj
 0002:00007c38       ??_C@_1M@FGBKKIPG@?$AAm?$AAr?$AA?9?$AAi?$AAn@ 0000000180028c38     libucrt:lcidtoname_downlevel.obj
 0002:00007c48       ??_C@_1M@NDBPDDAL@?$AAm?$AAs?$AA?9?$AAb?$AAn@ 0000000180028c48     libucrt:lcidtoname_downlevel.obj
 0002:00007c58       ??_C@_1M@OPIHOOPI@?$AAm?$AAs?$AA?9?$AAm?$AAy@ 0000000180028c58     libucrt:lcidtoname_downlevel.obj
 0002:00007c68       ??_C@_1M@PPDBCNFM@?$AAm?$AAt?$AA?9?$AAm?$AAt@ 0000000180028c68     libucrt:lcidtoname_downlevel.obj
 0002:00007c78       ??_C@_1M@KDJDKMDD@?$AAn?$AAb?$AA?9?$AAn?$AAo@ 0000000180028c78     libucrt:lcidtoname_downlevel.obj
 0002:00007c88       ??_C@_1M@KFCFLMJP@?$AAn?$AAl?$AA?9?$AAb?$AAe@ 0000000180028c88     libucrt:lcidtoname_downlevel.obj
 0002:00007c98       ??_C@_1M@KPOPDDGO@?$AAn?$AAl?$AA?9?$AAn?$AAl@ 0000000180028c98     libucrt:lcidtoname_downlevel.obj
 0002:00007ca8       ??_C@_1M@LJKPEMLN@?$AAn?$AAn?$AA?9?$AAn?$AAo@ 0000000180028ca8     libucrt:lcidtoname_downlevel.obj
 0002:00007cb8       ??_C@_1M@BDGHHBFL@?$AAn?$AAs?$AA?9?$AAz?$AAa@ 0000000180028cb8     libucrt:lcidtoname_downlevel.obj
 0002:00007cc8       ??_C@_1M@IDEHOAP@?$AAp?$AAa?$AA?9?$AAi?$AAn@ 0000000180028cc8     libucrt:lcidtoname_downlevel.obj
 0002:00007cd8       ??_C@_1M@HDBKGOGH@?$AAp?$AAl?$AA?9?$AAp?$AAl@ 0000000180028cd8     libucrt:lcidtoname_downlevel.obj
 0002:00007ce8       ??_C@_1M@LJLLCMEH@?$AAp?$AAt?$AA?9?$AAb?$AAr@ 0000000180028ce8     libucrt:lcidtoname_downlevel.obj
 0002:00007cf8       ??_C@_1M@NCMONAAL@?$AAp?$AAt?$AA?9?$AAp?$AAt@ 0000000180028cf8     libucrt:lcidtoname_downlevel.obj
 0002:00007d08       ??_C@_1O@EAKMAJDN@?$AAq?$AAu?$AAz?$AA?9?$AAb?$AAo@ 0000000180028d08     libucrt:lcidtoname_downlevel.obj
 0002:00007d18       ??_C@_1O@BHHPIGDN@?$AAq?$AAu?$AAz?$AA?9?$AAe?$AAc@ 0000000180028d18     libucrt:lcidtoname_downlevel.obj
 0002:00007d28       ??_C@_1O@GBAPEKMJ@?$AAq?$AAu?$AAz?$AA?9?$AAp?$AAe@ 0000000180028d28     libucrt:lcidtoname_downlevel.obj
 0002:00007d38       ??_C@_1M@CLGLEFBO@?$AAr?$AAo?$AA?9?$AAr?$AAo@ 0000000180028d38     libucrt:lcidtoname_downlevel.obj
 0002:00007d48       ??_C@_1M@CEEDODME@?$AAr?$AAu?$AA?9?$AAr?$AAu@ 0000000180028d48     libucrt:lcidtoname_downlevel.obj
 0002:00007d58       ??_C@_1M@HPKKKMPP@?$AAs?$AAa?$AA?9?$AAi?$AAn@ 0000000180028d58     libucrt:lcidtoname_downlevel.obj
 0002:00007d68       ??_C@_1M@BKMAIGOJ@?$AAs?$AAe?$AA?9?$AAf?$AAi@ 0000000180028d68     libucrt:lcidtoname_downlevel.obj
 0002:00007d78       ??_C@_1M@NDPIFLFI@?$AAs?$AAe?$AA?9?$AAn?$AAo@ 0000000180028d78     libucrt:lcidtoname_downlevel.obj
 0002:00007d88       ??_C@_1M@DANKKHJ@?$AAs?$AAe?$AA?9?$AAs?$AAe@ 0000000180028d88     libucrt:lcidtoname_downlevel.obj
 0002:00007d98       ??_C@_1M@PNBLONPJ@?$AAs?$AAk?$AA?9?$AAs?$AAk@ 0000000180028d98     libucrt:lcidtoname_downlevel.obj
 0002:00007da8       ??_C@_1M@LFMODOAL@?$AAs?$AAl?$AA?9?$AAs?$AAi@ 0000000180028da8     libucrt:lcidtoname_downlevel.obj
 0002:00007db8       ??_C@_1O@DFKOMPG@?$AAs?$AAm?$AAa?$AA?9?$AAn?$AAo@ 0000000180028db8     libucrt:lcidtoname_downlevel.obj
 0002:00007dc8       ??_C@_1O@NDKPBNNH@?$AAs?$AAm?$AAa?$AA?9?$AAs?$AAe@ 0000000180028dc8     libucrt:lcidtoname_downlevel.obj
 0002:00007dd8       ??_C@_1O@PLLKBHAB@?$AAs?$AAm?$AAj?$AA?9?$AAn?$AAo@ 0000000180028dd8     libucrt:lcidtoname_downlevel.obj
 0002:00007de8       ??_C@_1O@CLEPOGCA@?$AAs?$AAm?$AAj?$AA?9?$AAs?$AAe@ 0000000180028de8     libucrt:lcidtoname_downlevel.obj
 0002:00007df8       ??_C@_1O@DLGJGKMK@?$AAs?$AAm?$AAn?$AA?9?$AAf?$AAi@ 0000000180028df8     libucrt:lcidtoname_downlevel.obj
 0002:00007e08       ??_C@_1O@OJDJGAJC@?$AAs?$AAm?$AAs?$AA?9?$AAf?$AAi@ 0000000180028e08     libucrt:lcidtoname_downlevel.obj
 0002:00007e18       ??_C@_1M@BOFOGHPB@?$AAs?$AAq?$AA?9?$AAa?$AAl@ 0000000180028e18     libucrt:lcidtoname_downlevel.obj
 0002:00007e28       ??_C@_1BG@LJBBIPGB@?$AAs?$AAr?$AA?9?$AAb?$AAa?$AA?9?$AAc?$AAy?$AAr?$AAl@ 0000000180028e28     libucrt:lcidtoname_downlevel.obj
 0002:00007e40       ??_C@_1BG@JLBENFOE@?$AAs?$AAr?$AA?9?$AAb?$AAa?$AA?9?$AAl?$AAa?$AAt?$AAn@ 0000000180028e40     libucrt:lcidtoname_downlevel.obj
 0002:00007e58       ??_C@_1BG@KODPNHE@?$AAs?$AAr?$AA?9?$AAs?$AAp?$AA?9?$AAc?$AAy?$AAr?$AAl@ 0000000180028e58     libucrt:lcidtoname_downlevel.obj
 0002:00007e70       ??_C@_1BG@CIOGKHPB@?$AAs?$AAr?$AA?9?$AAs?$AAp?$AA?9?$AAl?$AAa?$AAt?$AAn@ 0000000180028e70     libucrt:lcidtoname_downlevel.obj
 0002:00007e88       ??_C@_1M@NGFJLMAC@?$AAs?$AAv?$AA?9?$AAf?$AAi@ 0000000180028e88     libucrt:lcidtoname_downlevel.obj
 0002:00007e98       ??_C@_1M@MPJEJAJC@?$AAs?$AAv?$AA?9?$AAs?$AAe@ 0000000180028e98     libucrt:lcidtoname_downlevel.obj
 0002:00007ea8       ??_C@_1M@MPNDHLFK@?$AAs?$AAw?$AA?9?$AAk?$AAe@ 0000000180028ea8     libucrt:lcidtoname_downlevel.obj
 0002:00007eb8       ??_C@_1O@KOHBJJI@?$AAs?$AAy?$AAr?$AA?9?$AAs?$AAy@ 0000000180028eb8     libucrt:lcidtoname_downlevel.obj
 0002:00007ec8       ??_C@_1M@LDCEFHA@?$AAt?$AAa?$AA?9?$AAi?$AAn@ 0000000180028ec8     libucrt:lcidtoname_downlevel.obj
 0002:00007ed8       ??_C@_1M@CNJOFAK@?$AAt?$AAe?$AA?9?$AAi?$AAn@ 0000000180028ed8     libucrt:lcidtoname_downlevel.obj
 0002:00007ee8       ??_C@_1M@GNAECACD@?$AAt?$AAh?$AA?9?$AAt?$AAh@ 0000000180028ee8     libucrt:lcidtoname_downlevel.obj
 0002:00007ef8       ??_C@_1M@CHBIHOJO@?$AAt?$AAn?$AA?9?$AAz?$AAa@ 0000000180028ef8     libucrt:lcidtoname_downlevel.obj
 0002:00007f08       ??_C@_1M@GCCMIGPJ@?$AAt?$AAr?$AA?9?$AAt?$AAr@ 0000000180028f08     libucrt:lcidtoname_downlevel.obj
 0002:00007f18       ??_C@_1M@CELMCNBK@?$AAt?$AAt?$AA?9?$AAr?$AAu@ 0000000180028f18     libucrt:lcidtoname_downlevel.obj
 0002:00007f28       ??_C@_1M@KLMCELGA@?$AAu?$AAk?$AA?9?$AAu?$AAa@ 0000000180028f28     libucrt:lcidtoname_downlevel.obj
 0002:00007f38       ??_C@_1M@EPAJJAJF@?$AAu?$AAr?$AA?9?$AAp?$AAk@ 0000000180028f38     libucrt:lcidtoname_downlevel.obj
 0002:00007f48       ??_C@_1BG@GEGPMCDJ@?$AAu?$AAz?$AA?9?$AAu?$AAz?$AA?9?$AAc?$AAy?$AAr?$AAl@ 0000000180028f48     libucrt:lcidtoname_downlevel.obj
 0002:00007f60       ??_C@_1BG@EGGKJILM@?$AAu?$AAz?$AA?9?$AAu?$AAz?$AA?9?$AAl?$AAa?$AAt?$AAn@ 0000000180028f60     libucrt:lcidtoname_downlevel.obj
 0002:00007f78       ??_C@_1M@GFOCLFF@?$AAv?$AAi?$AA?9?$AAv?$AAn@ 0000000180028f78     libucrt:lcidtoname_downlevel.obj
 0002:00007f88       ??_C@_1M@CPAMEDFI@?$AAx?$AAh?$AA?9?$AAz?$AAa@ 0000000180028f88     libucrt:lcidtoname_downlevel.obj
 0002:00007f98       ??_C@_1O@EBKIFIGN@?$AAz?$AAh?$AA?9?$AAc?$AAh?$AAs@ 0000000180028f98     libucrt:lcidtoname_downlevel.obj
 0002:00007fa8       ??_C@_1O@NMHPGANE@?$AAz?$AAh?$AA?9?$AAc?$AAh?$AAt@ 0000000180028fa8     libucrt:lcidtoname_downlevel.obj
 0002:00007fb8       ??_C@_1M@LPINJOMC@?$AAz?$AAh?$AA?9?$AAc?$AAn@ 0000000180028fb8     libucrt:lcidtoname_downlevel.obj
 0002:00007fc8       ??_C@_1M@OCJEJODD@?$AAz?$AAh?$AA?9?$AAh?$AAk@ 0000000180028fc8     libucrt:lcidtoname_downlevel.obj
 0002:00007fd8       ??_C@_1M@DNDLJINH@?$AAz?$AAh?$AA?9?$AAm?$AAo@ 0000000180028fd8     libucrt:lcidtoname_downlevel.obj
 0002:00007fe8       ??_C@_1M@MBFDNDND@?$AAz?$AAh?$AA?9?$AAs?$AAg@ 0000000180028fe8     libucrt:lcidtoname_downlevel.obj
 0002:00007ff8       ??_C@_1M@IMEPLEPE@?$AAz?$AAh?$AA?9?$AAt?$AAw@ 0000000180028ff8     libucrt:lcidtoname_downlevel.obj
 0002:00008008       ??_C@_1M@BBGHNHJP@?$AAz?$AAu?$AA?9?$AAz?$AAa@ 0000000180029008     libucrt:lcidtoname_downlevel.obj
 0002:00008020       ?large_power_data@?1??multiply_by_power_of_ten@__crt_strtox@@YA_NAEAUbig_integer@2@I@Z@4QBIB 0000000180029020     libucrt:cfout.obj
 0002:000089c8       ?small_powers_of_ten@?1??multiply_by_power_of_ten@__crt_strtox@@YA_NAEAUbig_integer@2@I@Z@4QBIB 00000001800299c8     libucrt:cfout.obj
 0002:000089ec       ??_C@_01GBGANLPD@0@        00000001800299ec     libucrt:cfout.obj
 0002:000089f0       ??_C@_05DNEBIAHO@1?$CDINF@ 00000001800299f0     libucrt:cfout.obj
 0002:000089f8       ??_C@_06IMKFLFPG@1?$CDQNAN@ 00000001800299f8     libucrt:cfout.obj
 0002:00008a00       ??_C@_06PGGFOGJG@1?$CDSNAN@ 0000000180029a00     libucrt:cfout.obj
 0002:00008a08       ??_C@_05PHHOCPM@1?$CDIND@  0000000180029a08     libucrt:cfout.obj
 0002:00008a10       __real@3ff0000000000000    0000000180029a10     libucrt:ceil.obj
 0002:00008c70       __log10_256_lead           0000000180029c70     libucrt:log10_256_lead_tail_table.obj
 0002:00009480       __log10_256_tail           000000018002a480     libucrt:log10_256_lead_tail_table.obj
 0002:00009c90       __log_F_inv_qword          000000018002ac90     libucrt:log_f_inv_qword_table.obj
 0002:0000a4a0       ??_C@_05HGHHAHAP@log10@    000000018002b4a0     libucrt:log_special.obj
 0002:0000a4a8       ??_C@_1BA@BALFACEM@?$AAC?$AAO?$AAN?$AAO?$AAU?$AAT?$AA$@ 000000018002b4a8     libucrt:initcon.obj
 0002:0000a530       _load_config_used          000000018002b530     LIBCMT:loadcfg.obj
 0002:0000a638       _tls_used                  000000018002b638     LIBCMT:tlssup.obj
 0002:0000a660       ??_R4exception@std@@6B@    000000018002b660     LIBCMT:throw_bad_alloc.obj
 0002:0000a688       ??_R3exception@std@@8      000000018002b688     LIBCMT:throw_bad_alloc.obj
 0002:0000a6a0       ??_R2exception@std@@8      000000018002b6a0     LIBCMT:throw_bad_alloc.obj
 0002:0000a6b0       ??_R1A@?0A@EA@exception@std@@8 000000018002b6b0     LIBCMT:throw_bad_alloc.obj
 0002:0000a6d8       ??_R4bad_alloc@std@@6B@    000000018002b6d8     LIBCMT:throw_bad_alloc.obj
 0002:0000a700       ??_R3bad_alloc@std@@8      000000018002b700     LIBCMT:throw_bad_alloc.obj
 0002:0000a718       ??_R2bad_alloc@std@@8      000000018002b718     LIBCMT:throw_bad_alloc.obj
 0002:0000a730       ??_R1A@?0A@EA@bad_alloc@std@@8 000000018002b730     LIBCMT:throw_bad_alloc.obj
 0002:0000a758       ??_R4bad_array_new_length@std@@6B@ 000000018002b758     LIBCMT:throw_bad_alloc.obj
 0002:0000a780       ??_R3bad_array_new_length@std@@8 000000018002b780     LIBCMT:throw_bad_alloc.obj
 0002:0000a798       ??_R2bad_array_new_length@std@@8 000000018002b798     LIBCMT:throw_bad_alloc.obj
 0002:0000a7b8       ??_R1A@?0A@EA@bad_array_new_length@std@@8 000000018002b7b8     LIBCMT:throw_bad_alloc.obj
 0002:0000a7e0       ??_R4type_info@@6B@        000000018002b7e0     LIBCMT:std_type_info_static.obj
 0002:0000a808       ??_R3type_info@@8          000000018002b808     LIBCMT:std_type_info_static.obj
 0002:0000a820       ??_R2type_info@@8          000000018002b820     LIBCMT:std_type_info_static.obj
 0002:0000a830       ??_R1A@?0A@EA@type_info@@8 000000018002b830     LIBCMT:std_type_info_static.obj
 0002:0000a858       ??_R4bad_exception@std@@6B@ 000000018002b858     libvcruntime:frame.obj
 0002:0000a880       ??_R3bad_exception@std@@8  000000018002b880     libvcruntime:frame.obj
 0002:0000a898       ??_R2bad_exception@std@@8  000000018002b898     libvcruntime:frame.obj
 0002:0000a8b0       ??_R1A@?0A@EA@bad_exception@std@@8 000000018002b8b0     libvcruntime:frame.obj
 0002:0000ace0       __rtc_iaa                  000000018002bce0     LIBCMT:initsect.obj
 0002:0000ace8       __rtc_izz                  000000018002bce8     LIBCMT:initsect.obj
 0002:0000acf0       __rtc_taa                  000000018002bcf0     LIBCMT:initsect.obj
 0002:0000acf8       __rtc_tzz                  000000018002bcf8     LIBCMT:initsect.obj
 0002:0000ad00       _tls_start                 000000018002bd00     LIBCMT:tlssup.obj
 0002:0000ad04       _Init_thread_epoch         000000018002bd04     LIBCMT:thread_safe_statics.obj
 0002:0000ad08       _tls_end                   000000018002bd08     LIBCMT:tlssup.obj
 0002:0000c328       _TI2?AVbad_alloc@std@@     000000018002d328     LIBCMT:throw_bad_alloc.obj
 0002:0000c348       _CTA2?AVbad_alloc@std@@    000000018002d348     LIBCMT:throw_bad_alloc.obj
 0002:0000c360       _CT??_R0?AVbad_alloc@std@@@8??0bad_alloc@std@@QEAA@AEBV01@@Z24 000000018002d360     LIBCMT:throw_bad_alloc.obj
 0002:0000c388       _CT??_R0?AVexception@std@@@8??0exception@std@@QEAA@AEBV01@@Z24 000000018002d388     LIBCMT:throw_bad_alloc.obj
 0002:0000c3b0       _TI3?AVbad_array_new_length@std@@ 000000018002d3b0     LIBCMT:throw_bad_alloc.obj
 0002:0000c3d0       _CTA3?AVbad_array_new_length@std@@ 000000018002d3d0     LIBCMT:throw_bad_alloc.obj
 0002:0000c3f0       _CT??_R0?AVbad_array_new_length@std@@@8??0bad_array_new_length@std@@QEAA@AEBV01@@Z24 000000018002d3f0     LIBCMT:throw_bad_alloc.obj
 0002:0000c418       _TI2?AVbad_exception@std@@ 000000018002d418     libvcruntime:frame.obj
 0002:0000c438       _CTA2?AVbad_exception@std@@ 000000018002d438     libvcruntime:frame.obj
 0002:0000c450       _CT??_R0?AVbad_exception@std@@@8??0bad_exception@std@@QEAA@AEBV01@@Z24 000000018002d450     libvcruntime:frame.obj
 0002:0000c478       __pobjMapEntryFirst        000000018002d478     OposVariant.obj
 0002:0000c480       __pobjMapEntryLast         000000018002d480     OposVariant.obj
 0002:0000c53c       __IMPORT_DESCRIPTOR_KERNEL32 000000018002d53c     kernel32:KERNEL32.dll
 0002:0000c550       __IMPORT_DESCRIPTOR_USER32 000000018002d550     user32:USER32.dll
 0002:0000c564       __IMPORT_DESCRIPTOR_GDI32  000000018002d564     gdi32:GDI32.dll
 0002:0000c578       __IMPORT_DESCRIPTOR_ADVAPI32 000000018002d578     advapi32:ADVAPI32.dll
 0002:0000c58c       __IMPORT_DESCRIPTOR_ole32  000000018002d58c     ole32:ole32.dll
 0002:0000c5a0       __IMPORT_DESCRIPTOR_OLEAUT32 000000018002d5a0     oleaut32:OLEAUT32.dll
 0002:0000c5b4       __NULL_IMPORT_DESCRIPTOR   000000018002d5b4     kernel32:KERNEL32.dll
 0003:00000000       ?wc@?1??GetWndClassInfo@?$CWindowImpl@VCOPOSCashDrawer@@VCWindow@ATL@@V?$CWinTraits@$0FGAAAAAA@$0A@@3@@ATL@@SAAEAU_ATL_WNDCLASSINFOW@3@XZ@4U43@A 000000018002f000     CashDrawer.obj
 0003:000000f8       ?rcDefault@CWindow@ATL@@2UtagRECT@@A 000000018002f0f8     CashDrawer.obj
 0003:00000108       ?_tih@?$IDispatchImpl@UIOPOSCashDrawer@@$1?IID_IOPOSCashDrawer@@3U_GUID@@B$1?LIBID_OposCashDrawer_CCO@@3U3@B$00$0A@VCComTypeInfoHolder@ATL@@@ATL@@1VCComTypeInfoHolder@2@A 000000018002f108     CashDrawer.obj
 0003:00000140       ?_tih@?$IProvideClassInfo2Impl@$1?CLSID_OPOSCashDrawer@@3U_GUID@@B$1?DIID__IOPOSCashDrawerEvents@@3U2@B$1?LIBID_OposCashDrawer_CCO@@3U2@B$00$0A@VCComTypeInfoHolder@ATL@@@ATL@@1VCComTypeInfoHolder@2@A 000000018002f140     CashDrawer.obj
 0003:00000178       ?vszContents@?6??Save@?$IPersistStorageImpl@VCOPOSCashDrawer@@@ATL@@UEAAJPEAUIStorage@@H@Z@4PEB_WEB 000000018002f178     CashDrawer.obj
 0003:00000180       ?s_Claim@?7??GetIDsOfNames@CComTypeInfoHolder@ATL@@QEAAJAEBU_GUID@@PEAPEA_WIKPEAJ@Z@4PA_WA 000000018002f180     CashDrawer.obj
 0003:00000198       ?s_Release@?7??GetIDsOfNames@CComTypeInfoHolder@ATL@@QEAAJAEBU_GUID@@PEAPEA_WIKPEAJ@Z@4PA_WA 000000018002f198     CashDrawer.obj
 0003:00000250       ?g_WindowName@@3PA_WA      000000018002f250     CashDrawerImpl.obj
 0003:00000274       ?g_ControlVersion@@3JA     000000018002f274     CashDrawerImpl.obj
 0003:00000278       ?g_ControlDescription@@3PADA 000000018002f278     CashDrawerImpl.obj
 0003:00000370       __scrt_native_dllmain_reason 000000018002f370     LIBCMT:utility.obj
 0003:00000374       _Init_global_epoch         000000018002f374     LIBCMT:thread_safe_statics.obj
 0003:00000380       __security_cookie_complement 000000018002f380     LIBCMT:gs_cookie.obj
 0003:00000388       __security_cookie          000000018002f388     LIBCMT:gs_cookie.obj
 0003:00000390       __isa_available            000000018002f390     LIBCMT:cpu_disp.obj
 0003:00000394       __isa_enabled              000000018002f394     LIBCMT:cpu_disp.obj
 0003:00000398       __memcpy_nt_iters          000000018002f398     LIBCMT:cpu_disp.obj
 0003:000003a0       __memset_nt_iters          000000018002f3a0     LIBCMT:cpu_disp.obj
 0003:000003c8       __abort_behavior           000000018002f3c8     libucrt:abort.obj
 0003:000003e0       _iob                       000000018002f3e0     libucrt:_file.obj
 0003:000004f0       __acrt_initial_locale_data 000000018002f4f0     libucrt:nlsdata.obj
 0003:00000648       __acrt_initial_locale_pointers 000000018002f648     libucrt:nlsdata.obj
 0003:00000658       __acrt_wide_c_locale_string 000000018002f658     libucrt:nlsdata.obj
 0003:00000660       __acrt_initial_multibyte_data 000000018002f660     libucrt:mbctype.obj
 0003:00000ba0       _pwctype                   000000018002fba0     libucrt:ctype.obj
 0003:00000ba8       __globallocalestatus       000000018002fba8     libucrt:glstatus.obj
 0003:00000bb0       __acrt_lconv_c             000000018002fbb0     libucrt:localeconv.obj
 0003:00000c48       __acrt_lconv_static_decimal 000000018002fc48     libucrt:localeconv.obj
 0003:00000c4c       __acrt_lconv_static_W_decimal 000000018002fc4c     libucrt:localeconv.obj
 0003:00000c50       _lookuptrailbytes          000000018002fc50     libucrt:read.obj
 0003:00000d64       _fltused                   000000018002fd64     LIBCMT:fltused.obj
 0003:00000d68       ??_R0?AVbad_alloc@std@@@8  000000018002fd68     LIBCMT:throw_bad_alloc.obj
 0003:00000d90       ??_R0?AVexception@std@@@8  000000018002fd90     LIBCMT:throw_bad_alloc.obj
 0003:00000db8       ??_R0?AVbad_array_new_length@std@@@8 000000018002fdb8     LIBCMT:throw_bad_alloc.obj
 0003:00000de8       ??_R0?AVtype_info@@@8      000000018002fde8     LIBCMT:std_type_info_static.obj
 0003:00000e08       ??_R0?AVbad_exception@std@@@8 000000018002fe08     libvcruntime:frame.obj
 0003:00000e30       ?_pPerfRegFunc@ATL@@3P6AJPEAUHINSTANCE__@@@ZEA 000000018002fe30     OposVariant.obj
 0003:00000e38       ?_pPerfUnRegFunc@ATL@@3P6AJXZEA 000000018002fe38     OposVariant.obj
 0003:00000e40       ?_AtlRegisterPerUser@ATL@@3_NA 000000018002fe40     OposVariant.obj
 0003:00000e48       ?_pAtlModule@ATL@@3PEAVCAtlModule@1@EA 000000018002fe48     OposVariant.obj
 0003:00000e50       ?_pModule@ATL@@3PEAVCComModule@1@EA 000000018002fe50     OposVariant.obj
 0003:00000e58       ?m_bInitFailed@CAtlBaseModule@ATL@@2_NA 000000018002fe58     OposVariant.obj
 0003:00000e60       ?_AtlComModule@ATL@@3VCAtlComModule@1@A 000000018002fe60     OposVariant.obj
 0003:00000eb0       ?_AtlWinModule@ATL@@3VCAtlWinModule@1@A 000000018002feb0     OposVariant.obj
 0003:00000ef8       ?m_libid@CAtlModule@ATL@@2U_GUID@@A 000000018002fef8     CashDrawer.obj
 0003:00000f08       ?_OptionsStorage@?1??__local_stdio_printf_options@@9@4_KA 000000018002ff08     CashDrawer.obj
 0003:00000f10       ?_entries@?1??GetConnMap@COPOSCashDrawer@@SAPEBU_ATL_CONNMAP_ENTRY@ATL@@PEAH@Z@4QBU34@B 000000018002ff10     CashDrawer.obj
 0003:00000f28       ?$TSS0@?1??GetConnMap@COPOSCashDrawer@@SAPEBU_ATL_CONNMAP_ENTRY@ATL@@PEAH@Z@4HA 000000018002ff28     CashDrawer.obj
 0003:00000f30       ?pfnRegDeleteKeyEx@?1??DeleteSubKey@CRegKey@ATL@@QEAAJPEB_W@Z@4P6AJPEAUHKEY__@@0KK@ZEA 000000018002ff30     CashDrawer.obj
 0003:00000f38       ?bInitialized@?1??DeleteSubKey@CRegKey@ATL@@QEAAJPEB_W@Z@4_NA 000000018002ff38     CashDrawer.obj
 0003:00000f40       ?_Module@@3VCComModule@ATL@@A 000000018002ff40     CashDrawer.obj
 0003:00000f90       ?pConnMap@?$IConnectionPointContainerImpl@VCOPOSCashDrawer@@@ATL@@0PEBU_ATL_CONNMAP_ENTRY@2@EB 000000018002ff90     CashDrawer.obj
 0003:00000f98       ?s_nInstances@COPOSCashDrawer@@1HA 000000018002ff98     CashDrawerImpl.obj
 0003:00000fa0       __scrt_current_native_startup_state 000000018002ffa0     LIBCMT:utility.obj
 0003:00000fa8       __scrt_native_startup_lock 000000018002ffa8     LIBCMT:utility.obj
 0003:000015a0       _tls_index                 00000001800305a0     LIBCMT:tlssup.obj
 0003:000015a8       __favor                    00000001800305a8     LIBCMT:cpu_disp.obj
 0003:000015ac       __scrt_debugger_hook_flag  00000001800305ac     LIBCMT:utility_desktop.obj
 0003:000015b0       ?__type_info_root_node@@3U__type_info_node@@A 00000001800305b0     LIBCMT:tncleanup.obj
 0003:000015c0       ?_OptionsStorage@?1??__local_stdio_scanf_options@@9@4_KA 00000001800305c0     LIBCMT:default_local_stdio_options.obj
 0003:000015d0       ?_AtlBaseModule@ATL@@3VCAtlBaseModule@1@A 00000001800305d0     atls:atlbase.obj
 0003:00001630       ?__AtlThunkPool@@3PEAT_SLIST_HEADER@@EA 0000000180030630     atls:atlthunk.obj
 0003:0000165c       __@@_PchSym_@00@UztvmgUPdlipUDUhUrmgvinvwrzgvUexgllohUzgohOmzgrevkilqPBACIAJCBDBUlyqiUznwGEUhgwzucOlyq@4B2008FD98C1DD4 000000018003065c     atls:stdafx.obj
 0003:00001660       __pPurecall                0000000180030660     libvcruntime:purevirt_data.obj
 0003:00001720       ?__WinRTOutOfMemoryExceptionCallback@@3P6APEAXXZEA 0000000180030720     libvcruntime:ehhelpers.obj
 0003:00001728       ?pArgList@UnDecorator@@0PEAVReplicator@@EA 0000000180030728     libvcruntime:undname.obj
 0003:00001730       ?pZNameList@UnDecorator@@0PEAVReplicator@@EA 0000000180030730     libvcruntime:undname.obj
 0003:00001738       ?pTemplateArgList@UnDecorator@@0PEAVReplicator@@EA 0000000180030738     libvcruntime:undname.obj
 0003:00001740       ?gName@UnDecorator@@0PEBDEB 0000000180030740     libvcruntime:undname.obj
 0003:00001748       ?name@UnDecorator@@0PEBDEB 0000000180030748     libvcruntime:undname.obj
 0003:00001750       ?disableFlags@UnDecorator@@0KA 0000000180030750     libvcruntime:undname.obj
 0003:00001754       ?fExplicitTemplateParams@UnDecorator@@0_NA 0000000180030754     libvcruntime:undname.obj
 0003:00001755       ?fGetTemplateArgumentList@UnDecorator@@0_NA 0000000180030755     libvcruntime:undname.obj
 0003:00001758       ?m_pGetParameter@UnDecorator@@0P6APEADJ@ZEA 0000000180030758     libvcruntime:undname.obj
 0003:00001760       ?m_CHPENameOffset@UnDecorator@@0KA 0000000180030760     libvcruntime:undname.obj
 0003:00001764       ?m_recursionLevel@UnDecorator@@0KA 0000000180030764     libvcruntime:undname.obj
 0003:000017e8       ?c_exit_complete@?1???R<lambda_6e4b09c48022b2350581041d5f6b0c4c>@@QEBA@XZ@4_NA 00000001800307e8     libucrt:exit.obj
 0003:000018f8       _environ_table             00000001800308f8     libucrt:environment_initialization.obj
 0003:00001900       _wenviron_table            0000000180030900     libucrt:environment_initialization.obj
 0003:00001908       __dcrt_initial_wide_environment 0000000180030908     libucrt:environment_initialization.obj
 0003:00001910       __dcrt_initial_narrow_environment 0000000180030910     libucrt:environment_initialization.obj
 0003:00001918       __acrt_atexit_table        0000000180030918     libucrt:onexit.obj
 0003:00001930       __acrt_at_quick_exit_table 0000000180030930     libucrt:onexit.obj
 0003:00001b08       _nstream                   0000000180030b08     libucrt:_file.obj
 0003:00001b10       __piob                     0000000180030b10     libucrt:_file.obj
 0003:00001b20       __acrt_stdout_buffer       0000000180030b20     libucrt:_sftbuf.obj
 0003:00001b28       __acrt_stderr_buffer       0000000180030b28     libucrt:_sftbuf.obj
 0003:00001b30       __acrt_locale_changed_data 0000000180030b30     libucrt:wsetlocale.obj
 0003:00001b38       __acrt_current_locale_data 0000000180030b38     libucrt:nlsdata.obj
 0003:00001b40       __pioinfo                  0000000180030b40     libucrt:ioinit.obj
 0003:00001f40       _nhandle                   0000000180030f40     libucrt:ioinit.obj
 0003:00002188       _mbctype                   0000000180031188     libucrt:mbctype.obj
 0003:00002190       _mbcasemap                 0000000180031190     libucrt:mbctype.obj
 0003:00002198       __acrt_current_multibyte_data 0000000180031198     libucrt:mbctype.obj
 0003:000021a8       _pgmptr                    00000001800311a8     libucrt:argv_data.obj
 0003:000021b0       __argc                     00000001800311b0     libucrt:argv_data.obj
 0003:000021b8       __argv                     00000001800311b8     libucrt:argv_data.obj
 0003:000021c0       __wargv                    00000001800311c0     libucrt:argv_data.obj
 0003:000021c8       _acmdln                    00000001800311c8     libucrt:argv_data.obj
 0003:000021d0       _wcmdln                    00000001800311d0     libucrt:argv_data.obj
 0003:000021d8       __acrt_heap                00000001800311d8     libucrt:heap_handle.obj
 0003:0000220c       __acrt_lconv_static_null   000000018003120c     libucrt:localeconv.obj
 0003:00002210       __acrt_lconv_static_W_null 0000000180031210     libucrt:localeconv.obj
 0003:00002224       __fma3_is_available        0000000180031224     libucrt:fma3_available.obj
 0003:00002228       __use_fma3_lib             0000000180031228     libucrt:fma3_available.obj
 0003:00002230       __dyn_tls_init_callback    0000000180031230     <common>
 0003:00002238       __scrt_ucrt_dll_is_in_use  0000000180031238     <common>

 entry point at        0001:0000e5f4

 Static symbols

 0000:fffc6000       .debug$S                   0000000180000000     kernel32:KERNEL32.dll
 0000:fffc6000       .debug$S                   0000000180000000     kernel32:KERNEL32.dll
 0000:fffc6000       .debug$S                   0000000180000000     kernel32:KERNEL32.dll
 0000:fffc6000       .debug$S                   0000000180000000     kernel32:KERNEL32.dll
 0000:fffc6000       .debug$S                   0000000180000000     kernel32:KERNEL32.dll
 0000:fffc6000       .debug$S                   0000000180000000     kernel32:KERNEL32.dll
 0000:fffc6000       .debug$S                   0000000180000000     kernel32:KERNEL32.dll
 0000:fffc6000       .debug$S                   0000000180000000     kernel32:KERNEL32.dll
 0000:fffc6000       .debug$S                   0000000180000000     kernel32:KERNEL32.dll
 0000:fffc6000       .debug$S                   0000000180000000     advapi32:ADVAPI32.dll
 0000:fffc6000       .debug$S                   0000000180000000     advapi32:ADVAPI32.dll
 0000:fffc6000       .debug$S                   0000000180000000     advapi32:ADVAPI32.dll
 0000:fffc6000       .debug$S                   0000000180000000     kernel32:KERNEL32.dll
 0000:fffc6000       .debug$S                   0000000180000000     advapi32:ADVAPI32.dll
 0000:fffc6000       .debug$S                   0000000180000000     kernel32:KERNEL32.dll
 0000:fffc6000       .debug$S                   0000000180000000     OPOSCashDrawer.exp
 0000:fffc6000       .debug$S                   0000000180000000     advapi32:ADVAPI32.dll
 0000:fffc6000       .debug$S                   0000000180000000     kernel32:KERNEL32.dll
 0000:fffc6000       .debug$S                   0000000180000000     kernel32:KERNEL32.dll
 0000:fffc6000       .debug$S                   0000000180000000     advapi32:ADVAPI32.dll
 0000:fffc6000       .debug$S                   0000000180000000     kernel32:KERNEL32.dll
 0000:fffc6000       .debug$S                   0000000180000000     advapi32:ADVAPI32.dll
 0000:fffc6000       .debug$S                   0000000180000000     kernel32:KERNEL32.dll
 0000:fffc6000       .debug$S                   0000000180000000     kernel32:KERNEL32.dll
 0000:fffc6000       .debug$S                   0000000180000000     kernel32:KERNEL32.dll
 0000:fffc6000       .debug$S                   0000000180000000     kernel32:KERNEL32.dll
 0000:fffc6000       .debug$S                   0000000180000000     kernel32:KERNEL32.dll
 0000:fffc6000       .debug$S                   0000000180000000     kernel32:KERNEL32.dll
 0000:fffc6000       .debug$S                   0000000180000000     kernel32:KERNEL32.dll
 0000:fffc6000       .debug$S                   0000000180000000     kernel32:KERNEL32.dll
 0000:fffc6000       .debug$S                   0000000180000000     kernel32:KERNEL32.dll
 0000:fffc6000       .debug$S                   0000000180000000     kernel32:KERNEL32.dll
 0000:fffc6000       .debug$S                   0000000180000000     kernel32:KERNEL32.dll
 0000:fffc6000       .debug$S                   0000000180000000     kernel32:KERNEL32.dll
 0000:fffc6000       .debug$S                   0000000180000000     kernel32:KERNEL32.dll
 0000:fffc6000       .debug$S                   0000000180000000     kernel32:KERNEL32.dll
 0000:fffc6000       .debug$S                   0000000180000000     kernel32:KERNEL32.dll
 0000:fffc6000       .debug$S                   0000000180000000     kernel32:KERNEL32.dll
 0000:fffc6000       .debug$S                   0000000180000000     kernel32:KERNEL32.dll
 0000:fffc6000       .debug$S                   0000000180000000     kernel32:KERNEL32.dll
 0000:fffc6000       .debug$S                   0000000180000000     kernel32:KERNEL32.dll
 0000:fffc6000       .debug$S                   0000000180000000     kernel32:KERNEL32.dll
 0000:fffc6000       .debug$S                   0000000180000000     kernel32:KERNEL32.dll
 0000:fffc6000       .debug$S                   0000000180000000     kernel32:KERNEL32.dll
 0000:fffc6000       .debug$S                   0000000180000000     kernel32:KERNEL32.dll
 0000:fffc6000       .debug$S                   0000000180000000     kernel32:KERNEL32.dll
 0000:fffc6000       .debug$S                   0000000180000000     kernel32:KERNEL32.dll
 0000:fffc6000       .debug$S                   0000000180000000     kernel32:KERNEL32.dll
 0000:fffc6000       .debug$S                   0000000180000000     kernel32:KERNEL32.dll
 0000:fffc6000       .debug$S                   0000000180000000     kernel32:KERNEL32.dll
 0000:fffc6000       .debug$S                   0000000180000000     kernel32:KERNEL32.dll
 0000:fffc6000       .debug$S                   0000000180000000     kernel32:KERNEL32.dll
 0000:fffc6000       .debug$S                   0000000180000000     kernel32:KERNEL32.dll
 0000:fffc6000       .debug$S                   0000000180000000     kernel32:KERNEL32.dll
 0000:fffc6000       .debug$S                   0000000180000000     kernel32:KERNEL32.dll
 0000:fffc6000       .debug$S                   0000000180000000     kernel32:KERNEL32.dll
 0000:fffc6000       .debug$S                   0000000180000000     user32:USER32.dll
 0000:fffc6000       .debug$S                   0000000180000000     kernel32:KERNEL32.dll
 0000:fffc6000       .debug$S                   0000000180000000     kernel32:KERNEL32.dll
 0000:fffc6000       .debug$S                   0000000180000000     kernel32:KERNEL32.dll
 0000:fffc6000       .debug$S                   0000000180000000     kernel32:KERNEL32.dll
 0000:fffc6000       .debug$S                   0000000180000000     kernel32:KERNEL32.dll
 0000:fffc6000       .debug$S                   0000000180000000     kernel32:KERNEL32.dll
 0000:fffc6000       .debug$S                   0000000180000000     kernel32:KERNEL32.dll
 0000:fffc6000       .debug$S                   0000000180000000     kernel32:KERNEL32.dll
 0000:fffc6000       .debug$S                   0000000180000000     kernel32:KERNEL32.dll
 0000:fffc6000       .debug$S                   0000000180000000     kernel32:KERNEL32.dll
 0000:fffc6000       .debug$S                   0000000180000000     kernel32:KERNEL32.dll
 0000:fffc6000       .debug$S                   0000000180000000     kernel32:KERNEL32.dll
 0000:fffc6000       .debug$S                   0000000180000000     kernel32:KERNEL32.dll
 0000:fffc6000       .debug$S                   0000000180000000     kernel32:KERNEL32.dll
 0000:fffc6000       .debug$S                   0000000180000000     kernel32:KERNEL32.dll
 0000:fffc6000       .debug$S                   0000000180000000     kernel32:KERNEL32.dll
 0000:fffc6000       .debug$S                   0000000180000000     kernel32:KERNEL32.dll
 0000:fffc6000       .debug$S                   0000000180000000     kernel32:KERNEL32.dll
 0000:fffc6000       .debug$S                   0000000180000000     kernel32:KERNEL32.dll
 0000:fffc6000       .debug$S                   0000000180000000     kernel32:KERNEL32.dll
 0000:fffc6000       .debug$S                   0000000180000000     kernel32:KERNEL32.dll
 0000:fffc6000       .debug$S                   0000000180000000     kernel32:KERNEL32.dll
 0000:fffc6000       .debug$S                   0000000180000000     kernel32:KERNEL32.dll
 0000:fffc6000       .debug$S                   0000000180000000     kernel32:KERNEL32.dll
 0000:fffc6000       .debug$S                   0000000180000000     kernel32:KERNEL32.dll
 0000:fffc6000       .debug$S                   0000000180000000     kernel32:KERNEL32.dll
 0000:fffc6000       .debug$S                   0000000180000000     kernel32:KERNEL32.dll
 0000:fffc6000       .debug$S                   0000000180000000     kernel32:KERNEL32.dll
 0000:fffc6000       .debug$S                   0000000180000000     kernel32:KERNEL32.dll
 0000:fffc6000       .debug$S                   0000000180000000     kernel32:KERNEL32.dll
 0000:fffc6000       .debug$S                   0000000180000000     kernel32:KERNEL32.dll
 0000:fffc6000       .debug$S                   0000000180000000     kernel32:KERNEL32.dll
 0000:fffc6000       .debug$S                   0000000180000000     kernel32:KERNEL32.dll
 0000:fffc6000       .debug$S                   0000000180000000     kernel32:KERNEL32.dll
 0000:fffc6000       .debug$S                   0000000180000000     kernel32:KERNEL32.dll
 0000:fffc6000       .debug$S                   0000000180000000     kernel32:KERNEL32.dll
 0000:fffc6000       .debug$S                   0000000180000000     kernel32:KERNEL32.dll
 0000:fffc6000       .debug$S                   0000000180000000     kernel32:KERNEL32.dll
 0000:fffc6000       .debug$S                   0000000180000000     kernel32:KERNEL32.dll
 0000:fffc6000       .debug$S                   0000000180000000     kernel32:KERNEL32.dll
 0000:fffc6000       .debug$S                   0000000180000000     kernel32:KERNEL32.dll
 0000:fffc6000       .debug$S                   0000000180000000     user32:USER32.dll
 0000:fffc6000       .debug$S                   0000000180000000     advapi32:ADVAPI32.dll
 0000:fffc6000       .debug$S                   0000000180000000     user32:USER32.dll
 0000:fffc6000       .debug$S                   0000000180000000     advapi32:ADVAPI32.dll
 0000:fffc6000       .debug$S                   0000000180000000     user32:USER32.dll
 0000:fffc6000       .debug$S                   0000000180000000     user32:USER32.dll
 0000:fffc6000       .debug$S                   0000000180000000     user32:USER32.dll
 0000:fffc6000       .debug$S                   0000000180000000     user32:USER32.dll
 0000:fffc6000       .debug$S                   0000000180000000     user32:USER32.dll
 0000:fffc6000       .debug$S                   0000000180000000     user32:USER32.dll
 0000:fffc6000       .debug$S                   0000000180000000     user32:USER32.dll
 0000:fffc6000       .debug$S                   0000000180000000     ole32:ole32.dll
 0000:fffc6000       .debug$S                   0000000180000000     user32:USER32.dll
 0000:fffc6000       .debug$S                   0000000180000000     ole32:ole32.dll
 0000:fffc6000       .debug$S                   0000000180000000     user32:USER32.dll
 0000:fffc6000       .debug$S                   0000000180000000     gdi32:GDI32.dll
 0000:fffc6000       .debug$S                   0000000180000000     user32:USER32.dll
 0000:fffc6000       .debug$S                   0000000180000000     ole32:ole32.dll
 0000:fffc6000       .debug$S                   0000000180000000     user32:USER32.dll
 0000:fffc6000       .debug$S                   0000000180000000     ole32:ole32.dll
 0000:fffc6000       .debug$S                   0000000180000000     user32:USER32.dll
 0000:fffc6000       .debug$S                   0000000180000000     kernel32:KERNEL32.dll
 0000:fffc6000       .debug$S                   0000000180000000     user32:USER32.dll
 0000:fffc6000       .debug$S                   0000000180000000     user32:USER32.dll
 0000:fffc6000       .debug$S                   0000000180000000     ole32:ole32.dll
 0000:fffc6000       .debug$S                   0000000180000000     user32:USER32.dll
 0000:fffc6000       .debug$S                   0000000180000000     ole32:ole32.dll
 0000:fffc6000       .debug$S                   0000000180000000     user32:USER32.dll
 0000:fffc6000       .debug$S                   0000000180000000     user32:USER32.dll
 0000:fffc6000       .debug$S                   0000000180000000     ole32:ole32.dll
 0000:fffc6000       .debug$S                   0000000180000000     user32:USER32.dll
 0000:fffc6000       .debug$S                   0000000180000000     ole32:ole32.dll
 0000:fffc6000       .debug$S                   0000000180000000     user32:USER32.dll
 0000:fffc6000       .debug$S                   0000000180000000     ole32:ole32.dll
 0000:fffc6000       .debug$S                   0000000180000000     user32:USER32.dll
 0000:fffc6000       .debug$S                   0000000180000000     ole32:ole32.dll
 0000:fffc6000       .debug$S                   0000000180000000     user32:USER32.dll
 0000:fffc6000       .debug$S                   0000000180000000     user32:USER32.dll
 0000:fffc6000       .debug$S                   0000000180000000     user32:USER32.dll
 0000:fffc6000       .debug$S                   0000000180000000     ole32:ole32.dll
 0000:fffc6000       .debug$S                   0000000180000000     kernel32:KERNEL32.dll
 0000:fffc6000       .debug$S                   0000000180000000     user32:USER32.dll
 0000:fffc6000       .debug$S                   0000000180000000     ole32:ole32.dll
 0000:fffc6000       .debug$S                   0000000180000000     user32:USER32.dll
 0000:fffc6000       .debug$S                   0000000180000000     user32:USER32.dll
 0000:fffc6000       .debug$S                   0000000180000000     user32:USER32.dll
 0000:fffc6000       .debug$S                   0000000180000000     user32:USER32.dll
 0000:fffc6000       .debug$S                   0000000180000000     user32:USER32.dll
 0000:fffc6000       .debug$S                   0000000180000000     user32:USER32.dll
 0000:fffc6000       .debug$S                   0000000180000000     user32:USER32.dll
 0000:fffc6000       .debug$S                   0000000180000000     ole32:ole32.dll
 0000:fffc6000       .debug$S                   0000000180000000     user32:USER32.dll
 0000:fffc6000       .debug$S                   0000000180000000     gdi32:GDI32.dll
 0000:fffc6000       .debug$S                   0000000180000000     gdi32:GDI32.dll
 0000:fffc6000       .debug$S                   0000000180000000     ole32:ole32.dll
 0000:fffc6000       .debug$S                   0000000180000000     gdi32:GDI32.dll
 0000:fffc6000       .debug$S                   0000000180000000     gdi32:GDI32.dll
 0000:fffc6000       .debug$S                   0000000180000000     oleaut32:OLEAUT32.dll
 0000:fffc6000       .debug$S                   0000000180000000     kernel32:KERNEL32.dll
 0000:fffc6000       .debug$S                   0000000180000000     oleaut32:OLEAUT32.dll
 0000:fffc6000       .debug$S                   0000000180000000     gdi32:GDI32.dll
 0000:fffc6000       .debug$S                   0000000180000000     kernel32:KERNEL32.dll
 0000:fffc6000       .debug$S                   0000000180000000     gdi32:GDI32.dll
 0000:fffc6000       .debug$S                   0000000180000000     kernel32:KERNEL32.dll
 0000:fffc6000       .debug$S                   0000000180000000     kernel32:KERNEL32.dll
 0000:fffc6000       .debug$S                   0000000180000000     kernel32:KERNEL32.dll
 0000:fffc6000       .debug$S                   0000000180000000     gdi32:GDI32.dll
 0000:fffc6000       .debug$S                   0000000180000000     gdi32:GDI32.dll
 0000:fffc6000       .debug$S                   0000000180000000     kernel32:KERNEL32.dll
 0000:fffc6000       .debug$S                   0000000180000000     gdi32:GDI32.dll
 0000:fffc6000       .debug$S                   0000000180000000     gdi32:GDI32.dll
 0000:fffc6000       .debug$S                   0000000180000000     oleaut32:OLEAUT32.dll
 0000:fffc6000       .debug$S                   0000000180000000     kernel32:KERNEL32.dll
 0000:fffc6000       .debug$S                   0000000180000000     gdi32:GDI32.dll
 0000:fffc6000       .debug$S                   0000000180000000     kernel32:KERNEL32.dll
 0000:fffc6000       .debug$S                   0000000180000000     gdi32:GDI32.dll
 0000:fffc6000       .debug$S                   0000000180000000     kernel32:KERNEL32.dll
 0000:fffc6000       .debug$S                   0000000180000000     gdi32:GDI32.dll
 0000:fffc6000       .debug$S                   0000000180000000     gdi32:GDI32.dll
 0000:fffc6000       .debug$S                   0000000180000000     gdi32:GDI32.dll
 0000:fffc6000       .debug$S                   0000000180000000     gdi32:GDI32.dll
 0000:fffc6000       .debug$S                   0000000180000000     gdi32:GDI32.dll
 0000:fffc6000       .debug$S                   0000000180000000     gdi32:GDI32.dll
 0000:fffc6000       .debug$S                   0000000180000000     kernel32:KERNEL32.dll
 0000:fffc6000       .debug$S                   0000000180000000     kernel32:KERNEL32.dll
 0000:fffc6000       .debug$S                   0000000180000000     kernel32:KERNEL32.dll
 0000:fffc6000       .debug$S                   0000000180000000     kernel32:KERNEL32.dll
 0000:fffc6000       .debug$S                   0000000180000000     kernel32:KERNEL32.dll
 0000:fffc6000       .debug$S                   0000000180000000     kernel32:KERNEL32.dll
 0000:fffc6000       .debug$S                   0000000180000000     oleaut32:OLEAUT32.dll
 0000:fffc6000       .debug$S                   0000000180000000     kernel32:KERNEL32.dll
 0000:fffc6000       .debug$S                   0000000180000000     kernel32:KERNEL32.dll
 0000:fffc6000       .debug$S                   0000000180000000     oleaut32:OLEAUT32.dll
 0000:fffc6000       .debug$S                   0000000180000000     kernel32:KERNEL32.dll
 0000:fffc6000       .debug$S                   0000000180000000     oleaut32:OLEAUT32.dll
 0000:fffc6000       .debug$S                   0000000180000000     oleaut32:OLEAUT32.dll
 0000:fffc6000       .debug$S                   0000000180000000     oleaut32:OLEAUT32.dll
 0000:fffc6000       .debug$S                   0000000180000000     oleaut32:OLEAUT32.dll
 0000:fffc6000       .debug$S                   0000000180000000     oleaut32:OLEAUT32.dll
 0000:fffc6000       .debug$S                   0000000180000000     oleaut32:OLEAUT32.dll
 0000:fffc6000       .debug$S                   0000000180000000     oleaut32:OLEAUT32.dll
 0000:fffc6000       .debug$S                   0000000180000000     oleaut32:OLEAUT32.dll
 0000:fffc6000       .debug$S                   0000000180000000     oleaut32:OLEAUT32.dll
 0000:fffc6000       .debug$S                   0000000180000000     oleaut32:OLEAUT32.dll
 0000:fffc6000       .debug$S                   0000000180000000     oleaut32:OLEAUT32.dll
 0000:fffc6000       .debug$S                   0000000180000000     kernel32:KERNEL32.dll
 0000:fffc6000       .debug$S                   0000000180000000     kernel32:KERNEL32.dll
 0001:00000000       ??__E_AtlComModule@ATL@@YAXXZ 0000000180001000 f   OposVariant.obj
 0001:00000020       ??__E_AtlWinModule@ATL@@YAXXZ 0000000180001020 f   OposVariant.obj
 0001:00000040       ??__E?pConnMap@?$IConnectionPointContainerImpl@VCOPOSCashDrawer@@@ATL@@0PEBU_ATL_CONNMAP_ENTRY@2@EB@@YAXXZ 0000000180001040 f   CashDrawer.obj
 0001:00000058       ??__E_Module@@YAXXZ        0000000180001058 f   CashDrawer.obj
 0001:00000094       ??__E_AtlBaseModule@ATL@@YAXXZ 0000000180001094 f   atls:atlbase.obj
 0001:0000b720       memcpy_s                   000000018000c720 f   libucrt:cfout.obj
 0001:0000b720       memcpy_s                   000000018000c720 f   CashDrawer.obj
 0001:0000dbf8       ?__scrt_initialize_thread_safe_statics@@YAHXZ 000000018000ebf8 f   LIBCMT:thread_safe_statics.obj
 0001:0000dcc8       ?__scrt_uninitialize_thread_safe_statics@@YAXXZ 000000018000ecc8 f   LIBCMT:thread_safe_statics.obj
 0001:0000e018       capture_current_context    000000018000f018 f   LIBCMT:gs_report.obj
 0001:0000e088       capture_previous_context   000000018000f088 f   LIBCMT:gs_report.obj
 0001:0000e230       $$000000                   000000018000f230     LIBCMT:chkstk.obj
 0001:0000e2a0       $$000000                   000000018000f2a0     LIBCMT:amdsecgs.obj
 0001:0000e2d4       ?dllmain_crt_dispatch@@YAHQEAUHINSTANCE__@@KQEAX@Z 000000018000f2d4 f   LIBCMT:dll_dllmain.obj
 0001:0000e324       ?dllmain_crt_process_attach@@YAHQEAUHINSTANCE__@@QEAX@Z 000000018000f324 f   LIBCMT:dll_dllmain.obj
 0001:0000e43c       ?dllmain_crt_process_detach@@YAH_N@Z 000000018000f43c f   LIBCMT:dll_dllmain.obj
 0001:0000e4c0       ?dllmain_dispatch@@YAHQEAUHINSTANCE__@@KQEAX@Z 000000018000f4c0 f   LIBCMT:dll_dllmain.obj
 0001:0000ed58       ??$GetProcAddressAll@P6APEAUAtlThunkData_t@@XZ@@YAP6APEAUAtlThunkData_t@@XZPEAP6APEAU0@XZ@Z 000000018000fd58 f   atls:atlthunk.obj
 0001:0000ed58       ??$GetProcAddressAll@P6AXPEAUAtlThunkData_t@@PEAX_K@Z@@YAP6AXPEAUAtlThunkData_t@@PEAX_K@ZPEAP6AX012@Z@Z 000000018000fd58 f   atls:atlthunk.obj
 0001:0000ed58       ??$GetProcAddressAll@P6AP6A_JPEAUHWND__@@I_K_J@ZPEAUAtlThunkData_t@@@Z@@YAP6AP6A_JPEAUHWND__@@I_K_J@ZPEAUAtlThunkData_t@@@ZPEAP6AP6A_J0I12@Z3@Z@Z 000000018000fd58 f   atls:atlthunk.obj
 0001:0000ed58       ??$GetProcAddressAll@P6AXPEAUAtlThunkData_t@@@Z@@YAP6AXPEAUAtlThunkData_t@@@ZPEAP6AX0@Z@Z 000000018000fd58 f   atls:atlthunk.obj
 0001:0000ef30       ?__InitializeThunkPool@@YAHXZ 000000018000ff30 f   atls:atlthunk.obj
 0001:0000f3c0       $$000000                   00000001800103c0     libvcruntime:memcmp.obj
 0001:0000f4a0       $$000000                   00000001800104a0     libvcruntime:memcpy.obj
 0001:0000f8b0       $$000000                   00000001800108b0     libvcruntime:memset.obj
 0001:000106c0       $$000000                   00000001800116c0     libvcruntime:notify.obj
 0001:00010960       ??$BuildCatchObjectHelperInternal@V__FrameHandler3@@@@YAHPEAUEHExceptionRecord@@PEAXPEBU_s_HandlerType@@PEBU_s_CatchableType@@@Z 0000000180011960 f   libvcruntime:frame.obj
 0001:00010b60       ??$BuildCatchObjectInternal@V__FrameHandler3@@@@YAXPEAUEHExceptionRecord@@PEAXPEBU_s_HandlerType@@PEBU_s_CatchableType@@@Z 0000000180011b60 f   libvcruntime:frame.obj
 0001:00010c20       ??$CatchIt@V__FrameHandler3@@@@YAXPEAUEHExceptionRecord@@PEA_KPEAU_CONTEXT@@PEAU_xDISPATCHER_CONTEXT@@PEBU_s_FuncInfo@@PEBU_s_HandlerType@@PEBU_s_CatchableType@@PEBU_s_TryBlockMapEntry@@H1EE@Z 0000000180011c20 f   libvcruntime:frame.obj
 0001:00010cf4       ??$FindHandler@V__FrameHandler3@@@@YAXPEAUEHExceptionRecord@@PEA_KPEAU_CONTEXT@@PEAU_xDISPATCHER_CONTEXT@@PEBU_s_FuncInfo@@EH1@Z 0000000180011cf4 f   libvcruntime:frame.obj
 0001:000111d0       ??$FindHandlerForForeignException@V__FrameHandler3@@@@YAXPEAUEHExceptionRecord@@PEA_KPEAU_CONTEXT@@PEAU_xDISPATCHER_CONTEXT@@PEBU_s_FuncInfo@@HH1@Z 00000001800121d0 f   libvcruntime:frame.obj
 0001:000119b8       ?ExFilterRethrow@@YAHPEAU_EXCEPTION_POINTERS@@PEAUEHExceptionRecord@@PEAH@Z 00000001800129b8 f   libvcruntime:frame.obj
 0001:00011c64       ?IsInExceptionSpec@@YAEPEAUEHExceptionRecord@@PEBU_s_ESTypeList@@@Z 0000000180012c64 f   libvcruntime:frame.obj
 0001:00011d54       ?Is_bad_exception_allowed@@YAEPEBU_s_ESTypeList@@@Z 0000000180012d54 f   libvcruntime:frame.obj
 0001:00011df8       ?try_get_function@@YAPEAXW4function_id@?A0x656504f9@@QEBDQEBW4module_id@2@2@Z 0000000180012df8 f   libvcruntime:winapi_downlevel.obj
 0001:000120f0       $$000000                   00000001800130f0     libvcruntime:handlers.obj
 0001:00012908       ??$common_vsprintf@Vformat_validation_base@__crt_stdio_output@@_W@@YAH_KQEA_W0QEB_WQEAU__crt_locale_pointers@@QEAD@Z 0000000180013908 f   libucrt:output.obj
 0001:00014138       ??$?RV<lambda_d80eeec6fff315bfe5c115232f3240e3>@@AEAV<lambda_6e4b09c48022b2350581041d5f6b0c4c>@@V<lambda_2358e3775559c9db80273638284d5e45>@@@?$__crt_seh_guarded_call@X@@QEAAX$$QEAV<lambda_d80eeec6fff315bfe5c115232f3240e3>@@AEAV<lambda_6e4b09c48022b2350581041d5f6b0c4c>@@$$QEAV<lambda_2358e3775559c9db80273638284d5e45>@@@Z 0000000180015138 f   libucrt:exit.obj
 0001:00014170       ??R<lambda_6e4b09c48022b2350581041d5f6b0c4c>@@QEBA@XZ 0000000180015170 f   libucrt:exit.obj
 0001:00014234       ?atexit_exception_filter@@YAHK@Z 0000000180015234 f   libucrt:exit.obj
 0001:00014240       ?common_exit@@YAXHW4_crt_exit_cleanup_mode@@W4_crt_exit_return_mode@@@Z 0000000180015240 f   libucrt:exit.obj
 0001:000142fc       ?exit_or_terminate_process@@YAXI@Z 00000001800152fc f   libucrt:exit.obj
 0001:00014348       ?try_cor_exit_process@@YAXI@Z 0000000180015348 f   libucrt:exit.obj
 0001:000143d0       ??$parse_command_line@D@@YAXPEADPEAPEAD0PEA_K2@Z 00000001800153d0 f   libucrt:argv_parsing.obj
 0001:0001477c       ??$common_initialize_environment_nolock@D@@YAHXZ 000000018001577c f   libucrt:environment_initialization.obj
 0001:000147e8       ??$create_environment@D@@YAQEAPEADQEAD@Z 00000001800157e8 f   libucrt:environment_initialization.obj
 0001:000148f0       ??$free_environment@_W@@YAXQEAPEA_W@Z 00000001800158f0 f   libucrt:environment_initialization.obj
 0001:000148f0       ??$free_environment@D@@YAXQEAPEAD@Z 00000001800158f0 f   libucrt:environment_initialization.obj
 0001:00014934       ??$uninitialize_environment_internal@D@@YAXAEAPEAPEAD@Z 0000000180015934 f   libucrt:environment_initialization.obj
 0001:00014950       ??$uninitialize_environment_internal@_W@@YAXAEAPEAPEA_W@Z 0000000180015950 f   libucrt:environment_initialization.obj
 0001:000149ac       ??$?RV<lambda_638799b9deba96c50f710eeac98168cd>@@AEAV<lambda_22ebabd17bc4fa466a2aca6d8deb888d>@@V<lambda_a6f7d7db0129f75315ebf26d50c089f1>@@@?$__crt_seh_guarded_call@H@@QEAAH$$QEAV<lambda_638799b9deba96c50f710eeac98168cd>@@AEAV<lambda_22ebabd17bc4fa466a2aca6d8deb888d>@@$$QEAV<lambda_a6f7d7db0129f75315ebf26d50c089f1>@@@Z 00000001800159ac f   libucrt:onexit.obj
 0001:000149e8       ??$?RV<lambda_7777bce6b2f8c936911f934f8298dc43>@@AEAV<lambda_f03950bc5685219e0bcd2087efbe011e>@@V<lambda_3883c3dff614d5e0c5f61bb1ac94921c>@@@?$__crt_seh_guarded_call@H@@QEAAH$$QEAV<lambda_7777bce6b2f8c936911f934f8298dc43>@@AEAV<lambda_f03950bc5685219e0bcd2087efbe011e>@@$$QEAV<lambda_3883c3dff614d5e0c5f61bb1ac94921c>@@@Z 00000001800159e8 f   libucrt:onexit.obj
 0001:00014a24       ??R<lambda_22ebabd17bc4fa466a2aca6d8deb888d>@@QEBAHXZ 0000000180015a24 f   libucrt:onexit.obj
 0001:00014bd4       ??R<lambda_f03950bc5685219e0bcd2087efbe011e>@@QEBAHXZ 0000000180015bd4 f   libucrt:onexit.obj
 0001:00014da8       initialize_global_variables 0000000180015da8 f   libucrt:initialization.obj
 0001:00014dbc       initialize_c               0000000180015dbc f   libucrt:initialization.obj
 0001:00014de0       uninitialize_global_state_isolation 0000000180015de0 f   libucrt:initialization.obj
 0001:00014de0       report_memory_leaks        0000000180015de0 f   libucrt:initialization.obj
 0001:00014de0       uninitialize_c             0000000180015de0 f   libucrt:initialization.obj
 0001:00014de0       initialize_environment     0000000180015de0 f   libucrt:initialization.obj
 0001:00014de0       initialize_global_state_isolation 0000000180015de0 f   libucrt:initialization.obj
 0001:00014de4       uninitialize_environment   0000000180015de4 f   libucrt:initialization.obj
 0001:00014df4       initialize_pointers        0000000180015df4 f   libucrt:initialization.obj
 0001:00014e34       uninitialize_vcruntime     0000000180015e34 f   libucrt:initialization.obj
 0001:00014e3c       uninitialize_allocated_memory 0000000180015e3c f   libucrt:initialization.obj
 0001:00014e7c       uninitialize_allocated_io_buffers 0000000180015e7c f   libucrt:initialization.obj
 0001:000157f0       $$000000                   00000001800167f0     libucrt:strncmp.obj
 0001:000158ec       ??$?RV<lambda_0ae27a3a962d80f24befdcbee591983d>@@AEAV<lambda_8d0ee55de4b1038c4002e0adecdf1839>@@V<lambda_dc504788e8f1664fe9b84e20bfb512f2>@@@?$__crt_seh_guarded_call@X@@QEAAX$$QEAV<lambda_0ae27a3a962d80f24befdcbee591983d>@@AEAV<lambda_8d0ee55de4b1038c4002e0adecdf1839>@@$$QEAV<lambda_dc504788e8f1664fe9b84e20bfb512f2>@@@Z 00000001800168ec f   libucrt:per_thread_data.obj
 0001:0001592c       ??$?RV<lambda_2d41944a1d46af3157314b8a01080d33>@@AEAV<lambda_8f455de75cd7d7f24b4096f044d8b9e6>@@V<lambda_aa500f224e6afead328df44964fe2772>@@@?$__crt_seh_guarded_call@X@@QEAAX$$QEAV<lambda_2d41944a1d46af3157314b8a01080d33>@@AEAV<lambda_8f455de75cd7d7f24b4096f044d8b9e6>@@$$QEAV<lambda_aa500f224e6afead328df44964fe2772>@@@Z 000000018001692c f   libucrt:per_thread_data.obj
 0001:0001596c       ??$?RV<lambda_aa87e3671a710a21b5dc78c0bdf72e11>@@AEAV<lambda_92619d2358a28f41a33ba319515a20b9>@@V<lambda_6992ecaafeb10aed2b74cb1fae11a551>@@@?$__crt_seh_guarded_call@X@@QEAAX$$QEAV<lambda_aa87e3671a710a21b5dc78c0bdf72e11>@@AEAV<lambda_92619d2358a28f41a33ba319515a20b9>@@$$QEAV<lambda_6992ecaafeb10aed2b74cb1fae11a551>@@@Z 000000018001696c f   libucrt:per_thread_data.obj
 0001:000159b4       ??$?RV<lambda_f2e299630e499de9f9a165e60fcd3db5>@@AEAV<lambda_2ae9d31cdba2644fcbeaf08da7c24588>@@V<lambda_40d01ff24d0e7b3814fdbdcee8eab3c7>@@@?$__crt_seh_guarded_call@X@@QEAAX$$QEAV<lambda_f2e299630e499de9f9a165e60fcd3db5>@@AEAV<lambda_2ae9d31cdba2644fcbeaf08da7c24588>@@$$QEAV<lambda_40d01ff24d0e7b3814fdbdcee8eab3c7>@@@Z 00000001800169b4 f   libucrt:per_thread_data.obj
 0001:00015a14       ?construct_ptd_array@@YAXQEAU__acrt_ptd@@@Z 0000000180016a14 f   libucrt:per_thread_data.obj
 0001:00015ae4       ?destroy_fls@@YAXPEAX@Z    0000000180016ae4 f   libucrt:per_thread_data.obj
 0001:00015b04       ?destroy_ptd_array@@YAXQEAU__acrt_ptd@@@Z 0000000180016b04 f   libucrt:per_thread_data.obj
 0001:00015bfc       ?replace_current_thread_locale_nolock@@YAXQEAU__acrt_ptd@@QEAU__crt_locale_data@@@Z 0000000180016bfc f   libucrt:per_thread_data.obj
 0001:000160e0       ?try_get_function@@YAPEAXW4function_id@?A0x391cf84c@@QEBDQEBW4module_id@2@2@Z 00000001800170e0 f   libucrt:winapi_thunks.obj
 0001:00016ab0       ?fp_format_a@@YAHQEBNPEAD_KQEAD2H_NIQEAU__crt_locale_pointers@@@Z 0000000180017ab0 f   libucrt:cvt.obj
 0001:00016e20       ?fp_format_e@@YAHQEBNQEAD_K12H_NIQEAU__crt_locale_pointers@@@Z 0000000180017e20 f   libucrt:cvt.obj
 0001:00016efc       ?fp_format_e_internal@@YAHQEAD_KH_NIQEAU_strflt@@2QEAU__crt_locale_pointers@@@Z 0000000180017efc f   libucrt:cvt.obj
 0001:000170d0       ?fp_format_f_internal@@YAHQEAD_KHQEAU_strflt@@_NQEAU__crt_locale_pointers@@@Z 00000001800180d0 f   libucrt:cvt.obj
 0001:00017214       ?fp_format_g@@YAHQEBNQEAD_K12H_NIQEAU__crt_locale_pointers@@@Z 0000000180018214 f   libucrt:cvt.obj
 0001:00017820       ??$?RV<lambda_410d79af7f07d98d83a3f525b3859a53>@@AEAV<lambda_3e16ef9562a7dcce91392c22ab16ea36>@@V<lambda_38119f0e861e05405d8a144b9b982f0a>@@@?$__crt_seh_guarded_call@X@@QEAAX$$QEAV<lambda_410d79af7f07d98d83a3f525b3859a53>@@AEAV<lambda_3e16ef9562a7dcce91392c22ab16ea36>@@$$QEAV<lambda_38119f0e861e05405d8a144b9b982f0a>@@@Z 0000000180018820 f   libucrt:wsetlocale.obj
 0001:000178cc       ?initialize_inherited_file_handles_nolock@@YAXXZ 00000001800188cc f   libucrt:ioinit.obj
 0001:000179bc       ?initialize_stdio_handles_nolock@@YAXXZ 00000001800189bc f   libucrt:ioinit.obj
 0001:00017c38       ?<lambda_invoker_cdecl>@<lambda_a1ce4c8ae42411fd470c77163914f50e>@@CAHPEBX0@Z 0000000180018c38 f   libucrt:argv_wildcards.obj
 0001:00017f50       ??$common_expand_argv_wildcards@D@@YAHQEAPEADQEAPEAPEAD@Z 0000000180018f50 f   libucrt:argv_wildcards.obj
 0001:0001815c       ??$copy_and_add_argument_to_buffer@D@@YAHQEBD0_KAEAV?$argument_list@D@?A0x5f5c8891@@@Z 000000018001915c f   libucrt:argv_wildcards.obj
 0001:000182e4       ??$expand_argument_wildcards@D@@YAHQEAD0AEAV?$argument_list@D@?A0x5f5c8891@@@Z 00000001800192e4 f   libucrt:argv_wildcards.obj
 0001:00018830       ??$?RV<lambda_efdfa57d1f175319df784efa44bb7b81>@@AEAV<lambda_5f0a4c1567f8adc6734073e5d1e1b35c>@@V<lambda_2e8a7d3640ea6ccb4c2413664c2db6fd>@@@?$__crt_seh_guarded_call@X@@QEAAX$$QEAV<lambda_efdfa57d1f175319df784efa44bb7b81>@@AEAV<lambda_5f0a4c1567f8adc6734073e5d1e1b35c>@@$$QEAV<lambda_2e8a7d3640ea6ccb4c2413664c2db6fd>@@@Z 0000000180019830 f   libucrt:mbctype.obj
 0001:000189ec       ?getSystemCP@@YAHH@Z       00000001800199ec f   libucrt:mbctype.obj
 0001:00018a6c       ?setSBCS@@YAXPEAU__crt_multibyte_data@@@Z 0000000180019a6c f   libucrt:mbctype.obj
 0001:00018afc       ?setSBUpLow@@YAXPEAU__crt_multibyte_data@@@Z 0000000180019afc f   libucrt:mbctype.obj
 0001:00018ce0       ?setmbcp_internal@@YAHH_NQEAU__acrt_ptd@@QEAPEAU__crt_multibyte_data@@@Z 0000000180019ce0 f   libucrt:mbctype.obj
 0001:00018ea4       ?update_thread_multibyte_data_internal@@YAPEAU__crt_multibyte_data@@QEAU__acrt_ptd@@QEAPEAU1@@Z 0000000180019ea4 f   libucrt:mbctype.obj
 0001:00019294       ?x_ismbbtype_l@@YAHPEAU__crt_locale_pointers@@IHH@Z 000000018001a294 f   libucrt:ismbbyte.obj
 0001:00019624       ??$?RV<lambda_450d765d439847d4c735a33c368b5fc0>@@AEAV<lambda_44731a7d0e6d81c3e6aa82d741081786>@@V<lambda_601a2a7da3b7a96e9554ac7215c4b07c>@@@?$__crt_seh_guarded_call@P6AXH@Z@@QEAAP6AXH@Z$$QEAV<lambda_450d765d439847d4c735a33c368b5fc0>@@AEAV<lambda_44731a7d0e6d81c3e6aa82d741081786>@@$$QEAV<lambda_601a2a7da3b7a96e9554ac7215c4b07c>@@@Z 000000018001a624 f   libucrt:signal.obj
 0001:00019980       ??$?RV<lambda_842d9ff0dc9ef11c61343bbaebe7f885>@@AEAV<lambda_c5860995281e5c4ce005b3de8f5874ee>@@V<lambda_d90129c13df834fdcbf8d2b88dafcf2d>@@@?$__crt_seh_guarded_call@X@@QEAAX$$QEAV<lambda_842d9ff0dc9ef11c61343bbaebe7f885>@@AEAV<lambda_c5860995281e5c4ce005b3de8f5874ee>@@$$QEAV<lambda_d90129c13df834fdcbf8d2b88dafcf2d>@@@Z 000000018001a980 f   libucrt:fflush.obj
 0001:00019a1c       ??$?RV<lambda_886d6c58226a84441f68b9f2b8217b83>@@AEAV<lambda_ab61a845afdef5b7c387490eaf3616ee>@@V<lambda_f7f22ab5edc0698d5f6905b0d3f44752>@@@?$__crt_seh_guarded_call@X@@QEAAX$$QEAV<lambda_886d6c58226a84441f68b9f2b8217b83>@@AEAV<lambda_ab61a845afdef5b7c387490eaf3616ee>@@$$QEAV<lambda_f7f22ab5edc0698d5f6905b0d3f44752>@@@Z 000000018001aa1c f   libucrt:fflush.obj
 0001:00019afc       ?common_flush_all@@YAH_N@Z 000000018001aafc f   libucrt:fflush.obj
 0001:0001bd9c       ?free_crt_array_internal@@YAXQEAPEBX_K@Z 000000018001cd9c f   libucrt:inittime.obj
 0001:0001c834       fallbackMethod             000000018001d834 f   libucrt:strpbrk.obj
 0001:0001cc04       $LN78                      000000018001dc04     libucrt:strpbrk.obj
 0001:0001cc40       $LN77                      000000018001dc40     libucrt:strpbrk.obj
 0001:0001cc80       $LN76                      000000018001dc80     libucrt:strpbrk.obj
 0001:0001cd5c       ?__acrt_LCMapStringA_stat@@YAHPEAU__crt_locale_pointers@@PEB_WKPEBDHPEADHHH@Z 000000018001dd5c f   libucrt:lcmapstringa.obj
 0001:0001d10c       ?initialize_multibyte@@YAHXZ 000000018001e10c f   libucrt:multibyte_initializer.obj
 0001:0001d124       ??$?RV<lambda_a37b2b86f63e897a80ea819b0eb08c01>@@AEAV<lambda_38ce7e780aa69e748d6df282ebc68efe>@@V<lambda_99fb1378e971ab6e7edea83e3a7a83a2>@@@?$__crt_seh_guarded_call@H@@QEAAH$$QEAV<lambda_a37b2b86f63e897a80ea819b0eb08c01>@@AEAV<lambda_38ce7e780aa69e748d6df282ebc68efe>@@$$QEAV<lambda_99fb1378e971ab6e7edea83e3a7a83a2>@@@Z 000000018001e124 f   libucrt:commit.obj
 0001:0001d244       ?write_double_translated_ansi_nolock@@YA?AUwrite_result@?A0x17268360@@HQEBDI@Z 000000018001e244 f   libucrt:write.obj
 0001:0001d714       ?write_text_ansi_nolock@@YA?AUwrite_result@?A0x17268360@@HQEBDI@Z 000000018001e714 f   libucrt:write.obj
 0001:0001d818       ?write_text_utf16le_nolock@@YA?AUwrite_result@?A0x17268360@@HQEBDI@Z 000000018001e818 f   libucrt:write.obj
 0001:0001d934       ?write_text_utf8_nolock@@YA?AUwrite_result@?A0x17268360@@HQEBDI@Z 000000018001e934 f   libucrt:write.obj
 0001:0001e220       $$000000                   000000018001f220     libucrt:log10.obj
 0001:0001e7cc       ??$common_lseek_nolock@_J@@YA_JH_JH@Z 000000018001f7cc f   libucrt:lseek.obj
 0001:0001ed38       _call_matherr              000000018001fd38 f   libucrt:libm_error.obj
 0001:0001eda0       _exception_enabled         000000018001fda0 f   libucrt:libm_error.obj
 0001:0001f030       _log_special_common        0000000180020030 f   libucrt:log_special.obj
 0001:0001f0c8       ??$?RV<lambda_751a882b2c74d4b022dec766aa51a29a>@@AEAV<lambda_628dfdc04ba53c8bfc02c9951375f3f5>@@V<lambda_f6c7be5f7998530c34de24c7437d6b54>@@@?$__crt_seh_guarded_call@H@@QEAAH$$QEAV<lambda_751a882b2c74d4b022dec766aa51a29a>@@AEAV<lambda_628dfdc04ba53c8bfc02c9951375f3f5>@@$$QEAV<lambda_f6c7be5f7998530c34de24c7437d6b54>@@@Z 00000001800200c8 f   libucrt:close.obj
 0001:0001f3f0       $$000000                   00000001800203f0     libucrt:fpsr.obj
 0001:0001fa90       $$000000                   0000000180020a90     LIBCMT:guard_dispatch.obj
 0001:0001fab0       ?filt$0@?0??_AtlVerifyStackAvailable@_ATL_SAFE_ALLOCA_IMPL@ATL@@YA_N_K@Z@4HA 0000000180020ab0 f   CashDrawer.obj
 0001:0001fad1       __scrt_is_nonwritable_in_current_image$filt$0 0000000180020ad1 f   LIBCMT:utility.obj
 0001:0001fae9       ?catch$0@?0???2@YAPEAX_KAEBUnothrow_t@std@@@Z@4HA 0000000180020ae9 f   LIBCMT:new_scalar_nothrow.obj
 0001:0001faf6       __catch$??2@YAPEAX_KAEBUnothrow_t@std@@@Z$0 0000000180020af6 f   LIBCMT:new_scalar_nothrow.obj
 0001:0001fb04       ?fin$0@?0??dllmain_crt_process_attach@@YAHQEAUHINSTANCE__@@QEAX@Z@4HA 0000000180020b04 f   LIBCMT:dll_dllmain.obj
 0001:0001fb1b       ?fin$0@?0??dllmain_crt_process_detach@@YAH_N@Z@4HA 0000000180020b1b f   LIBCMT:dll_dllmain.obj
 0001:0001fb37       ?filt$0@?0??dllmain_dispatch@@YAHQEAUHINSTANCE__@@KQEAX@Z@4HA 0000000180020b37 f   LIBCMT:dll_dllmain.obj
 0001:0001fb6d       ?filt$0@?0???$_CallSETranslator@V__FrameHandler3@@@@YAHPEAUEHExceptionRecord@@PEA_KPEAU_CONTEXT@@PEAU_xDISPATCHER_CONTEXT@@PEBU_s_FuncInfo@@K1@Z@4HA 0000000180020b6d f   libvcruntime:risctrnsctrl.obj
 0001:0001fbfe       __DestructExceptionObject$filt$0 0000000180020bfe f   libvcruntime:ehhelpers.obj
 0001:0001fc16       ?filt$0@?0??CxxCallCatchBlock@__FrameHandler3@@SAPEAXPEAU_EXCEPTION_RECORD@@@Z@4HA 0000000180020c16 f   libvcruntime:frame.obj
 0001:0001fc3b       ?fin$1@?0??CxxCallCatchBlock@__FrameHandler3@@SAPEAXPEAU_EXCEPTION_RECORD@@@Z@4HA 0000000180020c3b f   libvcruntime:frame.obj
 0001:0001fcb3       ?filt$0@?0??FrameUnwindToState@__FrameHandler3@@SAXPEA_KPEAU_xDISPATCHER_CONTEXT@@PEBU_s_FuncInfo@@H@Z@4HA 0000000180020cb3 f   libvcruntime:frame.obj
 0001:0001fcc9       ?fin$1@?0??FrameUnwindToState@__FrameHandler3@@SAXPEA_KPEAU_xDISPATCHER_CONTEXT@@PEBU_s_FuncInfo@@H@Z@4HA 0000000180020cc9 f   libvcruntime:frame.obj
 0001:0001fcec       ?fin$0@?0???$?RV<lambda_2d41944a1d46af3157314b8a01080d33>@@AEAV<lambda_8f455de75cd7d7f24b4096f044d8b9e6>@@V<lambda_aa500f224e6afead328df44964fe2772>@@@?$__crt_seh_guarded_call@X@@QEAAX$$QEAV<lambda_2d41944a1d46af3157314b8a01080d33>@@AEAV<lambda_8f455de75cd7d7f24b4096f044d8b9e6>@@$$QEAV<lambda_aa500f224e6afead328df44964fe2772>@@@Z@4HA 0000000180020cec f   libucrt:per_thread_data.obj
 0001:0001fcec       ?fin$0@?0???$?RV<lambda_f2e299630e499de9f9a165e60fcd3db5>@@AEAV<lambda_2ae9d31cdba2644fcbeaf08da7c24588>@@V<lambda_40d01ff24d0e7b3814fdbdcee8eab3c7>@@@?$__crt_seh_guarded_call@X@@QEAAX$$QEAV<lambda_f2e299630e499de9f9a165e60fcd3db5>@@AEAV<lambda_2ae9d31cdba2644fcbeaf08da7c24588>@@$$QEAV<lambda_40d01ff24d0e7b3814fdbdcee8eab3c7>@@@Z@4HA 0000000180020cec f   libucrt:per_thread_data.obj
 0001:0001fcec       ?fin$0@?0???$?RV<lambda_efdfa57d1f175319df784efa44bb7b81>@@AEAV<lambda_5f0a4c1567f8adc6734073e5d1e1b35c>@@V<lambda_2e8a7d3640ea6ccb4c2413664c2db6fd>@@@?$__crt_seh_guarded_call@X@@QEAAX$$QEAV<lambda_efdfa57d1f175319df784efa44bb7b81>@@AEAV<lambda_5f0a4c1567f8adc6734073e5d1e1b35c>@@$$QEAV<lambda_2e8a7d3640ea6ccb4c2413664c2db6fd>@@@Z@4HA 0000000180020cec f   libucrt:mbctype.obj
 0001:0001fcec       ?fin$0@?0???$?RV<lambda_0ae27a3a962d80f24befdcbee591983d>@@AEAV<lambda_8d0ee55de4b1038c4002e0adecdf1839>@@V<lambda_dc504788e8f1664fe9b84e20bfb512f2>@@@?$__crt_seh_guarded_call@X@@QEAAX$$QEAV<lambda_0ae27a3a962d80f24befdcbee591983d>@@AEAV<lambda_8d0ee55de4b1038c4002e0adecdf1839>@@$$QEAV<lambda_dc504788e8f1664fe9b84e20bfb512f2>@@@Z@4HA 0000000180020cec f   libucrt:per_thread_data.obj
 0001:0001fcec       ?fin$0@?0???$?RV<lambda_450d765d439847d4c735a33c368b5fc0>@@AEAV<lambda_44731a7d0e6d81c3e6aa82d741081786>@@V<lambda_601a2a7da3b7a96e9554ac7215c4b07c>@@@?$__crt_seh_guarded_call@P6AXH@Z@@QEAAP6AXH@Z$$QEAV<lambda_450d765d439847d4c735a33c368b5fc0>@@AEAV<lambda_44731a7d0e6d81c3e6aa82d741081786>@@$$QEAV<lambda_601a2a7da3b7a96e9554ac7215c4b07c>@@@Z@4HA 0000000180020cec f   libucrt:signal.obj
 0001:0001fcec       ?fin$0@?0???$?RV<lambda_aa87e3671a710a21b5dc78c0bdf72e11>@@AEAV<lambda_92619d2358a28f41a33ba319515a20b9>@@V<lambda_6992ecaafeb10aed2b74cb1fae11a551>@@@?$__crt_seh_guarded_call@X@@QEAAX$$QEAV<lambda_aa87e3671a710a21b5dc78c0bdf72e11>@@AEAV<lambda_92619d2358a28f41a33ba319515a20b9>@@$$QEAV<lambda_6992ecaafeb10aed2b74cb1fae11a551>@@@Z@4HA 0000000180020cec f   libucrt:per_thread_data.obj
 0001:0001fcec       ?fin$0@?0???$?RV<lambda_7777bce6b2f8c936911f934f8298dc43>@@AEAV<lambda_f03950bc5685219e0bcd2087efbe011e>@@V<lambda_3883c3dff614d5e0c5f61bb1ac94921c>@@@?$__crt_seh_guarded_call@H@@QEAAH$$QEAV<lambda_7777bce6b2f8c936911f934f8298dc43>@@AEAV<lambda_f03950bc5685219e0bcd2087efbe011e>@@$$QEAV<lambda_3883c3dff614d5e0c5f61bb1ac94921c>@@@Z@4HA 0000000180020cec f   libucrt:onexit.obj
 0001:0001fcec       ?fin$0@?0???$?RV<lambda_638799b9deba96c50f710eeac98168cd>@@AEAV<lambda_22ebabd17bc4fa466a2aca6d8deb888d>@@V<lambda_a6f7d7db0129f75315ebf26d50c089f1>@@@?$__crt_seh_guarded_call@H@@QEAAH$$QEAV<lambda_638799b9deba96c50f710eeac98168cd>@@AEAV<lambda_22ebabd17bc4fa466a2aca6d8deb888d>@@$$QEAV<lambda_a6f7d7db0129f75315ebf26d50c089f1>@@@Z@4HA 0000000180020cec f   libucrt:onexit.obj
 0001:0001fcec       ?fin$0@?0???$?RV<lambda_d80eeec6fff315bfe5c115232f3240e3>@@AEAV<lambda_6e4b09c48022b2350581041d5f6b0c4c>@@V<lambda_2358e3775559c9db80273638284d5e45>@@@?$__crt_seh_guarded_call@X@@QEAAX$$QEAV<lambda_d80eeec6fff315bfe5c115232f3240e3>@@AEAV<lambda_6e4b09c48022b2350581041d5f6b0c4c>@@$$QEAV<lambda_2358e3775559c9db80273638284d5e45>@@@Z@4HA 0000000180020cec f   libucrt:exit.obj
 0001:0001fd06       ?filt$0@?0???R<lambda_6e4b09c48022b2350581041d5f6b0c4c>@@QEBA@XZ@4HA 0000000180020d06 f   libucrt:exit.obj
 0001:0001fd21       _query_new_handler$fin$0   0000000180020d21 f   libucrt:new_handler.obj
 0001:0001fd37       ?fin$0@?0???$?RV<lambda_410d79af7f07d98d83a3f525b3859a53>@@AEAV<lambda_3e16ef9562a7dcce91392c22ab16ea36>@@V<lambda_38119f0e861e05405d8a144b9b982f0a>@@@?$__crt_seh_guarded_call@X@@QEAAX$$QEAV<lambda_410d79af7f07d98d83a3f525b3859a53>@@AEAV<lambda_3e16ef9562a7dcce91392c22ab16ea36>@@$$QEAV<lambda_38119f0e861e05405d8a144b9b982f0a>@@@Z@4HA 0000000180020d37 f   libucrt:wsetlocale.obj
 0001:0001fd51       __acrt_initialize_lowio$fin$0 0000000180020d51 f   libucrt:ioinit.obj
 0001:0001fd51       __acrt_lowio_ensure_fh_exists$fin$0 0000000180020d51 f   libucrt:osfinfo.obj
 0001:0001fd6a       ?fin$0@?0??update_thread_multibyte_data_internal@@YAPEAU__crt_multibyte_data@@QEAU__acrt_ptd@@QEAPEAU1@@Z@4HA 0000000180020d6a f   libucrt:mbctype.obj
 0001:0001fd83       raise$fin$0                0000000180020d83 f   libucrt:signal.obj
 0001:0001fda4       ?fin$0@?0???$?RV<lambda_842d9ff0dc9ef11c61343bbaebe7f885>@@AEAV<lambda_c5860995281e5c4ce005b3de8f5874ee>@@V<lambda_d90129c13df834fdcbf8d2b88dafcf2d>@@@?$__crt_seh_guarded_call@X@@QEAAX$$QEAV<lambda_842d9ff0dc9ef11c61343bbaebe7f885>@@AEAV<lambda_c5860995281e5c4ce005b3de8f5874ee>@@$$QEAV<lambda_d90129c13df834fdcbf8d2b88dafcf2d>@@@Z@4HA 0000000180020da4 f   libucrt:fflush.obj
 0001:0001fdbf       ?fin$0@?0???$?RV<lambda_886d6c58226a84441f68b9f2b8217b83>@@AEAV<lambda_ab61a845afdef5b7c387490eaf3616ee>@@V<lambda_f7f22ab5edc0698d5f6905b0d3f44752>@@@?$__crt_seh_guarded_call@X@@QEAAX$$QEAV<lambda_886d6c58226a84441f68b9f2b8217b83>@@AEAV<lambda_ab61a845afdef5b7c387490eaf3616ee>@@$$QEAV<lambda_f7f22ab5edc0698d5f6905b0d3f44752>@@@Z@4HA 0000000180020dbf f   libucrt:fflush.obj
 0001:0001fddc       __acrt_update_thread_locale_data$fin$0 0000000180020ddc f   libucrt:locale_refcounting.obj
 0001:0001fdf5       _fcloseall$fin$0           0000000180020df5 f   libucrt:closeall.obj
 0001:0001fe0e       ?fin$0@?0???$?RV<lambda_751a882b2c74d4b022dec766aa51a29a>@@AEAV<lambda_628dfdc04ba53c8bfc02c9951375f3f5>@@V<lambda_f6c7be5f7998530c34de24c7437d6b54>@@@?$__crt_seh_guarded_call@H@@QEAAH$$QEAV<lambda_751a882b2c74d4b022dec766aa51a29a>@@AEAV<lambda_628dfdc04ba53c8bfc02c9951375f3f5>@@$$QEAV<lambda_f6c7be5f7998530c34de24c7437d6b54>@@@Z@4HA 0000000180020e0e f   libucrt:close.obj
 0001:0001fe0e       ?fin$0@?0???$?RV<lambda_a37b2b86f63e897a80ea819b0eb08c01>@@AEAV<lambda_38ce7e780aa69e748d6df282ebc68efe>@@V<lambda_99fb1378e971ab6e7edea83e3a7a83a2>@@@?$__crt_seh_guarded_call@H@@QEAAH$$QEAV<lambda_a37b2b86f63e897a80ea819b0eb08c01>@@AEAV<lambda_38ce7e780aa69e748d6df282ebc68efe>@@$$QEAV<lambda_99fb1378e971ab6e7edea83e3a7a83a2>@@@Z@4HA 0000000180020e0e f   libucrt:commit.obj
 0001:0001fe28       _write$fin$0               0000000180020e28 f   libucrt:write.obj
 0001:0001fe3f       fclose$fin$0               0000000180020e3f f   libucrt:fclose.obj
 0001:0001fe57       _ctrlfp$filt$0             0000000180020e57 f   libucrt:fpctrl.obj
 0001:0001fe90       _IsNonwritableInCurrentImage$filt$0 0000000180020e90 f   LIBCMT:pesect.obj
 0001:0001feb0       ??__F_AtlComModule@ATL@@YAXXZ 0000000180020eb0 f   OposVariant.obj
 0001:0001febc       ??__F_AtlWinModule@ATL@@YAXXZ 0000000180020ebc f   OposVariant.obj
 0001:0001ff00       ??__F_Module@@YAXXZ        0000000180020f00 f   CashDrawer.obj
 0001:0001ff64       ??__F_AtlBaseModule@ATL@@YAXXZ 0000000180020f64 f   atls:atlbase.obj
 0002:00000630       ?_AtlBaseModule$initializer$@ATL@@3P6AXXZEA 0000000180021630     atls:atlbase.obj
 0002:00000638       ?_AtlComModule$initializer$@ATL@@3P6AXXZEA 0000000180021638     OposVariant.obj
 0002:00000640       ?_AtlWinModule$initializer$@ATL@@3P6AXXZEA 0000000180021640     OposVariant.obj
 0002:00000648       ?_Module$initializer$@@3P6AXXZEA 0000000180021648     CashDrawer.obj
 0002:00000650       ??pConnMap$initializer$@?$IConnectionPointContainerImpl@VCOPOSCashDrawer@@@ATL@@0P6AXXZEA@@3P6AXXZEA 0000000180021650     CashDrawer.obj
 0002:00000668       ?__scrt_initialize_tss_var@@3P6AHXZEA 0000000180021668     LIBCMT:thread_safe_statics.obj
 0002:00002578       GS_ExceptionPointers       0000000180023578     LIBCMT:gs_report.obj
 0002:00002588       $cppxdata$??2@YAPEAX_KAEBUnothrow_t@std@@@Z 0000000180023588     LIBCMT:new_scalar_nothrow.obj
 0002:00002760       ?ExceptionTemplate@?1??UnwindNestedFrames@__FrameHandler3@@SAXPEA_KPEAUEHExceptionRecord@@PEAU_CONTEXT@@0PEAXPEBU_s_FuncInfo@@HHPEBU_s_HandlerType@@PEAU_xDISPATCHER_CONTEXT@@E@Z@4U_EXCEPTION_RECORD@@B 0000000180023760     libvcruntime:risctrnsctrl.obj
 0002:00002800       ?ExceptionTemplate@?1??_CxxThrowException@@9@4UEHExceptionRecord@@B 0000000180023800     libvcruntime:throw.obj
 0002:00002870       ?tokenTable@@3QBQEBDB      0000000180023870     libvcruntime:undname.obj
 0002:000028f0       ?nameTable@@3QBQEBDB       00000001800238f0     libvcruntime:undname.obj
 0002:00002b88       ?rttiTable@@3QBQEBDB       0000000180023b88     libvcruntime:undname.obj
 0002:00003250       ?module_names@?A0x656504f9@@3QBQEB_WB 0000000180024250     libvcruntime:winapi_downlevel.obj
 0002:00003310       ?candidate_modules@?1??try_get_FlsAlloc@@YAP6AKP6AXPEAX@Z@ZXZ@4QBW4module_id@?A0x656504f9@@B 0000000180024310     libvcruntime:winapi_downlevel.obj
 0002:00003328       ?candidate_modules@?1??try_get_FlsFree@@YAP6AHK@ZXZ@4QBW4module_id@?A0x656504f9@@B 0000000180024328     libvcruntime:winapi_downlevel.obj
 0002:00003338       ?candidate_modules@?1??try_get_FlsGetValue@@YAP6APEAXK@ZXZ@4QBW4module_id@?A0x656504f9@@B 0000000180024338     libvcruntime:winapi_downlevel.obj
 0002:00003350       ?candidate_modules@?1??try_get_FlsSetValue@@YAP6AHKPEAX@ZXZ@4QBW4module_id@?A0x656504f9@@B 0000000180024350     libvcruntime:winapi_downlevel.obj
 0002:00003368       ?candidate_modules@?1??try_get_InitializeCriticalSectionEx@@YAP6AHPEAU_RTL_CRITICAL_SECTION@@KK@ZXZ@4QBW4module_id@?A0x656504f9@@B 0000000180024368     libvcruntime:winapi_downlevel.obj
 0002:00003390       ?errtable@@3QBUerrentry@?A0x31fdb9ec@@B 0000000180024390     libucrt:errno.obj
 0002:00003680       __acrt_initializers        0000000180024680     libucrt:initialization.obj
 0002:00003780       ?module_names@?A0x391cf84c@@3QBQEB_WB 0000000180024780     libucrt:winapi_thunks.obj
 0002:00003c88       ?candidate_modules@?1??try_get_AreFileApisANSI@@YAP6AHXZXZ@4QBW4module_id@?A0x391cf84c@@B 0000000180024c88     libucrt:winapi_thunks.obj
 0002:00003ca0       ?candidate_modules@?1??try_get_FlsAlloc@@YAP6AKP6AXPEAX@Z@ZXZ@4QBW4module_id@?A0x391cf84c@@B 0000000180024ca0     libucrt:winapi_thunks.obj
 0002:00003ca8       ?candidate_modules@?1??try_get_FlsFree@@YAP6AHK@ZXZ@4QBW4module_id@?A0x391cf84c@@B 0000000180024ca8     libucrt:winapi_thunks.obj
 0002:00003cb0       ?candidate_modules@?1??try_get_FlsGetValue@@YAP6APEAXK@ZXZ@4QBW4module_id@?A0x391cf84c@@B 0000000180024cb0     libucrt:winapi_thunks.obj
 0002:00003cb8       ?candidate_modules@?1??try_get_FlsSetValue@@YAP6AHKPEAX@ZXZ@4QBW4module_id@?A0x391cf84c@@B 0000000180024cb8     libucrt:winapi_thunks.obj
 0002:00003cc0       ?candidate_modules@?1??try_get_InitializeCriticalSectionEx@@YAP6AHPEAU_RTL_CRITICAL_SECTION@@KK@ZXZ@4QBW4module_id@?A0x391cf84c@@B 0000000180024cc0     libucrt:winapi_thunks.obj
 0002:00003cc8       ?candidate_modules@?1??try_get_LCMapStringEx@@YAP6AHPEB_WK0HPEA_WHPEAU_nlsversioninfo@@PEAX_J@ZXZ@4QBW4module_id@?A0x391cf84c@@B 0000000180024cc8     libucrt:winapi_thunks.obj
 0002:00003ce0       ?candidate_modules@?1??try_get_LocaleNameToLCID@@YAP6AKPEB_WK@ZXZ@4QBW4module_id@?A0x391cf84c@@B 0000000180024ce0     libucrt:winapi_thunks.obj
 0002:00003cfc       ?candidate_modules@?1??try_get_AppPolicyGetProcessTerminationMethod@@YAP6AJPEAXPEAW4AppPolicyProcessTerminationMethod@@@ZXZ@4QBW4module_id@?A0x391cf84c@@B 0000000180024cfc     libucrt:winapi_thunks.obj
 0002:00003d28       ?candidate_modules@?1??try_get_SetThreadStackGuarantee@@YAP6AHPEAK@ZXZ@4QBW4module_id@?A0x391cf84c@@B 0000000180024d28     libucrt:winapi_thunks.obj
 0002:00003d50       ?strings@?1??fp_format_nan_or_infinity@@YAHW4__acrt_fp_class@@_NPEAD_K1@Z@4QAY03QEBDA 0000000180024d50     libucrt:cvt.obj
 0002:000044b0       ?_mb_locale_names@@3QBQEB_WB 00000001800254b0     libucrt:mbctype.obj
 0002:00004d20       ?LcidToLocaleNameTable@?A0x881e4c05@@3QBULcidToLocaleName@1@B 0000000180025d20     libucrt:lcidtoname_downlevel.obj
 0002:00006780       ?LocaleNameToIndexTable@?A0x881e4c05@@3QBULocaleNameIndex@1@B 0000000180027780     libucrt:lcidtoname_downlevel.obj
 0002:00008930       ?large_power_indices@?1??multiply_by_power_of_ten@__crt_strtox@@YA_NAEAUbig_integer@2@I@Z@4QBUunpack_index@?1??12@YA_N0I@Z@B 0000000180029930     libucrt:cfout.obj
 0002:00008a20       __real_ninf                0000000180029a20     libucrt:log10.obj
 0002:00008a30       __real_inf                 0000000180029a30     libucrt:log10.obj
 0002:00008a40       __real_neg_qnan            0000000180029a40     libucrt:log10.obj
 0002:00008a50       __real_qnanbit             0000000180029a50     libucrt:log10.obj
 0002:00008a60       __int_1023                 0000000180029a60     libucrt:log10.obj
 0002:00008a70       __mask_001                 0000000180029a70     libucrt:log10.obj
 0002:00008a80       __mask_mant                0000000180029a80     libucrt:log10.obj
 0002:00008a90       __mask_mant_top8           0000000180029a90     libucrt:log10.obj
 0002:00008aa0       __mask_mant9               0000000180029aa0     libucrt:log10.obj
 0002:00008ab0       __real_log10_e             0000000180029ab0     libucrt:log10.obj
 0002:00008ac0       __real_log10_e_lead        0000000180029ac0     libucrt:log10.obj
 0002:00008ad0       __real_log10_e_tail        0000000180029ad0     libucrt:log10.obj
 0002:00008ae0       __real_log10_2_lead        0000000180029ae0     libucrt:log10.obj
 0002:00008af0       __real_log10_2_tail        0000000180029af0     libucrt:log10.obj
 0002:00008b00       __real_two                 0000000180029b00     libucrt:log10.obj
 0002:00008b10       __real_one                 0000000180029b10     libucrt:log10.obj
 0002:00008b20       __real_half                0000000180029b20     libucrt:log10.obj
 0002:00008b30       __mask_100                 0000000180029b30     libucrt:log10.obj
 0002:00008b40       __real_1_over_512          0000000180029b40     libucrt:log10.obj
 0002:00008b50       __real_1_over_2            0000000180029b50     libucrt:log10.obj
 0002:00008b60       __real_1_over_3            0000000180029b60     libucrt:log10.obj
 0002:00008b70       __real_1_over_4            0000000180029b70     libucrt:log10.obj
 0002:00008b80       __real_1_over_5            0000000180029b80     libucrt:log10.obj
 0002:00008b90       __real_1_over_6            0000000180029b90     libucrt:log10.obj
 0002:00008ba0       __real_neg_1023            0000000180029ba0     libucrt:log10.obj
 0002:00008bb0       __mask_2045                0000000180029bb0     libucrt:log10.obj
 0002:00008bc0       __real_threshold           0000000180029bc0     libucrt:log10.obj
 0002:00008bd0       __real_near_one_lt         0000000180029bd0     libucrt:log10.obj
 0002:00008be0       __real_near_one_gt         0000000180029be0     libucrt:log10.obj
 0002:00008bf0       __real_min_norm            0000000180029bf0     libucrt:log10.obj
 0002:00008c00       __real_notsign             0000000180029c00     libucrt:log10.obj
 0002:00008c10       __real_ca1                 0000000180029c10     libucrt:log10.obj
 0002:00008c20       __real_ca2                 0000000180029c20     libucrt:log10.obj
 0002:00008c30       __real_ca3                 0000000180029c30     libucrt:log10.obj
 0002:00008c40       __real_ca4                 0000000180029c40     libucrt:log10.obj
 0002:00008c50       __mask_lower               0000000180029c50     libucrt:log10.obj
 0002:00008c60       __flag_x_zero              0000000180029c60     libucrt:log10.obj
 0002:00008c64       __flag_x_neg               0000000180029c64     libucrt:log10.obj
 0002:00008c68       __flag_x_nan               0000000180029c68     libucrt:log10.obj
 0002:0000a4c0       __real@433fffffffffffff    000000018002b4c0     libucrt:fpsr.obj
 0002:0000a4c8       __real@c33fffffffffffff    000000018002b4c8     libucrt:fpsr.obj
 0002:0000ad10       $unwind$?ProcessWindowMessage@?$CComControl@VCOPOSCashDrawer@@V?$CWindowImpl@VCOPOSCashDrawer@@VCWindow@ATL@@V?$CWinTraits@$0FGAAAAAA@$0A@@3@@ATL@@@ATL@@UEAAHPEAUHWND__@@I_K_JAEA_JK@Z 000000018002bd10     CashDrawer.obj
 0002:0000ad10       $unwind$_invalid_parameter_noinfo 000000018002bd10     libucrt:invalid_parameter.obj
 0002:0000ad10       $unwind$wcstol             000000018002bd10     libucrt:strtox.obj
 0002:0000ad10       $unwind$_log10_special     000000018002bd10     libucrt:log_special.obj
 0002:0000ad10       $unwind$?cw_memcpy@@YAHPEA_WPEBDH@Z 000000018002bd10     CWString.obj
 0002:0000ad18       $unwind$__vcrt_freefls     000000018002bd18     libvcruntime:per_thread_data.obj
 0002:0000ad18       $unwind$??__E?pConnMap@?$IConnectionPointContainerImpl@VCOPOSCashDrawer@@@ATL@@0PEBU_ATL_CONNMAP_ENTRY@2@EB@@YAXXZ 000000018002bd18     CashDrawer.obj
 0002:0000ad18       $unwind$??__F_Module@@YAXXZ 000000018002bd18     CashDrawer.obj
 0002:0000ad18       $unwind$?_LocCPQueryInterface@?$IConnectionPointImpl@VCOPOSCashDrawer@@$1?DIID__IOPOSCashDrawerEvents@@3U_GUID@@BVCComDynamicUnkArray@ATL@@@ATL@@UEAAJAEBU_GUID@@PEAPEAX@Z 000000018002bd18     CashDrawer.obj
 0002:0000ad18       $unwind$?_LocCPQueryInterface@?$IConnectionPointImpl@VCOPOSCashDrawer@@$1?IID_IPropertyNotifySink@@3U_GUID@@BVCComDynamicUnkArray@ATL@@@ATL@@UEAAJAEBU_GUID@@PEAPEAX@Z 000000018002bd18     CashDrawer.obj
 0002:0000ad18       $unwind$?GetAdvise@?$IViewObjectExImpl@VCOPOSCashDrawer@@@ATL@@UEAAJPEAK0PEAPEAUIAdviseSink@@@Z 000000018002bd18     CashDrawer.obj
 0002:0000ad18       $unwind$?OnDocWindowActivate@?$IOleInPlaceActiveObjectImpl@VCOPOSCashDrawer@@@ATL@@UEAAJH@Z 000000018002bd18     CashDrawer.obj
 0002:0000ad18       $unwind$?EnumAdvise@?$IOleObjectImpl@VCOPOSCashDrawer@@@ATL@@UEAAJPEAPEAUIEnumSTATDATA@@@Z 000000018002bd18     CashDrawer.obj
 0002:0000ad18       $unwind$?Unadvise@?$IOleObjectImpl@VCOPOSCashDrawer@@@ATL@@UEAAJK@Z 000000018002bd18     CashDrawer.obj
 0002:0000ad18       $unwind$?FireViewChange@CComControlBase@ATL@@QEAAJXZ 000000018002bd18     CashDrawer.obj
 0002:0000ad18       $unwind$?DefaultReflectionHandler@?$CWindowImplRoot@VCWindow@ATL@@@ATL@@SAHPEAUHWND__@@I_K_JAEA_J@Z 000000018002bd18     CashDrawer.obj
 0002:0000ad18       $unwind$?LockServer@CComClassFactory@ATL@@UEAAJH@Z 000000018002bd18     CashDrawer.obj
 0002:0000ad18       $unwind$?CreateInstance@CComClassFactory@ATL@@UEAAJPEAUIUnknown@@AEBU_GUID@@PEAPEAX@Z 000000018002bd18     CashDrawer.obj
 0002:0000ad18       $unwind$?FinalConstruct@COPOSCashDrawer@@QEAAJXZ 000000018002bd18     CashDrawerImpl.obj
 0002:0000ad18       $unwind$?AddReplacement@CRegObject@ATL@@UEAAJPEB_W0@Z 000000018002bd18     CashDrawer.obj
 0002:0000ad18       $unwind$?AtlHresultFromLastError@ATL@@YAJXZ 000000018002bd18     CashDrawer.obj
 0002:0000ad18       $unwind$?AtlThrowImpl@ATL@@YAXJ@Z 000000018002bd18     CashDrawer.obj
 0002:0000ad18       $unwind$?initialize_multibyte@@YAHXZ 000000018002bd18     libucrt:multibyte_initializer.obj
 0002:0000ad18       $unwind$??1OposDispParms@@QEAA@XZ 000000018002bd18     OposVariant.obj
 0002:0000ad18       $unwind$?GetLONG@OposVariant@@QEAAJXZ 000000018002bd18     OposVariant.obj
 0002:0000ad18       $unwind$_statfp            000000018002bd18     libucrt:fpctrl.obj
 0002:0000ad18       $unwind$??__F_AtlWinModule@ATL@@YAXXZ 000000018002bd18     OposVariant.obj
 0002:0000ad18       $unwind$??__E_AtlWinModule@ATL@@YAXXZ 000000018002bd18     OposVariant.obj
 0002:0000ad18       $unwind$??__E_AtlComModule@ATL@@YAXXZ 000000018002bd18     OposVariant.obj
 0002:0000ad18       $unwind$_get_osfhandle     000000018002bd18     libucrt:osfinfo.obj
 0002:0000ad18       $unwind$_isatty            000000018002bd18     libucrt:isatty.obj
 0002:0000ad18       $unwind$__acrt_release_locale_ref 000000018002bd18     libucrt:locale_refcounting.obj
 0002:0000ad18       $unwind$__pctype_func      000000018002bd18     libucrt:ctype.obj
 0002:0000ad18       $unwind$__acrt_initialize_heap 000000018002bd18     libucrt:heap_handle.obj
 0002:0000ad18       $unwind$__acrt_initialize_command_line 000000018002bd18     libucrt:argv_data.obj
 0002:0000ad18       $unwind$__acrt_initialize_multibyte 000000018002bd18     libucrt:mbctype.obj
 0002:0000ad18       $unwind$__acrt_update_thread_multibyte_data 000000018002bd18     libucrt:mbctype.obj
 0002:0000ad18       $unwind$_fileno            000000018002bd18     libucrt:fileno.obj
 0002:0000ad18       $unwind$_set_errno_from_matherr 000000018002bd18     libucrt:fpexcept.obj
 0002:0000ad18       $unwind$__acrt_AreFileApisANSI 000000018002bd18     libucrt:winapi_thunks.obj
 0002:0000ad18       $unwind$__dcrt_terminate_console_output 000000018002bd18     libucrt:initcon.obj
 0002:0000ad18       $unwind$atexit             000000018002bd18     LIBCMT:utility.obj
 0002:0000ad18       $unwind$_msize_base        000000018002bd18     libucrt:msize.obj
 0002:0000ad18       $unwind$__scrt_acquire_startup_lock 000000018002bd18     LIBCMT:utility.obj
 0002:0000ad18       $unwind$?cw_strcpy@@YAHPEA_WPEBD@Z 000000018002bd18     CWString.obj
 0002:0000ad18       $unwind$__scrt_dllmain_before_initialize_c 000000018002bd18     LIBCMT:utility.obj
 0002:0000ad18       $unwind$__scrt_dllmain_after_initialize_c 000000018002bd18     LIBCMT:utility.obj
 0002:0000ad18       $unwind$__scrt_dllmain_uninitialize_c 000000018002bd18     LIBCMT:utility.obj
 0002:0000ad18       $unwind$__scrt_dllmain_uninitialize_critical 000000018002bd18     LIBCMT:utility.obj
 0002:0000ad18       $unwind$__scrt_dllmain_crt_thread_attach 000000018002bd18     LIBCMT:utility.obj
 0002:0000ad18       $unwind$__scrt_dllmain_crt_thread_detach 000000018002bd18     LIBCMT:utility.obj
 0002:0000ad18       $unwind$__acrt_uninitialize_ptd 000000018002bd18     libucrt:per_thread_data.obj
 0002:0000ad18       $unwind$__acrt_initialize_ptd 000000018002bd18     libucrt:per_thread_data.obj
 0002:0000ad18       $unwind$_Init_thread_notify 000000018002bd18     LIBCMT:thread_safe_statics.obj
 0002:0000ad18       $unwind$abort              000000018002bd18     libucrt:abort.obj
 0002:0000ad18       $unwind$?get_ResultCode@COPOSCashDrawer@@UEAAJPEAJ@Z 000000018002bd18     CashDrawerImpl.obj
 0002:0000ad18       $unwind$?__scrt_uninitialize_thread_safe_statics@@YAXXZ 000000018002bd18     LIBCMT:thread_safe_statics.obj
 0002:0000ad18       $unwind$?get_State@COPOSCashDrawer@@UEAAJPEAJ@Z 000000018002bd18     CashDrawerImpl.obj
 0002:0000ad18       $unwind$__report_rangecheckfailure 000000018002bd18     LIBCMT:gs_report.obj
 0002:0000ad18       $unwind$uninitialize_allocated_io_buffers 000000018002bd18     libucrt:initialization.obj
 0002:0000ad18       $unwind$uninitialize_environment 000000018002bd18     libucrt:initialization.obj
 0002:0000ad18       $unwind$initialize_c       000000018002bd18     libucrt:initialization.obj
 0002:0000ad18       $unwind$__acrt_thread_detach 000000018002bd18     libucrt:initialization.obj
 0002:0000ad18       $unwind$__acrt_thread_attach 000000018002bd18     libucrt:initialization.obj
 0002:0000ad18       $unwind$__acrt_uninitialize_critical 000000018002bd18     libucrt:initialization.obj
 0002:0000ad18       $unwind$__acrt_uninitialize 000000018002bd18     libucrt:initialization.obj
 0002:0000ad18       $unwind$__GSHandlerCheck   000000018002bd18     LIBCMT:gshandler.obj
 0002:0000ad18       $unwind$??$uninitialize_environment_internal@_W@@YAXAEAPEAPEA_W@Z 000000018002bd18     libucrt:environment_initialization.obj
 0002:0000ad18       $unwind$??$uninitialize_environment_internal@D@@YAXAEAPEAPEAD@Z 000000018002bd18     libucrt:environment_initialization.obj
 0002:0000ad18       $unwind$__dcrt_uninitialize_environments_nolock 000000018002bd18     libucrt:environment_initialization.obj
 0002:0000ad18       $unwind$?dllmain_crt_dispatch@@YAHQEAUHINSTANCE__@@KQEAX@Z 000000018002bd18     LIBCMT:dll_dllmain.obj
 0002:0000ad18       $unwind$__scrt_initialize_default_local_stdio_options 000000018002bd18     LIBCMT:default_local_stdio_options.obj
 0002:0000ad18       $unwind$?state_case_size@?$output_processor@_WV?$string_output_adapter@_W@__crt_stdio_output@@V?$format_validation_base@_WV?$string_output_adapter@_W@__crt_stdio_output@@@2@@__crt_stdio_output@@AEAA_NXZ 000000018002bd18     libucrt:output.obj
 0002:0000ad18       $unwind$??__E_AtlBaseModule@ATL@@YAXXZ 000000018002bd18     atls:atlbase.obj
 0002:0000ad18       $unwind$__doserrno         000000018002bd18     libucrt:errno.obj
 0002:0000ad18       $unwind$_errno             000000018002bd18     libucrt:errno.obj
 0002:0000ad18       $unwind$_invoke_watson     000000018002bd18     libucrt:invalid_parameter.obj
 0002:0000ad18       $unwind$_purecall          000000018002bd18     libvcruntime:purevirt.obj
 0002:0000ad18       $unwind$__vcrt_initialize  000000018002bd18     libvcruntime:initialization.obj
 0002:0000ad18       $unwind$__vcrt_uninitialize 000000018002bd18     libvcruntime:initialization.obj
 0002:0000ad18       $unwind$__vcrt_uninitialize_critical 000000018002bd18     libvcruntime:initialization.obj
 0002:0000ad18       $unwind$__vcrt_thread_attach 000000018002bd18     libvcruntime:initialization.obj
 0002:0000ad18       $unwind$__vcrt_thread_detach 000000018002bd18     libvcruntime:initialization.obj
 0002:0000ad18       $unwind$_GetImageBase      000000018002bd18     libvcruntime:risctrnsctrl.obj
 0002:0000ad18       $unwind$_GetThrowImageBase 000000018002bd18     libvcruntime:risctrnsctrl.obj
 0002:0000ad18       $unwind$?GetCurrentState@__FrameHandler3@@SAHPEA_KPEAU_xDISPATCHER_CONTEXT@@PEBU_s_FuncInfo@@@Z 000000018002bd18     libvcruntime:ehstate.obj
 0002:0000ad18       $unwind$__FrameUnwindFilter 000000018002bd18     libvcruntime:ehhelpers.obj
 0002:0000ad18       $unwind$__vcrt_initialize_ptd 000000018002bd18     libvcruntime:per_thread_data.obj
 0002:0000ad18       $unwind$__vcrt_initialize_locks 000000018002bd18     libvcruntime:locks.obj
 0002:0000ad18       $unwind$__vcrt_uninitialize_ptd 000000018002bd18     libvcruntime:per_thread_data.obj
 0002:0000ad18       $unwind$__vcrt_getptd      000000018002bd18     libvcruntime:per_thread_data.obj
 0002:0000ad20       $unwind$?AtlModuleAddTermFunc@ATL@@YAJPEAU_ATL_MODULE70@1@P6AX_K@Z1@Z 000000018002bd20     CashDrawer.obj
 0002:0000ad20       $unwind$?initialize_stdio_handles_nolock@@YAXXZ 000000018002bd20     libucrt:ioinit.obj
 0002:0000ad20       $unwind$??_Estringdispid@CComTypeInfoHolder@ATL@@QEAAPEAXI@Z 000000018002bd20     OposVariant.obj
 0002:0000ad20       $unwind$__GSHandlerCheck_SEH 000000018002bd20     LIBCMT:gshandlerseh.obj
 0002:0000ad20       $unwind$?AtlComModuleRegisterServer@ATL@@YAJPEAU_ATL_COM_MODULE70@1@HPEBU_GUID@@@Z 000000018002bd20     CashDrawer.obj
 0002:0000ad20       $unwind$?AtlComModuleUnregisterServer@ATL@@YAJPEAU_ATL_COM_MODULE70@1@HPEBU_GUID@@@Z 000000018002bd20     CashDrawer.obj
 0002:0000ad20       $unwind$?GetPagesHelper@?$ISpecifyPropertyPagesImpl@VCOPOSCashDrawer@@@ATL@@IEAAJPEAUtagCAUUID@@PEBUATL_PROPMAP_ENTRY@2@@Z 000000018002bd20     CashDrawer.obj
 0002:0000ad20       $unwind$__acrt_initialize_stdio 000000018002bd20     libucrt:_file.obj
 0002:0000ad20       $unwind$?CreateInstance@?$CComCreator@V?$CComAggObject@VCOPOSCashDrawer@@@ATL@@@ATL@@SAJPEAXAEBU_GUID@@PEAPEAX@Z 000000018002bd20     CashDrawer.obj
 0002:0000ad20       $unwind$?CreateInstance@?$CComCreator@V?$CComObjectCached@VCComClassFactory@ATL@@@ATL@@@ATL@@SAJPEAXAEBU_GUID@@PEAPEAX@Z 000000018002bd20     CashDrawer.obj
 0002:0000ad20       $unwind$?cw_dup@@YAXPEBDAEAHAEAPEA_W1@Z 000000018002bd20     CWString.obj
 0002:0000ad20       $unwind$??$TypeMatchHelper@V__FrameHandler3@@@@YAHPEBU_s_HandlerType@@PEBU_s_CatchableType@@PEBU_s_ThrowInfo@@@Z 000000018002bd20     libvcruntime:frame.obj
 0002:0000ad38       $unwind$fegetenv           000000018002bd38     libucrt:fegetenv.obj
 0002:0000ad38       $unwind$??1CComControlBase@ATL@@UEAA@XZ 000000018002bd38     CashDrawerImpl.obj
 0002:0000ad38       $unwind$?GetConnMap@COPOSCashDrawer@@SAPEBU_ATL_CONNMAP_ENTRY@ATL@@PEAH@Z 000000018002bd38     CashDrawer.obj
 0002:0000ad38       $unwind$?Unadvise@?$IConnectionPointImpl@VCOPOSCashDrawer@@$1?DIID__IOPOSCashDrawerEvents@@3U_GUID@@BVCComDynamicUnkArray@ATL@@@ATL@@UEAAJK@Z 000000018002bd38     CashDrawer.obj
 0002:0000ad38       $unwind$__acrt_FlsAlloc    000000018002bd38     libucrt:winapi_thunks.obj
 0002:0000ad38       $unwind$?Unadvise@?$IConnectionPointImpl@VCOPOSCashDrawer@@$1?IID_IPropertyNotifySink@@3U_GUID@@BVCComDynamicUnkArray@ATL@@@ATL@@UEAAJK@Z 000000018002bd38     CashDrawer.obj
 0002:0000ad38       $unwind$__acrt_stdio_free_buffer_nolock 000000018002bd38     libucrt:_freebuf.obj
 0002:0000ad38       $unwind$_Init_thread_wait  000000018002bd38     LIBCMT:thread_safe_statics.obj
 0002:0000ad38       $unwind$?StateFromIp@__FrameHandler3@@SAHPEBU_s_FuncInfo@@PEAU_xDISPATCHER_CONTEXT@@_K@Z 000000018002bd38     libvcruntime:ehstate.obj
 0002:0000ad38       $unwind$wcscpy_s           000000018002bd38     libucrt:wcscpy_s.obj
 0002:0000ad38       $unwind$__acrt_update_locale_info 000000018002bd38     libucrt:locale_update.obj
 0002:0000ad38       $unwind$wcscat_s           000000018002bd38     libucrt:wcscat_s.obj
 0002:0000ad38       $unwind$?GetClassInfoW@?$IProvideClassInfo2Impl@$1?CLSID_OPOSCashDrawer@@3U_GUID@@B$1?DIID__IOPOSCashDrawerEvents@@3U2@B$1?LIBID_OposCashDrawer_CCO@@3U2@B$00$0A@VCComTypeInfoHolder@ATL@@@ATL@@UEAAJPEAPEAUITypeInfo@@@Z 000000018002bd38     CashDrawer.obj
 0002:0000ad38       $unwind$__acrt_uninitialize_winapi_thunks 000000018002bd38     libucrt:winapi_thunks.obj
 0002:0000ad38       $unwind$??1COPOSCashDrawer@@UEAA@XZ 000000018002bd38     CashDrawerImpl.obj
 0002:0000ad38       $unwind$__acrt_getptd_head 000000018002bd38     libucrt:per_thread_data.obj
 0002:0000ad38       $unwind$??1CAtlBaseModule@ATL@@QEAA@XZ 000000018002bd38     atls:atlbase.obj
 0002:0000ad38       $unwind$_set_statfp        000000018002bd38     libucrt:fpctrl.obj
 0002:0000ad38       $unwind$__acrt_get_process_end_policy 000000018002bd38     libucrt:win_policies.obj
 0002:0000ad38       $unwind$AtlThunk_AllocateData 000000018002bd38     atls:atlthunk.obj
 0002:0000ad38       $unwind$?GetUnwindTryBlock@__FrameHandler3@@SAHPEA_KPEAU_xDISPATCHER_CONTEXT@@PEBU_s_FuncInfo@@@Z 000000018002bd38     libvcruntime:ehstate.obj
 0002:0000ad38       $unwind$_CreateFrameInfo   000000018002bd38     libvcruntime:risctrnsctrl.obj
 0002:0000ad38       $unwind$_clrfp             000000018002bd38     libucrt:fpctrl.obj
 0002:0000ad38       $unwind$?IPSI_GetIPersistStreamInit@?$IPersistStorageImpl@VCOPOSCashDrawer@@@ATL@@AEAAPEAUIPersistStreamInit@@XZ 000000018002bd38     CashDrawer.obj
 0002:0000ad38       $unwind$?FreezeEvents@COPOSCashDrawer@@MEAAJH@Z 000000018002bd38     CashDrawerImpl.obj
 0002:0000ad38       $unwind$_SetThrowImageBase 000000018002bd38     libvcruntime:risctrnsctrl.obj
 0002:0000ad38       $unwind$__vcrt_FlsAlloc    000000018002bd38     libvcruntime:winapi_downlevel.obj
 0002:0000ad38       $unwind$__acrt_uninitialize_locks 000000018002bd38     libucrt:locks.obj
 0002:0000ad38       $unwind$_SetImageBase      000000018002bd38     libvcruntime:risctrnsctrl.obj
 0002:0000ad38       $unwind$__acrt_initialize_locks 000000018002bd38     libucrt:locks.obj
 0002:0000ad38       $unwind$??0bad_exception@std@@QEAA@AEBV01@@Z 000000018002bd38     libvcruntime:frame.obj
 0002:0000ad38       $unwind$?QueryHitPoint@?$IViewObjectExImpl@VCOPOSCashDrawer@@@ATL@@UEAAJKPEBUtagRECT@@UtagPOINT@@JPEAK@Z 000000018002bd38     CashDrawer.obj
 0002:0000ad38       $unwind$?SOProcessID@COPOSCashDrawer@@UEAAJPEAJ@Z 000000018002bd38     CashDrawerImpl.obj
 0002:0000ad38       $unwind$strcpy_s           000000018002bd38     libucrt:strcpy_s.obj
 0002:0000ad38       $unwind$?get_Claimed@COPOSCashDrawer@@UEAAJPEAF@Z 000000018002bd38     CashDrawerImpl.obj
 0002:0000ad38       $unwind$?AllocateHeap@?$CTempBuffer@E$0BAA@VCCRTAllocator@ATL@@@ATL@@AEAAX_K@Z 000000018002bd38     CashDrawer.obj
 0002:0000ad38       $unwind$?get_DeviceEnabled@COPOSCashDrawer@@UEAAJPEAF@Z 000000018002bd38     CashDrawerImpl.obj
 0002:0000ad38       $unwind$?get_FreezeEvents@COPOSCashDrawer@@UEAAJPEAF@Z 000000018002bd38     CashDrawerImpl.obj
 0002:0000ad38       $unwind$_calloc_base       000000018002bd38     libucrt:calloc_base.obj
 0002:0000ad38       $unwind$?put_FreezeEvents@COPOSCashDrawer@@UEAAJF@Z 000000018002bd38     CashDrawerImpl.obj
 0002:0000ad38       $unwind$__scrt_uninitialize_crt 000000018002bd38     LIBCMT:utility.obj
 0002:0000ad38       $unwind$_fflush_nolock     000000018002bd38     libucrt:fflush.obj
 0002:0000ad38       $unwind$uninitialize_allocated_memory 000000018002bd38     libucrt:initialization.obj
 0002:0000ad38       $unwind$?ExecutionInCatch@__FrameHandler3@@SA_NPEAU_xDISPATCHER_CONTEXT@@PEBU_s_FuncInfo@@@Z 000000018002bd38     libvcruntime:risctrnsctrl.obj
 0002:0000ad38       $unwind$?ExFilterRethrow@@YAHPEAU_EXCEPTION_POINTERS@@PEAUEHExceptionRecord@@PEAH@Z 000000018002bd38     libvcruntime:frame.obj
 0002:0000ad38       $unwind$??0CAtlModule@ATL@@QEAA@XZ 000000018002bd38     CashDrawer.obj
 0002:0000ad38       $unwind$initialize_pointers 000000018002bd38     libucrt:initialization.obj
 0002:0000ad38       $unwind$_clearfp           000000018002bd38     libucrt:ieee.obj
 0002:0000ad38       $unwind$?DupWide@_CW@@AEAAXXZ 000000018002bd38     CWString.obj
 0002:0000ad38       $unwind$??0CAtlComModule@ATL@@QEAA@XZ 000000018002bd38     OposVariant.obj
 0002:0000ad38       $unwind$__raise_securityfailure 000000018002bd38     LIBCMT:gs_report.obj
 0002:0000ad38       $unwind$?get_CapStatus@COPOSCashDrawer@@UEAAJPEAF@Z 000000018002bd38     CashDrawerImpl.obj
 0002:0000ad38       $unwind$?GetClientSite@?$IOleObjectImpl@VCOPOSCashDrawer@@@ATL@@UEAAJPEAPEAUIOleClientSite@@@Z 000000018002bd38     CashDrawer.obj
 0002:0000ad38       $unwind$?get_DrawerOpened@COPOSCashDrawer@@UEAAJPEAF@Z 000000018002bd38     CashDrawerImpl.obj
 0002:0000ad38       $unwind$__scrt_initialize_crt 000000018002bd38     LIBCMT:utility.obj
 0002:0000ad38       $unwind$??0CAtlWinModule@ATL@@QEAA@XZ 000000018002bd38     OposVariant.obj
 0002:0000ad38       $unwind$?GetTypeInfo@?$IDispatchImpl@UIOPOSCashDrawer@@$1?IID_IOPOSCashDrawer@@3U_GUID@@B$1?LIBID_OposCashDrawer_CCO@@3U3@B$00$0A@VCComTypeInfoHolder@ATL@@@ATL@@UEAAJIKPEAPEAUITypeInfo@@@Z 000000018002bd38     CashDrawer.obj
 0002:0000ad38       $unwind$__scrt_initialize_onexit_tables 000000018002bd38     LIBCMT:utility.obj
 0002:0000ad38       $unwind$?get_CapStatusMultiDrawerDetect@COPOSCashDrawer@@UEAAJPEAF@Z 000000018002bd38     CashDrawerImpl.obj
 0002:0000ad38       $unwind$feholdexcept       000000018002bd38     libucrt:feholdexcept.obj
 0002:0000ad38       $unwind$?get_CapStatisticsReporting@COPOSCashDrawer@@UEAAJPEAF@Z 000000018002bd38     CashDrawerImpl.obj
 0002:0000ad38       $unwind$fesetenv           000000018002bd38     libucrt:fesetenv.obj
 0002:0000ad38       $unwind$?get_CapUpdateStatistics@COPOSCashDrawer@@UEAAJPEAF@Z 000000018002bd38     CashDrawerImpl.obj
 0002:0000ad38       $unwind$?Load@?$IPersistStreamInitImpl@VCOPOSCashDrawer@@@ATL@@UEAAJPEAUIStream@@@Z 000000018002bd38     CashDrawer.obj
 0002:0000ad38       $unwind$?IOleInPlaceObject_InPlaceDeactivate@CComControlBase@ATL@@QEAAJXZ 000000018002bd38     CashDrawer.obj
 0002:0000ad38       $unwind$?IOleObject_SetExtent@CComControlBase@ATL@@QEAAJKPEAUtagSIZE@@@Z 000000018002bd38     CashDrawer.obj
 0002:0000ad38       $unwind$__acrt_AppPolicyGetProcessTerminationMethodInternal 000000018002bd38     libucrt:winapi_thunks.obj
 0002:0000ad38       $unwind$?IsEqualObject@?$CComPtrBase@UIOleClientSite@@@ATL@@QEAA_NPEAUIUnknown@@@Z 000000018002bd38     CashDrawer.obj
 0002:0000ad38       $unwind$?get_CapCompareFirmwareVersion@COPOSCashDrawer@@UEAAJPEAF@Z 000000018002bd38     CashDrawerImpl.obj
 0002:0000ad38       $unwind$?AtlCreateTargetDC@ATL@@YAPEAUHDC__@@PEAU2@PEAUtagDVTARGETDEVICE@@@Z 000000018002bd38     CashDrawer.obj
 0002:0000ad38       $unwind$?get_CapUpdateFirmware@COPOSCashDrawer@@UEAAJPEAF@Z 000000018002bd38     CashDrawerImpl.obj
 0002:0000ad38       $unwind$?AllocateHeap@?$CTempBuffer@_W$0BAA@VCCRTAllocator@ATL@@@ATL@@AEAAX_K@Z 000000018002bd38     CashDrawer.obj
 0002:0000ad38       $unwind$__acrt_SetThreadStackGuarantee 000000018002bd38     libucrt:winapi_thunks.obj
 0002:0000ad38       $unwind$?AllocateHeap@?$CTempBuffer@_W$0EAA@VCCRTAllocator@ATL@@@ATL@@AEAAX_K@Z 000000018002bd38     CashDrawer.obj
 0002:0000ad38       $unwind$__acrt_freeptd     000000018002bd38     libucrt:per_thread_data.obj
 0002:0000ad38       $unwind$_callnewh          000000018002bd38     libucrt:new_handler.obj
 0002:0000ad38       $unwind$?EventUninit@COPOSCashDrawer@@IEAAXXZ 000000018002bd38     CashDrawerImpl.obj
 0002:0000ad38       $unwind$__acrt_update_multibyte_info 000000018002bd38     libucrt:locale_update.obj
 0002:0000ad38       $unwind$?IsEqualObject@?$CComPtrBase@UITypeInfo@@@ATL@@QEAA_NPEAUIUnknown@@@Z 000000018002bd38     CashDrawer.obj
 0002:0000ad38       $unwind$__acrt_uninitialize_stdio 000000018002bd38     libucrt:_file.obj
 0002:0000ad38       $unwind$??__E_Module@@YAXXZ 000000018002bd38     CashDrawer.obj
 0002:0000ad38       $unwind$_Init_thread_footer 000000018002bd38     LIBCMT:thread_safe_statics.obj
 0002:0000ad38       $unwind$__acrt_allocate_buffer_for_argv 000000018002bd38     libucrt:argv_parsing.obj
 0002:0000ad38       $unwind$_malloc_base       000000018002bd38     libucrt:malloc_base.obj
 0002:0000ad38       $unwind$__vcrt_FlsGetValue 000000018002bd38     libvcruntime:winapi_downlevel.obj
 0002:0000ad38       $unwind$?exit_or_terminate_process@@YAXI@Z 000000018002bd38     libucrt:exit.obj
 0002:0000ad38       $unwind$??2@YAPEAX_K@Z     000000018002bd38     LIBCMT:new_scalar.obj
 0002:0000ad38       $unwind$?try_cor_exit_process@@YAXI@Z 000000018002bd38     libucrt:exit.obj
 0002:0000ad38       $unwind$?AddRef@?$CComObjectCached@VCComClassFactory@ATL@@@ATL@@UEAAKXZ 000000018002bd38     CashDrawer.obj
 0002:0000ad38       $unwind$?Release@?$CComObjectCached@VCComClassFactory@ATL@@@ATL@@UEAAKXZ 000000018002bd38     CashDrawer.obj
 0002:0000ad38       $unwind$_onexit            000000018002bd38     LIBCMT:utility.obj
 0002:0000ad38       $unwind$?QueryInterface@?$CComAggObject@VCOPOSCashDrawer@@@ATL@@UEAAJAEBU_GUID@@PEAPEAX@Z 000000018002bd38     CashDrawer.obj
 0002:0000ad38       $unwind$??0?$CComObject@VCOPOSCashDrawer@@@ATL@@QEAA@PEAX@Z 000000018002bd38     CashDrawer.obj
 0002:0000ad38       $unwind$??1?$CComObject@VCOPOSCashDrawer@@@ATL@@UEAA@XZ 000000018002bd38     CashDrawer.obj
 0002:0000ad38       $unwind$??0exception@std@@QEAA@AEBV01@@Z 000000018002bd38     LIBCMT:throw_bad_alloc.obj
 0002:0000ad38       $unwind$__std_type_info_destroy_list 000000018002bd38     libvcruntime:std_type_info.obj
 0002:0000ad38       $unwind$??0bad_alloc@std@@QEAA@AEBV01@@Z 000000018002bd38     LIBCMT:throw_bad_alloc.obj
 0002:0000ad38       $unwind$??0bad_array_new_length@std@@QEAA@AEBV01@@Z 000000018002bd38     LIBCMT:throw_bad_alloc.obj
 0002:0000ad38       $unwind$__acrt_FlsFree     000000018002bd38     libucrt:winapi_thunks.obj
 0002:0000ad38       $unwind$__scrt_release_startup_lock 000000018002bd38     LIBCMT:utility.obj
 0002:0000ad38       $unwind$__vcrt_freeptd     000000018002bd38     libvcruntime:per_thread_data.obj
 0002:0000ad38       $unwind$__acrt_FlsGetValue 000000018002bd38     libucrt:winapi_thunks.obj
 0002:0000ad38       $unwind$_Init_thread_header 000000018002bd38     LIBCMT:thread_safe_statics.obj
 0002:0000ad38       $unwind$??_Gtype_info@@UEAAPEAXI@Z 000000018002bd38     LIBCMT:std_type_info_static.obj
 0002:0000ad38       $unwind$__vcrt_FlsFree     000000018002bd38     libvcruntime:winapi_downlevel.obj
 0002:0000ad38       $unwind$__vcrt_uninitialize_locks 000000018002bd38     libvcruntime:locks.obj
 0002:0000ad38       $unwind$__std_exception_destroy 000000018002bd38     libvcruntime:std_exception.obj
 0002:0000ad38       $unwind$_IsExceptionObjectToBeDestroyed 000000018002bd38     libvcruntime:ehhelpers.obj
 0002:0000ad40       $unwind$_initterm          000000018002bd40     libucrt:initterm.obj
 0002:0000ad40       $unwind$_recalloc_base     000000018002bd40     libucrt:recalloc.obj
 0002:0000ad40       $unwind$?Append@CParseBuffer@CRegParser@ATL@@QEAAHPEB_WH@Z 000000018002bd40     CashDrawer.obj
 0002:0000ad40       $unwind$?HKeyFromString@CRegParser@ATL@@KAPEAUHKEY__@@PEA_W@Z 000000018002bd40     CashDrawer.obj
 0002:0000ad40       $unwind$?s_EventWindowProc@COPOSCashDrawer@@KA_JPEAUHWND__@@I_K_J@Z 000000018002bd40     CashDrawerImpl.obj
 0002:0000ad40       $unwind$?CreateInstance@?$CComCreator@V?$CComObject@VCOPOSCashDrawer@@@ATL@@@ATL@@SAJPEAXAEBU_GUID@@PEAPEAX@Z 000000018002bd40     CashDrawer.obj
 0002:0000ad40       $unwind$?GetHandlerSearchState@__FrameHandler3@@SAHPEA_KPEAU_xDISPATCHER_CONTEXT@@PEBU_s_FuncInfo@@@Z 000000018002bd40     libvcruntime:frame.obj
 0002:0000ad40       $unwind$__acrt_lowio_create_handle_array 000000018002bd40     libucrt:osfinfo.obj
 0002:0000ad40       $unwind$?AtlWinModuleExtractCreateWndData@ATL@@YAPEAXPEAU_ATL_WIN_MODULE70@1@@Z 000000018002bd40     CashDrawer.obj
 0002:0000ad40       $unwind$?AtlWinModuleTerm@ATL@@YAJPEAU_ATL_WIN_MODULE70@1@PEAUHINSTANCE__@@@Z 000000018002bd40     OposVariant.obj
 0002:0000ad40       $unwind$?Next@?$CComEnumImpl@UIEnumConnectionPoints@@$1?_GUID_b196b285_bab4_101a_b69c_00aa00341d07@@3U__s_GUID@@BPEAUIConnectionPoint@@V?$_CopyInterface@UIConnectionPoint@@@ATL@@@ATL@@UEAAJKPEAPEAUIConnectionPoint@@PEAK@Z 000000018002bd40     CashDrawer.obj
 0002:0000ad40       $unwind$__scrt_dllmain_exception_filter 000000018002bd40     LIBCMT:utility.obj
 0002:0000ad40       $unwind$?DoVerb@?$IOleObjectImpl@VCOPOSCashDrawer@@@ATL@@UEAAJJPEAUtagMSG@@PEAUIOleClientSite@@JPEAUHWND__@@PEBUtagRECT@@@Z 000000018002bd40     CashDrawer.obj
 0002:0000ad40       $unwind$??$ensure_buffer_is_big_enough@_W@formatting_buffer@__crt_stdio_output@@QEAA_N_K@Z 000000018002bd40     libucrt:output.obj
 0002:0000ad40       $unwind$__acrt_free_locale 000000018002bd40     libucrt:locale_refcounting.obj
 0002:0000ad40       $unwind$??$ensure_buffer_is_big_enough@D@formatting_buffer@__crt_stdio_output@@QEAA_N_K@Z 000000018002bd40     libucrt:output.obj
 0002:0000ad40       $unwind$?Is_bad_exception_allowed@@YAEPEBU_s_ESTypeList@@@Z 000000018002bd40     libvcruntime:frame.obj
 0002:0000ad40       $unwind$?SODirectIO@COPOSCashDrawer@@MEAAJJPEAJPEAPEA_W@Z 000000018002bd40     CashDrawer.obj
 0002:0000ad40       $unwind$?setSBCS@@YAXPEAU__crt_multibyte_data@@@Z 000000018002bd40     libucrt:mbctype.obj
 0002:0000ad40       $unwind$?DoEvent@COPOSCashDrawer@@IEAAXI_K_J@Z 000000018002bd40     CashDrawer.obj
 0002:0000ad40       $unwind$?SetControlFocus@CComControlBase@ATL@@QEAAHH@Z 000000018002bd40     CashDrawer.obj
 0002:0000ad40       $unwind$_seh_filter_exe    000000018002bd40     libucrt:exception_filter.obj
 0002:0000ad40       $unwind$?Next@?$CComEnumImpl@UIEnumConnections@@$1?_GUID_b196b287_bab4_101a_b69c_00aa00341d07@@3U__s_GUID@@BUtagCONNECTDATA@@V?$_Copy@UtagCONNECTDATA@@@ATL@@@ATL@@UEAAJKPEAUtagCONNECTDATA@@PEAK@Z 000000018002bd40     CashDrawer.obj
 0002:0000ad54       $unwind$?SetBSTR_Copy@OposVariant@@QEAAXPEA_WAEAJ@Z 000000018002bd54     OposVariant.obj
 0002:0000ad54       $unwind$?SetBSTR_InOutPtr@OposVariant@@QEAA_NPEAPEA_WAEAJ@Z 000000018002bd54     OposVariant.obj
 0002:0000ad54       $unwind$_DllMainCRTStartup 000000018002bd54     LIBCMT:dll_dllmain.obj
 0002:0000ad54       $unwind$?SetString@OposVariant@@QEAAXPEB_WAEAJ@Z 000000018002bd54     OposVariant.obj
 0002:0000ad54       $unwind$?SetDispatch_Ptr@OposVariant@@QEAAXPEAUIDispatch@@AEAJ@Z 000000018002bd54     OposVariant.obj
 0002:0000ad54       $unwind$??0OposDispParms@@QEAA@PEAVOposVariant@@H@Z 000000018002bd54     OposVariant.obj
 0002:0000ad54       $unwind$memcpy_s           000000018002bd54     CashDrawer.obj
 0002:0000ad54       $unwind$?Add@?$CSimpleArray@GV?$CSimpleArrayEqualHelper@G@ATL@@@ATL@@QEAAHAEBG@Z 000000018002bd54     CashDrawer.obj
 0002:0000ad54       $unwind$?AtlCallTermFunc@ATL@@YAXPEAU_ATL_MODULE70@1@@Z 000000018002bd54     CashDrawer.obj
 0002:0000ad54       $unwind$?RegisterServer@CComModule@ATL@@QEAAJHPEBU_GUID@@@Z 000000018002bd54     CashDrawer.obj
 0002:0000ad54       $unwind$??_GCComModule@ATL@@UEAAPEAXI@Z 000000018002bd54     CashDrawer.obj
 0002:0000ad54       $unwind$?Add@?$CSimpleMap@PEA_WPEA_WVCExpansionVectorEqualHelper@ATL@@@ATL@@QEAAHAEBQEA_W0@Z 000000018002bd54     CashDrawer.obj
 0002:0000ad54       $unwind$?ClearReplacements@CExpansionVector@ATL@@QEAAJXZ 000000018002bd54     CashDrawer.obj
 0002:0000ad54       $unwind$?VTFromRegType@CRegParser@ATL@@KAHPEB_WAEAG@Z 000000018002bd54     CashDrawer.obj
 0002:0000ad54       $unwind$__acrt_getptd      000000018002bd54     libucrt:per_thread_data.obj
 0002:0000ad54       $unwind$?type_case_n@?$output_processor@_WV?$string_output_adapter@_W@__crt_stdio_output@@V?$format_validation_base@_WV?$string_output_adapter@_W@__crt_stdio_output@@@2@@__crt_stdio_output@@AEAA_NXZ 000000018002bd54     libucrt:output.obj
 0002:0000ad54       $unwind$__acrt_InitializeCriticalSectionEx 000000018002bd54     libucrt:winapi_thunks.obj
 0002:0000ad54       $unwind$??_GCRegObject@ATL@@UEAAPEAXI@Z 000000018002bd54     CashDrawer.obj
 0002:0000ad54       $unwind$?type_case_s@?$output_processor@_WV?$string_output_adapter@_W@__crt_stdio_output@@V?$format_validation_base@_WV?$string_output_adapter@_W@__crt_stdio_output@@@2@@__crt_stdio_output@@AEAA_NXZ 000000018002bd54     libucrt:output.obj
 0002:0000ad54       $unwind$?type_case_Z@?$output_processor@_WV?$string_output_adapter@_W@__crt_stdio_output@@V?$format_validation_base@_WV?$string_output_adapter@_W@__crt_stdio_output@@@2@@__crt_stdio_output@@AEAA_NXZ 000000018002bd54     libucrt:output.obj
 0002:0000ad54       $unwind$?Add@CComDynamicUnkArray@ATL@@QEAAKPEAUIUnknown@@@Z 000000018002bd54     CashDrawer.obj
 0002:0000ad54       $unwind$?CatchTryBlock@__FrameHandler3@@SAPEBU_s_TryBlockMapEntry@@PEBU_s_FuncInfo@@H@Z 000000018002bd54     libvcruntime:risctrnsctrl.obj
 0002:0000ad54       $unwind$?free_crt_array_internal@@YAXQEAPEBX_K@Z 000000018002bd54     libucrt:inittime.obj
 0002:0000ad54       $unwind$?Advise@?$IOleObjectImpl@VCOPOSCashDrawer@@@ATL@@UEAAJPEAUIAdviseSink@@PEAK@Z 000000018002bd54     CashDrawer.obj
 0002:0000ad54       $unwind$__vcrt_getptd_noexit 000000018002bd54     libvcruntime:per_thread_data.obj
 0002:0000ad54       $unwind$__acrt_getptd_noexit 000000018002bd54     libucrt:per_thread_data.obj
 0002:0000ad54       $unwind$??0_LocaleUpdate@@QEAA@QEAU__crt_locale_pointers@@@Z 000000018002bd54     libucrt:output.obj
 0002:0000ad54       $unwind$__acrt_execute_initializers 000000018002bd54     libucrt:shared_initialization.obj
 0002:0000ad54       $unwind$memcpy_s           000000018002bd54     libucrt:cfout.obj
 0002:0000ad54       $unwind$?FrameUnwindToEmptyState@__FrameHandler3@@SAXPEA_KPEAU_xDISPATCHER_CONTEXT@@PEBU_s_FuncInfo@@@Z 000000018002bd54     libvcruntime:risctrnsctrl.obj
 0002:0000ad54       $unwind$__acrt_stdio_flush_nolock 000000018002bd54     libucrt:fflush.obj
 0002:0000ad54       $unwind$_exception_enabled 000000018002bd54     libucrt:libm_error.obj
 0002:0000ad54       $unwind$?UnregisterServer@CComModule@ATL@@QEAAJHPEBU_GUID@@@Z 000000018002bd54     CashDrawer.obj
 0002:0000ad54       $unwind$__vcrt_InitializeCriticalSectionEx 000000018002bd54     libvcruntime:winapi_downlevel.obj
 0002:0000ad54       $unwind$?Term@CAtlComModule@ATL@@QEAAXXZ 000000018002bd54     OposVariant.obj
 0002:0000ad54       $unwind$??$common_lseek_nolock@_J@@YA_JH_JH@Z 000000018002bd54     libucrt:lseek.obj
 0002:0000ad54       $unwind$?SetLONG_Ptr@OposVariant@@QEAAXPEAJAEAJ@Z 000000018002bd54     OposVariant.obj
 0002:0000ad64       $unwind$?SetBSTR@OposVariant@@QEAAXPEA_WAEAJ@Z 000000018002bd64     OposVariant.obj
 0002:0000ad64       $unwind$DllMain            000000018002bd64     CashDrawer.obj
 0002:0000ad64       $unwind$?replace_current_thread_locale_nolock@@YAXQEAU__acrt_ptd@@QEAU__crt_locale_data@@@Z 000000018002bd64     libucrt:per_thread_data.obj
 0002:0000ad64       $unwind$?__scrt_initialize_thread_safe_statics@@YAHXZ 000000018002bd64     LIBCMT:thread_safe_statics.obj
 0002:0000ad64       $unwind$?Term@CComModule@ATL@@QEAAXXZ 000000018002bd64     CashDrawer.obj
 0002:0000ad64       $unwind$?SetLONG@OposVariant@@QEAAXJ@Z 000000018002bd64     OposVariant.obj
 0002:0000ad64       $unwind$__vcrt_FlsSetValue 000000018002bd64     libvcruntime:winapi_downlevel.obj
 0002:0000ad64       $unwind$??1?$CComEnumImpl@UIEnumConnectionPoints@@$1?_GUID_b196b285_bab4_101a_b69c_00aa00341d07@@3U__s_GUID@@BPEAUIConnectionPoint@@V?$_CopyInterface@UIConnectionPoint@@@ATL@@@ATL@@UEAA@XZ 000000018002bd64     CashDrawer.obj
 0002:0000ad64       $unwind$?IOleObject_SetClientSite@CComControlBase@ATL@@QEAAJPEAUIOleClientSite@@@Z 000000018002bd64     CashDrawer.obj
 0002:0000ad64       $unwind$_realloc_base      000000018002bd64     libucrt:realloc_base.obj
 0002:0000ad64       $unwind$__acrt_LocaleNameToLCID 000000018002bd64     libucrt:winapi_thunks.obj
 0002:0000ad64       $unwind$?Release@?$CComObject@V?$CComEnum@UIEnumConnectionPoints@@$1?_GUID_b196b285_bab4_101a_b69c_00aa00341d07@@3U__s_GUID@@BPEAUIConnectionPoint@@V?$_CopyInterface@UIConnectionPoint@@@ATL@@VCComSingleThreadModel@6@@ATL@@@ATL@@UEAAKXZ 000000018002bd64     CashDrawer.obj
 0002:0000ad64       $unwind$?CreateInstance@?$CComObject@V?$CComEnum@UIEnumConnectionPoints@@$1?_GUID_b196b285_bab4_101a_b69c_00aa00341d07@@3U__s_GUID@@BPEAUIConnectionPoint@@V?$_CopyInterface@UIConnectionPoint@@@ATL@@VCComSingleThreadModel@6@@ATL@@@ATL@@SAJPEAPEAV12@@Z 000000018002bd64     CashDrawer.obj
 0002:0000ad64       $unwind$??_G?$CComObject@V?$CComEnum@UIEnumConnectionPoints@@$1?_GUID_b196b285_bab4_101a_b69c_00aa00341d07@@3U__s_GUID@@BPEAUIConnectionPoint@@V?$_CopyInterface@UIConnectionPoint@@@ATL@@VCComSingleThreadModel@6@@ATL@@@ATL@@UEAAPEAXI@Z 000000018002bd64     CashDrawer.obj
 0002:0000ad64       $unwind$?SetVARIANT_BOOL@OposVariant@@QEAAXF@Z 000000018002bd64     OposVariant.obj
 0002:0000ad64       $unwind$_initterm_e        000000018002bd64     libucrt:initterm.obj
 0002:0000ad64       $unwind$?DeleteSubKey@CRegKey@ATL@@QEAAJPEB_W@Z 000000018002bd64     CashDrawer.obj
 0002:0000ad64       $unwind$??$GetProcAddressAll@P6APEAUAtlThunkData_t@@XZ@@YAP6APEAUAtlThunkData_t@@XZPEAP6APEAU0@XZ@Z 000000018002bd64     atls:atlthunk.obj
 0002:0000ad64       $unwind$_fclose_nolock     000000018002bd64     libucrt:fclose.obj
 0002:0000ad64       $unwind$strncpy_s          000000018002bd64     libucrt:strncpy_s.obj
 0002:0000ad64       $unwind$??_G?$CComObjectCached@VCComClassFactory@ATL@@@ATL@@UEAAPEAXI@Z 000000018002bd64     CashDrawer.obj
 0002:0000ad64       $unwind$?WriteToStream@CComBSTR@ATL@@QEAAJPEAUIStream@@@Z 000000018002bd64     CashDrawer.obj
 0002:0000ad64       $unwind$?Release@?$CComAggObject@VCOPOSCashDrawer@@@ATL@@UEAAKXZ 000000018002bd64     CashDrawer.obj
 0002:0000ad64       $unwind$??_Gbad_exception@std@@UEAAPEAXI@Z 000000018002bd64     libvcruntime:frame.obj
 0002:0000ad64       $unwind$_close_nolock      000000018002bd64     libucrt:close.obj
 0002:0000ad64       $unwind$??0?$CComContainedObject@VCOPOSCashDrawer@@@ATL@@QEAA@PEAX@Z 000000018002bd64     CashDrawer.obj
 0002:0000ad64       $unwind$??_G?$CComContainedObject@VCOPOSCashDrawer@@@ATL@@UEAAPEAXI@Z 000000018002bd64     CashDrawer.obj
 0002:0000ad64       $unwind$??_G?$CComAggObject@VCOPOSCashDrawer@@@ATL@@UEAAPEAXI@Z 000000018002bd64     CashDrawer.obj
 0002:0000ad64       $unwind$__acrt_uninitialize_lowio 000000018002bd64     libucrt:ioinit.obj
 0002:0000ad64       $unwind$?SetAdvise@?$IViewObjectExImpl@VCOPOSCashDrawer@@@ATL@@UEAAJKKPEAUIAdviseSink@@@Z 000000018002bd64     CashDrawer.obj
 0002:0000ad64       $unwind$??$GetProcAddressAll@P6AP6A_JPEAUHWND__@@I_K_J@ZPEAUAtlThunkData_t@@@Z@@YAP6AP6A_JPEAUHWND__@@I_K_J@ZPEAUAtlThunkData_t@@@ZPEAP6AP6A_J0I12@Z3@Z@Z 000000018002bd64     atls:atlthunk.obj
 0002:0000ad64       $unwind$_updatetlocinfoEx_nolock 000000018002bd64     libucrt:locale_refcounting.obj
 0002:0000ad64       $unwind$?Release@?$CComObject@VCOPOSCashDrawer@@@ATL@@UEAAKXZ 000000018002bd64     CashDrawer.obj
 0002:0000ad64       $unwind$_RTC_Initialize    000000018002bd64     LIBCMT:initsect.obj
 0002:0000ad64       $unwind$??_G?$CComObject@VCOPOSCashDrawer@@@ATL@@UEAAPEAXI@Z 000000018002bd64     CashDrawer.obj
 0002:0000ad64       $unwind$_RTC_Terminate     000000018002bd64     LIBCMT:initsect.obj
 0002:0000ad64       $unwind$??$GetProcAddressAll@P6AXPEAUAtlThunkData_t@@PEAX_K@Z@@YAP6AXPEAUAtlThunkData_t@@PEAX_K@ZPEAP6AX012@Z@Z 000000018002bd64     atls:atlthunk.obj
 0002:0000ad64       $unwind$?IsDirty@?$IPersistStorageImpl@VCOPOSCashDrawer@@@ATL@@UEAAJXZ 000000018002bd64     CashDrawer.obj
 0002:0000ad64       $unwind$??1?$CComEnumImpl@UIEnumConnections@@$1?_GUID_b196b287_bab4_101a_b69c_00aa00341d07@@3U__s_GUID@@BUtagCONNECTDATA@@V?$_Copy@UtagCONNECTDATA@@@ATL@@@ATL@@UEAA@XZ 000000018002bd64     CashDrawer.obj
 0002:0000ad64       $unwind$??_Gexception@std@@UEAAPEAXI@Z 000000018002bd64     LIBCMT:throw_bad_alloc.obj
 0002:0000ad64       $unwind$?__AllocStdCallThunk_cmn@@YAPEAXXZ 000000018002bd64     atls:atlthunk.obj
 0002:0000ad64       $unwind$?InitNew@?$IPersistStorageImpl@VCOPOSCashDrawer@@@ATL@@UEAAJPEAUIStorage@@@Z 000000018002bd64     CashDrawer.obj
 0002:0000ad64       $unwind$?__InitializeThunkPool@@YAHXZ 000000018002bd64     atls:atlthunk.obj
 0002:0000ad64       $unwind$??_Gbad_alloc@std@@UEAAPEAXI@Z 000000018002bd64     LIBCMT:throw_bad_alloc.obj
 0002:0000ad64       $unwind$AtlThunk_DataToCode 000000018002bd64     atls:atlthunk.obj
 0002:0000ad64       $unwind$?Release@?$CComObject@V?$CComEnum@UIEnumConnections@@$1?_GUID_b196b287_bab4_101a_b69c_00aa00341d07@@3U__s_GUID@@BUtagCONNECTDATA@@V?$_Copy@UtagCONNECTDATA@@@ATL@@VCComSingleThreadModel@6@@ATL@@@ATL@@UEAAKXZ 000000018002bd64     CashDrawer.obj
 0002:0000ad64       $unwind$??_Gbad_array_new_length@std@@UEAAPEAXI@Z 000000018002bd64     LIBCMT:throw_bad_alloc.obj
 0002:0000ad64       $unwind$__acrt_fp_strflt_to_string 000000018002bd64     libucrt:_fptostr.obj
 0002:0000ad64       $unwind$?CreateInstance@?$CComObject@V?$CComEnum@UIEnumConnections@@$1?_GUID_b196b287_bab4_101a_b69c_00aa00341d07@@3U__s_GUID@@BUtagCONNECTDATA@@V?$_Copy@UtagCONNECTDATA@@@ATL@@VCComSingleThreadModel@6@@ATL@@@ATL@@SAJPEAPEAV12@@Z 000000018002bd64     CashDrawer.obj
 0002:0000ad64       $unwind$__acrt_errno_map_os_error 000000018002bd64     libucrt:errno.obj
 0002:0000ad64       $unwind$??_G?$CComObject@V?$CComEnum@UIEnumConnections@@$1?_GUID_b196b287_bab4_101a_b69c_00aa00341d07@@3U__s_GUID@@BUtagCONNECTDATA@@V?$_Copy@UtagCONNECTDATA@@@ATL@@VCComSingleThreadModel@6@@ATL@@@ATL@@UEAAPEAXI@Z 000000018002bd64     CashDrawer.obj
 0002:0000ad64       $unwind$??$common_initialize_environment_nolock@D@@YAHXZ 000000018002bd64     libucrt:environment_initialization.obj
 0002:0000ad64       $unwind$_FindAndUnlinkFrame 000000018002bd64     libvcruntime:risctrnsctrl.obj
 0002:0000ad64       $unwind$?SetUnwindTryBlock@__FrameHandler3@@SAXPEA_KPEAU_xDISPATCHER_CONTEXT@@PEBU_s_FuncInfo@@H@Z 000000018002bd64     libvcruntime:ehstate.obj
 0002:0000ad64       $unwind$__acrt_execute_uninitializers 000000018002bd64     libucrt:shared_initialization.obj
 0002:0000ad64       $unwind$wcsncpy_s          000000018002bd64     libucrt:wcsncpy_s.obj
 0002:0000ad64       $unwind$??1?$IConnectionPointImpl@VCOPOSCashDrawer@@$1?DIID__IOPOSCashDrawerEvents@@3U_GUID@@BVCComDynamicUnkArray@ATL@@@ATL@@QEAA@XZ 000000018002bd64     CashDrawerImpl.obj
 0002:0000ad64       $unwind$??1?$IConnectionPointImpl@VCOPOSCashDrawer@@$1?IID_IPropertyNotifySink@@3U_GUID@@BVCComDynamicUnkArray@ATL@@@ATL@@QEAA@XZ 000000018002bd64     CashDrawerImpl.obj
 0002:0000ad64       $unwind$?SOStatusUpdate@COPOSCashDrawer@@MEAAJJ@Z 000000018002bd64     CashDrawer.obj
 0002:0000ad64       $unwind$__acrt_FlsSetValue 000000018002bd64     libucrt:winapi_thunks.obj
 0002:0000ad64       $unwind$??0CAtlBaseModule@ATL@@QEAA@XZ 000000018002bd64     atls:atlbase.obj
 0002:0000ad64       $unwind$??$GetProcAddressAll@P6AXPEAUAtlThunkData_t@@@Z@@YAP6AXPEAUAtlThunkData_t@@@ZPEAP6AX0@Z@Z 000000018002bd64     atls:atlthunk.obj
 0002:0000ad64       $unwind$??_GCComClassFactory@ATL@@UEAAPEAXI@Z 000000018002bd64     CashDrawer.obj
 0002:0000ad70       $unwind$?ChangeBSTR@OposVariant@@QEAAXPEAPEA_WAEAJ@Z 000000018002bd70     OposVariant.obj
 0002:0000ad70       $unwind$?ChangeLONG@OposVariant@@QEAAXPEAJAEAJ@Z 000000018002bd70     OposVariant.obj
 0002:0000ad70       $unwind$?x_ismbbtype_l@@YAHPEAU__crt_locale_pointers@@IHH@Z 000000018002bd70     libucrt:ismbbyte.obj
 0002:0000ad80       $unwind$swprintf_s         000000018002bd80     CashDrawer.obj
 0002:0000ad90       $unwind$?_AtlVerifyStackAvailable@_ATL_SAFE_ALLOCA_IMPL@ATL@@YA_N_K@Z 000000018002bd90     CashDrawer.obj
 0002:0000adbc       $unwind$?filt$0@?0??_AtlVerifyStackAvailable@_ATL_SAFE_ALLOCA_IMPL@ATL@@YA_N_K@Z@4HA 000000018002bdbc     CashDrawer.obj
 0002:0000adbc       $unwind$_write$fin$0       000000018002bdbc     libucrt:write.obj
 0002:0000adbc       $unwind$__acrt_lowio_ensure_fh_exists$fin$0 000000018002bdbc     libucrt:osfinfo.obj
 0002:0000adbc       $unwind$?fin$0@?0???$?RV<lambda_aa87e3671a710a21b5dc78c0bdf72e11>@@AEAV<lambda_92619d2358a28f41a33ba319515a20b9>@@V<lambda_6992ecaafeb10aed2b74cb1fae11a551>@@@?$__crt_seh_guarded_call@X@@QEAAX$$QEAV<lambda_aa87e3671a710a21b5dc78c0bdf72e11>@@AEAV<lambda_92619d2358a28f41a33ba319515a20b9>@@$$QEAV<lambda_6992ecaafeb10aed2b74cb1fae11a551>@@@Z@4HA 000000018002bdbc     libucrt:per_thread_data.obj
 0002:0000adbc       $unwind$fclose$fin$0       000000018002bdbc     libucrt:fclose.obj
 0002:0000adbc       $unwind$?fin$0@?0???$?RV<lambda_a37b2b86f63e897a80ea819b0eb08c01>@@AEAV<lambda_38ce7e780aa69e748d6df282ebc68efe>@@V<lambda_99fb1378e971ab6e7edea83e3a7a83a2>@@@?$__crt_seh_guarded_call@H@@QEAAH$$QEAV<lambda_a37b2b86f63e897a80ea819b0eb08c01>@@AEAV<lambda_38ce7e780aa69e748d6df282ebc68efe>@@$$QEAV<lambda_99fb1378e971ab6e7edea83e3a7a83a2>@@@Z@4HA 000000018002bdbc     libucrt:commit.obj
 0002:0000adbc       $unwind$?fin$0@?0???$?RV<lambda_7777bce6b2f8c936911f934f8298dc43>@@AEAV<lambda_f03950bc5685219e0bcd2087efbe011e>@@V<lambda_3883c3dff614d5e0c5f61bb1ac94921c>@@@?$__crt_seh_guarded_call@H@@QEAAH$$QEAV<lambda_7777bce6b2f8c936911f934f8298dc43>@@AEAV<lambda_f03950bc5685219e0bcd2087efbe011e>@@$$QEAV<lambda_3883c3dff614d5e0c5f61bb1ac94921c>@@@Z@4HA 000000018002bdbc     libucrt:onexit.obj
 0002:0000adbc       $unwind$?fin$0@?0???$?RV<lambda_638799b9deba96c50f710eeac98168cd>@@AEAV<lambda_22ebabd17bc4fa466a2aca6d8deb888d>@@V<lambda_a6f7d7db0129f75315ebf26d50c089f1>@@@?$__crt_seh_guarded_call@H@@QEAAH$$QEAV<lambda_638799b9deba96c50f710eeac98168cd>@@AEAV<lambda_22ebabd17bc4fa466a2aca6d8deb888d>@@$$QEAV<lambda_a6f7d7db0129f75315ebf26d50c089f1>@@@Z@4HA 000000018002bdbc     libucrt:onexit.obj
 0002:0000adbc       $unwind$__acrt_initialize_lowio$fin$0 000000018002bdbc     libucrt:ioinit.obj
 0002:0000adbc       $unwind$_IsNonwritableInCurrentImage$filt$0 000000018002bdbc     LIBCMT:pesect.obj
 0002:0000adbc       $unwind$?fin$0@?0??dllmain_crt_process_attach@@YAHQEAUHINSTANCE__@@QEAX@Z@4HA 000000018002bdbc     LIBCMT:dll_dllmain.obj
 0002:0000adbc       $unwind$?fin$0@?0???$?RV<lambda_d80eeec6fff315bfe5c115232f3240e3>@@AEAV<lambda_6e4b09c48022b2350581041d5f6b0c4c>@@V<lambda_2358e3775559c9db80273638284d5e45>@@@?$__crt_seh_guarded_call@X@@QEAAX$$QEAV<lambda_d80eeec6fff315bfe5c115232f3240e3>@@AEAV<lambda_6e4b09c48022b2350581041d5f6b0c4c>@@$$QEAV<lambda_2358e3775559c9db80273638284d5e45>@@@Z@4HA 000000018002bdbc     libucrt:exit.obj
 0002:0000adbc       $unwind$?fin$0@?0??dllmain_crt_process_detach@@YAH_N@Z@4HA 000000018002bdbc     LIBCMT:dll_dllmain.obj
 0002:0000adbc       $unwind$?fin$0@?0???$?RV<lambda_f2e299630e499de9f9a165e60fcd3db5>@@AEAV<lambda_2ae9d31cdba2644fcbeaf08da7c24588>@@V<lambda_40d01ff24d0e7b3814fdbdcee8eab3c7>@@@?$__crt_seh_guarded_call@X@@QEAAX$$QEAV<lambda_f2e299630e499de9f9a165e60fcd3db5>@@AEAV<lambda_2ae9d31cdba2644fcbeaf08da7c24588>@@$$QEAV<lambda_40d01ff24d0e7b3814fdbdcee8eab3c7>@@@Z@4HA 000000018002bdbc     libucrt:per_thread_data.obj
 0002:0000adbc       $unwind$_ctrlfp$filt$0     000000018002bdbc     libucrt:fpctrl.obj
 0002:0000adbc       $unwind$?filt$0@?0???R<lambda_6e4b09c48022b2350581041d5f6b0c4c>@@QEBA@XZ@4HA 000000018002bdbc     libucrt:exit.obj
 0002:0000adbc       $unwind$?fin$0@?0??update_thread_multibyte_data_internal@@YAPEAU__crt_multibyte_data@@QEAU__acrt_ptd@@QEAPEAU1@@Z@4HA 000000018002bdbc     libucrt:mbctype.obj
 0002:0000adbc       $unwind$?fin$0@?0???$?RV<lambda_efdfa57d1f175319df784efa44bb7b81>@@AEAV<lambda_5f0a4c1567f8adc6734073e5d1e1b35c>@@V<lambda_2e8a7d3640ea6ccb4c2413664c2db6fd>@@@?$__crt_seh_guarded_call@X@@QEAAX$$QEAV<lambda_efdfa57d1f175319df784efa44bb7b81>@@AEAV<lambda_5f0a4c1567f8adc6734073e5d1e1b35c>@@$$QEAV<lambda_2e8a7d3640ea6ccb4c2413664c2db6fd>@@@Z@4HA 000000018002bdbc     libucrt:mbctype.obj
 0002:0000adbc       $unwind$?fin$0@?0???$?RV<lambda_0ae27a3a962d80f24befdcbee591983d>@@AEAV<lambda_8d0ee55de4b1038c4002e0adecdf1839>@@V<lambda_dc504788e8f1664fe9b84e20bfb512f2>@@@?$__crt_seh_guarded_call@X@@QEAAX$$QEAV<lambda_0ae27a3a962d80f24befdcbee591983d>@@AEAV<lambda_8d0ee55de4b1038c4002e0adecdf1839>@@$$QEAV<lambda_dc504788e8f1664fe9b84e20bfb512f2>@@@Z@4HA 000000018002bdbc     libucrt:per_thread_data.obj
 0002:0000adbc       $unwind$raise$fin$0        000000018002bdbc     libucrt:signal.obj
 0002:0000adbc       $unwind$?fin$0@?0???$?RV<lambda_2d41944a1d46af3157314b8a01080d33>@@AEAV<lambda_8f455de75cd7d7f24b4096f044d8b9e6>@@V<lambda_aa500f224e6afead328df44964fe2772>@@@?$__crt_seh_guarded_call@X@@QEAAX$$QEAV<lambda_2d41944a1d46af3157314b8a01080d33>@@AEAV<lambda_8f455de75cd7d7f24b4096f044d8b9e6>@@$$QEAV<lambda_aa500f224e6afead328df44964fe2772>@@@Z@4HA 000000018002bdbc     libucrt:per_thread_data.obj
 0002:0000adbc       $unwind$?fin$0@?0???$?RV<lambda_450d765d439847d4c735a33c368b5fc0>@@AEAV<lambda_44731a7d0e6d81c3e6aa82d741081786>@@V<lambda_601a2a7da3b7a96e9554ac7215c4b07c>@@@?$__crt_seh_guarded_call@P6AXH@Z@@QEAAP6AXH@Z$$QEAV<lambda_450d765d439847d4c735a33c368b5fc0>@@AEAV<lambda_44731a7d0e6d81c3e6aa82d741081786>@@$$QEAV<lambda_601a2a7da3b7a96e9554ac7215c4b07c>@@@Z@4HA 000000018002bdbc     libucrt:signal.obj
 0002:0000adbc       $unwind$?fin$0@?0???$?RV<lambda_842d9ff0dc9ef11c61343bbaebe7f885>@@AEAV<lambda_c5860995281e5c4ce005b3de8f5874ee>@@V<lambda_d90129c13df834fdcbf8d2b88dafcf2d>@@@?$__crt_seh_guarded_call@X@@QEAAX$$QEAV<lambda_842d9ff0dc9ef11c61343bbaebe7f885>@@AEAV<lambda_c5860995281e5c4ce005b3de8f5874ee>@@$$QEAV<lambda_d90129c13df834fdcbf8d2b88dafcf2d>@@@Z@4HA 000000018002bdbc     libucrt:fflush.obj
 0002:0000adbc       $unwind$?fin$0@?0???$?RV<lambda_886d6c58226a84441f68b9f2b8217b83>@@AEAV<lambda_ab61a845afdef5b7c387490eaf3616ee>@@V<lambda_f7f22ab5edc0698d5f6905b0d3f44752>@@@?$__crt_seh_guarded_call@X@@QEAAX$$QEAV<lambda_886d6c58226a84441f68b9f2b8217b83>@@AEAV<lambda_ab61a845afdef5b7c387490eaf3616ee>@@$$QEAV<lambda_f7f22ab5edc0698d5f6905b0d3f44752>@@@Z@4HA 000000018002bdbc     libucrt:fflush.obj
 0002:0000adbc       $unwind$?fin$0@?0???$?RV<lambda_410d79af7f07d98d83a3f525b3859a53>@@AEAV<lambda_3e16ef9562a7dcce91392c22ab16ea36>@@V<lambda_38119f0e861e05405d8a144b9b982f0a>@@@?$__crt_seh_guarded_call@X@@QEAAX$$QEAV<lambda_410d79af7f07d98d83a3f525b3859a53>@@AEAV<lambda_3e16ef9562a7dcce91392c22ab16ea36>@@$$QEAV<lambda_38119f0e861e05405d8a144b9b982f0a>@@@Z@4HA 000000018002bdbc     libucrt:wsetlocale.obj
 0002:0000adbc       $unwind$__acrt_update_thread_locale_data$fin$0 000000018002bdbc     libucrt:locale_refcounting.obj
 0002:0000adbc       $unwind$?filt$0@?0??CxxCallCatchBlock@__FrameHandler3@@SAPEAXPEAU_EXCEPTION_RECORD@@@Z@4HA 000000018002bdbc     libvcruntime:frame.obj
 0002:0000adbc       $unwind$?fin$1@?0??FrameUnwindToState@__FrameHandler3@@SAXPEA_KPEAU_xDISPATCHER_CONTEXT@@PEBU_s_FuncInfo@@H@Z@4HA 000000018002bdbc     libvcruntime:frame.obj
 0002:0000adbc       $unwind$?fin$0@?0???$?RV<lambda_751a882b2c74d4b022dec766aa51a29a>@@AEAV<lambda_628dfdc04ba53c8bfc02c9951375f3f5>@@V<lambda_f6c7be5f7998530c34de24c7437d6b54>@@@?$__crt_seh_guarded_call@H@@QEAAH$$QEAV<lambda_751a882b2c74d4b022dec766aa51a29a>@@AEAV<lambda_628dfdc04ba53c8bfc02c9951375f3f5>@@$$QEAV<lambda_f6c7be5f7998530c34de24c7437d6b54>@@@Z@4HA 000000018002bdbc     libucrt:close.obj
 0002:0000adbc       $unwind$?filt$0@?0??FrameUnwindToState@__FrameHandler3@@SAXPEA_KPEAU_xDISPATCHER_CONTEXT@@PEBU_s_FuncInfo@@H@Z@4HA 000000018002bdbc     libvcruntime:frame.obj
 0002:0000adbc       $unwind$_fcloseall$fin$0   000000018002bdbc     libucrt:closeall.obj
 0002:0000adbc       $unwind$__DestructExceptionObject$filt$0 000000018002bdbc     libvcruntime:ehhelpers.obj
 0002:0000adbc       $unwind$_query_new_handler$fin$0 000000018002bdbc     libucrt:new_handler.obj
 0002:0000adc4       $unwind$?AtlInternalOleLoadFromStream@ATL@@YAJPEAUIStream@@AEBU_GUID@@PEAPEAXTClassesAllowedInStream@1@K@Z 000000018002bdc4     CashDrawer.obj
 0002:0000ade0       $unwind$?PutProperty@?$CComPtr@UIDispatch@@@ATL@@SAJPEAUIDispatch@@JPEAUtagVARIANT@@@Z 000000018002bde0     CashDrawer.obj
 0002:0000ade0       $unwind$?Close@COPOSCashDrawer@@UEAAJPEAJ@Z 000000018002bde0     CashDrawerImpl.obj
 0002:0000adec       $unwind$_configure_narrow_argv 000000018002bdec     libucrt:argv_parsing.obj
 0002:0000adec       $unwind$?ReadFromStream@CComBSTR@ATL@@QEAAJPEAUIStream@@@Z 000000018002bdec     CashDrawer.obj
 0002:0000ae00       $unwind$?WriteToStream@CComVariant@ATL@@QEAAJPEAUIStream@@@Z 000000018002be00     CashDrawer.obj
 0002:0000ae14       $unwind$__dcrt_write_console 000000018002be14     libucrt:initcon.obj
 0002:0000ae14       $unwind$?WriteToStream@CComVariant@ATL@@QEAAJPEAUIStream@@G@Z 000000018002be14     CashDrawer.obj
 0002:0000ae14       $unwind$?RegOpenKeyExW@CAtlTransactionManager@ATL@@QEAAJPEAUHKEY__@@PEB_WKKPEAPEAU3@@Z 000000018002be14     CashDrawer.obj
 0002:0000ae14       $unwind$??$__acrt_wcs_to_mbs_cp@U__crt_win32_buffer_no_resizing@@@@YAHQEB_WAEAV?$__crt_win32_buffer@DU__crt_win32_buffer_no_resizing@@@@I@Z 000000018002be14     libucrt:getmodulefilenamea.obj
 0002:0000ae28       $unwind$?ReadFromStream@CComVariant@ATL@@QEAAJPEAUIStream@@GTClassesAllowedInStream@2@K@Z 000000018002be28     CashDrawer.obj
 0002:0000ae40       $unwind$?GetSizeMax@CComVariant@ATL@@QEBAJPEAT_ULARGE_INTEGER@@@Z 000000018002be40     CashDrawer.obj
 0002:0000ae58       $unwind$?RegCreateKeyExW@CAtlTransactionManager@ATL@@QEAAJPEAUHKEY__@@PEB_WKPEA_WKKQEAU_SECURITY_ATTRIBUTES@@PEAPEAU3@PEAK@Z 000000018002be58     CashDrawer.obj
 0002:0000ae58       $unwind$__acrt_fp_format   000000018002be58     libucrt:cvt.obj
 0002:0000ae6c       $unwind$?RegDeleteKeyW@CAtlTransactionManager@ATL@@QEAAJPEAUHKEY__@@PEB_W@Z 000000018002be6c     CashDrawer.obj
 0002:0000ae6c       $unwind$strpbrk            000000018002be6c     libucrt:strpbrk.obj
 0002:0000ae6c       $unwind$?GetGITPtr@CAtlModule@ATL@@UEAAJPEAPEAUIGlobalInterfaceTable@@@Z 000000018002be6c     CashDrawer.obj
 0002:0000ae7c       $unwind$?AtlInternalQueryInterface@ATL@@YAJPEAXPEBU_ATL_INTMAP_ENTRY@1@AEBU_GUID@@PEAPEAX@Z 000000018002be7c     CashDrawer.obj
 0002:0000ae7c       $unwind$?AtlHiMetricToPixel@ATL@@YAXPEBUtagSIZE@@PEAU2@@Z 000000018002be7c     CashDrawer.obj
 0002:0000ae94       $unwind$?AtlComModuleGetClassObject@ATL@@YAJPEAU_ATL_COM_MODULE70@1@AEBU_GUID@@1PEAPEAX@Z 000000018002be94     CashDrawer.obj
 0002:0000ae94       $unwind$?Init@?$CComEnumImpl@UIEnumConnections@@$1?_GUID_b196b287_bab4_101a_b69c_00aa00341d07@@3U__s_GUID@@BUtagCONNECTDATA@@V?$_Copy@UtagCONNECTDATA@@@ATL@@@ATL@@QEAAJPEAUtagCONNECTDATA@@0PEAUIUnknown@@W4CComEnumFlags@2@@Z 000000018002be94     CashDrawer.obj
 0002:0000ae94       $unwind$??R<lambda_f03950bc5685219e0bcd2087efbe011e>@@QEBAHXZ 000000018002be94     libucrt:onexit.obj
 0002:0000ae94       $unwind$?NextToken@CRegParser@ATL@@IEAAJPEA_W@Z 000000018002be94     CashDrawer.obj
 0002:0000ae94       $unwind$__acrt_DownlevelLocaleNameToLCID 000000018002be94     libucrt:lcidtoname_downlevel.obj
 0002:0000ae94       $unwind$?type_case_integer@?$output_processor@_WV?$string_output_adapter@_W@__crt_stdio_output@@V?$format_validation_base@_WV?$string_output_adapter@_W@__crt_stdio_output@@@2@@__crt_stdio_output@@AEAA_NI_N@Z 000000018002be94     libucrt:output.obj
 0002:0000ae94       $unwind$?GetClassObject@CComModule@ATL@@QEAAJAEBU_GUID@@0PEAPEAX@Z 000000018002be94     CashDrawer.obj
 0002:0000ae94       $unwind$?Init@?$CComEnumImpl@UIEnumConnectionPoints@@$1?_GUID_b196b285_bab4_101a_b69c_00aa00341d07@@3U__s_GUID@@BPEAUIConnectionPoint@@V?$_CopyInterface@UIConnectionPoint@@@ATL@@@ATL@@QEAAJPEAPEAUIConnectionPoint@@0PEAUIUnknown@@W4CComEnumFlags@2@@Z 000000018002be94     CashDrawer.obj
 0002:0000aeac       $unwind$?AtlRegisterClassCategoriesHelper@ATL@@YAJAEBU_GUID@@PEBU_ATL_CATMAP_ENTRY@1@H@Z 000000018002beac     CashDrawer.obj
 0002:0000aed0       $unwind$?AtlLoadTypeLib@ATL@@YAJPEAUHINSTANCE__@@PEB_WPEAPEA_WPEAPEAUITypeLib@@@Z 000000018002bed0     CashDrawer.obj
 0002:0000aef0       $unwind$?AtlRegisterTypeLib@ATL@@YAJPEAUHINSTANCE__@@PEB_W@Z 000000018002bef0     CashDrawer.obj
 0002:0000af0c       $unwind$?AtlUnRegisterTypeLib@ATL@@YAJPEAUHINSTANCE__@@PEB_W@Z 000000018002bf0c     CashDrawer.obj
 0002:0000af14       $unwind$?atlCreate@CRegKey@ATL@@QEAAJPEAUHKEY__@@PEB_WPEA_WKKPEAU_SECURITY_ATTRIBUTES@@PEAK@Z 000000018002bf14     CashDrawer.obj
 0002:0000af20       $unwind$?Open@CRegKey@ATL@@QEAAJPEAUHKEY__@@PEB_WK@Z 000000018002bf20     CashDrawer.obj
 0002:0000af2c       $unwind$?RecurseDeleteKey@CRegKey@ATL@@QEAAJPEB_W@Z 000000018002bf2c     CashDrawer.obj
 0002:0000af48       $unwind$?UpdateRegistryFromResource@CAtlModule@ATL@@QEAAJPEB_WHPEAU_ATL_REGMAP_ENTRY@2@@Z 000000018002bf48     CashDrawer.obj
 0002:0000af48       $unwind$?UpdateRegistryFromResource@CAtlModule@ATL@@QEAAJIHPEAU_ATL_REGMAP_ENTRY@2@@Z 000000018002bf48     CashDrawer.obj
 0002:0000af68       $unwind$__std_exception_copy 000000018002bf68     libvcruntime:std_exception.obj
 0002:0000af68       $unwind$?Lookup@?$CSimpleMap@PEA_WPEA_WVCExpansionVectorEqualHelper@ATL@@@ATL@@QEBAPEA_WAEBQEA_W@Z 000000018002bf68     CashDrawer.obj
 0002:0000af68       $unwind$_free_osfhnd       000000018002bf68     libucrt:osfinfo.obj
 0002:0000af7c       $unwind$?Add@CExpansionVector@ATL@@QEAAHPEB_W0@Z 000000018002bf7c     CashDrawer.obj
 0002:0000af94       $unwind$?PreProcessBuffer@CRegParser@ATL@@QEAAJPEA_WPEAPEA_W@Z 000000018002bf94     CashDrawer.obj
 0002:0000afb8       $unwind$?RegisterBuffer@CRegParser@ATL@@QEAAJPEA_WH@Z 000000018002bfb8     CashDrawer.obj
 0002:0000afd8       $unwind$?AddValue@CRegParser@ATL@@IEAAJAEAVCRegKey@2@PEB_WPEA_W@Z 000000018002bfd8     CashDrawer.obj
 0002:0000aff8       $unwind$?RegisterSubkeys@CRegParser@ATL@@IEAAJPEA_WPEAUHKEY__@@HH@Z 000000018002bff8     CashDrawer.obj
 0002:0000b018       $unwind$?SkipAssignment@CRegParser@ATL@@IEAAJPEA_W@Z 000000018002c018     CashDrawer.obj
 0002:0000b030       $unwind$?RegisterFromResource@CRegObject@ATL@@IEAAJPEB_W00H@Z 000000018002c030     CashDrawer.obj
 0002:0000b050       $unwind$?AtlIPersistStreamInit_Load@ATL@@YAJPEAUIStream@@PEBUATL_PROPMAP_ENTRY@1@PEAXPEAUIUnknown@@@Z 000000018002c050     CashDrawer.obj
 0002:0000b068       $unwind$?AtlIPersistStreamInit_Save@ATL@@YAJPEAUIStream@@HPEBUATL_PROPMAP_ENTRY@1@PEAXPEAUIUnknown@@@Z 000000018002c068     CashDrawer.obj
 0002:0000b084       $unwind$?GetTI@CComTypeInfoHolder@ATL@@QEAAJK@Z 000000018002c084     CashDrawer.obj
 0002:0000b0a4       $unwind$?destroy_fls@@YAXPEAX@Z 000000018002c0a4     libucrt:per_thread_data.obj
 0002:0000b0a4       $unwind$AtlThunk_FreeData  000000018002c0a4     atls:atlthunk.obj
 0002:0000b0a4       $unwind$__acrt_locale_free_lc_time_if_unreferenced 000000018002c0a4     libucrt:locale_refcounting.obj
 0002:0000b0a4       $unwind$_free_base         000000018002c0a4     libucrt:free_base.obj
 0002:0000b0a4       $unwind$?Cleanup@CComTypeInfoHolder@ATL@@SAX_K@Z 000000018002c0a4     CashDrawer.obj
 0002:0000b0a4       $unwind$__acrt_locale_free_numeric 000000018002c0a4     libucrt:initnum.obj
 0002:0000b0ac       $unwind$?GetIDsOfNames@CComTypeInfoHolder@ATL@@QEAAJAEBU_GUID@@PEAPEA_WIKPEAJ@Z 000000018002c0ac     CashDrawer.obj
 0002:0000b0c8       $unwind$?LoadNameCache@CComTypeInfoHolder@ATL@@QEAAJPEAUITypeInfo@@@Z 000000018002c0c8     CashDrawer.obj
 0002:0000b0dc       $unwind$?StartWindowProc@?$CWindowImplBaseT@VCWindow@ATL@@V?$CWinTraits@$0FGAAAAAA@$0A@@2@@ATL@@SA_JPEAUHWND__@@I_K_J@Z 000000018002c0dc     CashDrawer.obj
 0002:0000b0dc       $unwind$??$parse_command_line@D@@YAXPEADPEAPEAD0PEA_K2@Z 000000018002c0dc     libucrt:argv_parsing.obj
 0002:0000b0f8       $unwind$?WindowProc@?$CWindowImplBaseT@VCWindow@ATL@@V?$CWinTraits@$0FGAAAAAA@$0A@@2@@ATL@@SA_JPEAUHWND__@@I_K_J@Z 000000018002c0f8     CashDrawer.obj
 0002:0000b110       $unwind$?atlCreate@?$CWindowImplBaseT@VCWindow@ATL@@V?$CWinTraits@$0FGAAAAAA@$0A@@2@@ATL@@QEAAPEAUHWND__@@PEAU3@V_U_RECT@2@PEB_WKKV_U_MENUorID@2@GPEAX@Z 000000018002c110     CashDrawer.obj
 0002:0000b128       $unwind$??$AtlModuleRegisterWndClassInfoT@VAtlModuleRegisterWndClassInfoParamW@ATL@@@ATL@@YAGPEAU_ATL_BASE_MODULE70@0@PEAU_ATL_WIN_MODULE70@0@PEAU_ATL_WNDCLASSINFOW@0@PEAP6A_JPEAUHWND__@@I_K_J@ZVAtlModuleRegisterWndClassInfoParamW@0@@Z 000000018002c128     CashDrawer.obj
 0002:0000b148       $unwind$?OnKillFocus@CComControlBase@ATL@@QEAA_JI_K_JAEAH@Z 000000018002c148     CashDrawer.obj
 0002:0000b148       $unwind$?GetZoomInfo@CComControlBase@ATL@@QEAAXAEAUATL_DRAWINFO@@@Z 000000018002c148     CashDrawer.obj
 0002:0000b148       $unwind$iswctype           000000018002c148     libucrt:iswctype.obj
 0002:0000b154       $unwind$?SendOnDataChange@CComControlBase@ATL@@QEAAJK@Z 000000018002c154     CashDrawer.obj
 0002:0000b164       $unwind$?OnSetFocus@CComControlBase@ATL@@QEAA_JI_K_JAEAH@Z 000000018002c164     CashDrawer.obj
 0002:0000b174       $unwind$?OnMouseActivate@CComControlBase@ATL@@QEAA_JI_K_JAEAH@Z 000000018002c174     CashDrawer.obj
 0002:0000b17c       $unwind$?GetAmbientUserMode@CComControlBase@ATL@@QEAAJAEAH@Z 000000018002c17c     CashDrawer.obj
 0002:0000b17c       $unwind$?GetAmbientLocaleID@CComControlBase@ATL@@QEAAJAEAK@Z 000000018002c17c     CashDrawer.obj
 0002:0000b18c       $unwind$?IQuickActivate_QuickActivate@CComControlBase@ATL@@QEAAJPEAUtagQACONTAINER@@PEAUtagQACONTROL@@@Z 000000018002c18c     CashDrawer.obj
 0002:0000b1a4       $unwind$?DoVerbProperties@CComControlBase@ATL@@QEAAJPEBUtagRECT@@PEAUHWND__@@@Z 000000018002c1a4     CashDrawer.obj
 0002:0000b1bc       $unwind$?InPlaceActivate@CComControlBase@ATL@@QEAAJJPEBUtagRECT@@@Z 000000018002c1bc     CashDrawer.obj
 0002:0000b1dc       $unwind$?IOleObject_Close@CComControlBase@ATL@@QEAAJK@Z 000000018002c1dc     CashDrawer.obj
 0002:0000b1dc       $unwind$?type_case_c_tchar@?$output_processor@_WV?$string_output_adapter@_W@__crt_stdio_output@@V?$format_validation_base@_WV?$string_output_adapter@_W@__crt_stdio_output@@@2@@__crt_stdio_output@@AEAA_N_W@Z 000000018002c1dc     libucrt:output.obj
 0002:0000b1ec       $unwind$?IOleInPlaceObject_UIDeactivate@CComControlBase@ATL@@QEAAJXZ 000000018002c1ec     CashDrawer.obj
 0002:0000b204       $unwind$?IOleInPlaceObject_SetObjectRects@CComControlBase@ATL@@QEAAJPEBUtagRECT@@0@Z 000000018002c204     CashDrawer.obj
 0002:0000b218       $unwind$?IViewObject_Draw@CComControlBase@ATL@@QEAAJKJPEAXPEAUtagDVTARGETDEVICE@@PEAUHDC__@@2PEBU_RECTL@@3@Z 000000018002c218     CashDrawer.obj
 0002:0000b234       $unwind$?IDataObject_GetData@CComControlBase@ATL@@QEAAJPEAUtagFORMATETC@@PEAUtagSTGMEDIUM@@@Z 000000018002c234     CashDrawer.obj
 0002:0000b254       $unwind$?OnPaint@CComControlBase@ATL@@QEAA_JI_K_JAEAH@Z 000000018002c254     CashDrawer.obj
 0002:0000b270       $unwind$?OnDrawAdvanced@CComControlBase@ATL@@UEAAJAEAUATL_DRAWINFO@@@Z 000000018002c270     CashDrawer.obj
 0002:0000b288       $unwind$_mbsdec_l          000000018002c288     libucrt:mbsdec.obj
 0002:0000b288       $unwind$?Invoke@?$IDispatchImpl@UIOPOSCashDrawer@@$1?IID_IOPOSCashDrawer@@3U_GUID@@B$1?LIBID_OposCashDrawer_CCO@@3U3@B$00$0A@VCComTypeInfoHolder@ATL@@@ATL@@UEAAJJAEBU_GUID@@KGPEAUtagDISPPARAMS@@PEAUtagVARIANT@@PEAUtagEXCEPINFO@@PEAI@Z 000000018002c288     CashDrawer.obj
 0002:0000b294       $unwind$_mbtowc_l          000000018002c294     libucrt:mbtowc.obj
 0002:0000b294       $unwind$__acrt_LCMapStringEx 000000018002c294     libucrt:winapi_thunks.obj
 0002:0000b294       $unwind$?atlCreate@?$CWindowImpl@VCOPOSCashDrawer@@VCWindow@ATL@@V?$CWinTraits@$0FGAAAAAA@$0A@@3@@ATL@@QEAAPEAUHWND__@@PEAU3@V_U_RECT@2@PEB_WKKV_U_MENUorID@2@PEAX@Z 000000018002c294     CashDrawer.obj
 0002:0000b294       $unwind$?fp_format_e@@YAHQEBNQEAD_K12H_NIQEAU__crt_locale_pointers@@@Z 000000018002c294     libucrt:cvt.obj
 0002:0000b2a8       $unwind$?__scrt_throw_std_bad_array_new_length@@YAXXZ 000000018002c2a8     LIBCMT:throw_bad_alloc.obj
 0002:0000b2a8       $unwind$?ReleaseDevice@COPOSCashDrawer@@UEAAJPEAJ@Z 000000018002c2a8     CashDrawerImpl.obj
 0002:0000b2a8       $unwind$_raise_exc         000000018002c2a8     libucrt:fpexcept.obj
 0002:0000b2a8       $unwind$?OpenDrawer@COPOSCashDrawer@@UEAAJPEAJ@Z 000000018002c2a8     CashDrawerImpl.obj
 0002:0000b2a8       $unwind$?CreateControlWindow@?$CComControl@VCOPOSCashDrawer@@V?$CWindowImpl@VCOPOSCashDrawer@@VCWindow@ATL@@V?$CWinTraits@$0FGAAAAAA@$0A@@3@@ATL@@@ATL@@UEAAPEAUHWND__@@PEAU3@AEAUtagRECT@@@Z 000000018002c2a8     CashDrawer.obj
 0002:0000b2a8       $unwind$?__scrt_throw_std_bad_alloc@@YAXXZ 000000018002c2a8     LIBCMT:throw_bad_alloc.obj
 0002:0000b2b0       $unwind$?Save@?$IPersistStreamInitImpl@VCOPOSCashDrawer@@@ATL@@UEAAJPEAUIStream@@H@Z 000000018002c2b0     CashDrawer.obj
 0002:0000b2b0       $unwind$__stdio_common_vswprintf_s 000000018002c2b0     libucrt:output.obj
 0002:0000b2bc       $unwind$?GetSizeMax@?$IPersistStreamInitImpl@VCOPOSCashDrawer@@@ATL@@UEAAJPEAT_ULARGE_INTEGER@@@Z 000000018002c2bc     CashDrawer.obj
 0002:0000b2d4       $unwind$?DoVerbPrimary@?$IOleObjectImpl@VCOPOSCashDrawer@@@ATL@@QEAAJPEBUtagRECT@@PEAUHWND__@@@Z 000000018002c2d4     CashDrawer.obj
 0002:0000b2ec       $unwind$?TranslateAcceleratorW@?$IOleInPlaceActiveObjectImpl@VCOPOSCashDrawer@@@ATL@@UEAAJPEAUtagMSG@@@Z 000000018002c2ec     CashDrawer.obj
 0002:0000b2f8       $unwind$?Draw@?$IViewObjectExImpl@VCOPOSCashDrawer@@@ATL@@UEAAJKJPEAXPEAUtagDVTARGETDEVICE@@PEAUHDC__@@2PEBU_RECTL@@3P6AH_K@Z4@Z 000000018002c2f8     CashDrawer.obj
 0002:0000b300       $unwind$?QueryHitRect@?$IViewObjectExImpl@VCOPOSCashDrawer@@@ATL@@UEAAJKPEBUtagRECT@@0JPEAK@Z 000000018002c300     CashDrawer.obj
 0002:0000b310       $unwind$?OnWindowMessage@?$IOleInPlaceObjectWindowlessImpl@VCOPOSCashDrawer@@@ATL@@UEAAJI_K_JPEA_J@Z 000000018002c310     CashDrawer.obj
 0002:0000b324       $unwind$?EnumConnectionPoints@?$IConnectionPointContainerImpl@VCOPOSCashDrawer@@@ATL@@UEAAJPEAPEAUIEnumConnectionPoints@@@Z 000000018002c324     CashDrawer.obj
 0002:0000b34c       $unwind$?FindConnectionPoint@?$IConnectionPointContainerImpl@VCOPOSCashDrawer@@@ATL@@UEAAJAEBU_GUID@@PEAPEAUIConnectionPoint@@@Z 000000018002c34c     CashDrawer.obj
 0002:0000b34c       $unwind$?__mbrtoc32_utf8@__crt_mbstring@@YA_KPEA_UPEBD_KPEAU_Mbstatet@@@Z 000000018002c34c     libucrt:mbrtoc32.obj
 0002:0000b368       $unwind$?Load@?$IPersistStorageImpl@VCOPOSCashDrawer@@@ATL@@UEAAJPEAUIStorage@@@Z 000000018002c368     CashDrawer.obj
 0002:0000b378       $unwind$?Save@?$IPersistStorageImpl@VCOPOSCashDrawer@@@ATL@@UEAAJPEAUIStorage@@H@Z 000000018002c378     CashDrawer.obj
 0002:0000b38c       $unwind$?DAdvise@?$IDataObjectImpl@VCOPOSCashDrawer@@@ATL@@UEAAJPEAUtagFORMATETC@@KPEAUIAdviseSink@@PEAK@Z 000000018002c38c     CashDrawer.obj
 0002:0000b38c       $unwind$??$__acrt_mbs_to_wcs_cp@U__crt_win32_buffer_internal_dynamic_resizing@@@@YAHQEBDAEAV?$__crt_win32_buffer@_WU__crt_win32_buffer_internal_dynamic_resizing@@@@I@Z 000000018002c38c     libucrt:argv_wildcards.obj
 0002:0000b3a4       $unwind$?GetInterfaceSafetyOptions@?$IObjectSafetyImpl@VCOPOSCashDrawer@@$02@ATL@@UEAAJAEBU_GUID@@PEAK1@Z 000000018002c3a4     CashDrawer.obj
 0002:0000b3b8       $unwind$?SetInterfaceSafetyOptions@?$IObjectSafetyImpl@VCOPOSCashDrawer@@$02@ATL@@UEAAJAEBU_GUID@@KK@Z 000000018002c3b8     CashDrawer.obj
 0002:0000b3cc       $unwind$?Advise@?$IConnectionPointImpl@VCOPOSCashDrawer@@$1?DIID__IOPOSCashDrawerEvents@@3U_GUID@@BVCComDynamicUnkArray@ATL@@@ATL@@UEAAJPEAUIUnknown@@PEAK@Z 000000018002c3cc     CashDrawer.obj
 0002:0000b3cc       $unwind$?Advise@?$IConnectionPointImpl@VCOPOSCashDrawer@@$1?IID_IPropertyNotifySink@@3U_GUID@@BVCComDynamicUnkArray@ATL@@@ATL@@UEAAJPEAUIUnknown@@PEAK@Z 000000018002c3cc     CashDrawer.obj
 0002:0000b3e0       $unwind$?EnumConnections@?$IConnectionPointImpl@VCOPOSCashDrawer@@$1?IID_IPropertyNotifySink@@3U_GUID@@BVCComDynamicUnkArray@ATL@@@ATL@@UEAAJPEAPEAUIEnumConnections@@@Z 000000018002c3e0     CashDrawer.obj
 0002:0000b3e0       $unwind$?EnumConnections@?$IConnectionPointImpl@VCOPOSCashDrawer@@$1?DIID__IOPOSCashDrawerEvents@@3U_GUID@@BVCComDynamicUnkArray@ATL@@@ATL@@UEAAJPEAPEAUIEnumConnections@@@Z 000000018002c3e0     CashDrawer.obj
 0002:0000b3e0       $unwind$??$create_environment@D@@YAQEAPEADQEAD@Z 000000018002c3e0     libucrt:environment_initialization.obj
 0002:0000b3f8       $unwind$?Fire_DirectIOEvent@?$CProxy_IOPOSEvents@VCOPOSCashDrawer@@@@QEAAXJPEAJPEAPEA_W@Z 000000018002c3f8     CashDrawer.obj
 0002:0000b418       $unwind$?Fire_StatusUpdateEvent@?$CProxy_IOPOSEvents@VCOPOSCashDrawer@@@@QEAAXJ@Z 000000018002c418     CashDrawer.obj
 0002:0000b418       $unwind$??$__InternalCxxFrameHandler@V__FrameHandler3@@@@YA?AW4_EXCEPTION_DISPOSITION@@PEAUEHExceptionRecord@@PEA_KPEAU_CONTEXT@@PEAU_xDISPATCHER_CONTEXT@@PEBU_s_FuncInfo@@H1E@Z 000000018002c418     libvcruntime:frame.obj
 0002:0000b430       $unwind$?FireTheEvent@?$CProxy_IOPOSEvents@VCOPOSCashDrawer@@@@IEAAXPEAVOposVariant@@IAEAJPEB_WJ@Z 000000018002c430     CashDrawer.obj
 0002:0000b440       $unwind$?ProcessWindowMessage@COPOSCashDrawer@@UEAAHPEAUHWND__@@I_K_JAEA_JK@Z 000000018002c440     CashDrawer.obj
 0002:0000b440       $unwind$??$__acrt_wcs_to_mbs_cp@U__crt_win32_buffer_internal_dynamic_resizing@@@@YAHQEB_WAEAV?$__crt_win32_buffer@DU__crt_win32_buffer_internal_dynamic_resizing@@@@I@Z 000000018002c440     libucrt:argv_wildcards.obj
 0002:0000b440       $unwind$?fp_format_f_internal@@YAHQEAD_KHQEAU_strflt@@_NQEAU__crt_locale_pointers@@@Z 000000018002c440     libucrt:cvt.obj
 0002:0000b440       $unwind$__dcrt_get_narrow_environment_from_os 000000018002c440     libucrt:get_environment_from_os.obj
 0002:0000b458       $unwind$?Clone@?$CComEnumImpl@UIEnumConnections@@$1?_GUID_b196b287_bab4_101a_b69c_00aa00341d07@@3U__s_GUID@@BUtagCONNECTDATA@@V?$_Copy@UtagCONNECTDATA@@@ATL@@@ATL@@UEAAJPEAPEAUIEnumConnections@@@Z 000000018002c458     CashDrawer.obj
 0002:0000b458       $unwind$?Clone@?$CComEnumImpl@UIEnumConnectionPoints@@$1?_GUID_b196b285_bab4_101a_b69c_00aa00341d07@@3U__s_GUID@@BPEAUIConnectionPoint@@V?$_CopyInterface@UIConnectionPoint@@@ATL@@@ATL@@UEAAJPEAPEAUIEnumConnectionPoints@@@Z 000000018002c458     CashDrawer.obj
 0002:0000b470       $unwind$?GetOposProp@COPOSCashDrawer@@IEAAJJPEAPEA_WJ@Z 000000018002c470     CashDrawerImpl.obj
 0002:0000b470       $unwind$?GetOposProp@COPOSCashDrawer@@IEAAJJPEAJJ@Z 000000018002c470     CashDrawerImpl.obj
 0002:0000b488       $unwind$?SetOposProp@COPOSCashDrawer@@IEAAJJJJ@Z 000000018002c488     CashDrawerImpl.obj
 0002:0000b4a8       $unwind$?DoInvoke@COPOSCashDrawer@@IEAAJJPEAVOposVariant@@IHPEAJ_N@Z 000000018002c4a8     CashDrawerImpl.obj
 0002:0000b4c0       $unwind$?SetCOFreezeEvents@COPOSCashDrawer@@IEAAXF@Z 000000018002c4c0     CashDrawerImpl.obj
 0002:0000b4d4       $unwind$?OnDraw@COPOSCashDrawer@@MEAAJAEAUATL_DRAWINFO@@@Z 000000018002c4d4     CashDrawerImpl.obj
 0002:0000b4ec       $unwind$?EventInit@COPOSCashDrawer@@IEAAJXZ 000000018002c4ec     CashDrawerImpl.obj
 0002:0000b500       $unwind$?EventWindowProc@COPOSCashDrawer@@IEAA_JI_K_J@Z 000000018002c500     CashDrawerImpl.obj
 0002:0000b514       $unwind$_isleadbyte_l      000000018002c514     libucrt:_wctype.obj
 0002:0000b514       $unwind$?getSystemCP@@YAHH@Z 000000018002c514     libucrt:mbctype.obj
 0002:0000b514       $unwind$?get_ControlObjectDescription@COPOSCashDrawer@@UEAAJPEAPEA_W@Z 000000018002c514     CashDrawerImpl.obj
 0002:0000b514       $unwind$__dcrt_lowio_ensure_console_output_initialized 000000018002c514     libucrt:initcon.obj
 0002:0000b51c       $unwind$?CheckHealth@COPOSCashDrawer@@UEAAJJPEAJ@Z 000000018002c51c     CashDrawerImpl.obj
 0002:0000b51c       $unwind$?ResetStatistics@COPOSCashDrawer@@UEAAJPEA_WPEAJ@Z 000000018002c51c     CashDrawerImpl.obj
 0002:0000b51c       $unwind$?RetrieveStatistics@COPOSCashDrawer@@UEAAJPEAPEA_WPEAJ@Z 000000018002c51c     CashDrawerImpl.obj
 0002:0000b51c       $unwind$?UpdateStatistics@COPOSCashDrawer@@UEAAJPEA_WPEAJ@Z 000000018002c51c     CashDrawerImpl.obj
 0002:0000b51c       $unwind$?UpdateFirmware@COPOSCashDrawer@@UEAAJPEA_WPEAJ@Z 000000018002c51c     CashDrawerImpl.obj
 0002:0000b52c       $unwind$?ClaimDevice@COPOSCashDrawer@@UEAAJJPEAJ@Z 000000018002c52c     CashDrawerImpl.obj
 0002:0000b53c       $unwind$?DirectIO@COPOSCashDrawer@@UEAAJJPEAJPEAPEA_W0@Z 000000018002c53c     CashDrawerImpl.obj
 0002:0000b558       $unwind$?Open@COPOSCashDrawer@@UEAAJPEA_WPEAJ@Z 000000018002c558     CashDrawerImpl.obj
 0002:0000b57c       $unwind$?WaitForDrawerClose@COPOSCashDrawer@@UEAAJJJJJPEAJ@Z 000000018002c57c     CashDrawerImpl.obj
 0002:0000b598       $unwind$?CompareFirmwareVersion@COPOSCashDrawer@@UEAAJPEA_WPEAJ1@Z 000000018002c598     CashDrawerImpl.obj
 0002:0000b598       $unwind$?initialize_inherited_file_handles_nolock@@YAXXZ 000000018002c598     libucrt:ioinit.obj
 0002:0000b5b4       $unwind$__scrt_is_nonwritable_in_current_image 000000018002c5b4     LIBCMT:utility.obj
 0002:0000b5d4       $unwind$__scrt_is_nonwritable_in_current_image$filt$0 000000018002c5d4     LIBCMT:utility.obj
 0002:0000b5dc       $unwind$__report_securityfailure 000000018002c5dc     LIBCMT:gs_report.obj
 0002:0000b5e4       $unwind$__report_gsfailure 000000018002c5e4     LIBCMT:gs_report.obj
 0002:0000b5ec       $unwind$capture_current_context 000000018002c5ec     LIBCMT:gs_report.obj
 0002:0000b5f8       $unwind$capture_previous_context 000000018002c5f8     LIBCMT:gs_report.obj
 0002:0000b604       $unwind$??2@YAPEAX_KAEBUnothrow_t@std@@@Z 000000018002c604     LIBCMT:new_scalar_nothrow.obj
 0002:0000b614       $stateUnwindMap$??2@YAPEAX_KAEBUnothrow_t@std@@@Z 000000018002c614     LIBCMT:new_scalar_nothrow.obj
 0002:0000b624       $tryMap$??2@YAPEAX_KAEBUnothrow_t@std@@@Z 000000018002c624     LIBCMT:new_scalar_nothrow.obj
 0002:0000b638       $handlerMap$0$??2@YAPEAX_KAEBUnothrow_t@std@@@Z 000000018002c638     LIBCMT:new_scalar_nothrow.obj
 0002:0000b650       $ip2state$??2@YAPEAX_KAEBUnothrow_t@std@@@Z 000000018002c650     LIBCMT:new_scalar_nothrow.obj
 0002:0000b658       $unwind$?catch$0@?0???2@YAPEAX_KAEBUnothrow_t@std@@@Z@4HA 000000018002c658     LIBCMT:new_scalar_nothrow.obj
 0002:0000b668       $unwind$__GSHandlerCheckCommon 000000018002c668     LIBCMT:gshandler.obj
 0002:0000b668       $unwind$__acrt_WideCharToMultiByte 000000018002c668     libucrt:widechartomultibyte.obj
 0002:0000b670       $xdatasym                  000000018002c670     LIBCMT:chkstk.obj
 0002:0000b678       $xdatasym                  000000018002c678     LIBCMT:amdsecgs.obj
 0002:0000b67c       $unwind$?dllmain_crt_process_attach@@YAHQEAUHINSTANCE__@@QEAX@Z 000000018002c67c     LIBCMT:dll_dllmain.obj
 0002:0000b6b8       $unwind$?dllmain_crt_process_detach@@YAH_N@Z 000000018002c6b8     LIBCMT:dll_dllmain.obj
 0002:0000b6ec       $unwind$?dllmain_dispatch@@YAHQEAUHINSTANCE__@@KQEAX@Z 000000018002c6ec     LIBCMT:dll_dllmain.obj
 0002:0000b714       $unwind$?filt$0@?0??dllmain_dispatch@@YAHQEAUHINSTANCE__@@KQEAX@Z@4HA 000000018002c714     LIBCMT:dll_dllmain.obj
 0002:0000b71c       $unwind$__isa_available_init 000000018002c71c     LIBCMT:cpu_disp.obj
 0002:0000b72c       $unwind$__scrt_fastfail    000000018002c72c     LIBCMT:utility_desktop.obj
 0002:0000b73c       $unwind$__security_init_cookie 000000018002c73c     LIBCMT:gs_support.obj
 0002:0000b748       $xdatasym                  000000018002c748     LIBCMT:guard_dispatch.obj
 0002:0000b74c       $unwind$AtlThunk_InitData  000000018002c74c     atls:atlthunk.obj
 0002:0000b760       $unwind$wcsstr             000000018002c760     libvcruntime:wcsstr.obj
 0002:0000b778       $xdatasym                  000000018002c778     libvcruntime:memcmp.obj
 0002:0000b780       $xdatasym                  000000018002c780     libvcruntime:memcpy.obj
 0002:0000b790       $xdatasym                  000000018002c790     libvcruntime:memset.obj
 0002:0000b7a0       $unwind$__C_specific_handler 000000018002c7a0     libvcruntime:riscchandler.obj
 0002:0000b7bc       $unwind$?GetEstablisherFrame@__FrameHandler3@@SAPEA_KPEA_KPEAU_xDISPATCHER_CONTEXT@@PEBU_s_FuncInfo@@0@Z 000000018002c7bc     libvcruntime:risctrnsctrl.obj
 0002:0000b7d4       $unwind$?UnwindNestedFrames@__FrameHandler3@@SAXPEA_KPEAUEHExceptionRecord@@PEAU_CONTEXT@@0PEAXPEBU_s_FuncInfo@@HHPEBU_s_HandlerType@@PEAU_xDISPATCHER_CONTEXT@@E@Z 000000018002c7d4     libvcruntime:risctrnsctrl.obj
 0002:0000b7e8       $unwind$?GetRangeOfTrysToCheck@__FrameHandler3@@SA?AU?$pair@Viterator@TryBlockMap@__FrameHandler3@@V123@@std@@AEAVTryBlockMap@1@HPEAU_xDISPATCHER_CONTEXT@@PEBU_s_FuncInfo@@H@Z 000000018002c7e8     libvcruntime:risctrnsctrl.obj
 0002:0000b800       $unwind$__CxxFrameHandler3 000000018002c800     libvcruntime:risctrnsctrl.obj
 0002:0000b814       $unwind$??$_CallSETranslator@V__FrameHandler3@@@@YAHPEAUEHExceptionRecord@@PEA_KPEAU_CONTEXT@@PEAU_xDISPATCHER_CONTEXT@@PEBU_s_FuncInfo@@K1@Z 000000018002c814     libvcruntime:risctrnsctrl.obj
 0002:0000b834       $unwind$?filt$0@?0???$_CallSETranslator@V__FrameHandler3@@@@YAHPEAUEHExceptionRecord@@PEA_KPEAU_CONTEXT@@PEAU_xDISPATCHER_CONTEXT@@PEBU_s_FuncInfo@@K1@Z@4HA 000000018002c834     libvcruntime:risctrnsctrl.obj
 0002:0000b840       $unwind$_CxxThrowException 000000018002c840     libvcruntime:throw.obj
 0002:0000b850       $xdatasym                  000000018002c850     libvcruntime:notify.obj
 0002:0000b85c       $unwind$__DestructExceptionObject 000000018002c85c     libvcruntime:ehhelpers.obj
 0002:0000b87c       $unwind$?FrameUnwindToState@__FrameHandler3@@SAXPEA_KPEAU_xDISPATCHER_CONTEXT@@PEBU_s_FuncInfo@@H@Z 000000018002c87c     libvcruntime:frame.obj
 0002:0000b8c8       $unwind$?CxxCallCatchBlock@__FrameHandler3@@SAPEAXPEAU_EXCEPTION_RECORD@@@Z 000000018002c8c8     libvcruntime:frame.obj
 0002:0000b904       $unwind$?fin$1@?0??CxxCallCatchBlock@__FrameHandler3@@SAPEAXPEAU_EXCEPTION_RECORD@@@Z@4HA 000000018002c904     libvcruntime:frame.obj
 0002:0000b910       $unwind$?IsInExceptionSpec@@YAEPEAUEHExceptionRecord@@PEBU_s_ESTypeList@@@Z 000000018002c910     libvcruntime:frame.obj
 0002:0000b92c       $unwind$??$BuildCatchObjectHelperInternal@V__FrameHandler3@@@@YAHPEAUEHExceptionRecord@@PEAXPEBU_s_HandlerType@@PEBU_s_CatchableType@@@Z 000000018002c92c     libvcruntime:frame.obj
 0002:0000b96c       $unwind$??$BuildCatchObjectInternal@V__FrameHandler3@@@@YAXPEAUEHExceptionRecord@@PEAXPEBU_s_HandlerType@@PEBU_s_CatchableType@@@Z 000000018002c96c     libvcruntime:frame.obj
 0002:0000b998       $unwind$??$FindHandler@V__FrameHandler3@@@@YAXPEAUEHExceptionRecord@@PEA_KPEAU_CONTEXT@@PEAU_xDISPATCHER_CONTEXT@@PEBU_s_FuncInfo@@EH1@Z 000000018002c998     libvcruntime:frame.obj
 0002:0000b9b8       $unwind$??$CatchIt@V__FrameHandler3@@@@YAXPEAUEHExceptionRecord@@PEA_KPEAU_CONTEXT@@PEAU_xDISPATCHER_CONTEXT@@PEBU_s_FuncInfo@@PEBU_s_HandlerType@@PEBU_s_CatchableType@@PEBU_s_TryBlockMapEntry@@H1EE@Z 000000018002c9b8     libvcruntime:frame.obj
 0002:0000b9d0       $unwind$??$FindHandlerForForeignException@V__FrameHandler3@@@@YAXPEAUEHExceptionRecord@@PEA_KPEAU_CONTEXT@@PEAU_xDISPATCHER_CONTEXT@@PEBU_s_FuncInfo@@HH1@Z 000000018002c9d0     libvcruntime:frame.obj
 0002:0000b9ec       $unwind$?try_get_function@@YAPEAXW4function_id@?A0x656504f9@@QEBDQEBW4module_id@2@2@Z 000000018002c9ec     libvcruntime:winapi_downlevel.obj
 0002:0000b9ec       $unwind$?try_get_function@@YAPEAXW4function_id@?A0x391cf84c@@QEBDQEBW4module_id@2@2@Z 000000018002c9ec     libucrt:winapi_thunks.obj
 0002:0000ba08       $xdatasym                  000000018002ca08     libvcruntime:handlers.obj
 0002:0000ba28       $unwind$__acrt_call_reportfault 000000018002ca28     libucrt:invalid_parameter.obj
 0002:0000ba48       $unwind$_invalid_parameter 000000018002ca48     libucrt:invalid_parameter.obj
 0002:0000ba5c       $unwind$_resetstkoflw      000000018002ca5c     libucrt:resetstk.obj
 0002:0000ba80       $unwind$?write_string@?$string_output_adapter@_W@__crt_stdio_output@@QEBAXQEB_WHQEAHAEAV__crt_deferred_errno_cache@@@Z 000000018002ca80     libucrt:output.obj
 0002:0000ba98       $unwind$??$common_vsprintf@Vformat_validation_base@__crt_stdio_output@@_W@@YAH_KQEA_W0QEB_WQEAU__crt_locale_pointers@@QEAD@Z 000000018002ca98     libucrt:output.obj
 0002:0000bab8       $unwind$??$write_multiple_characters@V?$string_output_adapter@_W@__crt_stdio_output@@D@__crt_stdio_output@@YAXAEBV?$string_output_adapter@_W@0@DHQEAH@Z 000000018002cab8     libucrt:output.obj
 0002:0000bac4       $unwind$?process@?$output_processor@_WV?$string_output_adapter@_W@__crt_stdio_output@@V?$format_validation_base@_WV?$string_output_adapter@_W@__crt_stdio_output@@@2@@__crt_stdio_output@@QEAAHXZ 000000018002cac4     libucrt:output.obj
 0002:0000bad8       $unwind$?parse_int_from_format_string@?$output_processor@_WV?$string_output_adapter@_W@__crt_stdio_output@@V?$format_validation_base@_WV?$string_output_adapter@_W@__crt_stdio_output@@@2@@__crt_stdio_output@@AEAA_NQEAH@Z 000000018002cad8     libucrt:output.obj
 0002:0000baec       $unwind$?state_case_type@?$output_processor@_WV?$string_output_adapter@_W@__crt_stdio_output@@V?$format_validation_base@_WV?$string_output_adapter@_W@__crt_stdio_output@@@2@@__crt_stdio_output@@AEAA_NXZ 000000018002caec     libucrt:output.obj
 0002:0000bb10       $unwind$?type_case_a@?$output_processor@_WV?$string_output_adapter@_W@__crt_stdio_output@@V?$format_validation_base@_WV?$string_output_adapter@_W@__crt_stdio_output@@@2@@__crt_stdio_output@@AEAA_NXZ 000000018002cb10     libucrt:output.obj
 0002:0000bb20       $unwind$?write_stored_string_tchar@?$output_processor@_WV?$string_output_adapter@_W@__crt_stdio_output@@V?$format_validation_base@_WV?$string_output_adapter@_W@__crt_stdio_output@@@2@@__crt_stdio_output@@AEAA_N_W@Z 000000018002cb20     libucrt:output.obj
 0002:0000bb34       $unwind$??$type_case_integer_parse_into_buffer@_K@?$output_processor@_WV?$string_output_adapter@_W@__crt_stdio_output@@V?$format_validation_base@_WV?$string_output_adapter@_W@__crt_stdio_output@@@2@@__crt_stdio_output@@AEAAX_KI_N@Z 000000018002cb34     libucrt:output.obj
 0002:0000bb34       $unwind$??$type_case_integer_parse_into_buffer@I@?$output_processor@_WV?$string_output_adapter@_W@__crt_stdio_output@@V?$format_validation_base@_WV?$string_output_adapter@_W@__crt_stdio_output@@@2@@__crt_stdio_output@@AEAAXII_N@Z 000000018002cb34     libucrt:output.obj
 0002:0000bb3c       $unwind$?common_exit@@YAXHW4_crt_exit_cleanup_mode@@W4_crt_exit_return_mode@@@Z 000000018002cb3c     libucrt:exit.obj
 0002:0000bb48       $unwind$??R<lambda_6e4b09c48022b2350581041d5f6b0c4c>@@QEBA@XZ 000000018002cb48     libucrt:exit.obj
 0002:0000bb68       $unwind$??$?RV<lambda_d80eeec6fff315bfe5c115232f3240e3>@@AEAV<lambda_6e4b09c48022b2350581041d5f6b0c4c>@@V<lambda_2358e3775559c9db80273638284d5e45>@@@?$__crt_seh_guarded_call@X@@QEAAX$$QEAV<lambda_d80eeec6fff315bfe5c115232f3240e3>@@AEAV<lambda_6e4b09c48022b2350581041d5f6b0c4c>@@$$QEAV<lambda_2358e3775559c9db80273638284d5e45>@@@Z 000000018002cb68     libucrt:exit.obj
 0002:0000bb8c       $unwind$??$free_environment@D@@YAXQEAPEAD@Z 000000018002cb8c     libucrt:environment_initialization.obj
 0002:0000bb8c       $unwind$??$free_environment@_W@@YAXQEAPEA_W@Z 000000018002cb8c     libucrt:environment_initialization.obj
 0002:0000bb98       $unwind$_register_onexit_function 000000018002cb98     libucrt:onexit.obj
 0002:0000bba0       $unwind$_execute_onexit_table 000000018002cba0     libucrt:onexit.obj
 0002:0000bba8       $unwind$??R<lambda_22ebabd17bc4fa466a2aca6d8deb888d>@@QEBAHXZ 000000018002cba8     libucrt:onexit.obj
 0002:0000bbc0       $unwind$??$?RV<lambda_638799b9deba96c50f710eeac98168cd>@@AEAV<lambda_22ebabd17bc4fa466a2aca6d8deb888d>@@V<lambda_a6f7d7db0129f75315ebf26d50c089f1>@@@?$__crt_seh_guarded_call@H@@QEAAH$$QEAV<lambda_638799b9deba96c50f710eeac98168cd>@@AEAV<lambda_22ebabd17bc4fa466a2aca6d8deb888d>@@$$QEAV<lambda_a6f7d7db0129f75315ebf26d50c089f1>@@@Z 000000018002cbc0     libucrt:onexit.obj
 0002:0000bbe4       $unwind$??$?RV<lambda_7777bce6b2f8c936911f934f8298dc43>@@AEAV<lambda_f03950bc5685219e0bcd2087efbe011e>@@V<lambda_3883c3dff614d5e0c5f61bb1ac94921c>@@@?$__crt_seh_guarded_call@H@@QEAAH$$QEAV<lambda_7777bce6b2f8c936911f934f8298dc43>@@AEAV<lambda_f03950bc5685219e0bcd2087efbe011e>@@$$QEAV<lambda_3883c3dff614d5e0c5f61bb1ac94921c>@@@Z 000000018002cbe4     libucrt:onexit.obj
 0002:0000bc08       $unwind$_query_new_handler 000000018002cc08     libucrt:new_handler.obj
 0002:0000bc28       $unwind$terminate          000000018002cc28     libucrt:terminate.obj
 0002:0000bc48       $unwind$??$parse_integer@KV?$c_string_character_source@_W@__crt_strtox@@@__crt_strtox@@YAKQEAU__crt_locale_pointers@@V?$c_string_character_source@_W@0@H_N@Z 000000018002cc48     libucrt:atox.obj
 0002:0000bc60       $xdatasym                  000000018002cc60     libucrt:strncmp.obj
 0002:0000bc64       $unwind$?construct_ptd_array@@YAXQEAU__acrt_ptd@@@Z 000000018002cc64     libucrt:per_thread_data.obj
 0002:0000bc6c       $unwind$?destroy_ptd_array@@YAXQEAU__acrt_ptd@@@Z 000000018002cc6c     libucrt:per_thread_data.obj
 0002:0000bc74       $unwind$??$?RV<lambda_0ae27a3a962d80f24befdcbee591983d>@@AEAV<lambda_8d0ee55de4b1038c4002e0adecdf1839>@@V<lambda_dc504788e8f1664fe9b84e20bfb512f2>@@@?$__crt_seh_guarded_call@X@@QEAAX$$QEAV<lambda_0ae27a3a962d80f24befdcbee591983d>@@AEAV<lambda_8d0ee55de4b1038c4002e0adecdf1839>@@$$QEAV<lambda_dc504788e8f1664fe9b84e20bfb512f2>@@@Z 000000018002cc74     libucrt:per_thread_data.obj
 0002:0000bc98       $unwind$??$?RV<lambda_aa87e3671a710a21b5dc78c0bdf72e11>@@AEAV<lambda_92619d2358a28f41a33ba319515a20b9>@@V<lambda_6992ecaafeb10aed2b74cb1fae11a551>@@@?$__crt_seh_guarded_call@X@@QEAAX$$QEAV<lambda_aa87e3671a710a21b5dc78c0bdf72e11>@@AEAV<lambda_92619d2358a28f41a33ba319515a20b9>@@$$QEAV<lambda_6992ecaafeb10aed2b74cb1fae11a551>@@@Z 000000018002cc98     libucrt:per_thread_data.obj
 0002:0000bcbc       $unwind$??$?RV<lambda_f2e299630e499de9f9a165e60fcd3db5>@@AEAV<lambda_2ae9d31cdba2644fcbeaf08da7c24588>@@V<lambda_40d01ff24d0e7b3814fdbdcee8eab3c7>@@@?$__crt_seh_guarded_call@X@@QEAAX$$QEAV<lambda_f2e299630e499de9f9a165e60fcd3db5>@@AEAV<lambda_2ae9d31cdba2644fcbeaf08da7c24588>@@$$QEAV<lambda_40d01ff24d0e7b3814fdbdcee8eab3c7>@@@Z 000000018002ccbc     libucrt:per_thread_data.obj
 0002:0000bce0       $unwind$??$?RV<lambda_2d41944a1d46af3157314b8a01080d33>@@AEAV<lambda_8f455de75cd7d7f24b4096f044d8b9e6>@@V<lambda_aa500f224e6afead328df44964fe2772>@@@?$__crt_seh_guarded_call@X@@QEAAX$$QEAV<lambda_2d41944a1d46af3157314b8a01080d33>@@AEAV<lambda_8f455de75cd7d7f24b4096f044d8b9e6>@@$$QEAV<lambda_aa500f224e6afead328df44964fe2772>@@@Z 000000018002cce0     libucrt:per_thread_data.obj
 0002:0000bd04       $unwind$__acrt_initialize_winapi_thunks 000000018002cd04     libucrt:winapi_thunks.obj
 0002:0000bd0c       $unwind$?fp_format_e_internal@@YAHQEAD_KH_NIQEAU_strflt@@2QEAU__crt_locale_pointers@@@Z 000000018002cd0c     libucrt:cvt.obj
 0002:0000bd24       $unwind$?fp_format_a@@YAHQEBNPEAD_KQEAD2H_NIQEAU__crt_locale_pointers@@@Z 000000018002cd24     libucrt:cvt.obj
 0002:0000bd40       $unwind$?fp_format_g@@YAHQEBNQEAD_K12H_NIQEAU__crt_locale_pointers@@@Z 000000018002cd40     libucrt:cvt.obj
 0002:0000bd54       $unwind$__acrt_get_sigabrt_handler 000000018002cd54     libucrt:signal.obj
 0002:0000bd54       $unwind$__acrt_uninitialize_locale 000000018002cd54     libucrt:wsetlocale.obj
 0002:0000bd5c       $unwind$??$?RV<lambda_410d79af7f07d98d83a3f525b3859a53>@@AEAV<lambda_3e16ef9562a7dcce91392c22ab16ea36>@@V<lambda_38119f0e861e05405d8a144b9b982f0a>@@@?$__crt_seh_guarded_call@X@@QEAAX$$QEAV<lambda_410d79af7f07d98d83a3f525b3859a53>@@AEAV<lambda_3e16ef9562a7dcce91392c22ab16ea36>@@$$QEAV<lambda_38119f0e861e05405d8a144b9b982f0a>@@@Z 000000018002cd5c     libucrt:wsetlocale.obj
 0002:0000bd84       $unwind$__acrt_initialize_lowio 000000018002cd84     libucrt:ioinit.obj
 0002:0000bda4       $unwind$??$common_expand_argv_wildcards@D@@YAHQEAPEADQEAPEAPEAD@Z 000000018002cda4     libucrt:argv_wildcards.obj
 0002:0000bdbc       $unwind$??$copy_and_add_argument_to_buffer@D@@YAHQEBD0_KAEAV?$argument_list@D@?A0x5f5c8891@@@Z 000000018002cdbc     libucrt:argv_wildcards.obj
 0002:0000bdd8       $unwind$??$expand_argument_wildcards@D@@YAHQEAD0AEAV?$argument_list@D@?A0x5f5c8891@@@Z 000000018002cdd8     libucrt:argv_wildcards.obj
 0002:0000bdfc       $unwind$__acrt_GetModuleFileNameA 000000018002cdfc     libucrt:getmodulefilenamea.obj
 0002:0000be18       $unwind$_setmbcp_nolock    000000018002ce18     libucrt:mbctype.obj
 0002:0000be38       $unwind$?update_thread_multibyte_data_internal@@YAPEAU__crt_multibyte_data@@QEAU__acrt_ptd@@QEAPEAU1@@Z 000000018002ce38     libucrt:mbctype.obj
 0002:0000be60       $unwind$?setmbcp_internal@@YAHH_NQEAU__acrt_ptd@@QEAPEAU__crt_multibyte_data@@@Z 000000018002ce60     libucrt:mbctype.obj
 0002:0000be70       $unwind$?setSBUpLow@@YAXPEAU__crt_multibyte_data@@@Z 000000018002ce70     libucrt:mbctype.obj
 0002:0000be8c       $unwind$??$?RV<lambda_efdfa57d1f175319df784efa44bb7b81>@@AEAV<lambda_5f0a4c1567f8adc6734073e5d1e1b35c>@@V<lambda_2e8a7d3640ea6ccb4c2413664c2db6fd>@@@?$__crt_seh_guarded_call@X@@QEAAX$$QEAV<lambda_efdfa57d1f175319df784efa44bb7b81>@@AEAV<lambda_5f0a4c1567f8adc6734073e5d1e1b35c>@@$$QEAV<lambda_2e8a7d3640ea6ccb4c2413664c2db6fd>@@@Z 000000018002ce8c     libucrt:mbctype.obj
 0002:0000beb0       $unwind$raise              000000018002ceb0     libucrt:signal.obj
 0002:0000beec       $unwind$??$?RV<lambda_450d765d439847d4c735a33c368b5fc0>@@AEAV<lambda_44731a7d0e6d81c3e6aa82d741081786>@@V<lambda_601a2a7da3b7a96e9554ac7215c4b07c>@@@?$__crt_seh_guarded_call@P6AXH@Z@@QEAAP6AXH@Z$$QEAV<lambda_450d765d439847d4c735a33c368b5fc0>@@AEAV<lambda_44731a7d0e6d81c3e6aa82d741081786>@@$$QEAV<lambda_601a2a7da3b7a96e9554ac7215c4b07c>@@@Z 000000018002ceec     libucrt:signal.obj
 0002:0000bf10       $unwind$?common_flush_all@@YAH_N@Z 000000018002cf10     libucrt:fflush.obj
 0002:0000bf18       $unwind$??$?RV<lambda_842d9ff0dc9ef11c61343bbaebe7f885>@@AEAV<lambda_c5860995281e5c4ce005b3de8f5874ee>@@V<lambda_d90129c13df834fdcbf8d2b88dafcf2d>@@@?$__crt_seh_guarded_call@X@@QEAAX$$QEAV<lambda_842d9ff0dc9ef11c61343bbaebe7f885>@@AEAV<lambda_c5860995281e5c4ce005b3de8f5874ee>@@$$QEAV<lambda_d90129c13df834fdcbf8d2b88dafcf2d>@@@Z 000000018002cf18     libucrt:fflush.obj
 0002:0000bf3c       $unwind$??$?RV<lambda_886d6c58226a84441f68b9f2b8217b83>@@AEAV<lambda_ab61a845afdef5b7c387490eaf3616ee>@@V<lambda_f7f22ab5edc0698d5f6905b0d3f44752>@@@?$__crt_seh_guarded_call@X@@QEAAX$$QEAV<lambda_886d6c58226a84441f68b9f2b8217b83>@@AEAV<lambda_ab61a845afdef5b7c387490eaf3616ee>@@$$QEAV<lambda_f7f22ab5edc0698d5f6905b0d3f44752>@@@Z 000000018002cf3c     libucrt:fflush.obj
 0002:0000bf64       $unwind$__acrt_update_thread_locale_data 000000018002cf64     libucrt:locale_refcounting.obj
 0002:0000bf88       $unwind$?__mbrtowc_utf8@__crt_mbstring@@YA_KPEA_WPEBD_KPEAU_Mbstatet@@@Z 000000018002cf88     libucrt:mbrtowc.obj
 0002:0000bf90       $unwind$?__mbsrtowcs_utf8@__crt_mbstring@@YA_KPEA_WPEAPEBD_KPEAU_Mbstatet@@@Z 000000018002cf90     libucrt:mbrtowc.obj
 0002:0000bfa8       $unwind$__acrt_fltout      000000018002cfa8     libucrt:cfout.obj
 0002:0000bfc8       $unwind$?divide@__crt_strtox@@YA_KAEAUbig_integer@1@AEBU21@@Z 000000018002cfc8     libucrt:cfout.obj
 0002:0000bfe0       $chain$0$?divide@__crt_strtox@@YA_KAEAUbig_integer@1@AEBU21@@Z 000000018002cfe0     libucrt:cfout.obj
 0002:0000bff4       $chain$1$?divide@__crt_strtox@@YA_KAEAUbig_integer@1@AEBU21@@Z 000000018002cff4     libucrt:cfout.obj
 0002:0000c004       $unwind$_fcloseall         000000018002d004     libucrt:closeall.obj
 0002:0000c028       $unwind$__acrt_locale_free_monetary 000000018002d028     libucrt:initmon.obj
 0002:0000c030       $unwind$__acrt_locale_free_time 000000018002d030     libucrt:inittime.obj
 0002:0000c040       $unwind$__acrt_GetStringTypeA 000000018002d040     libucrt:getstringtypea.obj
 0002:0000c068       $unwind$__acrt_lowio_destroy_handle_array 000000018002d068     libucrt:osfinfo.obj
 0002:0000c078       $unwind$__acrt_lowio_ensure_fh_exists 000000018002d078     libucrt:osfinfo.obj
 0002:0000c0a4       $unwind$qsort              000000018002d0a4     libucrt:qsort.obj
 0002:0000c0bc       $chain$4$qsort             000000018002d0bc     libucrt:qsort.obj
 0002:0000c0e0       $chain$5$qsort             000000018002d0e0     libucrt:qsort.obj
 0002:0000c0f0       $unwind$fallbackMethod     000000018002d0f0     libucrt:strpbrk.obj
 0002:0000c100       $unwind$__acrt_LCMapStringA 000000018002d100     libucrt:lcmapstringa.obj
 0002:0000c110       $unwind$?__acrt_LCMapStringA_stat@@YAHPEAU__crt_locale_pointers@@PEB_WKPEBDHPEADHHH@Z 000000018002d110     libucrt:lcmapstringa.obj
 0002:0000c138       $unwind$_commit            000000018002d138     libucrt:commit.obj
 0002:0000c138       $unwind$_close             000000018002d138     libucrt:close.obj
 0002:0000c140       $unwind$??$?RV<lambda_a37b2b86f63e897a80ea819b0eb08c01>@@AEAV<lambda_38ce7e780aa69e748d6df282ebc68efe>@@V<lambda_99fb1378e971ab6e7edea83e3a7a83a2>@@@?$__crt_seh_guarded_call@H@@QEAAH$$QEAV<lambda_a37b2b86f63e897a80ea819b0eb08c01>@@AEAV<lambda_38ce7e780aa69e748d6df282ebc68efe>@@$$QEAV<lambda_99fb1378e971ab6e7edea83e3a7a83a2>@@@Z 000000018002d140     libucrt:commit.obj
 0002:0000c164       $unwind$_write             000000018002d164     libucrt:write.obj
 0002:0000c194       $unwind$_write_nolock      000000018002d194     libucrt:write.obj
 0002:0000c1ac       $unwind$?write_double_translated_ansi_nolock@@YA?AUwrite_result@?A0x17268360@@HQEBDI@Z 000000018002d1ac     libucrt:write.obj
 0002:0000c1d0       $unwind$?write_text_utf16le_nolock@@YA?AUwrite_result@?A0x17268360@@HQEBDI@Z 000000018002d1d0     libucrt:write.obj
 0002:0000c1d0       $unwind$?write_text_ansi_nolock@@YA?AUwrite_result@?A0x17268360@@HQEBDI@Z 000000018002d1d0     libucrt:write.obj
 0002:0000c1f0       $unwind$?write_text_utf8_nolock@@YA?AUwrite_result@?A0x17268360@@HQEBDI@Z 000000018002d1f0     libucrt:write.obj
 0002:0000c218       $xdatasym                  000000018002d218     libucrt:log10.obj
 0002:0000c224       $unwind$fclose             000000018002d224     libucrt:fclose.obj
 0002:0000c248       $unwind$_putwch_nolock     000000018002d248     libucrt:putwch.obj
 0002:0000c250       $unwind$__acrt_fenv_set_control 000000018002d250     libucrt:_fenvutils.obj
 0002:0000c260       $unwind$_call_matherr      000000018002d260     libucrt:libm_error.obj
 0002:0000c268       $unwind$_handle_error      000000018002d268     libucrt:libm_error.obj
 0002:0000c288       $unwind$__acrt_initialize_fma3 000000018002d288     libucrt:fma3_available.obj
 0002:0000c290       $unwind$_log_special_common 000000018002d290     libucrt:log_special.obj
 0002:0000c29c       $unwind$??$?RV<lambda_751a882b2c74d4b022dec766aa51a29a>@@AEAV<lambda_628dfdc04ba53c8bfc02c9951375f3f5>@@V<lambda_f6c7be5f7998530c34de24c7437d6b54>@@@?$__crt_seh_guarded_call@H@@QEAAH$$QEAV<lambda_751a882b2c74d4b022dec766aa51a29a>@@AEAV<lambda_628dfdc04ba53c8bfc02c9951375f3f5>@@$$QEAV<lambda_f6c7be5f7998530c34de24c7437d6b54>@@@Z 000000018002d29c     libucrt:close.obj
 0002:0000c2c0       $xdatasym                  000000018002d2c0     libucrt:fpsr.obj
 0002:0000c2c8       $unwind$_raise_exc_ex      000000018002d2c8     libucrt:fpexcept.obj
 0002:0000c2dc       $unwind$_ctrlfp            000000018002d2dc     libucrt:fpctrl.obj
 0002:0000c304       $unwind$_IsNonwritableInCurrentImage 000000018002d304     LIBCMT:pesect.obj
 0002:0000c490       .edata                     000000018002d490     OPOSCashDrawer.exp
 0002:0000c4b8       rgpv                       000000018002d4b8     OPOSCashDrawer.exp
 0002:0000c4c8       rgszName                   000000018002d4c8     OPOSCashDrawer.exp
 0002:0000c4d8       rgwOrd                     000000018002d4d8     OPOSCashDrawer.exp
 0002:0000c4e0       szName                     000000018002d4e0     OPOSCashDrawer.exp
 0002:0000c4f3       $N00001                    000000018002d4f3     OPOSCashDrawer.exp
 0002:0000c503       $N00002                    000000018002d503     OPOSCashDrawer.exp
 0002:0000c515       $N00003                    000000018002d515     OPOSCashDrawer.exp
 0002:0000c527       $N00004                    000000018002d527     OPOSCashDrawer.exp
 0002:0000ce52       .idata$6                   000000018002de52     kernel32:KERNEL32.dll
 0002:0000d06a       .idata$6                   000000018002e06a     user32:USER32.dll
 0002:0000d19e       .idata$6                   000000018002e19e     gdi32:GDI32.dll
 0002:0000d244       .idata$6                   000000018002e244     advapi32:ADVAPI32.dll
 0002:0000d360       .idata$6                   000000018002e360     ole32:ole32.dll
 0002:0000d36a       .idata$6                   000000018002e36a     oleaut32:OLEAUT32.dll
 0003:000001c0       ?ObjectMap@@3PAU_ATL_OBJMAP_ENTRY30@ATL@@A 000000018002f1c0     CashDrawer.obj
 0003:000002b0       ?s_SOMethodNames@@3PAPEADA 000000018002f2b0     CashDrawerImpl.obj
 0003:00000348       ?s_RequiredMethodsPerRelease@@3PAHA 000000018002f348     CashDrawerImpl.obj
 0003:000003b0       ?__vcrt_flsindex@@3KA      000000018002f3b0     libvcruntime:per_thread_data.obj
 0003:000003c0       ?errno_no_memory@@3HA      000000018002f3c0     libucrt:errno.obj
 0003:000003c4       ?doserrno_no_memory@@3KA   000000018002f3c4     libucrt:errno.obj
 0003:000003d0       ?__acrt_flsindex@@3KA      000000018002f3d0     libucrt:per_thread_data.obj
 0003:00000890       _mbctypes                  000000018002f890     libucrt:mbctype.obj
 0003:000009a0       _mbcasemaps                000000018002f9a0     libucrt:mbctype.obj
 0003:00000aa0       ?__rgctypeflag@@3PADA      000000018002faa0     libucrt:mbctype.obj
 0003:00000ab0       ?__rgcode_page_info@@3PAUcode_page_info@@A 000000018002fab0     libucrt:mbctype.obj
 0003:00000d50       ?__dcrt_lowio_console_output_handle@@3PEAXEA 000000018002fd50     libucrt:initcon.obj
 0003:00000d60       ?dazSupported@?1??_ctrlfp@@9@9 000000018002fd60     libucrt:fpctrl.obj
 0003:00000fb0       ?is_initialized_as_dll@@3_NA 000000018002ffb0     LIBCMT:utility.obj
 0003:00000fb1       ?module_local_atexit_table_initialized@@3_NA 000000018002ffb1     LIBCMT:utility.obj
 0003:00000fb8       ?module_local_atexit_table@@3U_onexit_table_t@@A 000000018002ffb8     LIBCMT:utility.obj
 0003:00000fd0       ?module_local_at_quick_exit_table@@3U_onexit_table_t@@A 000000018002ffd0     LIBCMT:utility.obj
 0003:00000fe8       ?g_tss_cv@@3U_RTL_CONDITION_VARIABLE@@A 000000018002ffe8     LIBCMT:thread_safe_statics.obj
 0003:00000ff0       ?g_tss_event@@3PEAXEA      000000018002fff0     LIBCMT:thread_safe_statics.obj
 0003:00000ff8       ?g_tss_mutex@@3U_RTL_CRITICAL_SECTION@@A 000000018002fff8     LIBCMT:thread_safe_statics.obj
 0003:00001020       ?g_sleep_condition_variable_cs@@3P6AHPEAU_RTL_CONDITION_VARIABLE@@PEAU_RTL_CRITICAL_SECTION@@K@ZEA 0000000180030020     LIBCMT:thread_safe_statics.obj
 0003:00001028       ?g_wake_all_condition_variable@@3P6AXPEAU_RTL_CONDITION_VARIABLE@@@ZEA 0000000180030028     LIBCMT:thread_safe_statics.obj
 0003:00001030       GS_ExceptionRecord         0000000180030030     LIBCMT:gs_report.obj
 0003:000010d0       GS_ContextRecord           00000001800300d0     LIBCMT:gs_report.obj
 0003:000015a4       ?__proc_attached@@3HA      00000001800305a4     LIBCMT:dll_dllmain.obj
 0003:00001638       ?AllocateData@@3P6APEAUAtlThunkData_t@@XZEA 0000000180030638     atls:atlthunk.obj
 0003:00001640       ?InitData@@3P6AXPEAUAtlThunkData_t@@PEAX_K@ZEA 0000000180030640     atls:atlthunk.obj
 0003:00001648       ?DataToCode@@3P6AP6A_JPEAUHWND__@@I_K_J@ZPEAUAtlThunkData_t@@@ZEA 0000000180030648     atls:atlthunk.obj
 0003:00001650       ?FreeData@@3P6AXPEAUAtlThunkData_t@@@ZEA 0000000180030650     atls:atlthunk.obj
 0003:00001658       ?Initialized@@3_NA         0000000180030658     atls:atlthunk.obj
 0003:00001670       ?__vcrt_startup_thread_ptd@@3U__vcrt_ptd@@A 0000000180030670     libvcruntime:per_thread_data.obj
 0003:000016f0       __vcrt_lock_table          00000001800306f0     libvcruntime:locks.obj
 0003:00001718       __vcrt_locks_initialized   0000000180030718     libvcruntime:locks.obj
 0003:00001768       ?heap@@3V_HeapManager@@A   0000000180030768     libvcruntime:undname.obj
 0003:00001790       ?module_handles@@3PAPEAUHINSTANCE__@@A 0000000180030790     libvcruntime:winapi_downlevel.obj
 0003:000017a8       ?function_pointers@@3PAPEAXA 00000001800307a8     libvcruntime:winapi_downlevel.obj
 0003:000017d0       ?__acrt_invalid_parameter_handler@@3V?$dual_state_global@P6AXPEB_W00I_K@Z@__crt_state_management@@A 00000001800307d0     libucrt:invalid_parameter.obj
 0003:000017d8       ?c_termination_complete@@3JA 00000001800307d8     libucrt:exit.obj
 0003:000017e0       ?thread_local_exit_callback_func@@3P6AXPEAXK0@ZEA 00000001800307e0     libucrt:exit.obj
 0003:000017f0       ?program_name@?1???$common_configure_argv@D@@YAHW4_crt_argv_mode@@@Z@4PADA 00000001800307f0     libucrt:argv_parsing.obj
 0003:00001948       ?__acrt_new_handler@@3V?$dual_state_global@P6AH_K@Z@__crt_state_management@@A 0000000180030948     libucrt:new_handler.obj
 0003:00001950       ?module_handles@@3PAPEAUHINSTANCE__@@A 0000000180030950     libucrt:winapi_thunks.obj
 0003:000019f0       ?encoded_function_pointers@@3PAPEAXA 00000001800309f0     libucrt:winapi_thunks.obj
 0003:00001b00       ?internal_state@?1??_mbtowc_l@@9@4U_Mbstatet@@A 0000000180030b00     libucrt:mbtowc.obj
 0003:00001b18       ?enable_percent_n@@3_KA    0000000180030b18     libucrt:printf_count_output.obj
 0003:00001f50       ?__acrt_lock_table@@3PAU_RTL_CRITICAL_SECTION@@A 0000000180030f50     libucrt:locks.obj
 0003:00002180       ?__acrt_locks_initialized@@3IA 0000000180031180     libucrt:locks.obj
 0003:000021a0       ?fSystemSet@@3HA           00000001800311a0     libucrt:mbctype.obj
 0003:000021a4       ?initialized@?1??__acrt_initialize_multibyte@@9@4_NA 00000001800311a4     libucrt:mbctype.obj
 0003:000021e0       ?ctrlc_action@@3V?$dual_state_global@P6AXH@Z@__crt_state_management@@A 00000001800311e0     libucrt:signal.obj
 0003:000021e8       ?ctrlbreak_action@@3V?$dual_state_global@P6AXH@Z@__crt_state_management@@A 00000001800311e8     libucrt:signal.obj
 0003:000021f0       ?abort_action@@3V?$dual_state_global@P6AXH@Z@__crt_state_management@@A 00000001800311f0     libucrt:signal.obj
 0003:000021f8       ?term_action@@3V?$dual_state_global@P6AXH@Z@__crt_state_management@@A 00000001800311f8     libucrt:signal.obj
 0003:00002200       ?user_matherr@@3V?$dual_state_global@P6AHPEAU_exception@@@Z@__crt_state_management@@A 0000000180031200     libucrt:matherr.obj
 0003:00002208       ?__acrt_global_new_mode@@3V?$dual_state_global@J@__crt_state_management@@A 0000000180031208     libucrt:new_mode.obj
 0003:00002218       ?internal_pst@?1??__mbrtoc32_utf8@__crt_mbstring@@YA_KPEA_UPEBD_KPEAU_Mbstatet@@@Z@4U3@A 0000000180031218     libucrt:mbrtoc32.obj
 0003:00002220       ?__acrt_app_type@@3W4_crt_app_type@@A 0000000180031220     libucrt:report_runtime_error.obj
 0004:00000000       $pdata$?cw_memcpy@@YAHPEA_WPEBDH@Z 0000000180032000     CWString.obj
 0004:0000000c       $pdata$?cw_strcpy@@YAHPEA_WPEBD@Z 000000018003200c     CWString.obj
 0004:00000018       $pdata$?cw_dup@@YAXPEBDAEAHAEAPEA_W1@Z 0000000180032018     CWString.obj
 0004:00000024       $pdata$?DupWide@_CW@@AEAAXXZ 0000000180032024     CWString.obj
 0004:00000030       $pdata$?AtlWinModuleTerm@ATL@@YAJPEAU_ATL_WIN_MODULE70@1@PEAUHINSTANCE__@@@Z 0000000180032030     OposVariant.obj
 0004:0000003c       $pdata$??0CAtlComModule@ATL@@QEAA@XZ 000000018003203c     OposVariant.obj
 0004:00000048       $pdata$?Term@CAtlComModule@ATL@@QEAAXXZ 0000000180032048     OposVariant.obj
 0004:00000054       $pdata$??__E_AtlComModule@ATL@@YAXXZ 0000000180032054     OposVariant.obj
 0004:00000060       $pdata$??0CAtlWinModule@ATL@@QEAA@XZ 0000000180032060     OposVariant.obj
 0004:0000006c       $pdata$??__E_AtlWinModule@ATL@@YAXXZ 000000018003206c     OposVariant.obj
 0004:00000078       $pdata$??__F_AtlWinModule@ATL@@YAXXZ 0000000180032078     OposVariant.obj
 0004:00000084       $pdata$??_Estringdispid@CComTypeInfoHolder@ATL@@QEAAPEAXI@Z 0000000180032084     OposVariant.obj
 0004:00000090       $pdata$?SetVARIANT_BOOL@OposVariant@@QEAAXF@Z 0000000180032090     OposVariant.obj
 0004:0000009c       $pdata$?GetLONG@OposVariant@@QEAAJXZ 000000018003209c     OposVariant.obj
 0004:000000a8       $pdata$?ChangeLONG@OposVariant@@QEAAXPEAJAEAJ@Z 00000001800320a8     OposVariant.obj
 0004:000000b4       $pdata$?SetLONG@OposVariant@@QEAAXJ@Z 00000001800320b4     OposVariant.obj
 0004:000000c0       $pdata$?SetLONG_Ptr@OposVariant@@QEAAXPEAJAEAJ@Z 00000001800320c0     OposVariant.obj
 0004:000000cc       $pdata$?ChangeBSTR@OposVariant@@QEAAXPEAPEA_WAEAJ@Z 00000001800320cc     OposVariant.obj
 0004:000000d8       $pdata$?SetBSTR@OposVariant@@QEAAXPEA_WAEAJ@Z 00000001800320d8     OposVariant.obj
 0004:000000e4       $pdata$?SetBSTR_Copy@OposVariant@@QEAAXPEA_WAEAJ@Z 00000001800320e4     OposVariant.obj
 0004:000000f0       $pdata$?SetBSTR_InOutPtr@OposVariant@@QEAA_NPEAPEA_WAEAJ@Z 00000001800320f0     OposVariant.obj
 0004:000000fc       $pdata$?SetString@OposVariant@@QEAAXPEB_WAEAJ@Z 00000001800320fc     OposVariant.obj
 0004:00000108       $pdata$?SetDispatch_Ptr@OposVariant@@QEAAXPEAUIDispatch@@AEAJ@Z 0000000180032108     OposVariant.obj
 0004:00000114       $pdata$??0OposDispParms@@QEAA@PEAVOposVariant@@H@Z 0000000180032114     OposVariant.obj
 0004:00000120       $pdata$??1OposDispParms@@QEAA@XZ 0000000180032120     OposVariant.obj
 0004:0000012c       $pdata$memcpy_s            000000018003212c     CashDrawer.obj
 0004:0000012c       $pdata$memcpy_s            000000018003212c     libucrt:cfout.obj
 0004:00000138       $pdata$?AtlThrowImpl@ATL@@YAXJ@Z 0000000180032138     CashDrawer.obj
 0004:00000144       $pdata$swprintf_s          0000000180032144     CashDrawer.obj
 0004:00000150       $pdata$?_AtlVerifyStackAvailable@_ATL_SAFE_ALLOCA_IMPL@ATL@@YA_N_K@Z 0000000180032150     CashDrawer.obj
 0004:0000015c       $pdata$?filt$0@?0??_AtlVerifyStackAvailable@_ATL_SAFE_ALLOCA_IMPL@ATL@@YA_N_K@Z@4HA 000000018003215c     CashDrawer.obj
 0004:00000168       $pdata$?AtlHresultFromLastError@ATL@@YAJXZ 0000000180032168     CashDrawer.obj
 0004:00000174       $pdata$?AtlInternalOleLoadFromStream@ATL@@YAJPEAUIStream@@AEBU_GUID@@PEAPEAXTClassesAllowedInStream@1@K@Z 0000000180032174     CashDrawer.obj
 0004:00000180       $pdata$?PutProperty@?$CComPtr@UIDispatch@@@ATL@@SAJPEAUIDispatch@@JPEAUtagVARIANT@@@Z 0000000180032180     CashDrawer.obj
 0004:0000018c       $pdata$?WriteToStream@CComBSTR@ATL@@QEAAJPEAUIStream@@@Z 000000018003218c     CashDrawer.obj
 0004:00000198       $pdata$?ReadFromStream@CComBSTR@ATL@@QEAAJPEAUIStream@@@Z 0000000180032198     CashDrawer.obj
 0004:000001a4       $pdata$?WriteToStream@CComVariant@ATL@@QEAAJPEAUIStream@@@Z 00000001800321a4     CashDrawer.obj
 0004:000001b0       $pdata$?WriteToStream@CComVariant@ATL@@QEAAJPEAUIStream@@G@Z 00000001800321b0     CashDrawer.obj
 0004:000001bc       $pdata$?ReadFromStream@CComVariant@ATL@@QEAAJPEAUIStream@@GTClassesAllowedInStream@2@K@Z 00000001800321bc     CashDrawer.obj
 0004:000001c8       $pdata$?GetSizeMax@CComVariant@ATL@@QEBAJPEAT_ULARGE_INTEGER@@@Z 00000001800321c8     CashDrawer.obj
 0004:000001d4       $pdata$?RegCreateKeyExW@CAtlTransactionManager@ATL@@QEAAJPEAUHKEY__@@PEB_WKPEA_WKKQEAU_SECURITY_ATTRIBUTES@@PEAPEAU3@PEAK@Z 00000001800321d4     CashDrawer.obj
 0004:000001e0       $pdata$?RegOpenKeyExW@CAtlTransactionManager@ATL@@QEAAJPEAUHKEY__@@PEB_WKKPEAPEAU3@@Z 00000001800321e0     CashDrawer.obj
 0004:000001ec       $pdata$?RegDeleteKeyW@CAtlTransactionManager@ATL@@QEAAJPEAUHKEY__@@PEB_W@Z 00000001800321ec     CashDrawer.obj
 0004:000001f8       $pdata$?Add@?$CSimpleArray@GV?$CSimpleArrayEqualHelper@G@ATL@@@ATL@@QEAAHAEBG@Z 00000001800321f8     CashDrawer.obj
 0004:00000204       $pdata$?AtlInternalQueryInterface@ATL@@YAJPEAXPEBU_ATL_INTMAP_ENTRY@1@AEBU_GUID@@PEAPEAX@Z 0000000180032204     CashDrawer.obj
 0004:00000210       $pdata$?AtlComModuleGetClassObject@ATL@@YAJPEAU_ATL_COM_MODULE70@1@AEBU_GUID@@1PEAPEAX@Z 0000000180032210     CashDrawer.obj
 0004:0000021c       $pdata$?AtlRegisterClassCategoriesHelper@ATL@@YAJAEBU_GUID@@PEBU_ATL_CATMAP_ENTRY@1@H@Z 000000018003221c     CashDrawer.obj
 0004:00000228       $pdata$?AtlLoadTypeLib@ATL@@YAJPEAUHINSTANCE__@@PEB_WPEAPEA_WPEAPEAUITypeLib@@@Z 0000000180032228     CashDrawer.obj
 0004:00000234       $pdata$?AtlRegisterTypeLib@ATL@@YAJPEAUHINSTANCE__@@PEB_W@Z 0000000180032234     CashDrawer.obj
 0004:00000240       $pdata$?AtlUnRegisterTypeLib@ATL@@YAJPEAUHINSTANCE__@@PEB_W@Z 0000000180032240     CashDrawer.obj
 0004:0000024c       $pdata$?AtlComModuleRegisterServer@ATL@@YAJPEAU_ATL_COM_MODULE70@1@HPEBU_GUID@@@Z 000000018003224c     CashDrawer.obj
 0004:00000258       $pdata$?AtlComModuleUnregisterServer@ATL@@YAJPEAU_ATL_COM_MODULE70@1@HPEBU_GUID@@@Z 0000000180032258     CashDrawer.obj
 0004:00000264       $pdata$?AtlModuleAddTermFunc@ATL@@YAJPEAU_ATL_MODULE70@1@P6AX_K@Z1@Z 0000000180032264     CashDrawer.obj
 0004:00000270       $pdata$?AtlCallTermFunc@ATL@@YAXPEAU_ATL_MODULE70@1@@Z 0000000180032270     CashDrawer.obj
 0004:0000027c       $pdata$?AtlWinModuleExtractCreateWndData@ATL@@YAPEAXPEAU_ATL_WIN_MODULE70@1@@Z 000000018003227c     CashDrawer.obj
 0004:00000288       $pdata$?atlCreate@CRegKey@ATL@@QEAAJPEAUHKEY__@@PEB_WPEA_WKKPEAU_SECURITY_ATTRIBUTES@@PEAK@Z 0000000180032288     CashDrawer.obj
 0004:00000294       $pdata$?Open@CRegKey@ATL@@QEAAJPEAUHKEY__@@PEB_WK@Z 0000000180032294     CashDrawer.obj
 0004:000002a0       $pdata$?DeleteSubKey@CRegKey@ATL@@QEAAJPEB_W@Z 00000001800322a0     CashDrawer.obj
 0004:000002ac       $pdata$?RecurseDeleteKey@CRegKey@ATL@@QEAAJPEB_W@Z 00000001800322ac     CashDrawer.obj
 0004:000002b8       $pdata$??0CAtlModule@ATL@@QEAA@XZ 00000001800322b8     CashDrawer.obj
 0004:000002c4       $pdata$?GetGITPtr@CAtlModule@ATL@@UEAAJPEAPEAUIGlobalInterfaceTable@@@Z 00000001800322c4     CashDrawer.obj
 0004:000002d0       $pdata$?UpdateRegistryFromResource@CAtlModule@ATL@@QEAAJPEB_WHPEAU_ATL_REGMAP_ENTRY@2@@Z 00000001800322d0     CashDrawer.obj
 0004:000002dc       $pdata$?UpdateRegistryFromResource@CAtlModule@ATL@@QEAAJIHPEAU_ATL_REGMAP_ENTRY@2@@Z 00000001800322dc     CashDrawer.obj
 0004:000002e8       $pdata$?Term@CComModule@ATL@@QEAAXXZ 00000001800322e8     CashDrawer.obj
 0004:000002f4       $pdata$?GetClassObject@CComModule@ATL@@QEAAJAEBU_GUID@@0PEAPEAX@Z 00000001800322f4     CashDrawer.obj
 0004:00000300       $pdata$?RegisterServer@CComModule@ATL@@QEAAJHPEBU_GUID@@@Z 0000000180032300     CashDrawer.obj
 0004:0000030c       $pdata$?UnregisterServer@CComModule@ATL@@QEAAJHPEBU_GUID@@@Z 000000018003230c     CashDrawer.obj
 0004:00000318       $pdata$??_GCComModule@ATL@@UEAAPEAXI@Z 0000000180032318     CashDrawer.obj
 0004:00000324       $pdata$?Add@?$CSimpleMap@PEA_WPEA_WVCExpansionVectorEqualHelper@ATL@@@ATL@@QEAAHAEBQEA_W0@Z 0000000180032324     CashDrawer.obj
 0004:00000330       $pdata$?Lookup@?$CSimpleMap@PEA_WPEA_WVCExpansionVectorEqualHelper@ATL@@@ATL@@QEBAPEA_WAEBQEA_W@Z 0000000180032330     CashDrawer.obj
 0004:0000033c       $pdata$?Add@CExpansionVector@ATL@@QEAAHPEB_W0@Z 000000018003233c     CashDrawer.obj
 0004:00000348       $pdata$?ClearReplacements@CExpansionVector@ATL@@QEAAJXZ 0000000180032348     CashDrawer.obj
 0004:00000354       $pdata$?PreProcessBuffer@CRegParser@ATL@@QEAAJPEA_WPEAPEA_W@Z 0000000180032354     CashDrawer.obj
 0004:00000360       $pdata$?RegisterBuffer@CRegParser@ATL@@QEAAJPEA_WH@Z 0000000180032360     CashDrawer.obj
 0004:0000036c       $pdata$?NextToken@CRegParser@ATL@@IEAAJPEA_W@Z 000000018003236c     CashDrawer.obj
 0004:00000378       $pdata$?AddValue@CRegParser@ATL@@IEAAJAEAVCRegKey@2@PEB_WPEA_W@Z 0000000180032378     CashDrawer.obj
 0004:00000384       $pdata$?RegisterSubkeys@CRegParser@ATL@@IEAAJPEA_WPEAUHKEY__@@HH@Z 0000000180032384     CashDrawer.obj
 0004:00000390       $pdata$?SkipAssignment@CRegParser@ATL@@IEAAJPEA_W@Z 0000000180032390     CashDrawer.obj
 0004:0000039c       $pdata$?HKeyFromString@CRegParser@ATL@@KAPEAUHKEY__@@PEA_W@Z 000000018003239c     CashDrawer.obj
 0004:000003a8       $pdata$?VTFromRegType@CRegParser@ATL@@KAHPEB_WAEAG@Z 00000001800323a8     CashDrawer.obj
 0004:000003b4       $pdata$?Append@CParseBuffer@CRegParser@ATL@@QEAAHPEB_WH@Z 00000001800323b4     CashDrawer.obj
 0004:000003c0       $pdata$?AddReplacement@CRegObject@ATL@@UEAAJPEB_W0@Z 00000001800323c0     CashDrawer.obj
 0004:000003cc       $pdata$?RegisterFromResource@CRegObject@ATL@@IEAAJPEB_W00H@Z 00000001800323cc     CashDrawer.obj
 0004:000003d8       $pdata$??_GCRegObject@ATL@@UEAAPEAXI@Z 00000001800323d8     CashDrawer.obj
 0004:000003e4       $pdata$?AllocateHeap@?$CTempBuffer@_W$0EAA@VCCRTAllocator@ATL@@@ATL@@AEAAX_K@Z 00000001800323e4     CashDrawer.obj
 0004:000003e4       $pdata$?AllocateHeap@?$CTempBuffer@E$0BAA@VCCRTAllocator@ATL@@@ATL@@AEAAX_K@Z 00000001800323e4     CashDrawer.obj
 0004:000003e4       $pdata$?AllocateHeap@?$CTempBuffer@_W$0BAA@VCCRTAllocator@ATL@@@ATL@@AEAAX_K@Z 00000001800323e4     CashDrawer.obj
 0004:000003f0       $pdata$?IsEqualObject@?$CComPtrBase@UIOleClientSite@@@ATL@@QEAA_NPEAUIUnknown@@@Z 00000001800323f0     CashDrawer.obj
 0004:000003f0       $pdata$?IsEqualObject@?$CComPtrBase@UITypeInfo@@@ATL@@QEAA_NPEAUIUnknown@@@Z 00000001800323f0     CashDrawer.obj
 0004:000003fc       $pdata$?AtlIPersistStreamInit_Load@ATL@@YAJPEAUIStream@@PEBUATL_PROPMAP_ENTRY@1@PEAXPEAUIUnknown@@@Z 00000001800323fc     CashDrawer.obj
 0004:00000408       $pdata$?AtlIPersistStreamInit_Save@ATL@@YAJPEAUIStream@@HPEBUATL_PROPMAP_ENTRY@1@PEAXPEAUIUnknown@@@Z 0000000180032408     CashDrawer.obj
 0004:00000414       $pdata$?CreateInstance@CComClassFactory@ATL@@UEAAJPEAUIUnknown@@AEBU_GUID@@PEAPEAX@Z 0000000180032414     CashDrawer.obj
 0004:00000420       $pdata$?LockServer@CComClassFactory@ATL@@UEAAJH@Z 0000000180032420     CashDrawer.obj
 0004:0000042c       $pdata$??_GCComClassFactory@ATL@@UEAAPEAXI@Z 000000018003242c     CashDrawer.obj
 0004:00000438       $pdata$?GetTI@CComTypeInfoHolder@ATL@@QEAAJK@Z 0000000180032438     CashDrawer.obj
 0004:00000444       $pdata$?Cleanup@CComTypeInfoHolder@ATL@@SAX_K@Z 0000000180032444     CashDrawer.obj
 0004:00000450       $pdata$?GetIDsOfNames@CComTypeInfoHolder@ATL@@QEAAJAEBU_GUID@@PEAPEA_WIKPEAJ@Z 0000000180032450     CashDrawer.obj
 0004:0000045c       $pdata$?LoadNameCache@CComTypeInfoHolder@ATL@@QEAAJPEAUITypeInfo@@@Z 000000018003245c     CashDrawer.obj
 0004:00000468       $pdata$?Add@CComDynamicUnkArray@ATL@@QEAAKPEAUIUnknown@@@Z 0000000180032468     CashDrawer.obj
 0004:00000474       $pdata$?AtlCreateTargetDC@ATL@@YAPEAUHDC__@@PEAU2@PEAUtagDVTARGETDEVICE@@@Z 0000000180032474     CashDrawer.obj
 0004:00000480       $pdata$?AtlHiMetricToPixel@ATL@@YAXPEBUtagSIZE@@PEAU2@@Z 0000000180032480     CashDrawer.obj
 0004:0000048c       $pdata$?DefaultReflectionHandler@?$CWindowImplRoot@VCWindow@ATL@@@ATL@@SAHPEAUHWND__@@I_K_JAEA_J@Z 000000018003248c     CashDrawer.obj
 0004:00000498       $pdata$?StartWindowProc@?$CWindowImplBaseT@VCWindow@ATL@@V?$CWinTraits@$0FGAAAAAA@$0A@@2@@ATL@@SA_JPEAUHWND__@@I_K_J@Z 0000000180032498     CashDrawer.obj
 0004:000004a4       $pdata$?WindowProc@?$CWindowImplBaseT@VCWindow@ATL@@V?$CWinTraits@$0FGAAAAAA@$0A@@2@@ATL@@SA_JPEAUHWND__@@I_K_J@Z 00000001800324a4     CashDrawer.obj
 0004:000004b0       $pdata$?atlCreate@?$CWindowImplBaseT@VCWindow@ATL@@V?$CWinTraits@$0FGAAAAAA@$0A@@2@@ATL@@QEAAPEAUHWND__@@PEAU3@V_U_RECT@2@PEB_WKKV_U_MENUorID@2@GPEAX@Z 00000001800324b0     CashDrawer.obj
 0004:000004bc       $pdata$??$AtlModuleRegisterWndClassInfoT@VAtlModuleRegisterWndClassInfoParamW@ATL@@@ATL@@YAGPEAU_ATL_BASE_MODULE70@0@PEAU_ATL_WIN_MODULE70@0@PEAU_ATL_WNDCLASSINFOW@0@PEAP6A_JPEAUHWND__@@I_K_J@ZVAtlModuleRegisterWndClassInfoParamW@0@@Z 00000001800324bc     CashDrawer.obj
 0004:000004c8       $pdata$?GetZoomInfo@CComControlBase@ATL@@QEAAXAEAUATL_DRAWINFO@@@Z 00000001800324c8     CashDrawer.obj
 0004:000004d4       $pdata$?SendOnDataChange@CComControlBase@ATL@@QEAAJK@Z 00000001800324d4     CashDrawer.obj
 0004:000004e0       $pdata$?OnSetFocus@CComControlBase@ATL@@QEAA_JI_K_JAEAH@Z 00000001800324e0     CashDrawer.obj
 0004:000004ec       $pdata$?OnKillFocus@CComControlBase@ATL@@QEAA_JI_K_JAEAH@Z 00000001800324ec     CashDrawer.obj
 0004:000004f8       $pdata$?OnMouseActivate@CComControlBase@ATL@@QEAA_JI_K_JAEAH@Z 00000001800324f8     CashDrawer.obj
 0004:00000504       $pdata$?GetAmbientLocaleID@CComControlBase@ATL@@QEAAJAEAK@Z 0000000180032504     CashDrawer.obj
 0004:00000510       $pdata$?GetAmbientUserMode@CComControlBase@ATL@@QEAAJAEAH@Z 0000000180032510     CashDrawer.obj
 0004:0000051c       $pdata$?SetControlFocus@CComControlBase@ATL@@QEAAHH@Z 000000018003251c     CashDrawer.obj
 0004:00000528       $pdata$?IQuickActivate_QuickActivate@CComControlBase@ATL@@QEAAJPEAUtagQACONTAINER@@PEAUtagQACONTROL@@@Z 0000000180032528     CashDrawer.obj
 0004:00000534       $pdata$?DoVerbProperties@CComControlBase@ATL@@QEAAJPEBUtagRECT@@PEAUHWND__@@@Z 0000000180032534     CashDrawer.obj
 0004:00000540       $pdata$?InPlaceActivate@CComControlBase@ATL@@QEAAJJPEBUtagRECT@@@Z 0000000180032540     CashDrawer.obj
 0004:0000054c       $pdata$?IOleObject_SetClientSite@CComControlBase@ATL@@QEAAJPEAUIOleClientSite@@@Z 000000018003254c     CashDrawer.obj
 0004:00000558       $pdata$?IOleObject_Close@CComControlBase@ATL@@QEAAJK@Z 0000000180032558     CashDrawer.obj
 0004:00000564       $pdata$?IOleObject_SetExtent@CComControlBase@ATL@@QEAAJKPEAUtagSIZE@@@Z 0000000180032564     CashDrawer.obj
 0004:00000570       $pdata$?IOleInPlaceObject_InPlaceDeactivate@CComControlBase@ATL@@QEAAJXZ 0000000180032570     CashDrawer.obj
 0004:0000057c       $pdata$?IOleInPlaceObject_UIDeactivate@CComControlBase@ATL@@QEAAJXZ 000000018003257c     CashDrawer.obj
 0004:00000588       $pdata$?IOleInPlaceObject_SetObjectRects@CComControlBase@ATL@@QEAAJPEBUtagRECT@@0@Z 0000000180032588     CashDrawer.obj
 0004:00000594       $pdata$?IViewObject_Draw@CComControlBase@ATL@@QEAAJKJPEAXPEAUtagDVTARGETDEVICE@@PEAUHDC__@@2PEBU_RECTL@@3@Z 0000000180032594     CashDrawer.obj
 0004:000005a0       $pdata$?IDataObject_GetData@CComControlBase@ATL@@QEAAJPEAUtagFORMATETC@@PEAUtagSTGMEDIUM@@@Z 00000001800325a0     CashDrawer.obj
 0004:000005ac       $pdata$?FireViewChange@CComControlBase@ATL@@QEAAJXZ 00000001800325ac     CashDrawer.obj
 0004:000005b8       $pdata$?OnPaint@CComControlBase@ATL@@QEAA_JI_K_JAEAH@Z 00000001800325b8     CashDrawer.obj
 0004:000005c4       $pdata$?OnDrawAdvanced@CComControlBase@ATL@@UEAAJAEAUATL_DRAWINFO@@@Z 00000001800325c4     CashDrawer.obj
 0004:000005d0       $pdata$?GetTypeInfo@?$IDispatchImpl@UIOPOSCashDrawer@@$1?IID_IOPOSCashDrawer@@3U_GUID@@B$1?LIBID_OposCashDrawer_CCO@@3U3@B$00$0A@VCComTypeInfoHolder@ATL@@@ATL@@UEAAJIKPEAPEAUITypeInfo@@@Z 00000001800325d0     CashDrawer.obj
 0004:000005dc       $pdata$?Invoke@?$IDispatchImpl@UIOPOSCashDrawer@@$1?IID_IOPOSCashDrawer@@3U_GUID@@B$1?LIBID_OposCashDrawer_CCO@@3U3@B$00$0A@VCComTypeInfoHolder@ATL@@@ATL@@UEAAJJAEBU_GUID@@KGPEAUtagDISPPARAMS@@PEAUtagVARIANT@@PEAUtagEXCEPINFO@@PEAI@Z 00000001800325dc     CashDrawer.obj
 0004:000005e8       $pdata$?atlCreate@?$CWindowImpl@VCOPOSCashDrawer@@VCWindow@ATL@@V?$CWinTraits@$0FGAAAAAA@$0A@@3@@ATL@@QEAAPEAUHWND__@@PEAU3@V_U_RECT@2@PEB_WKKV_U_MENUorID@2@PEAX@Z 00000001800325e8     CashDrawer.obj
 0004:000005f4       $pdata$?CreateControlWindow@?$CComControl@VCOPOSCashDrawer@@V?$CWindowImpl@VCOPOSCashDrawer@@VCWindow@ATL@@V?$CWinTraits@$0FGAAAAAA@$0A@@3@@ATL@@@ATL@@UEAAPEAUHWND__@@PEAU3@AEAUtagRECT@@@Z 00000001800325f4     CashDrawer.obj
 0004:00000600       $pdata$?ProcessWindowMessage@?$CComControl@VCOPOSCashDrawer@@V?$CWindowImpl@VCOPOSCashDrawer@@VCWindow@ATL@@V?$CWinTraits@$0FGAAAAAA@$0A@@3@@ATL@@@ATL@@UEAAHPEAUHWND__@@I_K_JAEA_JK@Z 0000000180032600     CashDrawer.obj
 0004:0000060c       $pdata$?Load@?$IPersistStreamInitImpl@VCOPOSCashDrawer@@@ATL@@UEAAJPEAUIStream@@@Z 000000018003260c     CashDrawer.obj
 0004:00000618       $pdata$?Save@?$IPersistStreamInitImpl@VCOPOSCashDrawer@@@ATL@@UEAAJPEAUIStream@@H@Z 0000000180032618     CashDrawer.obj
 0004:00000624       $pdata$?GetSizeMax@?$IPersistStreamInitImpl@VCOPOSCashDrawer@@@ATL@@UEAAJPEAT_ULARGE_INTEGER@@@Z 0000000180032624     CashDrawer.obj
 0004:00000630       $pdata$?GetClientSite@?$IOleObjectImpl@VCOPOSCashDrawer@@@ATL@@UEAAJPEAPEAUIOleClientSite@@@Z 0000000180032630     CashDrawer.obj
 0004:0000063c       $pdata$?DoVerbPrimary@?$IOleObjectImpl@VCOPOSCashDrawer@@@ATL@@QEAAJPEBUtagRECT@@PEAUHWND__@@@Z 000000018003263c     CashDrawer.obj
 0004:00000648       $pdata$?DoVerb@?$IOleObjectImpl@VCOPOSCashDrawer@@@ATL@@UEAAJJPEAUtagMSG@@PEAUIOleClientSite@@JPEAUHWND__@@PEBUtagRECT@@@Z 0000000180032648     CashDrawer.obj
 0004:00000654       $pdata$?Advise@?$IOleObjectImpl@VCOPOSCashDrawer@@@ATL@@UEAAJPEAUIAdviseSink@@PEAK@Z 0000000180032654     CashDrawer.obj
 0004:00000660       $pdata$?Unadvise@?$IOleObjectImpl@VCOPOSCashDrawer@@@ATL@@UEAAJK@Z 0000000180032660     CashDrawer.obj
 0004:0000066c       $pdata$?EnumAdvise@?$IOleObjectImpl@VCOPOSCashDrawer@@@ATL@@UEAAJPEAPEAUIEnumSTATDATA@@@Z 000000018003266c     CashDrawer.obj
 0004:00000678       $pdata$?TranslateAcceleratorW@?$IOleInPlaceActiveObjectImpl@VCOPOSCashDrawer@@@ATL@@UEAAJPEAUtagMSG@@@Z 0000000180032678     CashDrawer.obj
 0004:00000684       $pdata$?OnDocWindowActivate@?$IOleInPlaceActiveObjectImpl@VCOPOSCashDrawer@@@ATL@@UEAAJH@Z 0000000180032684     CashDrawer.obj
 0004:00000690       $pdata$?Draw@?$IViewObjectExImpl@VCOPOSCashDrawer@@@ATL@@UEAAJKJPEAXPEAUtagDVTARGETDEVICE@@PEAUHDC__@@2PEBU_RECTL@@3P6AH_K@Z4@Z 0000000180032690     CashDrawer.obj
 0004:0000069c       $pdata$?SetAdvise@?$IViewObjectExImpl@VCOPOSCashDrawer@@@ATL@@UEAAJKKPEAUIAdviseSink@@@Z 000000018003269c     CashDrawer.obj
 0004:000006a8       $pdata$?GetAdvise@?$IViewObjectExImpl@VCOPOSCashDrawer@@@ATL@@UEAAJPEAK0PEAPEAUIAdviseSink@@@Z 00000001800326a8     CashDrawer.obj
 0004:000006b4       $pdata$?QueryHitPoint@?$IViewObjectExImpl@VCOPOSCashDrawer@@@ATL@@UEAAJKPEBUtagRECT@@UtagPOINT@@JPEAK@Z 00000001800326b4     CashDrawer.obj
 0004:000006c0       $pdata$?QueryHitRect@?$IViewObjectExImpl@VCOPOSCashDrawer@@@ATL@@UEAAJKPEBUtagRECT@@0JPEAK@Z 00000001800326c0     CashDrawer.obj
 0004:000006cc       $pdata$?OnWindowMessage@?$IOleInPlaceObjectWindowlessImpl@VCOPOSCashDrawer@@@ATL@@UEAAJI_K_JPEA_J@Z 00000001800326cc     CashDrawer.obj
 0004:000006d8       $pdata$?EnumConnectionPoints@?$IConnectionPointContainerImpl@VCOPOSCashDrawer@@@ATL@@UEAAJPEAPEAUIEnumConnectionPoints@@@Z 00000001800326d8     CashDrawer.obj
 0004:000006e4       $pdata$?FindConnectionPoint@?$IConnectionPointContainerImpl@VCOPOSCashDrawer@@@ATL@@UEAAJAEBU_GUID@@PEAPEAUIConnectionPoint@@@Z 00000001800326e4     CashDrawer.obj
 0004:000006f0       $pdata$?IsDirty@?$IPersistStorageImpl@VCOPOSCashDrawer@@@ATL@@UEAAJXZ 00000001800326f0     CashDrawer.obj
 0004:000006fc       $pdata$?InitNew@?$IPersistStorageImpl@VCOPOSCashDrawer@@@ATL@@UEAAJPEAUIStorage@@@Z 00000001800326fc     CashDrawer.obj
 0004:00000708       $pdata$?Load@?$IPersistStorageImpl@VCOPOSCashDrawer@@@ATL@@UEAAJPEAUIStorage@@@Z 0000000180032708     CashDrawer.obj
 0004:00000714       $pdata$?Save@?$IPersistStorageImpl@VCOPOSCashDrawer@@@ATL@@UEAAJPEAUIStorage@@H@Z 0000000180032714     CashDrawer.obj
 0004:00000720       $pdata$?IPSI_GetIPersistStreamInit@?$IPersistStorageImpl@VCOPOSCashDrawer@@@ATL@@AEAAPEAUIPersistStreamInit@@XZ 0000000180032720     CashDrawer.obj
 0004:0000072c       $pdata$?GetPagesHelper@?$ISpecifyPropertyPagesImpl@VCOPOSCashDrawer@@@ATL@@IEAAJPEAUtagCAUUID@@PEBUATL_PROPMAP_ENTRY@2@@Z 000000018003272c     CashDrawer.obj
 0004:00000738       $pdata$?DAdvise@?$IDataObjectImpl@VCOPOSCashDrawer@@@ATL@@UEAAJPEAUtagFORMATETC@@KPEAUIAdviseSink@@PEAK@Z 0000000180032738     CashDrawer.obj
 0004:00000744       $pdata$?GetClassInfoW@?$IProvideClassInfo2Impl@$1?CLSID_OPOSCashDrawer@@3U_GUID@@B$1?DIID__IOPOSCashDrawerEvents@@3U2@B$1?LIBID_OposCashDrawer_CCO@@3U2@B$00$0A@VCComTypeInfoHolder@ATL@@@ATL@@UEAAJPEAPEAUITypeInfo@@@Z 0000000180032744     CashDrawer.obj
 0004:00000750       $pdata$?GetInterfaceSafetyOptions@?$IObjectSafetyImpl@VCOPOSCashDrawer@@$02@ATL@@UEAAJAEBU_GUID@@PEAK1@Z 0000000180032750     CashDrawer.obj
 0004:0000075c       $pdata$?SetInterfaceSafetyOptions@?$IObjectSafetyImpl@VCOPOSCashDrawer@@$02@ATL@@UEAAJAEBU_GUID@@KK@Z 000000018003275c     CashDrawer.obj
 0004:00000768       $pdata$?_LocCPQueryInterface@?$IConnectionPointImpl@VCOPOSCashDrawer@@$1?IID_IPropertyNotifySink@@3U_GUID@@BVCComDynamicUnkArray@ATL@@@ATL@@UEAAJAEBU_GUID@@PEAPEAX@Z 0000000180032768     CashDrawer.obj
 0004:00000768       $pdata$?_LocCPQueryInterface@?$IConnectionPointImpl@VCOPOSCashDrawer@@$1?DIID__IOPOSCashDrawerEvents@@3U_GUID@@BVCComDynamicUnkArray@ATL@@@ATL@@UEAAJAEBU_GUID@@PEAPEAX@Z 0000000180032768     CashDrawer.obj
 0004:00000774       $pdata$?Advise@?$IConnectionPointImpl@VCOPOSCashDrawer@@$1?DIID__IOPOSCashDrawerEvents@@3U_GUID@@BVCComDynamicUnkArray@ATL@@@ATL@@UEAAJPEAUIUnknown@@PEAK@Z 0000000180032774     CashDrawer.obj
 0004:00000774       $pdata$?Advise@?$IConnectionPointImpl@VCOPOSCashDrawer@@$1?IID_IPropertyNotifySink@@3U_GUID@@BVCComDynamicUnkArray@ATL@@@ATL@@UEAAJPEAUIUnknown@@PEAK@Z 0000000180032774     CashDrawer.obj
 0004:00000780       $pdata$?Unadvise@?$IConnectionPointImpl@VCOPOSCashDrawer@@$1?DIID__IOPOSCashDrawerEvents@@3U_GUID@@BVCComDynamicUnkArray@ATL@@@ATL@@UEAAJK@Z 0000000180032780     CashDrawer.obj
 0004:00000780       $pdata$?Unadvise@?$IConnectionPointImpl@VCOPOSCashDrawer@@$1?IID_IPropertyNotifySink@@3U_GUID@@BVCComDynamicUnkArray@ATL@@@ATL@@UEAAJK@Z 0000000180032780     CashDrawer.obj
 0004:0000078c       $pdata$?EnumConnections@?$IConnectionPointImpl@VCOPOSCashDrawer@@$1?IID_IPropertyNotifySink@@3U_GUID@@BVCComDynamicUnkArray@ATL@@@ATL@@UEAAJPEAPEAUIEnumConnections@@@Z 000000018003278c     CashDrawer.obj
 0004:0000078c       $pdata$?EnumConnections@?$IConnectionPointImpl@VCOPOSCashDrawer@@$1?DIID__IOPOSCashDrawerEvents@@3U_GUID@@BVCComDynamicUnkArray@ATL@@@ATL@@UEAAJPEAPEAUIEnumConnections@@@Z 000000018003278c     CashDrawer.obj
 0004:00000798       $pdata$?Fire_DirectIOEvent@?$CProxy_IOPOSEvents@VCOPOSCashDrawer@@@@QEAAXJPEAJPEAPEA_W@Z 0000000180032798     CashDrawer.obj
 0004:000007a4       $pdata$?Fire_StatusUpdateEvent@?$CProxy_IOPOSEvents@VCOPOSCashDrawer@@@@QEAAXJ@Z 00000001800327a4     CashDrawer.obj
 0004:000007b0       $pdata$?FireTheEvent@?$CProxy_IOPOSEvents@VCOPOSCashDrawer@@@@IEAAXPEAVOposVariant@@IAEAJPEB_WJ@Z 00000001800327b0     CashDrawer.obj
 0004:000007bc       $pdata$?GetConnMap@COPOSCashDrawer@@SAPEBU_ATL_CONNMAP_ENTRY@ATL@@PEAH@Z 00000001800327bc     CashDrawer.obj
 0004:000007c8       $pdata$?ProcessWindowMessage@COPOSCashDrawer@@UEAAHPEAUHWND__@@I_K_JAEA_JK@Z 00000001800327c8     CashDrawer.obj
 0004:000007d4       $pdata$?SODirectIO@COPOSCashDrawer@@MEAAJJPEAJPEAPEA_W@Z 00000001800327d4     CashDrawer.obj
 0004:000007e0       $pdata$?SOStatusUpdate@COPOSCashDrawer@@MEAAJJ@Z 00000001800327e0     CashDrawer.obj
 0004:000007ec       $pdata$?DoEvent@COPOSCashDrawer@@IEAAXI_K_J@Z 00000001800327ec     CashDrawer.obj
 0004:000007f8       $pdata$??__E_Module@@YAXXZ 00000001800327f8     CashDrawer.obj
 0004:00000804       $pdata$??__F_Module@@YAXXZ 0000000180032804     CashDrawer.obj
 0004:00000810       $pdata$?CreateInstance@?$CComCreator@V?$CComObjectCached@VCComClassFactory@ATL@@@ATL@@@ATL@@SAJPEAXAEBU_GUID@@PEAPEAX@Z 0000000180032810     CashDrawer.obj
 0004:0000081c       $pdata$DllMain             000000018003281c     CashDrawer.obj
 0004:00000828       $pdata$?CreateInstance@?$CComCreator@V?$CComObject@VCOPOSCashDrawer@@@ATL@@@ATL@@SAJPEAXAEBU_GUID@@PEAPEAX@Z 0000000180032828     CashDrawer.obj
 0004:00000834       $pdata$?CreateInstance@?$CComCreator@V?$CComAggObject@VCOPOSCashDrawer@@@ATL@@@ATL@@SAJPEAXAEBU_GUID@@PEAPEAX@Z 0000000180032834     CashDrawer.obj
 0004:00000840       $pdata$??1?$CComEnumImpl@UIEnumConnectionPoints@@$1?_GUID_b196b285_bab4_101a_b69c_00aa00341d07@@3U__s_GUID@@BPEAUIConnectionPoint@@V?$_CopyInterface@UIConnectionPoint@@@ATL@@@ATL@@UEAA@XZ 0000000180032840     CashDrawer.obj
 0004:0000084c       $pdata$?Next@?$CComEnumImpl@UIEnumConnectionPoints@@$1?_GUID_b196b285_bab4_101a_b69c_00aa00341d07@@3U__s_GUID@@BPEAUIConnectionPoint@@V?$_CopyInterface@UIConnectionPoint@@@ATL@@@ATL@@UEAAJKPEAPEAUIConnectionPoint@@PEAK@Z 000000018003284c     CashDrawer.obj
 0004:00000858       $pdata$?Clone@?$CComEnumImpl@UIEnumConnectionPoints@@$1?_GUID_b196b285_bab4_101a_b69c_00aa00341d07@@3U__s_GUID@@BPEAUIConnectionPoint@@V?$_CopyInterface@UIConnectionPoint@@@ATL@@@ATL@@UEAAJPEAPEAUIEnumConnectionPoints@@@Z 0000000180032858     CashDrawer.obj
 0004:00000864       $pdata$?Init@?$CComEnumImpl@UIEnumConnectionPoints@@$1?_GUID_b196b285_bab4_101a_b69c_00aa00341d07@@3U__s_GUID@@BPEAUIConnectionPoint@@V?$_CopyInterface@UIConnectionPoint@@@ATL@@@ATL@@QEAAJPEAPEAUIConnectionPoint@@0PEAUIUnknown@@W4CComEnumFlags@2@@Z 0000000180032864     CashDrawer.obj
 0004:00000870       $pdata$?Release@?$CComObject@V?$CComEnum@UIEnumConnections@@$1?_GUID_b196b287_bab4_101a_b69c_00aa00341d07@@3U__s_GUID@@BUtagCONNECTDATA@@V?$_Copy@UtagCONNECTDATA@@@ATL@@VCComSingleThreadModel@6@@ATL@@@ATL@@UEAAKXZ 0000000180032870     CashDrawer.obj
 0004:00000870       $pdata$?Release@?$CComObject@V?$CComEnum@UIEnumConnectionPoints@@$1?_GUID_b196b285_bab4_101a_b69c_00aa00341d07@@3U__s_GUID@@BPEAUIConnectionPoint@@V?$_CopyInterface@UIConnectionPoint@@@ATL@@VCComSingleThreadModel@6@@ATL@@@ATL@@UEAAKXZ 0000000180032870     CashDrawer.obj
 0004:0000087c       $pdata$?CreateInstance@?$CComObject@V?$CComEnum@UIEnumConnectionPoints@@$1?_GUID_b196b285_bab4_101a_b69c_00aa00341d07@@3U__s_GUID@@BPEAUIConnectionPoint@@V?$_CopyInterface@UIConnectionPoint@@@ATL@@VCComSingleThreadModel@6@@ATL@@@ATL@@SAJPEAPEAV12@@Z 000000018003287c     CashDrawer.obj
 0004:00000888       $pdata$??_G?$CComObject@V?$CComEnum@UIEnumConnectionPoints@@$1?_GUID_b196b285_bab4_101a_b69c_00aa00341d07@@3U__s_GUID@@BPEAUIConnectionPoint@@V?$_CopyInterface@UIConnectionPoint@@@ATL@@VCComSingleThreadModel@6@@ATL@@@ATL@@UEAAPEAXI@Z 0000000180032888     CashDrawer.obj
 0004:00000894       $pdata$?AddRef@?$CComObjectCached@VCComClassFactory@ATL@@@ATL@@UEAAKXZ 0000000180032894     CashDrawer.obj
 0004:000008a0       $pdata$?Release@?$CComObjectCached@VCComClassFactory@ATL@@@ATL@@UEAAKXZ 00000001800328a0     CashDrawer.obj
 0004:000008ac       $pdata$??_G?$CComObjectCached@VCComClassFactory@ATL@@@ATL@@UEAAPEAXI@Z 00000001800328ac     CashDrawer.obj
 0004:000008b8       $pdata$?Release@?$CComAggObject@VCOPOSCashDrawer@@@ATL@@UEAAKXZ 00000001800328b8     CashDrawer.obj
 0004:000008c4       $pdata$?QueryInterface@?$CComAggObject@VCOPOSCashDrawer@@@ATL@@UEAAJAEBU_GUID@@PEAPEAX@Z 00000001800328c4     CashDrawer.obj
 0004:000008d0       $pdata$??0?$CComContainedObject@VCOPOSCashDrawer@@@ATL@@QEAA@PEAX@Z 00000001800328d0     CashDrawer.obj
 0004:000008dc       $pdata$??_G?$CComContainedObject@VCOPOSCashDrawer@@@ATL@@UEAAPEAXI@Z 00000001800328dc     CashDrawer.obj
 0004:000008e8       $pdata$??_G?$CComAggObject@VCOPOSCashDrawer@@@ATL@@UEAAPEAXI@Z 00000001800328e8     CashDrawer.obj
 0004:000008f4       $pdata$??0?$CComObject@VCOPOSCashDrawer@@@ATL@@QEAA@PEAX@Z 00000001800328f4     CashDrawer.obj
 0004:00000900       $pdata$??1?$CComObject@VCOPOSCashDrawer@@@ATL@@UEAA@XZ 0000000180032900     CashDrawer.obj
 0004:0000090c       $pdata$?Release@?$CComObject@VCOPOSCashDrawer@@@ATL@@UEAAKXZ 000000018003290c     CashDrawer.obj
 0004:00000918       $pdata$??_G?$CComObject@VCOPOSCashDrawer@@@ATL@@UEAAPEAXI@Z 0000000180032918     CashDrawer.obj
 0004:00000924       $pdata$??__E?pConnMap@?$IConnectionPointContainerImpl@VCOPOSCashDrawer@@@ATL@@0PEBU_ATL_CONNMAP_ENTRY@2@EB@@YAXXZ 0000000180032924     CashDrawer.obj
 0004:00000930       $pdata$??1?$CComEnumImpl@UIEnumConnections@@$1?_GUID_b196b287_bab4_101a_b69c_00aa00341d07@@3U__s_GUID@@BUtagCONNECTDATA@@V?$_Copy@UtagCONNECTDATA@@@ATL@@@ATL@@UEAA@XZ 0000000180032930     CashDrawer.obj
 0004:0000093c       $pdata$?Next@?$CComEnumImpl@UIEnumConnections@@$1?_GUID_b196b287_bab4_101a_b69c_00aa00341d07@@3U__s_GUID@@BUtagCONNECTDATA@@V?$_Copy@UtagCONNECTDATA@@@ATL@@@ATL@@UEAAJKPEAUtagCONNECTDATA@@PEAK@Z 000000018003293c     CashDrawer.obj
 0004:00000948       $pdata$?Clone@?$CComEnumImpl@UIEnumConnections@@$1?_GUID_b196b287_bab4_101a_b69c_00aa00341d07@@3U__s_GUID@@BUtagCONNECTDATA@@V?$_Copy@UtagCONNECTDATA@@@ATL@@@ATL@@UEAAJPEAPEAUIEnumConnections@@@Z 0000000180032948     CashDrawer.obj
 0004:00000954       $pdata$?Init@?$CComEnumImpl@UIEnumConnections@@$1?_GUID_b196b287_bab4_101a_b69c_00aa00341d07@@3U__s_GUID@@BUtagCONNECTDATA@@V?$_Copy@UtagCONNECTDATA@@@ATL@@@ATL@@QEAAJPEAUtagCONNECTDATA@@0PEAUIUnknown@@W4CComEnumFlags@2@@Z 0000000180032954     CashDrawer.obj
 0004:00000960       $pdata$?CreateInstance@?$CComObject@V?$CComEnum@UIEnumConnections@@$1?_GUID_b196b287_bab4_101a_b69c_00aa00341d07@@3U__s_GUID@@BUtagCONNECTDATA@@V?$_Copy@UtagCONNECTDATA@@@ATL@@VCComSingleThreadModel@6@@ATL@@@ATL@@SAJPEAPEAV12@@Z 0000000180032960     CashDrawer.obj
 0004:0000096c       $pdata$??_G?$CComObject@V?$CComEnum@UIEnumConnections@@$1?_GUID_b196b287_bab4_101a_b69c_00aa00341d07@@3U__s_GUID@@BUtagCONNECTDATA@@V?$_Copy@UtagCONNECTDATA@@@ATL@@VCComSingleThreadModel@6@@ATL@@@ATL@@UEAAPEAXI@Z 000000018003296c     CashDrawer.obj
 0004:00000978       $pdata$??1CComControlBase@ATL@@UEAA@XZ 0000000180032978     CashDrawerImpl.obj
 0004:00000984       $pdata$??1?$IConnectionPointImpl@VCOPOSCashDrawer@@$1?IID_IPropertyNotifySink@@3U_GUID@@BVCComDynamicUnkArray@ATL@@@ATL@@QEAA@XZ 0000000180032984     CashDrawerImpl.obj
 0004:00000984       $pdata$??1?$IConnectionPointImpl@VCOPOSCashDrawer@@$1?DIID__IOPOSCashDrawerEvents@@3U_GUID@@BVCComDynamicUnkArray@ATL@@@ATL@@QEAA@XZ 0000000180032984     CashDrawerImpl.obj
 0004:00000990       $pdata$?FinalConstruct@COPOSCashDrawer@@QEAAJXZ 0000000180032990     CashDrawerImpl.obj
 0004:0000099c       $pdata$??1COPOSCashDrawer@@UEAA@XZ 000000018003299c     CashDrawerImpl.obj
 0004:000009a8       $pdata$?GetOposProp@COPOSCashDrawer@@IEAAJJPEAJJ@Z 00000001800329a8     CashDrawerImpl.obj
 0004:000009b4       $pdata$?SetOposProp@COPOSCashDrawer@@IEAAJJJJ@Z 00000001800329b4     CashDrawerImpl.obj
 0004:000009c0       $pdata$?GetOposProp@COPOSCashDrawer@@IEAAJJPEAPEA_WJ@Z 00000001800329c0     CashDrawerImpl.obj
 0004:000009cc       $pdata$?DoInvoke@COPOSCashDrawer@@IEAAJJPEAVOposVariant@@IHPEAJ_N@Z 00000001800329cc     CashDrawerImpl.obj
 0004:000009d8       $pdata$?SetCOFreezeEvents@COPOSCashDrawer@@IEAAXF@Z 00000001800329d8     CashDrawerImpl.obj
 0004:000009e4       $pdata$?FreezeEvents@COPOSCashDrawer@@MEAAJH@Z 00000001800329e4     CashDrawerImpl.obj
 0004:000009f0       $pdata$?OnDraw@COPOSCashDrawer@@MEAAJAEAUATL_DRAWINFO@@@Z 00000001800329f0     CashDrawerImpl.obj
 0004:000009fc       $pdata$?EventInit@COPOSCashDrawer@@IEAAJXZ 00000001800329fc     CashDrawerImpl.obj
 0004:00000a08       $pdata$?EventUninit@COPOSCashDrawer@@IEAAXXZ 0000000180032a08     CashDrawerImpl.obj
 0004:00000a14       $pdata$?s_EventWindowProc@COPOSCashDrawer@@KA_JPEAUHWND__@@I_K_J@Z 0000000180032a14     CashDrawerImpl.obj
 0004:00000a20       $pdata$?EventWindowProc@COPOSCashDrawer@@IEAA_JI_K_J@Z 0000000180032a20     CashDrawerImpl.obj
 0004:00000a2c       $pdata$?SOProcessID@COPOSCashDrawer@@UEAAJPEAJ@Z 0000000180032a2c     CashDrawerImpl.obj
 0004:00000a38       $pdata$?get_Claimed@COPOSCashDrawer@@UEAAJPEAF@Z 0000000180032a38     CashDrawerImpl.obj
 0004:00000a44       $pdata$?get_DeviceEnabled@COPOSCashDrawer@@UEAAJPEAF@Z 0000000180032a44     CashDrawerImpl.obj
 0004:00000a50       $pdata$?get_FreezeEvents@COPOSCashDrawer@@UEAAJPEAF@Z 0000000180032a50     CashDrawerImpl.obj
 0004:00000a5c       $pdata$?put_FreezeEvents@COPOSCashDrawer@@UEAAJF@Z 0000000180032a5c     CashDrawerImpl.obj
 0004:00000a68       $pdata$?get_ResultCode@COPOSCashDrawer@@UEAAJPEAJ@Z 0000000180032a68     CashDrawerImpl.obj
 0004:00000a74       $pdata$?get_State@COPOSCashDrawer@@UEAAJPEAJ@Z 0000000180032a74     CashDrawerImpl.obj
 0004:00000a80       $pdata$?get_ControlObjectDescription@COPOSCashDrawer@@UEAAJPEAPEA_W@Z 0000000180032a80     CashDrawerImpl.obj
 0004:00000a8c       $pdata$?CheckHealth@COPOSCashDrawer@@UEAAJJPEAJ@Z 0000000180032a8c     CashDrawerImpl.obj
 0004:00000a98       $pdata$?ClaimDevice@COPOSCashDrawer@@UEAAJJPEAJ@Z 0000000180032a98     CashDrawerImpl.obj
 0004:00000aa4       $pdata$?Close@COPOSCashDrawer@@UEAAJPEAJ@Z 0000000180032aa4     CashDrawerImpl.obj
 0004:00000ab0       $pdata$?DirectIO@COPOSCashDrawer@@UEAAJJPEAJPEAPEA_W0@Z 0000000180032ab0     CashDrawerImpl.obj
 0004:00000abc       $pdata$?Open@COPOSCashDrawer@@UEAAJPEA_WPEAJ@Z 0000000180032abc     CashDrawerImpl.obj
 0004:00000ac8       $pdata$?ReleaseDevice@COPOSCashDrawer@@UEAAJPEAJ@Z 0000000180032ac8     CashDrawerImpl.obj
 0004:00000ad4       $pdata$?get_CapStatus@COPOSCashDrawer@@UEAAJPEAF@Z 0000000180032ad4     CashDrawerImpl.obj
 0004:00000ae0       $pdata$?get_DrawerOpened@COPOSCashDrawer@@UEAAJPEAF@Z 0000000180032ae0     CashDrawerImpl.obj
 0004:00000aec       $pdata$?OpenDrawer@COPOSCashDrawer@@UEAAJPEAJ@Z 0000000180032aec     CashDrawerImpl.obj
 0004:00000af8       $pdata$?WaitForDrawerClose@COPOSCashDrawer@@UEAAJJJJJPEAJ@Z 0000000180032af8     CashDrawerImpl.obj
 0004:00000b04       $pdata$?get_CapStatusMultiDrawerDetect@COPOSCashDrawer@@UEAAJPEAF@Z 0000000180032b04     CashDrawerImpl.obj
 0004:00000b10       $pdata$?get_CapStatisticsReporting@COPOSCashDrawer@@UEAAJPEAF@Z 0000000180032b10     CashDrawerImpl.obj
 0004:00000b1c       $pdata$?get_CapUpdateStatistics@COPOSCashDrawer@@UEAAJPEAF@Z 0000000180032b1c     CashDrawerImpl.obj
 0004:00000b28       $pdata$?ResetStatistics@COPOSCashDrawer@@UEAAJPEA_WPEAJ@Z 0000000180032b28     CashDrawerImpl.obj
 0004:00000b34       $pdata$?RetrieveStatistics@COPOSCashDrawer@@UEAAJPEAPEA_WPEAJ@Z 0000000180032b34     CashDrawerImpl.obj
 0004:00000b40       $pdata$?UpdateStatistics@COPOSCashDrawer@@UEAAJPEA_WPEAJ@Z 0000000180032b40     CashDrawerImpl.obj
 0004:00000b4c       $pdata$?get_CapCompareFirmwareVersion@COPOSCashDrawer@@UEAAJPEAF@Z 0000000180032b4c     CashDrawerImpl.obj
 0004:00000b58       $pdata$?get_CapUpdateFirmware@COPOSCashDrawer@@UEAAJPEAF@Z 0000000180032b58     CashDrawerImpl.obj
 0004:00000b64       $pdata$?CompareFirmwareVersion@COPOSCashDrawer@@UEAAJPEA_WPEAJ1@Z 0000000180032b64     CashDrawerImpl.obj
 0004:00000b70       $pdata$?UpdateFirmware@COPOSCashDrawer@@UEAAJPEA_WPEAJ@Z 0000000180032b70     CashDrawerImpl.obj
 0004:00000b7c       $pdata$atexit              0000000180032b7c     LIBCMT:utility.obj
 0004:00000b88       $pdata$_onexit             0000000180032b88     LIBCMT:utility.obj
 0004:00000b94       $pdata$__scrt_is_nonwritable_in_current_image 0000000180032b94     LIBCMT:utility.obj
 0004:00000ba0       $pdata$__scrt_is_nonwritable_in_current_image$filt$0 0000000180032ba0     LIBCMT:utility.obj
 0004:00000bac       $pdata$__scrt_acquire_startup_lock 0000000180032bac     LIBCMT:utility.obj
 0004:00000bb8       $pdata$__scrt_release_startup_lock 0000000180032bb8     LIBCMT:utility.obj
 0004:00000bc4       $pdata$__scrt_initialize_crt 0000000180032bc4     LIBCMT:utility.obj
 0004:00000bd0       $pdata$__scrt_uninitialize_crt 0000000180032bd0     LIBCMT:utility.obj
 0004:00000bdc       $pdata$__scrt_initialize_onexit_tables 0000000180032bdc     LIBCMT:utility.obj
 0004:00000be8       $pdata$__scrt_dllmain_exception_filter 0000000180032be8     LIBCMT:utility.obj
 0004:00000bf4       $pdata$__scrt_dllmain_before_initialize_c 0000000180032bf4     LIBCMT:utility.obj
 0004:00000c00       $pdata$__scrt_dllmain_after_initialize_c 0000000180032c00     LIBCMT:utility.obj
 0004:00000c0c       $pdata$__scrt_dllmain_uninitialize_c 0000000180032c0c     LIBCMT:utility.obj
 0004:00000c18       $pdata$__scrt_dllmain_uninitialize_critical 0000000180032c18     LIBCMT:utility.obj
 0004:00000c24       $pdata$__scrt_dllmain_crt_thread_attach 0000000180032c24     LIBCMT:utility.obj
 0004:00000c30       $pdata$__scrt_dllmain_crt_thread_detach 0000000180032c30     LIBCMT:utility.obj
 0004:00000c3c       $pdata$_Init_thread_header 0000000180032c3c     LIBCMT:thread_safe_statics.obj
 0004:00000c48       $pdata$_Init_thread_footer 0000000180032c48     LIBCMT:thread_safe_statics.obj
 0004:00000c54       $pdata$_Init_thread_wait   0000000180032c54     LIBCMT:thread_safe_statics.obj
 0004:00000c60       $pdata$_Init_thread_notify 0000000180032c60     LIBCMT:thread_safe_statics.obj
 0004:00000c6c       $pdata$?__scrt_uninitialize_thread_safe_statics@@YAXXZ 0000000180032c6c     LIBCMT:thread_safe_statics.obj
 0004:00000c78       $pdata$?__scrt_initialize_thread_safe_statics@@YAHXZ 0000000180032c78     LIBCMT:thread_safe_statics.obj
 0004:00000c84       $pdata$__report_securityfailure 0000000180032c84     LIBCMT:gs_report.obj
 0004:00000c90       $pdata$__report_rangecheckfailure 0000000180032c90     LIBCMT:gs_report.obj
 0004:00000c9c       $pdata$__report_gsfailure  0000000180032c9c     LIBCMT:gs_report.obj
 0004:00000ca8       $pdata$capture_current_context 0000000180032ca8     LIBCMT:gs_report.obj
 0004:00000cb4       $pdata$capture_previous_context 0000000180032cb4     LIBCMT:gs_report.obj
 0004:00000cc0       $pdata$__raise_securityfailure 0000000180032cc0     LIBCMT:gs_report.obj
 0004:00000ccc       $pdata$??2@YAPEAX_KAEBUnothrow_t@std@@@Z 0000000180032ccc     LIBCMT:new_scalar_nothrow.obj
 0004:00000cd8       $pdata$?catch$0@?0???2@YAPEAX_KAEBUnothrow_t@std@@@Z@4HA 0000000180032cd8     LIBCMT:new_scalar_nothrow.obj
 0004:00000ce4       $pdata$__GSHandlerCheckCommon 0000000180032ce4     LIBCMT:gshandler.obj
 0004:00000cf0       $pdata$__GSHandlerCheck    0000000180032cf0     LIBCMT:gshandler.obj
 0004:00000cfc       $pdata$__GSHandlerCheck_SEH 0000000180032cfc     LIBCMT:gshandlerseh.obj
 0004:00000d20       $pdata$?dllmain_crt_process_attach@@YAHQEAUHINSTANCE__@@QEAX@Z 0000000180032d20     LIBCMT:dll_dllmain.obj
 0004:00000d2c       $pdata$?fin$0@?0??dllmain_crt_process_attach@@YAHQEAUHINSTANCE__@@QEAX@Z@4HA 0000000180032d2c     LIBCMT:dll_dllmain.obj
 0004:00000d38       $pdata$?dllmain_crt_process_detach@@YAH_N@Z 0000000180032d38     LIBCMT:dll_dllmain.obj
 0004:00000d44       $pdata$?fin$0@?0??dllmain_crt_process_detach@@YAH_N@Z@4HA 0000000180032d44     LIBCMT:dll_dllmain.obj
 0004:00000d50       $pdata$?dllmain_crt_dispatch@@YAHQEAUHINSTANCE__@@KQEAX@Z 0000000180032d50     LIBCMT:dll_dllmain.obj
 0004:00000d5c       $pdata$?dllmain_dispatch@@YAHQEAUHINSTANCE__@@KQEAX@Z 0000000180032d5c     LIBCMT:dll_dllmain.obj
 0004:00000d68       $pdata$?filt$0@?0??dllmain_dispatch@@YAHQEAUHINSTANCE__@@KQEAX@Z@4HA 0000000180032d68     LIBCMT:dll_dllmain.obj
 0004:00000d74       $pdata$_DllMainCRTStartup  0000000180032d74     LIBCMT:dll_dllmain.obj
 0004:00000d80       $pdata$??2@YAPEAX_K@Z      0000000180032d80     LIBCMT:new_scalar.obj
 0004:00000d8c       $pdata$__isa_available_init 0000000180032d8c     LIBCMT:cpu_disp.obj
 0004:00000d98       $pdata$__scrt_fastfail     0000000180032d98     LIBCMT:utility_desktop.obj
 0004:00000da4       $pdata$__security_init_cookie 0000000180032da4     LIBCMT:gs_support.obj
 0004:00000db0       $pdata$__scrt_initialize_default_local_stdio_options 0000000180032db0     LIBCMT:default_local_stdio_options.obj
 0004:00000dbc       $pdata$_RTC_Initialize     0000000180032dbc     LIBCMT:initsect.obj
 0004:00000dc8       $pdata$_RTC_Terminate      0000000180032dc8     LIBCMT:initsect.obj
 0004:00000dd4       $pdata$??0exception@std@@QEAA@AEBV01@@Z 0000000180032dd4     LIBCMT:throw_bad_alloc.obj
 0004:00000de0       $pdata$??_Gbad_exception@std@@UEAAPEAXI@Z 0000000180032de0     libvcruntime:frame.obj
 0004:00000de0       $pdata$??_Gbad_array_new_length@std@@UEAAPEAXI@Z 0000000180032de0     LIBCMT:throw_bad_alloc.obj
 0004:00000de0       $pdata$??_Gbad_alloc@std@@UEAAPEAXI@Z 0000000180032de0     LIBCMT:throw_bad_alloc.obj
 0004:00000de0       $pdata$??_Gexception@std@@UEAAPEAXI@Z 0000000180032de0     LIBCMT:throw_bad_alloc.obj
 0004:00000dec       $pdata$??0bad_alloc@std@@QEAA@AEBV01@@Z 0000000180032dec     LIBCMT:throw_bad_alloc.obj
 0004:00000df8       $pdata$??0bad_array_new_length@std@@QEAA@AEBV01@@Z 0000000180032df8     LIBCMT:throw_bad_alloc.obj
 0004:00000e04       $pdata$?__scrt_throw_std_bad_alloc@@YAXXZ 0000000180032e04     LIBCMT:throw_bad_alloc.obj
 0004:00000e10       $pdata$?__scrt_throw_std_bad_array_new_length@@YAXXZ 0000000180032e10     LIBCMT:throw_bad_alloc.obj
 0004:00000e28       $pdata$??_Gtype_info@@UEAAPEAXI@Z 0000000180032e28     LIBCMT:std_type_info_static.obj
 0004:00000e34       $pdata$??0CAtlBaseModule@ATL@@QEAA@XZ 0000000180032e34     atls:atlbase.obj
 0004:00000e40       $pdata$??1CAtlBaseModule@ATL@@QEAA@XZ 0000000180032e40     atls:atlbase.obj
 0004:00000e4c       $pdata$??__E_AtlBaseModule@ATL@@YAXXZ 0000000180032e4c     atls:atlbase.obj
 0004:00000e58       $pdata$AtlThunk_AllocateData 0000000180032e58     atls:atlthunk.obj
 0004:00000e64       $pdata$AtlThunk_InitData   0000000180032e64     atls:atlthunk.obj
 0004:00000e70       $pdata$AtlThunk_DataToCode 0000000180032e70     atls:atlthunk.obj
 0004:00000e7c       $pdata$AtlThunk_FreeData   0000000180032e7c     atls:atlthunk.obj
 0004:00000e88       $pdata$?__InitializeThunkPool@@YAHXZ 0000000180032e88     atls:atlthunk.obj
 0004:00000e94       $pdata$?__AllocStdCallThunk_cmn@@YAPEAXXZ 0000000180032e94     atls:atlthunk.obj
 0004:00000ea0       $pdata$??$GetProcAddressAll@P6AXPEAUAtlThunkData_t@@PEAX_K@Z@@YAP6AXPEAUAtlThunkData_t@@PEAX_K@ZPEAP6AX012@Z@Z 0000000180032ea0     atls:atlthunk.obj
 0004:00000ea0       $pdata$??$GetProcAddressAll@P6APEAUAtlThunkData_t@@XZ@@YAP6APEAUAtlThunkData_t@@XZPEAP6APEAU0@XZ@Z 0000000180032ea0     atls:atlthunk.obj
 0004:00000ea0       $pdata$??$GetProcAddressAll@P6AXPEAUAtlThunkData_t@@@Z@@YAP6AXPEAUAtlThunkData_t@@@ZPEAP6AX0@Z@Z 0000000180032ea0     atls:atlthunk.obj
 0004:00000ea0       $pdata$??$GetProcAddressAll@P6AP6A_JPEAUHWND__@@I_K_J@ZPEAUAtlThunkData_t@@@Z@@YAP6AP6A_JPEAUHWND__@@I_K_J@ZPEAUAtlThunkData_t@@@ZPEAP6AP6A_J0I12@Z3@Z@Z 0000000180032ea0     atls:atlthunk.obj
 0004:00000eac       $pdata$_purecall           0000000180032eac     libvcruntime:purevirt.obj
 0004:00000eb8       $pdata$wcsstr              0000000180032eb8     libvcruntime:wcsstr.obj
 0004:00000f00       $pdata$__vcrt_initialize   0000000180032f00     libvcruntime:initialization.obj
 0004:00000f0c       $pdata$__vcrt_uninitialize 0000000180032f0c     libvcruntime:initialization.obj
 0004:00000f18       $pdata$__vcrt_uninitialize_critical 0000000180032f18     libvcruntime:initialization.obj
 0004:00000f24       $pdata$__vcrt_thread_attach 0000000180032f24     libvcruntime:initialization.obj
 0004:00000f30       $pdata$__vcrt_thread_detach 0000000180032f30     libvcruntime:initialization.obj
 0004:00000f3c       $pdata$__C_specific_handler 0000000180032f3c     libvcruntime:riscchandler.obj
 0004:00000f48       $pdata$?CatchTryBlock@__FrameHandler3@@SAPEBU_s_TryBlockMapEntry@@PEBU_s_FuncInfo@@H@Z 0000000180032f48     libvcruntime:risctrnsctrl.obj
 0004:00000f54       $pdata$?ExecutionInCatch@__FrameHandler3@@SA_NPEAU_xDISPATCHER_CONTEXT@@PEBU_s_FuncInfo@@@Z 0000000180032f54     libvcruntime:risctrnsctrl.obj
 0004:00000f60       $pdata$?FrameUnwindToEmptyState@__FrameHandler3@@SAXPEA_KPEAU_xDISPATCHER_CONTEXT@@PEBU_s_FuncInfo@@@Z 0000000180032f60     libvcruntime:risctrnsctrl.obj
 0004:00000f6c       $pdata$?GetEstablisherFrame@__FrameHandler3@@SAPEA_KPEA_KPEAU_xDISPATCHER_CONTEXT@@PEBU_s_FuncInfo@@0@Z 0000000180032f6c     libvcruntime:risctrnsctrl.obj
 0004:00000f78       $pdata$?UnwindNestedFrames@__FrameHandler3@@SAXPEA_KPEAUEHExceptionRecord@@PEAU_CONTEXT@@0PEAXPEBU_s_FuncInfo@@HHPEBU_s_HandlerType@@PEAU_xDISPATCHER_CONTEXT@@E@Z 0000000180032f78     libvcruntime:risctrnsctrl.obj
 0004:00000f84       $pdata$?GetRangeOfTrysToCheck@__FrameHandler3@@SA?AU?$pair@Viterator@TryBlockMap@__FrameHandler3@@V123@@std@@AEAVTryBlockMap@1@HPEAU_xDISPATCHER_CONTEXT@@PEBU_s_FuncInfo@@H@Z 0000000180032f84     libvcruntime:risctrnsctrl.obj
 0004:00000f90       $pdata$_GetImageBase       0000000180032f90     libvcruntime:risctrnsctrl.obj
 0004:00000f9c       $pdata$_SetImageBase       0000000180032f9c     libvcruntime:risctrnsctrl.obj
 0004:00000fa8       $pdata$_GetThrowImageBase  0000000180032fa8     libvcruntime:risctrnsctrl.obj
 0004:00000fb4       $pdata$_SetThrowImageBase  0000000180032fb4     libvcruntime:risctrnsctrl.obj
 0004:00000fc0       $pdata$_CreateFrameInfo    0000000180032fc0     libvcruntime:risctrnsctrl.obj
 0004:00000fcc       $pdata$_FindAndUnlinkFrame 0000000180032fcc     libvcruntime:risctrnsctrl.obj
 0004:00000fd8       $pdata$__CxxFrameHandler3  0000000180032fd8     libvcruntime:risctrnsctrl.obj
 0004:00000fe4       $pdata$??$_CallSETranslator@V__FrameHandler3@@@@YAHPEAUEHExceptionRecord@@PEA_KPEAU_CONTEXT@@PEAU_xDISPATCHER_CONTEXT@@PEBU_s_FuncInfo@@K1@Z 0000000180032fe4     libvcruntime:risctrnsctrl.obj
 0004:00000ff0       $pdata$?filt$0@?0???$_CallSETranslator@V__FrameHandler3@@@@YAHPEAUEHExceptionRecord@@PEA_KPEAU_CONTEXT@@PEAU_xDISPATCHER_CONTEXT@@PEBU_s_FuncInfo@@K1@Z@4HA 0000000180032ff0     libvcruntime:risctrnsctrl.obj
 0004:00000ffc       $pdata$__std_type_info_destroy_list 0000000180032ffc     libvcruntime:std_type_info.obj
 0004:00001008       $pdata$__std_exception_copy 0000000180033008     libvcruntime:std_exception.obj
 0004:00001014       $pdata$__std_exception_destroy 0000000180033014     libvcruntime:std_exception.obj
 0004:00001020       $pdata$_CxxThrowException  0000000180033020     libvcruntime:throw.obj
 0004:0000102c       $pdata$__vcrt_initialize_ptd 000000018003302c     libvcruntime:per_thread_data.obj
 0004:00001038       $pdata$__vcrt_uninitialize_ptd 0000000180033038     libvcruntime:per_thread_data.obj
 0004:00001044       $pdata$__vcrt_getptd       0000000180033044     libvcruntime:per_thread_data.obj
 0004:00001050       $pdata$__vcrt_getptd_noexit 0000000180033050     libvcruntime:per_thread_data.obj
 0004:0000105c       $pdata$__vcrt_freeptd      000000018003305c     libvcruntime:per_thread_data.obj
 0004:00001068       $pdata$__vcrt_freefls      0000000180033068     libvcruntime:per_thread_data.obj
 0004:00001074       $pdata$__vcrt_initialize_locks 0000000180033074     libvcruntime:locks.obj
 0004:00001080       $pdata$__vcrt_uninitialize_locks 0000000180033080     libvcruntime:locks.obj
 0004:000010b0       $pdata$_IsExceptionObjectToBeDestroyed 00000001800330b0     libvcruntime:ehhelpers.obj
 0004:000010bc       $pdata$__FrameUnwindFilter 00000001800330bc     libvcruntime:ehhelpers.obj
 0004:000010c8       $pdata$__DestructExceptionObject 00000001800330c8     libvcruntime:ehhelpers.obj
 0004:000010d4       $pdata$__DestructExceptionObject$filt$0 00000001800330d4     libvcruntime:ehhelpers.obj
 0004:000010e0       $pdata$?StateFromIp@__FrameHandler3@@SAHPEBU_s_FuncInfo@@PEAU_xDISPATCHER_CONTEXT@@_K@Z 00000001800330e0     libvcruntime:ehstate.obj
 0004:000010ec       $pdata$?GetCurrentState@__FrameHandler3@@SAHPEA_KPEAU_xDISPATCHER_CONTEXT@@PEBU_s_FuncInfo@@@Z 00000001800330ec     libvcruntime:ehstate.obj
 0004:000010f8       $pdata$?SetUnwindTryBlock@__FrameHandler3@@SAXPEA_KPEAU_xDISPATCHER_CONTEXT@@PEBU_s_FuncInfo@@H@Z 00000001800330f8     libvcruntime:ehstate.obj
 0004:00001104       $pdata$?GetUnwindTryBlock@__FrameHandler3@@SAHPEA_KPEAU_xDISPATCHER_CONTEXT@@PEBU_s_FuncInfo@@@Z 0000000180033104     libvcruntime:ehstate.obj
 0004:00001110       $pdata$?FrameUnwindToState@__FrameHandler3@@SAXPEA_KPEAU_xDISPATCHER_CONTEXT@@PEBU_s_FuncInfo@@H@Z 0000000180033110     libvcruntime:frame.obj
 0004:0000111c       $pdata$?filt$0@?0??FrameUnwindToState@__FrameHandler3@@SAXPEA_KPEAU_xDISPATCHER_CONTEXT@@PEBU_s_FuncInfo@@H@Z@4HA 000000018003311c     libvcruntime:frame.obj
 0004:00001128       $pdata$?fin$1@?0??FrameUnwindToState@__FrameHandler3@@SAXPEA_KPEAU_xDISPATCHER_CONTEXT@@PEBU_s_FuncInfo@@H@Z@4HA 0000000180033128     libvcruntime:frame.obj
 0004:00001134       $pdata$?GetHandlerSearchState@__FrameHandler3@@SAHPEA_KPEAU_xDISPATCHER_CONTEXT@@PEBU_s_FuncInfo@@@Z 0000000180033134     libvcruntime:frame.obj
 0004:00001140       $pdata$?CxxCallCatchBlock@__FrameHandler3@@SAPEAXPEAU_EXCEPTION_RECORD@@@Z 0000000180033140     libvcruntime:frame.obj
 0004:0000114c       $pdata$?filt$0@?0??CxxCallCatchBlock@__FrameHandler3@@SAPEAXPEAU_EXCEPTION_RECORD@@@Z@4HA 000000018003314c     libvcruntime:frame.obj
 0004:00001158       $pdata$?fin$1@?0??CxxCallCatchBlock@__FrameHandler3@@SAPEAXPEAU_EXCEPTION_RECORD@@@Z@4HA 0000000180033158     libvcruntime:frame.obj
 0004:00001164       $pdata$??0bad_exception@std@@QEAA@AEBV01@@Z 0000000180033164     libvcruntime:frame.obj
 0004:00001170       $pdata$?ExFilterRethrow@@YAHPEAU_EXCEPTION_POINTERS@@PEAUEHExceptionRecord@@PEAH@Z 0000000180033170     libvcruntime:frame.obj
 0004:0000117c       $pdata$?IsInExceptionSpec@@YAEPEAUEHExceptionRecord@@PEBU_s_ESTypeList@@@Z 000000018003317c     libvcruntime:frame.obj
 0004:00001188       $pdata$?Is_bad_exception_allowed@@YAEPEBU_s_ESTypeList@@@Z 0000000180033188     libvcruntime:frame.obj
 0004:00001194       $pdata$??$__InternalCxxFrameHandler@V__FrameHandler3@@@@YA?AW4_EXCEPTION_DISPOSITION@@PEAUEHExceptionRecord@@PEA_KPEAU_CONTEXT@@PEAU_xDISPATCHER_CONTEXT@@PEBU_s_FuncInfo@@H1E@Z 0000000180033194     libvcruntime:frame.obj
 0004:000011a0       $pdata$??$TypeMatchHelper@V__FrameHandler3@@@@YAHPEBU_s_HandlerType@@PEBU_s_CatchableType@@PEBU_s_ThrowInfo@@@Z 00000001800331a0     libvcruntime:frame.obj
 0004:000011ac       $pdata$??$BuildCatchObjectHelperInternal@V__FrameHandler3@@@@YAHPEAUEHExceptionRecord@@PEAXPEBU_s_HandlerType@@PEBU_s_CatchableType@@@Z 00000001800331ac     libvcruntime:frame.obj
 0004:000011b8       $pdata$??$BuildCatchObjectInternal@V__FrameHandler3@@@@YAXPEAUEHExceptionRecord@@PEAXPEBU_s_HandlerType@@PEBU_s_CatchableType@@@Z 00000001800331b8     libvcruntime:frame.obj
 0004:000011c4       $pdata$??$FindHandler@V__FrameHandler3@@@@YAXPEAUEHExceptionRecord@@PEA_KPEAU_CONTEXT@@PEAU_xDISPATCHER_CONTEXT@@PEBU_s_FuncInfo@@EH1@Z 00000001800331c4     libvcruntime:frame.obj
 0004:000011d0       $pdata$??$CatchIt@V__FrameHandler3@@@@YAXPEAUEHExceptionRecord@@PEA_KPEAU_CONTEXT@@PEAU_xDISPATCHER_CONTEXT@@PEBU_s_FuncInfo@@PEBU_s_HandlerType@@PEBU_s_CatchableType@@PEBU_s_TryBlockMapEntry@@H1EE@Z 00000001800331d0     libvcruntime:frame.obj
 0004:000011dc       $pdata$??$FindHandlerForForeignException@V__FrameHandler3@@@@YAXPEAUEHExceptionRecord@@PEA_KPEAU_CONTEXT@@PEAU_xDISPATCHER_CONTEXT@@PEBU_s_FuncInfo@@HH1@Z 00000001800331dc     libvcruntime:frame.obj
 0004:000011e8       $pdata$__vcrt_FlsAlloc     00000001800331e8     libvcruntime:winapi_downlevel.obj
 0004:000011f4       $pdata$__vcrt_FlsFree      00000001800331f4     libvcruntime:winapi_downlevel.obj
 0004:00001200       $pdata$__vcrt_FlsGetValue  0000000180033200     libvcruntime:winapi_downlevel.obj
 0004:0000120c       $pdata$__vcrt_FlsSetValue  000000018003320c     libvcruntime:winapi_downlevel.obj
 0004:00001218       $pdata$__vcrt_InitializeCriticalSectionEx 0000000180033218     libvcruntime:winapi_downlevel.obj
 0004:00001224       $pdata$?try_get_function@@YAPEAXW4function_id@?A0x656504f9@@QEBDQEBW4module_id@2@2@Z 0000000180033224     libvcruntime:winapi_downlevel.obj
 0004:00001260       $pdata$_invalid_parameter_noinfo 0000000180033260     libucrt:invalid_parameter.obj
 0004:0000126c       $pdata$_invoke_watson      000000018003326c     libucrt:invalid_parameter.obj
 0004:00001278       $pdata$__acrt_call_reportfault 0000000180033278     libucrt:invalid_parameter.obj
 0004:00001284       $pdata$_invalid_parameter  0000000180033284     libucrt:invalid_parameter.obj
 0004:00001290       $pdata$_errno              0000000180033290     libucrt:errno.obj
 0004:0000129c       $pdata$__doserrno          000000018003329c     libucrt:errno.obj
 0004:000012a8       $pdata$__acrt_errno_map_os_error 00000001800332a8     libucrt:errno.obj
 0004:000012b4       $pdata$_recalloc_base      00000001800332b4     libucrt:recalloc.obj
 0004:000012c0       $pdata$_resetstkoflw       00000001800332c0     libucrt:resetstk.obj
 0004:000012cc       $pdata$wcscat_s            00000001800332cc     libucrt:wcscat_s.obj
 0004:000012d8       $pdata$wcscpy_s            00000001800332d8     libucrt:wcscpy_s.obj
 0004:000012e4       $pdata$wcsncpy_s           00000001800332e4     libucrt:wcsncpy_s.obj
 0004:000012f0       $pdata$??0_LocaleUpdate@@QEAA@QEAU__crt_locale_pointers@@@Z 00000001800332f0     libucrt:output.obj
 0004:000012fc       $pdata$__stdio_common_vswprintf_s 00000001800332fc     libucrt:output.obj
 0004:00001308       $pdata$?write_string@?$string_output_adapter@_W@__crt_stdio_output@@QEBAXQEB_WHQEAHAEAV__crt_deferred_errno_cache@@@Z 0000000180033308     libucrt:output.obj
 0004:00001314       $pdata$??$common_vsprintf@Vformat_validation_base@__crt_stdio_output@@_W@@YAH_KQEA_W0QEB_WQEAU__crt_locale_pointers@@QEAD@Z 0000000180033314     libucrt:output.obj
 0004:00001320       $pdata$??$write_multiple_characters@V?$string_output_adapter@_W@__crt_stdio_output@@D@__crt_stdio_output@@YAXAEBV?$string_output_adapter@_W@0@DHQEAH@Z 0000000180033320     libucrt:output.obj
 0004:0000132c       $pdata$??$ensure_buffer_is_big_enough@D@formatting_buffer@__crt_stdio_output@@QEAA_N_K@Z 000000018003332c     libucrt:output.obj
 0004:00001338       $pdata$??$ensure_buffer_is_big_enough@_W@formatting_buffer@__crt_stdio_output@@QEAA_N_K@Z 0000000180033338     libucrt:output.obj
 0004:00001344       $pdata$?process@?$output_processor@_WV?$string_output_adapter@_W@__crt_stdio_output@@V?$format_validation_base@_WV?$string_output_adapter@_W@__crt_stdio_output@@@2@@__crt_stdio_output@@QEAAHXZ 0000000180033344     libucrt:output.obj
 0004:00001350       $pdata$?parse_int_from_format_string@?$output_processor@_WV?$string_output_adapter@_W@__crt_stdio_output@@V?$format_validation_base@_WV?$string_output_adapter@_W@__crt_stdio_output@@@2@@__crt_stdio_output@@AEAA_NQEAH@Z 0000000180033350     libucrt:output.obj
 0004:0000135c       $pdata$?state_case_size@?$output_processor@_WV?$string_output_adapter@_W@__crt_stdio_output@@V?$format_validation_base@_WV?$string_output_adapter@_W@__crt_stdio_output@@@2@@__crt_stdio_output@@AEAA_NXZ 000000018003335c     libucrt:output.obj
 0004:00001368       $pdata$?state_case_type@?$output_processor@_WV?$string_output_adapter@_W@__crt_stdio_output@@V?$format_validation_base@_WV?$string_output_adapter@_W@__crt_stdio_output@@@2@@__crt_stdio_output@@AEAA_NXZ 0000000180033368     libucrt:output.obj
 0004:00001374       $pdata$?type_case_c_tchar@?$output_processor@_WV?$string_output_adapter@_W@__crt_stdio_output@@V?$format_validation_base@_WV?$string_output_adapter@_W@__crt_stdio_output@@@2@@__crt_stdio_output@@AEAA_N_W@Z 0000000180033374     libucrt:output.obj
 0004:00001380       $pdata$?type_case_Z@?$output_processor@_WV?$string_output_adapter@_W@__crt_stdio_output@@V?$format_validation_base@_WV?$string_output_adapter@_W@__crt_stdio_output@@@2@@__crt_stdio_output@@AEAA_NXZ 0000000180033380     libucrt:output.obj
 0004:0000138c       $pdata$?type_case_s@?$output_processor@_WV?$string_output_adapter@_W@__crt_stdio_output@@V?$format_validation_base@_WV?$string_output_adapter@_W@__crt_stdio_output@@@2@@__crt_stdio_output@@AEAA_NXZ 000000018003338c     libucrt:output.obj
 0004:00001398       $pdata$?type_case_a@?$output_processor@_WV?$string_output_adapter@_W@__crt_stdio_output@@V?$format_validation_base@_WV?$string_output_adapter@_W@__crt_stdio_output@@@2@@__crt_stdio_output@@AEAA_NXZ 0000000180033398     libucrt:output.obj
 0004:000013a4       $pdata$?type_case_integer@?$output_processor@_WV?$string_output_adapter@_W@__crt_stdio_output@@V?$format_validation_base@_WV?$string_output_adapter@_W@__crt_stdio_output@@@2@@__crt_stdio_output@@AEAA_NI_N@Z 00000001800333a4     libucrt:output.obj
 0004:000013b0       $pdata$?type_case_n@?$output_processor@_WV?$string_output_adapter@_W@__crt_stdio_output@@V?$format_validation_base@_WV?$string_output_adapter@_W@__crt_stdio_output@@@2@@__crt_stdio_output@@AEAA_NXZ 00000001800333b0     libucrt:output.obj
 0004:000013bc       $pdata$?write_stored_string_tchar@?$output_processor@_WV?$string_output_adapter@_W@__crt_stdio_output@@V?$format_validation_base@_WV?$string_output_adapter@_W@__crt_stdio_output@@@2@@__crt_stdio_output@@AEAA_N_W@Z 00000001800333bc     libucrt:output.obj
 0004:000013c8       $pdata$??$type_case_integer_parse_into_buffer@_K@?$output_processor@_WV?$string_output_adapter@_W@__crt_stdio_output@@V?$format_validation_base@_WV?$string_output_adapter@_W@__crt_stdio_output@@@2@@__crt_stdio_output@@AEAAX_KI_N@Z 00000001800333c8     libucrt:output.obj
 0004:000013d4       $pdata$??$type_case_integer_parse_into_buffer@I@?$output_processor@_WV?$string_output_adapter@_W@__crt_stdio_output@@V?$format_validation_base@_WV?$string_output_adapter@_W@__crt_stdio_output@@@2@@__crt_stdio_output@@AEAAXII_N@Z 00000001800333d4     libucrt:output.obj
 0004:000013e0       $pdata$_seh_filter_exe     00000001800333e0     libucrt:exception_filter.obj
 0004:000013ec       $pdata$?try_cor_exit_process@@YAXI@Z 00000001800333ec     libucrt:exit.obj
 0004:000013f8       $pdata$?exit_or_terminate_process@@YAXI@Z 00000001800333f8     libucrt:exit.obj
 0004:00001404       $pdata$?common_exit@@YAXHW4_crt_exit_cleanup_mode@@W4_crt_exit_return_mode@@@Z 0000000180033404     libucrt:exit.obj
 0004:00001410       $pdata$??R<lambda_6e4b09c48022b2350581041d5f6b0c4c>@@QEBA@XZ 0000000180033410     libucrt:exit.obj
 0004:0000141c       $pdata$?filt$0@?0???R<lambda_6e4b09c48022b2350581041d5f6b0c4c>@@QEBA@XZ@4HA 000000018003341c     libucrt:exit.obj
 0004:00001428       $pdata$??$?RV<lambda_d80eeec6fff315bfe5c115232f3240e3>@@AEAV<lambda_6e4b09c48022b2350581041d5f6b0c4c>@@V<lambda_2358e3775559c9db80273638284d5e45>@@@?$__crt_seh_guarded_call@X@@QEAAX$$QEAV<lambda_d80eeec6fff315bfe5c115232f3240e3>@@AEAV<lambda_6e4b09c48022b2350581041d5f6b0c4c>@@$$QEAV<lambda_2358e3775559c9db80273638284d5e45>@@@Z 0000000180033428     libucrt:exit.obj
 0004:00001434       $pdata$?fin$0@?0???$?RV<lambda_efdfa57d1f175319df784efa44bb7b81>@@AEAV<lambda_5f0a4c1567f8adc6734073e5d1e1b35c>@@V<lambda_2e8a7d3640ea6ccb4c2413664c2db6fd>@@@?$__crt_seh_guarded_call@X@@QEAAX$$QEAV<lambda_efdfa57d1f175319df784efa44bb7b81>@@AEAV<lambda_5f0a4c1567f8adc6734073e5d1e1b35c>@@$$QEAV<lambda_2e8a7d3640ea6ccb4c2413664c2db6fd>@@@Z@4HA 0000000180033434     libucrt:mbctype.obj
 0004:00001434       $pdata$?fin$0@?0???$?RV<lambda_0ae27a3a962d80f24befdcbee591983d>@@AEAV<lambda_8d0ee55de4b1038c4002e0adecdf1839>@@V<lambda_dc504788e8f1664fe9b84e20bfb512f2>@@@?$__crt_seh_guarded_call@X@@QEAAX$$QEAV<lambda_0ae27a3a962d80f24befdcbee591983d>@@AEAV<lambda_8d0ee55de4b1038c4002e0adecdf1839>@@$$QEAV<lambda_dc504788e8f1664fe9b84e20bfb512f2>@@@Z@4HA 0000000180033434     libucrt:per_thread_data.obj
 0004:00001434       $pdata$?fin$0@?0???$?RV<lambda_7777bce6b2f8c936911f934f8298dc43>@@AEAV<lambda_f03950bc5685219e0bcd2087efbe011e>@@V<lambda_3883c3dff614d5e0c5f61bb1ac94921c>@@@?$__crt_seh_guarded_call@H@@QEAAH$$QEAV<lambda_7777bce6b2f8c936911f934f8298dc43>@@AEAV<lambda_f03950bc5685219e0bcd2087efbe011e>@@$$QEAV<lambda_3883c3dff614d5e0c5f61bb1ac94921c>@@@Z@4HA 0000000180033434     libucrt:onexit.obj
 0004:00001434       $pdata$?fin$0@?0???$?RV<lambda_aa87e3671a710a21b5dc78c0bdf72e11>@@AEAV<lambda_92619d2358a28f41a33ba319515a20b9>@@V<lambda_6992ecaafeb10aed2b74cb1fae11a551>@@@?$__crt_seh_guarded_call@X@@QEAAX$$QEAV<lambda_aa87e3671a710a21b5dc78c0bdf72e11>@@AEAV<lambda_92619d2358a28f41a33ba319515a20b9>@@$$QEAV<lambda_6992ecaafeb10aed2b74cb1fae11a551>@@@Z@4HA 0000000180033434     libucrt:per_thread_data.obj
 0004:00001434       $pdata$?fin$0@?0???$?RV<lambda_f2e299630e499de9f9a165e60fcd3db5>@@AEAV<lambda_2ae9d31cdba2644fcbeaf08da7c24588>@@V<lambda_40d01ff24d0e7b3814fdbdcee8eab3c7>@@@?$__crt_seh_guarded_call@X@@QEAAX$$QEAV<lambda_f2e299630e499de9f9a165e60fcd3db5>@@AEAV<lambda_2ae9d31cdba2644fcbeaf08da7c24588>@@$$QEAV<lambda_40d01ff24d0e7b3814fdbdcee8eab3c7>@@@Z@4HA 0000000180033434     libucrt:per_thread_data.obj
 0004:00001434       $pdata$?fin$0@?0???$?RV<lambda_2d41944a1d46af3157314b8a01080d33>@@AEAV<lambda_8f455de75cd7d7f24b4096f044d8b9e6>@@V<lambda_aa500f224e6afead328df44964fe2772>@@@?$__crt_seh_guarded_call@X@@QEAAX$$QEAV<lambda_2d41944a1d46af3157314b8a01080d33>@@AEAV<lambda_8f455de75cd7d7f24b4096f044d8b9e6>@@$$QEAV<lambda_aa500f224e6afead328df44964fe2772>@@@Z@4HA 0000000180033434     libucrt:per_thread_data.obj
 0004:00001434       $pdata$?fin$0@?0???$?RV<lambda_d80eeec6fff315bfe5c115232f3240e3>@@AEAV<lambda_6e4b09c48022b2350581041d5f6b0c4c>@@V<lambda_2358e3775559c9db80273638284d5e45>@@@?$__crt_seh_guarded_call@X@@QEAAX$$QEAV<lambda_d80eeec6fff315bfe5c115232f3240e3>@@AEAV<lambda_6e4b09c48022b2350581041d5f6b0c4c>@@$$QEAV<lambda_2358e3775559c9db80273638284d5e45>@@@Z@4HA 0000000180033434     libucrt:exit.obj
 0004:00001434       $pdata$?fin$0@?0???$?RV<lambda_450d765d439847d4c735a33c368b5fc0>@@AEAV<lambda_44731a7d0e6d81c3e6aa82d741081786>@@V<lambda_601a2a7da3b7a96e9554ac7215c4b07c>@@@?$__crt_seh_guarded_call@P6AXH@Z@@QEAAP6AXH@Z$$QEAV<lambda_450d765d439847d4c735a33c368b5fc0>@@AEAV<lambda_44731a7d0e6d81c3e6aa82d741081786>@@$$QEAV<lambda_601a2a7da3b7a96e9554ac7215c4b07c>@@@Z@4HA 0000000180033434     libucrt:signal.obj
 0004:00001434       $pdata$?fin$0@?0???$?RV<lambda_638799b9deba96c50f710eeac98168cd>@@AEAV<lambda_22ebabd17bc4fa466a2aca6d8deb888d>@@V<lambda_a6f7d7db0129f75315ebf26d50c089f1>@@@?$__crt_seh_guarded_call@H@@QEAAH$$QEAV<lambda_638799b9deba96c50f710eeac98168cd>@@AEAV<lambda_22ebabd17bc4fa466a2aca6d8deb888d>@@$$QEAV<lambda_a6f7d7db0129f75315ebf26d50c089f1>@@@Z@4HA 0000000180033434     libucrt:onexit.obj
 0004:00001440       $pdata$_configure_narrow_argv 0000000180033440     libucrt:argv_parsing.obj
 0004:0000144c       $pdata$__acrt_allocate_buffer_for_argv 000000018003344c     libucrt:argv_parsing.obj
 0004:00001458       $pdata$??$parse_command_line@D@@YAXPEADPEAPEAD0PEA_K2@Z 0000000180033458     libucrt:argv_parsing.obj
 0004:00001464       $pdata$__dcrt_uninitialize_environments_nolock 0000000180033464     libucrt:environment_initialization.obj
 0004:00001470       $pdata$??$common_initialize_environment_nolock@D@@YAHXZ 0000000180033470     libucrt:environment_initialization.obj
 0004:0000147c       $pdata$??$uninitialize_environment_internal@D@@YAXAEAPEAPEAD@Z 000000018003347c     libucrt:environment_initialization.obj
 0004:00001488       $pdata$??$uninitialize_environment_internal@_W@@YAXAEAPEAPEA_W@Z 0000000180033488     libucrt:environment_initialization.obj
 0004:00001494       $pdata$??$free_environment@D@@YAXQEAPEAD@Z 0000000180033494     libucrt:environment_initialization.obj
 0004:00001494       $pdata$??$free_environment@_W@@YAXQEAPEA_W@Z 0000000180033494     libucrt:environment_initialization.obj
 0004:000014a0       $pdata$??$create_environment@D@@YAQEAPEADQEAD@Z 00000001800334a0     libucrt:environment_initialization.obj
 0004:000014ac       $pdata$_register_onexit_function 00000001800334ac     libucrt:onexit.obj
 0004:000014b8       $pdata$_execute_onexit_table 00000001800334b8     libucrt:onexit.obj
 0004:000014c4       $pdata$??R<lambda_22ebabd17bc4fa466a2aca6d8deb888d>@@QEBAHXZ 00000001800334c4     libucrt:onexit.obj
 0004:000014d0       $pdata$??R<lambda_f03950bc5685219e0bcd2087efbe011e>@@QEBAHXZ 00000001800334d0     libucrt:onexit.obj
 0004:000014dc       $pdata$??$?RV<lambda_638799b9deba96c50f710eeac98168cd>@@AEAV<lambda_22ebabd17bc4fa466a2aca6d8deb888d>@@V<lambda_a6f7d7db0129f75315ebf26d50c089f1>@@@?$__crt_seh_guarded_call@H@@QEAAH$$QEAV<lambda_638799b9deba96c50f710eeac98168cd>@@AEAV<lambda_22ebabd17bc4fa466a2aca6d8deb888d>@@$$QEAV<lambda_a6f7d7db0129f75315ebf26d50c089f1>@@@Z 00000001800334dc     libucrt:onexit.obj
 0004:000014e8       $pdata$??$?RV<lambda_7777bce6b2f8c936911f934f8298dc43>@@AEAV<lambda_f03950bc5685219e0bcd2087efbe011e>@@V<lambda_3883c3dff614d5e0c5f61bb1ac94921c>@@@?$__crt_seh_guarded_call@H@@QEAAH$$QEAV<lambda_7777bce6b2f8c936911f934f8298dc43>@@AEAV<lambda_f03950bc5685219e0bcd2087efbe011e>@@$$QEAV<lambda_3883c3dff614d5e0c5f61bb1ac94921c>@@@Z 00000001800334e8     libucrt:onexit.obj
 0004:000014f4       $pdata$__acrt_uninitialize 00000001800334f4     libucrt:initialization.obj
 0004:00001500       $pdata$__acrt_uninitialize_critical 0000000180033500     libucrt:initialization.obj
 0004:0000150c       $pdata$__acrt_thread_attach 000000018003350c     libucrt:initialization.obj
 0004:00001518       $pdata$__acrt_thread_detach 0000000180033518     libucrt:initialization.obj
 0004:00001524       $pdata$initialize_c        0000000180033524     libucrt:initialization.obj
 0004:00001530       $pdata$uninitialize_environment 0000000180033530     libucrt:initialization.obj
 0004:0000153c       $pdata$initialize_pointers 000000018003353c     libucrt:initialization.obj
 0004:00001548       $pdata$uninitialize_allocated_memory 0000000180033548     libucrt:initialization.obj
 0004:00001554       $pdata$uninitialize_allocated_io_buffers 0000000180033554     libucrt:initialization.obj
 0004:00001560       $pdata$_initterm           0000000180033560     libucrt:initterm.obj
 0004:0000156c       $pdata$_initterm_e         000000018003356c     libucrt:initterm.obj
 0004:00001578       $pdata$_callnewh           0000000180033578     libucrt:new_handler.obj
 0004:00001584       $pdata$_query_new_handler  0000000180033584     libucrt:new_handler.obj
 0004:00001590       $pdata$_query_new_handler$fin$0 0000000180033590     libucrt:new_handler.obj
 0004:0000159c       $pdata$terminate           000000018003359c     libucrt:terminate.obj
 0004:000015a8       $pdata$abort               00000001800335a8     libucrt:abort.obj
 0004:000015b4       $pdata$strcpy_s            00000001800335b4     libucrt:strcpy_s.obj
 0004:000015c0       $pdata$??$parse_integer@KV?$c_string_character_source@_W@__crt_strtox@@@__crt_strtox@@YAKQEAU__crt_locale_pointers@@V?$c_string_character_source@_W@0@H_N@Z 00000001800335c0     libucrt:atox.obj
 0004:000015d8       $pdata$_free_base          00000001800335d8     libucrt:free_base.obj
 0004:000015e4       $pdata$__acrt_initialize_ptd 00000001800335e4     libucrt:per_thread_data.obj
 0004:000015f0       $pdata$__acrt_uninitialize_ptd 00000001800335f0     libucrt:per_thread_data.obj
 0004:000015fc       $pdata$__acrt_getptd       00000001800335fc     libucrt:per_thread_data.obj
 0004:00001608       $pdata$__acrt_getptd_head  0000000180033608     libucrt:per_thread_data.obj
 0004:00001614       $pdata$__acrt_getptd_noexit 0000000180033614     libucrt:per_thread_data.obj
 0004:00001620       $pdata$__acrt_freeptd      0000000180033620     libucrt:per_thread_data.obj
 0004:0000162c       $pdata$?destroy_fls@@YAXPEAX@Z 000000018003362c     libucrt:per_thread_data.obj
 0004:00001638       $pdata$?replace_current_thread_locale_nolock@@YAXQEAU__acrt_ptd@@QEAU__crt_locale_data@@@Z 0000000180033638     libucrt:per_thread_data.obj
 0004:00001644       $pdata$?construct_ptd_array@@YAXQEAU__acrt_ptd@@@Z 0000000180033644     libucrt:per_thread_data.obj
 0004:00001650       $pdata$?destroy_ptd_array@@YAXQEAU__acrt_ptd@@@Z 0000000180033650     libucrt:per_thread_data.obj
 0004:0000165c       $pdata$??$?RV<lambda_0ae27a3a962d80f24befdcbee591983d>@@AEAV<lambda_8d0ee55de4b1038c4002e0adecdf1839>@@V<lambda_dc504788e8f1664fe9b84e20bfb512f2>@@@?$__crt_seh_guarded_call@X@@QEAAX$$QEAV<lambda_0ae27a3a962d80f24befdcbee591983d>@@AEAV<lambda_8d0ee55de4b1038c4002e0adecdf1839>@@$$QEAV<lambda_dc504788e8f1664fe9b84e20bfb512f2>@@@Z 000000018003365c     libucrt:per_thread_data.obj
 0004:00001668       $pdata$??$?RV<lambda_aa87e3671a710a21b5dc78c0bdf72e11>@@AEAV<lambda_92619d2358a28f41a33ba319515a20b9>@@V<lambda_6992ecaafeb10aed2b74cb1fae11a551>@@@?$__crt_seh_guarded_call@X@@QEAAX$$QEAV<lambda_aa87e3671a710a21b5dc78c0bdf72e11>@@AEAV<lambda_92619d2358a28f41a33ba319515a20b9>@@$$QEAV<lambda_6992ecaafeb10aed2b74cb1fae11a551>@@@Z 0000000180033668     libucrt:per_thread_data.obj
 0004:00001674       $pdata$??$?RV<lambda_f2e299630e499de9f9a165e60fcd3db5>@@AEAV<lambda_2ae9d31cdba2644fcbeaf08da7c24588>@@V<lambda_40d01ff24d0e7b3814fdbdcee8eab3c7>@@@?$__crt_seh_guarded_call@X@@QEAAX$$QEAV<lambda_f2e299630e499de9f9a165e60fcd3db5>@@AEAV<lambda_2ae9d31cdba2644fcbeaf08da7c24588>@@$$QEAV<lambda_40d01ff24d0e7b3814fdbdcee8eab3c7>@@@Z 0000000180033674     libucrt:per_thread_data.obj
 0004:00001680       $pdata$??$?RV<lambda_2d41944a1d46af3157314b8a01080d33>@@AEAV<lambda_8f455de75cd7d7f24b4096f044d8b9e6>@@V<lambda_aa500f224e6afead328df44964fe2772>@@@?$__crt_seh_guarded_call@X@@QEAAX$$QEAV<lambda_2d41944a1d46af3157314b8a01080d33>@@AEAV<lambda_8f455de75cd7d7f24b4096f044d8b9e6>@@$$QEAV<lambda_aa500f224e6afead328df44964fe2772>@@@Z 0000000180033680     libucrt:per_thread_data.obj
 0004:0000168c       $pdata$_calloc_base        000000018003368c     libucrt:calloc_base.obj
 0004:00001698       $pdata$_malloc_base        0000000180033698     libucrt:malloc_base.obj
 0004:000016a4       $pdata$_msize_base         00000001800336a4     libucrt:msize.obj
 0004:000016b0       $pdata$_realloc_base       00000001800336b0     libucrt:realloc_base.obj
 0004:000016bc       $pdata$__acrt_initialize_winapi_thunks 00000001800336bc     libucrt:winapi_thunks.obj
 0004:000016c8       $pdata$__acrt_uninitialize_winapi_thunks 00000001800336c8     libucrt:winapi_thunks.obj
 0004:000016d4       $pdata$__acrt_AreFileApisANSI 00000001800336d4     libucrt:winapi_thunks.obj
 0004:000016e0       $pdata$__acrt_FlsAlloc     00000001800336e0     libucrt:winapi_thunks.obj
 0004:000016ec       $pdata$__acrt_FlsFree      00000001800336ec     libucrt:winapi_thunks.obj
 0004:000016f8       $pdata$__acrt_FlsGetValue  00000001800336f8     libucrt:winapi_thunks.obj
 0004:00001704       $pdata$__acrt_FlsSetValue  0000000180033704     libucrt:winapi_thunks.obj
 0004:00001710       $pdata$__acrt_InitializeCriticalSectionEx 0000000180033710     libucrt:winapi_thunks.obj
 0004:0000171c       $pdata$__acrt_LCMapStringEx 000000018003371c     libucrt:winapi_thunks.obj
 0004:00001728       $pdata$__acrt_LocaleNameToLCID 0000000180033728     libucrt:winapi_thunks.obj
 0004:00001734       $pdata$__acrt_AppPolicyGetProcessTerminationMethodInternal 0000000180033734     libucrt:winapi_thunks.obj
 0004:00001740       $pdata$__acrt_SetThreadStackGuarantee 0000000180033740     libucrt:winapi_thunks.obj
 0004:0000174c       $pdata$?try_get_function@@YAPEAXW4function_id@?A0x391cf84c@@QEBDQEBW4module_id@2@2@Z 000000018003374c     libucrt:winapi_thunks.obj
 0004:00001758       $pdata$wcstol              0000000180033758     libucrt:strtox.obj
 0004:00001764       $pdata$_mbtowc_l           0000000180033764     libucrt:mbtowc.obj
 0004:00001770       $pdata$__acrt_update_locale_info 0000000180033770     libucrt:locale_update.obj
 0004:0000177c       $pdata$__acrt_update_multibyte_info 000000018003377c     libucrt:locale_update.obj
 0004:00001788       $pdata$__acrt_fp_format    0000000180033788     libucrt:cvt.obj
 0004:00001794       $pdata$?fp_format_e_internal@@YAHQEAD_KH_NIQEAU_strflt@@2QEAU__crt_locale_pointers@@@Z 0000000180033794     libucrt:cvt.obj
 0004:000017a0       $pdata$?fp_format_e@@YAHQEBNQEAD_K12H_NIQEAU__crt_locale_pointers@@@Z 00000001800337a0     libucrt:cvt.obj
 0004:000017ac       $pdata$?fp_format_a@@YAHQEBNPEAD_KQEAD2H_NIQEAU__crt_locale_pointers@@@Z 00000001800337ac     libucrt:cvt.obj
 0004:000017b8       $pdata$?fp_format_f_internal@@YAHQEAD_KHQEAU_strflt@@_NQEAU__crt_locale_pointers@@@Z 00000001800337b8     libucrt:cvt.obj
 0004:000017c4       $pdata$?fp_format_g@@YAHQEBNQEAD_K12H_NIQEAU__crt_locale_pointers@@@Z 00000001800337c4     libucrt:cvt.obj
 0004:000017d0       $pdata$_fileno             00000001800337d0     libucrt:fileno.obj
 0004:000017dc       $pdata$__acrt_initialize_stdio 00000001800337dc     libucrt:_file.obj
 0004:000017e8       $pdata$__acrt_uninitialize_stdio 00000001800337e8     libucrt:_file.obj
 0004:000017f4       $pdata$__acrt_uninitialize_locale 00000001800337f4     libucrt:wsetlocale.obj
 0004:00001800       $pdata$??$?RV<lambda_410d79af7f07d98d83a3f525b3859a53>@@AEAV<lambda_3e16ef9562a7dcce91392c22ab16ea36>@@V<lambda_38119f0e861e05405d8a144b9b982f0a>@@@?$__crt_seh_guarded_call@X@@QEAAX$$QEAV<lambda_410d79af7f07d98d83a3f525b3859a53>@@AEAV<lambda_3e16ef9562a7dcce91392c22ab16ea36>@@$$QEAV<lambda_38119f0e861e05405d8a144b9b982f0a>@@@Z 0000000180033800     libucrt:wsetlocale.obj
 0004:0000180c       $pdata$?fin$0@?0???$?RV<lambda_410d79af7f07d98d83a3f525b3859a53>@@AEAV<lambda_3e16ef9562a7dcce91392c22ab16ea36>@@V<lambda_38119f0e861e05405d8a144b9b982f0a>@@@?$__crt_seh_guarded_call@X@@QEAAX$$QEAV<lambda_410d79af7f07d98d83a3f525b3859a53>@@AEAV<lambda_3e16ef9562a7dcce91392c22ab16ea36>@@$$QEAV<lambda_38119f0e861e05405d8a144b9b982f0a>@@@Z@4HA 000000018003380c     libucrt:wsetlocale.obj
 0004:00001818       $pdata$__acrt_initialize_lowio 0000000180033818     libucrt:ioinit.obj
 0004:00001824       $pdata$__acrt_lowio_ensure_fh_exists$fin$0 0000000180033824     libucrt:osfinfo.obj
 0004:00001824       $pdata$__acrt_initialize_lowio$fin$0 0000000180033824     libucrt:ioinit.obj
 0004:00001830       $pdata$__acrt_uninitialize_lowio 0000000180033830     libucrt:ioinit.obj
 0004:0000183c       $pdata$?initialize_inherited_file_handles_nolock@@YAXXZ 000000018003383c     libucrt:ioinit.obj
 0004:00001848       $pdata$?initialize_stdio_handles_nolock@@YAXXZ 0000000180033848     libucrt:ioinit.obj
 0004:00001854       $pdata$__acrt_initialize_locks 0000000180033854     libucrt:locks.obj
 0004:00001860       $pdata$__acrt_uninitialize_locks 0000000180033860     libucrt:locks.obj
 0004:0000186c       $pdata$__acrt_get_process_end_policy 000000018003386c     libucrt:win_policies.obj
 0004:00001878       $pdata$??$__acrt_mbs_to_wcs_cp@U__crt_win32_buffer_internal_dynamic_resizing@@@@YAHQEBDAEAV?$__crt_win32_buffer@_WU__crt_win32_buffer_internal_dynamic_resizing@@@@I@Z 0000000180033878     libucrt:argv_wildcards.obj
 0004:00001884       $pdata$??$__acrt_wcs_to_mbs_cp@U__crt_win32_buffer_internal_dynamic_resizing@@@@YAHQEB_WAEAV?$__crt_win32_buffer@DU__crt_win32_buffer_internal_dynamic_resizing@@@@I@Z 0000000180033884     libucrt:argv_wildcards.obj
 0004:00001890       $pdata$??$common_expand_argv_wildcards@D@@YAHQEAPEADQEAPEAPEAD@Z 0000000180033890     libucrt:argv_wildcards.obj
 0004:0000189c       $pdata$??$copy_and_add_argument_to_buffer@D@@YAHQEBD0_KAEAV?$argument_list@D@?A0x5f5c8891@@@Z 000000018003389c     libucrt:argv_wildcards.obj
 0004:000018a8       $pdata$??$expand_argument_wildcards@D@@YAHQEAD0AEAV?$argument_list@D@?A0x5f5c8891@@@Z 00000001800338a8     libucrt:argv_wildcards.obj
 0004:000018b4       $pdata$__acrt_GetModuleFileNameA 00000001800338b4     libucrt:getmodulefilenamea.obj
 0004:000018c0       $pdata$??$__acrt_wcs_to_mbs_cp@U__crt_win32_buffer_no_resizing@@@@YAHQEB_WAEAV?$__crt_win32_buffer@DU__crt_win32_buffer_no_resizing@@@@I@Z 00000001800338c0     libucrt:getmodulefilenamea.obj
 0004:000018cc       $pdata$__acrt_update_thread_multibyte_data 00000001800338cc     libucrt:mbctype.obj
 0004:000018d8       $pdata$__acrt_initialize_multibyte 00000001800338d8     libucrt:mbctype.obj
 0004:000018e4       $pdata$_setmbcp_nolock     00000001800338e4     libucrt:mbctype.obj
 0004:000018f0       $pdata$?getSystemCP@@YAHH@Z 00000001800338f0     libucrt:mbctype.obj
 0004:000018fc       $pdata$?setSBCS@@YAXPEAU__crt_multibyte_data@@@Z 00000001800338fc     libucrt:mbctype.obj
 0004:00001908       $pdata$?update_thread_multibyte_data_internal@@YAPEAU__crt_multibyte_data@@QEAU__acrt_ptd@@QEAPEAU1@@Z 0000000180033908     libucrt:mbctype.obj
 0004:00001914       $pdata$?fin$0@?0??update_thread_multibyte_data_internal@@YAPEAU__crt_multibyte_data@@QEAU__acrt_ptd@@QEAPEAU1@@Z@4HA 0000000180033914     libucrt:mbctype.obj
 0004:00001920       $pdata$?setmbcp_internal@@YAHH_NQEAU__acrt_ptd@@QEAPEAU__crt_multibyte_data@@@Z 0000000180033920     libucrt:mbctype.obj
 0004:0000192c       $pdata$?setSBUpLow@@YAXPEAU__crt_multibyte_data@@@Z 000000018003392c     libucrt:mbctype.obj
 0004:00001938       $pdata$??$?RV<lambda_efdfa57d1f175319df784efa44bb7b81>@@AEAV<lambda_5f0a4c1567f8adc6734073e5d1e1b35c>@@V<lambda_2e8a7d3640ea6ccb4c2413664c2db6fd>@@@?$__crt_seh_guarded_call@X@@QEAAX$$QEAV<lambda_efdfa57d1f175319df784efa44bb7b81>@@AEAV<lambda_5f0a4c1567f8adc6734073e5d1e1b35c>@@$$QEAV<lambda_2e8a7d3640ea6ccb4c2413664c2db6fd>@@@Z 0000000180033938     libucrt:mbctype.obj
 0004:00001944       $pdata$?x_ismbbtype_l@@YAHPEAU__crt_locale_pointers@@IHH@Z 0000000180033944     libucrt:ismbbyte.obj
 0004:00001950       $pdata$__acrt_initialize_command_line 0000000180033950     libucrt:argv_data.obj
 0004:0000195c       $pdata$__acrt_WideCharToMultiByte 000000018003395c     libucrt:widechartomultibyte.obj
 0004:00001968       $pdata$__dcrt_get_narrow_environment_from_os 0000000180033968     libucrt:get_environment_from_os.obj
 0004:00001974       $pdata$__acrt_initialize_heap 0000000180033974     libucrt:heap_handle.obj
 0004:00001980       $pdata$__acrt_execute_initializers 0000000180033980     libucrt:shared_initialization.obj
 0004:0000198c       $pdata$__acrt_execute_uninitializers 000000018003398c     libucrt:shared_initialization.obj
 0004:00001998       $pdata$__acrt_get_sigabrt_handler 0000000180033998     libucrt:signal.obj
 0004:000019a4       $pdata$raise               00000001800339a4     libucrt:signal.obj
 0004:000019b0       $pdata$raise$fin$0         00000001800339b0     libucrt:signal.obj
 0004:000019bc       $pdata$??$?RV<lambda_450d765d439847d4c735a33c368b5fc0>@@AEAV<lambda_44731a7d0e6d81c3e6aa82d741081786>@@V<lambda_601a2a7da3b7a96e9554ac7215c4b07c>@@@?$__crt_seh_guarded_call@P6AXH@Z@@QEAAP6AXH@Z$$QEAV<lambda_450d765d439847d4c735a33c368b5fc0>@@AEAV<lambda_44731a7d0e6d81c3e6aa82d741081786>@@$$QEAV<lambda_601a2a7da3b7a96e9554ac7215c4b07c>@@@Z 00000001800339bc     libucrt:signal.obj
 0004:000019c8       $pdata$_fflush_nolock      00000001800339c8     libucrt:fflush.obj
 0004:000019d4       $pdata$__acrt_stdio_flush_nolock 00000001800339d4     libucrt:fflush.obj
 0004:000019e0       $pdata$?common_flush_all@@YAH_N@Z 00000001800339e0     libucrt:fflush.obj
 0004:000019ec       $pdata$??$?RV<lambda_842d9ff0dc9ef11c61343bbaebe7f885>@@AEAV<lambda_c5860995281e5c4ce005b3de8f5874ee>@@V<lambda_d90129c13df834fdcbf8d2b88dafcf2d>@@@?$__crt_seh_guarded_call@X@@QEAAX$$QEAV<lambda_842d9ff0dc9ef11c61343bbaebe7f885>@@AEAV<lambda_c5860995281e5c4ce005b3de8f5874ee>@@$$QEAV<lambda_d90129c13df834fdcbf8d2b88dafcf2d>@@@Z 00000001800339ec     libucrt:fflush.obj
 0004:000019f8       $pdata$?fin$0@?0???$?RV<lambda_842d9ff0dc9ef11c61343bbaebe7f885>@@AEAV<lambda_c5860995281e5c4ce005b3de8f5874ee>@@V<lambda_d90129c13df834fdcbf8d2b88dafcf2d>@@@?$__crt_seh_guarded_call@X@@QEAAX$$QEAV<lambda_842d9ff0dc9ef11c61343bbaebe7f885>@@AEAV<lambda_c5860995281e5c4ce005b3de8f5874ee>@@$$QEAV<lambda_d90129c13df834fdcbf8d2b88dafcf2d>@@@Z@4HA 00000001800339f8     libucrt:fflush.obj
 0004:00001a04       $pdata$??$?RV<lambda_886d6c58226a84441f68b9f2b8217b83>@@AEAV<lambda_ab61a845afdef5b7c387490eaf3616ee>@@V<lambda_f7f22ab5edc0698d5f6905b0d3f44752>@@@?$__crt_seh_guarded_call@X@@QEAAX$$QEAV<lambda_886d6c58226a84441f68b9f2b8217b83>@@AEAV<lambda_ab61a845afdef5b7c387490eaf3616ee>@@$$QEAV<lambda_f7f22ab5edc0698d5f6905b0d3f44752>@@@Z 0000000180033a04     libucrt:fflush.obj
 0004:00001a10       $pdata$?fin$0@?0???$?RV<lambda_886d6c58226a84441f68b9f2b8217b83>@@AEAV<lambda_ab61a845afdef5b7c387490eaf3616ee>@@V<lambda_f7f22ab5edc0698d5f6905b0d3f44752>@@@?$__crt_seh_guarded_call@X@@QEAAX$$QEAV<lambda_886d6c58226a84441f68b9f2b8217b83>@@AEAV<lambda_ab61a845afdef5b7c387490eaf3616ee>@@$$QEAV<lambda_f7f22ab5edc0698d5f6905b0d3f44752>@@@Z@4HA 0000000180033a10     libucrt:fflush.obj
 0004:00001a1c       $pdata$__pctype_func       0000000180033a1c     libucrt:ctype.obj
 0004:00001a28       $pdata$iswctype            0000000180033a28     libucrt:iswctype.obj
 0004:00001a34       $pdata$__acrt_release_locale_ref 0000000180033a34     libucrt:locale_refcounting.obj
 0004:00001a40       $pdata$__acrt_free_locale  0000000180033a40     libucrt:locale_refcounting.obj
 0004:00001a4c       $pdata$__acrt_locale_free_lc_time_if_unreferenced 0000000180033a4c     libucrt:locale_refcounting.obj
 0004:00001a58       $pdata$__acrt_update_thread_locale_data 0000000180033a58     libucrt:locale_refcounting.obj
 0004:00001a64       $pdata$__acrt_update_thread_locale_data$fin$0 0000000180033a64     libucrt:locale_refcounting.obj
 0004:00001a70       $pdata$_updatetlocinfoEx_nolock 0000000180033a70     libucrt:locale_refcounting.obj
 0004:00001a7c       $pdata$__acrt_DownlevelLocaleNameToLCID 0000000180033a7c     libucrt:lcidtoname_downlevel.obj
 0004:00001a88       $pdata$_isleadbyte_l       0000000180033a88     libucrt:_wctype.obj
 0004:00001a94       $pdata$?__mbrtowc_utf8@__crt_mbstring@@YA_KPEA_WPEBD_KPEAU_Mbstatet@@@Z 0000000180033a94     libucrt:mbrtowc.obj
 0004:00001aa0       $pdata$?__mbsrtowcs_utf8@__crt_mbstring@@YA_KPEA_WPEAPEBD_KPEAU_Mbstatet@@@Z 0000000180033aa0     libucrt:mbrtowc.obj
 0004:00001aac       $pdata$__acrt_fp_strflt_to_string 0000000180033aac     libucrt:_fptostr.obj
 0004:00001ab8       $pdata$__acrt_fltout       0000000180033ab8     libucrt:cfout.obj
 0004:00001ac4       $pdata$?divide@__crt_strtox@@YA_KAEAUbig_integer@1@AEBU21@@Z 0000000180033ac4     libucrt:cfout.obj
 0004:00001ad0       $pdata$0$?divide@__crt_strtox@@YA_KAEAUbig_integer@1@AEBU21@@Z 0000000180033ad0     libucrt:cfout.obj
 0004:00001adc       $pdata$1$?divide@__crt_strtox@@YA_KAEAUbig_integer@1@AEBU21@@Z 0000000180033adc     libucrt:cfout.obj
 0004:00001ae8       $pdata$_fcloseall          0000000180033ae8     libucrt:closeall.obj
 0004:00001af4       $pdata$_fcloseall$fin$0    0000000180033af4     libucrt:closeall.obj
 0004:00001b00       $pdata$__acrt_stdio_free_buffer_nolock 0000000180033b00     libucrt:_freebuf.obj
 0004:00001b0c       $pdata$_isatty             0000000180033b0c     libucrt:isatty.obj
 0004:00001b18       $pdata$__acrt_locale_free_monetary 0000000180033b18     libucrt:initmon.obj
 0004:00001b24       $pdata$__acrt_locale_free_numeric 0000000180033b24     libucrt:initnum.obj
 0004:00001b30       $pdata$__acrt_locale_free_time 0000000180033b30     libucrt:inittime.obj
 0004:00001b3c       $pdata$?free_crt_array_internal@@YAXQEAPEBX_K@Z 0000000180033b3c     libucrt:inittime.obj
 0004:00001b48       $pdata$__acrt_GetStringTypeA 0000000180033b48     libucrt:getstringtypea.obj
 0004:00001b54       $pdata$_get_osfhandle      0000000180033b54     libucrt:osfinfo.obj
 0004:00001b60       $pdata$_free_osfhnd        0000000180033b60     libucrt:osfinfo.obj
 0004:00001b6c       $pdata$__acrt_lowio_create_handle_array 0000000180033b6c     libucrt:osfinfo.obj
 0004:00001b78       $pdata$__acrt_lowio_destroy_handle_array 0000000180033b78     libucrt:osfinfo.obj
 0004:00001b84       $pdata$__acrt_lowio_ensure_fh_exists 0000000180033b84     libucrt:osfinfo.obj
 0004:00001b90       $pdata$qsort               0000000180033b90     libucrt:qsort.obj
 0004:00001b9c       $pdata$4$qsort             0000000180033b9c     libucrt:qsort.obj
 0004:00001ba8       $pdata$5$qsort             0000000180033ba8     libucrt:qsort.obj
 0004:00001bb4       $pdata$strncpy_s           0000000180033bb4     libucrt:strncpy_s.obj
 0004:00001bc0       $pdata$strpbrk             0000000180033bc0     libucrt:strpbrk.obj
 0004:00001bcc       $pdata$fallbackMethod      0000000180033bcc     libucrt:strpbrk.obj
 0004:00001bd8       $pdata$_mbsdec_l           0000000180033bd8     libucrt:mbsdec.obj
 0004:00001be4       $pdata$__acrt_LCMapStringA 0000000180033be4     libucrt:lcmapstringa.obj
 0004:00001bf0       $pdata$?__acrt_LCMapStringA_stat@@YAHPEAU__crt_locale_pointers@@PEB_WKPEBDHPEADHHH@Z 0000000180033bf0     libucrt:lcmapstringa.obj
 0004:00001bfc       $pdata$?initialize_multibyte@@YAHXZ 0000000180033bfc     libucrt:multibyte_initializer.obj
 0004:00001c08       $pdata$_commit             0000000180033c08     libucrt:commit.obj
 0004:00001c14       $pdata$??$?RV<lambda_a37b2b86f63e897a80ea819b0eb08c01>@@AEAV<lambda_38ce7e780aa69e748d6df282ebc68efe>@@V<lambda_99fb1378e971ab6e7edea83e3a7a83a2>@@@?$__crt_seh_guarded_call@H@@QEAAH$$QEAV<lambda_a37b2b86f63e897a80ea819b0eb08c01>@@AEAV<lambda_38ce7e780aa69e748d6df282ebc68efe>@@$$QEAV<lambda_99fb1378e971ab6e7edea83e3a7a83a2>@@@Z 0000000180033c14     libucrt:commit.obj
 0004:00001c20       $pdata$?fin$0@?0???$?RV<lambda_a37b2b86f63e897a80ea819b0eb08c01>@@AEAV<lambda_38ce7e780aa69e748d6df282ebc68efe>@@V<lambda_99fb1378e971ab6e7edea83e3a7a83a2>@@@?$__crt_seh_guarded_call@H@@QEAAH$$QEAV<lambda_a37b2b86f63e897a80ea819b0eb08c01>@@AEAV<lambda_38ce7e780aa69e748d6df282ebc68efe>@@$$QEAV<lambda_99fb1378e971ab6e7edea83e3a7a83a2>@@@Z@4HA 0000000180033c20     libucrt:commit.obj
 0004:00001c20       $pdata$?fin$0@?0???$?RV<lambda_751a882b2c74d4b022dec766aa51a29a>@@AEAV<lambda_628dfdc04ba53c8bfc02c9951375f3f5>@@V<lambda_f6c7be5f7998530c34de24c7437d6b54>@@@?$__crt_seh_guarded_call@H@@QEAAH$$QEAV<lambda_751a882b2c74d4b022dec766aa51a29a>@@AEAV<lambda_628dfdc04ba53c8bfc02c9951375f3f5>@@$$QEAV<lambda_f6c7be5f7998530c34de24c7437d6b54>@@@Z@4HA 0000000180033c20     libucrt:close.obj
 0004:00001c2c       $pdata$_write              0000000180033c2c     libucrt:write.obj
 0004:00001c38       $pdata$_write$fin$0        0000000180033c38     libucrt:write.obj
 0004:00001c44       $pdata$_write_nolock       0000000180033c44     libucrt:write.obj
 0004:00001c50       $pdata$?write_double_translated_ansi_nolock@@YA?AUwrite_result@?A0x17268360@@HQEBDI@Z 0000000180033c50     libucrt:write.obj
 0004:00001c5c       $pdata$?write_text_ansi_nolock@@YA?AUwrite_result@?A0x17268360@@HQEBDI@Z 0000000180033c5c     libucrt:write.obj
 0004:00001c68       $pdata$?write_text_utf16le_nolock@@YA?AUwrite_result@?A0x17268360@@HQEBDI@Z 0000000180033c68     libucrt:write.obj
 0004:00001c74       $pdata$?write_text_utf8_nolock@@YA?AUwrite_result@?A0x17268360@@HQEBDI@Z 0000000180033c74     libucrt:write.obj
 0004:00001c80       $pdata$?__mbrtoc32_utf8@__crt_mbstring@@YA_KPEA_UPEBD_KPEAU_Mbstatet@@@Z 0000000180033c80     libucrt:mbrtoc32.obj
 0004:00001c8c       $pdata$fegetenv            0000000180033c8c     libucrt:fegetenv.obj
 0004:00001c98       $pdata$fesetenv            0000000180033c98     libucrt:fesetenv.obj
 0004:00001ca4       $pdata$feholdexcept        0000000180033ca4     libucrt:feholdexcept.obj
 0004:00001cbc       $pdata$??$common_lseek_nolock@_J@@YA_JH_JH@Z 0000000180033cbc     libucrt:lseek.obj
 0004:00001cc8       $pdata$fclose              0000000180033cc8     libucrt:fclose.obj
 0004:00001cd4       $pdata$fclose$fin$0        0000000180033cd4     libucrt:fclose.obj
 0004:00001ce0       $pdata$_fclose_nolock      0000000180033ce0     libucrt:fclose.obj
 0004:00001cec       $pdata$_putwch_nolock      0000000180033cec     libucrt:putwch.obj
 0004:00001cf8       $pdata$__acrt_fenv_set_control 0000000180033cf8     libucrt:_fenvutils.obj
 0004:00001d04       $pdata$_clearfp            0000000180033d04     libucrt:ieee.obj
 0004:00001d10       $pdata$_call_matherr       0000000180033d10     libucrt:libm_error.obj
 0004:00001d1c       $pdata$_exception_enabled  0000000180033d1c     libucrt:libm_error.obj
 0004:00001d28       $pdata$_handle_error       0000000180033d28     libucrt:libm_error.obj
 0004:00001d34       $pdata$__acrt_initialize_fma3 0000000180033d34     libucrt:fma3_available.obj
 0004:00001d40       $pdata$_log_special_common 0000000180033d40     libucrt:log_special.obj
 0004:00001d4c       $pdata$_log10_special      0000000180033d4c     libucrt:log_special.obj
 0004:00001d58       $pdata$_close              0000000180033d58     libucrt:close.obj
 0004:00001d64       $pdata$_close_nolock       0000000180033d64     libucrt:close.obj
 0004:00001d70       $pdata$??$?RV<lambda_751a882b2c74d4b022dec766aa51a29a>@@AEAV<lambda_628dfdc04ba53c8bfc02c9951375f3f5>@@V<lambda_f6c7be5f7998530c34de24c7437d6b54>@@@?$__crt_seh_guarded_call@H@@QEAAH$$QEAV<lambda_751a882b2c74d4b022dec766aa51a29a>@@AEAV<lambda_628dfdc04ba53c8bfc02c9951375f3f5>@@$$QEAV<lambda_f6c7be5f7998530c34de24c7437d6b54>@@@Z 0000000180033d70     libucrt:close.obj
 0004:00001d7c       $pdata$__dcrt_lowio_ensure_console_output_initialized 0000000180033d7c     libucrt:initcon.obj
 0004:00001d88       $pdata$__dcrt_write_console 0000000180033d88     libucrt:initcon.obj
 0004:00001d94       $pdata$__dcrt_terminate_console_output 0000000180033d94     libucrt:initcon.obj
 0004:00001dac       $pdata$_set_errno_from_matherr 0000000180033dac     libucrt:fpexcept.obj
 0004:00001db8       $pdata$_raise_exc          0000000180033db8     libucrt:fpexcept.obj
 0004:00001dc4       $pdata$_raise_exc_ex       0000000180033dc4     libucrt:fpexcept.obj
 0004:00001dd0       $pdata$_clrfp              0000000180033dd0     libucrt:fpctrl.obj
 0004:00001ddc       $pdata$_ctrlfp             0000000180033ddc     libucrt:fpctrl.obj
 0004:00001de8       $pdata$_ctrlfp$filt$0      0000000180033de8     libucrt:fpctrl.obj
 0004:00001df4       $pdata$_statfp             0000000180033df4     libucrt:fpctrl.obj
 0004:00001e00       $pdata$_set_statfp         0000000180033e00     libucrt:fpctrl.obj
 0004:00001e0c       $pdata$_IsNonwritableInCurrentImage 0000000180033e0c     LIBCMT:pesect.obj
 0004:00001e18       $pdata$_IsNonwritableInCurrentImage$filt$0 0000000180033e18     LIBCMT:pesect.obj
 0005:00000000       MoveSmall                  0000000180034000     libvcruntime:memcpy.obj
 0005:00000050       MsetTab                    0000000180034050     libvcruntime:memset.obj
 0006:00000220       $R000000                   0000000180035220     CashDrawer.res
 0006:00000b90       $R000970                   0000000180035b90     CashDrawer.res
 0006:00000c78       $R000A58                   0000000180035c78     CashDrawer.res
 0006:00000ee0       $R000CC0                   0000000180035ee0     CashDrawer.res
 0006:00001408       $R0011E8                   0000000180036408     CashDrawer.res
 0006:000038b8       $R003698                   00000001800388b8     CashDrawer.res
 0006:000038f0       $R0036D0                   00000001800388f0     CashDrawer.res
