 OPOSPOSKeyboard

 Timestamp is 5ed45932 (Mon Jun  1 10:26:10 2020)

 Preferred load address is 0000000180000000

 Start         Length     Name                   Class
 0001:00000000 000000c0H .text$di                CODE
 0001:000000c0 00020f60H .text$mn                CODE
 0001:00021020 00000040H .text$mn$00             CODE
 0001:00021060 000004b0H .text$x                 CODE
 0001:00021510 00000078H .text$yd                CODE
 0002:00000000 00000618H .idata$5                DATA
 0002:00000618 00000028H .00cfg                  DATA
 0002:00000640 00000008H .CRT$XCA                DATA
 0002:00000648 00000008H .CRT$XCL                DATA
 0002:00000650 00000020H .CRT$XCU                DATA
 0002:00000670 00000008H .CRT$XCZ                DATA
 0002:00000678 00000008H .CRT$XIA                DATA
 0002:00000680 00000020H .CRT$XIC                DATA
 0002:000006a0 00000008H .CRT$XIZ                DATA
 0002:000006a8 00000008H .CRT$XLA                DATA
 0002:000006b0 00000008H .CRT$XLZ                DATA
 0002:000006b8 00000008H .CRT$XPA                DATA
 0002:000006c0 00000010H .CRT$XPX                DATA
 0002:000006d0 00000008H .CRT$XPXA               DATA
 0002:000006d8 00000008H .CRT$XPZ                DATA
 0002:000006e0 00000008H .CRT$XTA                DATA
 0002:000006e8 00000008H .CRT$XTZ                DATA
 0002:000006f0 00000000H .gfids$y                DATA
 0002:000006f0 0000a740H .rdata                  DATA
 0002:0000ae30 00000028H .rdata$T                DATA
 0002:0000ae58 00000274H .rdata$r                DATA
 0002:0000b0cc 0000040cH .rdata$zzzdbg           DATA
 0002:0000b4d8 00000008H .rtc$IAA                DATA
 0002:0000b4e0 00000008H .rtc$IZZ                DATA
 0002:0000b4e8 00000008H .rtc$TAA                DATA
 0002:0000b4f0 00000008H .rtc$TZZ                DATA
 0002:0000b4f8 00000004H .tls                    DATA
 0002:0000b4fc 00000004H .tls$                   DATA
 0002:0000b500 00000008H .tls$ZZZ                DATA
 0002:0000b508 000016b0H .xdata                  DATA
 0002:0000cbb8 00000150H .xdata$x                DATA
 0002:0000cd08 00000008H ATL$__a                 DATA
 0002:0000cd10 00000010H ATL$__z                 DATA
 0002:0000cd20 000000acH .edata                  DATA
 0002:0000cdcc 00000078H .idata$2                DATA
 0002:0000ce44 00000014H .idata$3                DATA
 0002:0000ce58 00000618H .idata$4                DATA
 0002:0000d470 00000c2aH .idata$6                DATA
 0003:00000000 00000d88H .data                   DATA
 0003:00000d88 000000c8H .data$r                 DATA
 0003:00000e50 0000140cH .bss                    DATA
 0004:00000000 00001e30H .pdata                  DATA
 0005:00000000 00000094H _RDATA                  DATA
 0006:00000000 00000220H .rsrc$01                DATA
 0006:00000220 00003b38H .rsrc$02                DATA

  Address         Publics by Value              Rva+Base               Lib:Object

 0000:00000000       __guard_fids_count         0000000000000000     <absolute>
 0000:00000000       __x64_code_ranges_to_entry_points 0000000000000000     <absolute>
 0000:00000000       __guard_longjmp_count      0000000000000000     <absolute>
 0000:00000000       __guard_longjmp_table      0000000000000000     <absolute>
 0000:00000000       __hybrid_code_map          0000000000000000     <absolute>
 0000:00000000       __arm64x_redirection_metadata 0000000000000000     <absolute>
 0000:00000000       __guard_iat_count          0000000000000000     <absolute>
 0000:00000000       __guard_eh_cont_count      0000000000000000     <absolute>
 0000:00000000       __guard_iat_table          0000000000000000     <absolute>
 0000:00000000       __arm64x_native_entrypoint 0000000000000000     <absolute>
 0000:00000000       __volatile_metadata        0000000000000000     <absolute>
 0000:00000000       __hybrid_code_map_count    0000000000000000     <absolute>
 0000:00000000       __guard_eh_cont_table      0000000000000000     <absolute>
 0000:00000000       __enclave_config           0000000000000000     <absolute>
 0000:00000000       ___safe_se_handler_count   0000000000000000     <absolute>
 0000:00000000       __AbsoluteZero             0000000000000000     <absolute>
 0000:00000000       ___safe_se_handler_table   0000000000000000     <absolute>
 0000:00000000       __guard_fids_table         0000000000000000     <absolute>
 0000:00000000       __dynamic_value_reloc_table 0000000000000000     <absolute>
 0000:00000000       __hybrid_auxiliary_iat     0000000000000000     <absolute>
 0000:00000100       __guard_flags              0000000000000100     <absolute>
 0000:00000000       __ImageBase                0000000180000000     <linker-defined>
 0001:000000c0       ?DupWide@_CW@@AEAAXXZ      00000001800010c0 f   CWString.obj
 0001:000000e8       ?cw_dup@@YAXPEBDAEAHAEAPEA_W1@Z 00000001800010e8 f   CWString.obj
 0001:000001c8       ?cw_memcpy@@YAHPEA_WPEBDH@Z 00000001800011c8 f   CWString.obj
 0001:00000214       ?cw_strcpy@@YAHPEA_WPEBD@Z 0000000180001214 f   CWString.obj
 0001:00000228       ??0CAtlComModule@ATL@@QEAA@XZ 0000000180001228 f i OposVariant.obj
 0001:000002a8       ??0CAtlWinModule@ATL@@QEAA@XZ 00000001800012a8 f i OposVariant.obj
 0001:00000314       ??0OposDispParms@@QEAA@PEAVOposVariant@@H@Z 0000000180001314 f   OposVariant.obj
 0001:000003bc       ??1OposDispParms@@QEAA@XZ  00000001800013bc f   OposVariant.obj
 0001:000003d4       ??_Estringdispid@CComTypeInfoHolder@ATL@@QEAAPEAXI@Z 00000001800013d4 f i OposVariant.obj
 0001:00000478       ?AtlWinModuleTerm@ATL@@YAJPEAU_ATL_WIN_MODULE70@1@PEAUHINSTANCE__@@@Z 0000000180001478 f i OposVariant.obj
 0001:00000528       ?ChangeBSTR@OposVariant@@QEAAXPEAPEA_WAEAJ@Z 0000000180001528 f   OposVariant.obj
 0001:00000588       ?ChangeLONG@OposVariant@@QEAAXPEAJAEAJ@Z 0000000180001588 f   OposVariant.obj
 0001:000005e4       ?GetLONG@OposVariant@@QEAAJXZ 00000001800015e4 f   OposVariant.obj
 0001:00000608       ?SetBSTR@OposVariant@@QEAAXPEA_WAEAJ@Z 0000000180001608 f   OposVariant.obj
 0001:00000648       ?SetBSTR_Copy@OposVariant@@QEAAXPEA_WAEAJ@Z 0000000180001648 f   OposVariant.obj
 0001:000006b8       ?SetBSTR_InOutPtr@OposVariant@@QEAA_NPEAPEA_WAEAJ@Z 00000001800016b8 f   OposVariant.obj
 0001:00000708       ?SetDispatch_Ptr@OposVariant@@QEAAXPEAUIDispatch@@AEAJ@Z 0000000180001708 f   OposVariant.obj
 0001:00000760       ?SetLONG@OposVariant@@QEAAXJ@Z 0000000180001760 f   OposVariant.obj
 0001:00000790       ?SetLONG_Ptr@OposVariant@@QEAAXPEAJAEAJ@Z 0000000180001790 f   OposVariant.obj
 0001:000007dc       ?SetString@OposVariant@@QEAAXPEB_WAEAJ@Z 00000001800017dc f   OposVariant.obj
 0001:00000840       ?SetVARIANT_BOOL@OposVariant@@QEAAXF@Z 0000000180001840 f   OposVariant.obj
 0001:00000878       ?Term@CAtlComModule@ATL@@QEAAXXZ 0000000180001878 f i OposVariant.obj
 0001:000008e8       ?_AtlInitializeCriticalSectionEx@ATL@@YAHPEAU_RTL_CRITICAL_SECTION@@KK@Z 00000001800018e8 f i OposVariant.obj
 0001:000008f0       ?_AtlRaiseException@ATL@@YAXKK@Z 00000001800018f0 f i OposVariant.obj
 0001:00000900       ?GetWindowProc@?$CWindowImplBaseT@VCWindow@ATL@@V?$CWinTraits@$0FGAAAAAA@$0A@@2@@ATL@@UEAAP6A_JPEAUHWND__@@I_K_J@ZXZ 0000000180001900 f i POSKeyboard.obj
 0001:00000908       ?StartWindowProc@?$CWindowImplBaseT@VCWindow@ATL@@V?$CWinTraits@$0FGAAAAAA@$0A@@2@@ATL@@SA_JPEAUHWND__@@I_K_J@Z 0000000180001908 f i POSKeyboard.obj
 0001:000009cc       ?ObjectMain@CComObjectRootBase@ATL@@SAX_N@Z 00000001800019cc f i POSKeyboard.obj
 0001:000009cc       ?OnFinalMessage@?$CWindowImplBaseT@VCWindow@ATL@@V?$CWinTraits@$0FGAAAAAA@$0A@@2@@ATL@@UEAAXPEAUHWND__@@@Z 00000001800019cc f i POSKeyboard.obj
 0001:000009cc       _guard_check_icall_nop     00000001800019cc f i LIBCMT:guard_support.obj
 0001:000009d0       ?GetTypeInfoCount@?$IDispatchImpl@UIOPOSPOSKeyboard@@$1?IID_IOPOSPOSKeyboard@@3U_GUID@@B$1?LIBID_OposPOSKeyboard_CCO@@3U3@B$00$0A@VCComTypeInfoHolder@ATL@@@ATL@@UEAAJPEAI@Z 00000001800019d0 f i POSKeyboard.obj
 0001:000009e4       ?GetTypeInfo@?$IDispatchImpl@UIOPOSPOSKeyboard@@$1?IID_IOPOSPOSKeyboard@@3U_GUID@@B$1?LIBID_OposPOSKeyboard_CCO@@3U3@B$00$0A@VCComTypeInfoHolder@ATL@@@ATL@@UEAAJIKPEAPEAUITypeInfo@@@Z 00000001800019e4 f i POSKeyboard.obj
 0001:00000a48       ?GetIDsOfNames@?$IDispatchImpl@UIOPOSPOSKeyboard@@$1?IID_IOPOSPOSKeyboard@@3U_GUID@@B$1?LIBID_OposPOSKeyboard_CCO@@3U3@B$00$0A@VCComTypeInfoHolder@ATL@@@ATL@@UEAAJAEBU_GUID@@PEAPEA_WIKPEAJ@Z 0000000180001a48 f i POSKeyboard.obj
 0001:00000a54       ?Invoke@?$IDispatchImpl@UIOPOSPOSKeyboard@@$1?IID_IOPOSPOSKeyboard@@3U_GUID@@B$1?LIBID_OposPOSKeyboard_CCO@@3U3@B$00$0A@VCComTypeInfoHolder@ATL@@@ATL@@UEAAJJAEBU_GUID@@KGPEAUtagDISPPARAMS@@PEAUtagVARIANT@@PEAUtagEXCEPINFO@@PEAI@Z 0000000180001a54 f i POSKeyboard.obj
 0001:00000ae4       ?CreateControlWindow@?$CComControl@VCOPOSPOSKeyboard@@V?$CWindowImpl@VCOPOSPOSKeyboard@@VCWindow@ATL@@V?$CWinTraits@$0FGAAAAAA@$0A@@3@@ATL@@@ATL@@UEAAPEAUHWND__@@PEAU3@AEAUtagRECT@@@Z 0000000180001ae4 f i POSKeyboard.obj
 0001:00000b1c       ?ControlQueryInterface@?$CComControl@VCOPOSPOSKeyboard@@V?$CWindowImpl@VCOPOSPOSKeyboard@@VCWindow@ATL@@V?$CWinTraits@$0FGAAAAAA@$0A@@3@@ATL@@@ATL@@UEAAJAEBU_GUID@@PEAPEAX@Z 0000000180001b1c f i POSKeyboard.obj
 0001:00000b30       ?GetClassID@?$IPersistStreamInitImpl@VCOPOSPOSKeyboard@@@ATL@@UEAAJPEAU_GUID@@@Z 0000000180001b30 f i POSKeyboard.obj
 0001:00000b30       ?GetUserClassID@?$IOleObjectImpl@VCOPOSPOSKeyboard@@@ATL@@UEAAJPEAU_GUID@@@Z 0000000180001b30 f i POSKeyboard.obj
 0001:00000b30       ?GetClassID@?$IPersistStorageImpl@VCOPOSPOSKeyboard@@@ATL@@UEAAJPEAU_GUID@@@Z 0000000180001b30 f i POSKeyboard.obj
 0001:00000b4c       ?IsDirty@?$IPersistStreamInitImpl@VCOPOSPOSKeyboard@@@ATL@@UEAAJXZ 0000000180001b4c f i POSKeyboard.obj
 0001:00000b68       ?Load@?$IPersistStreamInitImpl@VCOPOSPOSKeyboard@@@ATL@@UEAAJPEAUIStream@@@Z 0000000180001b68 f i POSKeyboard.obj
 0001:00000b80       ?Save@?$IPersistStreamInitImpl@VCOPOSPOSKeyboard@@@ATL@@UEAAJPEAUIStream@@H@Z 0000000180001b80 f i POSKeyboard.obj
 0001:00000b98       ?GetSizeMax@?$IPersistStreamInitImpl@VCOPOSPOSKeyboard@@@ATL@@UEAAJPEAT_ULARGE_INTEGER@@@Z 0000000180001b98 f i POSKeyboard.obj
 0001:00000dc4       ?InitNew@?$IPersistStreamInitImpl@VCOPOSPOSKeyboard@@@ATL@@UEAAJXZ 0000000180001dc4 f i POSKeyboard.obj
 0001:00000ddc       ?QueryGetData@?$IDataObjectImpl@VCOPOSPOSKeyboard@@@ATL@@UEAAJPEAUtagFORMATETC@@@Z 0000000180001ddc f i POSKeyboard.obj
 0001:00000ddc       ?GetMoniker@?$IOleObjectImpl@VCOPOSPOSKeyboard@@@ATL@@UEAAJKKPEAPEAUIMoniker@@@Z 0000000180001ddc f i POSKeyboard.obj
 0001:00000ddc       ?GetRect@?$IViewObjectExImpl@VCOPOSPOSKeyboard@@@ATL@@UEAAJKPEAU_RECTL@@@Z 0000000180001ddc f i POSKeyboard.obj
 0001:00000ddc       ?GetCanonicalFormatEtc@?$IDataObjectImpl@VCOPOSPOSKeyboard@@@ATL@@UEAAJPEAUtagFORMATETC@@0@Z 0000000180001ddc f i POSKeyboard.obj
 0001:00000ddc       ?GetDataHere@?$IDataObjectImpl@VCOPOSPOSKeyboard@@@ATL@@UEAAJPEAUtagFORMATETC@@PEAUtagSTGMEDIUM@@@Z 0000000180001ddc f i POSKeyboard.obj
 0001:00000ddc       ?ReactivateAndUndo@?$IOleInPlaceObjectWindowlessImpl@VCOPOSPOSKeyboard@@@ATL@@UEAAJXZ 0000000180001ddc f i POSKeyboard.obj
 0001:00000ddc       ?Unfreeze@?$IViewObjectExImpl@VCOPOSPOSKeyboard@@@ATL@@UEAAJK@Z 0000000180001ddc f i POSKeyboard.obj
 0001:00000ddc       ?GetColorSet@?$IViewObjectExImpl@VCOPOSPOSKeyboard@@@ATL@@UEAAJKJPEAXPEAUtagDVTARGETDEVICE@@PEAUHDC__@@PEAPEAUtagLOGPALETTE@@@Z 0000000180001ddc f i POSKeyboard.obj
 0001:00000ddc       ?OnMnemonic@?$IOleControlImpl@VCOPOSPOSKeyboard@@@ATL@@UEAAJPEAUtagMSG@@@Z 0000000180001ddc f i POSKeyboard.obj
 0001:00000ddc       ?SetData@?$IDataObjectImpl@VCOPOSPOSKeyboard@@@ATL@@UEAAJPEAUtagFORMATETC@@PEAUtagSTGMEDIUM@@H@Z 0000000180001ddc f i POSKeyboard.obj
 0001:00000ddc       ?QueryInterface@CRegObject@ATL@@UEAAJAEBU_GUID@@PEAPEAX@Z 0000000180001ddc f i POSKeyboard.obj
 0001:00000ddc       ?EnumFormatEtc@?$IDataObjectImpl@VCOPOSPOSKeyboard@@@ATL@@UEAAJKPEAPEAUIEnumFORMATETC@@@Z 0000000180001ddc f i POSKeyboard.obj
 0001:00000ddc       ?ContextSensitiveHelp@?$IOleInPlaceActiveObjectImpl@VCOPOSPOSKeyboard@@@ATL@@UEAAJH@Z 0000000180001ddc f i POSKeyboard.obj
 0001:00000ddc       ?GetClipboardData@?$IOleObjectImpl@VCOPOSPOSKeyboard@@@ATL@@UEAAJKPEAPEAUIDataObject@@@Z 0000000180001ddc f i POSKeyboard.obj
 0001:00000ddc       ?ContextSensitiveHelp@?$IOleInPlaceObjectWindowlessImpl@VCOPOSPOSKeyboard@@@ATL@@UEAAJH@Z 0000000180001ddc f i POSKeyboard.obj
 0001:00000ddc       ?Freeze@?$IViewObjectExImpl@VCOPOSPOSKeyboard@@@ATL@@UEAAJKJPEAXPEAK@Z 0000000180001ddc f i POSKeyboard.obj
 0001:00000ddc       ?SOOutputCompleteDummy@COPOSPOSKeyboard@@MEAAJJ@Z 0000000180001ddc f i POSKeyboard.obj
 0001:00000ddc       ?SetMoniker@?$IOleObjectImpl@VCOPOSPOSKeyboard@@@ATL@@UEAAJKPEAUIMoniker@@@Z 0000000180001ddc f i POSKeyboard.obj
 0001:00000ddc       ?GetDropTarget@?$IOleInPlaceObjectWindowlessImpl@VCOPOSPOSKeyboard@@@ATL@@UEAAJPEAPEAUIDropTarget@@@Z 0000000180001ddc f i POSKeyboard.obj
 0001:00000ddc       ?GetControlInfo@?$IOleControlImpl@VCOPOSPOSKeyboard@@@ATL@@UEAAJPEAUtagCONTROLINFO@@@Z 0000000180001ddc f i POSKeyboard.obj
 0001:00000ddc       ?SetColorScheme@?$IOleObjectImpl@VCOPOSPOSKeyboard@@@ATL@@UEAAJPEAUtagLOGPALETTE@@@Z 0000000180001ddc f i POSKeyboard.obj
 0001:00000ddc       ?InitFromData@?$IOleObjectImpl@VCOPOSPOSKeyboard@@@ATL@@UEAAJPEAUIDataObject@@HK@Z 0000000180001ddc f i POSKeyboard.obj
 0001:00000de4       ?GetObjectDescription@?$CComCoClass@VCOPOSPOSKeyboard@@$1?CLSID_OPOSPOSKeyboard@@3U_GUID@@B@ATL@@SAPEB_WXZ 0000000180001de4 f i POSKeyboard.obj
 0001:00000de4       ?Update@?$IOleObjectImpl@VCOPOSPOSKeyboard@@@ATL@@UEAAJXZ 0000000180001de4 f i POSKeyboard.obj
 0001:00000de4       ?EnableModeless@?$IOleInPlaceActiveObjectImpl@VCOPOSPOSKeyboard@@@ATL@@UEAAJH@Z 0000000180001de4 f i POSKeyboard.obj
 0001:00000de4       ?HandsOffStorage@?$IPersistStorageImpl@VCOPOSPOSKeyboard@@@ATL@@UEAAJXZ 0000000180001de4 f i POSKeyboard.obj
 0001:00000de4       ?SetHostNames@?$IOleObjectImpl@VCOPOSPOSKeyboard@@@ATL@@UEAAJPEB_W0@Z 0000000180001de4 f i POSKeyboard.obj
 0001:00000de4       ?GetCategoryMap@CComObjectRootBase@ATL@@SAPEBU_ATL_CATMAP_ENTRY@2@XZ 0000000180001de4 f i POSKeyboard.obj
 0001:00000de4       ?Release@CRegObject@ATL@@UEAAKXZ 0000000180001de4 f i POSKeyboard.obj
 0001:00000de4       ?ResizeBorder@?$IOleInPlaceActiveObjectImpl@VCOPOSPOSKeyboard@@@ATL@@UEAAJPEBUtagRECT@@PEAUIOleInPlaceUIWindow@@H@Z 0000000180001de4 f i POSKeyboard.obj
 0001:00000de4       ?IsUpToDate@?$IOleObjectImpl@VCOPOSPOSKeyboard@@@ATL@@UEAAJXZ 0000000180001de4 f i POSKeyboard.obj
 0001:00000de4       ?OnFrameWindowActivate@?$IOleInPlaceActiveObjectImpl@VCOPOSPOSKeyboard@@@ATL@@UEAAJH@Z 0000000180001de4 f i POSKeyboard.obj
 0001:00000de4       ?SaveCompleted@?$IPersistStorageImpl@VCOPOSPOSKeyboard@@@ATL@@UEAAJPEAUIStorage@@@Z 0000000180001de4 f i POSKeyboard.obj
 0001:00000de4       ?OnAmbientPropertyChange@?$IOleControlImpl@VCOPOSPOSKeyboard@@@ATL@@UEAAJJ@Z 0000000180001de4 f i POSKeyboard.obj
 0001:00000de8       ?SetClientSite@?$IOleObjectImpl@VCOPOSPOSKeyboard@@@ATL@@UEAAJPEAUIOleClientSite@@@Z 0000000180001de8 f i POSKeyboard.obj
 0001:00000e04       ?GetClientSite@?$IOleObjectImpl@VCOPOSPOSKeyboard@@@ATL@@UEAAJPEAPEAUIOleClientSite@@@Z 0000000180001e04 f i POSKeyboard.obj
 0001:00000e4c       ?Close@?$IOleObjectImpl@VCOPOSPOSKeyboard@@@ATL@@UEAAJK@Z 0000000180001e4c f i POSKeyboard.obj
 0001:00000e68       ?DoVerb@?$IOleObjectImpl@VCOPOSPOSKeyboard@@@ATL@@UEAAJJPEAUtagMSG@@PEAUIOleClientSite@@JPEAUHWND__@@PEBUtagRECT@@@Z 0000000180001e68 f i POSKeyboard.obj
 0001:0000100c       ?EnumVerbs@?$IOleObjectImpl@VCOPOSPOSKeyboard@@@ATL@@UEAAJPEAPEAUIEnumOLEVERB@@@Z 000000018000200c f i POSKeyboard.obj
 0001:00001028       ?GetUserType@?$IOleObjectImpl@VCOPOSPOSKeyboard@@@ATL@@UEAAJKPEAPEA_W@Z 0000000180002028 f i POSKeyboard.obj
 0001:00001038       ?SetExtent@?$IOleObjectImpl@VCOPOSPOSKeyboard@@@ATL@@UEAAJKPEAUtagSIZE@@@Z 0000000180002038 f i POSKeyboard.obj
 0001:00001054       ?GetExtent@?$IOleObjectImpl@VCOPOSPOSKeyboard@@@ATL@@UEAAJKPEAUtagSIZE@@@Z 0000000180002054 f i POSKeyboard.obj
 0001:00001084       ?Advise@?$IOleObjectImpl@VCOPOSPOSKeyboard@@@ATL@@UEAAJPEAUIAdviseSink@@PEAK@Z 0000000180002084 f i POSKeyboard.obj
 0001:000010e0       ?Unadvise@?$IOleObjectImpl@VCOPOSPOSKeyboard@@@ATL@@UEAAJK@Z 00000001800020e0 f i POSKeyboard.obj
 0001:00001118       ?EnumAdvise@?$IOleObjectImpl@VCOPOSPOSKeyboard@@@ATL@@UEAAJPEAPEAUIEnumSTATDATA@@@Z 0000000180002118 f i POSKeyboard.obj
 0001:00001160       ?GetMiscStatus@?$IOleObjectImpl@VCOPOSPOSKeyboard@@@ATL@@UEAAJKPEAK@Z 0000000180002160 f i POSKeyboard.obj
 0001:00001170       ?GetWindow@?$IOleInPlaceActiveObjectImpl@VCOPOSPOSKeyboard@@@ATL@@UEAAJPEAPEAUHWND__@@@Z 0000000180002170 f i POSKeyboard.obj
 0001:000011c4       ?TranslateAcceleratorW@?$IOleInPlaceActiveObjectImpl@VCOPOSPOSKeyboard@@@ATL@@UEAAJPEAUtagMSG@@@Z 00000001800021c4 f i POSKeyboard.obj
 0001:000012b8       ?OnDocWindowActivate@?$IOleInPlaceActiveObjectImpl@VCOPOSPOSKeyboard@@@ATL@@UEAAJH@Z 00000001800022b8 f i POSKeyboard.obj
 0001:000012e4       ?Draw@?$IViewObjectExImpl@VCOPOSPOSKeyboard@@@ATL@@UEAAJKJPEAXPEAUtagDVTARGETDEVICE@@PEAUHDC__@@2PEBU_RECTL@@3P6AH_K@Z4@Z 00000001800022e4 f i POSKeyboard.obj
 0001:00001348       ?SetAdvise@?$IViewObjectExImpl@VCOPOSPOSKeyboard@@@ATL@@UEAAJKKPEAUIAdviseSink@@@Z 0000000180002348 f i POSKeyboard.obj
 0001:0000139c       ?GetAdvise@?$IViewObjectExImpl@VCOPOSPOSKeyboard@@@ATL@@UEAAJPEAK0PEAPEAUIAdviseSink@@@Z 000000018000239c f i POSKeyboard.obj
 0001:000013d8       ?GetExtent@?$IViewObjectExImpl@VCOPOSPOSKeyboard@@@ATL@@UEAAJKJPEAUtagDVTARGETDEVICE@@PEAUtagSIZE@@@Z 00000001800023d8 f i POSKeyboard.obj
 0001:00001408       ?GetViewStatus@?$IViewObjectExImpl@VCOPOSPOSKeyboard@@@ATL@@UEAAJPEAK@Z 0000000180002408 f i POSKeyboard.obj
 0001:0000141c       ?QueryHitPoint@?$IViewObjectExImpl@VCOPOSPOSKeyboard@@@ATL@@UEAAJKPEBUtagRECT@@UtagPOINT@@JPEAK@Z 000000018000241c f i POSKeyboard.obj
 0001:00001460       ?QueryHitRect@?$IViewObjectExImpl@VCOPOSPOSKeyboard@@@ATL@@UEAAJKPEBUtagRECT@@0JPEAK@Z 0000000180002460 f i POSKeyboard.obj
 0001:000014c8       ?GetNaturalExtent@?$IViewObjectExImpl@VCOPOSPOSKeyboard@@@ATL@@UEAAJKJPEAUtagDVTARGETDEVICE@@PEAUHDC__@@PEAUtagExtentInfo@@PEAUtagSIZE@@@Z 00000001800024c8 f i POSKeyboard.obj
 0001:00001510       ?GetWindow@?$IOleInPlaceObjectWindowlessImpl@VCOPOSPOSKeyboard@@@ATL@@UEAAJPEAPEAUHWND__@@@Z 0000000180002510 f i POSKeyboard.obj
 0001:00001564       ?InPlaceDeactivate@?$IOleInPlaceObjectWindowlessImpl@VCOPOSPOSKeyboard@@@ATL@@UEAAJXZ 0000000180002564 f i POSKeyboard.obj
 0001:00001580       ?UIDeactivate@?$IOleInPlaceObjectWindowlessImpl@VCOPOSPOSKeyboard@@@ATL@@UEAAJXZ 0000000180002580 f i POSKeyboard.obj
 0001:0000159c       ?SetObjectRects@?$IOleInPlaceObjectWindowlessImpl@VCOPOSPOSKeyboard@@@ATL@@UEAAJPEBUtagRECT@@0@Z 000000018000259c f i POSKeyboard.obj
 0001:000015b8       ?OnWindowMessage@?$IOleInPlaceObjectWindowlessImpl@VCOPOSPOSKeyboard@@@ATL@@UEAAJI_K_JPEA_J@Z 00000001800025b8 f i POSKeyboard.obj
 0001:00001680       ?EnumConnectionPoints@?$IConnectionPointContainerImpl@VCOPOSPOSKeyboard@@@ATL@@UEAAJPEAPEAUIEnumConnectionPoints@@@Z 0000000180002680 f i POSKeyboard.obj
 0001:000018cc       ?FindConnectionPoint@?$IConnectionPointContainerImpl@VCOPOSPOSKeyboard@@@ATL@@UEAAJAEBU_GUID@@PEAPEAUIConnectionPoint@@@Z 00000001800028cc f i POSKeyboard.obj
 0001:0000199c       ?IsDirty@?$IPersistStorageImpl@VCOPOSPOSKeyboard@@@ATL@@UEAAJXZ 000000018000299c f i POSKeyboard.obj
 0001:000019dc       ?InitNew@?$IPersistStorageImpl@VCOPOSPOSKeyboard@@@ATL@@UEAAJPEAUIStorage@@@Z 00000001800029dc f i POSKeyboard.obj
 0001:00001a1c       ?Load@?$IPersistStorageImpl@VCOPOSPOSKeyboard@@@ATL@@UEAAJPEAUIStorage@@@Z 0000000180002a1c f i POSKeyboard.obj
 0001:00001abc       ?Save@?$IPersistStorageImpl@VCOPOSPOSKeyboard@@@ATL@@UEAAJPEAUIStorage@@H@Z 0000000180002abc f i POSKeyboard.obj
 0001:00001b6c       ?GetPages@?$ISpecifyPropertyPagesImpl@VCOPOSPOSKeyboard@@@ATL@@UEAAJPEAUtagCAUUID@@@Z 0000000180002b6c f i POSKeyboard.obj
 0001:00001b78       ?QuickActivate@?$IQuickActivateImpl@VCOPOSPOSKeyboard@@@ATL@@UEAAJPEAUtagQACONTAINER@@PEAUtagQACONTROL@@@Z 0000000180002b78 f i POSKeyboard.obj
 0001:00001b94       ?SetContentExtent@?$IQuickActivateImpl@VCOPOSPOSKeyboard@@@ATL@@UEAAJPEAUtagSIZE@@@Z 0000000180002b94 f i POSKeyboard.obj
 0001:00001bc8       ?GetContentExtent@?$IQuickActivateImpl@VCOPOSPOSKeyboard@@@ATL@@UEAAJPEAUtagSIZE@@@Z 0000000180002bc8 f i POSKeyboard.obj
 0001:00001c00       ?GetData@?$IDataObjectImpl@VCOPOSPOSKeyboard@@@ATL@@UEAAJPEAUtagFORMATETC@@PEAUtagSTGMEDIUM@@@Z 0000000180002c00 f i POSKeyboard.obj
 0001:00001c1c       ?DAdvise@?$IDataObjectImpl@VCOPOSPOSKeyboard@@@ATL@@UEAAJPEAUtagFORMATETC@@KPEAUIAdviseSink@@PEAK@Z 0000000180002c1c f i POSKeyboard.obj
 0001:00001ca4       ?DUnadvise@?$IDataObjectImpl@VCOPOSPOSKeyboard@@@ATL@@UEAAJK@Z 0000000180002ca4 f i POSKeyboard.obj
 0001:00001cd0       ?EnumDAdvise@?$IDataObjectImpl@VCOPOSPOSKeyboard@@@ATL@@UEAAJPEAPEAUIEnumSTATDATA@@@Z 0000000180002cd0 f i POSKeyboard.obj
 0001:00001d0c       ?GetClassInfoW@?$IProvideClassInfo2Impl@$1?CLSID_OPOSPOSKeyboard@@3U_GUID@@B$1?DIID__IOPOSPOSKeyboardEvents@@3U2@B$1?LIBID_OposPOSKeyboard_CCO@@3U2@B$00$0A@VCComTypeInfoHolder@ATL@@@ATL@@UEAAJPEAPEAUITypeInfo@@@Z 0000000180002d0c f i POSKeyboard.obj
 0001:00001d64       ?GetGUID@?$IProvideClassInfo2Impl@$1?CLSID_OPOSPOSKeyboard@@3U_GUID@@B$1?DIID__IOPOSPOSKeyboardEvents@@3U2@B$1?LIBID_OposPOSKeyboard_CCO@@3U2@B$00$0A@VCComTypeInfoHolder@ATL@@@ATL@@UEAAJKPEAU_GUID@@@Z 0000000180002d64 f i POSKeyboard.obj
 0001:00001d98       _get_startup_argv_mode     0000000180002d98 f i LIBCMT:argv_mode.obj
 0001:00001d98       ?AddRef@CRegObject@ATL@@UEAAKXZ 0000000180002d98 f i POSKeyboard.obj
 0001:00001d98       ?FAccessAllowed@?$IObjectSafetyImpl@VCOPOSPOSKeyboard@@$02@ATL@@MEAAHXZ 0000000180002d98 f i POSKeyboard.obj
 0001:00001da0       ?GetInterfaceSafetyOptions@?$IObjectSafetyImpl@VCOPOSPOSKeyboard@@$02@ATL@@UEAAJAEBU_GUID@@PEAK1@Z 0000000180002da0 f i POSKeyboard.obj
 0001:00001e34       ?SetInterfaceSafetyOptions@?$IObjectSafetyImpl@VCOPOSPOSKeyboard@@$02@ATL@@UEAAJAEBU_GUID@@KK@Z 0000000180002e34 f i POSKeyboard.obj
 0001:00001ed8       ?_LocCPQueryInterface@?$IConnectionPointImpl@VCOPOSPOSKeyboard@@$1?IID_IPropertyNotifySink@@3U_GUID@@BVCComDynamicUnkArray@ATL@@@ATL@@UEAAJAEBU_GUID@@PEAPEAX@Z 0000000180002ed8 f i POSKeyboard.obj
 0001:00001ed8       ?_LocCPQueryInterface@?$IConnectionPointImpl@VCOPOSPOSKeyboard@@$1?DIID__IOPOSPOSKeyboardEvents@@3U_GUID@@BVCComDynamicUnkArray@ATL@@@ATL@@UEAAJAEBU_GUID@@PEAPEAX@Z 0000000180002ed8 f i POSKeyboard.obj
 0001:00001f48       ?GetConnectionInterface@?$IConnectionPointImpl@VCOPOSPOSKeyboard@@$1?IID_IPropertyNotifySink@@3U_GUID@@BVCComDynamicUnkArray@ATL@@@ATL@@UEAAJPEAU_GUID@@@Z 0000000180002f48 f i POSKeyboard.obj
 0001:00001f64       ?GetConnectionPointContainer@?$IConnectionPointImpl@VCOPOSPOSKeyboard@@$1?IID_IPropertyNotifySink@@3U_GUID@@BVCComDynamicUnkArray@ATL@@@ATL@@UEAAJPEAPEAUIConnectionPointContainer@@@Z 0000000180002f64 f i POSKeyboard.obj
 0001:00001f84       ?Advise@?$IConnectionPointImpl@VCOPOSPOSKeyboard@@$1?DIID__IOPOSPOSKeyboardEvents@@3U_GUID@@BVCComDynamicUnkArray@ATL@@@ATL@@UEAAJPEAUIUnknown@@PEAK@Z 0000000180002f84 f i POSKeyboard.obj
 0001:00001f84       ?Advise@?$IConnectionPointImpl@VCOPOSPOSKeyboard@@$1?IID_IPropertyNotifySink@@3U_GUID@@BVCComDynamicUnkArray@ATL@@@ATL@@UEAAJPEAUIUnknown@@PEAK@Z 0000000180002f84 f i POSKeyboard.obj
 0001:00002040       ?Unadvise@?$IConnectionPointImpl@VCOPOSPOSKeyboard@@$1?IID_IPropertyNotifySink@@3U_GUID@@BVCComDynamicUnkArray@ATL@@@ATL@@UEAAJK@Z 0000000180003040 f i POSKeyboard.obj
 0001:00002040       ?Unadvise@?$IConnectionPointImpl@VCOPOSPOSKeyboard@@$1?DIID__IOPOSPOSKeyboardEvents@@3U_GUID@@BVCComDynamicUnkArray@ATL@@@ATL@@UEAAJK@Z 0000000180003040 f i POSKeyboard.obj
 0001:000020a8       ?EnumConnections@?$IConnectionPointImpl@VCOPOSPOSKeyboard@@$1?DIID__IOPOSPOSKeyboardEvents@@3U_GUID@@BVCComDynamicUnkArray@ATL@@@ATL@@UEAAJPEAPEAUIEnumConnections@@@Z 00000001800030a8 f i POSKeyboard.obj
 0001:000020a8       ?EnumConnections@?$IConnectionPointImpl@VCOPOSPOSKeyboard@@$1?IID_IPropertyNotifySink@@3U_GUID@@BVCComDynamicUnkArray@ATL@@@ATL@@UEAAJPEAPEAUIEnumConnections@@@Z 00000001800030a8 f i POSKeyboard.obj
 0001:00002254       ?GetConnectionInterface@?$IConnectionPointImpl@VCOPOSPOSKeyboard@@$1?DIID__IOPOSPOSKeyboardEvents@@3U_GUID@@BVCComDynamicUnkArray@ATL@@@ATL@@UEAAJPEAU_GUID@@@Z 0000000180003254 f i POSKeyboard.obj
 0001:00002270       ?GetConnectionPointContainer@?$IConnectionPointImpl@VCOPOSPOSKeyboard@@$1?DIID__IOPOSPOSKeyboardEvents@@3U_GUID@@BVCComDynamicUnkArray@ATL@@@ATL@@UEAAJPEAPEAUIConnectionPointContainer@@@Z 0000000180003270 f i POSKeyboard.obj
 0001:00002290       ?UpdateRegistry@COPOSPOSKeyboard@@SAJH@Z 0000000180003290 f i POSKeyboard.obj
 0001:000022a8       ?ProcessWindowMessage@COPOSPOSKeyboard@@UEAAHPEAUHWND__@@I_K_JAEA_JK@Z 00000001800032a8 f i POSKeyboard.obj
 0001:00002330       ?SOData@COPOSPOSKeyboard@@MEAAJJ@Z 0000000180003330 f i POSKeyboard.obj
 0001:00002380       ?SODirectIO@COPOSPOSKeyboard@@MEAAJJPEAJPEAPEA_W@Z 0000000180003380 f i POSKeyboard.obj
 0001:000023f8       ?SOError@COPOSPOSKeyboard@@MEAAJJJJPEAJ@Z 00000001800033f8 f i POSKeyboard.obj
 0001:00002480       ?SOStatusUpdate@COPOSPOSKeyboard@@MEAAJJ@Z 0000000180003480 f i POSKeyboard.obj
 0001:000024d0       ?Lock@CAtlModule@ATL@@UEAAJXZ 00000001800034d0 f i POSKeyboard.obj
 0001:000024e0       ?Unlock@CAtlModule@ATL@@UEAAJXZ 00000001800034e0 f i POSKeyboard.obj
 0001:000024ec       ?GetLockCount@CAtlModule@ATL@@UEAAJXZ 00000001800034ec f i POSKeyboard.obj
 0001:000024f0       ?GetGITPtr@CAtlModule@ATL@@UEAAJPEAPEAUIGlobalInterfaceTable@@@Z 00000001800034f0 f i POSKeyboard.obj
 0001:00002560       ?CreateInstance@?$CComCreator@V?$CComObjectCached@VCComClassFactory@ATL@@@ATL@@@ATL@@SAJPEAXAEBU_GUID@@PEAPEAX@Z 0000000180003560 f i POSKeyboard.obj
 0001:00002684       ?CreateInstance@?$CComCreator2@V?$CComCreator@V?$CComObject@VCOPOSPOSKeyboard@@@ATL@@@ATL@@V?$CComCreator@V?$CComAggObject@VCOPOSPOSKeyboard@@@ATL@@@2@@ATL@@SAJPEAXAEBU_GUID@@PEAPEAX@Z 0000000180003684 f i POSKeyboard.obj
 0001:00002694       ?AddRef@?$CComObjectCached@VCComClassFactory@ATL@@@ATL@@UEAAKXZ 0000000180003694 f i POSKeyboard.obj
 0001:000026c0       ?Release@?$CComObjectCached@VCComClassFactory@ATL@@@ATL@@UEAAKXZ 00000001800036c0 f i POSKeyboard.obj
 0001:00002700       ?QueryInterface@?$CComObjectCached@VCComClassFactory@ATL@@@ATL@@UEAAJAEBU_GUID@@PEAPEAX@Z 0000000180003700 f i POSKeyboard.obj
 0001:00002714       ??_G?$CComObjectCached@VCComClassFactory@ATL@@@ATL@@UEAAPEAXI@Z 0000000180003714 f i POSKeyboard.obj
 0001:00002714       ??_E?$CComObjectCached@VCComClassFactory@ATL@@@ATL@@UEAAPEAXI@Z 0000000180003714 f i POSKeyboard.obj
 0001:0000276c       ?AddCommonRGSReplacements@?$CAtlModuleT@VCComModule@ATL@@@ATL@@UEAAJPEAUIRegistrarBase@@@Z 000000018000376c f i POSKeyboard.obj
 0001:00002784       ?UpdateRegistryFromResourceD@CComModule@ATL@@UEAAJIHPEAU_ATL_REGMAP_ENTRY@2@@Z 0000000180003784 f i POSKeyboard.obj
 0001:00002784       ?UpdateRegistryFromResourceD@CComModule@ATL@@UEAAJPEB_WHPEAU_ATL_REGMAP_ENTRY@2@@Z 0000000180003784 f i POSKeyboard.obj
 0001:0000278c       ?UpdateRegistryFromResource@CComModule@ATL@@UEAAJPEB_WHPEAU_ATL_REGMAP_ENTRY@2@@Z 000000018000378c f i POSKeyboard.obj
 0001:00002794       ?UpdateRegistryFromResource@CComModule@ATL@@UEAAJIHPEAU_ATL_REGMAP_ENTRY@2@@Z 0000000180003794 f i POSKeyboard.obj
 0001:0000279c       ??_ECComModule@ATL@@UEAAPEAXI@Z 000000018000379c f i POSKeyboard.obj
 0001:0000279c       ??_GCComModule@ATL@@UEAAPEAXI@Z 000000018000379c f i POSKeyboard.obj
 0001:000027dc       ?Next@?$CComEnumImpl@UIEnumConnectionPoints@@$1?_GUID_b196b285_bab4_101a_b69c_00aa00341d07@@3U__s_GUID@@BPEAUIConnectionPoint@@V?$_CopyInterface@UIConnectionPoint@@@ATL@@@ATL@@UEAAJKPEAPEAUIConnectionPoint@@PEAK@Z 00000001800037dc f i POSKeyboard.obj
 0001:000028a8       ?Skip@?$CComEnumImpl@UIEnumConnectionPoints@@$1?_GUID_b196b285_bab4_101a_b69c_00aa00341d07@@3U__s_GUID@@BPEAUIConnectionPoint@@V?$_CopyInterface@UIConnectionPoint@@@ATL@@@ATL@@UEAAJK@Z 00000001800038a8 f i POSKeyboard.obj
 0001:000028d4       ?Reset@?$CComEnumImpl@UIEnumConnectionPoints@@$1?_GUID_b196b285_bab4_101a_b69c_00aa00341d07@@3U__s_GUID@@BPEAUIConnectionPoint@@V?$_CopyInterface@UIConnectionPoint@@@ATL@@@ATL@@UEAAJXZ 00000001800038d4 f i POSKeyboard.obj
 0001:000028d4       ?Reset@?$CComEnumImpl@UIEnumConnections@@$1?_GUID_b196b287_bab4_101a_b69c_00aa00341d07@@3U__s_GUID@@BUtagCONNECTDATA@@V?$_Copy@UtagCONNECTDATA@@@ATL@@@ATL@@UEAAJXZ 00000001800038d4 f i POSKeyboard.obj
 0001:000028e0       ?Clone@?$CComEnumImpl@UIEnumConnectionPoints@@$1?_GUID_b196b285_bab4_101a_b69c_00aa00341d07@@3U__s_GUID@@BPEAUIConnectionPoint@@V?$_CopyInterface@UIConnectionPoint@@@ATL@@@ATL@@UEAAJPEAPEAUIEnumConnectionPoints@@@Z 00000001800038e0 f i POSKeyboard.obj
 0001:00002a0c       ?AddRef@?$CComObject@V?$CComEnum@UIEnumConnectionPoints@@$1?_GUID_b196b285_bab4_101a_b69c_00aa00341d07@@3U__s_GUID@@BPEAUIConnectionPoint@@V?$_CopyInterface@UIConnectionPoint@@@ATL@@VCComSingleThreadModel@6@@ATL@@@ATL@@UEAAKXZ 0000000180003a0c f i POSKeyboard.obj
 0001:00002a0c       ?AddRef@?$CComObject@V?$CComEnum@UIEnumConnections@@$1?_GUID_b196b287_bab4_101a_b69c_00aa00341d07@@3U__s_GUID@@BUtagCONNECTDATA@@V?$_Copy@UtagCONNECTDATA@@@ATL@@VCComSingleThreadModel@6@@ATL@@@ATL@@UEAAKXZ 0000000180003a0c f i POSKeyboard.obj
 0001:00002a18       ?Release@?$CComObject@V?$CComEnum@UIEnumConnections@@$1?_GUID_b196b287_bab4_101a_b69c_00aa00341d07@@3U__s_GUID@@BUtagCONNECTDATA@@V?$_Copy@UtagCONNECTDATA@@@ATL@@VCComSingleThreadModel@6@@ATL@@@ATL@@UEAAKXZ 0000000180003a18 f i POSKeyboard.obj
 0001:00002a18       ?Release@?$CComObject@V?$CComEnum@UIEnumConnectionPoints@@$1?_GUID_b196b285_bab4_101a_b69c_00aa00341d07@@3U__s_GUID@@BPEAUIConnectionPoint@@V?$_CopyInterface@UIConnectionPoint@@@ATL@@VCComSingleThreadModel@6@@ATL@@@ATL@@UEAAKXZ 0000000180003a18 f i POSKeyboard.obj
 0001:00002a6c       ?QueryInterface@?$CComObject@V?$CComEnum@UIEnumConnectionPoints@@$1?_GUID_b196b285_bab4_101a_b69c_00aa00341d07@@3U__s_GUID@@BPEAUIConnectionPoint@@V?$_CopyInterface@UIConnectionPoint@@@ATL@@VCComSingleThreadModel@6@@ATL@@@ATL@@UEAAJAEBU_GUID@@PEAPEAX@Z 0000000180003a6c f i POSKeyboard.obj
 0001:00002a80       ??_G?$CComObject@V?$CComEnum@UIEnumConnectionPoints@@$1?_GUID_b196b285_bab4_101a_b69c_00aa00341d07@@3U__s_GUID@@BPEAUIConnectionPoint@@V?$_CopyInterface@UIConnectionPoint@@@ATL@@VCComSingleThreadModel@6@@ATL@@@ATL@@UEAAPEAXI@Z 0000000180003a80 f i POSKeyboard.obj
 0001:00002a80       ??_E?$CComObject@V?$CComEnum@UIEnumConnectionPoints@@$1?_GUID_b196b285_bab4_101a_b69c_00aa00341d07@@3U__s_GUID@@BPEAUIConnectionPoint@@V?$_CopyInterface@UIConnectionPoint@@@ATL@@VCComSingleThreadModel@6@@ATL@@@ATL@@UEAAPEAXI@Z 0000000180003a80 f i POSKeyboard.obj
 0001:00002ad8       ?AddReplacement@CRegObject@ATL@@UEAAJPEB_W0@Z 0000000180003ad8 f i POSKeyboard.obj
 0001:00002b08       ?ClearReplacements@CRegObject@ATL@@UEAAJXZ 0000000180003b08 f i POSKeyboard.obj
 0001:00002b14       ??_ECRegObject@ATL@@UEAAPEAXI@Z 0000000180003b14 f i POSKeyboard.obj
 0001:00002b14       ??_GCRegObject@ATL@@UEAAPEAXI@Z 0000000180003b14 f i POSKeyboard.obj
 0001:00002b94       ?AddRef@?$CComAggObject@VCOPOSPOSKeyboard@@@ATL@@UEAAKXZ 0000000180003b94 f i POSKeyboard.obj
 0001:00002ba0       ?Release@?$CComAggObject@VCOPOSPOSKeyboard@@@ATL@@UEAAKXZ 0000000180003ba0 f i POSKeyboard.obj
 0001:00002bf4       ?QueryInterface@?$CComAggObject@VCOPOSPOSKeyboard@@@ATL@@UEAAJAEBU_GUID@@PEAPEAX@Z 0000000180003bf4 f i POSKeyboard.obj
 0001:00002c54       ?AddRef@?$CComContainedObject@VCOPOSPOSKeyboard@@@ATL@@UEAAKXZ 0000000180003c54 f i POSKeyboard.obj
 0001:00002c64       ?Release@?$CComContainedObject@VCOPOSPOSKeyboard@@@ATL@@UEAAKXZ 0000000180003c64 f i POSKeyboard.obj
 0001:00002c74       ?QueryInterface@?$CComContainedObject@VCOPOSPOSKeyboard@@@ATL@@UEAAJAEBU_GUID@@PEAPEAX@Z 0000000180003c74 f i POSKeyboard.obj
 0001:00002c84       ??_G?$CComAggObject@VCOPOSPOSKeyboard@@@ATL@@UEAAPEAXI@Z 0000000180003c84 f i POSKeyboard.obj
 0001:00002c84       ??_E?$CComAggObject@VCOPOSPOSKeyboard@@@ATL@@UEAAPEAXI@Z 0000000180003c84 f i POSKeyboard.obj
 0001:00002cdc       ?AddRef@?$CComObject@VCOPOSPOSKeyboard@@@ATL@@UEAAKXZ 0000000180003cdc f i POSKeyboard.obj
 0001:00002cec       ?Release@?$CComObject@VCOPOSPOSKeyboard@@@ATL@@UEAAKXZ 0000000180003cec f i POSKeyboard.obj
 0001:00002d44       ?QueryInterface@?$CComObject@VCOPOSPOSKeyboard@@@ATL@@UEAAJAEBU_GUID@@PEAPEAX@Z 0000000180003d44 f i POSKeyboard.obj
 0001:00002d58       ?OnDrawAdvanced@CComControlBase@ATL@@UEAAJAEAUATL_DRAWINFO@@@Z 0000000180003d58 f i POSKeyboard.obj
 0001:00002ee4       ?Next@?$CComEnumImpl@UIEnumConnections@@$1?_GUID_b196b287_bab4_101a_b69c_00aa00341d07@@3U__s_GUID@@BUtagCONNECTDATA@@V?$_Copy@UtagCONNECTDATA@@@ATL@@@ATL@@UEAAJKPEAUtagCONNECTDATA@@PEAK@Z 0000000180003ee4 f i POSKeyboard.obj
 0001:00002fb8       ?Skip@?$CComEnumImpl@UIEnumConnections@@$1?_GUID_b196b287_bab4_101a_b69c_00aa00341d07@@3U__s_GUID@@BUtagCONNECTDATA@@V?$_Copy@UtagCONNECTDATA@@@ATL@@@ATL@@UEAAJK@Z 0000000180003fb8 f i POSKeyboard.obj
 0001:00002fe4       ?Clone@?$CComEnumImpl@UIEnumConnections@@$1?_GUID_b196b287_bab4_101a_b69c_00aa00341d07@@3U__s_GUID@@BUtagCONNECTDATA@@V?$_Copy@UtagCONNECTDATA@@@ATL@@@ATL@@UEAAJPEAPEAUIEnumConnections@@@Z 0000000180003fe4 f i POSKeyboard.obj
 0001:00003110       ?QueryInterface@?$CComObject@V?$CComEnum@UIEnumConnections@@$1?_GUID_b196b287_bab4_101a_b69c_00aa00341d07@@3U__s_GUID@@BUtagCONNECTDATA@@V?$_Copy@UtagCONNECTDATA@@@ATL@@VCComSingleThreadModel@6@@ATL@@@ATL@@UEAAJAEBU_GUID@@PEAPEAX@Z 0000000180004110 f i POSKeyboard.obj
 0001:00003124       ??_E?$CComObject@V?$CComEnum@UIEnumConnections@@$1?_GUID_b196b287_bab4_101a_b69c_00aa00341d07@@3U__s_GUID@@BUtagCONNECTDATA@@V?$_Copy@UtagCONNECTDATA@@@ATL@@VCComSingleThreadModel@6@@ATL@@@ATL@@UEAAPEAXI@Z 0000000180004124 f i POSKeyboard.obj
 0001:00003124       ??_G?$CComObject@V?$CComEnum@UIEnumConnections@@$1?_GUID_b196b287_bab4_101a_b69c_00aa00341d07@@3U__s_GUID@@BUtagCONNECTDATA@@V?$_Copy@UtagCONNECTDATA@@@ATL@@VCComSingleThreadModel@6@@ATL@@@ATL@@UEAAPEAXI@Z 0000000180004124 f i POSKeyboard.obj
 0001:0000317c       ??_E?$CComObject@VCOPOSPOSKeyboard@@@ATL@@W7EAAPEAXI@Z 000000018000417c f i POSKeyboard.obj
 0001:00003188       ??_E?$CComObject@VCOPOSPOSKeyboard@@@ATL@@WHA@EAAPEAXI@Z 0000000180004188 f i POSKeyboard.obj
 0001:00003194       ?QueryInterface@?$CComObject@VCOPOSPOSKeyboard@@@ATL@@WLI@EAAJAEBU_GUID@@PEAPEAX@Z 0000000180004194 f i POSKeyboard.obj
 0001:000031a0       ?AddRef@?$CComObject@VCOPOSPOSKeyboard@@@ATL@@WLI@EAAKXZ 00000001800041a0 f i POSKeyboard.obj
 0001:000031ac       ?Release@?$CComObject@VCOPOSPOSKeyboard@@@ATL@@WLI@EAAKXZ 00000001800041ac f i POSKeyboard.obj
 0001:000031b8       ?QueryInterface@?$CComObject@VCOPOSPOSKeyboard@@@ATL@@WMA@EAAJAEBU_GUID@@PEAPEAX@Z 00000001800041b8 f i POSKeyboard.obj
 0001:000031c4       ?AddRef@?$CComObject@VCOPOSPOSKeyboard@@@ATL@@WMA@EAAKXZ 00000001800041c4 f i POSKeyboard.obj
 0001:000031d0       ?Release@?$CComObject@VCOPOSPOSKeyboard@@@ATL@@WMA@EAAKXZ 00000001800041d0 f i POSKeyboard.obj
 0001:000031dc       ?QueryInterface@?$CComObject@VCOPOSPOSKeyboard@@@ATL@@WMI@EAAJAEBU_GUID@@PEAPEAX@Z 00000001800041dc f i POSKeyboard.obj
 0001:000031e8       ?AddRef@?$CComObject@VCOPOSPOSKeyboard@@@ATL@@WMI@EAAKXZ 00000001800041e8 f i POSKeyboard.obj
 0001:000031f4       ?Release@?$CComObject@VCOPOSPOSKeyboard@@@ATL@@WMI@EAAKXZ 00000001800041f4 f i POSKeyboard.obj
 0001:00003200       ?QueryInterface@?$CComObject@VCOPOSPOSKeyboard@@@ATL@@WNA@EAAJAEBU_GUID@@PEAPEAX@Z 0000000180004200 f i POSKeyboard.obj
 0001:0000320c       ?AddRef@?$CComObject@VCOPOSPOSKeyboard@@@ATL@@WNA@EAAKXZ 000000018000420c f i POSKeyboard.obj
 0001:00003218       ?Release@?$CComObject@VCOPOSPOSKeyboard@@@ATL@@WNA@EAAKXZ 0000000180004218 f i POSKeyboard.obj
 0001:00003224       ?QueryInterface@?$CComObject@VCOPOSPOSKeyboard@@@ATL@@WNI@EAAJAEBU_GUID@@PEAPEAX@Z 0000000180004224 f i POSKeyboard.obj
 0001:00003230       ?AddRef@?$CComObject@VCOPOSPOSKeyboard@@@ATL@@WNI@EAAKXZ 0000000180004230 f i POSKeyboard.obj
 0001:0000323c       ?Release@?$CComObject@VCOPOSPOSKeyboard@@@ATL@@WNI@EAAKXZ 000000018000423c f i POSKeyboard.obj
 0001:00003248       ?QueryInterface@?$CComObject@VCOPOSPOSKeyboard@@@ATL@@WOA@EAAJAEBU_GUID@@PEAPEAX@Z 0000000180004248 f i POSKeyboard.obj
 0001:00003254       ?AddRef@?$CComObject@VCOPOSPOSKeyboard@@@ATL@@WOA@EAAKXZ 0000000180004254 f i POSKeyboard.obj
 0001:00003260       ?Release@?$CComObject@VCOPOSPOSKeyboard@@@ATL@@WOA@EAAKXZ 0000000180004260 f i POSKeyboard.obj
 0001:0000326c       ?QueryInterface@?$CComObject@VCOPOSPOSKeyboard@@@ATL@@WOI@EAAJAEBU_GUID@@PEAPEAX@Z 000000018000426c f i POSKeyboard.obj
 0001:00003278       ?AddRef@?$CComObject@VCOPOSPOSKeyboard@@@ATL@@WOI@EAAKXZ 0000000180004278 f i POSKeyboard.obj
 0001:00003284       ?Release@?$CComObject@VCOPOSPOSKeyboard@@@ATL@@WOI@EAAKXZ 0000000180004284 f i POSKeyboard.obj
 0001:00003290       ?QueryInterface@?$CComObject@VCOPOSPOSKeyboard@@@ATL@@WPA@EAAJAEBU_GUID@@PEAPEAX@Z 0000000180004290 f i POSKeyboard.obj
 0001:0000329c       ?AddRef@?$CComObject@VCOPOSPOSKeyboard@@@ATL@@WPA@EAAKXZ 000000018000429c f i POSKeyboard.obj
 0001:000032a8       ?Release@?$CComObject@VCOPOSPOSKeyboard@@@ATL@@WPA@EAAKXZ 00000001800042a8 f i POSKeyboard.obj
 0001:000032b4       ?QueryInterface@?$CComObject@VCOPOSPOSKeyboard@@@ATL@@WPI@EAAJAEBU_GUID@@PEAPEAX@Z 00000001800042b4 f i POSKeyboard.obj
 0001:000032c0       ?AddRef@?$CComObject@VCOPOSPOSKeyboard@@@ATL@@WPI@EAAKXZ 00000001800042c0 f i POSKeyboard.obj
 0001:000032cc       ?Release@?$CComObject@VCOPOSPOSKeyboard@@@ATL@@WPI@EAAKXZ 00000001800042cc f i POSKeyboard.obj
 0001:000032d8       ?QueryInterface@?$CComObject@VCOPOSPOSKeyboard@@@ATL@@WBAA@EAAJAEBU_GUID@@PEAPEAX@Z 00000001800042d8 f i POSKeyboard.obj
 0001:000032e4       ?AddRef@?$CComObject@VCOPOSPOSKeyboard@@@ATL@@WBAA@EAAKXZ 00000001800042e4 f i POSKeyboard.obj
 0001:000032f0       ?Release@?$CComObject@VCOPOSPOSKeyboard@@@ATL@@WBAA@EAAKXZ 00000001800042f0 f i POSKeyboard.obj
 0001:000032fc       ?QueryInterface@?$CComObject@VCOPOSPOSKeyboard@@@ATL@@WBAI@EAAJAEBU_GUID@@PEAPEAX@Z 00000001800042fc f i POSKeyboard.obj
 0001:00003308       ?AddRef@?$CComObject@VCOPOSPOSKeyboard@@@ATL@@WBAI@EAAKXZ 0000000180004308 f i POSKeyboard.obj
 0001:00003314       ?Release@?$CComObject@VCOPOSPOSKeyboard@@@ATL@@WBAI@EAAKXZ 0000000180004314 f i POSKeyboard.obj
 0001:00003320       ?QueryInterface@?$CComObject@VCOPOSPOSKeyboard@@@ATL@@WBBA@EAAJAEBU_GUID@@PEAPEAX@Z 0000000180004320 f i POSKeyboard.obj
 0001:0000332c       ?AddRef@?$CComObject@VCOPOSPOSKeyboard@@@ATL@@WBBA@EAAKXZ 000000018000432c f i POSKeyboard.obj
 0001:00003338       ?Release@?$CComObject@VCOPOSPOSKeyboard@@@ATL@@WBBA@EAAKXZ 0000000180004338 f i POSKeyboard.obj
 0001:00003344       ?QueryInterface@?$CComObject@VCOPOSPOSKeyboard@@@ATL@@WBBI@EAAJAEBU_GUID@@PEAPEAX@Z 0000000180004344 f i POSKeyboard.obj
 0001:00003350       ?AddRef@?$CComObject@VCOPOSPOSKeyboard@@@ATL@@WBBI@EAAKXZ 0000000180004350 f i POSKeyboard.obj
 0001:0000335c       ?Release@?$CComObject@VCOPOSPOSKeyboard@@@ATL@@WBBI@EAAKXZ 000000018000435c f i POSKeyboard.obj
 0001:00003368       ?AddRef@?$CComObject@VCOPOSPOSKeyboard@@@ATL@@WBCI@EAAKXZ 0000000180004368 f i POSKeyboard.obj
 0001:00003374       ?Release@?$CComObject@VCOPOSPOSKeyboard@@@ATL@@WBCI@EAAKXZ 0000000180004374 f i POSKeyboard.obj
 0001:00003380       ?AddRef@?$CComObject@VCOPOSPOSKeyboard@@@ATL@@WBEA@EAAKXZ 0000000180004380 f i POSKeyboard.obj
 0001:0000338c       ?Release@?$CComObject@VCOPOSPOSKeyboard@@@ATL@@WBEA@EAAKXZ 000000018000438c f i POSKeyboard.obj
 0001:00003398       ??_E?$CComContainedObject@VCOPOSPOSKeyboard@@@ATL@@W7EAAPEAXI@Z 0000000180004398 f i POSKeyboard.obj
 0001:000033a4       ??_E?$CComContainedObject@VCOPOSPOSKeyboard@@@ATL@@WHA@EAAPEAXI@Z 00000001800043a4 f i POSKeyboard.obj
 0001:000033b0       ?QueryInterface@?$CComContainedObject@VCOPOSPOSKeyboard@@@ATL@@WLI@EAAJAEBU_GUID@@PEAPEAX@Z 00000001800043b0 f i POSKeyboard.obj
 0001:000033bc       ?AddRef@?$CComContainedObject@VCOPOSPOSKeyboard@@@ATL@@WLI@EAAKXZ 00000001800043bc f i POSKeyboard.obj
 0001:000033c8       ?Release@?$CComContainedObject@VCOPOSPOSKeyboard@@@ATL@@WLI@EAAKXZ 00000001800043c8 f i POSKeyboard.obj
 0001:000033d4       ?QueryInterface@?$CComContainedObject@VCOPOSPOSKeyboard@@@ATL@@WMA@EAAJAEBU_GUID@@PEAPEAX@Z 00000001800043d4 f i POSKeyboard.obj
 0001:000033e0       ?AddRef@?$CComContainedObject@VCOPOSPOSKeyboard@@@ATL@@WMA@EAAKXZ 00000001800043e0 f i POSKeyboard.obj
 0001:000033ec       ?Release@?$CComContainedObject@VCOPOSPOSKeyboard@@@ATL@@WMA@EAAKXZ 00000001800043ec f i POSKeyboard.obj
 0001:000033f8       ?QueryInterface@?$CComContainedObject@VCOPOSPOSKeyboard@@@ATL@@WMI@EAAJAEBU_GUID@@PEAPEAX@Z 00000001800043f8 f i POSKeyboard.obj
 0001:00003404       ?AddRef@?$CComContainedObject@VCOPOSPOSKeyboard@@@ATL@@WMI@EAAKXZ 0000000180004404 f i POSKeyboard.obj
 0001:00003410       ?Release@?$CComContainedObject@VCOPOSPOSKeyboard@@@ATL@@WMI@EAAKXZ 0000000180004410 f i POSKeyboard.obj
 0001:0000341c       ?QueryInterface@?$CComContainedObject@VCOPOSPOSKeyboard@@@ATL@@WNA@EAAJAEBU_GUID@@PEAPEAX@Z 000000018000441c f i POSKeyboard.obj
 0001:00003428       ?AddRef@?$CComContainedObject@VCOPOSPOSKeyboard@@@ATL@@WNA@EAAKXZ 0000000180004428 f i POSKeyboard.obj
 0001:00003434       ?Release@?$CComContainedObject@VCOPOSPOSKeyboard@@@ATL@@WNA@EAAKXZ 0000000180004434 f i POSKeyboard.obj
 0001:00003440       ?QueryInterface@?$CComContainedObject@VCOPOSPOSKeyboard@@@ATL@@WNI@EAAJAEBU_GUID@@PEAPEAX@Z 0000000180004440 f i POSKeyboard.obj
 0001:0000344c       ?AddRef@?$CComContainedObject@VCOPOSPOSKeyboard@@@ATL@@WNI@EAAKXZ 000000018000444c f i POSKeyboard.obj
 0001:00003458       ?Release@?$CComContainedObject@VCOPOSPOSKeyboard@@@ATL@@WNI@EAAKXZ 0000000180004458 f i POSKeyboard.obj
 0001:00003464       ?QueryInterface@?$CComContainedObject@VCOPOSPOSKeyboard@@@ATL@@WOA@EAAJAEBU_GUID@@PEAPEAX@Z 0000000180004464 f i POSKeyboard.obj
 0001:00003470       ?AddRef@?$CComContainedObject@VCOPOSPOSKeyboard@@@ATL@@WOA@EAAKXZ 0000000180004470 f i POSKeyboard.obj
 0001:0000347c       ?Release@?$CComContainedObject@VCOPOSPOSKeyboard@@@ATL@@WOA@EAAKXZ 000000018000447c f i POSKeyboard.obj
 0001:00003488       ?QueryInterface@?$CComContainedObject@VCOPOSPOSKeyboard@@@ATL@@WOI@EAAJAEBU_GUID@@PEAPEAX@Z 0000000180004488 f i POSKeyboard.obj
 0001:00003494       ?AddRef@?$CComContainedObject@VCOPOSPOSKeyboard@@@ATL@@WOI@EAAKXZ 0000000180004494 f i POSKeyboard.obj
 0001:000034a0       ?Release@?$CComContainedObject@VCOPOSPOSKeyboard@@@ATL@@WOI@EAAKXZ 00000001800044a0 f i POSKeyboard.obj
 0001:000034ac       ?QueryInterface@?$CComContainedObject@VCOPOSPOSKeyboard@@@ATL@@WPA@EAAJAEBU_GUID@@PEAPEAX@Z 00000001800044ac f i POSKeyboard.obj
 0001:000034b8       ?AddRef@?$CComContainedObject@VCOPOSPOSKeyboard@@@ATL@@WPA@EAAKXZ 00000001800044b8 f i POSKeyboard.obj
 0001:000034c4       ?Release@?$CComContainedObject@VCOPOSPOSKeyboard@@@ATL@@WPA@EAAKXZ 00000001800044c4 f i POSKeyboard.obj
 0001:000034d0       ?QueryInterface@?$CComContainedObject@VCOPOSPOSKeyboard@@@ATL@@WPI@EAAJAEBU_GUID@@PEAPEAX@Z 00000001800044d0 f i POSKeyboard.obj
 0001:000034dc       ?AddRef@?$CComContainedObject@VCOPOSPOSKeyboard@@@ATL@@WPI@EAAKXZ 00000001800044dc f i POSKeyboard.obj
 0001:000034e8       ?Release@?$CComContainedObject@VCOPOSPOSKeyboard@@@ATL@@WPI@EAAKXZ 00000001800044e8 f i POSKeyboard.obj
 0001:000034f4       ?QueryInterface@?$CComContainedObject@VCOPOSPOSKeyboard@@@ATL@@WBAA@EAAJAEBU_GUID@@PEAPEAX@Z 00000001800044f4 f i POSKeyboard.obj
 0001:00003500       ?AddRef@?$CComContainedObject@VCOPOSPOSKeyboard@@@ATL@@WBAA@EAAKXZ 0000000180004500 f i POSKeyboard.obj
 0001:0000350c       ?Release@?$CComContainedObject@VCOPOSPOSKeyboard@@@ATL@@WBAA@EAAKXZ 000000018000450c f i POSKeyboard.obj
 0001:00003518       ?QueryInterface@?$CComContainedObject@VCOPOSPOSKeyboard@@@ATL@@WBAI@EAAJAEBU_GUID@@PEAPEAX@Z 0000000180004518 f i POSKeyboard.obj
 0001:00003524       ?AddRef@?$CComContainedObject@VCOPOSPOSKeyboard@@@ATL@@WBAI@EAAKXZ 0000000180004524 f i POSKeyboard.obj
 0001:00003530       ?Release@?$CComContainedObject@VCOPOSPOSKeyboard@@@ATL@@WBAI@EAAKXZ 0000000180004530 f i POSKeyboard.obj
 0001:0000353c       ?QueryInterface@?$CComContainedObject@VCOPOSPOSKeyboard@@@ATL@@WBBA@EAAJAEBU_GUID@@PEAPEAX@Z 000000018000453c f i POSKeyboard.obj
 0001:00003548       ?AddRef@?$CComContainedObject@VCOPOSPOSKeyboard@@@ATL@@WBBA@EAAKXZ 0000000180004548 f i POSKeyboard.obj
 0001:00003554       ?Release@?$CComContainedObject@VCOPOSPOSKeyboard@@@ATL@@WBBA@EAAKXZ 0000000180004554 f i POSKeyboard.obj
 0001:00003560       ?QueryInterface@?$CComContainedObject@VCOPOSPOSKeyboard@@@ATL@@WBBI@EAAJAEBU_GUID@@PEAPEAX@Z 0000000180004560 f i POSKeyboard.obj
 0001:0000356c       ?AddRef@?$CComContainedObject@VCOPOSPOSKeyboard@@@ATL@@WBBI@EAAKXZ 000000018000456c f i POSKeyboard.obj
 0001:00003578       ?Release@?$CComContainedObject@VCOPOSPOSKeyboard@@@ATL@@WBBI@EAAKXZ 0000000180004578 f i POSKeyboard.obj
 0001:00003584       ?AddRef@?$CComContainedObject@VCOPOSPOSKeyboard@@@ATL@@WBCI@EAAKXZ 0000000180004584 f i POSKeyboard.obj
 0001:00003590       ?Release@?$CComContainedObject@VCOPOSPOSKeyboard@@@ATL@@WBCI@EAAKXZ 0000000180004590 f i POSKeyboard.obj
 0001:0000359c       ?AddRef@?$CComContainedObject@VCOPOSPOSKeyboard@@@ATL@@WBEA@EAAKXZ 000000018000459c f i POSKeyboard.obj
 0001:000035a8       ?Release@?$CComContainedObject@VCOPOSPOSKeyboard@@@ATL@@WBEA@EAAKXZ 00000001800045a8 f i POSKeyboard.obj
 0001:000035b4       ?CreateInstance@CComClassFactory@ATL@@UEAAJPEAUIUnknown@@AEBU_GUID@@PEAPEAX@Z 00000001800045b4 f i POSKeyboard.obj
 0001:00003614       ?LockServer@CComClassFactory@ATL@@UEAAJH@Z 0000000180004614 f i POSKeyboard.obj
 0001:00003638       ??_GCComClassFactory@ATL@@UEAAPEAXI@Z 0000000180004638 f i POSKeyboard.obj
 0001:00003638       ??_ECComClassFactory@ATL@@UEAAPEAXI@Z 0000000180004638 f i POSKeyboard.obj
 0001:00003688       ??$AtlModuleRegisterWndClassInfoT@VAtlModuleRegisterWndClassInfoParamW@ATL@@@ATL@@YAGPEAU_ATL_BASE_MODULE70@0@PEAU_ATL_WIN_MODULE70@0@PEAU_ATL_WNDCLASSINFOW@0@PEAP6A_JPEAUHWND__@@I_K_J@ZVAtlModuleRegisterWndClassInfoParamW@0@@Z 0000000180004688 f i POSKeyboard.obj
 0001:00003888       ??0?$CComContainedObject@VCOPOSPOSKeyboard@@@ATL@@QEAA@PEAX@Z 0000000180004888 f i POSKeyboard.obj
 0001:000039a4       ??0?$CComObject@VCOPOSPOSKeyboard@@@ATL@@QEAA@PEAX@Z 00000001800049a4 f i POSKeyboard.obj
 0001:00003abc       ??0CAtlModule@ATL@@QEAA@XZ 0000000180004abc f i POSKeyboard.obj
 0001:00003b30       ??1?$CComEnumImpl@UIEnumConnectionPoints@@$1?_GUID_b196b285_bab4_101a_b69c_00aa00341d07@@3U__s_GUID@@BPEAUIConnectionPoint@@V?$_CopyInterface@UIConnectionPoint@@@ATL@@@ATL@@UEAA@XZ 0000000180004b30 f i POSKeyboard.obj
 0001:00003b8c       ??1?$CComEnumImpl@UIEnumConnections@@$1?_GUID_b196b287_bab4_101a_b69c_00aa00341d07@@3U__s_GUID@@BUtagCONNECTDATA@@V?$_Copy@UtagCONNECTDATA@@@ATL@@@ATL@@UEAA@XZ 0000000180004b8c f i POSKeyboard.obj
 0001:00003be8       ??1?$CComObject@VCOPOSPOSKeyboard@@@ATL@@UEAA@XZ 0000000180004be8 f i POSKeyboard.obj
 0001:00003d08       ??_G?$CComContainedObject@VCOPOSPOSKeyboard@@@ATL@@UEAAPEAXI@Z 0000000180004d08 f i POSKeyboard.obj
 0001:00003d08       ??_E?$CComContainedObject@VCOPOSPOSKeyboard@@@ATL@@UEAAPEAXI@Z 0000000180004d08 f i POSKeyboard.obj
 0001:00003d3c       ??_G?$CComObject@VCOPOSPOSKeyboard@@@ATL@@UEAAPEAXI@Z 0000000180004d3c f i POSKeyboard.obj
 0001:00003d3c       ??_E?$CComObject@VCOPOSPOSKeyboard@@@ATL@@UEAAPEAXI@Z 0000000180004d3c f i POSKeyboard.obj
 0001:00003d70       ?Add@?$CSimpleArray@GV?$CSimpleArrayEqualHelper@G@ATL@@@ATL@@QEAAHAEBG@Z 0000000180004d70 f i POSKeyboard.obj
 0001:00003e24       ?Add@?$CSimpleMap@PEA_WPEA_WVCExpansionVectorEqualHelper@ATL@@@ATL@@QEAAHAEBQEA_W0@Z 0000000180004e24 f i POSKeyboard.obj
 0001:00003ec4       ?Add@CComDynamicUnkArray@ATL@@QEAAKPEAUIUnknown@@@Z 0000000180004ec4 f i POSKeyboard.obj
 0001:00003fb0       ?Add@CExpansionVector@ATL@@QEAAHPEB_W0@Z 0000000180004fb0 f i POSKeyboard.obj
 0001:000040e4       ?AddTermFunc@CAtlModule@ATL@@QEAAJP6AX_K@Z0@Z 00000001800050e4 f i POSKeyboard.obj
 0001:00004180       ?AddValue@CRegParser@ATL@@IEAAJAEAVCRegKey@2@PEB_WPEA_W@Z 0000000180005180 f i POSKeyboard.obj
 0001:000045c8       ?AllocateHeap@?$CTempBuffer@E$0BAA@VCCRTAllocator@ATL@@@ATL@@AEAAX_K@Z 00000001800055c8 f i POSKeyboard.obj
 0001:000045c8       ?AllocateHeap@?$CTempBuffer@_W$0BAA@VCCRTAllocator@ATL@@@ATL@@AEAAX_K@Z 00000001800055c8 f i POSKeyboard.obj
 0001:000045c8       ?AllocateHeap@?$CTempBuffer@_W$0EAA@VCCRTAllocator@ATL@@@ATL@@AEAAX_K@Z 00000001800055c8 f i POSKeyboard.obj
 0001:000045f4       ?Append@CParseBuffer@CRegParser@ATL@@QEAAHPEB_WH@Z 00000001800055f4 f i POSKeyboard.obj
 0001:0000473c       ?AtlComModuleGetClassObject@ATL@@YAJPEAU_ATL_COM_MODULE70@1@AEBU_GUID@@1PEAPEAX@Z 000000018000573c f i POSKeyboard.obj
 0001:0000487c       ?AtlComModuleRegisterServer@ATL@@YAJPEAU_ATL_COM_MODULE70@1@HPEBU_GUID@@@Z 000000018000587c f i POSKeyboard.obj
 0001:0000493c       ?AtlComModuleUnregisterServer@ATL@@YAJPEAU_ATL_COM_MODULE70@1@HPEBU_GUID@@@Z 000000018000593c f i POSKeyboard.obj
 0001:000049f8       ?AtlHiMetricToPixel@ATL@@YAXPEBUtagSIZE@@PEAU2@@Z 00000001800059f8 f i POSKeyboard.obj
 0001:00004aa8       ?AtlHresultFromLastError@ATL@@YAJXZ 0000000180005aa8 f i POSKeyboard.obj
 0001:00004ac8       ?AtlHresultFromWin32@ATL@@YAJK@Z 0000000180005ac8 f i POSKeyboard.obj
 0001:00004ad8       ?AtlInternalOleLoadFromStream@ATL@@YAJPEAUIStream@@AEBU_GUID@@PEAPEAXTClassesAllowedInStream@1@K@Z 0000000180005ad8 f i POSKeyboard.obj
 0001:00004c1c       ?AtlInternalQueryInterface@ATL@@YAJPEAXPEBU_ATL_INTMAP_ENTRY@1@AEBU_GUID@@PEAPEAX@Z 0000000180005c1c f i POSKeyboard.obj
 0001:00004d24       ?AtlLoadTypeLib@ATL@@YAJPEAUHINSTANCE__@@PEB_WPEAPEA_WPEAPEAUITypeLib@@@Z 0000000180005d24 f i POSKeyboard.obj
 0001:00004f80       ?AtlRegisterClassCategoriesHelper@ATL@@YAJAEBU_GUID@@PEBU_ATL_CATMAP_ENTRY@1@H@Z 0000000180005f80 f i POSKeyboard.obj
 0001:00005404       ?AtlRegisterTypeLib@ATL@@YAJPEAUHINSTANCE__@@PEB_W@Z 0000000180006404 f i POSKeyboard.obj
 0001:00005600       ?AtlThrowImpl@ATL@@YAXJ@Z  0000000180006600 f i POSKeyboard.obj
 0001:00005624       ?AtlUnRegisterTypeLib@ATL@@YAJPEAUHINSTANCE__@@PEB_W@Z 0000000180006624 f i POSKeyboard.obj
 0001:000056ec       ?AtlWinModuleExtractCreateWndData@ATL@@YAPEAXPEAU_ATL_WIN_MODULE70@1@@Z 00000001800066ec f i POSKeyboard.obj
 0001:00005778       ?Cleanup@CComTypeInfoHolder@ATL@@SAX_K@Z 0000000180006778 f i POSKeyboard.obj
 0001:000057b8       ?ClearReplacements@CExpansionVector@ATL@@QEAAJXZ 00000001800067b8 f i POSKeyboard.obj
 0001:00005854       ?CreateInstance@?$CComCreator@V?$CComAggObject@VCOPOSPOSKeyboard@@@ATL@@@ATL@@SAJPEAXAEBU_GUID@@PEAPEAX@Z 0000000180006854 f i POSKeyboard.obj
 0001:00005938       ?CreateInstance@?$CComCreator@V?$CComObject@VCOPOSPOSKeyboard@@@ATL@@@ATL@@SAJPEAXAEBU_GUID@@PEAPEAX@Z 0000000180006938 f i POSKeyboard.obj
 0001:000059ec       ?CreateInstance@?$CComObject@V?$CComEnum@UIEnumConnectionPoints@@$1?_GUID_b196b285_bab4_101a_b69c_00aa00341d07@@3U__s_GUID@@BPEAUIConnectionPoint@@V?$_CopyInterface@UIConnectionPoint@@@ATL@@VCComSingleThreadModel@6@@ATL@@@ATL@@SAJPEAPEAV12@@Z 00000001800069ec f i POSKeyboard.obj
 0001:00005a7c       ?CreateInstance@?$CComObject@V?$CComEnum@UIEnumConnections@@$1?_GUID_b196b287_bab4_101a_b69c_00aa00341d07@@3U__s_GUID@@BUtagCONNECTDATA@@V?$_Copy@UtagCONNECTDATA@@@ATL@@VCComSingleThreadModel@6@@ATL@@@ATL@@SAJPEAPEAV12@@Z 0000000180006a7c f i POSKeyboard.obj
 0001:00005b0c       ?DefaultReflectionHandler@?$CWindowImplRoot@VCWindow@ATL@@@ATL@@SAHPEAUHWND__@@I_K_JAEA_J@Z 0000000180006b0c f i POSKeyboard.obj
 0001:00005b70       ?DeleteSubKey@CRegKey@ATL@@QEAAJPEB_W@Z 0000000180006b70 f i POSKeyboard.obj
 0001:00005c08       ?DoEvent@COPOSPOSKeyboard@@IEAAXI_K_J@Z 0000000180006c08 f i POSKeyboard.obj
 0001:00005cbc       ?DoVerbPrimary@?$IOleObjectImpl@VCOPOSPOSKeyboard@@@ATL@@QEAAJPEBUtagRECT@@PEAUHWND__@@@Z 0000000180006cbc f i POSKeyboard.obj
 0001:00005de8       ?DoVerbProperties@CComControlBase@ATL@@QEAAJPEBUtagRECT@@PEAUHWND__@@@Z 0000000180006de8 f i POSKeyboard.obj
 0001:00006010       ?FireTheEvent@?$CProxy_IOPOSEvents@VCOPOSPOSKeyboard@@@@IEAAXPEAVOposVariant@@IAEAJPEB_WJ@Z 0000000180007010 f i POSKeyboard.obj
 0001:000060fc       ?FireViewChange@CComControlBase@ATL@@QEAAJXZ 00000001800070fc f i POSKeyboard.obj
 0001:00006160       ?Fire_DataEvent@?$CProxy_IOPOSEvents@VCOPOSPOSKeyboard@@@@QEAAXJ@Z 0000000180007160 f i POSKeyboard.obj
 0001:0000624c       ?Fire_DirectIOEvent@?$CProxy_IOPOSEvents@VCOPOSPOSKeyboard@@@@QEAAXJPEAJPEAPEA_W@Z 000000018000724c f i POSKeyboard.obj
 0001:000063ac       ?Fire_ErrorEvent@?$CProxy_IOPOSEvents@VCOPOSPOSKeyboard@@@@QEAAXJJJPEAJ@Z 00000001800073ac f i POSKeyboard.obj
 0001:00006520       ?Fire_StatusUpdateEvent@?$CProxy_IOPOSEvents@VCOPOSPOSKeyboard@@@@QEAAXJ@Z 0000000180007520 f i POSKeyboard.obj
 0001:0000660c       ?FreeHeap@?$CTempBuffer@E$0BAA@VCCRTAllocator@ATL@@@ATL@@AEAAXXZ 000000018000760c f i POSKeyboard.obj
 0001:0000660c       ?FreeHeap@?$CTempBuffer@_W$0BAA@VCCRTAllocator@ATL@@@ATL@@AEAAXXZ 000000018000760c f i POSKeyboard.obj
 0001:0000660c       ?FreeHeap@?$CTempBuffer@_W$0EAA@VCCRTAllocator@ATL@@@ATL@@AEAAXXZ 000000018000760c f i POSKeyboard.obj
 0001:00006614       ?GetAmbientLocaleID@CComControlBase@ATL@@QEAAJAEAK@Z 0000000180007614 f i POSKeyboard.obj
 0001:000066d4       ?GetAmbientUserMode@CComControlBase@ATL@@QEAAJAEAH@Z 00000001800076d4 f i POSKeyboard.obj
 0001:000067a4       ?GetClassObject@CComModule@ATL@@QEAAJAEBU_GUID@@0PEAPEAX@Z 00000001800077a4 f i POSKeyboard.obj
 0001:00006898       ?GetConnMap@COPOSPOSKeyboard@@SAPEBU_ATL_CONNMAP_ENTRY@ATL@@PEAH@Z 0000000180007898 f i POSKeyboard.obj
 0001:00006920       ?GetIDsOfNames@CComTypeInfoHolder@ATL@@QEAAJAEBU_GUID@@PEAPEA_WIKPEAJ@Z 0000000180007920 f i POSKeyboard.obj
 0001:00006a98       ?GetPagesHelper@?$ISpecifyPropertyPagesImpl@VCOPOSPOSKeyboard@@@ATL@@IEAAJPEAUtagCAUUID@@PEBUATL_PROPMAP_ENTRY@2@@Z 0000000180007a98 f i POSKeyboard.obj
 0001:00006c38       ?GetSizeMax@CComVariant@ATL@@QEBAJPEAT_ULARGE_INTEGER@@@Z 0000000180007c38 f i POSKeyboard.obj
 0001:00006e68       ?GetTI@CComTypeInfoHolder@ATL@@QEAAJK@Z 0000000180007e68 f i POSKeyboard.obj
 0001:00007150       ?GetZoomInfo@CComControlBase@ATL@@QEAAXAEAUATL_DRAWINFO@@@Z 0000000180008150 f i POSKeyboard.obj
 0001:000071f4       ?HKeyFromString@CRegParser@ATL@@KAPEAUHKEY__@@PEA_W@Z 00000001800081f4 f i POSKeyboard.obj
 0001:00007258       ?IDataObject_GetData@CComControlBase@ATL@@QEAAJPEAUtagFORMATETC@@PEAUtagSTGMEDIUM@@@Z 0000000180008258 f i POSKeyboard.obj
 0001:0000744c       ?IOleInPlaceObject_InPlaceDeactivate@CComControlBase@ATL@@QEAAJXZ 000000018000844c f i POSKeyboard.obj
 0001:000074ec       ?IOleInPlaceObject_SetObjectRects@CComControlBase@ATL@@QEAAJPEBUtagRECT@@0@Z 00000001800084ec f i POSKeyboard.obj
 0001:000075dc       ?IOleInPlaceObject_UIDeactivate@CComControlBase@ATL@@QEAAJXZ 00000001800085dc f i POSKeyboard.obj
 0001:000076e8       ?IOleObject_Close@CComControlBase@ATL@@QEAAJK@Z 00000001800086e8 f i POSKeyboard.obj
 0001:00007800       ?IOleObject_SetClientSite@CComControlBase@ATL@@QEAAJPEAUIOleClientSite@@@Z 0000000180008800 f i POSKeyboard.obj
 0001:00007878       ?IOleObject_SetExtent@CComControlBase@ATL@@QEAAJKPEAUtagSIZE@@@Z 0000000180008878 f i POSKeyboard.obj
 0001:00007910       ?IPSI_GetIPersistStreamInit@?$IPersistStorageImpl@VCOPOSPOSKeyboard@@@ATL@@AEAAPEAUIPersistStreamInit@@XZ 0000000180008910 f i POSKeyboard.obj
 0001:000079f8       ?IPersistStreamInit_Load@?$IPersistStreamInitImpl@VCOPOSPOSKeyboard@@@ATL@@QEAAJPEAUIStream@@PEBUATL_PROPMAP_ENTRY@2@@Z 00000001800089f8 f i POSKeyboard.obj
 0001:00007d24       ?IPersistStreamInit_Save@?$IPersistStreamInitImpl@VCOPOSPOSKeyboard@@@ATL@@QEAAJPEAUIStream@@HPEBUATL_PROPMAP_ENTRY@2@@Z 0000000180008d24 f i POSKeyboard.obj
 0001:00007fc4       ?IQuickActivate_QuickActivate@CComControlBase@ATL@@QEAAJPEAUtagQACONTAINER@@PEAUtagQACONTROL@@@Z 0000000180008fc4 f i POSKeyboard.obj
 0001:00008288       ?IViewObject_Draw@CComControlBase@ATL@@QEAAJKJPEAXPEAUtagDVTARGETDEVICE@@PEAUHDC__@@2PEBU_RECTL@@3@Z 0000000180009288 f i POSKeyboard.obj
 0001:0000839c       ?InPlaceActivate@CComControlBase@ATL@@QEAAJJPEBUtagRECT@@@Z 000000018000939c f i POSKeyboard.obj
 0001:000086d0       ?Init@?$CComEnumImpl@UIEnumConnectionPoints@@$1?_GUID_b196b285_bab4_101a_b69c_00aa00341d07@@3U__s_GUID@@BPEAUIConnectionPoint@@V?$_CopyInterface@UIConnectionPoint@@@ATL@@@ATL@@QEAAJPEAPEAUIConnectionPoint@@0PEAUIUnknown@@W4CComEnumFlags@2@@Z 00000001800096d0 f i POSKeyboard.obj
 0001:000087f0       ?Init@?$CComEnumImpl@UIEnumConnections@@$1?_GUID_b196b287_bab4_101a_b69c_00aa00341d07@@3U__s_GUID@@BUtagCONNECTDATA@@V?$_Copy@UtagCONNECTDATA@@@ATL@@@ATL@@QEAAJPEAUtagCONNECTDATA@@0PEAUIUnknown@@W4CComEnumFlags@2@@Z 00000001800097f0 f i POSKeyboard.obj
 0001:00008914       ?IsEqualObject@?$CComPtrBase@UIOleClientSite@@@ATL@@QEAA_NPEAUIUnknown@@@Z 0000000180009914 f i POSKeyboard.obj
 0001:000089a0       ?LoadNameCache@CComTypeInfoHolder@ATL@@QEAAJPEAUITypeInfo@@@Z 00000001800099a0 f i POSKeyboard.obj
 0001:00008b20       ?Lookup@?$CSimpleMap@PEA_WPEA_WVCExpansionVectorEqualHelper@ATL@@@ATL@@QEBAPEA_WAEBQEA_W@Z 0000000180009b20 f i POSKeyboard.obj
 0001:00008ba8       ?NextToken@CRegParser@ATL@@IEAAJPEA_W@Z 0000000180009ba8 f i POSKeyboard.obj
 0001:00008d60       ?OnKillFocus@CComControlBase@ATL@@QEAA_JI_K_JAEAH@Z 0000000180009d60 f i POSKeyboard.obj
 0001:00008dfc       ?OnMouseActivate@CComControlBase@ATL@@QEAA_JI_K_JAEAH@Z 0000000180009dfc f i POSKeyboard.obj
 0001:00008e9c       ?OnPaint@CComControlBase@ATL@@QEAA_JI_K_JAEAH@Z 0000000180009e9c f i POSKeyboard.obj
 0001:00008f88       ?OnSetFocus@CComControlBase@ATL@@QEAA_JI_K_JAEAH@Z 0000000180009f88 f i POSKeyboard.obj
 0001:00009084       ?PreProcessBuffer@CRegParser@ATL@@QEAAJPEA_WPEAPEA_W@Z 000000018000a084 f i POSKeyboard.obj
 0001:00009410       ?ProcessWindowMessage@?$CComControl@VCOPOSPOSKeyboard@@V?$CWindowImpl@VCOPOSPOSKeyboard@@VCWindow@ATL@@V?$CWinTraits@$0FGAAAAAA@$0A@@3@@ATL@@@ATL@@UEAAHPEAUHWND__@@I_K_JAEA_JK@Z 000000018000a410 f i POSKeyboard.obj
 0001:000094f4       ?ReadFromStream@CComBSTR@ATL@@QEAAJPEAUIStream@@@Z 000000018000a4f4 f i POSKeyboard.obj
 0001:00009644       ?ReadFromStream@CComVariant@ATL@@QEAAJPEAUIStream@@GTClassesAllowedInStream@2@K@Z 000000018000a644 f i POSKeyboard.obj
 0001:00009868       ?RecurseDeleteKey@CRegKey@ATL@@QEAAJPEB_W@Z 000000018000a868 f i POSKeyboard.obj
 0001:000099c0       ?RegCreateKeyExW@CAtlTransactionManager@ATL@@QEAAJPEAUHKEY__@@PEB_WKPEA_WKKQEAU_SECURITY_ATTRIBUTES@@PEAPEAU3@PEAK@Z 000000018000a9c0 f i POSKeyboard.obj
 0001:00009af4       ?RegDeleteKeyW@CAtlTransactionManager@ATL@@QEAAJPEAUHKEY__@@PEB_W@Z 000000018000aaf4 f i POSKeyboard.obj
 0001:00009b80       ?RegOpenKeyExW@CAtlTransactionManager@ATL@@QEAAJPEAUHKEY__@@PEB_WKKPEAPEAU3@@Z 000000018000ab80 f i POSKeyboard.obj
 0001:00009c38       ?RegisterBuffer@CRegParser@ATL@@QEAAJPEA_WH@Z 000000018000ac38 f i POSKeyboard.obj
 0001:00009da0       ?RegisterFromResource@CRegObject@ATL@@IEAAJPEB_W00H@Z 000000018000ada0 f i POSKeyboard.obj
 0001:00009f5c       ?RegisterServer@CComModule@ATL@@QEAAJHPEBU_GUID@@@Z 000000018000af5c f i POSKeyboard.obj
 0001:0000a01c       ?RegisterSubkeys@CRegParser@ATL@@IEAAJPEA_WPEAUHKEY__@@HH@Z 000000018000b01c f i POSKeyboard.obj
 0001:0000a888       ?SendOnDataChange@CComControlBase@ATL@@QEAAJK@Z 000000018000b888 f i POSKeyboard.obj
 0001:0000a8f8       ?SetControlFocus@CComControlBase@ATL@@QEAAHH@Z 000000018000b8f8 f i POSKeyboard.obj
 0001:0000a9d4       ?SkipAssignment@CRegParser@ATL@@IEAAJPEA_W@Z 000000018000b9d4 f i POSKeyboard.obj
 0001:0000aa78       ?Term@CAtlModule@ATL@@QEAAXXZ 000000018000ba78 f i POSKeyboard.obj
 0001:0000aaf8       ?Term@CComModule@ATL@@QEAAXXZ 000000018000baf8 f i POSKeyboard.obj
 0001:0000ab74       ?UnregisterServer@CComModule@ATL@@QEAAJHPEBU_GUID@@@Z 000000018000bb74 f i POSKeyboard.obj
 0001:0000ac24       ?UpdateRegistryFromResource@CAtlModule@ATL@@QEAAJIHPEAU_ATL_REGMAP_ENTRY@2@@Z 000000018000bc24 f i POSKeyboard.obj
 0001:0000af30       ?UpdateRegistryFromResource@CAtlModule@ATL@@QEAAJPEB_WHPEAU_ATL_REGMAP_ENTRY@2@@Z 000000018000bf30 f i POSKeyboard.obj
 0001:0000b254       ?VTFromRegType@CRegParser@ATL@@KAHPEB_WAEAG@Z 000000018000c254 f i POSKeyboard.obj
 0001:0000b2f0       ?WindowProc@?$CWindowImplBaseT@VCWindow@ATL@@V?$CWinTraits@$0FGAAAAAA@$0A@@2@@ATL@@SA_JPEAUHWND__@@I_K_J@Z 000000018000c2f0 f i POSKeyboard.obj
 0001:0000b45c       ?WriteToStream@CComVariant@ATL@@QEAAJPEAUIStream@@@Z 000000018000c45c f i POSKeyboard.obj
 0001:0000b6d8       ?WriteToStream@CComVariant@ATL@@QEAAJPEAUIStream@@G@Z 000000018000c6d8 f i POSKeyboard.obj
 0001:0000b770       ?_AtlVerifyStackAvailable@_ATL_SAFE_ALLOCA_IMPL@ATL@@YA_N_K@Z 000000018000c770 f i POSKeyboard.obj
 0001:0000b7f4       ?atlCreate@?$CWindowImpl@VCOPOSPOSKeyboard@@VCWindow@ATL@@V?$CWinTraits@$0FGAAAAAA@$0A@@3@@ATL@@QEAAPEAUHWND__@@PEAU3@V_U_RECT@2@PEB_WKKV_U_MENUorID@2@PEAX@Z 000000018000c7f4 f i POSKeyboard.obj
 0001:0000b8a4       ?atlCreate@?$CWindowImplBaseT@VCWindow@ATL@@V?$CWinTraits@$0FGAAAAAA@$0A@@2@@ATL@@QEAAPEAUHWND__@@PEAU3@V_U_RECT@2@PEB_WKKV_U_MENUorID@2@GPEAX@Z 000000018000c8a4 f i POSKeyboard.obj
 0001:0000ba14       ?ocscpy_s@@YA_NPEA_W_KPEB_W@Z 000000018000ca14 f i POSKeyboard.obj
 0001:0000bac4       DllCanUnloadNow            000000018000cac4 f   POSKeyboard.obj
 0001:0000bad0       DllGetClassObject          000000018000cad0 f   POSKeyboard.obj
 0001:0000bae8       DllMain                    000000018000cae8 f   POSKeyboard.obj
 0001:0000bb90       DllRegisterServer          000000018000cb90 f   POSKeyboard.obj
 0001:0000bba4       DllUnregisterServer        000000018000cba4 f   POSKeyboard.obj
 0001:0000bbb8       __local_stdio_printf_options 000000018000cbb8 f i POSKeyboard.obj
 0001:0000bbc0       swprintf_s                 000000018000cbc0 f i POSKeyboard.obj
 0001:0000bc14       ??0COPOSPOSKeyboard@@QEAA@XZ 000000018000cc14 f   POSKeyboardImpl.obj
 0001:0000bcdc       ??1?$IConnectionPointImpl@VCOPOSPOSKeyboard@@$1?IID_IPropertyNotifySink@@3U_GUID@@BVCComDynamicUnkArray@ATL@@@ATL@@QEAA@XZ 000000018000ccdc f i POSKeyboardImpl.obj
 0001:0000bcdc       ??1?$IConnectionPointImpl@VCOPOSPOSKeyboard@@$1?DIID__IOPOSPOSKeyboardEvents@@3U_GUID@@BVCComDynamicUnkArray@ATL@@@ATL@@QEAA@XZ 000000018000ccdc f i POSKeyboardImpl.obj
 0001:0000bd38       ??1CComControlBase@ATL@@UEAA@XZ 000000018000cd38 f i POSKeyboardImpl.obj
 0001:0000bdb4       ??1COPOSPOSKeyboard@@UEAA@XZ 000000018000cdb4 f   POSKeyboardImpl.obj
 0001:0000be18       ?CheckHealth@COPOSPOSKeyboard@@UEAAJJPEAJ@Z 000000018000ce18 f   POSKeyboardImpl.obj
 0001:0000be94       ?ClaimDevice@COPOSPOSKeyboard@@UEAAJJPEAJ@Z 000000018000ce94 f   POSKeyboardImpl.obj
 0001:0000bf34       ?ClearInput@COPOSPOSKeyboard@@UEAAJPEAJ@Z 000000018000cf34 f   POSKeyboardImpl.obj
 0001:0000bf5c       ?Close@COPOSPOSKeyboard@@UEAAJPEAJ@Z 000000018000cf5c f   POSKeyboardImpl.obj
 0001:0000c014       ?CompareFirmwareVersion@COPOSPOSKeyboard@@UEAAJPEA_WPEAJ1@Z 000000018000d014 f   POSKeyboardImpl.obj
 0001:0000c0f0       ?DirectIO@COPOSPOSKeyboard@@UEAAJJPEAJPEAPEA_W0@Z 000000018000d0f0 f   POSKeyboardImpl.obj
 0001:0000c1ec       ?DoInvoke@COPOSPOSKeyboard@@IEAAJJPEAVOposVariant@@IHPEAJ_N@Z 000000018000d1ec f   POSKeyboardImpl.obj
 0001:0000c320       ?EventInit@COPOSPOSKeyboard@@IEAAJXZ 000000018000d320 f i POSKeyboardImpl.obj
 0001:0000c468       ?EventUninit@COPOSPOSKeyboard@@IEAAXXZ 000000018000d468 f i POSKeyboardImpl.obj
 0001:0000c4cc       ?EventWindowProc@COPOSPOSKeyboard@@IEAA_JI_K_J@Z 000000018000d4cc f i POSKeyboardImpl.obj
 0001:0000c644       ?FinalConstruct@COPOSPOSKeyboard@@QEAAJXZ 000000018000d644 f   POSKeyboardImpl.obj
 0001:0000c680       ?FreezeEvents@COPOSPOSKeyboard@@MEAAJH@Z 000000018000d680 f   POSKeyboardImpl.obj
 0001:0000c6f4       ?GetOposProp@COPOSPOSKeyboard@@IEAAJJPEAJJ@Z 000000018000d6f4 f   POSKeyboardImpl.obj
 0001:0000c810       ?GetOposProp@COPOSPOSKeyboard@@IEAAJJPEAPEA_WJ@Z 000000018000d810 f   POSKeyboardImpl.obj
 0001:0000c93c       ?OnDraw@COPOSPOSKeyboard@@MEAAJAEAUATL_DRAWINFO@@@Z 000000018000d93c f   POSKeyboardImpl.obj
 0001:0000ca28       ?Open@COPOSPOSKeyboard@@UEAAJPEA_WPEAJ@Z 000000018000da28 f   POSKeyboardImpl.obj
 0001:0000d2a4       ?ReleaseDevice@COPOSPOSKeyboard@@UEAAJPEAJ@Z 000000018000e2a4 f   POSKeyboardImpl.obj
 0001:0000d310       ?ResetStatistics@COPOSPOSKeyboard@@UEAAJPEA_WPEAJ@Z 000000018000e310 f   POSKeyboardImpl.obj
 0001:0000d398       ?RetrieveStatistics@COPOSPOSKeyboard@@UEAAJPEAPEA_WPEAJ@Z 000000018000e398 f   POSKeyboardImpl.obj
 0001:0000d420       ?SOProcessID@COPOSPOSKeyboard@@UEAAJPEAJ@Z 000000018000e420 f   POSKeyboardImpl.obj
 0001:0000d43c       ?SetCOFreezeEvents@COPOSPOSKeyboard@@IEAAXF@Z 000000018000e43c f   POSKeyboardImpl.obj
 0001:0000d520       ?SetOposProp@COPOSPOSKeyboard@@IEAAJJJJ@Z 000000018000e520 f   POSKeyboardImpl.obj
 0001:0000d680       ?UpdateFirmware@COPOSPOSKeyboard@@UEAAJPEA_WPEAJ@Z 000000018000e680 f   POSKeyboardImpl.obj
 0001:0000d708       ?UpdateStatistics@COPOSPOSKeyboard@@UEAAJPEA_WPEAJ@Z 000000018000e708 f   POSKeyboardImpl.obj
 0001:0000d790       ?get_AutoDisable@COPOSPOSKeyboard@@UEAAJPEAF@Z 000000018000e790 f   POSKeyboardImpl.obj
 0001:0000d7c4       ?get_BinaryConversion@COPOSPOSKeyboard@@UEAAJPEAJ@Z 000000018000e7c4 f   POSKeyboardImpl.obj
 0001:0000d7d8       ?get_CapCompareFirmwareVersion@COPOSPOSKeyboard@@UEAAJPEAF@Z 000000018000e7d8 f   POSKeyboardImpl.obj
 0001:0000d80c       ?get_CapKeyUp@COPOSPOSKeyboard@@UEAAJPEAF@Z 000000018000e80c f   POSKeyboardImpl.obj
 0001:0000d840       ?get_CapPowerReporting@COPOSPOSKeyboard@@UEAAJPEAJ@Z 000000018000e840 f   POSKeyboardImpl.obj
 0001:0000d854       ?get_CapStatisticsReporting@COPOSPOSKeyboard@@UEAAJPEAF@Z 000000018000e854 f   POSKeyboardImpl.obj
 0001:0000d888       ?get_CapUpdateFirmware@COPOSPOSKeyboard@@UEAAJPEAF@Z 000000018000e888 f   POSKeyboardImpl.obj
 0001:0000d8bc       ?get_CapUpdateStatistics@COPOSPOSKeyboard@@UEAAJPEAF@Z 000000018000e8bc f   POSKeyboardImpl.obj
 0001:0000d8f0       ?get_CheckHealthText@COPOSPOSKeyboard@@UEAAJPEAPEA_W@Z 000000018000e8f0 f   POSKeyboardImpl.obj
 0001:0000d904       ?get_Claimed@COPOSPOSKeyboard@@UEAAJPEAF@Z 000000018000e904 f   POSKeyboardImpl.obj
 0001:0000d934       ?get_ControlObjectDescription@COPOSPOSKeyboard@@UEAAJPEAPEA_W@Z 000000018000e934 f   POSKeyboardImpl.obj
 0001:0000d998       ?get_ControlObjectVersion@COPOSPOSKeyboard@@UEAAJPEAJ@Z 000000018000e998 f   POSKeyboardImpl.obj
 0001:0000d9a4       ?get_DataCount@COPOSPOSKeyboard@@UEAAJPEAJ@Z 000000018000e9a4 f   POSKeyboardImpl.obj
 0001:0000d9b8       ?get_DataEventEnabled@COPOSPOSKeyboard@@UEAAJPEAF@Z 000000018000e9b8 f   POSKeyboardImpl.obj
 0001:0000d9ec       ?get_DeviceDescription@COPOSPOSKeyboard@@UEAAJPEAPEA_W@Z 000000018000e9ec f   POSKeyboardImpl.obj
 0001:0000da00       ?get_DeviceEnabled@COPOSPOSKeyboard@@UEAAJPEAF@Z 000000018000ea00 f   POSKeyboardImpl.obj
 0001:0000da34       ?get_DeviceName@COPOSPOSKeyboard@@UEAAJPEAPEA_W@Z 000000018000ea34 f   POSKeyboardImpl.obj
 0001:0000da48       ?get_EventTypes@COPOSPOSKeyboard@@UEAAJPEAJ@Z 000000018000ea48 f   POSKeyboardImpl.obj
 0001:0000da5c       ?get_FreezeEvents@COPOSPOSKeyboard@@UEAAJPEAF@Z 000000018000ea5c f   POSKeyboardImpl.obj
 0001:0000da8c       ?get_OpenResult@COPOSPOSKeyboard@@UEAAJPEAJ@Z 000000018000ea8c f   POSKeyboardImpl.obj
 0001:0000da98       ?get_POSKeyData@COPOSPOSKeyboard@@UEAAJPEAJ@Z 000000018000ea98 f   POSKeyboardImpl.obj
 0001:0000daac       ?get_POSKeyEventType@COPOSPOSKeyboard@@UEAAJPEAJ@Z 000000018000eaac f   POSKeyboardImpl.obj
 0001:0000dac0       ?get_PowerNotify@COPOSPOSKeyboard@@UEAAJPEAJ@Z 000000018000eac0 f   POSKeyboardImpl.obj
 0001:0000dad4       ?get_PowerState@COPOSPOSKeyboard@@UEAAJPEAJ@Z 000000018000ead4 f   POSKeyboardImpl.obj
 0001:0000dae8       ?get_ResultCode@COPOSPOSKeyboard@@UEAAJPEAJ@Z 000000018000eae8 f   POSKeyboardImpl.obj
 0001:0000db24       ?get_ResultCodeExtended@COPOSPOSKeyboard@@UEAAJPEAJ@Z 000000018000eb24 f   POSKeyboardImpl.obj
 0001:0000db38       ?get_ServiceObjectDescription@COPOSPOSKeyboard@@UEAAJPEAPEA_W@Z 000000018000eb38 f   POSKeyboardImpl.obj
 0001:0000db4c       ?get_ServiceObjectVersion@COPOSPOSKeyboard@@UEAAJPEAJ@Z 000000018000eb4c f   POSKeyboardImpl.obj
 0001:0000db60       ?get_State@COPOSPOSKeyboard@@UEAAJPEAJ@Z 000000018000eb60 f   POSKeyboardImpl.obj
 0001:0000db8c       ?put_AutoDisable@COPOSPOSKeyboard@@UEAAJF@Z 000000018000eb8c f   POSKeyboardImpl.obj
 0001:0000dba4       ?put_BinaryConversion@COPOSPOSKeyboard@@UEAAJJ@Z 000000018000eba4 f   POSKeyboardImpl.obj
 0001:0000dbb8       ?put_DataEventEnabled@COPOSPOSKeyboard@@UEAAJF@Z 000000018000ebb8 f   POSKeyboardImpl.obj
 0001:0000dbd0       ?put_DeviceEnabled@COPOSPOSKeyboard@@UEAAJF@Z 000000018000ebd0 f   POSKeyboardImpl.obj
 0001:0000dbe8       ?put_EventTypes@COPOSPOSKeyboard@@UEAAJJ@Z 000000018000ebe8 f   POSKeyboardImpl.obj
 0001:0000dbfc       ?put_FreezeEvents@COPOSPOSKeyboard@@UEAAJF@Z 000000018000ebfc f   POSKeyboardImpl.obj
 0001:0000dc4c       ?put_PowerNotify@COPOSPOSKeyboard@@UEAAJJ@Z 000000018000ec4c f   POSKeyboardImpl.obj
 0001:0000dc60       ?s_EventWindowProc@COPOSPOSKeyboard@@KA_JPEAUHWND__@@I_K_J@Z 000000018000ec60 f i POSKeyboardImpl.obj
 0001:0000dcdc       ??_U@YAPEAX_K@Z            000000018000ecdc f   LIBCMT:new_array.obj
 0001:0000dce4       ??3@YAXPEAX_K@Z            000000018000ece4 f   LIBCMT:delete_scalar_size.obj
 0001:0000dce4       ??_V@YAXPEAX@Z             000000018000ece4 f   LIBCMT:delete_array.obj
 0001:0000dcec       ??_V@YAXPEAX_K@Z           000000018000ecec f   LIBCMT:delete_array_size.obj
 0001:0000dcf4       __scrt_acquire_startup_lock 000000018000ecf4 f   LIBCMT:utility.obj
 0001:0000dd30       __scrt_dllmain_after_initialize_c 000000018000ed30 f   LIBCMT:utility.obj
 0001:0000dd64       __scrt_dllmain_before_initialize_c 000000018000ed64 f   LIBCMT:utility.obj
 0001:0000dd7c       __scrt_dllmain_crt_thread_attach 000000018000ed7c f   LIBCMT:utility.obj
 0001:0000dda4       __scrt_dllmain_crt_thread_detach 000000018000eda4 f   LIBCMT:utility.obj
 0001:0000ddbc       __scrt_dllmain_exception_filter 000000018000edbc f   LIBCMT:utility.obj
 0001:0000de1c       __scrt_dllmain_uninitialize_c 000000018000ee1c f   LIBCMT:utility.obj
 0001:0000de4c       __scrt_dllmain_uninitialize_critical 000000018000ee4c f   LIBCMT:utility.obj
 0001:0000de60       __scrt_initialize_crt      000000018000ee60 f   LIBCMT:utility.obj
 0001:0000deac       __scrt_initialize_onexit_tables 000000018000eeac f   LIBCMT:utility.obj
 0001:0000df38       __scrt_is_nonwritable_in_current_image 000000018000ef38 f   LIBCMT:utility.obj
 0001:0000dfd0       __scrt_release_startup_lock 000000018000efd0 f   LIBCMT:utility.obj
 0001:0000dff4       __scrt_uninitialize_crt    000000018000eff4 f   LIBCMT:utility.obj
 0001:0000e020       _onexit                    000000018000f020 f   LIBCMT:utility.obj
 0001:0000e05c       atexit                     000000018000f05c f   LIBCMT:utility.obj
 0001:0000e074       ??3@YAXPEAX@Z              000000018000f074 f   LIBCMT:delete_scalar.obj
 0001:0000e174       _Init_thread_footer        000000018000f174 f   LIBCMT:thread_safe_statics.obj
 0001:0000e1d4       _Init_thread_header        000000018000f1d4 f   LIBCMT:thread_safe_statics.obj
 0001:0000e23c       _Init_thread_notify        000000018000f23c f   LIBCMT:thread_safe_statics.obj
 0001:0000e280       _Init_thread_wait          000000018000f280 f   LIBCMT:thread_safe_statics.obj
 0001:0000e2e4       __raise_securityfailure    000000018000f2e4 f   LIBCMT:gs_report.obj
 0001:0000e318       __report_gsfailure         000000018000f318 f   LIBCMT:gs_report.obj
 0001:0000e3ec       __report_rangecheckfailure 000000018000f3ec f   LIBCMT:gs_report.obj
 0001:0000e400       __report_securityfailure   000000018000f400 f   LIBCMT:gs_report.obj
 0001:0000e580       ??2@YAPEAX_KAEBUnothrow_t@std@@@Z 000000018000f580 f   LIBCMT:new_scalar_nothrow.obj
 0001:0000e594       ??_U@YAPEAX_KAEBUnothrow_t@std@@@Z 000000018000f594 f   LIBCMT:new_array_nothrow.obj
 0001:0000e59c       __GSHandlerCheck           000000018000f59c f   LIBCMT:gshandler.obj
 0001:0000e5bc       __GSHandlerCheckCommon     000000018000f5bc f   LIBCMT:gshandler.obj
 0001:0000e618       __GSHandlerCheck_SEH       000000018000f618 f   LIBCMT:gshandlerseh.obj
 0001:0000e6b0       _alloca_probe              000000018000f6b0 f   LIBCMT:chkstk.obj
 0001:0000e6b0       __chkstk                   000000018000f6b0 f   LIBCMT:chkstk.obj
 0001:0000e720       __security_check_cookie    000000018000f720 f   LIBCMT:amdsecgs.obj
 0001:0000ea64       _DllMainCRTStartup         000000018000fa64 f   LIBCMT:dll_dllmain.obj
 0001:0000eaa4       ??2@YAPEAX_K@Z             000000018000faa4 f   LIBCMT:new_scalar.obj
 0001:0000eae0       __isa_available_init       000000018000fae0 f   LIBCMT:cpu_disp.obj
 0001:0000ec84       __scrt_is_ucrt_dll_in_use  000000018000fc84 f   LIBCMT:ucrt_detection.obj
 0001:0000ec90       __crt_debugger_hook        000000018000fc90 f   LIBCMT:utility_desktop.obj
 0001:0000ec98       __scrt_fastfail            000000018000fc98 f   LIBCMT:utility_desktop.obj
 0001:0000ede4       __security_init_cookie     000000018000fde4 f   LIBCMT:gs_support.obj
 0001:0000ee90       ?__scrt_initialize_type_info@@YAXXZ 000000018000fe90 f   LIBCMT:tncleanup.obj
 0001:0000eea0       ?__scrt_uninitialize_type_info@@YAXXZ 000000018000fea0 f   LIBCMT:tncleanup.obj
 0001:0000eeac       __local_stdio_scanf_options 000000018000feac f i LIBCMT:default_local_stdio_options.obj
 0001:0000eeb4       __scrt_initialize_default_local_stdio_options 000000018000feb4 f   LIBCMT:default_local_stdio_options.obj
 0001:0000eed0       __scrt_get_dyn_tls_init_callback 000000018000fed0 f   LIBCMT:dyn_tls_init.obj
 0001:0000eed8       _RTC_Initialize            000000018000fed8 f   LIBCMT:initsect.obj
 0001:0000ef14       _RTC_Terminate             000000018000ff14 f   LIBCMT:initsect.obj
 0001:0000ef50       ??0bad_alloc@std@@QEAA@AEBV01@@Z 000000018000ff50 f i LIBCMT:throw_bad_alloc.obj
 0001:0000ef8c       ??0bad_alloc@std@@QEAA@XZ  000000018000ff8c f i LIBCMT:throw_bad_alloc.obj
 0001:0000efac       ??0bad_array_new_length@std@@QEAA@AEBV01@@Z 000000018000ffac f i LIBCMT:throw_bad_alloc.obj
 0001:0000efe8       ??0bad_array_new_length@std@@QEAA@XZ 000000018000ffe8 f i LIBCMT:throw_bad_alloc.obj
 0001:0000f008       ??0exception@std@@QEAA@AEBV01@@Z 0000000180010008 f i LIBCMT:throw_bad_alloc.obj
 0001:0000f03c       ??1bad_array_new_length@std@@UEAA@XZ 000000018001003c f i LIBCMT:throw_bad_alloc.obj
 0001:0000f03c       ??1bad_alloc@std@@UEAA@XZ  000000018001003c f i LIBCMT:throw_bad_alloc.obj
 0001:0000f03c       ??1bad_exception@std@@UEAA@XZ 000000018001003c f i libvcruntime:frame.obj
 0001:0000f050       ??_Gbad_alloc@std@@UEAAPEAXI@Z 0000000180010050 f i LIBCMT:throw_bad_alloc.obj
 0001:0000f050       ??_Gbad_exception@std@@UEAAPEAXI@Z 0000000180010050 f i libvcruntime:frame.obj
 0001:0000f050       ??_Eexception@std@@UEAAPEAXI@Z 0000000180010050 f i LIBCMT:throw_bad_alloc.obj
 0001:0000f050       ??_Ebad_alloc@std@@UEAAPEAXI@Z 0000000180010050 f i LIBCMT:throw_bad_alloc.obj
 0001:0000f050       ??_Gbad_array_new_length@std@@UEAAPEAXI@Z 0000000180010050 f i LIBCMT:throw_bad_alloc.obj
 0001:0000f050       ??_Ebad_array_new_length@std@@UEAAPEAXI@Z 0000000180010050 f i LIBCMT:throw_bad_alloc.obj
 0001:0000f050       ??_Ebad_exception@std@@UEAAPEAXI@Z 0000000180010050 f i libvcruntime:frame.obj
 0001:0000f050       ??_Gexception@std@@UEAAPEAXI@Z 0000000180010050 f i LIBCMT:throw_bad_alloc.obj
 0001:0000f094       ?__scrt_throw_std_bad_alloc@@YAXXZ 0000000180010094 f   LIBCMT:throw_bad_alloc.obj
 0001:0000f0b4       ?__scrt_throw_std_bad_array_new_length@@YAXXZ 00000001800100b4 f   LIBCMT:throw_bad_alloc.obj
 0001:0000f0d4       ?what@exception@std@@UEBAPEBDXZ 00000001800100d4 f i LIBCMT:throw_bad_alloc.obj
 0001:0000f0f0       ??_Etype_info@@UEAAPEAXI@Z 00000001800100f0 f i LIBCMT:std_type_info_static.obj
 0001:0000f0f0       ??_Gtype_info@@UEAAPEAXI@Z 00000001800100f0 f i LIBCMT:std_type_info_static.obj
 0001:0000f11c       ??0CAtlBaseModule@ATL@@QEAA@XZ 000000018001011c f   atls:atlbase.obj
 0001:0000f1c4       ??1CAtlBaseModule@ATL@@QEAA@XZ 00000001800101c4 f   atls:atlbase.obj
 0001:0000f2f8       ?__AllocStdCallThunk_cmn@@YAPEAXXZ 00000001800102f8 f   atls:atlthunk.obj
 0001:0000f450       AtlThunk_AllocateData      0000000180010450 f   atls:atlthunk.obj
 0001:0000f4cc       AtlThunk_DataToCode        00000001800104cc f   atls:atlthunk.obj
 0001:0000f520       AtlThunk_FreeData          0000000180010520 f   atls:atlthunk.obj
 0001:0000f580       AtlThunk_InitData          0000000180010580 f   atls:atlthunk.obj
 0001:0000f628       _get_purecall_handler      0000000180010628 f   libvcruntime:purevirt.obj
 0001:0000f630       _purecall                  0000000180010630 f   libvcruntime:purevirt.obj
 0001:0000f64c       wcsstr                     000000018001064c f   libvcruntime:wcsstr.obj
 0001:0000f880       memcmp                     0000000180010880 f   libvcruntime:memcmp.obj
 0001:0000f960       memcpy_repmovs             0000000180010960 f   libvcruntime:memcpy.obj
 0001:0000f980       memmove                    0000000180010980 f   libvcruntime:memcpy.obj
 0001:0000f980       memcpy                     0000000180010980 f   libvcruntime:memcpy.obj
 0001:0000fd70       memset_repmovs             0000000180010d70 f   libvcruntime:memset.obj
 0001:0000fd90       memset                     0000000180010d90 f   libvcruntime:memset.obj
 0001:0000ff20       __vcrt_initialize          0000000180010f20 f   libvcruntime:initialization.obj
 0001:0000ff48       __vcrt_thread_attach       0000000180010f48 f   libvcruntime:initialization.obj
 0001:0000ff5c       __vcrt_thread_detach       0000000180010f5c f   libvcruntime:initialization.obj
 0001:0000ff70       __vcrt_uninitialize        0000000180010f70 f   libvcruntime:initialization.obj
 0001:0000ff8c       __vcrt_uninitialize_critical 0000000180010f8c f   libvcruntime:initialization.obj
 0001:0000ff9c       __C_specific_handler       0000000180010f9c f   libvcruntime:riscchandler.obj
 0001:000101a8       ??$_CallSETranslator@V__FrameHandler4@@@@YAHPEAUEHExceptionRecord@@PEA_KPEAU_CONTEXT@@PEAU_xDISPATCHER_CONTEXT@@PEAUFuncInfo4@FH4@@K1H@Z 00000001800111a8 f i libvcruntime:risctrnsctrl.obj
 0001:000101fc       ?DecompFuncInfo@FH4@@YA_JPEAEAEAUFuncInfo4@1@_KH_N@Z 00000001800111fc f i libvcruntime:risctrnsctrl.obj
 0001:00010320       ?ExecutionInCatch@__FrameHandler4@@SA_NPEAU_xDISPATCHER_CONTEXT@@PEAUFuncInfo4@FH4@@@Z 0000000180011320 f   libvcruntime:risctrnsctrl.obj
 0001:00010328       ?FrameUnwindToEmptyState@__FrameHandler4@@SAXPEA_KPEAU_xDISPATCHER_CONTEXT@@PEAUFuncInfo4@FH4@@@Z 0000000180011328 f   libvcruntime:risctrnsctrl.obj
 0001:0001035c       ?GetEstablisherFrame@__FrameHandler4@@SAPEA_KPEA_KPEAU_xDISPATCHER_CONTEXT@@PEAUFuncInfo4@FH4@@0@Z 000000018001135c f   libvcruntime:risctrnsctrl.obj
 0001:00010380       ?GetRangeOfTrysToCheck@__FrameHandler4@@SA?AU?$pair@Viterator@TryBlockMap4@FH4@@V123@@std@@AEAVTryBlockMap4@FH4@@HPEAU_xDISPATCHER_CONTEXT@@PEAUFuncInfo4@5@H@Z 0000000180011380 f   libvcruntime:risctrnsctrl.obj
 0001:000104dc       ?UnwindNestedFrames@__FrameHandler4@@SAXPEA_KPEAUEHExceptionRecord@@PEAU_CONTEXT@@0PEAXPEAUFuncInfo4@FH4@@HHPEAUHandlerType4@5@PEAU_xDISPATCHER_CONTEXT@@E@Z 00000001800114dc f   libvcruntime:risctrnsctrl.obj
 0001:000105fc       ?setBuffer@TryBlockMap4@FH4@@QEAAXViterator@12@@Z 00000001800115fc f i libvcruntime:risctrnsctrl.obj
 0001:000107c0       _CreateFrameInfo           00000001800117c0 f   libvcruntime:risctrnsctrl.obj
 0001:000107fc       _FindAndUnlinkFrame        00000001800117fc f   libvcruntime:risctrnsctrl.obj
 0001:00010850       _GetImageBase              0000000180011850 f   libvcruntime:risctrnsctrl.obj
 0001:00010864       _GetThrowImageBase         0000000180011864 f   libvcruntime:risctrnsctrl.obj
 0001:00010878       _SetImageBase              0000000180011878 f   libvcruntime:risctrnsctrl.obj
 0001:00010890       _SetThrowImageBase         0000000180011890 f   libvcruntime:risctrnsctrl.obj
 0001:000108a8       __CxxFrameHandler4         00000001800118a8 f   libvcruntime:risctrnsctrl.obj
 0001:00010968       __DestructExceptionObject  0000000180011968 f   libvcruntime:ehhelpers.obj
 0001:000109d8       ?_CallMemberFunction0@@YAXQEAX0@Z 00000001800119d8 f i libvcruntime:ehhelpers.obj
 0001:000109dc       _IsExceptionObjectToBeDestroyed 00000001800119dc f   libvcruntime:ehhelpers.obj
 0001:00010a0c       __AdjustPointer            0000000180011a0c f   libvcruntime:ehhelpers.obj
 0001:00010a30       __FrameUnwindFilter        0000000180011a30 f   libvcruntime:ehhelpers.obj
 0001:00010a98       __std_type_info_compare    0000000180011a98 f   libvcruntime:std_type_info.obj
 0001:00010ac0       __std_type_info_destroy_list 0000000180011ac0 f   libvcruntime:std_type_info.obj
 0001:00010aec       __std_exception_copy       0000000180011aec f   libvcruntime:std_exception.obj
 0001:00010b7c       __std_exception_destroy    0000000180011b7c f   libvcruntime:std_exception.obj
 0001:00010ba4       _CxxThrowException         0000000180011ba4 f   libvcruntime:throw.obj
 0001:00010c44       __vcrt_freefls             0000000180011c44 f   libvcruntime:per_thread_data.obj
 0001:00010c64       __vcrt_freeptd             0000000180011c64 f   libvcruntime:per_thread_data.obj
 0001:00010cb4       __vcrt_getptd              0000000180011cb4 f   libvcruntime:per_thread_data.obj
 0001:00010cd0       __vcrt_getptd_noexit       0000000180011cd0 f   libvcruntime:per_thread_data.obj
 0001:00010d90       __vcrt_initialize_ptd      0000000180011d90 f   libvcruntime:per_thread_data.obj
 0001:00010dd8       __vcrt_uninitialize_ptd    0000000180011dd8 f   libvcruntime:per_thread_data.obj
 0001:00010dfc       __vcrt_initialize_locks    0000000180011dfc f   libvcruntime:locks.obj
 0001:00010e30       __vcrt_uninitialize_locks  0000000180011e30 f   libvcruntime:locks.obj
 0001:00010e80       _NLG_Notify                0000000180011e80 f   libvcruntime:notify.obj
 0001:00010ea0       __NLG_Dispatch2            0000000180011ea0 f   libvcruntime:notify.obj
 0001:00010eb0       __NLG_Return2              0000000180011eb0 f   libvcruntime:notify.obj
 0001:00010eb4       __except_validate_context_record 0000000180011eb4 f   libvcruntime:jbcxrval.obj
 0001:00010eec       ?StateFromControlPc@__FrameHandler4@@SAHPEAUFuncInfo4@FH4@@PEAU_xDISPATCHER_CONTEXT@@@Z 0000000180011eec f   libvcruntime:ehstate.obj
 0001:00010ef4       ?StateFromIp@__FrameHandler4@@SAHPEAUFuncInfo4@FH4@@PEAU_xDISPATCHER_CONTEXT@@_K@Z 0000000180011ef4 f   libvcruntime:ehstate.obj
 0001:00011b78       ??$TypeMatchHelper@V__FrameHandler3@@@@YAHPEBU_s_HandlerType@@PEBU_s_CatchableType@@PEBU_s_ThrowInfo@@@Z 0000000180012b78 f i libvcruntime:frame.obj
 0001:00011cb8       ??$TypeMatchHelper@V__FrameHandler4@@@@YAHPEAUHandlerType4@FH4@@PEBU_s_CatchableType@@PEBU_s_ThrowInfo@@@Z 0000000180012cb8 f i libvcruntime:frame.obj
 0001:00011dfc       ??$__InternalCxxFrameHandler@V__FrameHandler4@@@@YA?AW4_EXCEPTION_DISPOSITION@@PEAUEHExceptionRecord@@PEA_KPEAU_CONTEXT@@PEAU_xDISPATCHER_CONTEXT@@PEAUFuncInfo4@FH4@@H1E@Z 0000000180012dfc f i libvcruntime:frame.obj
 0001:00012090       ??0HandlerMap4@FH4@@QEAA@PEBUTryBlockMapEntry4@1@_KH@Z 0000000180013090 f i libvcruntime:frame.obj
 0001:0001210c       ??0TryBlockMap4@FH4@@QEAA@PEBUFuncInfo4@1@_K@Z 000000018001310c f i libvcruntime:frame.obj
 0001:000121e4       ??0bad_exception@std@@QEAA@AEBV01@@Z 00000001800131e4 f i libvcruntime:frame.obj
 0001:00012220       ??0bad_exception@std@@QEAA@XZ 0000000180013220 f i libvcruntime:frame.obj
 0001:00012240       ?CxxCallCatchBlock@__FrameHandler4@@SAPEAXPEAU_EXCEPTION_RECORD@@@Z 0000000180013240 f   libvcruntime:frame.obj
 0001:00012490       ?DecompHandler@HandlerMap4@FH4@@AEAAXXZ 0000000180013490 f i libvcruntime:frame.obj
 0001:000126d0       ?FrameUnwindToState@__FrameHandler4@@SAXPEA_KPEAU_xDISPATCHER_CONTEXT@@PEAUFuncInfo4@FH4@@H@Z 00000001800136d0 f   libvcruntime:frame.obj
 0001:00012b2c       ?ReadEntry@UWMap4@FH4@@AEAAXPEAPEAE@Z 0000000180013b2c f i libvcruntime:frame.obj
 0001:00012bcc       ?_CallMemberFunction1@@YAXQEAX00@Z 0000000180013bcc f i libvcruntime:frame.obj
 0001:00012bd8       ?_CallMemberFunction2@@YAXQEAX00H@Z 0000000180013bd8 f i libvcruntime:frame.obj
 0001:00012be8       ?getStartStop@UWMap4@FH4@@QEAAXHHAEAViterator@12@0@Z 0000000180013be8 f i libvcruntime:frame.obj
 0001:00012cb8       ?getStateFromIterators@UWMap4@FH4@@SAHAEBViterator@12@H0H0@Z 0000000180013cb8 f i libvcruntime:frame.obj
 0001:00012ecc       __vcrt_FlsAlloc            0000000180013ecc f   libvcruntime:winapi_downlevel.obj
 0001:00012f14       __vcrt_FlsFree             0000000180013f14 f   libvcruntime:winapi_downlevel.obj
 0001:00012f5c       __vcrt_FlsGetValue         0000000180013f5c f   libvcruntime:winapi_downlevel.obj
 0001:00012fa4       __vcrt_FlsSetValue         0000000180013fa4 f   libvcruntime:winapi_downlevel.obj
 0001:00012ff8       __vcrt_InitializeCriticalSectionEx 0000000180013ff8 f   libvcruntime:winapi_downlevel.obj
 0001:00013070       _CallSettingFrame          0000000180014070 f   libvcruntime:handlers.obj
 0001:000130c0       _CallSettingFrame_LookupContinuationIndex 00000001800140c0 f   libvcruntime:handlers.obj
 0001:000130f0       _CallSettingFrame_NotifyContinuationAddr 00000001800140f0 f   libvcruntime:handlers.obj
 0001:00013120       _CallSettingFrameEncoded   0000000180014120 f   libvcruntime:handlers.obj
 0001:00013168       free                       0000000180014168 f   libucrt:free.obj
 0001:0001317c       __acrt_call_reportfault    000000018001417c f   libucrt:invalid_parameter.obj
 0001:000132d8       __acrt_initialize_invalid_parameter_handler 00000001800142d8 f   libucrt:invalid_parameter.obj
 0001:000132e0       _invalid_parameter         00000001800142e0 f   libucrt:invalid_parameter.obj
 0001:00013390       _invalid_parameter_noinfo  0000000180014390 f   libucrt:invalid_parameter.obj
 0001:000133b0       _invoke_watson             00000001800143b0 f   libucrt:invalid_parameter.obj
 0001:000133f8       __acrt_errno_from_os_error 00000001800143f8 f   libucrt:errno.obj
 0001:00013440       __acrt_errno_map_os_error  0000000180014440 f   libucrt:errno.obj
 0001:00013490       __doserrno                 0000000180014490 f   libucrt:errno.obj
 0001:000134b0       _errno                     00000001800144b0 f   libucrt:errno.obj
 0001:000134d0       calloc                     00000001800144d0 f   libucrt:calloc.obj
 0001:000134d8       malloc                     00000001800144d8 f   libucrt:malloc.obj
 0001:000134e0       _recalloc                  00000001800144e0 f   libucrt:recalloc.obj
 0001:000134e8       _recalloc_base             00000001800144e8 f   libucrt:recalloc.obj
 0001:00013580       _resetstkoflw              0000000180014580 f   libucrt:resetstk.obj
 0001:000136ac       wcscat_s                   00000001800146ac f   libucrt:wcscat_s.obj
 0001:0001372c       wcscpy_s                   000000018001472c f   libucrt:wcscpy_s.obj
 0001:00013794       wcsncpy_s                  0000000180014794 f   libucrt:wcsncpy_s.obj
 0001:00013a4c       ??$ensure_buffer_is_big_enough@D@formatting_buffer@__crt_stdio_output@@QEAA_N_K@Z 0000000180014a4c f i libucrt:output.obj
 0001:00013af4       ??$ensure_buffer_is_big_enough@_W@formatting_buffer@__crt_stdio_output@@QEAA_N_K@Z 0000000180014af4 f i libucrt:output.obj
 0001:00013ba0       ??$is_wide_character_specifier@_W@__crt_stdio_output@@YA_N_K_WW4length_modifier@0@@Z 0000000180014ba0 f i libucrt:output.obj
 0001:00013be0       ??$type_case_integer_parse_into_buffer@I@?$output_processor@_WV?$string_output_adapter@_W@__crt_stdio_output@@V?$format_validation_base@_WV?$string_output_adapter@_W@__crt_stdio_output@@@2@@__crt_stdio_output@@AEAAXII_N@Z 0000000180014be0 f i libucrt:output.obj
 0001:00013c84       ??$type_case_integer_parse_into_buffer@_K@?$output_processor@_WV?$string_output_adapter@_W@__crt_stdio_output@@V?$format_validation_base@_WV?$string_output_adapter@_W@__crt_stdio_output@@@2@@__crt_stdio_output@@AEAAX_KI_N@Z 0000000180014c84 f i libucrt:output.obj
 0001:00013d28       ??$write_multiple_characters@V?$string_output_adapter@_W@__crt_stdio_output@@D@__crt_stdio_output@@YAXAEBV?$string_output_adapter@_W@0@DHQEAH@Z 0000000180014d28 f i libucrt:output.obj
 0001:00013da0       ??0_LocaleUpdate@@QEAA@QEAU__crt_locale_pointers@@@Z 0000000180014da0 f i libucrt:output.obj
 0001:00013e40       ?crop_zeroes@__crt_stdio_output@@YAXPEADQEAU__crt_locale_pointers@@@Z 0000000180014e40 f i libucrt:output.obj
 0001:00013ee0       ?force_decimal_point@__crt_stdio_output@@YAXPEADQEAU__crt_locale_pointers@@@Z 0000000180014ee0 f i libucrt:output.obj
 0001:00013f58       ?parse_int_from_format_string@?$output_processor@_WV?$string_output_adapter@_W@__crt_stdio_output@@V?$format_validation_base@_WV?$string_output_adapter@_W@__crt_stdio_output@@@2@@__crt_stdio_output@@AEAA_NQEAH@Z 0000000180014f58 f i libucrt:output.obj
 0001:00013ffc       ?process@?$output_processor@_WV?$string_output_adapter@_W@__crt_stdio_output@@V?$format_validation_base@_WV?$string_output_adapter@_W@__crt_stdio_output@@@2@@__crt_stdio_output@@QEAAHXZ 0000000180014ffc f i libucrt:output.obj
 0001:00014274       ?state_case_size@?$output_processor@_WV?$string_output_adapter@_W@__crt_stdio_output@@V?$format_validation_base@_WV?$string_output_adapter@_W@__crt_stdio_output@@@2@@__crt_stdio_output@@AEAA_NXZ 0000000180015274 f i libucrt:output.obj
 0001:00014408       ?state_case_type@?$output_processor@_WV?$string_output_adapter@_W@__crt_stdio_output@@V?$format_validation_base@_WV?$string_output_adapter@_W@__crt_stdio_output@@@2@@__crt_stdio_output@@AEAA_NXZ 0000000180015408 f i libucrt:output.obj
 0001:000146e0       ?to_integer_size@__crt_stdio_output@@YA_KW4length_modifier@1@@Z 00000001800156e0 f i libucrt:output.obj
 0001:00014748       ?type_case_Z@?$output_processor@_WV?$string_output_adapter@_W@__crt_stdio_output@@V?$format_validation_base@_WV?$string_output_adapter@_W@__crt_stdio_output@@@2@@__crt_stdio_output@@AEAA_NXZ 0000000180015748 f i libucrt:output.obj
 0001:000147c4       ?type_case_a@?$output_processor@_WV?$string_output_adapter@_W@__crt_stdio_output@@V?$format_validation_base@_WV?$string_output_adapter@_W@__crt_stdio_output@@@2@@__crt_stdio_output@@AEAA_NXZ 00000001800157c4 f i libucrt:output.obj
 0001:000149a4       ?type_case_c_tchar@?$output_processor@_WV?$string_output_adapter@_W@__crt_stdio_output@@V?$format_validation_base@_WV?$string_output_adapter@_W@__crt_stdio_output@@@2@@__crt_stdio_output@@AEAA_N_W@Z 00000001800159a4 f i libucrt:output.obj
 0001:00014a4c       ?type_case_integer@?$output_processor@_WV?$string_output_adapter@_W@__crt_stdio_output@@V?$format_validation_base@_WV?$string_output_adapter@_W@__crt_stdio_output@@@2@@__crt_stdio_output@@AEAA_NI_N@Z 0000000180015a4c f i libucrt:output.obj
 0001:00014bd4       ?type_case_n@?$output_processor@_WV?$string_output_adapter@_W@__crt_stdio_output@@V?$format_validation_base@_WV?$string_output_adapter@_W@__crt_stdio_output@@@2@@__crt_stdio_output@@AEAA_NXZ 0000000180015bd4 f i libucrt:output.obj
 0001:00014c5c       ?type_case_s@?$output_processor@_WV?$string_output_adapter@_W@__crt_stdio_output@@V?$format_validation_base@_WV?$string_output_adapter@_W@__crt_stdio_output@@@2@@__crt_stdio_output@@AEAA_NXZ 0000000180015c5c f i libucrt:output.obj
 0001:00014d24       ?write_stored_string_tchar@?$output_processor@_WV?$string_output_adapter@_W@__crt_stdio_output@@V?$format_validation_base@_WV?$string_output_adapter@_W@__crt_stdio_output@@@2@@__crt_stdio_output@@AEAA_N_W@Z 0000000180015d24 f i libucrt:output.obj
 0001:00014e0c       ?write_string@?$string_output_adapter@_W@__crt_stdio_output@@QEBAXQEB_WHQEAHAEAV__crt_deferred_errno_cache@@@Z 0000000180015e0c f i libucrt:output.obj
 0001:00014eb4       __stdio_common_vswprintf_s 0000000180015eb4 f   libucrt:output.obj
 0001:00014f24       _seh_filter_dll            0000000180015f24 f   libucrt:exception_filter.obj
 0001:00014f38       _seh_filter_exe            0000000180015f38 f   libucrt:exception_filter.obj
 0001:00015328       __acrt_initialize_thread_local_exit_callback 0000000180016328 f   libucrt:exit.obj
 0001:00015330       _cexit                     0000000180016330 f   libucrt:exit.obj
 0001:00015340       _exit                      0000000180016340 f   libucrt:exit.obj
 0001:0001534c       _is_c_termination_complete 000000018001634c f   libucrt:exit.obj
 0001:00015514       __acrt_allocate_buffer_for_argv 0000000180016514 f   libucrt:argv_parsing.obj
 0001:00015574       _configure_narrow_argv     0000000180016574 f   libucrt:argv_parsing.obj
 0001:000158ec       __dcrt_uninitialize_environments_nolock 00000001800168ec f   libucrt:environment_initialization.obj
 0001:00015924       _initialize_narrow_environment 0000000180016924 f   libucrt:environment_initialization.obj
 0001:00015c6c       _crt_atexit                0000000180016c6c f   libucrt:onexit.obj
 0001:00015c7c       _execute_onexit_table      0000000180016c7c f   libucrt:onexit.obj
 0001:00015cb8       _initialize_onexit_table   0000000180016cb8 f   libucrt:onexit.obj
 0001:00015ce0       _register_onexit_function  0000000180016ce0 f   libucrt:onexit.obj
 0001:00015d60       __acrt_uninitialize_command_line 0000000180016d60 f   libucrt:argv_data.obj
 0001:00015e58       __acrt_initialize          0000000180016e58 f   libucrt:initialization.obj
 0001:00015e6c       __acrt_thread_attach       0000000180016e6c f   libucrt:initialization.obj
 0001:00015e80       __acrt_thread_detach       0000000180016e80 f   libucrt:initialization.obj
 0001:00015e90       __acrt_uninitialize        0000000180016e90 f   libucrt:initialization.obj
 0001:00015ec8       __acrt_uninitialize_critical 0000000180016ec8 f   libucrt:initialization.obj
 0001:00015ed8       _initterm                  0000000180016ed8 f   libucrt:initterm.obj
 0001:00015f3c       _initterm_e                0000000180016f3c f   libucrt:initterm.obj
 0001:00015f7c       __acrt_initialize_new_handler 0000000180016f7c f   libucrt:new_handler.obj
 0001:00015f84       _callnewh                  0000000180016f84 f   libucrt:new_handler.obj
 0001:00015fb4       _query_new_handler         0000000180016fb4 f   libucrt:new_handler.obj
 0001:00015fe8       terminate                  0000000180016fe8 f   libucrt:terminate.obj
 0001:00016008       abort                      0000000180017008 f   libucrt:abort.obj
 0001:00016060       strcpy_s                   0000000180017060 f   libucrt:strcpy_s.obj
 0001:000160c0       ??$parse_integer@KV?$c_string_character_source@_W@__crt_strtox@@@__crt_strtox@@YAKQEAU__crt_locale_pointers@@V?$c_string_character_source@_W@0@H_N@Z 00000001800170c0 f i libucrt:atox.obj
 0001:00016780       strncmp                    0000000180017780 f   libucrt:strncmp.obj
 0001:00016800       wcsncmp                    0000000180017800 f   libucrt:wcsncmp.obj
 0001:0001682c       _free_base                 000000018001782c f   libucrt:free_base.obj
 0001:00016be4       __acrt_freeptd             0000000180017be4 f   libucrt:per_thread_data.obj
 0001:00016c28       __acrt_getptd              0000000180017c28 f   libucrt:per_thread_data.obj
 0001:00016cfc       __acrt_getptd_head         0000000180017cfc f   libucrt:per_thread_data.obj
 0001:00016da4       __acrt_getptd_noexit       0000000180017da4 f   libucrt:per_thread_data.obj
 0001:00016e70       __acrt_initialize_ptd      0000000180017e70 f   libucrt:per_thread_data.obj
 0001:00016eac       __acrt_uninitialize_ptd    0000000180017eac f   libucrt:per_thread_data.obj
 0001:00016ed0       _calloc_base               0000000180017ed0 f   libucrt:calloc_base.obj
 0001:00016f48       _malloc_base               0000000180017f48 f   libucrt:malloc_base.obj
 0001:00016fa8       _msize_base                0000000180017fa8 f   libucrt:msize.obj
 0001:00016fe4       _realloc_base              0000000180017fe4 f   libucrt:realloc_base.obj
 0001:00017238       __acrt_AppPolicyGetProcessTerminationMethodInternal 0000000180018238 f   libucrt:winapi_thunks.obj
 0001:00017288       __acrt_AreFileApisANSI     0000000180018288 f   libucrt:winapi_thunks.obj
 0001:000172c4       __acrt_FlsAlloc            00000001800182c4 f   libucrt:winapi_thunks.obj
 0001:0001730c       __acrt_FlsFree             000000018001830c f   libucrt:winapi_thunks.obj
 0001:00017354       __acrt_FlsGetValue         0000000180018354 f   libucrt:winapi_thunks.obj
 0001:0001739c       __acrt_FlsSetValue         000000018001839c f   libucrt:winapi_thunks.obj
 0001:000173f0       __acrt_InitializeCriticalSectionEx 00000001800183f0 f   libucrt:winapi_thunks.obj
 0001:00017454       __acrt_LCMapStringEx       0000000180018454 f   libucrt:winapi_thunks.obj
 0001:00017530       __acrt_LocaleNameToLCID    0000000180018530 f   libucrt:winapi_thunks.obj
 0001:00017580       __acrt_SetThreadStackGuarantee 0000000180018580 f   libucrt:winapi_thunks.obj
 0001:000175c4       __acrt_initialize_winapi_thunks 00000001800185c4 f   libucrt:winapi_thunks.obj
 0001:000175f8       __acrt_uninitialize_winapi_thunks 00000001800185f8 f   libucrt:winapi_thunks.obj
 0001:0001763c       wcstol                     000000018001863c f   libucrt:strtox.obj
 0001:00017668       _mbtowc_l                  0000000180018668 f   libucrt:mbtowc.obj
 0001:000177e8       mbtowc                     00000001800187e8 f   libucrt:mbtowc.obj
 0001:000177f0       wcsnlen                    00000001800187f0 f   libucrt:strnlen.obj
 0001:000179c8       __acrt_update_locale_info  00000001800189c8 f   libucrt:locale_update.obj
 0001:000179fc       __acrt_update_multibyte_info 00000001800189fc f   libucrt:locale_update.obj
 0001:00018434       __acrt_fp_format           0000000180019434 f   libucrt:cvt.obj
 0001:0001876c       _fileno                    000000018001976c f   libucrt:fileno.obj
 0001:00018794       __acrt_initialize_stdio    0000000180019794 f   libucrt:_file.obj
 0001:000188b4       __acrt_uninitialize_stdio  00000001800198b4 f   libucrt:_file.obj
 0001:00018910       _lock_file                 0000000180019910 f   libucrt:_file.obj
 0001:0001891c       _unlock_file               000000018001991c f   libucrt:_file.obj
 0001:00018928       _get_printf_count_output   0000000180019928 f   libucrt:printf_count_output.obj
 0001:000189b0       __acrt_set_locale_changed  00000001800199b0 f   libucrt:wsetlocale.obj
 0001:000189bc       __acrt_uninitialize_locale 00000001800199bc f   libucrt:wsetlocale.obj
 0001:00018be8       __acrt_initialize_lowio    0000000180019be8 f   libucrt:ioinit.obj
 0001:00018c24       __acrt_uninitialize_lowio  0000000180019c24 f   libucrt:ioinit.obj
 0001:00018c64       __acrt_initialize_locks    0000000180019c64 f   libucrt:locks.obj
 0001:00018cac       __acrt_lock                0000000180019cac f   libucrt:locks.obj
 0001:00018cc8       __acrt_uninitialize_locks  0000000180019cc8 f   libucrt:locks.obj
 0001:00018d00       __acrt_unlock              0000000180019d00 f   libucrt:locks.obj
 0001:00018d1c       __acrt_get_process_end_policy 0000000180019d1c f   libucrt:win_policies.obj
 0001:00018d6c       ??$__acrt_mbs_to_wcs_cp@U__crt_win32_buffer_internal_dynamic_resizing@@@@YAHQEBDAEAV?$__crt_win32_buffer@_WU__crt_win32_buffer_internal_dynamic_resizing@@@@I@Z 0000000180019d6c f i libucrt:argv_wildcards.obj
 0001:00018ee4       ??$__acrt_wcs_to_mbs_cp@U__crt_win32_buffer_internal_dynamic_resizing@@@@YAHQEB_WAEAV?$__crt_win32_buffer@DU__crt_win32_buffer_internal_dynamic_resizing@@@@I@Z 0000000180019ee4 f i libucrt:argv_wildcards.obj
 0001:00019714       __acrt_expand_narrow_argv_wildcards 000000018001a714 f   libucrt:argv_wildcards.obj
 0001:0001971c       ??$__acrt_wcs_to_mbs_cp@U__crt_win32_buffer_no_resizing@@@@YAHQEB_WAEAV?$__crt_win32_buffer@DU__crt_win32_buffer_no_resizing@@@@I@Z 000000018001a71c f i libucrt:getmodulefilenamea.obj
 0001:00019830       __acrt_GetModuleFileNameA  000000018001a830 f   libucrt:getmodulefilenamea.obj
 0001:0001a078       __acrt_initialize_multibyte 000000018001b078 f   libucrt:mbctype.obj
 0001:0001a0d8       __acrt_update_thread_multibyte_data 000000018001b0d8 f   libucrt:mbctype.obj
 0001:0001a0f4       _setmbcp_nolock            000000018001b0f4 f   libucrt:mbctype.obj
 0001:0001a428       _ismbblead                 000000018001b428 f   libucrt:ismbbyte.obj
 0001:0001a43c       __acrt_initialize_command_line 000000018001b43c f   libucrt:argv_data.obj
 0001:0001a464       __acrt_MultiByteToWideChar 000000018001b464 f   libucrt:multibytetowidechar.obj
 0001:0001a4c0       __acrt_WideCharToMultiByte 000000018001b4c0 f   libucrt:widechartomultibyte.obj
 0001:0001a570       __dcrt_get_narrow_environment_from_os 000000018001b570 f   libucrt:get_environment_from_os.obj
 0001:0001a674       __acrt_initialize_heap     000000018001b674 f   libucrt:heap_handle.obj
 0001:0001a690       __acrt_uninitialize_heap   000000018001b690 f   libucrt:heap_handle.obj
 0001:0001a69c       __acrt_execute_initializers 000000018001b69c f   libucrt:shared_initialization.obj
 0001:0001a71c       __acrt_execute_uninitializers 000000018001b71c f   libucrt:shared_initialization.obj
 0001:0001a7a0       __acrt_get_sigabrt_handler 000000018001b7a0 f   libucrt:signal.obj
 0001:0001a7d0       __acrt_initialize_signal_handlers 000000018001b7d0 f   libucrt:signal.obj
 0001:0001a7f0       raise                      000000018001b7f0 f   libucrt:signal.obj
 0001:0001aa5c       __acrt_has_user_matherr    000000018001ba5c f   libucrt:matherr.obj
 0001:0001aa7c       __acrt_initialize_user_matherr 000000018001ba7c f   libucrt:matherr.obj
 0001:0001aa84       __acrt_invoke_user_matherr 000000018001ba84 f   libucrt:matherr.obj
 0001:0001ac90       __acrt_stdio_flush_nolock  000000018001bc90 f   libucrt:fflush.obj
 0001:0001ad0c       _fflush_nolock             000000018001bd0c f   libucrt:fflush.obj
 0001:0001ad58       _flushall                  000000018001bd58 f   libucrt:fflush.obj
 0001:0001ad60       __pctype_func              000000018001bd60 f   libucrt:ctype.obj
 0001:0001ad90       iswctype                   000000018001bd90 f   libucrt:iswctype.obj
 0001:0001adfc       __acrt_add_locale_ref      000000018001bdfc f   libucrt:locale_refcounting.obj
 0001:0001ae88       __acrt_free_locale         000000018001be88 f   libucrt:locale_refcounting.obj
 0001:0001b000       __acrt_locale_add_lc_time_reference 000000018001c000 f   libucrt:locale_refcounting.obj
 0001:0001b028       __acrt_locale_free_lc_time_if_unreferenced 000000018001c028 f   libucrt:locale_refcounting.obj
 0001:0001b060       __acrt_locale_release_lc_time_reference 000000018001c060 f   libucrt:locale_refcounting.obj
 0001:0001b088       __acrt_release_locale_ref  000000018001c088 f   libucrt:locale_refcounting.obj
 0001:0001b130       __acrt_update_thread_locale_data 000000018001c130 f   libucrt:locale_refcounting.obj
 0001:0001b1a0       _updatetlocinfoEx_nolock   000000018001c1a0 f   libucrt:locale_refcounting.obj
 0001:0001b208       _query_new_mode            000000018001c208 f   libucrt:new_mode.obj
 0001:0001b210       __acrt_DownlevelLocaleNameToLCID 000000018001c210 f   libucrt:lcidtoname_downlevel.obj
 0001:0001b2c0       _isleadbyte_l              000000018001c2c0 f i libucrt:_wctype.obj
 0001:0001b30c       ?__mbrtowc_utf8@__crt_mbstring@@YA_KPEA_WPEBD_KPEAU_Mbstatet@@@Z 000000018001c30c f   libucrt:mbrtowc.obj
 0001:0001b348       ?__mbsrtowcs_utf8@__crt_mbstring@@YA_KPEA_WPEAPEBD_KPEAU_Mbstatet@@@Z 000000018001c348 f   libucrt:mbrtowc.obj
 0001:0001b4c0       __acrt_fp_strflt_to_string 000000018001c4c0 f   libucrt:_fptostr.obj
 0001:0001b610       ?divide@__crt_strtox@@YA_KAEAUbig_integer@1@AEBU21@@Z 000000018001c610 f i libucrt:cfout.obj
 0001:0001ba3c       __acrt_fltout              000000018001ca3c f   libucrt:cfout.obj
 0001:0001cd08       fegetround                 000000018001dd08 f   libucrt:fegetround.obj
 0001:0001cd1c       _fcloseall                 000000018001dd1c f   libucrt:closeall.obj
 0001:0001cdd0       __acrt_stdio_free_buffer_nolock 000000018001ddd0 f   libucrt:_freebuf.obj
 0001:0001ce10       _isatty                    000000018001de10 f   libucrt:isatty.obj
 0001:0001ce70       __acrt_locale_free_monetary 000000018001de70 f   libucrt:initmon.obj
 0001:0001cf7c       __acrt_locale_free_numeric 000000018001df7c f   libucrt:initnum.obj
 0001:0001d040       __acrt_locale_free_time    000000018001e040 f   libucrt:inittime.obj
 0001:0001d148       __acrt_GetStringTypeA      000000018001e148 f   libucrt:getstringtypea.obj
 0001:0001d2d8       __acrt_lowio_create_handle_array 000000018001e2d8 f   libucrt:osfinfo.obj
 0001:0001d380       __acrt_lowio_destroy_handle_array 000000018001e380 f   libucrt:osfinfo.obj
 0001:0001d3d0       __acrt_lowio_ensure_fh_exists 000000018001e3d0 f   libucrt:osfinfo.obj
 0001:0001d478       __acrt_lowio_lock_fh       000000018001e478 f   libucrt:osfinfo.obj
 0001:0001d4a0       __acrt_lowio_unlock_fh     000000018001e4a0 f   libucrt:osfinfo.obj
 0001:0001d4c8       _free_osfhnd               000000018001e4c8 f   libucrt:osfinfo.obj
 0001:0001d584       _get_osfhandle             000000018001e584 f   libucrt:osfinfo.obj
 0001:0001d600       qsort                      000000018001e600 f   libucrt:qsort.obj
 0001:0001d9a0       strncpy_s                  000000018001e9a0 f   libucrt:strncpy_s.obj
 0001:0001db20       strpbrk                    000000018001eb20 f   libucrt:strpbrk.obj
 0001:0001dee8       _mbsdec                    000000018001eee8 f   libucrt:mbsdec.obj
 0001:0001def0       _mbsdec_l                  000000018001eef0 f   libucrt:mbsdec.obj
 0001:0001e29c       __acrt_LCMapStringA        000000018001f29c f   libucrt:lcmapstringa.obj
 0001:0001e3d8       _commit                    000000018001f3d8 f   libucrt:commit.obj
 0001:0001ece8       _write                     000000018001fce8 f   libucrt:write.obj
 0001:0001edd4       _write_nolock              000000018001fdd4 f   libucrt:write.obj
 0001:0001f0b8       __acrt_GetStringTypeW      00000001800200b8 f   libucrt:getstringtypew.obj
 0001:0001f0c0       __ascii_wcsnicmp           00000001800200c0 f   libucrt:wcsnicmp.obj
 0001:0001f10c       ?__mbrtoc32_utf8@__crt_mbstring@@YA_KPEA_UPEBD_KPEAU_Mbstatet@@@Z 000000018002010c f   libucrt:mbrtoc32.obj
 0001:0001f2e4       _controlfp_s               00000001800202e4 f   libucrt:contrlfp.obj
 0001:0001f348       fegetenv                   0000000180020348 f   libucrt:fegetenv.obj
 0001:0001f368       fesetenv                   0000000180020368 f   libucrt:fesetenv.obj
 0001:0001f3b4       feholdexcept               00000001800203b4 f   libucrt:feholdexcept.obj
 0001:0001f404       ceil                       0000000180020404 f   libucrt:ceil.obj
 0001:0001f4d0       log10                      00000001800204d0 f   libucrt:log10.obj
 0001:0001fa7c       __acrt_fenv_get_common_round_control 0000000180020a7c f   libucrt:_fenvutils.obj
 0001:0001fa88       __acrt_fenv_get_control    0000000180020a88 f   libucrt:_fenvutils.obj
 0001:0001fb7c       __acrt_fenv_get_status     0000000180020b7c f   libucrt:_fenvutils.obj
 0001:0001fbd0       __acrt_fenv_set_control    0000000180020bd0 f   libucrt:_fenvutils.obj
 0001:0001fd18       __acrt_fenv_set_status     0000000180020d18 f   libucrt:_fenvutils.obj
 0001:0001fe38       _lseeki64_nolock           0000000180020e38 f   libucrt:lseek.obj
 0001:0001fe40       _fclose_nolock             0000000180020e40 f   libucrt:fclose.obj
 0001:0001fec4       fclose                     0000000180020ec4 f   libucrt:fclose.obj
 0001:0001ff28       _query_app_type            0000000180020f28 f   libucrt:report_runtime_error.obj
 0001:0001ff30       __strncnt                  0000000180020f30 f   libucrt:strncnt.obj
 0001:0001ff48       _putwch_nolock             0000000180020f48 f   libucrt:putwch.obj
 0001:0001ff84       _clearfp                   0000000180020f84 f   libucrt:ieee.obj
 0001:0001fff4       _control87                 0000000180020ff4 f   libucrt:ieee.obj
 0001:000203e0       _handle_error              00000001800213e0 f   libucrt:libm_error.obj
 0001:00020508       _handle_nan                0000000180021508 f   libucrt:libm_error.obj
 0001:00020530       __acrt_initialize_fma3     0000000180021530 f   libucrt:fma3_available.obj
 0001:000205a0       _log10_special             00000001800215a0 f   libucrt:log_special.obj
 0001:000206cc       _close                     00000001800216cc f   libucrt:close.obj
 0001:00020770       _close_nolock              0000000180021770 f   libucrt:close.obj
 0001:00020830       ?__acrt_stdio_free_stream@@YAXV__crt_stdio_stream@@@Z 0000000180021830 f   libucrt:stream.obj
 0001:0002084c       __dcrt_lowio_ensure_console_output_initialized 000000018002184c f   libucrt:initcon.obj
 0001:000208a0       __dcrt_terminate_console_output 00000001800218a0 f   libucrt:initcon.obj
 0001:000208bc       __dcrt_write_console       00000001800218bc f   libucrt:initcon.obj
 0001:00020990       _get_fpsr                  0000000180021990 f   libucrt:fpsr.obj
 0001:000209a0       _set_fpsr                  00000001800219a0 f   libucrt:fpsr.obj
 0001:000209aa       _fclrf                     00000001800219aa f   libucrt:fpsr.obj
 0001:000209be       _frnd                      00000001800219be f   libucrt:fpsr.obj
 0001:000209e0       _raise_exc                 00000001800219e0 f   libucrt:fpexcept.obj
 0001:00020a08       _raise_exc_ex              0000000180021a08 f   libucrt:fpexcept.obj
 0001:00020d18       _set_errno_from_matherr    0000000180021d18 f   libucrt:fpexcept.obj
 0001:00020d48       _clrfp                     0000000180021d48 f   libucrt:fpctrl.obj
 0001:00020d68       _ctrlfp                    0000000180021d68 f   libucrt:fpctrl.obj
 0001:00020de4       _set_statfp                0000000180021de4 f   libucrt:fpctrl.obj
 0001:00020e04       _statfp                    0000000180021e04 f   libucrt:fpctrl.obj
 0001:00020e15       IsProcessorFeaturePresent  0000000180021e15 f   kernel32:KERNEL32.dll
 0001:00020e20       _FindPESection             0000000180021e20 f   LIBCMT:pesect.obj
 0001:00020e70       _IsNonwritableInCurrentImage 0000000180021e70 f   LIBCMT:pesect.obj
 0001:00020ec0       _ValidateImageBase         0000000180021ec0 f   LIBCMT:pesect.obj
 0001:00020ef0       strrchr                    0000000180021ef0 f   libvcruntime:strrchr.obj
 0001:00021030       _guard_dispatch_icall_nop  0000000180022030 f   LIBCMT:guard_dispatch.obj
 0001:00021050       _guard_xfg_dispatch_icall_nop 0000000180022050 f   LIBCMT:guard_xfg_dispatch.obj
 0002:00000000       __imp_RegQueryValueExW     0000000180023000     advapi32:ADVAPI32.dll
 0002:00000008       __imp_RegSetValueExW       0000000180023008     advapi32:ADVAPI32.dll
 0002:00000010       __imp_RegQueryInfoKeyW     0000000180023010     advapi32:ADVAPI32.dll
 0002:00000018       __imp_RegOpenKeyExW        0000000180023018     advapi32:ADVAPI32.dll
 0002:00000020       __imp_RegEnumKeyExW        0000000180023020     advapi32:ADVAPI32.dll
 0002:00000028       __imp_RegDeleteValueW      0000000180023028     advapi32:ADVAPI32.dll
 0002:00000030       __imp_RegDeleteKeyW        0000000180023030     advapi32:ADVAPI32.dll
 0002:00000038       __imp_RegCreateKeyExW      0000000180023038     advapi32:ADVAPI32.dll
 0002:00000040       __imp_RegCloseKey          0000000180023040     advapi32:ADVAPI32.dll
 0002:00000048       \177ADVAPI32_NULL_THUNK_DATA 0000000180023048     advapi32:ADVAPI32.dll
 0002:00000050       __imp_GetObjectW           0000000180023050     gdi32:GDI32.dll
 0002:00000058       __imp_SelectObject         0000000180023058     gdi32:GDI32.dll
 0002:00000060       __imp_DeleteObject         0000000180023060     gdi32:GDI32.dll
 0002:00000068       __imp_CreateCompatibleDC   0000000180023068     gdi32:GDI32.dll
 0002:00000070       __imp_BitBlt               0000000180023070     gdi32:GDI32.dll
 0002:00000078       __imp_SetWindowOrgEx       0000000180023078     gdi32:GDI32.dll
 0002:00000080       __imp_SetWindowExtEx       0000000180023080     gdi32:GDI32.dll
 0002:00000088       __imp_SetViewportOrgEx     0000000180023088     gdi32:GDI32.dll
 0002:00000090       __imp_LPtoDP               0000000180023090     gdi32:GDI32.dll
 0002:00000098       __imp_SetMapMode           0000000180023098     gdi32:GDI32.dll
 0002:000000a0       __imp_SaveDC               00000001800230a0     gdi32:GDI32.dll
 0002:000000a8       __imp_RestoreDC            00000001800230a8     gdi32:GDI32.dll
 0002:000000b0       __imp_GetDeviceCaps        00000001800230b0     gdi32:GDI32.dll
 0002:000000b8       __imp_DeleteMetaFile       00000001800230b8     gdi32:GDI32.dll
 0002:000000c0       __imp_DeleteDC             00000001800230c0     gdi32:GDI32.dll
 0002:000000c8       __imp_CreateRectRgnIndirect 00000001800230c8     gdi32:GDI32.dll
 0002:000000d0       __imp_CreateMetaFileW      00000001800230d0     gdi32:GDI32.dll
 0002:000000d8       __imp_CreateDCW            00000001800230d8     gdi32:GDI32.dll
 0002:000000e0       __imp_CloseMetaFile        00000001800230e0     gdi32:GDI32.dll
 0002:000000e8       \177GDI32_NULL_THUNK_DATA  00000001800230e8     gdi32:GDI32.dll
 0002:000000f0       __imp_CloseHandle          00000001800230f0     kernel32:KERNEL32.dll
 0002:000000f8       __imp_SetEvent             00000001800230f8     kernel32:KERNEL32.dll
 0002:00000100       __imp_CreateMutexW         0000000180023100     kernel32:KERNEL32.dll
 0002:00000108       __imp_CreateEventW         0000000180023108     kernel32:KERNEL32.dll
 0002:00000110       __imp_GetCurrentProcessId  0000000180023110     kernel32:KERNEL32.dll
 0002:00000118       __imp_WriteConsoleW        0000000180023118     kernel32:KERNEL32.dll
 0002:00000120       __imp_CreateFileW          0000000180023120     kernel32:KERNEL32.dll
 0002:00000128       __imp_GetConsoleMode       0000000180023128     kernel32:KERNEL32.dll
 0002:00000130       __imp_GetConsoleOutputCP   0000000180023130     kernel32:KERNEL32.dll
 0002:00000138       __imp_WriteFile            0000000180023138     kernel32:KERNEL32.dll
 0002:00000140       __imp_FlushFileBuffers     0000000180023140     kernel32:KERNEL32.dll
 0002:00000148       __imp_SetStdHandle         0000000180023148     kernel32:KERNEL32.dll
 0002:00000150       __imp_GetStringTypeW       0000000180023150     kernel32:KERNEL32.dll
 0002:00000158       __imp_SetFilePointerEx     0000000180023158     kernel32:KERNEL32.dll
 0002:00000160       __imp_FreeEnvironmentStringsW 0000000180023160     kernel32:KERNEL32.dll
 0002:00000168       __imp_lstrcmpiW            0000000180023168     kernel32:KERNEL32.dll
 0002:00000170       __imp_GetCommandLineW      0000000180023170     kernel32:KERNEL32.dll
 0002:00000178       __imp_GetCommandLineA      0000000180023178     kernel32:KERNEL32.dll
 0002:00000180       __imp_GetCPInfo            0000000180023180     kernel32:KERNEL32.dll
 0002:00000188       __imp_GetOEMCP             0000000180023188     kernel32:KERNEL32.dll
 0002:00000190       __imp_GetACP               0000000180023190     kernel32:KERNEL32.dll
 0002:00000198       __imp_IsValidCodePage      0000000180023198     kernel32:KERNEL32.dll
 0002:000001a0       __imp_FindNextFileW        00000001800231a0     kernel32:KERNEL32.dll
 0002:000001a8       __imp_FindFirstFileExW     00000001800231a8     kernel32:KERNEL32.dll
 0002:000001b0       __imp_FindClose            00000001800231b0     kernel32:KERNEL32.dll
 0002:000001b8       __imp_GetFileType          00000001800231b8     kernel32:KERNEL32.dll
 0002:000001c0       __imp_GetStdHandle         00000001800231c0     kernel32:KERNEL32.dll
 0002:000001c8       __imp_LCMapStringW         00000001800231c8     kernel32:KERNEL32.dll
 0002:000001d0       __imp_HeapReAlloc          00000001800231d0     kernel32:KERNEL32.dll
 0002:000001d8       __imp_HeapSize             00000001800231d8     kernel32:KERNEL32.dll
 0002:000001e0       __imp_MulDiv               00000001800231e0     kernel32:KERNEL32.dll
 0002:000001e8       __imp_GlobalLock           00000001800231e8     kernel32:KERNEL32.dll
 0002:000001f0       __imp_GlobalUnlock         00000001800231f0     kernel32:KERNEL32.dll
 0002:000001f8       __imp_GlobalAlloc          00000001800231f8     kernel32:KERNEL32.dll
 0002:00000200       __imp_FindResourceW        0000000180023200     kernel32:KERNEL32.dll
 0002:00000208       __imp_SizeofResource       0000000180023208     kernel32:KERNEL32.dll
 0002:00000210       __imp_LoadResource         0000000180023210     kernel32:KERNEL32.dll
 0002:00000218       __imp_LoadLibraryExW       0000000180023218     kernel32:KERNEL32.dll
 0002:00000220       __imp_GetProcAddress       0000000180023220     kernel32:KERNEL32.dll
 0002:00000228       __imp_GetModuleHandleW     0000000180023228     kernel32:KERNEL32.dll
 0002:00000230       __imp_GetModuleFileNameW   0000000180023230     kernel32:KERNEL32.dll
 0002:00000238       __imp_FreeLibrary          0000000180023238     kernel32:KERNEL32.dll
 0002:00000240       __imp_DisableThreadLibraryCalls 0000000180023240     kernel32:KERNEL32.dll
 0002:00000248       __imp_GetCurrentThreadId   0000000180023248     kernel32:KERNEL32.dll
 0002:00000250       __imp_Sleep                0000000180023250     kernel32:KERNEL32.dll
 0002:00000258       __imp_WaitForSingleObject  0000000180023258     kernel32:KERNEL32.dll
 0002:00000260       __imp_ReleaseMutex         0000000180023260     kernel32:KERNEL32.dll
 0002:00000268       __imp_ResetEvent           0000000180023268     kernel32:KERNEL32.dll
 0002:00000270       __imp_EnterCriticalSection 0000000180023270     kernel32:KERNEL32.dll
 0002:00000278       __imp_LeaveCriticalSection 0000000180023278     kernel32:KERNEL32.dll
 0002:00000280       __imp_SetLastError         0000000180023280     kernel32:KERNEL32.dll
 0002:00000288       __imp_EncodePointer        0000000180023288     kernel32:KERNEL32.dll
 0002:00000290       __imp_DeleteCriticalSection 0000000180023290     kernel32:KERNEL32.dll
 0002:00000298       __imp_InitializeCriticalSectionEx 0000000180023298     kernel32:KERNEL32.dll
 0002:000002a0       __imp_GetLastError         00000001800232a0     kernel32:KERNEL32.dll
 0002:000002a8       __imp_RaiseException       00000001800232a8     kernel32:KERNEL32.dll
 0002:000002b0       __imp_DecodePointer        00000001800232b0     kernel32:KERNEL32.dll
 0002:000002b8       __imp_WideCharToMultiByte  00000001800232b8     kernel32:KERNEL32.dll
 0002:000002c0       __imp_GetEnvironmentStringsW 00000001800232c0     kernel32:KERNEL32.dll
 0002:000002c8       __imp_MultiByteToWideChar  00000001800232c8     kernel32:KERNEL32.dll
 0002:000002d0       __imp_GetModuleHandleExW   00000001800232d0     kernel32:KERNEL32.dll
 0002:000002d8       __imp_ExitProcess          00000001800232d8     kernel32:KERNEL32.dll
 0002:000002e0       __imp_VirtualQuery         00000001800232e0     kernel32:KERNEL32.dll
 0002:000002e8       __imp_VirtualProtect       00000001800232e8     kernel32:KERNEL32.dll
 0002:000002f0       __imp_GetSystemInfo        00000001800232f0     kernel32:KERNEL32.dll
 0002:000002f8       __imp_TlsFree              00000001800232f8     kernel32:KERNEL32.dll
 0002:00000300       __imp_TlsSetValue          0000000180023300     kernel32:KERNEL32.dll
 0002:00000308       __imp_TlsGetValue          0000000180023308     kernel32:KERNEL32.dll
 0002:00000310       __imp_TlsAlloc             0000000180023310     kernel32:KERNEL32.dll
 0002:00000318       __imp_RtlPcToFileHeader    0000000180023318     kernel32:KERNEL32.dll
 0002:00000320       __imp_InterlockedFlushSList 0000000180023320     kernel32:KERNEL32.dll
 0002:00000328       __imp_RtlUnwindEx          0000000180023328     kernel32:KERNEL32.dll
 0002:00000330       __imp_LoadLibraryExA       0000000180023330     kernel32:KERNEL32.dll
 0002:00000338       __imp_VirtualFree          0000000180023338     kernel32:KERNEL32.dll
 0002:00000340       __imp_VirtualAlloc         0000000180023340     kernel32:KERNEL32.dll
 0002:00000348       __imp_FlushInstructionCache 0000000180023348     kernel32:KERNEL32.dll
 0002:00000350       __imp_InterlockedPushEntrySList 0000000180023350     kernel32:KERNEL32.dll
 0002:00000358       __imp_InterlockedPopEntrySList 0000000180023358     kernel32:KERNEL32.dll
 0002:00000360       __imp_GetProcessHeap       0000000180023360     kernel32:KERNEL32.dll
 0002:00000368       __imp_HeapFree             0000000180023368     kernel32:KERNEL32.dll
 0002:00000370       __imp_HeapAlloc            0000000180023370     kernel32:KERNEL32.dll
 0002:00000378       __imp_OutputDebugStringW   0000000180023378     kernel32:KERNEL32.dll
 0002:00000380       __imp_InitializeSListHead  0000000180023380     kernel32:KERNEL32.dll
 0002:00000388       __imp_GetSystemTimeAsFileTime 0000000180023388     kernel32:KERNEL32.dll
 0002:00000390       __imp_QueryPerformanceCounter 0000000180023390     kernel32:KERNEL32.dll
 0002:00000398       __imp_GetStartupInfoW      0000000180023398     kernel32:KERNEL32.dll
 0002:000003a0       __imp_IsDebuggerPresent    00000001800233a0     kernel32:KERNEL32.dll
 0002:000003a8       __imp_IsProcessorFeaturePresent 00000001800233a8     kernel32:KERNEL32.dll
 0002:000003b0       __imp_TerminateProcess     00000001800233b0     kernel32:KERNEL32.dll
 0002:000003b8       __imp_GetCurrentProcess    00000001800233b8     kernel32:KERNEL32.dll
 0002:000003c0       __imp_InitializeCriticalSectionAndSpinCount 00000001800233c0     kernel32:KERNEL32.dll
 0002:000003c8       __imp_WaitForSingleObjectEx 00000001800233c8     kernel32:KERNEL32.dll
 0002:000003d0       __imp_RtlCaptureContext    00000001800233d0     kernel32:KERNEL32.dll
 0002:000003d8       __imp_RtlLookupFunctionEntry 00000001800233d8     kernel32:KERNEL32.dll
 0002:000003e0       __imp_RtlVirtualUnwind     00000001800233e0     kernel32:KERNEL32.dll
 0002:000003e8       __imp_UnhandledExceptionFilter 00000001800233e8     kernel32:KERNEL32.dll
 0002:000003f0       __imp_SetUnhandledExceptionFilter 00000001800233f0     kernel32:KERNEL32.dll
 0002:000003f8       \177KERNEL32_NULL_THUNK_DATA 00000001800233f8     kernel32:KERNEL32.dll
 0002:00000400       __imp_OleCreatePropertyFrame 0000000180023400     oleaut32:OLEAUT32.dll
 0002:00000408       __imp_UnRegisterTypeLib    0000000180023408     oleaut32:OLEAUT32.dll
 0002:00000410       __imp_RegisterTypeLib      0000000180023410     oleaut32:OLEAUT32.dll
 0002:00000418       __imp_LoadRegTypeLib       0000000180023418     oleaut32:OLEAUT32.dll
 0002:00000420       __imp_LoadTypeLib          0000000180023420     oleaut32:OLEAUT32.dll
 0002:00000428       __imp_VarUI4FromStr        0000000180023428     oleaut32:OLEAUT32.dll
 0002:00000430       __imp_VariantInit          0000000180023430     oleaut32:OLEAUT32.dll
 0002:00000438       __imp_SysAllocStringByteLen 0000000180023438     oleaut32:OLEAUT32.dll
 0002:00000440       __imp_SysStringByteLen     0000000180023440     oleaut32:OLEAUT32.dll
 0002:00000448       __imp_VariantChangeType    0000000180023448     oleaut32:OLEAUT32.dll
 0002:00000450       __imp_VariantClear         0000000180023450     oleaut32:OLEAUT32.dll
 0002:00000458       __imp_SysStringLen         0000000180023458     oleaut32:OLEAUT32.dll
 0002:00000460       __imp_SysFreeString        0000000180023460     oleaut32:OLEAUT32.dll
 0002:00000468       __imp_SysAllocStringLen    0000000180023468     oleaut32:OLEAUT32.dll
 0002:00000470       __imp_SysAllocString       0000000180023470     oleaut32:OLEAUT32.dll
 0002:00000478       \177OLEAUT32_NULL_THUNK_DATA 0000000180023478     oleaut32:OLEAUT32.dll
 0002:00000480       __imp_UnregisterClassW     0000000180023480     user32:USER32.dll
 0002:00000488       __imp_PostMessageW         0000000180023488     user32:USER32.dll
 0002:00000490       __imp_DefWindowProcW       0000000180023490     user32:USER32.dll
 0002:00000498       __imp_CallWindowProcW      0000000180023498     user32:USER32.dll
 0002:000004a0       __imp_RegisterClassExW     00000001800234a0     user32:USER32.dll
 0002:000004a8       __imp_GetClassInfoExW      00000001800234a8     user32:USER32.dll
 0002:000004b0       __imp_CreateWindowExW      00000001800234b0     user32:USER32.dll
 0002:000004b8       __imp_IsWindow             00000001800234b8     user32:USER32.dll
 0002:000004c0       __imp_IsChild              00000001800234c0     user32:USER32.dll
 0002:000004c8       __imp_DestroyWindow        00000001800234c8     user32:USER32.dll
 0002:000004d0       __imp_ShowWindow           00000001800234d0     user32:USER32.dll
 0002:000004d8       __imp_SetWindowPos         00000001800234d8     user32:USER32.dll
 0002:000004e0       __imp_CharNextW            00000001800234e0     user32:USER32.dll
 0002:000004e8       __imp_SetFocus             00000001800234e8     user32:USER32.dll
 0002:000004f0       __imp_LoadBitmapW          00000001800234f0     user32:USER32.dll
 0002:000004f8       __imp_RegisterClassW       00000001800234f8     user32:USER32.dll
 0002:00000500       __imp_PeekMessageW         0000000180023500     user32:USER32.dll
 0002:00000508       __imp_LoadCursorW          0000000180023508     user32:USER32.dll
 0002:00000510       __imp_GetParent            0000000180023510     user32:USER32.dll
 0002:00000518       __imp_SetWindowLongPtrW    0000000180023518     user32:USER32.dll
 0002:00000520       __imp_GetWindowLongPtrW    0000000180023520     user32:USER32.dll
 0002:00000528       __imp_PtInRect             0000000180023528     user32:USER32.dll
 0002:00000530       __imp_EqualRect            0000000180023530     user32:USER32.dll
 0002:00000538       __imp_OffsetRect           0000000180023538     user32:USER32.dll
 0002:00000540       __imp_UnionRect            0000000180023540     user32:USER32.dll
 0002:00000548       __imp_IntersectRect        0000000180023548     user32:USER32.dll
 0002:00000550       __imp_GetClientRect        0000000180023550     user32:USER32.dll
 0002:00000558       __imp_InvalidateRect       0000000180023558     user32:USER32.dll
 0002:00000560       __imp_SetWindowRgn         0000000180023560     user32:USER32.dll
 0002:00000568       __imp_EndPaint             0000000180023568     user32:USER32.dll
 0002:00000570       __imp_BeginPaint           0000000180023570     user32:USER32.dll
 0002:00000578       __imp_ReleaseDC            0000000180023578     user32:USER32.dll
 0002:00000580       __imp_GetDC                0000000180023580     user32:USER32.dll
 0002:00000588       __imp_GetKeyState          0000000180023588     user32:USER32.dll
 0002:00000590       __imp_GetFocus             0000000180023590     user32:USER32.dll
 0002:00000598       \177USER32_NULL_THUNK_DATA 0000000180023598     user32:USER32.dll
 0002:000005a0       __imp_CoCreateInstance     00000001800235a0     ole32:ole32.dll
 0002:000005a8       __imp_StringFromGUID2      00000001800235a8     ole32:ole32.dll
 0002:000005b0       __imp_CoTaskMemAlloc       00000001800235b0     ole32:ole32.dll
 0002:000005b8       __imp_CoTaskMemFree        00000001800235b8     ole32:ole32.dll
 0002:000005c0       __imp_ReadClassStm         00000001800235c0     ole32:ole32.dll
 0002:000005c8       __imp_WriteClassStm        00000001800235c8     ole32:ole32.dll
 0002:000005d0       __imp_CreateDataAdviseHolder 00000001800235d0     ole32:ole32.dll
 0002:000005d8       __imp_OleSaveToStream      00000001800235d8     ole32:ole32.dll
 0002:000005e0       __imp_CreateOleAdviseHolder 00000001800235e0     ole32:ole32.dll
 0002:000005e8       __imp_OleRegGetUserType    00000001800235e8     ole32:ole32.dll
 0002:000005f0       __imp_OleRegGetMiscStatus  00000001800235f0     ole32:ole32.dll
 0002:000005f8       __imp_OleRegEnumVerbs      00000001800235f8     ole32:ole32.dll
 0002:00000600       __imp_CLSIDFromProgID      0000000180023600     ole32:ole32.dll
 0002:00000608       __imp_CoTaskMemRealloc     0000000180023608     ole32:ole32.dll
 0002:00000610       \177ole32_NULL_THUNK_DATA  0000000180023610     ole32:ole32.dll
 0002:00000618       __guard_check_icall_fptr   0000000180023618     LIBCMT:guard_support.obj
 0002:00000620       __guard_xfg_check_icall_fptr 0000000180023620     LIBCMT:guard_support.obj
 0002:00000628       __guard_dispatch_icall_fptr 0000000180023628     LIBCMT:guard_support.obj
 0002:00000630       __guard_xfg_dispatch_icall_fptr 0000000180023630     LIBCMT:guard_support.obj
 0002:00000638       __guard_xfg_table_dispatch_icall_fptr 0000000180023638     LIBCMT:guard_support.obj
 0002:00000640       __xc_a                     0000000180023640     LIBCMT:initializers.obj
 0002:00000670       __xc_z                     0000000180023670     LIBCMT:initializers.obj
 0002:00000678       __xi_a                     0000000180023678     LIBCMT:initializers.obj
 0002:00000688       __acrt_stdio_initializer   0000000180023688     libucrt:stdio_initializer.obj
 0002:00000690       __acrt_multibyte_initializer 0000000180023690     libucrt:multibyte_initializer.obj
 0002:00000698       __acrt_tran_fma3_initializer 0000000180023698     libucrt:fma3_initializer.obj
 0002:000006a0       __xi_z                     00000001800236a0     LIBCMT:initializers.obj
 0002:000006a8       __xl_a                     00000001800236a8     LIBCMT:tlssup.obj
 0002:000006b0       __xl_z                     00000001800236b0     LIBCMT:tlssup.obj
 0002:000006b8       __xp_a                     00000001800236b8     LIBCMT:initializers.obj
 0002:000006c0       __acrt_locale_terminator   00000001800236c0     libucrt:locale_initializer.obj
 0002:000006c8       __dcrt_console_output_terminator 00000001800236c8     libucrt:console_output_initializer.obj
 0002:000006d0       __acrt_stdio_terminator    00000001800236d0     libucrt:stdio_initializer.obj
 0002:000006d8       __xp_z                     00000001800236d8     LIBCMT:initializers.obj
 0002:000006e0       __xt_a                     00000001800236e0     LIBCMT:initializers.obj
 0002:000006e8       __xt_z                     00000001800236e8     LIBCMT:initializers.obj
 0002:000006f0       ??_C@_13HADIAKP@?$AAS@     00000001800236f0     OposVariant.obj
 0002:000006f4       ??_C@_13LHMFKAAD@?$AAM@    00000001800236f4     OposVariant.obj
 0002:000006f8       ??_C@_13MKMNOPIJ@?$AAD@    00000001800236f8     OposVariant.obj
 0002:000006fc       ??_C@_13OPKGLAFF@?$AAB@    00000001800236fc     OposVariant.obj
 0002:00000700       ??_C@_17LLMMEOJD@?$AAV?$AAa?$AAl@ 0000000180023700     OposVariant.obj
 0002:00000708       ??_C@_1BI@JFAIJMHL@?$AAF?$AAo?$AAr?$AAc?$AAe?$AAR?$AAe?$AAm?$AAo?$AAv?$AAe@ 0000000180023708     OposVariant.obj
 0002:00000720       ??_C@_1BC@GCKHIPE@?$AAN?$AAo?$AAR?$AAe?$AAm?$AAo?$AAv?$AAe@ 0000000180023720     OposVariant.obj
 0002:00000738       ??_C@_1O@JDLOHAN@?$AAD?$AAe?$AAl?$AAe?$AAt?$AAe@ 0000000180023738     OposVariant.obj
 0002:00000748       ??_C@_11LOCGONAA@@         0000000180023748     OposVariant.obj
 0002:00000750       IID_IOPOSPOSKeyboard_1_5   0000000180023750     POSKeyboard.obj
 0002:00000760       IID_IOPOSPOSKeyboard_1_8   0000000180023760     POSKeyboard.obj
 0002:00000770       IID_IOPOSPOSKeyboard_1_9   0000000180023770     POSKeyboard.obj
 0002:00000780       IID_IOPOSPOSKeyboard       0000000180023780     POSKeyboard.obj
 0002:00000790       LIBID_OposPOSKeyboard_CCO  0000000180023790     POSKeyboard.obj
 0002:000007a0       DIID__IOPOSPOSKeyboardEvents 00000001800237a0     POSKeyboard.obj
 0002:000007b0       CLSID_OPOSPOSKeyboard      00000001800237b0     POSKeyboard.obj
 0002:000007c0       _GUID_00000114_0000_0000_c000_000000000046 00000001800237c0     POSKeyboard.obj
 0002:000007d0       ??_C@_1BK@BIGILECK@?$AAA?$AAd?$AAv?$AAa?$AAp?$AAi?$AA3?$AA2?$AA?4?$AAd?$AAl?$AAl@ 00000001800237d0     POSKeyboard.obj
 0002:000007f0       ??_C@_0BI@MNCFCPFK@RegCreateKeyTransactedW@ 00000001800237f0     POSKeyboard.obj
 0002:00000808       _GUID_b196b287_bab4_101a_b69c_00aa00341d07 0000000180023808     POSKeyboard.obj
 0002:00000818       _GUID_b196b285_bab4_101a_b69c_00aa00341d07 0000000180023818     POSKeyboard.obj
 0002:00000830       ?_entries@?1??_GetEntries@COPOSPOSKeyboard@@SAPEBU_ATL_INTMAP_ENTRY@ATL@@XZ@4QBU34@B 0000000180023830     POSKeyboard.obj
 0002:00000aa0       _GUID_a6bc3ac0_dbaa_11ce_9de3_00aa004bb851 0000000180023aa0     POSKeyboard.obj
 0002:00000ab0       _GUID_0000010c_0000_0000_c000_000000000046 0000000180023ab0     POSKeyboard.obj
 0002:00000ac0       _GUID_cf51ed10_62fe_11cf_bf86_00a0c9034836 0000000180023ac0     POSKeyboard.obj
 0002:00000ad0       _GUID_0000010a_0000_0000_c000_000000000046 0000000180023ad0     POSKeyboard.obj
 0002:00000ae0       _GUID_b196b283_bab4_101a_b69c_00aa00341d07 0000000180023ae0     POSKeyboard.obj
 0002:00000af0       _GUID_cb5bdc81_93c1_11cf_8f20_00805f2cd064 0000000180023af0     POSKeyboard.obj
 0002:00000b00       ?pPropMap@?1??GetPropertyMap@COPOSPOSKeyboard@@SAPEBUATL_PROPMAP_ENTRY@ATL@@XZ@4QBU34@B 0000000180023b00     POSKeyboard.obj
 0002:00000ba8       ??_C@_17DGDADEHL@?$AA_?$AAc?$AAx@ 0000000180023ba8     POSKeyboard.obj
 0002:00000bb0       ??_C@_17IOIMFDBO@?$AA_?$AAc?$AAy@ 0000000180023bb0     POSKeyboard.obj
 0002:00000bb8       _GUID_00000146_0000_0000_c000_000000000046 0000000180023bb8     POSKeyboard.obj
 0002:00000bc8       _GUID_922eada0_3424_11cf_b670_00aa004cd6d8 0000000180023bc8     POSKeyboard.obj
 0002:00000bd8       _GUID_9c2cad80_3424_11cf_b670_00aa004cd6d8 0000000180023bd8     POSKeyboard.obj
 0002:00000be8       _GUID_00000119_0000_0000_c000_000000000046 0000000180023be8     POSKeyboard.obj
 0002:00000bf8       ??_7?$CComObjectCached@VCComClassFactory@ATL@@@ATL@@6B@ 0000000180023bf8     POSKeyboard.obj
 0002:00000c28       _GUID_b196b289_bab4_101a_b69c_00aa00341d07 0000000180023c28     POSKeyboard.obj
 0002:00000c38       ??_C@_1CE@PGFMOFKI@?$AAS?$AAt?$AAa?$AAt?$AAu?$AAs?$AAU?$AAp?$AAd?$AAa?$AAt?$AAe?$AAE?$AAv?$AAe@ 0000000180023c38     POSKeyboard.obj
 0002:00000c60       ??_C@_1BG@LODEBHDD@?$AAE?$AAr?$AAr?$AAo?$AAr?$AAE?$AAv?$AAe?$AAn?$AAt@ 0000000180023c60     POSKeyboard.obj
 0002:00000c78       ??_C@_1BM@CBGEBBBJ@?$AAD?$AAi?$AAr?$AAe?$AAc?$AAt?$AAI?$AAO?$AAE?$AAv?$AAe?$AAn?$AAt@ 0000000180023c78     POSKeyboard.obj
 0002:00000c98       ??_C@_1BE@IEBMACEM@?$AAD?$AAa?$AAt?$AAa?$AAE?$AAv?$AAe?$AAn?$AAt@ 0000000180023c98     POSKeyboard.obj
 0002:00000cb0       _GUID_b196b286_bab4_101a_b69c_00aa00341d07 0000000180023cb0     POSKeyboard.obj
 0002:00000cc0       _GUID_00000117_0000_0000_c000_000000000046 0000000180023cc0     POSKeyboard.obj
 0002:00000cd0       ??_7CComModule@ATL@@6B@    0000000180023cd0     POSKeyboard.obj
 0002:00000d20       ??_C@_1BC@ENICKDH@?$AAC?$AAo?$AAn?$AAt?$AAe?$AAn?$AAt?$AAs@ 0000000180023d20     POSKeyboard.obj
 0002:00000d38       _GUID_00000000_0000_0000_c000_000000000046 0000000180023d38     POSKeyboard.obj
 0002:00000d48       _GUID_00020400_0000_0000_c000_000000000046 0000000180023d48     POSKeyboard.obj
 0002:00000d58       ??_7?$CComObject@V?$CComEnum@UIEnumConnectionPoints@@$1?_GUID_b196b285_bab4_101a_b69c_00aa00341d07@@3U__s_GUID@@BPEAUIConnectionPoint@@V?$_CopyInterface@UIConnectionPoint@@@ATL@@VCComSingleThreadModel@6@@ATL@@@ATL@@6B@ 0000000180023d58     POSKeyboard.obj
 0002:00000d98       _GUID_0000010e_0000_0000_c000_000000000046 0000000180023d98     POSKeyboard.obj
 0002:00000da8       _GUID_b196b288_bab4_101a_b69c_00aa00341d07 0000000180023da8     POSKeyboard.obj
 0002:00000db8       ??_C@_1M@KANJNLFF@?$AAC?$AAL?$AAS?$AAI?$AAD@ 0000000180023db8     POSKeyboard.obj
 0002:00000dc8       ??_C@_1M@EJNEECMJ@?$AAA?$AAp?$AAp?$AAI?$AAD@ 0000000180023dc8     POSKeyboard.obj
 0002:00000dd8       _GUID_00000113_0000_0000_c000_000000000046 0000000180023dd8     POSKeyboard.obj
 0002:00000df0       ?rgszNeverDelete@CRegParser@ATL@@1QBQEB_WB 0000000180023df0     POSKeyboard.obj
 0002:00000e50       _GUID_1c2056cc_5ef4_101b_8bc8_00aa003e3b29 0000000180023e50     POSKeyboard.obj
 0002:00000e60       ??_7CRegObject@ATL@@6B@    0000000180023e60     POSKeyboard.obj
 0002:00000e90       _GUID_00000112_0000_0000_c000_000000000046 0000000180023e90     POSKeyboard.obj
 0002:00000ea0       _GUID_3af24292_0c96_11ce_a0cf_00aa00600ab8 0000000180023ea0     POSKeyboard.obj
 0002:00000eb0       _GUID_00000127_0000_0000_c000_000000000046 0000000180023eb0     POSKeyboard.obj
 0002:00000ec0       _GUID_0000010d_0000_0000_c000_000000000046 0000000180023ec0     POSKeyboard.obj
 0002:00000ed0       ??_C@_1CK@OEKPKBNA@?$AAC?$AAo?$AAm?$AAp?$AAo?$AAn?$AAe?$AAn?$AAt?$AA?5?$AAC?$AAa?$AAt?$AAe?$AAg@ 0000000180023ed0     POSKeyboard.obj
 0002:00000f00       ??_C@_1BC@NKMMNMGL@?$AAF?$AAi?$AAl?$AAe?$AAT?$AAy?$AAp?$AAe@ 0000000180023f00     POSKeyboard.obj
 0002:00000f18       ??_C@_1BE@EKPAFMCP@?$AAI?$AAn?$AAt?$AAe?$AAr?$AAf?$AAa?$AAc?$AAe@ 0000000180023f18     POSKeyboard.obj
 0002:00000f30       ??_C@_1BC@MAICEHGI@?$AAH?$AAa?$AAr?$AAd?$AAw?$AAa?$AAr?$AAe@ 0000000180023f30     POSKeyboard.obj
 0002:00000f48       ??_C@_19HLLLM@?$AAM?$AAi?$AAm?$AAe@ 0000000180023f48     POSKeyboard.obj
 0002:00000f58       ??_C@_17OMAOINJK@?$AAS?$AAA?$AAM@ 0000000180023f58     POSKeyboard.obj
 0002:00000f60       ??_C@_1BC@IBECJAAI@?$AAS?$AAE?$AAC?$AAU?$AAR?$AAI?$AAT?$AAY@ 0000000180023f60     POSKeyboard.obj
 0002:00000f78       ??_C@_1O@GBFINDKL@?$AAS?$AAY?$AAS?$AAT?$AAE?$AAM@ 0000000180023f78     POSKeyboard.obj
 0002:00000f88       ??_C@_1BC@EAHCMADO@?$AAS?$AAo?$AAf?$AAt?$AAw?$AAa?$AAr?$AAe@ 0000000180023f88     POSKeyboard.obj
 0002:00000fa0       ??_C@_1BA@JIHHIEDE@?$AAT?$AAy?$AAp?$AAe?$AAL?$AAi?$AAb@ 0000000180023fa0     POSKeyboard.obj
 0002:00000fb0       ?map@?1??HKeyFromString@CRegParser@ATL@@KAPEAUHKEY__@@PEA_W@Z@4QBUkeymap@?1??123@KAPEAU4@0@Z@B 0000000180023fb0     POSKeyboard.obj
 0002:00001090       ??_C@_19NCHLBIN@?$AAH?$AAK?$AAC?$AAR@ 0000000180024090     POSKeyboard.obj
 0002:000010a0       ??_C@_19JAPAIJDE@?$AAH?$AAK?$AAC?$AAU@ 00000001800240a0     POSKeyboard.obj
 0002:000010b0       ??_C@_19PEALEEJB@?$AAH?$AAK?$AAL?$AAM@ 00000001800240b0     POSKeyboard.obj
 0002:000010c0       ??_C@_17PJOJPMPB@?$AAH?$AAK?$AAU@ 00000001800240c0     POSKeyboard.obj
 0002:000010c8       ??_C@_19PNBHMJPL@?$AAH?$AAK?$AAP?$AAD@ 00000001800240c8     POSKeyboard.obj
 0002:000010d8       ??_C@_19GFFAIJHG@?$AAH?$AAK?$AAD?$AAD@ 00000001800240d8     POSKeyboard.obj
 0002:000010e8       ??_C@_19OFICIBHH@?$AAH?$AAK?$AAC?$AAC@ 00000001800240e8     POSKeyboard.obj
 0002:000010f8       ??_C@_1CE@PACHPJFI@?$AAH?$AAK?$AAE?$AAY?$AA_?$AAC?$AAL?$AAA?$AAS?$AAS?$AAE?$AAS?$AA_?$AAR?$AAO@ 00000001800240f8     POSKeyboard.obj
 0002:00001120       ??_C@_1CE@HLHNCBPM@?$AAH?$AAK?$AAE?$AAY?$AA_?$AAC?$AAU?$AAR?$AAR?$AAE?$AAN?$AAT?$AA_?$AAU?$AAS@ 0000000180024120     POSKeyboard.obj
 0002:00001148       ??_C@_1CG@GFBEANJL@?$AAH?$AAK?$AAE?$AAY?$AA_?$AAL?$AAO?$AAC?$AAA?$AAL?$AA_?$AAM?$AAA?$AAC?$AAH@ 0000000180024148     POSKeyboard.obj
 0002:00001170       ??_C@_1BG@BGODANIO@?$AAH?$AAK?$AAE?$AAY?$AA_?$AAU?$AAS?$AAE?$AAR?$AAS@ 0000000180024170     POSKeyboard.obj
 0002:00001188       ??_C@_1CM@KHNNAOIC@?$AAH?$AAK?$AAE?$AAY?$AA_?$AAP?$AAE?$AAR?$AAF?$AAO?$AAR?$AAM?$AAA?$AAN?$AAC@ 0000000180024188     POSKeyboard.obj
 0002:000011b8       ??_C@_1M@PPPPCDEP@?$AAA?$AAP?$AAP?$AAI?$AAD@ 00000001800241b8     POSKeyboard.obj
 0002:000011c8       ??_C@_1BM@HAGMMHIA@?$AAH?$AAK?$AAE?$AAY?$AA_?$AAD?$AAY?$AAN?$AA_?$AAD?$AAA?$AAT?$AAA@ 00000001800241c8     POSKeyboard.obj
 0002:000011e8       ??_C@_1CI@BBJOACGG@?$AAH?$AAK?$AAE?$AAY?$AA_?$AAC?$AAU?$AAR?$AAR?$AAE?$AAN?$AAT?$AA_?$AAC?$AAO@ 00000001800241e8     POSKeyboard.obj
 0002:00001210       _GUID_00000109_0000_0000_c000_000000000046 0000000180024210     POSKeyboard.obj
 0002:00001220       _GUID_7fd52380_4e07_101b_ae2d_08002b2ec713 0000000180024220     POSKeyboard.obj
 0002:00001230       ??_C@_1EA@NHKLICFA@?$AAH?$AAK?$AAC?$AAU?$AA?$AN?$AA?6?$AA?$HL?$AA?7?$AAS?$AAo?$AAf?$AAt?$AAw?$AAa?$AAr@ 0000000180024230     POSKeyboard.obj
 0002:00001270       ??_C@_1BE@LJOLIMEM@?$AA?$AN?$AA?6?$AA?7?$AA?$HN?$AA?$AN?$AA?6?$AA?$HN?$AA?$AN?$AA?6@ 0000000180024270     POSKeyboard.obj
 0002:00001288       ??_7?$CComContainedObject@VCOPOSPOSKeyboard@@@ATL@@6B?$IDispatchImpl@UIOPOSPOSKeyboard@@$1?IID_IOPOSPOSKeyboard@@3U_GUID@@B$1?LIBID_OposPOSKeyboard_CCO@@3U3@B$00$0A@VCComTypeInfoHolder@ATL@@@1@@ 0000000180024288     POSKeyboard.obj
 0002:00001470       ??_7?$CComContainedObject@VCOPOSPOSKeyboard@@@ATL@@6BCComControlBase@1@@ 0000000180024470     POSKeyboard.obj
 0002:00001498       ??_7?$CComContainedObject@VCOPOSPOSKeyboard@@@ATL@@6B?$CWindowImpl@VCOPOSPOSKeyboard@@VCWindow@ATL@@V?$CWinTraits@$0FGAAAAAA@$0A@@3@@1@@ 0000000180024498     POSKeyboard.obj
 0002:000014b8       ??_7?$CComContainedObject@VCOPOSPOSKeyboard@@@ATL@@6B?$IPersistStreamInitImpl@VCOPOSPOSKeyboard@@@1@@ 00000001800244b8     POSKeyboard.obj
 0002:00001500       ??_7?$CComContainedObject@VCOPOSPOSKeyboard@@@ATL@@6B?$IOleControlImpl@VCOPOSPOSKeyboard@@@1@@ 0000000180024500     POSKeyboard.obj
 0002:00001538       ??_7?$CComContainedObject@VCOPOSPOSKeyboard@@@ATL@@6B?$IOleObjectImpl@VCOPOSPOSKeyboard@@@1@@ 0000000180024538     POSKeyboard.obj
 0002:000015f8       ??_7?$CComContainedObject@VCOPOSPOSKeyboard@@@ATL@@6B?$IOleInPlaceActiveObjectImpl@VCOPOSPOSKeyboard@@@1@@ 00000001800245f8     POSKeyboard.obj
 0002:00001648       ??_7?$CComContainedObject@VCOPOSPOSKeyboard@@@ATL@@6B?$IViewObjectExImpl@VCOPOSPOSKeyboard@@@1@@ 0000000180024648     POSKeyboard.obj
 0002:000016c0       ??_7?$CComContainedObject@VCOPOSPOSKeyboard@@@ATL@@6B?$IOleInPlaceObjectWindowlessImpl@VCOPOSPOSKeyboard@@@1@@ 00000001800246c0     POSKeyboard.obj
 0002:00001718       ??_7?$CComContainedObject@VCOPOSPOSKeyboard@@@ATL@@6B?$IConnectionPointContainerImpl@VCOPOSPOSKeyboard@@@1@@ 0000000180024718     POSKeyboard.obj
 0002:00001740       ??_7?$CComContainedObject@VCOPOSPOSKeyboard@@@ATL@@6B?$IPersistStorageImpl@VCOPOSPOSKeyboard@@@1@@ 0000000180024740     POSKeyboard.obj
 0002:00001790       ??_7?$CComContainedObject@VCOPOSPOSKeyboard@@@ATL@@6B?$ISpecifyPropertyPagesImpl@VCOPOSPOSKeyboard@@@1@@ 0000000180024790     POSKeyboard.obj
 0002:000017b0       ??_7?$CComContainedObject@VCOPOSPOSKeyboard@@@ATL@@6B?$IQuickActivateImpl@VCOPOSPOSKeyboard@@@1@@ 00000001800247b0     POSKeyboard.obj
 0002:000017e0       ??_7?$CComContainedObject@VCOPOSPOSKeyboard@@@ATL@@6B?$IDataObjectImpl@VCOPOSPOSKeyboard@@@1@@ 00000001800247e0     POSKeyboard.obj
 0002:00001840       ??_7?$CComContainedObject@VCOPOSPOSKeyboard@@@ATL@@6B?$IProvideClassInfo2Impl@$1?CLSID_OPOSPOSKeyboard@@3U_GUID@@B$1?DIID__IOPOSPOSKeyboardEvents@@3U2@B$1?LIBID_OposPOSKeyboard_CCO@@3U2@B$00$0A@VCComTypeInfoHolder@ATL@@@1@@ 0000000180024840     POSKeyboard.obj
 0002:00001868       ??_7?$CComContainedObject@VCOPOSPOSKeyboard@@@ATL@@6B?$IObjectSafetyImpl@VCOPOSPOSKeyboard@@$02@1@@ 0000000180024868     POSKeyboard.obj
 0002:00001898       ??_7?$CComContainedObject@VCOPOSPOSKeyboard@@@ATL@@6B?$IPropertyNotifySinkCP@VCOPOSPOSKeyboard@@VCComDynamicUnkArray@ATL@@@1@@ 0000000180024898     POSKeyboard.obj
 0002:000018d8       ??_7?$CComContainedObject@VCOPOSPOSKeyboard@@@ATL@@6B?$CProxy_IOPOSEvents@VCOPOSPOSKeyboard@@@@@ 00000001800248d8     POSKeyboard.obj
 0002:00001918       ??_7?$CComAggObject@VCOPOSPOSKeyboard@@@ATL@@6B@ 0000000180024918     POSKeyboard.obj
 0002:00001938       ??_7?$CComObject@VCOPOSPOSKeyboard@@@ATL@@6B?$IDispatchImpl@UIOPOSPOSKeyboard@@$1?IID_IOPOSPOSKeyboard@@3U_GUID@@B$1?LIBID_OposPOSKeyboard_CCO@@3U3@B$00$0A@VCComTypeInfoHolder@ATL@@@1@@ 0000000180024938     POSKeyboard.obj
 0002:00001b20       ??_7?$CComObject@VCOPOSPOSKeyboard@@@ATL@@6BCComControlBase@1@@ 0000000180024b20     POSKeyboard.obj
 0002:00001b48       ??_7?$CComObject@VCOPOSPOSKeyboard@@@ATL@@6B?$CWindowImpl@VCOPOSPOSKeyboard@@VCWindow@ATL@@V?$CWinTraits@$0FGAAAAAA@$0A@@3@@1@@ 0000000180024b48     POSKeyboard.obj
 0002:00001b68       ??_7?$CComObject@VCOPOSPOSKeyboard@@@ATL@@6B?$IPersistStreamInitImpl@VCOPOSPOSKeyboard@@@1@@ 0000000180024b68     POSKeyboard.obj
 0002:00001bb0       ??_7?$CComObject@VCOPOSPOSKeyboard@@@ATL@@6B?$IOleControlImpl@VCOPOSPOSKeyboard@@@1@@ 0000000180024bb0     POSKeyboard.obj
 0002:00001be8       ??_7?$CComObject@VCOPOSPOSKeyboard@@@ATL@@6B?$IOleObjectImpl@VCOPOSPOSKeyboard@@@1@@ 0000000180024be8     POSKeyboard.obj
 0002:00001ca8       ??_7?$CComObject@VCOPOSPOSKeyboard@@@ATL@@6B?$IOleInPlaceActiveObjectImpl@VCOPOSPOSKeyboard@@@1@@ 0000000180024ca8     POSKeyboard.obj
 0002:00001cf8       ??_7?$CComObject@VCOPOSPOSKeyboard@@@ATL@@6B?$IViewObjectExImpl@VCOPOSPOSKeyboard@@@1@@ 0000000180024cf8     POSKeyboard.obj
 0002:00001d70       ??_7?$CComObject@VCOPOSPOSKeyboard@@@ATL@@6B?$IOleInPlaceObjectWindowlessImpl@VCOPOSPOSKeyboard@@@1@@ 0000000180024d70     POSKeyboard.obj
 0002:00001dc8       ??_7?$CComObject@VCOPOSPOSKeyboard@@@ATL@@6B?$IConnectionPointContainerImpl@VCOPOSPOSKeyboard@@@1@@ 0000000180024dc8     POSKeyboard.obj
 0002:00001df0       ??_7?$CComObject@VCOPOSPOSKeyboard@@@ATL@@6B?$IPersistStorageImpl@VCOPOSPOSKeyboard@@@1@@ 0000000180024df0     POSKeyboard.obj
 0002:00001e40       ??_7?$CComObject@VCOPOSPOSKeyboard@@@ATL@@6B?$ISpecifyPropertyPagesImpl@VCOPOSPOSKeyboard@@@1@@ 0000000180024e40     POSKeyboard.obj
 0002:00001e60       ??_7?$CComObject@VCOPOSPOSKeyboard@@@ATL@@6B?$IQuickActivateImpl@VCOPOSPOSKeyboard@@@1@@ 0000000180024e60     POSKeyboard.obj
 0002:00001e90       ??_7?$CComObject@VCOPOSPOSKeyboard@@@ATL@@6B?$IDataObjectImpl@VCOPOSPOSKeyboard@@@1@@ 0000000180024e90     POSKeyboard.obj
 0002:00001ef0       ??_7?$CComObject@VCOPOSPOSKeyboard@@@ATL@@6B?$IProvideClassInfo2Impl@$1?CLSID_OPOSPOSKeyboard@@3U_GUID@@B$1?DIID__IOPOSPOSKeyboardEvents@@3U2@B$1?LIBID_OposPOSKeyboard_CCO@@3U2@B$00$0A@VCComTypeInfoHolder@ATL@@@1@@ 0000000180024ef0     POSKeyboard.obj
 0002:00001f18       ??_7?$CComObject@VCOPOSPOSKeyboard@@@ATL@@6B?$IObjectSafetyImpl@VCOPOSPOSKeyboard@@$02@1@@ 0000000180024f18     POSKeyboard.obj
 0002:00001f48       ??_7?$CComObject@VCOPOSPOSKeyboard@@@ATL@@6B?$IPropertyNotifySinkCP@VCOPOSPOSKeyboard@@VCComDynamicUnkArray@ATL@@@1@@ 0000000180024f48     POSKeyboard.obj
 0002:00001f88       ??_7?$CComObject@VCOPOSPOSKeyboard@@@ATL@@6B?$CProxy_IOPOSEvents@VCOPOSPOSKeyboard@@@@@ 0000000180024f88     POSKeyboard.obj
 0002:00001fc8       ??_C@_1O@MNLDABAF@?$AAM?$AAo?$AAd?$AAu?$AAl?$AAe@ 0000000180024fc8     POSKeyboard.obj
 0002:00001fd8       ??_C@_1BG@JBACFMF@?$AAM?$AAo?$AAd?$AAu?$AAl?$AAe?$AA_?$AAR?$AAa?$AAw@ 0000000180024fd8     POSKeyboard.obj
 0002:00001ff0       ??_C@_1BC@KAILKFFG@?$AAR?$AAE?$AAG?$AAI?$AAS?$AAT?$AAR?$AAY@ 0000000180024ff0     POSKeyboard.obj
 0002:00002008       ??_C@_1O@GBFKGNEO@?$AAA?$AAT?$AAL?$AA?3?$AA?$CF?$AAp@ 0000000180025008     POSKeyboard.obj
 0002:00002018       ??_C@_1BA@PICGEGJB@?$AAD?$AAI?$AAS?$AAP?$AAL?$AAA?$AAY@ 0000000180025018     POSKeyboard.obj
 0002:00002028       _GUID_9bfbbc02_eff1_101a_84ed_00aa00341d07 0000000180025028     POSKeyboard.obj
 0002:00002038       ?_entries@?1??_GetEntries@?$CComEnum@UIEnumConnectionPoints@@$1?_GUID_b196b285_bab4_101a_b69c_00aa00341d07@@3U__s_GUID@@BPEAUIConnectionPoint@@V?$_CopyInterface@UIConnectionPoint@@@ATL@@VCComSingleThreadModel@6@@ATL@@SAPEBU_ATL_INTMAP_ENTRY@3@XZ@4QBU43@B 0000000180025038     POSKeyboard.obj
 0002:00002068       _GUID_00020412_0000_0000_c000_000000000046 0000000180025068     POSKeyboard.obj
 0002:00002078       _GUID_b196b284_bab4_101a_b69c_00aa00341d07 0000000180025078     POSKeyboard.obj
 0002:00002088       _GUID_00020401_0000_0000_c000_000000000046 0000000180025088     POSKeyboard.obj
 0002:00002098       ??_7?$CComObject@V?$CComEnum@UIEnumConnections@@$1?_GUID_b196b287_bab4_101a_b69c_00aa00341d07@@3U__s_GUID@@BUtagCONNECTDATA@@V?$_Copy@UtagCONNECTDATA@@@ATL@@VCComSingleThreadModel@6@@ATL@@@ATL@@6B@ 0000000180025098     POSKeyboard.obj
 0002:000020d8       _GUID_55980ba0_35aa_11cf_b671_00aa004cd6d8 00000001800250d8     POSKeyboard.obj
 0002:000020e8       _GUID_b196b28b_bab4_101a_b69c_00aa00341d07 00000001800250e8     POSKeyboard.obj
 0002:000020f8       ?_entries@?1??_GetEntries@?$CComEnum@UIEnumConnections@@$1?_GUID_b196b287_bab4_101a_b69c_00aa00341d07@@3U__s_GUID@@BUtagCONNECTDATA@@V?$_Copy@UtagCONNECTDATA@@@ATL@@VCComSingleThreadModel@6@@ATL@@SAPEBU_ATL_INTMAP_ENTRY@3@XZ@4QBU43@B 00000001800250f8     POSKeyboard.obj
 0002:00002128       ??_7CComClassFactory@ATL@@6B@ 0000000180025128     POSKeyboard.obj
 0002:00002158       ?_entries@?1??_GetEntries@CComClassFactory@ATL@@SAPEBU_ATL_INTMAP_ENTRY@3@XZ@4QBU43@B 0000000180025158     POSKeyboard.obj
 0002:00002188       _GUID_00000001_0000_0000_c000_000000000046 0000000180025188     POSKeyboard.obj
 0002:00002198       ??_C@_0BG@EKFFMJIO@RegOpenKeyTransactedW@ 0000000180025198     POSKeyboard.obj
 0002:000021b0       ??_C@_0BI@HAKLOOGP@RegDeleteKeyTransactedW@ 00000001800251b0     POSKeyboard.obj
 0002:000021c8       ??_C@_0BA@LILAPHGE@RegDeleteKeyExW@ 00000001800251c8     POSKeyboard.obj
 0002:000021d8       ??_C@_19ILOCMLCJ@?$AA?4?$AAt?$AAl?$AAb@ 00000001800251d8     POSKeyboard.obj
 0002:000021e8       _GUID_0002e012_0000_0000_c000_000000000046 00000001800251e8     POSKeyboard.obj
 0002:000021f8       ??_C@_1O@FHBGLCIO@?$AAC?$AAL?$AAS?$AAI?$AAD?$AA?2@ 00000001800251f8     POSKeyboard.obj
 0002:00002208       ??_C@_1CK@IFBKBFAA@?$AA?2?$AAR?$AAe?$AAq?$AAu?$AAi?$AAr?$AAe?$AAd?$AA?5?$AAC?$AAa?$AAt?$AAe?$AAg@ 0000000180025208     POSKeyboard.obj
 0002:00002238       ??_C@_1DA@BIHALFED@?$AA?2?$AAI?$AAm?$AAp?$AAl?$AAe?$AAm?$AAe?$AAn?$AAt?$AAe?$AAd?$AA?5?$AAC?$AAa@ 0000000180025238     POSKeyboard.obj
 0002:00002268       ??_C@_1BK@EDKOLFBJ@?$AAO?$AAL?$AAE?$AAA?$AAU?$AAT?$AA3?$AA2?$AA?4?$AAD?$AAL?$AAL@ 0000000180025268     POSKeyboard.obj
 0002:00002288       ??_C@_0BJ@CNLFOMHB@UnRegisterTypeLibForUser@ 0000000180025288     POSKeyboard.obj
 0002:000022a8       ??_C@_0BH@LBOMMKPJ@RegisterTypeLibForUser@ 00000001800252a8     POSKeyboard.obj
 0002:000022c0       ??_C@_0P@MMNMMLGK@COFreezeEvents@ 00000001800252c0     POSKeyboardImpl.obj
 0002:000022d0       ??_C@_0BC@OGCGGIMP@GetPropertyNumber@ 00000001800252d0     POSKeyboardImpl.obj
 0002:000022e8       ??_C@_0BC@MDCNODNB@SetPropertyNumber@ 00000001800252e8     POSKeyboardImpl.obj
 0002:00002300       ??_C@_0BC@CFCCMIMD@GetPropertyString@ 0000000180025300     POSKeyboardImpl.obj
 0002:00002318       ??_C@_0BC@CJEDNN@SetPropertyString@ 0000000180025318     POSKeyboardImpl.obj
 0002:00002330       ??_C@_0M@LNPKKKDA@OpenService@ 0000000180025330     POSKeyboardImpl.obj
 0002:00002340       ??_C@_0M@PCMCHHMH@CheckHealth@ 0000000180025340     POSKeyboardImpl.obj
 0002:00002350       ??_C@_0M@JGMIDNEK@ClaimDevice@ 0000000180025350     POSKeyboardImpl.obj
 0002:00002360       ??_C@_0L@BNEIFEJC@ClearInput@ 0000000180025360     POSKeyboardImpl.obj
 0002:00002370       ??_C@_0N@DDFIIBMP@CloseService@ 0000000180025370     POSKeyboardImpl.obj
 0002:00002380       ??_C@_08EEIHICPC@DirectIO@ 0000000180025380     POSKeyboardImpl.obj
 0002:00002390       ??_C@_0O@BCPMENMJ@ReleaseDevice@ 0000000180025390     POSKeyboardImpl.obj
 0002:000023a0       ??_C@_0BA@GFABKEEE@ResetStatistics@ 00000001800253a0     POSKeyboardImpl.obj
 0002:000023b0       ??_C@_0BD@DPALHJGC@RetrieveStatistics@ 00000001800253b0     POSKeyboardImpl.obj
 0002:000023c8       ??_C@_0BB@KOHIKNFC@UpdateStatistics@ 00000001800253c8     POSKeyboardImpl.obj
 0002:000023e0       ??_C@_0BH@PBKBNMGB@CompareFirmwareVersion@ 00000001800253e0     POSKeyboardImpl.obj
 0002:000023f8       ??_C@_0P@FBPDPIPA@UpdateFirmware@ 00000001800253f8     POSKeyboardImpl.obj
 0002:00002408       ??_7?$CProxy_IOPOSEvents@VCOPOSPOSKeyboard@@@@6B@ 0000000180025408     POSKeyboardImpl.obj
 0002:00002448       ??_C@_1BA@IFHENID@?$AA?$FL?$AAE?$AAr?$AAr?$AAo?$AAr?$AA?$FN@ 0000000180025448     POSKeyboardImpl.obj
 0002:00002458       ??_C@_0CO@PEIDCFMJ@SOFTWARE?2OLEforRetail?2ServiceOP@ 0000000180025458     POSKeyboardImpl.obj
 0002:00002488       ??_C@_1M@IAIJHCCH@?$AAC?$AAl?$AAo?$AAs?$AAe@ 0000000180025488     POSKeyboardImpl.obj
 0002:00002498       ??_C@_1M@PCPKGJAH@?$AAC?$AAl?$AAa?$AAi?$AAm@ 0000000180025498     POSKeyboardImpl.obj
 0002:000024a8       ??_C@_1BA@NDFKIOCP@?$AAR?$AAe?$AAl?$AAe?$AAa?$AAs?$AAe@ 00000001800254a8     POSKeyboardImpl.obj
 0002:000024b8       ??_C@_0M@JJNONJDF@POSKeyboard@ 00000001800254b8     POSKeyboardImpl.obj
 0002:000024c8       ??_C@_1BM@IJMNMBPK@?$AAG?$AAe?$AAt?$AAO?$AAp?$AAe?$AAn?$AAR?$AAe?$AAs?$AAu?$AAl?$AAt@ 00000001800254c8     POSKeyboardImpl.obj
 0002:000024e8       IID_IDispatch              00000001800254e8     uuid:oaidl_i.obj
 0002:000024f8       IID_IPropertyNotifySink    00000001800254f8     uuid:ocidl_i.obj
 0002:00002508       GUID_NULL                  0000000180025508     uuid:cguid_i.obj
 0002:00002518       CLSID_StdGlobalInterfaceTable 0000000180025518     uuid:cguid_i.obj
 0002:00002528       CLSID_StdComponentCategoriesMgr 0000000180025528     uuid:ieguids.obj
 0002:00002538       IID_IUnknown               0000000180025538     uuid:unknwn_i.obj
 0002:00002550       __xmm@ffffffffffffffffffffffffffffffff 0000000180025550     LIBCMT:utility.obj
 0002:00002560       ??_C@_1EC@JIJBPKFM@?$AAa?$AAp?$AAi?$AA?9?$AAm?$AAs?$AA?9?$AAw?$AAi?$AAn?$AA?9?$AAc?$AAo?$AAr?$AAe@ 0000000180025560     LIBCMT:thread_safe_statics.obj
 0002:000025a8       ??_C@_1BK@MGMFAEKH@?$AAk?$AAe?$AAr?$AAn?$AAe?$AAl?$AA3?$AA2?$AA?4?$AAd?$AAl?$AAl@ 00000001800255a8     LIBCMT:thread_safe_statics.obj
 0002:000025c8       ??_C@_0BJ@JEBJOJFJ@SleepConditionVariableCS@ 00000001800255c8     LIBCMT:thread_safe_statics.obj
 0002:000025e8       ??_C@_0BJ@PGPPEPCC@WakeAllConditionVariable@ 00000001800255e8     LIBCMT:thread_safe_statics.obj
 0002:00002601       ?nothrow@std@@3Unothrow_t@1@B 0000000180025601     LIBCMT:std_nothrow.obj
 0002:00002618       _pDefaultRawDllMain        0000000180025618     LIBCMT:dll_dllmain.obj
 0002:00002618       _pRawDllMain               0000000180025618     LIBCMT:dll_dllmain.obj
 0002:00002628       ??_7exception@std@@6B@     0000000180025628     LIBCMT:throw_bad_alloc.obj
 0002:00002638       ??_C@_0BC@EOODALEL@Unknown?5exception@ 0000000180025638     LIBCMT:throw_bad_alloc.obj
 0002:00002658       ??_7bad_alloc@std@@6B@     0000000180025658     LIBCMT:throw_bad_alloc.obj
 0002:00002668       ??_C@_0P@GHFPNOJB@bad?5allocation@ 0000000180025668     LIBCMT:throw_bad_alloc.obj
 0002:00002680       ??_7bad_array_new_length@std@@6B@ 0000000180025680     LIBCMT:throw_bad_alloc.obj
 0002:00002690       ??_C@_0BF@KINCDENJ@bad?5array?5new?5length@ 0000000180025690     LIBCMT:throw_bad_alloc.obj
 0002:000026b0       ??_7type_info@@6B@         00000001800256b0     LIBCMT:std_type_info_static.obj
 0002:000026b8       GUID_ATLVer110             00000001800256b8     atls:atlbase.obj
 0002:000026d0       ??_C@_1IC@ONKHOIDK@?$AAE?$AAR?$AAR?$AAO?$AAR?$AA?5?$AA?3?$AA?5?$AAU?$AAn?$AAa?$AAb?$AAl?$AAe?$AA?5@ 00000001800256d0     atls:atlbase.obj
 0002:00002758       ??_C@_0N@FJEPLCIH@atlthunk?4dll@ 0000000180025758     atls:atlthunk.obj
 0002:00002768       ??_C@_0BG@GAKFHCBM@AtlThunk_AllocateData@ 0000000180025768     atls:atlthunk.obj
 0002:00002780       ??_C@_0BC@JKONFIAH@AtlThunk_InitData@ 0000000180025780     atls:atlthunk.obj
 0002:00002798       ??_C@_0BE@IAOEELAK@AtlThunk_DataToCode@ 0000000180025798     atls:atlthunk.obj
 0002:000027b0       ??_C@_0BC@GBGKAIPI@AtlThunk_FreeData@ 00000001800257b0     atls:atlthunk.obj
 0002:000027c8       ?s_negLengthTab@FH4@@3QBCB 00000001800257c8     libvcruntime:risctrnsctrl.obj
 0002:000027d8       ?s_shiftTab@FH4@@3QBEB     00000001800257d8     libvcruntime:risctrnsctrl.obj
 0002:00002888       _pDestructExceptionObject  0000000180025888     libvcruntime:ehhelpers.obj
 0002:00002898       ??_7bad_exception@std@@6B@ 0000000180025898     libvcruntime:frame.obj
 0002:000028a8       ??_C@_0O@DPKOEFFH@bad?5exception@ 00000001800258a8     libvcruntime:frame.obj
 0002:00002fc0       ??_C@_08EHJDFFNH@__based?$CI@ 0000000180025fc0     libvcruntime:undname.obj
 0002:00002fd0       ??_C@_07KOLFKCDI@__cdecl@  0000000180025fd0     libvcruntime:undname.obj
 0002:00002fd8       ??_C@_08GHMPAG@__pascal@   0000000180025fd8     libvcruntime:undname.obj
 0002:00002fe8       ??_C@_09IFJBGAPI@__stdcall@ 0000000180025fe8     libvcruntime:undname.obj
 0002:00002ff8       ??_C@_0L@NPHFGOKO@__thiscall@ 0000000180025ff8     libvcruntime:undname.obj
 0002:00003008       ??_C@_0L@JMKHOMEK@__fastcall@ 0000000180026008     libvcruntime:undname.obj
 0002:00003018       ??_C@_0N@BCKKPABJ@__vectorcall@ 0000000180026018     libvcruntime:undname.obj
 0002:00003028       ??_C@_09HIJEGCPM@__clrcall@ 0000000180026028     libvcruntime:undname.obj
 0002:00003034       ??_C@_06GHPCKEAG@__eabi@   0000000180026034     libvcruntime:undname.obj
 0002:00003040       ??_C@_09IOPIDJLG@__swift_1@ 0000000180026040     libvcruntime:undname.obj
 0002:00003050       ??_C@_09KFNFGKHF@__swift_2@ 0000000180026050     libvcruntime:undname.obj
 0002:00003060       ??_C@_07JOMMBBKO@__ptr64@  0000000180026060     libvcruntime:undname.obj
 0002:00003068       ??_C@_0L@PILCLIHE@__restrict@ 0000000180026068     libvcruntime:undname.obj
 0002:00003078       ??_C@_0M@GFIIJFMG@__unaligned@ 0000000180026078     libvcruntime:undname.obj
 0002:00003088       ??_C@_09DHDLOLLB@restrict?$CI@ 0000000180026088     libvcruntime:undname.obj
 0002:00003092       ??_C@_00CNPNBAHC@@         0000000180026092     libvcruntime:undname.obj
 0002:00003094       ??_C@_04NIHEBCM@?5new@     0000000180026094     libvcruntime:undname.obj
 0002:000030a0       ??_C@_07FPCDHGMM@?5delete@ 00000001800260a0     libvcruntime:undname.obj
 0002:000030a8       ??_C@_01NEMOKFLO@?$DN@     00000001800260a8     libvcruntime:undname.obj
 0002:000030ac       ??_C@_02GPIOPFAK@?$DO?$DO@ 00000001800260ac     libvcruntime:undname.obj
 0002:000030b0       ??_C@_02FODMEDOG@?$DM?$DM@ 00000001800260b0     libvcruntime:undname.obj
 0002:000030b4       ??_C@_01DCLJPIOD@?$CB@     00000001800260b4     libvcruntime:undname.obj
 0002:000030b8       ??_C@_02EGOFBIJA@?$DN?$DN@ 00000001800260b8     libvcruntime:undname.obj
 0002:000030bc       ??_C@_02FDNJECIE@?$CB?$DN@ 00000001800260bc     libvcruntime:undname.obj
 0002:000030c0       ??_C@_02GPECMEKF@?$FL?$FN@ 00000001800260c0     libvcruntime:undname.obj
 0002:000030c8       ??_C@_08LHJFAFGD@operator@ 00000001800260c8     libvcruntime:undname.obj
 0002:000030d4       ??_C@_02HBOOOICD@?9?$DO@   00000001800260d4     libvcruntime:undname.obj
 0002:000030d8       ??_C@_01NBENCBCI@?$CK@     00000001800260d8     libvcruntime:undname.obj
 0002:000030dc       ??_C@_02ECNGHCIF@?$CL?$CL@ 00000001800260dc     libvcruntime:undname.obj
 0002:000030e0       ??_C@_02BAABKJLB@?9?9@     00000001800260e0     libvcruntime:undname.obj
 0002:000030e4       ??_C@_01JOAMLHOP@?9@       00000001800260e4     libvcruntime:undname.obj
 0002:000030e8       ??_C@_01MIFGBAGJ@?$CL@     00000001800260e8     libvcruntime:undname.obj
 0002:000030ec       ??_C@_01HNPIGOCE@?$CG@     00000001800260ec     libvcruntime:undname.obj
 0002:000030f0       ??_C@_03MNHNFDLC@?9?$DO?$CK@ 00000001800260f0     libvcruntime:undname.obj
 0002:000030f4       ??_C@_01KMDKNFGN@?1@       00000001800260f4     libvcruntime:undname.obj
 0002:000030f8       ??_C@_01FGNFDNOH@?$CF@     00000001800260f8     libvcruntime:undname.obj
 0002:000030fc       ??_C@_01MNNFJEPP@?$DM@     00000001800260fc     libvcruntime:undname.obj
 0002:00003100       ??_C@_02EHCHHCKH@?$DM?$DN@ 0000000180026100     libvcruntime:undname.obj
 0002:00003104       ??_C@_01PPODPGHN@?$DO@     0000000180026104     libvcruntime:undname.obj
 0002:00003108       ??_C@_02EEKDKGMJ@?$DO?$DN@ 0000000180026108     libvcruntime:undname.obj
 0002:0000310c       ??_C@_01IHBHIGKO@?0@       000000018002610c     libvcruntime:undname.obj
 0002:00003110       ??_C@_02HCKGKOFO@?$CI?$CJ@ 0000000180026110     libvcruntime:undname.obj
 0002:00003114       ??_C@_01PJKLJHI@?$HO@      0000000180026114     libvcruntime:undname.obj
 0002:00003118       ??_C@_01JKBOJNNK@?$FO@     0000000180026118     libvcruntime:undname.obj
 0002:0000311c       ??_C@_01DNKMNLPK@?$HM@     000000018002611c     libvcruntime:undname.obj
 0002:00003120       ??_C@_02PPKAJPJL@?$CG?$CG@ 0000000180026120     libvcruntime:undname.obj
 0002:00003124       ??_C@_02NONPIBCD@?$HM?$HM@ 0000000180026124     libvcruntime:undname.obj
 0002:00003128       ??_C@_02FPIMKNGF@?$CK?$DN@ 0000000180026128     libvcruntime:undname.obj
 0002:0000312c       ??_C@_02FOEOMHFC@?$CL?$DN@ 000000018002612c     libvcruntime:undname.obj
 0002:00003130       ??_C@_02FKMDLLOA@?9?$DN@   0000000180026130     libvcruntime:undname.obj
 0002:00003134       ??_C@_02FJEHGPIO@?1?$DN@   0000000180026134     libvcruntime:undname.obj
 0002:00003138       ??_C@_02FENAOKFI@?$CF?$DN@ 0000000180026138     libvcruntime:undname.obj
 0002:0000313c       ??_C@_03IKFCCPFF@?$DO?$DO?$DN@ 000000018002613c     libvcruntime:undname.obj
 0002:00003140       ??_C@_03CDNPDDLA@?$DM?$DM?$DN@ 0000000180026140     libvcruntime:undname.obj
 0002:00003144       ??_C@_02FGJGFEAB@?$CG?$DN@ 0000000180026144     libvcruntime:undname.obj
 0002:00003148       ??_C@_02DHLNPPGH@?$HM?$DN@ 0000000180026148     libvcruntime:undname.obj
 0002:0000314c       ??_C@_02MHEGNOJ@?$FO?$DN@  000000018002614c     libvcruntime:undname.obj
 0002:00003150       ??_C@_09IFPLHPGF@?$GAvftable?8@ 0000000180026150     libvcruntime:undname.obj
 0002:00003160       ??_C@_09BLBHBJP@?$GAvbtable?8@ 0000000180026160     libvcruntime:undname.obj
 0002:00003170       ??_C@_07FEEIOKP@?$GAvcall?8@ 0000000180026170     libvcruntime:undname.obj
 0002:00003178       ??_C@_08LLFFHHDJ@?$GAtypeof?8@ 0000000180026178     libvcruntime:undname.obj
 0002:00003188       ??_C@_0BF@KDPPACIK@?$GAlocal?5static?5guard?8@ 0000000180026188     libvcruntime:undname.obj
 0002:000031a0       ??_C@_08OBABFOLI@?$GAstring?8@ 00000001800261a0     libvcruntime:undname.obj
 0002:000031b0       ??_C@_0BD@JDLKDPAB@?$GAvbase?5destructor?8@ 00000001800261b0     libvcruntime:undname.obj
 0002:000031c8       ??_C@_0BN@DEGPLNFK@?$GAvector?5deleting?5destructor?8@ 00000001800261c8     libvcruntime:undname.obj
 0002:000031e8       ??_C@_0BO@OBMKPJIG@?$GAdefault?5constructor?5closure?8@ 00000001800261e8     libvcruntime:undname.obj
 0002:00003208       ??_C@_0BN@IMDCHIKM@?$GAscalar?5deleting?5destructor?8@ 0000000180026208     libvcruntime:undname.obj
 0002:00003228       ??_C@_0BO@PFGOCPJJ@?$GAvector?5constructor?5iterator?8@ 0000000180026228     libvcruntime:undname.obj
 0002:00003248       ??_C@_0BN@LFPFMEDL@?$GAvector?5destructor?5iterator?8@ 0000000180026248     libvcruntime:undname.obj
 0002:00003268       ??_C@_0CE@IKBNEHA@?$GAvector?5vbase?5constructor?5itera@ 0000000180026268     libvcruntime:undname.obj
 0002:00003290       ??_C@_0BL@NILFHHPC@?$GAvirtual?5displacement?5map?8@ 0000000180026290     libvcruntime:undname.obj
 0002:000032b0       ??_C@_0CB@JONCMFFK@?$GAeh?5vector?5constructor?5iterator@ 00000001800262b0     libvcruntime:undname.obj
 0002:000032d8       ??_C@_0CA@GCEOPDGL@?$GAeh?5vector?5destructor?5iterator?8@ 00000001800262d8     libvcruntime:undname.obj
 0002:000032f8       ??_C@_0CH@OOJPLCPH@?$GAeh?5vector?5vbase?5constructor?5it@ 00000001800262f8     libvcruntime:undname.obj
 0002:00003320       ??_C@_0BL@LLKPOHJI@?$GAcopy?5constructor?5closure?8@ 0000000180026320     libvcruntime:undname.obj
 0002:00003340       ??_C@_0BA@KBCDOMBN@?$GAudt?5returning?8@ 0000000180026340     libvcruntime:undname.obj
 0002:00003350       ??_C@_03KLGMFNMG@?$GAEH@   0000000180026350     libvcruntime:undname.obj
 0002:00003354       ??_C@_05KHLCHHI@?$GARTTI@  0000000180026354     libvcruntime:undname.obj
 0002:00003360       ??_C@_0BA@KKLDJDLB@?$GAlocal?5vftable?8@ 0000000180026360     libvcruntime:undname.obj
 0002:00003370       ??_C@_0CE@IIHCMGGL@?$GAlocal?5vftable?5constructor?5clos@ 0000000180026370     libvcruntime:undname.obj
 0002:00003394       ??_C@_06FHBGPFGH@?5new?$FL?$FN@ 0000000180026394     libvcruntime:undname.obj
 0002:000033a0       ??_C@_09LBNFPBCA@?5delete?$FL?$FN@ 00000001800263a0     libvcruntime:undname.obj
 0002:000033b0       ??_C@_0P@HJKNJFNN@?$GAomni?5callsig?8@ 00000001800263b0     libvcruntime:undname.obj
 0002:000033c0       ??_C@_0BL@CNOONJFP@?$GAplacement?5delete?5closure?8@ 00000001800263c0     libvcruntime:undname.obj
 0002:000033e0       ??_C@_0BN@CKNJLHMB@?$GAplacement?5delete?$FL?$FN?5closure?8@ 00000001800263e0     libvcruntime:undname.obj
 0002:00003400       ??_C@_0CG@CFDHKGGD@?$GAmanaged?5vector?5constructor?5ite@ 0000000180026400     libvcruntime:undname.obj
 0002:00003428       ??_C@_0CF@IMGKMJNO@?$GAmanaged?5vector?5destructor?5iter@ 0000000180026428     libvcruntime:undname.obj
 0002:00003450       ??_C@_0CG@HLDDJMAG@?$GAeh?5vector?5copy?5constructor?5ite@ 0000000180026450     libvcruntime:undname.obj
 0002:00003478       ??_C@_0CM@FCBBDIGB@?$GAeh?5vector?5vbase?5copy?5construct@ 0000000180026478     libvcruntime:undname.obj
 0002:000034a8       ??_C@_0BL@CLIPGLGB@?$GAdynamic?5initializer?5for?5?8@ 00000001800264a8     libvcruntime:undname.obj
 0002:000034c8       ??_C@_0CB@PDBIFEP@?$GAdynamic?5atexit?5destructor?5for?5@ 00000001800264c8     libvcruntime:undname.obj
 0002:000034f0       ??_C@_0CD@CGAJBKEJ@?$GAvector?5copy?5constructor?5iterat@ 00000001800264f0     libvcruntime:undname.obj
 0002:00003518       ??_C@_0CJ@GJELGAMM@?$GAvector?5vbase?5copy?5constructor?5@ 0000000180026518     libvcruntime:undname.obj
 0002:00003548       ??_C@_0CL@FGIJHLCE@?$GAmanaged?5vector?5copy?5constructo@ 0000000180026548     libvcruntime:undname.obj
 0002:00003578       ??_C@_0BM@PMGGMLDN@?$GAlocal?5static?5thread?5guard?8@ 0000000180026578     libvcruntime:undname.obj
 0002:00003598       ??_C@_0N@BDNMDMOL@operator?5?$CC?$CC?5@ 0000000180026598     libvcruntime:undname.obj
 0002:000035a8       ??_C@_0BC@GGEBGALA@operator?5co_await@ 00000001800265a8     libvcruntime:undname.obj
 0002:000035c0       ??_C@_0M@GAAIMMOH@operator?$DM?$DN?$DO@ 00000001800265c0     libvcruntime:undname.obj
 0002:000035d0       ??_C@_0BC@DAFEJGAK@?5Type?5Descriptor?8@ 00000001800265d0     libvcruntime:undname.obj
 0002:000035e8       ??_C@_0BM@LDKODKLH@?5Base?5Class?5Descriptor?5at?5?$CI@ 00000001800265e8     libvcruntime:undname.obj
 0002:00003608       ??_C@_0BD@LGICGFMM@?5Base?5Class?5Array?8@ 0000000180026608     libvcruntime:undname.obj
 0002:00003620       ??_C@_0BN@MECKDCOJ@?5Class?5Hierarchy?5Descriptor?8@ 0000000180026620     libvcruntime:undname.obj
 0002:00003640       ??_C@_0BK@CFCOFLF@?5Complete?5Object?5Locator?8@ 0000000180026640     libvcruntime:undname.obj
 0002:00003660       ??_C@_0BG@JNJLAMPM@?$GAanonymous?5namespace?8@ 0000000180026660     libvcruntime:undname.obj
 0002:00003690       ??_C@_1DM@KHCHBNEB@?$AAa?$AAp?$AAi?$AA?9?$AAm?$AAs?$AA?9?$AAw?$AAi?$AAn?$AA?9?$AAc?$AAo?$AAr?$AAe@ 0000000180026690     libvcruntime:winapi_downlevel.obj
 0002:000036d0       ??_C@_1DK@LPPGFMPP@?$AAa?$AAp?$AAi?$AA?9?$AAm?$AAs?$AA?9?$AAw?$AAi?$AAn?$AA?9?$AAc?$AAo?$AAr?$AAe@ 00000001800266d0     libvcruntime:winapi_downlevel.obj
 0002:00003710       ??_C@_1BC@GDMECMAK@?$AAk?$AAe?$AAr?$AAn?$AAe?$AAl?$AA3?$AA2@ 0000000180026710     libvcruntime:winapi_downlevel.obj
 0002:00003728       ??_C@_1BA@PFFKHIOG@?$AAa?$AAp?$AAi?$AA?9?$AAm?$AAs?$AA?9@ 0000000180026728     libvcruntime:winapi_downlevel.obj
 0002:00003740       ??_C@_08KNHFBNJ@FlsAlloc@  0000000180026740     libvcruntime:winapi_downlevel.obj
 0002:00003758       ??_C@_07PEJMOBNF@FlsFree@  0000000180026758     libvcruntime:winapi_downlevel.obj
 0002:00003768       ??_C@_0M@GDNOONDI@FlsGetValue@ 0000000180026768     libvcruntime:winapi_downlevel.obj
 0002:00003780       ??_C@_0M@JCPCPOEF@FlsSetValue@ 0000000180026780     libvcruntime:winapi_downlevel.obj
 0002:00003798       ??_C@_0BM@HCFOFFN@InitializeCriticalSectionEx@ 0000000180026798     libvcruntime:winapi_downlevel.obj
 0002:00003930       ?format_validation_lookup_table_spectre@__crt_stdio_output@@3V?$spectre_mitigated_lookup_table@Ustate_transition_pair@__crt_stdio_output@@$0IA@@1@B 0000000180026930     libucrt:output.obj
 0002:00003d30       ??_C@_1O@CEDCILHN@?$AA?$CI?$AAn?$AAu?$AAl?$AAl?$AA?$CJ@ 0000000180026d30     libucrt:output.obj
 0002:00003d40       ??_C@_06OJHGLDPL@?$CInull?$CJ@ 0000000180026d40     libucrt:output.obj
 0002:00003d50       __acrt_exception_action_table 0000000180026d50     libucrt:exception_filter.obj
 0002:00003e10       __acrt_signal_action_table_count 0000000180026e10     libucrt:exception_filter.obj
 0002:00003e18       __acrt_signal_action_first_fpe_index 0000000180026e18     libucrt:exception_filter.obj
 0002:00003e20       __acrt_signal_action_fpe_count 0000000180026e20     libucrt:exception_filter.obj
 0002:00003e28       ??_C@_1BI@BGOHAHKC@?$AAm?$AAs?$AAc?$AAo?$AAr?$AAe?$AAe?$AA?4?$AAd?$AAl?$AAl@ 0000000180026e28     libucrt:exit.obj
 0002:00003e40       ??_C@_0P@MIGLKIOC@CorExitProcess@ 0000000180026e40     libucrt:exit.obj
 0002:00003ff0       ??_C@_1EA@JGEFHKEI@?$AAa?$AAp?$AAi?$AA?9?$AAm?$AAs?$AA?9?$AAw?$AAi?$AAn?$AA?9?$AAc?$AAo?$AAr?$AAe@ 0000000180026ff0     libucrt:winapi_thunks.obj
 0002:00004030       ??_C@_1DI@IJCEHOCB@?$AAa?$AAp?$AAi?$AA?9?$AAm?$AAs?$AA?9?$AAw?$AAi?$AAn?$AA?9?$AAc?$AAo?$AAr?$AAe@ 0000000180027030     libucrt:winapi_thunks.obj
 0002:00004070       ??_C@_1EI@MPIAOHOC@?$AAa?$AAp?$AAi?$AA?9?$AAm?$AAs?$AA?9?$AAw?$AAi?$AAn?$AA?9?$AAc?$AAo?$AAr?$AAe@ 0000000180027070     libucrt:winapi_thunks.obj
 0002:000040c0       ??_C@_1FK@FPHCKFIE@?$AAa?$AAp?$AAi?$AA?9?$AAm?$AAs?$AA?9?$AAw?$AAi?$AAn?$AA?9?$AAc?$AAo?$AAr?$AAe@ 00000001800270c0     libucrt:winapi_thunks.obj
 0002:00004120       ??_C@_1EM@DILCGIIO@?$AAa?$AAp?$AAi?$AA?9?$AAm?$AAs?$AA?9?$AAw?$AAi?$AAn?$AA?9?$AAc?$AAo?$AAr?$AAe@ 0000000180027120     libucrt:winapi_thunks.obj
 0002:00004170       ??_C@_1DM@LNCGDDPN@?$AAa?$AAp?$AAi?$AA?9?$AAm?$AAs?$AA?9?$AAw?$AAi?$AAn?$AA?9?$AAc?$AAo?$AAr?$AAe@ 0000000180027170     libucrt:winapi_thunks.obj
 0002:000041b0       ??_C@_1DO@FPAPJEMD@?$AAa?$AAp?$AAi?$AA?9?$AAm?$AAs?$AA?9?$AAw?$AAi?$AAn?$AA?9?$AAc?$AAo?$AAr?$AAe@ 00000001800271b0     libucrt:winapi_thunks.obj
 0002:000041f0       ??_C@_1DK@NDHNAHIO@?$AAa?$AAp?$AAi?$AA?9?$AAm?$AAs?$AA?9?$AAw?$AAi?$AAn?$AA?9?$AAc?$AAo?$AAr?$AAe@ 00000001800271f0     libucrt:winapi_thunks.obj
 0002:00004230       ??_C@_1DM@KGHDGBCM@?$AAa?$AAp?$AAi?$AA?9?$AAm?$AAs?$AA?9?$AAw?$AAi?$AAn?$AA?9?$AAc?$AAo?$AAr?$AAe@ 0000000180027230     libucrt:winapi_thunks.obj
 0002:00004270       ??_C@_1EO@IJIOEFOH@?$AAa?$AAp?$AAi?$AA?9?$AAm?$AAs?$AA?9?$AAw?$AAi?$AAn?$AA?9?$AAr?$AAt?$AAc?$AAo@ 0000000180027270     libucrt:winapi_thunks.obj
 0002:000042c0       ??_C@_1FG@HHGEKANL@?$AAa?$AAp?$AAi?$AA?9?$AAm?$AAs?$AA?9?$AAw?$AAi?$AAn?$AA?9?$AAs?$AAe?$AAc?$AAu@ 00000001800272c0     libucrt:winapi_thunks.obj
 0002:00004320       ??_C@_1EG@DBIOJECG@?$AAe?$AAx?$AAt?$AA?9?$AAm?$AAs?$AA?9?$AAw?$AAi?$AAn?$AA?9?$AAn?$AAt?$AAu?$AAs@ 0000000180027320     libucrt:winapi_thunks.obj
 0002:00004370       ??_C@_1EO@FIHMJCLF@?$AAe?$AAx?$AAt?$AA?9?$AAm?$AAs?$AA?9?$AAw?$AAi?$AAn?$AA?9?$AAn?$AAt?$AAu?$AAs@ 0000000180027370     libucrt:winapi_thunks.obj
 0002:000043c0       ??_C@_1BC@DNHGCMLG@?$AAa?$AAd?$AAv?$AAa?$AAp?$AAi?$AA3?$AA2@ 00000001800273c0     libucrt:winapi_thunks.obj
 0002:000043d8       ??_C@_1M@OAIMIKLP@?$AAn?$AAt?$AAd?$AAl?$AAl@ 00000001800273d8     libucrt:winapi_thunks.obj
 0002:000043f0       ??_C@_1EG@DPGNFKGC@?$AAa?$AAp?$AAi?$AA?9?$AAm?$AAs?$AA?9?$AAw?$AAi?$AAn?$AA?9?$AAa?$AAp?$AAp?$AAm@ 00000001800273f0     libucrt:winapi_thunks.obj
 0002:00004438       ??_C@_1O@BCCLBEOE@?$AAu?$AAs?$AAe?$AAr?$AA3?$AA2@ 0000000180027438     libucrt:winapi_thunks.obj
 0002:00004448       ??_C@_1BA@IAIFMGEF@?$AAe?$AAx?$AAt?$AA?9?$AAm?$AAs?$AA?9@ 0000000180027448     libucrt:winapi_thunks.obj
 0002:00004460       ??_C@_0BA@FHFNEAED@AreFileApisANSI@ 0000000180027460     libucrt:winapi_thunks.obj
 0002:000044a0       ??_C@_0O@KKBNKAPF@LCMapStringEx@ 00000001800274a0     libucrt:winapi_thunks.obj
 0002:000044b8       ??_C@_0BB@HBDEELFH@LocaleNameToLCID@ 00000001800274b8     libucrt:winapi_thunks.obj
 0002:000044d0       ??_C@_0CF@OJOFEIGO@AppPolicyGetProcessTerminationM@ 00000001800274d0     libucrt:winapi_thunks.obj
 0002:00004500       ??_C@_0BI@BKLFFAPO@SetThreadStackGuarantee@ 0000000180027500     libucrt:winapi_thunks.obj
 0002:000045a0       ??_C@_03OEIAHPBN@INF@      00000001800275a0     libucrt:cvt.obj
 0002:000045a4       ??_C@_03OJHLLCGB@inf@      00000001800275a4     libucrt:cvt.obj
 0002:000045a8       ??_C@_03LKNCIKJB@NAN@      00000001800275a8     libucrt:cvt.obj
 0002:000045ac       ??_C@_03LHCJEHON@nan@      00000001800275ac     libucrt:cvt.obj
 0002:000045b0       ??_C@_09OFJJIMPC@NAN?$CISNAN?$CJ@ 00000001800275b0     libucrt:cvt.obj
 0002:000045c0       ??_C@_09IPFBKMDL@nan?$CIsnan?$CJ@ 00000001800275c0     libucrt:cvt.obj
 0002:000045d0       ??_C@_08IKHNHAJ@NAN?$CIIND?$CJ@ 00000001800275d0     libucrt:cvt.obj
 0002:000045e0       ??_C@_08OFCDMILK@nan?$CIind?$CJ@ 00000001800275e0     libucrt:cvt.obj
 0002:000045ec       ??_C@_05KLBDPFGC@e?$CL000@ 00000001800275ec     libucrt:cvt.obj
 0002:00004600       __lc_time_c                0000000180027600     libucrt:nlsdata.obj
 0002:000048c0       ??_C@_03KOEHGMDN@Sun@      00000001800278c0     libucrt:nlsdata.obj
 0002:000048c4       ??_C@_03PDAGKDH@Mon@       00000001800278c4     libucrt:nlsdata.obj
 0002:000048c8       ??_C@_03NAGEINEP@Tue@      00000001800278c8     libucrt:nlsdata.obj
 0002:000048cc       ??_C@_03MHOMLAJA@Wed@      00000001800278cc     libucrt:nlsdata.obj
 0002:000048d0       ??_C@_03IOFIKPDN@Thu@      00000001800278d0     libucrt:nlsdata.obj
 0002:000048d4       ??_C@_03IDIOELNC@Fri@      00000001800278d4     libucrt:nlsdata.obj
 0002:000048d8       ??_C@_03FEFJNEK@Sat@       00000001800278d8     libucrt:nlsdata.obj
 0002:000048dc       ??_C@_06OOPIFAJ@Sunday@    00000001800278dc     libucrt:nlsdata.obj
 0002:000048e4       ??_C@_06JLEDEDGH@Monday@   00000001800278e4     libucrt:nlsdata.obj
 0002:000048f0       ??_C@_07BAAGCFCM@Tuesday@  00000001800278f0     libucrt:nlsdata.obj
 0002:000048f8       ??_C@_09DLIGFAKA@Wednesday@ 00000001800278f8     libucrt:nlsdata.obj
 0002:00004908       ??_C@_08HACCIKIA@Thursday@ 0000000180027908     libucrt:nlsdata.obj
 0002:00004914       ??_C@_06JECMNKMI@Friday@   0000000180027914     libucrt:nlsdata.obj
 0002:00004920       ??_C@_08INBOOONO@Saturday@ 0000000180027920     libucrt:nlsdata.obj
 0002:0000492c       ??_C@_03JIHJHPIE@Jan@      000000018002792c     libucrt:nlsdata.obj
 0002:00004930       ??_C@_03HJBDCHOM@Feb@      0000000180027930     libucrt:nlsdata.obj
 0002:00004934       ??_C@_03ODNJBKGA@Mar@      0000000180027934     libucrt:nlsdata.obj
 0002:00004938       ??_C@_03LEOLGMJP@Apr@      0000000180027938     libucrt:nlsdata.obj
 0002:0000493c       ??_C@_03CNMDKL@May@        000000018002793c     libucrt:nlsdata.obj
 0002:00004940       ??_C@_03IDFGHECI@Jun@      0000000180027940     libucrt:nlsdata.obj
 0002:00004944       ??_C@_03LBGABGKK@Jul@      0000000180027944     libucrt:nlsdata.obj
 0002:00004948       ??_C@_03IFJFEIGA@Aug@      0000000180027948     libucrt:nlsdata.obj
 0002:0000494c       ??_C@_03GGCAPAJC@Sep@      000000018002794c     libucrt:nlsdata.obj
 0002:00004950       ??_C@_03BMAOKBAD@Oct@      0000000180027950     libucrt:nlsdata.obj
 0002:00004954       ??_C@_03JPJOFNIA@Nov@      0000000180027954     libucrt:nlsdata.obj
 0002:00004958       ??_C@_03MKABNOCG@Dec@      0000000180027958     libucrt:nlsdata.obj
 0002:00004960       ??_C@_07CGJPFGJA@January@  0000000180027960     libucrt:nlsdata.obj
 0002:00004968       ??_C@_08GNJGEPFN@February@ 0000000180027968     libucrt:nlsdata.obj
 0002:00004974       ??_C@_05HPCKOFNC@March@    0000000180027974     libucrt:nlsdata.obj
 0002:0000497c       ??_C@_05DMJDNLEJ@April@    000000018002797c     libucrt:nlsdata.obj
 0002:00004984       ??_C@_04CNLMGBGM@June@     0000000180027984     libucrt:nlsdata.obj
 0002:0000498c       ??_C@_04MIEPOIFP@July@     000000018002798c     libucrt:nlsdata.obj
 0002:00004994       ??_C@_06LBBHFDDG@August@   0000000180027994     libucrt:nlsdata.obj
 0002:000049a0       ??_C@_09BHHEALKD@September@ 00000001800279a0     libucrt:nlsdata.obj
 0002:000049b0       ??_C@_07JJNFCEND@October@  00000001800279b0     libucrt:nlsdata.obj
 0002:000049b8       ??_C@_08HCHEGEOA@November@ 00000001800279b8     libucrt:nlsdata.obj
 0002:000049c8       ??_C@_08EDHMEBNP@December@ 00000001800279c8     libucrt:nlsdata.obj
 0002:000049d4       ??_C@_02DEDBPAFC@AM@       00000001800279d4     libucrt:nlsdata.obj
 0002:000049d8       ??_C@_02CJNFDJBF@PM@       00000001800279d8     libucrt:nlsdata.obj
 0002:000049e0       ??_C@_08BPBNCDIB@MM?1dd?1yy@ 00000001800279e0     libucrt:nlsdata.obj
 0002:000049f0       ??_C@_0BE@CKGJFCPC@dddd?0?5MMMM?5dd?0?5yyyy@ 00000001800279f0     libucrt:nlsdata.obj
 0002:00004a08       ??_C@_08JCCMCCIL@HH?3mm?3ss@ 0000000180027a08     libucrt:nlsdata.obj
 0002:00004a18       ??_C@_17MBGCMIPB@?$AAS?$AAu?$AAn@ 0000000180027a18     libucrt:nlsdata.obj
 0002:00004a20       ??_C@_17KBOMKBF@?$AAM?$AAo?$AAn@ 0000000180027a20     libucrt:nlsdata.obj
 0002:00004a28       ??_C@_17BMKGEGOJ@?$AAT?$AAu?$AAe@ 0000000180027a28     libucrt:nlsdata.obj
 0002:00004a30       ??_C@_17CJEDCEPE@?$AAW?$AAe?$AAd@ 0000000180027a30     libucrt:nlsdata.obj
 0002:00004a38       ??_C@_17PDPHAADD@?$AAT?$AAh?$AAu@ 0000000180027a38     libucrt:nlsdata.obj
 0002:00004a40       ??_C@_17HFOLPPLP@?$AAF?$AAr?$AAi@ 0000000180027a40     libucrt:nlsdata.obj
 0002:00004a48       ??_C@_17GGIBDPIH@?$AAS?$AAa?$AAt@ 0000000180027a48     libucrt:nlsdata.obj
 0002:00004a50       ??_C@_1O@IHNHDHPB@?$AAS?$AAu?$AAn?$AAd?$AAa?$AAy@ 0000000180027a50     libucrt:nlsdata.obj
 0002:00004a60       ??_C@_1O@MMNBFLIA@?$AAM?$AAo?$AAn?$AAd?$AAa?$AAy@ 0000000180027a60     libucrt:nlsdata.obj
 0002:00004a70       ??_C@_1BA@ENFBFFEK@?$AAT?$AAu?$AAe?$AAs?$AAd?$AAa?$AAy@ 0000000180027a70     libucrt:nlsdata.obj
 0002:00004a80       ??_C@_1BE@EBOGMDOH@?$AAW?$AAe?$AAd?$AAn?$AAe?$AAs?$AAd?$AAa?$AAy@ 0000000180027a80     libucrt:nlsdata.obj
 0002:00004a98       ??_C@_1BC@HHMNLIHE@?$AAT?$AAh?$AAu?$AAr?$AAs?$AAd?$AAa?$AAy@ 0000000180027a98     libucrt:nlsdata.obj
 0002:00004ab0       ??_C@_1O@PDICJHAG@?$AAF?$AAr?$AAi?$AAd?$AAa?$AAy@ 0000000180027ab0     libucrt:nlsdata.obj
 0002:00004ac0       ??_C@_1BC@ENMNNPAJ@?$AAS?$AAa?$AAt?$AAu?$AAr?$AAd?$AAa?$AAy@ 0000000180027ac0     libucrt:nlsdata.obj
 0002:00004ad8       ??_C@_17DKNBKCHM@?$AAJ?$AAa?$AAn@ 0000000180027ad8     libucrt:nlsdata.obj
 0002:00004ae0       ??_C@_17LMDJEKJN@?$AAF?$AAe?$AAb@ 0000000180027ae0     libucrt:nlsdata.obj
 0002:00004ae8       ??_C@_17CKNLEDEC@?$AAM?$AAa?$AAr@ 0000000180027ae8     libucrt:nlsdata.obj
 0002:00004af0       ??_C@_17LFPOIHDD@?$AAA?$AAp?$AAr@ 0000000180027af0     libucrt:nlsdata.obj
 0002:00004af8       ??_C@_17PNNKMEED@?$AAM?$AAa?$AAy@ 0000000180027af8     libucrt:nlsdata.obj
 0002:00004b00       ??_C@_17KCJGOCPB@?$AAJ?$AAu?$AAn@ 0000000180027b00     libucrt:nlsdata.obj
 0002:00004b08       ??_C@_17IJPCKHK@?$AAJ?$AAu?$AAl@ 0000000180027b08     libucrt:nlsdata.obj
 0002:00004b10       ??_C@_17ICPELBCN@?$AAA?$AAu?$AAg@ 0000000180027b10     libucrt:nlsdata.obj
 0002:00004b18       ??_C@_17HCHCOKMG@?$AAS?$AAe?$AAp@ 0000000180027b18     libucrt:nlsdata.obj
 0002:00004b20       ??_C@_17FNLKOI@?$AAO?$AAc?$AAt@ 0000000180027b20     libucrt:nlsdata.obj
 0002:00004b28       ??_C@_17BBDMLCIG@?$AAN?$AAo?$AAv@ 0000000180027b28     libucrt:nlsdata.obj
 0002:00004b30       ??_C@_17EGKACKIF@?$AAD?$AAe?$AAc@ 0000000180027b30     libucrt:nlsdata.obj
 0002:00004b38       ??_C@_1BA@EFMEIEBA@?$AAJ?$AAa?$AAn?$AAu?$AAa?$AAr?$AAy@ 0000000180027b38     libucrt:nlsdata.obj
 0002:00004b48       ??_C@_1BC@JGDDFFAM@?$AAF?$AAe?$AAb?$AAr?$AAu?$AAa?$AAr?$AAy@ 0000000180027b48     libucrt:nlsdata.obj
 0002:00004b60       ??_C@_1M@IKEENEDF@?$AAM?$AAa?$AAr?$AAc?$AAh@ 0000000180027b60     libucrt:nlsdata.obj
 0002:00004b70       ??_C@_1M@GJNLMHFD@?$AAA?$AAp?$AAr?$AAi?$AAl@ 0000000180027b70     libucrt:nlsdata.obj
 0002:00004b80       ??_C@_19EPFLPGAP@?$AAJ?$AAu?$AAn?$AAe@ 0000000180027b80     libucrt:nlsdata.obj
 0002:00004b90       ??_C@_19BIFMLPCD@?$AAJ?$AAu?$AAl?$AAy@ 0000000180027b90     libucrt:nlsdata.obj
 0002:00004ba0       ??_C@_1O@PAHLKOAC@?$AAA?$AAu?$AAg?$AAu?$AAs?$AAt@ 0000000180027ba0     libucrt:nlsdata.obj
 0002:00004bb0       ??_C@_1BE@DKAAMBJL@?$AAS?$AAe?$AAp?$AAt?$AAe?$AAm?$AAb?$AAe?$AAr@ 0000000180027bb0     libucrt:nlsdata.obj
 0002:00004bc8       ??_C@_1BA@EPANDLNG@?$AAO?$AAc?$AAt?$AAo?$AAb?$AAe?$AAr@ 0000000180027bc8     libucrt:nlsdata.obj
 0002:00004bd8       ??_C@_1BC@BGLIFPF@?$AAN?$AAo?$AAv?$AAe?$AAm?$AAb?$AAe?$AAr@ 0000000180027bd8     libucrt:nlsdata.obj
 0002:00004bf0       ??_C@_1BC@FEMKIFH@?$AAD?$AAe?$AAc?$AAe?$AAm?$AAb?$AAe?$AAr@ 0000000180027bf0     libucrt:nlsdata.obj
 0002:00004c04       ??_C@_15ODEHAHHF@?$AAA?$AAM@ 0000000180027c04     libucrt:nlsdata.obj
 0002:00004c0c       ??_C@_15CLMNNGEL@?$AAP?$AAM@ 0000000180027c0c     libucrt:nlsdata.obj
 0002:00004c18       ??_C@_1BC@IEBCMHCM@?$AAM?$AAM?$AA?1?$AAd?$AAd?$AA?1?$AAy?$AAy@ 0000000180027c18     libucrt:nlsdata.obj
 0002:00004c30       ??_C@_1CI@KNAKOEBC@?$AAd?$AAd?$AAd?$AAd?$AA?0?$AA?5?$AAM?$AAM?$AAM?$AAM?$AA?5?$AAd?$AAd?$AA?0?$AA?5@ 0000000180027c30     libucrt:nlsdata.obj
 0002:00004c58       ??_C@_1BC@GDGBMEMK@?$AAH?$AAH?$AA?3?$AAm?$AAm?$AA?3?$AAs?$AAs@ 0000000180027c58     libucrt:nlsdata.obj
 0002:00004c70       ??_C@_1M@BMHNFIME@?$AAe?$AAn?$AA?9?$AAU?$AAS@ 0000000180027c70     libucrt:nlsdata.obj
 0002:00004ca0       ??_C@_1M@HPNHIDJI@?$AAj?$AAa?$AA?9?$AAJ?$AAP@ 0000000180027ca0     libucrt:mbctype.obj
 0002:00004cb0       ??_C@_1M@BIBDDEMK@?$AAz?$AAh?$AA?9?$AAC?$AAN@ 0000000180027cb0     libucrt:mbctype.obj
 0002:00004cc0       ??_C@_1M@JLOOOEGK@?$AAk?$AAo?$AA?9?$AAK?$AAR@ 0000000180027cc0     libucrt:mbctype.obj
 0002:00004cd0       ??_C@_1M@CLNBBOPM@?$AAz?$AAh?$AA?9?$AAT?$AAW@ 0000000180027cd0     libucrt:mbctype.obj
 0002:00004ce0       __newctype                 0000000180027ce0     libucrt:ctype.obj
 0002:00004fe0       __newclmap                 0000000180027fe0     libucrt:ctype.obj
 0002:00005160       __newcumap                 0000000180028160     libucrt:ctype.obj
 0002:000052e0       _wctype                    00000001800282e0     libucrt:ctype.obj
 0002:00006330       ??_C@_15EMKDOKLE@?$AAa?$AAr@ 0000000180029330     libucrt:lcidtoname_downlevel.obj
 0002:00006338       ??_C@_15KNPADPLH@?$AAb?$AAg@ 0000000180029338     libucrt:lcidtoname_downlevel.obj
 0002:00006340       ??_C@_15EDMHLDMO@?$AAc?$AAa@ 0000000180029340     libucrt:lcidtoname_downlevel.obj
 0002:00006348       ??_C@_1O@BPEAJADD@?$AAz?$AAh?$AA?9?$AAC?$AAH?$AAS@ 0000000180029348     libucrt:lcidtoname_downlevel.obj
 0002:00006358       ??_C@_15LJNHCMNK@?$AAc?$AAs@ 0000000180029358     libucrt:lcidtoname_downlevel.obj
 0002:00006360       ??_C@_15FOMCIDHG@?$AAd?$AAa@ 0000000180029360     libucrt:lcidtoname_downlevel.obj
 0002:00006368       ??_C@_15NBKABECB@?$AAd?$AAe@ 0000000180029368     libucrt:lcidtoname_downlevel.obj
 0002:00006370       ??_C@_15GHPEIIAO@?$AAe?$AAl@ 0000000180029370     libucrt:lcidtoname_downlevel.obj
 0002:00006378       ??_C@_15MNPNEAIF@?$AAe?$AAn@ 0000000180029378     libucrt:lcidtoname_downlevel.obj
 0002:00006380       ??_C@_15GPIOMPMH@?$AAe?$AAs@ 0000000180029380     libucrt:lcidtoname_downlevel.obj
 0002:00006388       ??_C@_15NGLOAKJC@?$AAf?$AAi@ 0000000180029388     libucrt:lcidtoname_downlevel.obj
 0002:00006390       ??_C@_15FBKGNKAM@?$AAf?$AAr@ 0000000180029390     libucrt:lcidtoname_downlevel.obj
 0002:00006398       ??_C@_15KGGCNEFK@?$AAh?$AAe@ 0000000180029398     libucrt:lcidtoname_downlevel.obj
 0002:000063a0       ??_C@_15PGHLIDMF@?$AAh?$AAu@ 00000001800293a0     libucrt:lcidtoname_downlevel.obj
 0002:000063a8       ??_C@_15BIEMAPLM@?$AAi?$AAs@ 00000001800293a8     libucrt:lcidtoname_downlevel.obj
 0002:000063b0       ??_C@_15IFJLDHAF@?$AAi?$AAt@ 00000001800293b0     libucrt:lcidtoname_downlevel.obj
 0002:000063b8       ??_C@_15GEMIOCAG@?$AAj?$AAa@ 00000001800293b8     libucrt:lcidtoname_downlevel.obj
 0002:000063c0       ??_C@_15EPELEGJA@?$AAk?$AAo@ 00000001800293c0     libucrt:lcidtoname_downlevel.obj
 0002:000063c8       ??_C@_15NDDHIMN@?$AAn?$AAl@ 00000001800293c8     libucrt:lcidtoname_downlevel.obj
 0002:000063d0       ??_C@_15BPIGNHCD@?$AAn?$AAo@ 00000001800293d0     libucrt:lcidtoname_downlevel.obj
 0002:000063d8       ??_C@_15DEOPBLCG@?$AAp?$AAl@ 00000001800293d8     libucrt:lcidtoname_downlevel.obj
 0002:000063e0       ??_C@_15KBECGEFG@?$AAp?$AAt@ 00000001800293e0     libucrt:lcidtoname_downlevel.obj
 0002:000063e8       ??_C@_15GLJCBFMD@?$AAr?$AAo@ 00000001800293e8     libucrt:lcidtoname_downlevel.obj
 0002:000063f0       ??_C@_15FEDGKCDI@?$AAr?$AAu@ 00000001800293f0     libucrt:lcidtoname_downlevel.obj
 0002:000063f8       ??_C@_15GLKMLLHM@?$AAh?$AAr@ 00000001800293f8     libucrt:lcidtoname_downlevel.obj
 0002:00006400       ??_C@_15CPKMFBDB@?$AAs?$AAk@ 0000000180029400     libucrt:lcidtoname_downlevel.obj
 0002:00006408       ??_C@_15BAAIOGMK@?$AAs?$AAq@ 0000000180029408     libucrt:lcidtoname_downlevel.obj
 0002:00006410       ??_C@_15INNPNOHD@?$AAs?$AAv@ 0000000180029410     libucrt:lcidtoname_downlevel.obj
 0002:00006418       ??_C@_15CABMMOGH@?$AAt?$AAh@ 0000000180029418     libucrt:lcidtoname_downlevel.obj
 0002:00006420       ??_C@_15BPLIHJJM@?$AAt?$AAr@ 0000000180029420     libucrt:lcidtoname_downlevel.obj
 0002:00006428       ??_C@_15NEOEKKDJ@?$AAu?$AAr@ 0000000180029428     libucrt:lcidtoname_downlevel.obj
 0002:00006430       ??_C@_15NFICGAJK@?$AAi?$AAd@ 0000000180029430     libucrt:lcidtoname_downlevel.obj
 0002:00006438       ??_C@_15PJPFLCCM@?$AAu?$AAk@ 0000000180029438     libucrt:lcidtoname_downlevel.obj
 0002:00006440       ??_C@_15HPJPHDM@?$AAb?$AAe@ 0000000180029440     libucrt:lcidtoname_downlevel.obj
 0002:00006448       ??_C@_15LCHLGJII@?$AAs?$AAl@ 0000000180029448     libucrt:lcidtoname_downlevel.obj
 0002:00006450       ??_C@_15PCFJPHHO@?$AAe?$AAt@ 0000000180029450     libucrt:lcidtoname_downlevel.obj
 0002:00006458       ??_C@_15HPFPGODN@?$AAl?$AAv@ 0000000180029458     libucrt:lcidtoname_downlevel.obj
 0002:00006460       ??_C@_15NFFGKGLG@?$AAl?$AAt@ 0000000180029460     libucrt:lcidtoname_downlevel.obj
 0002:00006468       ??_C@_15BDAKCCHN@?$AAf?$AAa@ 0000000180029468     libucrt:lcidtoname_downlevel.obj
 0002:00006470       ??_C@_15NFGIAIAJ@?$AAv?$AAi@ 0000000180029470     libucrt:lcidtoname_downlevel.obj
 0002:00006478       ??_C@_15LMKNDMHN@?$AAh?$AAy@ 0000000180029478     libucrt:lcidtoname_downlevel.obj
 0002:00006480       ??_C@_15IJBHMCFL@?$AAa?$AAz@ 0000000180029480     libucrt:lcidtoname_downlevel.obj
 0002:00006488       ??_C@_15EKOFJABL@?$AAe?$AAu@ 0000000180029488     libucrt:lcidtoname_downlevel.obj
 0002:00006490       ??_C@_15BGHADCNK@?$AAm?$AAk@ 0000000180029490     libucrt:lcidtoname_downlevel.obj
 0002:00006498       ??_C@_15JDNICKHM@?$AAa?$AAf@ 0000000180029498     libucrt:lcidtoname_downlevel.obj
 0002:000064a0       ??_C@_15KPJEDBKD@?$AAk?$AAa@ 00000001800294a0     libucrt:lcidtoname_downlevel.obj
 0002:000064a8       ??_C@_15PDNFFFEO@?$AAf?$AAo@ 00000001800294a8     libucrt:lcidtoname_downlevel.obj
 0002:000064b0       ??_C@_15OMLEGLOC@?$AAh?$AAi@ 00000001800294b0     libucrt:lcidtoname_downlevel.obj
 0002:000064b8       ??_C@_15IDNNENKK@?$AAm?$AAs@ 00000001800294b8     libucrt:lcidtoname_downlevel.obj
 0002:000064c0       ??_C@_15MACJNBMH@?$AAk?$AAk@ 00000001800294c0     libucrt:lcidtoname_downlevel.obj
 0002:000064c8       ??_C@_15DKDJEOND@?$AAk?$AAy@ 00000001800294c8     libucrt:lcidtoname_downlevel.obj
 0002:000064d0       ??_C@_15DFGDLJBG@?$AAs?$AAw@ 00000001800294d0     libucrt:lcidtoname_downlevel.obj
 0002:000064d8       ??_C@_15BBFAICNG@?$AAu?$AAz@ 00000001800294d8     libucrt:lcidtoname_downlevel.obj
 0002:000064e0       ??_C@_15DKNDCGEA@?$AAt?$AAt@ 00000001800294e0     libucrt:lcidtoname_downlevel.obj
 0002:000064e8       ??_C@_15MGIFMDPL@?$AAp?$AAa@ 00000001800294e8     libucrt:lcidtoname_downlevel.obj
 0002:000064f0       ??_C@_15HCNDBBA@?$AAg?$AAu@ 00000001800294f0     libucrt:lcidtoname_downlevel.obj
 0002:000064f8       ??_C@_15FNBEIBON@?$AAt?$AAa@ 00000001800294f8     libucrt:lcidtoname_downlevel.obj
 0002:00006500       ??_C@_15NCHGBGLK@?$AAt?$AAe@ 0000000180029500     libucrt:lcidtoname_downlevel.obj
 0002:00006508       ??_C@_15PHPHCBPF@?$AAk?$AAn@ 0000000180029508     libucrt:lcidtoname_downlevel.obj
 0002:00006510       ??_C@_15DLGBCKMP@?$AAm?$AAr@ 0000000180029510     libucrt:lcidtoname_downlevel.obj
 0002:00006518       ??_C@_15EABBLBFF@?$AAs?$AAa@ 0000000180029518     libucrt:lcidtoname_downlevel.obj
 0002:00006520       ??_C@_15CBKOMCOI@?$AAm?$AAn@ 0000000180029520     libucrt:lcidtoname_downlevel.obj
 0002:00006528       ??_C@_15CKDMCJAF@?$AAg?$AAl@ 0000000180029528     libucrt:lcidtoname_downlevel.obj
 0002:00006530       ??_C@_17CNJFBPG@?$AAk?$AAo?$AAk@ 0000000180029530     libucrt:lcidtoname_downlevel.obj
 0002:00006538       ??_C@_17FFBJICPL@?$AAs?$AAy?$AAr@ 0000000180029538     libucrt:lcidtoname_downlevel.obj
 0002:00006540       ??_C@_17KPNDCPAF@?$AAd?$AAi?$AAv@ 0000000180029540     libucrt:lcidtoname_downlevel.obj
 0002:00006548       ??_C@_1M@OKAHONE@?$AAa?$AAr?$AA?9?$AAS?$AAA@ 0000000180029548     libucrt:lcidtoname_downlevel.obj
 0002:00006558       ??_C@_1M@FFFIGIGK@?$AAb?$AAg?$AA?9?$AAB?$AAG@ 0000000180029558     libucrt:lcidtoname_downlevel.obj
 0002:00006568       ??_C@_1M@BJNKEDC@?$AAc?$AAa?$AA?9?$AAE?$AAS@ 0000000180029568     libucrt:lcidtoname_downlevel.obj
 0002:00006578       ??_C@_1M@IJJHFJHA@?$AAc?$AAs?$AA?9?$AAC?$AAZ@ 0000000180029578     libucrt:lcidtoname_downlevel.obj
 0002:00006588       ??_C@_1M@CLPEOBGI@?$AAd?$AAa?$AA?9?$AAD?$AAK@ 0000000180029588     libucrt:lcidtoname_downlevel.obj
 0002:00006598       ??_C@_1M@MCMADGCB@?$AAd?$AAe?$AA?9?$AAD?$AAE@ 0000000180029598     libucrt:lcidtoname_downlevel.obj
 0002:000065a8       ??_C@_1M@OOCKEMAM@?$AAe?$AAl?$AA?9?$AAG?$AAR@ 00000001800295a8     libucrt:lcidtoname_downlevel.obj
 0002:000065b8       ??_C@_1M@DDNJFGID@?$AAf?$AAi?$AA?9?$AAF?$AAI@ 00000001800295b8     libucrt:lcidtoname_downlevel.obj
 0002:000065c8       ??_C@_1M@GLIPPMAC@?$AAf?$AAr?$AA?9?$AAF?$AAR@ 00000001800295c8     libucrt:lcidtoname_downlevel.obj
 0002:000065d8       ??_C@_1M@GFMCHPE@?$AAh?$AAe?$AA?9?$AAI?$AAL@ 00000001800295d8     libucrt:lcidtoname_downlevel.obj
 0002:000065e8       ??_C@_1M@MHLPGNKM@?$AAh?$AAu?$AA?9?$AAH?$AAU@ 00000001800295e8     libucrt:lcidtoname_downlevel.obj
 0002:000065f8       ??_C@_1M@LPDDNNPN@?$AAi?$AAs?$AA?9?$AAI?$AAS@ 00000001800295f8     libucrt:lcidtoname_downlevel.obj
 0002:00006608       ??_C@_1M@MADIPODN@?$AAi?$AAt?$AA?9?$AAI?$AAT@ 0000000180029608     libucrt:lcidtoname_downlevel.obj
 0002:00006618       ??_C@_1M@IHBJJGG@?$AAn?$AAl?$AA?9?$AAN?$AAL@ 0000000180029618     libucrt:lcidtoname_downlevel.obj
 0002:00006628       ??_C@_1M@EANAGDL@?$AAn?$AAb?$AA?9?$AAN?$AAO@ 0000000180029628     libucrt:lcidtoname_downlevel.obj
 0002:00006638       ??_C@_1M@NEIEMEGP@?$AAp?$AAl?$AA?9?$AAP?$AAL@ 0000000180029638     libucrt:lcidtoname_downlevel.obj
 0002:00006648       ??_C@_1M@BOCFIGEP@?$AAp?$AAt?$AA?9?$AAB?$AAR@ 0000000180029648     libucrt:lcidtoname_downlevel.obj
 0002:00006658       ??_C@_1M@IMPFOPBG@?$AAr?$AAo?$AA?9?$AAR?$AAO@ 0000000180029658     libucrt:lcidtoname_downlevel.obj
 0002:00006668       ??_C@_1M@IDNNEJMM@?$AAr?$AAu?$AA?9?$AAR?$AAU@ 0000000180029668     libucrt:lcidtoname_downlevel.obj
 0002:00006678       ??_C@_1M@LILEEOGM@?$AAh?$AAr?$AA?9?$AAH?$AAR@ 0000000180029678     libucrt:lcidtoname_downlevel.obj
 0002:00006688       ??_C@_1M@FKIFEHPB@?$AAs?$AAk?$AA?9?$AAS?$AAK@ 0000000180029688     libucrt:lcidtoname_downlevel.obj
 0002:00006698       ??_C@_1M@LJMAMNPJ@?$AAs?$AAq?$AA?9?$AAA?$AAL@ 0000000180029698     libucrt:lcidtoname_downlevel.obj
 0002:000066a8       ??_C@_1M@GIAKDKJK@?$AAs?$AAv?$AA?9?$AAS?$AAE@ 00000001800296a8     libucrt:lcidtoname_downlevel.obj
 0002:000066b8       ??_C@_1M@MKJKIKCL@?$AAt?$AAh?$AA?9?$AAT?$AAH@ 00000001800296b8     libucrt:lcidtoname_downlevel.obj
 0002:000066c8       ??_C@_1M@MFLCCMPB@?$AAt?$AAr?$AA?9?$AAT?$AAR@ 00000001800296c8     libucrt:lcidtoname_downlevel.obj
 0002:000066d8       ??_C@_1M@OIJHDKJN@?$AAu?$AAr?$AA?9?$AAP?$AAK@ 00000001800296d8     libucrt:lcidtoname_downlevel.obj
 0002:000066e8       ??_C@_1M@LHIPCIEK@?$AAi?$AAd?$AA?9?$AAI?$AAD@ 00000001800296e8     libucrt:lcidtoname_downlevel.obj
 0002:000066f8       ??_C@_1M@MFMOBGI@?$AAu?$AAk?$AA?9?$AAU?$AAA@ 00000001800296f8     libucrt:lcidtoname_downlevel.obj
 0002:00006708       ??_C@_1M@OBGLJIPL@?$AAb?$AAe?$AA?9?$AAB?$AAY@ 0000000180029708     libucrt:lcidtoname_downlevel.obj
 0002:00006718       ??_C@_1M@BCFAJEAD@?$AAs?$AAl?$AA?9?$AAS?$AAI@ 0000000180029718     libucrt:lcidtoname_downlevel.obj
 0002:00006728       ??_C@_1M@FKFFEDDN@?$AAe?$AAt?$AA?9?$AAE?$AAE@ 0000000180029728     libucrt:lcidtoname_downlevel.obj
 0002:00006738       ??_C@_1M@KGKKAACI@?$AAl?$AAv?$AA?9?$AAL?$AAV@ 0000000180029738     libucrt:lcidtoname_downlevel.obj
 0002:00006748       ??_C@_1M@IFGBIJO@?$AAl?$AAt?$AA?9?$AAL?$AAT@ 0000000180029748     libucrt:lcidtoname_downlevel.obj
 0002:00006758       ??_C@_1M@FGEAHEDM@?$AAf?$AAa?$AA?9?$AAI?$AAR@ 0000000180029758     libucrt:lcidtoname_downlevel.obj
 0002:00006768       ??_C@_1M@KBMAIBFN@?$AAv?$AAi?$AA?9?$AAV?$AAN@ 0000000180029768     libucrt:lcidtoname_downlevel.obj
 0002:00006778       ??_C@_1M@GPCBKDJK@?$AAh?$AAy?$AA?9?$AAA?$AAM@ 0000000180029778     libucrt:lcidtoname_downlevel.obj
 0002:00006788       ??_C@_1BG@BECMDDJB@?$AAa?$AAz?$AA?9?$AAA?$AAZ?$AA?9?$AAL?$AAa?$AAt?$AAn@ 0000000180029788     libucrt:lcidtoname_downlevel.obj
 0002:000067a0       ??_C@_1M@MAOFCAEA@?$AAe?$AAu?$AA?9?$AAE?$AAS@ 00000001800297a0     libucrt:lcidtoname_downlevel.obj
 0002:000067b0       ??_C@_1M@IGHABKPI@?$AAm?$AAk?$AA?9?$AAM?$AAK@ 00000001800297b0     libucrt:lcidtoname_downlevel.obj
 0002:000067c0       ??_C@_1M@IAIGNEJG@?$AAt?$AAn?$AA?9?$AAZ?$AAA@ 00000001800297c0     libucrt:lcidtoname_downlevel.obj
 0002:000067d0       ??_C@_1M@IIJCOJFA@?$AAx?$AAh?$AA?9?$AAZ?$AAA@ 00000001800297d0     libucrt:lcidtoname_downlevel.obj
 0002:000067e0       ??_C@_1M@LGPJHNJH@?$AAz?$AAu?$AA?9?$AAZ?$AAA@ 00000001800297e0     libucrt:lcidtoname_downlevel.obj
 0002:000067f0       ??_C@_1M@HOKAOIO@?$AAa?$AAf?$AA?9?$AAZ?$AAA@ 00000001800297f0     libucrt:lcidtoname_downlevel.obj
 0002:00006800       ??_C@_1M@DPCLHLIE@?$AAk?$AAa?$AA?9?$AAG?$AAE@ 0000000180029800     libucrt:lcidtoname_downlevel.obj
 0002:00006810       ??_C@_1M@BLKMHJBI@?$AAf?$AAo?$AA?9?$AAF?$AAO@ 0000000180029810     libucrt:lcidtoname_downlevel.obj
 0002:00006820       ??_C@_1M@LGGJAPPB@?$AAh?$AAi?$AA?9?$AAI?$AAN@ 0000000180029820     libucrt:lcidtoname_downlevel.obj
 0002:00006830       ??_C@_1M@FIKPIHFE@?$AAm?$AAt?$AA?9?$AAM?$AAT@ 0000000180029830     libucrt:lcidtoname_downlevel.obj
 0002:00006840       ??_C@_1M@HEGGPBFA@?$AAs?$AAe?$AA?9?$AAN?$AAO@ 0000000180029840     libucrt:lcidtoname_downlevel.obj
 0002:00006850       ??_C@_1M@EIBJEEPA@?$AAm?$AAs?$AA?9?$AAM?$AAY@ 0000000180029850     libucrt:lcidtoname_downlevel.obj
 0002:00006860       ??_C@_1M@FHLBGMPP@?$AAk?$AAk?$AA?9?$AAK?$AAZ@ 0000000180029860     libucrt:lcidtoname_downlevel.obj
 0002:00006870       ??_C@_1M@NGJJLCGI@?$AAk?$AAy?$AA?9?$AAK?$AAG@ 0000000180029870     libucrt:lcidtoname_downlevel.obj
 0002:00006880       ??_C@_1M@GIENNBFC@?$AAs?$AAw?$AA?9?$AAK?$AAE@ 0000000180029880     libucrt:lcidtoname_downlevel.obj
 0002:00006890       ??_C@_1BG@NDGMJIMJ@?$AAu?$AAz?$AA?9?$AAU?$AAZ?$AA?9?$AAL?$AAa?$AAt?$AAn@ 0000000180029890     libucrt:lcidtoname_downlevel.obj
 0002:000068a8       ??_C@_1M@IDCCIHBC@?$AAt?$AAt?$AA?9?$AAR?$AAU@ 00000001800298a8     libucrt:lcidtoname_downlevel.obj
 0002:000068b8       ??_C@_1M@LOICPMOJ@?$AAb?$AAn?$AA?9?$AAI?$AAN@ 00000001800298b8     libucrt:lcidtoname_downlevel.obj
 0002:000068c8       ??_C@_1M@KPKKNEAH@?$AAp?$AAa?$AA?9?$AAI?$AAN@ 00000001800298c8     libucrt:lcidtoname_downlevel.obj
 0002:000068d8       ??_C@_1M@PJGPPBOG@?$AAg?$AAu?$AA?9?$AAI?$AAN@ 00000001800298d8     libucrt:lcidtoname_downlevel.obj
 0002:000068e8       ??_C@_1M@KMKMOPHI@?$AAt?$AAa?$AA?9?$AAI?$AAN@ 00000001800298e8     libucrt:lcidtoname_downlevel.obj
 0002:000068f8       ??_C@_1M@KFEHEPAC@?$AAt?$AAe?$AA?9?$AAI?$AAN@ 00000001800298f8     libucrt:lcidtoname_downlevel.obj
 0002:00006908       ??_C@_1M@CDCLMGHI@?$AAk?$AAn?$AA?9?$AAI?$AAN@ 0000000180029908     libucrt:lcidtoname_downlevel.obj
 0002:00006918       ??_C@_1M@MIODLDKF@?$AAm?$AAl?$AA?9?$AAI?$AAN@ 0000000180029918     libucrt:lcidtoname_downlevel.obj
 0002:00006928       ??_C@_1M@PBIEACPO@?$AAm?$AAr?$AA?9?$AAI?$AAN@ 0000000180029928     libucrt:lcidtoname_downlevel.obj
 0002:00006938       ??_C@_1M@NIDEAGPH@?$AAs?$AAa?$AA?9?$AAI?$AAN@ 0000000180029938     libucrt:lcidtoname_downlevel.obj
 0002:00006948       ??_C@_1M@FHIHCBIO@?$AAm?$AAn?$AA?9?$AAM?$AAN@ 0000000180029948     libucrt:lcidtoname_downlevel.obj
 0002:00006958       ??_C@_1M@JAIJPENP@?$AAc?$AAy?$AA?9?$AAG?$AAB@ 0000000180029958     libucrt:lcidtoname_downlevel.obj
 0002:00006968       ??_C@_1M@PHGFBEPN@?$AAg?$AAl?$AA?9?$AAE?$AAS@ 0000000180029968     libucrt:lcidtoname_downlevel.obj
 0002:00006978       ??_C@_1O@KPIPDNCP@?$AAk?$AAo?$AAk?$AA?9?$AAI?$AAN@ 0000000180029978     libucrt:lcidtoname_downlevel.obj
 0002:00006988       ??_C@_1O@KNHJLDJA@?$AAs?$AAy?$AAr?$AA?9?$AAS?$AAY@ 0000000180029988     libucrt:lcidtoname_downlevel.obj
 0002:00006998       ??_C@_1O@MKEKBLAH@?$AAd?$AAi?$AAv?$AA?9?$AAM?$AAV@ 0000000180029998     libucrt:lcidtoname_downlevel.obj
 0002:000069a8       ??_C@_1O@OHDCKDDF@?$AAq?$AAu?$AAz?$AA?9?$AAB?$AAO@ 00000001800299a8     libucrt:lcidtoname_downlevel.obj
 0002:000069b8       ??_C@_1M@LEPJNLFD@?$AAn?$AAs?$AA?9?$AAZ?$AAA@ 00000001800299b8     libucrt:lcidtoname_downlevel.obj
 0002:000069c8       ??_C@_1M@OMLEIIJB@?$AAm?$AAi?$AA?9?$AAN?$AAZ@ 00000001800299c8     libucrt:lcidtoname_downlevel.obj
 0002:000069d8       ??_C@_1M@PMPEAILG@?$AAa?$AAr?$AA?9?$AAI?$AAQ@ 00000001800299d8     libucrt:lcidtoname_downlevel.obj
 0002:000069e8       ??_C@_1M@CNKPNOEE@?$AAd?$AAe?$AA?9?$AAC?$AAH@ 00000001800299e8     libucrt:lcidtoname_downlevel.obj
 0002:000069f8       ??_C@_1M@LKMGMLKO@?$AAe?$AAn?$AA?9?$AAG?$AAB@ 00000001800299f8     libucrt:lcidtoname_downlevel.obj
 0002:00006a08       ??_C@_1M@PGKJFFGL@?$AAe?$AAs?$AA?9?$AAM?$AAX@ 0000000180029a08     libucrt:lcidtoname_downlevel.obj
 0002:00006a18       ??_C@_1M@DNNANBDC@?$AAf?$AAr?$AA?9?$AAB?$AAE@ 0000000180029a18     libucrt:lcidtoname_downlevel.obj
 0002:00006a28       ??_C@_1M@HLGMDFHM@?$AAi?$AAt?$AA?9?$AAC?$AAH@ 0000000180029a28     libucrt:lcidtoname_downlevel.obj
 0002:00006a38       ??_C@_1M@CLLBGJH@?$AAn?$AAl?$AA?9?$AAB?$AAE@ 0000000180029a38     libucrt:lcidtoname_downlevel.obj
 0002:00006a48       ??_C@_1M@BODBOGLF@?$AAn?$AAn?$AA?9?$AAN?$AAO@ 0000000180029a48     libucrt:lcidtoname_downlevel.obj
 0002:00006a58       ??_C@_1M@HFFAHKAD@?$AAp?$AAt?$AA?9?$AAP?$AAT@ 0000000180029a58     libucrt:lcidtoname_downlevel.obj
 0002:00006a68       ??_C@_1BG@LNOAKHIE@?$AAs?$AAr?$AA?9?$AAS?$AAP?$AA?9?$AAL?$AAa?$AAt?$AAn@ 0000000180029a68     libucrt:lcidtoname_downlevel.obj
 0002:00006a80       ??_C@_1M@HBMHBGAK@?$AAs?$AAv?$AA?9?$AAF?$AAI@ 0000000180029a80     libucrt:lcidtoname_downlevel.obj
 0002:00006a90       ??_C@_1BG@DGCJGJBE@?$AAa?$AAz?$AA?9?$AAA?$AAZ?$AA?9?$AAC?$AAy?$AAr?$AAl@ 0000000180029a90     libucrt:lcidtoname_downlevel.obj
 0002:00006aa8       ??_C@_1M@KEJDAAHB@?$AAs?$AAe?$AA?9?$AAS?$AAE@ 0000000180029aa8     libucrt:lcidtoname_downlevel.obj
 0002:00006ab8       ??_C@_1M@HEIBJJAD@?$AAm?$AAs?$AA?9?$AAB?$AAN@ 0000000180029ab8     libucrt:lcidtoname_downlevel.obj
 0002:00006ac8       ??_C@_1BG@PBGJMCEM@?$AAu?$AAz?$AA?9?$AAU?$AAZ?$AA?9?$AAC?$AAy?$AAr?$AAl@ 0000000180029ac8     libucrt:lcidtoname_downlevel.obj
 0002:00006ae0       ??_C@_1O@LAOBCMDF@?$AAq?$AAu?$AAz?$AA?9?$AAE?$AAC@ 0000000180029ae0     libucrt:lcidtoname_downlevel.obj
 0002:00006af0       ??_C@_1M@POEEMAIO@?$AAa?$AAr?$AA?9?$AAE?$AAG@ 0000000180029af0     libucrt:lcidtoname_downlevel.obj
 0002:00006b00       ??_C@_1M@EFAKDEDL@?$AAz?$AAh?$AA?9?$AAH?$AAK@ 0000000180029b00     libucrt:lcidtoname_downlevel.obj
 0002:00006b10       ??_C@_1M@HKKIJHGI@?$AAd?$AAe?$AA?9?$AAA?$AAT@ 0000000180029b10     libucrt:lcidtoname_downlevel.obj
 0002:00006b20       ??_C@_1M@KBFBEHJF@?$AAe?$AAn?$AA?9?$AAA?$AAU@ 0000000180029b20     libucrt:lcidtoname_downlevel.obj
 0002:00006b30       ??_C@_1M@MNPLFAAH@?$AAe?$AAs?$AA?9?$AAE?$AAS@ 0000000180029b30     libucrt:lcidtoname_downlevel.obj
 0002:00006b40       ??_C@_1M@HJOOJFMA@?$AAf?$AAr?$AA?9?$AAC?$AAA@ 0000000180029b40     libucrt:lcidtoname_downlevel.obj
 0002:00006b50       ??_C@_1BG@JPOFPNAB@?$AAs?$AAr?$AA?9?$AAS?$AAP?$AA?9?$AAC?$AAy?$AAr?$AAl@ 0000000180029b50     libucrt:lcidtoname_downlevel.obj
 0002:00006b68       ??_C@_1M@LNFOCMOB@?$AAs?$AAe?$AA?9?$AAF?$AAI@ 0000000180029b68     libucrt:lcidtoname_downlevel.obj
 0002:00006b78       ??_C@_1O@MGJBOAMB@?$AAq?$AAu?$AAz?$AA?9?$AAP?$AAE@ 0000000180029b78     libucrt:lcidtoname_downlevel.obj
 0002:00006b88       ??_C@_1M@GJINLBOK@?$AAa?$AAr?$AA?9?$AAL?$AAY@ 0000000180029b88     libucrt:lcidtoname_downlevel.obj
 0002:00006b98       ??_C@_1M@GGMNHJNL@?$AAz?$AAh?$AA?9?$AAS?$AAG@ 0000000180029b98     libucrt:lcidtoname_downlevel.obj
 0002:00006ba8       ??_C@_1M@HOIKODND@?$AAd?$AAe?$AA?9?$AAL?$AAU@ 0000000180029ba8     libucrt:lcidtoname_downlevel.obj
 0002:00006bb8       ??_C@_1M@DDOCCGFG@?$AAe?$AAn?$AA?9?$AAC?$AAA@ 0000000180029bb8     libucrt:lcidtoname_downlevel.obj
 0002:00006bc8       ??_C@_1M@BNOEMJLF@?$AAe?$AAs?$AA?9?$AAG?$AAT@ 0000000180029bc8     libucrt:lcidtoname_downlevel.obj
 0002:00006bd8       ??_C@_1M@EOGNKEK@?$AAf?$AAr?$AA?9?$AAC?$AAH@ 0000000180029bd8     libucrt:lcidtoname_downlevel.obj
 0002:00006be8       ??_C@_1M@FLIDJFHL@?$AAh?$AAr?$AA?9?$AAB?$AAA@ 0000000180029be8     libucrt:lcidtoname_downlevel.obj
 0002:00006bf8       ??_C@_1O@FMCELNAJ@?$AAs?$AAm?$AAj?$AA?9?$AAN?$AAO@ 0000000180029bf8     libucrt:lcidtoname_downlevel.obj
 0002:00006c08       ??_C@_1M@JHGLJMGJ@?$AAa?$AAr?$AA?9?$AAD?$AAZ@ 0000000180029c08     libucrt:lcidtoname_downlevel.obj
 0002:00006c18       ??_C@_1M@JKKFDCNP@?$AAz?$AAh?$AA?9?$AAM?$AAO@ 0000000180029c18     libucrt:lcidtoname_downlevel.obj
 0002:00006c28       ??_C@_1M@GEEFALPE@?$AAd?$AAe?$AA?9?$AAL?$AAI@ 0000000180029c28     libucrt:lcidtoname_downlevel.obj
 0002:00006c38       ??_C@_1M@IGEOFBG@?$AAe?$AAn?$AA?9?$AAN?$AAZ@ 0000000180029c38     libucrt:lcidtoname_downlevel.obj
 0002:00006c48       ??_C@_1M@KDBONEHP@?$AAe?$AAs?$AA?9?$AAC?$AAR@ 0000000180029c48     libucrt:lcidtoname_downlevel.obj
 0002:00006c58       ??_C@_1M@FHMDOHNN@?$AAf?$AAr?$AA?9?$AAL?$AAU@ 0000000180029c58     libucrt:lcidtoname_downlevel.obj
 0002:00006c68       ??_C@_1BG@NFKKMAFG@?$AAb?$AAs?$AA?9?$AAB?$AAA?$AA?9?$AAL?$AAa?$AAt?$AAn@ 0000000180029c68     libucrt:lcidtoname_downlevel.obj
 0002:00006c80       ??_C@_1O@IMNBEMCI@?$AAs?$AAm?$AAj?$AA?9?$AAS?$AAE@ 0000000180029c80     libucrt:lcidtoname_downlevel.obj
 0002:00006c90       ??_C@_1M@DHHMBNDP@?$AAa?$AAr?$AA?9?$AAM?$AAA@ 0000000180029c90     libucrt:lcidtoname_downlevel.obj
 0002:00006ca0       ??_C@_1M@BNBLJCGH@?$AAe?$AAn?$AA?9?$AAI?$AAE@ 0000000180029ca0     libucrt:lcidtoname_downlevel.obj
 0002:00006cb0       ??_C@_1M@GEPAFMDL@?$AAe?$AAs?$AA?9?$AAP?$AAA@ 0000000180029cb0     libucrt:lcidtoname_downlevel.obj
 0002:00006cc0       ??_C@_1M@OJONDMDL@?$AAf?$AAr?$AA?9?$AAM?$AAC@ 0000000180029cc0     libucrt:lcidtoname_downlevel.obj
 0002:00006cd0       ??_C@_1BG@OBCNFJB@?$AAs?$AAr?$AA?9?$AAB?$AAA?$AA?9?$AAL?$AAa?$AAt?$AAn@ 0000000180029cd0     libucrt:lcidtoname_downlevel.obj
 0002:00006ce8       ??_C@_1O@KEMEEGPO@?$AAs?$AAm?$AAa?$AA?9?$AAN?$AAO@ 0000000180029ce8     libucrt:lcidtoname_downlevel.obj
 0002:00006cf8       ??_C@_1M@ELMGFODK@?$AAa?$AAr?$AA?9?$AAT?$AAN@ 0000000180029cf8     libucrt:lcidtoname_downlevel.obj
 0002:00006d08       ??_C@_1M@BHDLHFAF@?$AAe?$AAn?$AA?9?$AAZ?$AAA@ 0000000180029d08     libucrt:lcidtoname_downlevel.obj
 0002:00006d18       ??_C@_1M@BMGIGLIF@?$AAe?$AAs?$AA?9?$AAD?$AAO@ 0000000180029d18     libucrt:lcidtoname_downlevel.obj
 0002:00006d28       ??_C@_1BG@CMBHIPBE@?$AAs?$AAr?$AA?9?$AAB?$AAA?$AA?9?$AAC?$AAy?$AAr?$AAl@ 0000000180029d28     libucrt:lcidtoname_downlevel.obj
 0002:00006d40       ??_C@_1O@HEDBLHNP@?$AAs?$AAm?$AAa?$AA?9?$AAS?$AAE@ 0000000180029d40     libucrt:lcidtoname_downlevel.obj
 0002:00006d50       ??_C@_1M@DAGCADIM@?$AAa?$AAr?$AA?9?$AAO?$AAM@ 0000000180029d50     libucrt:lcidtoname_downlevel.obj
 0002:00006d60       ??_C@_1M@FODLMICG@?$AAe?$AAn?$AA?9?$AAJ?$AAM@ 0000000180029d60     libucrt:lcidtoname_downlevel.obj
 0002:00006d70       ??_C@_1M@DNMLCIHB@?$AAe?$AAs?$AA?9?$AAV?$AAE@ 0000000180029d70     libucrt:lcidtoname_downlevel.obj
 0002:00006d80       ??_C@_1O@EOKHMKJK@?$AAs?$AAm?$AAs?$AA?9?$AAF?$AAI@ 0000000180029d80     libucrt:lcidtoname_downlevel.obj
 0002:00006d90       ??_C@_1M@CAFJMKOF@?$AAa?$AAr?$AA?9?$AAY?$AAE@ 0000000180029d90     libucrt:lcidtoname_downlevel.obj
 0002:00006da0       ??_C@_1M@CBFHIJLI@?$AAe?$AAn?$AA?9?$AAC?$AAB@ 0000000180029da0     libucrt:lcidtoname_downlevel.obj
 0002:00006db0       ??_C@_1M@BGNFLDN@?$AAe?$AAs?$AA?9?$AAC?$AAO@ 0000000180029db0     libucrt:lcidtoname_downlevel.obj
 0002:00006dc0       ??_C@_1O@JMPHMAMC@?$AAs?$AAm?$AAn?$AA?9?$AAF?$AAI@ 0000000180029dc0     libucrt:lcidtoname_downlevel.obj
 0002:00006dd0       ??_C@_1M@JLANABKE@?$AAa?$AAr?$AA?9?$AAS?$AAY@ 0000000180029dd0     libucrt:lcidtoname_downlevel.obj
 0002:00006de0       ??_C@_1M@HPKGCFGN@?$AAe?$AAn?$AA?9?$AAB?$AAZ@ 0000000180029de0     libucrt:lcidtoname_downlevel.obj
 0002:00006df0       ??_C@_1M@OLJCMLGM@?$AAe?$AAs?$AA?9?$AAP?$AAE@ 0000000180029df0     libucrt:lcidtoname_downlevel.obj
 0002:00006e00       ??_C@_1M@MKKGFKLE@?$AAa?$AAr?$AA?9?$AAJ?$AAO@ 0000000180029e00     libucrt:lcidtoname_downlevel.obj
 0002:00006e10       ??_C@_1M@EKPGLDNI@?$AAe?$AAn?$AA?9?$AAT?$AAT@ 0000000180029e10     libucrt:lcidtoname_downlevel.obj
 0002:00006e20       ??_C@_1M@OONGHFHE@?$AAe?$AAs?$AA?9?$AAA?$AAR@ 0000000180029e20     libucrt:lcidtoname_downlevel.obj
 0002:00006e30       ??_C@_1M@OOJFGBHE@?$AAa?$AAr?$AA?9?$AAL?$AAB@ 0000000180029e30     libucrt:lcidtoname_downlevel.obj
 0002:00006e40       ??_C@_1M@GCEJHNEG@?$AAe?$AAn?$AA?9?$AAZ?$AAW@ 0000000180029e40     libucrt:lcidtoname_downlevel.obj
 0002:00006e50       ??_C@_1M@JNOCAHJI@?$AAe?$AAs?$AA?9?$AAE?$AAC@ 0000000180029e50     libucrt:lcidtoname_downlevel.obj
 0002:00006e60       ??_C@_1M@JEFHPGGB@?$AAa?$AAr?$AA?9?$AAK?$AAW@ 0000000180029e60     libucrt:lcidtoname_downlevel.obj
 0002:00006e70       ??_C@_1M@MLKIBJOJ@?$AAe?$AAn?$AA?9?$AAP?$AAH@ 0000000180029e70     libucrt:lcidtoname_downlevel.obj
 0002:00006e80       ??_C@_1M@BDNIPEND@?$AAe?$AAs?$AA?9?$AAC?$AAL@ 0000000180029e80     libucrt:lcidtoname_downlevel.obj
 0002:00006e90       ??_C@_1M@MPNMEKBD@?$AAa?$AAr?$AA?9?$AAA?$AAE@ 0000000180029e90     libucrt:lcidtoname_downlevel.obj
 0002:00006ea0       ??_C@_1M@KBJALCPI@?$AAe?$AAs?$AA?9?$AAU?$AAY@ 0000000180029ea0     libucrt:lcidtoname_downlevel.obj
 0002:00006eb0       ??_C@_1M@LLCCOAGA@?$AAa?$AAr?$AA?9?$AAB?$AAH@ 0000000180029eb0     libucrt:lcidtoname_downlevel.obj
 0002:00006ec0       ??_C@_1M@PBFNCDEL@?$AAe?$AAs?$AA?9?$AAP?$AAY@ 0000000180029ec0     libucrt:lcidtoname_downlevel.obj
 0002:00006ed0       ??_C@_1M@EDGINPNP@?$AAa?$AAr?$AA?9?$AAQ?$AAA@ 0000000180029ed0     libucrt:lcidtoname_downlevel.obj
 0002:00006ee0       ??_C@_1M@MKDBIIJI@?$AAe?$AAs?$AA?9?$AAB?$AAO@ 0000000180029ee0     libucrt:lcidtoname_downlevel.obj
 0002:00006ef0       ??_C@_1M@CPKKEBLD@?$AAe?$AAs?$AA?9?$AAS?$AAV@ 0000000180029ef0     libucrt:lcidtoname_downlevel.obj
 0002:00006f00       ??_C@_1M@NDBGMMJL@?$AAe?$AAs?$AA?9?$AAH?$AAN@ 0000000180029f00     libucrt:lcidtoname_downlevel.obj
 0002:00006f10       ??_C@_1M@JIJIBHDP@?$AAe?$AAs?$AA?9?$AAN?$AAI@ 0000000180029f10     libucrt:lcidtoname_downlevel.obj
 0002:00006f20       ??_C@_1M@CGFMKEEK@?$AAe?$AAs?$AA?9?$AAP?$AAR@ 0000000180029f20     libucrt:lcidtoname_downlevel.obj
 0002:00006f30       ??_C@_1O@ICJHKIIK@?$AAz?$AAh?$AA?9?$AAC?$AAH?$AAT@ 0000000180029f30     libucrt:lcidtoname_downlevel.obj
 0002:00006f40       ??_C@_15CLNEJCE@?$AAs?$AAr@ 0000000180029f40     libucrt:lcidtoname_downlevel.obj
 0002:00007d90       ??_C@_1M@KAHEKEIG@?$AAa?$AAf?$AA?9?$AAz?$AAa@ 000000018002ad90     libucrt:lcidtoname_downlevel.obj
 0002:00007da0       ??_C@_1M@GIECOABL@?$AAa?$AAr?$AA?9?$AAa?$AAe@ 000000018002ada0     libucrt:lcidtoname_downlevel.obj
 0002:00007db0       ??_C@_1M@BMLMEKGI@?$AAa?$AAr?$AA?9?$AAb?$AAh@ 000000018002adb0     libucrt:lcidtoname_downlevel.obj
 0002:00007dc0       ??_C@_1M@DAPFDGGB@?$AAa?$AAr?$AA?9?$AAd?$AAz@ 000000018002adc0     libucrt:lcidtoname_downlevel.obj
 0002:00007dd0       ??_C@_1M@FJNKGKIG@?$AAa?$AAr?$AA?9?$AAe?$AAg@ 000000018002add0     libucrt:lcidtoname_downlevel.obj
 0002:00007de0       ??_C@_1M@FLGKKCLO@?$AAa?$AAr?$AA?9?$AAi?$AAq@ 000000018002ade0     libucrt:lcidtoname_downlevel.obj
 0002:00007df0       ??_C@_1M@GNDIPALM@?$AAa?$AAr?$AA?9?$AAj?$AAo@ 000000018002adf0     libucrt:lcidtoname_downlevel.obj
 0002:00007e00       ??_C@_1M@DDMJFMGJ@?$AAa?$AAr?$AA?9?$AAk?$AAw@ 000000018002ae00     libucrt:lcidtoname_downlevel.obj
 0002:00007e10       ??_C@_1M@EJALMLHM@?$AAa?$AAr?$AA?9?$AAl?$AAb@ 000000018002ae10     libucrt:lcidtoname_downlevel.obj
 0002:00007e20       ??_C@_1M@MOBDBLOC@?$AAa?$AAr?$AA?9?$AAl?$AAy@ 000000018002ae20     libucrt:lcidtoname_downlevel.obj
 0002:00007e30       ??_C@_1M@JAOCLHDH@?$AAa?$AAr?$AA?9?$AAm?$AAa@ 000000018002ae30     libucrt:lcidtoname_downlevel.obj
 0002:00007e40       ??_C@_1M@JHPMKJIE@?$AAa?$AAr?$AA?9?$AAo?$AAm@ 000000018002ae40     libucrt:lcidtoname_downlevel.obj
 0002:00007e50       ??_C@_1M@OEPGHFNH@?$AAa?$AAr?$AA?9?$AAq?$AAa@ 000000018002ae50     libucrt:lcidtoname_downlevel.obj
 0002:00007e60       ??_C@_1M@KJDONENM@?$AAa?$AAr?$AA?9?$AAs?$AAa@ 000000018002ae60     libucrt:lcidtoname_downlevel.obj
 0002:00007e70       ??_C@_1M@DMJDKLKM@?$AAa?$AAr?$AA?9?$AAs?$AAy@ 000000018002ae70     libucrt:lcidtoname_downlevel.obj
 0002:00007e80       ??_C@_1M@OMFIPEDC@?$AAa?$AAr?$AA?9?$AAt?$AAn@ 000000018002ae80     libucrt:lcidtoname_downlevel.obj
 0002:00007e90       ??_C@_1M@IHMHGAON@?$AAa?$AAr?$AA?9?$AAy?$AAe@ 000000018002ae90     libucrt:lcidtoname_downlevel.obj
 0002:00007ea0       ??_C@_1BG@KDCPGJGB@?$AAa?$AAz?$AA?9?$AAa?$AAz?$AA?9?$AAc?$AAy?$AAr?$AAl@ 000000018002aea0     libucrt:lcidtoname_downlevel.obj
 0002:00007eb8       ??_C@_1BG@IBCKDDOE@?$AAa?$AAz?$AA?9?$AAa?$AAz?$AA?9?$AAl?$AAa?$AAt?$AAn@ 000000018002aeb8     libucrt:lcidtoname_downlevel.obj
 0002:00007ed0       ??_C@_1M@EGPFDCPD@?$AAb?$AAe?$AA?9?$AAb?$AAy@ 000000018002aed0     libucrt:lcidtoname_downlevel.obj
 0002:00007ee0       ??_C@_1M@PCMGMCGC@?$AAb?$AAg?$AA?9?$AAb?$AAg@ 000000018002aee0     libucrt:lcidtoname_downlevel.obj
 0002:00007ef0       ??_C@_1M@BJBMFGOB@?$AAb?$AAn?$AA?9?$AAi?$AAn@ 000000018002aef0     libucrt:lcidtoname_downlevel.obj
 0002:00007f00       ??_C@_1BG@EAKMMACD@?$AAb?$AAs?$AA?9?$AAb?$AAa?$AA?9?$AAl?$AAa?$AAt?$AAn@ 000000018002af00     libucrt:lcidtoname_downlevel.obj
 0002:00007f18       ??_C@_1M@KGADAODK@?$AAc?$AAa?$AA?9?$AAe?$AAs@ 000000018002af18     libucrt:lcidtoname_downlevel.obj
 0002:00007f28       ??_C@_1M@COAJPDHI@?$AAc?$AAs?$AA?9?$AAc?$AAz@ 000000018002af28     libucrt:lcidtoname_downlevel.obj
 0002:00007f38       ??_C@_1M@DHBHFONH@?$AAc?$AAy?$AA?9?$AAg?$AAb@ 000000018002af38     libucrt:lcidtoname_downlevel.obj
 0002:00007f48       ??_C@_1M@IMGKELGA@?$AAd?$AAa?$AA?9?$AAd?$AAk@ 000000018002af48     libucrt:lcidtoname_downlevel.obj
 0002:00007f58       ??_C@_1M@NNDGDNGA@?$AAd?$AAe?$AA?9?$AAa?$AAt@ 000000018002af58     libucrt:lcidtoname_downlevel.obj
 0002:00007f68       ??_C@_1M@IKDBHEEM@?$AAd?$AAe?$AA?9?$AAc?$AAh@ 000000018002af68     libucrt:lcidtoname_downlevel.obj
 0002:00007f78       ??_C@_1M@GFFOJMCJ@?$AAd?$AAe?$AA?9?$AAd?$AAe@ 000000018002af78     libucrt:lcidtoname_downlevel.obj
 0002:00007f88       ??_C@_1M@MDNLKBPM@?$AAd?$AAe?$AA?9?$AAl?$AAi@ 000000018002af88     libucrt:lcidtoname_downlevel.obj
 0002:00007f98       ??_C@_1M@NJBEEJNL@?$AAd?$AAe?$AA?9?$AAl?$AAu@ 000000018002af98     libucrt:lcidtoname_downlevel.obj
 0002:00007fa8       ??_C@_1O@GNNELBAP@?$AAd?$AAi?$AAv?$AA?9?$AAm?$AAv@ 000000018002afa8     libucrt:lcidtoname_downlevel.obj
 0002:00007fb8       ??_C@_1M@EJLEOGAE@?$AAe?$AAl?$AA?9?$AAg?$AAr@ 000000018002afb8     libucrt:lcidtoname_downlevel.obj
 0002:00007fc8       ??_C@_1M@GMPONJN@?$AAe?$AAn?$AA?9?$AAa?$AAu@ 000000018002afc8     libucrt:lcidtoname_downlevel.obj
 0002:00007fd8       ??_C@_1M@NIDIIPGF@?$AAe?$AAn?$AA?9?$AAb?$AAz@ 000000018002afd8     libucrt:lcidtoname_downlevel.obj
 0002:00007fe8       ??_C@_1M@JEHMIMFO@?$AAe?$AAn?$AA?9?$AAc?$AAa@ 000000018002afe8     libucrt:lcidtoname_downlevel.obj
 0002:00007ff8       ??_C@_1M@IGMJCDLA@?$AAe?$AAn?$AA?9?$AAc?$AAb@ 000000018002aff8     libucrt:lcidtoname_downlevel.obj
 0002:00008008       ??_C@_1M@BNFIGBKG@?$AAe?$AAn?$AA?9?$AAg?$AAb@ 000000018002b008     libucrt:lcidtoname_downlevel.obj
 0002:00008018       ??_C@_1M@LKIFDIGP@?$AAe?$AAn?$AA?9?$AAi?$AAe@ 000000018002b018     libucrt:lcidtoname_downlevel.obj
 0002:00008028       ??_C@_1M@PJKFGCCO@?$AAe?$AAn?$AA?9?$AAj?$AAm@ 000000018002b028     libucrt:lcidtoname_downlevel.obj
 0002:00008038       ??_C@_1M@KPPKEPBO@?$AAe?$AAn?$AA?9?$AAn?$AAz@ 000000018002b038     libucrt:lcidtoname_downlevel.obj
 0002:00008048       ??_C@_1M@GMDGLDOB@?$AAe?$AAn?$AA?9?$AAp?$AAh@ 000000018002b048     libucrt:lcidtoname_downlevel.obj
 0002:00008058       ??_C@_1M@ONGIBJNA@?$AAe?$AAn?$AA?9?$AAt?$AAt@ 000000018002b058     libucrt:lcidtoname_downlevel.obj
 0002:00008068       ??_C@_1M@LLODPCMM@?$AAe?$AAn?$AA?9?$AAu?$AAs@ 000000018002b068     libucrt:lcidtoname_downlevel.obj
 0002:00008078       ??_C@_1M@LAKFNPAN@?$AAe?$AAn?$AA?9?$AAz?$AAa@ 000000018002b078     libucrt:lcidtoname_downlevel.obj
 0002:00008088       ??_C@_1M@MFNHNHEO@?$AAe?$AAn?$AA?9?$AAz?$AAw@ 000000018002b088     libucrt:lcidtoname_downlevel.obj
 0002:00008098       ??_C@_1M@EJEINPHM@?$AAe?$AAs?$AA?9?$AAa?$AAr@ 000000018002b098     libucrt:lcidtoname_downlevel.obj
 0002:000080a8       ??_C@_1M@GNKPCCJA@?$AAe?$AAs?$AA?9?$AAb?$AAo@ 000000018002b0a8     libucrt:lcidtoname_downlevel.obj
 0002:000080b8       ??_C@_1M@LEEGFONL@?$AAe?$AAs?$AA?9?$AAc?$AAl@ 000000018002b0b8     libucrt:lcidtoname_downlevel.obj
 0002:000080c8       ??_C@_1M@KGPDPBDF@?$AAe?$AAs?$AA?9?$AAc?$AAo@ 000000018002b0c8     libucrt:lcidtoname_downlevel.obj
 0002:000080d8       ??_C@_1M@EIAHOHH@?$AAe?$AAs?$AA?9?$AAc?$AAr@ 000000018002b0d8     libucrt:lcidtoname_downlevel.obj
 0002:000080e8       ??_C@_1M@LLPGMBIN@?$AAe?$AAs?$AA?9?$AAd?$AAo@ 000000018002b0e8     libucrt:lcidtoname_downlevel.obj
 0002:000080f8       ??_C@_1M@DKHMKNJA@?$AAe?$AAs?$AA?9?$AAe?$AAc@ 000000018002b0f8     libucrt:lcidtoname_downlevel.obj
 0002:00008108       ??_C@_1M@GKGFPKAP@?$AAe?$AAs?$AA?9?$AAe?$AAs@ 000000018002b108     libucrt:lcidtoname_downlevel.obj
 0002:00008118       ??_C@_1M@LKHKGDLN@?$AAe?$AAs?$AA?9?$AAg?$AAt@ 000000018002b118     libucrt:lcidtoname_downlevel.obj
 0002:00008128       ??_C@_1M@HEIIGGJD@?$AAe?$AAs?$AA?9?$AAh?$AAn@ 000000018002b128     libucrt:lcidtoname_downlevel.obj
 0002:00008138       ??_C@_1M@FBDHPPGD@?$AAe?$AAs?$AA?9?$AAm?$AAx@ 000000018002b138     libucrt:lcidtoname_downlevel.obj
 0002:00008148       ??_C@_1M@DPAGLNDH@?$AAe?$AAs?$AA?9?$AAn?$AAi@ 000000018002b148     libucrt:lcidtoname_downlevel.obj
 0002:00008158       ??_C@_1M@MDGOPGDD@?$AAe?$AAs?$AA?9?$AAp?$AAa@ 000000018002b158     libucrt:lcidtoname_downlevel.obj
 0002:00008168       ??_C@_1M@EMAMGBGE@?$AAe?$AAs?$AA?9?$AAp?$AAe@ 000000018002b168     libucrt:lcidtoname_downlevel.obj
 0002:00008178       ??_C@_1M@IBMCAOEC@?$AAe?$AAs?$AA?9?$AAp?$AAr@ 000000018002b178     libucrt:lcidtoname_downlevel.obj
 0002:00008188       ??_C@_1M@FGMDIJED@?$AAe?$AAs?$AA?9?$AAp?$AAy@ 000000018002b188     libucrt:lcidtoname_downlevel.obj
 0002:00008198       ??_C@_1M@IIDEOLLL@?$AAe?$AAs?$AA?9?$AAs?$AAv@ 000000018002b198     libucrt:lcidtoname_downlevel.obj
 0002:000081a8       ??_C@_1M@GAOBIPA@?$AAe?$AAs?$AA?9?$AAu?$AAy@ 000000018002b1a8     libucrt:lcidtoname_downlevel.obj
 0002:000081b8       ??_C@_1M@JKFFICHJ@?$AAe?$AAs?$AA?9?$AAv?$AAe@ 000000018002b1b8     libucrt:lcidtoname_downlevel.obj
 0002:000081c8       ??_C@_1M@PNMLOJDF@?$AAe?$AAt?$AA?9?$AAe?$AAe@ 000000018002b1c8     libucrt:lcidtoname_downlevel.obj
 0002:000081d8       ??_C@_1M@GHHLIKEI@?$AAe?$AAu?$AA?9?$AAe?$AAs@ 000000018002b1d8     libucrt:lcidtoname_downlevel.obj
 0002:000081e8       ??_C@_1M@PBNONODE@?$AAf?$AAa?$AA?9?$AAi?$AAr@ 000000018002b1e8     libucrt:lcidtoname_downlevel.obj
 0002:000081f8       ??_C@_1M@JEEHPMIL@?$AAf?$AAi?$AA?9?$AAf?$AAi@ 000000018002b1f8     libucrt:lcidtoname_downlevel.obj
 0002:00008208       ??_C@_1M@LMDCNDBA@?$AAf?$AAo?$AA?9?$AAf?$AAo@ 000000018002b208     libucrt:lcidtoname_downlevel.obj
 0002:00008218       ??_C@_1M@JKEOHLDK@?$AAf?$AAr?$AA?9?$AAb?$AAe@ 000000018002b218     libucrt:lcidtoname_downlevel.obj
 0002:00008228       ??_C@_1M@NOHADPMI@?$AAf?$AAr?$AA?9?$AAc?$AAa@ 000000018002b228     libucrt:lcidtoname_downlevel.obj
 0002:00008238       ??_C@_1M@KDHIHAEC@?$AAf?$AAr?$AA?9?$AAc?$AAh@ 000000018002b238     libucrt:lcidtoname_downlevel.obj
 0002:00008248       ??_C@_1M@MMBBFGAK@?$AAf?$AAr?$AA?9?$AAf?$AAr@ 000000018002b248     libucrt:lcidtoname_downlevel.obj
 0002:00008258       ??_C@_1M@PAFNENNF@?$AAf?$AAr?$AA?9?$AAl?$AAu@ 000000018002b258     libucrt:lcidtoname_downlevel.obj
 0002:00008268       ??_C@_1M@EOHDJGDD@?$AAf?$AAr?$AA?9?$AAm?$AAc@ 000000018002b268     libucrt:lcidtoname_downlevel.obj
 0002:00008278       ??_C@_1M@FAPLLOPF@?$AAg?$AAl?$AA?9?$AAe?$AAs@ 000000018002b278     libucrt:lcidtoname_downlevel.obj
 0002:00008288       ??_C@_1M@FOPBFLOO@?$AAg?$AAu?$AA?9?$AAi?$AAn@ 000000018002b288     libucrt:lcidtoname_downlevel.obj
 0002:00008298       ??_C@_1M@KBMCINPM@?$AAh?$AAe?$AA?9?$AAi?$AAl@ 000000018002b298     libucrt:lcidtoname_downlevel.obj
 0002:000082a8       ??_C@_1M@BBPHKFPJ@?$AAh?$AAi?$AA?9?$AAi?$AAn@ 000000018002b2a8     libucrt:lcidtoname_downlevel.obj
 0002:000082b8       ??_C@_1M@PMBNDPHD@?$AAh?$AAr?$AA?9?$AAb?$AAa@ 000000018002b2b8     libucrt:lcidtoname_downlevel.obj
 0002:000082c8       ??_C@_1M@BPCKOEGE@?$AAh?$AAr?$AA?9?$AAh?$AAr@ 000000018002b2c8     libucrt:lcidtoname_downlevel.obj
 0002:000082d8       ??_C@_1M@GACBMHKE@?$AAh?$AAu?$AA?9?$AAh?$AAu@ 000000018002b2d8     libucrt:lcidtoname_downlevel.obj
 0002:000082e8       ??_C@_1M@MILPAJJC@?$AAh?$AAy?$AA?9?$AAa?$AAm@ 000000018002b2e8     libucrt:lcidtoname_downlevel.obj
 0002:000082f8       ??_C@_1M@BABBICEC@?$AAi?$AAd?$AA?9?$AAi?$AAd@ 000000018002b2f8     libucrt:lcidtoname_downlevel.obj
 0002:00008308       ??_C@_1M@BIKNHHPF@?$AAi?$AAs?$AA?9?$AAi?$AAs@ 000000018002b308     libucrt:lcidtoname_downlevel.obj
 0002:00008318       ??_C@_1M@NMPCJPHE@?$AAi?$AAt?$AA?9?$AAc?$AAh@ 000000018002b318     libucrt:lcidtoname_downlevel.obj
 0002:00008328       ??_C@_1M@GHKGFEDF@?$AAi?$AAt?$AA?9?$AAi?$AAt@ 000000018002b328     libucrt:lcidtoname_downlevel.obj
 0002:00008338       ??_C@_1M@NIEJCJJA@?$AAj?$AAa?$AA?9?$AAj?$AAp@ 000000018002b338     libucrt:lcidtoname_downlevel.obj
 0002:00008348       ??_C@_1M@JILFNBIM@?$AAk?$AAa?$AA?9?$AAg?$AAe@ 000000018002b348     libucrt:lcidtoname_downlevel.obj
 0002:00008358       ??_C@_1M@PACPMGPH@?$AAk?$AAk?$AA?9?$AAk?$AAz@ 000000018002b358     libucrt:lcidtoname_downlevel.obj
 0002:00008368       ??_C@_1M@IELFGMHA@?$AAk?$AAn?$AA?9?$AAi?$AAn@ 000000018002b368     libucrt:lcidtoname_downlevel.obj
 0002:00008378       ??_C@_1O@IBBJHCH@?$AAk?$AAo?$AAk?$AA?9?$AAi?$AAn@ 000000018002b378     libucrt:lcidtoname_downlevel.obj
 0002:00008388       ??_C@_1M@DMHAEOGC@?$AAk?$AAo?$AA?9?$AAk?$AAr@ 000000018002b388     libucrt:lcidtoname_downlevel.obj
 0002:00008398       ??_C@_1M@HBAHBIGA@?$AAk?$AAy?$AA?9?$AAk?$AAg@ 000000018002b398     libucrt:lcidtoname_downlevel.obj
 0002:000083a8       ??_C@_1M@KPMILCJG@?$AAl?$AAt?$AA?9?$AAl?$AAt@ 000000018002b3a8     libucrt:lcidtoname_downlevel.obj
 0002:000083b8       ??_C@_1M@BDEKKCA@?$AAl?$AAv?$AA?9?$AAl?$AAv@ 000000018002b3b8     libucrt:lcidtoname_downlevel.obj
 0002:000083c8       ??_C@_1M@ELCKCCJJ@?$AAm?$AAi?$AA?9?$AAn?$AAz@ 000000018002b3c8     libucrt:lcidtoname_downlevel.obj
 0002:000083d8       ??_C@_1M@CBOOLAPA@?$AAm?$AAk?$AA?9?$AAm?$AAk@ 000000018002b3d8     libucrt:lcidtoname_downlevel.obj
 0002:000083e8       ??_C@_1M@GPHNBJKN@?$AAm?$AAl?$AA?9?$AAi?$AAn@ 000000018002b3e8     libucrt:lcidtoname_downlevel.obj
 0002:000083f8       ??_C@_1M@PABJILIG@?$AAm?$AAn?$AA?9?$AAm?$AAn@ 000000018002b3f8     libucrt:lcidtoname_downlevel.obj
 0002:00008408       ??_C@_1M@FGBKKIPG@?$AAm?$AAr?$AA?9?$AAi?$AAn@ 000000018002b408     libucrt:lcidtoname_downlevel.obj
 0002:00008418       ??_C@_1M@NDBPDDAL@?$AAm?$AAs?$AA?9?$AAb?$AAn@ 000000018002b418     libucrt:lcidtoname_downlevel.obj
 0002:00008428       ??_C@_1M@OPIHOOPI@?$AAm?$AAs?$AA?9?$AAm?$AAy@ 000000018002b428     libucrt:lcidtoname_downlevel.obj
 0002:00008438       ??_C@_1M@PPDBCNFM@?$AAm?$AAt?$AA?9?$AAm?$AAt@ 000000018002b438     libucrt:lcidtoname_downlevel.obj
 0002:00008448       ??_C@_1M@KDJDKMDD@?$AAn?$AAb?$AA?9?$AAn?$AAo@ 000000018002b448     libucrt:lcidtoname_downlevel.obj
 0002:00008458       ??_C@_1M@KFCFLMJP@?$AAn?$AAl?$AA?9?$AAb?$AAe@ 000000018002b458     libucrt:lcidtoname_downlevel.obj
 0002:00008468       ??_C@_1M@KPOPDDGO@?$AAn?$AAl?$AA?9?$AAn?$AAl@ 000000018002b468     libucrt:lcidtoname_downlevel.obj
 0002:00008478       ??_C@_1M@LJKPEMLN@?$AAn?$AAn?$AA?9?$AAn?$AAo@ 000000018002b478     libucrt:lcidtoname_downlevel.obj
 0002:00008488       ??_C@_1M@BDGHHBFL@?$AAn?$AAs?$AA?9?$AAz?$AAa@ 000000018002b488     libucrt:lcidtoname_downlevel.obj
 0002:00008498       ??_C@_1M@IDEHOAP@?$AAp?$AAa?$AA?9?$AAi?$AAn@ 000000018002b498     libucrt:lcidtoname_downlevel.obj
 0002:000084a8       ??_C@_1M@HDBKGOGH@?$AAp?$AAl?$AA?9?$AAp?$AAl@ 000000018002b4a8     libucrt:lcidtoname_downlevel.obj
 0002:000084b8       ??_C@_1M@LJLLCMEH@?$AAp?$AAt?$AA?9?$AAb?$AAr@ 000000018002b4b8     libucrt:lcidtoname_downlevel.obj
 0002:000084c8       ??_C@_1M@NCMONAAL@?$AAp?$AAt?$AA?9?$AAp?$AAt@ 000000018002b4c8     libucrt:lcidtoname_downlevel.obj
 0002:000084d8       ??_C@_1O@EAKMAJDN@?$AAq?$AAu?$AAz?$AA?9?$AAb?$AAo@ 000000018002b4d8     libucrt:lcidtoname_downlevel.obj
 0002:000084e8       ??_C@_1O@BHHPIGDN@?$AAq?$AAu?$AAz?$AA?9?$AAe?$AAc@ 000000018002b4e8     libucrt:lcidtoname_downlevel.obj
 0002:000084f8       ??_C@_1O@GBAPEKMJ@?$AAq?$AAu?$AAz?$AA?9?$AAp?$AAe@ 000000018002b4f8     libucrt:lcidtoname_downlevel.obj
 0002:00008508       ??_C@_1M@CLGLEFBO@?$AAr?$AAo?$AA?9?$AAr?$AAo@ 000000018002b508     libucrt:lcidtoname_downlevel.obj
 0002:00008518       ??_C@_1M@CEEDODME@?$AAr?$AAu?$AA?9?$AAr?$AAu@ 000000018002b518     libucrt:lcidtoname_downlevel.obj
 0002:00008528       ??_C@_1M@HPKKKMPP@?$AAs?$AAa?$AA?9?$AAi?$AAn@ 000000018002b528     libucrt:lcidtoname_downlevel.obj
 0002:00008538       ??_C@_1M@BKMAIGOJ@?$AAs?$AAe?$AA?9?$AAf?$AAi@ 000000018002b538     libucrt:lcidtoname_downlevel.obj
 0002:00008548       ??_C@_1M@NDPIFLFI@?$AAs?$AAe?$AA?9?$AAn?$AAo@ 000000018002b548     libucrt:lcidtoname_downlevel.obj
 0002:00008558       ??_C@_1M@DANKKHJ@?$AAs?$AAe?$AA?9?$AAs?$AAe@ 000000018002b558     libucrt:lcidtoname_downlevel.obj
 0002:00008568       ??_C@_1M@PNBLONPJ@?$AAs?$AAk?$AA?9?$AAs?$AAk@ 000000018002b568     libucrt:lcidtoname_downlevel.obj
 0002:00008578       ??_C@_1M@LFMODOAL@?$AAs?$AAl?$AA?9?$AAs?$AAi@ 000000018002b578     libucrt:lcidtoname_downlevel.obj
 0002:00008588       ??_C@_1O@DFKOMPG@?$AAs?$AAm?$AAa?$AA?9?$AAn?$AAo@ 000000018002b588     libucrt:lcidtoname_downlevel.obj
 0002:00008598       ??_C@_1O@NDKPBNNH@?$AAs?$AAm?$AAa?$AA?9?$AAs?$AAe@ 000000018002b598     libucrt:lcidtoname_downlevel.obj
 0002:000085a8       ??_C@_1O@PLLKBHAB@?$AAs?$AAm?$AAj?$AA?9?$AAn?$AAo@ 000000018002b5a8     libucrt:lcidtoname_downlevel.obj
 0002:000085b8       ??_C@_1O@CLEPOGCA@?$AAs?$AAm?$AAj?$AA?9?$AAs?$AAe@ 000000018002b5b8     libucrt:lcidtoname_downlevel.obj
 0002:000085c8       ??_C@_1O@DLGJGKMK@?$AAs?$AAm?$AAn?$AA?9?$AAf?$AAi@ 000000018002b5c8     libucrt:lcidtoname_downlevel.obj
 0002:000085d8       ??_C@_1O@OJDJGAJC@?$AAs?$AAm?$AAs?$AA?9?$AAf?$AAi@ 000000018002b5d8     libucrt:lcidtoname_downlevel.obj
 0002:000085e8       ??_C@_1M@BOFOGHPB@?$AAs?$AAq?$AA?9?$AAa?$AAl@ 000000018002b5e8     libucrt:lcidtoname_downlevel.obj
 0002:000085f8       ??_C@_1BG@LJBBIPGB@?$AAs?$AAr?$AA?9?$AAb?$AAa?$AA?9?$AAc?$AAy?$AAr?$AAl@ 000000018002b5f8     libucrt:lcidtoname_downlevel.obj
 0002:00008610       ??_C@_1BG@JLBENFOE@?$AAs?$AAr?$AA?9?$AAb?$AAa?$AA?9?$AAl?$AAa?$AAt?$AAn@ 000000018002b610     libucrt:lcidtoname_downlevel.obj
 0002:00008628       ??_C@_1BG@KODPNHE@?$AAs?$AAr?$AA?9?$AAs?$AAp?$AA?9?$AAc?$AAy?$AAr?$AAl@ 000000018002b628     libucrt:lcidtoname_downlevel.obj
 0002:00008640       ??_C@_1BG@CIOGKHPB@?$AAs?$AAr?$AA?9?$AAs?$AAp?$AA?9?$AAl?$AAa?$AAt?$AAn@ 000000018002b640     libucrt:lcidtoname_downlevel.obj
 0002:00008658       ??_C@_1M@NGFJLMAC@?$AAs?$AAv?$AA?9?$AAf?$AAi@ 000000018002b658     libucrt:lcidtoname_downlevel.obj
 0002:00008668       ??_C@_1M@MPJEJAJC@?$AAs?$AAv?$AA?9?$AAs?$AAe@ 000000018002b668     libucrt:lcidtoname_downlevel.obj
 0002:00008678       ??_C@_1M@MPNDHLFK@?$AAs?$AAw?$AA?9?$AAk?$AAe@ 000000018002b678     libucrt:lcidtoname_downlevel.obj
 0002:00008688       ??_C@_1O@KOHBJJI@?$AAs?$AAy?$AAr?$AA?9?$AAs?$AAy@ 000000018002b688     libucrt:lcidtoname_downlevel.obj
 0002:00008698       ??_C@_1M@LDCEFHA@?$AAt?$AAa?$AA?9?$AAi?$AAn@ 000000018002b698     libucrt:lcidtoname_downlevel.obj
 0002:000086a8       ??_C@_1M@CNJOFAK@?$AAt?$AAe?$AA?9?$AAi?$AAn@ 000000018002b6a8     libucrt:lcidtoname_downlevel.obj
 0002:000086b8       ??_C@_1M@GNAECACD@?$AAt?$AAh?$AA?9?$AAt?$AAh@ 000000018002b6b8     libucrt:lcidtoname_downlevel.obj
 0002:000086c8       ??_C@_1M@CHBIHOJO@?$AAt?$AAn?$AA?9?$AAz?$AAa@ 000000018002b6c8     libucrt:lcidtoname_downlevel.obj
 0002:000086d8       ??_C@_1M@GCCMIGPJ@?$AAt?$AAr?$AA?9?$AAt?$AAr@ 000000018002b6d8     libucrt:lcidtoname_downlevel.obj
 0002:000086e8       ??_C@_1M@CELMCNBK@?$AAt?$AAt?$AA?9?$AAr?$AAu@ 000000018002b6e8     libucrt:lcidtoname_downlevel.obj
 0002:000086f8       ??_C@_1M@KLMCELGA@?$AAu?$AAk?$AA?9?$AAu?$AAa@ 000000018002b6f8     libucrt:lcidtoname_downlevel.obj
 0002:00008708       ??_C@_1M@EPAJJAJF@?$AAu?$AAr?$AA?9?$AAp?$AAk@ 000000018002b708     libucrt:lcidtoname_downlevel.obj
 0002:00008718       ??_C@_1BG@GEGPMCDJ@?$AAu?$AAz?$AA?9?$AAu?$AAz?$AA?9?$AAc?$AAy?$AAr?$AAl@ 000000018002b718     libucrt:lcidtoname_downlevel.obj
 0002:00008730       ??_C@_1BG@EGGKJILM@?$AAu?$AAz?$AA?9?$AAu?$AAz?$AA?9?$AAl?$AAa?$AAt?$AAn@ 000000018002b730     libucrt:lcidtoname_downlevel.obj
 0002:00008748       ??_C@_1M@GFOCLFF@?$AAv?$AAi?$AA?9?$AAv?$AAn@ 000000018002b748     libucrt:lcidtoname_downlevel.obj
 0002:00008758       ??_C@_1M@CPAMEDFI@?$AAx?$AAh?$AA?9?$AAz?$AAa@ 000000018002b758     libucrt:lcidtoname_downlevel.obj
 0002:00008768       ??_C@_1O@EBKIFIGN@?$AAz?$AAh?$AA?9?$AAc?$AAh?$AAs@ 000000018002b768     libucrt:lcidtoname_downlevel.obj
 0002:00008778       ??_C@_1O@NMHPGANE@?$AAz?$AAh?$AA?9?$AAc?$AAh?$AAt@ 000000018002b778     libucrt:lcidtoname_downlevel.obj
 0002:00008788       ??_C@_1M@LPINJOMC@?$AAz?$AAh?$AA?9?$AAc?$AAn@ 000000018002b788     libucrt:lcidtoname_downlevel.obj
 0002:00008798       ??_C@_1M@OCJEJODD@?$AAz?$AAh?$AA?9?$AAh?$AAk@ 000000018002b798     libucrt:lcidtoname_downlevel.obj
 0002:000087a8       ??_C@_1M@DNDLJINH@?$AAz?$AAh?$AA?9?$AAm?$AAo@ 000000018002b7a8     libucrt:lcidtoname_downlevel.obj
 0002:000087b8       ??_C@_1M@MBFDNDND@?$AAz?$AAh?$AA?9?$AAs?$AAg@ 000000018002b7b8     libucrt:lcidtoname_downlevel.obj
 0002:000087c8       ??_C@_1M@IMEPLEPE@?$AAz?$AAh?$AA?9?$AAt?$AAw@ 000000018002b7c8     libucrt:lcidtoname_downlevel.obj
 0002:000087d8       ??_C@_1M@BBGHNHJP@?$AAz?$AAu?$AA?9?$AAz?$AAa@ 000000018002b7d8     libucrt:lcidtoname_downlevel.obj
 0002:000087f0       ?large_power_data@?1??multiply_by_power_of_ten@__crt_strtox@@YA_NAEAUbig_integer@2@I@Z@4QBIB 000000018002b7f0     libucrt:cfout.obj
 0002:00009100       ?large_power_indices@?1??multiply_by_power_of_ten@__crt_strtox@@YA_NAEAUbig_integer@2@I@Z@4QBUunpack_index@?1??12@YA_N0I@Z@B 000000018002c100     libucrt:cfout.obj
 0002:00009198       ?small_powers_of_ten@?1??multiply_by_power_of_ten@__crt_strtox@@YA_NAEAUbig_integer@2@I@Z@4QBIB 000000018002c198     libucrt:cfout.obj
 0002:000091bc       ??_C@_01GBGANLPD@0@        000000018002c1bc     libucrt:cfout.obj
 0002:000091c0       ??_C@_05DNEBIAHO@1?$CDINF@ 000000018002c1c0     libucrt:cfout.obj
 0002:000091c8       ??_C@_06IMKFLFPG@1?$CDQNAN@ 000000018002c1c8     libucrt:cfout.obj
 0002:000091d0       ??_C@_06PGGFOGJG@1?$CDSNAN@ 000000018002c1d0     libucrt:cfout.obj
 0002:000091d8       ??_C@_05PHHOCPM@1?$CDIND@  000000018002c1d8     libucrt:cfout.obj
 0002:000091e0       __real@3ff0000000000000    000000018002c1e0     libucrt:ceil.obj
 0002:00009440       __log10_256_lead           000000018002c440     libucrt:log10_256_lead_tail_table.obj
 0002:00009c50       __log10_256_tail           000000018002cc50     libucrt:log10_256_lead_tail_table.obj
 0002:0000a460       __log_F_inv_qword          000000018002d460     libucrt:log_f_inv_qword_table.obj
 0002:0000ac70       ??_C@_05HGHHAHAP@log10@    000000018002dc70     libucrt:log_special.obj
 0002:0000ac78       ??_C@_1BA@BALFACEM@?$AAC?$AAO?$AAN?$AAO?$AAU?$AAT?$AA$@ 000000018002dc78     libucrt:initcon.obj
 0002:0000ad00       _load_config_used          000000018002dd00     LIBCMT:loadcfg.obj
 0002:0000ae30       _tls_used                  000000018002de30     LIBCMT:tlssup.obj
 0002:0000ae58       ??_R4exception@std@@6B@    000000018002de58     LIBCMT:throw_bad_alloc.obj
 0002:0000ae80       ??_R3exception@std@@8      000000018002de80     LIBCMT:throw_bad_alloc.obj
 0002:0000ae98       ??_R2exception@std@@8      000000018002de98     LIBCMT:throw_bad_alloc.obj
 0002:0000aea8       ??_R1A@?0A@EA@exception@std@@8 000000018002dea8     LIBCMT:throw_bad_alloc.obj
 0002:0000aed0       ??_R4bad_alloc@std@@6B@    000000018002ded0     LIBCMT:throw_bad_alloc.obj
 0002:0000aef8       ??_R3bad_alloc@std@@8      000000018002def8     LIBCMT:throw_bad_alloc.obj
 0002:0000af10       ??_R2bad_alloc@std@@8      000000018002df10     LIBCMT:throw_bad_alloc.obj
 0002:0000af28       ??_R1A@?0A@EA@bad_alloc@std@@8 000000018002df28     LIBCMT:throw_bad_alloc.obj
 0002:0000af50       ??_R4bad_array_new_length@std@@6B@ 000000018002df50     LIBCMT:throw_bad_alloc.obj
 0002:0000af78       ??_R3bad_array_new_length@std@@8 000000018002df78     LIBCMT:throw_bad_alloc.obj
 0002:0000af90       ??_R2bad_array_new_length@std@@8 000000018002df90     LIBCMT:throw_bad_alloc.obj
 0002:0000afb0       ??_R1A@?0A@EA@bad_array_new_length@std@@8 000000018002dfb0     LIBCMT:throw_bad_alloc.obj
 0002:0000afd8       ??_R4type_info@@6B@        000000018002dfd8     LIBCMT:std_type_info_static.obj
 0002:0000b000       ??_R3type_info@@8          000000018002e000     LIBCMT:std_type_info_static.obj
 0002:0000b018       ??_R2type_info@@8          000000018002e018     LIBCMT:std_type_info_static.obj
 0002:0000b028       ??_R1A@?0A@EA@type_info@@8 000000018002e028     LIBCMT:std_type_info_static.obj
 0002:0000b050       ??_R4bad_exception@std@@6B@ 000000018002e050     libvcruntime:frame.obj
 0002:0000b078       ??_R3bad_exception@std@@8  000000018002e078     libvcruntime:frame.obj
 0002:0000b090       ??_R2bad_exception@std@@8  000000018002e090     libvcruntime:frame.obj
 0002:0000b0a8       ??_R1A@?0A@EA@bad_exception@std@@8 000000018002e0a8     libvcruntime:frame.obj
 0002:0000b4d8       __rtc_iaa                  000000018002e4d8     LIBCMT:initsect.obj
 0002:0000b4e0       __rtc_izz                  000000018002e4e0     LIBCMT:initsect.obj
 0002:0000b4e8       __rtc_taa                  000000018002e4e8     LIBCMT:initsect.obj
 0002:0000b4f0       __rtc_tzz                  000000018002e4f0     LIBCMT:initsect.obj
 0002:0000b4f8       _tls_start                 000000018002e4f8     LIBCMT:tlssup.obj
 0002:0000b4fc       _Init_thread_epoch         000000018002e4fc     LIBCMT:thread_safe_statics.obj
 0002:0000b500       _tls_end                   000000018002e500     LIBCMT:tlssup.obj
 0002:0000cbb8       _TI2?AVbad_alloc@std@@     000000018002fbb8     LIBCMT:throw_bad_alloc.obj
 0002:0000cbd8       _CTA2?AVbad_alloc@std@@    000000018002fbd8     LIBCMT:throw_bad_alloc.obj
 0002:0000cbf0       _CT??_R0?AVbad_alloc@std@@@8??0bad_alloc@std@@QEAA@AEBV01@@Z24 000000018002fbf0     LIBCMT:throw_bad_alloc.obj
 0002:0000cc18       _CT??_R0?AVexception@std@@@8??0exception@std@@QEAA@AEBV01@@Z24 000000018002fc18     LIBCMT:throw_bad_alloc.obj
 0002:0000cc40       _TI3?AVbad_array_new_length@std@@ 000000018002fc40     LIBCMT:throw_bad_alloc.obj
 0002:0000cc60       _CTA3?AVbad_array_new_length@std@@ 000000018002fc60     LIBCMT:throw_bad_alloc.obj
 0002:0000cc80       _CT??_R0?AVbad_array_new_length@std@@@8??0bad_array_new_length@std@@QEAA@AEBV01@@Z24 000000018002fc80     LIBCMT:throw_bad_alloc.obj
 0002:0000cca8       _TI2?AVbad_exception@std@@ 000000018002fca8     libvcruntime:frame.obj
 0002:0000ccc8       _CTA2?AVbad_exception@std@@ 000000018002fcc8     libvcruntime:frame.obj
 0002:0000cce0       _CT??_R0?AVbad_exception@std@@@8??0bad_exception@std@@QEAA@AEBV01@@Z24 000000018002fce0     libvcruntime:frame.obj
 0002:0000cd08       __pobjMapEntryFirst        000000018002fd08     OposVariant.obj
 0002:0000cd10       __pobjMapEntryLast         000000018002fd10     OposVariant.obj
 0002:0000cdcc       __IMPORT_DESCRIPTOR_KERNEL32 000000018002fdcc     kernel32:KERNEL32.dll
 0002:0000cde0       __IMPORT_DESCRIPTOR_USER32 000000018002fde0     user32:USER32.dll
 0002:0000cdf4       __IMPORT_DESCRIPTOR_GDI32  000000018002fdf4     gdi32:GDI32.dll
 0002:0000ce08       __IMPORT_DESCRIPTOR_ADVAPI32 000000018002fe08     advapi32:ADVAPI32.dll
 0002:0000ce1c       __IMPORT_DESCRIPTOR_ole32  000000018002fe1c     ole32:ole32.dll
 0002:0000ce30       __IMPORT_DESCRIPTOR_OLEAUT32 000000018002fe30     oleaut32:OLEAUT32.dll
 0002:0000ce44       __NULL_IMPORT_DESCRIPTOR   000000018002fe44     kernel32:KERNEL32.dll
 0003:00000000       ?s_Claim@?7??GetIDsOfNames@CComTypeInfoHolder@ATL@@QEAAJAEBU_GUID@@PEAPEA_WIKPEAJ@Z@4PA_WA 0000000180032000     POSKeyboard.obj
 0003:00000018       ?s_Release@?7??GetIDsOfNames@CComTypeInfoHolder@ATL@@QEAAJAEBU_GUID@@PEAPEA_WIKPEAJ@Z@4PA_WA 0000000180032018     POSKeyboard.obj
 0003:00000038       ?_tih@?$IDispatchImpl@UIOPOSPOSKeyboard@@$1?IID_IOPOSPOSKeyboard@@3U_GUID@@B$1?LIBID_OposPOSKeyboard_CCO@@3U3@B$00$0A@VCComTypeInfoHolder@ATL@@@ATL@@1VCComTypeInfoHolder@2@A 0000000180032038     POSKeyboard.obj
 0003:00000070       ?_tih@?$IProvideClassInfo2Impl@$1?CLSID_OPOSPOSKeyboard@@3U_GUID@@B$1?DIID__IOPOSPOSKeyboardEvents@@3U2@B$1?LIBID_OposPOSKeyboard_CCO@@3U2@B$00$0A@VCComTypeInfoHolder@ATL@@@ATL@@1VCComTypeInfoHolder@2@A 0000000180032070     POSKeyboard.obj
 0003:000000a8       ?vszContents@?6??Save@?$IPersistStorageImpl@VCOPOSPOSKeyboard@@@ATL@@UEAAJPEAUIStorage@@H@Z@4PEB_WEB 00000001800320a8     POSKeyboard.obj
 0003:000000b0       ?wc@?1??GetWndClassInfo@?$CWindowImpl@VCOPOSPOSKeyboard@@VCWindow@ATL@@V?$CWinTraits@$0FGAAAAAA@$0A@@3@@ATL@@SAAEAU_ATL_WNDCLASSINFOW@3@XZ@4U43@A 00000001800320b0     POSKeyboard.obj
 0003:000001a8       ?rcDefault@CWindow@ATL@@2UtagRECT@@A 00000001800321a8     POSKeyboard.obj
 0003:00000250       ?g_WindowName@@3PA_WA      0000000180032250     POSKeyboardImpl.obj
 0003:00000280       ?g_ControlDescription@@3PADA 0000000180032280     POSKeyboardImpl.obj
 0003:000002cc       ?g_ControlVersion@@3JA     00000001800322cc     POSKeyboardImpl.obj
 0003:00000384       __scrt_native_dllmain_reason 0000000180032384     LIBCMT:utility.obj
 0003:00000388       _Init_global_epoch         0000000180032388     LIBCMT:thread_safe_statics.obj
 0003:00000390       __security_cookie_complement 0000000180032390     LIBCMT:gs_cookie.obj
 0003:00000398       __security_cookie          0000000180032398     LIBCMT:gs_cookie.obj
 0003:000003a0       __isa_available            00000001800323a0     LIBCMT:cpu_disp.obj
 0003:000003a4       __isa_enabled              00000001800323a4     LIBCMT:cpu_disp.obj
 0003:000003a8       __memcpy_nt_iters          00000001800323a8     LIBCMT:cpu_disp.obj
 0003:000003b0       __memset_nt_iters          00000001800323b0     LIBCMT:cpu_disp.obj
 0003:000003d8       __abort_behavior           00000001800323d8     libucrt:abort.obj
 0003:000003f0       _iob                       00000001800323f0     libucrt:_file.obj
 0003:00000500       __acrt_initial_locale_data 0000000180032500     libucrt:nlsdata.obj
 0003:00000658       __acrt_initial_locale_pointers 0000000180032658     libucrt:nlsdata.obj
 0003:00000668       __acrt_wide_c_locale_string 0000000180032668     libucrt:nlsdata.obj
 0003:00000670       __acrt_initial_multibyte_data 0000000180032670     libucrt:mbctype.obj
 0003:00000bb0       _pwctype                   0000000180032bb0     libucrt:ctype.obj
 0003:00000bb8       __globallocalestatus       0000000180032bb8     libucrt:glstatus.obj
 0003:00000bc0       __acrt_lconv_c             0000000180032bc0     libucrt:localeconv.obj
 0003:00000c58       __acrt_lconv_static_decimal 0000000180032c58     libucrt:localeconv.obj
 0003:00000c5c       __acrt_lconv_static_W_decimal 0000000180032c5c     libucrt:localeconv.obj
 0003:00000c60       _lookuptrailbytes          0000000180032c60     libucrt:read.obj
 0003:00000d84       _fltused                   0000000180032d84     LIBCMT:fltused.obj
 0003:00000d88       ??_R0?AVbad_alloc@std@@@8  0000000180032d88     LIBCMT:throw_bad_alloc.obj
 0003:00000db0       ??_R0?AVexception@std@@@8  0000000180032db0     LIBCMT:throw_bad_alloc.obj
 0003:00000dd8       ??_R0?AVbad_array_new_length@std@@@8 0000000180032dd8     LIBCMT:throw_bad_alloc.obj
 0003:00000e08       ??_R0?AVtype_info@@@8      0000000180032e08     LIBCMT:std_type_info_static.obj
 0003:00000e28       ??_R0?AVbad_exception@std@@@8 0000000180032e28     libvcruntime:frame.obj
 0003:00000e50       ?_pPerfRegFunc@ATL@@3P6AJPEAUHINSTANCE__@@@ZEA 0000000180032e50     OposVariant.obj
 0003:00000e58       ?_pPerfUnRegFunc@ATL@@3P6AJXZEA 0000000180032e58     OposVariant.obj
 0003:00000e60       ?_AtlRegisterPerUser@ATL@@3_NA 0000000180032e60     OposVariant.obj
 0003:00000e68       ?_pAtlModule@ATL@@3PEAVCAtlModule@1@EA 0000000180032e68     OposVariant.obj
 0003:00000e70       ?_pModule@ATL@@3PEAVCComModule@1@EA 0000000180032e70     OposVariant.obj
 0003:00000e78       ?m_bInitFailed@CAtlBaseModule@ATL@@2_NA 0000000180032e78     OposVariant.obj
 0003:00000e80       ?_AtlComModule@ATL@@3VCAtlComModule@1@A 0000000180032e80     OposVariant.obj
 0003:00000ed0       ?_AtlWinModule@ATL@@3VCAtlWinModule@1@A 0000000180032ed0     OposVariant.obj
 0003:00000f18       ?m_libid@CAtlModule@ATL@@2U_GUID@@A 0000000180032f18     POSKeyboard.obj
 0003:00000f28       ?_entries@?1??GetConnMap@COPOSPOSKeyboard@@SAPEBU_ATL_CONNMAP_ENTRY@ATL@@PEAH@Z@4QBU34@B 0000000180032f28     POSKeyboard.obj
 0003:00000f40       ?$TSS0@?1??GetConnMap@COPOSPOSKeyboard@@SAPEBU_ATL_CONNMAP_ENTRY@ATL@@PEAH@Z@4HA 0000000180032f40     POSKeyboard.obj
 0003:00000f48       ?_OptionsStorage@?1??__local_stdio_printf_options@@9@4_KA 0000000180032f48     POSKeyboard.obj
 0003:00000f50       ?pfnRegDeleteKeyEx@?1??DeleteSubKey@CRegKey@ATL@@QEAAJPEB_W@Z@4P6AJPEAUHKEY__@@0KK@ZEA 0000000180032f50     POSKeyboard.obj
 0003:00000f58       ?bInitialized@?1??DeleteSubKey@CRegKey@ATL@@QEAAJPEB_W@Z@4_NA 0000000180032f58     POSKeyboard.obj
 0003:00000f60       ?_Module@@3VCComModule@ATL@@A 0000000180032f60     POSKeyboard.obj
 0003:00000fb0       ?pConnMap@?$IConnectionPointContainerImpl@VCOPOSPOSKeyboard@@@ATL@@0PEBU_ATL_CONNMAP_ENTRY@2@EB 0000000180032fb0     POSKeyboard.obj
 0003:00000fb8       ?s_nInstances@COPOSPOSKeyboard@@1HA 0000000180032fb8     POSKeyboardImpl.obj
 0003:00000fc0       __scrt_current_native_startup_state 0000000180032fc0     LIBCMT:utility.obj
 0003:00000fc8       __scrt_native_startup_lock 0000000180032fc8     LIBCMT:utility.obj
 0003:000015c0       _tls_index                 00000001800335c0     LIBCMT:tlssup.obj
 0003:000015c8       __favor                    00000001800335c8     LIBCMT:cpu_disp.obj
 0003:000015cc       __scrt_debugger_hook_flag  00000001800335cc     LIBCMT:utility_desktop.obj
 0003:000015d0       ?__type_info_root_node@@3U__type_info_node@@A 00000001800335d0     LIBCMT:tncleanup.obj
 0003:000015e0       ?_OptionsStorage@?1??__local_stdio_scanf_options@@9@4_KA 00000001800335e0     LIBCMT:default_local_stdio_options.obj
 0003:000015f0       ?_AtlBaseModule@ATL@@3VCAtlBaseModule@1@A 00000001800335f0     atls:atlbase.obj
 0003:00001650       ?__AtlThunkPool@@3PEAT_SLIST_HEADER@@EA 0000000180033650     atls:atlthunk.obj
 0003:0000167c       __@@_PchSym_@00@UzABUPdlipUGUhUrmgvinvwrzgvUexgllohUzgohOmzgrevkilqPBACIAJCBDBUlyqiUznwGEUhgwzucOlyq@4B2008FD98C1DD4 000000018003367c     atls:stdafx.obj
 0003:00001680       ?__WinRTOutOfMemoryExceptionCallback@@3P6APEAXXZEA 0000000180033680     libvcruntime:ehhelpers.obj
 0003:00001688       __pPurecall                0000000180033688     libvcruntime:purevirt_data.obj
 0003:00001740       ?pArgList@UnDecorator@@0PEAVReplicator@@EA 0000000180033740     libvcruntime:undname.obj
 0003:00001748       ?pZNameList@UnDecorator@@0PEAVReplicator@@EA 0000000180033748     libvcruntime:undname.obj
 0003:00001750       ?pTemplateArgList@UnDecorator@@0PEAVReplicator@@EA 0000000180033750     libvcruntime:undname.obj
 0003:00001758       ?gName@UnDecorator@@0PEBDEB 0000000180033758     libvcruntime:undname.obj
 0003:00001760       ?name@UnDecorator@@0PEBDEB 0000000180033760     libvcruntime:undname.obj
 0003:00001768       ?disableFlags@UnDecorator@@0KA 0000000180033768     libvcruntime:undname.obj
 0003:0000176c       ?fExplicitTemplateParams@UnDecorator@@0_NA 000000018003376c     libvcruntime:undname.obj
 0003:0000176d       ?fGetTemplateArgumentList@UnDecorator@@0_NA 000000018003376d     libvcruntime:undname.obj
 0003:00001770       ?m_pGetParameter@UnDecorator@@0P6APEADJ@ZEA 0000000180033770     libvcruntime:undname.obj
 0003:00001778       ?m_CHPENameOffset@UnDecorator@@0KA 0000000180033778     libvcruntime:undname.obj
 0003:0000177c       ?m_recursionLevel@UnDecorator@@0KA 000000018003377c     libvcruntime:undname.obj
 0003:00001800       ?c_exit_complete@?1???R<lambda_6e4b09c48022b2350581041d5f6b0c4c>@@QEBA@XZ@4_NA 0000000180033800     libucrt:exit.obj
 0003:00001918       _environ_table             0000000180033918     libucrt:environment_initialization.obj
 0003:00001920       _wenviron_table            0000000180033920     libucrt:environment_initialization.obj
 0003:00001928       __dcrt_initial_wide_environment 0000000180033928     libucrt:environment_initialization.obj
 0003:00001930       __dcrt_initial_narrow_environment 0000000180033930     libucrt:environment_initialization.obj
 0003:00001938       __acrt_atexit_table        0000000180033938     libucrt:onexit.obj
 0003:00001950       __acrt_at_quick_exit_table 0000000180033950     libucrt:onexit.obj
 0003:00001b28       _nstream                   0000000180033b28     libucrt:_file.obj
 0003:00001b30       __piob                     0000000180033b30     libucrt:_file.obj
 0003:00001b40       __acrt_stdout_buffer       0000000180033b40     libucrt:_sftbuf.obj
 0003:00001b48       __acrt_stderr_buffer       0000000180033b48     libucrt:_sftbuf.obj
 0003:00001b50       __acrt_locale_changed_data 0000000180033b50     libucrt:wsetlocale.obj
 0003:00001b58       __acrt_current_locale_data 0000000180033b58     libucrt:nlsdata.obj
 0003:00001b60       __pioinfo                  0000000180033b60     libucrt:ioinit.obj
 0003:00001f60       _nhandle                   0000000180033f60     libucrt:ioinit.obj
 0003:000021a8       _mbctype                   00000001800341a8     libucrt:mbctype.obj
 0003:000021b0       _mbcasemap                 00000001800341b0     libucrt:mbctype.obj
 0003:000021b8       __acrt_current_multibyte_data 00000001800341b8     libucrt:mbctype.obj
 0003:000021c8       _pgmptr                    00000001800341c8     libucrt:argv_data.obj
 0003:000021d0       __argc                     00000001800341d0     libucrt:argv_data.obj
 0003:000021d8       __argv                     00000001800341d8     libucrt:argv_data.obj
 0003:000021e0       __wargv                    00000001800341e0     libucrt:argv_data.obj
 0003:000021e8       _acmdln                    00000001800341e8     libucrt:argv_data.obj
 0003:000021f0       _wcmdln                    00000001800341f0     libucrt:argv_data.obj
 0003:000021f8       __acrt_heap                00000001800341f8     libucrt:heap_handle.obj
 0003:0000222c       __acrt_lconv_static_null   000000018003422c     libucrt:localeconv.obj
 0003:00002230       __acrt_lconv_static_W_null 0000000180034230     libucrt:localeconv.obj
 0003:00002244       __fma3_is_available        0000000180034244     libucrt:fma3_available.obj
 0003:00002248       __use_fma3_lib             0000000180034248     libucrt:fma3_available.obj
 0003:00002250       __dyn_tls_init_callback    0000000180034250     <common>
 0003:00002258       __scrt_ucrt_dll_is_in_use  0000000180034258     <common>

 entry point at        0001:0000ea64

 Static symbols

 0000:fffc3000       .debug$S                   0000000180000000     OPOSPOSKeyboard.exp
 0000:fffc3000       .debug$S                   0000000180000000     advapi32:ADVAPI32.dll
 0000:fffc3000       .debug$S                   0000000180000000     advapi32:ADVAPI32.dll
 0000:fffc3000       .debug$S                   0000000180000000     advapi32:ADVAPI32.dll
 0000:fffc3000       .debug$S                   0000000180000000     advapi32:ADVAPI32.dll
 0000:fffc3000       .debug$S                   0000000180000000     advapi32:ADVAPI32.dll
 0000:fffc3000       .debug$S                   0000000180000000     advapi32:ADVAPI32.dll
 0000:fffc3000       .debug$S                   0000000180000000     advapi32:ADVAPI32.dll
 0000:fffc3000       .debug$S                   0000000180000000     advapi32:ADVAPI32.dll
 0000:fffc3000       .debug$S                   0000000180000000     advapi32:ADVAPI32.dll
 0000:fffc3000       .debug$S                   0000000180000000     gdi32:GDI32.dll
 0000:fffc3000       .debug$S                   0000000180000000     gdi32:GDI32.dll
 0000:fffc3000       .debug$S                   0000000180000000     gdi32:GDI32.dll
 0000:fffc3000       .debug$S                   0000000180000000     gdi32:GDI32.dll
 0000:fffc3000       .debug$S                   0000000180000000     gdi32:GDI32.dll
 0000:fffc3000       .debug$S                   0000000180000000     gdi32:GDI32.dll
 0000:fffc3000       .debug$S                   0000000180000000     gdi32:GDI32.dll
 0000:fffc3000       .debug$S                   0000000180000000     gdi32:GDI32.dll
 0000:fffc3000       .debug$S                   0000000180000000     gdi32:GDI32.dll
 0000:fffc3000       .debug$S                   0000000180000000     gdi32:GDI32.dll
 0000:fffc3000       .debug$S                   0000000180000000     gdi32:GDI32.dll
 0000:fffc3000       .debug$S                   0000000180000000     gdi32:GDI32.dll
 0000:fffc3000       .debug$S                   0000000180000000     gdi32:GDI32.dll
 0000:fffc3000       .debug$S                   0000000180000000     gdi32:GDI32.dll
 0000:fffc3000       .debug$S                   0000000180000000     gdi32:GDI32.dll
 0000:fffc3000       .debug$S                   0000000180000000     gdi32:GDI32.dll
 0000:fffc3000       .debug$S                   0000000180000000     gdi32:GDI32.dll
 0000:fffc3000       .debug$S                   0000000180000000     gdi32:GDI32.dll
 0000:fffc3000       .debug$S                   0000000180000000     gdi32:GDI32.dll
 0000:fffc3000       .debug$S                   0000000180000000     kernel32:KERNEL32.dll
 0000:fffc3000       .debug$S                   0000000180000000     kernel32:KERNEL32.dll
 0000:fffc3000       .debug$S                   0000000180000000     kernel32:KERNEL32.dll
 0000:fffc3000       .debug$S                   0000000180000000     kernel32:KERNEL32.dll
 0000:fffc3000       .debug$S                   0000000180000000     kernel32:KERNEL32.dll
 0000:fffc3000       .debug$S                   0000000180000000     kernel32:KERNEL32.dll
 0000:fffc3000       .debug$S                   0000000180000000     kernel32:KERNEL32.dll
 0000:fffc3000       .debug$S                   0000000180000000     kernel32:KERNEL32.dll
 0000:fffc3000       .debug$S                   0000000180000000     kernel32:KERNEL32.dll
 0000:fffc3000       .debug$S                   0000000180000000     kernel32:KERNEL32.dll
 0000:fffc3000       .debug$S                   0000000180000000     kernel32:KERNEL32.dll
 0000:fffc3000       .debug$S                   0000000180000000     kernel32:KERNEL32.dll
 0000:fffc3000       .debug$S                   0000000180000000     kernel32:KERNEL32.dll
 0000:fffc3000       .debug$S                   0000000180000000     kernel32:KERNEL32.dll
 0000:fffc3000       .debug$S                   0000000180000000     kernel32:KERNEL32.dll
 0000:fffc3000       .debug$S                   0000000180000000     kernel32:KERNEL32.dll
 0000:fffc3000       .debug$S                   0000000180000000     kernel32:KERNEL32.dll
 0000:fffc3000       .debug$S                   0000000180000000     kernel32:KERNEL32.dll
 0000:fffc3000       .debug$S                   0000000180000000     kernel32:KERNEL32.dll
 0000:fffc3000       .debug$S                   0000000180000000     kernel32:KERNEL32.dll
 0000:fffc3000       .debug$S                   0000000180000000     kernel32:KERNEL32.dll
 0000:fffc3000       .debug$S                   0000000180000000     kernel32:KERNEL32.dll
 0000:fffc3000       .debug$S                   0000000180000000     kernel32:KERNEL32.dll
 0000:fffc3000       .debug$S                   0000000180000000     kernel32:KERNEL32.dll
 0000:fffc3000       .debug$S                   0000000180000000     kernel32:KERNEL32.dll
 0000:fffc3000       .debug$S                   0000000180000000     kernel32:KERNEL32.dll
 0000:fffc3000       .debug$S                   0000000180000000     kernel32:KERNEL32.dll
 0000:fffc3000       .debug$S                   0000000180000000     kernel32:KERNEL32.dll
 0000:fffc3000       .debug$S                   0000000180000000     kernel32:KERNEL32.dll
 0000:fffc3000       .debug$S                   0000000180000000     kernel32:KERNEL32.dll
 0000:fffc3000       .debug$S                   0000000180000000     kernel32:KERNEL32.dll
 0000:fffc3000       .debug$S                   0000000180000000     kernel32:KERNEL32.dll
 0000:fffc3000       .debug$S                   0000000180000000     kernel32:KERNEL32.dll
 0000:fffc3000       .debug$S                   0000000180000000     kernel32:KERNEL32.dll
 0000:fffc3000       .debug$S                   0000000180000000     kernel32:KERNEL32.dll
 0000:fffc3000       .debug$S                   0000000180000000     kernel32:KERNEL32.dll
 0000:fffc3000       .debug$S                   0000000180000000     kernel32:KERNEL32.dll
 0000:fffc3000       .debug$S                   0000000180000000     kernel32:KERNEL32.dll
 0000:fffc3000       .debug$S                   0000000180000000     kernel32:KERNEL32.dll
 0000:fffc3000       .debug$S                   0000000180000000     kernel32:KERNEL32.dll
 0000:fffc3000       .debug$S                   0000000180000000     kernel32:KERNEL32.dll
 0000:fffc3000       .debug$S                   0000000180000000     kernel32:KERNEL32.dll
 0000:fffc3000       .debug$S                   0000000180000000     kernel32:KERNEL32.dll
 0000:fffc3000       .debug$S                   0000000180000000     kernel32:KERNEL32.dll
 0000:fffc3000       .debug$S                   0000000180000000     kernel32:KERNEL32.dll
 0000:fffc3000       .debug$S                   0000000180000000     kernel32:KERNEL32.dll
 0000:fffc3000       .debug$S                   0000000180000000     kernel32:KERNEL32.dll
 0000:fffc3000       .debug$S                   0000000180000000     kernel32:KERNEL32.dll
 0000:fffc3000       .debug$S                   0000000180000000     kernel32:KERNEL32.dll
 0000:fffc3000       .debug$S                   0000000180000000     kernel32:KERNEL32.dll
 0000:fffc3000       .debug$S                   0000000180000000     kernel32:KERNEL32.dll
 0000:fffc3000       .debug$S                   0000000180000000     kernel32:KERNEL32.dll
 0000:fffc3000       .debug$S                   0000000180000000     kernel32:KERNEL32.dll
 0000:fffc3000       .debug$S                   0000000180000000     kernel32:KERNEL32.dll
 0000:fffc3000       .debug$S                   0000000180000000     kernel32:KERNEL32.dll
 0000:fffc3000       .debug$S                   0000000180000000     kernel32:KERNEL32.dll
 0000:fffc3000       .debug$S                   0000000180000000     kernel32:KERNEL32.dll
 0000:fffc3000       .debug$S                   0000000180000000     kernel32:KERNEL32.dll
 0000:fffc3000       .debug$S                   0000000180000000     kernel32:KERNEL32.dll
 0000:fffc3000       .debug$S                   0000000180000000     kernel32:KERNEL32.dll
 0000:fffc3000       .debug$S                   0000000180000000     kernel32:KERNEL32.dll
 0000:fffc3000       .debug$S                   0000000180000000     kernel32:KERNEL32.dll
 0000:fffc3000       .debug$S                   0000000180000000     kernel32:KERNEL32.dll
 0000:fffc3000       .debug$S                   0000000180000000     kernel32:KERNEL32.dll
 0000:fffc3000       .debug$S                   0000000180000000     kernel32:KERNEL32.dll
 0000:fffc3000       .debug$S                   0000000180000000     kernel32:KERNEL32.dll
 0000:fffc3000       .debug$S                   0000000180000000     kernel32:KERNEL32.dll
 0000:fffc3000       .debug$S                   0000000180000000     kernel32:KERNEL32.dll
 0000:fffc3000       .debug$S                   0000000180000000     kernel32:KERNEL32.dll
 0000:fffc3000       .debug$S                   0000000180000000     kernel32:KERNEL32.dll
 0000:fffc3000       .debug$S                   0000000180000000     kernel32:KERNEL32.dll
 0000:fffc3000       .debug$S                   0000000180000000     kernel32:KERNEL32.dll
 0000:fffc3000       .debug$S                   0000000180000000     kernel32:KERNEL32.dll
 0000:fffc3000       .debug$S                   0000000180000000     kernel32:KERNEL32.dll
 0000:fffc3000       .debug$S                   0000000180000000     kernel32:KERNEL32.dll
 0000:fffc3000       .debug$S                   0000000180000000     kernel32:KERNEL32.dll
 0000:fffc3000       .debug$S                   0000000180000000     kernel32:KERNEL32.dll
 0000:fffc3000       .debug$S                   0000000180000000     kernel32:KERNEL32.dll
 0000:fffc3000       .debug$S                   0000000180000000     kernel32:KERNEL32.dll
 0000:fffc3000       .debug$S                   0000000180000000     kernel32:KERNEL32.dll
 0000:fffc3000       .debug$S                   0000000180000000     kernel32:KERNEL32.dll
 0000:fffc3000       .debug$S                   0000000180000000     kernel32:KERNEL32.dll
 0000:fffc3000       .debug$S                   0000000180000000     kernel32:KERNEL32.dll
 0000:fffc3000       .debug$S                   0000000180000000     kernel32:KERNEL32.dll
 0000:fffc3000       .debug$S                   0000000180000000     kernel32:KERNEL32.dll
 0000:fffc3000       .debug$S                   0000000180000000     kernel32:KERNEL32.dll
 0000:fffc3000       .debug$S                   0000000180000000     kernel32:KERNEL32.dll
 0000:fffc3000       .debug$S                   0000000180000000     kernel32:KERNEL32.dll
 0000:fffc3000       .debug$S                   0000000180000000     kernel32:KERNEL32.dll
 0000:fffc3000       .debug$S                   0000000180000000     kernel32:KERNEL32.dll
 0000:fffc3000       .debug$S                   0000000180000000     kernel32:KERNEL32.dll
 0000:fffc3000       .debug$S                   0000000180000000     kernel32:KERNEL32.dll
 0000:fffc3000       .debug$S                   0000000180000000     kernel32:KERNEL32.dll
 0000:fffc3000       .debug$S                   0000000180000000     kernel32:KERNEL32.dll
 0000:fffc3000       .debug$S                   0000000180000000     kernel32:KERNEL32.dll
 0000:fffc3000       .debug$S                   0000000180000000     kernel32:KERNEL32.dll
 0000:fffc3000       .debug$S                   0000000180000000     kernel32:KERNEL32.dll
 0000:fffc3000       .debug$S                   0000000180000000     kernel32:KERNEL32.dll
 0000:fffc3000       .debug$S                   0000000180000000     kernel32:KERNEL32.dll
 0000:fffc3000       .debug$S                   0000000180000000     kernel32:KERNEL32.dll
 0000:fffc3000       .debug$S                   0000000180000000     kernel32:KERNEL32.dll
 0000:fffc3000       .debug$S                   0000000180000000     kernel32:KERNEL32.dll
 0000:fffc3000       .debug$S                   0000000180000000     kernel32:KERNEL32.dll
 0000:fffc3000       .debug$S                   0000000180000000     kernel32:KERNEL32.dll
 0000:fffc3000       .debug$S                   0000000180000000     kernel32:KERNEL32.dll
 0000:fffc3000       .debug$S                   0000000180000000     kernel32:KERNEL32.dll
 0000:fffc3000       .debug$S                   0000000180000000     kernel32:KERNEL32.dll
 0000:fffc3000       .debug$S                   0000000180000000     kernel32:KERNEL32.dll
 0000:fffc3000       .debug$S                   0000000180000000     kernel32:KERNEL32.dll
 0000:fffc3000       .debug$S                   0000000180000000     kernel32:KERNEL32.dll
 0000:fffc3000       .debug$S                   0000000180000000     kernel32:KERNEL32.dll
 0000:fffc3000       .debug$S                   0000000180000000     ole32:ole32.dll
 0000:fffc3000       .debug$S                   0000000180000000     ole32:ole32.dll
 0000:fffc3000       .debug$S                   0000000180000000     ole32:ole32.dll
 0000:fffc3000       .debug$S                   0000000180000000     ole32:ole32.dll
 0000:fffc3000       .debug$S                   0000000180000000     ole32:ole32.dll
 0000:fffc3000       .debug$S                   0000000180000000     ole32:ole32.dll
 0000:fffc3000       .debug$S                   0000000180000000     ole32:ole32.dll
 0000:fffc3000       .debug$S                   0000000180000000     ole32:ole32.dll
 0000:fffc3000       .debug$S                   0000000180000000     ole32:ole32.dll
 0000:fffc3000       .debug$S                   0000000180000000     ole32:ole32.dll
 0000:fffc3000       .debug$S                   0000000180000000     ole32:ole32.dll
 0000:fffc3000       .debug$S                   0000000180000000     ole32:ole32.dll
 0000:fffc3000       .debug$S                   0000000180000000     ole32:ole32.dll
 0000:fffc3000       .debug$S                   0000000180000000     ole32:ole32.dll
 0000:fffc3000       .debug$S                   0000000180000000     oleaut32:OLEAUT32.dll
 0000:fffc3000       .debug$S                   0000000180000000     oleaut32:OLEAUT32.dll
 0000:fffc3000       .debug$S                   0000000180000000     oleaut32:OLEAUT32.dll
 0000:fffc3000       .debug$S                   0000000180000000     oleaut32:OLEAUT32.dll
 0000:fffc3000       .debug$S                   0000000180000000     oleaut32:OLEAUT32.dll
 0000:fffc3000       .debug$S                   0000000180000000     oleaut32:OLEAUT32.dll
 0000:fffc3000       .debug$S                   0000000180000000     oleaut32:OLEAUT32.dll
 0000:fffc3000       .debug$S                   0000000180000000     oleaut32:OLEAUT32.dll
 0000:fffc3000       .debug$S                   0000000180000000     oleaut32:OLEAUT32.dll
 0000:fffc3000       .debug$S                   0000000180000000     oleaut32:OLEAUT32.dll
 0000:fffc3000       .debug$S                   0000000180000000     oleaut32:OLEAUT32.dll
 0000:fffc3000       .debug$S                   0000000180000000     oleaut32:OLEAUT32.dll
 0000:fffc3000       .debug$S                   0000000180000000     oleaut32:OLEAUT32.dll
 0000:fffc3000       .debug$S                   0000000180000000     oleaut32:OLEAUT32.dll
 0000:fffc3000       .debug$S                   0000000180000000     oleaut32:OLEAUT32.dll
 0000:fffc3000       .debug$S                   0000000180000000     oleaut32:OLEAUT32.dll
 0000:fffc3000       .debug$S                   0000000180000000     user32:USER32.dll
 0000:fffc3000       .debug$S                   0000000180000000     user32:USER32.dll
 0000:fffc3000       .debug$S                   0000000180000000     user32:USER32.dll
 0000:fffc3000       .debug$S                   0000000180000000     user32:USER32.dll
 0000:fffc3000       .debug$S                   0000000180000000     user32:USER32.dll
 0000:fffc3000       .debug$S                   0000000180000000     user32:USER32.dll
 0000:fffc3000       .debug$S                   0000000180000000     user32:USER32.dll
 0000:fffc3000       .debug$S                   0000000180000000     user32:USER32.dll
 0000:fffc3000       .debug$S                   0000000180000000     user32:USER32.dll
 0000:fffc3000       .debug$S                   0000000180000000     user32:USER32.dll
 0000:fffc3000       .debug$S                   0000000180000000     user32:USER32.dll
 0000:fffc3000       .debug$S                   0000000180000000     user32:USER32.dll
 0000:fffc3000       .debug$S                   0000000180000000     user32:USER32.dll
 0000:fffc3000       .debug$S                   0000000180000000     user32:USER32.dll
 0000:fffc3000       .debug$S                   0000000180000000     user32:USER32.dll
 0000:fffc3000       .debug$S                   0000000180000000     user32:USER32.dll
 0000:fffc3000       .debug$S                   0000000180000000     user32:USER32.dll
 0000:fffc3000       .debug$S                   0000000180000000     user32:USER32.dll
 0000:fffc3000       .debug$S                   0000000180000000     user32:USER32.dll
 0000:fffc3000       .debug$S                   0000000180000000     user32:USER32.dll
 0000:fffc3000       .debug$S                   0000000180000000     user32:USER32.dll
 0000:fffc3000       .debug$S                   0000000180000000     user32:USER32.dll
 0000:fffc3000       .debug$S                   0000000180000000     user32:USER32.dll
 0000:fffc3000       .debug$S                   0000000180000000     user32:USER32.dll
 0000:fffc3000       .debug$S                   0000000180000000     user32:USER32.dll
 0000:fffc3000       .debug$S                   0000000180000000     user32:USER32.dll
 0000:fffc3000       .debug$S                   0000000180000000     user32:USER32.dll
 0000:fffc3000       .debug$S                   0000000180000000     user32:USER32.dll
 0000:fffc3000       .debug$S                   0000000180000000     user32:USER32.dll
 0000:fffc3000       .debug$S                   0000000180000000     user32:USER32.dll
 0000:fffc3000       .debug$S                   0000000180000000     user32:USER32.dll
 0000:fffc3000       .debug$S                   0000000180000000     user32:USER32.dll
 0000:fffc3000       .debug$S                   0000000180000000     user32:USER32.dll
 0000:fffc3000       .debug$S                   0000000180000000     user32:USER32.dll
 0000:fffc3000       .debug$S                   0000000180000000     user32:USER32.dll
 0001:00000000       ??__E_AtlComModule@ATL@@YAXXZ 0000000180001000 f   OposVariant.obj
 0001:00000020       ??__E_AtlWinModule@ATL@@YAXXZ 0000000180001020 f   OposVariant.obj
 0001:00000040       ??__E?pConnMap@?$IConnectionPointContainerImpl@VCOPOSPOSKeyboard@@@ATL@@0PEBU_ATL_CONNMAP_ENTRY@2@EB@@YAXXZ 0000000180001040 f   POSKeyboard.obj
 0001:00000058       ??__E_Module@@YAXXZ        0000000180001058 f   POSKeyboard.obj
 0001:00000094       ??__E_AtlBaseModule@ATL@@YAXXZ 0000000180001094 f   atls:atlbase.obj
 0001:0000e07c       ?__scrt_initialize_thread_safe_statics@@YAHXZ 000000018000f07c f   LIBCMT:thread_safe_statics.obj
 0001:0000e14c       ?__scrt_uninitialize_thread_safe_statics@@YAXXZ 000000018000f14c f   LIBCMT:thread_safe_statics.obj
 0001:0000e49c       capture_current_context    000000018000f49c f   LIBCMT:gs_report.obj
 0001:0000e50c       capture_previous_context   000000018000f50c f   LIBCMT:gs_report.obj
 0001:0000e6a0       $$000000                   000000018000f6a0     LIBCMT:chkstk.obj
 0001:0000e710       $$000000                   000000018000f710     LIBCMT:amdsecgs.obj
 0001:0000e744       ?dllmain_crt_dispatch@@YAHQEAUHINSTANCE__@@KQEAX@Z 000000018000f744 f   LIBCMT:dll_dllmain.obj
 0001:0000e794       ?dllmain_crt_process_attach@@YAHQEAUHINSTANCE__@@QEAX@Z 000000018000f794 f   LIBCMT:dll_dllmain.obj
 0001:0000e8ac       ?dllmain_crt_process_detach@@YAH_N@Z 000000018000f8ac f   LIBCMT:dll_dllmain.obj
 0001:0000e930       ?dllmain_dispatch@@YAHQEAUHINSTANCE__@@KQEAX@Z 000000018000f930 f   LIBCMT:dll_dllmain.obj
 0001:0000f1f8       ??$GetProcAddressAll@P6AP6A_JPEAUHWND__@@I_K_J@ZPEAUAtlThunkData_t@@@Z@@YAP6AP6A_JPEAUHWND__@@I_K_J@ZPEAUAtlThunkData_t@@@ZPEAP6AP6A_J0I12@Z3@Z@Z 00000001800101f8 f   atls:atlthunk.obj
 0001:0000f1f8       ??$GetProcAddressAll@P6APEAUAtlThunkData_t@@XZ@@YAP6APEAUAtlThunkData_t@@XZPEAP6APEAU0@XZ@Z 00000001800101f8 f   atls:atlthunk.obj
 0001:0000f1f8       ??$GetProcAddressAll@P6AXPEAUAtlThunkData_t@@@Z@@YAP6AXPEAUAtlThunkData_t@@@ZPEAP6AX0@Z@Z 00000001800101f8 f   atls:atlthunk.obj
 0001:0000f1f8       ??$GetProcAddressAll@P6AXPEAUAtlThunkData_t@@PEAX_K@Z@@YAP6AXPEAUAtlThunkData_t@@PEAX_K@ZPEAP6AX012@Z@Z 00000001800101f8 f   atls:atlthunk.obj
 0001:0000f3d0       ?__InitializeThunkPool@@YAHXZ 00000001800103d0 f   atls:atlthunk.obj
 0001:0000f870       $$000000                   0000000180010870     libvcruntime:memcmp.obj
 0001:0000f950       $$000000                   0000000180010950     libvcruntime:memcpy.obj
 0001:0000fd60       $$000000                   0000000180010d60     libvcruntime:memset.obj
 0001:00010e70       $$000000                   0000000180011e70     libvcruntime:notify.obj
 0001:00010fdc       ??$BuildCatchObjectHelperInternal@V__FrameHandler4@@@@YAHPEAUEHExceptionRecord@@PEAXPEAUHandlerType4@FH4@@PEBU_s_CatchableType@@@Z 0000000180011fdc f   libvcruntime:frame.obj
 0001:000111e0       ??$BuildCatchObjectInternal@V__FrameHandler4@@@@YAXPEAUEHExceptionRecord@@PEAXPEAUHandlerType4@FH4@@PEBU_s_CatchableType@@@Z 00000001800121e0 f   libvcruntime:frame.obj
 0001:000112a4       ??$CatchIt@V__FrameHandler4@@@@YAXPEAUEHExceptionRecord@@PEA_KPEAU_CONTEXT@@PEAU_xDISPATCHER_CONTEXT@@PEAUFuncInfo4@FH4@@PEAUHandlerType4@4@PEBU_s_CatchableType@@PEAUTryBlockMapEntry4@4@H1EE@Z 00000001800122a4 f   libvcruntime:frame.obj
 0001:00011378       ??$FindHandler@V__FrameHandler4@@@@YAXPEAUEHExceptionRecord@@PEA_KPEAU_CONTEXT@@PEAU_xDISPATCHER_CONTEXT@@PEAUFuncInfo4@FH4@@EH1@Z 0000000180012378 f   libvcruntime:frame.obj
 0001:00011888       ??$FindHandlerForForeignException@V__FrameHandler4@@@@YAXPEAUEHExceptionRecord@@PEA_KPEAU_CONTEXT@@PEAU_xDISPATCHER_CONTEXT@@PEAUFuncInfo4@FH4@@HH1@Z 0000000180012888 f   libvcruntime:frame.obj
 0001:00012618       ?ExFilterRethrow@@YAHPEAU_EXCEPTION_POINTERS@@PEAUEHExceptionRecord@@PEAH@Z 0000000180013618 f   libvcruntime:frame.obj
 0001:000126a0       ?ExFilterRethrowFH4@@YAHPEAU_EXCEPTION_POINTERS@@PEAUEHExceptionRecord@@HPEAH@Z 00000001800136a0 f   libvcruntime:frame.obj
 0001:000129b8       ?IsInExceptionSpec@@YAEPEAUEHExceptionRecord@@PEBU_s_ESTypeList@@@Z 00000001800139b8 f   libvcruntime:frame.obj
 0001:00012aa4       ?Is_bad_exception_allowed@@YAEPEBU_s_ESTypeList@@@Z 0000000180013aa4 f   libvcruntime:frame.obj
 0001:00012d80       ?try_get_function@@YAPEAXW4function_id@?A0x5302d918@@QEBDQEBW4module_id@2@2@Z 0000000180013d80 f   libvcruntime:winapi_downlevel.obj
 0001:00013060       $$000000                   0000000180014060     libvcruntime:handlers.obj
 0001:00013878       ??$common_vsprintf@Vformat_validation_base@__crt_stdio_output@@_W@@YAH_KQEA_W0QEB_WQEAU__crt_locale_pointers@@QEAD@Z 0000000180014878 f   libucrt:output.obj
 0001:00014718       $LN17                      0000000180015718     libucrt:output.obj
 0001:000150bc       ??$?RV<lambda_d80eeec6fff315bfe5c115232f3240e3>@@AEAV<lambda_6e4b09c48022b2350581041d5f6b0c4c>@@V<lambda_2358e3775559c9db80273638284d5e45>@@@?$__crt_seh_guarded_call@X@@QEAAX$$QEAV<lambda_d80eeec6fff315bfe5c115232f3240e3>@@AEAV<lambda_6e4b09c48022b2350581041d5f6b0c4c>@@$$QEAV<lambda_2358e3775559c9db80273638284d5e45>@@@Z 00000001800160bc f   libucrt:exit.obj
 0001:000150f4       ??R<lambda_6e4b09c48022b2350581041d5f6b0c4c>@@QEBA@XZ 00000001800160f4 f   libucrt:exit.obj
 0001:000151b8       ?atexit_exception_filter@@YAHK@Z 00000001800161b8 f   libucrt:exit.obj
 0001:000151c4       ?common_exit@@YAXHW4_crt_exit_cleanup_mode@@W4_crt_exit_return_mode@@@Z 00000001800161c4 f   libucrt:exit.obj
 0001:00015280       ?exit_or_terminate_process@@YAXI@Z 0000000180016280 f   libucrt:exit.obj
 0001:000152cc       ?try_cor_exit_process@@YAXI@Z 00000001800162cc f   libucrt:exit.obj
 0001:00015354       ??$parse_command_line@D@@YAXPEADPEAPEAD0PEA_K2@Z 0000000180016354 f   libucrt:argv_parsing.obj
 0001:000156fc       ??$common_initialize_environment_nolock@D@@YAHXZ 00000001800166fc f   libucrt:environment_initialization.obj
 0001:00015768       ??$create_environment@D@@YAQEAPEADQEAD@Z 0000000180016768 f   libucrt:environment_initialization.obj
 0001:00015870       ??$free_environment@D@@YAXQEAPEAD@Z 0000000180016870 f   libucrt:environment_initialization.obj
 0001:00015870       ??$free_environment@_W@@YAXQEAPEA_W@Z 0000000180016870 f   libucrt:environment_initialization.obj
 0001:000158b4       ??$uninitialize_environment_internal@D@@YAXAEAPEAPEAD@Z 00000001800168b4 f   libucrt:environment_initialization.obj
 0001:000158d0       ??$uninitialize_environment_internal@_W@@YAXAEAPEAPEA_W@Z 00000001800168d0 f   libucrt:environment_initialization.obj
 0001:0001592c       ??$?RV<lambda_638799b9deba96c50f710eeac98168cd>@@AEAV<lambda_22ebabd17bc4fa466a2aca6d8deb888d>@@V<lambda_a6f7d7db0129f75315ebf26d50c089f1>@@@?$__crt_seh_guarded_call@H@@QEAAH$$QEAV<lambda_638799b9deba96c50f710eeac98168cd>@@AEAV<lambda_22ebabd17bc4fa466a2aca6d8deb888d>@@$$QEAV<lambda_a6f7d7db0129f75315ebf26d50c089f1>@@@Z 000000018001692c f   libucrt:onexit.obj
 0001:00015968       ??$?RV<lambda_7777bce6b2f8c936911f934f8298dc43>@@AEAV<lambda_f03950bc5685219e0bcd2087efbe011e>@@V<lambda_3883c3dff614d5e0c5f61bb1ac94921c>@@@?$__crt_seh_guarded_call@H@@QEAAH$$QEAV<lambda_7777bce6b2f8c936911f934f8298dc43>@@AEAV<lambda_f03950bc5685219e0bcd2087efbe011e>@@$$QEAV<lambda_3883c3dff614d5e0c5f61bb1ac94921c>@@@Z 0000000180016968 f   libucrt:onexit.obj
 0001:000159a4       ??R<lambda_22ebabd17bc4fa466a2aca6d8deb888d>@@QEBAHXZ 00000001800169a4 f   libucrt:onexit.obj
 0001:00015b54       ??R<lambda_f03950bc5685219e0bcd2087efbe011e>@@QEBAHXZ 0000000180016b54 f   libucrt:onexit.obj
 0001:00015d28       initialize_global_variables 0000000180016d28 f   libucrt:initialization.obj
 0001:00015d3c       initialize_c               0000000180016d3c f   libucrt:initialization.obj
 0001:00015d60       initialize_environment     0000000180016d60 f   libucrt:initialization.obj
 0001:00015d60       initialize_global_state_isolation 0000000180016d60 f   libucrt:initialization.obj
 0001:00015d60       report_memory_leaks        0000000180016d60 f   libucrt:initialization.obj
 0001:00015d60       uninitialize_c             0000000180016d60 f   libucrt:initialization.obj
 0001:00015d60       uninitialize_global_state_isolation 0000000180016d60 f   libucrt:initialization.obj
 0001:00015d64       uninitialize_environment   0000000180016d64 f   libucrt:initialization.obj
 0001:00015d74       initialize_pointers        0000000180016d74 f   libucrt:initialization.obj
 0001:00015db4       uninitialize_vcruntime     0000000180016db4 f   libucrt:initialization.obj
 0001:00015dbc       uninitialize_allocated_memory 0000000180016dbc f   libucrt:initialization.obj
 0001:00015dfc       uninitialize_allocated_io_buffers 0000000180016dfc f   libucrt:initialization.obj
 0001:00016770       $$000000                   0000000180017770     libucrt:strncmp.obj
 0001:0001686c       ??$?RV<lambda_0ae27a3a962d80f24befdcbee591983d>@@AEAV<lambda_8d0ee55de4b1038c4002e0adecdf1839>@@V<lambda_dc504788e8f1664fe9b84e20bfb512f2>@@@?$__crt_seh_guarded_call@X@@QEAAX$$QEAV<lambda_0ae27a3a962d80f24befdcbee591983d>@@AEAV<lambda_8d0ee55de4b1038c4002e0adecdf1839>@@$$QEAV<lambda_dc504788e8f1664fe9b84e20bfb512f2>@@@Z 000000018001786c f   libucrt:per_thread_data.obj
 0001:000168ac       ??$?RV<lambda_2d41944a1d46af3157314b8a01080d33>@@AEAV<lambda_8f455de75cd7d7f24b4096f044d8b9e6>@@V<lambda_aa500f224e6afead328df44964fe2772>@@@?$__crt_seh_guarded_call@X@@QEAAX$$QEAV<lambda_2d41944a1d46af3157314b8a01080d33>@@AEAV<lambda_8f455de75cd7d7f24b4096f044d8b9e6>@@$$QEAV<lambda_aa500f224e6afead328df44964fe2772>@@@Z 00000001800178ac f   libucrt:per_thread_data.obj
 0001:000168ec       ??$?RV<lambda_aa87e3671a710a21b5dc78c0bdf72e11>@@AEAV<lambda_92619d2358a28f41a33ba319515a20b9>@@V<lambda_6992ecaafeb10aed2b74cb1fae11a551>@@@?$__crt_seh_guarded_call@X@@QEAAX$$QEAV<lambda_aa87e3671a710a21b5dc78c0bdf72e11>@@AEAV<lambda_92619d2358a28f41a33ba319515a20b9>@@$$QEAV<lambda_6992ecaafeb10aed2b74cb1fae11a551>@@@Z 00000001800178ec f   libucrt:per_thread_data.obj
 0001:00016934       ??$?RV<lambda_f2e299630e499de9f9a165e60fcd3db5>@@AEAV<lambda_2ae9d31cdba2644fcbeaf08da7c24588>@@V<lambda_40d01ff24d0e7b3814fdbdcee8eab3c7>@@@?$__crt_seh_guarded_call@X@@QEAAX$$QEAV<lambda_f2e299630e499de9f9a165e60fcd3db5>@@AEAV<lambda_2ae9d31cdba2644fcbeaf08da7c24588>@@$$QEAV<lambda_40d01ff24d0e7b3814fdbdcee8eab3c7>@@@Z 0000000180017934 f   libucrt:per_thread_data.obj
 0001:00016994       ?construct_ptd_array@@YAXQEAU__acrt_ptd@@@Z 0000000180017994 f   libucrt:per_thread_data.obj
 0001:00016a64       ?destroy_fls@@YAXPEAX@Z    0000000180017a64 f   libucrt:per_thread_data.obj
 0001:00016a84       ?destroy_ptd_array@@YAXQEAU__acrt_ptd@@@Z 0000000180017a84 f   libucrt:per_thread_data.obj
 0001:00016b7c       ?replace_current_thread_locale_nolock@@YAXQEAU__acrt_ptd@@QEAU__crt_locale_data@@@Z 0000000180017b7c f   libucrt:per_thread_data.obj
 0001:00017060       ?try_get_function@@YAPEAXW4function_id@?A0x391cf84c@@QEBDQEBW4module_id@2@2@Z 0000000180018060 f   libucrt:winapi_thunks.obj
 0001:00017a30       ?fp_format_a@@YAHQEBNPEAD_KQEAD2H_NIQEAU__crt_locale_pointers@@W4__acrt_rounding_mode@@@Z 0000000180018a30 f   libucrt:cvt.obj
 0001:00017db0       ?fp_format_e@@YAHQEBNQEAD_K12H_NIQEAU__crt_locale_pointers@@W4__acrt_rounding_mode@@@Z 0000000180018db0 f   libucrt:cvt.obj
 0001:00017ea0       ?fp_format_e_internal@@YAHQEAD_KH_NIQEAU_strflt@@2QEAU__crt_locale_pointers@@@Z 0000000180018ea0 f   libucrt:cvt.obj
 0001:00018074       ?fp_format_f_internal@@YAHQEAD_KHQEAU_strflt@@_NQEAU__crt_locale_pointers@@@Z 0000000180019074 f   libucrt:cvt.obj
 0001:000181dc       ?fp_format_g@@YAHQEBNQEAD_K12H_NIQEAU__crt_locale_pointers@@@Z 00000001800191dc f   libucrt:cvt.obj
 0001:0001831c       ?should_round_up@@YA_NQEBN_KFW4__acrt_rounding_mode@@@Z 000000018001931c f   libucrt:cvt.obj
 0001:00018940       ??$?RV<lambda_410d79af7f07d98d83a3f525b3859a53>@@AEAV<lambda_3e16ef9562a7dcce91392c22ab16ea36>@@V<lambda_38119f0e861e05405d8a144b9b982f0a>@@@?$__crt_seh_guarded_call@X@@QEAAX$$QEAV<lambda_410d79af7f07d98d83a3f525b3859a53>@@AEAV<lambda_3e16ef9562a7dcce91392c22ab16ea36>@@$$QEAV<lambda_38119f0e861e05405d8a144b9b982f0a>@@@Z 0000000180019940 f   libucrt:wsetlocale.obj
 0001:000189ec       ?initialize_inherited_file_handles_nolock@@YAXXZ 00000001800199ec f   libucrt:ioinit.obj
 0001:00018adc       ?initialize_stdio_handles_nolock@@YAXXZ 0000000180019adc f   libucrt:ioinit.obj
 0001:00018d58       ?<lambda_invoker_cdecl>@<lambda_a1ce4c8ae42411fd470c77163914f50e>@@CAHPEBX0@Z 0000000180019d58 f   libucrt:argv_wildcards.obj
 0001:00019070       ??$common_expand_argv_wildcards@D@@YAHQEAPEADQEAPEAPEAD@Z 000000018001a070 f   libucrt:argv_wildcards.obj
 0001:0001927c       ??$copy_and_add_argument_to_buffer@D@@YAHQEBD0_KAEAV?$argument_list@D@?A0x5f5c8891@@@Z 000000018001a27c f   libucrt:argv_wildcards.obj
 0001:00019404       ??$expand_argument_wildcards@D@@YAHQEAD0AEAV?$argument_list@D@?A0x5f5c8891@@@Z 000000018001a404 f   libucrt:argv_wildcards.obj
 0001:00019950       ??$?RV<lambda_efdfa57d1f175319df784efa44bb7b81>@@AEAV<lambda_5f0a4c1567f8adc6734073e5d1e1b35c>@@V<lambda_2e8a7d3640ea6ccb4c2413664c2db6fd>@@@?$__crt_seh_guarded_call@X@@QEAAX$$QEAV<lambda_efdfa57d1f175319df784efa44bb7b81>@@AEAV<lambda_5f0a4c1567f8adc6734073e5d1e1b35c>@@$$QEAV<lambda_2e8a7d3640ea6ccb4c2413664c2db6fd>@@@Z 000000018001a950 f   libucrt:mbctype.obj
 0001:00019b0c       ?getSystemCP@@YAHH@Z       000000018001ab0c f   libucrt:mbctype.obj
 0001:00019b8c       ?setSBCS@@YAXPEAU__crt_multibyte_data@@@Z 000000018001ab8c f   libucrt:mbctype.obj
 0001:00019c1c       ?setSBUpLow@@YAXPEAU__crt_multibyte_data@@@Z 000000018001ac1c f   libucrt:mbctype.obj
 0001:00019e00       ?setmbcp_internal@@YAHH_NQEAU__acrt_ptd@@QEAPEAU__crt_multibyte_data@@@Z 000000018001ae00 f   libucrt:mbctype.obj
 0001:00019fc0       ?update_thread_multibyte_data_internal@@YAPEAU__crt_multibyte_data@@QEAU__acrt_ptd@@QEAPEAU1@@Z 000000018001afc0 f   libucrt:mbctype.obj
 0001:0001a3b0       ?x_ismbbtype_l@@YAHPEAU__crt_locale_pointers@@IHH@Z 000000018001b3b0 f   libucrt:ismbbyte.obj
 0001:0001a758       ??$?RV<lambda_450d765d439847d4c735a33c368b5fc0>@@AEAV<lambda_44731a7d0e6d81c3e6aa82d741081786>@@V<lambda_601a2a7da3b7a96e9554ac7215c4b07c>@@@?$__crt_seh_guarded_call@P6AXH@Z@@QEAAP6AXH@Z$$QEAV<lambda_450d765d439847d4c735a33c368b5fc0>@@AEAV<lambda_44731a7d0e6d81c3e6aa82d741081786>@@$$QEAV<lambda_601a2a7da3b7a96e9554ac7215c4b07c>@@@Z 000000018001b758 f   libucrt:signal.obj
 0001:0001aab4       ??$?RV<lambda_842d9ff0dc9ef11c61343bbaebe7f885>@@AEAV<lambda_c5860995281e5c4ce005b3de8f5874ee>@@V<lambda_d90129c13df834fdcbf8d2b88dafcf2d>@@@?$__crt_seh_guarded_call@X@@QEAAX$$QEAV<lambda_842d9ff0dc9ef11c61343bbaebe7f885>@@AEAV<lambda_c5860995281e5c4ce005b3de8f5874ee>@@$$QEAV<lambda_d90129c13df834fdcbf8d2b88dafcf2d>@@@Z 000000018001bab4 f   libucrt:fflush.obj
 0001:0001ab50       ??$?RV<lambda_886d6c58226a84441f68b9f2b8217b83>@@AEAV<lambda_ab61a845afdef5b7c387490eaf3616ee>@@V<lambda_f7f22ab5edc0698d5f6905b0d3f44752>@@@?$__crt_seh_guarded_call@X@@QEAAX$$QEAV<lambda_886d6c58226a84441f68b9f2b8217b83>@@AEAV<lambda_ab61a845afdef5b7c387490eaf3616ee>@@$$QEAV<lambda_f7f22ab5edc0698d5f6905b0d3f44752>@@@Z 000000018001bb50 f   libucrt:fflush.obj
 0001:0001ac30       ?common_flush_all@@YAH_N@Z 000000018001bc30 f   libucrt:fflush.obj
 0001:0001cc80       memcpy_s                   000000018001dc80 f   libucrt:cfout.obj
 0001:0001cfe8       ?free_crt_array_internal@@YAXQEAPEBX_K@Z 000000018001dfe8 f   libucrt:inittime.obj
 0001:0001da74       fallbackMethod             000000018001ea74 f   libucrt:strpbrk.obj
 0001:0001de2c       $LN78                      000000018001ee2c     libucrt:strpbrk.obj
 0001:0001de68       $LN77                      000000018001ee68     libucrt:strpbrk.obj
 0001:0001dea8       $LN76                      000000018001eea8     libucrt:strpbrk.obj
 0001:0001df84       ?__acrt_LCMapStringA_stat@@YAHPEAU__crt_locale_pointers@@PEB_WKPEBDHPEADHHH@Z 000000018001ef84 f   libucrt:lcmapstringa.obj
 0001:0001e334       ?initialize_multibyte@@YAHXZ 000000018001f334 f   libucrt:multibyte_initializer.obj
 0001:0001e34c       ??$?RV<lambda_a37b2b86f63e897a80ea819b0eb08c01>@@AEAV<lambda_38ce7e780aa69e748d6df282ebc68efe>@@V<lambda_99fb1378e971ab6e7edea83e3a7a83a2>@@@?$__crt_seh_guarded_call@H@@QEAAH$$QEAV<lambda_a37b2b86f63e897a80ea819b0eb08c01>@@AEAV<lambda_38ce7e780aa69e748d6df282ebc68efe>@@$$QEAV<lambda_99fb1378e971ab6e7edea83e3a7a83a2>@@@Z 000000018001f34c f   libucrt:commit.obj
 0001:0001e46c       ?write_double_translated_ansi_nolock@@YA?AUwrite_result@?A0x17268360@@HQEBDI@Z 000000018001f46c f   libucrt:write.obj
 0001:0001e958       ?write_text_ansi_nolock@@YA?AUwrite_result@?A0x17268360@@HQEBDI@Z 000000018001f958 f   libucrt:write.obj
 0001:0001ea5c       ?write_text_utf16le_nolock@@YA?AUwrite_result@?A0x17268360@@HQEBDI@Z 000000018001fa5c f   libucrt:write.obj
 0001:0001eb78       ?write_text_utf8_nolock@@YA?AUwrite_result@?A0x17268360@@HQEBDI@Z 000000018001fb78 f   libucrt:write.obj
 0001:0001f4d0       $$000000                   00000001800204d0     libucrt:log10.obj
 0001:0001fd9c       ??$common_lseek_nolock@_J@@YA_JH_JH@Z 0000000180020d9c f   libucrt:lseek.obj
 0001:0001fffc       common_control87           0000000180020ffc f   libucrt:ieee.obj
 0001:000202bc       _call_matherr              00000001800212bc f   libucrt:libm_error.obj
 0001:00020324       _exception_enabled         0000000180021324 f   libucrt:libm_error.obj
 0001:000205c0       _log_special_common        00000001800215c0 f   libucrt:log_special.obj
 0001:00020658       ??$?RV<lambda_751a882b2c74d4b022dec766aa51a29a>@@AEAV<lambda_628dfdc04ba53c8bfc02c9951375f3f5>@@V<lambda_f6c7be5f7998530c34de24c7437d6b54>@@@?$__crt_seh_guarded_call@H@@QEAAH$$QEAV<lambda_751a882b2c74d4b022dec766aa51a29a>@@AEAV<lambda_628dfdc04ba53c8bfc02c9951375f3f5>@@$$QEAV<lambda_f6c7be5f7998530c34de24c7437d6b54>@@@Z 0000000180021658 f   libucrt:close.obj
 0001:00020980       $$000000                   0000000180021980     libucrt:fpsr.obj
 0001:00021020       $$000000                   0000000180022020     LIBCMT:guard_dispatch.obj
 0001:00021040       $$000000                   0000000180022040     LIBCMT:guard_xfg_dispatch.obj
 0001:00021060       ?filt$0@?0??_AtlVerifyStackAvailable@_ATL_SAFE_ALLOCA_IMPL@ATL@@YA_N_K@Z@4HA 0000000180022060 f   POSKeyboard.obj
 0001:00021081       __scrt_is_nonwritable_in_current_image$filt$0 0000000180022081 f   LIBCMT:utility.obj
 0001:00021099       ?catch$0@?0???2@YAPEAX_KAEBUnothrow_t@std@@@Z@4HA 0000000180022099 f   LIBCMT:new_scalar_nothrow.obj
 0001:000210a6       __catch$??2@YAPEAX_KAEBUnothrow_t@std@@@Z$0 00000001800220a6 f   LIBCMT:new_scalar_nothrow.obj
 0001:000210b7       ?fin$0@?0??dllmain_crt_process_attach@@YAHQEAUHINSTANCE__@@QEAX@Z@4HA 00000001800220b7 f   LIBCMT:dll_dllmain.obj
 0001:000210ce       ?fin$0@?0??dllmain_crt_process_detach@@YAH_N@Z@4HA 00000001800220ce f   LIBCMT:dll_dllmain.obj
 0001:000210e7       ?fin$1@?0??dllmain_crt_process_detach@@YAH_N@Z@4HA 00000001800220e7 f   LIBCMT:dll_dllmain.obj
 0001:000210fb       ?filt$0@?0??dllmain_dispatch@@YAHQEAUHINSTANCE__@@KQEAX@Z@4HA 00000001800220fb f   LIBCMT:dll_dllmain.obj
 0001:00021131       ?filt$0@?0???$_CallSETranslator@V__FrameHandler4@@@@YAHPEAUEHExceptionRecord@@PEA_KPEAU_CONTEXT@@PEAU_xDISPATCHER_CONTEXT@@PEAUFuncInfo4@FH4@@K1H@Z@4HA 0000000180022131 f   libvcruntime:risctrnsctrl.obj
 0001:000211d0       __DestructExceptionObject$filt$0 00000001800221d0 f   libvcruntime:ehhelpers.obj
 0001:00021266       ?filt$0@?0??CxxCallCatchBlock@__FrameHandler4@@SAPEAXPEAU_EXCEPTION_RECORD@@@Z@4HA 0000000180022266 f   libvcruntime:frame.obj
 0001:00021295       ?fin$1@?0??CxxCallCatchBlock@__FrameHandler4@@SAPEAXPEAU_EXCEPTION_RECORD@@@Z@4HA 0000000180022295 f   libvcruntime:frame.obj
 0001:00021318       ?filt$0@?0??FrameUnwindToState@__FrameHandler4@@SAXPEA_KPEAU_xDISPATCHER_CONTEXT@@PEAUFuncInfo4@FH4@@H@Z@4HA 0000000180022318 f   libvcruntime:frame.obj
 0001:0002132e       ?fin$1@?0??FrameUnwindToState@__FrameHandler4@@SAXPEA_KPEAU_xDISPATCHER_CONTEXT@@PEAUFuncInfo4@FH4@@H@Z@4HA 000000018002232e f   libvcruntime:frame.obj
 0001:00021351       ?fin$0@?0???$?RV<lambda_0ae27a3a962d80f24befdcbee591983d>@@AEAV<lambda_8d0ee55de4b1038c4002e0adecdf1839>@@V<lambda_dc504788e8f1664fe9b84e20bfb512f2>@@@?$__crt_seh_guarded_call@X@@QEAAX$$QEAV<lambda_0ae27a3a962d80f24befdcbee591983d>@@AEAV<lambda_8d0ee55de4b1038c4002e0adecdf1839>@@$$QEAV<lambda_dc504788e8f1664fe9b84e20bfb512f2>@@@Z@4HA 0000000180022351 f   libucrt:per_thread_data.obj
 0001:00021351       ?fin$0@?0???$?RV<lambda_2d41944a1d46af3157314b8a01080d33>@@AEAV<lambda_8f455de75cd7d7f24b4096f044d8b9e6>@@V<lambda_aa500f224e6afead328df44964fe2772>@@@?$__crt_seh_guarded_call@X@@QEAAX$$QEAV<lambda_2d41944a1d46af3157314b8a01080d33>@@AEAV<lambda_8f455de75cd7d7f24b4096f044d8b9e6>@@$$QEAV<lambda_aa500f224e6afead328df44964fe2772>@@@Z@4HA 0000000180022351 f   libucrt:per_thread_data.obj
 0001:00021351       ?fin$0@?0???$?RV<lambda_aa87e3671a710a21b5dc78c0bdf72e11>@@AEAV<lambda_92619d2358a28f41a33ba319515a20b9>@@V<lambda_6992ecaafeb10aed2b74cb1fae11a551>@@@?$__crt_seh_guarded_call@X@@QEAAX$$QEAV<lambda_aa87e3671a710a21b5dc78c0bdf72e11>@@AEAV<lambda_92619d2358a28f41a33ba319515a20b9>@@$$QEAV<lambda_6992ecaafeb10aed2b74cb1fae11a551>@@@Z@4HA 0000000180022351 f   libucrt:per_thread_data.obj
 0001:00021351       ?fin$0@?0???$?RV<lambda_f2e299630e499de9f9a165e60fcd3db5>@@AEAV<lambda_2ae9d31cdba2644fcbeaf08da7c24588>@@V<lambda_40d01ff24d0e7b3814fdbdcee8eab3c7>@@@?$__crt_seh_guarded_call@X@@QEAAX$$QEAV<lambda_f2e299630e499de9f9a165e60fcd3db5>@@AEAV<lambda_2ae9d31cdba2644fcbeaf08da7c24588>@@$$QEAV<lambda_40d01ff24d0e7b3814fdbdcee8eab3c7>@@@Z@4HA 0000000180022351 f   libucrt:per_thread_data.obj
 0001:00021351       ?fin$0@?0???$?RV<lambda_efdfa57d1f175319df784efa44bb7b81>@@AEAV<lambda_5f0a4c1567f8adc6734073e5d1e1b35c>@@V<lambda_2e8a7d3640ea6ccb4c2413664c2db6fd>@@@?$__crt_seh_guarded_call@X@@QEAAX$$QEAV<lambda_efdfa57d1f175319df784efa44bb7b81>@@AEAV<lambda_5f0a4c1567f8adc6734073e5d1e1b35c>@@$$QEAV<lambda_2e8a7d3640ea6ccb4c2413664c2db6fd>@@@Z@4HA 0000000180022351 f   libucrt:mbctype.obj
 0001:00021351       ?fin$0@?0???$?RV<lambda_450d765d439847d4c735a33c368b5fc0>@@AEAV<lambda_44731a7d0e6d81c3e6aa82d741081786>@@V<lambda_601a2a7da3b7a96e9554ac7215c4b07c>@@@?$__crt_seh_guarded_call@P6AXH@Z@@QEAAP6AXH@Z$$QEAV<lambda_450d765d439847d4c735a33c368b5fc0>@@AEAV<lambda_44731a7d0e6d81c3e6aa82d741081786>@@$$QEAV<lambda_601a2a7da3b7a96e9554ac7215c4b07c>@@@Z@4HA 0000000180022351 f   libucrt:signal.obj
 0001:00021351       ?fin$0@?0???$?RV<lambda_d80eeec6fff315bfe5c115232f3240e3>@@AEAV<lambda_6e4b09c48022b2350581041d5f6b0c4c>@@V<lambda_2358e3775559c9db80273638284d5e45>@@@?$__crt_seh_guarded_call@X@@QEAAX$$QEAV<lambda_d80eeec6fff315bfe5c115232f3240e3>@@AEAV<lambda_6e4b09c48022b2350581041d5f6b0c4c>@@$$QEAV<lambda_2358e3775559c9db80273638284d5e45>@@@Z@4HA 0000000180022351 f   libucrt:exit.obj
 0001:00021351       ?fin$0@?0???$?RV<lambda_638799b9deba96c50f710eeac98168cd>@@AEAV<lambda_22ebabd17bc4fa466a2aca6d8deb888d>@@V<lambda_a6f7d7db0129f75315ebf26d50c089f1>@@@?$__crt_seh_guarded_call@H@@QEAAH$$QEAV<lambda_638799b9deba96c50f710eeac98168cd>@@AEAV<lambda_22ebabd17bc4fa466a2aca6d8deb888d>@@$$QEAV<lambda_a6f7d7db0129f75315ebf26d50c089f1>@@@Z@4HA 0000000180022351 f   libucrt:onexit.obj
 0001:00021351       ?fin$0@?0???$?RV<lambda_7777bce6b2f8c936911f934f8298dc43>@@AEAV<lambda_f03950bc5685219e0bcd2087efbe011e>@@V<lambda_3883c3dff614d5e0c5f61bb1ac94921c>@@@?$__crt_seh_guarded_call@H@@QEAAH$$QEAV<lambda_7777bce6b2f8c936911f934f8298dc43>@@AEAV<lambda_f03950bc5685219e0bcd2087efbe011e>@@$$QEAV<lambda_3883c3dff614d5e0c5f61bb1ac94921c>@@@Z@4HA 0000000180022351 f   libucrt:onexit.obj
 0001:0002136b       ?filt$0@?0???R<lambda_6e4b09c48022b2350581041d5f6b0c4c>@@QEBA@XZ@4HA 000000018002236b f   libucrt:exit.obj
 0001:00021386       _query_new_handler$fin$0   0000000180022386 f   libucrt:new_handler.obj
 0001:0002139c       ?fin$0@?0???$?RV<lambda_410d79af7f07d98d83a3f525b3859a53>@@AEAV<lambda_3e16ef9562a7dcce91392c22ab16ea36>@@V<lambda_38119f0e861e05405d8a144b9b982f0a>@@@?$__crt_seh_guarded_call@X@@QEAAX$$QEAV<lambda_410d79af7f07d98d83a3f525b3859a53>@@AEAV<lambda_3e16ef9562a7dcce91392c22ab16ea36>@@$$QEAV<lambda_38119f0e861e05405d8a144b9b982f0a>@@@Z@4HA 000000018002239c f   libucrt:wsetlocale.obj
 0001:000213b6       __acrt_initialize_lowio$fin$0 00000001800223b6 f   libucrt:ioinit.obj
 0001:000213b6       __acrt_lowio_ensure_fh_exists$fin$0 00000001800223b6 f   libucrt:osfinfo.obj
 0001:000213cf       ?fin$0@?0??update_thread_multibyte_data_internal@@YAPEAU__crt_multibyte_data@@QEAU__acrt_ptd@@QEAPEAU1@@Z@4HA 00000001800223cf f   libucrt:mbctype.obj
 0001:000213e8       raise$fin$0                00000001800223e8 f   libucrt:signal.obj
 0001:00021409       ?fin$0@?0???$?RV<lambda_842d9ff0dc9ef11c61343bbaebe7f885>@@AEAV<lambda_c5860995281e5c4ce005b3de8f5874ee>@@V<lambda_d90129c13df834fdcbf8d2b88dafcf2d>@@@?$__crt_seh_guarded_call@X@@QEAAX$$QEAV<lambda_842d9ff0dc9ef11c61343bbaebe7f885>@@AEAV<lambda_c5860995281e5c4ce005b3de8f5874ee>@@$$QEAV<lambda_d90129c13df834fdcbf8d2b88dafcf2d>@@@Z@4HA 0000000180022409 f   libucrt:fflush.obj
 0001:00021424       ?fin$0@?0???$?RV<lambda_886d6c58226a84441f68b9f2b8217b83>@@AEAV<lambda_ab61a845afdef5b7c387490eaf3616ee>@@V<lambda_f7f22ab5edc0698d5f6905b0d3f44752>@@@?$__crt_seh_guarded_call@X@@QEAAX$$QEAV<lambda_886d6c58226a84441f68b9f2b8217b83>@@AEAV<lambda_ab61a845afdef5b7c387490eaf3616ee>@@$$QEAV<lambda_f7f22ab5edc0698d5f6905b0d3f44752>@@@Z@4HA 0000000180022424 f   libucrt:fflush.obj
 0001:00021441       __acrt_update_thread_locale_data$fin$0 0000000180022441 f   libucrt:locale_refcounting.obj
 0001:0002145a       _fcloseall$fin$0           000000018002245a f   libucrt:closeall.obj
 0001:00021473       ?fin$0@?0???$?RV<lambda_751a882b2c74d4b022dec766aa51a29a>@@AEAV<lambda_628dfdc04ba53c8bfc02c9951375f3f5>@@V<lambda_f6c7be5f7998530c34de24c7437d6b54>@@@?$__crt_seh_guarded_call@H@@QEAAH$$QEAV<lambda_751a882b2c74d4b022dec766aa51a29a>@@AEAV<lambda_628dfdc04ba53c8bfc02c9951375f3f5>@@$$QEAV<lambda_f6c7be5f7998530c34de24c7437d6b54>@@@Z@4HA 0000000180022473 f   libucrt:close.obj
 0001:00021473       ?fin$0@?0???$?RV<lambda_a37b2b86f63e897a80ea819b0eb08c01>@@AEAV<lambda_38ce7e780aa69e748d6df282ebc68efe>@@V<lambda_99fb1378e971ab6e7edea83e3a7a83a2>@@@?$__crt_seh_guarded_call@H@@QEAAH$$QEAV<lambda_a37b2b86f63e897a80ea819b0eb08c01>@@AEAV<lambda_38ce7e780aa69e748d6df282ebc68efe>@@$$QEAV<lambda_99fb1378e971ab6e7edea83e3a7a83a2>@@@Z@4HA 0000000180022473 f   libucrt:commit.obj
 0001:0002148d       _write$fin$0               000000018002248d f   libucrt:write.obj
 0001:000214a4       fclose$fin$0               00000001800224a4 f   libucrt:fclose.obj
 0001:000214bc       _ctrlfp$filt$0             00000001800224bc f   libucrt:fpctrl.obj
 0001:000214bc       common_control87$filt$0    00000001800224bc f   libucrt:ieee.obj
 0001:000214f0       _IsNonwritableInCurrentImage$filt$0 00000001800224f0 f   LIBCMT:pesect.obj
 0001:00021510       ??__F_AtlComModule@ATL@@YAXXZ 0000000180022510 f   OposVariant.obj
 0001:0002151c       ??__F_AtlWinModule@ATL@@YAXXZ 000000018002251c f   OposVariant.obj
 0001:00021560       ??__F_Module@@YAXXZ        0000000180022560 f   POSKeyboard.obj
 0001:0002157c       ??__F_AtlBaseModule@ATL@@YAXXZ 000000018002257c f   atls:atlbase.obj
 0002:00000648       ?_AtlBaseModule$initializer$@ATL@@3P6AXXZEA 0000000180023648     atls:atlbase.obj
 0002:00000650       ?_AtlComModule$initializer$@ATL@@3P6AXXZEA 0000000180023650     OposVariant.obj
 0002:00000658       ?_AtlWinModule$initializer$@ATL@@3P6AXXZEA 0000000180023658     OposVariant.obj
 0002:00000660       ?_Module$initializer$@@3P6AXXZEA 0000000180023660     POSKeyboard.obj
 0002:00000668       ??pConnMap$initializer$@?$IConnectionPointContainerImpl@VCOPOSPOSKeyboard@@@ATL@@0P6AXXZEA@@3P6AXXZEA 0000000180023668     POSKeyboard.obj
 0002:00000680       ?__scrt_initialize_tss_var@@3P6AHXZEA 0000000180023680     LIBCMT:thread_safe_statics.obj
 0002:00002608       GS_ExceptionPointers       0000000180025608     LIBCMT:gs_report.obj
 0002:000027f0       ?ExceptionTemplate@?1??UnwindNestedFrames@__FrameHandler4@@SAXPEA_KPEAUEHExceptionRecord@@PEAU_CONTEXT@@0PEAXPEAUFuncInfo4@FH4@@HHPEAUHandlerType4@6@PEAU_xDISPATCHER_CONTEXT@@E@Z@4U_EXCEPTION_RECORD@@B 00000001800257f0     libvcruntime:risctrnsctrl.obj
 0002:000028c0       ?tokenTable@@3QBUStringLiteral@@B 00000001800258c0     libvcruntime:undname.obj
 0002:000029c0       ?nameTable@@3QBUStringLiteral@@B 00000001800259c0     libvcruntime:undname.obj
 0002:00002ef0       ?rttiTable@@3QBUStringLiteral@@B 0000000180025ef0     libvcruntime:undname.obj
 0002:00002f40       ?IndirectionName@@3QBUStringLiteral@@B 0000000180025f40     libvcruntime:undname.obj
 0002:00002fa0       ?PrefixName@@3QBUStringLiteral@@B 0000000180025fa0     libvcruntime:undname.obj
 0002:00003678       ?module_names@?A0x5302d918@@3QBQEB_WB 0000000180026678     libvcruntime:winapi_downlevel.obj
 0002:00003738       ?candidate_modules@?1??try_get_FlsAlloc@@YAP6AKP6AXPEAX@Z@ZXZ@4QBW4module_id@?A0x5302d918@@B 0000000180026738     libvcruntime:winapi_downlevel.obj
 0002:00003750       ?candidate_modules@?1??try_get_FlsFree@@YAP6AHK@ZXZ@4QBW4module_id@?A0x5302d918@@B 0000000180026750     libvcruntime:winapi_downlevel.obj
 0002:00003760       ?candidate_modules@?1??try_get_FlsGetValue@@YAP6APEAXK@ZXZ@4QBW4module_id@?A0x5302d918@@B 0000000180026760     libvcruntime:winapi_downlevel.obj
 0002:00003778       ?candidate_modules@?1??try_get_FlsSetValue@@YAP6AHKPEAX@ZXZ@4QBW4module_id@?A0x5302d918@@B 0000000180026778     libvcruntime:winapi_downlevel.obj
 0002:00003790       ?candidate_modules@?1??try_get_InitializeCriticalSectionEx@@YAP6AHPEAU_RTL_CRITICAL_SECTION@@KK@ZXZ@4QBW4module_id@?A0x5302d918@@B 0000000180026790     libvcruntime:winapi_downlevel.obj
 0002:000037c0       ?errtable@@3QBUerrentry@?A0x31fdb9ec@@B 00000001800267c0     libucrt:errno.obj
 0002:00003e50       __acrt_initializers        0000000180026e50     libucrt:initialization.obj
 0002:00003f50       ?module_names@?A0x391cf84c@@3QBQEB_WB 0000000180026f50     libucrt:winapi_thunks.obj
 0002:00004458       ?candidate_modules@?1??try_get_AreFileApisANSI@@YAP6AHXZXZ@4QBW4module_id@?A0x391cf84c@@B 0000000180027458     libucrt:winapi_thunks.obj
 0002:00004470       ?candidate_modules@?1??try_get_FlsAlloc@@YAP6AKP6AXPEAX@Z@ZXZ@4QBW4module_id@?A0x391cf84c@@B 0000000180027470     libucrt:winapi_thunks.obj
 0002:00004478       ?candidate_modules@?1??try_get_FlsFree@@YAP6AHK@ZXZ@4QBW4module_id@?A0x391cf84c@@B 0000000180027478     libucrt:winapi_thunks.obj
 0002:00004480       ?candidate_modules@?1??try_get_FlsGetValue@@YAP6APEAXK@ZXZ@4QBW4module_id@?A0x391cf84c@@B 0000000180027480     libucrt:winapi_thunks.obj
 0002:00004488       ?candidate_modules@?1??try_get_FlsSetValue@@YAP6AHKPEAX@ZXZ@4QBW4module_id@?A0x391cf84c@@B 0000000180027488     libucrt:winapi_thunks.obj
 0002:00004490       ?candidate_modules@?1??try_get_InitializeCriticalSectionEx@@YAP6AHPEAU_RTL_CRITICAL_SECTION@@KK@ZXZ@4QBW4module_id@?A0x391cf84c@@B 0000000180027490     libucrt:winapi_thunks.obj
 0002:00004498       ?candidate_modules@?1??try_get_LCMapStringEx@@YAP6AHPEB_WK0HPEA_WHPEAU_nlsversioninfo@@PEAX_J@ZXZ@4QBW4module_id@?A0x391cf84c@@B 0000000180027498     libucrt:winapi_thunks.obj
 0002:000044b0       ?candidate_modules@?1??try_get_LocaleNameToLCID@@YAP6AKPEB_WK@ZXZ@4QBW4module_id@?A0x391cf84c@@B 00000001800274b0     libucrt:winapi_thunks.obj
 0002:000044cc       ?candidate_modules@?1??try_get_AppPolicyGetProcessTerminationMethod@@YAP6AJPEAXPEAW4AppPolicyProcessTerminationMethod@@@ZXZ@4QBW4module_id@?A0x391cf84c@@B 00000001800274cc     libucrt:winapi_thunks.obj
 0002:000044f8       ?candidate_modules@?1??try_get_SetThreadStackGuarantee@@YAP6AHPEAK@ZXZ@4QBW4module_id@?A0x391cf84c@@B 00000001800274f8     libucrt:winapi_thunks.obj
 0002:00004520       ?strings@?1??fp_format_nan_or_infinity@@YAHW4__acrt_fp_class@@_NPEAD_K1@Z@4QAY03QEBDA 0000000180027520     libucrt:cvt.obj
 0002:00004c80       ?_mb_locale_names@@3QBQEB_WB 0000000180027c80     libucrt:mbctype.obj
 0002:000054f0       ?LcidToLocaleNameTable@?A0x881e4c05@@3QBULcidToLocaleName@1@B 00000001800284f0     libucrt:lcidtoname_downlevel.obj
 0002:00006f50       ?LocaleNameToIndexTable@?A0x881e4c05@@3QBULocaleNameIndex@1@B 0000000180029f50     libucrt:lcidtoname_downlevel.obj
 0002:000091f0       __real_ninf                000000018002c1f0     libucrt:log10.obj
 0002:00009200       __real_inf                 000000018002c200     libucrt:log10.obj
 0002:00009210       __real_neg_qnan            000000018002c210     libucrt:log10.obj
 0002:00009220       __real_qnanbit             000000018002c220     libucrt:log10.obj
 0002:00009230       __int_1023                 000000018002c230     libucrt:log10.obj
 0002:00009240       __mask_001                 000000018002c240     libucrt:log10.obj
 0002:00009250       __mask_mant                000000018002c250     libucrt:log10.obj
 0002:00009260       __mask_mant_top8           000000018002c260     libucrt:log10.obj
 0002:00009270       __mask_mant9               000000018002c270     libucrt:log10.obj
 0002:00009280       __real_log10_e             000000018002c280     libucrt:log10.obj
 0002:00009290       __real_log10_e_lead        000000018002c290     libucrt:log10.obj
 0002:000092a0       __real_log10_e_tail        000000018002c2a0     libucrt:log10.obj
 0002:000092b0       __real_log10_2_lead        000000018002c2b0     libucrt:log10.obj
 0002:000092c0       __real_log10_2_tail        000000018002c2c0     libucrt:log10.obj
 0002:000092d0       __real_two                 000000018002c2d0     libucrt:log10.obj
 0002:000092e0       __real_one                 000000018002c2e0     libucrt:log10.obj
 0002:000092f0       __real_half                000000018002c2f0     libucrt:log10.obj
 0002:00009300       __mask_100                 000000018002c300     libucrt:log10.obj
 0002:00009310       __real_1_over_512          000000018002c310     libucrt:log10.obj
 0002:00009320       __real_1_over_2            000000018002c320     libucrt:log10.obj
 0002:00009330       __real_1_over_3            000000018002c330     libucrt:log10.obj
 0002:00009340       __real_1_over_4            000000018002c340     libucrt:log10.obj
 0002:00009350       __real_1_over_5            000000018002c350     libucrt:log10.obj
 0002:00009360       __real_1_over_6            000000018002c360     libucrt:log10.obj
 0002:00009370       __real_neg_1023            000000018002c370     libucrt:log10.obj
 0002:00009380       __mask_2045                000000018002c380     libucrt:log10.obj
 0002:00009390       __real_threshold           000000018002c390     libucrt:log10.obj
 0002:000093a0       __real_near_one_lt         000000018002c3a0     libucrt:log10.obj
 0002:000093b0       __real_near_one_gt         000000018002c3b0     libucrt:log10.obj
 0002:000093c0       __real_min_norm            000000018002c3c0     libucrt:log10.obj
 0002:000093d0       __real_notsign             000000018002c3d0     libucrt:log10.obj
 0002:000093e0       __real_ca1                 000000018002c3e0     libucrt:log10.obj
 0002:000093f0       __real_ca2                 000000018002c3f0     libucrt:log10.obj
 0002:00009400       __real_ca3                 000000018002c400     libucrt:log10.obj
 0002:00009410       __real_ca4                 000000018002c410     libucrt:log10.obj
 0002:00009420       __mask_lower               000000018002c420     libucrt:log10.obj
 0002:00009430       __flag_x_zero              000000018002c430     libucrt:log10.obj
 0002:00009434       __flag_x_neg               000000018002c434     libucrt:log10.obj
 0002:00009438       __flag_x_nan               000000018002c438     libucrt:log10.obj
 0002:0000ac90       __real@433fffffffffffff    000000018002dc90     libucrt:fpsr.obj
 0002:0000ac98       __real@c33fffffffffffff    000000018002dc98     libucrt:fpsr.obj
 0002:0000b508       $unwind$?cw_memcpy@@YAHPEA_WPEBDH@Z 000000018002e508     CWString.obj
 0002:0000b508       $unwind$?ProcessWindowMessage@?$CComControl@VCOPOSPOSKeyboard@@V?$CWindowImpl@VCOPOSPOSKeyboard@@VCWindow@ATL@@V?$CWinTraits@$0FGAAAAAA@$0A@@3@@ATL@@@ATL@@UEAAHPEAUHWND__@@I_K_JAEA_JK@Z 000000018002e508     POSKeyboard.obj
 0002:0000b508       $unwind$wcstol             000000018002e508     libucrt:strtox.obj
 0002:0000b508       $unwind$_invalid_parameter_noinfo 000000018002e508     libucrt:invalid_parameter.obj
 0002:0000b508       $unwind$_log10_special     000000018002e508     libucrt:log_special.obj
 0002:0000b510       $unwind$?cw_strcpy@@YAHPEA_WPEBD@Z 000000018002e510     CWString.obj
 0002:0000b510       $unwind$??1OposDispParms@@QEAA@XZ 000000018002e510     OposVariant.obj
 0002:0000b510       $unwind$??__E_AtlComModule@ATL@@YAXXZ 000000018002e510     OposVariant.obj
 0002:0000b510       $unwind$??__E_AtlWinModule@ATL@@YAXXZ 000000018002e510     OposVariant.obj
 0002:0000b510       $unwind$??__F_AtlWinModule@ATL@@YAXXZ 000000018002e510     OposVariant.obj
 0002:0000b510       $unwind$?GetLONG@OposVariant@@QEAAJXZ 000000018002e510     OposVariant.obj
 0002:0000b510       $unwind$??__E?pConnMap@?$IConnectionPointContainerImpl@VCOPOSPOSKeyboard@@@ATL@@0PEBU_ATL_CONNMAP_ENTRY@2@EB@@YAXXZ 000000018002e510     POSKeyboard.obj
 0002:0000b510       $unwind$?AddReplacement@CRegObject@ATL@@UEAAJPEB_W0@Z 000000018002e510     POSKeyboard.obj
 0002:0000b510       $unwind$?AtlHresultFromLastError@ATL@@YAJXZ 000000018002e510     POSKeyboard.obj
 0002:0000b510       $unwind$?AtlThrowImpl@ATL@@YAXJ@Z 000000018002e510     POSKeyboard.obj
 0002:0000b510       $unwind$?CreateInstance@CComClassFactory@ATL@@UEAAJPEAUIUnknown@@AEBU_GUID@@PEAPEAX@Z 000000018002e510     POSKeyboard.obj
 0002:0000b510       $unwind$?DefaultReflectionHandler@?$CWindowImplRoot@VCWindow@ATL@@@ATL@@SAHPEAUHWND__@@I_K_JAEA_J@Z 000000018002e510     POSKeyboard.obj
 0002:0000b510       $unwind$?EnumAdvise@?$IOleObjectImpl@VCOPOSPOSKeyboard@@@ATL@@UEAAJPEAPEAUIEnumSTATDATA@@@Z 000000018002e510     POSKeyboard.obj
 0002:0000b510       $unwind$?FireViewChange@CComControlBase@ATL@@QEAAJXZ 000000018002e510     POSKeyboard.obj
 0002:0000b510       $unwind$?GetAdvise@?$IViewObjectExImpl@VCOPOSPOSKeyboard@@@ATL@@UEAAJPEAK0PEAPEAUIAdviseSink@@@Z 000000018002e510     POSKeyboard.obj
 0002:0000b510       $unwind$?LockServer@CComClassFactory@ATL@@UEAAJH@Z 000000018002e510     POSKeyboard.obj
 0002:0000b510       $unwind$?OnDocWindowActivate@?$IOleInPlaceActiveObjectImpl@VCOPOSPOSKeyboard@@@ATL@@UEAAJH@Z 000000018002e510     POSKeyboard.obj
 0002:0000b510       $unwind$?Unadvise@?$IOleObjectImpl@VCOPOSPOSKeyboard@@@ATL@@UEAAJK@Z 000000018002e510     POSKeyboard.obj
 0002:0000b510       $unwind$?_LocCPQueryInterface@?$IConnectionPointImpl@VCOPOSPOSKeyboard@@$1?DIID__IOPOSPOSKeyboardEvents@@3U_GUID@@BVCComDynamicUnkArray@ATL@@@ATL@@UEAAJAEBU_GUID@@PEAPEAX@Z 000000018002e510     POSKeyboard.obj
 0002:0000b510       $unwind$?_LocCPQueryInterface@?$IConnectionPointImpl@VCOPOSPOSKeyboard@@$1?IID_IPropertyNotifySink@@3U_GUID@@BVCComDynamicUnkArray@ATL@@@ATL@@UEAAJAEBU_GUID@@PEAPEAX@Z 000000018002e510     POSKeyboard.obj
 0002:0000b510       $unwind$?FinalConstruct@COPOSPOSKeyboard@@QEAAJXZ 000000018002e510     POSKeyboardImpl.obj
 0002:0000b510       $unwind$?get_ResultCode@COPOSPOSKeyboard@@UEAAJPEAJ@Z 000000018002e510     POSKeyboardImpl.obj
 0002:0000b510       $unwind$?get_State@COPOSPOSKeyboard@@UEAAJPEAJ@Z 000000018002e510     POSKeyboardImpl.obj
 0002:0000b510       $unwind$??__E_AtlBaseModule@ATL@@YAXXZ 000000018002e510     atls:atlbase.obj
 0002:0000b510       $unwind$__scrt_initialize_default_local_stdio_options 000000018002e510     LIBCMT:default_local_stdio_options.obj
 0002:0000b510       $unwind$?dllmain_crt_dispatch@@YAHQEAUHINSTANCE__@@KQEAX@Z 000000018002e510     LIBCMT:dll_dllmain.obj
 0002:0000b510       $unwind$__report_rangecheckfailure 000000018002e510     LIBCMT:gs_report.obj
 0002:0000b510       $unwind$__GSHandlerCheck   000000018002e510     LIBCMT:gshandler.obj
 0002:0000b510       $unwind$?__scrt_uninitialize_thread_safe_statics@@YAXXZ 000000018002e510     LIBCMT:thread_safe_statics.obj
 0002:0000b510       $unwind$_Init_thread_notify 000000018002e510     LIBCMT:thread_safe_statics.obj
 0002:0000b510       $unwind$__scrt_acquire_startup_lock 000000018002e510     LIBCMT:utility.obj
 0002:0000b510       $unwind$__scrt_dllmain_after_initialize_c 000000018002e510     LIBCMT:utility.obj
 0002:0000b510       $unwind$__scrt_dllmain_before_initialize_c 000000018002e510     LIBCMT:utility.obj
 0002:0000b510       $unwind$__scrt_dllmain_crt_thread_attach 000000018002e510     LIBCMT:utility.obj
 0002:0000b510       $unwind$__scrt_dllmain_crt_thread_detach 000000018002e510     LIBCMT:utility.obj
 0002:0000b510       $unwind$__scrt_dllmain_uninitialize_c 000000018002e510     LIBCMT:utility.obj
 0002:0000b510       $unwind$__scrt_dllmain_uninitialize_critical 000000018002e510     LIBCMT:utility.obj
 0002:0000b510       $unwind$atexit             000000018002e510     LIBCMT:utility.obj
 0002:0000b510       $unwind$__vcrt_initialize  000000018002e510     libvcruntime:initialization.obj
 0002:0000b510       $unwind$__vcrt_thread_attach 000000018002e510     libvcruntime:initialization.obj
 0002:0000b510       $unwind$__vcrt_thread_detach 000000018002e510     libvcruntime:initialization.obj
 0002:0000b510       $unwind$__vcrt_uninitialize 000000018002e510     libvcruntime:initialization.obj
 0002:0000b510       $unwind$__vcrt_uninitialize_critical 000000018002e510     libvcruntime:initialization.obj
 0002:0000b510       $unwind$__vcrt_initialize_locks 000000018002e510     libvcruntime:locks.obj
 0002:0000b510       $unwind$__vcrt_freefls     000000018002e510     libvcruntime:per_thread_data.obj
 0002:0000b510       $unwind$__vcrt_getptd      000000018002e510     libvcruntime:per_thread_data.obj
 0002:0000b510       $unwind$__vcrt_initialize_ptd 000000018002e510     libvcruntime:per_thread_data.obj
 0002:0000b510       $unwind$__vcrt_uninitialize_ptd 000000018002e510     libvcruntime:per_thread_data.obj
 0002:0000b510       $unwind$_purecall          000000018002e510     libvcruntime:purevirt.obj
 0002:0000b510       $unwind$?FrameUnwindToEmptyState@__FrameHandler4@@SAXPEA_KPEAU_xDISPATCHER_CONTEXT@@PEAUFuncInfo4@FH4@@@Z 000000018002e510     libvcruntime:risctrnsctrl.obj
 0002:0000b510       $unwind$_GetImageBase      000000018002e510     libvcruntime:risctrnsctrl.obj
 0002:0000b510       $unwind$_GetThrowImageBase 000000018002e510     libvcruntime:risctrnsctrl.obj
 0002:0000b510       $unwind$__dcrt_terminate_console_output 000000018002e510     libucrt:initcon.obj
 0002:0000b510       $unwind$??$uninitialize_environment_internal@D@@YAXAEAPEAPEAD@Z 000000018002e510     libucrt:environment_initialization.obj
 0002:0000b510       $unwind$??$uninitialize_environment_internal@_W@@YAXAEAPEAPEA_W@Z 000000018002e510     libucrt:environment_initialization.obj
 0002:0000b510       $unwind$__dcrt_uninitialize_environments_nolock 000000018002e510     libucrt:environment_initialization.obj
 0002:0000b510       $unwind$__acrt_initialize_heap 000000018002e510     libucrt:heap_handle.obj
 0002:0000b510       $unwind$_msize_base        000000018002e510     libucrt:msize.obj
 0002:0000b510       $unwind$?initialize_multibyte@@YAHXZ 000000018002e510     libucrt:multibyte_initializer.obj
 0002:0000b510       $unwind$__acrt_thread_attach 000000018002e510     libucrt:initialization.obj
 0002:0000b510       $unwind$__acrt_thread_detach 000000018002e510     libucrt:initialization.obj
 0002:0000b510       $unwind$__acrt_uninitialize 000000018002e510     libucrt:initialization.obj
 0002:0000b510       $unwind$__acrt_uninitialize_critical 000000018002e510     libucrt:initialization.obj
 0002:0000b510       $unwind$initialize_c       000000018002e510     libucrt:initialization.obj
 0002:0000b510       $unwind$uninitialize_allocated_io_buffers 000000018002e510     libucrt:initialization.obj
 0002:0000b510       $unwind$uninitialize_environment 000000018002e510     libucrt:initialization.obj
 0002:0000b510       $unwind$__acrt_initialize_ptd 000000018002e510     libucrt:per_thread_data.obj
 0002:0000b510       $unwind$__acrt_uninitialize_ptd 000000018002e510     libucrt:per_thread_data.obj
 0002:0000b510       $unwind$__acrt_AreFileApisANSI 000000018002e510     libucrt:winapi_thunks.obj
 0002:0000b510       $unwind$__pctype_func      000000018002e510     libucrt:ctype.obj
 0002:0000b510       $unwind$__acrt_release_locale_ref 000000018002e510     libucrt:locale_refcounting.obj
 0002:0000b510       $unwind$_isatty            000000018002e510     libucrt:isatty.obj
 0002:0000b510       $unwind$_get_osfhandle     000000018002e510     libucrt:osfinfo.obj
 0002:0000b510       $unwind$__acrt_initialize_multibyte 000000018002e510     libucrt:mbctype.obj
 0002:0000b510       $unwind$__acrt_update_thread_multibyte_data 000000018002e510     libucrt:mbctype.obj
 0002:0000b510       $unwind$__doserrno         000000018002e510     libucrt:errno.obj
 0002:0000b510       $unwind$_errno             000000018002e510     libucrt:errno.obj
 0002:0000b510       $unwind$_invoke_watson     000000018002e510     libucrt:invalid_parameter.obj
 0002:0000b510       $unwind$abort              000000018002e510     libucrt:abort.obj
 0002:0000b510       $unwind$__acrt_initialize_command_line 000000018002e510     libucrt:argv_data.obj
 0002:0000b510       $unwind$_fileno            000000018002e510     libucrt:fileno.obj
 0002:0000b510       $unwind$?state_case_size@?$output_processor@_WV?$string_output_adapter@_W@__crt_stdio_output@@V?$format_validation_base@_WV?$string_output_adapter@_W@__crt_stdio_output@@@2@@__crt_stdio_output@@AEAA_NXZ 000000018002e510     libucrt:output.obj
 0002:0000b510       $unwind$_statfp            000000018002e510     libucrt:fpctrl.obj
 0002:0000b510       $unwind$fegetround         000000018002e510     libucrt:fegetround.obj
 0002:0000b510       $unwind$_set_errno_from_matherr 000000018002e510     libucrt:fpexcept.obj
 0002:0000b518       $unwind$?cw_dup@@YAXPEBDAEAHAEAPEA_W1@Z 000000018002e518     CWString.obj
 0002:0000b518       $unwind$?DAdvise@?$IDataObjectImpl@VCOPOSPOSKeyboard@@@ATL@@UEAAJPEAUtagFORMATETC@@KPEAUIAdviseSink@@PEAK@Z 000000018002e518     POSKeyboard.obj
 0002:0000b518       $unwind$??$__acrt_mbs_to_wcs_cp@U__crt_win32_buffer_internal_dynamic_resizing@@@@YAHQEBDAEAV?$__crt_win32_buffer@_WU__crt_win32_buffer_internal_dynamic_resizing@@@@I@Z 000000018002e518     libucrt:argv_wildcards.obj
 0002:0000b530       $unwind$?DupWide@_CW@@AEAAXXZ 000000018002e530     CWString.obj
 0002:0000b530       $unwind$??0CAtlComModule@ATL@@QEAA@XZ 000000018002e530     OposVariant.obj
 0002:0000b530       $unwind$??0CAtlWinModule@ATL@@QEAA@XZ 000000018002e530     OposVariant.obj
 0002:0000b530       $unwind$??0?$CComObject@VCOPOSPOSKeyboard@@@ATL@@QEAA@PEAX@Z 000000018002e530     POSKeyboard.obj
 0002:0000b530       $unwind$??0CAtlModule@ATL@@QEAA@XZ 000000018002e530     POSKeyboard.obj
 0002:0000b530       $unwind$??1?$CComObject@VCOPOSPOSKeyboard@@@ATL@@UEAA@XZ 000000018002e530     POSKeyboard.obj
 0002:0000b530       $unwind$??__E_Module@@YAXXZ 000000018002e530     POSKeyboard.obj
 0002:0000b530       $unwind$?AddRef@?$CComObjectCached@VCComClassFactory@ATL@@@ATL@@UEAAKXZ 000000018002e530     POSKeyboard.obj
 0002:0000b530       $unwind$?AllocateHeap@?$CTempBuffer@E$0BAA@VCCRTAllocator@ATL@@@ATL@@AEAAX_K@Z 000000018002e530     POSKeyboard.obj
 0002:0000b530       $unwind$?AllocateHeap@?$CTempBuffer@_W$0BAA@VCCRTAllocator@ATL@@@ATL@@AEAAX_K@Z 000000018002e530     POSKeyboard.obj
 0002:0000b530       $unwind$?AllocateHeap@?$CTempBuffer@_W$0EAA@VCCRTAllocator@ATL@@@ATL@@AEAAX_K@Z 000000018002e530     POSKeyboard.obj
 0002:0000b530       $unwind$?GetClassInfoW@?$IProvideClassInfo2Impl@$1?CLSID_OPOSPOSKeyboard@@3U_GUID@@B$1?DIID__IOPOSPOSKeyboardEvents@@3U2@B$1?LIBID_OposPOSKeyboard_CCO@@3U2@B$00$0A@VCComTypeInfoHolder@ATL@@@ATL@@UEAAJPEAPEAUITypeInfo@@@Z 000000018002e530     POSKeyboard.obj
 0002:0000b530       $unwind$?GetClientSite@?$IOleObjectImpl@VCOPOSPOSKeyboard@@@ATL@@UEAAJPEAPEAUIOleClientSite@@@Z 000000018002e530     POSKeyboard.obj
 0002:0000b530       $unwind$?GetConnMap@COPOSPOSKeyboard@@SAPEBU_ATL_CONNMAP_ENTRY@ATL@@PEAH@Z 000000018002e530     POSKeyboard.obj
 0002:0000b530       $unwind$?GetTypeInfo@?$IDispatchImpl@UIOPOSPOSKeyboard@@$1?IID_IOPOSPOSKeyboard@@3U_GUID@@B$1?LIBID_OposPOSKeyboard_CCO@@3U3@B$00$0A@VCComTypeInfoHolder@ATL@@@ATL@@UEAAJIKPEAPEAUITypeInfo@@@Z 000000018002e530     POSKeyboard.obj
 0002:0000b530       $unwind$?IOleInPlaceObject_InPlaceDeactivate@CComControlBase@ATL@@QEAAJXZ 000000018002e530     POSKeyboard.obj
 0002:0000b530       $unwind$?IOleObject_SetExtent@CComControlBase@ATL@@QEAAJKPEAUtagSIZE@@@Z 000000018002e530     POSKeyboard.obj
 0002:0000b530       $unwind$?IsEqualObject@?$CComPtrBase@UIOleClientSite@@@ATL@@QEAA_NPEAUIUnknown@@@Z 000000018002e530     POSKeyboard.obj
 0002:0000b530       $unwind$?QueryHitPoint@?$IViewObjectExImpl@VCOPOSPOSKeyboard@@@ATL@@UEAAJKPEBUtagRECT@@UtagPOINT@@JPEAK@Z 000000018002e530     POSKeyboard.obj
 0002:0000b530       $unwind$?QueryInterface@?$CComAggObject@VCOPOSPOSKeyboard@@@ATL@@UEAAJAEBU_GUID@@PEAPEAX@Z 000000018002e530     POSKeyboard.obj
 0002:0000b530       $unwind$?Release@?$CComObjectCached@VCComClassFactory@ATL@@@ATL@@UEAAKXZ 000000018002e530     POSKeyboard.obj
 0002:0000b530       $unwind$?Unadvise@?$IConnectionPointImpl@VCOPOSPOSKeyboard@@$1?DIID__IOPOSPOSKeyboardEvents@@3U_GUID@@BVCComDynamicUnkArray@ATL@@@ATL@@UEAAJK@Z 000000018002e530     POSKeyboard.obj
 0002:0000b530       $unwind$?Unadvise@?$IConnectionPointImpl@VCOPOSPOSKeyboard@@$1?IID_IPropertyNotifySink@@3U_GUID@@BVCComDynamicUnkArray@ATL@@@ATL@@UEAAJK@Z 000000018002e530     POSKeyboard.obj
 0002:0000b530       $unwind$??1CComControlBase@ATL@@UEAA@XZ 000000018002e530     POSKeyboardImpl.obj
 0002:0000b530       $unwind$??1COPOSPOSKeyboard@@UEAA@XZ 000000018002e530     POSKeyboardImpl.obj
 0002:0000b530       $unwind$?EventUninit@COPOSPOSKeyboard@@IEAAXXZ 000000018002e530     POSKeyboardImpl.obj
 0002:0000b530       $unwind$?FreezeEvents@COPOSPOSKeyboard@@MEAAJH@Z 000000018002e530     POSKeyboardImpl.obj
 0002:0000b530       $unwind$?SOProcessID@COPOSPOSKeyboard@@UEAAJPEAJ@Z 000000018002e530     POSKeyboardImpl.obj
 0002:0000b530       $unwind$?get_AutoDisable@COPOSPOSKeyboard@@UEAAJPEAF@Z 000000018002e530     POSKeyboardImpl.obj
 0002:0000b530       $unwind$?get_CapCompareFirmwareVersion@COPOSPOSKeyboard@@UEAAJPEAF@Z 000000018002e530     POSKeyboardImpl.obj
 0002:0000b530       $unwind$?get_CapKeyUp@COPOSPOSKeyboard@@UEAAJPEAF@Z 000000018002e530     POSKeyboardImpl.obj
 0002:0000b530       $unwind$?get_CapStatisticsReporting@COPOSPOSKeyboard@@UEAAJPEAF@Z 000000018002e530     POSKeyboardImpl.obj
 0002:0000b530       $unwind$?get_CapUpdateFirmware@COPOSPOSKeyboard@@UEAAJPEAF@Z 000000018002e530     POSKeyboardImpl.obj
 0002:0000b530       $unwind$?get_CapUpdateStatistics@COPOSPOSKeyboard@@UEAAJPEAF@Z 000000018002e530     POSKeyboardImpl.obj
 0002:0000b530       $unwind$?get_Claimed@COPOSPOSKeyboard@@UEAAJPEAF@Z 000000018002e530     POSKeyboardImpl.obj
 0002:0000b530       $unwind$?get_DataEventEnabled@COPOSPOSKeyboard@@UEAAJPEAF@Z 000000018002e530     POSKeyboardImpl.obj
 0002:0000b530       $unwind$?get_DeviceEnabled@COPOSPOSKeyboard@@UEAAJPEAF@Z 000000018002e530     POSKeyboardImpl.obj
 0002:0000b530       $unwind$?get_FreezeEvents@COPOSPOSKeyboard@@UEAAJPEAF@Z 000000018002e530     POSKeyboardImpl.obj
 0002:0000b530       $unwind$?put_FreezeEvents@COPOSPOSKeyboard@@UEAAJF@Z 000000018002e530     POSKeyboardImpl.obj
 0002:0000b530       $unwind$??1CAtlBaseModule@ATL@@QEAA@XZ 000000018002e530     atls:atlbase.obj
 0002:0000b530       $unwind$AtlThunk_AllocateData 000000018002e530     atls:atlthunk.obj
 0002:0000b530       $unwind$__raise_securityfailure 000000018002e530     LIBCMT:gs_report.obj
 0002:0000b530       $unwind$??2@YAPEAX_K@Z     000000018002e530     LIBCMT:new_scalar.obj
 0002:0000b530       $unwind$??_Gtype_info@@UEAAPEAXI@Z 000000018002e530     LIBCMT:std_type_info_static.obj
 0002:0000b530       $unwind$_Init_thread_footer 000000018002e530     LIBCMT:thread_safe_statics.obj
 0002:0000b530       $unwind$_Init_thread_header 000000018002e530     LIBCMT:thread_safe_statics.obj
 0002:0000b530       $unwind$_Init_thread_wait  000000018002e530     LIBCMT:thread_safe_statics.obj
 0002:0000b530       $unwind$??0bad_alloc@std@@QEAA@AEBV01@@Z 000000018002e530     LIBCMT:throw_bad_alloc.obj
 0002:0000b530       $unwind$??0bad_array_new_length@std@@QEAA@AEBV01@@Z 000000018002e530     LIBCMT:throw_bad_alloc.obj
 0002:0000b530       $unwind$??0exception@std@@QEAA@AEBV01@@Z 000000018002e530     LIBCMT:throw_bad_alloc.obj
 0002:0000b530       $unwind$__scrt_initialize_crt 000000018002e530     LIBCMT:utility.obj
 0002:0000b530       $unwind$__scrt_initialize_onexit_tables 000000018002e530     LIBCMT:utility.obj
 0002:0000b530       $unwind$__scrt_release_startup_lock 000000018002e530     LIBCMT:utility.obj
 0002:0000b530       $unwind$__scrt_uninitialize_crt 000000018002e530     LIBCMT:utility.obj
 0002:0000b530       $unwind$_onexit            000000018002e530     LIBCMT:utility.obj
 0002:0000b530       $unwind$_IsExceptionObjectToBeDestroyed 000000018002e530     libvcruntime:ehhelpers.obj
 0002:0000b530       $unwind$??0HandlerMap4@FH4@@QEAA@PEBUTryBlockMapEntry4@1@_KH@Z 000000018002e530     libvcruntime:frame.obj
 0002:0000b530       $unwind$??0bad_exception@std@@QEAA@AEBV01@@Z 000000018002e530     libvcruntime:frame.obj
 0002:0000b530       $unwind$?ExFilterRethrow@@YAHPEAU_EXCEPTION_POINTERS@@PEAUEHExceptionRecord@@PEAH@Z 000000018002e530     libvcruntime:frame.obj
 0002:0000b530       $unwind$__vcrt_uninitialize_locks 000000018002e530     libvcruntime:locks.obj
 0002:0000b530       $unwind$__vcrt_freeptd     000000018002e530     libvcruntime:per_thread_data.obj
 0002:0000b530       $unwind$_CreateFrameInfo   000000018002e530     libvcruntime:risctrnsctrl.obj
 0002:0000b530       $unwind$_SetImageBase      000000018002e530     libvcruntime:risctrnsctrl.obj
 0002:0000b530       $unwind$_SetThrowImageBase 000000018002e530     libvcruntime:risctrnsctrl.obj
 0002:0000b530       $unwind$__std_exception_destroy 000000018002e530     libvcruntime:std_exception.obj
 0002:0000b530       $unwind$__std_type_info_destroy_list 000000018002e530     libvcruntime:std_type_info.obj
 0002:0000b530       $unwind$__vcrt_FlsAlloc    000000018002e530     libvcruntime:winapi_downlevel.obj
 0002:0000b530       $unwind$__vcrt_FlsFree     000000018002e530     libvcruntime:winapi_downlevel.obj
 0002:0000b530       $unwind$__vcrt_FlsGetValue 000000018002e530     libvcruntime:winapi_downlevel.obj
 0002:0000b530       $unwind$_calloc_base       000000018002e530     libucrt:calloc_base.obj
 0002:0000b530       $unwind$_malloc_base       000000018002e530     libucrt:malloc_base.obj
 0002:0000b530       $unwind$_callnewh          000000018002e530     libucrt:new_handler.obj
 0002:0000b530       $unwind$initialize_pointers 000000018002e530     libucrt:initialization.obj
 0002:0000b530       $unwind$uninitialize_allocated_memory 000000018002e530     libucrt:initialization.obj
 0002:0000b530       $unwind$__acrt_initialize_locks 000000018002e530     libucrt:locks.obj
 0002:0000b530       $unwind$__acrt_uninitialize_locks 000000018002e530     libucrt:locks.obj
 0002:0000b530       $unwind$__acrt_freeptd     000000018002e530     libucrt:per_thread_data.obj
 0002:0000b530       $unwind$__acrt_getptd_head 000000018002e530     libucrt:per_thread_data.obj
 0002:0000b530       $unwind$__acrt_get_process_end_policy 000000018002e530     libucrt:win_policies.obj
 0002:0000b530       $unwind$__acrt_AppPolicyGetProcessTerminationMethodInternal 000000018002e530     libucrt:winapi_thunks.obj
 0002:0000b530       $unwind$__acrt_FlsAlloc    000000018002e530     libucrt:winapi_thunks.obj
 0002:0000b530       $unwind$__acrt_FlsFree     000000018002e530     libucrt:winapi_thunks.obj
 0002:0000b530       $unwind$__acrt_FlsGetValue 000000018002e530     libucrt:winapi_thunks.obj
 0002:0000b530       $unwind$__acrt_SetThreadStackGuarantee 000000018002e530     libucrt:winapi_thunks.obj
 0002:0000b530       $unwind$__acrt_uninitialize_winapi_thunks 000000018002e530     libucrt:winapi_thunks.obj
 0002:0000b530       $unwind$__acrt_update_locale_info 000000018002e530     libucrt:locale_update.obj
 0002:0000b530       $unwind$__acrt_update_multibyte_info 000000018002e530     libucrt:locale_update.obj
 0002:0000b530       $unwind$__acrt_allocate_buffer_for_argv 000000018002e530     libucrt:argv_parsing.obj
 0002:0000b530       $unwind$?exit_or_terminate_process@@YAXI@Z 000000018002e530     libucrt:exit.obj
 0002:0000b530       $unwind$?try_cor_exit_process@@YAXI@Z 000000018002e530     libucrt:exit.obj
 0002:0000b530       $unwind$__acrt_uninitialize_stdio 000000018002e530     libucrt:_file.obj
 0002:0000b530       $unwind$__acrt_stdio_free_buffer_nolock 000000018002e530     libucrt:_freebuf.obj
 0002:0000b530       $unwind$_fflush_nolock     000000018002e530     libucrt:fflush.obj
 0002:0000b530       $unwind$strcpy_s           000000018002e530     libucrt:strcpy_s.obj
 0002:0000b530       $unwind$wcscat_s           000000018002e530     libucrt:wcscat_s.obj
 0002:0000b530       $unwind$wcscpy_s           000000018002e530     libucrt:wcscpy_s.obj
 0002:0000b530       $unwind$_clrfp             000000018002e530     libucrt:fpctrl.obj
 0002:0000b530       $unwind$_set_statfp        000000018002e530     libucrt:fpctrl.obj
 0002:0000b530       $unwind$_clearfp           000000018002e530     libucrt:ieee.obj
 0002:0000b530       $unwind$_controlfp_s       000000018002e530     libucrt:contrlfp.obj
 0002:0000b530       $unwind$fegetenv           000000018002e530     libucrt:fegetenv.obj
 0002:0000b530       $unwind$feholdexcept       000000018002e530     libucrt:feholdexcept.obj
 0002:0000b530       $unwind$fesetenv           000000018002e530     libucrt:fesetenv.obj
 0002:0000b538       $unwind$?AtlWinModuleTerm@ATL@@YAJPEAU_ATL_WIN_MODULE70@1@PEAUHINSTANCE__@@@Z 000000018002e538     OposVariant.obj
 0002:0000b538       $unwind$?AtlWinModuleExtractCreateWndData@ATL@@YAPEAXPEAU_ATL_WIN_MODULE70@1@@Z 000000018002e538     POSKeyboard.obj
 0002:0000b538       $unwind$?CreateInstance@?$CComCreator@V?$CComObject@VCOPOSPOSKeyboard@@@ATL@@@ATL@@SAJPEAXAEBU_GUID@@PEAPEAX@Z 000000018002e538     POSKeyboard.obj
 0002:0000b538       $unwind$?DoEvent@COPOSPOSKeyboard@@IEAAXI_K_J@Z 000000018002e538     POSKeyboard.obj
 0002:0000b538       $unwind$?DoVerb@?$IOleObjectImpl@VCOPOSPOSKeyboard@@@ATL@@UEAAJJPEAUtagMSG@@PEAUIOleClientSite@@JPEAUHWND__@@PEBUtagRECT@@@Z 000000018002e538     POSKeyboard.obj
 0002:0000b538       $unwind$?HKeyFromString@CRegParser@ATL@@KAPEAUHKEY__@@PEA_W@Z 000000018002e538     POSKeyboard.obj
 0002:0000b538       $unwind$?Next@?$CComEnumImpl@UIEnumConnectionPoints@@$1?_GUID_b196b285_bab4_101a_b69c_00aa00341d07@@3U__s_GUID@@BPEAUIConnectionPoint@@V?$_CopyInterface@UIConnectionPoint@@@ATL@@@ATL@@UEAAJKPEAPEAUIConnectionPoint@@PEAK@Z 000000018002e538     POSKeyboard.obj
 0002:0000b538       $unwind$?Next@?$CComEnumImpl@UIEnumConnections@@$1?_GUID_b196b287_bab4_101a_b69c_00aa00341d07@@3U__s_GUID@@BUtagCONNECTDATA@@V?$_Copy@UtagCONNECTDATA@@@ATL@@@ATL@@UEAAJKPEAUtagCONNECTDATA@@PEAK@Z 000000018002e538     POSKeyboard.obj
 0002:0000b538       $unwind$?SODirectIO@COPOSPOSKeyboard@@MEAAJJPEAJPEAPEA_W@Z 000000018002e538     POSKeyboard.obj
 0002:0000b538       $unwind$?SetControlFocus@CComControlBase@ATL@@QEAAHH@Z 000000018002e538     POSKeyboard.obj
 0002:0000b538       $unwind$?ocscpy_s@@YA_NPEA_W_KPEB_W@Z 000000018002e538     POSKeyboard.obj
 0002:0000b538       $unwind$?s_EventWindowProc@COPOSPOSKeyboard@@KA_JPEAUHWND__@@I_K_J@Z 000000018002e538     POSKeyboardImpl.obj
 0002:0000b538       $unwind$__scrt_dllmain_exception_filter 000000018002e538     LIBCMT:utility.obj
 0002:0000b538       $unwind$?Is_bad_exception_allowed@@YAEPEBU_s_ESTypeList@@@Z 000000018002e538     libvcruntime:frame.obj
 0002:0000b538       $unwind$_recalloc_base     000000018002e538     libucrt:recalloc.obj
 0002:0000b538       $unwind$__acrt_free_locale 000000018002e538     libucrt:locale_refcounting.obj
 0002:0000b538       $unwind$__acrt_lowio_create_handle_array 000000018002e538     libucrt:osfinfo.obj
 0002:0000b538       $unwind$?setSBCS@@YAXPEAU__crt_multibyte_data@@@Z 000000018002e538     libucrt:mbctype.obj
 0002:0000b538       $unwind$_seh_filter_exe    000000018002e538     libucrt:exception_filter.obj
 0002:0000b538       $unwind$_initterm          000000018002e538     libucrt:initterm.obj
 0002:0000b538       $unwind$??$ensure_buffer_is_big_enough@D@formatting_buffer@__crt_stdio_output@@QEAA_N_K@Z 000000018002e538     libucrt:output.obj
 0002:0000b538       $unwind$??$ensure_buffer_is_big_enough@_W@formatting_buffer@__crt_stdio_output@@QEAA_N_K@Z 000000018002e538     libucrt:output.obj
 0002:0000b54c       $unwind$??0OposDispParms@@QEAA@PEAVOposVariant@@H@Z 000000018002e54c     OposVariant.obj
 0002:0000b54c       $unwind$?SetBSTR_Copy@OposVariant@@QEAAXPEA_WAEAJ@Z 000000018002e54c     OposVariant.obj
 0002:0000b54c       $unwind$?SetBSTR_InOutPtr@OposVariant@@QEAA_NPEAPEA_WAEAJ@Z 000000018002e54c     OposVariant.obj
 0002:0000b54c       $unwind$?SetDispatch_Ptr@OposVariant@@QEAAXPEAUIDispatch@@AEAJ@Z 000000018002e54c     OposVariant.obj
 0002:0000b54c       $unwind$?SetLONG_Ptr@OposVariant@@QEAAXPEAJAEAJ@Z 000000018002e54c     OposVariant.obj
 0002:0000b54c       $unwind$?SetString@OposVariant@@QEAAXPEB_WAEAJ@Z 000000018002e54c     OposVariant.obj
 0002:0000b54c       $unwind$?Term@CAtlComModule@ATL@@QEAAXXZ 000000018002e54c     OposVariant.obj
 0002:0000b54c       $unwind$??_GCRegObject@ATL@@UEAAPEAXI@Z 000000018002e54c     POSKeyboard.obj
 0002:0000b54c       $unwind$?Add@?$CSimpleArray@GV?$CSimpleArrayEqualHelper@G@ATL@@@ATL@@QEAAHAEBG@Z 000000018002e54c     POSKeyboard.obj
 0002:0000b54c       $unwind$?Add@?$CSimpleMap@PEA_WPEA_WVCExpansionVectorEqualHelper@ATL@@@ATL@@QEAAHAEBQEA_W0@Z 000000018002e54c     POSKeyboard.obj
 0002:0000b54c       $unwind$?Add@CComDynamicUnkArray@ATL@@QEAAKPEAUIUnknown@@@Z 000000018002e54c     POSKeyboard.obj
 0002:0000b54c       $unwind$?Advise@?$IOleObjectImpl@VCOPOSPOSKeyboard@@@ATL@@UEAAJPEAUIAdviseSink@@PEAK@Z 000000018002e54c     POSKeyboard.obj
 0002:0000b54c       $unwind$?ClearReplacements@CExpansionVector@ATL@@QEAAJXZ 000000018002e54c     POSKeyboard.obj
 0002:0000b54c       $unwind$?CreateInstance@?$CComObject@V?$CComEnum@UIEnumConnectionPoints@@$1?_GUID_b196b285_bab4_101a_b69c_00aa00341d07@@3U__s_GUID@@BPEAUIConnectionPoint@@V?$_CopyInterface@UIConnectionPoint@@@ATL@@VCComSingleThreadModel@6@@ATL@@@ATL@@SAJPEAPEAV12@@Z 000000018002e54c     POSKeyboard.obj
 0002:0000b54c       $unwind$?CreateInstance@?$CComObject@V?$CComEnum@UIEnumConnections@@$1?_GUID_b196b287_bab4_101a_b69c_00aa00341d07@@3U__s_GUID@@BUtagCONNECTDATA@@V?$_Copy@UtagCONNECTDATA@@@ATL@@VCComSingleThreadModel@6@@ATL@@@ATL@@SAJPEAPEAV12@@Z 000000018002e54c     POSKeyboard.obj
 0002:0000b54c       $unwind$?RegisterServer@CComModule@ATL@@QEAAJHPEBU_GUID@@@Z 000000018002e54c     POSKeyboard.obj
 0002:0000b54c       $unwind$?Term@CAtlModule@ATL@@QEAAXXZ 000000018002e54c     POSKeyboard.obj
 0002:0000b54c       $unwind$?UnregisterServer@CComModule@ATL@@QEAAJHPEBU_GUID@@@Z 000000018002e54c     POSKeyboard.obj
 0002:0000b54c       $unwind$?VTFromRegType@CRegParser@ATL@@KAHPEB_WAEAG@Z 000000018002e54c     POSKeyboard.obj
 0002:0000b54c       $unwind$_DllMainCRTStartup 000000018002e54c     LIBCMT:dll_dllmain.obj
 0002:0000b54c       $unwind$__vcrt_getptd_noexit 000000018002e54c     libvcruntime:per_thread_data.obj
 0002:0000b54c       $unwind$__vcrt_InitializeCriticalSectionEx 000000018002e54c     libvcruntime:winapi_downlevel.obj
 0002:0000b54c       $unwind$memcpy_s           000000018002e54c     libucrt:cfout.obj
 0002:0000b54c       $unwind$__acrt_getptd      000000018002e54c     libucrt:per_thread_data.obj
 0002:0000b54c       $unwind$__acrt_getptd_noexit 000000018002e54c     libucrt:per_thread_data.obj
 0002:0000b54c       $unwind$__acrt_execute_initializers 000000018002e54c     libucrt:shared_initialization.obj
 0002:0000b54c       $unwind$__acrt_InitializeCriticalSectionEx 000000018002e54c     libucrt:winapi_thunks.obj
 0002:0000b54c       $unwind$?free_crt_array_internal@@YAXQEAPEBX_K@Z 000000018002e54c     libucrt:inittime.obj
 0002:0000b54c       $unwind$??$common_lseek_nolock@_J@@YA_JH_JH@Z 000000018002e54c     libucrt:lseek.obj
 0002:0000b54c       $unwind$__acrt_stdio_flush_nolock 000000018002e54c     libucrt:fflush.obj
 0002:0000b54c       $unwind$??0_LocaleUpdate@@QEAA@QEAU__crt_locale_pointers@@@Z 000000018002e54c     libucrt:output.obj
 0002:0000b54c       $unwind$?type_case_Z@?$output_processor@_WV?$string_output_adapter@_W@__crt_stdio_output@@V?$format_validation_base@_WV?$string_output_adapter@_W@__crt_stdio_output@@@2@@__crt_stdio_output@@AEAA_NXZ 000000018002e54c     libucrt:output.obj
 0002:0000b54c       $unwind$?type_case_s@?$output_processor@_WV?$string_output_adapter@_W@__crt_stdio_output@@V?$format_validation_base@_WV?$string_output_adapter@_W@__crt_stdio_output@@@2@@__crt_stdio_output@@AEAA_NXZ 000000018002e54c     libucrt:output.obj
 0002:0000b54c       $unwind$_exception_enabled 000000018002e54c     libucrt:libm_error.obj
 0002:0000b55c       $unwind$??_Estringdispid@CComTypeInfoHolder@ATL@@QEAAPEAXI@Z 000000018002e55c     OposVariant.obj
 0002:0000b55c       $unwind$?AddTermFunc@CAtlModule@ATL@@QEAAJP6AX_K@Z0@Z 000000018002e55c     POSKeyboard.obj
 0002:0000b55c       $unwind$?AtlComModuleRegisterServer@ATL@@YAJPEAU_ATL_COM_MODULE70@1@HPEBU_GUID@@@Z 000000018002e55c     POSKeyboard.obj
 0002:0000b55c       $unwind$?AtlComModuleUnregisterServer@ATL@@YAJPEAU_ATL_COM_MODULE70@1@HPEBU_GUID@@@Z 000000018002e55c     POSKeyboard.obj
 0002:0000b55c       $unwind$?CreateInstance@?$CComCreator@V?$CComAggObject@VCOPOSPOSKeyboard@@@ATL@@@ATL@@SAJPEAXAEBU_GUID@@PEAPEAX@Z 000000018002e55c     POSKeyboard.obj
 0002:0000b55c       $unwind$?CreateInstance@?$CComCreator@V?$CComObjectCached@VCComClassFactory@ATL@@@ATL@@@ATL@@SAJPEAXAEBU_GUID@@PEAPEAX@Z 000000018002e55c     POSKeyboard.obj
 0002:0000b55c       $unwind$?GetPagesHelper@?$ISpecifyPropertyPagesImpl@VCOPOSPOSKeyboard@@@ATL@@IEAAJPEAUtagCAUUID@@PEBUATL_PROPMAP_ENTRY@2@@Z 000000018002e55c     POSKeyboard.obj
 0002:0000b55c       $unwind$__GSHandlerCheck_SEH 000000018002e55c     LIBCMT:gshandlerseh.obj
 0002:0000b55c       $unwind$??$TypeMatchHelper@V__FrameHandler3@@@@YAHPEBU_s_HandlerType@@PEBU_s_CatchableType@@PEBU_s_ThrowInfo@@@Z 000000018002e55c     libvcruntime:frame.obj
 0002:0000b55c       $unwind$??$TypeMatchHelper@V__FrameHandler4@@@@YAHPEAUHandlerType4@FH4@@PEBU_s_CatchableType@@PEBU_s_ThrowInfo@@@Z 000000018002e55c     libvcruntime:frame.obj
 0002:0000b55c       $unwind$?initialize_stdio_handles_nolock@@YAXXZ 000000018002e55c     libucrt:ioinit.obj
 0002:0000b55c       $unwind$__acrt_initialize_stdio 000000018002e55c     libucrt:_file.obj
 0002:0000b55c       $unwind$?process@?$output_processor@_WV?$string_output_adapter@_W@__crt_stdio_output@@V?$format_validation_base@_WV?$string_output_adapter@_W@__crt_stdio_output@@@2@@__crt_stdio_output@@QEAAHXZ 000000018002e55c     libucrt:output.obj
 0002:0000b55c       $unwind$?type_case_integer@?$output_processor@_WV?$string_output_adapter@_W@__crt_stdio_output@@V?$format_validation_base@_WV?$string_output_adapter@_W@__crt_stdio_output@@@2@@__crt_stdio_output@@AEAA_NI_N@Z 000000018002e55c     libucrt:output.obj
 0002:0000b574       $unwind$?SetBSTR@OposVariant@@QEAAXPEA_WAEAJ@Z 000000018002e574     OposVariant.obj
 0002:0000b574       $unwind$?SetLONG@OposVariant@@QEAAXJ@Z 000000018002e574     OposVariant.obj
 0002:0000b574       $unwind$?SetVARIANT_BOOL@OposVariant@@QEAAXF@Z 000000018002e574     OposVariant.obj
 0002:0000b574       $unwind$??0?$CComContainedObject@VCOPOSPOSKeyboard@@@ATL@@QEAA@PEAX@Z 000000018002e574     POSKeyboard.obj
 0002:0000b574       $unwind$??1?$CComEnumImpl@UIEnumConnectionPoints@@$1?_GUID_b196b285_bab4_101a_b69c_00aa00341d07@@3U__s_GUID@@BPEAUIConnectionPoint@@V?$_CopyInterface@UIConnectionPoint@@@ATL@@@ATL@@UEAA@XZ 000000018002e574     POSKeyboard.obj
 0002:0000b574       $unwind$??1?$CComEnumImpl@UIEnumConnections@@$1?_GUID_b196b287_bab4_101a_b69c_00aa00341d07@@3U__s_GUID@@BUtagCONNECTDATA@@V?$_Copy@UtagCONNECTDATA@@@ATL@@@ATL@@UEAA@XZ 000000018002e574     POSKeyboard.obj
 0002:0000b574       $unwind$??_G?$CComAggObject@VCOPOSPOSKeyboard@@@ATL@@UEAAPEAXI@Z 000000018002e574     POSKeyboard.obj
 0002:0000b574       $unwind$??_G?$CComContainedObject@VCOPOSPOSKeyboard@@@ATL@@UEAAPEAXI@Z 000000018002e574     POSKeyboard.obj
 0002:0000b574       $unwind$??_G?$CComObject@V?$CComEnum@UIEnumConnectionPoints@@$1?_GUID_b196b285_bab4_101a_b69c_00aa00341d07@@3U__s_GUID@@BPEAUIConnectionPoint@@V?$_CopyInterface@UIConnectionPoint@@@ATL@@VCComSingleThreadModel@6@@ATL@@@ATL@@UEAAPEAXI@Z 000000018002e574     POSKeyboard.obj
 0002:0000b574       $unwind$??_G?$CComObject@V?$CComEnum@UIEnumConnections@@$1?_GUID_b196b287_bab4_101a_b69c_00aa00341d07@@3U__s_GUID@@BUtagCONNECTDATA@@V?$_Copy@UtagCONNECTDATA@@@ATL@@VCComSingleThreadModel@6@@ATL@@@ATL@@UEAAPEAXI@Z 000000018002e574     POSKeyboard.obj
 0002:0000b574       $unwind$??_G?$CComObject@VCOPOSPOSKeyboard@@@ATL@@UEAAPEAXI@Z 000000018002e574     POSKeyboard.obj
 0002:0000b574       $unwind$??_G?$CComObjectCached@VCComClassFactory@ATL@@@ATL@@UEAAPEAXI@Z 000000018002e574     POSKeyboard.obj
 0002:0000b574       $unwind$??_GCComClassFactory@ATL@@UEAAPEAXI@Z 000000018002e574     POSKeyboard.obj
 0002:0000b574       $unwind$??_GCComModule@ATL@@UEAAPEAXI@Z 000000018002e574     POSKeyboard.obj
 0002:0000b574       $unwind$?DeleteSubKey@CRegKey@ATL@@QEAAJPEB_W@Z 000000018002e574     POSKeyboard.obj
 0002:0000b574       $unwind$?IOleObject_SetClientSite@CComControlBase@ATL@@QEAAJPEAUIOleClientSite@@@Z 000000018002e574     POSKeyboard.obj
 0002:0000b574       $unwind$?InitNew@?$IPersistStorageImpl@VCOPOSPOSKeyboard@@@ATL@@UEAAJPEAUIStorage@@@Z 000000018002e574     POSKeyboard.obj
 0002:0000b574       $unwind$?IsDirty@?$IPersistStorageImpl@VCOPOSPOSKeyboard@@@ATL@@UEAAJXZ 000000018002e574     POSKeyboard.obj
 0002:0000b574       $unwind$?Release@?$CComAggObject@VCOPOSPOSKeyboard@@@ATL@@UEAAKXZ 000000018002e574     POSKeyboard.obj
 0002:0000b574       $unwind$?Release@?$CComObject@V?$CComEnum@UIEnumConnectionPoints@@$1?_GUID_b196b285_bab4_101a_b69c_00aa00341d07@@3U__s_GUID@@BPEAUIConnectionPoint@@V?$_CopyInterface@UIConnectionPoint@@@ATL@@VCComSingleThreadModel@6@@ATL@@@ATL@@UEAAKXZ 000000018002e574     POSKeyboard.obj
 0002:0000b574       $unwind$?Release@?$CComObject@V?$CComEnum@UIEnumConnections@@$1?_GUID_b196b287_bab4_101a_b69c_00aa00341d07@@3U__s_GUID@@BUtagCONNECTDATA@@V?$_Copy@UtagCONNECTDATA@@@ATL@@VCComSingleThreadModel@6@@ATL@@@ATL@@UEAAKXZ 000000018002e574     POSKeyboard.obj
 0002:0000b574       $unwind$?Release@?$CComObject@VCOPOSPOSKeyboard@@@ATL@@UEAAKXZ 000000018002e574     POSKeyboard.obj
 0002:0000b574       $unwind$?SOData@COPOSPOSKeyboard@@MEAAJJ@Z 000000018002e574     POSKeyboard.obj
 0002:0000b574       $unwind$?SOStatusUpdate@COPOSPOSKeyboard@@MEAAJJ@Z 000000018002e574     POSKeyboard.obj
 0002:0000b574       $unwind$?SetAdvise@?$IViewObjectExImpl@VCOPOSPOSKeyboard@@@ATL@@UEAAJKKPEAUIAdviseSink@@@Z 000000018002e574     POSKeyboard.obj
 0002:0000b574       $unwind$?Term@CComModule@ATL@@QEAAXXZ 000000018002e574     POSKeyboard.obj
 0002:0000b574       $unwind$DllMain            000000018002e574     POSKeyboard.obj
 0002:0000b574       $unwind$??1?$IConnectionPointImpl@VCOPOSPOSKeyboard@@$1?DIID__IOPOSPOSKeyboardEvents@@3U_GUID@@BVCComDynamicUnkArray@ATL@@@ATL@@QEAA@XZ 000000018002e574     POSKeyboardImpl.obj
 0002:0000b574       $unwind$??1?$IConnectionPointImpl@VCOPOSPOSKeyboard@@$1?IID_IPropertyNotifySink@@3U_GUID@@BVCComDynamicUnkArray@ATL@@@ATL@@QEAA@XZ 000000018002e574     POSKeyboardImpl.obj
 0002:0000b574       $unwind$??0CAtlBaseModule@ATL@@QEAA@XZ 000000018002e574     atls:atlbase.obj
 0002:0000b574       $unwind$??$GetProcAddressAll@P6AP6A_JPEAUHWND__@@I_K_J@ZPEAUAtlThunkData_t@@@Z@@YAP6AP6A_JPEAUHWND__@@I_K_J@ZPEAUAtlThunkData_t@@@ZPEAP6AP6A_J0I12@Z3@Z@Z 000000018002e574     atls:atlthunk.obj
 0002:0000b574       $unwind$??$GetProcAddressAll@P6APEAUAtlThunkData_t@@XZ@@YAP6APEAUAtlThunkData_t@@XZPEAP6APEAU0@XZ@Z 000000018002e574     atls:atlthunk.obj
 0002:0000b574       $unwind$??$GetProcAddressAll@P6AXPEAUAtlThunkData_t@@@Z@@YAP6AXPEAUAtlThunkData_t@@@ZPEAP6AX0@Z@Z 000000018002e574     atls:atlthunk.obj
 0002:0000b574       $unwind$??$GetProcAddressAll@P6AXPEAUAtlThunkData_t@@PEAX_K@Z@@YAP6AXPEAUAtlThunkData_t@@PEAX_K@ZPEAP6AX012@Z@Z 000000018002e574     atls:atlthunk.obj
 0002:0000b574       $unwind$?__AllocStdCallThunk_cmn@@YAPEAXXZ 000000018002e574     atls:atlthunk.obj
 0002:0000b574       $unwind$?__InitializeThunkPool@@YAHXZ 000000018002e574     atls:atlthunk.obj
 0002:0000b574       $unwind$AtlThunk_DataToCode 000000018002e574     atls:atlthunk.obj
 0002:0000b574       $unwind$_RTC_Initialize    000000018002e574     LIBCMT:initsect.obj
 0002:0000b574       $unwind$_RTC_Terminate     000000018002e574     LIBCMT:initsect.obj
 0002:0000b574       $unwind$?__scrt_initialize_thread_safe_statics@@YAHXZ 000000018002e574     LIBCMT:thread_safe_statics.obj
 0002:0000b574       $unwind$??_Gbad_alloc@std@@UEAAPEAXI@Z 000000018002e574     LIBCMT:throw_bad_alloc.obj
 0002:0000b574       $unwind$??_Gbad_array_new_length@std@@UEAAPEAXI@Z 000000018002e574     LIBCMT:throw_bad_alloc.obj
 0002:0000b574       $unwind$??_Gexception@std@@UEAAPEAXI@Z 000000018002e574     LIBCMT:throw_bad_alloc.obj
 0002:0000b574       $unwind$__FrameUnwindFilter 000000018002e574     libvcruntime:ehhelpers.obj
 0002:0000b574       $unwind$??_Gbad_exception@std@@UEAAPEAXI@Z 000000018002e574     libvcruntime:frame.obj
 0002:0000b574       $unwind$?ExFilterRethrowFH4@@YAHPEAU_EXCEPTION_POINTERS@@PEAUEHExceptionRecord@@HPEAH@Z 000000018002e574     libvcruntime:frame.obj
 0002:0000b574       $unwind$_FindAndUnlinkFrame 000000018002e574     libvcruntime:risctrnsctrl.obj
 0002:0000b574       $unwind$__vcrt_FlsSetValue 000000018002e574     libvcruntime:winapi_downlevel.obj
 0002:0000b574       $unwind$??$common_initialize_environment_nolock@D@@YAHXZ 000000018002e574     libucrt:environment_initialization.obj
 0002:0000b574       $unwind$_realloc_base      000000018002e574     libucrt:realloc_base.obj
 0002:0000b574       $unwind$?replace_current_thread_locale_nolock@@YAXQEAU__acrt_ptd@@QEAU__crt_locale_data@@@Z 000000018002e574     libucrt:per_thread_data.obj
 0002:0000b574       $unwind$__acrt_execute_uninitializers 000000018002e574     libucrt:shared_initialization.obj
 0002:0000b574       $unwind$__acrt_FlsSetValue 000000018002e574     libucrt:winapi_thunks.obj
 0002:0000b574       $unwind$__acrt_LocaleNameToLCID 000000018002e574     libucrt:winapi_thunks.obj
 0002:0000b574       $unwind$_updatetlocinfoEx_nolock 000000018002e574     libucrt:locale_refcounting.obj
 0002:0000b574       $unwind$_close_nolock      000000018002e574     libucrt:close.obj
 0002:0000b574       $unwind$__acrt_uninitialize_lowio 000000018002e574     libucrt:ioinit.obj
 0002:0000b574       $unwind$__acrt_errno_map_os_error 000000018002e574     libucrt:errno.obj
 0002:0000b574       $unwind$_initterm_e        000000018002e574     libucrt:initterm.obj
 0002:0000b574       $unwind$_fclose_nolock     000000018002e574     libucrt:fclose.obj
 0002:0000b574       $unwind$?type_case_n@?$output_processor@_WV?$string_output_adapter@_W@__crt_stdio_output@@V?$format_validation_base@_WV?$string_output_adapter@_W@__crt_stdio_output@@@2@@__crt_stdio_output@@AEAA_NXZ 000000018002e574     libucrt:output.obj
 0002:0000b574       $unwind$strncpy_s          000000018002e574     libucrt:strncpy_s.obj
 0002:0000b574       $unwind$wcsncpy_s          000000018002e574     libucrt:wcsncpy_s.obj
 0002:0000b580       $unwind$?ChangeBSTR@OposVariant@@QEAAXPEAPEA_WAEAJ@Z 000000018002e580     OposVariant.obj
 0002:0000b580       $unwind$?ChangeLONG@OposVariant@@QEAAXPEAJAEAJ@Z 000000018002e580     OposVariant.obj
 0002:0000b580       $unwind$?x_ismbbtype_l@@YAHPEAU__crt_locale_pointers@@IHH@Z 000000018002e580     libucrt:ismbbyte.obj
 0002:0000b590       $unwind$swprintf_s         000000018002e590     POSKeyboard.obj
 0002:0000b5a0       $unwind$?_AtlVerifyStackAvailable@_ATL_SAFE_ALLOCA_IMPL@ATL@@YA_N_K@Z 000000018002e5a0     POSKeyboard.obj
 0002:0000b5cc       $unwind$?filt$0@?0??_AtlVerifyStackAvailable@_ATL_SAFE_ALLOCA_IMPL@ATL@@YA_N_K@Z@4HA 000000018002e5cc     POSKeyboard.obj
 0002:0000b5cc       $unwind$?fin$0@?0??dllmain_crt_process_attach@@YAHQEAUHINSTANCE__@@QEAX@Z@4HA 000000018002e5cc     LIBCMT:dll_dllmain.obj
 0002:0000b5cc       $unwind$?fin$0@?0??dllmain_crt_process_detach@@YAH_N@Z@4HA 000000018002e5cc     LIBCMT:dll_dllmain.obj
 0002:0000b5cc       $unwind$?fin$1@?0??dllmain_crt_process_detach@@YAH_N@Z@4HA 000000018002e5cc     LIBCMT:dll_dllmain.obj
 0002:0000b5cc       $unwind$_IsNonwritableInCurrentImage$filt$0 000000018002e5cc     LIBCMT:pesect.obj
 0002:0000b5cc       $unwind$?filt$0@?0??CxxCallCatchBlock@__FrameHandler4@@SAPEAXPEAU_EXCEPTION_RECORD@@@Z@4HA 000000018002e5cc     libvcruntime:frame.obj
 0002:0000b5cc       $unwind$_query_new_handler$fin$0 000000018002e5cc     libucrt:new_handler.obj
 0002:0000b5cc       $unwind$?fin$0@?0???$?RV<lambda_0ae27a3a962d80f24befdcbee591983d>@@AEAV<lambda_8d0ee55de4b1038c4002e0adecdf1839>@@V<lambda_dc504788e8f1664fe9b84e20bfb512f2>@@@?$__crt_seh_guarded_call@X@@QEAAX$$QEAV<lambda_0ae27a3a962d80f24befdcbee591983d>@@AEAV<lambda_8d0ee55de4b1038c4002e0adecdf1839>@@$$QEAV<lambda_dc504788e8f1664fe9b84e20bfb512f2>@@@Z@4HA 000000018002e5cc     libucrt:per_thread_data.obj
 0002:0000b5cc       $unwind$?fin$0@?0???$?RV<lambda_2d41944a1d46af3157314b8a01080d33>@@AEAV<lambda_8f455de75cd7d7f24b4096f044d8b9e6>@@V<lambda_aa500f224e6afead328df44964fe2772>@@@?$__crt_seh_guarded_call@X@@QEAAX$$QEAV<lambda_2d41944a1d46af3157314b8a01080d33>@@AEAV<lambda_8f455de75cd7d7f24b4096f044d8b9e6>@@$$QEAV<lambda_aa500f224e6afead328df44964fe2772>@@@Z@4HA 000000018002e5cc     libucrt:per_thread_data.obj
 0002:0000b5cc       $unwind$?fin$0@?0???$?RV<lambda_aa87e3671a710a21b5dc78c0bdf72e11>@@AEAV<lambda_92619d2358a28f41a33ba319515a20b9>@@V<lambda_6992ecaafeb10aed2b74cb1fae11a551>@@@?$__crt_seh_guarded_call@X@@QEAAX$$QEAV<lambda_aa87e3671a710a21b5dc78c0bdf72e11>@@AEAV<lambda_92619d2358a28f41a33ba319515a20b9>@@$$QEAV<lambda_6992ecaafeb10aed2b74cb1fae11a551>@@@Z@4HA 000000018002e5cc     libucrt:per_thread_data.obj
 0002:0000b5cc       $unwind$?fin$0@?0???$?RV<lambda_f2e299630e499de9f9a165e60fcd3db5>@@AEAV<lambda_2ae9d31cdba2644fcbeaf08da7c24588>@@V<lambda_40d01ff24d0e7b3814fdbdcee8eab3c7>@@@?$__crt_seh_guarded_call@X@@QEAAX$$QEAV<lambda_f2e299630e499de9f9a165e60fcd3db5>@@AEAV<lambda_2ae9d31cdba2644fcbeaf08da7c24588>@@$$QEAV<lambda_40d01ff24d0e7b3814fdbdcee8eab3c7>@@@Z@4HA 000000018002e5cc     libucrt:per_thread_data.obj
 0002:0000b5cc       $unwind$__acrt_update_thread_locale_data$fin$0 000000018002e5cc     libucrt:locale_refcounting.obj
 0002:0000b5cc       $unwind$?fin$0@?0???$?RV<lambda_410d79af7f07d98d83a3f525b3859a53>@@AEAV<lambda_3e16ef9562a7dcce91392c22ab16ea36>@@V<lambda_38119f0e861e05405d8a144b9b982f0a>@@@?$__crt_seh_guarded_call@X@@QEAAX$$QEAV<lambda_410d79af7f07d98d83a3f525b3859a53>@@AEAV<lambda_3e16ef9562a7dcce91392c22ab16ea36>@@$$QEAV<lambda_38119f0e861e05405d8a144b9b982f0a>@@@Z@4HA 000000018002e5cc     libucrt:wsetlocale.obj
 0002:0000b5cc       $unwind$?fin$0@?0???$?RV<lambda_751a882b2c74d4b022dec766aa51a29a>@@AEAV<lambda_628dfdc04ba53c8bfc02c9951375f3f5>@@V<lambda_f6c7be5f7998530c34de24c7437d6b54>@@@?$__crt_seh_guarded_call@H@@QEAAH$$QEAV<lambda_751a882b2c74d4b022dec766aa51a29a>@@AEAV<lambda_628dfdc04ba53c8bfc02c9951375f3f5>@@$$QEAV<lambda_f6c7be5f7998530c34de24c7437d6b54>@@@Z@4HA 000000018002e5cc     libucrt:close.obj
 0002:0000b5cc       $unwind$?fin$0@?0???$?RV<lambda_a37b2b86f63e897a80ea819b0eb08c01>@@AEAV<lambda_38ce7e780aa69e748d6df282ebc68efe>@@V<lambda_99fb1378e971ab6e7edea83e3a7a83a2>@@@?$__crt_seh_guarded_call@H@@QEAAH$$QEAV<lambda_a37b2b86f63e897a80ea819b0eb08c01>@@AEAV<lambda_38ce7e780aa69e748d6df282ebc68efe>@@$$QEAV<lambda_99fb1378e971ab6e7edea83e3a7a83a2>@@@Z@4HA 000000018002e5cc     libucrt:commit.obj
 0002:0000b5cc       $unwind$__acrt_initialize_lowio$fin$0 000000018002e5cc     libucrt:ioinit.obj
 0002:0000b5cc       $unwind$__acrt_lowio_ensure_fh_exists$fin$0 000000018002e5cc     libucrt:osfinfo.obj
 0002:0000b5cc       $unwind$_write$fin$0       000000018002e5cc     libucrt:write.obj
 0002:0000b5cc       $unwind$?fin$0@?0???$?RV<lambda_efdfa57d1f175319df784efa44bb7b81>@@AEAV<lambda_5f0a4c1567f8adc6734073e5d1e1b35c>@@V<lambda_2e8a7d3640ea6ccb4c2413664c2db6fd>@@@?$__crt_seh_guarded_call@X@@QEAAX$$QEAV<lambda_efdfa57d1f175319df784efa44bb7b81>@@AEAV<lambda_5f0a4c1567f8adc6734073e5d1e1b35c>@@$$QEAV<lambda_2e8a7d3640ea6ccb4c2413664c2db6fd>@@@Z@4HA 000000018002e5cc     libucrt:mbctype.obj
 0002:0000b5cc       $unwind$?fin$0@?0??update_thread_multibyte_data_internal@@YAPEAU__crt_multibyte_data@@QEAU__acrt_ptd@@QEAPEAU1@@Z@4HA 000000018002e5cc     libucrt:mbctype.obj
 0002:0000b5cc       $unwind$?fin$0@?0???$?RV<lambda_450d765d439847d4c735a33c368b5fc0>@@AEAV<lambda_44731a7d0e6d81c3e6aa82d741081786>@@V<lambda_601a2a7da3b7a96e9554ac7215c4b07c>@@@?$__crt_seh_guarded_call@P6AXH@Z@@QEAAP6AXH@Z$$QEAV<lambda_450d765d439847d4c735a33c368b5fc0>@@AEAV<lambda_44731a7d0e6d81c3e6aa82d741081786>@@$$QEAV<lambda_601a2a7da3b7a96e9554ac7215c4b07c>@@@Z@4HA 000000018002e5cc     libucrt:signal.obj
 0002:0000b5cc       $unwind$raise$fin$0        000000018002e5cc     libucrt:signal.obj
 0002:0000b5cc       $unwind$?filt$0@?0???R<lambda_6e4b09c48022b2350581041d5f6b0c4c>@@QEBA@XZ@4HA 000000018002e5cc     libucrt:exit.obj
 0002:0000b5cc       $unwind$?fin$0@?0???$?RV<lambda_d80eeec6fff315bfe5c115232f3240e3>@@AEAV<lambda_6e4b09c48022b2350581041d5f6b0c4c>@@V<lambda_2358e3775559c9db80273638284d5e45>@@@?$__crt_seh_guarded_call@X@@QEAAX$$QEAV<lambda_d80eeec6fff315bfe5c115232f3240e3>@@AEAV<lambda_6e4b09c48022b2350581041d5f6b0c4c>@@$$QEAV<lambda_2358e3775559c9db80273638284d5e45>@@@Z@4HA 000000018002e5cc     libucrt:exit.obj
 0002:0000b5cc       $unwind$?fin$0@?0???$?RV<lambda_638799b9deba96c50f710eeac98168cd>@@AEAV<lambda_22ebabd17bc4fa466a2aca6d8deb888d>@@V<lambda_a6f7d7db0129f75315ebf26d50c089f1>@@@?$__crt_seh_guarded_call@H@@QEAAH$$QEAV<lambda_638799b9deba96c50f710eeac98168cd>@@AEAV<lambda_22ebabd17bc4fa466a2aca6d8deb888d>@@$$QEAV<lambda_a6f7d7db0129f75315ebf26d50c089f1>@@@Z@4HA 000000018002e5cc     libucrt:onexit.obj
 0002:0000b5cc       $unwind$?fin$0@?0???$?RV<lambda_7777bce6b2f8c936911f934f8298dc43>@@AEAV<lambda_f03950bc5685219e0bcd2087efbe011e>@@V<lambda_3883c3dff614d5e0c5f61bb1ac94921c>@@@?$__crt_seh_guarded_call@H@@QEAAH$$QEAV<lambda_7777bce6b2f8c936911f934f8298dc43>@@AEAV<lambda_f03950bc5685219e0bcd2087efbe011e>@@$$QEAV<lambda_3883c3dff614d5e0c5f61bb1ac94921c>@@@Z@4HA 000000018002e5cc     libucrt:onexit.obj
 0002:0000b5cc       $unwind$_fcloseall$fin$0   000000018002e5cc     libucrt:closeall.obj
 0002:0000b5cc       $unwind$fclose$fin$0       000000018002e5cc     libucrt:fclose.obj
 0002:0000b5cc       $unwind$?fin$0@?0???$?RV<lambda_842d9ff0dc9ef11c61343bbaebe7f885>@@AEAV<lambda_c5860995281e5c4ce005b3de8f5874ee>@@V<lambda_d90129c13df834fdcbf8d2b88dafcf2d>@@@?$__crt_seh_guarded_call@X@@QEAAX$$QEAV<lambda_842d9ff0dc9ef11c61343bbaebe7f885>@@AEAV<lambda_c5860995281e5c4ce005b3de8f5874ee>@@$$QEAV<lambda_d90129c13df834fdcbf8d2b88dafcf2d>@@@Z@4HA 000000018002e5cc     libucrt:fflush.obj
 0002:0000b5cc       $unwind$?fin$0@?0???$?RV<lambda_886d6c58226a84441f68b9f2b8217b83>@@AEAV<lambda_ab61a845afdef5b7c387490eaf3616ee>@@V<lambda_f7f22ab5edc0698d5f6905b0d3f44752>@@@?$__crt_seh_guarded_call@X@@QEAAX$$QEAV<lambda_886d6c58226a84441f68b9f2b8217b83>@@AEAV<lambda_ab61a845afdef5b7c387490eaf3616ee>@@$$QEAV<lambda_f7f22ab5edc0698d5f6905b0d3f44752>@@@Z@4HA 000000018002e5cc     libucrt:fflush.obj
 0002:0000b5cc       $unwind$_ctrlfp$filt$0     000000018002e5cc     libucrt:fpctrl.obj
 0002:0000b5cc       $unwind$common_control87$filt$0 000000018002e5cc     libucrt:ieee.obj
 0002:0000b5d4       $unwind$?AtlInternalOleLoadFromStream@ATL@@YAJPEAUIStream@@AEBU_GUID@@PEAPEAXTClassesAllowedInStream@1@K@Z 000000018002e5d4     POSKeyboard.obj
 0002:0000b5f0       $unwind$?ReadFromStream@CComBSTR@ATL@@QEAAJPEAUIStream@@@Z 000000018002e5f0     POSKeyboard.obj
 0002:0000b5f0       $unwind$_configure_narrow_argv 000000018002e5f0     libucrt:argv_parsing.obj
 0002:0000b604       $unwind$?WriteToStream@CComVariant@ATL@@QEAAJPEAUIStream@@@Z 000000018002e604     POSKeyboard.obj
 0002:0000b618       $unwind$?RegOpenKeyExW@CAtlTransactionManager@ATL@@QEAAJPEAUHKEY__@@PEB_WKKPEAPEAU3@@Z 000000018002e618     POSKeyboard.obj
 0002:0000b618       $unwind$?WriteToStream@CComVariant@ATL@@QEAAJPEAUIStream@@G@Z 000000018002e618     POSKeyboard.obj
 0002:0000b618       $unwind$__dcrt_write_console 000000018002e618     libucrt:initcon.obj
 0002:0000b618       $unwind$??$__acrt_wcs_to_mbs_cp@U__crt_win32_buffer_no_resizing@@@@YAHQEB_WAEAV?$__crt_win32_buffer@DU__crt_win32_buffer_no_resizing@@@@I@Z 000000018002e618     libucrt:getmodulefilenamea.obj
 0002:0000b62c       $unwind$?ReadFromStream@CComVariant@ATL@@QEAAJPEAUIStream@@GTClassesAllowedInStream@2@K@Z 000000018002e62c     POSKeyboard.obj
 0002:0000b644       $unwind$?GetSizeMax@CComVariant@ATL@@QEBAJPEAT_ULARGE_INTEGER@@@Z 000000018002e644     POSKeyboard.obj
 0002:0000b65c       $unwind$?RegCreateKeyExW@CAtlTransactionManager@ATL@@QEAAJPEAUHKEY__@@PEB_WKPEA_WKKQEAU_SECURITY_ATTRIBUTES@@PEAPEAU3@PEAK@Z 000000018002e65c     POSKeyboard.obj
 0002:0000b670       $unwind$?GetGITPtr@CAtlModule@ATL@@UEAAJPEAPEAUIGlobalInterfaceTable@@@Z 000000018002e670     POSKeyboard.obj
 0002:0000b670       $unwind$?RegDeleteKeyW@CAtlTransactionManager@ATL@@QEAAJPEAUHKEY__@@PEB_W@Z 000000018002e670     POSKeyboard.obj
 0002:0000b670       $unwind$?getStateFromIterators@UWMap4@FH4@@SAHAEBViterator@12@H0H0@Z 000000018002e670     libvcruntime:frame.obj
 0002:0000b680       $unwind$?AtlHiMetricToPixel@ATL@@YAXPEBUtagSIZE@@PEAU2@@Z 000000018002e680     POSKeyboard.obj
 0002:0000b680       $unwind$?AtlInternalQueryInterface@ATL@@YAJPEAXPEBU_ATL_INTMAP_ENTRY@1@AEBU_GUID@@PEAPEAX@Z 000000018002e680     POSKeyboard.obj
 0002:0000b698       $unwind$?Append@CParseBuffer@CRegParser@ATL@@QEAAHPEB_WH@Z 000000018002e698     POSKeyboard.obj
 0002:0000b698       $unwind$?AtlComModuleGetClassObject@ATL@@YAJPEAU_ATL_COM_MODULE70@1@AEBU_GUID@@1PEAPEAX@Z 000000018002e698     POSKeyboard.obj
 0002:0000b698       $unwind$?EnumConnections@?$IConnectionPointImpl@VCOPOSPOSKeyboard@@$1?DIID__IOPOSPOSKeyboardEvents@@3U_GUID@@BVCComDynamicUnkArray@ATL@@@ATL@@UEAAJPEAPEAUIEnumConnections@@@Z 000000018002e698     POSKeyboard.obj
 0002:0000b698       $unwind$?EnumConnections@?$IConnectionPointImpl@VCOPOSPOSKeyboard@@$1?IID_IPropertyNotifySink@@3U_GUID@@BVCComDynamicUnkArray@ATL@@@ATL@@UEAAJPEAPEAUIEnumConnections@@@Z 000000018002e698     POSKeyboard.obj
 0002:0000b698       $unwind$?GetClassObject@CComModule@ATL@@QEAAJAEBU_GUID@@0PEAPEAX@Z 000000018002e698     POSKeyboard.obj
 0002:0000b698       $unwind$?Init@?$CComEnumImpl@UIEnumConnectionPoints@@$1?_GUID_b196b285_bab4_101a_b69c_00aa00341d07@@3U__s_GUID@@BPEAUIConnectionPoint@@V?$_CopyInterface@UIConnectionPoint@@@ATL@@@ATL@@QEAAJPEAPEAUIConnectionPoint@@0PEAUIUnknown@@W4CComEnumFlags@2@@Z 000000018002e698     POSKeyboard.obj
 0002:0000b698       $unwind$?Init@?$CComEnumImpl@UIEnumConnections@@$1?_GUID_b196b287_bab4_101a_b69c_00aa00341d07@@3U__s_GUID@@BUtagCONNECTDATA@@V?$_Copy@UtagCONNECTDATA@@@ATL@@@ATL@@QEAAJPEAUtagCONNECTDATA@@0PEAUIUnknown@@W4CComEnumFlags@2@@Z 000000018002e698     POSKeyboard.obj
 0002:0000b698       $unwind$?NextToken@CRegParser@ATL@@IEAAJPEA_W@Z 000000018002e698     POSKeyboard.obj
 0002:0000b698       $unwind$__acrt_fp_strflt_to_string 000000018002e698     libucrt:_fptostr.obj
 0002:0000b698       $unwind$__acrt_DownlevelLocaleNameToLCID 000000018002e698     libucrt:lcidtoname_downlevel.obj
 0002:0000b698       $unwind$??R<lambda_f03950bc5685219e0bcd2087efbe011e>@@QEBAHXZ 000000018002e698     libucrt:onexit.obj
 0002:0000b6b0       $unwind$?AtlRegisterClassCategoriesHelper@ATL@@YAJAEBU_GUID@@PEBU_ATL_CATMAP_ENTRY@1@H@Z 000000018002e6b0     POSKeyboard.obj
 0002:0000b6d4       $unwind$?AtlLoadTypeLib@ATL@@YAJPEAUHINSTANCE__@@PEB_WPEAPEA_WPEAPEAUITypeLib@@@Z 000000018002e6d4     POSKeyboard.obj
 0002:0000b6f4       $unwind$?AtlRegisterTypeLib@ATL@@YAJPEAUHINSTANCE__@@PEB_W@Z 000000018002e6f4     POSKeyboard.obj
 0002:0000b710       $unwind$?AtlUnRegisterTypeLib@ATL@@YAJPEAUHINSTANCE__@@PEB_W@Z 000000018002e710     POSKeyboard.obj
 0002:0000b718       $unwind$?GetTI@CComTypeInfoHolder@ATL@@QEAAJK@Z 000000018002e718     POSKeyboard.obj
 0002:0000b718       $unwind$?RecurseDeleteKey@CRegKey@ATL@@QEAAJPEB_W@Z 000000018002e718     POSKeyboard.obj
 0002:0000b738       $unwind$?UpdateRegistryFromResource@CAtlModule@ATL@@QEAAJIHPEAU_ATL_REGMAP_ENTRY@2@@Z 000000018002e738     POSKeyboard.obj
 0002:0000b738       $unwind$?UpdateRegistryFromResource@CAtlModule@ATL@@QEAAJPEB_WHPEAU_ATL_REGMAP_ENTRY@2@@Z 000000018002e738     POSKeyboard.obj
 0002:0000b758       $unwind$?Lookup@?$CSimpleMap@PEA_WPEA_WVCExpansionVectorEqualHelper@ATL@@@ATL@@QEBAPEA_WAEBQEA_W@Z 000000018002e758     POSKeyboard.obj
 0002:0000b758       $unwind$__std_exception_copy 000000018002e758     libvcruntime:std_exception.obj
 0002:0000b758       $unwind$_free_osfhnd       000000018002e758     libucrt:osfinfo.obj
 0002:0000b76c       $unwind$?Add@CExpansionVector@ATL@@QEAAHPEB_W0@Z 000000018002e76c     POSKeyboard.obj
 0002:0000b784       $unwind$?PreProcessBuffer@CRegParser@ATL@@QEAAJPEA_WPEAPEA_W@Z 000000018002e784     POSKeyboard.obj
 0002:0000b7a8       $unwind$?RegisterBuffer@CRegParser@ATL@@QEAAJPEA_WH@Z 000000018002e7a8     POSKeyboard.obj
 0002:0000b7c8       $unwind$?AddValue@CRegParser@ATL@@IEAAJAEAVCRegKey@2@PEB_WPEA_W@Z 000000018002e7c8     POSKeyboard.obj
 0002:0000b7e8       $unwind$?RegisterSubkeys@CRegParser@ATL@@IEAAJPEA_WPEAUHKEY__@@HH@Z 000000018002e7e8     POSKeyboard.obj
 0002:0000b808       $unwind$?SkipAssignment@CRegParser@ATL@@IEAAJPEA_W@Z 000000018002e808     POSKeyboard.obj
 0002:0000b820       $unwind$?RegisterFromResource@CRegObject@ATL@@IEAAJPEB_W00H@Z 000000018002e820     POSKeyboard.obj
 0002:0000b840       $unwind$?Cleanup@CComTypeInfoHolder@ATL@@SAX_K@Z 000000018002e840     POSKeyboard.obj
 0002:0000b840       $unwind$AtlThunk_FreeData  000000018002e840     atls:atlthunk.obj
 0002:0000b840       $unwind$_free_base         000000018002e840     libucrt:free_base.obj
 0002:0000b840       $unwind$?destroy_fls@@YAXPEAX@Z 000000018002e840     libucrt:per_thread_data.obj
 0002:0000b840       $unwind$__acrt_locale_free_numeric 000000018002e840     libucrt:initnum.obj
 0002:0000b840       $unwind$__acrt_locale_free_lc_time_if_unreferenced 000000018002e840     libucrt:locale_refcounting.obj
 0002:0000b848       $unwind$?GetIDsOfNames@CComTypeInfoHolder@ATL@@QEAAJAEBU_GUID@@PEAPEA_WIKPEAJ@Z 000000018002e848     POSKeyboard.obj
 0002:0000b864       $unwind$?LoadNameCache@CComTypeInfoHolder@ATL@@QEAAJPEAUITypeInfo@@@Z 000000018002e864     POSKeyboard.obj
 0002:0000b878       $unwind$?StartWindowProc@?$CWindowImplBaseT@VCWindow@ATL@@V?$CWinTraits@$0FGAAAAAA@$0A@@2@@ATL@@SA_JPEAUHWND__@@I_K_J@Z 000000018002e878     POSKeyboard.obj
 0002:0000b878       $unwind$?should_round_up@@YA_NQEBN_KFW4__acrt_rounding_mode@@@Z 000000018002e878     libucrt:cvt.obj
 0002:0000b878       $unwind$??$parse_command_line@D@@YAXPEADPEAPEAD0PEA_K2@Z 000000018002e878     libucrt:argv_parsing.obj
 0002:0000b894       $unwind$?WindowProc@?$CWindowImplBaseT@VCWindow@ATL@@V?$CWinTraits@$0FGAAAAAA@$0A@@2@@ATL@@SA_JPEAUHWND__@@I_K_J@Z 000000018002e894     POSKeyboard.obj
 0002:0000b8ac       $unwind$?atlCreate@?$CWindowImplBaseT@VCWindow@ATL@@V?$CWinTraits@$0FGAAAAAA@$0A@@2@@ATL@@QEAAPEAUHWND__@@PEAU3@V_U_RECT@2@PEB_WKKV_U_MENUorID@2@GPEAX@Z 000000018002e8ac     POSKeyboard.obj
 0002:0000b8c4       $unwind$??$AtlModuleRegisterWndClassInfoT@VAtlModuleRegisterWndClassInfoParamW@ATL@@@ATL@@YAGPEAU_ATL_BASE_MODULE70@0@PEAU_ATL_WIN_MODULE70@0@PEAU_ATL_WNDCLASSINFOW@0@PEAP6A_JPEAUHWND__@@I_K_J@ZVAtlModuleRegisterWndClassInfoParamW@0@@Z 000000018002e8c4     POSKeyboard.obj
 0002:0000b8e4       $unwind$?GetZoomInfo@CComControlBase@ATL@@QEAAXAEAUATL_DRAWINFO@@@Z 000000018002e8e4     POSKeyboard.obj
 0002:0000b8e4       $unwind$?OnKillFocus@CComControlBase@ATL@@QEAA_JI_K_JAEAH@Z 000000018002e8e4     POSKeyboard.obj
 0002:0000b8e4       $unwind$iswctype           000000018002e8e4     libucrt:iswctype.obj
 0002:0000b8f0       $unwind$?SendOnDataChange@CComControlBase@ATL@@QEAAJK@Z 000000018002e8f0     POSKeyboard.obj
 0002:0000b900       $unwind$?OnSetFocus@CComControlBase@ATL@@QEAA_JI_K_JAEAH@Z 000000018002e900     POSKeyboard.obj
 0002:0000b910       $unwind$?OnMouseActivate@CComControlBase@ATL@@QEAA_JI_K_JAEAH@Z 000000018002e910     POSKeyboard.obj
 0002:0000b918       $unwind$?GetAmbientLocaleID@CComControlBase@ATL@@QEAAJAEAK@Z 000000018002e918     POSKeyboard.obj
 0002:0000b918       $unwind$?GetAmbientUserMode@CComControlBase@ATL@@QEAAJAEAH@Z 000000018002e918     POSKeyboard.obj
 0002:0000b928       $unwind$?IQuickActivate_QuickActivate@CComControlBase@ATL@@QEAAJPEAUtagQACONTAINER@@PEAUtagQACONTROL@@@Z 000000018002e928     POSKeyboard.obj
 0002:0000b940       $unwind$?DoVerbProperties@CComControlBase@ATL@@QEAAJPEBUtagRECT@@PEAUHWND__@@@Z 000000018002e940     POSKeyboard.obj
 0002:0000b958       $unwind$?InPlaceActivate@CComControlBase@ATL@@QEAAJJPEBUtagRECT@@@Z 000000018002e958     POSKeyboard.obj
 0002:0000b978       $unwind$?IOleObject_Close@CComControlBase@ATL@@QEAAJK@Z 000000018002e978     POSKeyboard.obj
 0002:0000b978       $unwind$?type_case_c_tchar@?$output_processor@_WV?$string_output_adapter@_W@__crt_stdio_output@@V?$format_validation_base@_WV?$string_output_adapter@_W@__crt_stdio_output@@@2@@__crt_stdio_output@@AEAA_N_W@Z 000000018002e978     libucrt:output.obj
 0002:0000b988       $unwind$?IOleInPlaceObject_UIDeactivate@CComControlBase@ATL@@QEAAJXZ 000000018002e988     POSKeyboard.obj
 0002:0000b9a0       $unwind$?IOleInPlaceObject_SetObjectRects@CComControlBase@ATL@@QEAAJPEBUtagRECT@@0@Z 000000018002e9a0     POSKeyboard.obj
 0002:0000b9b4       $unwind$?IViewObject_Draw@CComControlBase@ATL@@QEAAJKJPEAXPEAUtagDVTARGETDEVICE@@PEAUHDC__@@2PEBU_RECTL@@3@Z 000000018002e9b4     POSKeyboard.obj
 0002:0000b9d0       $unwind$?IDataObject_GetData@CComControlBase@ATL@@QEAAJPEAUtagFORMATETC@@PEAUtagSTGMEDIUM@@@Z 000000018002e9d0     POSKeyboard.obj
 0002:0000b9f0       $unwind$?OnPaint@CComControlBase@ATL@@QEAA_JI_K_JAEAH@Z 000000018002e9f0     POSKeyboard.obj
 0002:0000ba0c       $unwind$?OnDrawAdvanced@CComControlBase@ATL@@UEAAJAEAUATL_DRAWINFO@@@Z 000000018002ea0c     POSKeyboard.obj
 0002:0000ba28       $unwind$?Invoke@?$IDispatchImpl@UIOPOSPOSKeyboard@@$1?IID_IOPOSPOSKeyboard@@3U_GUID@@B$1?LIBID_OposPOSKeyboard_CCO@@3U3@B$00$0A@VCComTypeInfoHolder@ATL@@@ATL@@UEAAJJAEBU_GUID@@KGPEAUtagDISPPARAMS@@PEAUtagVARIANT@@PEAUtagEXCEPINFO@@PEAI@Z 000000018002ea28     POSKeyboard.obj
 0002:0000ba28       $unwind$?ReleaseDevice@COPOSPOSKeyboard@@UEAAJPEAJ@Z 000000018002ea28     POSKeyboardImpl.obj
 0002:0000ba28       $unwind$_mbsdec_l          000000018002ea28     libucrt:mbsdec.obj
 0002:0000ba34       $unwind$?atlCreate@?$CWindowImpl@VCOPOSPOSKeyboard@@VCWindow@ATL@@V?$CWinTraits@$0FGAAAAAA@$0A@@3@@ATL@@QEAAPEAUHWND__@@PEAU3@V_U_RECT@2@PEB_WKKV_U_MENUorID@2@PEAX@Z 000000018002ea34     POSKeyboard.obj
 0002:0000ba34       $unwind$?fp_format_e@@YAHQEBNQEAD_K12H_NIQEAU__crt_locale_pointers@@W4__acrt_rounding_mode@@@Z 000000018002ea34     libucrt:cvt.obj
 0002:0000ba34       $unwind$_mbtowc_l          000000018002ea34     libucrt:mbtowc.obj
 0002:0000ba34       $unwind$__acrt_LCMapStringEx 000000018002ea34     libucrt:winapi_thunks.obj
 0002:0000ba48       $unwind$?CreateControlWindow@?$CComControl@VCOPOSPOSKeyboard@@V?$CWindowImpl@VCOPOSPOSKeyboard@@VCWindow@ATL@@V?$CWinTraits@$0FGAAAAAA@$0A@@3@@ATL@@@ATL@@UEAAPEAUHWND__@@PEAU3@AEAUtagRECT@@@Z 000000018002ea48     POSKeyboard.obj
 0002:0000ba48       $unwind$?ClearInput@COPOSPOSKeyboard@@UEAAJPEAJ@Z 000000018002ea48     POSKeyboardImpl.obj
 0002:0000ba48       $unwind$?__scrt_throw_std_bad_alloc@@YAXXZ 000000018002ea48     LIBCMT:throw_bad_alloc.obj
 0002:0000ba48       $unwind$?__scrt_throw_std_bad_array_new_length@@YAXXZ 000000018002ea48     LIBCMT:throw_bad_alloc.obj
 0002:0000ba48       $unwind$_raise_exc         000000018002ea48     libucrt:fpexcept.obj
 0002:0000ba50       $unwind$?GetSizeMax@?$IPersistStreamInitImpl@VCOPOSPOSKeyboard@@@ATL@@UEAAJPEAT_ULARGE_INTEGER@@@Z 000000018002ea50     POSKeyboard.obj
 0002:0000ba68       $unwind$?IPersistStreamInit_Load@?$IPersistStreamInitImpl@VCOPOSPOSKeyboard@@@ATL@@QEAAJPEAUIStream@@PEBUATL_PROPMAP_ENTRY@2@@Z 000000018002ea68     POSKeyboard.obj
 0002:0000ba84       $unwind$?IPersistStreamInit_Save@?$IPersistStreamInitImpl@VCOPOSPOSKeyboard@@@ATL@@QEAAJPEAUIStream@@HPEBUATL_PROPMAP_ENTRY@2@@Z 000000018002ea84     POSKeyboard.obj
 0002:0000baa0       $unwind$?DoVerbPrimary@?$IOleObjectImpl@VCOPOSPOSKeyboard@@@ATL@@QEAAJPEBUtagRECT@@PEAUHWND__@@@Z 000000018002eaa0     POSKeyboard.obj
 0002:0000bab8       $unwind$?TranslateAcceleratorW@?$IOleInPlaceActiveObjectImpl@VCOPOSPOSKeyboard@@@ATL@@UEAAJPEAUtagMSG@@@Z 000000018002eab8     POSKeyboard.obj
 0002:0000bac4       $unwind$?Draw@?$IViewObjectExImpl@VCOPOSPOSKeyboard@@@ATL@@UEAAJKJPEAXPEAUtagDVTARGETDEVICE@@PEAUHDC__@@2PEBU_RECTL@@3P6AH_K@Z4@Z 000000018002eac4     POSKeyboard.obj
 0002:0000bacc       $unwind$?QueryHitRect@?$IViewObjectExImpl@VCOPOSPOSKeyboard@@@ATL@@UEAAJKPEBUtagRECT@@0JPEAK@Z 000000018002eacc     POSKeyboard.obj
 0002:0000badc       $unwind$?OnWindowMessage@?$IOleInPlaceObjectWindowlessImpl@VCOPOSPOSKeyboard@@@ATL@@UEAAJI_K_JPEA_J@Z 000000018002eadc     POSKeyboard.obj
 0002:0000baf0       $unwind$?EnumConnectionPoints@?$IConnectionPointContainerImpl@VCOPOSPOSKeyboard@@@ATL@@UEAAJPEAPEAUIEnumConnectionPoints@@@Z 000000018002eaf0     POSKeyboard.obj
 0002:0000bb18       $unwind$?FindConnectionPoint@?$IConnectionPointContainerImpl@VCOPOSPOSKeyboard@@@ATL@@UEAAJAEBU_GUID@@PEAPEAUIConnectionPoint@@@Z 000000018002eb18     POSKeyboard.obj
 0002:0000bb18       $unwind$?__mbrtoc32_utf8@__crt_mbstring@@YA_KPEA_UPEBD_KPEAU_Mbstatet@@@Z 000000018002eb18     libucrt:mbrtoc32.obj
 0002:0000bb34       $unwind$?Load@?$IPersistStorageImpl@VCOPOSPOSKeyboard@@@ATL@@UEAAJPEAUIStorage@@@Z 000000018002eb34     POSKeyboard.obj
 0002:0000bb44       $unwind$?Save@?$IPersistStorageImpl@VCOPOSPOSKeyboard@@@ATL@@UEAAJPEAUIStorage@@H@Z 000000018002eb44     POSKeyboard.obj
 0002:0000bb58       $unwind$?IPSI_GetIPersistStreamInit@?$IPersistStorageImpl@VCOPOSPOSKeyboard@@@ATL@@AEAAPEAUIPersistStreamInit@@XZ 000000018002eb58     POSKeyboard.obj
 0002:0000bb58       $unwind$?parse_int_from_format_string@?$output_processor@_WV?$string_output_adapter@_W@__crt_stdio_output@@V?$format_validation_base@_WV?$string_output_adapter@_W@__crt_stdio_output@@@2@@__crt_stdio_output@@AEAA_NQEAH@Z 000000018002eb58     libucrt:output.obj
 0002:0000bb6c       $unwind$?GetInterfaceSafetyOptions@?$IObjectSafetyImpl@VCOPOSPOSKeyboard@@$02@ATL@@UEAAJAEBU_GUID@@PEAK1@Z 000000018002eb6c     POSKeyboard.obj
 0002:0000bb80       $unwind$?SetInterfaceSafetyOptions@?$IObjectSafetyImpl@VCOPOSPOSKeyboard@@$02@ATL@@UEAAJAEBU_GUID@@KK@Z 000000018002eb80     POSKeyboard.obj
 0002:0000bb94       $unwind$?Advise@?$IConnectionPointImpl@VCOPOSPOSKeyboard@@$1?DIID__IOPOSPOSKeyboardEvents@@3U_GUID@@BVCComDynamicUnkArray@ATL@@@ATL@@UEAAJPEAUIUnknown@@PEAK@Z 000000018002eb94     POSKeyboard.obj
 0002:0000bb94       $unwind$?Advise@?$IConnectionPointImpl@VCOPOSPOSKeyboard@@$1?IID_IPropertyNotifySink@@3U_GUID@@BVCComDynamicUnkArray@ATL@@@ATL@@UEAAJPEAUIUnknown@@PEAK@Z 000000018002eb94     POSKeyboard.obj
 0002:0000bba8       $unwind$?Fire_DataEvent@?$CProxy_IOPOSEvents@VCOPOSPOSKeyboard@@@@QEAAXJ@Z 000000018002eba8     POSKeyboard.obj
 0002:0000bba8       $unwind$?Fire_StatusUpdateEvent@?$CProxy_IOPOSEvents@VCOPOSPOSKeyboard@@@@QEAAXJ@Z 000000018002eba8     POSKeyboard.obj
 0002:0000bbc0       $unwind$?Fire_DirectIOEvent@?$CProxy_IOPOSEvents@VCOPOSPOSKeyboard@@@@QEAAXJPEAJPEAPEA_W@Z 000000018002ebc0     POSKeyboard.obj
 0002:0000bbe0       $unwind$?Fire_ErrorEvent@?$CProxy_IOPOSEvents@VCOPOSPOSKeyboard@@@@QEAAXJJJPEAJ@Z 000000018002ebe0     POSKeyboard.obj
 0002:0000bc00       $unwind$?FireTheEvent@?$CProxy_IOPOSEvents@VCOPOSPOSKeyboard@@@@IEAAXPEAVOposVariant@@IAEAJPEB_WJ@Z 000000018002ec00     POSKeyboard.obj
 0002:0000bc10       $unwind$?ProcessWindowMessage@COPOSPOSKeyboard@@UEAAHPEAUHWND__@@I_K_JAEA_JK@Z 000000018002ec10     POSKeyboard.obj
 0002:0000bc10       $unwind$__dcrt_get_narrow_environment_from_os 000000018002ec10     libucrt:get_environment_from_os.obj
 0002:0000bc10       $unwind$?fp_format_f_internal@@YAHQEAD_KHQEAU_strflt@@_NQEAU__crt_locale_pointers@@@Z 000000018002ec10     libucrt:cvt.obj
 0002:0000bc10       $unwind$??$__acrt_wcs_to_mbs_cp@U__crt_win32_buffer_internal_dynamic_resizing@@@@YAHQEB_WAEAV?$__crt_win32_buffer@DU__crt_win32_buffer_internal_dynamic_resizing@@@@I@Z 000000018002ec10     libucrt:argv_wildcards.obj
 0002:0000bc28       $unwind$?SOError@COPOSPOSKeyboard@@MEAAJJJJPEAJ@Z 000000018002ec28     POSKeyboard.obj
 0002:0000bc28       $unwind$_invalid_parameter 000000018002ec28     libucrt:invalid_parameter.obj
 0002:0000bc3c       $unwind$?Clone@?$CComEnumImpl@UIEnumConnectionPoints@@$1?_GUID_b196b285_bab4_101a_b69c_00aa00341d07@@3U__s_GUID@@BPEAUIConnectionPoint@@V?$_CopyInterface@UIConnectionPoint@@@ATL@@@ATL@@UEAAJPEAPEAUIEnumConnectionPoints@@@Z 000000018002ec3c     POSKeyboard.obj
 0002:0000bc3c       $unwind$?Clone@?$CComEnumImpl@UIEnumConnections@@$1?_GUID_b196b287_bab4_101a_b69c_00aa00341d07@@3U__s_GUID@@BUtagCONNECTDATA@@V?$_Copy@UtagCONNECTDATA@@@ATL@@@ATL@@UEAAJPEAPEAUIEnumConnections@@@Z 000000018002ec3c     POSKeyboard.obj
 0002:0000bc54       $unwind$?GetOposProp@COPOSPOSKeyboard@@IEAAJJPEAJJ@Z 000000018002ec54     POSKeyboardImpl.obj
 0002:0000bc54       $unwind$?GetOposProp@COPOSPOSKeyboard@@IEAAJJPEAPEA_WJ@Z 000000018002ec54     POSKeyboardImpl.obj
 0002:0000bc6c       $unwind$?SetOposProp@COPOSPOSKeyboard@@IEAAJJJJ@Z 000000018002ec6c     POSKeyboardImpl.obj
 0002:0000bc8c       $unwind$?DoInvoke@COPOSPOSKeyboard@@IEAAJJPEAVOposVariant@@IHPEAJ_N@Z 000000018002ec8c     POSKeyboardImpl.obj
 0002:0000bca4       $unwind$?SetCOFreezeEvents@COPOSPOSKeyboard@@IEAAXF@Z 000000018002eca4     POSKeyboardImpl.obj
 0002:0000bcb8       $unwind$?OnDraw@COPOSPOSKeyboard@@MEAAJAEAUATL_DRAWINFO@@@Z 000000018002ecb8     POSKeyboardImpl.obj
 0002:0000bcd0       $unwind$?EventInit@COPOSPOSKeyboard@@IEAAJXZ 000000018002ecd0     POSKeyboardImpl.obj
 0002:0000bce4       $unwind$?EventWindowProc@COPOSPOSKeyboard@@IEAA_JI_K_J@Z 000000018002ece4     POSKeyboardImpl.obj
 0002:0000bce4       $unwind$__stdio_common_vswprintf_s 000000018002ece4     libucrt:output.obj
 0002:0000bcf0       $unwind$?get_ControlObjectDescription@COPOSPOSKeyboard@@UEAAJPEAPEA_W@Z 000000018002ecf0     POSKeyboardImpl.obj
 0002:0000bcf0       $unwind$__dcrt_lowio_ensure_console_output_initialized 000000018002ecf0     libucrt:initcon.obj
 0002:0000bcf0       $unwind$_isleadbyte_l      000000018002ecf0     libucrt:_wctype.obj
 0002:0000bcf0       $unwind$?getSystemCP@@YAHH@Z 000000018002ecf0     libucrt:mbctype.obj
 0002:0000bcf8       $unwind$?CheckHealth@COPOSPOSKeyboard@@UEAAJJPEAJ@Z 000000018002ecf8     POSKeyboardImpl.obj
 0002:0000bcf8       $unwind$?ResetStatistics@COPOSPOSKeyboard@@UEAAJPEA_WPEAJ@Z 000000018002ecf8     POSKeyboardImpl.obj
 0002:0000bcf8       $unwind$?RetrieveStatistics@COPOSPOSKeyboard@@UEAAJPEAPEA_WPEAJ@Z 000000018002ecf8     POSKeyboardImpl.obj
 0002:0000bcf8       $unwind$?UpdateFirmware@COPOSPOSKeyboard@@UEAAJPEA_WPEAJ@Z 000000018002ecf8     POSKeyboardImpl.obj
 0002:0000bcf8       $unwind$?UpdateStatistics@COPOSPOSKeyboard@@UEAAJPEA_WPEAJ@Z 000000018002ecf8     POSKeyboardImpl.obj
 0002:0000bd08       $unwind$?ClaimDevice@COPOSPOSKeyboard@@UEAAJJPEAJ@Z 000000018002ed08     POSKeyboardImpl.obj
 0002:0000bd18       $unwind$?Close@COPOSPOSKeyboard@@UEAAJPEAJ@Z 000000018002ed18     POSKeyboardImpl.obj
 0002:0000bd24       $unwind$?DirectIO@COPOSPOSKeyboard@@UEAAJJPEAJPEAPEA_W0@Z 000000018002ed24     POSKeyboardImpl.obj
 0002:0000bd40       $unwind$?Open@COPOSPOSKeyboard@@UEAAJPEA_WPEAJ@Z 000000018002ed40     POSKeyboardImpl.obj
 0002:0000bd64       $unwind$?CompareFirmwareVersion@COPOSPOSKeyboard@@UEAAJPEA_WPEAJ1@Z 000000018002ed64     POSKeyboardImpl.obj
 0002:0000bd64       $unwind$?initialize_inherited_file_handles_nolock@@YAXXZ 000000018002ed64     libucrt:ioinit.obj
 0002:0000bd80       $unwind$__scrt_is_nonwritable_in_current_image 000000018002ed80     LIBCMT:utility.obj
 0002:0000bda0       $unwind$__scrt_is_nonwritable_in_current_image$filt$0 000000018002eda0     LIBCMT:utility.obj
 0002:0000bda8       $unwind$__report_securityfailure 000000018002eda8     LIBCMT:gs_report.obj
 0002:0000bdb0       $unwind$__report_gsfailure 000000018002edb0     LIBCMT:gs_report.obj
 0002:0000bdb8       $unwind$capture_current_context 000000018002edb8     LIBCMT:gs_report.obj
 0002:0000bdc4       $unwind$capture_previous_context 000000018002edc4     LIBCMT:gs_report.obj
 0002:0000bdd0       $unwind$??2@YAPEAX_KAEBUnothrow_t@std@@@Z 000000018002edd0     LIBCMT:new_scalar_nothrow.obj
 0002:0000bde0       $cppxdata$??2@YAPEAX_KAEBUnothrow_t@std@@@Z 000000018002ede0     LIBCMT:new_scalar_nothrow.obj
 0002:0000bded       $stateUnwindMap$??2@YAPEAX_KAEBUnothrow_t@std@@@Z 000000018002eded     LIBCMT:new_scalar_nothrow.obj
 0002:0000bdf0       $tryMap$??2@YAPEAX_KAEBUnothrow_t@std@@@Z 000000018002edf0     LIBCMT:new_scalar_nothrow.obj
 0002:0000bdf8       $handlerMap$??2@YAPEAX_KAEBUnothrow_t@std@@@Z 000000018002edf8     LIBCMT:new_scalar_nothrow.obj
 0002:0000be00       $ip2state$??2@YAPEAX_KAEBUnothrow_t@std@@@Z 000000018002ee00     LIBCMT:new_scalar_nothrow.obj
 0002:0000be04       $unwind$?catch$0@?0???2@YAPEAX_KAEBUnothrow_t@std@@@Z@4HA 000000018002ee04     LIBCMT:new_scalar_nothrow.obj
 0002:0000be14       $cppxdata$?catch$0@?0???2@YAPEAX_KAEBUnothrow_t@std@@@Z@4HA 000000018002ee14     LIBCMT:new_scalar_nothrow.obj
 0002:0000be1e       $stateUnwindMap$?catch$0@?0???2@YAPEAX_KAEBUnothrow_t@std@@@Z@4HA 000000018002ee1e     LIBCMT:new_scalar_nothrow.obj
 0002:0000be20       $ip2state$?catch$0@?0???2@YAPEAX_KAEBUnothrow_t@std@@@Z@4HA 000000018002ee20     LIBCMT:new_scalar_nothrow.obj
 0002:0000be24       $unwind$__GSHandlerCheckCommon 000000018002ee24     LIBCMT:gshandler.obj
 0002:0000be30       $xdatasym                  000000018002ee30     LIBCMT:chkstk.obj
 0002:0000be38       $xdatasym                  000000018002ee38     LIBCMT:amdsecgs.obj
 0002:0000be3c       $unwind$?dllmain_crt_process_attach@@YAHQEAUHINSTANCE__@@QEAX@Z 000000018002ee3c     LIBCMT:dll_dllmain.obj
 0002:0000be78       $unwind$?dllmain_crt_process_detach@@YAH_N@Z 000000018002ee78     LIBCMT:dll_dllmain.obj
 0002:0000becc       $unwind$?dllmain_dispatch@@YAHQEAUHINSTANCE__@@KQEAX@Z 000000018002eecc     LIBCMT:dll_dllmain.obj
 0002:0000bef4       $unwind$?filt$0@?0??dllmain_dispatch@@YAHQEAUHINSTANCE__@@KQEAX@Z@4HA 000000018002eef4     LIBCMT:dll_dllmain.obj
 0002:0000bef4       $unwind$?filt$0@?0??FrameUnwindToState@__FrameHandler4@@SAXPEA_KPEAU_xDISPATCHER_CONTEXT@@PEAUFuncInfo4@FH4@@H@Z@4HA 000000018002eef4     libvcruntime:frame.obj
 0002:0000bef4       $unwind$?fin$1@?0??FrameUnwindToState@__FrameHandler4@@SAXPEA_KPEAU_xDISPATCHER_CONTEXT@@PEAUFuncInfo4@FH4@@H@Z@4HA 000000018002eef4     libvcruntime:frame.obj
 0002:0000befc       $unwind$__isa_available_init 000000018002eefc     LIBCMT:cpu_disp.obj
 0002:0000bf0c       $unwind$__scrt_fastfail    000000018002ef0c     LIBCMT:utility_desktop.obj
 0002:0000bf1c       $unwind$__security_init_cookie 000000018002ef1c     LIBCMT:gs_support.obj
 0002:0000bf28       $xdatasym                  000000018002ef28     LIBCMT:guard_dispatch.obj
 0002:0000bf30       $xdatasym                  000000018002ef30     LIBCMT:guard_xfg_dispatch.obj
 0002:0000bf34       $unwind$AtlThunk_InitData  000000018002ef34     atls:atlthunk.obj
 0002:0000bf48       $unwind$wcsstr             000000018002ef48     libvcruntime:wcsstr.obj
 0002:0000bf60       $xdatasym                  000000018002ef60     libvcruntime:memcmp.obj
 0002:0000bf68       $xdatasym                  000000018002ef68     libvcruntime:memcpy.obj
 0002:0000bf78       $xdatasym                  000000018002ef78     libvcruntime:memset.obj
 0002:0000bf88       $unwind$__C_specific_handler 000000018002ef88     libvcruntime:riscchandler.obj
 0002:0000bfa4       $unwind$?DecompFuncInfo@FH4@@YA_JPEAEAEAUFuncInfo4@1@_KH_N@Z 000000018002efa4     libvcruntime:risctrnsctrl.obj
 0002:0000bfbc       $unwind$?UnwindNestedFrames@__FrameHandler4@@SAXPEA_KPEAUEHExceptionRecord@@PEAU_CONTEXT@@0PEAXPEAUFuncInfo4@FH4@@HHPEAUHandlerType4@5@PEAU_xDISPATCHER_CONTEXT@@E@Z 000000018002efbc     libvcruntime:risctrnsctrl.obj
 0002:0000bfd0       $unwind$?GetRangeOfTrysToCheck@__FrameHandler4@@SA?AU?$pair@Viterator@TryBlockMap4@FH4@@V123@@std@@AEAVTryBlockMap4@FH4@@HPEAU_xDISPATCHER_CONTEXT@@PEAUFuncInfo4@5@H@Z 000000018002efd0     libvcruntime:risctrnsctrl.obj
 0002:0000bfec       $unwind$__CxxFrameHandler4 000000018002efec     libvcruntime:risctrnsctrl.obj
 0002:0000c000       $unwind$??$_CallSETranslator@V__FrameHandler4@@@@YAHPEAUEHExceptionRecord@@PEA_KPEAU_CONTEXT@@PEAU_xDISPATCHER_CONTEXT@@PEAUFuncInfo4@FH4@@K1H@Z 000000018002f000     libvcruntime:risctrnsctrl.obj
 0002:0000c020       $unwind$?filt$0@?0???$_CallSETranslator@V__FrameHandler4@@@@YAHPEAUEHExceptionRecord@@PEA_KPEAU_CONTEXT@@PEAU_xDISPATCHER_CONTEXT@@PEAUFuncInfo4@FH4@@K1H@Z@4HA 000000018002f020     libvcruntime:risctrnsctrl.obj
 0002:0000c02c       $unwind$__DestructExceptionObject 000000018002f02c     libvcruntime:ehhelpers.obj
 0002:0000c04c       $unwind$__DestructExceptionObject$filt$0 000000018002f04c     libvcruntime:ehhelpers.obj
 0002:0000c04c       $unwind$?fin$1@?0??CxxCallCatchBlock@__FrameHandler4@@SAPEAXPEAU_EXCEPTION_RECORD@@@Z@4HA 000000018002f04c     libvcruntime:frame.obj
 0002:0000c058       $unwind$_CxxThrowException 000000018002f058     libvcruntime:throw.obj
 0002:0000c068       $xdatasym                  000000018002f068     libvcruntime:notify.obj
 0002:0000c074       $unwind$?StateFromIp@__FrameHandler4@@SAHPEAUFuncInfo4@FH4@@PEAU_xDISPATCHER_CONTEXT@@_K@Z 000000018002f074     libvcruntime:ehstate.obj
 0002:0000c088       $unwind$?getStartStop@UWMap4@FH4@@QEAAXHHAEAViterator@12@0@Z 000000018002f088     libvcruntime:frame.obj
 0002:0000c0a0       $unwind$?FrameUnwindToState@__FrameHandler4@@SAXPEA_KPEAU_xDISPATCHER_CONTEXT@@PEAUFuncInfo4@FH4@@H@Z 000000018002f0a0     libvcruntime:frame.obj
 0002:0000c0e8       $unwind$?CxxCallCatchBlock@__FrameHandler4@@SAPEAXPEAU_EXCEPTION_RECORD@@@Z 000000018002f0e8     libvcruntime:frame.obj
 0002:0000c144       $unwind$?IsInExceptionSpec@@YAEPEAUEHExceptionRecord@@PEBU_s_ESTypeList@@@Z 000000018002f144     libvcruntime:frame.obj
 0002:0000c160       $unwind$??$__InternalCxxFrameHandler@V__FrameHandler4@@@@YA?AW4_EXCEPTION_DISPOSITION@@PEAUEHExceptionRecord@@PEA_KPEAU_CONTEXT@@PEAU_xDISPATCHER_CONTEXT@@PEAUFuncInfo4@FH4@@H1E@Z 000000018002f160     libvcruntime:frame.obj
 0002:0000c178       $unwind$??$BuildCatchObjectHelperInternal@V__FrameHandler4@@@@YAHPEAUEHExceptionRecord@@PEAXPEAUHandlerType4@FH4@@PEBU_s_CatchableType@@@Z 000000018002f178     libvcruntime:frame.obj
 0002:0000c1b8       $unwind$??$BuildCatchObjectInternal@V__FrameHandler4@@@@YAXPEAUEHExceptionRecord@@PEAXPEAUHandlerType4@FH4@@PEBU_s_CatchableType@@@Z 000000018002f1b8     libvcruntime:frame.obj
 0002:0000c1e4       $unwind$??$FindHandler@V__FrameHandler4@@@@YAXPEAUEHExceptionRecord@@PEA_KPEAU_CONTEXT@@PEAU_xDISPATCHER_CONTEXT@@PEAUFuncInfo4@FH4@@EH1@Z 000000018002f1e4     libvcruntime:frame.obj
 0002:0000c204       $unwind$??$CatchIt@V__FrameHandler4@@@@YAXPEAUEHExceptionRecord@@PEA_KPEAU_CONTEXT@@PEAU_xDISPATCHER_CONTEXT@@PEAUFuncInfo4@FH4@@PEAUHandlerType4@4@PEBU_s_CatchableType@@PEAUTryBlockMapEntry4@4@H1EE@Z 000000018002f204     libvcruntime:frame.obj
 0002:0000c21c       $unwind$??$FindHandlerForForeignException@V__FrameHandler4@@@@YAXPEAUEHExceptionRecord@@PEA_KPEAU_CONTEXT@@PEAU_xDISPATCHER_CONTEXT@@PEAUFuncInfo4@FH4@@HH1@Z 000000018002f21c     libvcruntime:frame.obj
 0002:0000c23c       $unwind$?try_get_function@@YAPEAXW4function_id@?A0x5302d918@@QEBDQEBW4module_id@2@2@Z 000000018002f23c     libvcruntime:winapi_downlevel.obj
 0002:0000c23c       $unwind$?try_get_function@@YAPEAXW4function_id@?A0x391cf84c@@QEBDQEBW4module_id@2@2@Z 000000018002f23c     libucrt:winapi_thunks.obj
 0002:0000c258       $xdatasym                  000000018002f258     libvcruntime:handlers.obj
 0002:0000c278       $unwind$__acrt_call_reportfault 000000018002f278     libucrt:invalid_parameter.obj
 0002:0000c298       $unwind$_resetstkoflw      000000018002f298     libucrt:resetstk.obj
 0002:0000c2bc       $unwind$?write_string@?$string_output_adapter@_W@__crt_stdio_output@@QEBAXQEB_WHQEAHAEAV__crt_deferred_errno_cache@@@Z 000000018002f2bc     libucrt:output.obj
 0002:0000c2d4       $unwind$??$common_vsprintf@Vformat_validation_base@__crt_stdio_output@@_W@@YAH_KQEA_W0QEB_WQEAU__crt_locale_pointers@@QEAD@Z 000000018002f2d4     libucrt:output.obj
 0002:0000c2f4       $unwind$??$write_multiple_characters@V?$string_output_adapter@_W@__crt_stdio_output@@D@__crt_stdio_output@@YAXAEBV?$string_output_adapter@_W@0@DHQEAH@Z 000000018002f2f4     libucrt:output.obj
 0002:0000c300       $unwind$?state_case_type@?$output_processor@_WV?$string_output_adapter@_W@__crt_stdio_output@@V?$format_validation_base@_WV?$string_output_adapter@_W@__crt_stdio_output@@@2@@__crt_stdio_output@@AEAA_NXZ 000000018002f300     libucrt:output.obj
 0002:0000c324       $unwind$?type_case_a@?$output_processor@_WV?$string_output_adapter@_W@__crt_stdio_output@@V?$format_validation_base@_WV?$string_output_adapter@_W@__crt_stdio_output@@@2@@__crt_stdio_output@@AEAA_NXZ 000000018002f324     libucrt:output.obj
 0002:0000c334       $unwind$?write_stored_string_tchar@?$output_processor@_WV?$string_output_adapter@_W@__crt_stdio_output@@V?$format_validation_base@_WV?$string_output_adapter@_W@__crt_stdio_output@@@2@@__crt_stdio_output@@AEAA_N_W@Z 000000018002f334     libucrt:output.obj
 0002:0000c348       $unwind$??$type_case_integer_parse_into_buffer@I@?$output_processor@_WV?$string_output_adapter@_W@__crt_stdio_output@@V?$format_validation_base@_WV?$string_output_adapter@_W@__crt_stdio_output@@@2@@__crt_stdio_output@@AEAAXII_N@Z 000000018002f348     libucrt:output.obj
 0002:0000c348       $unwind$??$type_case_integer_parse_into_buffer@_K@?$output_processor@_WV?$string_output_adapter@_W@__crt_stdio_output@@V?$format_validation_base@_WV?$string_output_adapter@_W@__crt_stdio_output@@@2@@__crt_stdio_output@@AEAAX_KI_N@Z 000000018002f348     libucrt:output.obj
 0002:0000c350       $unwind$?common_exit@@YAXHW4_crt_exit_cleanup_mode@@W4_crt_exit_return_mode@@@Z 000000018002f350     libucrt:exit.obj
 0002:0000c35c       $unwind$??R<lambda_6e4b09c48022b2350581041d5f6b0c4c>@@QEBA@XZ 000000018002f35c     libucrt:exit.obj
 0002:0000c37c       $unwind$??$?RV<lambda_d80eeec6fff315bfe5c115232f3240e3>@@AEAV<lambda_6e4b09c48022b2350581041d5f6b0c4c>@@V<lambda_2358e3775559c9db80273638284d5e45>@@@?$__crt_seh_guarded_call@X@@QEAAX$$QEAV<lambda_d80eeec6fff315bfe5c115232f3240e3>@@AEAV<lambda_6e4b09c48022b2350581041d5f6b0c4c>@@$$QEAV<lambda_2358e3775559c9db80273638284d5e45>@@@Z 000000018002f37c     libucrt:exit.obj
 0002:0000c3a0       $unwind$??$free_environment@D@@YAXQEAPEAD@Z 000000018002f3a0     libucrt:environment_initialization.obj
 0002:0000c3a0       $unwind$??$free_environment@_W@@YAXQEAPEA_W@Z 000000018002f3a0     libucrt:environment_initialization.obj
 0002:0000c3ac       $unwind$??$create_environment@D@@YAQEAPEADQEAD@Z 000000018002f3ac     libucrt:environment_initialization.obj
 0002:0000c3c4       $unwind$_register_onexit_function 000000018002f3c4     libucrt:onexit.obj
 0002:0000c3cc       $unwind$_execute_onexit_table 000000018002f3cc     libucrt:onexit.obj
 0002:0000c3d4       $unwind$??R<lambda_22ebabd17bc4fa466a2aca6d8deb888d>@@QEBAHXZ 000000018002f3d4     libucrt:onexit.obj
 0002:0000c3ec       $unwind$??$?RV<lambda_638799b9deba96c50f710eeac98168cd>@@AEAV<lambda_22ebabd17bc4fa466a2aca6d8deb888d>@@V<lambda_a6f7d7db0129f75315ebf26d50c089f1>@@@?$__crt_seh_guarded_call@H@@QEAAH$$QEAV<lambda_638799b9deba96c50f710eeac98168cd>@@AEAV<lambda_22ebabd17bc4fa466a2aca6d8deb888d>@@$$QEAV<lambda_a6f7d7db0129f75315ebf26d50c089f1>@@@Z 000000018002f3ec     libucrt:onexit.obj
 0002:0000c410       $unwind$??$?RV<lambda_7777bce6b2f8c936911f934f8298dc43>@@AEAV<lambda_f03950bc5685219e0bcd2087efbe011e>@@V<lambda_3883c3dff614d5e0c5f61bb1ac94921c>@@@?$__crt_seh_guarded_call@H@@QEAAH$$QEAV<lambda_7777bce6b2f8c936911f934f8298dc43>@@AEAV<lambda_f03950bc5685219e0bcd2087efbe011e>@@$$QEAV<lambda_3883c3dff614d5e0c5f61bb1ac94921c>@@@Z 000000018002f410     libucrt:onexit.obj
 0002:0000c434       $unwind$_query_new_handler 000000018002f434     libucrt:new_handler.obj
 0002:0000c454       $unwind$terminate          000000018002f454     libucrt:terminate.obj
 0002:0000c474       $unwind$??$parse_integer@KV?$c_string_character_source@_W@__crt_strtox@@@__crt_strtox@@YAKQEAU__crt_locale_pointers@@V?$c_string_character_source@_W@0@H_N@Z 000000018002f474     libucrt:atox.obj
 0002:0000c490       $xdatasym                  000000018002f490     libucrt:strncmp.obj
 0002:0000c494       $unwind$?construct_ptd_array@@YAXQEAU__acrt_ptd@@@Z 000000018002f494     libucrt:per_thread_data.obj
 0002:0000c49c       $unwind$?destroy_ptd_array@@YAXQEAU__acrt_ptd@@@Z 000000018002f49c     libucrt:per_thread_data.obj
 0002:0000c4a4       $unwind$??$?RV<lambda_0ae27a3a962d80f24befdcbee591983d>@@AEAV<lambda_8d0ee55de4b1038c4002e0adecdf1839>@@V<lambda_dc504788e8f1664fe9b84e20bfb512f2>@@@?$__crt_seh_guarded_call@X@@QEAAX$$QEAV<lambda_0ae27a3a962d80f24befdcbee591983d>@@AEAV<lambda_8d0ee55de4b1038c4002e0adecdf1839>@@$$QEAV<lambda_dc504788e8f1664fe9b84e20bfb512f2>@@@Z 000000018002f4a4     libucrt:per_thread_data.obj
 0002:0000c4c8       $unwind$??$?RV<lambda_aa87e3671a710a21b5dc78c0bdf72e11>@@AEAV<lambda_92619d2358a28f41a33ba319515a20b9>@@V<lambda_6992ecaafeb10aed2b74cb1fae11a551>@@@?$__crt_seh_guarded_call@X@@QEAAX$$QEAV<lambda_aa87e3671a710a21b5dc78c0bdf72e11>@@AEAV<lambda_92619d2358a28f41a33ba319515a20b9>@@$$QEAV<lambda_6992ecaafeb10aed2b74cb1fae11a551>@@@Z 000000018002f4c8     libucrt:per_thread_data.obj
 0002:0000c4ec       $unwind$??$?RV<lambda_f2e299630e499de9f9a165e60fcd3db5>@@AEAV<lambda_2ae9d31cdba2644fcbeaf08da7c24588>@@V<lambda_40d01ff24d0e7b3814fdbdcee8eab3c7>@@@?$__crt_seh_guarded_call@X@@QEAAX$$QEAV<lambda_f2e299630e499de9f9a165e60fcd3db5>@@AEAV<lambda_2ae9d31cdba2644fcbeaf08da7c24588>@@$$QEAV<lambda_40d01ff24d0e7b3814fdbdcee8eab3c7>@@@Z 000000018002f4ec     libucrt:per_thread_data.obj
 0002:0000c510       $unwind$??$?RV<lambda_2d41944a1d46af3157314b8a01080d33>@@AEAV<lambda_8f455de75cd7d7f24b4096f044d8b9e6>@@V<lambda_aa500f224e6afead328df44964fe2772>@@@?$__crt_seh_guarded_call@X@@QEAAX$$QEAV<lambda_2d41944a1d46af3157314b8a01080d33>@@AEAV<lambda_8f455de75cd7d7f24b4096f044d8b9e6>@@$$QEAV<lambda_aa500f224e6afead328df44964fe2772>@@@Z 000000018002f510     libucrt:per_thread_data.obj
 0002:0000c534       $unwind$__acrt_initialize_winapi_thunks 000000018002f534     libucrt:winapi_thunks.obj
 0002:0000c53c       $unwind$__acrt_fp_format   000000018002f53c     libucrt:cvt.obj
 0002:0000c554       $unwind$?fp_format_e_internal@@YAHQEAD_KH_NIQEAU_strflt@@2QEAU__crt_locale_pointers@@@Z 000000018002f554     libucrt:cvt.obj
 0002:0000c56c       $unwind$?fp_format_a@@YAHQEBNPEAD_KQEAD2H_NIQEAU__crt_locale_pointers@@W4__acrt_rounding_mode@@@Z 000000018002f56c     libucrt:cvt.obj
 0002:0000c588       $unwind$?fp_format_g@@YAHQEBNQEAD_K12H_NIQEAU__crt_locale_pointers@@@Z 000000018002f588     libucrt:cvt.obj
 0002:0000c59c       $unwind$__acrt_uninitialize_locale 000000018002f59c     libucrt:wsetlocale.obj
 0002:0000c59c       $unwind$__acrt_get_sigabrt_handler 000000018002f59c     libucrt:signal.obj
 0002:0000c5a4       $unwind$??$?RV<lambda_410d79af7f07d98d83a3f525b3859a53>@@AEAV<lambda_3e16ef9562a7dcce91392c22ab16ea36>@@V<lambda_38119f0e861e05405d8a144b9b982f0a>@@@?$__crt_seh_guarded_call@X@@QEAAX$$QEAV<lambda_410d79af7f07d98d83a3f525b3859a53>@@AEAV<lambda_3e16ef9562a7dcce91392c22ab16ea36>@@$$QEAV<lambda_38119f0e861e05405d8a144b9b982f0a>@@@Z 000000018002f5a4     libucrt:wsetlocale.obj
 0002:0000c5cc       $unwind$__acrt_initialize_lowio 000000018002f5cc     libucrt:ioinit.obj
 0002:0000c5ec       $unwind$??$common_expand_argv_wildcards@D@@YAHQEAPEADQEAPEAPEAD@Z 000000018002f5ec     libucrt:argv_wildcards.obj
 0002:0000c604       $unwind$??$copy_and_add_argument_to_buffer@D@@YAHQEBD0_KAEAV?$argument_list@D@?A0x5f5c8891@@@Z 000000018002f604     libucrt:argv_wildcards.obj
 0002:0000c620       $unwind$??$expand_argument_wildcards@D@@YAHQEAD0AEAV?$argument_list@D@?A0x5f5c8891@@@Z 000000018002f620     libucrt:argv_wildcards.obj
 0002:0000c644       $unwind$__acrt_GetModuleFileNameA 000000018002f644     libucrt:getmodulefilenamea.obj
 0002:0000c660       $unwind$_setmbcp_nolock    000000018002f660     libucrt:mbctype.obj
 0002:0000c680       $unwind$?update_thread_multibyte_data_internal@@YAPEAU__crt_multibyte_data@@QEAU__acrt_ptd@@QEAPEAU1@@Z 000000018002f680     libucrt:mbctype.obj
 0002:0000c6a8       $unwind$?setmbcp_internal@@YAHH_NQEAU__acrt_ptd@@QEAPEAU__crt_multibyte_data@@@Z 000000018002f6a8     libucrt:mbctype.obj
 0002:0000c6b8       $unwind$?setSBUpLow@@YAXPEAU__crt_multibyte_data@@@Z 000000018002f6b8     libucrt:mbctype.obj
 0002:0000c6d4       $unwind$??$?RV<lambda_efdfa57d1f175319df784efa44bb7b81>@@AEAV<lambda_5f0a4c1567f8adc6734073e5d1e1b35c>@@V<lambda_2e8a7d3640ea6ccb4c2413664c2db6fd>@@@?$__crt_seh_guarded_call@X@@QEAAX$$QEAV<lambda_efdfa57d1f175319df784efa44bb7b81>@@AEAV<lambda_5f0a4c1567f8adc6734073e5d1e1b35c>@@$$QEAV<lambda_2e8a7d3640ea6ccb4c2413664c2db6fd>@@@Z 000000018002f6d4     libucrt:mbctype.obj
 0002:0000c6f8       $unwind$__acrt_WideCharToMultiByte 000000018002f6f8     libucrt:widechartomultibyte.obj
 0002:0000c704       $unwind$raise              000000018002f704     libucrt:signal.obj
 0002:0000c740       $unwind$??$?RV<lambda_450d765d439847d4c735a33c368b5fc0>@@AEAV<lambda_44731a7d0e6d81c3e6aa82d741081786>@@V<lambda_601a2a7da3b7a96e9554ac7215c4b07c>@@@?$__crt_seh_guarded_call@P6AXH@Z@@QEAAP6AXH@Z$$QEAV<lambda_450d765d439847d4c735a33c368b5fc0>@@AEAV<lambda_44731a7d0e6d81c3e6aa82d741081786>@@$$QEAV<lambda_601a2a7da3b7a96e9554ac7215c4b07c>@@@Z 000000018002f740     libucrt:signal.obj
 0002:0000c764       $unwind$?common_flush_all@@YAH_N@Z 000000018002f764     libucrt:fflush.obj
 0002:0000c76c       $unwind$??$?RV<lambda_842d9ff0dc9ef11c61343bbaebe7f885>@@AEAV<lambda_c5860995281e5c4ce005b3de8f5874ee>@@V<lambda_d90129c13df834fdcbf8d2b88dafcf2d>@@@?$__crt_seh_guarded_call@X@@QEAAX$$QEAV<lambda_842d9ff0dc9ef11c61343bbaebe7f885>@@AEAV<lambda_c5860995281e5c4ce005b3de8f5874ee>@@$$QEAV<lambda_d90129c13df834fdcbf8d2b88dafcf2d>@@@Z 000000018002f76c     libucrt:fflush.obj
 0002:0000c790       $unwind$??$?RV<lambda_886d6c58226a84441f68b9f2b8217b83>@@AEAV<lambda_ab61a845afdef5b7c387490eaf3616ee>@@V<lambda_f7f22ab5edc0698d5f6905b0d3f44752>@@@?$__crt_seh_guarded_call@X@@QEAAX$$QEAV<lambda_886d6c58226a84441f68b9f2b8217b83>@@AEAV<lambda_ab61a845afdef5b7c387490eaf3616ee>@@$$QEAV<lambda_f7f22ab5edc0698d5f6905b0d3f44752>@@@Z 000000018002f790     libucrt:fflush.obj
 0002:0000c7b8       $unwind$__acrt_update_thread_locale_data 000000018002f7b8     libucrt:locale_refcounting.obj
 0002:0000c7dc       $unwind$?__mbrtowc_utf8@__crt_mbstring@@YA_KPEA_WPEBD_KPEAU_Mbstatet@@@Z 000000018002f7dc     libucrt:mbrtowc.obj
 0002:0000c7e4       $unwind$?__mbsrtowcs_utf8@__crt_mbstring@@YA_KPEA_WPEAPEBD_KPEAU_Mbstatet@@@Z 000000018002f7e4     libucrt:mbrtowc.obj
 0002:0000c7fc       $unwind$__acrt_fltout      000000018002f7fc     libucrt:cfout.obj
 0002:0000c81c       $unwind$?divide@__crt_strtox@@YA_KAEAUbig_integer@1@AEBU21@@Z 000000018002f81c     libucrt:cfout.obj
 0002:0000c834       $chain$0$?divide@__crt_strtox@@YA_KAEAUbig_integer@1@AEBU21@@Z 000000018002f834     libucrt:cfout.obj
 0002:0000c848       $chain$1$?divide@__crt_strtox@@YA_KAEAUbig_integer@1@AEBU21@@Z 000000018002f848     libucrt:cfout.obj
 0002:0000c858       $unwind$_fcloseall         000000018002f858     libucrt:closeall.obj
 0002:0000c87c       $unwind$__acrt_locale_free_monetary 000000018002f87c     libucrt:initmon.obj
 0002:0000c884       $unwind$__acrt_locale_free_time 000000018002f884     libucrt:inittime.obj
 0002:0000c894       $unwind$__acrt_GetStringTypeA 000000018002f894     libucrt:getstringtypea.obj
 0002:0000c8bc       $unwind$__acrt_lowio_destroy_handle_array 000000018002f8bc     libucrt:osfinfo.obj
 0002:0000c8cc       $unwind$__acrt_lowio_ensure_fh_exists 000000018002f8cc     libucrt:osfinfo.obj
 0002:0000c8f8       $unwind$qsort              000000018002f8f8     libucrt:qsort.obj
 0002:0000c910       $chain$4$qsort             000000018002f910     libucrt:qsort.obj
 0002:0000c934       $chain$5$qsort             000000018002f934     libucrt:qsort.obj
 0002:0000c944       $unwind$strpbrk            000000018002f944     libucrt:strpbrk.obj
 0002:0000c954       $unwind$fallbackMethod     000000018002f954     libucrt:strpbrk.obj
 0002:0000c964       $unwind$__acrt_LCMapStringA 000000018002f964     libucrt:lcmapstringa.obj
 0002:0000c974       $unwind$?__acrt_LCMapStringA_stat@@YAHPEAU__crt_locale_pointers@@PEB_WKPEBDHPEADHHH@Z 000000018002f974     libucrt:lcmapstringa.obj
 0002:0000c99c       $unwind$_close             000000018002f99c     libucrt:close.obj
 0002:0000c99c       $unwind$_commit            000000018002f99c     libucrt:commit.obj
 0002:0000c9a4       $unwind$??$?RV<lambda_a37b2b86f63e897a80ea819b0eb08c01>@@AEAV<lambda_38ce7e780aa69e748d6df282ebc68efe>@@V<lambda_99fb1378e971ab6e7edea83e3a7a83a2>@@@?$__crt_seh_guarded_call@H@@QEAAH$$QEAV<lambda_a37b2b86f63e897a80ea819b0eb08c01>@@AEAV<lambda_38ce7e780aa69e748d6df282ebc68efe>@@$$QEAV<lambda_99fb1378e971ab6e7edea83e3a7a83a2>@@@Z 000000018002f9a4     libucrt:commit.obj
 0002:0000c9c8       $unwind$_write             000000018002f9c8     libucrt:write.obj
 0002:0000c9f8       $unwind$_write_nolock      000000018002f9f8     libucrt:write.obj
 0002:0000ca10       $unwind$?write_double_translated_ansi_nolock@@YA?AUwrite_result@?A0x17268360@@HQEBDI@Z 000000018002fa10     libucrt:write.obj
 0002:0000ca34       $unwind$?write_text_ansi_nolock@@YA?AUwrite_result@?A0x17268360@@HQEBDI@Z 000000018002fa34     libucrt:write.obj
 0002:0000ca34       $unwind$?write_text_utf16le_nolock@@YA?AUwrite_result@?A0x17268360@@HQEBDI@Z 000000018002fa34     libucrt:write.obj
 0002:0000ca54       $unwind$?write_text_utf8_nolock@@YA?AUwrite_result@?A0x17268360@@HQEBDI@Z 000000018002fa54     libucrt:write.obj
 0002:0000ca78       $xdatasym                  000000018002fa78     libucrt:log10.obj
 0002:0000ca84       $unwind$__acrt_fenv_set_control 000000018002fa84     libucrt:_fenvutils.obj
 0002:0000ca94       $unwind$fclose             000000018002fa94     libucrt:fclose.obj
 0002:0000cab8       $unwind$_putwch_nolock     000000018002fab8     libucrt:putwch.obj
 0002:0000cac0       $unwind$common_control87   000000018002fac0     libucrt:ieee.obj
 0002:0000caec       $unwind$_call_matherr      000000018002faec     libucrt:libm_error.obj
 0002:0000caf4       $unwind$_handle_error      000000018002faf4     libucrt:libm_error.obj
 0002:0000cb14       $unwind$__acrt_initialize_fma3 000000018002fb14     libucrt:fma3_available.obj
 0002:0000cb1c       $unwind$_log_special_common 000000018002fb1c     libucrt:log_special.obj
 0002:0000cb28       $unwind$??$?RV<lambda_751a882b2c74d4b022dec766aa51a29a>@@AEAV<lambda_628dfdc04ba53c8bfc02c9951375f3f5>@@V<lambda_f6c7be5f7998530c34de24c7437d6b54>@@@?$__crt_seh_guarded_call@H@@QEAAH$$QEAV<lambda_751a882b2c74d4b022dec766aa51a29a>@@AEAV<lambda_628dfdc04ba53c8bfc02c9951375f3f5>@@$$QEAV<lambda_f6c7be5f7998530c34de24c7437d6b54>@@@Z 000000018002fb28     libucrt:close.obj
 0002:0000cb50       $xdatasym                  000000018002fb50     libucrt:fpsr.obj
 0002:0000cb58       $unwind$_raise_exc_ex      000000018002fb58     libucrt:fpexcept.obj
 0002:0000cb6c       $unwind$_ctrlfp            000000018002fb6c     libucrt:fpctrl.obj
 0002:0000cb94       $unwind$_IsNonwritableInCurrentImage 000000018002fb94     LIBCMT:pesect.obj
 0002:0000cd20       .edata                     000000018002fd20     OPOSPOSKeyboard.exp
 0002:0000cd48       rgpv                       000000018002fd48     OPOSPOSKeyboard.exp
 0002:0000cd58       rgszName                   000000018002fd58     OPOSPOSKeyboard.exp
 0002:0000cd68       rgwOrd                     000000018002fd68     OPOSPOSKeyboard.exp
 0002:0000cd70       szName                     000000018002fd70     OPOSPOSKeyboard.exp
 0002:0000cd84       $N00001                    000000018002fd84     OPOSPOSKeyboard.exp
 0002:0000cd94       $N00002                    000000018002fd94     OPOSPOSKeyboard.exp
 0002:0000cda6       $N00003                    000000018002fda6     OPOSPOSKeyboard.exp
 0002:0000cdb8       $N00004                    000000018002fdb8     OPOSPOSKeyboard.exp
 0002:0000d6e2       .idata$6                   00000001800306e2     kernel32:KERNEL32.dll
 0002:0000d8fa       .idata$6                   00000001800308fa     user32:USER32.dll
 0002:0000da2e       .idata$6                   0000000180030a2e     gdi32:GDI32.dll
 0002:0000dad4       .idata$6                   0000000180030ad4     advapi32:ADVAPI32.dll
 0002:0000dbf0       .idata$6                   0000000180030bf0     ole32:ole32.dll
 0002:0000dbfa       .idata$6                   0000000180030bfa     oleaut32:OLEAUT32.dll
 0003:000001c0       ?ObjectMap@@3PAU_ATL_OBJMAP_ENTRY30@ATL@@A 00000001800321c0     POSKeyboard.obj
 0003:000002d0       ?s_SOMethodNames@@3PAPEADA 00000001800322d0     POSKeyboardImpl.obj
 0003:00000360       ?s_RequiredMethodsPerRelease@@3PAHA 0000000180032360     POSKeyboardImpl.obj
 0003:000003c0       ?__vcrt_flsindex@@3KA      00000001800323c0     libvcruntime:per_thread_data.obj
 0003:000003d0       ?errno_no_memory@@3HA      00000001800323d0     libucrt:errno.obj
 0003:000003d4       ?doserrno_no_memory@@3KA   00000001800323d4     libucrt:errno.obj
 0003:000003e0       ?__acrt_flsindex@@3KA      00000001800323e0     libucrt:per_thread_data.obj
 0003:000008a0       _mbctypes                  00000001800328a0     libucrt:mbctype.obj
 0003:000009b0       _mbcasemaps                00000001800329b0     libucrt:mbctype.obj
 0003:00000ab0       ?__rgctypeflag@@3PADA      0000000180032ab0     libucrt:mbctype.obj
 0003:00000ac0       ?__rgcode_page_info@@3PAUcode_page_info@@A 0000000180032ac0     libucrt:mbctype.obj
 0003:00000d60       ?dazSupported@?1??common_control87@@9@9 0000000180032d60     libucrt:ieee.obj
 0003:00000d70       ?__dcrt_lowio_console_output_handle@@3PEAXEA 0000000180032d70     libucrt:initcon.obj
 0003:00000d80       ?dazSupported@?1??_ctrlfp@@9@9 0000000180032d80     libucrt:fpctrl.obj
 0003:00000fd0       ?is_initialized_as_dll@@3_NA 0000000180032fd0     LIBCMT:utility.obj
 0003:00000fd1       ?module_local_atexit_table_initialized@@3_NA 0000000180032fd1     LIBCMT:utility.obj
 0003:00000fd8       ?module_local_atexit_table@@3U_onexit_table_t@@A 0000000180032fd8     LIBCMT:utility.obj
 0003:00000ff0       ?module_local_at_quick_exit_table@@3U_onexit_table_t@@A 0000000180032ff0     LIBCMT:utility.obj
 0003:00001008       ?g_tss_cv@@3U_RTL_CONDITION_VARIABLE@@A 0000000180033008     LIBCMT:thread_safe_statics.obj
 0003:00001010       ?g_tss_event@@3PEAXEA      0000000180033010     LIBCMT:thread_safe_statics.obj
 0003:00001018       ?g_tss_mutex@@3U_RTL_CRITICAL_SECTION@@A 0000000180033018     LIBCMT:thread_safe_statics.obj
 0003:00001040       ?g_sleep_condition_variable_cs@@3P6AHPEAU_RTL_CONDITION_VARIABLE@@PEAU_RTL_CRITICAL_SECTION@@K@ZEA 0000000180033040     LIBCMT:thread_safe_statics.obj
 0003:00001048       ?g_wake_all_condition_variable@@3P6AXPEAU_RTL_CONDITION_VARIABLE@@@ZEA 0000000180033048     LIBCMT:thread_safe_statics.obj
 0003:00001050       GS_ExceptionRecord         0000000180033050     LIBCMT:gs_report.obj
 0003:000010f0       GS_ContextRecord           00000001800330f0     LIBCMT:gs_report.obj
 0003:000015c4       ?__proc_attached@@3HA      00000001800335c4     LIBCMT:dll_dllmain.obj
 0003:00001658       ?AllocateData@@3P6APEAUAtlThunkData_t@@XZEA 0000000180033658     atls:atlthunk.obj
 0003:00001660       ?InitData@@3P6AXPEAUAtlThunkData_t@@PEAX_K@ZEA 0000000180033660     atls:atlthunk.obj
 0003:00001668       ?DataToCode@@3P6AP6A_JPEAUHWND__@@I_K_J@ZPEAUAtlThunkData_t@@@ZEA 0000000180033668     atls:atlthunk.obj
 0003:00001670       ?FreeData@@3P6AXPEAUAtlThunkData_t@@@ZEA 0000000180033670     atls:atlthunk.obj
 0003:00001678       ?Initialized@@3_NA         0000000180033678     atls:atlthunk.obj
 0003:00001690       ?__vcrt_startup_thread_ptd@@3U__vcrt_ptd@@A 0000000180033690     libvcruntime:per_thread_data.obj
 0003:00001710       __vcrt_lock_table          0000000180033710     libvcruntime:locks.obj
 0003:00001738       __vcrt_locks_initialized   0000000180033738     libvcruntime:locks.obj
 0003:00001780       ?heap@@3V_HeapManager@@A   0000000180033780     libvcruntime:undname.obj
 0003:000017a8       ?module_handles@@3PAPEAUHINSTANCE__@@A 00000001800337a8     libvcruntime:winapi_downlevel.obj
 0003:000017c0       ?function_pointers@@3PAPEAXA 00000001800337c0     libvcruntime:winapi_downlevel.obj
 0003:000017e8       ?__acrt_invalid_parameter_handler@@3V?$dual_state_global@P6AXPEB_W00I_K@Z@__crt_state_management@@A 00000001800337e8     libucrt:invalid_parameter.obj
 0003:000017f0       ?c_termination_complete@@3JA 00000001800337f0     libucrt:exit.obj
 0003:000017f8       ?thread_local_exit_callback_func@@3P6AXPEAXK0@ZEA 00000001800337f8     libucrt:exit.obj
 0003:00001810       ?program_name@?1???$common_configure_argv@D@@YAHW4_crt_argv_mode@@@Z@4PADA 0000000180033810     libucrt:argv_parsing.obj
 0003:00001968       ?__acrt_new_handler@@3V?$dual_state_global@P6AH_K@Z@__crt_state_management@@A 0000000180033968     libucrt:new_handler.obj
 0003:00001970       ?module_handles@@3PAPEAUHINSTANCE__@@A 0000000180033970     libucrt:winapi_thunks.obj
 0003:00001a10       ?encoded_function_pointers@@3PAPEAXA 0000000180033a10     libucrt:winapi_thunks.obj
 0003:00001b20       ?internal_state@?1??_mbtowc_l@@9@4U_Mbstatet@@A 0000000180033b20     libucrt:mbtowc.obj
 0003:00001b38       ?enable_percent_n@@3_KA    0000000180033b38     libucrt:printf_count_output.obj
 0003:00001f70       ?__acrt_lock_table@@3PAU_RTL_CRITICAL_SECTION@@A 0000000180033f70     libucrt:locks.obj
 0003:000021a0       ?__acrt_locks_initialized@@3IA 00000001800341a0     libucrt:locks.obj
 0003:000021c0       ?fSystemSet@@3HA           00000001800341c0     libucrt:mbctype.obj
 0003:000021c4       ?initialized@?1??__acrt_initialize_multibyte@@9@4_NA 00000001800341c4     libucrt:mbctype.obj
 0003:00002200       ?ctrlc_action@@3V?$dual_state_global@P6AXH@Z@__crt_state_management@@A 0000000180034200     libucrt:signal.obj
 0003:00002208       ?ctrlbreak_action@@3V?$dual_state_global@P6AXH@Z@__crt_state_management@@A 0000000180034208     libucrt:signal.obj
 0003:00002210       ?abort_action@@3V?$dual_state_global@P6AXH@Z@__crt_state_management@@A 0000000180034210     libucrt:signal.obj
 0003:00002218       ?term_action@@3V?$dual_state_global@P6AXH@Z@__crt_state_management@@A 0000000180034218     libucrt:signal.obj
 0003:00002220       ?user_matherr@@3V?$dual_state_global@P6AHPEAU_exception@@@Z@__crt_state_management@@A 0000000180034220     libucrt:matherr.obj
 0003:00002228       ?__acrt_global_new_mode@@3V?$dual_state_global@J@__crt_state_management@@A 0000000180034228     libucrt:new_mode.obj
 0003:00002238       ?internal_pst@?1??__mbrtoc32_utf8@__crt_mbstring@@YA_KPEA_UPEBD_KPEAU_Mbstatet@@@Z@4U3@A 0000000180034238     libucrt:mbrtoc32.obj
 0003:00002240       ?__acrt_app_type@@3W4_crt_app_type@@A 0000000180034240     libucrt:report_runtime_error.obj
 0004:00000000       $pdata$?cw_memcpy@@YAHPEA_WPEBDH@Z 0000000180035000     CWString.obj
 0004:0000000c       $pdata$?cw_strcpy@@YAHPEA_WPEBD@Z 000000018003500c     CWString.obj
 0004:00000018       $pdata$?cw_dup@@YAXPEBDAEAHAEAPEA_W1@Z 0000000180035018     CWString.obj
 0004:00000024       $pdata$?DupWide@_CW@@AEAAXXZ 0000000180035024     CWString.obj
 0004:00000030       $pdata$?AtlWinModuleTerm@ATL@@YAJPEAU_ATL_WIN_MODULE70@1@PEAUHINSTANCE__@@@Z 0000000180035030     OposVariant.obj
 0004:0000003c       $pdata$??0CAtlComModule@ATL@@QEAA@XZ 000000018003503c     OposVariant.obj
 0004:00000048       $pdata$?Term@CAtlComModule@ATL@@QEAAXXZ 0000000180035048     OposVariant.obj
 0004:00000054       $pdata$??__E_AtlComModule@ATL@@YAXXZ 0000000180035054     OposVariant.obj
 0004:00000060       $pdata$??0CAtlWinModule@ATL@@QEAA@XZ 0000000180035060     OposVariant.obj
 0004:0000006c       $pdata$??__E_AtlWinModule@ATL@@YAXXZ 000000018003506c     OposVariant.obj
 0004:00000078       $pdata$??__F_AtlWinModule@ATL@@YAXXZ 0000000180035078     OposVariant.obj
 0004:00000084       $pdata$??_Estringdispid@CComTypeInfoHolder@ATL@@QEAAPEAXI@Z 0000000180035084     OposVariant.obj
 0004:00000090       $pdata$?SetVARIANT_BOOL@OposVariant@@QEAAXF@Z 0000000180035090     OposVariant.obj
 0004:0000009c       $pdata$?GetLONG@OposVariant@@QEAAJXZ 000000018003509c     OposVariant.obj
 0004:000000a8       $pdata$?ChangeLONG@OposVariant@@QEAAXPEAJAEAJ@Z 00000001800350a8     OposVariant.obj
 0004:000000b4       $pdata$?SetLONG@OposVariant@@QEAAXJ@Z 00000001800350b4     OposVariant.obj
 0004:000000c0       $pdata$?SetLONG_Ptr@OposVariant@@QEAAXPEAJAEAJ@Z 00000001800350c0     OposVariant.obj
 0004:000000cc       $pdata$?ChangeBSTR@OposVariant@@QEAAXPEAPEA_WAEAJ@Z 00000001800350cc     OposVariant.obj
 0004:000000d8       $pdata$?SetBSTR@OposVariant@@QEAAXPEA_WAEAJ@Z 00000001800350d8     OposVariant.obj
 0004:000000e4       $pdata$?SetBSTR_Copy@OposVariant@@QEAAXPEA_WAEAJ@Z 00000001800350e4     OposVariant.obj
 0004:000000f0       $pdata$?SetBSTR_InOutPtr@OposVariant@@QEAA_NPEAPEA_WAEAJ@Z 00000001800350f0     OposVariant.obj
 0004:000000fc       $pdata$?SetString@OposVariant@@QEAAXPEB_WAEAJ@Z 00000001800350fc     OposVariant.obj
 0004:00000108       $pdata$?SetDispatch_Ptr@OposVariant@@QEAAXPEAUIDispatch@@AEAJ@Z 0000000180035108     OposVariant.obj
 0004:00000114       $pdata$??0OposDispParms@@QEAA@PEAVOposVariant@@H@Z 0000000180035114     OposVariant.obj
 0004:00000120       $pdata$??1OposDispParms@@QEAA@XZ 0000000180035120     OposVariant.obj
 0004:0000012c       $pdata$?AtlThrowImpl@ATL@@YAXJ@Z 000000018003512c     POSKeyboard.obj
 0004:00000138       $pdata$swprintf_s          0000000180035138     POSKeyboard.obj
 0004:00000144       $pdata$?_AtlVerifyStackAvailable@_ATL_SAFE_ALLOCA_IMPL@ATL@@YA_N_K@Z 0000000180035144     POSKeyboard.obj
 0004:00000150       $pdata$?filt$0@?0??_AtlVerifyStackAvailable@_ATL_SAFE_ALLOCA_IMPL@ATL@@YA_N_K@Z@4HA 0000000180035150     POSKeyboard.obj
 0004:0000015c       $pdata$?ocscpy_s@@YA_NPEA_W_KPEB_W@Z 000000018003515c     POSKeyboard.obj
 0004:00000168       $pdata$?AtlHresultFromLastError@ATL@@YAJXZ 0000000180035168     POSKeyboard.obj
 0004:00000174       $pdata$?AtlInternalOleLoadFromStream@ATL@@YAJPEAUIStream@@AEBU_GUID@@PEAPEAXTClassesAllowedInStream@1@K@Z 0000000180035174     POSKeyboard.obj
 0004:00000180       $pdata$?ReadFromStream@CComBSTR@ATL@@QEAAJPEAUIStream@@@Z 0000000180035180     POSKeyboard.obj
 0004:0000018c       $pdata$?WriteToStream@CComVariant@ATL@@QEAAJPEAUIStream@@@Z 000000018003518c     POSKeyboard.obj
 0004:00000198       $pdata$?WriteToStream@CComVariant@ATL@@QEAAJPEAUIStream@@G@Z 0000000180035198     POSKeyboard.obj
 0004:000001a4       $pdata$?ReadFromStream@CComVariant@ATL@@QEAAJPEAUIStream@@GTClassesAllowedInStream@2@K@Z 00000001800351a4     POSKeyboard.obj
 0004:000001b0       $pdata$?GetSizeMax@CComVariant@ATL@@QEBAJPEAT_ULARGE_INTEGER@@@Z 00000001800351b0     POSKeyboard.obj
 0004:000001bc       $pdata$?RegCreateKeyExW@CAtlTransactionManager@ATL@@QEAAJPEAUHKEY__@@PEB_WKPEA_WKKQEAU_SECURITY_ATTRIBUTES@@PEAPEAU3@PEAK@Z 00000001800351bc     POSKeyboard.obj
 0004:000001c8       $pdata$?RegOpenKeyExW@CAtlTransactionManager@ATL@@QEAAJPEAUHKEY__@@PEB_WKKPEAPEAU3@@Z 00000001800351c8     POSKeyboard.obj
 0004:000001d4       $pdata$?RegDeleteKeyW@CAtlTransactionManager@ATL@@QEAAJPEAUHKEY__@@PEB_W@Z 00000001800351d4     POSKeyboard.obj
 0004:000001e0       $pdata$?Add@?$CSimpleArray@GV?$CSimpleArrayEqualHelper@G@ATL@@@ATL@@QEAAHAEBG@Z 00000001800351e0     POSKeyboard.obj
 0004:000001ec       $pdata$?AtlInternalQueryInterface@ATL@@YAJPEAXPEBU_ATL_INTMAP_ENTRY@1@AEBU_GUID@@PEAPEAX@Z 00000001800351ec     POSKeyboard.obj
 0004:000001f8       $pdata$?AtlComModuleGetClassObject@ATL@@YAJPEAU_ATL_COM_MODULE70@1@AEBU_GUID@@1PEAPEAX@Z 00000001800351f8     POSKeyboard.obj
 0004:00000204       $pdata$?AtlRegisterClassCategoriesHelper@ATL@@YAJAEBU_GUID@@PEBU_ATL_CATMAP_ENTRY@1@H@Z 0000000180035204     POSKeyboard.obj
 0004:00000210       $pdata$?AtlLoadTypeLib@ATL@@YAJPEAUHINSTANCE__@@PEB_WPEAPEA_WPEAPEAUITypeLib@@@Z 0000000180035210     POSKeyboard.obj
 0004:0000021c       $pdata$?AtlRegisterTypeLib@ATL@@YAJPEAUHINSTANCE__@@PEB_W@Z 000000018003521c     POSKeyboard.obj
 0004:00000228       $pdata$?AtlUnRegisterTypeLib@ATL@@YAJPEAUHINSTANCE__@@PEB_W@Z 0000000180035228     POSKeyboard.obj
 0004:00000234       $pdata$?AtlComModuleRegisterServer@ATL@@YAJPEAU_ATL_COM_MODULE70@1@HPEBU_GUID@@@Z 0000000180035234     POSKeyboard.obj
 0004:00000240       $pdata$?AtlComModuleUnregisterServer@ATL@@YAJPEAU_ATL_COM_MODULE70@1@HPEBU_GUID@@@Z 0000000180035240     POSKeyboard.obj
 0004:0000024c       $pdata$?AtlWinModuleExtractCreateWndData@ATL@@YAPEAXPEAU_ATL_WIN_MODULE70@1@@Z 000000018003524c     POSKeyboard.obj
 0004:00000258       $pdata$?DeleteSubKey@CRegKey@ATL@@QEAAJPEB_W@Z 0000000180035258     POSKeyboard.obj
 0004:00000264       $pdata$?RecurseDeleteKey@CRegKey@ATL@@QEAAJPEB_W@Z 0000000180035264     POSKeyboard.obj
 0004:00000270       $pdata$??0CAtlModule@ATL@@QEAA@XZ 0000000180035270     POSKeyboard.obj
 0004:0000027c       $pdata$?Term@CAtlModule@ATL@@QEAAXXZ 000000018003527c     POSKeyboard.obj
 0004:00000288       $pdata$?AddTermFunc@CAtlModule@ATL@@QEAAJP6AX_K@Z0@Z 0000000180035288     POSKeyboard.obj
 0004:00000294       $pdata$?GetGITPtr@CAtlModule@ATL@@UEAAJPEAPEAUIGlobalInterfaceTable@@@Z 0000000180035294     POSKeyboard.obj
 0004:000002a0       $pdata$?UpdateRegistryFromResource@CAtlModule@ATL@@QEAAJPEB_WHPEAU_ATL_REGMAP_ENTRY@2@@Z 00000001800352a0     POSKeyboard.obj
 0004:000002ac       $pdata$?UpdateRegistryFromResource@CAtlModule@ATL@@QEAAJIHPEAU_ATL_REGMAP_ENTRY@2@@Z 00000001800352ac     POSKeyboard.obj
 0004:000002b8       $pdata$?Term@CComModule@ATL@@QEAAXXZ 00000001800352b8     POSKeyboard.obj
 0004:000002c4       $pdata$?GetClassObject@CComModule@ATL@@QEAAJAEBU_GUID@@0PEAPEAX@Z 00000001800352c4     POSKeyboard.obj
 0004:000002d0       $pdata$?RegisterServer@CComModule@ATL@@QEAAJHPEBU_GUID@@@Z 00000001800352d0     POSKeyboard.obj
 0004:000002dc       $pdata$?UnregisterServer@CComModule@ATL@@QEAAJHPEBU_GUID@@@Z 00000001800352dc     POSKeyboard.obj
 0004:000002e8       $pdata$??_GCComModule@ATL@@UEAAPEAXI@Z 00000001800352e8     POSKeyboard.obj
 0004:000002f4       $pdata$?Add@?$CSimpleMap@PEA_WPEA_WVCExpansionVectorEqualHelper@ATL@@@ATL@@QEAAHAEBQEA_W0@Z 00000001800352f4     POSKeyboard.obj
 0004:00000300       $pdata$?Lookup@?$CSimpleMap@PEA_WPEA_WVCExpansionVectorEqualHelper@ATL@@@ATL@@QEBAPEA_WAEBQEA_W@Z 0000000180035300     POSKeyboard.obj
 0004:0000030c       $pdata$?Add@CExpansionVector@ATL@@QEAAHPEB_W0@Z 000000018003530c     POSKeyboard.obj
 0004:00000318       $pdata$?ClearReplacements@CExpansionVector@ATL@@QEAAJXZ 0000000180035318     POSKeyboard.obj
 0004:00000324       $pdata$?PreProcessBuffer@CRegParser@ATL@@QEAAJPEA_WPEAPEA_W@Z 0000000180035324     POSKeyboard.obj
 0004:00000330       $pdata$?RegisterBuffer@CRegParser@ATL@@QEAAJPEA_WH@Z 0000000180035330     POSKeyboard.obj
 0004:0000033c       $pdata$?NextToken@CRegParser@ATL@@IEAAJPEA_W@Z 000000018003533c     POSKeyboard.obj
 0004:00000348       $pdata$?AddValue@CRegParser@ATL@@IEAAJAEAVCRegKey@2@PEB_WPEA_W@Z 0000000180035348     POSKeyboard.obj
 0004:00000354       $pdata$?RegisterSubkeys@CRegParser@ATL@@IEAAJPEA_WPEAUHKEY__@@HH@Z 0000000180035354     POSKeyboard.obj
 0004:00000360       $pdata$?SkipAssignment@CRegParser@ATL@@IEAAJPEA_W@Z 0000000180035360     POSKeyboard.obj
 0004:0000036c       $pdata$?HKeyFromString@CRegParser@ATL@@KAPEAUHKEY__@@PEA_W@Z 000000018003536c     POSKeyboard.obj
 0004:00000378       $pdata$?VTFromRegType@CRegParser@ATL@@KAHPEB_WAEAG@Z 0000000180035378     POSKeyboard.obj
 0004:00000384       $pdata$?Append@CParseBuffer@CRegParser@ATL@@QEAAHPEB_WH@Z 0000000180035384     POSKeyboard.obj
 0004:00000390       $pdata$?AddReplacement@CRegObject@ATL@@UEAAJPEB_W0@Z 0000000180035390     POSKeyboard.obj
 0004:0000039c       $pdata$?RegisterFromResource@CRegObject@ATL@@IEAAJPEB_W00H@Z 000000018003539c     POSKeyboard.obj
 0004:000003a8       $pdata$??_GCRegObject@ATL@@UEAAPEAXI@Z 00000001800353a8     POSKeyboard.obj
 0004:000003b4       $pdata$?AllocateHeap@?$CTempBuffer@E$0BAA@VCCRTAllocator@ATL@@@ATL@@AEAAX_K@Z 00000001800353b4     POSKeyboard.obj
 0004:000003b4       $pdata$?AllocateHeap@?$CTempBuffer@_W$0BAA@VCCRTAllocator@ATL@@@ATL@@AEAAX_K@Z 00000001800353b4     POSKeyboard.obj
 0004:000003b4       $pdata$?AllocateHeap@?$CTempBuffer@_W$0EAA@VCCRTAllocator@ATL@@@ATL@@AEAAX_K@Z 00000001800353b4     POSKeyboard.obj
 0004:000003c0       $pdata$?CreateInstance@CComClassFactory@ATL@@UEAAJPEAUIUnknown@@AEBU_GUID@@PEAPEAX@Z 00000001800353c0     POSKeyboard.obj
 0004:000003cc       $pdata$?LockServer@CComClassFactory@ATL@@UEAAJH@Z 00000001800353cc     POSKeyboard.obj
 0004:000003d8       $pdata$??_GCComClassFactory@ATL@@UEAAPEAXI@Z 00000001800353d8     POSKeyboard.obj
 0004:000003e4       $pdata$?GetTI@CComTypeInfoHolder@ATL@@QEAAJK@Z 00000001800353e4     POSKeyboard.obj
 0004:000003f0       $pdata$?Cleanup@CComTypeInfoHolder@ATL@@SAX_K@Z 00000001800353f0     POSKeyboard.obj
 0004:000003fc       $pdata$?GetIDsOfNames@CComTypeInfoHolder@ATL@@QEAAJAEBU_GUID@@PEAPEA_WIKPEAJ@Z 00000001800353fc     POSKeyboard.obj
 0004:00000408       $pdata$?LoadNameCache@CComTypeInfoHolder@ATL@@QEAAJPEAUITypeInfo@@@Z 0000000180035408     POSKeyboard.obj
 0004:00000414       $pdata$?Add@CComDynamicUnkArray@ATL@@QEAAKPEAUIUnknown@@@Z 0000000180035414     POSKeyboard.obj
 0004:00000420       $pdata$?AtlHiMetricToPixel@ATL@@YAXPEBUtagSIZE@@PEAU2@@Z 0000000180035420     POSKeyboard.obj
 0004:0000042c       $pdata$?DefaultReflectionHandler@?$CWindowImplRoot@VCWindow@ATL@@@ATL@@SAHPEAUHWND__@@I_K_JAEA_J@Z 000000018003542c     POSKeyboard.obj
 0004:00000438       $pdata$?StartWindowProc@?$CWindowImplBaseT@VCWindow@ATL@@V?$CWinTraits@$0FGAAAAAA@$0A@@2@@ATL@@SA_JPEAUHWND__@@I_K_J@Z 0000000180035438     POSKeyboard.obj
 0004:00000444       $pdata$?WindowProc@?$CWindowImplBaseT@VCWindow@ATL@@V?$CWinTraits@$0FGAAAAAA@$0A@@2@@ATL@@SA_JPEAUHWND__@@I_K_J@Z 0000000180035444     POSKeyboard.obj
 0004:00000450       $pdata$?atlCreate@?$CWindowImplBaseT@VCWindow@ATL@@V?$CWinTraits@$0FGAAAAAA@$0A@@2@@ATL@@QEAAPEAUHWND__@@PEAU3@V_U_RECT@2@PEB_WKKV_U_MENUorID@2@GPEAX@Z 0000000180035450     POSKeyboard.obj
 0004:0000045c       $pdata$?IsEqualObject@?$CComPtrBase@UIOleClientSite@@@ATL@@QEAA_NPEAUIUnknown@@@Z 000000018003545c     POSKeyboard.obj
 0004:00000468       $pdata$??$AtlModuleRegisterWndClassInfoT@VAtlModuleRegisterWndClassInfoParamW@ATL@@@ATL@@YAGPEAU_ATL_BASE_MODULE70@0@PEAU_ATL_WIN_MODULE70@0@PEAU_ATL_WNDCLASSINFOW@0@PEAP6A_JPEAUHWND__@@I_K_J@ZVAtlModuleRegisterWndClassInfoParamW@0@@Z 0000000180035468     POSKeyboard.obj
 0004:00000474       $pdata$?GetZoomInfo@CComControlBase@ATL@@QEAAXAEAUATL_DRAWINFO@@@Z 0000000180035474     POSKeyboard.obj
 0004:00000480       $pdata$?SendOnDataChange@CComControlBase@ATL@@QEAAJK@Z 0000000180035480     POSKeyboard.obj
 0004:0000048c       $pdata$?OnSetFocus@CComControlBase@ATL@@QEAA_JI_K_JAEAH@Z 000000018003548c     POSKeyboard.obj
 0004:00000498       $pdata$?OnKillFocus@CComControlBase@ATL@@QEAA_JI_K_JAEAH@Z 0000000180035498     POSKeyboard.obj
 0004:000004a4       $pdata$?OnMouseActivate@CComControlBase@ATL@@QEAA_JI_K_JAEAH@Z 00000001800354a4     POSKeyboard.obj
 0004:000004b0       $pdata$?GetAmbientLocaleID@CComControlBase@ATL@@QEAAJAEAK@Z 00000001800354b0     POSKeyboard.obj
 0004:000004bc       $pdata$?GetAmbientUserMode@CComControlBase@ATL@@QEAAJAEAH@Z 00000001800354bc     POSKeyboard.obj
 0004:000004c8       $pdata$?SetControlFocus@CComControlBase@ATL@@QEAAHH@Z 00000001800354c8     POSKeyboard.obj
 0004:000004d4       $pdata$?IQuickActivate_QuickActivate@CComControlBase@ATL@@QEAAJPEAUtagQACONTAINER@@PEAUtagQACONTROL@@@Z 00000001800354d4     POSKeyboard.obj
 0004:000004e0       $pdata$?DoVerbProperties@CComControlBase@ATL@@QEAAJPEBUtagRECT@@PEAUHWND__@@@Z 00000001800354e0     POSKeyboard.obj
 0004:000004ec       $pdata$?InPlaceActivate@CComControlBase@ATL@@QEAAJJPEBUtagRECT@@@Z 00000001800354ec     POSKeyboard.obj
 0004:000004f8       $pdata$?IOleObject_SetClientSite@CComControlBase@ATL@@QEAAJPEAUIOleClientSite@@@Z 00000001800354f8     POSKeyboard.obj
 0004:00000504       $pdata$?IOleObject_Close@CComControlBase@ATL@@QEAAJK@Z 0000000180035504     POSKeyboard.obj
 0004:00000510       $pdata$?IOleObject_SetExtent@CComControlBase@ATL@@QEAAJKPEAUtagSIZE@@@Z 0000000180035510     POSKeyboard.obj
 0004:0000051c       $pdata$?IOleInPlaceObject_InPlaceDeactivate@CComControlBase@ATL@@QEAAJXZ 000000018003551c     POSKeyboard.obj
 0004:00000528       $pdata$?IOleInPlaceObject_UIDeactivate@CComControlBase@ATL@@QEAAJXZ 0000000180035528     POSKeyboard.obj
 0004:00000534       $pdata$?IOleInPlaceObject_SetObjectRects@CComControlBase@ATL@@QEAAJPEBUtagRECT@@0@Z 0000000180035534     POSKeyboard.obj
 0004:00000540       $pdata$?IViewObject_Draw@CComControlBase@ATL@@QEAAJKJPEAXPEAUtagDVTARGETDEVICE@@PEAUHDC__@@2PEBU_RECTL@@3@Z 0000000180035540     POSKeyboard.obj
 0004:0000054c       $pdata$?IDataObject_GetData@CComControlBase@ATL@@QEAAJPEAUtagFORMATETC@@PEAUtagSTGMEDIUM@@@Z 000000018003554c     POSKeyboard.obj
 0004:00000558       $pdata$?FireViewChange@CComControlBase@ATL@@QEAAJXZ 0000000180035558     POSKeyboard.obj
 0004:00000564       $pdata$?OnPaint@CComControlBase@ATL@@QEAA_JI_K_JAEAH@Z 0000000180035564     POSKeyboard.obj
 0004:00000570       $pdata$?OnDrawAdvanced@CComControlBase@ATL@@UEAAJAEAUATL_DRAWINFO@@@Z 0000000180035570     POSKeyboard.obj
 0004:0000057c       $pdata$?GetTypeInfo@?$IDispatchImpl@UIOPOSPOSKeyboard@@$1?IID_IOPOSPOSKeyboard@@3U_GUID@@B$1?LIBID_OposPOSKeyboard_CCO@@3U3@B$00$0A@VCComTypeInfoHolder@ATL@@@ATL@@UEAAJIKPEAPEAUITypeInfo@@@Z 000000018003557c     POSKeyboard.obj
 0004:00000588       $pdata$?Invoke@?$IDispatchImpl@UIOPOSPOSKeyboard@@$1?IID_IOPOSPOSKeyboard@@3U_GUID@@B$1?LIBID_OposPOSKeyboard_CCO@@3U3@B$00$0A@VCComTypeInfoHolder@ATL@@@ATL@@UEAAJJAEBU_GUID@@KGPEAUtagDISPPARAMS@@PEAUtagVARIANT@@PEAUtagEXCEPINFO@@PEAI@Z 0000000180035588     POSKeyboard.obj
 0004:00000594       $pdata$?atlCreate@?$CWindowImpl@VCOPOSPOSKeyboard@@VCWindow@ATL@@V?$CWinTraits@$0FGAAAAAA@$0A@@3@@ATL@@QEAAPEAUHWND__@@PEAU3@V_U_RECT@2@PEB_WKKV_U_MENUorID@2@PEAX@Z 0000000180035594     POSKeyboard.obj
 0004:000005a0       $pdata$?CreateControlWindow@?$CComControl@VCOPOSPOSKeyboard@@V?$CWindowImpl@VCOPOSPOSKeyboard@@VCWindow@ATL@@V?$CWinTraits@$0FGAAAAAA@$0A@@3@@ATL@@@ATL@@UEAAPEAUHWND__@@PEAU3@AEAUtagRECT@@@Z 00000001800355a0     POSKeyboard.obj
 0004:000005ac       $pdata$?ProcessWindowMessage@?$CComControl@VCOPOSPOSKeyboard@@V?$CWindowImpl@VCOPOSPOSKeyboard@@VCWindow@ATL@@V?$CWinTraits@$0FGAAAAAA@$0A@@3@@ATL@@@ATL@@UEAAHPEAUHWND__@@I_K_JAEA_JK@Z 00000001800355ac     POSKeyboard.obj
 0004:000005b8       $pdata$?GetSizeMax@?$IPersistStreamInitImpl@VCOPOSPOSKeyboard@@@ATL@@UEAAJPEAT_ULARGE_INTEGER@@@Z 00000001800355b8     POSKeyboard.obj
 0004:000005c4       $pdata$?IPersistStreamInit_Load@?$IPersistStreamInitImpl@VCOPOSPOSKeyboard@@@ATL@@QEAAJPEAUIStream@@PEBUATL_PROPMAP_ENTRY@2@@Z 00000001800355c4     POSKeyboard.obj
 0004:000005d0       $pdata$?IPersistStreamInit_Save@?$IPersistStreamInitImpl@VCOPOSPOSKeyboard@@@ATL@@QEAAJPEAUIStream@@HPEBUATL_PROPMAP_ENTRY@2@@Z 00000001800355d0     POSKeyboard.obj
 0004:000005dc       $pdata$?GetClientSite@?$IOleObjectImpl@VCOPOSPOSKeyboard@@@ATL@@UEAAJPEAPEAUIOleClientSite@@@Z 00000001800355dc     POSKeyboard.obj
 0004:000005e8       $pdata$?DoVerbPrimary@?$IOleObjectImpl@VCOPOSPOSKeyboard@@@ATL@@QEAAJPEBUtagRECT@@PEAUHWND__@@@Z 00000001800355e8     POSKeyboard.obj
 0004:000005f4       $pdata$?DoVerb@?$IOleObjectImpl@VCOPOSPOSKeyboard@@@ATL@@UEAAJJPEAUtagMSG@@PEAUIOleClientSite@@JPEAUHWND__@@PEBUtagRECT@@@Z 00000001800355f4     POSKeyboard.obj
 0004:00000600       $pdata$?Advise@?$IOleObjectImpl@VCOPOSPOSKeyboard@@@ATL@@UEAAJPEAUIAdviseSink@@PEAK@Z 0000000180035600     POSKeyboard.obj
 0004:0000060c       $pdata$?Unadvise@?$IOleObjectImpl@VCOPOSPOSKeyboard@@@ATL@@UEAAJK@Z 000000018003560c     POSKeyboard.obj
 0004:00000618       $pdata$?EnumAdvise@?$IOleObjectImpl@VCOPOSPOSKeyboard@@@ATL@@UEAAJPEAPEAUIEnumSTATDATA@@@Z 0000000180035618     POSKeyboard.obj
 0004:00000624       $pdata$?TranslateAcceleratorW@?$IOleInPlaceActiveObjectImpl@VCOPOSPOSKeyboard@@@ATL@@UEAAJPEAUtagMSG@@@Z 0000000180035624     POSKeyboard.obj
 0004:00000630       $pdata$?OnDocWindowActivate@?$IOleInPlaceActiveObjectImpl@VCOPOSPOSKeyboard@@@ATL@@UEAAJH@Z 0000000180035630     POSKeyboard.obj
 0004:0000063c       $pdata$?Draw@?$IViewObjectExImpl@VCOPOSPOSKeyboard@@@ATL@@UEAAJKJPEAXPEAUtagDVTARGETDEVICE@@PEAUHDC__@@2PEBU_RECTL@@3P6AH_K@Z4@Z 000000018003563c     POSKeyboard.obj
 0004:00000648       $pdata$?SetAdvise@?$IViewObjectExImpl@VCOPOSPOSKeyboard@@@ATL@@UEAAJKKPEAUIAdviseSink@@@Z 0000000180035648     POSKeyboard.obj
 0004:00000654       $pdata$?GetAdvise@?$IViewObjectExImpl@VCOPOSPOSKeyboard@@@ATL@@UEAAJPEAK0PEAPEAUIAdviseSink@@@Z 0000000180035654     POSKeyboard.obj
 0004:00000660       $pdata$?QueryHitPoint@?$IViewObjectExImpl@VCOPOSPOSKeyboard@@@ATL@@UEAAJKPEBUtagRECT@@UtagPOINT@@JPEAK@Z 0000000180035660     POSKeyboard.obj
 0004:0000066c       $pdata$?QueryHitRect@?$IViewObjectExImpl@VCOPOSPOSKeyboard@@@ATL@@UEAAJKPEBUtagRECT@@0JPEAK@Z 000000018003566c     POSKeyboard.obj
 0004:00000678       $pdata$?OnWindowMessage@?$IOleInPlaceObjectWindowlessImpl@VCOPOSPOSKeyboard@@@ATL@@UEAAJI_K_JPEA_J@Z 0000000180035678     POSKeyboard.obj
 0004:00000684       $pdata$?EnumConnectionPoints@?$IConnectionPointContainerImpl@VCOPOSPOSKeyboard@@@ATL@@UEAAJPEAPEAUIEnumConnectionPoints@@@Z 0000000180035684     POSKeyboard.obj
 0004:00000690       $pdata$?FindConnectionPoint@?$IConnectionPointContainerImpl@VCOPOSPOSKeyboard@@@ATL@@UEAAJAEBU_GUID@@PEAPEAUIConnectionPoint@@@Z 0000000180035690     POSKeyboard.obj
 0004:0000069c       $pdata$?IsDirty@?$IPersistStorageImpl@VCOPOSPOSKeyboard@@@ATL@@UEAAJXZ 000000018003569c     POSKeyboard.obj
 0004:000006a8       $pdata$?InitNew@?$IPersistStorageImpl@VCOPOSPOSKeyboard@@@ATL@@UEAAJPEAUIStorage@@@Z 00000001800356a8     POSKeyboard.obj
 0004:000006b4       $pdata$?Load@?$IPersistStorageImpl@VCOPOSPOSKeyboard@@@ATL@@UEAAJPEAUIStorage@@@Z 00000001800356b4     POSKeyboard.obj
 0004:000006c0       $pdata$?Save@?$IPersistStorageImpl@VCOPOSPOSKeyboard@@@ATL@@UEAAJPEAUIStorage@@H@Z 00000001800356c0     POSKeyboard.obj
 0004:000006cc       $pdata$?IPSI_GetIPersistStreamInit@?$IPersistStorageImpl@VCOPOSPOSKeyboard@@@ATL@@AEAAPEAUIPersistStreamInit@@XZ 00000001800356cc     POSKeyboard.obj
 0004:000006d8       $pdata$?GetPagesHelper@?$ISpecifyPropertyPagesImpl@VCOPOSPOSKeyboard@@@ATL@@IEAAJPEAUtagCAUUID@@PEBUATL_PROPMAP_ENTRY@2@@Z 00000001800356d8     POSKeyboard.obj
 0004:000006e4       $pdata$?DAdvise@?$IDataObjectImpl@VCOPOSPOSKeyboard@@@ATL@@UEAAJPEAUtagFORMATETC@@KPEAUIAdviseSink@@PEAK@Z 00000001800356e4     POSKeyboard.obj
 0004:000006f0       $pdata$?GetClassInfoW@?$IProvideClassInfo2Impl@$1?CLSID_OPOSPOSKeyboard@@3U_GUID@@B$1?DIID__IOPOSPOSKeyboardEvents@@3U2@B$1?LIBID_OposPOSKeyboard_CCO@@3U2@B$00$0A@VCComTypeInfoHolder@ATL@@@ATL@@UEAAJPEAPEAUITypeInfo@@@Z 00000001800356f0     POSKeyboard.obj
 0004:000006fc       $pdata$?GetInterfaceSafetyOptions@?$IObjectSafetyImpl@VCOPOSPOSKeyboard@@$02@ATL@@UEAAJAEBU_GUID@@PEAK1@Z 00000001800356fc     POSKeyboard.obj
 0004:00000708       $pdata$?SetInterfaceSafetyOptions@?$IObjectSafetyImpl@VCOPOSPOSKeyboard@@$02@ATL@@UEAAJAEBU_GUID@@KK@Z 0000000180035708     POSKeyboard.obj
 0004:00000714       $pdata$?_LocCPQueryInterface@?$IConnectionPointImpl@VCOPOSPOSKeyboard@@$1?DIID__IOPOSPOSKeyboardEvents@@3U_GUID@@BVCComDynamicUnkArray@ATL@@@ATL@@UEAAJAEBU_GUID@@PEAPEAX@Z 0000000180035714     POSKeyboard.obj
 0004:00000714       $pdata$?_LocCPQueryInterface@?$IConnectionPointImpl@VCOPOSPOSKeyboard@@$1?IID_IPropertyNotifySink@@3U_GUID@@BVCComDynamicUnkArray@ATL@@@ATL@@UEAAJAEBU_GUID@@PEAPEAX@Z 0000000180035714     POSKeyboard.obj
 0004:00000720       $pdata$?Advise@?$IConnectionPointImpl@VCOPOSPOSKeyboard@@$1?DIID__IOPOSPOSKeyboardEvents@@3U_GUID@@BVCComDynamicUnkArray@ATL@@@ATL@@UEAAJPEAUIUnknown@@PEAK@Z 0000000180035720     POSKeyboard.obj
 0004:00000720       $pdata$?Advise@?$IConnectionPointImpl@VCOPOSPOSKeyboard@@$1?IID_IPropertyNotifySink@@3U_GUID@@BVCComDynamicUnkArray@ATL@@@ATL@@UEAAJPEAUIUnknown@@PEAK@Z 0000000180035720     POSKeyboard.obj
 0004:0000072c       $pdata$?Unadvise@?$IConnectionPointImpl@VCOPOSPOSKeyboard@@$1?DIID__IOPOSPOSKeyboardEvents@@3U_GUID@@BVCComDynamicUnkArray@ATL@@@ATL@@UEAAJK@Z 000000018003572c     POSKeyboard.obj
 0004:0000072c       $pdata$?Unadvise@?$IConnectionPointImpl@VCOPOSPOSKeyboard@@$1?IID_IPropertyNotifySink@@3U_GUID@@BVCComDynamicUnkArray@ATL@@@ATL@@UEAAJK@Z 000000018003572c     POSKeyboard.obj
 0004:00000738       $pdata$?EnumConnections@?$IConnectionPointImpl@VCOPOSPOSKeyboard@@$1?DIID__IOPOSPOSKeyboardEvents@@3U_GUID@@BVCComDynamicUnkArray@ATL@@@ATL@@UEAAJPEAPEAUIEnumConnections@@@Z 0000000180035738     POSKeyboard.obj
 0004:00000738       $pdata$?EnumConnections@?$IConnectionPointImpl@VCOPOSPOSKeyboard@@$1?IID_IPropertyNotifySink@@3U_GUID@@BVCComDynamicUnkArray@ATL@@@ATL@@UEAAJPEAPEAUIEnumConnections@@@Z 0000000180035738     POSKeyboard.obj
 0004:00000744       $pdata$?Fire_DataEvent@?$CProxy_IOPOSEvents@VCOPOSPOSKeyboard@@@@QEAAXJ@Z 0000000180035744     POSKeyboard.obj
 0004:00000750       $pdata$?Fire_DirectIOEvent@?$CProxy_IOPOSEvents@VCOPOSPOSKeyboard@@@@QEAAXJPEAJPEAPEA_W@Z 0000000180035750     POSKeyboard.obj
 0004:0000075c       $pdata$?Fire_ErrorEvent@?$CProxy_IOPOSEvents@VCOPOSPOSKeyboard@@@@QEAAXJJJPEAJ@Z 000000018003575c     POSKeyboard.obj
 0004:00000768       $pdata$?Fire_StatusUpdateEvent@?$CProxy_IOPOSEvents@VCOPOSPOSKeyboard@@@@QEAAXJ@Z 0000000180035768     POSKeyboard.obj
 0004:00000774       $pdata$?FireTheEvent@?$CProxy_IOPOSEvents@VCOPOSPOSKeyboard@@@@IEAAXPEAVOposVariant@@IAEAJPEB_WJ@Z 0000000180035774     POSKeyboard.obj
 0004:00000780       $pdata$?GetConnMap@COPOSPOSKeyboard@@SAPEBU_ATL_CONNMAP_ENTRY@ATL@@PEAH@Z 0000000180035780     POSKeyboard.obj
 0004:0000078c       $pdata$?ProcessWindowMessage@COPOSPOSKeyboard@@UEAAHPEAUHWND__@@I_K_JAEA_JK@Z 000000018003578c     POSKeyboard.obj
 0004:00000798       $pdata$?SOData@COPOSPOSKeyboard@@MEAAJJ@Z 0000000180035798     POSKeyboard.obj
 0004:000007a4       $pdata$?SODirectIO@COPOSPOSKeyboard@@MEAAJJPEAJPEAPEA_W@Z 00000001800357a4     POSKeyboard.obj
 0004:000007b0       $pdata$?SOError@COPOSPOSKeyboard@@MEAAJJJJPEAJ@Z 00000001800357b0     POSKeyboard.obj
 0004:000007bc       $pdata$?SOStatusUpdate@COPOSPOSKeyboard@@MEAAJJ@Z 00000001800357bc     POSKeyboard.obj
 0004:000007c8       $pdata$?DoEvent@COPOSPOSKeyboard@@IEAAXI_K_J@Z 00000001800357c8     POSKeyboard.obj
 0004:000007d4       $pdata$??__E_Module@@YAXXZ 00000001800357d4     POSKeyboard.obj
 0004:000007e0       $pdata$?CreateInstance@?$CComCreator@V?$CComObjectCached@VCComClassFactory@ATL@@@ATL@@@ATL@@SAJPEAXAEBU_GUID@@PEAPEAX@Z 00000001800357e0     POSKeyboard.obj
 0004:000007ec       $pdata$DllMain             00000001800357ec     POSKeyboard.obj
 0004:000007f8       $pdata$?CreateInstance@?$CComCreator@V?$CComObject@VCOPOSPOSKeyboard@@@ATL@@@ATL@@SAJPEAXAEBU_GUID@@PEAPEAX@Z 00000001800357f8     POSKeyboard.obj
 0004:00000804       $pdata$?CreateInstance@?$CComCreator@V?$CComAggObject@VCOPOSPOSKeyboard@@@ATL@@@ATL@@SAJPEAXAEBU_GUID@@PEAPEAX@Z 0000000180035804     POSKeyboard.obj
 0004:00000810       $pdata$?AddRef@?$CComObjectCached@VCComClassFactory@ATL@@@ATL@@UEAAKXZ 0000000180035810     POSKeyboard.obj
 0004:0000081c       $pdata$?Release@?$CComObjectCached@VCComClassFactory@ATL@@@ATL@@UEAAKXZ 000000018003581c     POSKeyboard.obj
 0004:00000828       $pdata$??_G?$CComObjectCached@VCComClassFactory@ATL@@@ATL@@UEAAPEAXI@Z 0000000180035828     POSKeyboard.obj
 0004:00000834       $pdata$??1?$CComEnumImpl@UIEnumConnectionPoints@@$1?_GUID_b196b285_bab4_101a_b69c_00aa00341d07@@3U__s_GUID@@BPEAUIConnectionPoint@@V?$_CopyInterface@UIConnectionPoint@@@ATL@@@ATL@@UEAA@XZ 0000000180035834     POSKeyboard.obj
 0004:00000840       $pdata$?Next@?$CComEnumImpl@UIEnumConnectionPoints@@$1?_GUID_b196b285_bab4_101a_b69c_00aa00341d07@@3U__s_GUID@@BPEAUIConnectionPoint@@V?$_CopyInterface@UIConnectionPoint@@@ATL@@@ATL@@UEAAJKPEAPEAUIConnectionPoint@@PEAK@Z 0000000180035840     POSKeyboard.obj
 0004:0000084c       $pdata$?Clone@?$CComEnumImpl@UIEnumConnectionPoints@@$1?_GUID_b196b285_bab4_101a_b69c_00aa00341d07@@3U__s_GUID@@BPEAUIConnectionPoint@@V?$_CopyInterface@UIConnectionPoint@@@ATL@@@ATL@@UEAAJPEAPEAUIEnumConnectionPoints@@@Z 000000018003584c     POSKeyboard.obj
 0004:00000858       $pdata$?Init@?$CComEnumImpl@UIEnumConnectionPoints@@$1?_GUID_b196b285_bab4_101a_b69c_00aa00341d07@@3U__s_GUID@@BPEAUIConnectionPoint@@V?$_CopyInterface@UIConnectionPoint@@@ATL@@@ATL@@QEAAJPEAPEAUIConnectionPoint@@0PEAUIUnknown@@W4CComEnumFlags@2@@Z 0000000180035858     POSKeyboard.obj
 0004:00000864       $pdata$?Release@?$CComObject@V?$CComEnum@UIEnumConnectionPoints@@$1?_GUID_b196b285_bab4_101a_b69c_00aa00341d07@@3U__s_GUID@@BPEAUIConnectionPoint@@V?$_CopyInterface@UIConnectionPoint@@@ATL@@VCComSingleThreadModel@6@@ATL@@@ATL@@UEAAKXZ 0000000180035864     POSKeyboard.obj
 0004:00000864       $pdata$?Release@?$CComObject@V?$CComEnum@UIEnumConnections@@$1?_GUID_b196b287_bab4_101a_b69c_00aa00341d07@@3U__s_GUID@@BUtagCONNECTDATA@@V?$_Copy@UtagCONNECTDATA@@@ATL@@VCComSingleThreadModel@6@@ATL@@@ATL@@UEAAKXZ 0000000180035864     POSKeyboard.obj
 0004:00000870       $pdata$?CreateInstance@?$CComObject@V?$CComEnum@UIEnumConnectionPoints@@$1?_GUID_b196b285_bab4_101a_b69c_00aa00341d07@@3U__s_GUID@@BPEAUIConnectionPoint@@V?$_CopyInterface@UIConnectionPoint@@@ATL@@VCComSingleThreadModel@6@@ATL@@@ATL@@SAJPEAPEAV12@@Z 0000000180035870     POSKeyboard.obj
 0004:0000087c       $pdata$??_G?$CComObject@V?$CComEnum@UIEnumConnectionPoints@@$1?_GUID_b196b285_bab4_101a_b69c_00aa00341d07@@3U__s_GUID@@BPEAUIConnectionPoint@@V?$_CopyInterface@UIConnectionPoint@@@ATL@@VCComSingleThreadModel@6@@ATL@@@ATL@@UEAAPEAXI@Z 000000018003587c     POSKeyboard.obj
 0004:00000888       $pdata$?Release@?$CComAggObject@VCOPOSPOSKeyboard@@@ATL@@UEAAKXZ 0000000180035888     POSKeyboard.obj
 0004:00000894       $pdata$?QueryInterface@?$CComAggObject@VCOPOSPOSKeyboard@@@ATL@@UEAAJAEBU_GUID@@PEAPEAX@Z 0000000180035894     POSKeyboard.obj
 0004:000008a0       $pdata$??0?$CComContainedObject@VCOPOSPOSKeyboard@@@ATL@@QEAA@PEAX@Z 00000001800358a0     POSKeyboard.obj
 0004:000008ac       $pdata$??_G?$CComContainedObject@VCOPOSPOSKeyboard@@@ATL@@UEAAPEAXI@Z 00000001800358ac     POSKeyboard.obj
 0004:000008b8       $pdata$??_G?$CComAggObject@VCOPOSPOSKeyboard@@@ATL@@UEAAPEAXI@Z 00000001800358b8     POSKeyboard.obj
 0004:000008c4       $pdata$??0?$CComObject@VCOPOSPOSKeyboard@@@ATL@@QEAA@PEAX@Z 00000001800358c4     POSKeyboard.obj
 0004:000008d0       $pdata$??1?$CComObject@VCOPOSPOSKeyboard@@@ATL@@UEAA@XZ 00000001800358d0     POSKeyboard.obj
 0004:000008dc       $pdata$?Release@?$CComObject@VCOPOSPOSKeyboard@@@ATL@@UEAAKXZ 00000001800358dc     POSKeyboard.obj
 0004:000008e8       $pdata$??_G?$CComObject@VCOPOSPOSKeyboard@@@ATL@@UEAAPEAXI@Z 00000001800358e8     POSKeyboard.obj
 0004:000008f4       $pdata$??__E?pConnMap@?$IConnectionPointContainerImpl@VCOPOSPOSKeyboard@@@ATL@@0PEBU_ATL_CONNMAP_ENTRY@2@EB@@YAXXZ 00000001800358f4     POSKeyboard.obj
 0004:00000900       $pdata$??1?$CComEnumImpl@UIEnumConnections@@$1?_GUID_b196b287_bab4_101a_b69c_00aa00341d07@@3U__s_GUID@@BUtagCONNECTDATA@@V?$_Copy@UtagCONNECTDATA@@@ATL@@@ATL@@UEAA@XZ 0000000180035900     POSKeyboard.obj
 0004:0000090c       $pdata$?Next@?$CComEnumImpl@UIEnumConnections@@$1?_GUID_b196b287_bab4_101a_b69c_00aa00341d07@@3U__s_GUID@@BUtagCONNECTDATA@@V?$_Copy@UtagCONNECTDATA@@@ATL@@@ATL@@UEAAJKPEAUtagCONNECTDATA@@PEAK@Z 000000018003590c     POSKeyboard.obj
 0004:00000918       $pdata$?Clone@?$CComEnumImpl@UIEnumConnections@@$1?_GUID_b196b287_bab4_101a_b69c_00aa00341d07@@3U__s_GUID@@BUtagCONNECTDATA@@V?$_Copy@UtagCONNECTDATA@@@ATL@@@ATL@@UEAAJPEAPEAUIEnumConnections@@@Z 0000000180035918     POSKeyboard.obj
 0004:00000924       $pdata$?Init@?$CComEnumImpl@UIEnumConnections@@$1?_GUID_b196b287_bab4_101a_b69c_00aa00341d07@@3U__s_GUID@@BUtagCONNECTDATA@@V?$_Copy@UtagCONNECTDATA@@@ATL@@@ATL@@QEAAJPEAUtagCONNECTDATA@@0PEAUIUnknown@@W4CComEnumFlags@2@@Z 0000000180035924     POSKeyboard.obj
 0004:00000930       $pdata$?CreateInstance@?$CComObject@V?$CComEnum@UIEnumConnections@@$1?_GUID_b196b287_bab4_101a_b69c_00aa00341d07@@3U__s_GUID@@BUtagCONNECTDATA@@V?$_Copy@UtagCONNECTDATA@@@ATL@@VCComSingleThreadModel@6@@ATL@@@ATL@@SAJPEAPEAV12@@Z 0000000180035930     POSKeyboard.obj
 0004:0000093c       $pdata$??_G?$CComObject@V?$CComEnum@UIEnumConnections@@$1?_GUID_b196b287_bab4_101a_b69c_00aa00341d07@@3U__s_GUID@@BUtagCONNECTDATA@@V?$_Copy@UtagCONNECTDATA@@@ATL@@VCComSingleThreadModel@6@@ATL@@@ATL@@UEAAPEAXI@Z 000000018003593c     POSKeyboard.obj
 0004:00000948       $pdata$??1CComControlBase@ATL@@UEAA@XZ 0000000180035948     POSKeyboardImpl.obj
 0004:00000954       $pdata$??1?$IConnectionPointImpl@VCOPOSPOSKeyboard@@$1?DIID__IOPOSPOSKeyboardEvents@@3U_GUID@@BVCComDynamicUnkArray@ATL@@@ATL@@QEAA@XZ 0000000180035954     POSKeyboardImpl.obj
 0004:00000954       $pdata$??1?$IConnectionPointImpl@VCOPOSPOSKeyboard@@$1?IID_IPropertyNotifySink@@3U_GUID@@BVCComDynamicUnkArray@ATL@@@ATL@@QEAA@XZ 0000000180035954     POSKeyboardImpl.obj
 0004:00000960       $pdata$?FinalConstruct@COPOSPOSKeyboard@@QEAAJXZ 0000000180035960     POSKeyboardImpl.obj
 0004:0000096c       $pdata$??1COPOSPOSKeyboard@@UEAA@XZ 000000018003596c     POSKeyboardImpl.obj
 0004:00000978       $pdata$?GetOposProp@COPOSPOSKeyboard@@IEAAJJPEAJJ@Z 0000000180035978     POSKeyboardImpl.obj
 0004:00000984       $pdata$?SetOposProp@COPOSPOSKeyboard@@IEAAJJJJ@Z 0000000180035984     POSKeyboardImpl.obj
 0004:00000990       $pdata$?GetOposProp@COPOSPOSKeyboard@@IEAAJJPEAPEA_WJ@Z 0000000180035990     POSKeyboardImpl.obj
 0004:0000099c       $pdata$?DoInvoke@COPOSPOSKeyboard@@IEAAJJPEAVOposVariant@@IHPEAJ_N@Z 000000018003599c     POSKeyboardImpl.obj
 0004:000009a8       $pdata$?SetCOFreezeEvents@COPOSPOSKeyboard@@IEAAXF@Z 00000001800359a8     POSKeyboardImpl.obj
 0004:000009b4       $pdata$?FreezeEvents@COPOSPOSKeyboard@@MEAAJH@Z 00000001800359b4     POSKeyboardImpl.obj
 0004:000009c0       $pdata$?OnDraw@COPOSPOSKeyboard@@MEAAJAEAUATL_DRAWINFO@@@Z 00000001800359c0     POSKeyboardImpl.obj
 0004:000009cc       $pdata$?EventInit@COPOSPOSKeyboard@@IEAAJXZ 00000001800359cc     POSKeyboardImpl.obj
 0004:000009d8       $pdata$?EventUninit@COPOSPOSKeyboard@@IEAAXXZ 00000001800359d8     POSKeyboardImpl.obj
 0004:000009e4       $pdata$?s_EventWindowProc@COPOSPOSKeyboard@@KA_JPEAUHWND__@@I_K_J@Z 00000001800359e4     POSKeyboardImpl.obj
 0004:000009f0       $pdata$?EventWindowProc@COPOSPOSKeyboard@@IEAA_JI_K_J@Z 00000001800359f0     POSKeyboardImpl.obj
 0004:000009fc       $pdata$?SOProcessID@COPOSPOSKeyboard@@UEAAJPEAJ@Z 00000001800359fc     POSKeyboardImpl.obj
 0004:00000a08       $pdata$?get_Claimed@COPOSPOSKeyboard@@UEAAJPEAF@Z 0000000180035a08     POSKeyboardImpl.obj
 0004:00000a14       $pdata$?get_DataEventEnabled@COPOSPOSKeyboard@@UEAAJPEAF@Z 0000000180035a14     POSKeyboardImpl.obj
 0004:00000a20       $pdata$?get_DeviceEnabled@COPOSPOSKeyboard@@UEAAJPEAF@Z 0000000180035a20     POSKeyboardImpl.obj
 0004:00000a2c       $pdata$?get_FreezeEvents@COPOSPOSKeyboard@@UEAAJPEAF@Z 0000000180035a2c     POSKeyboardImpl.obj
 0004:00000a38       $pdata$?put_FreezeEvents@COPOSPOSKeyboard@@UEAAJF@Z 0000000180035a38     POSKeyboardImpl.obj
 0004:00000a44       $pdata$?get_ResultCode@COPOSPOSKeyboard@@UEAAJPEAJ@Z 0000000180035a44     POSKeyboardImpl.obj
 0004:00000a50       $pdata$?get_State@COPOSPOSKeyboard@@UEAAJPEAJ@Z 0000000180035a50     POSKeyboardImpl.obj
 0004:00000a5c       $pdata$?get_ControlObjectDescription@COPOSPOSKeyboard@@UEAAJPEAPEA_W@Z 0000000180035a5c     POSKeyboardImpl.obj
 0004:00000a68       $pdata$?CheckHealth@COPOSPOSKeyboard@@UEAAJJPEAJ@Z 0000000180035a68     POSKeyboardImpl.obj
 0004:00000a74       $pdata$?ClaimDevice@COPOSPOSKeyboard@@UEAAJJPEAJ@Z 0000000180035a74     POSKeyboardImpl.obj
 0004:00000a80       $pdata$?ClearInput@COPOSPOSKeyboard@@UEAAJPEAJ@Z 0000000180035a80     POSKeyboardImpl.obj
 0004:00000a8c       $pdata$?Close@COPOSPOSKeyboard@@UEAAJPEAJ@Z 0000000180035a8c     POSKeyboardImpl.obj
 0004:00000a98       $pdata$?DirectIO@COPOSPOSKeyboard@@UEAAJJPEAJPEAPEA_W0@Z 0000000180035a98     POSKeyboardImpl.obj
 0004:00000aa4       $pdata$?Open@COPOSPOSKeyboard@@UEAAJPEA_WPEAJ@Z 0000000180035aa4     POSKeyboardImpl.obj
 0004:00000ab0       $pdata$?ReleaseDevice@COPOSPOSKeyboard@@UEAAJPEAJ@Z 0000000180035ab0     POSKeyboardImpl.obj
 0004:00000abc       $pdata$?get_AutoDisable@COPOSPOSKeyboard@@UEAAJPEAF@Z 0000000180035abc     POSKeyboardImpl.obj
 0004:00000ac8       $pdata$?get_CapKeyUp@COPOSPOSKeyboard@@UEAAJPEAF@Z 0000000180035ac8     POSKeyboardImpl.obj
 0004:00000ad4       $pdata$?get_CapStatisticsReporting@COPOSPOSKeyboard@@UEAAJPEAF@Z 0000000180035ad4     POSKeyboardImpl.obj
 0004:00000ae0       $pdata$?get_CapUpdateStatistics@COPOSPOSKeyboard@@UEAAJPEAF@Z 0000000180035ae0     POSKeyboardImpl.obj
 0004:00000aec       $pdata$?ResetStatistics@COPOSPOSKeyboard@@UEAAJPEA_WPEAJ@Z 0000000180035aec     POSKeyboardImpl.obj
 0004:00000af8       $pdata$?RetrieveStatistics@COPOSPOSKeyboard@@UEAAJPEAPEA_WPEAJ@Z 0000000180035af8     POSKeyboardImpl.obj
 0004:00000b04       $pdata$?UpdateStatistics@COPOSPOSKeyboard@@UEAAJPEA_WPEAJ@Z 0000000180035b04     POSKeyboardImpl.obj
 0004:00000b10       $pdata$?get_CapCompareFirmwareVersion@COPOSPOSKeyboard@@UEAAJPEAF@Z 0000000180035b10     POSKeyboardImpl.obj
 0004:00000b1c       $pdata$?get_CapUpdateFirmware@COPOSPOSKeyboard@@UEAAJPEAF@Z 0000000180035b1c     POSKeyboardImpl.obj
 0004:00000b28       $pdata$?CompareFirmwareVersion@COPOSPOSKeyboard@@UEAAJPEA_WPEAJ1@Z 0000000180035b28     POSKeyboardImpl.obj
 0004:00000b34       $pdata$?UpdateFirmware@COPOSPOSKeyboard@@UEAAJPEA_WPEAJ@Z 0000000180035b34     POSKeyboardImpl.obj
 0004:00000b40       $pdata$atexit              0000000180035b40     LIBCMT:utility.obj
 0004:00000b4c       $pdata$_onexit             0000000180035b4c     LIBCMT:utility.obj
 0004:00000b58       $pdata$__scrt_is_nonwritable_in_current_image 0000000180035b58     LIBCMT:utility.obj
 0004:00000b64       $pdata$__scrt_is_nonwritable_in_current_image$filt$0 0000000180035b64     LIBCMT:utility.obj
 0004:00000b70       $pdata$__scrt_acquire_startup_lock 0000000180035b70     LIBCMT:utility.obj
 0004:00000b7c       $pdata$__scrt_release_startup_lock 0000000180035b7c     LIBCMT:utility.obj
 0004:00000b88       $pdata$__scrt_initialize_crt 0000000180035b88     LIBCMT:utility.obj
 0004:00000b94       $pdata$__scrt_uninitialize_crt 0000000180035b94     LIBCMT:utility.obj
 0004:00000ba0       $pdata$__scrt_initialize_onexit_tables 0000000180035ba0     LIBCMT:utility.obj
 0004:00000bac       $pdata$__scrt_dllmain_exception_filter 0000000180035bac     LIBCMT:utility.obj
 0004:00000bb8       $pdata$__scrt_dllmain_before_initialize_c 0000000180035bb8     LIBCMT:utility.obj
 0004:00000bc4       $pdata$__scrt_dllmain_after_initialize_c 0000000180035bc4     LIBCMT:utility.obj
 0004:00000bd0       $pdata$__scrt_dllmain_uninitialize_c 0000000180035bd0     LIBCMT:utility.obj
 0004:00000bdc       $pdata$__scrt_dllmain_uninitialize_critical 0000000180035bdc     LIBCMT:utility.obj
 0004:00000be8       $pdata$__scrt_dllmain_crt_thread_attach 0000000180035be8     LIBCMT:utility.obj
 0004:00000bf4       $pdata$__scrt_dllmain_crt_thread_detach 0000000180035bf4     LIBCMT:utility.obj
 0004:00000c00       $pdata$_Init_thread_header 0000000180035c00     LIBCMT:thread_safe_statics.obj
 0004:00000c0c       $pdata$_Init_thread_footer 0000000180035c0c     LIBCMT:thread_safe_statics.obj
 0004:00000c18       $pdata$_Init_thread_wait   0000000180035c18     LIBCMT:thread_safe_statics.obj
 0004:00000c24       $pdata$_Init_thread_notify 0000000180035c24     LIBCMT:thread_safe_statics.obj
 0004:00000c30       $pdata$?__scrt_uninitialize_thread_safe_statics@@YAXXZ 0000000180035c30     LIBCMT:thread_safe_statics.obj
 0004:00000c3c       $pdata$?__scrt_initialize_thread_safe_statics@@YAHXZ 0000000180035c3c     LIBCMT:thread_safe_statics.obj
 0004:00000c48       $pdata$__report_securityfailure 0000000180035c48     LIBCMT:gs_report.obj
 0004:00000c54       $pdata$__report_rangecheckfailure 0000000180035c54     LIBCMT:gs_report.obj
 0004:00000c60       $pdata$__report_gsfailure  0000000180035c60     LIBCMT:gs_report.obj
 0004:00000c6c       $pdata$capture_current_context 0000000180035c6c     LIBCMT:gs_report.obj
 0004:00000c78       $pdata$capture_previous_context 0000000180035c78     LIBCMT:gs_report.obj
 0004:00000c84       $pdata$__raise_securityfailure 0000000180035c84     LIBCMT:gs_report.obj
 0004:00000c90       $pdata$??2@YAPEAX_KAEBUnothrow_t@std@@@Z 0000000180035c90     LIBCMT:new_scalar_nothrow.obj
 0004:00000c9c       $pdata$?catch$0@?0???2@YAPEAX_KAEBUnothrow_t@std@@@Z@4HA 0000000180035c9c     LIBCMT:new_scalar_nothrow.obj
 0004:00000ca8       $pdata$__GSHandlerCheckCommon 0000000180035ca8     LIBCMT:gshandler.obj
 0004:00000cb4       $pdata$__GSHandlerCheck    0000000180035cb4     LIBCMT:gshandler.obj
 0004:00000cc0       $pdata$__GSHandlerCheck_SEH 0000000180035cc0     LIBCMT:gshandlerseh.obj
 0004:00000ce4       $pdata$?dllmain_crt_process_attach@@YAHQEAUHINSTANCE__@@QEAX@Z 0000000180035ce4     LIBCMT:dll_dllmain.obj
 0004:00000cf0       $pdata$?fin$0@?0??dllmain_crt_process_attach@@YAHQEAUHINSTANCE__@@QEAX@Z@4HA 0000000180035cf0     LIBCMT:dll_dllmain.obj
 0004:00000cfc       $pdata$?dllmain_crt_process_detach@@YAH_N@Z 0000000180035cfc     LIBCMT:dll_dllmain.obj
 0004:00000d08       $pdata$?fin$0@?0??dllmain_crt_process_detach@@YAH_N@Z@4HA 0000000180035d08     LIBCMT:dll_dllmain.obj
 0004:00000d14       $pdata$?fin$1@?0??dllmain_crt_process_detach@@YAH_N@Z@4HA 0000000180035d14     LIBCMT:dll_dllmain.obj
 0004:00000d20       $pdata$?dllmain_crt_dispatch@@YAHQEAUHINSTANCE__@@KQEAX@Z 0000000180035d20     LIBCMT:dll_dllmain.obj
 0004:00000d2c       $pdata$?dllmain_dispatch@@YAHQEAUHINSTANCE__@@KQEAX@Z 0000000180035d2c     LIBCMT:dll_dllmain.obj
 0004:00000d38       $pdata$?filt$0@?0??dllmain_dispatch@@YAHQEAUHINSTANCE__@@KQEAX@Z@4HA 0000000180035d38     LIBCMT:dll_dllmain.obj
 0004:00000d44       $pdata$_DllMainCRTStartup  0000000180035d44     LIBCMT:dll_dllmain.obj
 0004:00000d50       $pdata$??2@YAPEAX_K@Z      0000000180035d50     LIBCMT:new_scalar.obj
 0004:00000d5c       $pdata$__isa_available_init 0000000180035d5c     LIBCMT:cpu_disp.obj
 0004:00000d68       $pdata$__scrt_fastfail     0000000180035d68     LIBCMT:utility_desktop.obj
 0004:00000d74       $pdata$__security_init_cookie 0000000180035d74     LIBCMT:gs_support.obj
 0004:00000d80       $pdata$__scrt_initialize_default_local_stdio_options 0000000180035d80     LIBCMT:default_local_stdio_options.obj
 0004:00000d8c       $pdata$_RTC_Initialize     0000000180035d8c     LIBCMT:initsect.obj
 0004:00000d98       $pdata$_RTC_Terminate      0000000180035d98     LIBCMT:initsect.obj
 0004:00000da4       $pdata$??0exception@std@@QEAA@AEBV01@@Z 0000000180035da4     LIBCMT:throw_bad_alloc.obj
 0004:00000db0       $pdata$??_Gbad_alloc@std@@UEAAPEAXI@Z 0000000180035db0     LIBCMT:throw_bad_alloc.obj
 0004:00000db0       $pdata$??_Gbad_array_new_length@std@@UEAAPEAXI@Z 0000000180035db0     LIBCMT:throw_bad_alloc.obj
 0004:00000db0       $pdata$??_Gexception@std@@UEAAPEAXI@Z 0000000180035db0     LIBCMT:throw_bad_alloc.obj
 0004:00000db0       $pdata$??_Gbad_exception@std@@UEAAPEAXI@Z 0000000180035db0     libvcruntime:frame.obj
 0004:00000dbc       $pdata$??0bad_alloc@std@@QEAA@AEBV01@@Z 0000000180035dbc     LIBCMT:throw_bad_alloc.obj
 0004:00000dc8       $pdata$??0bad_array_new_length@std@@QEAA@AEBV01@@Z 0000000180035dc8     LIBCMT:throw_bad_alloc.obj
 0004:00000dd4       $pdata$?__scrt_throw_std_bad_alloc@@YAXXZ 0000000180035dd4     LIBCMT:throw_bad_alloc.obj
 0004:00000de0       $pdata$?__scrt_throw_std_bad_array_new_length@@YAXXZ 0000000180035de0     LIBCMT:throw_bad_alloc.obj
 0004:00000e04       $pdata$??_Gtype_info@@UEAAPEAXI@Z 0000000180035e04     LIBCMT:std_type_info_static.obj
 0004:00000e10       $pdata$??0CAtlBaseModule@ATL@@QEAA@XZ 0000000180035e10     atls:atlbase.obj
 0004:00000e1c       $pdata$??1CAtlBaseModule@ATL@@QEAA@XZ 0000000180035e1c     atls:atlbase.obj
 0004:00000e28       $pdata$??__E_AtlBaseModule@ATL@@YAXXZ 0000000180035e28     atls:atlbase.obj
 0004:00000e34       $pdata$AtlThunk_AllocateData 0000000180035e34     atls:atlthunk.obj
 0004:00000e40       $pdata$AtlThunk_InitData   0000000180035e40     atls:atlthunk.obj
 0004:00000e4c       $pdata$AtlThunk_DataToCode 0000000180035e4c     atls:atlthunk.obj
 0004:00000e58       $pdata$AtlThunk_FreeData   0000000180035e58     atls:atlthunk.obj
 0004:00000e64       $pdata$?__InitializeThunkPool@@YAHXZ 0000000180035e64     atls:atlthunk.obj
 0004:00000e70       $pdata$?__AllocStdCallThunk_cmn@@YAPEAXXZ 0000000180035e70     atls:atlthunk.obj
 0004:00000e7c       $pdata$??$GetProcAddressAll@P6AP6A_JPEAUHWND__@@I_K_J@ZPEAUAtlThunkData_t@@@Z@@YAP6AP6A_JPEAUHWND__@@I_K_J@ZPEAUAtlThunkData_t@@@ZPEAP6AP6A_J0I12@Z3@Z@Z 0000000180035e7c     atls:atlthunk.obj
 0004:00000e7c       $pdata$??$GetProcAddressAll@P6APEAUAtlThunkData_t@@XZ@@YAP6APEAUAtlThunkData_t@@XZPEAP6APEAU0@XZ@Z 0000000180035e7c     atls:atlthunk.obj
 0004:00000e7c       $pdata$??$GetProcAddressAll@P6AXPEAUAtlThunkData_t@@@Z@@YAP6AXPEAUAtlThunkData_t@@@ZPEAP6AX0@Z@Z 0000000180035e7c     atls:atlthunk.obj
 0004:00000e7c       $pdata$??$GetProcAddressAll@P6AXPEAUAtlThunkData_t@@PEAX_K@Z@@YAP6AXPEAUAtlThunkData_t@@PEAX_K@ZPEAP6AX012@Z@Z 0000000180035e7c     atls:atlthunk.obj
 0004:00000e88       $pdata$_purecall           0000000180035e88     libvcruntime:purevirt.obj
 0004:00000e94       $pdata$wcsstr              0000000180035e94     libvcruntime:wcsstr.obj
 0004:00000edc       $pdata$__vcrt_initialize   0000000180035edc     libvcruntime:initialization.obj
 0004:00000ee8       $pdata$__vcrt_uninitialize 0000000180035ee8     libvcruntime:initialization.obj
 0004:00000ef4       $pdata$__vcrt_uninitialize_critical 0000000180035ef4     libvcruntime:initialization.obj
 0004:00000f00       $pdata$__vcrt_thread_attach 0000000180035f00     libvcruntime:initialization.obj
 0004:00000f0c       $pdata$__vcrt_thread_detach 0000000180035f0c     libvcruntime:initialization.obj
 0004:00000f18       $pdata$__C_specific_handler 0000000180035f18     libvcruntime:riscchandler.obj
 0004:00000f24       $pdata$?DecompFuncInfo@FH4@@YA_JPEAEAEAUFuncInfo4@1@_KH_N@Z 0000000180035f24     libvcruntime:risctrnsctrl.obj
 0004:00000f30       $pdata$?FrameUnwindToEmptyState@__FrameHandler4@@SAXPEA_KPEAU_xDISPATCHER_CONTEXT@@PEAUFuncInfo4@FH4@@@Z 0000000180035f30     libvcruntime:risctrnsctrl.obj
 0004:00000f3c       $pdata$?UnwindNestedFrames@__FrameHandler4@@SAXPEA_KPEAUEHExceptionRecord@@PEAU_CONTEXT@@0PEAXPEAUFuncInfo4@FH4@@HHPEAUHandlerType4@5@PEAU_xDISPATCHER_CONTEXT@@E@Z 0000000180035f3c     libvcruntime:risctrnsctrl.obj
 0004:00000f48       $pdata$?GetRangeOfTrysToCheck@__FrameHandler4@@SA?AU?$pair@Viterator@TryBlockMap4@FH4@@V123@@std@@AEAVTryBlockMap4@FH4@@HPEAU_xDISPATCHER_CONTEXT@@PEAUFuncInfo4@5@H@Z 0000000180035f48     libvcruntime:risctrnsctrl.obj
 0004:00000f54       $pdata$_GetImageBase       0000000180035f54     libvcruntime:risctrnsctrl.obj
 0004:00000f60       $pdata$_SetImageBase       0000000180035f60     libvcruntime:risctrnsctrl.obj
 0004:00000f6c       $pdata$_GetThrowImageBase  0000000180035f6c     libvcruntime:risctrnsctrl.obj
 0004:00000f78       $pdata$_SetThrowImageBase  0000000180035f78     libvcruntime:risctrnsctrl.obj
 0004:00000f84       $pdata$_CreateFrameInfo    0000000180035f84     libvcruntime:risctrnsctrl.obj
 0004:00000f90       $pdata$_FindAndUnlinkFrame 0000000180035f90     libvcruntime:risctrnsctrl.obj
 0004:00000f9c       $pdata$__CxxFrameHandler4  0000000180035f9c     libvcruntime:risctrnsctrl.obj
 0004:00000fa8       $pdata$??$_CallSETranslator@V__FrameHandler4@@@@YAHPEAUEHExceptionRecord@@PEA_KPEAU_CONTEXT@@PEAU_xDISPATCHER_CONTEXT@@PEAUFuncInfo4@FH4@@K1H@Z 0000000180035fa8     libvcruntime:risctrnsctrl.obj
 0004:00000fb4       $pdata$?filt$0@?0???$_CallSETranslator@V__FrameHandler4@@@@YAHPEAUEHExceptionRecord@@PEA_KPEAU_CONTEXT@@PEAU_xDISPATCHER_CONTEXT@@PEAUFuncInfo4@FH4@@K1H@Z@4HA 0000000180035fb4     libvcruntime:risctrnsctrl.obj
 0004:00000fc0       $pdata$_IsExceptionObjectToBeDestroyed 0000000180035fc0     libvcruntime:ehhelpers.obj
 0004:00000fcc       $pdata$__FrameUnwindFilter 0000000180035fcc     libvcruntime:ehhelpers.obj
 0004:00000fd8       $pdata$__DestructExceptionObject 0000000180035fd8     libvcruntime:ehhelpers.obj
 0004:00000fe4       $pdata$__DestructExceptionObject$filt$0 0000000180035fe4     libvcruntime:ehhelpers.obj
 0004:00000ff0       $pdata$__std_type_info_destroy_list 0000000180035ff0     libvcruntime:std_type_info.obj
 0004:00000ffc       $pdata$__std_exception_copy 0000000180035ffc     libvcruntime:std_exception.obj
 0004:00001008       $pdata$__std_exception_destroy 0000000180036008     libvcruntime:std_exception.obj
 0004:00001014       $pdata$_CxxThrowException  0000000180036014     libvcruntime:throw.obj
 0004:00001020       $pdata$__vcrt_initialize_ptd 0000000180036020     libvcruntime:per_thread_data.obj
 0004:0000102c       $pdata$__vcrt_uninitialize_ptd 000000018003602c     libvcruntime:per_thread_data.obj
 0004:00001038       $pdata$__vcrt_getptd       0000000180036038     libvcruntime:per_thread_data.obj
 0004:00001044       $pdata$__vcrt_getptd_noexit 0000000180036044     libvcruntime:per_thread_data.obj
 0004:00001050       $pdata$__vcrt_freeptd      0000000180036050     libvcruntime:per_thread_data.obj
 0004:0000105c       $pdata$__vcrt_freefls      000000018003605c     libvcruntime:per_thread_data.obj
 0004:00001068       $pdata$__vcrt_initialize_locks 0000000180036068     libvcruntime:locks.obj
 0004:00001074       $pdata$__vcrt_uninitialize_locks 0000000180036074     libvcruntime:locks.obj
 0004:000010a4       $pdata$?StateFromIp@__FrameHandler4@@SAHPEAUFuncInfo4@FH4@@PEAU_xDISPATCHER_CONTEXT@@_K@Z 00000001800360a4     libvcruntime:ehstate.obj
 0004:000010b0       $pdata$?getStartStop@UWMap4@FH4@@QEAAXHHAEAViterator@12@0@Z 00000001800360b0     libvcruntime:frame.obj
 0004:000010bc       $pdata$?getStateFromIterators@UWMap4@FH4@@SAHAEBViterator@12@H0H0@Z 00000001800360bc     libvcruntime:frame.obj
 0004:000010c8       $pdata$??0HandlerMap4@FH4@@QEAA@PEBUTryBlockMapEntry4@1@_KH@Z 00000001800360c8     libvcruntime:frame.obj
 0004:000010d4       $pdata$?FrameUnwindToState@__FrameHandler4@@SAXPEA_KPEAU_xDISPATCHER_CONTEXT@@PEAUFuncInfo4@FH4@@H@Z 00000001800360d4     libvcruntime:frame.obj
 0004:000010e0       $pdata$?filt$0@?0??FrameUnwindToState@__FrameHandler4@@SAXPEA_KPEAU_xDISPATCHER_CONTEXT@@PEAUFuncInfo4@FH4@@H@Z@4HA 00000001800360e0     libvcruntime:frame.obj
 0004:000010ec       $pdata$?fin$1@?0??FrameUnwindToState@__FrameHandler4@@SAXPEA_KPEAU_xDISPATCHER_CONTEXT@@PEAUFuncInfo4@FH4@@H@Z@4HA 00000001800360ec     libvcruntime:frame.obj
 0004:000010f8       $pdata$?CxxCallCatchBlock@__FrameHandler4@@SAPEAXPEAU_EXCEPTION_RECORD@@@Z 00000001800360f8     libvcruntime:frame.obj
 0004:00001104       $pdata$?filt$0@?0??CxxCallCatchBlock@__FrameHandler4@@SAPEAXPEAU_EXCEPTION_RECORD@@@Z@4HA 0000000180036104     libvcruntime:frame.obj
 0004:00001110       $pdata$?fin$1@?0??CxxCallCatchBlock@__FrameHandler4@@SAPEAXPEAU_EXCEPTION_RECORD@@@Z@4HA 0000000180036110     libvcruntime:frame.obj
 0004:0000111c       $pdata$??0bad_exception@std@@QEAA@AEBV01@@Z 000000018003611c     libvcruntime:frame.obj
 0004:00001128       $pdata$?ExFilterRethrow@@YAHPEAU_EXCEPTION_POINTERS@@PEAUEHExceptionRecord@@PEAH@Z 0000000180036128     libvcruntime:frame.obj
 0004:00001134       $pdata$?ExFilterRethrowFH4@@YAHPEAU_EXCEPTION_POINTERS@@PEAUEHExceptionRecord@@HPEAH@Z 0000000180036134     libvcruntime:frame.obj
 0004:00001140       $pdata$?IsInExceptionSpec@@YAEPEAUEHExceptionRecord@@PEBU_s_ESTypeList@@@Z 0000000180036140     libvcruntime:frame.obj
 0004:0000114c       $pdata$?Is_bad_exception_allowed@@YAEPEBU_s_ESTypeList@@@Z 000000018003614c     libvcruntime:frame.obj
 0004:00001158       $pdata$??$__InternalCxxFrameHandler@V__FrameHandler4@@@@YA?AW4_EXCEPTION_DISPOSITION@@PEAUEHExceptionRecord@@PEA_KPEAU_CONTEXT@@PEAU_xDISPATCHER_CONTEXT@@PEAUFuncInfo4@FH4@@H1E@Z 0000000180036158     libvcruntime:frame.obj
 0004:00001164       $pdata$??$TypeMatchHelper@V__FrameHandler3@@@@YAHPEBU_s_HandlerType@@PEBU_s_CatchableType@@PEBU_s_ThrowInfo@@@Z 0000000180036164     libvcruntime:frame.obj
 0004:00001170       $pdata$??$TypeMatchHelper@V__FrameHandler4@@@@YAHPEAUHandlerType4@FH4@@PEBU_s_CatchableType@@PEBU_s_ThrowInfo@@@Z 0000000180036170     libvcruntime:frame.obj
 0004:0000117c       $pdata$??$BuildCatchObjectHelperInternal@V__FrameHandler4@@@@YAHPEAUEHExceptionRecord@@PEAXPEAUHandlerType4@FH4@@PEBU_s_CatchableType@@@Z 000000018003617c     libvcruntime:frame.obj
 0004:00001188       $pdata$??$BuildCatchObjectInternal@V__FrameHandler4@@@@YAXPEAUEHExceptionRecord@@PEAXPEAUHandlerType4@FH4@@PEBU_s_CatchableType@@@Z 0000000180036188     libvcruntime:frame.obj
 0004:00001194       $pdata$??$FindHandler@V__FrameHandler4@@@@YAXPEAUEHExceptionRecord@@PEA_KPEAU_CONTEXT@@PEAU_xDISPATCHER_CONTEXT@@PEAUFuncInfo4@FH4@@EH1@Z 0000000180036194     libvcruntime:frame.obj
 0004:000011a0       $pdata$??$CatchIt@V__FrameHandler4@@@@YAXPEAUEHExceptionRecord@@PEA_KPEAU_CONTEXT@@PEAU_xDISPATCHER_CONTEXT@@PEAUFuncInfo4@FH4@@PEAUHandlerType4@4@PEBU_s_CatchableType@@PEAUTryBlockMapEntry4@4@H1EE@Z 00000001800361a0     libvcruntime:frame.obj
 0004:000011ac       $pdata$??$FindHandlerForForeignException@V__FrameHandler4@@@@YAXPEAUEHExceptionRecord@@PEA_KPEAU_CONTEXT@@PEAU_xDISPATCHER_CONTEXT@@PEAUFuncInfo4@FH4@@HH1@Z 00000001800361ac     libvcruntime:frame.obj
 0004:000011b8       $pdata$__vcrt_FlsAlloc     00000001800361b8     libvcruntime:winapi_downlevel.obj
 0004:000011c4       $pdata$__vcrt_FlsFree      00000001800361c4     libvcruntime:winapi_downlevel.obj
 0004:000011d0       $pdata$__vcrt_FlsGetValue  00000001800361d0     libvcruntime:winapi_downlevel.obj
 0004:000011dc       $pdata$__vcrt_FlsSetValue  00000001800361dc     libvcruntime:winapi_downlevel.obj
 0004:000011e8       $pdata$__vcrt_InitializeCriticalSectionEx 00000001800361e8     libvcruntime:winapi_downlevel.obj
 0004:000011f4       $pdata$?try_get_function@@YAPEAXW4function_id@?A0x5302d918@@QEBDQEBW4module_id@2@2@Z 00000001800361f4     libvcruntime:winapi_downlevel.obj
 0004:00001230       $pdata$_invalid_parameter_noinfo 0000000180036230     libucrt:invalid_parameter.obj
 0004:0000123c       $pdata$_invoke_watson      000000018003623c     libucrt:invalid_parameter.obj
 0004:00001248       $pdata$__acrt_call_reportfault 0000000180036248     libucrt:invalid_parameter.obj
 0004:00001254       $pdata$_invalid_parameter  0000000180036254     libucrt:invalid_parameter.obj
 0004:00001260       $pdata$_errno              0000000180036260     libucrt:errno.obj
 0004:0000126c       $pdata$__doserrno          000000018003626c     libucrt:errno.obj
 0004:00001278       $pdata$__acrt_errno_map_os_error 0000000180036278     libucrt:errno.obj
 0004:00001284       $pdata$_recalloc_base      0000000180036284     libucrt:recalloc.obj
 0004:00001290       $pdata$_resetstkoflw       0000000180036290     libucrt:resetstk.obj
 0004:0000129c       $pdata$wcscat_s            000000018003629c     libucrt:wcscat_s.obj
 0004:000012a8       $pdata$wcscpy_s            00000001800362a8     libucrt:wcscpy_s.obj
 0004:000012b4       $pdata$wcsncpy_s           00000001800362b4     libucrt:wcsncpy_s.obj
 0004:000012c0       $pdata$??0_LocaleUpdate@@QEAA@QEAU__crt_locale_pointers@@@Z 00000001800362c0     libucrt:output.obj
 0004:000012cc       $pdata$__stdio_common_vswprintf_s 00000001800362cc     libucrt:output.obj
 0004:000012d8       $pdata$?write_string@?$string_output_adapter@_W@__crt_stdio_output@@QEBAXQEB_WHQEAHAEAV__crt_deferred_errno_cache@@@Z 00000001800362d8     libucrt:output.obj
 0004:000012e4       $pdata$??$common_vsprintf@Vformat_validation_base@__crt_stdio_output@@_W@@YAH_KQEA_W0QEB_WQEAU__crt_locale_pointers@@QEAD@Z 00000001800362e4     libucrt:output.obj
 0004:000012f0       $pdata$??$write_multiple_characters@V?$string_output_adapter@_W@__crt_stdio_output@@D@__crt_stdio_output@@YAXAEBV?$string_output_adapter@_W@0@DHQEAH@Z 00000001800362f0     libucrt:output.obj
 0004:000012fc       $pdata$??$ensure_buffer_is_big_enough@D@formatting_buffer@__crt_stdio_output@@QEAA_N_K@Z 00000001800362fc     libucrt:output.obj
 0004:00001308       $pdata$??$ensure_buffer_is_big_enough@_W@formatting_buffer@__crt_stdio_output@@QEAA_N_K@Z 0000000180036308     libucrt:output.obj
 0004:00001314       $pdata$?process@?$output_processor@_WV?$string_output_adapter@_W@__crt_stdio_output@@V?$format_validation_base@_WV?$string_output_adapter@_W@__crt_stdio_output@@@2@@__crt_stdio_output@@QEAAHXZ 0000000180036314     libucrt:output.obj
 0004:00001320       $pdata$?parse_int_from_format_string@?$output_processor@_WV?$string_output_adapter@_W@__crt_stdio_output@@V?$format_validation_base@_WV?$string_output_adapter@_W@__crt_stdio_output@@@2@@__crt_stdio_output@@AEAA_NQEAH@Z 0000000180036320     libucrt:output.obj
 0004:0000132c       $pdata$?state_case_size@?$output_processor@_WV?$string_output_adapter@_W@__crt_stdio_output@@V?$format_validation_base@_WV?$string_output_adapter@_W@__crt_stdio_output@@@2@@__crt_stdio_output@@AEAA_NXZ 000000018003632c     libucrt:output.obj
 0004:00001338       $pdata$?state_case_type@?$output_processor@_WV?$string_output_adapter@_W@__crt_stdio_output@@V?$format_validation_base@_WV?$string_output_adapter@_W@__crt_stdio_output@@@2@@__crt_stdio_output@@AEAA_NXZ 0000000180036338     libucrt:output.obj
 0004:00001344       $pdata$?type_case_c_tchar@?$output_processor@_WV?$string_output_adapter@_W@__crt_stdio_output@@V?$format_validation_base@_WV?$string_output_adapter@_W@__crt_stdio_output@@@2@@__crt_stdio_output@@AEAA_N_W@Z 0000000180036344     libucrt:output.obj
 0004:00001350       $pdata$?type_case_Z@?$output_processor@_WV?$string_output_adapter@_W@__crt_stdio_output@@V?$format_validation_base@_WV?$string_output_adapter@_W@__crt_stdio_output@@@2@@__crt_stdio_output@@AEAA_NXZ 0000000180036350     libucrt:output.obj
 0004:0000135c       $pdata$?type_case_s@?$output_processor@_WV?$string_output_adapter@_W@__crt_stdio_output@@V?$format_validation_base@_WV?$string_output_adapter@_W@__crt_stdio_output@@@2@@__crt_stdio_output@@AEAA_NXZ 000000018003635c     libucrt:output.obj
 0004:00001368       $pdata$?type_case_a@?$output_processor@_WV?$string_output_adapter@_W@__crt_stdio_output@@V?$format_validation_base@_WV?$string_output_adapter@_W@__crt_stdio_output@@@2@@__crt_stdio_output@@AEAA_NXZ 0000000180036368     libucrt:output.obj
 0004:00001374       $pdata$?type_case_integer@?$output_processor@_WV?$string_output_adapter@_W@__crt_stdio_output@@V?$format_validation_base@_WV?$string_output_adapter@_W@__crt_stdio_output@@@2@@__crt_stdio_output@@AEAA_NI_N@Z 0000000180036374     libucrt:output.obj
 0004:00001380       $pdata$?type_case_n@?$output_processor@_WV?$string_output_adapter@_W@__crt_stdio_output@@V?$format_validation_base@_WV?$string_output_adapter@_W@__crt_stdio_output@@@2@@__crt_stdio_output@@AEAA_NXZ 0000000180036380     libucrt:output.obj
 0004:0000138c       $pdata$?write_stored_string_tchar@?$output_processor@_WV?$string_output_adapter@_W@__crt_stdio_output@@V?$format_validation_base@_WV?$string_output_adapter@_W@__crt_stdio_output@@@2@@__crt_stdio_output@@AEAA_N_W@Z 000000018003638c     libucrt:output.obj
 0004:00001398       $pdata$??$type_case_integer_parse_into_buffer@_K@?$output_processor@_WV?$string_output_adapter@_W@__crt_stdio_output@@V?$format_validation_base@_WV?$string_output_adapter@_W@__crt_stdio_output@@@2@@__crt_stdio_output@@AEAAX_KI_N@Z 0000000180036398     libucrt:output.obj
 0004:000013a4       $pdata$??$type_case_integer_parse_into_buffer@I@?$output_processor@_WV?$string_output_adapter@_W@__crt_stdio_output@@V?$format_validation_base@_WV?$string_output_adapter@_W@__crt_stdio_output@@@2@@__crt_stdio_output@@AEAAXII_N@Z 00000001800363a4     libucrt:output.obj
 0004:000013b0       $pdata$_seh_filter_exe     00000001800363b0     libucrt:exception_filter.obj
 0004:000013bc       $pdata$?try_cor_exit_process@@YAXI@Z 00000001800363bc     libucrt:exit.obj
 0004:000013c8       $pdata$?exit_or_terminate_process@@YAXI@Z 00000001800363c8     libucrt:exit.obj
 0004:000013d4       $pdata$?common_exit@@YAXHW4_crt_exit_cleanup_mode@@W4_crt_exit_return_mode@@@Z 00000001800363d4     libucrt:exit.obj
 0004:000013e0       $pdata$??R<lambda_6e4b09c48022b2350581041d5f6b0c4c>@@QEBA@XZ 00000001800363e0     libucrt:exit.obj
 0004:000013ec       $pdata$?filt$0@?0???R<lambda_6e4b09c48022b2350581041d5f6b0c4c>@@QEBA@XZ@4HA 00000001800363ec     libucrt:exit.obj
 0004:000013f8       $pdata$??$?RV<lambda_d80eeec6fff315bfe5c115232f3240e3>@@AEAV<lambda_6e4b09c48022b2350581041d5f6b0c4c>@@V<lambda_2358e3775559c9db80273638284d5e45>@@@?$__crt_seh_guarded_call@X@@QEAAX$$QEAV<lambda_d80eeec6fff315bfe5c115232f3240e3>@@AEAV<lambda_6e4b09c48022b2350581041d5f6b0c4c>@@$$QEAV<lambda_2358e3775559c9db80273638284d5e45>@@@Z 00000001800363f8     libucrt:exit.obj
 0004:00001404       $pdata$?fin$0@?0???$?RV<lambda_0ae27a3a962d80f24befdcbee591983d>@@AEAV<lambda_8d0ee55de4b1038c4002e0adecdf1839>@@V<lambda_dc504788e8f1664fe9b84e20bfb512f2>@@@?$__crt_seh_guarded_call@X@@QEAAX$$QEAV<lambda_0ae27a3a962d80f24befdcbee591983d>@@AEAV<lambda_8d0ee55de4b1038c4002e0adecdf1839>@@$$QEAV<lambda_dc504788e8f1664fe9b84e20bfb512f2>@@@Z@4HA 0000000180036404     libucrt:per_thread_data.obj
 0004:00001404       $pdata$?fin$0@?0???$?RV<lambda_2d41944a1d46af3157314b8a01080d33>@@AEAV<lambda_8f455de75cd7d7f24b4096f044d8b9e6>@@V<lambda_aa500f224e6afead328df44964fe2772>@@@?$__crt_seh_guarded_call@X@@QEAAX$$QEAV<lambda_2d41944a1d46af3157314b8a01080d33>@@AEAV<lambda_8f455de75cd7d7f24b4096f044d8b9e6>@@$$QEAV<lambda_aa500f224e6afead328df44964fe2772>@@@Z@4HA 0000000180036404     libucrt:per_thread_data.obj
 0004:00001404       $pdata$?fin$0@?0???$?RV<lambda_aa87e3671a710a21b5dc78c0bdf72e11>@@AEAV<lambda_92619d2358a28f41a33ba319515a20b9>@@V<lambda_6992ecaafeb10aed2b74cb1fae11a551>@@@?$__crt_seh_guarded_call@X@@QEAAX$$QEAV<lambda_aa87e3671a710a21b5dc78c0bdf72e11>@@AEAV<lambda_92619d2358a28f41a33ba319515a20b9>@@$$QEAV<lambda_6992ecaafeb10aed2b74cb1fae11a551>@@@Z@4HA 0000000180036404     libucrt:per_thread_data.obj
 0004:00001404       $pdata$?fin$0@?0???$?RV<lambda_f2e299630e499de9f9a165e60fcd3db5>@@AEAV<lambda_2ae9d31cdba2644fcbeaf08da7c24588>@@V<lambda_40d01ff24d0e7b3814fdbdcee8eab3c7>@@@?$__crt_seh_guarded_call@X@@QEAAX$$QEAV<lambda_f2e299630e499de9f9a165e60fcd3db5>@@AEAV<lambda_2ae9d31cdba2644fcbeaf08da7c24588>@@$$QEAV<lambda_40d01ff24d0e7b3814fdbdcee8eab3c7>@@@Z@4HA 0000000180036404     libucrt:per_thread_data.obj
 0004:00001404       $pdata$?fin$0@?0???$?RV<lambda_efdfa57d1f175319df784efa44bb7b81>@@AEAV<lambda_5f0a4c1567f8adc6734073e5d1e1b35c>@@V<lambda_2e8a7d3640ea6ccb4c2413664c2db6fd>@@@?$__crt_seh_guarded_call@X@@QEAAX$$QEAV<lambda_efdfa57d1f175319df784efa44bb7b81>@@AEAV<lambda_5f0a4c1567f8adc6734073e5d1e1b35c>@@$$QEAV<lambda_2e8a7d3640ea6ccb4c2413664c2db6fd>@@@Z@4HA 0000000180036404     libucrt:mbctype.obj
 0004:00001404       $pdata$?fin$0@?0???$?RV<lambda_450d765d439847d4c735a33c368b5fc0>@@AEAV<lambda_44731a7d0e6d81c3e6aa82d741081786>@@V<lambda_601a2a7da3b7a96e9554ac7215c4b07c>@@@?$__crt_seh_guarded_call@P6AXH@Z@@QEAAP6AXH@Z$$QEAV<lambda_450d765d439847d4c735a33c368b5fc0>@@AEAV<lambda_44731a7d0e6d81c3e6aa82d741081786>@@$$QEAV<lambda_601a2a7da3b7a96e9554ac7215c4b07c>@@@Z@4HA 0000000180036404     libucrt:signal.obj
 0004:00001404       $pdata$?fin$0@?0???$?RV<lambda_d80eeec6fff315bfe5c115232f3240e3>@@AEAV<lambda_6e4b09c48022b2350581041d5f6b0c4c>@@V<lambda_2358e3775559c9db80273638284d5e45>@@@?$__crt_seh_guarded_call@X@@QEAAX$$QEAV<lambda_d80eeec6fff315bfe5c115232f3240e3>@@AEAV<lambda_6e4b09c48022b2350581041d5f6b0c4c>@@$$QEAV<lambda_2358e3775559c9db80273638284d5e45>@@@Z@4HA 0000000180036404     libucrt:exit.obj
 0004:00001404       $pdata$?fin$0@?0???$?RV<lambda_638799b9deba96c50f710eeac98168cd>@@AEAV<lambda_22ebabd17bc4fa466a2aca6d8deb888d>@@V<lambda_a6f7d7db0129f75315ebf26d50c089f1>@@@?$__crt_seh_guarded_call@H@@QEAAH$$QEAV<lambda_638799b9deba96c50f710eeac98168cd>@@AEAV<lambda_22ebabd17bc4fa466a2aca6d8deb888d>@@$$QEAV<lambda_a6f7d7db0129f75315ebf26d50c089f1>@@@Z@4HA 0000000180036404     libucrt:onexit.obj
 0004:00001404       $pdata$?fin$0@?0???$?RV<lambda_7777bce6b2f8c936911f934f8298dc43>@@AEAV<lambda_f03950bc5685219e0bcd2087efbe011e>@@V<lambda_3883c3dff614d5e0c5f61bb1ac94921c>@@@?$__crt_seh_guarded_call@H@@QEAAH$$QEAV<lambda_7777bce6b2f8c936911f934f8298dc43>@@AEAV<lambda_f03950bc5685219e0bcd2087efbe011e>@@$$QEAV<lambda_3883c3dff614d5e0c5f61bb1ac94921c>@@@Z@4HA 0000000180036404     libucrt:onexit.obj
 0004:00001410       $pdata$_configure_narrow_argv 0000000180036410     libucrt:argv_parsing.obj
 0004:0000141c       $pdata$__acrt_allocate_buffer_for_argv 000000018003641c     libucrt:argv_parsing.obj
 0004:00001428       $pdata$??$parse_command_line@D@@YAXPEADPEAPEAD0PEA_K2@Z 0000000180036428     libucrt:argv_parsing.obj
 0004:00001434       $pdata$__dcrt_uninitialize_environments_nolock 0000000180036434     libucrt:environment_initialization.obj
 0004:00001440       $pdata$??$common_initialize_environment_nolock@D@@YAHXZ 0000000180036440     libucrt:environment_initialization.obj
 0004:0000144c       $pdata$??$uninitialize_environment_internal@D@@YAXAEAPEAPEAD@Z 000000018003644c     libucrt:environment_initialization.obj
 0004:00001458       $pdata$??$uninitialize_environment_internal@_W@@YAXAEAPEAPEA_W@Z 0000000180036458     libucrt:environment_initialization.obj
 0004:00001464       $pdata$??$free_environment@D@@YAXQEAPEAD@Z 0000000180036464     libucrt:environment_initialization.obj
 0004:00001464       $pdata$??$free_environment@_W@@YAXQEAPEA_W@Z 0000000180036464     libucrt:environment_initialization.obj
 0004:00001470       $pdata$??$create_environment@D@@YAQEAPEADQEAD@Z 0000000180036470     libucrt:environment_initialization.obj
 0004:0000147c       $pdata$_register_onexit_function 000000018003647c     libucrt:onexit.obj
 0004:00001488       $pdata$_execute_onexit_table 0000000180036488     libucrt:onexit.obj
 0004:00001494       $pdata$??R<lambda_22ebabd17bc4fa466a2aca6d8deb888d>@@QEBAHXZ 0000000180036494     libucrt:onexit.obj
 0004:000014a0       $pdata$??R<lambda_f03950bc5685219e0bcd2087efbe011e>@@QEBAHXZ 00000001800364a0     libucrt:onexit.obj
 0004:000014ac       $pdata$??$?RV<lambda_638799b9deba96c50f710eeac98168cd>@@AEAV<lambda_22ebabd17bc4fa466a2aca6d8deb888d>@@V<lambda_a6f7d7db0129f75315ebf26d50c089f1>@@@?$__crt_seh_guarded_call@H@@QEAAH$$QEAV<lambda_638799b9deba96c50f710eeac98168cd>@@AEAV<lambda_22ebabd17bc4fa466a2aca6d8deb888d>@@$$QEAV<lambda_a6f7d7db0129f75315ebf26d50c089f1>@@@Z 00000001800364ac     libucrt:onexit.obj
 0004:000014b8       $pdata$??$?RV<lambda_7777bce6b2f8c936911f934f8298dc43>@@AEAV<lambda_f03950bc5685219e0bcd2087efbe011e>@@V<lambda_3883c3dff614d5e0c5f61bb1ac94921c>@@@?$__crt_seh_guarded_call@H@@QEAAH$$QEAV<lambda_7777bce6b2f8c936911f934f8298dc43>@@AEAV<lambda_f03950bc5685219e0bcd2087efbe011e>@@$$QEAV<lambda_3883c3dff614d5e0c5f61bb1ac94921c>@@@Z 00000001800364b8     libucrt:onexit.obj
 0004:000014c4       $pdata$__acrt_uninitialize 00000001800364c4     libucrt:initialization.obj
 0004:000014d0       $pdata$__acrt_uninitialize_critical 00000001800364d0     libucrt:initialization.obj
 0004:000014dc       $pdata$__acrt_thread_attach 00000001800364dc     libucrt:initialization.obj
 0004:000014e8       $pdata$__acrt_thread_detach 00000001800364e8     libucrt:initialization.obj
 0004:000014f4       $pdata$initialize_c        00000001800364f4     libucrt:initialization.obj
 0004:00001500       $pdata$uninitialize_environment 0000000180036500     libucrt:initialization.obj
 0004:0000150c       $pdata$initialize_pointers 000000018003650c     libucrt:initialization.obj
 0004:00001518       $pdata$uninitialize_allocated_memory 0000000180036518     libucrt:initialization.obj
 0004:00001524       $pdata$uninitialize_allocated_io_buffers 0000000180036524     libucrt:initialization.obj
 0004:00001530       $pdata$_initterm           0000000180036530     libucrt:initterm.obj
 0004:0000153c       $pdata$_initterm_e         000000018003653c     libucrt:initterm.obj
 0004:00001548       $pdata$_callnewh           0000000180036548     libucrt:new_handler.obj
 0004:00001554       $pdata$_query_new_handler  0000000180036554     libucrt:new_handler.obj
 0004:00001560       $pdata$_query_new_handler$fin$0 0000000180036560     libucrt:new_handler.obj
 0004:0000156c       $pdata$terminate           000000018003656c     libucrt:terminate.obj
 0004:00001578       $pdata$abort               0000000180036578     libucrt:abort.obj
 0004:00001584       $pdata$strcpy_s            0000000180036584     libucrt:strcpy_s.obj
 0004:00001590       $pdata$??$parse_integer@KV?$c_string_character_source@_W@__crt_strtox@@@__crt_strtox@@YAKQEAU__crt_locale_pointers@@V?$c_string_character_source@_W@0@H_N@Z 0000000180036590     libucrt:atox.obj
 0004:000015a8       $pdata$_free_base          00000001800365a8     libucrt:free_base.obj
 0004:000015b4       $pdata$__acrt_initialize_ptd 00000001800365b4     libucrt:per_thread_data.obj
 0004:000015c0       $pdata$__acrt_uninitialize_ptd 00000001800365c0     libucrt:per_thread_data.obj
 0004:000015cc       $pdata$__acrt_getptd       00000001800365cc     libucrt:per_thread_data.obj
 0004:000015d8       $pdata$__acrt_getptd_head  00000001800365d8     libucrt:per_thread_data.obj
 0004:000015e4       $pdata$__acrt_getptd_noexit 00000001800365e4     libucrt:per_thread_data.obj
 0004:000015f0       $pdata$__acrt_freeptd      00000001800365f0     libucrt:per_thread_data.obj
 0004:000015fc       $pdata$?destroy_fls@@YAXPEAX@Z 00000001800365fc     libucrt:per_thread_data.obj
 0004:00001608       $pdata$?replace_current_thread_locale_nolock@@YAXQEAU__acrt_ptd@@QEAU__crt_locale_data@@@Z 0000000180036608     libucrt:per_thread_data.obj
 0004:00001614       $pdata$?construct_ptd_array@@YAXQEAU__acrt_ptd@@@Z 0000000180036614     libucrt:per_thread_data.obj
 0004:00001620       $pdata$?destroy_ptd_array@@YAXQEAU__acrt_ptd@@@Z 0000000180036620     libucrt:per_thread_data.obj
 0004:0000162c       $pdata$??$?RV<lambda_0ae27a3a962d80f24befdcbee591983d>@@AEAV<lambda_8d0ee55de4b1038c4002e0adecdf1839>@@V<lambda_dc504788e8f1664fe9b84e20bfb512f2>@@@?$__crt_seh_guarded_call@X@@QEAAX$$QEAV<lambda_0ae27a3a962d80f24befdcbee591983d>@@AEAV<lambda_8d0ee55de4b1038c4002e0adecdf1839>@@$$QEAV<lambda_dc504788e8f1664fe9b84e20bfb512f2>@@@Z 000000018003662c     libucrt:per_thread_data.obj
 0004:00001638       $pdata$??$?RV<lambda_aa87e3671a710a21b5dc78c0bdf72e11>@@AEAV<lambda_92619d2358a28f41a33ba319515a20b9>@@V<lambda_6992ecaafeb10aed2b74cb1fae11a551>@@@?$__crt_seh_guarded_call@X@@QEAAX$$QEAV<lambda_aa87e3671a710a21b5dc78c0bdf72e11>@@AEAV<lambda_92619d2358a28f41a33ba319515a20b9>@@$$QEAV<lambda_6992ecaafeb10aed2b74cb1fae11a551>@@@Z 0000000180036638     libucrt:per_thread_data.obj
 0004:00001644       $pdata$??$?RV<lambda_f2e299630e499de9f9a165e60fcd3db5>@@AEAV<lambda_2ae9d31cdba2644fcbeaf08da7c24588>@@V<lambda_40d01ff24d0e7b3814fdbdcee8eab3c7>@@@?$__crt_seh_guarded_call@X@@QEAAX$$QEAV<lambda_f2e299630e499de9f9a165e60fcd3db5>@@AEAV<lambda_2ae9d31cdba2644fcbeaf08da7c24588>@@$$QEAV<lambda_40d01ff24d0e7b3814fdbdcee8eab3c7>@@@Z 0000000180036644     libucrt:per_thread_data.obj
 0004:00001650       $pdata$??$?RV<lambda_2d41944a1d46af3157314b8a01080d33>@@AEAV<lambda_8f455de75cd7d7f24b4096f044d8b9e6>@@V<lambda_aa500f224e6afead328df44964fe2772>@@@?$__crt_seh_guarded_call@X@@QEAAX$$QEAV<lambda_2d41944a1d46af3157314b8a01080d33>@@AEAV<lambda_8f455de75cd7d7f24b4096f044d8b9e6>@@$$QEAV<lambda_aa500f224e6afead328df44964fe2772>@@@Z 0000000180036650     libucrt:per_thread_data.obj
 0004:0000165c       $pdata$_calloc_base        000000018003665c     libucrt:calloc_base.obj
 0004:00001668       $pdata$_malloc_base        0000000180036668     libucrt:malloc_base.obj
 0004:00001674       $pdata$_msize_base         0000000180036674     libucrt:msize.obj
 0004:00001680       $pdata$_realloc_base       0000000180036680     libucrt:realloc_base.obj
 0004:0000168c       $pdata$__acrt_initialize_winapi_thunks 000000018003668c     libucrt:winapi_thunks.obj
 0004:00001698       $pdata$__acrt_uninitialize_winapi_thunks 0000000180036698     libucrt:winapi_thunks.obj
 0004:000016a4       $pdata$__acrt_AreFileApisANSI 00000001800366a4     libucrt:winapi_thunks.obj
 0004:000016b0       $pdata$__acrt_FlsAlloc     00000001800366b0     libucrt:winapi_thunks.obj
 0004:000016bc       $pdata$__acrt_FlsFree      00000001800366bc     libucrt:winapi_thunks.obj
 0004:000016c8       $pdata$__acrt_FlsGetValue  00000001800366c8     libucrt:winapi_thunks.obj
 0004:000016d4       $pdata$__acrt_FlsSetValue  00000001800366d4     libucrt:winapi_thunks.obj
 0004:000016e0       $pdata$__acrt_InitializeCriticalSectionEx 00000001800366e0     libucrt:winapi_thunks.obj
 0004:000016ec       $pdata$__acrt_LCMapStringEx 00000001800366ec     libucrt:winapi_thunks.obj
 0004:000016f8       $pdata$__acrt_LocaleNameToLCID 00000001800366f8     libucrt:winapi_thunks.obj
 0004:00001704       $pdata$__acrt_AppPolicyGetProcessTerminationMethodInternal 0000000180036704     libucrt:winapi_thunks.obj
 0004:00001710       $pdata$__acrt_SetThreadStackGuarantee 0000000180036710     libucrt:winapi_thunks.obj
 0004:0000171c       $pdata$?try_get_function@@YAPEAXW4function_id@?A0x391cf84c@@QEBDQEBW4module_id@2@2@Z 000000018003671c     libucrt:winapi_thunks.obj
 0004:00001728       $pdata$wcstol              0000000180036728     libucrt:strtox.obj
 0004:00001734       $pdata$_mbtowc_l           0000000180036734     libucrt:mbtowc.obj
 0004:00001740       $pdata$__acrt_update_locale_info 0000000180036740     libucrt:locale_update.obj
 0004:0000174c       $pdata$__acrt_update_multibyte_info 000000018003674c     libucrt:locale_update.obj
 0004:00001758       $pdata$__acrt_fp_format    0000000180036758     libucrt:cvt.obj
 0004:00001764       $pdata$?fp_format_e_internal@@YAHQEAD_KH_NIQEAU_strflt@@2QEAU__crt_locale_pointers@@@Z 0000000180036764     libucrt:cvt.obj
 0004:00001770       $pdata$?fp_format_e@@YAHQEBNQEAD_K12H_NIQEAU__crt_locale_pointers@@W4__acrt_rounding_mode@@@Z 0000000180036770     libucrt:cvt.obj
 0004:0000177c       $pdata$?should_round_up@@YA_NQEBN_KFW4__acrt_rounding_mode@@@Z 000000018003677c     libucrt:cvt.obj
 0004:00001788       $pdata$?fp_format_a@@YAHQEBNPEAD_KQEAD2H_NIQEAU__crt_locale_pointers@@W4__acrt_rounding_mode@@@Z 0000000180036788     libucrt:cvt.obj
 0004:00001794       $pdata$?fp_format_f_internal@@YAHQEAD_KHQEAU_strflt@@_NQEAU__crt_locale_pointers@@@Z 0000000180036794     libucrt:cvt.obj
 0004:000017a0       $pdata$?fp_format_g@@YAHQEBNQEAD_K12H_NIQEAU__crt_locale_pointers@@@Z 00000001800367a0     libucrt:cvt.obj
 0004:000017ac       $pdata$_fileno             00000001800367ac     libucrt:fileno.obj
 0004:000017b8       $pdata$__acrt_initialize_stdio 00000001800367b8     libucrt:_file.obj
 0004:000017c4       $pdata$__acrt_uninitialize_stdio 00000001800367c4     libucrt:_file.obj
 0004:000017d0       $pdata$__acrt_uninitialize_locale 00000001800367d0     libucrt:wsetlocale.obj
 0004:000017dc       $pdata$??$?RV<lambda_410d79af7f07d98d83a3f525b3859a53>@@AEAV<lambda_3e16ef9562a7dcce91392c22ab16ea36>@@V<lambda_38119f0e861e05405d8a144b9b982f0a>@@@?$__crt_seh_guarded_call@X@@QEAAX$$QEAV<lambda_410d79af7f07d98d83a3f525b3859a53>@@AEAV<lambda_3e16ef9562a7dcce91392c22ab16ea36>@@$$QEAV<lambda_38119f0e861e05405d8a144b9b982f0a>@@@Z 00000001800367dc     libucrt:wsetlocale.obj
 0004:000017e8       $pdata$?fin$0@?0???$?RV<lambda_410d79af7f07d98d83a3f525b3859a53>@@AEAV<lambda_3e16ef9562a7dcce91392c22ab16ea36>@@V<lambda_38119f0e861e05405d8a144b9b982f0a>@@@?$__crt_seh_guarded_call@X@@QEAAX$$QEAV<lambda_410d79af7f07d98d83a3f525b3859a53>@@AEAV<lambda_3e16ef9562a7dcce91392c22ab16ea36>@@$$QEAV<lambda_38119f0e861e05405d8a144b9b982f0a>@@@Z@4HA 00000001800367e8     libucrt:wsetlocale.obj
 0004:000017f4       $pdata$__acrt_initialize_lowio 00000001800367f4     libucrt:ioinit.obj
 0004:00001800       $pdata$__acrt_initialize_lowio$fin$0 0000000180036800     libucrt:ioinit.obj
 0004:00001800       $pdata$__acrt_lowio_ensure_fh_exists$fin$0 0000000180036800     libucrt:osfinfo.obj
 0004:0000180c       $pdata$__acrt_uninitialize_lowio 000000018003680c     libucrt:ioinit.obj
 0004:00001818       $pdata$?initialize_inherited_file_handles_nolock@@YAXXZ 0000000180036818     libucrt:ioinit.obj
 0004:00001824       $pdata$?initialize_stdio_handles_nolock@@YAXXZ 0000000180036824     libucrt:ioinit.obj
 0004:00001830       $pdata$__acrt_initialize_locks 0000000180036830     libucrt:locks.obj
 0004:0000183c       $pdata$__acrt_uninitialize_locks 000000018003683c     libucrt:locks.obj
 0004:00001848       $pdata$__acrt_get_process_end_policy 0000000180036848     libucrt:win_policies.obj
 0004:00001854       $pdata$??$__acrt_mbs_to_wcs_cp@U__crt_win32_buffer_internal_dynamic_resizing@@@@YAHQEBDAEAV?$__crt_win32_buffer@_WU__crt_win32_buffer_internal_dynamic_resizing@@@@I@Z 0000000180036854     libucrt:argv_wildcards.obj
 0004:00001860       $pdata$??$__acrt_wcs_to_mbs_cp@U__crt_win32_buffer_internal_dynamic_resizing@@@@YAHQEB_WAEAV?$__crt_win32_buffer@DU__crt_win32_buffer_internal_dynamic_resizing@@@@I@Z 0000000180036860     libucrt:argv_wildcards.obj
 0004:0000186c       $pdata$??$common_expand_argv_wildcards@D@@YAHQEAPEADQEAPEAPEAD@Z 000000018003686c     libucrt:argv_wildcards.obj
 0004:00001878       $pdata$??$copy_and_add_argument_to_buffer@D@@YAHQEBD0_KAEAV?$argument_list@D@?A0x5f5c8891@@@Z 0000000180036878     libucrt:argv_wildcards.obj
 0004:00001884       $pdata$??$expand_argument_wildcards@D@@YAHQEAD0AEAV?$argument_list@D@?A0x5f5c8891@@@Z 0000000180036884     libucrt:argv_wildcards.obj
 0004:00001890       $pdata$__acrt_GetModuleFileNameA 0000000180036890     libucrt:getmodulefilenamea.obj
 0004:0000189c       $pdata$??$__acrt_wcs_to_mbs_cp@U__crt_win32_buffer_no_resizing@@@@YAHQEB_WAEAV?$__crt_win32_buffer@DU__crt_win32_buffer_no_resizing@@@@I@Z 000000018003689c     libucrt:getmodulefilenamea.obj
 0004:000018a8       $pdata$__acrt_update_thread_multibyte_data 00000001800368a8     libucrt:mbctype.obj
 0004:000018b4       $pdata$__acrt_initialize_multibyte 00000001800368b4     libucrt:mbctype.obj
 0004:000018c0       $pdata$_setmbcp_nolock     00000001800368c0     libucrt:mbctype.obj
 0004:000018cc       $pdata$?getSystemCP@@YAHH@Z 00000001800368cc     libucrt:mbctype.obj
 0004:000018d8       $pdata$?setSBCS@@YAXPEAU__crt_multibyte_data@@@Z 00000001800368d8     libucrt:mbctype.obj
 0004:000018e4       $pdata$?update_thread_multibyte_data_internal@@YAPEAU__crt_multibyte_data@@QEAU__acrt_ptd@@QEAPEAU1@@Z 00000001800368e4     libucrt:mbctype.obj
 0004:000018f0       $pdata$?fin$0@?0??update_thread_multibyte_data_internal@@YAPEAU__crt_multibyte_data@@QEAU__acrt_ptd@@QEAPEAU1@@Z@4HA 00000001800368f0     libucrt:mbctype.obj
 0004:000018fc       $pdata$?setmbcp_internal@@YAHH_NQEAU__acrt_ptd@@QEAPEAU__crt_multibyte_data@@@Z 00000001800368fc     libucrt:mbctype.obj
 0004:00001908       $pdata$?setSBUpLow@@YAXPEAU__crt_multibyte_data@@@Z 0000000180036908     libucrt:mbctype.obj
 0004:00001914       $pdata$??$?RV<lambda_efdfa57d1f175319df784efa44bb7b81>@@AEAV<lambda_5f0a4c1567f8adc6734073e5d1e1b35c>@@V<lambda_2e8a7d3640ea6ccb4c2413664c2db6fd>@@@?$__crt_seh_guarded_call@X@@QEAAX$$QEAV<lambda_efdfa57d1f175319df784efa44bb7b81>@@AEAV<lambda_5f0a4c1567f8adc6734073e5d1e1b35c>@@$$QEAV<lambda_2e8a7d3640ea6ccb4c2413664c2db6fd>@@@Z 0000000180036914     libucrt:mbctype.obj
 0004:00001920       $pdata$?x_ismbbtype_l@@YAHPEAU__crt_locale_pointers@@IHH@Z 0000000180036920     libucrt:ismbbyte.obj
 0004:0000192c       $pdata$__acrt_initialize_command_line 000000018003692c     libucrt:argv_data.obj
 0004:00001938       $pdata$__acrt_WideCharToMultiByte 0000000180036938     libucrt:widechartomultibyte.obj
 0004:00001944       $pdata$__dcrt_get_narrow_environment_from_os 0000000180036944     libucrt:get_environment_from_os.obj
 0004:00001950       $pdata$__acrt_initialize_heap 0000000180036950     libucrt:heap_handle.obj
 0004:0000195c       $pdata$__acrt_execute_initializers 000000018003695c     libucrt:shared_initialization.obj
 0004:00001968       $pdata$__acrt_execute_uninitializers 0000000180036968     libucrt:shared_initialization.obj
 0004:00001974       $pdata$__acrt_get_sigabrt_handler 0000000180036974     libucrt:signal.obj
 0004:00001980       $pdata$raise               0000000180036980     libucrt:signal.obj
 0004:0000198c       $pdata$raise$fin$0         000000018003698c     libucrt:signal.obj
 0004:00001998       $pdata$??$?RV<lambda_450d765d439847d4c735a33c368b5fc0>@@AEAV<lambda_44731a7d0e6d81c3e6aa82d741081786>@@V<lambda_601a2a7da3b7a96e9554ac7215c4b07c>@@@?$__crt_seh_guarded_call@P6AXH@Z@@QEAAP6AXH@Z$$QEAV<lambda_450d765d439847d4c735a33c368b5fc0>@@AEAV<lambda_44731a7d0e6d81c3e6aa82d741081786>@@$$QEAV<lambda_601a2a7da3b7a96e9554ac7215c4b07c>@@@Z 0000000180036998     libucrt:signal.obj
 0004:000019a4       $pdata$_fflush_nolock      00000001800369a4     libucrt:fflush.obj
 0004:000019b0       $pdata$__acrt_stdio_flush_nolock 00000001800369b0     libucrt:fflush.obj
 0004:000019bc       $pdata$?common_flush_all@@YAH_N@Z 00000001800369bc     libucrt:fflush.obj
 0004:000019c8       $pdata$??$?RV<lambda_842d9ff0dc9ef11c61343bbaebe7f885>@@AEAV<lambda_c5860995281e5c4ce005b3de8f5874ee>@@V<lambda_d90129c13df834fdcbf8d2b88dafcf2d>@@@?$__crt_seh_guarded_call@X@@QEAAX$$QEAV<lambda_842d9ff0dc9ef11c61343bbaebe7f885>@@AEAV<lambda_c5860995281e5c4ce005b3de8f5874ee>@@$$QEAV<lambda_d90129c13df834fdcbf8d2b88dafcf2d>@@@Z 00000001800369c8     libucrt:fflush.obj
 0004:000019d4       $pdata$?fin$0@?0???$?RV<lambda_842d9ff0dc9ef11c61343bbaebe7f885>@@AEAV<lambda_c5860995281e5c4ce005b3de8f5874ee>@@V<lambda_d90129c13df834fdcbf8d2b88dafcf2d>@@@?$__crt_seh_guarded_call@X@@QEAAX$$QEAV<lambda_842d9ff0dc9ef11c61343bbaebe7f885>@@AEAV<lambda_c5860995281e5c4ce005b3de8f5874ee>@@$$QEAV<lambda_d90129c13df834fdcbf8d2b88dafcf2d>@@@Z@4HA 00000001800369d4     libucrt:fflush.obj
 0004:000019e0       $pdata$??$?RV<lambda_886d6c58226a84441f68b9f2b8217b83>@@AEAV<lambda_ab61a845afdef5b7c387490eaf3616ee>@@V<lambda_f7f22ab5edc0698d5f6905b0d3f44752>@@@?$__crt_seh_guarded_call@X@@QEAAX$$QEAV<lambda_886d6c58226a84441f68b9f2b8217b83>@@AEAV<lambda_ab61a845afdef5b7c387490eaf3616ee>@@$$QEAV<lambda_f7f22ab5edc0698d5f6905b0d3f44752>@@@Z 00000001800369e0     libucrt:fflush.obj
 0004:000019ec       $pdata$?fin$0@?0???$?RV<lambda_886d6c58226a84441f68b9f2b8217b83>@@AEAV<lambda_ab61a845afdef5b7c387490eaf3616ee>@@V<lambda_f7f22ab5edc0698d5f6905b0d3f44752>@@@?$__crt_seh_guarded_call@X@@QEAAX$$QEAV<lambda_886d6c58226a84441f68b9f2b8217b83>@@AEAV<lambda_ab61a845afdef5b7c387490eaf3616ee>@@$$QEAV<lambda_f7f22ab5edc0698d5f6905b0d3f44752>@@@Z@4HA 00000001800369ec     libucrt:fflush.obj
 0004:000019f8       $pdata$__pctype_func       00000001800369f8     libucrt:ctype.obj
 0004:00001a04       $pdata$iswctype            0000000180036a04     libucrt:iswctype.obj
 0004:00001a10       $pdata$__acrt_release_locale_ref 0000000180036a10     libucrt:locale_refcounting.obj
 0004:00001a1c       $pdata$__acrt_free_locale  0000000180036a1c     libucrt:locale_refcounting.obj
 0004:00001a28       $pdata$__acrt_locale_free_lc_time_if_unreferenced 0000000180036a28     libucrt:locale_refcounting.obj
 0004:00001a34       $pdata$__acrt_update_thread_locale_data 0000000180036a34     libucrt:locale_refcounting.obj
 0004:00001a40       $pdata$__acrt_update_thread_locale_data$fin$0 0000000180036a40     libucrt:locale_refcounting.obj
 0004:00001a4c       $pdata$_updatetlocinfoEx_nolock 0000000180036a4c     libucrt:locale_refcounting.obj
 0004:00001a58       $pdata$__acrt_DownlevelLocaleNameToLCID 0000000180036a58     libucrt:lcidtoname_downlevel.obj
 0004:00001a64       $pdata$_isleadbyte_l       0000000180036a64     libucrt:_wctype.obj
 0004:00001a70       $pdata$?__mbrtowc_utf8@__crt_mbstring@@YA_KPEA_WPEBD_KPEAU_Mbstatet@@@Z 0000000180036a70     libucrt:mbrtowc.obj
 0004:00001a7c       $pdata$?__mbsrtowcs_utf8@__crt_mbstring@@YA_KPEA_WPEAPEBD_KPEAU_Mbstatet@@@Z 0000000180036a7c     libucrt:mbrtowc.obj
 0004:00001a88       $pdata$__acrt_fp_strflt_to_string 0000000180036a88     libucrt:_fptostr.obj
 0004:00001a94       $pdata$memcpy_s            0000000180036a94     libucrt:cfout.obj
 0004:00001aa0       $pdata$__acrt_fltout       0000000180036aa0     libucrt:cfout.obj
 0004:00001aac       $pdata$?divide@__crt_strtox@@YA_KAEAUbig_integer@1@AEBU21@@Z 0000000180036aac     libucrt:cfout.obj
 0004:00001ab8       $pdata$0$?divide@__crt_strtox@@YA_KAEAUbig_integer@1@AEBU21@@Z 0000000180036ab8     libucrt:cfout.obj
 0004:00001ac4       $pdata$1$?divide@__crt_strtox@@YA_KAEAUbig_integer@1@AEBU21@@Z 0000000180036ac4     libucrt:cfout.obj
 0004:00001ad0       $pdata$fegetround          0000000180036ad0     libucrt:fegetround.obj
 0004:00001adc       $pdata$_fcloseall          0000000180036adc     libucrt:closeall.obj
 0004:00001ae8       $pdata$_fcloseall$fin$0    0000000180036ae8     libucrt:closeall.obj
 0004:00001af4       $pdata$__acrt_stdio_free_buffer_nolock 0000000180036af4     libucrt:_freebuf.obj
 0004:00001b00       $pdata$_isatty             0000000180036b00     libucrt:isatty.obj
 0004:00001b0c       $pdata$__acrt_locale_free_monetary 0000000180036b0c     libucrt:initmon.obj
 0004:00001b18       $pdata$__acrt_locale_free_numeric 0000000180036b18     libucrt:initnum.obj
 0004:00001b24       $pdata$__acrt_locale_free_time 0000000180036b24     libucrt:inittime.obj
 0004:00001b30       $pdata$?free_crt_array_internal@@YAXQEAPEBX_K@Z 0000000180036b30     libucrt:inittime.obj
 0004:00001b3c       $pdata$__acrt_GetStringTypeA 0000000180036b3c     libucrt:getstringtypea.obj
 0004:00001b48       $pdata$_get_osfhandle      0000000180036b48     libucrt:osfinfo.obj
 0004:00001b54       $pdata$_free_osfhnd        0000000180036b54     libucrt:osfinfo.obj
 0004:00001b60       $pdata$__acrt_lowio_create_handle_array 0000000180036b60     libucrt:osfinfo.obj
 0004:00001b6c       $pdata$__acrt_lowio_destroy_handle_array 0000000180036b6c     libucrt:osfinfo.obj
 0004:00001b78       $pdata$__acrt_lowio_ensure_fh_exists 0000000180036b78     libucrt:osfinfo.obj
 0004:00001b84       $pdata$qsort               0000000180036b84     libucrt:qsort.obj
 0004:00001b90       $pdata$4$qsort             0000000180036b90     libucrt:qsort.obj
 0004:00001b9c       $pdata$5$qsort             0000000180036b9c     libucrt:qsort.obj
 0004:00001ba8       $pdata$strncpy_s           0000000180036ba8     libucrt:strncpy_s.obj
 0004:00001bb4       $pdata$strpbrk             0000000180036bb4     libucrt:strpbrk.obj
 0004:00001bc0       $pdata$fallbackMethod      0000000180036bc0     libucrt:strpbrk.obj
 0004:00001bcc       $pdata$_mbsdec_l           0000000180036bcc     libucrt:mbsdec.obj
 0004:00001bd8       $pdata$__acrt_LCMapStringA 0000000180036bd8     libucrt:lcmapstringa.obj
 0004:00001be4       $pdata$?__acrt_LCMapStringA_stat@@YAHPEAU__crt_locale_pointers@@PEB_WKPEBDHPEADHHH@Z 0000000180036be4     libucrt:lcmapstringa.obj
 0004:00001bf0       $pdata$?initialize_multibyte@@YAHXZ 0000000180036bf0     libucrt:multibyte_initializer.obj
 0004:00001bfc       $pdata$_commit             0000000180036bfc     libucrt:commit.obj
 0004:00001c08       $pdata$??$?RV<lambda_a37b2b86f63e897a80ea819b0eb08c01>@@AEAV<lambda_38ce7e780aa69e748d6df282ebc68efe>@@V<lambda_99fb1378e971ab6e7edea83e3a7a83a2>@@@?$__crt_seh_guarded_call@H@@QEAAH$$QEAV<lambda_a37b2b86f63e897a80ea819b0eb08c01>@@AEAV<lambda_38ce7e780aa69e748d6df282ebc68efe>@@$$QEAV<lambda_99fb1378e971ab6e7edea83e3a7a83a2>@@@Z 0000000180036c08     libucrt:commit.obj
 0004:00001c14       $pdata$?fin$0@?0???$?RV<lambda_751a882b2c74d4b022dec766aa51a29a>@@AEAV<lambda_628dfdc04ba53c8bfc02c9951375f3f5>@@V<lambda_f6c7be5f7998530c34de24c7437d6b54>@@@?$__crt_seh_guarded_call@H@@QEAAH$$QEAV<lambda_751a882b2c74d4b022dec766aa51a29a>@@AEAV<lambda_628dfdc04ba53c8bfc02c9951375f3f5>@@$$QEAV<lambda_f6c7be5f7998530c34de24c7437d6b54>@@@Z@4HA 0000000180036c14     libucrt:close.obj
 0004:00001c14       $pdata$?fin$0@?0???$?RV<lambda_a37b2b86f63e897a80ea819b0eb08c01>@@AEAV<lambda_38ce7e780aa69e748d6df282ebc68efe>@@V<lambda_99fb1378e971ab6e7edea83e3a7a83a2>@@@?$__crt_seh_guarded_call@H@@QEAAH$$QEAV<lambda_a37b2b86f63e897a80ea819b0eb08c01>@@AEAV<lambda_38ce7e780aa69e748d6df282ebc68efe>@@$$QEAV<lambda_99fb1378e971ab6e7edea83e3a7a83a2>@@@Z@4HA 0000000180036c14     libucrt:commit.obj
 0004:00001c20       $pdata$_write              0000000180036c20     libucrt:write.obj
 0004:00001c2c       $pdata$_write$fin$0        0000000180036c2c     libucrt:write.obj
 0004:00001c38       $pdata$_write_nolock       0000000180036c38     libucrt:write.obj
 0004:00001c44       $pdata$?write_double_translated_ansi_nolock@@YA?AUwrite_result@?A0x17268360@@HQEBDI@Z 0000000180036c44     libucrt:write.obj
 0004:00001c50       $pdata$?write_text_ansi_nolock@@YA?AUwrite_result@?A0x17268360@@HQEBDI@Z 0000000180036c50     libucrt:write.obj
 0004:00001c5c       $pdata$?write_text_utf16le_nolock@@YA?AUwrite_result@?A0x17268360@@HQEBDI@Z 0000000180036c5c     libucrt:write.obj
 0004:00001c68       $pdata$?write_text_utf8_nolock@@YA?AUwrite_result@?A0x17268360@@HQEBDI@Z 0000000180036c68     libucrt:write.obj
 0004:00001c74       $pdata$?__mbrtoc32_utf8@__crt_mbstring@@YA_KPEA_UPEBD_KPEAU_Mbstatet@@@Z 0000000180036c74     libucrt:mbrtoc32.obj
 0004:00001c80       $pdata$_controlfp_s        0000000180036c80     libucrt:contrlfp.obj
 0004:00001c8c       $pdata$fegetenv            0000000180036c8c     libucrt:fegetenv.obj
 0004:00001c98       $pdata$fesetenv            0000000180036c98     libucrt:fesetenv.obj
 0004:00001ca4       $pdata$feholdexcept        0000000180036ca4     libucrt:feholdexcept.obj
 0004:00001cbc       $pdata$__acrt_fenv_set_control 0000000180036cbc     libucrt:_fenvutils.obj
 0004:00001cc8       $pdata$??$common_lseek_nolock@_J@@YA_JH_JH@Z 0000000180036cc8     libucrt:lseek.obj
 0004:00001cd4       $pdata$fclose              0000000180036cd4     libucrt:fclose.obj
 0004:00001ce0       $pdata$fclose$fin$0        0000000180036ce0     libucrt:fclose.obj
 0004:00001cec       $pdata$_fclose_nolock      0000000180036cec     libucrt:fclose.obj
 0004:00001cf8       $pdata$_putwch_nolock      0000000180036cf8     libucrt:putwch.obj
 0004:00001d04       $pdata$_clearfp            0000000180036d04     libucrt:ieee.obj
 0004:00001d10       $pdata$common_control87    0000000180036d10     libucrt:ieee.obj
 0004:00001d1c       $pdata$_ctrlfp$filt$0      0000000180036d1c     libucrt:fpctrl.obj
 0004:00001d1c       $pdata$common_control87$filt$0 0000000180036d1c     libucrt:ieee.obj
 0004:00001d28       $pdata$_call_matherr       0000000180036d28     libucrt:libm_error.obj
 0004:00001d34       $pdata$_exception_enabled  0000000180036d34     libucrt:libm_error.obj
 0004:00001d40       $pdata$_handle_error       0000000180036d40     libucrt:libm_error.obj
 0004:00001d4c       $pdata$__acrt_initialize_fma3 0000000180036d4c     libucrt:fma3_available.obj
 0004:00001d58       $pdata$_log_special_common 0000000180036d58     libucrt:log_special.obj
 0004:00001d64       $pdata$_log10_special      0000000180036d64     libucrt:log_special.obj
 0004:00001d70       $pdata$_close              0000000180036d70     libucrt:close.obj
 0004:00001d7c       $pdata$_close_nolock       0000000180036d7c     libucrt:close.obj
 0004:00001d88       $pdata$??$?RV<lambda_751a882b2c74d4b022dec766aa51a29a>@@AEAV<lambda_628dfdc04ba53c8bfc02c9951375f3f5>@@V<lambda_f6c7be5f7998530c34de24c7437d6b54>@@@?$__crt_seh_guarded_call@H@@QEAAH$$QEAV<lambda_751a882b2c74d4b022dec766aa51a29a>@@AEAV<lambda_628dfdc04ba53c8bfc02c9951375f3f5>@@$$QEAV<lambda_f6c7be5f7998530c34de24c7437d6b54>@@@Z 0000000180036d88     libucrt:close.obj
 0004:00001d94       $pdata$__dcrt_lowio_ensure_console_output_initialized 0000000180036d94     libucrt:initcon.obj
 0004:00001da0       $pdata$__dcrt_write_console 0000000180036da0     libucrt:initcon.obj
 0004:00001dac       $pdata$__dcrt_terminate_console_output 0000000180036dac     libucrt:initcon.obj
 0004:00001dc4       $pdata$_set_errno_from_matherr 0000000180036dc4     libucrt:fpexcept.obj
 0004:00001dd0       $pdata$_raise_exc          0000000180036dd0     libucrt:fpexcept.obj
 0004:00001ddc       $pdata$_raise_exc_ex       0000000180036ddc     libucrt:fpexcept.obj
 0004:00001de8       $pdata$_clrfp              0000000180036de8     libucrt:fpctrl.obj
 0004:00001df4       $pdata$_ctrlfp             0000000180036df4     libucrt:fpctrl.obj
 0004:00001e00       $pdata$_statfp             0000000180036e00     libucrt:fpctrl.obj
 0004:00001e0c       $pdata$_set_statfp         0000000180036e0c     libucrt:fpctrl.obj
 0004:00001e18       $pdata$_IsNonwritableInCurrentImage 0000000180036e18     LIBCMT:pesect.obj
 0004:00001e24       $pdata$_IsNonwritableInCurrentImage$filt$0 0000000180036e24     LIBCMT:pesect.obj
 0005:00000000       MoveSmall                  0000000180037000     libvcruntime:memcpy.obj
 0005:00000050       MsetTab                    0000000180037050     libvcruntime:memset.obj
 0006:00000220       $R000000                   0000000180038220     POSKeyboard.res
 0006:00000bc0       $R0009A0                   0000000180038bc0     POSKeyboard.res
 0006:00000ca8       $R000A88                   0000000180038ca8     POSKeyboard.res
 0006:00000f10       $R000CF0                   0000000180038f10     POSKeyboard.res
 0006:00001480       $R001260                   0000000180039480     POSKeyboard.res
 0006:00003ba0       $R003980                   000000018003bba0     POSKeyboard.res
 0006:00003bd8       $R0039B8                   000000018003bbd8     POSKeyboard.res
