 OPOSElectronicJournal

 Timestamp is 5ed457d6 (Mon Jun  1 10:20:22 2020)

 Preferred load address is 0000000180000000

 Start         Length     Name                   Class
 0001:00000000 000000c0H .text$di                CODE
 0001:000000c0 00021ff0H .text$mn                CODE
 0001:000220b0 00000040H .text$mn$00             CODE
 0001:000220f0 000004b0H .text$x                 CODE
 0001:000225a0 00000078H .text$yd                CODE
 0002:00000000 00000618H .idata$5                DATA
 0002:00000618 00000028H .00cfg                  DATA
 0002:00000640 00000008H .CRT$XCA                DATA
 0002:00000648 00000008H .CRT$XCL                DATA
 0002:00000650 00000020H .CRT$XCU                DATA
 0002:00000670 00000008H .CRT$XCZ                DATA
 0002:00000678 00000008H .CRT$XIA                DATA
 0002:00000680 00000020H .CRT$XIC                DATA
 0002:000006a0 00000008H .CRT$XIZ                DATA
 0002:000006a8 00000008H .CRT$XLA                DATA
 0002:000006b0 00000008H .CRT$XLZ                DATA
 0002:000006b8 00000008H .CRT$XPA                DATA
 0002:000006c0 00000010H .CRT$XPX                DATA
 0002:000006d0 00000008H .CRT$XPXA               DATA
 0002:000006d8 00000008H .CRT$XPZ                DATA
 0002:000006e0 00000008H .CRT$XTA                DATA
 0002:000006e8 00000008H .CRT$XTZ                DATA
 0002:000006f0 00000000H .gfids$y                DATA
 0002:000006f0 0000ab60H .rdata                  DATA
 0002:0000b250 00000028H .rdata$T                DATA
 0002:0000b278 00000274H .rdata$r                DATA
 0002:0000b4ec 00000414H .rdata$zzzdbg           DATA
 0002:0000b900 00000008H .rtc$IAA                DATA
 0002:0000b908 00000008H .rtc$IZZ                DATA
 0002:0000b910 00000008H .rtc$TAA                DATA
 0002:0000b918 00000008H .rtc$TZZ                DATA
 0002:0000b920 00000004H .tls                    DATA
 0002:0000b924 00000004H .tls$                   DATA
 0002:0000b928 00000008H .tls$ZZZ                DATA
 0002:0000b930 00001720H .xdata                  DATA
 0002:0000d050 00000150H .xdata$x                DATA
 0002:0000d1a0 00000008H ATL$__a                 DATA
 0002:0000d1a8 00000008H ATL$__z                 DATA
 0002:0000d1b0 000000b4H .edata                  DATA
 0002:0000d264 00000078H .idata$2                DATA
 0002:0000d2dc 00000014H .idata$3                DATA
 0002:0000d2f0 00000618H .idata$4                DATA
 0002:0000d908 00000c2aH .idata$6                DATA
 0003:00000000 00000e18H .data                   DATA
 0003:00000e18 000000c8H .data$r                 DATA
 0003:00000ee0 0000140cH .bss                    DATA
 0004:00000000 00002028H .pdata                  DATA
 0005:00000000 00000094H _RDATA                  DATA
 0006:00000000 00000220H .rsrc$01                DATA
 0006:00000220 000050e8H .rsrc$02                DATA

  Address         Publics by Value              Rva+Base               Lib:Object

 0000:00000000       __guard_fids_count         0000000000000000     <absolute>
 0000:00000000       __x64_code_ranges_to_entry_points 0000000000000000     <absolute>
 0000:00000000       __guard_longjmp_count      0000000000000000     <absolute>
 0000:00000000       __guard_longjmp_table      0000000000000000     <absolute>
 0000:00000000       __hybrid_code_map          0000000000000000     <absolute>
 0000:00000000       __arm64x_redirection_metadata 0000000000000000     <absolute>
 0000:00000000       __guard_iat_count          0000000000000000     <absolute>
 0000:00000000       __guard_eh_cont_count      0000000000000000     <absolute>
 0000:00000000       __guard_iat_table          0000000000000000     <absolute>
 0000:00000000       __arm64x_native_entrypoint 0000000000000000     <absolute>
 0000:00000000       __volatile_metadata        0000000000000000     <absolute>
 0000:00000000       __hybrid_code_map_count    0000000000000000     <absolute>
 0000:00000000       __guard_eh_cont_table      0000000000000000     <absolute>
 0000:00000000       __enclave_config           0000000000000000     <absolute>
 0000:00000000       ___safe_se_handler_count   0000000000000000     <absolute>
 0000:00000000       __AbsoluteZero             0000000000000000     <absolute>
 0000:00000000       ___safe_se_handler_table   0000000000000000     <absolute>
 0000:00000000       __guard_fids_table         0000000000000000     <absolute>
 0000:00000000       __hybrid_auxiliary_iat     0000000000000000     <absolute>
 0000:00000000       __dynamic_value_reloc_table 0000000000000000     <absolute>
 0000:00000100       __guard_flags              0000000000000100     <absolute>
 0000:00000000       __ImageBase                0000000180000000     <linker-defined>
 0001:000000c0       ?DupWide@_CW@@AEAAXXZ      00000001800010c0 f   CWString.obj
 0001:000000e8       ?cw_dup@@YAXPEBDAEAHAEAPEA_W1@Z 00000001800010e8 f   CWString.obj
 0001:000001c8       ?cw_memcpy@@YAHPEA_WPEBDH@Z 00000001800011c8 f   CWString.obj
 0001:00000214       ?cw_strcpy@@YAHPEA_WPEBD@Z 0000000180001214 f   CWString.obj
 0001:00000228       ??0CAtlComModule@ATL@@QEAA@XZ 0000000180001228 f i OposVariant.obj
 0001:000002a8       ??0CAtlWinModule@ATL@@QEAA@XZ 00000001800012a8 f i OposVariant.obj
 0001:00000314       ??0OposDispParms@@QEAA@PEAVOposVariant@@H@Z 0000000180001314 f   OposVariant.obj
 0001:000003bc       ??1OposDispParms@@QEAA@XZ  00000001800013bc f   OposVariant.obj
 0001:000003d4       ??_Estringdispid@CComTypeInfoHolder@ATL@@QEAAPEAXI@Z 00000001800013d4 f i OposVariant.obj
 0001:00000478       ?AtlWinModuleTerm@ATL@@YAJPEAU_ATL_WIN_MODULE70@1@PEAUHINSTANCE__@@@Z 0000000180001478 f i OposVariant.obj
 0001:00000528       ?ChangeBSTR@OposVariant@@QEAAXPEAPEA_WAEAJ@Z 0000000180001528 f   OposVariant.obj
 0001:00000588       ?ChangeCURRENCY@OposVariant@@QEAAXPEATtagCY@@AEAJ@Z 0000000180001588 f   OposVariant.obj
 0001:000005e8       ?ChangeLONG@OposVariant@@QEAAXPEAJAEAJ@Z 00000001800015e8 f   OposVariant.obj
 0001:00000644       ?GetLONG@OposVariant@@QEAAJXZ 0000000180001644 f   OposVariant.obj
 0001:00000668       ?SetBSTR@OposVariant@@QEAAXPEA_WAEAJ@Z 0000000180001668 f   OposVariant.obj
 0001:000006a8       ?SetBSTR_Copy@OposVariant@@QEAAXPEA_WAEAJ@Z 00000001800016a8 f   OposVariant.obj
 0001:00000718       ?SetBSTR_InOutPtr@OposVariant@@QEAA_NPEAPEA_WAEAJ@Z 0000000180001718 f   OposVariant.obj
 0001:00000768       ?SetBSTR_OutPtr@OposVariant@@QEAA_NPEAPEA_WAEAJ@Z 0000000180001768 f   OposVariant.obj
 0001:00000784       ?SetDispatch_Ptr@OposVariant@@QEAAXPEAUIDispatch@@AEAJ@Z 0000000180001784 f   OposVariant.obj
 0001:000007dc       ?SetLONG@OposVariant@@QEAAXJ@Z 00000001800017dc f   OposVariant.obj
 0001:0000080c       ?SetLONG_Ptr@OposVariant@@QEAAXPEAJAEAJ@Z 000000018000180c f   OposVariant.obj
 0001:00000858       ?SetString@OposVariant@@QEAAXPEB_WAEAJ@Z 0000000180001858 f   OposVariant.obj
 0001:000008bc       ?SetVARIANT_BOOL@OposVariant@@QEAAXF@Z 00000001800018bc f   OposVariant.obj
 0001:000008f4       ?Term@CAtlComModule@ATL@@QEAAXXZ 00000001800018f4 f i OposVariant.obj
 0001:00000964       ?_AtlInitializeCriticalSectionEx@ATL@@YAHPEAU_RTL_CRITICAL_SECTION@@KK@Z 0000000180001964 f i OposVariant.obj
 0001:0000096c       ?_AtlRaiseException@ATL@@YAXKK@Z 000000018000196c f i OposVariant.obj
 0001:0000097c       ?GetWindowProc@?$CWindowImplBaseT@VCWindow@ATL@@V?$CWinTraits@$0FGAAAAAA@$0A@@2@@ATL@@UEAAP6A_JPEAUHWND__@@I_K_J@ZXZ 000000018000197c f i ElectronicJournal.obj
 0001:00000984       ?StartWindowProc@?$CWindowImplBaseT@VCWindow@ATL@@V?$CWinTraits@$0FGAAAAAA@$0A@@2@@ATL@@SA_JPEAUHWND__@@I_K_J@Z 0000000180001984 f i ElectronicJournal.obj
 0001:00000a48       ?ObjectMain@CComObjectRootBase@ATL@@SAX_N@Z 0000000180001a48 f i ElectronicJournal.obj
 0001:00000a48       ?OnFinalMessage@?$CWindowImplBaseT@VCWindow@ATL@@V?$CWinTraits@$0FGAAAAAA@$0A@@2@@ATL@@UEAAXPEAUHWND__@@@Z 0000000180001a48 f i ElectronicJournal.obj
 0001:00000a48       _guard_check_icall_nop     0000000180001a48 f i LIBCMT:guard_support.obj
 0001:00000a4c       ?GetTypeInfoCount@?$IDispatchImpl@UIOPOSElectronicJournal@@$1?IID_IOPOSElectronicJournal@@3U_GUID@@B$1?LIBID_OposElectronicJournal_CCO@@3U3@B$00$0A@VCComTypeInfoHolder@ATL@@@ATL@@UEAAJPEAI@Z 0000000180001a4c f i ElectronicJournal.obj
 0001:00000a60       ?GetTypeInfo@?$IDispatchImpl@UIOPOSElectronicJournal@@$1?IID_IOPOSElectronicJournal@@3U_GUID@@B$1?LIBID_OposElectronicJournal_CCO@@3U3@B$00$0A@VCComTypeInfoHolder@ATL@@@ATL@@UEAAJIKPEAPEAUITypeInfo@@@Z 0000000180001a60 f i ElectronicJournal.obj
 0001:00000ac4       ?GetIDsOfNames@?$IDispatchImpl@UIOPOSElectronicJournal@@$1?IID_IOPOSElectronicJournal@@3U_GUID@@B$1?LIBID_OposElectronicJournal_CCO@@3U3@B$00$0A@VCComTypeInfoHolder@ATL@@@ATL@@UEAAJAEBU_GUID@@PEAPEA_WIKPEAJ@Z 0000000180001ac4 f i ElectronicJournal.obj
 0001:00000ad0       ?Invoke@?$IDispatchImpl@UIOPOSElectronicJournal@@$1?IID_IOPOSElectronicJournal@@3U_GUID@@B$1?LIBID_OposElectronicJournal_CCO@@3U3@B$00$0A@VCComTypeInfoHolder@ATL@@@ATL@@UEAAJJAEBU_GUID@@KGPEAUtagDISPPARAMS@@PEAUtagVARIANT@@PEAUtagEXCEPINFO@@PEAI@Z 0000000180001ad0 f i ElectronicJournal.obj
 0001:00000b60       ?CreateControlWindow@?$CComControl@VCOPOSElectronicJournal@@V?$CWindowImpl@VCOPOSElectronicJournal@@VCWindow@ATL@@V?$CWinTraits@$0FGAAAAAA@$0A@@3@@ATL@@@ATL@@UEAAPEAUHWND__@@PEAU3@AEAUtagRECT@@@Z 0000000180001b60 f i ElectronicJournal.obj
 0001:00000b98       ?ControlQueryInterface@?$CComControl@VCOPOSElectronicJournal@@V?$CWindowImpl@VCOPOSElectronicJournal@@VCWindow@ATL@@V?$CWinTraits@$0FGAAAAAA@$0A@@3@@ATL@@@ATL@@UEAAJAEBU_GUID@@PEAPEAX@Z 0000000180001b98 f i ElectronicJournal.obj
 0001:00000bac       ?GetClassID@?$IPersistStreamInitImpl@VCOPOSElectronicJournal@@@ATL@@UEAAJPEAU_GUID@@@Z 0000000180001bac f i ElectronicJournal.obj
 0001:00000bac       ?GetUserClassID@?$IOleObjectImpl@VCOPOSElectronicJournal@@@ATL@@UEAAJPEAU_GUID@@@Z 0000000180001bac f i ElectronicJournal.obj
 0001:00000bac       ?GetClassID@?$IPersistStorageImpl@VCOPOSElectronicJournal@@@ATL@@UEAAJPEAU_GUID@@@Z 0000000180001bac f i ElectronicJournal.obj
 0001:00000bc8       ?IsDirty@?$IPersistStreamInitImpl@VCOPOSElectronicJournal@@@ATL@@UEAAJXZ 0000000180001bc8 f i ElectronicJournal.obj
 0001:00000be4       ?Load@?$IPersistStreamInitImpl@VCOPOSElectronicJournal@@@ATL@@UEAAJPEAUIStream@@@Z 0000000180001be4 f i ElectronicJournal.obj
 0001:00000bfc       ?Save@?$IPersistStreamInitImpl@VCOPOSElectronicJournal@@@ATL@@UEAAJPEAUIStream@@H@Z 0000000180001bfc f i ElectronicJournal.obj
 0001:00000c14       ?GetSizeMax@?$IPersistStreamInitImpl@VCOPOSElectronicJournal@@@ATL@@UEAAJPEAT_ULARGE_INTEGER@@@Z 0000000180001c14 f i ElectronicJournal.obj
 0001:00000e40       ?InitNew@?$IPersistStreamInitImpl@VCOPOSElectronicJournal@@@ATL@@UEAAJXZ 0000000180001e40 f i ElectronicJournal.obj
 0001:00000e58       ?QueryGetData@?$IDataObjectImpl@VCOPOSElectronicJournal@@@ATL@@UEAAJPEAUtagFORMATETC@@@Z 0000000180001e58 f i ElectronicJournal.obj
 0001:00000e58       ?OnMnemonic@?$IOleControlImpl@VCOPOSElectronicJournal@@@ATL@@UEAAJPEAUtagMSG@@@Z 0000000180001e58 f i ElectronicJournal.obj
 0001:00000e58       ?ReactivateAndUndo@?$IOleInPlaceObjectWindowlessImpl@VCOPOSElectronicJournal@@@ATL@@UEAAJXZ 0000000180001e58 f i ElectronicJournal.obj
 0001:00000e58       ?GetCanonicalFormatEtc@?$IDataObjectImpl@VCOPOSElectronicJournal@@@ATL@@UEAAJPEAUtagFORMATETC@@0@Z 0000000180001e58 f i ElectronicJournal.obj
 0001:00000e58       ?GetControlInfo@?$IOleControlImpl@VCOPOSElectronicJournal@@@ATL@@UEAAJPEAUtagCONTROLINFO@@@Z 0000000180001e58 f i ElectronicJournal.obj
 0001:00000e58       ?InitFromData@?$IOleObjectImpl@VCOPOSElectronicJournal@@@ATL@@UEAAJPEAUIDataObject@@HK@Z 0000000180001e58 f i ElectronicJournal.obj
 0001:00000e58       ?SetColorScheme@?$IOleObjectImpl@VCOPOSElectronicJournal@@@ATL@@UEAAJPEAUtagLOGPALETTE@@@Z 0000000180001e58 f i ElectronicJournal.obj
 0001:00000e58       ?GetRect@?$IViewObjectExImpl@VCOPOSElectronicJournal@@@ATL@@UEAAJKPEAU_RECTL@@@Z 0000000180001e58 f i ElectronicJournal.obj
 0001:00000e58       ?EnumFormatEtc@?$IDataObjectImpl@VCOPOSElectronicJournal@@@ATL@@UEAAJKPEAPEAUIEnumFORMATETC@@@Z 0000000180001e58 f i ElectronicJournal.obj
 0001:00000e58       ?GetColorSet@?$IViewObjectExImpl@VCOPOSElectronicJournal@@@ATL@@UEAAJKJPEAXPEAUtagDVTARGETDEVICE@@PEAUHDC__@@PEAPEAUtagLOGPALETTE@@@Z 0000000180001e58 f i ElectronicJournal.obj
 0001:00000e58       ?SetMoniker@?$IOleObjectImpl@VCOPOSElectronicJournal@@@ATL@@UEAAJKPEAUIMoniker@@@Z 0000000180001e58 f i ElectronicJournal.obj
 0001:00000e58       ?GetMoniker@?$IOleObjectImpl@VCOPOSElectronicJournal@@@ATL@@UEAAJKKPEAPEAUIMoniker@@@Z 0000000180001e58 f i ElectronicJournal.obj
 0001:00000e58       ?GetClipboardData@?$IOleObjectImpl@VCOPOSElectronicJournal@@@ATL@@UEAAJKPEAPEAUIDataObject@@@Z 0000000180001e58 f i ElectronicJournal.obj
 0001:00000e58       ?SetData@?$IDataObjectImpl@VCOPOSElectronicJournal@@@ATL@@UEAAJPEAUtagFORMATETC@@PEAUtagSTGMEDIUM@@H@Z 0000000180001e58 f i ElectronicJournal.obj
 0001:00000e58       ?Unfreeze@?$IViewObjectExImpl@VCOPOSElectronicJournal@@@ATL@@UEAAJK@Z 0000000180001e58 f i ElectronicJournal.obj
 0001:00000e58       ?ContextSensitiveHelp@?$IOleInPlaceObjectWindowlessImpl@VCOPOSElectronicJournal@@@ATL@@UEAAJH@Z 0000000180001e58 f i ElectronicJournal.obj
 0001:00000e58       ?ContextSensitiveHelp@?$IOleInPlaceActiveObjectImpl@VCOPOSElectronicJournal@@@ATL@@UEAAJH@Z 0000000180001e58 f i ElectronicJournal.obj
 0001:00000e58       ?GetDataHere@?$IDataObjectImpl@VCOPOSElectronicJournal@@@ATL@@UEAAJPEAUtagFORMATETC@@PEAUtagSTGMEDIUM@@@Z 0000000180001e58 f i ElectronicJournal.obj
 0001:00000e58       ?QueryInterface@CRegObject@ATL@@UEAAJAEBU_GUID@@PEAPEAX@Z 0000000180001e58 f i ElectronicJournal.obj
 0001:00000e58       ?Freeze@?$IViewObjectExImpl@VCOPOSElectronicJournal@@@ATL@@UEAAJKJPEAXPEAK@Z 0000000180001e58 f i ElectronicJournal.obj
 0001:00000e58       ?GetDropTarget@?$IOleInPlaceObjectWindowlessImpl@VCOPOSElectronicJournal@@@ATL@@UEAAJPEAPEAUIDropTarget@@@Z 0000000180001e58 f i ElectronicJournal.obj
 0001:00000e60       ?HandsOffStorage@?$IPersistStorageImpl@VCOPOSElectronicJournal@@@ATL@@UEAAJXZ 0000000180001e60 f i ElectronicJournal.obj
 0001:00000e60       ?Release@CRegObject@ATL@@UEAAKXZ 0000000180001e60 f i ElectronicJournal.obj
 0001:00000e60       ?EnableModeless@?$IOleInPlaceActiveObjectImpl@VCOPOSElectronicJournal@@@ATL@@UEAAJH@Z 0000000180001e60 f i ElectronicJournal.obj
 0001:00000e60       ?OnAmbientPropertyChange@?$IOleControlImpl@VCOPOSElectronicJournal@@@ATL@@UEAAJJ@Z 0000000180001e60 f i ElectronicJournal.obj
 0001:00000e60       ?SaveCompleted@?$IPersistStorageImpl@VCOPOSElectronicJournal@@@ATL@@UEAAJPEAUIStorage@@@Z 0000000180001e60 f i ElectronicJournal.obj
 0001:00000e60       ?GetCategoryMap@CComObjectRootBase@ATL@@SAPEBU_ATL_CATMAP_ENTRY@2@XZ 0000000180001e60 f i ElectronicJournal.obj
 0001:00000e60       ?Update@?$IOleObjectImpl@VCOPOSElectronicJournal@@@ATL@@UEAAJXZ 0000000180001e60 f i ElectronicJournal.obj
 0001:00000e60       ?SetHostNames@?$IOleObjectImpl@VCOPOSElectronicJournal@@@ATL@@UEAAJPEB_W0@Z 0000000180001e60 f i ElectronicJournal.obj
 0001:00000e60       ?GetObjectDescription@?$CComCoClass@VCOPOSElectronicJournal@@$1?CLSID_OPOSElectronicJournal@@3U_GUID@@B@ATL@@SAPEB_WXZ 0000000180001e60 f i ElectronicJournal.obj
 0001:00000e60       ?OnFrameWindowActivate@?$IOleInPlaceActiveObjectImpl@VCOPOSElectronicJournal@@@ATL@@UEAAJH@Z 0000000180001e60 f i ElectronicJournal.obj
 0001:00000e60       ?IsUpToDate@?$IOleObjectImpl@VCOPOSElectronicJournal@@@ATL@@UEAAJXZ 0000000180001e60 f i ElectronicJournal.obj
 0001:00000e60       ?ResizeBorder@?$IOleInPlaceActiveObjectImpl@VCOPOSElectronicJournal@@@ATL@@UEAAJPEBUtagRECT@@PEAUIOleInPlaceUIWindow@@H@Z 0000000180001e60 f i ElectronicJournal.obj
 0001:00000e64       ?SetClientSite@?$IOleObjectImpl@VCOPOSElectronicJournal@@@ATL@@UEAAJPEAUIOleClientSite@@@Z 0000000180001e64 f i ElectronicJournal.obj
 0001:00000e80       ?GetClientSite@?$IOleObjectImpl@VCOPOSElectronicJournal@@@ATL@@UEAAJPEAPEAUIOleClientSite@@@Z 0000000180001e80 f i ElectronicJournal.obj
 0001:00000ec8       ?Close@?$IOleObjectImpl@VCOPOSElectronicJournal@@@ATL@@UEAAJK@Z 0000000180001ec8 f i ElectronicJournal.obj
 0001:00000ee4       ?DoVerb@?$IOleObjectImpl@VCOPOSElectronicJournal@@@ATL@@UEAAJJPEAUtagMSG@@PEAUIOleClientSite@@JPEAUHWND__@@PEBUtagRECT@@@Z 0000000180001ee4 f i ElectronicJournal.obj
 0001:00001088       ?EnumVerbs@?$IOleObjectImpl@VCOPOSElectronicJournal@@@ATL@@UEAAJPEAPEAUIEnumOLEVERB@@@Z 0000000180002088 f i ElectronicJournal.obj
 0001:000010a4       ?GetUserType@?$IOleObjectImpl@VCOPOSElectronicJournal@@@ATL@@UEAAJKPEAPEA_W@Z 00000001800020a4 f i ElectronicJournal.obj
 0001:000010b4       ?SetExtent@?$IOleObjectImpl@VCOPOSElectronicJournal@@@ATL@@UEAAJKPEAUtagSIZE@@@Z 00000001800020b4 f i ElectronicJournal.obj
 0001:000010d0       ?GetExtent@?$IOleObjectImpl@VCOPOSElectronicJournal@@@ATL@@UEAAJKPEAUtagSIZE@@@Z 00000001800020d0 f i ElectronicJournal.obj
 0001:00001100       ?Advise@?$IOleObjectImpl@VCOPOSElectronicJournal@@@ATL@@UEAAJPEAUIAdviseSink@@PEAK@Z 0000000180002100 f i ElectronicJournal.obj
 0001:0000115c       ?Unadvise@?$IOleObjectImpl@VCOPOSElectronicJournal@@@ATL@@UEAAJK@Z 000000018000215c f i ElectronicJournal.obj
 0001:00001194       ?EnumAdvise@?$IOleObjectImpl@VCOPOSElectronicJournal@@@ATL@@UEAAJPEAPEAUIEnumSTATDATA@@@Z 0000000180002194 f i ElectronicJournal.obj
 0001:000011dc       ?GetMiscStatus@?$IOleObjectImpl@VCOPOSElectronicJournal@@@ATL@@UEAAJKPEAK@Z 00000001800021dc f i ElectronicJournal.obj
 0001:000011ec       ?GetWindow@?$IOleInPlaceActiveObjectImpl@VCOPOSElectronicJournal@@@ATL@@UEAAJPEAPEAUHWND__@@@Z 00000001800021ec f i ElectronicJournal.obj
 0001:00001240       ?TranslateAcceleratorW@?$IOleInPlaceActiveObjectImpl@VCOPOSElectronicJournal@@@ATL@@UEAAJPEAUtagMSG@@@Z 0000000180002240 f i ElectronicJournal.obj
 0001:00001334       ?OnDocWindowActivate@?$IOleInPlaceActiveObjectImpl@VCOPOSElectronicJournal@@@ATL@@UEAAJH@Z 0000000180002334 f i ElectronicJournal.obj
 0001:00001360       ?Draw@?$IViewObjectExImpl@VCOPOSElectronicJournal@@@ATL@@UEAAJKJPEAXPEAUtagDVTARGETDEVICE@@PEAUHDC__@@2PEBU_RECTL@@3P6AH_K@Z4@Z 0000000180002360 f i ElectronicJournal.obj
 0001:000013c4       ?SetAdvise@?$IViewObjectExImpl@VCOPOSElectronicJournal@@@ATL@@UEAAJKKPEAUIAdviseSink@@@Z 00000001800023c4 f i ElectronicJournal.obj
 0001:00001418       ?GetAdvise@?$IViewObjectExImpl@VCOPOSElectronicJournal@@@ATL@@UEAAJPEAK0PEAPEAUIAdviseSink@@@Z 0000000180002418 f i ElectronicJournal.obj
 0001:00001454       ?GetExtent@?$IViewObjectExImpl@VCOPOSElectronicJournal@@@ATL@@UEAAJKJPEAUtagDVTARGETDEVICE@@PEAUtagSIZE@@@Z 0000000180002454 f i ElectronicJournal.obj
 0001:00001484       ?GetViewStatus@?$IViewObjectExImpl@VCOPOSElectronicJournal@@@ATL@@UEAAJPEAK@Z 0000000180002484 f i ElectronicJournal.obj
 0001:00001498       ?QueryHitPoint@?$IViewObjectExImpl@VCOPOSElectronicJournal@@@ATL@@UEAAJKPEBUtagRECT@@UtagPOINT@@JPEAK@Z 0000000180002498 f i ElectronicJournal.obj
 0001:000014dc       ?QueryHitRect@?$IViewObjectExImpl@VCOPOSElectronicJournal@@@ATL@@UEAAJKPEBUtagRECT@@0JPEAK@Z 00000001800024dc f i ElectronicJournal.obj
 0001:00001544       ?GetNaturalExtent@?$IViewObjectExImpl@VCOPOSElectronicJournal@@@ATL@@UEAAJKJPEAUtagDVTARGETDEVICE@@PEAUHDC__@@PEAUtagExtentInfo@@PEAUtagSIZE@@@Z 0000000180002544 f i ElectronicJournal.obj
 0001:0000158c       ?GetWindow@?$IOleInPlaceObjectWindowlessImpl@VCOPOSElectronicJournal@@@ATL@@UEAAJPEAPEAUHWND__@@@Z 000000018000258c f i ElectronicJournal.obj
 0001:000015e0       ?InPlaceDeactivate@?$IOleInPlaceObjectWindowlessImpl@VCOPOSElectronicJournal@@@ATL@@UEAAJXZ 00000001800025e0 f i ElectronicJournal.obj
 0001:000015fc       ?UIDeactivate@?$IOleInPlaceObjectWindowlessImpl@VCOPOSElectronicJournal@@@ATL@@UEAAJXZ 00000001800025fc f i ElectronicJournal.obj
 0001:00001618       ?SetObjectRects@?$IOleInPlaceObjectWindowlessImpl@VCOPOSElectronicJournal@@@ATL@@UEAAJPEBUtagRECT@@0@Z 0000000180002618 f i ElectronicJournal.obj
 0001:00001634       ?OnWindowMessage@?$IOleInPlaceObjectWindowlessImpl@VCOPOSElectronicJournal@@@ATL@@UEAAJI_K_JPEA_J@Z 0000000180002634 f i ElectronicJournal.obj
 0001:000016fc       ?EnumConnectionPoints@?$IConnectionPointContainerImpl@VCOPOSElectronicJournal@@@ATL@@UEAAJPEAPEAUIEnumConnectionPoints@@@Z 00000001800026fc f i ElectronicJournal.obj
 0001:00001948       ?FindConnectionPoint@?$IConnectionPointContainerImpl@VCOPOSElectronicJournal@@@ATL@@UEAAJAEBU_GUID@@PEAPEAUIConnectionPoint@@@Z 0000000180002948 f i ElectronicJournal.obj
 0001:00001a18       ?IsDirty@?$IPersistStorageImpl@VCOPOSElectronicJournal@@@ATL@@UEAAJXZ 0000000180002a18 f i ElectronicJournal.obj
 0001:00001a58       ?InitNew@?$IPersistStorageImpl@VCOPOSElectronicJournal@@@ATL@@UEAAJPEAUIStorage@@@Z 0000000180002a58 f i ElectronicJournal.obj
 0001:00001a98       ?Load@?$IPersistStorageImpl@VCOPOSElectronicJournal@@@ATL@@UEAAJPEAUIStorage@@@Z 0000000180002a98 f i ElectronicJournal.obj
 0001:00001b38       ?Save@?$IPersistStorageImpl@VCOPOSElectronicJournal@@@ATL@@UEAAJPEAUIStorage@@H@Z 0000000180002b38 f i ElectronicJournal.obj
 0001:00001be8       ?GetPages@?$ISpecifyPropertyPagesImpl@VCOPOSElectronicJournal@@@ATL@@UEAAJPEAUtagCAUUID@@@Z 0000000180002be8 f i ElectronicJournal.obj
 0001:00001bf4       ?QuickActivate@?$IQuickActivateImpl@VCOPOSElectronicJournal@@@ATL@@UEAAJPEAUtagQACONTAINER@@PEAUtagQACONTROL@@@Z 0000000180002bf4 f i ElectronicJournal.obj
 0001:00001c10       ?SetContentExtent@?$IQuickActivateImpl@VCOPOSElectronicJournal@@@ATL@@UEAAJPEAUtagSIZE@@@Z 0000000180002c10 f i ElectronicJournal.obj
 0001:00001c44       ?GetContentExtent@?$IQuickActivateImpl@VCOPOSElectronicJournal@@@ATL@@UEAAJPEAUtagSIZE@@@Z 0000000180002c44 f i ElectronicJournal.obj
 0001:00001c7c       ?GetData@?$IDataObjectImpl@VCOPOSElectronicJournal@@@ATL@@UEAAJPEAUtagFORMATETC@@PEAUtagSTGMEDIUM@@@Z 0000000180002c7c f i ElectronicJournal.obj
 0001:00001c98       ?DAdvise@?$IDataObjectImpl@VCOPOSElectronicJournal@@@ATL@@UEAAJPEAUtagFORMATETC@@KPEAUIAdviseSink@@PEAK@Z 0000000180002c98 f i ElectronicJournal.obj
 0001:00001d20       ?DUnadvise@?$IDataObjectImpl@VCOPOSElectronicJournal@@@ATL@@UEAAJK@Z 0000000180002d20 f i ElectronicJournal.obj
 0001:00001d4c       ?EnumDAdvise@?$IDataObjectImpl@VCOPOSElectronicJournal@@@ATL@@UEAAJPEAPEAUIEnumSTATDATA@@@Z 0000000180002d4c f i ElectronicJournal.obj
 0001:00001d88       ?GetClassInfoW@?$IProvideClassInfo2Impl@$1?CLSID_OPOSElectronicJournal@@3U_GUID@@B$1?DIID__IOPOSElectronicJournalEvents@@3U2@B$1?LIBID_OposElectronicJournal_CCO@@3U2@B$00$0A@VCComTypeInfoHolder@ATL@@@ATL@@UEAAJPEAPEAUITypeInfo@@@Z 0000000180002d88 f i ElectronicJournal.obj
 0001:00001de0       ?GetGUID@?$IProvideClassInfo2Impl@$1?CLSID_OPOSElectronicJournal@@3U_GUID@@B$1?DIID__IOPOSElectronicJournalEvents@@3U2@B$1?LIBID_OposElectronicJournal_CCO@@3U2@B$00$0A@VCComTypeInfoHolder@ATL@@@ATL@@UEAAJKPEAU_GUID@@@Z 0000000180002de0 f i ElectronicJournal.obj
 0001:00001e14       ?FAccessAllowed@?$IObjectSafetyImpl@VCOPOSElectronicJournal@@$02@ATL@@MEAAHXZ 0000000180002e14 f i ElectronicJournal.obj
 0001:00001e14       ?AddRef@CRegObject@ATL@@UEAAKXZ 0000000180002e14 f i ElectronicJournal.obj
 0001:00001e14       _get_startup_argv_mode     0000000180002e14 f i LIBCMT:argv_mode.obj
 0001:00001e1c       ?GetInterfaceSafetyOptions@?$IObjectSafetyImpl@VCOPOSElectronicJournal@@$02@ATL@@UEAAJAEBU_GUID@@PEAK1@Z 0000000180002e1c f i ElectronicJournal.obj
 0001:00001eb0       ?SetInterfaceSafetyOptions@?$IObjectSafetyImpl@VCOPOSElectronicJournal@@$02@ATL@@UEAAJAEBU_GUID@@KK@Z 0000000180002eb0 f i ElectronicJournal.obj
 0001:00001f54       ?_LocCPQueryInterface@?$IConnectionPointImpl@VCOPOSElectronicJournal@@$1?IID_IPropertyNotifySink@@3U_GUID@@BVCComDynamicUnkArray@ATL@@@ATL@@UEAAJAEBU_GUID@@PEAPEAX@Z 0000000180002f54 f i ElectronicJournal.obj
 0001:00001f54       ?_LocCPQueryInterface@?$IConnectionPointImpl@VCOPOSElectronicJournal@@$1?DIID__IOPOSElectronicJournalEvents@@3U_GUID@@BVCComDynamicUnkArray@ATL@@@ATL@@UEAAJAEBU_GUID@@PEAPEAX@Z 0000000180002f54 f i ElectronicJournal.obj
 0001:00001fc4       ?GetConnectionInterface@?$IConnectionPointImpl@VCOPOSElectronicJournal@@$1?IID_IPropertyNotifySink@@3U_GUID@@BVCComDynamicUnkArray@ATL@@@ATL@@UEAAJPEAU_GUID@@@Z 0000000180002fc4 f i ElectronicJournal.obj
 0001:00001fe0       ?GetConnectionPointContainer@?$IConnectionPointImpl@VCOPOSElectronicJournal@@$1?IID_IPropertyNotifySink@@3U_GUID@@BVCComDynamicUnkArray@ATL@@@ATL@@UEAAJPEAPEAUIConnectionPointContainer@@@Z 0000000180002fe0 f i ElectronicJournal.obj
 0001:00002000       ?Advise@?$IConnectionPointImpl@VCOPOSElectronicJournal@@$1?DIID__IOPOSElectronicJournalEvents@@3U_GUID@@BVCComDynamicUnkArray@ATL@@@ATL@@UEAAJPEAUIUnknown@@PEAK@Z 0000000180003000 f i ElectronicJournal.obj
 0001:00002000       ?Advise@?$IConnectionPointImpl@VCOPOSElectronicJournal@@$1?IID_IPropertyNotifySink@@3U_GUID@@BVCComDynamicUnkArray@ATL@@@ATL@@UEAAJPEAUIUnknown@@PEAK@Z 0000000180003000 f i ElectronicJournal.obj
 0001:000020bc       ?Unadvise@?$IConnectionPointImpl@VCOPOSElectronicJournal@@$1?DIID__IOPOSElectronicJournalEvents@@3U_GUID@@BVCComDynamicUnkArray@ATL@@@ATL@@UEAAJK@Z 00000001800030bc f i ElectronicJournal.obj
 0001:000020bc       ?Unadvise@?$IConnectionPointImpl@VCOPOSElectronicJournal@@$1?IID_IPropertyNotifySink@@3U_GUID@@BVCComDynamicUnkArray@ATL@@@ATL@@UEAAJK@Z 00000001800030bc f i ElectronicJournal.obj
 0001:00002124       ?EnumConnections@?$IConnectionPointImpl@VCOPOSElectronicJournal@@$1?IID_IPropertyNotifySink@@3U_GUID@@BVCComDynamicUnkArray@ATL@@@ATL@@UEAAJPEAPEAUIEnumConnections@@@Z 0000000180003124 f i ElectronicJournal.obj
 0001:00002124       ?EnumConnections@?$IConnectionPointImpl@VCOPOSElectronicJournal@@$1?DIID__IOPOSElectronicJournalEvents@@3U_GUID@@BVCComDynamicUnkArray@ATL@@@ATL@@UEAAJPEAPEAUIEnumConnections@@@Z 0000000180003124 f i ElectronicJournal.obj
 0001:000022d0       ?GetConnectionInterface@?$IConnectionPointImpl@VCOPOSElectronicJournal@@$1?DIID__IOPOSElectronicJournalEvents@@3U_GUID@@BVCComDynamicUnkArray@ATL@@@ATL@@UEAAJPEAU_GUID@@@Z 00000001800032d0 f i ElectronicJournal.obj
 0001:000022ec       ?GetConnectionPointContainer@?$IConnectionPointImpl@VCOPOSElectronicJournal@@$1?DIID__IOPOSElectronicJournalEvents@@3U_GUID@@BVCComDynamicUnkArray@ATL@@@ATL@@UEAAJPEAPEAUIConnectionPointContainer@@@Z 00000001800032ec f i ElectronicJournal.obj
 0001:0000230c       ?UpdateRegistry@COPOSElectronicJournal@@SAJH@Z 000000018000330c f i ElectronicJournal.obj
 0001:00002324       ?ProcessWindowMessage@COPOSElectronicJournal@@UEAAHPEAUHWND__@@I_K_JAEA_JK@Z 0000000180003324 f i ElectronicJournal.obj
 0001:000023ac       ?SOData@COPOSElectronicJournal@@MEAAJJ@Z 00000001800033ac f i ElectronicJournal.obj
 0001:000023fc       ?SODirectIO@COPOSElectronicJournal@@MEAAJJPEAJPEAPEA_W@Z 00000001800033fc f i ElectronicJournal.obj
 0001:00002474       ?SOError@COPOSElectronicJournal@@MEAAJJJJPEAJ@Z 0000000180003474 f i ElectronicJournal.obj
 0001:000024fc       ?SOOutputComplete@COPOSElectronicJournal@@MEAAJJ@Z 00000001800034fc f i ElectronicJournal.obj
 0001:0000254c       ?SOStatusUpdate@COPOSElectronicJournal@@MEAAJJ@Z 000000018000354c f i ElectronicJournal.obj
 0001:0000259c       ?Lock@CAtlModule@ATL@@UEAAJXZ 000000018000359c f i ElectronicJournal.obj
 0001:000025ac       ?Unlock@CAtlModule@ATL@@UEAAJXZ 00000001800035ac f i ElectronicJournal.obj
 0001:000025b8       ?GetLockCount@CAtlModule@ATL@@UEAAJXZ 00000001800035b8 f i ElectronicJournal.obj
 0001:000025bc       ?GetGITPtr@CAtlModule@ATL@@UEAAJPEAPEAUIGlobalInterfaceTable@@@Z 00000001800035bc f i ElectronicJournal.obj
 0001:0000262c       ?AddCommonRGSReplacements@?$CAtlModuleT@VCComModule@ATL@@@ATL@@UEAAJPEAUIRegistrarBase@@@Z 000000018000362c f i ElectronicJournal.obj
 0001:00002644       ?CreateInstance@?$CComCreator@V?$CComObjectCached@VCComClassFactory@ATL@@@ATL@@@ATL@@SAJPEAXAEBU_GUID@@PEAPEAX@Z 0000000180003644 f i ElectronicJournal.obj
 0001:00002768       ?CreateInstance@?$CComCreator2@V?$CComCreator@V?$CComObject@VCOPOSElectronicJournal@@@ATL@@@ATL@@V?$CComCreator@V?$CComAggObject@VCOPOSElectronicJournal@@@ATL@@@2@@ATL@@SAJPEAXAEBU_GUID@@PEAPEAX@Z 0000000180003768 f i ElectronicJournal.obj
 0001:00002778       ?UpdateRegistryFromResourceD@CComModule@ATL@@UEAAJIHPEAU_ATL_REGMAP_ENTRY@2@@Z 0000000180003778 f i ElectronicJournal.obj
 0001:00002778       ?UpdateRegistryFromResourceD@CComModule@ATL@@UEAAJPEB_WHPEAU_ATL_REGMAP_ENTRY@2@@Z 0000000180003778 f i ElectronicJournal.obj
 0001:00002780       ?UpdateRegistryFromResource@CComModule@ATL@@UEAAJPEB_WHPEAU_ATL_REGMAP_ENTRY@2@@Z 0000000180003780 f i ElectronicJournal.obj
 0001:00002788       ?UpdateRegistryFromResource@CComModule@ATL@@UEAAJIHPEAU_ATL_REGMAP_ENTRY@2@@Z 0000000180003788 f i ElectronicJournal.obj
 0001:00002790       ?AddRef@?$CComObjectCached@VCComClassFactory@ATL@@@ATL@@UEAAKXZ 0000000180003790 f i ElectronicJournal.obj
 0001:000027bc       ?Release@?$CComObjectCached@VCComClassFactory@ATL@@@ATL@@UEAAKXZ 00000001800037bc f i ElectronicJournal.obj
 0001:000027fc       ?QueryInterface@?$CComObjectCached@VCComClassFactory@ATL@@@ATL@@UEAAJAEBU_GUID@@PEAPEAX@Z 00000001800037fc f i ElectronicJournal.obj
 0001:00002810       ??_G?$CComObjectCached@VCComClassFactory@ATL@@@ATL@@UEAAPEAXI@Z 0000000180003810 f i ElectronicJournal.obj
 0001:00002810       ??_E?$CComObjectCached@VCComClassFactory@ATL@@@ATL@@UEAAPEAXI@Z 0000000180003810 f i ElectronicJournal.obj
 0001:00002868       ??_ECComModule@ATL@@UEAAPEAXI@Z 0000000180003868 f i ElectronicJournal.obj
 0001:00002868       ??_GCComModule@ATL@@UEAAPEAXI@Z 0000000180003868 f i ElectronicJournal.obj
 0001:000028a8       ?Next@?$CComEnumImpl@UIEnumConnectionPoints@@$1?_GUID_b196b285_bab4_101a_b69c_00aa00341d07@@3U__s_GUID@@BPEAUIConnectionPoint@@V?$_CopyInterface@UIConnectionPoint@@@ATL@@@ATL@@UEAAJKPEAPEAUIConnectionPoint@@PEAK@Z 00000001800038a8 f i ElectronicJournal.obj
 0001:00002974       ?Skip@?$CComEnumImpl@UIEnumConnectionPoints@@$1?_GUID_b196b285_bab4_101a_b69c_00aa00341d07@@3U__s_GUID@@BPEAUIConnectionPoint@@V?$_CopyInterface@UIConnectionPoint@@@ATL@@@ATL@@UEAAJK@Z 0000000180003974 f i ElectronicJournal.obj
 0001:000029a0       ?Reset@?$CComEnumImpl@UIEnumConnections@@$1?_GUID_b196b287_bab4_101a_b69c_00aa00341d07@@3U__s_GUID@@BUtagCONNECTDATA@@V?$_Copy@UtagCONNECTDATA@@@ATL@@@ATL@@UEAAJXZ 00000001800039a0 f i ElectronicJournal.obj
 0001:000029a0       ?Reset@?$CComEnumImpl@UIEnumConnectionPoints@@$1?_GUID_b196b285_bab4_101a_b69c_00aa00341d07@@3U__s_GUID@@BPEAUIConnectionPoint@@V?$_CopyInterface@UIConnectionPoint@@@ATL@@@ATL@@UEAAJXZ 00000001800039a0 f i ElectronicJournal.obj
 0001:000029ac       ?Clone@?$CComEnumImpl@UIEnumConnectionPoints@@$1?_GUID_b196b285_bab4_101a_b69c_00aa00341d07@@3U__s_GUID@@BPEAUIConnectionPoint@@V?$_CopyInterface@UIConnectionPoint@@@ATL@@@ATL@@UEAAJPEAPEAUIEnumConnectionPoints@@@Z 00000001800039ac f i ElectronicJournal.obj
 0001:00002ad8       ?AddRef@?$CComObject@V?$CComEnum@UIEnumConnections@@$1?_GUID_b196b287_bab4_101a_b69c_00aa00341d07@@3U__s_GUID@@BUtagCONNECTDATA@@V?$_Copy@UtagCONNECTDATA@@@ATL@@VCComSingleThreadModel@6@@ATL@@@ATL@@UEAAKXZ 0000000180003ad8 f i ElectronicJournal.obj
 0001:00002ad8       ?AddRef@?$CComObject@V?$CComEnum@UIEnumConnectionPoints@@$1?_GUID_b196b285_bab4_101a_b69c_00aa00341d07@@3U__s_GUID@@BPEAUIConnectionPoint@@V?$_CopyInterface@UIConnectionPoint@@@ATL@@VCComSingleThreadModel@6@@ATL@@@ATL@@UEAAKXZ 0000000180003ad8 f i ElectronicJournal.obj
 0001:00002ae4       ?Release@?$CComObject@V?$CComEnum@UIEnumConnectionPoints@@$1?_GUID_b196b285_bab4_101a_b69c_00aa00341d07@@3U__s_GUID@@BPEAUIConnectionPoint@@V?$_CopyInterface@UIConnectionPoint@@@ATL@@VCComSingleThreadModel@6@@ATL@@@ATL@@UEAAKXZ 0000000180003ae4 f i ElectronicJournal.obj
 0001:00002ae4       ?Release@?$CComObject@V?$CComEnum@UIEnumConnections@@$1?_GUID_b196b287_bab4_101a_b69c_00aa00341d07@@3U__s_GUID@@BUtagCONNECTDATA@@V?$_Copy@UtagCONNECTDATA@@@ATL@@VCComSingleThreadModel@6@@ATL@@@ATL@@UEAAKXZ 0000000180003ae4 f i ElectronicJournal.obj
 0001:00002b38       ?QueryInterface@?$CComObject@V?$CComEnum@UIEnumConnectionPoints@@$1?_GUID_b196b285_bab4_101a_b69c_00aa00341d07@@3U__s_GUID@@BPEAUIConnectionPoint@@V?$_CopyInterface@UIConnectionPoint@@@ATL@@VCComSingleThreadModel@6@@ATL@@@ATL@@UEAAJAEBU_GUID@@PEAPEAX@Z 0000000180003b38 f i ElectronicJournal.obj
 0001:00002b4c       ??_E?$CComObject@V?$CComEnum@UIEnumConnectionPoints@@$1?_GUID_b196b285_bab4_101a_b69c_00aa00341d07@@3U__s_GUID@@BPEAUIConnectionPoint@@V?$_CopyInterface@UIConnectionPoint@@@ATL@@VCComSingleThreadModel@6@@ATL@@@ATL@@UEAAPEAXI@Z 0000000180003b4c f i ElectronicJournal.obj
 0001:00002b4c       ??_G?$CComObject@V?$CComEnum@UIEnumConnectionPoints@@$1?_GUID_b196b285_bab4_101a_b69c_00aa00341d07@@3U__s_GUID@@BPEAUIConnectionPoint@@V?$_CopyInterface@UIConnectionPoint@@@ATL@@VCComSingleThreadModel@6@@ATL@@@ATL@@UEAAPEAXI@Z 0000000180003b4c f i ElectronicJournal.obj
 0001:00002ba4       ?AddReplacement@CRegObject@ATL@@UEAAJPEB_W0@Z 0000000180003ba4 f i ElectronicJournal.obj
 0001:00002bd4       ?ClearReplacements@CRegObject@ATL@@UEAAJXZ 0000000180003bd4 f i ElectronicJournal.obj
 0001:00002be0       ??_ECRegObject@ATL@@UEAAPEAXI@Z 0000000180003be0 f i ElectronicJournal.obj
 0001:00002be0       ??_GCRegObject@ATL@@UEAAPEAXI@Z 0000000180003be0 f i ElectronicJournal.obj
 0001:00002c60       ?AddRef@?$CComAggObject@VCOPOSElectronicJournal@@@ATL@@UEAAKXZ 0000000180003c60 f i ElectronicJournal.obj
 0001:00002c6c       ?Release@?$CComAggObject@VCOPOSElectronicJournal@@@ATL@@UEAAKXZ 0000000180003c6c f i ElectronicJournal.obj
 0001:00002cc0       ?QueryInterface@?$CComAggObject@VCOPOSElectronicJournal@@@ATL@@UEAAJAEBU_GUID@@PEAPEAX@Z 0000000180003cc0 f i ElectronicJournal.obj
 0001:00002d20       ?AddRef@?$CComContainedObject@VCOPOSElectronicJournal@@@ATL@@UEAAKXZ 0000000180003d20 f i ElectronicJournal.obj
 0001:00002d30       ?Release@?$CComContainedObject@VCOPOSElectronicJournal@@@ATL@@UEAAKXZ 0000000180003d30 f i ElectronicJournal.obj
 0001:00002d40       ?QueryInterface@?$CComContainedObject@VCOPOSElectronicJournal@@@ATL@@UEAAJAEBU_GUID@@PEAPEAX@Z 0000000180003d40 f i ElectronicJournal.obj
 0001:00002d50       ??_E?$CComAggObject@VCOPOSElectronicJournal@@@ATL@@UEAAPEAXI@Z 0000000180003d50 f i ElectronicJournal.obj
 0001:00002d50       ??_G?$CComAggObject@VCOPOSElectronicJournal@@@ATL@@UEAAPEAXI@Z 0000000180003d50 f i ElectronicJournal.obj
 0001:00002da8       ?AddRef@?$CComObject@VCOPOSElectronicJournal@@@ATL@@UEAAKXZ 0000000180003da8 f i ElectronicJournal.obj
 0001:00002db8       ?Release@?$CComObject@VCOPOSElectronicJournal@@@ATL@@UEAAKXZ 0000000180003db8 f i ElectronicJournal.obj
 0001:00002e10       ?QueryInterface@?$CComObject@VCOPOSElectronicJournal@@@ATL@@UEAAJAEBU_GUID@@PEAPEAX@Z 0000000180003e10 f i ElectronicJournal.obj
 0001:00002e24       ?OnDrawAdvanced@CComControlBase@ATL@@UEAAJAEAUATL_DRAWINFO@@@Z 0000000180003e24 f i ElectronicJournal.obj
 0001:00002fb0       ?Next@?$CComEnumImpl@UIEnumConnections@@$1?_GUID_b196b287_bab4_101a_b69c_00aa00341d07@@3U__s_GUID@@BUtagCONNECTDATA@@V?$_Copy@UtagCONNECTDATA@@@ATL@@@ATL@@UEAAJKPEAUtagCONNECTDATA@@PEAK@Z 0000000180003fb0 f i ElectronicJournal.obj
 0001:00003084       ?Skip@?$CComEnumImpl@UIEnumConnections@@$1?_GUID_b196b287_bab4_101a_b69c_00aa00341d07@@3U__s_GUID@@BUtagCONNECTDATA@@V?$_Copy@UtagCONNECTDATA@@@ATL@@@ATL@@UEAAJK@Z 0000000180004084 f i ElectronicJournal.obj
 0001:000030b0       ?Clone@?$CComEnumImpl@UIEnumConnections@@$1?_GUID_b196b287_bab4_101a_b69c_00aa00341d07@@3U__s_GUID@@BUtagCONNECTDATA@@V?$_Copy@UtagCONNECTDATA@@@ATL@@@ATL@@UEAAJPEAPEAUIEnumConnections@@@Z 00000001800040b0 f i ElectronicJournal.obj
 0001:000031dc       ?QueryInterface@?$CComObject@V?$CComEnum@UIEnumConnections@@$1?_GUID_b196b287_bab4_101a_b69c_00aa00341d07@@3U__s_GUID@@BUtagCONNECTDATA@@V?$_Copy@UtagCONNECTDATA@@@ATL@@VCComSingleThreadModel@6@@ATL@@@ATL@@UEAAJAEBU_GUID@@PEAPEAX@Z 00000001800041dc f i ElectronicJournal.obj
 0001:000031f0       ??_E?$CComObject@V?$CComEnum@UIEnumConnections@@$1?_GUID_b196b287_bab4_101a_b69c_00aa00341d07@@3U__s_GUID@@BUtagCONNECTDATA@@V?$_Copy@UtagCONNECTDATA@@@ATL@@VCComSingleThreadModel@6@@ATL@@@ATL@@UEAAPEAXI@Z 00000001800041f0 f i ElectronicJournal.obj
 0001:000031f0       ??_G?$CComObject@V?$CComEnum@UIEnumConnections@@$1?_GUID_b196b287_bab4_101a_b69c_00aa00341d07@@3U__s_GUID@@BUtagCONNECTDATA@@V?$_Copy@UtagCONNECTDATA@@@ATL@@VCComSingleThreadModel@6@@ATL@@@ATL@@UEAAPEAXI@Z 00000001800041f0 f i ElectronicJournal.obj
 0001:00003248       ??_E?$CComObject@VCOPOSElectronicJournal@@@ATL@@W7EAAPEAXI@Z 0000000180004248 f i ElectronicJournal.obj
 0001:00003254       ??_E?$CComObject@VCOPOSElectronicJournal@@@ATL@@WHA@EAAPEAXI@Z 0000000180004254 f i ElectronicJournal.obj
 0001:00003260       ?QueryInterface@?$CComObject@VCOPOSElectronicJournal@@@ATL@@WLI@EAAJAEBU_GUID@@PEAPEAX@Z 0000000180004260 f i ElectronicJournal.obj
 0001:0000326c       ?AddRef@?$CComObject@VCOPOSElectronicJournal@@@ATL@@WLI@EAAKXZ 000000018000426c f i ElectronicJournal.obj
 0001:00003278       ?Release@?$CComObject@VCOPOSElectronicJournal@@@ATL@@WLI@EAAKXZ 0000000180004278 f i ElectronicJournal.obj
 0001:00003284       ?QueryInterface@?$CComObject@VCOPOSElectronicJournal@@@ATL@@WMA@EAAJAEBU_GUID@@PEAPEAX@Z 0000000180004284 f i ElectronicJournal.obj
 0001:00003290       ?AddRef@?$CComObject@VCOPOSElectronicJournal@@@ATL@@WMA@EAAKXZ 0000000180004290 f i ElectronicJournal.obj
 0001:0000329c       ?Release@?$CComObject@VCOPOSElectronicJournal@@@ATL@@WMA@EAAKXZ 000000018000429c f i ElectronicJournal.obj
 0001:000032a8       ?QueryInterface@?$CComObject@VCOPOSElectronicJournal@@@ATL@@WMI@EAAJAEBU_GUID@@PEAPEAX@Z 00000001800042a8 f i ElectronicJournal.obj
 0001:000032b4       ?AddRef@?$CComObject@VCOPOSElectronicJournal@@@ATL@@WMI@EAAKXZ 00000001800042b4 f i ElectronicJournal.obj
 0001:000032c0       ?Release@?$CComObject@VCOPOSElectronicJournal@@@ATL@@WMI@EAAKXZ 00000001800042c0 f i ElectronicJournal.obj
 0001:000032cc       ?QueryInterface@?$CComObject@VCOPOSElectronicJournal@@@ATL@@WNA@EAAJAEBU_GUID@@PEAPEAX@Z 00000001800042cc f i ElectronicJournal.obj
 0001:000032d8       ?AddRef@?$CComObject@VCOPOSElectronicJournal@@@ATL@@WNA@EAAKXZ 00000001800042d8 f i ElectronicJournal.obj
 0001:000032e4       ?Release@?$CComObject@VCOPOSElectronicJournal@@@ATL@@WNA@EAAKXZ 00000001800042e4 f i ElectronicJournal.obj
 0001:000032f0       ?QueryInterface@?$CComObject@VCOPOSElectronicJournal@@@ATL@@WNI@EAAJAEBU_GUID@@PEAPEAX@Z 00000001800042f0 f i ElectronicJournal.obj
 0001:000032fc       ?AddRef@?$CComObject@VCOPOSElectronicJournal@@@ATL@@WNI@EAAKXZ 00000001800042fc f i ElectronicJournal.obj
 0001:00003308       ?Release@?$CComObject@VCOPOSElectronicJournal@@@ATL@@WNI@EAAKXZ 0000000180004308 f i ElectronicJournal.obj
 0001:00003314       ?QueryInterface@?$CComObject@VCOPOSElectronicJournal@@@ATL@@WOA@EAAJAEBU_GUID@@PEAPEAX@Z 0000000180004314 f i ElectronicJournal.obj
 0001:00003320       ?AddRef@?$CComObject@VCOPOSElectronicJournal@@@ATL@@WOA@EAAKXZ 0000000180004320 f i ElectronicJournal.obj
 0001:0000332c       ?Release@?$CComObject@VCOPOSElectronicJournal@@@ATL@@WOA@EAAKXZ 000000018000432c f i ElectronicJournal.obj
 0001:00003338       ?QueryInterface@?$CComObject@VCOPOSElectronicJournal@@@ATL@@WOI@EAAJAEBU_GUID@@PEAPEAX@Z 0000000180004338 f i ElectronicJournal.obj
 0001:00003344       ?AddRef@?$CComObject@VCOPOSElectronicJournal@@@ATL@@WOI@EAAKXZ 0000000180004344 f i ElectronicJournal.obj
 0001:00003350       ?Release@?$CComObject@VCOPOSElectronicJournal@@@ATL@@WOI@EAAKXZ 0000000180004350 f i ElectronicJournal.obj
 0001:0000335c       ?QueryInterface@?$CComObject@VCOPOSElectronicJournal@@@ATL@@WPA@EAAJAEBU_GUID@@PEAPEAX@Z 000000018000435c f i ElectronicJournal.obj
 0001:00003368       ?AddRef@?$CComObject@VCOPOSElectronicJournal@@@ATL@@WPA@EAAKXZ 0000000180004368 f i ElectronicJournal.obj
 0001:00003374       ?Release@?$CComObject@VCOPOSElectronicJournal@@@ATL@@WPA@EAAKXZ 0000000180004374 f i ElectronicJournal.obj
 0001:00003380       ?QueryInterface@?$CComObject@VCOPOSElectronicJournal@@@ATL@@WPI@EAAJAEBU_GUID@@PEAPEAX@Z 0000000180004380 f i ElectronicJournal.obj
 0001:0000338c       ?AddRef@?$CComObject@VCOPOSElectronicJournal@@@ATL@@WPI@EAAKXZ 000000018000438c f i ElectronicJournal.obj
 0001:00003398       ?Release@?$CComObject@VCOPOSElectronicJournal@@@ATL@@WPI@EAAKXZ 0000000180004398 f i ElectronicJournal.obj
 0001:000033a4       ?QueryInterface@?$CComObject@VCOPOSElectronicJournal@@@ATL@@WBAA@EAAJAEBU_GUID@@PEAPEAX@Z 00000001800043a4 f i ElectronicJournal.obj
 0001:000033b0       ?AddRef@?$CComObject@VCOPOSElectronicJournal@@@ATL@@WBAA@EAAKXZ 00000001800043b0 f i ElectronicJournal.obj
 0001:000033bc       ?Release@?$CComObject@VCOPOSElectronicJournal@@@ATL@@WBAA@EAAKXZ 00000001800043bc f i ElectronicJournal.obj
 0001:000033c8       ?QueryInterface@?$CComObject@VCOPOSElectronicJournal@@@ATL@@WBAI@EAAJAEBU_GUID@@PEAPEAX@Z 00000001800043c8 f i ElectronicJournal.obj
 0001:000033d4       ?AddRef@?$CComObject@VCOPOSElectronicJournal@@@ATL@@WBAI@EAAKXZ 00000001800043d4 f i ElectronicJournal.obj
 0001:000033e0       ?Release@?$CComObject@VCOPOSElectronicJournal@@@ATL@@WBAI@EAAKXZ 00000001800043e0 f i ElectronicJournal.obj
 0001:000033ec       ?QueryInterface@?$CComObject@VCOPOSElectronicJournal@@@ATL@@WBBA@EAAJAEBU_GUID@@PEAPEAX@Z 00000001800043ec f i ElectronicJournal.obj
 0001:000033f8       ?AddRef@?$CComObject@VCOPOSElectronicJournal@@@ATL@@WBBA@EAAKXZ 00000001800043f8 f i ElectronicJournal.obj
 0001:00003404       ?Release@?$CComObject@VCOPOSElectronicJournal@@@ATL@@WBBA@EAAKXZ 0000000180004404 f i ElectronicJournal.obj
 0001:00003410       ?QueryInterface@?$CComObject@VCOPOSElectronicJournal@@@ATL@@WBBI@EAAJAEBU_GUID@@PEAPEAX@Z 0000000180004410 f i ElectronicJournal.obj
 0001:0000341c       ?AddRef@?$CComObject@VCOPOSElectronicJournal@@@ATL@@WBBI@EAAKXZ 000000018000441c f i ElectronicJournal.obj
 0001:00003428       ?Release@?$CComObject@VCOPOSElectronicJournal@@@ATL@@WBBI@EAAKXZ 0000000180004428 f i ElectronicJournal.obj
 0001:00003434       ?AddRef@?$CComObject@VCOPOSElectronicJournal@@@ATL@@WBCI@EAAKXZ 0000000180004434 f i ElectronicJournal.obj
 0001:00003440       ?Release@?$CComObject@VCOPOSElectronicJournal@@@ATL@@WBCI@EAAKXZ 0000000180004440 f i ElectronicJournal.obj
 0001:0000344c       ?AddRef@?$CComObject@VCOPOSElectronicJournal@@@ATL@@WBEA@EAAKXZ 000000018000444c f i ElectronicJournal.obj
 0001:00003458       ?Release@?$CComObject@VCOPOSElectronicJournal@@@ATL@@WBEA@EAAKXZ 0000000180004458 f i ElectronicJournal.obj
 0001:00003464       ??_E?$CComContainedObject@VCOPOSElectronicJournal@@@ATL@@W7EAAPEAXI@Z 0000000180004464 f i ElectronicJournal.obj
 0001:00003470       ??_E?$CComContainedObject@VCOPOSElectronicJournal@@@ATL@@WHA@EAAPEAXI@Z 0000000180004470 f i ElectronicJournal.obj
 0001:0000347c       ?QueryInterface@?$CComContainedObject@VCOPOSElectronicJournal@@@ATL@@WLI@EAAJAEBU_GUID@@PEAPEAX@Z 000000018000447c f i ElectronicJournal.obj
 0001:00003488       ?AddRef@?$CComContainedObject@VCOPOSElectronicJournal@@@ATL@@WLI@EAAKXZ 0000000180004488 f i ElectronicJournal.obj
 0001:00003494       ?Release@?$CComContainedObject@VCOPOSElectronicJournal@@@ATL@@WLI@EAAKXZ 0000000180004494 f i ElectronicJournal.obj
 0001:000034a0       ?QueryInterface@?$CComContainedObject@VCOPOSElectronicJournal@@@ATL@@WMA@EAAJAEBU_GUID@@PEAPEAX@Z 00000001800044a0 f i ElectronicJournal.obj
 0001:000034ac       ?AddRef@?$CComContainedObject@VCOPOSElectronicJournal@@@ATL@@WMA@EAAKXZ 00000001800044ac f i ElectronicJournal.obj
 0001:000034b8       ?Release@?$CComContainedObject@VCOPOSElectronicJournal@@@ATL@@WMA@EAAKXZ 00000001800044b8 f i ElectronicJournal.obj
 0001:000034c4       ?QueryInterface@?$CComContainedObject@VCOPOSElectronicJournal@@@ATL@@WMI@EAAJAEBU_GUID@@PEAPEAX@Z 00000001800044c4 f i ElectronicJournal.obj
 0001:000034d0       ?AddRef@?$CComContainedObject@VCOPOSElectronicJournal@@@ATL@@WMI@EAAKXZ 00000001800044d0 f i ElectronicJournal.obj
 0001:000034dc       ?Release@?$CComContainedObject@VCOPOSElectronicJournal@@@ATL@@WMI@EAAKXZ 00000001800044dc f i ElectronicJournal.obj
 0001:000034e8       ?QueryInterface@?$CComContainedObject@VCOPOSElectronicJournal@@@ATL@@WNA@EAAJAEBU_GUID@@PEAPEAX@Z 00000001800044e8 f i ElectronicJournal.obj
 0001:000034f4       ?AddRef@?$CComContainedObject@VCOPOSElectronicJournal@@@ATL@@WNA@EAAKXZ 00000001800044f4 f i ElectronicJournal.obj
 0001:00003500       ?Release@?$CComContainedObject@VCOPOSElectronicJournal@@@ATL@@WNA@EAAKXZ 0000000180004500 f i ElectronicJournal.obj
 0001:0000350c       ?QueryInterface@?$CComContainedObject@VCOPOSElectronicJournal@@@ATL@@WNI@EAAJAEBU_GUID@@PEAPEAX@Z 000000018000450c f i ElectronicJournal.obj
 0001:00003518       ?AddRef@?$CComContainedObject@VCOPOSElectronicJournal@@@ATL@@WNI@EAAKXZ 0000000180004518 f i ElectronicJournal.obj
 0001:00003524       ?Release@?$CComContainedObject@VCOPOSElectronicJournal@@@ATL@@WNI@EAAKXZ 0000000180004524 f i ElectronicJournal.obj
 0001:00003530       ?QueryInterface@?$CComContainedObject@VCOPOSElectronicJournal@@@ATL@@WOA@EAAJAEBU_GUID@@PEAPEAX@Z 0000000180004530 f i ElectronicJournal.obj
 0001:0000353c       ?AddRef@?$CComContainedObject@VCOPOSElectronicJournal@@@ATL@@WOA@EAAKXZ 000000018000453c f i ElectronicJournal.obj
 0001:00003548       ?Release@?$CComContainedObject@VCOPOSElectronicJournal@@@ATL@@WOA@EAAKXZ 0000000180004548 f i ElectronicJournal.obj
 0001:00003554       ?QueryInterface@?$CComContainedObject@VCOPOSElectronicJournal@@@ATL@@WOI@EAAJAEBU_GUID@@PEAPEAX@Z 0000000180004554 f i ElectronicJournal.obj
 0001:00003560       ?AddRef@?$CComContainedObject@VCOPOSElectronicJournal@@@ATL@@WOI@EAAKXZ 0000000180004560 f i ElectronicJournal.obj
 0001:0000356c       ?Release@?$CComContainedObject@VCOPOSElectronicJournal@@@ATL@@WOI@EAAKXZ 000000018000456c f i ElectronicJournal.obj
 0001:00003578       ?QueryInterface@?$CComContainedObject@VCOPOSElectronicJournal@@@ATL@@WPA@EAAJAEBU_GUID@@PEAPEAX@Z 0000000180004578 f i ElectronicJournal.obj
 0001:00003584       ?AddRef@?$CComContainedObject@VCOPOSElectronicJournal@@@ATL@@WPA@EAAKXZ 0000000180004584 f i ElectronicJournal.obj
 0001:00003590       ?Release@?$CComContainedObject@VCOPOSElectronicJournal@@@ATL@@WPA@EAAKXZ 0000000180004590 f i ElectronicJournal.obj
 0001:0000359c       ?QueryInterface@?$CComContainedObject@VCOPOSElectronicJournal@@@ATL@@WPI@EAAJAEBU_GUID@@PEAPEAX@Z 000000018000459c f i ElectronicJournal.obj
 0001:000035a8       ?AddRef@?$CComContainedObject@VCOPOSElectronicJournal@@@ATL@@WPI@EAAKXZ 00000001800045a8 f i ElectronicJournal.obj
 0001:000035b4       ?Release@?$CComContainedObject@VCOPOSElectronicJournal@@@ATL@@WPI@EAAKXZ 00000001800045b4 f i ElectronicJournal.obj
 0001:000035c0       ?QueryInterface@?$CComContainedObject@VCOPOSElectronicJournal@@@ATL@@WBAA@EAAJAEBU_GUID@@PEAPEAX@Z 00000001800045c0 f i ElectronicJournal.obj
 0001:000035cc       ?AddRef@?$CComContainedObject@VCOPOSElectronicJournal@@@ATL@@WBAA@EAAKXZ 00000001800045cc f i ElectronicJournal.obj
 0001:000035d8       ?Release@?$CComContainedObject@VCOPOSElectronicJournal@@@ATL@@WBAA@EAAKXZ 00000001800045d8 f i ElectronicJournal.obj
 0001:000035e4       ?QueryInterface@?$CComContainedObject@VCOPOSElectronicJournal@@@ATL@@WBAI@EAAJAEBU_GUID@@PEAPEAX@Z 00000001800045e4 f i ElectronicJournal.obj
 0001:000035f0       ?AddRef@?$CComContainedObject@VCOPOSElectronicJournal@@@ATL@@WBAI@EAAKXZ 00000001800045f0 f i ElectronicJournal.obj
 0001:000035fc       ?Release@?$CComContainedObject@VCOPOSElectronicJournal@@@ATL@@WBAI@EAAKXZ 00000001800045fc f i ElectronicJournal.obj
 0001:00003608       ?QueryInterface@?$CComContainedObject@VCOPOSElectronicJournal@@@ATL@@WBBA@EAAJAEBU_GUID@@PEAPEAX@Z 0000000180004608 f i ElectronicJournal.obj
 0001:00003614       ?AddRef@?$CComContainedObject@VCOPOSElectronicJournal@@@ATL@@WBBA@EAAKXZ 0000000180004614 f i ElectronicJournal.obj
 0001:00003620       ?Release@?$CComContainedObject@VCOPOSElectronicJournal@@@ATL@@WBBA@EAAKXZ 0000000180004620 f i ElectronicJournal.obj
 0001:0000362c       ?QueryInterface@?$CComContainedObject@VCOPOSElectronicJournal@@@ATL@@WBBI@EAAJAEBU_GUID@@PEAPEAX@Z 000000018000462c f i ElectronicJournal.obj
 0001:00003638       ?AddRef@?$CComContainedObject@VCOPOSElectronicJournal@@@ATL@@WBBI@EAAKXZ 0000000180004638 f i ElectronicJournal.obj
 0001:00003644       ?Release@?$CComContainedObject@VCOPOSElectronicJournal@@@ATL@@WBBI@EAAKXZ 0000000180004644 f i ElectronicJournal.obj
 0001:00003650       ?AddRef@?$CComContainedObject@VCOPOSElectronicJournal@@@ATL@@WBCI@EAAKXZ 0000000180004650 f i ElectronicJournal.obj
 0001:0000365c       ?Release@?$CComContainedObject@VCOPOSElectronicJournal@@@ATL@@WBCI@EAAKXZ 000000018000465c f i ElectronicJournal.obj
 0001:00003668       ?AddRef@?$CComContainedObject@VCOPOSElectronicJournal@@@ATL@@WBEA@EAAKXZ 0000000180004668 f i ElectronicJournal.obj
 0001:00003674       ?Release@?$CComContainedObject@VCOPOSElectronicJournal@@@ATL@@WBEA@EAAKXZ 0000000180004674 f i ElectronicJournal.obj
 0001:00003680       ?CreateInstance@CComClassFactory@ATL@@UEAAJPEAUIUnknown@@AEBU_GUID@@PEAPEAX@Z 0000000180004680 f i ElectronicJournal.obj
 0001:000036e0       ?LockServer@CComClassFactory@ATL@@UEAAJH@Z 00000001800046e0 f i ElectronicJournal.obj
 0001:00003704       ??_GCComClassFactory@ATL@@UEAAPEAXI@Z 0000000180004704 f i ElectronicJournal.obj
 0001:00003704       ??_ECComClassFactory@ATL@@UEAAPEAXI@Z 0000000180004704 f i ElectronicJournal.obj
 0001:00003754       ??$AtlModuleRegisterWndClassInfoT@VAtlModuleRegisterWndClassInfoParamW@ATL@@@ATL@@YAGPEAU_ATL_BASE_MODULE70@0@PEAU_ATL_WIN_MODULE70@0@PEAU_ATL_WNDCLASSINFOW@0@PEAP6A_JPEAUHWND__@@I_K_J@ZVAtlModuleRegisterWndClassInfoParamW@0@@Z 0000000180004754 f i ElectronicJournal.obj
 0001:00003954       ??0?$CComContainedObject@VCOPOSElectronicJournal@@@ATL@@QEAA@PEAX@Z 0000000180004954 f i ElectronicJournal.obj
 0001:00003a70       ??0?$CComObject@VCOPOSElectronicJournal@@@ATL@@QEAA@PEAX@Z 0000000180004a70 f i ElectronicJournal.obj
 0001:00003b88       ??0CAtlModule@ATL@@QEAA@XZ 0000000180004b88 f i ElectronicJournal.obj
 0001:00003bfc       ??1?$CComEnumImpl@UIEnumConnectionPoints@@$1?_GUID_b196b285_bab4_101a_b69c_00aa00341d07@@3U__s_GUID@@BPEAUIConnectionPoint@@V?$_CopyInterface@UIConnectionPoint@@@ATL@@@ATL@@UEAA@XZ 0000000180004bfc f i ElectronicJournal.obj
 0001:00003c58       ??1?$CComEnumImpl@UIEnumConnections@@$1?_GUID_b196b287_bab4_101a_b69c_00aa00341d07@@3U__s_GUID@@BUtagCONNECTDATA@@V?$_Copy@UtagCONNECTDATA@@@ATL@@@ATL@@UEAA@XZ 0000000180004c58 f i ElectronicJournal.obj
 0001:00003cb4       ??1?$CComObject@VCOPOSElectronicJournal@@@ATL@@UEAA@XZ 0000000180004cb4 f i ElectronicJournal.obj
 0001:00003dd4       ??_E?$CComContainedObject@VCOPOSElectronicJournal@@@ATL@@UEAAPEAXI@Z 0000000180004dd4 f i ElectronicJournal.obj
 0001:00003dd4       ??_G?$CComContainedObject@VCOPOSElectronicJournal@@@ATL@@UEAAPEAXI@Z 0000000180004dd4 f i ElectronicJournal.obj
 0001:00003e08       ??_G?$CComObject@VCOPOSElectronicJournal@@@ATL@@UEAAPEAXI@Z 0000000180004e08 f i ElectronicJournal.obj
 0001:00003e08       ??_E?$CComObject@VCOPOSElectronicJournal@@@ATL@@UEAAPEAXI@Z 0000000180004e08 f i ElectronicJournal.obj
 0001:00003e3c       ?Add@?$CSimpleArray@GV?$CSimpleArrayEqualHelper@G@ATL@@@ATL@@QEAAHAEBG@Z 0000000180004e3c f i ElectronicJournal.obj
 0001:00003ef0       ?Add@?$CSimpleMap@PEA_WPEA_WVCExpansionVectorEqualHelper@ATL@@@ATL@@QEAAHAEBQEA_W0@Z 0000000180004ef0 f i ElectronicJournal.obj
 0001:00003f90       ?Add@CComDynamicUnkArray@ATL@@QEAAKPEAUIUnknown@@@Z 0000000180004f90 f i ElectronicJournal.obj
 0001:0000407c       ?Add@CExpansionVector@ATL@@QEAAHPEB_W0@Z 000000018000507c f i ElectronicJournal.obj
 0001:000041b0       ?AddTermFunc@CAtlModule@ATL@@QEAAJP6AX_K@Z0@Z 00000001800051b0 f i ElectronicJournal.obj
 0001:0000424c       ?AddValue@CRegParser@ATL@@IEAAJAEAVCRegKey@2@PEB_WPEA_W@Z 000000018000524c f i ElectronicJournal.obj
 0001:00004694       ?AllocateHeap@?$CTempBuffer@E$0BAA@VCCRTAllocator@ATL@@@ATL@@AEAAX_K@Z 0000000180005694 f i ElectronicJournal.obj
 0001:00004694       ?AllocateHeap@?$CTempBuffer@_W$0EAA@VCCRTAllocator@ATL@@@ATL@@AEAAX_K@Z 0000000180005694 f i ElectronicJournal.obj
 0001:00004694       ?AllocateHeap@?$CTempBuffer@_W$0BAA@VCCRTAllocator@ATL@@@ATL@@AEAAX_K@Z 0000000180005694 f i ElectronicJournal.obj
 0001:000046c0       ?Append@CParseBuffer@CRegParser@ATL@@QEAAHPEB_WH@Z 00000001800056c0 f i ElectronicJournal.obj
 0001:00004808       ?AtlComModuleGetClassObject@ATL@@YAJPEAU_ATL_COM_MODULE70@1@AEBU_GUID@@1PEAPEAX@Z 0000000180005808 f i ElectronicJournal.obj
 0001:00004948       ?AtlComModuleRegisterServer@ATL@@YAJPEAU_ATL_COM_MODULE70@1@HPEBU_GUID@@@Z 0000000180005948 f i ElectronicJournal.obj
 0001:00004a08       ?AtlComModuleUnregisterServer@ATL@@YAJPEAU_ATL_COM_MODULE70@1@HPEBU_GUID@@@Z 0000000180005a08 f i ElectronicJournal.obj
 0001:00004ac4       ?AtlHiMetricToPixel@ATL@@YAXPEBUtagSIZE@@PEAU2@@Z 0000000180005ac4 f i ElectronicJournal.obj
 0001:00004b74       ?AtlHresultFromLastError@ATL@@YAJXZ 0000000180005b74 f i ElectronicJournal.obj
 0001:00004b94       ?AtlHresultFromWin32@ATL@@YAJK@Z 0000000180005b94 f i ElectronicJournal.obj
 0001:00004ba4       ?AtlInternalOleLoadFromStream@ATL@@YAJPEAUIStream@@AEBU_GUID@@PEAPEAXTClassesAllowedInStream@1@K@Z 0000000180005ba4 f i ElectronicJournal.obj
 0001:00004ce8       ?AtlInternalQueryInterface@ATL@@YAJPEAXPEBU_ATL_INTMAP_ENTRY@1@AEBU_GUID@@PEAPEAX@Z 0000000180005ce8 f i ElectronicJournal.obj
 0001:00004df0       ?AtlLoadTypeLib@ATL@@YAJPEAUHINSTANCE__@@PEB_WPEAPEA_WPEAPEAUITypeLib@@@Z 0000000180005df0 f i ElectronicJournal.obj
 0001:0000504c       ?AtlRegisterClassCategoriesHelper@ATL@@YAJAEBU_GUID@@PEBU_ATL_CATMAP_ENTRY@1@H@Z 000000018000604c f i ElectronicJournal.obj
 0001:000054d0       ?AtlRegisterTypeLib@ATL@@YAJPEAUHINSTANCE__@@PEB_W@Z 00000001800064d0 f i ElectronicJournal.obj
 0001:000056cc       ?AtlThrowImpl@ATL@@YAXJ@Z  00000001800066cc f i ElectronicJournal.obj
 0001:000056f0       ?AtlUnRegisterTypeLib@ATL@@YAJPEAUHINSTANCE__@@PEB_W@Z 00000001800066f0 f i ElectronicJournal.obj
 0001:000057b8       ?AtlWinModuleExtractCreateWndData@ATL@@YAPEAXPEAU_ATL_WIN_MODULE70@1@@Z 00000001800067b8 f i ElectronicJournal.obj
 0001:00005844       ?Cleanup@CComTypeInfoHolder@ATL@@SAX_K@Z 0000000180006844 f i ElectronicJournal.obj
 0001:00005884       ?ClearReplacements@CExpansionVector@ATL@@QEAAJXZ 0000000180006884 f i ElectronicJournal.obj
 0001:00005920       ?CreateInstance@?$CComCreator@V?$CComAggObject@VCOPOSElectronicJournal@@@ATL@@@ATL@@SAJPEAXAEBU_GUID@@PEAPEAX@Z 0000000180006920 f i ElectronicJournal.obj
 0001:00005a04       ?CreateInstance@?$CComCreator@V?$CComObject@VCOPOSElectronicJournal@@@ATL@@@ATL@@SAJPEAXAEBU_GUID@@PEAPEAX@Z 0000000180006a04 f i ElectronicJournal.obj
 0001:00005ab8       ?CreateInstance@?$CComObject@V?$CComEnum@UIEnumConnectionPoints@@$1?_GUID_b196b285_bab4_101a_b69c_00aa00341d07@@3U__s_GUID@@BPEAUIConnectionPoint@@V?$_CopyInterface@UIConnectionPoint@@@ATL@@VCComSingleThreadModel@6@@ATL@@@ATL@@SAJPEAPEAV12@@Z 0000000180006ab8 f i ElectronicJournal.obj
 0001:00005b48       ?CreateInstance@?$CComObject@V?$CComEnum@UIEnumConnections@@$1?_GUID_b196b287_bab4_101a_b69c_00aa00341d07@@3U__s_GUID@@BUtagCONNECTDATA@@V?$_Copy@UtagCONNECTDATA@@@ATL@@VCComSingleThreadModel@6@@ATL@@@ATL@@SAJPEAPEAV12@@Z 0000000180006b48 f i ElectronicJournal.obj
 0001:00005bd8       ?DefaultReflectionHandler@?$CWindowImplRoot@VCWindow@ATL@@@ATL@@SAHPEAUHWND__@@I_K_JAEA_J@Z 0000000180006bd8 f i ElectronicJournal.obj
 0001:00005c3c       ?DeleteSubKey@CRegKey@ATL@@QEAAJPEB_W@Z 0000000180006c3c f i ElectronicJournal.obj
 0001:00005cd4       ?DoEvent@COPOSElectronicJournal@@IEAAXI_K_J@Z 0000000180006cd4 f i ElectronicJournal.obj
 0001:00005d88       ?DoVerbPrimary@?$IOleObjectImpl@VCOPOSElectronicJournal@@@ATL@@QEAAJPEBUtagRECT@@PEAUHWND__@@@Z 0000000180006d88 f i ElectronicJournal.obj
 0001:00005eb4       ?DoVerbProperties@CComControlBase@ATL@@QEAAJPEBUtagRECT@@PEAUHWND__@@@Z 0000000180006eb4 f i ElectronicJournal.obj
 0001:000060dc       ?FireTheEvent@?$CProxy_IOPOSEvents@VCOPOSElectronicJournal@@@@IEAAXPEAVOposVariant@@IAEAJPEB_WJ@Z 00000001800070dc f i ElectronicJournal.obj
 0001:000061c8       ?FireViewChange@CComControlBase@ATL@@QEAAJXZ 00000001800071c8 f i ElectronicJournal.obj
 0001:0000622c       ?Fire_DataEvent@?$CProxy_IOPOSEvents@VCOPOSElectronicJournal@@@@QEAAXJ@Z 000000018000722c f i ElectronicJournal.obj
 0001:00006318       ?Fire_DirectIOEvent@?$CProxy_IOPOSEvents@VCOPOSElectronicJournal@@@@QEAAXJPEAJPEAPEA_W@Z 0000000180007318 f i ElectronicJournal.obj
 0001:00006478       ?Fire_ErrorEvent@?$CProxy_IOPOSEvents@VCOPOSElectronicJournal@@@@QEAAXJJJPEAJ@Z 0000000180007478 f i ElectronicJournal.obj
 0001:000065ec       ?Fire_OutputCompleteEvent@?$CProxy_IOPOSEvents@VCOPOSElectronicJournal@@@@QEAAXJ@Z 00000001800075ec f i ElectronicJournal.obj
 0001:000066d8       ?Fire_StatusUpdateEvent@?$CProxy_IOPOSEvents@VCOPOSElectronicJournal@@@@QEAAXJ@Z 00000001800076d8 f i ElectronicJournal.obj
 0001:000067c4       ?FreeHeap@?$CTempBuffer@_W$0EAA@VCCRTAllocator@ATL@@@ATL@@AEAAXXZ 00000001800077c4 f i ElectronicJournal.obj
 0001:000067c4       ?FreeHeap@?$CTempBuffer@E$0BAA@VCCRTAllocator@ATL@@@ATL@@AEAAXXZ 00000001800077c4 f i ElectronicJournal.obj
 0001:000067c4       ?FreeHeap@?$CTempBuffer@_W$0BAA@VCCRTAllocator@ATL@@@ATL@@AEAAXXZ 00000001800077c4 f i ElectronicJournal.obj
 0001:000067cc       ?GetAmbientLocaleID@CComControlBase@ATL@@QEAAJAEAK@Z 00000001800077cc f i ElectronicJournal.obj
 0001:0000688c       ?GetAmbientUserMode@CComControlBase@ATL@@QEAAJAEAH@Z 000000018000788c f i ElectronicJournal.obj
 0001:0000695c       ?GetClassObject@CComModule@ATL@@QEAAJAEBU_GUID@@0PEAPEAX@Z 000000018000795c f i ElectronicJournal.obj
 0001:00006a50       ?GetConnMap@COPOSElectronicJournal@@SAPEBU_ATL_CONNMAP_ENTRY@ATL@@PEAH@Z 0000000180007a50 f i ElectronicJournal.obj
 0001:00006ad8       ?GetIDsOfNames@CComTypeInfoHolder@ATL@@QEAAJAEBU_GUID@@PEAPEA_WIKPEAJ@Z 0000000180007ad8 f i ElectronicJournal.obj
 0001:00006c50       ?GetPagesHelper@?$ISpecifyPropertyPagesImpl@VCOPOSElectronicJournal@@@ATL@@IEAAJPEAUtagCAUUID@@PEBUATL_PROPMAP_ENTRY@2@@Z 0000000180007c50 f i ElectronicJournal.obj
 0001:00006df0       ?GetSizeMax@CComVariant@ATL@@QEBAJPEAT_ULARGE_INTEGER@@@Z 0000000180007df0 f i ElectronicJournal.obj
 0001:00007020       ?GetTI@CComTypeInfoHolder@ATL@@QEAAJK@Z 0000000180008020 f i ElectronicJournal.obj
 0001:00007308       ?GetZoomInfo@CComControlBase@ATL@@QEAAXAEAUATL_DRAWINFO@@@Z 0000000180008308 f i ElectronicJournal.obj
 0001:000073ac       ?HKeyFromString@CRegParser@ATL@@KAPEAUHKEY__@@PEA_W@Z 00000001800083ac f i ElectronicJournal.obj
 0001:00007410       ?IDataObject_GetData@CComControlBase@ATL@@QEAAJPEAUtagFORMATETC@@PEAUtagSTGMEDIUM@@@Z 0000000180008410 f i ElectronicJournal.obj
 0001:00007604       ?IOleInPlaceObject_InPlaceDeactivate@CComControlBase@ATL@@QEAAJXZ 0000000180008604 f i ElectronicJournal.obj
 0001:000076a4       ?IOleInPlaceObject_SetObjectRects@CComControlBase@ATL@@QEAAJPEBUtagRECT@@0@Z 00000001800086a4 f i ElectronicJournal.obj
 0001:00007794       ?IOleInPlaceObject_UIDeactivate@CComControlBase@ATL@@QEAAJXZ 0000000180008794 f i ElectronicJournal.obj
 0001:000078a0       ?IOleObject_Close@CComControlBase@ATL@@QEAAJK@Z 00000001800088a0 f i ElectronicJournal.obj
 0001:000079b8       ?IOleObject_SetClientSite@CComControlBase@ATL@@QEAAJPEAUIOleClientSite@@@Z 00000001800089b8 f i ElectronicJournal.obj
 0001:00007a30       ?IOleObject_SetExtent@CComControlBase@ATL@@QEAAJKPEAUtagSIZE@@@Z 0000000180008a30 f i ElectronicJournal.obj
 0001:00007ac8       ?IPSI_GetIPersistStreamInit@?$IPersistStorageImpl@VCOPOSElectronicJournal@@@ATL@@AEAAPEAUIPersistStreamInit@@XZ 0000000180008ac8 f i ElectronicJournal.obj
 0001:00007bb0       ?IPersistStreamInit_Load@?$IPersistStreamInitImpl@VCOPOSElectronicJournal@@@ATL@@QEAAJPEAUIStream@@PEBUATL_PROPMAP_ENTRY@2@@Z 0000000180008bb0 f i ElectronicJournal.obj
 0001:00007edc       ?IPersistStreamInit_Save@?$IPersistStreamInitImpl@VCOPOSElectronicJournal@@@ATL@@QEAAJPEAUIStream@@HPEBUATL_PROPMAP_ENTRY@2@@Z 0000000180008edc f i ElectronicJournal.obj
 0001:0000817c       ?IQuickActivate_QuickActivate@CComControlBase@ATL@@QEAAJPEAUtagQACONTAINER@@PEAUtagQACONTROL@@@Z 000000018000917c f i ElectronicJournal.obj
 0001:00008440       ?IViewObject_Draw@CComControlBase@ATL@@QEAAJKJPEAXPEAUtagDVTARGETDEVICE@@PEAUHDC__@@2PEBU_RECTL@@3@Z 0000000180009440 f i ElectronicJournal.obj
 0001:00008554       ?InPlaceActivate@CComControlBase@ATL@@QEAAJJPEBUtagRECT@@@Z 0000000180009554 f i ElectronicJournal.obj
 0001:00008888       ?Init@?$CComEnumImpl@UIEnumConnectionPoints@@$1?_GUID_b196b285_bab4_101a_b69c_00aa00341d07@@3U__s_GUID@@BPEAUIConnectionPoint@@V?$_CopyInterface@UIConnectionPoint@@@ATL@@@ATL@@QEAAJPEAPEAUIConnectionPoint@@0PEAUIUnknown@@W4CComEnumFlags@2@@Z 0000000180009888 f i ElectronicJournal.obj
 0001:000089a8       ?Init@?$CComEnumImpl@UIEnumConnections@@$1?_GUID_b196b287_bab4_101a_b69c_00aa00341d07@@3U__s_GUID@@BUtagCONNECTDATA@@V?$_Copy@UtagCONNECTDATA@@@ATL@@@ATL@@QEAAJPEAUtagCONNECTDATA@@0PEAUIUnknown@@W4CComEnumFlags@2@@Z 00000001800099a8 f i ElectronicJournal.obj
 0001:00008acc       ?IsEqualObject@?$CComPtrBase@UIOleClientSite@@@ATL@@QEAA_NPEAUIUnknown@@@Z 0000000180009acc f i ElectronicJournal.obj
 0001:00008b58       ?LoadNameCache@CComTypeInfoHolder@ATL@@QEAAJPEAUITypeInfo@@@Z 0000000180009b58 f i ElectronicJournal.obj
 0001:00008cd8       ?Lookup@?$CSimpleMap@PEA_WPEA_WVCExpansionVectorEqualHelper@ATL@@@ATL@@QEBAPEA_WAEBQEA_W@Z 0000000180009cd8 f i ElectronicJournal.obj
 0001:00008d60       ?NextToken@CRegParser@ATL@@IEAAJPEA_W@Z 0000000180009d60 f i ElectronicJournal.obj
 0001:00008f18       ?OnKillFocus@CComControlBase@ATL@@QEAA_JI_K_JAEAH@Z 0000000180009f18 f i ElectronicJournal.obj
 0001:00008fb4       ?OnMouseActivate@CComControlBase@ATL@@QEAA_JI_K_JAEAH@Z 0000000180009fb4 f i ElectronicJournal.obj
 0001:00009054       ?OnPaint@CComControlBase@ATL@@QEAA_JI_K_JAEAH@Z 000000018000a054 f i ElectronicJournal.obj
 0001:00009140       ?OnSetFocus@CComControlBase@ATL@@QEAA_JI_K_JAEAH@Z 000000018000a140 f i ElectronicJournal.obj
 0001:0000923c       ?PreProcessBuffer@CRegParser@ATL@@QEAAJPEA_WPEAPEA_W@Z 000000018000a23c f i ElectronicJournal.obj
 0001:000095c8       ?ProcessWindowMessage@?$CComControl@VCOPOSElectronicJournal@@V?$CWindowImpl@VCOPOSElectronicJournal@@VCWindow@ATL@@V?$CWinTraits@$0FGAAAAAA@$0A@@3@@ATL@@@ATL@@UEAAHPEAUHWND__@@I_K_JAEA_JK@Z 000000018000a5c8 f i ElectronicJournal.obj
 0001:000096ac       ?ReadFromStream@CComBSTR@ATL@@QEAAJPEAUIStream@@@Z 000000018000a6ac f i ElectronicJournal.obj
 0001:000097fc       ?ReadFromStream@CComVariant@ATL@@QEAAJPEAUIStream@@GTClassesAllowedInStream@2@K@Z 000000018000a7fc f i ElectronicJournal.obj
 0001:00009a20       ?RecurseDeleteKey@CRegKey@ATL@@QEAAJPEB_W@Z 000000018000aa20 f i ElectronicJournal.obj
 0001:00009b78       ?RegCreateKeyExW@CAtlTransactionManager@ATL@@QEAAJPEAUHKEY__@@PEB_WKPEA_WKKQEAU_SECURITY_ATTRIBUTES@@PEAPEAU3@PEAK@Z 000000018000ab78 f i ElectronicJournal.obj
 0001:00009cac       ?RegDeleteKeyW@CAtlTransactionManager@ATL@@QEAAJPEAUHKEY__@@PEB_W@Z 000000018000acac f i ElectronicJournal.obj
 0001:00009d38       ?RegOpenKeyExW@CAtlTransactionManager@ATL@@QEAAJPEAUHKEY__@@PEB_WKKPEAPEAU3@@Z 000000018000ad38 f i ElectronicJournal.obj
 0001:00009df0       ?RegisterBuffer@CRegParser@ATL@@QEAAJPEA_WH@Z 000000018000adf0 f i ElectronicJournal.obj
 0001:00009f58       ?RegisterFromResource@CRegObject@ATL@@IEAAJPEB_W00H@Z 000000018000af58 f i ElectronicJournal.obj
 0001:0000a114       ?RegisterServer@CComModule@ATL@@QEAAJHPEBU_GUID@@@Z 000000018000b114 f i ElectronicJournal.obj
 0001:0000a1d4       ?RegisterSubkeys@CRegParser@ATL@@IEAAJPEA_WPEAUHKEY__@@HH@Z 000000018000b1d4 f i ElectronicJournal.obj
 0001:0000aa40       ?SendOnDataChange@CComControlBase@ATL@@QEAAJK@Z 000000018000ba40 f i ElectronicJournal.obj
 0001:0000aab0       ?SetControlFocus@CComControlBase@ATL@@QEAAHH@Z 000000018000bab0 f i ElectronicJournal.obj
 0001:0000ab8c       ?SkipAssignment@CRegParser@ATL@@IEAAJPEA_W@Z 000000018000bb8c f i ElectronicJournal.obj
 0001:0000ac30       ?Term@CAtlModule@ATL@@QEAAXXZ 000000018000bc30 f i ElectronicJournal.obj
 0001:0000acb0       ?Term@CComModule@ATL@@QEAAXXZ 000000018000bcb0 f i ElectronicJournal.obj
 0001:0000ad2c       ?UnregisterServer@CComModule@ATL@@QEAAJHPEBU_GUID@@@Z 000000018000bd2c f i ElectronicJournal.obj
 0001:0000addc       ?UpdateRegistryFromResource@CAtlModule@ATL@@QEAAJIHPEAU_ATL_REGMAP_ENTRY@2@@Z 000000018000bddc f i ElectronicJournal.obj
 0001:0000b0e8       ?UpdateRegistryFromResource@CAtlModule@ATL@@QEAAJPEB_WHPEAU_ATL_REGMAP_ENTRY@2@@Z 000000018000c0e8 f i ElectronicJournal.obj
 0001:0000b40c       ?VTFromRegType@CRegParser@ATL@@KAHPEB_WAEAG@Z 000000018000c40c f i ElectronicJournal.obj
 0001:0000b4a8       ?WindowProc@?$CWindowImplBaseT@VCWindow@ATL@@V?$CWinTraits@$0FGAAAAAA@$0A@@2@@ATL@@SA_JPEAUHWND__@@I_K_J@Z 000000018000c4a8 f i ElectronicJournal.obj
 0001:0000b614       ?WriteToStream@CComVariant@ATL@@QEAAJPEAUIStream@@@Z 000000018000c614 f i ElectronicJournal.obj
 0001:0000b890       ?WriteToStream@CComVariant@ATL@@QEAAJPEAUIStream@@G@Z 000000018000c890 f i ElectronicJournal.obj
 0001:0000b928       ?_AtlVerifyStackAvailable@_ATL_SAFE_ALLOCA_IMPL@ATL@@YA_N_K@Z 000000018000c928 f i ElectronicJournal.obj
 0001:0000b9ac       ?atlCreate@?$CWindowImpl@VCOPOSElectronicJournal@@VCWindow@ATL@@V?$CWinTraits@$0FGAAAAAA@$0A@@3@@ATL@@QEAAPEAUHWND__@@PEAU3@V_U_RECT@2@PEB_WKKV_U_MENUorID@2@PEAX@Z 000000018000c9ac f i ElectronicJournal.obj
 0001:0000ba5c       ?atlCreate@?$CWindowImplBaseT@VCWindow@ATL@@V?$CWinTraits@$0FGAAAAAA@$0A@@2@@ATL@@QEAAPEAUHWND__@@PEAU3@V_U_RECT@2@PEB_WKKV_U_MENUorID@2@GPEAX@Z 000000018000ca5c f i ElectronicJournal.obj
 0001:0000bbcc       ?ocscpy_s@@YA_NPEA_W_KPEB_W@Z 000000018000cbcc f i ElectronicJournal.obj
 0001:0000bc7c       DllCanUnloadNow            000000018000cc7c f   ElectronicJournal.obj
 0001:0000bc88       DllGetClassObject          000000018000cc88 f   ElectronicJournal.obj
 0001:0000bca0       DllMain                    000000018000cca0 f   ElectronicJournal.obj
 0001:0000bd48       DllRegisterServer          000000018000cd48 f   ElectronicJournal.obj
 0001:0000bd5c       DllUnregisterServer        000000018000cd5c f   ElectronicJournal.obj
 0001:0000bd70       __local_stdio_printf_options 000000018000cd70 f i ElectronicJournal.obj
 0001:0000bd78       swprintf_s                 000000018000cd78 f i ElectronicJournal.obj
 0001:0000bdcc       ??0COPOSElectronicJournal@@QEAA@XZ 000000018000cdcc f   ElectronicJournalImpl.obj
 0001:0000be9c       ??1?$IConnectionPointImpl@VCOPOSElectronicJournal@@$1?IID_IPropertyNotifySink@@3U_GUID@@BVCComDynamicUnkArray@ATL@@@ATL@@QEAA@XZ 000000018000ce9c f i ElectronicJournalImpl.obj
 0001:0000be9c       ??1?$IConnectionPointImpl@VCOPOSElectronicJournal@@$1?DIID__IOPOSElectronicJournalEvents@@3U_GUID@@BVCComDynamicUnkArray@ATL@@@ATL@@QEAA@XZ 000000018000ce9c f i ElectronicJournalImpl.obj
 0001:0000bef8       ??1CComControlBase@ATL@@UEAA@XZ 000000018000cef8 f i ElectronicJournalImpl.obj
 0001:0000bf74       ??1COPOSElectronicJournal@@UEAA@XZ 000000018000cf74 f   ElectronicJournalImpl.obj
 0001:0000bfd8       ?AddMarker@COPOSElectronicJournal@@UEAAJPEA_WPEAJ@Z 000000018000cfd8 f   ElectronicJournalImpl.obj
 0001:0000c060       ?CancelPrintContent@COPOSElectronicJournal@@UEAAJPEAJ@Z 000000018000d060 f   ElectronicJournalImpl.obj
 0001:0000c088       ?CancelQueryContent@COPOSElectronicJournal@@UEAAJPEAJ@Z 000000018000d088 f   ElectronicJournalImpl.obj
 0001:0000c0b0       ?CheckHealth@COPOSElectronicJournal@@UEAAJJPEAJ@Z 000000018000d0b0 f   ElectronicJournalImpl.obj
 0001:0000c12c       ?ClaimDevice@COPOSElectronicJournal@@UEAAJJPEAJ@Z 000000018000d12c f   ElectronicJournalImpl.obj
 0001:0000c1cc       ?ClearInput@COPOSElectronicJournal@@UEAAJPEAJ@Z 000000018000d1cc f   ElectronicJournalImpl.obj
 0001:0000c1f4       ?ClearOutput@COPOSElectronicJournal@@UEAAJPEAJ@Z 000000018000d1f4 f   ElectronicJournalImpl.obj
 0001:0000c21c       ?Close@COPOSElectronicJournal@@UEAAJPEAJ@Z 000000018000d21c f   ElectronicJournalImpl.obj
 0001:0000c2d4       ?CompareFirmwareVersion@COPOSElectronicJournal@@UEAAJPEA_WPEAJ1@Z 000000018000d2d4 f   ElectronicJournalImpl.obj
 0001:0000c3b0       ?DirectIO@COPOSElectronicJournal@@UEAAJJPEAJPEAPEA_W0@Z 000000018000d3b0 f   ElectronicJournalImpl.obj
 0001:0000c4ac       ?DoInvoke@COPOSElectronicJournal@@IEAAJJPEAVOposVariant@@IHPEAJ_N@Z 000000018000d4ac f   ElectronicJournalImpl.obj
 0001:0000c5e0       ?EraseMedium@COPOSElectronicJournal@@UEAAJPEAJ@Z 000000018000d5e0 f   ElectronicJournalImpl.obj
 0001:0000c608       ?EventInit@COPOSElectronicJournal@@IEAAJXZ 000000018000d608 f i ElectronicJournalImpl.obj
 0001:0000c750       ?EventUninit@COPOSElectronicJournal@@IEAAXXZ 000000018000d750 f i ElectronicJournalImpl.obj
 0001:0000c7b4       ?EventWindowProc@COPOSElectronicJournal@@IEAA_JI_K_J@Z 000000018000d7b4 f i ElectronicJournalImpl.obj
 0001:0000c978       ?FinalConstruct@COPOSElectronicJournal@@QEAAJXZ 000000018000d978 f   ElectronicJournalImpl.obj
 0001:0000c9b4       ?FreezeEvents@COPOSElectronicJournal@@MEAAJH@Z 000000018000d9b4 f   ElectronicJournalImpl.obj
 0001:0000ca28       ?GetOposProp@COPOSElectronicJournal@@IEAAJJPEAJJ@Z 000000018000da28 f   ElectronicJournalImpl.obj
 0001:0000cb44       ?GetOposProp@COPOSElectronicJournal@@IEAAJJPEAPEA_WJ@Z 000000018000db44 f   ElectronicJournalImpl.obj
 0001:0000cc70       ?InitializeMedium@COPOSElectronicJournal@@UEAAJPEA_WPEAJ@Z 000000018000dc70 f   ElectronicJournalImpl.obj
 0001:0000ccf8       ?OnDraw@COPOSElectronicJournal@@MEAAJAEAUATL_DRAWINFO@@@Z 000000018000dcf8 f   ElectronicJournalImpl.obj
 0001:0000cde4       ?Open@COPOSElectronicJournal@@UEAAJPEA_WPEAJ@Z 000000018000dde4 f   ElectronicJournalImpl.obj
 0001:0000d66c       ?PrintContent@COPOSElectronicJournal@@UEAAJPEA_W0PEAJ@Z 000000018000e66c f   ElectronicJournalImpl.obj
 0001:0000d748       ?PrintContentFile@COPOSElectronicJournal@@UEAAJPEA_WPEAJ@Z 000000018000e748 f   ElectronicJournalImpl.obj
 0001:0000d7d0       ?QueryContent@COPOSElectronicJournal@@UEAAJPEA_W00PEAJ@Z 000000018000e7d0 f   ElectronicJournalImpl.obj
 0001:0000d8bc       ?ReleaseDevice@COPOSElectronicJournal@@UEAAJPEAJ@Z 000000018000e8bc f   ElectronicJournalImpl.obj
 0001:0000d928       ?ResetStatistics@COPOSElectronicJournal@@UEAAJPEA_WPEAJ@Z 000000018000e928 f   ElectronicJournalImpl.obj
 0001:0000d9b0       ?ResumePrintContent@COPOSElectronicJournal@@UEAAJPEAJ@Z 000000018000e9b0 f   ElectronicJournalImpl.obj
 0001:0000d9d8       ?ResumeQueryContent@COPOSElectronicJournal@@UEAAJPEAJ@Z 000000018000e9d8 f   ElectronicJournalImpl.obj
 0001:0000da00       ?RetrieveCurrentMarker@COPOSElectronicJournal@@UEAAJJPEAPEA_WPEAJ@Z 000000018000ea00 f   ElectronicJournalImpl.obj
 0001:0000dad8       ?RetrieveMarker@COPOSElectronicJournal@@UEAAJJJJPEAPEA_WPEAJ@Z 000000018000ead8 f   ElectronicJournalImpl.obj
 0001:0000dbe8       ?RetrieveMarkerByDateTime@COPOSElectronicJournal@@UEAAJJPEA_W0PEAPEA_WPEAJ@Z 000000018000ebe8 f   ElectronicJournalImpl.obj
 0001:0000dcf0       ?RetrieveMarkersDateTime@COPOSElectronicJournal@@UEAAJPEA_WPEAPEA_WPEAJ@Z 000000018000ecf0 f   ElectronicJournalImpl.obj
 0001:0000ddcc       ?RetrieveStatistics@COPOSElectronicJournal@@UEAAJPEAPEA_WPEAJ@Z 000000018000edcc f   ElectronicJournalImpl.obj
 0001:0000de54       ?SOProcessID@COPOSElectronicJournal@@UEAAJPEAJ@Z 000000018000ee54 f   ElectronicJournalImpl.obj
 0001:0000de70       ?SetCOFreezeEvents@COPOSElectronicJournal@@IEAAXF@Z 000000018000ee70 f   ElectronicJournalImpl.obj
 0001:0000df54       ?SetOposProp@COPOSElectronicJournal@@IEAAJJJJ@Z 000000018000ef54 f   ElectronicJournalImpl.obj
 0001:0000e0b4       ?SuspendPrintContent@COPOSElectronicJournal@@UEAAJPEAJ@Z 000000018000f0b4 f   ElectronicJournalImpl.obj
 0001:0000e0dc       ?SuspendQueryContent@COPOSElectronicJournal@@UEAAJPEAJ@Z 000000018000f0dc f   ElectronicJournalImpl.obj
 0001:0000e104       ?UpdateFirmware@COPOSElectronicJournal@@UEAAJPEA_WPEAJ@Z 000000018000f104 f   ElectronicJournalImpl.obj
 0001:0000e18c       ?UpdateStatistics@COPOSElectronicJournal@@UEAAJPEA_WPEAJ@Z 000000018000f18c f   ElectronicJournalImpl.obj
 0001:0000e214       ?get_AsyncMode@COPOSElectronicJournal@@UEAAJPEAF@Z 000000018000f214 f   ElectronicJournalImpl.obj
 0001:0000e248       ?get_AutoDisable@COPOSElectronicJournal@@UEAAJPEAF@Z 000000018000f248 f   ElectronicJournalImpl.obj
 0001:0000e278       ?get_BinaryConversion@COPOSElectronicJournal@@UEAAJPEAJ@Z 000000018000f278 f   ElectronicJournalImpl.obj
 0001:0000e28c       ?get_CapAddMarker@COPOSElectronicJournal@@UEAAJPEAF@Z 000000018000f28c f   ElectronicJournalImpl.obj
 0001:0000e2c0       ?get_CapCompareFirmwareVersion@COPOSElectronicJournal@@UEAAJPEAF@Z 000000018000f2c0 f   ElectronicJournalImpl.obj
 0001:0000e2f4       ?get_CapErasableMedium@COPOSElectronicJournal@@UEAAJPEAF@Z 000000018000f2f4 f   ElectronicJournalImpl.obj
 0001:0000e328       ?get_CapInitializeMedium@COPOSElectronicJournal@@UEAAJPEAF@Z 000000018000f328 f   ElectronicJournalImpl.obj
 0001:0000e35c       ?get_CapMediumIsAvailable@COPOSElectronicJournal@@UEAAJPEAF@Z 000000018000f35c f   ElectronicJournalImpl.obj
 0001:0000e390       ?get_CapPowerReporting@COPOSElectronicJournal@@UEAAJPEAJ@Z 000000018000f390 f   ElectronicJournalImpl.obj
 0001:0000e3a4       ?get_CapPrintContent@COPOSElectronicJournal@@UEAAJPEAF@Z 000000018000f3a4 f   ElectronicJournalImpl.obj
 0001:0000e3d8       ?get_CapPrintContentFile@COPOSElectronicJournal@@UEAAJPEAF@Z 000000018000f3d8 f   ElectronicJournalImpl.obj
 0001:0000e40c       ?get_CapRetrieveCurrentMarker@COPOSElectronicJournal@@UEAAJPEAF@Z 000000018000f40c f   ElectronicJournalImpl.obj
 0001:0000e440       ?get_CapRetrieveMarker@COPOSElectronicJournal@@UEAAJPEAF@Z 000000018000f440 f   ElectronicJournalImpl.obj
 0001:0000e474       ?get_CapRetrieveMarkerByDateTime@COPOSElectronicJournal@@UEAAJPEAF@Z 000000018000f474 f   ElectronicJournalImpl.obj
 0001:0000e4a8       ?get_CapRetrieveMarkersDateTime@COPOSElectronicJournal@@UEAAJPEAF@Z 000000018000f4a8 f   ElectronicJournalImpl.obj
 0001:0000e4dc       ?get_CapStation@COPOSElectronicJournal@@UEAAJPEAJ@Z 000000018000f4dc f   ElectronicJournalImpl.obj
 0001:0000e4f0       ?get_CapStatisticsReporting@COPOSElectronicJournal@@UEAAJPEAF@Z 000000018000f4f0 f   ElectronicJournalImpl.obj
 0001:0000e524       ?get_CapStorageEnabled@COPOSElectronicJournal@@UEAAJPEAF@Z 000000018000f524 f   ElectronicJournalImpl.obj
 0001:0000e558       ?get_CapSuspendPrintContent@COPOSElectronicJournal@@UEAAJPEAF@Z 000000018000f558 f   ElectronicJournalImpl.obj
 0001:0000e58c       ?get_CapSuspendQueryContent@COPOSElectronicJournal@@UEAAJPEAF@Z 000000018000f58c f   ElectronicJournalImpl.obj
 0001:0000e5c0       ?get_CapUpdateFirmware@COPOSElectronicJournal@@UEAAJPEAF@Z 000000018000f5c0 f   ElectronicJournalImpl.obj
 0001:0000e5f4       ?get_CapUpdateStatistics@COPOSElectronicJournal@@UEAAJPEAF@Z 000000018000f5f4 f   ElectronicJournalImpl.obj
 0001:0000e628       ?get_CapWaterMark@COPOSElectronicJournal@@UEAAJPEAF@Z 000000018000f628 f   ElectronicJournalImpl.obj
 0001:0000e65c       ?get_CheckHealthText@COPOSElectronicJournal@@UEAAJPEAPEA_W@Z 000000018000f65c f   ElectronicJournalImpl.obj
 0001:0000e670       ?get_Claimed@COPOSElectronicJournal@@UEAAJPEAF@Z 000000018000f670 f   ElectronicJournalImpl.obj
 0001:0000e6a4       ?get_ControlObjectDescription@COPOSElectronicJournal@@UEAAJPEAPEA_W@Z 000000018000f6a4 f   ElectronicJournalImpl.obj
 0001:0000e708       ?get_ControlObjectVersion@COPOSElectronicJournal@@UEAAJPEAJ@Z 000000018000f708 f   ElectronicJournalImpl.obj
 0001:0000e714       ?get_DataCount@COPOSElectronicJournal@@UEAAJPEAJ@Z 000000018000f714 f   ElectronicJournalImpl.obj
 0001:0000e728       ?get_DataEventEnabled@COPOSElectronicJournal@@UEAAJPEAF@Z 000000018000f728 f   ElectronicJournalImpl.obj
 0001:0000e75c       ?get_DeviceDescription@COPOSElectronicJournal@@UEAAJPEAPEA_W@Z 000000018000f75c f   ElectronicJournalImpl.obj
 0001:0000e770       ?get_DeviceEnabled@COPOSElectronicJournal@@UEAAJPEAF@Z 000000018000f770 f   ElectronicJournalImpl.obj
 0001:0000e7a4       ?get_DeviceName@COPOSElectronicJournal@@UEAAJPEAPEA_W@Z 000000018000f7a4 f   ElectronicJournalImpl.obj
 0001:0000e7b8       ?get_FlagWhenIdle@COPOSElectronicJournal@@UEAAJPEAF@Z 000000018000f7b8 f   ElectronicJournalImpl.obj
 0001:0000e7ec       ?get_FreezeEvents@COPOSElectronicJournal@@UEAAJPEAF@Z 000000018000f7ec f   ElectronicJournalImpl.obj
 0001:0000e81c       ?get_MediumFreeSpace@COPOSElectronicJournal@@UEAAJPEATtagCY@@@Z 000000018000f81c f   ElectronicJournalImpl.obj
 0001:0000e8ec       ?get_MediumID@COPOSElectronicJournal@@UEAAJPEAPEA_W@Z 000000018000f8ec f   ElectronicJournalImpl.obj
 0001:0000e900       ?get_MediumIsAvailable@COPOSElectronicJournal@@UEAAJPEAF@Z 000000018000f900 f   ElectronicJournalImpl.obj
 0001:0000e934       ?get_MediumSize@COPOSElectronicJournal@@UEAAJPEATtagCY@@@Z 000000018000f934 f   ElectronicJournalImpl.obj
 0001:0000ea04       ?get_OpenResult@COPOSElectronicJournal@@UEAAJPEAJ@Z 000000018000fa04 f   ElectronicJournalImpl.obj
 0001:0000ea10       ?get_OutputID@COPOSElectronicJournal@@UEAAJPEAJ@Z 000000018000fa10 f   ElectronicJournalImpl.obj
 0001:0000ea24       ?get_PowerNotify@COPOSElectronicJournal@@UEAAJPEAJ@Z 000000018000fa24 f   ElectronicJournalImpl.obj
 0001:0000ea38       ?get_PowerState@COPOSElectronicJournal@@UEAAJPEAJ@Z 000000018000fa38 f   ElectronicJournalImpl.obj
 0001:0000ea4c       ?get_ResultCode@COPOSElectronicJournal@@UEAAJPEAJ@Z 000000018000fa4c f   ElectronicJournalImpl.obj
 0001:0000ea88       ?get_ResultCodeExtended@COPOSElectronicJournal@@UEAAJPEAJ@Z 000000018000fa88 f   ElectronicJournalImpl.obj
 0001:0000ea9c       ?get_ServiceObjectDescription@COPOSElectronicJournal@@UEAAJPEAPEA_W@Z 000000018000fa9c f   ElectronicJournalImpl.obj
 0001:0000eab0       ?get_ServiceObjectVersion@COPOSElectronicJournal@@UEAAJPEAJ@Z 000000018000fab0 f   ElectronicJournalImpl.obj
 0001:0000eac4       ?get_State@COPOSElectronicJournal@@UEAAJPEAJ@Z 000000018000fac4 f   ElectronicJournalImpl.obj
 0001:0000eaf0       ?get_Station@COPOSElectronicJournal@@UEAAJPEAJ@Z 000000018000faf0 f   ElectronicJournalImpl.obj
 0001:0000eb04       ?get_StorageEnabled@COPOSElectronicJournal@@UEAAJPEAF@Z 000000018000fb04 f   ElectronicJournalImpl.obj
 0001:0000eb38       ?get_Suspended@COPOSElectronicJournal@@UEAAJPEAF@Z 000000018000fb38 f   ElectronicJournalImpl.obj
 0001:0000eb6c       ?get_WaterMark@COPOSElectronicJournal@@UEAAJPEAF@Z 000000018000fb6c f   ElectronicJournalImpl.obj
 0001:0000eba0       ?put_AsyncMode@COPOSElectronicJournal@@UEAAJF@Z 000000018000fba0 f   ElectronicJournalImpl.obj
 0001:0000ebbc       ?put_AutoDisable@COPOSElectronicJournal@@UEAAJF@Z 000000018000fbbc f   ElectronicJournalImpl.obj
 0001:0000ebd4       ?put_BinaryConversion@COPOSElectronicJournal@@UEAAJJ@Z 000000018000fbd4 f   ElectronicJournalImpl.obj
 0001:0000ebe8       ?put_DataEventEnabled@COPOSElectronicJournal@@UEAAJF@Z 000000018000fbe8 f   ElectronicJournalImpl.obj
 0001:0000ec00       ?put_DeviceEnabled@COPOSElectronicJournal@@UEAAJF@Z 000000018000fc00 f   ElectronicJournalImpl.obj
 0001:0000ec18       ?put_FlagWhenIdle@COPOSElectronicJournal@@UEAAJF@Z 000000018000fc18 f   ElectronicJournalImpl.obj
 0001:0000ec34       ?put_FreezeEvents@COPOSElectronicJournal@@UEAAJF@Z 000000018000fc34 f   ElectronicJournalImpl.obj
 0001:0000ec84       ?put_PowerNotify@COPOSElectronicJournal@@UEAAJJ@Z 000000018000fc84 f   ElectronicJournalImpl.obj
 0001:0000ec98       ?put_Station@COPOSElectronicJournal@@UEAAJJ@Z 000000018000fc98 f   ElectronicJournalImpl.obj
 0001:0000ecac       ?put_StorageEnabled@COPOSElectronicJournal@@UEAAJF@Z 000000018000fcac f   ElectronicJournalImpl.obj
 0001:0000ecc8       ?put_WaterMark@COPOSElectronicJournal@@UEAAJF@Z 000000018000fcc8 f   ElectronicJournalImpl.obj
 0001:0000ece4       ?s_EventWindowProc@COPOSElectronicJournal@@KA_JPEAUHWND__@@I_K_J@Z 000000018000fce4 f i ElectronicJournalImpl.obj
 0001:0000ed60       ??_U@YAPEAX_K@Z            000000018000fd60 f   LIBCMT:new_array.obj
 0001:0000ed68       ??_V@YAXPEAX@Z             000000018000fd68 f   LIBCMT:delete_array.obj
 0001:0000ed68       ??3@YAXPEAX_K@Z            000000018000fd68 f   LIBCMT:delete_scalar_size.obj
 0001:0000ed70       ??_V@YAXPEAX_K@Z           000000018000fd70 f   LIBCMT:delete_array_size.obj
 0001:0000ed78       __scrt_acquire_startup_lock 000000018000fd78 f   LIBCMT:utility.obj
 0001:0000edb4       __scrt_dllmain_after_initialize_c 000000018000fdb4 f   LIBCMT:utility.obj
 0001:0000ede8       __scrt_dllmain_before_initialize_c 000000018000fde8 f   LIBCMT:utility.obj
 0001:0000ee00       __scrt_dllmain_crt_thread_attach 000000018000fe00 f   LIBCMT:utility.obj
 0001:0000ee28       __scrt_dllmain_crt_thread_detach 000000018000fe28 f   LIBCMT:utility.obj
 0001:0000ee40       __scrt_dllmain_exception_filter 000000018000fe40 f   LIBCMT:utility.obj
 0001:0000eea0       __scrt_dllmain_uninitialize_c 000000018000fea0 f   LIBCMT:utility.obj
 0001:0000eed0       __scrt_dllmain_uninitialize_critical 000000018000fed0 f   LIBCMT:utility.obj
 0001:0000eee4       __scrt_initialize_crt      000000018000fee4 f   LIBCMT:utility.obj
 0001:0000ef30       __scrt_initialize_onexit_tables 000000018000ff30 f   LIBCMT:utility.obj
 0001:0000efbc       __scrt_is_nonwritable_in_current_image 000000018000ffbc f   LIBCMT:utility.obj
 0001:0000f054       __scrt_release_startup_lock 0000000180010054 f   LIBCMT:utility.obj
 0001:0000f078       __scrt_uninitialize_crt    0000000180010078 f   LIBCMT:utility.obj
 0001:0000f0a4       _onexit                    00000001800100a4 f   LIBCMT:utility.obj
 0001:0000f0e0       atexit                     00000001800100e0 f   LIBCMT:utility.obj
 0001:0000f0f8       ??3@YAXPEAX@Z              00000001800100f8 f   LIBCMT:delete_scalar.obj
 0001:0000f1f8       _Init_thread_footer        00000001800101f8 f   LIBCMT:thread_safe_statics.obj
 0001:0000f258       _Init_thread_header        0000000180010258 f   LIBCMT:thread_safe_statics.obj
 0001:0000f2c0       _Init_thread_notify        00000001800102c0 f   LIBCMT:thread_safe_statics.obj
 0001:0000f304       _Init_thread_wait          0000000180010304 f   LIBCMT:thread_safe_statics.obj
 0001:0000f368       __raise_securityfailure    0000000180010368 f   LIBCMT:gs_report.obj
 0001:0000f39c       __report_gsfailure         000000018001039c f   LIBCMT:gs_report.obj
 0001:0000f470       __report_rangecheckfailure 0000000180010470 f   LIBCMT:gs_report.obj
 0001:0000f484       __report_securityfailure   0000000180010484 f   LIBCMT:gs_report.obj
 0001:0000f604       ??2@YAPEAX_KAEBUnothrow_t@std@@@Z 0000000180010604 f   LIBCMT:new_scalar_nothrow.obj
 0001:0000f618       ??_U@YAPEAX_KAEBUnothrow_t@std@@@Z 0000000180010618 f   LIBCMT:new_array_nothrow.obj
 0001:0000f620       __GSHandlerCheck           0000000180010620 f   LIBCMT:gshandler.obj
 0001:0000f640       __GSHandlerCheckCommon     0000000180010640 f   LIBCMT:gshandler.obj
 0001:0000f69c       __GSHandlerCheck_SEH       000000018001069c f   LIBCMT:gshandlerseh.obj
 0001:0000f740       __chkstk                   0000000180010740 f   LIBCMT:chkstk.obj
 0001:0000f740       _alloca_probe              0000000180010740 f   LIBCMT:chkstk.obj
 0001:0000f7b0       __security_check_cookie    00000001800107b0 f   LIBCMT:amdsecgs.obj
 0001:0000faf4       _DllMainCRTStartup         0000000180010af4 f   LIBCMT:dll_dllmain.obj
 0001:0000fb34       ??2@YAPEAX_K@Z             0000000180010b34 f   LIBCMT:new_scalar.obj
 0001:0000fb70       __isa_available_init       0000000180010b70 f   LIBCMT:cpu_disp.obj
 0001:0000fd14       __scrt_is_ucrt_dll_in_use  0000000180010d14 f   LIBCMT:ucrt_detection.obj
 0001:0000fd20       __crt_debugger_hook        0000000180010d20 f   LIBCMT:utility_desktop.obj
 0001:0000fd28       __scrt_fastfail            0000000180010d28 f   LIBCMT:utility_desktop.obj
 0001:0000fe74       __security_init_cookie     0000000180010e74 f   LIBCMT:gs_support.obj
 0001:0000ff20       ?__scrt_initialize_type_info@@YAXXZ 0000000180010f20 f   LIBCMT:tncleanup.obj
 0001:0000ff30       ?__scrt_uninitialize_type_info@@YAXXZ 0000000180010f30 f   LIBCMT:tncleanup.obj
 0001:0000ff3c       __local_stdio_scanf_options 0000000180010f3c f i LIBCMT:default_local_stdio_options.obj
 0001:0000ff44       __scrt_initialize_default_local_stdio_options 0000000180010f44 f   LIBCMT:default_local_stdio_options.obj
 0001:0000ff60       __scrt_get_dyn_tls_init_callback 0000000180010f60 f   LIBCMT:dyn_tls_init.obj
 0001:0000ff68       _RTC_Initialize            0000000180010f68 f   LIBCMT:initsect.obj
 0001:0000ffa4       _RTC_Terminate             0000000180010fa4 f   LIBCMT:initsect.obj
 0001:0000ffe0       ??0bad_alloc@std@@QEAA@AEBV01@@Z 0000000180010fe0 f i LIBCMT:throw_bad_alloc.obj
 0001:0001001c       ??0bad_alloc@std@@QEAA@XZ  000000018001101c f i LIBCMT:throw_bad_alloc.obj
 0001:0001003c       ??0bad_array_new_length@std@@QEAA@AEBV01@@Z 000000018001103c f i LIBCMT:throw_bad_alloc.obj
 0001:00010078       ??0bad_array_new_length@std@@QEAA@XZ 0000000180011078 f i LIBCMT:throw_bad_alloc.obj
 0001:00010098       ??0exception@std@@QEAA@AEBV01@@Z 0000000180011098 f i LIBCMT:throw_bad_alloc.obj
 0001:000100cc       ??1bad_array_new_length@std@@UEAA@XZ 00000001800110cc f i LIBCMT:throw_bad_alloc.obj
 0001:000100cc       ??1bad_exception@std@@UEAA@XZ 00000001800110cc f i libvcruntime:frame.obj
 0001:000100cc       ??1bad_alloc@std@@UEAA@XZ  00000001800110cc f i LIBCMT:throw_bad_alloc.obj
 0001:000100e0       ??_Ebad_alloc@std@@UEAAPEAXI@Z 00000001800110e0 f i LIBCMT:throw_bad_alloc.obj
 0001:000100e0       ??_Eexception@std@@UEAAPEAXI@Z 00000001800110e0 f i LIBCMT:throw_bad_alloc.obj
 0001:000100e0       ??_Ebad_array_new_length@std@@UEAAPEAXI@Z 00000001800110e0 f i LIBCMT:throw_bad_alloc.obj
 0001:000100e0       ??_Gbad_array_new_length@std@@UEAAPEAXI@Z 00000001800110e0 f i LIBCMT:throw_bad_alloc.obj
 0001:000100e0       ??_Ebad_exception@std@@UEAAPEAXI@Z 00000001800110e0 f i libvcruntime:frame.obj
 0001:000100e0       ??_Gbad_alloc@std@@UEAAPEAXI@Z 00000001800110e0 f i LIBCMT:throw_bad_alloc.obj
 0001:000100e0       ??_Gbad_exception@std@@UEAAPEAXI@Z 00000001800110e0 f i libvcruntime:frame.obj
 0001:000100e0       ??_Gexception@std@@UEAAPEAXI@Z 00000001800110e0 f i LIBCMT:throw_bad_alloc.obj
 0001:00010124       ?__scrt_throw_std_bad_alloc@@YAXXZ 0000000180011124 f   LIBCMT:throw_bad_alloc.obj
 0001:00010144       ?__scrt_throw_std_bad_array_new_length@@YAXXZ 0000000180011144 f   LIBCMT:throw_bad_alloc.obj
 0001:00010164       ?what@exception@std@@UEBAPEBDXZ 0000000180011164 f i LIBCMT:throw_bad_alloc.obj
 0001:00010180       ??_Etype_info@@UEAAPEAXI@Z 0000000180011180 f i LIBCMT:std_type_info_static.obj
 0001:00010180       ??_Gtype_info@@UEAAPEAXI@Z 0000000180011180 f i LIBCMT:std_type_info_static.obj
 0001:000101ac       ??0CAtlBaseModule@ATL@@QEAA@XZ 00000001800111ac f   atls:atlbase.obj
 0001:00010254       ??1CAtlBaseModule@ATL@@QEAA@XZ 0000000180011254 f   atls:atlbase.obj
 0001:00010388       ?__AllocStdCallThunk_cmn@@YAPEAXXZ 0000000180011388 f   atls:atlthunk.obj
 0001:000104e0       AtlThunk_AllocateData      00000001800114e0 f   atls:atlthunk.obj
 0001:0001055c       AtlThunk_DataToCode        000000018001155c f   atls:atlthunk.obj
 0001:000105b0       AtlThunk_FreeData          00000001800115b0 f   atls:atlthunk.obj
 0001:00010610       AtlThunk_InitData          0000000180011610 f   atls:atlthunk.obj
 0001:000106b8       _get_purecall_handler      00000001800116b8 f   libvcruntime:purevirt.obj
 0001:000106c0       _purecall                  00000001800116c0 f   libvcruntime:purevirt.obj
 0001:000106dc       wcsstr                     00000001800116dc f   libvcruntime:wcsstr.obj
 0001:00010910       memcmp                     0000000180011910 f   libvcruntime:memcmp.obj
 0001:000109f0       memcpy_repmovs             00000001800119f0 f   libvcruntime:memcpy.obj
 0001:00010a10       memcpy                     0000000180011a10 f   libvcruntime:memcpy.obj
 0001:00010a10       memmove                    0000000180011a10 f   libvcruntime:memcpy.obj
 0001:00010e00       memset_repmovs             0000000180011e00 f   libvcruntime:memset.obj
 0001:00010e20       memset                     0000000180011e20 f   libvcruntime:memset.obj
 0001:00010fb0       __vcrt_initialize          0000000180011fb0 f   libvcruntime:initialization.obj
 0001:00010fd8       __vcrt_thread_attach       0000000180011fd8 f   libvcruntime:initialization.obj
 0001:00010fec       __vcrt_thread_detach       0000000180011fec f   libvcruntime:initialization.obj
 0001:00011000       __vcrt_uninitialize        0000000180012000 f   libvcruntime:initialization.obj
 0001:0001101c       __vcrt_uninitialize_critical 000000018001201c f   libvcruntime:initialization.obj
 0001:0001102c       __C_specific_handler       000000018001202c f   libvcruntime:riscchandler.obj
 0001:00011238       ??$_CallSETranslator@V__FrameHandler4@@@@YAHPEAUEHExceptionRecord@@PEA_KPEAU_CONTEXT@@PEAU_xDISPATCHER_CONTEXT@@PEAUFuncInfo4@FH4@@K1H@Z 0000000180012238 f i libvcruntime:risctrnsctrl.obj
 0001:0001128c       ?DecompFuncInfo@FH4@@YA_JPEAEAEAUFuncInfo4@1@_KH_N@Z 000000018001228c f i libvcruntime:risctrnsctrl.obj
 0001:000113b0       ?ExecutionInCatch@__FrameHandler4@@SA_NPEAU_xDISPATCHER_CONTEXT@@PEAUFuncInfo4@FH4@@@Z 00000001800123b0 f   libvcruntime:risctrnsctrl.obj
 0001:000113b8       ?FrameUnwindToEmptyState@__FrameHandler4@@SAXPEA_KPEAU_xDISPATCHER_CONTEXT@@PEAUFuncInfo4@FH4@@@Z 00000001800123b8 f   libvcruntime:risctrnsctrl.obj
 0001:000113ec       ?GetEstablisherFrame@__FrameHandler4@@SAPEA_KPEA_KPEAU_xDISPATCHER_CONTEXT@@PEAUFuncInfo4@FH4@@0@Z 00000001800123ec f   libvcruntime:risctrnsctrl.obj
 0001:00011410       ?GetRangeOfTrysToCheck@__FrameHandler4@@SA?AU?$pair@Viterator@TryBlockMap4@FH4@@V123@@std@@AEAVTryBlockMap4@FH4@@HPEAU_xDISPATCHER_CONTEXT@@PEAUFuncInfo4@5@H@Z 0000000180012410 f   libvcruntime:risctrnsctrl.obj
 0001:0001156c       ?UnwindNestedFrames@__FrameHandler4@@SAXPEA_KPEAUEHExceptionRecord@@PEAU_CONTEXT@@0PEAXPEAUFuncInfo4@FH4@@HHPEAUHandlerType4@5@PEAU_xDISPATCHER_CONTEXT@@E@Z 000000018001256c f   libvcruntime:risctrnsctrl.obj
 0001:0001168c       ?setBuffer@TryBlockMap4@FH4@@QEAAXViterator@12@@Z 000000018001268c f i libvcruntime:risctrnsctrl.obj
 0001:00011850       _CreateFrameInfo           0000000180012850 f   libvcruntime:risctrnsctrl.obj
 0001:0001188c       _FindAndUnlinkFrame        000000018001288c f   libvcruntime:risctrnsctrl.obj
 0001:000118e0       _GetImageBase              00000001800128e0 f   libvcruntime:risctrnsctrl.obj
 0001:000118f4       _GetThrowImageBase         00000001800128f4 f   libvcruntime:risctrnsctrl.obj
 0001:00011908       _SetImageBase              0000000180012908 f   libvcruntime:risctrnsctrl.obj
 0001:00011920       _SetThrowImageBase         0000000180012920 f   libvcruntime:risctrnsctrl.obj
 0001:00011938       __CxxFrameHandler4         0000000180012938 f   libvcruntime:risctrnsctrl.obj
 0001:000119f8       __DestructExceptionObject  00000001800129f8 f   libvcruntime:ehhelpers.obj
 0001:00011a68       ?_CallMemberFunction0@@YAXQEAX0@Z 0000000180012a68 f i libvcruntime:ehhelpers.obj
 0001:00011a6c       _IsExceptionObjectToBeDestroyed 0000000180012a6c f   libvcruntime:ehhelpers.obj
 0001:00011a9c       __AdjustPointer            0000000180012a9c f   libvcruntime:ehhelpers.obj
 0001:00011ac0       __FrameUnwindFilter        0000000180012ac0 f   libvcruntime:ehhelpers.obj
 0001:00011b28       __std_type_info_compare    0000000180012b28 f   libvcruntime:std_type_info.obj
 0001:00011b50       __std_type_info_destroy_list 0000000180012b50 f   libvcruntime:std_type_info.obj
 0001:00011b7c       __std_exception_copy       0000000180012b7c f   libvcruntime:std_exception.obj
 0001:00011c0c       __std_exception_destroy    0000000180012c0c f   libvcruntime:std_exception.obj
 0001:00011c34       _CxxThrowException         0000000180012c34 f   libvcruntime:throw.obj
 0001:00011cd4       __vcrt_freefls             0000000180012cd4 f   libvcruntime:per_thread_data.obj
 0001:00011cf4       __vcrt_freeptd             0000000180012cf4 f   libvcruntime:per_thread_data.obj
 0001:00011d44       __vcrt_getptd              0000000180012d44 f   libvcruntime:per_thread_data.obj
 0001:00011d60       __vcrt_getptd_noexit       0000000180012d60 f   libvcruntime:per_thread_data.obj
 0001:00011e20       __vcrt_initialize_ptd      0000000180012e20 f   libvcruntime:per_thread_data.obj
 0001:00011e68       __vcrt_uninitialize_ptd    0000000180012e68 f   libvcruntime:per_thread_data.obj
 0001:00011e8c       __vcrt_initialize_locks    0000000180012e8c f   libvcruntime:locks.obj
 0001:00011ec0       __vcrt_uninitialize_locks  0000000180012ec0 f   libvcruntime:locks.obj
 0001:00011f10       _NLG_Notify                0000000180012f10 f   libvcruntime:notify.obj
 0001:00011f30       __NLG_Dispatch2            0000000180012f30 f   libvcruntime:notify.obj
 0001:00011f40       __NLG_Return2              0000000180012f40 f   libvcruntime:notify.obj
 0001:00011f44       __except_validate_context_record 0000000180012f44 f   libvcruntime:jbcxrval.obj
 0001:00011f7c       ?StateFromControlPc@__FrameHandler4@@SAHPEAUFuncInfo4@FH4@@PEAU_xDISPATCHER_CONTEXT@@@Z 0000000180012f7c f   libvcruntime:ehstate.obj
 0001:00011f84       ?StateFromIp@__FrameHandler4@@SAHPEAUFuncInfo4@FH4@@PEAU_xDISPATCHER_CONTEXT@@_K@Z 0000000180012f84 f   libvcruntime:ehstate.obj
 0001:00012c08       ??$TypeMatchHelper@V__FrameHandler3@@@@YAHPEBU_s_HandlerType@@PEBU_s_CatchableType@@PEBU_s_ThrowInfo@@@Z 0000000180013c08 f i libvcruntime:frame.obj
 0001:00012d48       ??$TypeMatchHelper@V__FrameHandler4@@@@YAHPEAUHandlerType4@FH4@@PEBU_s_CatchableType@@PEBU_s_ThrowInfo@@@Z 0000000180013d48 f i libvcruntime:frame.obj
 0001:00012e8c       ??$__InternalCxxFrameHandler@V__FrameHandler4@@@@YA?AW4_EXCEPTION_DISPOSITION@@PEAUEHExceptionRecord@@PEA_KPEAU_CONTEXT@@PEAU_xDISPATCHER_CONTEXT@@PEAUFuncInfo4@FH4@@H1E@Z 0000000180013e8c f i libvcruntime:frame.obj
 0001:00013120       ??0HandlerMap4@FH4@@QEAA@PEBUTryBlockMapEntry4@1@_KH@Z 0000000180014120 f i libvcruntime:frame.obj
 0001:0001319c       ??0TryBlockMap4@FH4@@QEAA@PEBUFuncInfo4@1@_K@Z 000000018001419c f i libvcruntime:frame.obj
 0001:00013274       ??0bad_exception@std@@QEAA@AEBV01@@Z 0000000180014274 f i libvcruntime:frame.obj
 0001:000132b0       ??0bad_exception@std@@QEAA@XZ 00000001800142b0 f i libvcruntime:frame.obj
 0001:000132d0       ?CxxCallCatchBlock@__FrameHandler4@@SAPEAXPEAU_EXCEPTION_RECORD@@@Z 00000001800142d0 f   libvcruntime:frame.obj
 0001:00013520       ?DecompHandler@HandlerMap4@FH4@@AEAAXXZ 0000000180014520 f i libvcruntime:frame.obj
 0001:00013760       ?FrameUnwindToState@__FrameHandler4@@SAXPEA_KPEAU_xDISPATCHER_CONTEXT@@PEAUFuncInfo4@FH4@@H@Z 0000000180014760 f   libvcruntime:frame.obj
 0001:00013bbc       ?ReadEntry@UWMap4@FH4@@AEAAXPEAPEAE@Z 0000000180014bbc f i libvcruntime:frame.obj
 0001:00013c5c       ?_CallMemberFunction1@@YAXQEAX00@Z 0000000180014c5c f i libvcruntime:frame.obj
 0001:00013c68       ?_CallMemberFunction2@@YAXQEAX00H@Z 0000000180014c68 f i libvcruntime:frame.obj
 0001:00013c78       ?getStartStop@UWMap4@FH4@@QEAAXHHAEAViterator@12@0@Z 0000000180014c78 f i libvcruntime:frame.obj
 0001:00013d48       ?getStateFromIterators@UWMap4@FH4@@SAHAEBViterator@12@H0H0@Z 0000000180014d48 f i libvcruntime:frame.obj
 0001:00013f5c       __vcrt_FlsAlloc            0000000180014f5c f   libvcruntime:winapi_downlevel.obj
 0001:00013fa4       __vcrt_FlsFree             0000000180014fa4 f   libvcruntime:winapi_downlevel.obj
 0001:00013fec       __vcrt_FlsGetValue         0000000180014fec f   libvcruntime:winapi_downlevel.obj
 0001:00014034       __vcrt_FlsSetValue         0000000180015034 f   libvcruntime:winapi_downlevel.obj
 0001:00014088       __vcrt_InitializeCriticalSectionEx 0000000180015088 f   libvcruntime:winapi_downlevel.obj
 0001:00014100       _CallSettingFrame          0000000180015100 f   libvcruntime:handlers.obj
 0001:00014150       _CallSettingFrame_LookupContinuationIndex 0000000180015150 f   libvcruntime:handlers.obj
 0001:00014180       _CallSettingFrame_NotifyContinuationAddr 0000000180015180 f   libvcruntime:handlers.obj
 0001:000141b0       _CallSettingFrameEncoded   00000001800151b0 f   libvcruntime:handlers.obj
 0001:000141f8       free                       00000001800151f8 f   libucrt:free.obj
 0001:0001420c       __acrt_call_reportfault    000000018001520c f   libucrt:invalid_parameter.obj
 0001:00014368       __acrt_initialize_invalid_parameter_handler 0000000180015368 f   libucrt:invalid_parameter.obj
 0001:00014370       _invalid_parameter         0000000180015370 f   libucrt:invalid_parameter.obj
 0001:00014420       _invalid_parameter_noinfo  0000000180015420 f   libucrt:invalid_parameter.obj
 0001:00014440       _invoke_watson             0000000180015440 f   libucrt:invalid_parameter.obj
 0001:00014488       __acrt_errno_from_os_error 0000000180015488 f   libucrt:errno.obj
 0001:000144d0       __acrt_errno_map_os_error  00000001800154d0 f   libucrt:errno.obj
 0001:00014520       __doserrno                 0000000180015520 f   libucrt:errno.obj
 0001:00014540       _errno                     0000000180015540 f   libucrt:errno.obj
 0001:00014560       calloc                     0000000180015560 f   libucrt:calloc.obj
 0001:00014568       malloc                     0000000180015568 f   libucrt:malloc.obj
 0001:00014570       _recalloc                  0000000180015570 f   libucrt:recalloc.obj
 0001:00014578       _recalloc_base             0000000180015578 f   libucrt:recalloc.obj
 0001:00014610       _resetstkoflw              0000000180015610 f   libucrt:resetstk.obj
 0001:0001473c       wcscat_s                   000000018001573c f   libucrt:wcscat_s.obj
 0001:000147bc       wcscpy_s                   00000001800157bc f   libucrt:wcscpy_s.obj
 0001:00014824       wcsncpy_s                  0000000180015824 f   libucrt:wcsncpy_s.obj
 0001:00014adc       ??$ensure_buffer_is_big_enough@D@formatting_buffer@__crt_stdio_output@@QEAA_N_K@Z 0000000180015adc f i libucrt:output.obj
 0001:00014b84       ??$ensure_buffer_is_big_enough@_W@formatting_buffer@__crt_stdio_output@@QEAA_N_K@Z 0000000180015b84 f i libucrt:output.obj
 0001:00014c30       ??$is_wide_character_specifier@_W@__crt_stdio_output@@YA_N_K_WW4length_modifier@0@@Z 0000000180015c30 f i libucrt:output.obj
 0001:00014c70       ??$type_case_integer_parse_into_buffer@I@?$output_processor@_WV?$string_output_adapter@_W@__crt_stdio_output@@V?$format_validation_base@_WV?$string_output_adapter@_W@__crt_stdio_output@@@2@@__crt_stdio_output@@AEAAXII_N@Z 0000000180015c70 f i libucrt:output.obj
 0001:00014d14       ??$type_case_integer_parse_into_buffer@_K@?$output_processor@_WV?$string_output_adapter@_W@__crt_stdio_output@@V?$format_validation_base@_WV?$string_output_adapter@_W@__crt_stdio_output@@@2@@__crt_stdio_output@@AEAAX_KI_N@Z 0000000180015d14 f i libucrt:output.obj
 0001:00014db8       ??$write_multiple_characters@V?$string_output_adapter@_W@__crt_stdio_output@@D@__crt_stdio_output@@YAXAEBV?$string_output_adapter@_W@0@DHQEAH@Z 0000000180015db8 f i libucrt:output.obj
 0001:00014e30       ??0_LocaleUpdate@@QEAA@QEAU__crt_locale_pointers@@@Z 0000000180015e30 f i libucrt:output.obj
 0001:00014ed0       ?crop_zeroes@__crt_stdio_output@@YAXPEADQEAU__crt_locale_pointers@@@Z 0000000180015ed0 f i libucrt:output.obj
 0001:00014f70       ?force_decimal_point@__crt_stdio_output@@YAXPEADQEAU__crt_locale_pointers@@@Z 0000000180015f70 f i libucrt:output.obj
 0001:00014fe8       ?parse_int_from_format_string@?$output_processor@_WV?$string_output_adapter@_W@__crt_stdio_output@@V?$format_validation_base@_WV?$string_output_adapter@_W@__crt_stdio_output@@@2@@__crt_stdio_output@@AEAA_NQEAH@Z 0000000180015fe8 f i libucrt:output.obj
 0001:0001508c       ?process@?$output_processor@_WV?$string_output_adapter@_W@__crt_stdio_output@@V?$format_validation_base@_WV?$string_output_adapter@_W@__crt_stdio_output@@@2@@__crt_stdio_output@@QEAAHXZ 000000018001608c f i libucrt:output.obj
 0001:00015304       ?state_case_size@?$output_processor@_WV?$string_output_adapter@_W@__crt_stdio_output@@V?$format_validation_base@_WV?$string_output_adapter@_W@__crt_stdio_output@@@2@@__crt_stdio_output@@AEAA_NXZ 0000000180016304 f i libucrt:output.obj
 0001:00015498       ?state_case_type@?$output_processor@_WV?$string_output_adapter@_W@__crt_stdio_output@@V?$format_validation_base@_WV?$string_output_adapter@_W@__crt_stdio_output@@@2@@__crt_stdio_output@@AEAA_NXZ 0000000180016498 f i libucrt:output.obj
 0001:00015770       ?to_integer_size@__crt_stdio_output@@YA_KW4length_modifier@1@@Z 0000000180016770 f i libucrt:output.obj
 0001:000157d8       ?type_case_Z@?$output_processor@_WV?$string_output_adapter@_W@__crt_stdio_output@@V?$format_validation_base@_WV?$string_output_adapter@_W@__crt_stdio_output@@@2@@__crt_stdio_output@@AEAA_NXZ 00000001800167d8 f i libucrt:output.obj
 0001:00015854       ?type_case_a@?$output_processor@_WV?$string_output_adapter@_W@__crt_stdio_output@@V?$format_validation_base@_WV?$string_output_adapter@_W@__crt_stdio_output@@@2@@__crt_stdio_output@@AEAA_NXZ 0000000180016854 f i libucrt:output.obj
 0001:00015a34       ?type_case_c_tchar@?$output_processor@_WV?$string_output_adapter@_W@__crt_stdio_output@@V?$format_validation_base@_WV?$string_output_adapter@_W@__crt_stdio_output@@@2@@__crt_stdio_output@@AEAA_N_W@Z 0000000180016a34 f i libucrt:output.obj
 0001:00015adc       ?type_case_integer@?$output_processor@_WV?$string_output_adapter@_W@__crt_stdio_output@@V?$format_validation_base@_WV?$string_output_adapter@_W@__crt_stdio_output@@@2@@__crt_stdio_output@@AEAA_NI_N@Z 0000000180016adc f i libucrt:output.obj
 0001:00015c64       ?type_case_n@?$output_processor@_WV?$string_output_adapter@_W@__crt_stdio_output@@V?$format_validation_base@_WV?$string_output_adapter@_W@__crt_stdio_output@@@2@@__crt_stdio_output@@AEAA_NXZ 0000000180016c64 f i libucrt:output.obj
 0001:00015cec       ?type_case_s@?$output_processor@_WV?$string_output_adapter@_W@__crt_stdio_output@@V?$format_validation_base@_WV?$string_output_adapter@_W@__crt_stdio_output@@@2@@__crt_stdio_output@@AEAA_NXZ 0000000180016cec f i libucrt:output.obj
 0001:00015db4       ?write_stored_string_tchar@?$output_processor@_WV?$string_output_adapter@_W@__crt_stdio_output@@V?$format_validation_base@_WV?$string_output_adapter@_W@__crt_stdio_output@@@2@@__crt_stdio_output@@AEAA_N_W@Z 0000000180016db4 f i libucrt:output.obj
 0001:00015e9c       ?write_string@?$string_output_adapter@_W@__crt_stdio_output@@QEBAXQEB_WHQEAHAEAV__crt_deferred_errno_cache@@@Z 0000000180016e9c f i libucrt:output.obj
 0001:00015f44       __stdio_common_vswprintf_s 0000000180016f44 f   libucrt:output.obj
 0001:00015fb4       _seh_filter_dll            0000000180016fb4 f   libucrt:exception_filter.obj
 0001:00015fc8       _seh_filter_exe            0000000180016fc8 f   libucrt:exception_filter.obj
 0001:000163b8       __acrt_initialize_thread_local_exit_callback 00000001800173b8 f   libucrt:exit.obj
 0001:000163c0       _cexit                     00000001800173c0 f   libucrt:exit.obj
 0001:000163d0       _exit                      00000001800173d0 f   libucrt:exit.obj
 0001:000163dc       _is_c_termination_complete 00000001800173dc f   libucrt:exit.obj
 0001:000165a4       __acrt_allocate_buffer_for_argv 00000001800175a4 f   libucrt:argv_parsing.obj
 0001:00016604       _configure_narrow_argv     0000000180017604 f   libucrt:argv_parsing.obj
 0001:0001697c       __dcrt_uninitialize_environments_nolock 000000018001797c f   libucrt:environment_initialization.obj
 0001:000169b4       _initialize_narrow_environment 00000001800179b4 f   libucrt:environment_initialization.obj
 0001:00016cfc       _crt_atexit                0000000180017cfc f   libucrt:onexit.obj
 0001:00016d0c       _execute_onexit_table      0000000180017d0c f   libucrt:onexit.obj
 0001:00016d48       _initialize_onexit_table   0000000180017d48 f   libucrt:onexit.obj
 0001:00016d70       _register_onexit_function  0000000180017d70 f   libucrt:onexit.obj
 0001:00016df0       __acrt_uninitialize_command_line 0000000180017df0 f   libucrt:argv_data.obj
 0001:00016ee8       __acrt_initialize          0000000180017ee8 f   libucrt:initialization.obj
 0001:00016efc       __acrt_thread_attach       0000000180017efc f   libucrt:initialization.obj
 0001:00016f10       __acrt_thread_detach       0000000180017f10 f   libucrt:initialization.obj
 0001:00016f20       __acrt_uninitialize        0000000180017f20 f   libucrt:initialization.obj
 0001:00016f58       __acrt_uninitialize_critical 0000000180017f58 f   libucrt:initialization.obj
 0001:00016f68       _initterm                  0000000180017f68 f   libucrt:initterm.obj
 0001:00016fcc       _initterm_e                0000000180017fcc f   libucrt:initterm.obj
 0001:0001700c       __acrt_initialize_new_handler 000000018001800c f   libucrt:new_handler.obj
 0001:00017014       _callnewh                  0000000180018014 f   libucrt:new_handler.obj
 0001:00017044       _query_new_handler         0000000180018044 f   libucrt:new_handler.obj
 0001:00017078       terminate                  0000000180018078 f   libucrt:terminate.obj
 0001:00017098       abort                      0000000180018098 f   libucrt:abort.obj
 0001:000170f0       strcpy_s                   00000001800180f0 f   libucrt:strcpy_s.obj
 0001:00017150       ??$parse_integer@KV?$c_string_character_source@_W@__crt_strtox@@@__crt_strtox@@YAKQEAU__crt_locale_pointers@@V?$c_string_character_source@_W@0@H_N@Z 0000000180018150 f i libucrt:atox.obj
 0001:00017810       strncmp                    0000000180018810 f   libucrt:strncmp.obj
 0001:00017890       wcsncmp                    0000000180018890 f   libucrt:wcsncmp.obj
 0001:000178bc       _free_base                 00000001800188bc f   libucrt:free_base.obj
 0001:00017c74       __acrt_freeptd             0000000180018c74 f   libucrt:per_thread_data.obj
 0001:00017cb8       __acrt_getptd              0000000180018cb8 f   libucrt:per_thread_data.obj
 0001:00017d8c       __acrt_getptd_head         0000000180018d8c f   libucrt:per_thread_data.obj
 0001:00017e34       __acrt_getptd_noexit       0000000180018e34 f   libucrt:per_thread_data.obj
 0001:00017f00       __acrt_initialize_ptd      0000000180018f00 f   libucrt:per_thread_data.obj
 0001:00017f3c       __acrt_uninitialize_ptd    0000000180018f3c f   libucrt:per_thread_data.obj
 0001:00017f60       _calloc_base               0000000180018f60 f   libucrt:calloc_base.obj
 0001:00017fd8       _malloc_base               0000000180018fd8 f   libucrt:malloc_base.obj
 0001:00018038       _msize_base                0000000180019038 f   libucrt:msize.obj
 0001:00018074       _realloc_base              0000000180019074 f   libucrt:realloc_base.obj
 0001:000182c8       __acrt_AppPolicyGetProcessTerminationMethodInternal 00000001800192c8 f   libucrt:winapi_thunks.obj
 0001:00018318       __acrt_AreFileApisANSI     0000000180019318 f   libucrt:winapi_thunks.obj
 0001:00018354       __acrt_FlsAlloc            0000000180019354 f   libucrt:winapi_thunks.obj
 0001:0001839c       __acrt_FlsFree             000000018001939c f   libucrt:winapi_thunks.obj
 0001:000183e4       __acrt_FlsGetValue         00000001800193e4 f   libucrt:winapi_thunks.obj
 0001:0001842c       __acrt_FlsSetValue         000000018001942c f   libucrt:winapi_thunks.obj
 0001:00018480       __acrt_InitializeCriticalSectionEx 0000000180019480 f   libucrt:winapi_thunks.obj
 0001:000184e4       __acrt_LCMapStringEx       00000001800194e4 f   libucrt:winapi_thunks.obj
 0001:000185c0       __acrt_LocaleNameToLCID    00000001800195c0 f   libucrt:winapi_thunks.obj
 0001:00018610       __acrt_SetThreadStackGuarantee 0000000180019610 f   libucrt:winapi_thunks.obj
 0001:00018654       __acrt_initialize_winapi_thunks 0000000180019654 f   libucrt:winapi_thunks.obj
 0001:00018688       __acrt_uninitialize_winapi_thunks 0000000180019688 f   libucrt:winapi_thunks.obj
 0001:000186cc       wcstol                     00000001800196cc f   libucrt:strtox.obj
 0001:000186f8       _mbtowc_l                  00000001800196f8 f   libucrt:mbtowc.obj
 0001:00018878       mbtowc                     0000000180019878 f   libucrt:mbtowc.obj
 0001:00018880       wcsnlen                    0000000180019880 f   libucrt:strnlen.obj
 0001:00018a58       __acrt_update_locale_info  0000000180019a58 f   libucrt:locale_update.obj
 0001:00018a8c       __acrt_update_multibyte_info 0000000180019a8c f   libucrt:locale_update.obj
 0001:000194c4       __acrt_fp_format           000000018001a4c4 f   libucrt:cvt.obj
 0001:000197fc       _fileno                    000000018001a7fc f   libucrt:fileno.obj
 0001:00019824       __acrt_initialize_stdio    000000018001a824 f   libucrt:_file.obj
 0001:00019944       __acrt_uninitialize_stdio  000000018001a944 f   libucrt:_file.obj
 0001:000199a0       _lock_file                 000000018001a9a0 f   libucrt:_file.obj
 0001:000199ac       _unlock_file               000000018001a9ac f   libucrt:_file.obj
 0001:000199b8       _get_printf_count_output   000000018001a9b8 f   libucrt:printf_count_output.obj
 0001:00019a40       __acrt_set_locale_changed  000000018001aa40 f   libucrt:wsetlocale.obj
 0001:00019a4c       __acrt_uninitialize_locale 000000018001aa4c f   libucrt:wsetlocale.obj
 0001:00019c78       __acrt_initialize_lowio    000000018001ac78 f   libucrt:ioinit.obj
 0001:00019cb4       __acrt_uninitialize_lowio  000000018001acb4 f   libucrt:ioinit.obj
 0001:00019cf4       __acrt_initialize_locks    000000018001acf4 f   libucrt:locks.obj
 0001:00019d3c       __acrt_lock                000000018001ad3c f   libucrt:locks.obj
 0001:00019d58       __acrt_uninitialize_locks  000000018001ad58 f   libucrt:locks.obj
 0001:00019d90       __acrt_unlock              000000018001ad90 f   libucrt:locks.obj
 0001:00019dac       __acrt_get_process_end_policy 000000018001adac f   libucrt:win_policies.obj
 0001:00019dfc       ??$__acrt_mbs_to_wcs_cp@U__crt_win32_buffer_internal_dynamic_resizing@@@@YAHQEBDAEAV?$__crt_win32_buffer@_WU__crt_win32_buffer_internal_dynamic_resizing@@@@I@Z 000000018001adfc f i libucrt:argv_wildcards.obj
 0001:00019f74       ??$__acrt_wcs_to_mbs_cp@U__crt_win32_buffer_internal_dynamic_resizing@@@@YAHQEB_WAEAV?$__crt_win32_buffer@DU__crt_win32_buffer_internal_dynamic_resizing@@@@I@Z 000000018001af74 f i libucrt:argv_wildcards.obj
 0001:0001a7a4       __acrt_expand_narrow_argv_wildcards 000000018001b7a4 f   libucrt:argv_wildcards.obj
 0001:0001a7ac       ??$__acrt_wcs_to_mbs_cp@U__crt_win32_buffer_no_resizing@@@@YAHQEB_WAEAV?$__crt_win32_buffer@DU__crt_win32_buffer_no_resizing@@@@I@Z 000000018001b7ac f i libucrt:getmodulefilenamea.obj
 0001:0001a8c0       __acrt_GetModuleFileNameA  000000018001b8c0 f   libucrt:getmodulefilenamea.obj
 0001:0001b108       __acrt_initialize_multibyte 000000018001c108 f   libucrt:mbctype.obj
 0001:0001b168       __acrt_update_thread_multibyte_data 000000018001c168 f   libucrt:mbctype.obj
 0001:0001b184       _setmbcp_nolock            000000018001c184 f   libucrt:mbctype.obj
 0001:0001b4b8       _ismbblead                 000000018001c4b8 f   libucrt:ismbbyte.obj
 0001:0001b4cc       __acrt_initialize_command_line 000000018001c4cc f   libucrt:argv_data.obj
 0001:0001b4f4       __acrt_MultiByteToWideChar 000000018001c4f4 f   libucrt:multibytetowidechar.obj
 0001:0001b550       __acrt_WideCharToMultiByte 000000018001c550 f   libucrt:widechartomultibyte.obj
 0001:0001b600       __dcrt_get_narrow_environment_from_os 000000018001c600 f   libucrt:get_environment_from_os.obj
 0001:0001b704       __acrt_initialize_heap     000000018001c704 f   libucrt:heap_handle.obj
 0001:0001b720       __acrt_uninitialize_heap   000000018001c720 f   libucrt:heap_handle.obj
 0001:0001b72c       __acrt_execute_initializers 000000018001c72c f   libucrt:shared_initialization.obj
 0001:0001b7ac       __acrt_execute_uninitializers 000000018001c7ac f   libucrt:shared_initialization.obj
 0001:0001b830       __acrt_get_sigabrt_handler 000000018001c830 f   libucrt:signal.obj
 0001:0001b860       __acrt_initialize_signal_handlers 000000018001c860 f   libucrt:signal.obj
 0001:0001b880       raise                      000000018001c880 f   libucrt:signal.obj
 0001:0001baec       __acrt_has_user_matherr    000000018001caec f   libucrt:matherr.obj
 0001:0001bb0c       __acrt_initialize_user_matherr 000000018001cb0c f   libucrt:matherr.obj
 0001:0001bb14       __acrt_invoke_user_matherr 000000018001cb14 f   libucrt:matherr.obj
 0001:0001bd20       __acrt_stdio_flush_nolock  000000018001cd20 f   libucrt:fflush.obj
 0001:0001bd9c       _fflush_nolock             000000018001cd9c f   libucrt:fflush.obj
 0001:0001bde8       _flushall                  000000018001cde8 f   libucrt:fflush.obj
 0001:0001bdf0       __pctype_func              000000018001cdf0 f   libucrt:ctype.obj
 0001:0001be20       iswctype                   000000018001ce20 f   libucrt:iswctype.obj
 0001:0001be8c       __acrt_add_locale_ref      000000018001ce8c f   libucrt:locale_refcounting.obj
 0001:0001bf18       __acrt_free_locale         000000018001cf18 f   libucrt:locale_refcounting.obj
 0001:0001c090       __acrt_locale_add_lc_time_reference 000000018001d090 f   libucrt:locale_refcounting.obj
 0001:0001c0b8       __acrt_locale_free_lc_time_if_unreferenced 000000018001d0b8 f   libucrt:locale_refcounting.obj
 0001:0001c0f0       __acrt_locale_release_lc_time_reference 000000018001d0f0 f   libucrt:locale_refcounting.obj
 0001:0001c118       __acrt_release_locale_ref  000000018001d118 f   libucrt:locale_refcounting.obj
 0001:0001c1c0       __acrt_update_thread_locale_data 000000018001d1c0 f   libucrt:locale_refcounting.obj
 0001:0001c230       _updatetlocinfoEx_nolock   000000018001d230 f   libucrt:locale_refcounting.obj
 0001:0001c298       _query_new_mode            000000018001d298 f   libucrt:new_mode.obj
 0001:0001c2a0       __acrt_DownlevelLocaleNameToLCID 000000018001d2a0 f   libucrt:lcidtoname_downlevel.obj
 0001:0001c350       _isleadbyte_l              000000018001d350 f i libucrt:_wctype.obj
 0001:0001c39c       ?__mbrtowc_utf8@__crt_mbstring@@YA_KPEA_WPEBD_KPEAU_Mbstatet@@@Z 000000018001d39c f   libucrt:mbrtowc.obj
 0001:0001c3d8       ?__mbsrtowcs_utf8@__crt_mbstring@@YA_KPEA_WPEAPEBD_KPEAU_Mbstatet@@@Z 000000018001d3d8 f   libucrt:mbrtowc.obj
 0001:0001c550       __acrt_fp_strflt_to_string 000000018001d550 f   libucrt:_fptostr.obj
 0001:0001c6a0       ?divide@__crt_strtox@@YA_KAEAUbig_integer@1@AEBU21@@Z 000000018001d6a0 f i libucrt:cfout.obj
 0001:0001cacc       __acrt_fltout              000000018001dacc f   libucrt:cfout.obj
 0001:0001dd98       fegetround                 000000018001ed98 f   libucrt:fegetround.obj
 0001:0001ddac       _fcloseall                 000000018001edac f   libucrt:closeall.obj
 0001:0001de60       __acrt_stdio_free_buffer_nolock 000000018001ee60 f   libucrt:_freebuf.obj
 0001:0001dea0       _isatty                    000000018001eea0 f   libucrt:isatty.obj
 0001:0001df00       __acrt_locale_free_monetary 000000018001ef00 f   libucrt:initmon.obj
 0001:0001e00c       __acrt_locale_free_numeric 000000018001f00c f   libucrt:initnum.obj
 0001:0001e0d0       __acrt_locale_free_time    000000018001f0d0 f   libucrt:inittime.obj
 0001:0001e1d8       __acrt_GetStringTypeA      000000018001f1d8 f   libucrt:getstringtypea.obj
 0001:0001e368       __acrt_lowio_create_handle_array 000000018001f368 f   libucrt:osfinfo.obj
 0001:0001e410       __acrt_lowio_destroy_handle_array 000000018001f410 f   libucrt:osfinfo.obj
 0001:0001e460       __acrt_lowio_ensure_fh_exists 000000018001f460 f   libucrt:osfinfo.obj
 0001:0001e508       __acrt_lowio_lock_fh       000000018001f508 f   libucrt:osfinfo.obj
 0001:0001e530       __acrt_lowio_unlock_fh     000000018001f530 f   libucrt:osfinfo.obj
 0001:0001e558       _free_osfhnd               000000018001f558 f   libucrt:osfinfo.obj
 0001:0001e614       _get_osfhandle             000000018001f614 f   libucrt:osfinfo.obj
 0001:0001e690       qsort                      000000018001f690 f   libucrt:qsort.obj
 0001:0001ea30       strncpy_s                  000000018001fa30 f   libucrt:strncpy_s.obj
 0001:0001ebb0       strpbrk                    000000018001fbb0 f   libucrt:strpbrk.obj
 0001:0001ef78       _mbsdec                    000000018001ff78 f   libucrt:mbsdec.obj
 0001:0001ef80       _mbsdec_l                  000000018001ff80 f   libucrt:mbsdec.obj
 0001:0001f32c       __acrt_LCMapStringA        000000018002032c f   libucrt:lcmapstringa.obj
 0001:0001f468       _commit                    0000000180020468 f   libucrt:commit.obj
 0001:0001fd78       _write                     0000000180020d78 f   libucrt:write.obj
 0001:0001fe64       _write_nolock              0000000180020e64 f   libucrt:write.obj
 0001:00020148       __acrt_GetStringTypeW      0000000180021148 f   libucrt:getstringtypew.obj
 0001:00020150       __ascii_wcsnicmp           0000000180021150 f   libucrt:wcsnicmp.obj
 0001:0002019c       ?__mbrtoc32_utf8@__crt_mbstring@@YA_KPEA_UPEBD_KPEAU_Mbstatet@@@Z 000000018002119c f   libucrt:mbrtoc32.obj
 0001:00020374       _controlfp_s               0000000180021374 f   libucrt:contrlfp.obj
 0001:000203d8       fegetenv                   00000001800213d8 f   libucrt:fegetenv.obj
 0001:000203f8       fesetenv                   00000001800213f8 f   libucrt:fesetenv.obj
 0001:00020444       feholdexcept               0000000180021444 f   libucrt:feholdexcept.obj
 0001:00020494       ceil                       0000000180021494 f   libucrt:ceil.obj
 0001:00020560       log10                      0000000180021560 f   libucrt:log10.obj
 0001:00020b0c       __acrt_fenv_get_common_round_control 0000000180021b0c f   libucrt:_fenvutils.obj
 0001:00020b18       __acrt_fenv_get_control    0000000180021b18 f   libucrt:_fenvutils.obj
 0001:00020c0c       __acrt_fenv_get_status     0000000180021c0c f   libucrt:_fenvutils.obj
 0001:00020c60       __acrt_fenv_set_control    0000000180021c60 f   libucrt:_fenvutils.obj
 0001:00020da8       __acrt_fenv_set_status     0000000180021da8 f   libucrt:_fenvutils.obj
 0001:00020ec8       _lseeki64_nolock           0000000180021ec8 f   libucrt:lseek.obj
 0001:00020ed0       _fclose_nolock             0000000180021ed0 f   libucrt:fclose.obj
 0001:00020f54       fclose                     0000000180021f54 f   libucrt:fclose.obj
 0001:00020fb8       _query_app_type            0000000180021fb8 f   libucrt:report_runtime_error.obj
 0001:00020fc0       __strncnt                  0000000180021fc0 f   libucrt:strncnt.obj
 0001:00020fd8       _putwch_nolock             0000000180021fd8 f   libucrt:putwch.obj
 0001:00021014       _clearfp                   0000000180022014 f   libucrt:ieee.obj
 0001:00021084       _control87                 0000000180022084 f   libucrt:ieee.obj
 0001:00021470       _handle_error              0000000180022470 f   libucrt:libm_error.obj
 0001:00021598       _handle_nan                0000000180022598 f   libucrt:libm_error.obj
 0001:000215c0       __acrt_initialize_fma3     00000001800225c0 f   libucrt:fma3_available.obj
 0001:00021630       _log10_special             0000000180022630 f   libucrt:log_special.obj
 0001:0002175c       _close                     000000018002275c f   libucrt:close.obj
 0001:00021800       _close_nolock              0000000180022800 f   libucrt:close.obj
 0001:000218c0       ?__acrt_stdio_free_stream@@YAXV__crt_stdio_stream@@@Z 00000001800228c0 f   libucrt:stream.obj
 0001:000218dc       __dcrt_lowio_ensure_console_output_initialized 00000001800228dc f   libucrt:initcon.obj
 0001:00021930       __dcrt_terminate_console_output 0000000180022930 f   libucrt:initcon.obj
 0001:0002194c       __dcrt_write_console       000000018002294c f   libucrt:initcon.obj
 0001:00021a20       _get_fpsr                  0000000180022a20 f   libucrt:fpsr.obj
 0001:00021a30       _set_fpsr                  0000000180022a30 f   libucrt:fpsr.obj
 0001:00021a3a       _fclrf                     0000000180022a3a f   libucrt:fpsr.obj
 0001:00021a4e       _frnd                      0000000180022a4e f   libucrt:fpsr.obj
 0001:00021a70       _raise_exc                 0000000180022a70 f   libucrt:fpexcept.obj
 0001:00021a98       _raise_exc_ex              0000000180022a98 f   libucrt:fpexcept.obj
 0001:00021da8       _set_errno_from_matherr    0000000180022da8 f   libucrt:fpexcept.obj
 0001:00021dd8       _clrfp                     0000000180022dd8 f   libucrt:fpctrl.obj
 0001:00021df8       _ctrlfp                    0000000180022df8 f   libucrt:fpctrl.obj
 0001:00021e74       _set_statfp                0000000180022e74 f   libucrt:fpctrl.obj
 0001:00021e94       _statfp                    0000000180022e94 f   libucrt:fpctrl.obj
 0001:00021ea5       IsProcessorFeaturePresent  0000000180022ea5 f   kernel32:KERNEL32.dll
 0001:00021eb0       _FindPESection             0000000180022eb0 f   LIBCMT:pesect.obj
 0001:00021f00       _IsNonwritableInCurrentImage 0000000180022f00 f   LIBCMT:pesect.obj
 0001:00021f50       _ValidateImageBase         0000000180022f50 f   LIBCMT:pesect.obj
 0001:00021f80       strrchr                    0000000180022f80 f   libvcruntime:strrchr.obj
 0001:000220c0       _guard_dispatch_icall_nop  00000001800230c0 f   LIBCMT:guard_dispatch.obj
 0001:000220e0       _guard_xfg_dispatch_icall_nop 00000001800230e0 f   LIBCMT:guard_xfg_dispatch.obj
 0002:00000000       __imp_RegQueryValueExW     0000000180024000     advapi32:ADVAPI32.dll
 0002:00000008       __imp_RegSetValueExW       0000000180024008     advapi32:ADVAPI32.dll
 0002:00000010       __imp_RegQueryInfoKeyW     0000000180024010     advapi32:ADVAPI32.dll
 0002:00000018       __imp_RegOpenKeyExW        0000000180024018     advapi32:ADVAPI32.dll
 0002:00000020       __imp_RegEnumKeyExW        0000000180024020     advapi32:ADVAPI32.dll
 0002:00000028       __imp_RegDeleteValueW      0000000180024028     advapi32:ADVAPI32.dll
 0002:00000030       __imp_RegDeleteKeyW        0000000180024030     advapi32:ADVAPI32.dll
 0002:00000038       __imp_RegCreateKeyExW      0000000180024038     advapi32:ADVAPI32.dll
 0002:00000040       __imp_RegCloseKey          0000000180024040     advapi32:ADVAPI32.dll
 0002:00000048       \177ADVAPI32_NULL_THUNK_DATA 0000000180024048     advapi32:ADVAPI32.dll
 0002:00000050       __imp_GetObjectW           0000000180024050     gdi32:GDI32.dll
 0002:00000058       __imp_SelectObject         0000000180024058     gdi32:GDI32.dll
 0002:00000060       __imp_DeleteObject         0000000180024060     gdi32:GDI32.dll
 0002:00000068       __imp_CreateCompatibleDC   0000000180024068     gdi32:GDI32.dll
 0002:00000070       __imp_BitBlt               0000000180024070     gdi32:GDI32.dll
 0002:00000078       __imp_SetWindowOrgEx       0000000180024078     gdi32:GDI32.dll
 0002:00000080       __imp_SetWindowExtEx       0000000180024080     gdi32:GDI32.dll
 0002:00000088       __imp_SetViewportOrgEx     0000000180024088     gdi32:GDI32.dll
 0002:00000090       __imp_LPtoDP               0000000180024090     gdi32:GDI32.dll
 0002:00000098       __imp_SetMapMode           0000000180024098     gdi32:GDI32.dll
 0002:000000a0       __imp_SaveDC               00000001800240a0     gdi32:GDI32.dll
 0002:000000a8       __imp_RestoreDC            00000001800240a8     gdi32:GDI32.dll
 0002:000000b0       __imp_GetDeviceCaps        00000001800240b0     gdi32:GDI32.dll
 0002:000000b8       __imp_DeleteMetaFile       00000001800240b8     gdi32:GDI32.dll
 0002:000000c0       __imp_DeleteDC             00000001800240c0     gdi32:GDI32.dll
 0002:000000c8       __imp_CreateRectRgnIndirect 00000001800240c8     gdi32:GDI32.dll
 0002:000000d0       __imp_CreateMetaFileW      00000001800240d0     gdi32:GDI32.dll
 0002:000000d8       __imp_CreateDCW            00000001800240d8     gdi32:GDI32.dll
 0002:000000e0       __imp_CloseMetaFile        00000001800240e0     gdi32:GDI32.dll
 0002:000000e8       \177GDI32_NULL_THUNK_DATA  00000001800240e8     gdi32:GDI32.dll
 0002:000000f0       __imp_CloseHandle          00000001800240f0     kernel32:KERNEL32.dll
 0002:000000f8       __imp_SetEvent             00000001800240f8     kernel32:KERNEL32.dll
 0002:00000100       __imp_CreateMutexW         0000000180024100     kernel32:KERNEL32.dll
 0002:00000108       __imp_CreateEventW         0000000180024108     kernel32:KERNEL32.dll
 0002:00000110       __imp_GetCurrentProcessId  0000000180024110     kernel32:KERNEL32.dll
 0002:00000118       __imp_WriteConsoleW        0000000180024118     kernel32:KERNEL32.dll
 0002:00000120       __imp_CreateFileW          0000000180024120     kernel32:KERNEL32.dll
 0002:00000128       __imp_GetConsoleMode       0000000180024128     kernel32:KERNEL32.dll
 0002:00000130       __imp_GetConsoleOutputCP   0000000180024130     kernel32:KERNEL32.dll
 0002:00000138       __imp_WriteFile            0000000180024138     kernel32:KERNEL32.dll
 0002:00000140       __imp_FlushFileBuffers     0000000180024140     kernel32:KERNEL32.dll
 0002:00000148       __imp_SetStdHandle         0000000180024148     kernel32:KERNEL32.dll
 0002:00000150       __imp_GetStringTypeW       0000000180024150     kernel32:KERNEL32.dll
 0002:00000158       __imp_SetFilePointerEx     0000000180024158     kernel32:KERNEL32.dll
 0002:00000160       __imp_FreeEnvironmentStringsW 0000000180024160     kernel32:KERNEL32.dll
 0002:00000168       __imp_lstrcmpiW            0000000180024168     kernel32:KERNEL32.dll
 0002:00000170       __imp_GetCommandLineW      0000000180024170     kernel32:KERNEL32.dll
 0002:00000178       __imp_GetCommandLineA      0000000180024178     kernel32:KERNEL32.dll
 0002:00000180       __imp_GetCPInfo            0000000180024180     kernel32:KERNEL32.dll
 0002:00000188       __imp_GetOEMCP             0000000180024188     kernel32:KERNEL32.dll
 0002:00000190       __imp_GetACP               0000000180024190     kernel32:KERNEL32.dll
 0002:00000198       __imp_IsValidCodePage      0000000180024198     kernel32:KERNEL32.dll
 0002:000001a0       __imp_FindNextFileW        00000001800241a0     kernel32:KERNEL32.dll
 0002:000001a8       __imp_FindFirstFileExW     00000001800241a8     kernel32:KERNEL32.dll
 0002:000001b0       __imp_FindClose            00000001800241b0     kernel32:KERNEL32.dll
 0002:000001b8       __imp_GetFileType          00000001800241b8     kernel32:KERNEL32.dll
 0002:000001c0       __imp_GetStdHandle         00000001800241c0     kernel32:KERNEL32.dll
 0002:000001c8       __imp_LCMapStringW         00000001800241c8     kernel32:KERNEL32.dll
 0002:000001d0       __imp_HeapReAlloc          00000001800241d0     kernel32:KERNEL32.dll
 0002:000001d8       __imp_HeapSize             00000001800241d8     kernel32:KERNEL32.dll
 0002:000001e0       __imp_MulDiv               00000001800241e0     kernel32:KERNEL32.dll
 0002:000001e8       __imp_GlobalLock           00000001800241e8     kernel32:KERNEL32.dll
 0002:000001f0       __imp_GlobalUnlock         00000001800241f0     kernel32:KERNEL32.dll
 0002:000001f8       __imp_GlobalAlloc          00000001800241f8     kernel32:KERNEL32.dll
 0002:00000200       __imp_FindResourceW        0000000180024200     kernel32:KERNEL32.dll
 0002:00000208       __imp_SizeofResource       0000000180024208     kernel32:KERNEL32.dll
 0002:00000210       __imp_LoadResource         0000000180024210     kernel32:KERNEL32.dll
 0002:00000218       __imp_LoadLibraryExW       0000000180024218     kernel32:KERNEL32.dll
 0002:00000220       __imp_GetProcAddress       0000000180024220     kernel32:KERNEL32.dll
 0002:00000228       __imp_GetModuleHandleW     0000000180024228     kernel32:KERNEL32.dll
 0002:00000230       __imp_GetModuleFileNameW   0000000180024230     kernel32:KERNEL32.dll
 0002:00000238       __imp_FreeLibrary          0000000180024238     kernel32:KERNEL32.dll
 0002:00000240       __imp_DisableThreadLibraryCalls 0000000180024240     kernel32:KERNEL32.dll
 0002:00000248       __imp_GetCurrentThreadId   0000000180024248     kernel32:KERNEL32.dll
 0002:00000250       __imp_Sleep                0000000180024250     kernel32:KERNEL32.dll
 0002:00000258       __imp_WaitForSingleObject  0000000180024258     kernel32:KERNEL32.dll
 0002:00000260       __imp_ReleaseMutex         0000000180024260     kernel32:KERNEL32.dll
 0002:00000268       __imp_ResetEvent           0000000180024268     kernel32:KERNEL32.dll
 0002:00000270       __imp_EnterCriticalSection 0000000180024270     kernel32:KERNEL32.dll
 0002:00000278       __imp_LeaveCriticalSection 0000000180024278     kernel32:KERNEL32.dll
 0002:00000280       __imp_SetLastError         0000000180024280     kernel32:KERNEL32.dll
 0002:00000288       __imp_EncodePointer        0000000180024288     kernel32:KERNEL32.dll
 0002:00000290       __imp_DeleteCriticalSection 0000000180024290     kernel32:KERNEL32.dll
 0002:00000298       __imp_InitializeCriticalSectionEx 0000000180024298     kernel32:KERNEL32.dll
 0002:000002a0       __imp_GetLastError         00000001800242a0     kernel32:KERNEL32.dll
 0002:000002a8       __imp_RaiseException       00000001800242a8     kernel32:KERNEL32.dll
 0002:000002b0       __imp_DecodePointer        00000001800242b0     kernel32:KERNEL32.dll
 0002:000002b8       __imp_WideCharToMultiByte  00000001800242b8     kernel32:KERNEL32.dll
 0002:000002c0       __imp_GetEnvironmentStringsW 00000001800242c0     kernel32:KERNEL32.dll
 0002:000002c8       __imp_MultiByteToWideChar  00000001800242c8     kernel32:KERNEL32.dll
 0002:000002d0       __imp_GetModuleHandleExW   00000001800242d0     kernel32:KERNEL32.dll
 0002:000002d8       __imp_ExitProcess          00000001800242d8     kernel32:KERNEL32.dll
 0002:000002e0       __imp_VirtualQuery         00000001800242e0     kernel32:KERNEL32.dll
 0002:000002e8       __imp_VirtualProtect       00000001800242e8     kernel32:KERNEL32.dll
 0002:000002f0       __imp_GetSystemInfo        00000001800242f0     kernel32:KERNEL32.dll
 0002:000002f8       __imp_TlsFree              00000001800242f8     kernel32:KERNEL32.dll
 0002:00000300       __imp_TlsSetValue          0000000180024300     kernel32:KERNEL32.dll
 0002:00000308       __imp_TlsGetValue          0000000180024308     kernel32:KERNEL32.dll
 0002:00000310       __imp_TlsAlloc             0000000180024310     kernel32:KERNEL32.dll
 0002:00000318       __imp_RtlPcToFileHeader    0000000180024318     kernel32:KERNEL32.dll
 0002:00000320       __imp_InterlockedFlushSList 0000000180024320     kernel32:KERNEL32.dll
 0002:00000328       __imp_RtlUnwindEx          0000000180024328     kernel32:KERNEL32.dll
 0002:00000330       __imp_LoadLibraryExA       0000000180024330     kernel32:KERNEL32.dll
 0002:00000338       __imp_VirtualFree          0000000180024338     kernel32:KERNEL32.dll
 0002:00000340       __imp_VirtualAlloc         0000000180024340     kernel32:KERNEL32.dll
 0002:00000348       __imp_FlushInstructionCache 0000000180024348     kernel32:KERNEL32.dll
 0002:00000350       __imp_InterlockedPushEntrySList 0000000180024350     kernel32:KERNEL32.dll
 0002:00000358       __imp_InterlockedPopEntrySList 0000000180024358     kernel32:KERNEL32.dll
 0002:00000360       __imp_GetProcessHeap       0000000180024360     kernel32:KERNEL32.dll
 0002:00000368       __imp_HeapFree             0000000180024368     kernel32:KERNEL32.dll
 0002:00000370       __imp_HeapAlloc            0000000180024370     kernel32:KERNEL32.dll
 0002:00000378       __imp_OutputDebugStringW   0000000180024378     kernel32:KERNEL32.dll
 0002:00000380       __imp_InitializeSListHead  0000000180024380     kernel32:KERNEL32.dll
 0002:00000388       __imp_GetSystemTimeAsFileTime 0000000180024388     kernel32:KERNEL32.dll
 0002:00000390       __imp_QueryPerformanceCounter 0000000180024390     kernel32:KERNEL32.dll
 0002:00000398       __imp_GetStartupInfoW      0000000180024398     kernel32:KERNEL32.dll
 0002:000003a0       __imp_IsDebuggerPresent    00000001800243a0     kernel32:KERNEL32.dll
 0002:000003a8       __imp_IsProcessorFeaturePresent 00000001800243a8     kernel32:KERNEL32.dll
 0002:000003b0       __imp_TerminateProcess     00000001800243b0     kernel32:KERNEL32.dll
 0002:000003b8       __imp_GetCurrentProcess    00000001800243b8     kernel32:KERNEL32.dll
 0002:000003c0       __imp_InitializeCriticalSectionAndSpinCount 00000001800243c0     kernel32:KERNEL32.dll
 0002:000003c8       __imp_WaitForSingleObjectEx 00000001800243c8     kernel32:KERNEL32.dll
 0002:000003d0       __imp_RtlCaptureContext    00000001800243d0     kernel32:KERNEL32.dll
 0002:000003d8       __imp_RtlLookupFunctionEntry 00000001800243d8     kernel32:KERNEL32.dll
 0002:000003e0       __imp_RtlVirtualUnwind     00000001800243e0     kernel32:KERNEL32.dll
 0002:000003e8       __imp_UnhandledExceptionFilter 00000001800243e8     kernel32:KERNEL32.dll
 0002:000003f0       __imp_SetUnhandledExceptionFilter 00000001800243f0     kernel32:KERNEL32.dll
 0002:000003f8       \177KERNEL32_NULL_THUNK_DATA 00000001800243f8     kernel32:KERNEL32.dll
 0002:00000400       __imp_OleCreatePropertyFrame 0000000180024400     oleaut32:OLEAUT32.dll
 0002:00000408       __imp_UnRegisterTypeLib    0000000180024408     oleaut32:OLEAUT32.dll
 0002:00000410       __imp_RegisterTypeLib      0000000180024410     oleaut32:OLEAUT32.dll
 0002:00000418       __imp_LoadRegTypeLib       0000000180024418     oleaut32:OLEAUT32.dll
 0002:00000420       __imp_LoadTypeLib          0000000180024420     oleaut32:OLEAUT32.dll
 0002:00000428       __imp_VarUI4FromStr        0000000180024428     oleaut32:OLEAUT32.dll
 0002:00000430       __imp_VariantInit          0000000180024430     oleaut32:OLEAUT32.dll
 0002:00000438       __imp_SysAllocStringByteLen 0000000180024438     oleaut32:OLEAUT32.dll
 0002:00000440       __imp_SysStringByteLen     0000000180024440     oleaut32:OLEAUT32.dll
 0002:00000448       __imp_VariantChangeType    0000000180024448     oleaut32:OLEAUT32.dll
 0002:00000450       __imp_VariantClear         0000000180024450     oleaut32:OLEAUT32.dll
 0002:00000458       __imp_SysStringLen         0000000180024458     oleaut32:OLEAUT32.dll
 0002:00000460       __imp_SysFreeString        0000000180024460     oleaut32:OLEAUT32.dll
 0002:00000468       __imp_SysAllocStringLen    0000000180024468     oleaut32:OLEAUT32.dll
 0002:00000470       __imp_SysAllocString       0000000180024470     oleaut32:OLEAUT32.dll
 0002:00000478       \177OLEAUT32_NULL_THUNK_DATA 0000000180024478     oleaut32:OLEAUT32.dll
 0002:00000480       __imp_UnregisterClassW     0000000180024480     user32:USER32.dll
 0002:00000488       __imp_PostMessageW         0000000180024488     user32:USER32.dll
 0002:00000490       __imp_DefWindowProcW       0000000180024490     user32:USER32.dll
 0002:00000498       __imp_CallWindowProcW      0000000180024498     user32:USER32.dll
 0002:000004a0       __imp_RegisterClassExW     00000001800244a0     user32:USER32.dll
 0002:000004a8       __imp_GetClassInfoExW      00000001800244a8     user32:USER32.dll
 0002:000004b0       __imp_CreateWindowExW      00000001800244b0     user32:USER32.dll
 0002:000004b8       __imp_IsWindow             00000001800244b8     user32:USER32.dll
 0002:000004c0       __imp_IsChild              00000001800244c0     user32:USER32.dll
 0002:000004c8       __imp_DestroyWindow        00000001800244c8     user32:USER32.dll
 0002:000004d0       __imp_ShowWindow           00000001800244d0     user32:USER32.dll
 0002:000004d8       __imp_SetWindowPos         00000001800244d8     user32:USER32.dll
 0002:000004e0       __imp_CharNextW            00000001800244e0     user32:USER32.dll
 0002:000004e8       __imp_SetFocus             00000001800244e8     user32:USER32.dll
 0002:000004f0       __imp_LoadBitmapW          00000001800244f0     user32:USER32.dll
 0002:000004f8       __imp_RegisterClassW       00000001800244f8     user32:USER32.dll
 0002:00000500       __imp_PeekMessageW         0000000180024500     user32:USER32.dll
 0002:00000508       __imp_LoadCursorW          0000000180024508     user32:USER32.dll
 0002:00000510       __imp_GetParent            0000000180024510     user32:USER32.dll
 0002:00000518       __imp_SetWindowLongPtrW    0000000180024518     user32:USER32.dll
 0002:00000520       __imp_GetWindowLongPtrW    0000000180024520     user32:USER32.dll
 0002:00000528       __imp_PtInRect             0000000180024528     user32:USER32.dll
 0002:00000530       __imp_EqualRect            0000000180024530     user32:USER32.dll
 0002:00000538       __imp_OffsetRect           0000000180024538     user32:USER32.dll
 0002:00000540       __imp_UnionRect            0000000180024540     user32:USER32.dll
 0002:00000548       __imp_IntersectRect        0000000180024548     user32:USER32.dll
 0002:00000550       __imp_GetClientRect        0000000180024550     user32:USER32.dll
 0002:00000558       __imp_InvalidateRect       0000000180024558     user32:USER32.dll
 0002:00000560       __imp_SetWindowRgn         0000000180024560     user32:USER32.dll
 0002:00000568       __imp_EndPaint             0000000180024568     user32:USER32.dll
 0002:00000570       __imp_BeginPaint           0000000180024570     user32:USER32.dll
 0002:00000578       __imp_ReleaseDC            0000000180024578     user32:USER32.dll
 0002:00000580       __imp_GetDC                0000000180024580     user32:USER32.dll
 0002:00000588       __imp_GetKeyState          0000000180024588     user32:USER32.dll
 0002:00000590       __imp_GetFocus             0000000180024590     user32:USER32.dll
 0002:00000598       \177USER32_NULL_THUNK_DATA 0000000180024598     user32:USER32.dll
 0002:000005a0       __imp_CoCreateInstance     00000001800245a0     ole32:ole32.dll
 0002:000005a8       __imp_StringFromGUID2      00000001800245a8     ole32:ole32.dll
 0002:000005b0       __imp_CoTaskMemAlloc       00000001800245b0     ole32:ole32.dll
 0002:000005b8       __imp_CoTaskMemFree        00000001800245b8     ole32:ole32.dll
 0002:000005c0       __imp_ReadClassStm         00000001800245c0     ole32:ole32.dll
 0002:000005c8       __imp_WriteClassStm        00000001800245c8     ole32:ole32.dll
 0002:000005d0       __imp_CreateDataAdviseHolder 00000001800245d0     ole32:ole32.dll
 0002:000005d8       __imp_OleSaveToStream      00000001800245d8     ole32:ole32.dll
 0002:000005e0       __imp_CreateOleAdviseHolder 00000001800245e0     ole32:ole32.dll
 0002:000005e8       __imp_OleRegGetUserType    00000001800245e8     ole32:ole32.dll
 0002:000005f0       __imp_OleRegGetMiscStatus  00000001800245f0     ole32:ole32.dll
 0002:000005f8       __imp_OleRegEnumVerbs      00000001800245f8     ole32:ole32.dll
 0002:00000600       __imp_CLSIDFromProgID      0000000180024600     ole32:ole32.dll
 0002:00000608       __imp_CoTaskMemRealloc     0000000180024608     ole32:ole32.dll
 0002:00000610       \177ole32_NULL_THUNK_DATA  0000000180024610     ole32:ole32.dll
 0002:00000618       __guard_check_icall_fptr   0000000180024618     LIBCMT:guard_support.obj
 0002:00000620       __guard_xfg_check_icall_fptr 0000000180024620     LIBCMT:guard_support.obj
 0002:00000628       __guard_dispatch_icall_fptr 0000000180024628     LIBCMT:guard_support.obj
 0002:00000630       __guard_xfg_dispatch_icall_fptr 0000000180024630     LIBCMT:guard_support.obj
 0002:00000638       __guard_xfg_table_dispatch_icall_fptr 0000000180024638     LIBCMT:guard_support.obj
 0002:00000640       __xc_a                     0000000180024640     LIBCMT:initializers.obj
 0002:00000670       __xc_z                     0000000180024670     LIBCMT:initializers.obj
 0002:00000678       __xi_a                     0000000180024678     LIBCMT:initializers.obj
 0002:00000688       __acrt_stdio_initializer   0000000180024688     libucrt:stdio_initializer.obj
 0002:00000690       __acrt_multibyte_initializer 0000000180024690     libucrt:multibyte_initializer.obj
 0002:00000698       __acrt_tran_fma3_initializer 0000000180024698     libucrt:fma3_initializer.obj
 0002:000006a0       __xi_z                     00000001800246a0     LIBCMT:initializers.obj
 0002:000006a8       __xl_a                     00000001800246a8     LIBCMT:tlssup.obj
 0002:000006b0       __xl_z                     00000001800246b0     LIBCMT:tlssup.obj
 0002:000006b8       __xp_a                     00000001800246b8     LIBCMT:initializers.obj
 0002:000006c0       __acrt_locale_terminator   00000001800246c0     libucrt:locale_initializer.obj
 0002:000006c8       __dcrt_console_output_terminator 00000001800246c8     libucrt:console_output_initializer.obj
 0002:000006d0       __acrt_stdio_terminator    00000001800246d0     libucrt:stdio_initializer.obj
 0002:000006d8       __xp_z                     00000001800246d8     LIBCMT:initializers.obj
 0002:000006e0       __xt_a                     00000001800246e0     LIBCMT:initializers.obj
 0002:000006e8       __xt_z                     00000001800246e8     LIBCMT:initializers.obj
 0002:000006f0       ??_C@_13HADIAKP@?$AAS@     00000001800246f0     OposVariant.obj
 0002:000006f4       ??_C@_13LHMFKAAD@?$AAM@    00000001800246f4     OposVariant.obj
 0002:000006f8       ??_C@_13MKMNOPIJ@?$AAD@    00000001800246f8     OposVariant.obj
 0002:000006fc       ??_C@_13OPKGLAFF@?$AAB@    00000001800246fc     OposVariant.obj
 0002:00000700       ??_C@_17LLMMEOJD@?$AAV?$AAa?$AAl@ 0000000180024700     OposVariant.obj
 0002:00000708       ??_C@_1BI@JFAIJMHL@?$AAF?$AAo?$AAr?$AAc?$AAe?$AAR?$AAe?$AAm?$AAo?$AAv?$AAe@ 0000000180024708     OposVariant.obj
 0002:00000720       ??_C@_1BC@GCKHIPE@?$AAN?$AAo?$AAR?$AAe?$AAm?$AAo?$AAv?$AAe@ 0000000180024720     OposVariant.obj
 0002:00000738       ??_C@_1O@JDLOHAN@?$AAD?$AAe?$AAl?$AAe?$AAt?$AAe@ 0000000180024738     OposVariant.obj
 0002:00000748       ??_C@_11LOCGONAA@@         0000000180024748     OposVariant.obj
 0002:00000750       IID_IOPOSElectronicJournal_1_10 0000000180024750     ElectronicJournal.obj
 0002:00000760       IID_IOPOSElectronicJournal 0000000180024760     ElectronicJournal.obj
 0002:00000770       LIBID_OposElectronicJournal_CCO 0000000180024770     ElectronicJournal.obj
 0002:00000780       DIID__IOPOSElectronicJournalEvents 0000000180024780     ElectronicJournal.obj
 0002:00000790       CLSID_OPOSElectronicJournal 0000000180024790     ElectronicJournal.obj
 0002:000007a0       _GUID_00000114_0000_0000_c000_000000000046 00000001800247a0     ElectronicJournal.obj
 0002:000007b0       ??_C@_1BK@BIGILECK@?$AAA?$AAd?$AAv?$AAa?$AAp?$AAi?$AA3?$AA2?$AA?4?$AAd?$AAl?$AAl@ 00000001800247b0     ElectronicJournal.obj
 0002:000007d0       ??_C@_0BI@MNCFCPFK@RegCreateKeyTransactedW@ 00000001800247d0     ElectronicJournal.obj
 0002:000007e8       _GUID_b196b287_bab4_101a_b69c_00aa00341d07 00000001800247e8     ElectronicJournal.obj
 0002:000007f8       _GUID_b196b285_bab4_101a_b69c_00aa00341d07 00000001800247f8     ElectronicJournal.obj
 0002:00000808       _GUID_a6bc3ac0_dbaa_11ce_9de3_00aa004bb851 0000000180024808     ElectronicJournal.obj
 0002:00000818       _GUID_0000010c_0000_0000_c000_000000000046 0000000180024818     ElectronicJournal.obj
 0002:00000830       ?_entries@?1??_GetEntries@COPOSElectronicJournal@@SAPEBU_ATL_INTMAP_ENTRY@ATL@@XZ@4QBU34@B 0000000180024830     ElectronicJournal.obj
 0002:00000a70       _GUID_00000146_0000_0000_c000_000000000046 0000000180024a70     ElectronicJournal.obj
 0002:00000a80       _GUID_cf51ed10_62fe_11cf_bf86_00a0c9034836 0000000180024a80     ElectronicJournal.obj
 0002:00000a90       _GUID_0000010a_0000_0000_c000_000000000046 0000000180024a90     ElectronicJournal.obj
 0002:00000aa0       _GUID_b196b283_bab4_101a_b69c_00aa00341d07 0000000180024aa0     ElectronicJournal.obj
 0002:00000ab0       _GUID_cb5bdc81_93c1_11cf_8f20_00805f2cd064 0000000180024ab0     ElectronicJournal.obj
 0002:00000ac0       ?pPropMap@?1??GetPropertyMap@COPOSElectronicJournal@@SAPEBUATL_PROPMAP_ENTRY@ATL@@XZ@4QBU34@B 0000000180024ac0     ElectronicJournal.obj
 0002:00000b68       ??_C@_17DGDADEHL@?$AA_?$AAc?$AAx@ 0000000180024b68     ElectronicJournal.obj
 0002:00000b70       ??_C@_17IOIMFDBO@?$AA_?$AAc?$AAy@ 0000000180024b70     ElectronicJournal.obj
 0002:00000b78       _GUID_922eada0_3424_11cf_b670_00aa004cd6d8 0000000180024b78     ElectronicJournal.obj
 0002:00000b88       _GUID_9c2cad80_3424_11cf_b670_00aa004cd6d8 0000000180024b88     ElectronicJournal.obj
 0002:00000b98       _GUID_00000119_0000_0000_c000_000000000046 0000000180024b98     ElectronicJournal.obj
 0002:00000ba8       _GUID_b196b289_bab4_101a_b69c_00aa00341d07 0000000180024ba8     ElectronicJournal.obj
 0002:00000bb8       _GUID_00000117_0000_0000_c000_000000000046 0000000180024bb8     ElectronicJournal.obj
 0002:00000bc8       ??_7?$CComObjectCached@VCComClassFactory@ATL@@@ATL@@6B@ 0000000180024bc8     ElectronicJournal.obj
 0002:00000bf8       ??_7CComModule@ATL@@6B@    0000000180024bf8     ElectronicJournal.obj
 0002:00000c48       ??_C@_1CE@PGFMOFKI@?$AAS?$AAt?$AAa?$AAt?$AAu?$AAs?$AAU?$AAp?$AAd?$AAa?$AAt?$AAe?$AAE?$AAv?$AAe@ 0000000180024c48     ElectronicJournal.obj
 0002:00000c70       ??_C@_1CI@HLBJDONE@?$AAO?$AAu?$AAt?$AAp?$AAu?$AAt?$AAC?$AAo?$AAm?$AAp?$AAl?$AAe?$AAt?$AAe?$AAE@ 0000000180024c70     ElectronicJournal.obj
 0002:00000c98       ??_C@_1BG@LODEBHDD@?$AAE?$AAr?$AAr?$AAo?$AAr?$AAE?$AAv?$AAe?$AAn?$AAt@ 0000000180024c98     ElectronicJournal.obj
 0002:00000cb0       ??_C@_1BM@CBGEBBBJ@?$AAD?$AAi?$AAr?$AAe?$AAc?$AAt?$AAI?$AAO?$AAE?$AAv?$AAe?$AAn?$AAt@ 0000000180024cb0     ElectronicJournal.obj
 0002:00000cd0       ??_C@_1BE@IEBMACEM@?$AAD?$AAa?$AAt?$AAa?$AAE?$AAv?$AAe?$AAn?$AAt@ 0000000180024cd0     ElectronicJournal.obj
 0002:00000ce8       _GUID_b196b286_bab4_101a_b69c_00aa00341d07 0000000180024ce8     ElectronicJournal.obj
 0002:00000cf8       _GUID_00000000_0000_0000_c000_000000000046 0000000180024cf8     ElectronicJournal.obj
 0002:00000d08       _GUID_00020400_0000_0000_c000_000000000046 0000000180024d08     ElectronicJournal.obj
 0002:00000d18       ??_C@_1BC@ENICKDH@?$AAC?$AAo?$AAn?$AAt?$AAe?$AAn?$AAt?$AAs@ 0000000180024d18     ElectronicJournal.obj
 0002:00000d30       ??_7?$CComObject@V?$CComEnum@UIEnumConnectionPoints@@$1?_GUID_b196b285_bab4_101a_b69c_00aa00341d07@@3U__s_GUID@@BPEAUIConnectionPoint@@V?$_CopyInterface@UIConnectionPoint@@@ATL@@VCComSingleThreadModel@6@@ATL@@@ATL@@6B@ 0000000180024d30     ElectronicJournal.obj
 0002:00000d70       _GUID_0000010e_0000_0000_c000_000000000046 0000000180024d70     ElectronicJournal.obj
 0002:00000d80       _GUID_b196b288_bab4_101a_b69c_00aa00341d07 0000000180024d80     ElectronicJournal.obj
 0002:00000d90       ??_C@_1M@KANJNLFF@?$AAC?$AAL?$AAS?$AAI?$AAD@ 0000000180024d90     ElectronicJournal.obj
 0002:00000da0       ??_C@_1M@EJNEECMJ@?$AAA?$AAp?$AAp?$AAI?$AAD@ 0000000180024da0     ElectronicJournal.obj
 0002:00000db0       _GUID_00000113_0000_0000_c000_000000000046 0000000180024db0     ElectronicJournal.obj
 0002:00000dc0       ?rgszNeverDelete@CRegParser@ATL@@1QBQEB_WB 0000000180024dc0     ElectronicJournal.obj
 0002:00000e20       _GUID_1c2056cc_5ef4_101b_8bc8_00aa003e3b29 0000000180024e20     ElectronicJournal.obj
 0002:00000e30       ??_7CRegObject@ATL@@6B@    0000000180024e30     ElectronicJournal.obj
 0002:00000e60       _GUID_00000112_0000_0000_c000_000000000046 0000000180024e60     ElectronicJournal.obj
 0002:00000e70       _GUID_3af24292_0c96_11ce_a0cf_00aa00600ab8 0000000180024e70     ElectronicJournal.obj
 0002:00000e80       _GUID_00000127_0000_0000_c000_000000000046 0000000180024e80     ElectronicJournal.obj
 0002:00000e90       _GUID_0000010d_0000_0000_c000_000000000046 0000000180024e90     ElectronicJournal.obj
 0002:00000ea0       ??_C@_1CK@OEKPKBNA@?$AAC?$AAo?$AAm?$AAp?$AAo?$AAn?$AAe?$AAn?$AAt?$AA?5?$AAC?$AAa?$AAt?$AAe?$AAg@ 0000000180024ea0     ElectronicJournal.obj
 0002:00000ed0       ??_C@_1BC@NKMMNMGL@?$AAF?$AAi?$AAl?$AAe?$AAT?$AAy?$AAp?$AAe@ 0000000180024ed0     ElectronicJournal.obj
 0002:00000ee8       ??_C@_1BE@EKPAFMCP@?$AAI?$AAn?$AAt?$AAe?$AAr?$AAf?$AAa?$AAc?$AAe@ 0000000180024ee8     ElectronicJournal.obj
 0002:00000f00       ??_C@_1BC@MAICEHGI@?$AAH?$AAa?$AAr?$AAd?$AAw?$AAa?$AAr?$AAe@ 0000000180024f00     ElectronicJournal.obj
 0002:00000f18       ??_C@_19HLLLM@?$AAM?$AAi?$AAm?$AAe@ 0000000180024f18     ElectronicJournal.obj
 0002:00000f28       ??_C@_17OMAOINJK@?$AAS?$AAA?$AAM@ 0000000180024f28     ElectronicJournal.obj
 0002:00000f30       ??_C@_1BC@IBECJAAI@?$AAS?$AAE?$AAC?$AAU?$AAR?$AAI?$AAT?$AAY@ 0000000180024f30     ElectronicJournal.obj
 0002:00000f48       ??_C@_1O@GBFINDKL@?$AAS?$AAY?$AAS?$AAT?$AAE?$AAM@ 0000000180024f48     ElectronicJournal.obj
 0002:00000f58       ??_C@_1BC@EAHCMADO@?$AAS?$AAo?$AAf?$AAt?$AAw?$AAa?$AAr?$AAe@ 0000000180024f58     ElectronicJournal.obj
 0002:00000f70       ??_C@_1BA@JIHHIEDE@?$AAT?$AAy?$AAp?$AAe?$AAL?$AAi?$AAb@ 0000000180024f70     ElectronicJournal.obj
 0002:00000f80       ?map@?1??HKeyFromString@CRegParser@ATL@@KAPEAUHKEY__@@PEA_W@Z@4QBUkeymap@?1??123@KAPEAU4@0@Z@B 0000000180024f80     ElectronicJournal.obj
 0002:00001060       ??_C@_19NCHLBIN@?$AAH?$AAK?$AAC?$AAR@ 0000000180025060     ElectronicJournal.obj
 0002:00001070       ??_C@_19JAPAIJDE@?$AAH?$AAK?$AAC?$AAU@ 0000000180025070     ElectronicJournal.obj
 0002:00001080       ??_C@_19PEALEEJB@?$AAH?$AAK?$AAL?$AAM@ 0000000180025080     ElectronicJournal.obj
 0002:00001090       ??_C@_17PJOJPMPB@?$AAH?$AAK?$AAU@ 0000000180025090     ElectronicJournal.obj
 0002:00001098       ??_C@_19PNBHMJPL@?$AAH?$AAK?$AAP?$AAD@ 0000000180025098     ElectronicJournal.obj
 0002:000010a8       ??_C@_19GFFAIJHG@?$AAH?$AAK?$AAD?$AAD@ 00000001800250a8     ElectronicJournal.obj
 0002:000010b8       ??_C@_19OFICIBHH@?$AAH?$AAK?$AAC?$AAC@ 00000001800250b8     ElectronicJournal.obj
 0002:000010c8       ??_C@_1CE@PACHPJFI@?$AAH?$AAK?$AAE?$AAY?$AA_?$AAC?$AAL?$AAA?$AAS?$AAS?$AAE?$AAS?$AA_?$AAR?$AAO@ 00000001800250c8     ElectronicJournal.obj
 0002:000010f0       ??_C@_1CE@HLHNCBPM@?$AAH?$AAK?$AAE?$AAY?$AA_?$AAC?$AAU?$AAR?$AAR?$AAE?$AAN?$AAT?$AA_?$AAU?$AAS@ 00000001800250f0     ElectronicJournal.obj
 0002:00001118       ??_C@_1CG@GFBEANJL@?$AAH?$AAK?$AAE?$AAY?$AA_?$AAL?$AAO?$AAC?$AAA?$AAL?$AA_?$AAM?$AAA?$AAC?$AAH@ 0000000180025118     ElectronicJournal.obj
 0002:00001140       ??_C@_1BG@BGODANIO@?$AAH?$AAK?$AAE?$AAY?$AA_?$AAU?$AAS?$AAE?$AAR?$AAS@ 0000000180025140     ElectronicJournal.obj
 0002:00001158       ??_C@_1CM@KHNNAOIC@?$AAH?$AAK?$AAE?$AAY?$AA_?$AAP?$AAE?$AAR?$AAF?$AAO?$AAR?$AAM?$AAA?$AAN?$AAC@ 0000000180025158     ElectronicJournal.obj
 0002:00001188       ??_C@_1BM@HAGMMHIA@?$AAH?$AAK?$AAE?$AAY?$AA_?$AAD?$AAY?$AAN?$AA_?$AAD?$AAA?$AAT?$AAA@ 0000000180025188     ElectronicJournal.obj
 0002:000011a8       ??_C@_1CI@BBJOACGG@?$AAH?$AAK?$AAE?$AAY?$AA_?$AAC?$AAU?$AAR?$AAR?$AAE?$AAN?$AAT?$AA_?$AAC?$AAO@ 00000001800251a8     ElectronicJournal.obj
 0002:000011d0       _GUID_00000109_0000_0000_c000_000000000046 00000001800251d0     ElectronicJournal.obj
 0002:000011e0       _GUID_7fd52380_4e07_101b_ae2d_08002b2ec713 00000001800251e0     ElectronicJournal.obj
 0002:000011f0       ??_C@_1M@PPPPCDEP@?$AAA?$AAP?$AAP?$AAI?$AAD@ 00000001800251f0     ElectronicJournal.obj
 0002:00001200       ??_C@_1EA@NHKLICFA@?$AAH?$AAK?$AAC?$AAU?$AA?$AN?$AA?6?$AA?$HL?$AA?7?$AAS?$AAo?$AAf?$AAt?$AAw?$AAa?$AAr@ 0000000180025200     ElectronicJournal.obj
 0002:00001240       ??_C@_1BE@LJOLIMEM@?$AA?$AN?$AA?6?$AA?7?$AA?$HN?$AA?$AN?$AA?6?$AA?$HN?$AA?$AN?$AA?6@ 0000000180025240     ElectronicJournal.obj
 0002:00001258       ??_C@_1O@MNLDABAF@?$AAM?$AAo?$AAd?$AAu?$AAl?$AAe@ 0000000180025258     ElectronicJournal.obj
 0002:00001268       ??_C@_1BG@JBACFMF@?$AAM?$AAo?$AAd?$AAu?$AAl?$AAe?$AA_?$AAR?$AAa?$AAw@ 0000000180025268     ElectronicJournal.obj
 0002:00001280       ??_C@_1BC@KAILKFFG@?$AAR?$AAE?$AAG?$AAI?$AAS?$AAT?$AAR?$AAY@ 0000000180025280     ElectronicJournal.obj
 0002:00001298       ??_7?$CComContainedObject@VCOPOSElectronicJournal@@@ATL@@6B?$IDispatchImpl@UIOPOSElectronicJournal@@$1?IID_IOPOSElectronicJournal@@3U_GUID@@B$1?LIBID_OposElectronicJournal_CCO@@3U3@B$00$0A@VCComTypeInfoHolder@ATL@@@1@@ 0000000180025298     ElectronicJournal.obj
 0002:000015d8       ??_7?$CComContainedObject@VCOPOSElectronicJournal@@@ATL@@6BCComControlBase@1@@ 00000001800255d8     ElectronicJournal.obj
 0002:00001600       ??_7?$CComContainedObject@VCOPOSElectronicJournal@@@ATL@@6B?$CWindowImpl@VCOPOSElectronicJournal@@VCWindow@ATL@@V?$CWinTraits@$0FGAAAAAA@$0A@@3@@1@@ 0000000180025600     ElectronicJournal.obj
 0002:00001620       ??_7?$CComContainedObject@VCOPOSElectronicJournal@@@ATL@@6B?$IPersistStreamInitImpl@VCOPOSElectronicJournal@@@1@@ 0000000180025620     ElectronicJournal.obj
 0002:00001668       ??_7?$CComContainedObject@VCOPOSElectronicJournal@@@ATL@@6B?$IOleControlImpl@VCOPOSElectronicJournal@@@1@@ 0000000180025668     ElectronicJournal.obj
 0002:000016a0       ??_7?$CComContainedObject@VCOPOSElectronicJournal@@@ATL@@6B?$IOleObjectImpl@VCOPOSElectronicJournal@@@1@@ 00000001800256a0     ElectronicJournal.obj
 0002:00001760       ??_7?$CComContainedObject@VCOPOSElectronicJournal@@@ATL@@6B?$IOleInPlaceActiveObjectImpl@VCOPOSElectronicJournal@@@1@@ 0000000180025760     ElectronicJournal.obj
 0002:000017b0       ??_7?$CComContainedObject@VCOPOSElectronicJournal@@@ATL@@6B?$IViewObjectExImpl@VCOPOSElectronicJournal@@@1@@ 00000001800257b0     ElectronicJournal.obj
 0002:00001828       ??_7?$CComContainedObject@VCOPOSElectronicJournal@@@ATL@@6B?$IOleInPlaceObjectWindowlessImpl@VCOPOSElectronicJournal@@@1@@ 0000000180025828     ElectronicJournal.obj
 0002:00001880       ??_7?$CComContainedObject@VCOPOSElectronicJournal@@@ATL@@6B?$IConnectionPointContainerImpl@VCOPOSElectronicJournal@@@1@@ 0000000180025880     ElectronicJournal.obj
 0002:000018a8       ??_7?$CComContainedObject@VCOPOSElectronicJournal@@@ATL@@6B?$IPersistStorageImpl@VCOPOSElectronicJournal@@@1@@ 00000001800258a8     ElectronicJournal.obj
 0002:000018f8       ??_7?$CComContainedObject@VCOPOSElectronicJournal@@@ATL@@6B?$ISpecifyPropertyPagesImpl@VCOPOSElectronicJournal@@@1@@ 00000001800258f8     ElectronicJournal.obj
 0002:00001918       ??_7?$CComContainedObject@VCOPOSElectronicJournal@@@ATL@@6B?$IQuickActivateImpl@VCOPOSElectronicJournal@@@1@@ 0000000180025918     ElectronicJournal.obj
 0002:00001948       ??_7?$CComContainedObject@VCOPOSElectronicJournal@@@ATL@@6B?$IDataObjectImpl@VCOPOSElectronicJournal@@@1@@ 0000000180025948     ElectronicJournal.obj
 0002:000019a8       ??_7?$CComContainedObject@VCOPOSElectronicJournal@@@ATL@@6B?$IProvideClassInfo2Impl@$1?CLSID_OPOSElectronicJournal@@3U_GUID@@B$1?DIID__IOPOSElectronicJournalEvents@@3U2@B$1?LIBID_OposElectronicJournal_CCO@@3U2@B$00$0A@VCComTypeInfoHolder@ATL@@@1@@ 00000001800259a8     ElectronicJournal.obj
 0002:000019d0       ??_7?$CComContainedObject@VCOPOSElectronicJournal@@@ATL@@6B?$IObjectSafetyImpl@VCOPOSElectronicJournal@@$02@1@@ 00000001800259d0     ElectronicJournal.obj
 0002:00001a00       ??_7?$CComContainedObject@VCOPOSElectronicJournal@@@ATL@@6B?$IPropertyNotifySinkCP@VCOPOSElectronicJournal@@VCComDynamicUnkArray@ATL@@@1@@ 0000000180025a00     ElectronicJournal.obj
 0002:00001a40       ??_7?$CComContainedObject@VCOPOSElectronicJournal@@@ATL@@6B?$CProxy_IOPOSEvents@VCOPOSElectronicJournal@@@@@ 0000000180025a40     ElectronicJournal.obj
 0002:00001a80       ??_7?$CComAggObject@VCOPOSElectronicJournal@@@ATL@@6B@ 0000000180025a80     ElectronicJournal.obj
 0002:00001aa0       ??_7?$CComObject@VCOPOSElectronicJournal@@@ATL@@6B?$IDispatchImpl@UIOPOSElectronicJournal@@$1?IID_IOPOSElectronicJournal@@3U_GUID@@B$1?LIBID_OposElectronicJournal_CCO@@3U3@B$00$0A@VCComTypeInfoHolder@ATL@@@1@@ 0000000180025aa0     ElectronicJournal.obj
 0002:00001de0       ??_7?$CComObject@VCOPOSElectronicJournal@@@ATL@@6BCComControlBase@1@@ 0000000180025de0     ElectronicJournal.obj
 0002:00001e08       ??_7?$CComObject@VCOPOSElectronicJournal@@@ATL@@6B?$CWindowImpl@VCOPOSElectronicJournal@@VCWindow@ATL@@V?$CWinTraits@$0FGAAAAAA@$0A@@3@@1@@ 0000000180025e08     ElectronicJournal.obj
 0002:00001e28       ??_7?$CComObject@VCOPOSElectronicJournal@@@ATL@@6B?$IPersistStreamInitImpl@VCOPOSElectronicJournal@@@1@@ 0000000180025e28     ElectronicJournal.obj
 0002:00001e70       ??_7?$CComObject@VCOPOSElectronicJournal@@@ATL@@6B?$IOleControlImpl@VCOPOSElectronicJournal@@@1@@ 0000000180025e70     ElectronicJournal.obj
 0002:00001ea8       ??_7?$CComObject@VCOPOSElectronicJournal@@@ATL@@6B?$IOleObjectImpl@VCOPOSElectronicJournal@@@1@@ 0000000180025ea8     ElectronicJournal.obj
 0002:00001f68       ??_7?$CComObject@VCOPOSElectronicJournal@@@ATL@@6B?$IOleInPlaceActiveObjectImpl@VCOPOSElectronicJournal@@@1@@ 0000000180025f68     ElectronicJournal.obj
 0002:00001fb8       ??_7?$CComObject@VCOPOSElectronicJournal@@@ATL@@6B?$IViewObjectExImpl@VCOPOSElectronicJournal@@@1@@ 0000000180025fb8     ElectronicJournal.obj
 0002:00002030       ??_7?$CComObject@VCOPOSElectronicJournal@@@ATL@@6B?$IOleInPlaceObjectWindowlessImpl@VCOPOSElectronicJournal@@@1@@ 0000000180026030     ElectronicJournal.obj
 0002:00002088       ??_7?$CComObject@VCOPOSElectronicJournal@@@ATL@@6B?$IConnectionPointContainerImpl@VCOPOSElectronicJournal@@@1@@ 0000000180026088     ElectronicJournal.obj
 0002:000020b0       ??_7?$CComObject@VCOPOSElectronicJournal@@@ATL@@6B?$IPersistStorageImpl@VCOPOSElectronicJournal@@@1@@ 00000001800260b0     ElectronicJournal.obj
 0002:00002100       ??_7?$CComObject@VCOPOSElectronicJournal@@@ATL@@6B?$ISpecifyPropertyPagesImpl@VCOPOSElectronicJournal@@@1@@ 0000000180026100     ElectronicJournal.obj
 0002:00002120       ??_7?$CComObject@VCOPOSElectronicJournal@@@ATL@@6B?$IQuickActivateImpl@VCOPOSElectronicJournal@@@1@@ 0000000180026120     ElectronicJournal.obj
 0002:00002150       ??_7?$CComObject@VCOPOSElectronicJournal@@@ATL@@6B?$IDataObjectImpl@VCOPOSElectronicJournal@@@1@@ 0000000180026150     ElectronicJournal.obj
 0002:000021b0       ??_7?$CComObject@VCOPOSElectronicJournal@@@ATL@@6B?$IProvideClassInfo2Impl@$1?CLSID_OPOSElectronicJournal@@3U_GUID@@B$1?DIID__IOPOSElectronicJournalEvents@@3U2@B$1?LIBID_OposElectronicJournal_CCO@@3U2@B$00$0A@VCComTypeInfoHolder@ATL@@@1@@ 00000001800261b0     ElectronicJournal.obj
 0002:000021d8       ??_7?$CComObject@VCOPOSElectronicJournal@@@ATL@@6B?$IObjectSafetyImpl@VCOPOSElectronicJournal@@$02@1@@ 00000001800261d8     ElectronicJournal.obj
 0002:00002208       ??_7?$CComObject@VCOPOSElectronicJournal@@@ATL@@6B?$IPropertyNotifySinkCP@VCOPOSElectronicJournal@@VCComDynamicUnkArray@ATL@@@1@@ 0000000180026208     ElectronicJournal.obj
 0002:00002248       ??_7?$CComObject@VCOPOSElectronicJournal@@@ATL@@6B?$CProxy_IOPOSEvents@VCOPOSElectronicJournal@@@@@ 0000000180026248     ElectronicJournal.obj
 0002:00002288       ??_C@_1O@GBFKGNEO@?$AAA?$AAT?$AAL?$AA?3?$AA?$CF?$AAp@ 0000000180026288     ElectronicJournal.obj
 0002:00002298       ??_C@_1BA@PICGEGJB@?$AAD?$AAI?$AAS?$AAP?$AAL?$AAA?$AAY@ 0000000180026298     ElectronicJournal.obj
 0002:000022a8       _GUID_9bfbbc02_eff1_101a_84ed_00aa00341d07 00000001800262a8     ElectronicJournal.obj
 0002:000022b8       ?_entries@?1??_GetEntries@?$CComEnum@UIEnumConnectionPoints@@$1?_GUID_b196b285_bab4_101a_b69c_00aa00341d07@@3U__s_GUID@@BPEAUIConnectionPoint@@V?$_CopyInterface@UIConnectionPoint@@@ATL@@VCComSingleThreadModel@6@@ATL@@SAPEBU_ATL_INTMAP_ENTRY@3@XZ@4QBU43@B 00000001800262b8     ElectronicJournal.obj
 0002:000022e8       _GUID_b196b284_bab4_101a_b69c_00aa00341d07 00000001800262e8     ElectronicJournal.obj
 0002:000022f8       _GUID_00020412_0000_0000_c000_000000000046 00000001800262f8     ElectronicJournal.obj
 0002:00002308       _GUID_00020401_0000_0000_c000_000000000046 0000000180026308     ElectronicJournal.obj
 0002:00002318       _GUID_55980ba0_35aa_11cf_b671_00aa004cd6d8 0000000180026318     ElectronicJournal.obj
 0002:00002328       _GUID_b196b28b_bab4_101a_b69c_00aa00341d07 0000000180026328     ElectronicJournal.obj
 0002:00002338       ??_7?$CComObject@V?$CComEnum@UIEnumConnections@@$1?_GUID_b196b287_bab4_101a_b69c_00aa00341d07@@3U__s_GUID@@BUtagCONNECTDATA@@V?$_Copy@UtagCONNECTDATA@@@ATL@@VCComSingleThreadModel@6@@ATL@@@ATL@@6B@ 0000000180026338     ElectronicJournal.obj
 0002:00002378       ?_entries@?1??_GetEntries@?$CComEnum@UIEnumConnections@@$1?_GUID_b196b287_bab4_101a_b69c_00aa00341d07@@3U__s_GUID@@BUtagCONNECTDATA@@V?$_Copy@UtagCONNECTDATA@@@ATL@@VCComSingleThreadModel@6@@ATL@@SAPEBU_ATL_INTMAP_ENTRY@3@XZ@4QBU43@B 0000000180026378     ElectronicJournal.obj
 0002:000023a8       ??_7CComClassFactory@ATL@@6B@ 00000001800263a8     ElectronicJournal.obj
 0002:000023d8       ?_entries@?1??_GetEntries@CComClassFactory@ATL@@SAPEBU_ATL_INTMAP_ENTRY@3@XZ@4QBU43@B 00000001800263d8     ElectronicJournal.obj
 0002:00002408       _GUID_00000001_0000_0000_c000_000000000046 0000000180026408     ElectronicJournal.obj
 0002:00002418       ??_C@_0BG@EKFFMJIO@RegOpenKeyTransactedW@ 0000000180026418     ElectronicJournal.obj
 0002:00002430       ??_C@_0BI@HAKLOOGP@RegDeleteKeyTransactedW@ 0000000180026430     ElectronicJournal.obj
 0002:00002448       ??_C@_0BA@LILAPHGE@RegDeleteKeyExW@ 0000000180026448     ElectronicJournal.obj
 0002:00002458       ??_C@_19ILOCMLCJ@?$AA?4?$AAt?$AAl?$AAb@ 0000000180026458     ElectronicJournal.obj
 0002:00002468       _GUID_0002e012_0000_0000_c000_000000000046 0000000180026468     ElectronicJournal.obj
 0002:00002478       ??_C@_1O@FHBGLCIO@?$AAC?$AAL?$AAS?$AAI?$AAD?$AA?2@ 0000000180026478     ElectronicJournal.obj
 0002:00002488       ??_C@_1CK@IFBKBFAA@?$AA?2?$AAR?$AAe?$AAq?$AAu?$AAi?$AAr?$AAe?$AAd?$AA?5?$AAC?$AAa?$AAt?$AAe?$AAg@ 0000000180026488     ElectronicJournal.obj
 0002:000024b8       ??_C@_1DA@BIHALFED@?$AA?2?$AAI?$AAm?$AAp?$AAl?$AAe?$AAm?$AAe?$AAn?$AAt?$AAe?$AAd?$AA?5?$AAC?$AAa@ 00000001800264b8     ElectronicJournal.obj
 0002:000024e8       ??_C@_1BK@EDKOLFBJ@?$AAO?$AAL?$AAE?$AAA?$AAU?$AAT?$AA3?$AA2?$AA?4?$AAD?$AAL?$AAL@ 00000001800264e8     ElectronicJournal.obj
 0002:00002508       ??_C@_0BJ@CNLFOMHB@UnRegisterTypeLibForUser@ 0000000180026508     ElectronicJournal.obj
 0002:00002528       ??_C@_0BH@LBOMMKPJ@RegisterTypeLibForUser@ 0000000180026528     ElectronicJournal.obj
 0002:00002540       ??_C@_0P@MMNMMLGK@COFreezeEvents@ 0000000180026540     ElectronicJournalImpl.obj
 0002:00002550       ??_C@_0BC@OGCGGIMP@GetPropertyNumber@ 0000000180026550     ElectronicJournalImpl.obj
 0002:00002568       ??_C@_0BC@MDCNODNB@SetPropertyNumber@ 0000000180026568     ElectronicJournalImpl.obj
 0002:00002580       ??_C@_0BC@CFCCMIMD@GetPropertyString@ 0000000180026580     ElectronicJournalImpl.obj
 0002:00002598       ??_C@_0BC@CJEDNN@SetPropertyString@ 0000000180026598     ElectronicJournalImpl.obj
 0002:000025b0       ??_C@_0M@LNPKKKDA@OpenService@ 00000001800265b0     ElectronicJournalImpl.obj
 0002:000025c0       ??_C@_0M@PCMCHHMH@CheckHealth@ 00000001800265c0     ElectronicJournalImpl.obj
 0002:000025d0       ??_C@_0M@JGMIDNEK@ClaimDevice@ 00000001800265d0     ElectronicJournalImpl.obj
 0002:000025e0       ??_C@_0L@BNEIFEJC@ClearInput@ 00000001800265e0     ElectronicJournalImpl.obj
 0002:000025f0       ??_C@_0M@JMBCPNGJ@ClearOutput@ 00000001800265f0     ElectronicJournalImpl.obj
 0002:00002600       ??_C@_0N@DDFIIBMP@CloseService@ 0000000180026600     ElectronicJournalImpl.obj
 0002:00002610       ??_C@_08EEIHICPC@DirectIO@ 0000000180026610     ElectronicJournalImpl.obj
 0002:00002620       ??_C@_0O@BCPMENMJ@ReleaseDevice@ 0000000180026620     ElectronicJournalImpl.obj
 0002:00002630       ??_C@_0BA@GFABKEEE@ResetStatistics@ 0000000180026630     ElectronicJournalImpl.obj
 0002:00002640       ??_C@_0BD@DPALHJGC@RetrieveStatistics@ 0000000180026640     ElectronicJournalImpl.obj
 0002:00002658       ??_C@_0BB@KOHIKNFC@UpdateStatistics@ 0000000180026658     ElectronicJournalImpl.obj
 0002:00002670       ??_C@_0BH@PBKBNMGB@CompareFirmwareVersion@ 0000000180026670     ElectronicJournalImpl.obj
 0002:00002688       ??_C@_0P@FBPDPIPA@UpdateFirmware@ 0000000180026688     ElectronicJournalImpl.obj
 0002:00002698       ??_C@_0BD@PFECBCCO@GetMediumFreeSpace@ 0000000180026698     ElectronicJournalImpl.obj
 0002:000026b0       ??_C@_0O@KINCGENF@GetMediumSize@ 00000001800266b0     ElectronicJournalImpl.obj
 0002:000026c0       ??_C@_09OCHHJMKK@AddMarker@ 00000001800266c0     ElectronicJournalImpl.obj
 0002:000026d0       ??_C@_0BD@FPEIPLFC@CancelPrintContent@ 00000001800266d0     ElectronicJournalImpl.obj
 0002:000026e8       ??_C@_0BD@DAIBNPKO@CancelQueryContent@ 00000001800266e8     ElectronicJournalImpl.obj
 0002:00002700       ??_C@_0M@DALEHAMG@EraseMedium@ 0000000180026700     ElectronicJournalImpl.obj
 0002:00002710       ??_C@_0BB@LBJHJKJA@InitializeMedium@ 0000000180026710     ElectronicJournalImpl.obj
 0002:00002728       ??_C@_0N@JJCKBDAO@PrintContent@ 0000000180026728     ElectronicJournalImpl.obj
 0002:00002738       ??_C@_0BB@NANNDFBE@PrintContentFile@ 0000000180026738     ElectronicJournalImpl.obj
 0002:00002750       ??_C@_0N@PGODDHPC@QueryContent@ 0000000180026750     ElectronicJournalImpl.obj
 0002:00002760       ??_C@_0BD@EBMGMJNE@ResumePrintContent@ 0000000180026760     ElectronicJournalImpl.obj
 0002:00002778       ??_C@_0BD@COAPONCI@ResumeQueryContent@ 0000000180026778     ElectronicJournalImpl.obj
 0002:00002790       ??_C@_0BG@LJLAKGMB@RetrieveCurrentMarker@ 0000000180026790     ElectronicJournalImpl.obj
 0002:000027a8       ??_C@_0P@GJMACLNL@RetrieveMarker@ 00000001800267a8     ElectronicJournalImpl.obj
 0002:000027b8       ??_C@_0BJ@ELLMKGFB@RetrieveMarkerByDateTime@ 00000001800267b8     ElectronicJournalImpl.obj
 0002:000027d8       ??_C@_0BI@MAMPNAIK@RetrieveMarkersDateTime@ 00000001800267d8     ElectronicJournalImpl.obj
 0002:000027f0       ??_C@_0BE@JLCGCOBI@SuspendPrintContent@ 00000001800267f0     ElectronicJournalImpl.obj
 0002:00002808       ??_C@_0BE@PEOPAKOE@SuspendQueryContent@ 0000000180026808     ElectronicJournalImpl.obj
 0002:00002820       ??_7?$CProxy_IOPOSEvents@VCOPOSElectronicJournal@@@@6B@ 0000000180026820     ElectronicJournalImpl.obj
 0002:00002860       ??_C@_1BA@IFHENID@?$AA?$FL?$AAE?$AAr?$AAr?$AAo?$AAr?$AA?$FN@ 0000000180026860     ElectronicJournalImpl.obj
 0002:00002870       ??_C@_0DE@NJCAGLCG@SOFTWARE?2OLEforRetail?2ServiceOP@ 0000000180026870     ElectronicJournalImpl.obj
 0002:000028a8       ??_C@_1M@IAIJHCCH@?$AAC?$AAl?$AAo?$AAs?$AAe@ 00000001800268a8     ElectronicJournalImpl.obj
 0002:000028b8       ??_C@_1M@PCPKGJAH@?$AAC?$AAl?$AAa?$AAi?$AAm@ 00000001800268b8     ElectronicJournalImpl.obj
 0002:000028c8       ??_C@_1BA@NDFKIOCP@?$AAR?$AAe?$AAl?$AAe?$AAa?$AAs?$AAe@ 00000001800268c8     ElectronicJournalImpl.obj
 0002:000028d8       ??_C@_0BC@EPNMIABE@ElectronicJournal@ 00000001800268d8     ElectronicJournalImpl.obj
 0002:000028f0       ??_C@_1BM@IJMNMBPK@?$AAG?$AAe?$AAt?$AAO?$AAp?$AAe?$AAn?$AAR?$AAe?$AAs?$AAu?$AAl?$AAt@ 00000001800268f0     ElectronicJournalImpl.obj
 0002:00002910       IID_IDispatch              0000000180026910     uuid:oaidl_i.obj
 0002:00002920       IID_IPropertyNotifySink    0000000180026920     uuid:ocidl_i.obj
 0002:00002930       GUID_NULL                  0000000180026930     uuid:cguid_i.obj
 0002:00002940       CLSID_StdGlobalInterfaceTable 0000000180026940     uuid:cguid_i.obj
 0002:00002950       CLSID_StdComponentCategoriesMgr 0000000180026950     uuid:ieguids.obj
 0002:00002960       IID_IUnknown               0000000180026960     uuid:unknwn_i.obj
 0002:00002970       __xmm@ffffffffffffffffffffffffffffffff 0000000180026970     LIBCMT:utility.obj
 0002:00002980       ??_C@_1EC@JIJBPKFM@?$AAa?$AAp?$AAi?$AA?9?$AAm?$AAs?$AA?9?$AAw?$AAi?$AAn?$AA?9?$AAc?$AAo?$AAr?$AAe@ 0000000180026980     LIBCMT:thread_safe_statics.obj
 0002:000029c8       ??_C@_1BK@MGMFAEKH@?$AAk?$AAe?$AAr?$AAn?$AAe?$AAl?$AA3?$AA2?$AA?4?$AAd?$AAl?$AAl@ 00000001800269c8     LIBCMT:thread_safe_statics.obj
 0002:000029e8       ??_C@_0BJ@JEBJOJFJ@SleepConditionVariableCS@ 00000001800269e8     LIBCMT:thread_safe_statics.obj
 0002:00002a08       ??_C@_0BJ@PGPPEPCC@WakeAllConditionVariable@ 0000000180026a08     LIBCMT:thread_safe_statics.obj
 0002:00002a21       ?nothrow@std@@3Unothrow_t@1@B 0000000180026a21     LIBCMT:std_nothrow.obj
 0002:00002a38       _pRawDllMain               0000000180026a38     LIBCMT:dll_dllmain.obj
 0002:00002a38       _pDefaultRawDllMain        0000000180026a38     LIBCMT:dll_dllmain.obj
 0002:00002a48       ??_7exception@std@@6B@     0000000180026a48     LIBCMT:throw_bad_alloc.obj
 0002:00002a58       ??_C@_0BC@EOODALEL@Unknown?5exception@ 0000000180026a58     LIBCMT:throw_bad_alloc.obj
 0002:00002a78       ??_7bad_alloc@std@@6B@     0000000180026a78     LIBCMT:throw_bad_alloc.obj
 0002:00002a88       ??_C@_0P@GHFPNOJB@bad?5allocation@ 0000000180026a88     LIBCMT:throw_bad_alloc.obj
 0002:00002aa0       ??_7bad_array_new_length@std@@6B@ 0000000180026aa0     LIBCMT:throw_bad_alloc.obj
 0002:00002ab0       ??_C@_0BF@KINCDENJ@bad?5array?5new?5length@ 0000000180026ab0     LIBCMT:throw_bad_alloc.obj
 0002:00002ad0       ??_7type_info@@6B@         0000000180026ad0     LIBCMT:std_type_info_static.obj
 0002:00002ad8       GUID_ATLVer110             0000000180026ad8     atls:atlbase.obj
 0002:00002af0       ??_C@_1IC@ONKHOIDK@?$AAE?$AAR?$AAR?$AAO?$AAR?$AA?5?$AA?3?$AA?5?$AAU?$AAn?$AAa?$AAb?$AAl?$AAe?$AA?5@ 0000000180026af0     atls:atlbase.obj
 0002:00002b78       ??_C@_0N@FJEPLCIH@atlthunk?4dll@ 0000000180026b78     atls:atlthunk.obj
 0002:00002b88       ??_C@_0BG@GAKFHCBM@AtlThunk_AllocateData@ 0000000180026b88     atls:atlthunk.obj
 0002:00002ba0       ??_C@_0BC@JKONFIAH@AtlThunk_InitData@ 0000000180026ba0     atls:atlthunk.obj
 0002:00002bb8       ??_C@_0BE@IAOEELAK@AtlThunk_DataToCode@ 0000000180026bb8     atls:atlthunk.obj
 0002:00002bd0       ??_C@_0BC@GBGKAIPI@AtlThunk_FreeData@ 0000000180026bd0     atls:atlthunk.obj
 0002:00002be8       ?s_negLengthTab@FH4@@3QBCB 0000000180026be8     libvcruntime:risctrnsctrl.obj
 0002:00002bf8       ?s_shiftTab@FH4@@3QBEB     0000000180026bf8     libvcruntime:risctrnsctrl.obj
 0002:00002ca8       _pDestructExceptionObject  0000000180026ca8     libvcruntime:ehhelpers.obj
 0002:00002cb8       ??_7bad_exception@std@@6B@ 0000000180026cb8     libvcruntime:frame.obj
 0002:00002cc8       ??_C@_0O@DPKOEFFH@bad?5exception@ 0000000180026cc8     libvcruntime:frame.obj
 0002:000033e0       ??_C@_08EHJDFFNH@__based?$CI@ 00000001800273e0     libvcruntime:undname.obj
 0002:000033f0       ??_C@_07KOLFKCDI@__cdecl@  00000001800273f0     libvcruntime:undname.obj
 0002:000033f8       ??_C@_08GHMPAG@__pascal@   00000001800273f8     libvcruntime:undname.obj
 0002:00003408       ??_C@_09IFJBGAPI@__stdcall@ 0000000180027408     libvcruntime:undname.obj
 0002:00003418       ??_C@_0L@NPHFGOKO@__thiscall@ 0000000180027418     libvcruntime:undname.obj
 0002:00003428       ??_C@_0L@JMKHOMEK@__fastcall@ 0000000180027428     libvcruntime:undname.obj
 0002:00003438       ??_C@_0N@BCKKPABJ@__vectorcall@ 0000000180027438     libvcruntime:undname.obj
 0002:00003448       ??_C@_09HIJEGCPM@__clrcall@ 0000000180027448     libvcruntime:undname.obj
 0002:00003454       ??_C@_06GHPCKEAG@__eabi@   0000000180027454     libvcruntime:undname.obj
 0002:00003460       ??_C@_09IOPIDJLG@__swift_1@ 0000000180027460     libvcruntime:undname.obj
 0002:00003470       ??_C@_09KFNFGKHF@__swift_2@ 0000000180027470     libvcruntime:undname.obj
 0002:00003480       ??_C@_07JOMMBBKO@__ptr64@  0000000180027480     libvcruntime:undname.obj
 0002:00003488       ??_C@_0L@PILCLIHE@__restrict@ 0000000180027488     libvcruntime:undname.obj
 0002:00003498       ??_C@_0M@GFIIJFMG@__unaligned@ 0000000180027498     libvcruntime:undname.obj
 0002:000034a8       ??_C@_09DHDLOLLB@restrict?$CI@ 00000001800274a8     libvcruntime:undname.obj
 0002:000034b2       ??_C@_00CNPNBAHC@@         00000001800274b2     libvcruntime:undname.obj
 0002:000034b4       ??_C@_04NIHEBCM@?5new@     00000001800274b4     libvcruntime:undname.obj
 0002:000034c0       ??_C@_07FPCDHGMM@?5delete@ 00000001800274c0     libvcruntime:undname.obj
 0002:000034c8       ??_C@_01NEMOKFLO@?$DN@     00000001800274c8     libvcruntime:undname.obj
 0002:000034cc       ??_C@_02GPIOPFAK@?$DO?$DO@ 00000001800274cc     libvcruntime:undname.obj
 0002:000034d0       ??_C@_02FODMEDOG@?$DM?$DM@ 00000001800274d0     libvcruntime:undname.obj
 0002:000034d4       ??_C@_01DCLJPIOD@?$CB@     00000001800274d4     libvcruntime:undname.obj
 0002:000034d8       ??_C@_02EGOFBIJA@?$DN?$DN@ 00000001800274d8     libvcruntime:undname.obj
 0002:000034dc       ??_C@_02FDNJECIE@?$CB?$DN@ 00000001800274dc     libvcruntime:undname.obj
 0002:000034e0       ??_C@_02GPECMEKF@?$FL?$FN@ 00000001800274e0     libvcruntime:undname.obj
 0002:000034e8       ??_C@_08LHJFAFGD@operator@ 00000001800274e8     libvcruntime:undname.obj
 0002:000034f4       ??_C@_02HBOOOICD@?9?$DO@   00000001800274f4     libvcruntime:undname.obj
 0002:000034f8       ??_C@_01NBENCBCI@?$CK@     00000001800274f8     libvcruntime:undname.obj
 0002:000034fc       ??_C@_02ECNGHCIF@?$CL?$CL@ 00000001800274fc     libvcruntime:undname.obj
 0002:00003500       ??_C@_02BAABKJLB@?9?9@     0000000180027500     libvcruntime:undname.obj
 0002:00003504       ??_C@_01JOAMLHOP@?9@       0000000180027504     libvcruntime:undname.obj
 0002:00003508       ??_C@_01MIFGBAGJ@?$CL@     0000000180027508     libvcruntime:undname.obj
 0002:0000350c       ??_C@_01HNPIGOCE@?$CG@     000000018002750c     libvcruntime:undname.obj
 0002:00003510       ??_C@_03MNHNFDLC@?9?$DO?$CK@ 0000000180027510     libvcruntime:undname.obj
 0002:00003514       ??_C@_01KMDKNFGN@?1@       0000000180027514     libvcruntime:undname.obj
 0002:00003518       ??_C@_01FGNFDNOH@?$CF@     0000000180027518     libvcruntime:undname.obj
 0002:0000351c       ??_C@_01MNNFJEPP@?$DM@     000000018002751c     libvcruntime:undname.obj
 0002:00003520       ??_C@_02EHCHHCKH@?$DM?$DN@ 0000000180027520     libvcruntime:undname.obj
 0002:00003524       ??_C@_01PPODPGHN@?$DO@     0000000180027524     libvcruntime:undname.obj
 0002:00003528       ??_C@_02EEKDKGMJ@?$DO?$DN@ 0000000180027528     libvcruntime:undname.obj
 0002:0000352c       ??_C@_01IHBHIGKO@?0@       000000018002752c     libvcruntime:undname.obj
 0002:00003530       ??_C@_02HCKGKOFO@?$CI?$CJ@ 0000000180027530     libvcruntime:undname.obj
 0002:00003534       ??_C@_01PJKLJHI@?$HO@      0000000180027534     libvcruntime:undname.obj
 0002:00003538       ??_C@_01JKBOJNNK@?$FO@     0000000180027538     libvcruntime:undname.obj
 0002:0000353c       ??_C@_01DNKMNLPK@?$HM@     000000018002753c     libvcruntime:undname.obj
 0002:00003540       ??_C@_02PPKAJPJL@?$CG?$CG@ 0000000180027540     libvcruntime:undname.obj
 0002:00003544       ??_C@_02NONPIBCD@?$HM?$HM@ 0000000180027544     libvcruntime:undname.obj
 0002:00003548       ??_C@_02FPIMKNGF@?$CK?$DN@ 0000000180027548     libvcruntime:undname.obj
 0002:0000354c       ??_C@_02FOEOMHFC@?$CL?$DN@ 000000018002754c     libvcruntime:undname.obj
 0002:00003550       ??_C@_02FKMDLLOA@?9?$DN@   0000000180027550     libvcruntime:undname.obj
 0002:00003554       ??_C@_02FJEHGPIO@?1?$DN@   0000000180027554     libvcruntime:undname.obj
 0002:00003558       ??_C@_02FENAOKFI@?$CF?$DN@ 0000000180027558     libvcruntime:undname.obj
 0002:0000355c       ??_C@_03IKFCCPFF@?$DO?$DO?$DN@ 000000018002755c     libvcruntime:undname.obj
 0002:00003560       ??_C@_03CDNPDDLA@?$DM?$DM?$DN@ 0000000180027560     libvcruntime:undname.obj
 0002:00003564       ??_C@_02FGJGFEAB@?$CG?$DN@ 0000000180027564     libvcruntime:undname.obj
 0002:00003568       ??_C@_02DHLNPPGH@?$HM?$DN@ 0000000180027568     libvcruntime:undname.obj
 0002:0000356c       ??_C@_02MHEGNOJ@?$FO?$DN@  000000018002756c     libvcruntime:undname.obj
 0002:00003570       ??_C@_09IFPLHPGF@?$GAvftable?8@ 0000000180027570     libvcruntime:undname.obj
 0002:00003580       ??_C@_09BLBHBJP@?$GAvbtable?8@ 0000000180027580     libvcruntime:undname.obj
 0002:00003590       ??_C@_07FEEIOKP@?$GAvcall?8@ 0000000180027590     libvcruntime:undname.obj
 0002:00003598       ??_C@_08LLFFHHDJ@?$GAtypeof?8@ 0000000180027598     libvcruntime:undname.obj
 0002:000035a8       ??_C@_0BF@KDPPACIK@?$GAlocal?5static?5guard?8@ 00000001800275a8     libvcruntime:undname.obj
 0002:000035c0       ??_C@_08OBABFOLI@?$GAstring?8@ 00000001800275c0     libvcruntime:undname.obj
 0002:000035d0       ??_C@_0BD@JDLKDPAB@?$GAvbase?5destructor?8@ 00000001800275d0     libvcruntime:undname.obj
 0002:000035e8       ??_C@_0BN@DEGPLNFK@?$GAvector?5deleting?5destructor?8@ 00000001800275e8     libvcruntime:undname.obj
 0002:00003608       ??_C@_0BO@OBMKPJIG@?$GAdefault?5constructor?5closure?8@ 0000000180027608     libvcruntime:undname.obj
 0002:00003628       ??_C@_0BN@IMDCHIKM@?$GAscalar?5deleting?5destructor?8@ 0000000180027628     libvcruntime:undname.obj
 0002:00003648       ??_C@_0BO@PFGOCPJJ@?$GAvector?5constructor?5iterator?8@ 0000000180027648     libvcruntime:undname.obj
 0002:00003668       ??_C@_0BN@LFPFMEDL@?$GAvector?5destructor?5iterator?8@ 0000000180027668     libvcruntime:undname.obj
 0002:00003688       ??_C@_0CE@IKBNEHA@?$GAvector?5vbase?5constructor?5itera@ 0000000180027688     libvcruntime:undname.obj
 0002:000036b0       ??_C@_0BL@NILFHHPC@?$GAvirtual?5displacement?5map?8@ 00000001800276b0     libvcruntime:undname.obj
 0002:000036d0       ??_C@_0CB@JONCMFFK@?$GAeh?5vector?5constructor?5iterator@ 00000001800276d0     libvcruntime:undname.obj
 0002:000036f8       ??_C@_0CA@GCEOPDGL@?$GAeh?5vector?5destructor?5iterator?8@ 00000001800276f8     libvcruntime:undname.obj
 0002:00003718       ??_C@_0CH@OOJPLCPH@?$GAeh?5vector?5vbase?5constructor?5it@ 0000000180027718     libvcruntime:undname.obj
 0002:00003740       ??_C@_0BL@LLKPOHJI@?$GAcopy?5constructor?5closure?8@ 0000000180027740     libvcruntime:undname.obj
 0002:00003760       ??_C@_0BA@KBCDOMBN@?$GAudt?5returning?8@ 0000000180027760     libvcruntime:undname.obj
 0002:00003770       ??_C@_03KLGMFNMG@?$GAEH@   0000000180027770     libvcruntime:undname.obj
 0002:00003774       ??_C@_05KHLCHHI@?$GARTTI@  0000000180027774     libvcruntime:undname.obj
 0002:00003780       ??_C@_0BA@KKLDJDLB@?$GAlocal?5vftable?8@ 0000000180027780     libvcruntime:undname.obj
 0002:00003790       ??_C@_0CE@IIHCMGGL@?$GAlocal?5vftable?5constructor?5clos@ 0000000180027790     libvcruntime:undname.obj
 0002:000037b4       ??_C@_06FHBGPFGH@?5new?$FL?$FN@ 00000001800277b4     libvcruntime:undname.obj
 0002:000037c0       ??_C@_09LBNFPBCA@?5delete?$FL?$FN@ 00000001800277c0     libvcruntime:undname.obj
 0002:000037d0       ??_C@_0P@HJKNJFNN@?$GAomni?5callsig?8@ 00000001800277d0     libvcruntime:undname.obj
 0002:000037e0       ??_C@_0BL@CNOONJFP@?$GAplacement?5delete?5closure?8@ 00000001800277e0     libvcruntime:undname.obj
 0002:00003800       ??_C@_0BN@CKNJLHMB@?$GAplacement?5delete?$FL?$FN?5closure?8@ 0000000180027800     libvcruntime:undname.obj
 0002:00003820       ??_C@_0CG@CFDHKGGD@?$GAmanaged?5vector?5constructor?5ite@ 0000000180027820     libvcruntime:undname.obj
 0002:00003848       ??_C@_0CF@IMGKMJNO@?$GAmanaged?5vector?5destructor?5iter@ 0000000180027848     libvcruntime:undname.obj
 0002:00003870       ??_C@_0CG@HLDDJMAG@?$GAeh?5vector?5copy?5constructor?5ite@ 0000000180027870     libvcruntime:undname.obj
 0002:00003898       ??_C@_0CM@FCBBDIGB@?$GAeh?5vector?5vbase?5copy?5construct@ 0000000180027898     libvcruntime:undname.obj
 0002:000038c8       ??_C@_0BL@CLIPGLGB@?$GAdynamic?5initializer?5for?5?8@ 00000001800278c8     libvcruntime:undname.obj
 0002:000038e8       ??_C@_0CB@PDBIFEP@?$GAdynamic?5atexit?5destructor?5for?5@ 00000001800278e8     libvcruntime:undname.obj
 0002:00003910       ??_C@_0CD@CGAJBKEJ@?$GAvector?5copy?5constructor?5iterat@ 0000000180027910     libvcruntime:undname.obj
 0002:00003938       ??_C@_0CJ@GJELGAMM@?$GAvector?5vbase?5copy?5constructor?5@ 0000000180027938     libvcruntime:undname.obj
 0002:00003968       ??_C@_0CL@FGIJHLCE@?$GAmanaged?5vector?5copy?5constructo@ 0000000180027968     libvcruntime:undname.obj
 0002:00003998       ??_C@_0BM@PMGGMLDN@?$GAlocal?5static?5thread?5guard?8@ 0000000180027998     libvcruntime:undname.obj
 0002:000039b8       ??_C@_0N@BDNMDMOL@operator?5?$CC?$CC?5@ 00000001800279b8     libvcruntime:undname.obj
 0002:000039c8       ??_C@_0BC@GGEBGALA@operator?5co_await@ 00000001800279c8     libvcruntime:undname.obj
 0002:000039e0       ??_C@_0M@GAAIMMOH@operator?$DM?$DN?$DO@ 00000001800279e0     libvcruntime:undname.obj
 0002:000039f0       ??_C@_0BC@DAFEJGAK@?5Type?5Descriptor?8@ 00000001800279f0     libvcruntime:undname.obj
 0002:00003a08       ??_C@_0BM@LDKODKLH@?5Base?5Class?5Descriptor?5at?5?$CI@ 0000000180027a08     libvcruntime:undname.obj
 0002:00003a28       ??_C@_0BD@LGICGFMM@?5Base?5Class?5Array?8@ 0000000180027a28     libvcruntime:undname.obj
 0002:00003a40       ??_C@_0BN@MECKDCOJ@?5Class?5Hierarchy?5Descriptor?8@ 0000000180027a40     libvcruntime:undname.obj
 0002:00003a60       ??_C@_0BK@CFCOFLF@?5Complete?5Object?5Locator?8@ 0000000180027a60     libvcruntime:undname.obj
 0002:00003a80       ??_C@_0BG@JNJLAMPM@?$GAanonymous?5namespace?8@ 0000000180027a80     libvcruntime:undname.obj
 0002:00003ab0       ??_C@_1DM@KHCHBNEB@?$AAa?$AAp?$AAi?$AA?9?$AAm?$AAs?$AA?9?$AAw?$AAi?$AAn?$AA?9?$AAc?$AAo?$AAr?$AAe@ 0000000180027ab0     libvcruntime:winapi_downlevel.obj
 0002:00003af0       ??_C@_1DK@LPPGFMPP@?$AAa?$AAp?$AAi?$AA?9?$AAm?$AAs?$AA?9?$AAw?$AAi?$AAn?$AA?9?$AAc?$AAo?$AAr?$AAe@ 0000000180027af0     libvcruntime:winapi_downlevel.obj
 0002:00003b30       ??_C@_1BC@GDMECMAK@?$AAk?$AAe?$AAr?$AAn?$AAe?$AAl?$AA3?$AA2@ 0000000180027b30     libvcruntime:winapi_downlevel.obj
 0002:00003b48       ??_C@_1BA@PFFKHIOG@?$AAa?$AAp?$AAi?$AA?9?$AAm?$AAs?$AA?9@ 0000000180027b48     libvcruntime:winapi_downlevel.obj
 0002:00003b60       ??_C@_08KNHFBNJ@FlsAlloc@  0000000180027b60     libvcruntime:winapi_downlevel.obj
 0002:00003b78       ??_C@_07PEJMOBNF@FlsFree@  0000000180027b78     libvcruntime:winapi_downlevel.obj
 0002:00003b88       ??_C@_0M@GDNOONDI@FlsGetValue@ 0000000180027b88     libvcruntime:winapi_downlevel.obj
 0002:00003ba0       ??_C@_0M@JCPCPOEF@FlsSetValue@ 0000000180027ba0     libvcruntime:winapi_downlevel.obj
 0002:00003bb8       ??_C@_0BM@HCFOFFN@InitializeCriticalSectionEx@ 0000000180027bb8     libvcruntime:winapi_downlevel.obj
 0002:00003d50       ?format_validation_lookup_table_spectre@__crt_stdio_output@@3V?$spectre_mitigated_lookup_table@Ustate_transition_pair@__crt_stdio_output@@$0IA@@1@B 0000000180027d50     libucrt:output.obj
 0002:00004150       ??_C@_1O@CEDCILHN@?$AA?$CI?$AAn?$AAu?$AAl?$AAl?$AA?$CJ@ 0000000180028150     libucrt:output.obj
 0002:00004160       ??_C@_06OJHGLDPL@?$CInull?$CJ@ 0000000180028160     libucrt:output.obj
 0002:00004170       __acrt_exception_action_table 0000000180028170     libucrt:exception_filter.obj
 0002:00004230       __acrt_signal_action_table_count 0000000180028230     libucrt:exception_filter.obj
 0002:00004238       __acrt_signal_action_first_fpe_index 0000000180028238     libucrt:exception_filter.obj
 0002:00004240       __acrt_signal_action_fpe_count 0000000180028240     libucrt:exception_filter.obj
 0002:00004248       ??_C@_1BI@BGOHAHKC@?$AAm?$AAs?$AAc?$AAo?$AAr?$AAe?$AAe?$AA?4?$AAd?$AAl?$AAl@ 0000000180028248     libucrt:exit.obj
 0002:00004260       ??_C@_0P@MIGLKIOC@CorExitProcess@ 0000000180028260     libucrt:exit.obj
 0002:00004410       ??_C@_1EA@JGEFHKEI@?$AAa?$AAp?$AAi?$AA?9?$AAm?$AAs?$AA?9?$AAw?$AAi?$AAn?$AA?9?$AAc?$AAo?$AAr?$AAe@ 0000000180028410     libucrt:winapi_thunks.obj
 0002:00004450       ??_C@_1DI@IJCEHOCB@?$AAa?$AAp?$AAi?$AA?9?$AAm?$AAs?$AA?9?$AAw?$AAi?$AAn?$AA?9?$AAc?$AAo?$AAr?$AAe@ 0000000180028450     libucrt:winapi_thunks.obj
 0002:00004490       ??_C@_1EI@MPIAOHOC@?$AAa?$AAp?$AAi?$AA?9?$AAm?$AAs?$AA?9?$AAw?$AAi?$AAn?$AA?9?$AAc?$AAo?$AAr?$AAe@ 0000000180028490     libucrt:winapi_thunks.obj
 0002:000044e0       ??_C@_1FK@FPHCKFIE@?$AAa?$AAp?$AAi?$AA?9?$AAm?$AAs?$AA?9?$AAw?$AAi?$AAn?$AA?9?$AAc?$AAo?$AAr?$AAe@ 00000001800284e0     libucrt:winapi_thunks.obj
 0002:00004540       ??_C@_1EM@DILCGIIO@?$AAa?$AAp?$AAi?$AA?9?$AAm?$AAs?$AA?9?$AAw?$AAi?$AAn?$AA?9?$AAc?$AAo?$AAr?$AAe@ 0000000180028540     libucrt:winapi_thunks.obj
 0002:00004590       ??_C@_1DM@LNCGDDPN@?$AAa?$AAp?$AAi?$AA?9?$AAm?$AAs?$AA?9?$AAw?$AAi?$AAn?$AA?9?$AAc?$AAo?$AAr?$AAe@ 0000000180028590     libucrt:winapi_thunks.obj
 0002:000045d0       ??_C@_1DO@FPAPJEMD@?$AAa?$AAp?$AAi?$AA?9?$AAm?$AAs?$AA?9?$AAw?$AAi?$AAn?$AA?9?$AAc?$AAo?$AAr?$AAe@ 00000001800285d0     libucrt:winapi_thunks.obj
 0002:00004610       ??_C@_1DK@NDHNAHIO@?$AAa?$AAp?$AAi?$AA?9?$AAm?$AAs?$AA?9?$AAw?$AAi?$AAn?$AA?9?$AAc?$AAo?$AAr?$AAe@ 0000000180028610     libucrt:winapi_thunks.obj
 0002:00004650       ??_C@_1DM@KGHDGBCM@?$AAa?$AAp?$AAi?$AA?9?$AAm?$AAs?$AA?9?$AAw?$AAi?$AAn?$AA?9?$AAc?$AAo?$AAr?$AAe@ 0000000180028650     libucrt:winapi_thunks.obj
 0002:00004690       ??_C@_1EO@IJIOEFOH@?$AAa?$AAp?$AAi?$AA?9?$AAm?$AAs?$AA?9?$AAw?$AAi?$AAn?$AA?9?$AAr?$AAt?$AAc?$AAo@ 0000000180028690     libucrt:winapi_thunks.obj
 0002:000046e0       ??_C@_1FG@HHGEKANL@?$AAa?$AAp?$AAi?$AA?9?$AAm?$AAs?$AA?9?$AAw?$AAi?$AAn?$AA?9?$AAs?$AAe?$AAc?$AAu@ 00000001800286e0     libucrt:winapi_thunks.obj
 0002:00004740       ??_C@_1EG@DBIOJECG@?$AAe?$AAx?$AAt?$AA?9?$AAm?$AAs?$AA?9?$AAw?$AAi?$AAn?$AA?9?$AAn?$AAt?$AAu?$AAs@ 0000000180028740     libucrt:winapi_thunks.obj
 0002:00004790       ??_C@_1EO@FIHMJCLF@?$AAe?$AAx?$AAt?$AA?9?$AAm?$AAs?$AA?9?$AAw?$AAi?$AAn?$AA?9?$AAn?$AAt?$AAu?$AAs@ 0000000180028790     libucrt:winapi_thunks.obj
 0002:000047e0       ??_C@_1BC@DNHGCMLG@?$AAa?$AAd?$AAv?$AAa?$AAp?$AAi?$AA3?$AA2@ 00000001800287e0     libucrt:winapi_thunks.obj
 0002:000047f8       ??_C@_1M@OAIMIKLP@?$AAn?$AAt?$AAd?$AAl?$AAl@ 00000001800287f8     libucrt:winapi_thunks.obj
 0002:00004810       ??_C@_1EG@DPGNFKGC@?$AAa?$AAp?$AAi?$AA?9?$AAm?$AAs?$AA?9?$AAw?$AAi?$AAn?$AA?9?$AAa?$AAp?$AAp?$AAm@ 0000000180028810     libucrt:winapi_thunks.obj
 0002:00004858       ??_C@_1O@BCCLBEOE@?$AAu?$AAs?$AAe?$AAr?$AA3?$AA2@ 0000000180028858     libucrt:winapi_thunks.obj
 0002:00004868       ??_C@_1BA@IAIFMGEF@?$AAe?$AAx?$AAt?$AA?9?$AAm?$AAs?$AA?9@ 0000000180028868     libucrt:winapi_thunks.obj
 0002:00004880       ??_C@_0BA@FHFNEAED@AreFileApisANSI@ 0000000180028880     libucrt:winapi_thunks.obj
 0002:000048c0       ??_C@_0O@KKBNKAPF@LCMapStringEx@ 00000001800288c0     libucrt:winapi_thunks.obj
 0002:000048d8       ??_C@_0BB@HBDEELFH@LocaleNameToLCID@ 00000001800288d8     libucrt:winapi_thunks.obj
 0002:000048f0       ??_C@_0CF@OJOFEIGO@AppPolicyGetProcessTerminationM@ 00000001800288f0     libucrt:winapi_thunks.obj
 0002:00004920       ??_C@_0BI@BKLFFAPO@SetThreadStackGuarantee@ 0000000180028920     libucrt:winapi_thunks.obj
 0002:000049c0       ??_C@_03OEIAHPBN@INF@      00000001800289c0     libucrt:cvt.obj
 0002:000049c4       ??_C@_03OJHLLCGB@inf@      00000001800289c4     libucrt:cvt.obj
 0002:000049c8       ??_C@_03LKNCIKJB@NAN@      00000001800289c8     libucrt:cvt.obj
 0002:000049cc       ??_C@_03LHCJEHON@nan@      00000001800289cc     libucrt:cvt.obj
 0002:000049d0       ??_C@_09OFJJIMPC@NAN?$CISNAN?$CJ@ 00000001800289d0     libucrt:cvt.obj
 0002:000049e0       ??_C@_09IPFBKMDL@nan?$CIsnan?$CJ@ 00000001800289e0     libucrt:cvt.obj
 0002:000049f0       ??_C@_08IKHNHAJ@NAN?$CIIND?$CJ@ 00000001800289f0     libucrt:cvt.obj
 0002:00004a00       ??_C@_08OFCDMILK@nan?$CIind?$CJ@ 0000000180028a00     libucrt:cvt.obj
 0002:00004a0c       ??_C@_05KLBDPFGC@e?$CL000@ 0000000180028a0c     libucrt:cvt.obj
 0002:00004a20       __lc_time_c                0000000180028a20     libucrt:nlsdata.obj
 0002:00004ce0       ??_C@_03KOEHGMDN@Sun@      0000000180028ce0     libucrt:nlsdata.obj
 0002:00004ce4       ??_C@_03PDAGKDH@Mon@       0000000180028ce4     libucrt:nlsdata.obj
 0002:00004ce8       ??_C@_03NAGEINEP@Tue@      0000000180028ce8     libucrt:nlsdata.obj
 0002:00004cec       ??_C@_03MHOMLAJA@Wed@      0000000180028cec     libucrt:nlsdata.obj
 0002:00004cf0       ??_C@_03IOFIKPDN@Thu@      0000000180028cf0     libucrt:nlsdata.obj
 0002:00004cf4       ??_C@_03IDIOELNC@Fri@      0000000180028cf4     libucrt:nlsdata.obj
 0002:00004cf8       ??_C@_03FEFJNEK@Sat@       0000000180028cf8     libucrt:nlsdata.obj
 0002:00004cfc       ??_C@_06OOPIFAJ@Sunday@    0000000180028cfc     libucrt:nlsdata.obj
 0002:00004d04       ??_C@_06JLEDEDGH@Monday@   0000000180028d04     libucrt:nlsdata.obj
 0002:00004d10       ??_C@_07BAAGCFCM@Tuesday@  0000000180028d10     libucrt:nlsdata.obj
 0002:00004d18       ??_C@_09DLIGFAKA@Wednesday@ 0000000180028d18     libucrt:nlsdata.obj
 0002:00004d28       ??_C@_08HACCIKIA@Thursday@ 0000000180028d28     libucrt:nlsdata.obj
 0002:00004d34       ??_C@_06JECMNKMI@Friday@   0000000180028d34     libucrt:nlsdata.obj
 0002:00004d40       ??_C@_08INBOOONO@Saturday@ 0000000180028d40     libucrt:nlsdata.obj
 0002:00004d4c       ??_C@_03JIHJHPIE@Jan@      0000000180028d4c     libucrt:nlsdata.obj
 0002:00004d50       ??_C@_03HJBDCHOM@Feb@      0000000180028d50     libucrt:nlsdata.obj
 0002:00004d54       ??_C@_03ODNJBKGA@Mar@      0000000180028d54     libucrt:nlsdata.obj
 0002:00004d58       ??_C@_03LEOLGMJP@Apr@      0000000180028d58     libucrt:nlsdata.obj
 0002:00004d5c       ??_C@_03CNMDKL@May@        0000000180028d5c     libucrt:nlsdata.obj
 0002:00004d60       ??_C@_03IDFGHECI@Jun@      0000000180028d60     libucrt:nlsdata.obj
 0002:00004d64       ??_C@_03LBGABGKK@Jul@      0000000180028d64     libucrt:nlsdata.obj
 0002:00004d68       ??_C@_03IFJFEIGA@Aug@      0000000180028d68     libucrt:nlsdata.obj
 0002:00004d6c       ??_C@_03GGCAPAJC@Sep@      0000000180028d6c     libucrt:nlsdata.obj
 0002:00004d70       ??_C@_03BMAOKBAD@Oct@      0000000180028d70     libucrt:nlsdata.obj
 0002:00004d74       ??_C@_03JPJOFNIA@Nov@      0000000180028d74     libucrt:nlsdata.obj
 0002:00004d78       ??_C@_03MKABNOCG@Dec@      0000000180028d78     libucrt:nlsdata.obj
 0002:00004d80       ??_C@_07CGJPFGJA@January@  0000000180028d80     libucrt:nlsdata.obj
 0002:00004d88       ??_C@_08GNJGEPFN@February@ 0000000180028d88     libucrt:nlsdata.obj
 0002:00004d94       ??_C@_05HPCKOFNC@March@    0000000180028d94     libucrt:nlsdata.obj
 0002:00004d9c       ??_C@_05DMJDNLEJ@April@    0000000180028d9c     libucrt:nlsdata.obj
 0002:00004da4       ??_C@_04CNLMGBGM@June@     0000000180028da4     libucrt:nlsdata.obj
 0002:00004dac       ??_C@_04MIEPOIFP@July@     0000000180028dac     libucrt:nlsdata.obj
 0002:00004db4       ??_C@_06LBBHFDDG@August@   0000000180028db4     libucrt:nlsdata.obj
 0002:00004dc0       ??_C@_09BHHEALKD@September@ 0000000180028dc0     libucrt:nlsdata.obj
 0002:00004dd0       ??_C@_07JJNFCEND@October@  0000000180028dd0     libucrt:nlsdata.obj
 0002:00004dd8       ??_C@_08HCHEGEOA@November@ 0000000180028dd8     libucrt:nlsdata.obj
 0002:00004de8       ??_C@_08EDHMEBNP@December@ 0000000180028de8     libucrt:nlsdata.obj
 0002:00004df4       ??_C@_02DEDBPAFC@AM@       0000000180028df4     libucrt:nlsdata.obj
 0002:00004df8       ??_C@_02CJNFDJBF@PM@       0000000180028df8     libucrt:nlsdata.obj
 0002:00004e00       ??_C@_08BPBNCDIB@MM?1dd?1yy@ 0000000180028e00     libucrt:nlsdata.obj
 0002:00004e10       ??_C@_0BE@CKGJFCPC@dddd?0?5MMMM?5dd?0?5yyyy@ 0000000180028e10     libucrt:nlsdata.obj
 0002:00004e28       ??_C@_08JCCMCCIL@HH?3mm?3ss@ 0000000180028e28     libucrt:nlsdata.obj
 0002:00004e38       ??_C@_17MBGCMIPB@?$AAS?$AAu?$AAn@ 0000000180028e38     libucrt:nlsdata.obj
 0002:00004e40       ??_C@_17KBOMKBF@?$AAM?$AAo?$AAn@ 0000000180028e40     libucrt:nlsdata.obj
 0002:00004e48       ??_C@_17BMKGEGOJ@?$AAT?$AAu?$AAe@ 0000000180028e48     libucrt:nlsdata.obj
 0002:00004e50       ??_C@_17CJEDCEPE@?$AAW?$AAe?$AAd@ 0000000180028e50     libucrt:nlsdata.obj
 0002:00004e58       ??_C@_17PDPHAADD@?$AAT?$AAh?$AAu@ 0000000180028e58     libucrt:nlsdata.obj
 0002:00004e60       ??_C@_17HFOLPPLP@?$AAF?$AAr?$AAi@ 0000000180028e60     libucrt:nlsdata.obj
 0002:00004e68       ??_C@_17GGIBDPIH@?$AAS?$AAa?$AAt@ 0000000180028e68     libucrt:nlsdata.obj
 0002:00004e70       ??_C@_1O@IHNHDHPB@?$AAS?$AAu?$AAn?$AAd?$AAa?$AAy@ 0000000180028e70     libucrt:nlsdata.obj
 0002:00004e80       ??_C@_1O@MMNBFLIA@?$AAM?$AAo?$AAn?$AAd?$AAa?$AAy@ 0000000180028e80     libucrt:nlsdata.obj
 0002:00004e90       ??_C@_1BA@ENFBFFEK@?$AAT?$AAu?$AAe?$AAs?$AAd?$AAa?$AAy@ 0000000180028e90     libucrt:nlsdata.obj
 0002:00004ea0       ??_C@_1BE@EBOGMDOH@?$AAW?$AAe?$AAd?$AAn?$AAe?$AAs?$AAd?$AAa?$AAy@ 0000000180028ea0     libucrt:nlsdata.obj
 0002:00004eb8       ??_C@_1BC@HHMNLIHE@?$AAT?$AAh?$AAu?$AAr?$AAs?$AAd?$AAa?$AAy@ 0000000180028eb8     libucrt:nlsdata.obj
 0002:00004ed0       ??_C@_1O@PDICJHAG@?$AAF?$AAr?$AAi?$AAd?$AAa?$AAy@ 0000000180028ed0     libucrt:nlsdata.obj
 0002:00004ee0       ??_C@_1BC@ENMNNPAJ@?$AAS?$AAa?$AAt?$AAu?$AAr?$AAd?$AAa?$AAy@ 0000000180028ee0     libucrt:nlsdata.obj
 0002:00004ef8       ??_C@_17DKNBKCHM@?$AAJ?$AAa?$AAn@ 0000000180028ef8     libucrt:nlsdata.obj
 0002:00004f00       ??_C@_17LMDJEKJN@?$AAF?$AAe?$AAb@ 0000000180028f00     libucrt:nlsdata.obj
 0002:00004f08       ??_C@_17CKNLEDEC@?$AAM?$AAa?$AAr@ 0000000180028f08     libucrt:nlsdata.obj
 0002:00004f10       ??_C@_17LFPOIHDD@?$AAA?$AAp?$AAr@ 0000000180028f10     libucrt:nlsdata.obj
 0002:00004f18       ??_C@_17PNNKMEED@?$AAM?$AAa?$AAy@ 0000000180028f18     libucrt:nlsdata.obj
 0002:00004f20       ??_C@_17KCJGOCPB@?$AAJ?$AAu?$AAn@ 0000000180028f20     libucrt:nlsdata.obj
 0002:00004f28       ??_C@_17IJPCKHK@?$AAJ?$AAu?$AAl@ 0000000180028f28     libucrt:nlsdata.obj
 0002:00004f30       ??_C@_17ICPELBCN@?$AAA?$AAu?$AAg@ 0000000180028f30     libucrt:nlsdata.obj
 0002:00004f38       ??_C@_17HCHCOKMG@?$AAS?$AAe?$AAp@ 0000000180028f38     libucrt:nlsdata.obj
 0002:00004f40       ??_C@_17FNLKOI@?$AAO?$AAc?$AAt@ 0000000180028f40     libucrt:nlsdata.obj
 0002:00004f48       ??_C@_17BBDMLCIG@?$AAN?$AAo?$AAv@ 0000000180028f48     libucrt:nlsdata.obj
 0002:00004f50       ??_C@_17EGKACKIF@?$AAD?$AAe?$AAc@ 0000000180028f50     libucrt:nlsdata.obj
 0002:00004f58       ??_C@_1BA@EFMEIEBA@?$AAJ?$AAa?$AAn?$AAu?$AAa?$AAr?$AAy@ 0000000180028f58     libucrt:nlsdata.obj
 0002:00004f68       ??_C@_1BC@JGDDFFAM@?$AAF?$AAe?$AAb?$AAr?$AAu?$AAa?$AAr?$AAy@ 0000000180028f68     libucrt:nlsdata.obj
 0002:00004f80       ??_C@_1M@IKEENEDF@?$AAM?$AAa?$AAr?$AAc?$AAh@ 0000000180028f80     libucrt:nlsdata.obj
 0002:00004f90       ??_C@_1M@GJNLMHFD@?$AAA?$AAp?$AAr?$AAi?$AAl@ 0000000180028f90     libucrt:nlsdata.obj
 0002:00004fa0       ??_C@_19EPFLPGAP@?$AAJ?$AAu?$AAn?$AAe@ 0000000180028fa0     libucrt:nlsdata.obj
 0002:00004fb0       ??_C@_19BIFMLPCD@?$AAJ?$AAu?$AAl?$AAy@ 0000000180028fb0     libucrt:nlsdata.obj
 0002:00004fc0       ??_C@_1O@PAHLKOAC@?$AAA?$AAu?$AAg?$AAu?$AAs?$AAt@ 0000000180028fc0     libucrt:nlsdata.obj
 0002:00004fd0       ??_C@_1BE@DKAAMBJL@?$AAS?$AAe?$AAp?$AAt?$AAe?$AAm?$AAb?$AAe?$AAr@ 0000000180028fd0     libucrt:nlsdata.obj
 0002:00004fe8       ??_C@_1BA@EPANDLNG@?$AAO?$AAc?$AAt?$AAo?$AAb?$AAe?$AAr@ 0000000180028fe8     libucrt:nlsdata.obj
 0002:00004ff8       ??_C@_1BC@BGLIFPF@?$AAN?$AAo?$AAv?$AAe?$AAm?$AAb?$AAe?$AAr@ 0000000180028ff8     libucrt:nlsdata.obj
 0002:00005010       ??_C@_1BC@FEMKIFH@?$AAD?$AAe?$AAc?$AAe?$AAm?$AAb?$AAe?$AAr@ 0000000180029010     libucrt:nlsdata.obj
 0002:00005024       ??_C@_15ODEHAHHF@?$AAA?$AAM@ 0000000180029024     libucrt:nlsdata.obj
 0002:0000502c       ??_C@_15CLMNNGEL@?$AAP?$AAM@ 000000018002902c     libucrt:nlsdata.obj
 0002:00005038       ??_C@_1BC@IEBCMHCM@?$AAM?$AAM?$AA?1?$AAd?$AAd?$AA?1?$AAy?$AAy@ 0000000180029038     libucrt:nlsdata.obj
 0002:00005050       ??_C@_1CI@KNAKOEBC@?$AAd?$AAd?$AAd?$AAd?$AA?0?$AA?5?$AAM?$AAM?$AAM?$AAM?$AA?5?$AAd?$AAd?$AA?0?$AA?5@ 0000000180029050     libucrt:nlsdata.obj
 0002:00005078       ??_C@_1BC@GDGBMEMK@?$AAH?$AAH?$AA?3?$AAm?$AAm?$AA?3?$AAs?$AAs@ 0000000180029078     libucrt:nlsdata.obj
 0002:00005090       ??_C@_1M@BMHNFIME@?$AAe?$AAn?$AA?9?$AAU?$AAS@ 0000000180029090     libucrt:nlsdata.obj
 0002:000050c0       ??_C@_1M@HPNHIDJI@?$AAj?$AAa?$AA?9?$AAJ?$AAP@ 00000001800290c0     libucrt:mbctype.obj
 0002:000050d0       ??_C@_1M@BIBDDEMK@?$AAz?$AAh?$AA?9?$AAC?$AAN@ 00000001800290d0     libucrt:mbctype.obj
 0002:000050e0       ??_C@_1M@JLOOOEGK@?$AAk?$AAo?$AA?9?$AAK?$AAR@ 00000001800290e0     libucrt:mbctype.obj
 0002:000050f0       ??_C@_1M@CLNBBOPM@?$AAz?$AAh?$AA?9?$AAT?$AAW@ 00000001800290f0     libucrt:mbctype.obj
 0002:00005100       __newctype                 0000000180029100     libucrt:ctype.obj
 0002:00005400       __newclmap                 0000000180029400     libucrt:ctype.obj
 0002:00005580       __newcumap                 0000000180029580     libucrt:ctype.obj
 0002:00005700       _wctype                    0000000180029700     libucrt:ctype.obj
 0002:00006750       ??_C@_15EMKDOKLE@?$AAa?$AAr@ 000000018002a750     libucrt:lcidtoname_downlevel.obj
 0002:00006758       ??_C@_15KNPADPLH@?$AAb?$AAg@ 000000018002a758     libucrt:lcidtoname_downlevel.obj
 0002:00006760       ??_C@_15EDMHLDMO@?$AAc?$AAa@ 000000018002a760     libucrt:lcidtoname_downlevel.obj
 0002:00006768       ??_C@_1O@BPEAJADD@?$AAz?$AAh?$AA?9?$AAC?$AAH?$AAS@ 000000018002a768     libucrt:lcidtoname_downlevel.obj
 0002:00006778       ??_C@_15LJNHCMNK@?$AAc?$AAs@ 000000018002a778     libucrt:lcidtoname_downlevel.obj
 0002:00006780       ??_C@_15FOMCIDHG@?$AAd?$AAa@ 000000018002a780     libucrt:lcidtoname_downlevel.obj
 0002:00006788       ??_C@_15NBKABECB@?$AAd?$AAe@ 000000018002a788     libucrt:lcidtoname_downlevel.obj
 0002:00006790       ??_C@_15GHPEIIAO@?$AAe?$AAl@ 000000018002a790     libucrt:lcidtoname_downlevel.obj
 0002:00006798       ??_C@_15MNPNEAIF@?$AAe?$AAn@ 000000018002a798     libucrt:lcidtoname_downlevel.obj
 0002:000067a0       ??_C@_15GPIOMPMH@?$AAe?$AAs@ 000000018002a7a0     libucrt:lcidtoname_downlevel.obj
 0002:000067a8       ??_C@_15NGLOAKJC@?$AAf?$AAi@ 000000018002a7a8     libucrt:lcidtoname_downlevel.obj
 0002:000067b0       ??_C@_15FBKGNKAM@?$AAf?$AAr@ 000000018002a7b0     libucrt:lcidtoname_downlevel.obj
 0002:000067b8       ??_C@_15KGGCNEFK@?$AAh?$AAe@ 000000018002a7b8     libucrt:lcidtoname_downlevel.obj
 0002:000067c0       ??_C@_15PGHLIDMF@?$AAh?$AAu@ 000000018002a7c0     libucrt:lcidtoname_downlevel.obj
 0002:000067c8       ??_C@_15BIEMAPLM@?$AAi?$AAs@ 000000018002a7c8     libucrt:lcidtoname_downlevel.obj
 0002:000067d0       ??_C@_15IFJLDHAF@?$AAi?$AAt@ 000000018002a7d0     libucrt:lcidtoname_downlevel.obj
 0002:000067d8       ??_C@_15GEMIOCAG@?$AAj?$AAa@ 000000018002a7d8     libucrt:lcidtoname_downlevel.obj
 0002:000067e0       ??_C@_15EPELEGJA@?$AAk?$AAo@ 000000018002a7e0     libucrt:lcidtoname_downlevel.obj
 0002:000067e8       ??_C@_15NDDHIMN@?$AAn?$AAl@ 000000018002a7e8     libucrt:lcidtoname_downlevel.obj
 0002:000067f0       ??_C@_15BPIGNHCD@?$AAn?$AAo@ 000000018002a7f0     libucrt:lcidtoname_downlevel.obj
 0002:000067f8       ??_C@_15DEOPBLCG@?$AAp?$AAl@ 000000018002a7f8     libucrt:lcidtoname_downlevel.obj
 0002:00006800       ??_C@_15KBECGEFG@?$AAp?$AAt@ 000000018002a800     libucrt:lcidtoname_downlevel.obj
 0002:00006808       ??_C@_15GLJCBFMD@?$AAr?$AAo@ 000000018002a808     libucrt:lcidtoname_downlevel.obj
 0002:00006810       ??_C@_15FEDGKCDI@?$AAr?$AAu@ 000000018002a810     libucrt:lcidtoname_downlevel.obj
 0002:00006818       ??_C@_15GLKMLLHM@?$AAh?$AAr@ 000000018002a818     libucrt:lcidtoname_downlevel.obj
 0002:00006820       ??_C@_15CPKMFBDB@?$AAs?$AAk@ 000000018002a820     libucrt:lcidtoname_downlevel.obj
 0002:00006828       ??_C@_15BAAIOGMK@?$AAs?$AAq@ 000000018002a828     libucrt:lcidtoname_downlevel.obj
 0002:00006830       ??_C@_15INNPNOHD@?$AAs?$AAv@ 000000018002a830     libucrt:lcidtoname_downlevel.obj
 0002:00006838       ??_C@_15CABMMOGH@?$AAt?$AAh@ 000000018002a838     libucrt:lcidtoname_downlevel.obj
 0002:00006840       ??_C@_15BPLIHJJM@?$AAt?$AAr@ 000000018002a840     libucrt:lcidtoname_downlevel.obj
 0002:00006848       ??_C@_15NEOEKKDJ@?$AAu?$AAr@ 000000018002a848     libucrt:lcidtoname_downlevel.obj
 0002:00006850       ??_C@_15NFICGAJK@?$AAi?$AAd@ 000000018002a850     libucrt:lcidtoname_downlevel.obj
 0002:00006858       ??_C@_15PJPFLCCM@?$AAu?$AAk@ 000000018002a858     libucrt:lcidtoname_downlevel.obj
 0002:00006860       ??_C@_15HPJPHDM@?$AAb?$AAe@ 000000018002a860     libucrt:lcidtoname_downlevel.obj
 0002:00006868       ??_C@_15LCHLGJII@?$AAs?$AAl@ 000000018002a868     libucrt:lcidtoname_downlevel.obj
 0002:00006870       ??_C@_15PCFJPHHO@?$AAe?$AAt@ 000000018002a870     libucrt:lcidtoname_downlevel.obj
 0002:00006878       ??_C@_15HPFPGODN@?$AAl?$AAv@ 000000018002a878     libucrt:lcidtoname_downlevel.obj
 0002:00006880       ??_C@_15NFFGKGLG@?$AAl?$AAt@ 000000018002a880     libucrt:lcidtoname_downlevel.obj
 0002:00006888       ??_C@_15BDAKCCHN@?$AAf?$AAa@ 000000018002a888     libucrt:lcidtoname_downlevel.obj
 0002:00006890       ??_C@_15NFGIAIAJ@?$AAv?$AAi@ 000000018002a890     libucrt:lcidtoname_downlevel.obj
 0002:00006898       ??_C@_15LMKNDMHN@?$AAh?$AAy@ 000000018002a898     libucrt:lcidtoname_downlevel.obj
 0002:000068a0       ??_C@_15IJBHMCFL@?$AAa?$AAz@ 000000018002a8a0     libucrt:lcidtoname_downlevel.obj
 0002:000068a8       ??_C@_15EKOFJABL@?$AAe?$AAu@ 000000018002a8a8     libucrt:lcidtoname_downlevel.obj
 0002:000068b0       ??_C@_15BGHADCNK@?$AAm?$AAk@ 000000018002a8b0     libucrt:lcidtoname_downlevel.obj
 0002:000068b8       ??_C@_15JDNICKHM@?$AAa?$AAf@ 000000018002a8b8     libucrt:lcidtoname_downlevel.obj
 0002:000068c0       ??_C@_15KPJEDBKD@?$AAk?$AAa@ 000000018002a8c0     libucrt:lcidtoname_downlevel.obj
 0002:000068c8       ??_C@_15PDNFFFEO@?$AAf?$AAo@ 000000018002a8c8     libucrt:lcidtoname_downlevel.obj
 0002:000068d0       ??_C@_15OMLEGLOC@?$AAh?$AAi@ 000000018002a8d0     libucrt:lcidtoname_downlevel.obj
 0002:000068d8       ??_C@_15IDNNENKK@?$AAm?$AAs@ 000000018002a8d8     libucrt:lcidtoname_downlevel.obj
 0002:000068e0       ??_C@_15MACJNBMH@?$AAk?$AAk@ 000000018002a8e0     libucrt:lcidtoname_downlevel.obj
 0002:000068e8       ??_C@_15DKDJEOND@?$AAk?$AAy@ 000000018002a8e8     libucrt:lcidtoname_downlevel.obj
 0002:000068f0       ??_C@_15DFGDLJBG@?$AAs?$AAw@ 000000018002a8f0     libucrt:lcidtoname_downlevel.obj
 0002:000068f8       ??_C@_15BBFAICNG@?$AAu?$AAz@ 000000018002a8f8     libucrt:lcidtoname_downlevel.obj
 0002:00006900       ??_C@_15DKNDCGEA@?$AAt?$AAt@ 000000018002a900     libucrt:lcidtoname_downlevel.obj
 0002:00006908       ??_C@_15MGIFMDPL@?$AAp?$AAa@ 000000018002a908     libucrt:lcidtoname_downlevel.obj
 0002:00006910       ??_C@_15HCNDBBA@?$AAg?$AAu@ 000000018002a910     libucrt:lcidtoname_downlevel.obj
 0002:00006918       ??_C@_15FNBEIBON@?$AAt?$AAa@ 000000018002a918     libucrt:lcidtoname_downlevel.obj
 0002:00006920       ??_C@_15NCHGBGLK@?$AAt?$AAe@ 000000018002a920     libucrt:lcidtoname_downlevel.obj
 0002:00006928       ??_C@_15PHPHCBPF@?$AAk?$AAn@ 000000018002a928     libucrt:lcidtoname_downlevel.obj
 0002:00006930       ??_C@_15DLGBCKMP@?$AAm?$AAr@ 000000018002a930     libucrt:lcidtoname_downlevel.obj
 0002:00006938       ??_C@_15EABBLBFF@?$AAs?$AAa@ 000000018002a938     libucrt:lcidtoname_downlevel.obj
 0002:00006940       ??_C@_15CBKOMCOI@?$AAm?$AAn@ 000000018002a940     libucrt:lcidtoname_downlevel.obj
 0002:00006948       ??_C@_15CKDMCJAF@?$AAg?$AAl@ 000000018002a948     libucrt:lcidtoname_downlevel.obj
 0002:00006950       ??_C@_17CNJFBPG@?$AAk?$AAo?$AAk@ 000000018002a950     libucrt:lcidtoname_downlevel.obj
 0002:00006958       ??_C@_17FFBJICPL@?$AAs?$AAy?$AAr@ 000000018002a958     libucrt:lcidtoname_downlevel.obj
 0002:00006960       ??_C@_17KPNDCPAF@?$AAd?$AAi?$AAv@ 000000018002a960     libucrt:lcidtoname_downlevel.obj
 0002:00006968       ??_C@_1M@OKAHONE@?$AAa?$AAr?$AA?9?$AAS?$AAA@ 000000018002a968     libucrt:lcidtoname_downlevel.obj
 0002:00006978       ??_C@_1M@FFFIGIGK@?$AAb?$AAg?$AA?9?$AAB?$AAG@ 000000018002a978     libucrt:lcidtoname_downlevel.obj
 0002:00006988       ??_C@_1M@BJNKEDC@?$AAc?$AAa?$AA?9?$AAE?$AAS@ 000000018002a988     libucrt:lcidtoname_downlevel.obj
 0002:00006998       ??_C@_1M@IJJHFJHA@?$AAc?$AAs?$AA?9?$AAC?$AAZ@ 000000018002a998     libucrt:lcidtoname_downlevel.obj
 0002:000069a8       ??_C@_1M@CLPEOBGI@?$AAd?$AAa?$AA?9?$AAD?$AAK@ 000000018002a9a8     libucrt:lcidtoname_downlevel.obj
 0002:000069b8       ??_C@_1M@MCMADGCB@?$AAd?$AAe?$AA?9?$AAD?$AAE@ 000000018002a9b8     libucrt:lcidtoname_downlevel.obj
 0002:000069c8       ??_C@_1M@OOCKEMAM@?$AAe?$AAl?$AA?9?$AAG?$AAR@ 000000018002a9c8     libucrt:lcidtoname_downlevel.obj
 0002:000069d8       ??_C@_1M@DDNJFGID@?$AAf?$AAi?$AA?9?$AAF?$AAI@ 000000018002a9d8     libucrt:lcidtoname_downlevel.obj
 0002:000069e8       ??_C@_1M@GLIPPMAC@?$AAf?$AAr?$AA?9?$AAF?$AAR@ 000000018002a9e8     libucrt:lcidtoname_downlevel.obj
 0002:000069f8       ??_C@_1M@GFMCHPE@?$AAh?$AAe?$AA?9?$AAI?$AAL@ 000000018002a9f8     libucrt:lcidtoname_downlevel.obj
 0002:00006a08       ??_C@_1M@MHLPGNKM@?$AAh?$AAu?$AA?9?$AAH?$AAU@ 000000018002aa08     libucrt:lcidtoname_downlevel.obj
 0002:00006a18       ??_C@_1M@LPDDNNPN@?$AAi?$AAs?$AA?9?$AAI?$AAS@ 000000018002aa18     libucrt:lcidtoname_downlevel.obj
 0002:00006a28       ??_C@_1M@MADIPODN@?$AAi?$AAt?$AA?9?$AAI?$AAT@ 000000018002aa28     libucrt:lcidtoname_downlevel.obj
 0002:00006a38       ??_C@_1M@IHBJJGG@?$AAn?$AAl?$AA?9?$AAN?$AAL@ 000000018002aa38     libucrt:lcidtoname_downlevel.obj
 0002:00006a48       ??_C@_1M@EANAGDL@?$AAn?$AAb?$AA?9?$AAN?$AAO@ 000000018002aa48     libucrt:lcidtoname_downlevel.obj
 0002:00006a58       ??_C@_1M@NEIEMEGP@?$AAp?$AAl?$AA?9?$AAP?$AAL@ 000000018002aa58     libucrt:lcidtoname_downlevel.obj
 0002:00006a68       ??_C@_1M@BOCFIGEP@?$AAp?$AAt?$AA?9?$AAB?$AAR@ 000000018002aa68     libucrt:lcidtoname_downlevel.obj
 0002:00006a78       ??_C@_1M@IMPFOPBG@?$AAr?$AAo?$AA?9?$AAR?$AAO@ 000000018002aa78     libucrt:lcidtoname_downlevel.obj
 0002:00006a88       ??_C@_1M@IDNNEJMM@?$AAr?$AAu?$AA?9?$AAR?$AAU@ 000000018002aa88     libucrt:lcidtoname_downlevel.obj
 0002:00006a98       ??_C@_1M@LILEEOGM@?$AAh?$AAr?$AA?9?$AAH?$AAR@ 000000018002aa98     libucrt:lcidtoname_downlevel.obj
 0002:00006aa8       ??_C@_1M@FKIFEHPB@?$AAs?$AAk?$AA?9?$AAS?$AAK@ 000000018002aaa8     libucrt:lcidtoname_downlevel.obj
 0002:00006ab8       ??_C@_1M@LJMAMNPJ@?$AAs?$AAq?$AA?9?$AAA?$AAL@ 000000018002aab8     libucrt:lcidtoname_downlevel.obj
 0002:00006ac8       ??_C@_1M@GIAKDKJK@?$AAs?$AAv?$AA?9?$AAS?$AAE@ 000000018002aac8     libucrt:lcidtoname_downlevel.obj
 0002:00006ad8       ??_C@_1M@MKJKIKCL@?$AAt?$AAh?$AA?9?$AAT?$AAH@ 000000018002aad8     libucrt:lcidtoname_downlevel.obj
 0002:00006ae8       ??_C@_1M@MFLCCMPB@?$AAt?$AAr?$AA?9?$AAT?$AAR@ 000000018002aae8     libucrt:lcidtoname_downlevel.obj
 0002:00006af8       ??_C@_1M@OIJHDKJN@?$AAu?$AAr?$AA?9?$AAP?$AAK@ 000000018002aaf8     libucrt:lcidtoname_downlevel.obj
 0002:00006b08       ??_C@_1M@LHIPCIEK@?$AAi?$AAd?$AA?9?$AAI?$AAD@ 000000018002ab08     libucrt:lcidtoname_downlevel.obj
 0002:00006b18       ??_C@_1M@MFMOBGI@?$AAu?$AAk?$AA?9?$AAU?$AAA@ 000000018002ab18     libucrt:lcidtoname_downlevel.obj
 0002:00006b28       ??_C@_1M@OBGLJIPL@?$AAb?$AAe?$AA?9?$AAB?$AAY@ 000000018002ab28     libucrt:lcidtoname_downlevel.obj
 0002:00006b38       ??_C@_1M@BCFAJEAD@?$AAs?$AAl?$AA?9?$AAS?$AAI@ 000000018002ab38     libucrt:lcidtoname_downlevel.obj
 0002:00006b48       ??_C@_1M@FKFFEDDN@?$AAe?$AAt?$AA?9?$AAE?$AAE@ 000000018002ab48     libucrt:lcidtoname_downlevel.obj
 0002:00006b58       ??_C@_1M@KGKKAACI@?$AAl?$AAv?$AA?9?$AAL?$AAV@ 000000018002ab58     libucrt:lcidtoname_downlevel.obj
 0002:00006b68       ??_C@_1M@IFGBIJO@?$AAl?$AAt?$AA?9?$AAL?$AAT@ 000000018002ab68     libucrt:lcidtoname_downlevel.obj
 0002:00006b78       ??_C@_1M@FGEAHEDM@?$AAf?$AAa?$AA?9?$AAI?$AAR@ 000000018002ab78     libucrt:lcidtoname_downlevel.obj
 0002:00006b88       ??_C@_1M@KBMAIBFN@?$AAv?$AAi?$AA?9?$AAV?$AAN@ 000000018002ab88     libucrt:lcidtoname_downlevel.obj
 0002:00006b98       ??_C@_1M@GPCBKDJK@?$AAh?$AAy?$AA?9?$AAA?$AAM@ 000000018002ab98     libucrt:lcidtoname_downlevel.obj
 0002:00006ba8       ??_C@_1BG@BECMDDJB@?$AAa?$AAz?$AA?9?$AAA?$AAZ?$AA?9?$AAL?$AAa?$AAt?$AAn@ 000000018002aba8     libucrt:lcidtoname_downlevel.obj
 0002:00006bc0       ??_C@_1M@MAOFCAEA@?$AAe?$AAu?$AA?9?$AAE?$AAS@ 000000018002abc0     libucrt:lcidtoname_downlevel.obj
 0002:00006bd0       ??_C@_1M@IGHABKPI@?$AAm?$AAk?$AA?9?$AAM?$AAK@ 000000018002abd0     libucrt:lcidtoname_downlevel.obj
 0002:00006be0       ??_C@_1M@IAIGNEJG@?$AAt?$AAn?$AA?9?$AAZ?$AAA@ 000000018002abe0     libucrt:lcidtoname_downlevel.obj
 0002:00006bf0       ??_C@_1M@IIJCOJFA@?$AAx?$AAh?$AA?9?$AAZ?$AAA@ 000000018002abf0     libucrt:lcidtoname_downlevel.obj
 0002:00006c00       ??_C@_1M@LGPJHNJH@?$AAz?$AAu?$AA?9?$AAZ?$AAA@ 000000018002ac00     libucrt:lcidtoname_downlevel.obj
 0002:00006c10       ??_C@_1M@HOKAOIO@?$AAa?$AAf?$AA?9?$AAZ?$AAA@ 000000018002ac10     libucrt:lcidtoname_downlevel.obj
 0002:00006c20       ??_C@_1M@DPCLHLIE@?$AAk?$AAa?$AA?9?$AAG?$AAE@ 000000018002ac20     libucrt:lcidtoname_downlevel.obj
 0002:00006c30       ??_C@_1M@BLKMHJBI@?$AAf?$AAo?$AA?9?$AAF?$AAO@ 000000018002ac30     libucrt:lcidtoname_downlevel.obj
 0002:00006c40       ??_C@_1M@LGGJAPPB@?$AAh?$AAi?$AA?9?$AAI?$AAN@ 000000018002ac40     libucrt:lcidtoname_downlevel.obj
 0002:00006c50       ??_C@_1M@FIKPIHFE@?$AAm?$AAt?$AA?9?$AAM?$AAT@ 000000018002ac50     libucrt:lcidtoname_downlevel.obj
 0002:00006c60       ??_C@_1M@HEGGPBFA@?$AAs?$AAe?$AA?9?$AAN?$AAO@ 000000018002ac60     libucrt:lcidtoname_downlevel.obj
 0002:00006c70       ??_C@_1M@EIBJEEPA@?$AAm?$AAs?$AA?9?$AAM?$AAY@ 000000018002ac70     libucrt:lcidtoname_downlevel.obj
 0002:00006c80       ??_C@_1M@FHLBGMPP@?$AAk?$AAk?$AA?9?$AAK?$AAZ@ 000000018002ac80     libucrt:lcidtoname_downlevel.obj
 0002:00006c90       ??_C@_1M@NGJJLCGI@?$AAk?$AAy?$AA?9?$AAK?$AAG@ 000000018002ac90     libucrt:lcidtoname_downlevel.obj
 0002:00006ca0       ??_C@_1M@GIENNBFC@?$AAs?$AAw?$AA?9?$AAK?$AAE@ 000000018002aca0     libucrt:lcidtoname_downlevel.obj
 0002:00006cb0       ??_C@_1BG@NDGMJIMJ@?$AAu?$AAz?$AA?9?$AAU?$AAZ?$AA?9?$AAL?$AAa?$AAt?$AAn@ 000000018002acb0     libucrt:lcidtoname_downlevel.obj
 0002:00006cc8       ??_C@_1M@IDCCIHBC@?$AAt?$AAt?$AA?9?$AAR?$AAU@ 000000018002acc8     libucrt:lcidtoname_downlevel.obj
 0002:00006cd8       ??_C@_1M@LOICPMOJ@?$AAb?$AAn?$AA?9?$AAI?$AAN@ 000000018002acd8     libucrt:lcidtoname_downlevel.obj
 0002:00006ce8       ??_C@_1M@KPKKNEAH@?$AAp?$AAa?$AA?9?$AAI?$AAN@ 000000018002ace8     libucrt:lcidtoname_downlevel.obj
 0002:00006cf8       ??_C@_1M@PJGPPBOG@?$AAg?$AAu?$AA?9?$AAI?$AAN@ 000000018002acf8     libucrt:lcidtoname_downlevel.obj
 0002:00006d08       ??_C@_1M@KMKMOPHI@?$AAt?$AAa?$AA?9?$AAI?$AAN@ 000000018002ad08     libucrt:lcidtoname_downlevel.obj
 0002:00006d18       ??_C@_1M@KFEHEPAC@?$AAt?$AAe?$AA?9?$AAI?$AAN@ 000000018002ad18     libucrt:lcidtoname_downlevel.obj
 0002:00006d28       ??_C@_1M@CDCLMGHI@?$AAk?$AAn?$AA?9?$AAI?$AAN@ 000000018002ad28     libucrt:lcidtoname_downlevel.obj
 0002:00006d38       ??_C@_1M@MIODLDKF@?$AAm?$AAl?$AA?9?$AAI?$AAN@ 000000018002ad38     libucrt:lcidtoname_downlevel.obj
 0002:00006d48       ??_C@_1M@PBIEACPO@?$AAm?$AAr?$AA?9?$AAI?$AAN@ 000000018002ad48     libucrt:lcidtoname_downlevel.obj
 0002:00006d58       ??_C@_1M@NIDEAGPH@?$AAs?$AAa?$AA?9?$AAI?$AAN@ 000000018002ad58     libucrt:lcidtoname_downlevel.obj
 0002:00006d68       ??_C@_1M@FHIHCBIO@?$AAm?$AAn?$AA?9?$AAM?$AAN@ 000000018002ad68     libucrt:lcidtoname_downlevel.obj
 0002:00006d78       ??_C@_1M@JAIJPENP@?$AAc?$AAy?$AA?9?$AAG?$AAB@ 000000018002ad78     libucrt:lcidtoname_downlevel.obj
 0002:00006d88       ??_C@_1M@PHGFBEPN@?$AAg?$AAl?$AA?9?$AAE?$AAS@ 000000018002ad88     libucrt:lcidtoname_downlevel.obj
 0002:00006d98       ??_C@_1O@KPIPDNCP@?$AAk?$AAo?$AAk?$AA?9?$AAI?$AAN@ 000000018002ad98     libucrt:lcidtoname_downlevel.obj
 0002:00006da8       ??_C@_1O@KNHJLDJA@?$AAs?$AAy?$AAr?$AA?9?$AAS?$AAY@ 000000018002ada8     libucrt:lcidtoname_downlevel.obj
 0002:00006db8       ??_C@_1O@MKEKBLAH@?$AAd?$AAi?$AAv?$AA?9?$AAM?$AAV@ 000000018002adb8     libucrt:lcidtoname_downlevel.obj
 0002:00006dc8       ??_C@_1O@OHDCKDDF@?$AAq?$AAu?$AAz?$AA?9?$AAB?$AAO@ 000000018002adc8     libucrt:lcidtoname_downlevel.obj
 0002:00006dd8       ??_C@_1M@LEPJNLFD@?$AAn?$AAs?$AA?9?$AAZ?$AAA@ 000000018002add8     libucrt:lcidtoname_downlevel.obj
 0002:00006de8       ??_C@_1M@OMLEIIJB@?$AAm?$AAi?$AA?9?$AAN?$AAZ@ 000000018002ade8     libucrt:lcidtoname_downlevel.obj
 0002:00006df8       ??_C@_1M@PMPEAILG@?$AAa?$AAr?$AA?9?$AAI?$AAQ@ 000000018002adf8     libucrt:lcidtoname_downlevel.obj
 0002:00006e08       ??_C@_1M@CNKPNOEE@?$AAd?$AAe?$AA?9?$AAC?$AAH@ 000000018002ae08     libucrt:lcidtoname_downlevel.obj
 0002:00006e18       ??_C@_1M@LKMGMLKO@?$AAe?$AAn?$AA?9?$AAG?$AAB@ 000000018002ae18     libucrt:lcidtoname_downlevel.obj
 0002:00006e28       ??_C@_1M@PGKJFFGL@?$AAe?$AAs?$AA?9?$AAM?$AAX@ 000000018002ae28     libucrt:lcidtoname_downlevel.obj
 0002:00006e38       ??_C@_1M@DNNANBDC@?$AAf?$AAr?$AA?9?$AAB?$AAE@ 000000018002ae38     libucrt:lcidtoname_downlevel.obj
 0002:00006e48       ??_C@_1M@HLGMDFHM@?$AAi?$AAt?$AA?9?$AAC?$AAH@ 000000018002ae48     libucrt:lcidtoname_downlevel.obj
 0002:00006e58       ??_C@_1M@CLLBGJH@?$AAn?$AAl?$AA?9?$AAB?$AAE@ 000000018002ae58     libucrt:lcidtoname_downlevel.obj
 0002:00006e68       ??_C@_1M@BODBOGLF@?$AAn?$AAn?$AA?9?$AAN?$AAO@ 000000018002ae68     libucrt:lcidtoname_downlevel.obj
 0002:00006e78       ??_C@_1M@HFFAHKAD@?$AAp?$AAt?$AA?9?$AAP?$AAT@ 000000018002ae78     libucrt:lcidtoname_downlevel.obj
 0002:00006e88       ??_C@_1BG@LNOAKHIE@?$AAs?$AAr?$AA?9?$AAS?$AAP?$AA?9?$AAL?$AAa?$AAt?$AAn@ 000000018002ae88     libucrt:lcidtoname_downlevel.obj
 0002:00006ea0       ??_C@_1M@HBMHBGAK@?$AAs?$AAv?$AA?9?$AAF?$AAI@ 000000018002aea0     libucrt:lcidtoname_downlevel.obj
 0002:00006eb0       ??_C@_1BG@DGCJGJBE@?$AAa?$AAz?$AA?9?$AAA?$AAZ?$AA?9?$AAC?$AAy?$AAr?$AAl@ 000000018002aeb0     libucrt:lcidtoname_downlevel.obj
 0002:00006ec8       ??_C@_1M@KEJDAAHB@?$AAs?$AAe?$AA?9?$AAS?$AAE@ 000000018002aec8     libucrt:lcidtoname_downlevel.obj
 0002:00006ed8       ??_C@_1M@HEIBJJAD@?$AAm?$AAs?$AA?9?$AAB?$AAN@ 000000018002aed8     libucrt:lcidtoname_downlevel.obj
 0002:00006ee8       ??_C@_1BG@PBGJMCEM@?$AAu?$AAz?$AA?9?$AAU?$AAZ?$AA?9?$AAC?$AAy?$AAr?$AAl@ 000000018002aee8     libucrt:lcidtoname_downlevel.obj
 0002:00006f00       ??_C@_1O@LAOBCMDF@?$AAq?$AAu?$AAz?$AA?9?$AAE?$AAC@ 000000018002af00     libucrt:lcidtoname_downlevel.obj
 0002:00006f10       ??_C@_1M@POEEMAIO@?$AAa?$AAr?$AA?9?$AAE?$AAG@ 000000018002af10     libucrt:lcidtoname_downlevel.obj
 0002:00006f20       ??_C@_1M@EFAKDEDL@?$AAz?$AAh?$AA?9?$AAH?$AAK@ 000000018002af20     libucrt:lcidtoname_downlevel.obj
 0002:00006f30       ??_C@_1M@HKKIJHGI@?$AAd?$AAe?$AA?9?$AAA?$AAT@ 000000018002af30     libucrt:lcidtoname_downlevel.obj
 0002:00006f40       ??_C@_1M@KBFBEHJF@?$AAe?$AAn?$AA?9?$AAA?$AAU@ 000000018002af40     libucrt:lcidtoname_downlevel.obj
 0002:00006f50       ??_C@_1M@MNPLFAAH@?$AAe?$AAs?$AA?9?$AAE?$AAS@ 000000018002af50     libucrt:lcidtoname_downlevel.obj
 0002:00006f60       ??_C@_1M@HJOOJFMA@?$AAf?$AAr?$AA?9?$AAC?$AAA@ 000000018002af60     libucrt:lcidtoname_downlevel.obj
 0002:00006f70       ??_C@_1BG@JPOFPNAB@?$AAs?$AAr?$AA?9?$AAS?$AAP?$AA?9?$AAC?$AAy?$AAr?$AAl@ 000000018002af70     libucrt:lcidtoname_downlevel.obj
 0002:00006f88       ??_C@_1M@LNFOCMOB@?$AAs?$AAe?$AA?9?$AAF?$AAI@ 000000018002af88     libucrt:lcidtoname_downlevel.obj
 0002:00006f98       ??_C@_1O@MGJBOAMB@?$AAq?$AAu?$AAz?$AA?9?$AAP?$AAE@ 000000018002af98     libucrt:lcidtoname_downlevel.obj
 0002:00006fa8       ??_C@_1M@GJINLBOK@?$AAa?$AAr?$AA?9?$AAL?$AAY@ 000000018002afa8     libucrt:lcidtoname_downlevel.obj
 0002:00006fb8       ??_C@_1M@GGMNHJNL@?$AAz?$AAh?$AA?9?$AAS?$AAG@ 000000018002afb8     libucrt:lcidtoname_downlevel.obj
 0002:00006fc8       ??_C@_1M@HOIKODND@?$AAd?$AAe?$AA?9?$AAL?$AAU@ 000000018002afc8     libucrt:lcidtoname_downlevel.obj
 0002:00006fd8       ??_C@_1M@DDOCCGFG@?$AAe?$AAn?$AA?9?$AAC?$AAA@ 000000018002afd8     libucrt:lcidtoname_downlevel.obj
 0002:00006fe8       ??_C@_1M@BNOEMJLF@?$AAe?$AAs?$AA?9?$AAG?$AAT@ 000000018002afe8     libucrt:lcidtoname_downlevel.obj
 0002:00006ff8       ??_C@_1M@EOGNKEK@?$AAf?$AAr?$AA?9?$AAC?$AAH@ 000000018002aff8     libucrt:lcidtoname_downlevel.obj
 0002:00007008       ??_C@_1M@FLIDJFHL@?$AAh?$AAr?$AA?9?$AAB?$AAA@ 000000018002b008     libucrt:lcidtoname_downlevel.obj
 0002:00007018       ??_C@_1O@FMCELNAJ@?$AAs?$AAm?$AAj?$AA?9?$AAN?$AAO@ 000000018002b018     libucrt:lcidtoname_downlevel.obj
 0002:00007028       ??_C@_1M@JHGLJMGJ@?$AAa?$AAr?$AA?9?$AAD?$AAZ@ 000000018002b028     libucrt:lcidtoname_downlevel.obj
 0002:00007038       ??_C@_1M@JKKFDCNP@?$AAz?$AAh?$AA?9?$AAM?$AAO@ 000000018002b038     libucrt:lcidtoname_downlevel.obj
 0002:00007048       ??_C@_1M@GEEFALPE@?$AAd?$AAe?$AA?9?$AAL?$AAI@ 000000018002b048     libucrt:lcidtoname_downlevel.obj
 0002:00007058       ??_C@_1M@IGEOFBG@?$AAe?$AAn?$AA?9?$AAN?$AAZ@ 000000018002b058     libucrt:lcidtoname_downlevel.obj
 0002:00007068       ??_C@_1M@KDBONEHP@?$AAe?$AAs?$AA?9?$AAC?$AAR@ 000000018002b068     libucrt:lcidtoname_downlevel.obj
 0002:00007078       ??_C@_1M@FHMDOHNN@?$AAf?$AAr?$AA?9?$AAL?$AAU@ 000000018002b078     libucrt:lcidtoname_downlevel.obj
 0002:00007088       ??_C@_1BG@NFKKMAFG@?$AAb?$AAs?$AA?9?$AAB?$AAA?$AA?9?$AAL?$AAa?$AAt?$AAn@ 000000018002b088     libucrt:lcidtoname_downlevel.obj
 0002:000070a0       ??_C@_1O@IMNBEMCI@?$AAs?$AAm?$AAj?$AA?9?$AAS?$AAE@ 000000018002b0a0     libucrt:lcidtoname_downlevel.obj
 0002:000070b0       ??_C@_1M@DHHMBNDP@?$AAa?$AAr?$AA?9?$AAM?$AAA@ 000000018002b0b0     libucrt:lcidtoname_downlevel.obj
 0002:000070c0       ??_C@_1M@BNBLJCGH@?$AAe?$AAn?$AA?9?$AAI?$AAE@ 000000018002b0c0     libucrt:lcidtoname_downlevel.obj
 0002:000070d0       ??_C@_1M@GEPAFMDL@?$AAe?$AAs?$AA?9?$AAP?$AAA@ 000000018002b0d0     libucrt:lcidtoname_downlevel.obj
 0002:000070e0       ??_C@_1M@OJONDMDL@?$AAf?$AAr?$AA?9?$AAM?$AAC@ 000000018002b0e0     libucrt:lcidtoname_downlevel.obj
 0002:000070f0       ??_C@_1BG@OBCNFJB@?$AAs?$AAr?$AA?9?$AAB?$AAA?$AA?9?$AAL?$AAa?$AAt?$AAn@ 000000018002b0f0     libucrt:lcidtoname_downlevel.obj
 0002:00007108       ??_C@_1O@KEMEEGPO@?$AAs?$AAm?$AAa?$AA?9?$AAN?$AAO@ 000000018002b108     libucrt:lcidtoname_downlevel.obj
 0002:00007118       ??_C@_1M@ELMGFODK@?$AAa?$AAr?$AA?9?$AAT?$AAN@ 000000018002b118     libucrt:lcidtoname_downlevel.obj
 0002:00007128       ??_C@_1M@BHDLHFAF@?$AAe?$AAn?$AA?9?$AAZ?$AAA@ 000000018002b128     libucrt:lcidtoname_downlevel.obj
 0002:00007138       ??_C@_1M@BMGIGLIF@?$AAe?$AAs?$AA?9?$AAD?$AAO@ 000000018002b138     libucrt:lcidtoname_downlevel.obj
 0002:00007148       ??_C@_1BG@CMBHIPBE@?$AAs?$AAr?$AA?9?$AAB?$AAA?$AA?9?$AAC?$AAy?$AAr?$AAl@ 000000018002b148     libucrt:lcidtoname_downlevel.obj
 0002:00007160       ??_C@_1O@HEDBLHNP@?$AAs?$AAm?$AAa?$AA?9?$AAS?$AAE@ 000000018002b160     libucrt:lcidtoname_downlevel.obj
 0002:00007170       ??_C@_1M@DAGCADIM@?$AAa?$AAr?$AA?9?$AAO?$AAM@ 000000018002b170     libucrt:lcidtoname_downlevel.obj
 0002:00007180       ??_C@_1M@FODLMICG@?$AAe?$AAn?$AA?9?$AAJ?$AAM@ 000000018002b180     libucrt:lcidtoname_downlevel.obj
 0002:00007190       ??_C@_1M@DNMLCIHB@?$AAe?$AAs?$AA?9?$AAV?$AAE@ 000000018002b190     libucrt:lcidtoname_downlevel.obj
 0002:000071a0       ??_C@_1O@EOKHMKJK@?$AAs?$AAm?$AAs?$AA?9?$AAF?$AAI@ 000000018002b1a0     libucrt:lcidtoname_downlevel.obj
 0002:000071b0       ??_C@_1M@CAFJMKOF@?$AAa?$AAr?$AA?9?$AAY?$AAE@ 000000018002b1b0     libucrt:lcidtoname_downlevel.obj
 0002:000071c0       ??_C@_1M@CBFHIJLI@?$AAe?$AAn?$AA?9?$AAC?$AAB@ 000000018002b1c0     libucrt:lcidtoname_downlevel.obj
 0002:000071d0       ??_C@_1M@BGNFLDN@?$AAe?$AAs?$AA?9?$AAC?$AAO@ 000000018002b1d0     libucrt:lcidtoname_downlevel.obj
 0002:000071e0       ??_C@_1O@JMPHMAMC@?$AAs?$AAm?$AAn?$AA?9?$AAF?$AAI@ 000000018002b1e0     libucrt:lcidtoname_downlevel.obj
 0002:000071f0       ??_C@_1M@JLANABKE@?$AAa?$AAr?$AA?9?$AAS?$AAY@ 000000018002b1f0     libucrt:lcidtoname_downlevel.obj
 0002:00007200       ??_C@_1M@HPKGCFGN@?$AAe?$AAn?$AA?9?$AAB?$AAZ@ 000000018002b200     libucrt:lcidtoname_downlevel.obj
 0002:00007210       ??_C@_1M@OLJCMLGM@?$AAe?$AAs?$AA?9?$AAP?$AAE@ 000000018002b210     libucrt:lcidtoname_downlevel.obj
 0002:00007220       ??_C@_1M@MKKGFKLE@?$AAa?$AAr?$AA?9?$AAJ?$AAO@ 000000018002b220     libucrt:lcidtoname_downlevel.obj
 0002:00007230       ??_C@_1M@EKPGLDNI@?$AAe?$AAn?$AA?9?$AAT?$AAT@ 000000018002b230     libucrt:lcidtoname_downlevel.obj
 0002:00007240       ??_C@_1M@OONGHFHE@?$AAe?$AAs?$AA?9?$AAA?$AAR@ 000000018002b240     libucrt:lcidtoname_downlevel.obj
 0002:00007250       ??_C@_1M@OOJFGBHE@?$AAa?$AAr?$AA?9?$AAL?$AAB@ 000000018002b250     libucrt:lcidtoname_downlevel.obj
 0002:00007260       ??_C@_1M@GCEJHNEG@?$AAe?$AAn?$AA?9?$AAZ?$AAW@ 000000018002b260     libucrt:lcidtoname_downlevel.obj
 0002:00007270       ??_C@_1M@JNOCAHJI@?$AAe?$AAs?$AA?9?$AAE?$AAC@ 000000018002b270     libucrt:lcidtoname_downlevel.obj
 0002:00007280       ??_C@_1M@JEFHPGGB@?$AAa?$AAr?$AA?9?$AAK?$AAW@ 000000018002b280     libucrt:lcidtoname_downlevel.obj
 0002:00007290       ??_C@_1M@MLKIBJOJ@?$AAe?$AAn?$AA?9?$AAP?$AAH@ 000000018002b290     libucrt:lcidtoname_downlevel.obj
 0002:000072a0       ??_C@_1M@BDNIPEND@?$AAe?$AAs?$AA?9?$AAC?$AAL@ 000000018002b2a0     libucrt:lcidtoname_downlevel.obj
 0002:000072b0       ??_C@_1M@MPNMEKBD@?$AAa?$AAr?$AA?9?$AAA?$AAE@ 000000018002b2b0     libucrt:lcidtoname_downlevel.obj
 0002:000072c0       ??_C@_1M@KBJALCPI@?$AAe?$AAs?$AA?9?$AAU?$AAY@ 000000018002b2c0     libucrt:lcidtoname_downlevel.obj
 0002:000072d0       ??_C@_1M@LLCCOAGA@?$AAa?$AAr?$AA?9?$AAB?$AAH@ 000000018002b2d0     libucrt:lcidtoname_downlevel.obj
 0002:000072e0       ??_C@_1M@PBFNCDEL@?$AAe?$AAs?$AA?9?$AAP?$AAY@ 000000018002b2e0     libucrt:lcidtoname_downlevel.obj
 0002:000072f0       ??_C@_1M@EDGINPNP@?$AAa?$AAr?$AA?9?$AAQ?$AAA@ 000000018002b2f0     libucrt:lcidtoname_downlevel.obj
 0002:00007300       ??_C@_1M@MKDBIIJI@?$AAe?$AAs?$AA?9?$AAB?$AAO@ 000000018002b300     libucrt:lcidtoname_downlevel.obj
 0002:00007310       ??_C@_1M@CPKKEBLD@?$AAe?$AAs?$AA?9?$AAS?$AAV@ 000000018002b310     libucrt:lcidtoname_downlevel.obj
 0002:00007320       ??_C@_1M@NDBGMMJL@?$AAe?$AAs?$AA?9?$AAH?$AAN@ 000000018002b320     libucrt:lcidtoname_downlevel.obj
 0002:00007330       ??_C@_1M@JIJIBHDP@?$AAe?$AAs?$AA?9?$AAN?$AAI@ 000000018002b330     libucrt:lcidtoname_downlevel.obj
 0002:00007340       ??_C@_1M@CGFMKEEK@?$AAe?$AAs?$AA?9?$AAP?$AAR@ 000000018002b340     libucrt:lcidtoname_downlevel.obj
 0002:00007350       ??_C@_1O@ICJHKIIK@?$AAz?$AAh?$AA?9?$AAC?$AAH?$AAT@ 000000018002b350     libucrt:lcidtoname_downlevel.obj
 0002:00007360       ??_C@_15CLNEJCE@?$AAs?$AAr@ 000000018002b360     libucrt:lcidtoname_downlevel.obj
 0002:000081b0       ??_C@_1M@KAHEKEIG@?$AAa?$AAf?$AA?9?$AAz?$AAa@ 000000018002c1b0     libucrt:lcidtoname_downlevel.obj
 0002:000081c0       ??_C@_1M@GIECOABL@?$AAa?$AAr?$AA?9?$AAa?$AAe@ 000000018002c1c0     libucrt:lcidtoname_downlevel.obj
 0002:000081d0       ??_C@_1M@BMLMEKGI@?$AAa?$AAr?$AA?9?$AAb?$AAh@ 000000018002c1d0     libucrt:lcidtoname_downlevel.obj
 0002:000081e0       ??_C@_1M@DAPFDGGB@?$AAa?$AAr?$AA?9?$AAd?$AAz@ 000000018002c1e0     libucrt:lcidtoname_downlevel.obj
 0002:000081f0       ??_C@_1M@FJNKGKIG@?$AAa?$AAr?$AA?9?$AAe?$AAg@ 000000018002c1f0     libucrt:lcidtoname_downlevel.obj
 0002:00008200       ??_C@_1M@FLGKKCLO@?$AAa?$AAr?$AA?9?$AAi?$AAq@ 000000018002c200     libucrt:lcidtoname_downlevel.obj
 0002:00008210       ??_C@_1M@GNDIPALM@?$AAa?$AAr?$AA?9?$AAj?$AAo@ 000000018002c210     libucrt:lcidtoname_downlevel.obj
 0002:00008220       ??_C@_1M@DDMJFMGJ@?$AAa?$AAr?$AA?9?$AAk?$AAw@ 000000018002c220     libucrt:lcidtoname_downlevel.obj
 0002:00008230       ??_C@_1M@EJALMLHM@?$AAa?$AAr?$AA?9?$AAl?$AAb@ 000000018002c230     libucrt:lcidtoname_downlevel.obj
 0002:00008240       ??_C@_1M@MOBDBLOC@?$AAa?$AAr?$AA?9?$AAl?$AAy@ 000000018002c240     libucrt:lcidtoname_downlevel.obj
 0002:00008250       ??_C@_1M@JAOCLHDH@?$AAa?$AAr?$AA?9?$AAm?$AAa@ 000000018002c250     libucrt:lcidtoname_downlevel.obj
 0002:00008260       ??_C@_1M@JHPMKJIE@?$AAa?$AAr?$AA?9?$AAo?$AAm@ 000000018002c260     libucrt:lcidtoname_downlevel.obj
 0002:00008270       ??_C@_1M@OEPGHFNH@?$AAa?$AAr?$AA?9?$AAq?$AAa@ 000000018002c270     libucrt:lcidtoname_downlevel.obj
 0002:00008280       ??_C@_1M@KJDONENM@?$AAa?$AAr?$AA?9?$AAs?$AAa@ 000000018002c280     libucrt:lcidtoname_downlevel.obj
 0002:00008290       ??_C@_1M@DMJDKLKM@?$AAa?$AAr?$AA?9?$AAs?$AAy@ 000000018002c290     libucrt:lcidtoname_downlevel.obj
 0002:000082a0       ??_C@_1M@OMFIPEDC@?$AAa?$AAr?$AA?9?$AAt?$AAn@ 000000018002c2a0     libucrt:lcidtoname_downlevel.obj
 0002:000082b0       ??_C@_1M@IHMHGAON@?$AAa?$AAr?$AA?9?$AAy?$AAe@ 000000018002c2b0     libucrt:lcidtoname_downlevel.obj
 0002:000082c0       ??_C@_1BG@KDCPGJGB@?$AAa?$AAz?$AA?9?$AAa?$AAz?$AA?9?$AAc?$AAy?$AAr?$AAl@ 000000018002c2c0     libucrt:lcidtoname_downlevel.obj
 0002:000082d8       ??_C@_1BG@IBCKDDOE@?$AAa?$AAz?$AA?9?$AAa?$AAz?$AA?9?$AAl?$AAa?$AAt?$AAn@ 000000018002c2d8     libucrt:lcidtoname_downlevel.obj
 0002:000082f0       ??_C@_1M@EGPFDCPD@?$AAb?$AAe?$AA?9?$AAb?$AAy@ 000000018002c2f0     libucrt:lcidtoname_downlevel.obj
 0002:00008300       ??_C@_1M@PCMGMCGC@?$AAb?$AAg?$AA?9?$AAb?$AAg@ 000000018002c300     libucrt:lcidtoname_downlevel.obj
 0002:00008310       ??_C@_1M@BJBMFGOB@?$AAb?$AAn?$AA?9?$AAi?$AAn@ 000000018002c310     libucrt:lcidtoname_downlevel.obj
 0002:00008320       ??_C@_1BG@EAKMMACD@?$AAb?$AAs?$AA?9?$AAb?$AAa?$AA?9?$AAl?$AAa?$AAt?$AAn@ 000000018002c320     libucrt:lcidtoname_downlevel.obj
 0002:00008338       ??_C@_1M@KGADAODK@?$AAc?$AAa?$AA?9?$AAe?$AAs@ 000000018002c338     libucrt:lcidtoname_downlevel.obj
 0002:00008348       ??_C@_1M@COAJPDHI@?$AAc?$AAs?$AA?9?$AAc?$AAz@ 000000018002c348     libucrt:lcidtoname_downlevel.obj
 0002:00008358       ??_C@_1M@DHBHFONH@?$AAc?$AAy?$AA?9?$AAg?$AAb@ 000000018002c358     libucrt:lcidtoname_downlevel.obj
 0002:00008368       ??_C@_1M@IMGKELGA@?$AAd?$AAa?$AA?9?$AAd?$AAk@ 000000018002c368     libucrt:lcidtoname_downlevel.obj
 0002:00008378       ??_C@_1M@NNDGDNGA@?$AAd?$AAe?$AA?9?$AAa?$AAt@ 000000018002c378     libucrt:lcidtoname_downlevel.obj
 0002:00008388       ??_C@_1M@IKDBHEEM@?$AAd?$AAe?$AA?9?$AAc?$AAh@ 000000018002c388     libucrt:lcidtoname_downlevel.obj
 0002:00008398       ??_C@_1M@GFFOJMCJ@?$AAd?$AAe?$AA?9?$AAd?$AAe@ 000000018002c398     libucrt:lcidtoname_downlevel.obj
 0002:000083a8       ??_C@_1M@MDNLKBPM@?$AAd?$AAe?$AA?9?$AAl?$AAi@ 000000018002c3a8     libucrt:lcidtoname_downlevel.obj
 0002:000083b8       ??_C@_1M@NJBEEJNL@?$AAd?$AAe?$AA?9?$AAl?$AAu@ 000000018002c3b8     libucrt:lcidtoname_downlevel.obj
 0002:000083c8       ??_C@_1O@GNNELBAP@?$AAd?$AAi?$AAv?$AA?9?$AAm?$AAv@ 000000018002c3c8     libucrt:lcidtoname_downlevel.obj
 0002:000083d8       ??_C@_1M@EJLEOGAE@?$AAe?$AAl?$AA?9?$AAg?$AAr@ 000000018002c3d8     libucrt:lcidtoname_downlevel.obj
 0002:000083e8       ??_C@_1M@GMPONJN@?$AAe?$AAn?$AA?9?$AAa?$AAu@ 000000018002c3e8     libucrt:lcidtoname_downlevel.obj
 0002:000083f8       ??_C@_1M@NIDIIPGF@?$AAe?$AAn?$AA?9?$AAb?$AAz@ 000000018002c3f8     libucrt:lcidtoname_downlevel.obj
 0002:00008408       ??_C@_1M@JEHMIMFO@?$AAe?$AAn?$AA?9?$AAc?$AAa@ 000000018002c408     libucrt:lcidtoname_downlevel.obj
 0002:00008418       ??_C@_1M@IGMJCDLA@?$AAe?$AAn?$AA?9?$AAc?$AAb@ 000000018002c418     libucrt:lcidtoname_downlevel.obj
 0002:00008428       ??_C@_1M@BNFIGBKG@?$AAe?$AAn?$AA?9?$AAg?$AAb@ 000000018002c428     libucrt:lcidtoname_downlevel.obj
 0002:00008438       ??_C@_1M@LKIFDIGP@?$AAe?$AAn?$AA?9?$AAi?$AAe@ 000000018002c438     libucrt:lcidtoname_downlevel.obj
 0002:00008448       ??_C@_1M@PJKFGCCO@?$AAe?$AAn?$AA?9?$AAj?$AAm@ 000000018002c448     libucrt:lcidtoname_downlevel.obj
 0002:00008458       ??_C@_1M@KPPKEPBO@?$AAe?$AAn?$AA?9?$AAn?$AAz@ 000000018002c458     libucrt:lcidtoname_downlevel.obj
 0002:00008468       ??_C@_1M@GMDGLDOB@?$AAe?$AAn?$AA?9?$AAp?$AAh@ 000000018002c468     libucrt:lcidtoname_downlevel.obj
 0002:00008478       ??_C@_1M@ONGIBJNA@?$AAe?$AAn?$AA?9?$AAt?$AAt@ 000000018002c478     libucrt:lcidtoname_downlevel.obj
 0002:00008488       ??_C@_1M@LLODPCMM@?$AAe?$AAn?$AA?9?$AAu?$AAs@ 000000018002c488     libucrt:lcidtoname_downlevel.obj
 0002:00008498       ??_C@_1M@LAKFNPAN@?$AAe?$AAn?$AA?9?$AAz?$AAa@ 000000018002c498     libucrt:lcidtoname_downlevel.obj
 0002:000084a8       ??_C@_1M@MFNHNHEO@?$AAe?$AAn?$AA?9?$AAz?$AAw@ 000000018002c4a8     libucrt:lcidtoname_downlevel.obj
 0002:000084b8       ??_C@_1M@EJEINPHM@?$AAe?$AAs?$AA?9?$AAa?$AAr@ 000000018002c4b8     libucrt:lcidtoname_downlevel.obj
 0002:000084c8       ??_C@_1M@GNKPCCJA@?$AAe?$AAs?$AA?9?$AAb?$AAo@ 000000018002c4c8     libucrt:lcidtoname_downlevel.obj
 0002:000084d8       ??_C@_1M@LEEGFONL@?$AAe?$AAs?$AA?9?$AAc?$AAl@ 000000018002c4d8     libucrt:lcidtoname_downlevel.obj
 0002:000084e8       ??_C@_1M@KGPDPBDF@?$AAe?$AAs?$AA?9?$AAc?$AAo@ 000000018002c4e8     libucrt:lcidtoname_downlevel.obj
 0002:000084f8       ??_C@_1M@EIAHOHH@?$AAe?$AAs?$AA?9?$AAc?$AAr@ 000000018002c4f8     libucrt:lcidtoname_downlevel.obj
 0002:00008508       ??_C@_1M@LLPGMBIN@?$AAe?$AAs?$AA?9?$AAd?$AAo@ 000000018002c508     libucrt:lcidtoname_downlevel.obj
 0002:00008518       ??_C@_1M@DKHMKNJA@?$AAe?$AAs?$AA?9?$AAe?$AAc@ 000000018002c518     libucrt:lcidtoname_downlevel.obj
 0002:00008528       ??_C@_1M@GKGFPKAP@?$AAe?$AAs?$AA?9?$AAe?$AAs@ 000000018002c528     libucrt:lcidtoname_downlevel.obj
 0002:00008538       ??_C@_1M@LKHKGDLN@?$AAe?$AAs?$AA?9?$AAg?$AAt@ 000000018002c538     libucrt:lcidtoname_downlevel.obj
 0002:00008548       ??_C@_1M@HEIIGGJD@?$AAe?$AAs?$AA?9?$AAh?$AAn@ 000000018002c548     libucrt:lcidtoname_downlevel.obj
 0002:00008558       ??_C@_1M@FBDHPPGD@?$AAe?$AAs?$AA?9?$AAm?$AAx@ 000000018002c558     libucrt:lcidtoname_downlevel.obj
 0002:00008568       ??_C@_1M@DPAGLNDH@?$AAe?$AAs?$AA?9?$AAn?$AAi@ 000000018002c568     libucrt:lcidtoname_downlevel.obj
 0002:00008578       ??_C@_1M@MDGOPGDD@?$AAe?$AAs?$AA?9?$AAp?$AAa@ 000000018002c578     libucrt:lcidtoname_downlevel.obj
 0002:00008588       ??_C@_1M@EMAMGBGE@?$AAe?$AAs?$AA?9?$AAp?$AAe@ 000000018002c588     libucrt:lcidtoname_downlevel.obj
 0002:00008598       ??_C@_1M@IBMCAOEC@?$AAe?$AAs?$AA?9?$AAp?$AAr@ 000000018002c598     libucrt:lcidtoname_downlevel.obj
 0002:000085a8       ??_C@_1M@FGMDIJED@?$AAe?$AAs?$AA?9?$AAp?$AAy@ 000000018002c5a8     libucrt:lcidtoname_downlevel.obj
 0002:000085b8       ??_C@_1M@IIDEOLLL@?$AAe?$AAs?$AA?9?$AAs?$AAv@ 000000018002c5b8     libucrt:lcidtoname_downlevel.obj
 0002:000085c8       ??_C@_1M@GAOBIPA@?$AAe?$AAs?$AA?9?$AAu?$AAy@ 000000018002c5c8     libucrt:lcidtoname_downlevel.obj
 0002:000085d8       ??_C@_1M@JKFFICHJ@?$AAe?$AAs?$AA?9?$AAv?$AAe@ 000000018002c5d8     libucrt:lcidtoname_downlevel.obj
 0002:000085e8       ??_C@_1M@PNMLOJDF@?$AAe?$AAt?$AA?9?$AAe?$AAe@ 000000018002c5e8     libucrt:lcidtoname_downlevel.obj
 0002:000085f8       ??_C@_1M@GHHLIKEI@?$AAe?$AAu?$AA?9?$AAe?$AAs@ 000000018002c5f8     libucrt:lcidtoname_downlevel.obj
 0002:00008608       ??_C@_1M@PBNONODE@?$AAf?$AAa?$AA?9?$AAi?$AAr@ 000000018002c608     libucrt:lcidtoname_downlevel.obj
 0002:00008618       ??_C@_1M@JEEHPMIL@?$AAf?$AAi?$AA?9?$AAf?$AAi@ 000000018002c618     libucrt:lcidtoname_downlevel.obj
 0002:00008628       ??_C@_1M@LMDCNDBA@?$AAf?$AAo?$AA?9?$AAf?$AAo@ 000000018002c628     libucrt:lcidtoname_downlevel.obj
 0002:00008638       ??_C@_1M@JKEOHLDK@?$AAf?$AAr?$AA?9?$AAb?$AAe@ 000000018002c638     libucrt:lcidtoname_downlevel.obj
 0002:00008648       ??_C@_1M@NOHADPMI@?$AAf?$AAr?$AA?9?$AAc?$AAa@ 000000018002c648     libucrt:lcidtoname_downlevel.obj
 0002:00008658       ??_C@_1M@KDHIHAEC@?$AAf?$AAr?$AA?9?$AAc?$AAh@ 000000018002c658     libucrt:lcidtoname_downlevel.obj
 0002:00008668       ??_C@_1M@MMBBFGAK@?$AAf?$AAr?$AA?9?$AAf?$AAr@ 000000018002c668     libucrt:lcidtoname_downlevel.obj
 0002:00008678       ??_C@_1M@PAFNENNF@?$AAf?$AAr?$AA?9?$AAl?$AAu@ 000000018002c678     libucrt:lcidtoname_downlevel.obj
 0002:00008688       ??_C@_1M@EOHDJGDD@?$AAf?$AAr?$AA?9?$AAm?$AAc@ 000000018002c688     libucrt:lcidtoname_downlevel.obj
 0002:00008698       ??_C@_1M@FAPLLOPF@?$AAg?$AAl?$AA?9?$AAe?$AAs@ 000000018002c698     libucrt:lcidtoname_downlevel.obj
 0002:000086a8       ??_C@_1M@FOPBFLOO@?$AAg?$AAu?$AA?9?$AAi?$AAn@ 000000018002c6a8     libucrt:lcidtoname_downlevel.obj
 0002:000086b8       ??_C@_1M@KBMCINPM@?$AAh?$AAe?$AA?9?$AAi?$AAl@ 000000018002c6b8     libucrt:lcidtoname_downlevel.obj
 0002:000086c8       ??_C@_1M@BBPHKFPJ@?$AAh?$AAi?$AA?9?$AAi?$AAn@ 000000018002c6c8     libucrt:lcidtoname_downlevel.obj
 0002:000086d8       ??_C@_1M@PMBNDPHD@?$AAh?$AAr?$AA?9?$AAb?$AAa@ 000000018002c6d8     libucrt:lcidtoname_downlevel.obj
 0002:000086e8       ??_C@_1M@BPCKOEGE@?$AAh?$AAr?$AA?9?$AAh?$AAr@ 000000018002c6e8     libucrt:lcidtoname_downlevel.obj
 0002:000086f8       ??_C@_1M@GACBMHKE@?$AAh?$AAu?$AA?9?$AAh?$AAu@ 000000018002c6f8     libucrt:lcidtoname_downlevel.obj
 0002:00008708       ??_C@_1M@MILPAJJC@?$AAh?$AAy?$AA?9?$AAa?$AAm@ 000000018002c708     libucrt:lcidtoname_downlevel.obj
 0002:00008718       ??_C@_1M@BABBICEC@?$AAi?$AAd?$AA?9?$AAi?$AAd@ 000000018002c718     libucrt:lcidtoname_downlevel.obj
 0002:00008728       ??_C@_1M@BIKNHHPF@?$AAi?$AAs?$AA?9?$AAi?$AAs@ 000000018002c728     libucrt:lcidtoname_downlevel.obj
 0002:00008738       ??_C@_1M@NMPCJPHE@?$AAi?$AAt?$AA?9?$AAc?$AAh@ 000000018002c738     libucrt:lcidtoname_downlevel.obj
 0002:00008748       ??_C@_1M@GHKGFEDF@?$AAi?$AAt?$AA?9?$AAi?$AAt@ 000000018002c748     libucrt:lcidtoname_downlevel.obj
 0002:00008758       ??_C@_1M@NIEJCJJA@?$AAj?$AAa?$AA?9?$AAj?$AAp@ 000000018002c758     libucrt:lcidtoname_downlevel.obj
 0002:00008768       ??_C@_1M@JILFNBIM@?$AAk?$AAa?$AA?9?$AAg?$AAe@ 000000018002c768     libucrt:lcidtoname_downlevel.obj
 0002:00008778       ??_C@_1M@PACPMGPH@?$AAk?$AAk?$AA?9?$AAk?$AAz@ 000000018002c778     libucrt:lcidtoname_downlevel.obj
 0002:00008788       ??_C@_1M@IELFGMHA@?$AAk?$AAn?$AA?9?$AAi?$AAn@ 000000018002c788     libucrt:lcidtoname_downlevel.obj
 0002:00008798       ??_C@_1O@IBBJHCH@?$AAk?$AAo?$AAk?$AA?9?$AAi?$AAn@ 000000018002c798     libucrt:lcidtoname_downlevel.obj
 0002:000087a8       ??_C@_1M@DMHAEOGC@?$AAk?$AAo?$AA?9?$AAk?$AAr@ 000000018002c7a8     libucrt:lcidtoname_downlevel.obj
 0002:000087b8       ??_C@_1M@HBAHBIGA@?$AAk?$AAy?$AA?9?$AAk?$AAg@ 000000018002c7b8     libucrt:lcidtoname_downlevel.obj
 0002:000087c8       ??_C@_1M@KPMILCJG@?$AAl?$AAt?$AA?9?$AAl?$AAt@ 000000018002c7c8     libucrt:lcidtoname_downlevel.obj
 0002:000087d8       ??_C@_1M@BDEKKCA@?$AAl?$AAv?$AA?9?$AAl?$AAv@ 000000018002c7d8     libucrt:lcidtoname_downlevel.obj
 0002:000087e8       ??_C@_1M@ELCKCCJJ@?$AAm?$AAi?$AA?9?$AAn?$AAz@ 000000018002c7e8     libucrt:lcidtoname_downlevel.obj
 0002:000087f8       ??_C@_1M@CBOOLAPA@?$AAm?$AAk?$AA?9?$AAm?$AAk@ 000000018002c7f8     libucrt:lcidtoname_downlevel.obj
 0002:00008808       ??_C@_1M@GPHNBJKN@?$AAm?$AAl?$AA?9?$AAi?$AAn@ 000000018002c808     libucrt:lcidtoname_downlevel.obj
 0002:00008818       ??_C@_1M@PABJILIG@?$AAm?$AAn?$AA?9?$AAm?$AAn@ 000000018002c818     libucrt:lcidtoname_downlevel.obj
 0002:00008828       ??_C@_1M@FGBKKIPG@?$AAm?$AAr?$AA?9?$AAi?$AAn@ 000000018002c828     libucrt:lcidtoname_downlevel.obj
 0002:00008838       ??_C@_1M@NDBPDDAL@?$AAm?$AAs?$AA?9?$AAb?$AAn@ 000000018002c838     libucrt:lcidtoname_downlevel.obj
 0002:00008848       ??_C@_1M@OPIHOOPI@?$AAm?$AAs?$AA?9?$AAm?$AAy@ 000000018002c848     libucrt:lcidtoname_downlevel.obj
 0002:00008858       ??_C@_1M@PPDBCNFM@?$AAm?$AAt?$AA?9?$AAm?$AAt@ 000000018002c858     libucrt:lcidtoname_downlevel.obj
 0002:00008868       ??_C@_1M@KDJDKMDD@?$AAn?$AAb?$AA?9?$AAn?$AAo@ 000000018002c868     libucrt:lcidtoname_downlevel.obj
 0002:00008878       ??_C@_1M@KFCFLMJP@?$AAn?$AAl?$AA?9?$AAb?$AAe@ 000000018002c878     libucrt:lcidtoname_downlevel.obj
 0002:00008888       ??_C@_1M@KPOPDDGO@?$AAn?$AAl?$AA?9?$AAn?$AAl@ 000000018002c888     libucrt:lcidtoname_downlevel.obj
 0002:00008898       ??_C@_1M@LJKPEMLN@?$AAn?$AAn?$AA?9?$AAn?$AAo@ 000000018002c898     libucrt:lcidtoname_downlevel.obj
 0002:000088a8       ??_C@_1M@BDGHHBFL@?$AAn?$AAs?$AA?9?$AAz?$AAa@ 000000018002c8a8     libucrt:lcidtoname_downlevel.obj
 0002:000088b8       ??_C@_1M@IDEHOAP@?$AAp?$AAa?$AA?9?$AAi?$AAn@ 000000018002c8b8     libucrt:lcidtoname_downlevel.obj
 0002:000088c8       ??_C@_1M@HDBKGOGH@?$AAp?$AAl?$AA?9?$AAp?$AAl@ 000000018002c8c8     libucrt:lcidtoname_downlevel.obj
 0002:000088d8       ??_C@_1M@LJLLCMEH@?$AAp?$AAt?$AA?9?$AAb?$AAr@ 000000018002c8d8     libucrt:lcidtoname_downlevel.obj
 0002:000088e8       ??_C@_1M@NCMONAAL@?$AAp?$AAt?$AA?9?$AAp?$AAt@ 000000018002c8e8     libucrt:lcidtoname_downlevel.obj
 0002:000088f8       ??_C@_1O@EAKMAJDN@?$AAq?$AAu?$AAz?$AA?9?$AAb?$AAo@ 000000018002c8f8     libucrt:lcidtoname_downlevel.obj
 0002:00008908       ??_C@_1O@BHHPIGDN@?$AAq?$AAu?$AAz?$AA?9?$AAe?$AAc@ 000000018002c908     libucrt:lcidtoname_downlevel.obj
 0002:00008918       ??_C@_1O@GBAPEKMJ@?$AAq?$AAu?$AAz?$AA?9?$AAp?$AAe@ 000000018002c918     libucrt:lcidtoname_downlevel.obj
 0002:00008928       ??_C@_1M@CLGLEFBO@?$AAr?$AAo?$AA?9?$AAr?$AAo@ 000000018002c928     libucrt:lcidtoname_downlevel.obj
 0002:00008938       ??_C@_1M@CEEDODME@?$AAr?$AAu?$AA?9?$AAr?$AAu@ 000000018002c938     libucrt:lcidtoname_downlevel.obj
 0002:00008948       ??_C@_1M@HPKKKMPP@?$AAs?$AAa?$AA?9?$AAi?$AAn@ 000000018002c948     libucrt:lcidtoname_downlevel.obj
 0002:00008958       ??_C@_1M@BKMAIGOJ@?$AAs?$AAe?$AA?9?$AAf?$AAi@ 000000018002c958     libucrt:lcidtoname_downlevel.obj
 0002:00008968       ??_C@_1M@NDPIFLFI@?$AAs?$AAe?$AA?9?$AAn?$AAo@ 000000018002c968     libucrt:lcidtoname_downlevel.obj
 0002:00008978       ??_C@_1M@DANKKHJ@?$AAs?$AAe?$AA?9?$AAs?$AAe@ 000000018002c978     libucrt:lcidtoname_downlevel.obj
 0002:00008988       ??_C@_1M@PNBLONPJ@?$AAs?$AAk?$AA?9?$AAs?$AAk@ 000000018002c988     libucrt:lcidtoname_downlevel.obj
 0002:00008998       ??_C@_1M@LFMODOAL@?$AAs?$AAl?$AA?9?$AAs?$AAi@ 000000018002c998     libucrt:lcidtoname_downlevel.obj
 0002:000089a8       ??_C@_1O@DFKOMPG@?$AAs?$AAm?$AAa?$AA?9?$AAn?$AAo@ 000000018002c9a8     libucrt:lcidtoname_downlevel.obj
 0002:000089b8       ??_C@_1O@NDKPBNNH@?$AAs?$AAm?$AAa?$AA?9?$AAs?$AAe@ 000000018002c9b8     libucrt:lcidtoname_downlevel.obj
 0002:000089c8       ??_C@_1O@PLLKBHAB@?$AAs?$AAm?$AAj?$AA?9?$AAn?$AAo@ 000000018002c9c8     libucrt:lcidtoname_downlevel.obj
 0002:000089d8       ??_C@_1O@CLEPOGCA@?$AAs?$AAm?$AAj?$AA?9?$AAs?$AAe@ 000000018002c9d8     libucrt:lcidtoname_downlevel.obj
 0002:000089e8       ??_C@_1O@DLGJGKMK@?$AAs?$AAm?$AAn?$AA?9?$AAf?$AAi@ 000000018002c9e8     libucrt:lcidtoname_downlevel.obj
 0002:000089f8       ??_C@_1O@OJDJGAJC@?$AAs?$AAm?$AAs?$AA?9?$AAf?$AAi@ 000000018002c9f8     libucrt:lcidtoname_downlevel.obj
 0002:00008a08       ??_C@_1M@BOFOGHPB@?$AAs?$AAq?$AA?9?$AAa?$AAl@ 000000018002ca08     libucrt:lcidtoname_downlevel.obj
 0002:00008a18       ??_C@_1BG@LJBBIPGB@?$AAs?$AAr?$AA?9?$AAb?$AAa?$AA?9?$AAc?$AAy?$AAr?$AAl@ 000000018002ca18     libucrt:lcidtoname_downlevel.obj
 0002:00008a30       ??_C@_1BG@JLBENFOE@?$AAs?$AAr?$AA?9?$AAb?$AAa?$AA?9?$AAl?$AAa?$AAt?$AAn@ 000000018002ca30     libucrt:lcidtoname_downlevel.obj
 0002:00008a48       ??_C@_1BG@KODPNHE@?$AAs?$AAr?$AA?9?$AAs?$AAp?$AA?9?$AAc?$AAy?$AAr?$AAl@ 000000018002ca48     libucrt:lcidtoname_downlevel.obj
 0002:00008a60       ??_C@_1BG@CIOGKHPB@?$AAs?$AAr?$AA?9?$AAs?$AAp?$AA?9?$AAl?$AAa?$AAt?$AAn@ 000000018002ca60     libucrt:lcidtoname_downlevel.obj
 0002:00008a78       ??_C@_1M@NGFJLMAC@?$AAs?$AAv?$AA?9?$AAf?$AAi@ 000000018002ca78     libucrt:lcidtoname_downlevel.obj
 0002:00008a88       ??_C@_1M@MPJEJAJC@?$AAs?$AAv?$AA?9?$AAs?$AAe@ 000000018002ca88     libucrt:lcidtoname_downlevel.obj
 0002:00008a98       ??_C@_1M@MPNDHLFK@?$AAs?$AAw?$AA?9?$AAk?$AAe@ 000000018002ca98     libucrt:lcidtoname_downlevel.obj
 0002:00008aa8       ??_C@_1O@KOHBJJI@?$AAs?$AAy?$AAr?$AA?9?$AAs?$AAy@ 000000018002caa8     libucrt:lcidtoname_downlevel.obj
 0002:00008ab8       ??_C@_1M@LDCEFHA@?$AAt?$AAa?$AA?9?$AAi?$AAn@ 000000018002cab8     libucrt:lcidtoname_downlevel.obj
 0002:00008ac8       ??_C@_1M@CNJOFAK@?$AAt?$AAe?$AA?9?$AAi?$AAn@ 000000018002cac8     libucrt:lcidtoname_downlevel.obj
 0002:00008ad8       ??_C@_1M@GNAECACD@?$AAt?$AAh?$AA?9?$AAt?$AAh@ 000000018002cad8     libucrt:lcidtoname_downlevel.obj
 0002:00008ae8       ??_C@_1M@CHBIHOJO@?$AAt?$AAn?$AA?9?$AAz?$AAa@ 000000018002cae8     libucrt:lcidtoname_downlevel.obj
 0002:00008af8       ??_C@_1M@GCCMIGPJ@?$AAt?$AAr?$AA?9?$AAt?$AAr@ 000000018002caf8     libucrt:lcidtoname_downlevel.obj
 0002:00008b08       ??_C@_1M@CELMCNBK@?$AAt?$AAt?$AA?9?$AAr?$AAu@ 000000018002cb08     libucrt:lcidtoname_downlevel.obj
 0002:00008b18       ??_C@_1M@KLMCELGA@?$AAu?$AAk?$AA?9?$AAu?$AAa@ 000000018002cb18     libucrt:lcidtoname_downlevel.obj
 0002:00008b28       ??_C@_1M@EPAJJAJF@?$AAu?$AAr?$AA?9?$AAp?$AAk@ 000000018002cb28     libucrt:lcidtoname_downlevel.obj
 0002:00008b38       ??_C@_1BG@GEGPMCDJ@?$AAu?$AAz?$AA?9?$AAu?$AAz?$AA?9?$AAc?$AAy?$AAr?$AAl@ 000000018002cb38     libucrt:lcidtoname_downlevel.obj
 0002:00008b50       ??_C@_1BG@EGGKJILM@?$AAu?$AAz?$AA?9?$AAu?$AAz?$AA?9?$AAl?$AAa?$AAt?$AAn@ 000000018002cb50     libucrt:lcidtoname_downlevel.obj
 0002:00008b68       ??_C@_1M@GFOCLFF@?$AAv?$AAi?$AA?9?$AAv?$AAn@ 000000018002cb68     libucrt:lcidtoname_downlevel.obj
 0002:00008b78       ??_C@_1M@CPAMEDFI@?$AAx?$AAh?$AA?9?$AAz?$AAa@ 000000018002cb78     libucrt:lcidtoname_downlevel.obj
 0002:00008b88       ??_C@_1O@EBKIFIGN@?$AAz?$AAh?$AA?9?$AAc?$AAh?$AAs@ 000000018002cb88     libucrt:lcidtoname_downlevel.obj
 0002:00008b98       ??_C@_1O@NMHPGANE@?$AAz?$AAh?$AA?9?$AAc?$AAh?$AAt@ 000000018002cb98     libucrt:lcidtoname_downlevel.obj
 0002:00008ba8       ??_C@_1M@LPINJOMC@?$AAz?$AAh?$AA?9?$AAc?$AAn@ 000000018002cba8     libucrt:lcidtoname_downlevel.obj
 0002:00008bb8       ??_C@_1M@OCJEJODD@?$AAz?$AAh?$AA?9?$AAh?$AAk@ 000000018002cbb8     libucrt:lcidtoname_downlevel.obj
 0002:00008bc8       ??_C@_1M@DNDLJINH@?$AAz?$AAh?$AA?9?$AAm?$AAo@ 000000018002cbc8     libucrt:lcidtoname_downlevel.obj
 0002:00008bd8       ??_C@_1M@MBFDNDND@?$AAz?$AAh?$AA?9?$AAs?$AAg@ 000000018002cbd8     libucrt:lcidtoname_downlevel.obj
 0002:00008be8       ??_C@_1M@IMEPLEPE@?$AAz?$AAh?$AA?9?$AAt?$AAw@ 000000018002cbe8     libucrt:lcidtoname_downlevel.obj
 0002:00008bf8       ??_C@_1M@BBGHNHJP@?$AAz?$AAu?$AA?9?$AAz?$AAa@ 000000018002cbf8     libucrt:lcidtoname_downlevel.obj
 0002:00008c10       ?large_power_data@?1??multiply_by_power_of_ten@__crt_strtox@@YA_NAEAUbig_integer@2@I@Z@4QBIB 000000018002cc10     libucrt:cfout.obj
 0002:00009520       ?large_power_indices@?1??multiply_by_power_of_ten@__crt_strtox@@YA_NAEAUbig_integer@2@I@Z@4QBUunpack_index@?1??12@YA_N0I@Z@B 000000018002d520     libucrt:cfout.obj
 0002:000095b8       ?small_powers_of_ten@?1??multiply_by_power_of_ten@__crt_strtox@@YA_NAEAUbig_integer@2@I@Z@4QBIB 000000018002d5b8     libucrt:cfout.obj
 0002:000095dc       ??_C@_01GBGANLPD@0@        000000018002d5dc     libucrt:cfout.obj
 0002:000095e0       ??_C@_05DNEBIAHO@1?$CDINF@ 000000018002d5e0     libucrt:cfout.obj
 0002:000095e8       ??_C@_06IMKFLFPG@1?$CDQNAN@ 000000018002d5e8     libucrt:cfout.obj
 0002:000095f0       ??_C@_06PGGFOGJG@1?$CDSNAN@ 000000018002d5f0     libucrt:cfout.obj
 0002:000095f8       ??_C@_05PHHOCPM@1?$CDIND@  000000018002d5f8     libucrt:cfout.obj
 0002:00009600       __real@3ff0000000000000    000000018002d600     libucrt:ceil.obj
 0002:00009860       __log10_256_lead           000000018002d860     libucrt:log10_256_lead_tail_table.obj
 0002:0000a070       __log10_256_tail           000000018002e070     libucrt:log10_256_lead_tail_table.obj
 0002:0000a880       __log_F_inv_qword          000000018002e880     libucrt:log_f_inv_qword_table.obj
 0002:0000b090       ??_C@_05HGHHAHAP@log10@    000000018002f090     libucrt:log_special.obj
 0002:0000b098       ??_C@_1BA@BALFACEM@?$AAC?$AAO?$AAN?$AAO?$AAU?$AAT?$AA$@ 000000018002f098     libucrt:initcon.obj
 0002:0000b120       _load_config_used          000000018002f120     LIBCMT:loadcfg.obj
 0002:0000b250       _tls_used                  000000018002f250     LIBCMT:tlssup.obj
 0002:0000b278       ??_R4exception@std@@6B@    000000018002f278     LIBCMT:throw_bad_alloc.obj
 0002:0000b2a0       ??_R3exception@std@@8      000000018002f2a0     LIBCMT:throw_bad_alloc.obj
 0002:0000b2b8       ??_R2exception@std@@8      000000018002f2b8     LIBCMT:throw_bad_alloc.obj
 0002:0000b2c8       ??_R1A@?0A@EA@exception@std@@8 000000018002f2c8     LIBCMT:throw_bad_alloc.obj
 0002:0000b2f0       ??_R4bad_alloc@std@@6B@    000000018002f2f0     LIBCMT:throw_bad_alloc.obj
 0002:0000b318       ??_R3bad_alloc@std@@8      000000018002f318     LIBCMT:throw_bad_alloc.obj
 0002:0000b330       ??_R2bad_alloc@std@@8      000000018002f330     LIBCMT:throw_bad_alloc.obj
 0002:0000b348       ??_R1A@?0A@EA@bad_alloc@std@@8 000000018002f348     LIBCMT:throw_bad_alloc.obj
 0002:0000b370       ??_R4bad_array_new_length@std@@6B@ 000000018002f370     LIBCMT:throw_bad_alloc.obj
 0002:0000b398       ??_R3bad_array_new_length@std@@8 000000018002f398     LIBCMT:throw_bad_alloc.obj
 0002:0000b3b0       ??_R2bad_array_new_length@std@@8 000000018002f3b0     LIBCMT:throw_bad_alloc.obj
 0002:0000b3d0       ??_R1A@?0A@EA@bad_array_new_length@std@@8 000000018002f3d0     LIBCMT:throw_bad_alloc.obj
 0002:0000b3f8       ??_R4type_info@@6B@        000000018002f3f8     LIBCMT:std_type_info_static.obj
 0002:0000b420       ??_R3type_info@@8          000000018002f420     LIBCMT:std_type_info_static.obj
 0002:0000b438       ??_R2type_info@@8          000000018002f438     LIBCMT:std_type_info_static.obj
 0002:0000b448       ??_R1A@?0A@EA@type_info@@8 000000018002f448     LIBCMT:std_type_info_static.obj
 0002:0000b470       ??_R4bad_exception@std@@6B@ 000000018002f470     libvcruntime:frame.obj
 0002:0000b498       ??_R3bad_exception@std@@8  000000018002f498     libvcruntime:frame.obj
 0002:0000b4b0       ??_R2bad_exception@std@@8  000000018002f4b0     libvcruntime:frame.obj
 0002:0000b4c8       ??_R1A@?0A@EA@bad_exception@std@@8 000000018002f4c8     libvcruntime:frame.obj
 0002:0000b900       __rtc_iaa                  000000018002f900     LIBCMT:initsect.obj
 0002:0000b908       __rtc_izz                  000000018002f908     LIBCMT:initsect.obj
 0002:0000b910       __rtc_taa                  000000018002f910     LIBCMT:initsect.obj
 0002:0000b918       __rtc_tzz                  000000018002f918     LIBCMT:initsect.obj
 0002:0000b920       _tls_start                 000000018002f920     LIBCMT:tlssup.obj
 0002:0000b924       _Init_thread_epoch         000000018002f924     LIBCMT:thread_safe_statics.obj
 0002:0000b928       _tls_end                   000000018002f928     LIBCMT:tlssup.obj
 0002:0000d050       _TI2?AVbad_alloc@std@@     0000000180031050     LIBCMT:throw_bad_alloc.obj
 0002:0000d070       _CTA2?AVbad_alloc@std@@    0000000180031070     LIBCMT:throw_bad_alloc.obj
 0002:0000d088       _CT??_R0?AVbad_alloc@std@@@8??0bad_alloc@std@@QEAA@AEBV01@@Z24 0000000180031088     LIBCMT:throw_bad_alloc.obj
 0002:0000d0b0       _CT??_R0?AVexception@std@@@8??0exception@std@@QEAA@AEBV01@@Z24 00000001800310b0     LIBCMT:throw_bad_alloc.obj
 0002:0000d0d8       _TI3?AVbad_array_new_length@std@@ 00000001800310d8     LIBCMT:throw_bad_alloc.obj
 0002:0000d0f8       _CTA3?AVbad_array_new_length@std@@ 00000001800310f8     LIBCMT:throw_bad_alloc.obj
 0002:0000d118       _CT??_R0?AVbad_array_new_length@std@@@8??0bad_array_new_length@std@@QEAA@AEBV01@@Z24 0000000180031118     LIBCMT:throw_bad_alloc.obj
 0002:0000d140       _TI2?AVbad_exception@std@@ 0000000180031140     libvcruntime:frame.obj
 0002:0000d160       _CTA2?AVbad_exception@std@@ 0000000180031160     libvcruntime:frame.obj
 0002:0000d178       _CT??_R0?AVbad_exception@std@@@8??0bad_exception@std@@QEAA@AEBV01@@Z24 0000000180031178     libvcruntime:frame.obj
 0002:0000d1a0       __pobjMapEntryFirst        00000001800311a0     OposVariant.obj
 0002:0000d1a8       __pobjMapEntryLast         00000001800311a8     OposVariant.obj
 0002:0000d264       __IMPORT_DESCRIPTOR_KERNEL32 0000000180031264     kernel32:KERNEL32.dll
 0002:0000d278       __IMPORT_DESCRIPTOR_USER32 0000000180031278     user32:USER32.dll
 0002:0000d28c       __IMPORT_DESCRIPTOR_GDI32  000000018003128c     gdi32:GDI32.dll
 0002:0000d2a0       __IMPORT_DESCRIPTOR_ADVAPI32 00000001800312a0     advapi32:ADVAPI32.dll
 0002:0000d2b4       __IMPORT_DESCRIPTOR_ole32  00000001800312b4     ole32:ole32.dll
 0002:0000d2c8       __IMPORT_DESCRIPTOR_OLEAUT32 00000001800312c8     oleaut32:OLEAUT32.dll
 0002:0000d2dc       __NULL_IMPORT_DESCRIPTOR   00000001800312dc     kernel32:KERNEL32.dll
 0003:00000000       ?s_Claim@?7??GetIDsOfNames@CComTypeInfoHolder@ATL@@QEAAJAEBU_GUID@@PEAPEA_WIKPEAJ@Z@4PA_WA 0000000180033000     ElectronicJournal.obj
 0003:00000018       ?s_Release@?7??GetIDsOfNames@CComTypeInfoHolder@ATL@@QEAAJAEBU_GUID@@PEAPEA_WIKPEAJ@Z@4PA_WA 0000000180033018     ElectronicJournal.obj
 0003:00000038       ?_tih@?$IDispatchImpl@UIOPOSElectronicJournal@@$1?IID_IOPOSElectronicJournal@@3U_GUID@@B$1?LIBID_OposElectronicJournal_CCO@@3U3@B$00$0A@VCComTypeInfoHolder@ATL@@@ATL@@1VCComTypeInfoHolder@2@A 0000000180033038     ElectronicJournal.obj
 0003:00000070       ?_tih@?$IProvideClassInfo2Impl@$1?CLSID_OPOSElectronicJournal@@3U_GUID@@B$1?DIID__IOPOSElectronicJournalEvents@@3U2@B$1?LIBID_OposElectronicJournal_CCO@@3U2@B$00$0A@VCComTypeInfoHolder@ATL@@@ATL@@1VCComTypeInfoHolder@2@A 0000000180033070     ElectronicJournal.obj
 0003:000000a8       ?vszContents@?6??Save@?$IPersistStorageImpl@VCOPOSElectronicJournal@@@ATL@@UEAAJPEAUIStorage@@H@Z@4PEB_WEB 00000001800330a8     ElectronicJournal.obj
 0003:000000b0       ?wc@?1??GetWndClassInfo@?$CWindowImpl@VCOPOSElectronicJournal@@VCWindow@ATL@@V?$CWinTraits@$0FGAAAAAA@$0A@@3@@ATL@@SAAEAU_ATL_WNDCLASSINFOW@3@XZ@4U43@A 00000001800330b0     ElectronicJournal.obj
 0003:000001a8       ?rcDefault@CWindow@ATL@@2UtagRECT@@A 00000001800331a8     ElectronicJournal.obj
 0003:00000250       ?g_WindowName@@3PA_WA      0000000180033250     ElectronicJournalImpl.obj
 0003:00000290       ?g_ControlDescription@@3PADA 0000000180033290     ElectronicJournalImpl.obj
 0003:000002e4       ?g_ControlVersion@@3JA     00000001800332e4     ElectronicJournalImpl.obj
 0003:00000418       __scrt_native_dllmain_reason 0000000180033418     LIBCMT:utility.obj
 0003:0000041c       _Init_global_epoch         000000018003341c     LIBCMT:thread_safe_statics.obj
 0003:00000420       __security_cookie_complement 0000000180033420     LIBCMT:gs_cookie.obj
 0003:00000428       __security_cookie          0000000180033428     LIBCMT:gs_cookie.obj
 0003:00000430       __isa_available            0000000180033430     LIBCMT:cpu_disp.obj
 0003:00000434       __isa_enabled              0000000180033434     LIBCMT:cpu_disp.obj
 0003:00000438       __memcpy_nt_iters          0000000180033438     LIBCMT:cpu_disp.obj
 0003:00000440       __memset_nt_iters          0000000180033440     LIBCMT:cpu_disp.obj
 0003:00000468       __abort_behavior           0000000180033468     libucrt:abort.obj
 0003:00000480       _iob                       0000000180033480     libucrt:_file.obj
 0003:00000590       __acrt_initial_locale_data 0000000180033590     libucrt:nlsdata.obj
 0003:000006e8       __acrt_initial_locale_pointers 00000001800336e8     libucrt:nlsdata.obj
 0003:000006f8       __acrt_wide_c_locale_string 00000001800336f8     libucrt:nlsdata.obj
 0003:00000700       __acrt_initial_multibyte_data 0000000180033700     libucrt:mbctype.obj
 0003:00000c40       _pwctype                   0000000180033c40     libucrt:ctype.obj
 0003:00000c48       __globallocalestatus       0000000180033c48     libucrt:glstatus.obj
 0003:00000c50       __acrt_lconv_c             0000000180033c50     libucrt:localeconv.obj
 0003:00000ce8       __acrt_lconv_static_decimal 0000000180033ce8     libucrt:localeconv.obj
 0003:00000cec       __acrt_lconv_static_W_decimal 0000000180033cec     libucrt:localeconv.obj
 0003:00000cf0       _lookuptrailbytes          0000000180033cf0     libucrt:read.obj
 0003:00000e14       _fltused                   0000000180033e14     LIBCMT:fltused.obj
 0003:00000e18       ??_R0?AVbad_alloc@std@@@8  0000000180033e18     LIBCMT:throw_bad_alloc.obj
 0003:00000e40       ??_R0?AVexception@std@@@8  0000000180033e40     LIBCMT:throw_bad_alloc.obj
 0003:00000e68       ??_R0?AVbad_array_new_length@std@@@8 0000000180033e68     LIBCMT:throw_bad_alloc.obj
 0003:00000e98       ??_R0?AVtype_info@@@8      0000000180033e98     LIBCMT:std_type_info_static.obj
 0003:00000eb8       ??_R0?AVbad_exception@std@@@8 0000000180033eb8     libvcruntime:frame.obj
 0003:00000ee0       ?_pPerfRegFunc@ATL@@3P6AJPEAUHINSTANCE__@@@ZEA 0000000180033ee0     OposVariant.obj
 0003:00000ee8       ?_pPerfUnRegFunc@ATL@@3P6AJXZEA 0000000180033ee8     OposVariant.obj
 0003:00000ef0       ?_AtlRegisterPerUser@ATL@@3_NA 0000000180033ef0     OposVariant.obj
 0003:00000ef8       ?_pAtlModule@ATL@@3PEAVCAtlModule@1@EA 0000000180033ef8     OposVariant.obj
 0003:00000f00       ?_pModule@ATL@@3PEAVCComModule@1@EA 0000000180033f00     OposVariant.obj
 0003:00000f08       ?m_bInitFailed@CAtlBaseModule@ATL@@2_NA 0000000180033f08     OposVariant.obj
 0003:00000f10       ?_AtlComModule@ATL@@3VCAtlComModule@1@A 0000000180033f10     OposVariant.obj
 0003:00000f60       ?_AtlWinModule@ATL@@3VCAtlWinModule@1@A 0000000180033f60     OposVariant.obj
 0003:00000fa8       ?m_libid@CAtlModule@ATL@@2U_GUID@@A 0000000180033fa8     ElectronicJournal.obj
 0003:00000fb8       ?_entries@?1??GetConnMap@COPOSElectronicJournal@@SAPEBU_ATL_CONNMAP_ENTRY@ATL@@PEAH@Z@4QBU34@B 0000000180033fb8     ElectronicJournal.obj
 0003:00000fd0       ?$TSS0@?1??GetConnMap@COPOSElectronicJournal@@SAPEBU_ATL_CONNMAP_ENTRY@ATL@@PEAH@Z@4HA 0000000180033fd0     ElectronicJournal.obj
 0003:00000fd8       ?_OptionsStorage@?1??__local_stdio_printf_options@@9@4_KA 0000000180033fd8     ElectronicJournal.obj
 0003:00000fe0       ?pfnRegDeleteKeyEx@?1??DeleteSubKey@CRegKey@ATL@@QEAAJPEB_W@Z@4P6AJPEAUHKEY__@@0KK@ZEA 0000000180033fe0     ElectronicJournal.obj
 0003:00000fe8       ?bInitialized@?1??DeleteSubKey@CRegKey@ATL@@QEAAJPEB_W@Z@4_NA 0000000180033fe8     ElectronicJournal.obj
 0003:00000ff0       ?_Module@@3VCComModule@ATL@@A 0000000180033ff0     ElectronicJournal.obj
 0003:00001040       ?pConnMap@?$IConnectionPointContainerImpl@VCOPOSElectronicJournal@@@ATL@@0PEBU_ATL_CONNMAP_ENTRY@2@EB 0000000180034040     ElectronicJournal.obj
 0003:00001048       ?s_nInstances@COPOSElectronicJournal@@1HA 0000000180034048     ElectronicJournalImpl.obj
 0003:00001050       __scrt_current_native_startup_state 0000000180034050     LIBCMT:utility.obj
 0003:00001058       __scrt_native_startup_lock 0000000180034058     LIBCMT:utility.obj
 0003:00001650       _tls_index                 0000000180034650     LIBCMT:tlssup.obj
 0003:00001658       __favor                    0000000180034658     LIBCMT:cpu_disp.obj
 0003:0000165c       __scrt_debugger_hook_flag  000000018003465c     LIBCMT:utility_desktop.obj
 0003:00001660       ?__type_info_root_node@@3U__type_info_node@@A 0000000180034660     LIBCMT:tncleanup.obj
 0003:00001670       ?_OptionsStorage@?1??__local_stdio_scanf_options@@9@4_KA 0000000180034670     LIBCMT:default_local_stdio_options.obj
 0003:00001680       ?_AtlBaseModule@ATL@@3VCAtlBaseModule@1@A 0000000180034680     atls:atlbase.obj
 0003:000016e0       ?__AtlThunkPool@@3PEAT_SLIST_HEADER@@EA 00000001800346e0     atls:atlthunk.obj
 0003:0000170c       __@@_PchSym_@00@UzABUPdlipUGUhUrmgvinvwrzgvUexgllohUzgohOmzgrevkilqPBACIAJCBDBUlyqiUznwGEUhgwzucOlyq@4B2008FD98C1DD4 000000018003470c     atls:stdafx.obj
 0003:00001710       ?__WinRTOutOfMemoryExceptionCallback@@3P6APEAXXZEA 0000000180034710     libvcruntime:ehhelpers.obj
 0003:00001718       __pPurecall                0000000180034718     libvcruntime:purevirt_data.obj
 0003:000017d0       ?pArgList@UnDecorator@@0PEAVReplicator@@EA 00000001800347d0     libvcruntime:undname.obj
 0003:000017d8       ?pZNameList@UnDecorator@@0PEAVReplicator@@EA 00000001800347d8     libvcruntime:undname.obj
 0003:000017e0       ?pTemplateArgList@UnDecorator@@0PEAVReplicator@@EA 00000001800347e0     libvcruntime:undname.obj
 0003:000017e8       ?gName@UnDecorator@@0PEBDEB 00000001800347e8     libvcruntime:undname.obj
 0003:000017f0       ?name@UnDecorator@@0PEBDEB 00000001800347f0     libvcruntime:undname.obj
 0003:000017f8       ?disableFlags@UnDecorator@@0KA 00000001800347f8     libvcruntime:undname.obj
 0003:000017fc       ?fExplicitTemplateParams@UnDecorator@@0_NA 00000001800347fc     libvcruntime:undname.obj
 0003:000017fd       ?fGetTemplateArgumentList@UnDecorator@@0_NA 00000001800347fd     libvcruntime:undname.obj
 0003:00001800       ?m_pGetParameter@UnDecorator@@0P6APEADJ@ZEA 0000000180034800     libvcruntime:undname.obj
 0003:00001808       ?m_CHPENameOffset@UnDecorator@@0KA 0000000180034808     libvcruntime:undname.obj
 0003:0000180c       ?m_recursionLevel@UnDecorator@@0KA 000000018003480c     libvcruntime:undname.obj
 0003:00001890       ?c_exit_complete@?1???R<lambda_6e4b09c48022b2350581041d5f6b0c4c>@@QEBA@XZ@4_NA 0000000180034890     libucrt:exit.obj
 0003:000019a8       _environ_table             00000001800349a8     libucrt:environment_initialization.obj
 0003:000019b0       _wenviron_table            00000001800349b0     libucrt:environment_initialization.obj
 0003:000019b8       __dcrt_initial_wide_environment 00000001800349b8     libucrt:environment_initialization.obj
 0003:000019c0       __dcrt_initial_narrow_environment 00000001800349c0     libucrt:environment_initialization.obj
 0003:000019c8       __acrt_atexit_table        00000001800349c8     libucrt:onexit.obj
 0003:000019e0       __acrt_at_quick_exit_table 00000001800349e0     libucrt:onexit.obj
 0003:00001bb8       _nstream                   0000000180034bb8     libucrt:_file.obj
 0003:00001bc0       __piob                     0000000180034bc0     libucrt:_file.obj
 0003:00001bd0       __acrt_stdout_buffer       0000000180034bd0     libucrt:_sftbuf.obj
 0003:00001bd8       __acrt_stderr_buffer       0000000180034bd8     libucrt:_sftbuf.obj
 0003:00001be0       __acrt_locale_changed_data 0000000180034be0     libucrt:wsetlocale.obj
 0003:00001be8       __acrt_current_locale_data 0000000180034be8     libucrt:nlsdata.obj
 0003:00001bf0       __pioinfo                  0000000180034bf0     libucrt:ioinit.obj
 0003:00001ff0       _nhandle                   0000000180034ff0     libucrt:ioinit.obj
 0003:00002238       _mbctype                   0000000180035238     libucrt:mbctype.obj
 0003:00002240       _mbcasemap                 0000000180035240     libucrt:mbctype.obj
 0003:00002248       __acrt_current_multibyte_data 0000000180035248     libucrt:mbctype.obj
 0003:00002258       _pgmptr                    0000000180035258     libucrt:argv_data.obj
 0003:00002260       __argc                     0000000180035260     libucrt:argv_data.obj
 0003:00002268       __argv                     0000000180035268     libucrt:argv_data.obj
 0003:00002270       __wargv                    0000000180035270     libucrt:argv_data.obj
 0003:00002278       _acmdln                    0000000180035278     libucrt:argv_data.obj
 0003:00002280       _wcmdln                    0000000180035280     libucrt:argv_data.obj
 0003:00002288       __acrt_heap                0000000180035288     libucrt:heap_handle.obj
 0003:000022bc       __acrt_lconv_static_null   00000001800352bc     libucrt:localeconv.obj
 0003:000022c0       __acrt_lconv_static_W_null 00000001800352c0     libucrt:localeconv.obj
 0003:000022d4       __fma3_is_available        00000001800352d4     libucrt:fma3_available.obj
 0003:000022d8       __use_fma3_lib             00000001800352d8     libucrt:fma3_available.obj
 0003:000022e0       __dyn_tls_init_callback    00000001800352e0     <common>
 0003:000022e8       __scrt_ucrt_dll_is_in_use  00000001800352e8     <common>

 entry point at        0001:0000faf4

 Static symbols

 0000:fffbf000       .debug$S                   0000000180000000     OPOSElectronicJournal.exp
 0000:fffbf000       .debug$S                   0000000180000000     advapi32:ADVAPI32.dll
 0000:fffbf000       .debug$S                   0000000180000000     advapi32:ADVAPI32.dll
 0000:fffbf000       .debug$S                   0000000180000000     advapi32:ADVAPI32.dll
 0000:fffbf000       .debug$S                   0000000180000000     advapi32:ADVAPI32.dll
 0000:fffbf000       .debug$S                   0000000180000000     advapi32:ADVAPI32.dll
 0000:fffbf000       .debug$S                   0000000180000000     advapi32:ADVAPI32.dll
 0000:fffbf000       .debug$S                   0000000180000000     advapi32:ADVAPI32.dll
 0000:fffbf000       .debug$S                   0000000180000000     advapi32:ADVAPI32.dll
 0000:fffbf000       .debug$S                   0000000180000000     advapi32:ADVAPI32.dll
 0000:fffbf000       .debug$S                   0000000180000000     gdi32:GDI32.dll
 0000:fffbf000       .debug$S                   0000000180000000     gdi32:GDI32.dll
 0000:fffbf000       .debug$S                   0000000180000000     gdi32:GDI32.dll
 0000:fffbf000       .debug$S                   0000000180000000     gdi32:GDI32.dll
 0000:fffbf000       .debug$S                   0000000180000000     gdi32:GDI32.dll
 0000:fffbf000       .debug$S                   0000000180000000     gdi32:GDI32.dll
 0000:fffbf000       .debug$S                   0000000180000000     gdi32:GDI32.dll
 0000:fffbf000       .debug$S                   0000000180000000     gdi32:GDI32.dll
 0000:fffbf000       .debug$S                   0000000180000000     gdi32:GDI32.dll
 0000:fffbf000       .debug$S                   0000000180000000     gdi32:GDI32.dll
 0000:fffbf000       .debug$S                   0000000180000000     gdi32:GDI32.dll
 0000:fffbf000       .debug$S                   0000000180000000     gdi32:GDI32.dll
 0000:fffbf000       .debug$S                   0000000180000000     gdi32:GDI32.dll
 0000:fffbf000       .debug$S                   0000000180000000     gdi32:GDI32.dll
 0000:fffbf000       .debug$S                   0000000180000000     gdi32:GDI32.dll
 0000:fffbf000       .debug$S                   0000000180000000     gdi32:GDI32.dll
 0000:fffbf000       .debug$S                   0000000180000000     gdi32:GDI32.dll
 0000:fffbf000       .debug$S                   0000000180000000     gdi32:GDI32.dll
 0000:fffbf000       .debug$S                   0000000180000000     gdi32:GDI32.dll
 0000:fffbf000       .debug$S                   0000000180000000     kernel32:KERNEL32.dll
 0000:fffbf000       .debug$S                   0000000180000000     kernel32:KERNEL32.dll
 0000:fffbf000       .debug$S                   0000000180000000     kernel32:KERNEL32.dll
 0000:fffbf000       .debug$S                   0000000180000000     kernel32:KERNEL32.dll
 0000:fffbf000       .debug$S                   0000000180000000     kernel32:KERNEL32.dll
 0000:fffbf000       .debug$S                   0000000180000000     kernel32:KERNEL32.dll
 0000:fffbf000       .debug$S                   0000000180000000     kernel32:KERNEL32.dll
 0000:fffbf000       .debug$S                   0000000180000000     kernel32:KERNEL32.dll
 0000:fffbf000       .debug$S                   0000000180000000     kernel32:KERNEL32.dll
 0000:fffbf000       .debug$S                   0000000180000000     kernel32:KERNEL32.dll
 0000:fffbf000       .debug$S                   0000000180000000     kernel32:KERNEL32.dll
 0000:fffbf000       .debug$S                   0000000180000000     kernel32:KERNEL32.dll
 0000:fffbf000       .debug$S                   0000000180000000     kernel32:KERNEL32.dll
 0000:fffbf000       .debug$S                   0000000180000000     kernel32:KERNEL32.dll
 0000:fffbf000       .debug$S                   0000000180000000     kernel32:KERNEL32.dll
 0000:fffbf000       .debug$S                   0000000180000000     kernel32:KERNEL32.dll
 0000:fffbf000       .debug$S                   0000000180000000     kernel32:KERNEL32.dll
 0000:fffbf000       .debug$S                   0000000180000000     kernel32:KERNEL32.dll
 0000:fffbf000       .debug$S                   0000000180000000     kernel32:KERNEL32.dll
 0000:fffbf000       .debug$S                   0000000180000000     kernel32:KERNEL32.dll
 0000:fffbf000       .debug$S                   0000000180000000     kernel32:KERNEL32.dll
 0000:fffbf000       .debug$S                   0000000180000000     kernel32:KERNEL32.dll
 0000:fffbf000       .debug$S                   0000000180000000     kernel32:KERNEL32.dll
 0000:fffbf000       .debug$S                   0000000180000000     kernel32:KERNEL32.dll
 0000:fffbf000       .debug$S                   0000000180000000     kernel32:KERNEL32.dll
 0000:fffbf000       .debug$S                   0000000180000000     kernel32:KERNEL32.dll
 0000:fffbf000       .debug$S                   0000000180000000     kernel32:KERNEL32.dll
 0000:fffbf000       .debug$S                   0000000180000000     kernel32:KERNEL32.dll
 0000:fffbf000       .debug$S                   0000000180000000     kernel32:KERNEL32.dll
 0000:fffbf000       .debug$S                   0000000180000000     kernel32:KERNEL32.dll
 0000:fffbf000       .debug$S                   0000000180000000     kernel32:KERNEL32.dll
 0000:fffbf000       .debug$S                   0000000180000000     kernel32:KERNEL32.dll
 0000:fffbf000       .debug$S                   0000000180000000     kernel32:KERNEL32.dll
 0000:fffbf000       .debug$S                   0000000180000000     kernel32:KERNEL32.dll
 0000:fffbf000       .debug$S                   0000000180000000     kernel32:KERNEL32.dll
 0000:fffbf000       .debug$S                   0000000180000000     kernel32:KERNEL32.dll
 0000:fffbf000       .debug$S                   0000000180000000     kernel32:KERNEL32.dll
 0000:fffbf000       .debug$S                   0000000180000000     kernel32:KERNEL32.dll
 0000:fffbf000       .debug$S                   0000000180000000     kernel32:KERNEL32.dll
 0000:fffbf000       .debug$S                   0000000180000000     kernel32:KERNEL32.dll
 0000:fffbf000       .debug$S                   0000000180000000     kernel32:KERNEL32.dll
 0000:fffbf000       .debug$S                   0000000180000000     kernel32:KERNEL32.dll
 0000:fffbf000       .debug$S                   0000000180000000     kernel32:KERNEL32.dll
 0000:fffbf000       .debug$S                   0000000180000000     kernel32:KERNEL32.dll
 0000:fffbf000       .debug$S                   0000000180000000     kernel32:KERNEL32.dll
 0000:fffbf000       .debug$S                   0000000180000000     kernel32:KERNEL32.dll
 0000:fffbf000       .debug$S                   0000000180000000     kernel32:KERNEL32.dll
 0000:fffbf000       .debug$S                   0000000180000000     kernel32:KERNEL32.dll
 0000:fffbf000       .debug$S                   0000000180000000     kernel32:KERNEL32.dll
 0000:fffbf000       .debug$S                   0000000180000000     kernel32:KERNEL32.dll
 0000:fffbf000       .debug$S                   0000000180000000     kernel32:KERNEL32.dll
 0000:fffbf000       .debug$S                   0000000180000000     kernel32:KERNEL32.dll
 0000:fffbf000       .debug$S                   0000000180000000     kernel32:KERNEL32.dll
 0000:fffbf000       .debug$S                   0000000180000000     kernel32:KERNEL32.dll
 0000:fffbf000       .debug$S                   0000000180000000     kernel32:KERNEL32.dll
 0000:fffbf000       .debug$S                   0000000180000000     kernel32:KERNEL32.dll
 0000:fffbf000       .debug$S                   0000000180000000     kernel32:KERNEL32.dll
 0000:fffbf000       .debug$S                   0000000180000000     kernel32:KERNEL32.dll
 0000:fffbf000       .debug$S                   0000000180000000     kernel32:KERNEL32.dll
 0000:fffbf000       .debug$S                   0000000180000000     kernel32:KERNEL32.dll
 0000:fffbf000       .debug$S                   0000000180000000     kernel32:KERNEL32.dll
 0000:fffbf000       .debug$S                   0000000180000000     kernel32:KERNEL32.dll
 0000:fffbf000       .debug$S                   0000000180000000     kernel32:KERNEL32.dll
 0000:fffbf000       .debug$S                   0000000180000000     kernel32:KERNEL32.dll
 0000:fffbf000       .debug$S                   0000000180000000     kernel32:KERNEL32.dll
 0000:fffbf000       .debug$S                   0000000180000000     kernel32:KERNEL32.dll
 0000:fffbf000       .debug$S                   0000000180000000     kernel32:KERNEL32.dll
 0000:fffbf000       .debug$S                   0000000180000000     kernel32:KERNEL32.dll
 0000:fffbf000       .debug$S                   0000000180000000     kernel32:KERNEL32.dll
 0000:fffbf000       .debug$S                   0000000180000000     kernel32:KERNEL32.dll
 0000:fffbf000       .debug$S                   0000000180000000     kernel32:KERNEL32.dll
 0000:fffbf000       .debug$S                   0000000180000000     kernel32:KERNEL32.dll
 0000:fffbf000       .debug$S                   0000000180000000     kernel32:KERNEL32.dll
 0000:fffbf000       .debug$S                   0000000180000000     kernel32:KERNEL32.dll
 0000:fffbf000       .debug$S                   0000000180000000     kernel32:KERNEL32.dll
 0000:fffbf000       .debug$S                   0000000180000000     kernel32:KERNEL32.dll
 0000:fffbf000       .debug$S                   0000000180000000     kernel32:KERNEL32.dll
 0000:fffbf000       .debug$S                   0000000180000000     kernel32:KERNEL32.dll
 0000:fffbf000       .debug$S                   0000000180000000     kernel32:KERNEL32.dll
 0000:fffbf000       .debug$S                   0000000180000000     kernel32:KERNEL32.dll
 0000:fffbf000       .debug$S                   0000000180000000     kernel32:KERNEL32.dll
 0000:fffbf000       .debug$S                   0000000180000000     kernel32:KERNEL32.dll
 0000:fffbf000       .debug$S                   0000000180000000     kernel32:KERNEL32.dll
 0000:fffbf000       .debug$S                   0000000180000000     kernel32:KERNEL32.dll
 0000:fffbf000       .debug$S                   0000000180000000     kernel32:KERNEL32.dll
 0000:fffbf000       .debug$S                   0000000180000000     kernel32:KERNEL32.dll
 0000:fffbf000       .debug$S                   0000000180000000     kernel32:KERNEL32.dll
 0000:fffbf000       .debug$S                   0000000180000000     kernel32:KERNEL32.dll
 0000:fffbf000       .debug$S                   0000000180000000     kernel32:KERNEL32.dll
 0000:fffbf000       .debug$S                   0000000180000000     kernel32:KERNEL32.dll
 0000:fffbf000       .debug$S                   0000000180000000     kernel32:KERNEL32.dll
 0000:fffbf000       .debug$S                   0000000180000000     kernel32:KERNEL32.dll
 0000:fffbf000       .debug$S                   0000000180000000     kernel32:KERNEL32.dll
 0000:fffbf000       .debug$S                   0000000180000000     kernel32:KERNEL32.dll
 0000:fffbf000       .debug$S                   0000000180000000     kernel32:KERNEL32.dll
 0000:fffbf000       .debug$S                   0000000180000000     kernel32:KERNEL32.dll
 0000:fffbf000       .debug$S                   0000000180000000     kernel32:KERNEL32.dll
 0000:fffbf000       .debug$S                   0000000180000000     kernel32:KERNEL32.dll
 0000:fffbf000       .debug$S                   0000000180000000     kernel32:KERNEL32.dll
 0000:fffbf000       .debug$S                   0000000180000000     kernel32:KERNEL32.dll
 0000:fffbf000       .debug$S                   0000000180000000     kernel32:KERNEL32.dll
 0000:fffbf000       .debug$S                   0000000180000000     kernel32:KERNEL32.dll
 0000:fffbf000       .debug$S                   0000000180000000     kernel32:KERNEL32.dll
 0000:fffbf000       .debug$S                   0000000180000000     kernel32:KERNEL32.dll
 0000:fffbf000       .debug$S                   0000000180000000     kernel32:KERNEL32.dll
 0000:fffbf000       .debug$S                   0000000180000000     kernel32:KERNEL32.dll
 0000:fffbf000       .debug$S                   0000000180000000     kernel32:KERNEL32.dll
 0000:fffbf000       .debug$S                   0000000180000000     kernel32:KERNEL32.dll
 0000:fffbf000       .debug$S                   0000000180000000     kernel32:KERNEL32.dll
 0000:fffbf000       .debug$S                   0000000180000000     kernel32:KERNEL32.dll
 0000:fffbf000       .debug$S                   0000000180000000     kernel32:KERNEL32.dll
 0000:fffbf000       .debug$S                   0000000180000000     ole32:ole32.dll
 0000:fffbf000       .debug$S                   0000000180000000     ole32:ole32.dll
 0000:fffbf000       .debug$S                   0000000180000000     ole32:ole32.dll
 0000:fffbf000       .debug$S                   0000000180000000     ole32:ole32.dll
 0000:fffbf000       .debug$S                   0000000180000000     ole32:ole32.dll
 0000:fffbf000       .debug$S                   0000000180000000     ole32:ole32.dll
 0000:fffbf000       .debug$S                   0000000180000000     ole32:ole32.dll
 0000:fffbf000       .debug$S                   0000000180000000     ole32:ole32.dll
 0000:fffbf000       .debug$S                   0000000180000000     ole32:ole32.dll
 0000:fffbf000       .debug$S                   0000000180000000     ole32:ole32.dll
 0000:fffbf000       .debug$S                   0000000180000000     ole32:ole32.dll
 0000:fffbf000       .debug$S                   0000000180000000     ole32:ole32.dll
 0000:fffbf000       .debug$S                   0000000180000000     ole32:ole32.dll
 0000:fffbf000       .debug$S                   0000000180000000     ole32:ole32.dll
 0000:fffbf000       .debug$S                   0000000180000000     oleaut32:OLEAUT32.dll
 0000:fffbf000       .debug$S                   0000000180000000     oleaut32:OLEAUT32.dll
 0000:fffbf000       .debug$S                   0000000180000000     oleaut32:OLEAUT32.dll
 0000:fffbf000       .debug$S                   0000000180000000     oleaut32:OLEAUT32.dll
 0000:fffbf000       .debug$S                   0000000180000000     oleaut32:OLEAUT32.dll
 0000:fffbf000       .debug$S                   0000000180000000     oleaut32:OLEAUT32.dll
 0000:fffbf000       .debug$S                   0000000180000000     oleaut32:OLEAUT32.dll
 0000:fffbf000       .debug$S                   0000000180000000     oleaut32:OLEAUT32.dll
 0000:fffbf000       .debug$S                   0000000180000000     oleaut32:OLEAUT32.dll
 0000:fffbf000       .debug$S                   0000000180000000     oleaut32:OLEAUT32.dll
 0000:fffbf000       .debug$S                   0000000180000000     oleaut32:OLEAUT32.dll
 0000:fffbf000       .debug$S                   0000000180000000     oleaut32:OLEAUT32.dll
 0000:fffbf000       .debug$S                   0000000180000000     oleaut32:OLEAUT32.dll
 0000:fffbf000       .debug$S                   0000000180000000     oleaut32:OLEAUT32.dll
 0000:fffbf000       .debug$S                   0000000180000000     oleaut32:OLEAUT32.dll
 0000:fffbf000       .debug$S                   0000000180000000     oleaut32:OLEAUT32.dll
 0000:fffbf000       .debug$S                   0000000180000000     user32:USER32.dll
 0000:fffbf000       .debug$S                   0000000180000000     user32:USER32.dll
 0000:fffbf000       .debug$S                   0000000180000000     user32:USER32.dll
 0000:fffbf000       .debug$S                   0000000180000000     user32:USER32.dll
 0000:fffbf000       .debug$S                   0000000180000000     user32:USER32.dll
 0000:fffbf000       .debug$S                   0000000180000000     user32:USER32.dll
 0000:fffbf000       .debug$S                   0000000180000000     user32:USER32.dll
 0000:fffbf000       .debug$S                   0000000180000000     user32:USER32.dll
 0000:fffbf000       .debug$S                   0000000180000000     user32:USER32.dll
 0000:fffbf000       .debug$S                   0000000180000000     user32:USER32.dll
 0000:fffbf000       .debug$S                   0000000180000000     user32:USER32.dll
 0000:fffbf000       .debug$S                   0000000180000000     user32:USER32.dll
 0000:fffbf000       .debug$S                   0000000180000000     user32:USER32.dll
 0000:fffbf000       .debug$S                   0000000180000000     user32:USER32.dll
 0000:fffbf000       .debug$S                   0000000180000000     user32:USER32.dll
 0000:fffbf000       .debug$S                   0000000180000000     user32:USER32.dll
 0000:fffbf000       .debug$S                   0000000180000000     user32:USER32.dll
 0000:fffbf000       .debug$S                   0000000180000000     user32:USER32.dll
 0000:fffbf000       .debug$S                   0000000180000000     user32:USER32.dll
 0000:fffbf000       .debug$S                   0000000180000000     user32:USER32.dll
 0000:fffbf000       .debug$S                   0000000180000000     user32:USER32.dll
 0000:fffbf000       .debug$S                   0000000180000000     user32:USER32.dll
 0000:fffbf000       .debug$S                   0000000180000000     user32:USER32.dll
 0000:fffbf000       .debug$S                   0000000180000000     user32:USER32.dll
 0000:fffbf000       .debug$S                   0000000180000000     user32:USER32.dll
 0000:fffbf000       .debug$S                   0000000180000000     user32:USER32.dll
 0000:fffbf000       .debug$S                   0000000180000000     user32:USER32.dll
 0000:fffbf000       .debug$S                   0000000180000000     user32:USER32.dll
 0000:fffbf000       .debug$S                   0000000180000000     user32:USER32.dll
 0000:fffbf000       .debug$S                   0000000180000000     user32:USER32.dll
 0000:fffbf000       .debug$S                   0000000180000000     user32:USER32.dll
 0000:fffbf000       .debug$S                   0000000180000000     user32:USER32.dll
 0000:fffbf000       .debug$S                   0000000180000000     user32:USER32.dll
 0000:fffbf000       .debug$S                   0000000180000000     user32:USER32.dll
 0000:fffbf000       .debug$S                   0000000180000000     user32:USER32.dll
 0001:00000000       ??__E_AtlComModule@ATL@@YAXXZ 0000000180001000 f   OposVariant.obj
 0001:00000020       ??__E_AtlWinModule@ATL@@YAXXZ 0000000180001020 f   OposVariant.obj
 0001:00000040       ??__E?pConnMap@?$IConnectionPointContainerImpl@VCOPOSElectronicJournal@@@ATL@@0PEBU_ATL_CONNMAP_ENTRY@2@EB@@YAXXZ 0000000180001040 f   ElectronicJournal.obj
 0001:00000058       ??__E_Module@@YAXXZ        0000000180001058 f   ElectronicJournal.obj
 0001:00000094       ??__E_AtlBaseModule@ATL@@YAXXZ 0000000180001094 f   atls:atlbase.obj
 0001:0000f100       ?__scrt_initialize_thread_safe_statics@@YAHXZ 0000000180010100 f   LIBCMT:thread_safe_statics.obj
 0001:0000f1d0       ?__scrt_uninitialize_thread_safe_statics@@YAXXZ 00000001800101d0 f   LIBCMT:thread_safe_statics.obj
 0001:0000f520       capture_current_context    0000000180010520 f   LIBCMT:gs_report.obj
 0001:0000f590       capture_previous_context   0000000180010590 f   LIBCMT:gs_report.obj
 0001:0000f730       $$000000                   0000000180010730     LIBCMT:chkstk.obj
 0001:0000f7a0       $$000000                   00000001800107a0     LIBCMT:amdsecgs.obj
 0001:0000f7d4       ?dllmain_crt_dispatch@@YAHQEAUHINSTANCE__@@KQEAX@Z 00000001800107d4 f   LIBCMT:dll_dllmain.obj
 0001:0000f824       ?dllmain_crt_process_attach@@YAHQEAUHINSTANCE__@@QEAX@Z 0000000180010824 f   LIBCMT:dll_dllmain.obj
 0001:0000f93c       ?dllmain_crt_process_detach@@YAH_N@Z 000000018001093c f   LIBCMT:dll_dllmain.obj
 0001:0000f9c0       ?dllmain_dispatch@@YAHQEAUHINSTANCE__@@KQEAX@Z 00000001800109c0 f   LIBCMT:dll_dllmain.obj
 0001:00010288       ??$GetProcAddressAll@P6AP6A_JPEAUHWND__@@I_K_J@ZPEAUAtlThunkData_t@@@Z@@YAP6AP6A_JPEAUHWND__@@I_K_J@ZPEAUAtlThunkData_t@@@ZPEAP6AP6A_J0I12@Z3@Z@Z 0000000180011288 f   atls:atlthunk.obj
 0001:00010288       ??$GetProcAddressAll@P6APEAUAtlThunkData_t@@XZ@@YAP6APEAUAtlThunkData_t@@XZPEAP6APEAU0@XZ@Z 0000000180011288 f   atls:atlthunk.obj
 0001:00010288       ??$GetProcAddressAll@P6AXPEAUAtlThunkData_t@@@Z@@YAP6AXPEAUAtlThunkData_t@@@ZPEAP6AX0@Z@Z 0000000180011288 f   atls:atlthunk.obj
 0001:00010288       ??$GetProcAddressAll@P6AXPEAUAtlThunkData_t@@PEAX_K@Z@@YAP6AXPEAUAtlThunkData_t@@PEAX_K@ZPEAP6AX012@Z@Z 0000000180011288 f   atls:atlthunk.obj
 0001:00010460       ?__InitializeThunkPool@@YAHXZ 0000000180011460 f   atls:atlthunk.obj
 0001:00010900       $$000000                   0000000180011900     libvcruntime:memcmp.obj
 0001:000109e0       $$000000                   00000001800119e0     libvcruntime:memcpy.obj
 0001:00010df0       $$000000                   0000000180011df0     libvcruntime:memset.obj
 0001:00011f00       $$000000                   0000000180012f00     libvcruntime:notify.obj
 0001:0001206c       ??$BuildCatchObjectHelperInternal@V__FrameHandler4@@@@YAHPEAUEHExceptionRecord@@PEAXPEAUHandlerType4@FH4@@PEBU_s_CatchableType@@@Z 000000018001306c f   libvcruntime:frame.obj
 0001:00012270       ??$BuildCatchObjectInternal@V__FrameHandler4@@@@YAXPEAUEHExceptionRecord@@PEAXPEAUHandlerType4@FH4@@PEBU_s_CatchableType@@@Z 0000000180013270 f   libvcruntime:frame.obj
 0001:00012334       ??$CatchIt@V__FrameHandler4@@@@YAXPEAUEHExceptionRecord@@PEA_KPEAU_CONTEXT@@PEAU_xDISPATCHER_CONTEXT@@PEAUFuncInfo4@FH4@@PEAUHandlerType4@4@PEBU_s_CatchableType@@PEAUTryBlockMapEntry4@4@H1EE@Z 0000000180013334 f   libvcruntime:frame.obj
 0001:00012408       ??$FindHandler@V__FrameHandler4@@@@YAXPEAUEHExceptionRecord@@PEA_KPEAU_CONTEXT@@PEAU_xDISPATCHER_CONTEXT@@PEAUFuncInfo4@FH4@@EH1@Z 0000000180013408 f   libvcruntime:frame.obj
 0001:00012918       ??$FindHandlerForForeignException@V__FrameHandler4@@@@YAXPEAUEHExceptionRecord@@PEA_KPEAU_CONTEXT@@PEAU_xDISPATCHER_CONTEXT@@PEAUFuncInfo4@FH4@@HH1@Z 0000000180013918 f   libvcruntime:frame.obj
 0001:000136a8       ?ExFilterRethrow@@YAHPEAU_EXCEPTION_POINTERS@@PEAUEHExceptionRecord@@PEAH@Z 00000001800146a8 f   libvcruntime:frame.obj
 0001:00013730       ?ExFilterRethrowFH4@@YAHPEAU_EXCEPTION_POINTERS@@PEAUEHExceptionRecord@@HPEAH@Z 0000000180014730 f   libvcruntime:frame.obj
 0001:00013a48       ?IsInExceptionSpec@@YAEPEAUEHExceptionRecord@@PEBU_s_ESTypeList@@@Z 0000000180014a48 f   libvcruntime:frame.obj
 0001:00013b34       ?Is_bad_exception_allowed@@YAEPEBU_s_ESTypeList@@@Z 0000000180014b34 f   libvcruntime:frame.obj
 0001:00013e10       ?try_get_function@@YAPEAXW4function_id@?A0x5302d918@@QEBDQEBW4module_id@2@2@Z 0000000180014e10 f   libvcruntime:winapi_downlevel.obj
 0001:000140f0       $$000000                   00000001800150f0     libvcruntime:handlers.obj
 0001:00014908       ??$common_vsprintf@Vformat_validation_base@__crt_stdio_output@@_W@@YAH_KQEA_W0QEB_WQEAU__crt_locale_pointers@@QEAD@Z 0000000180015908 f   libucrt:output.obj
 0001:000157a8       $LN17                      00000001800167a8     libucrt:output.obj
 0001:0001614c       ??$?RV<lambda_d80eeec6fff315bfe5c115232f3240e3>@@AEAV<lambda_6e4b09c48022b2350581041d5f6b0c4c>@@V<lambda_2358e3775559c9db80273638284d5e45>@@@?$__crt_seh_guarded_call@X@@QEAAX$$QEAV<lambda_d80eeec6fff315bfe5c115232f3240e3>@@AEAV<lambda_6e4b09c48022b2350581041d5f6b0c4c>@@$$QEAV<lambda_2358e3775559c9db80273638284d5e45>@@@Z 000000018001714c f   libucrt:exit.obj
 0001:00016184       ??R<lambda_6e4b09c48022b2350581041d5f6b0c4c>@@QEBA@XZ 0000000180017184 f   libucrt:exit.obj
 0001:00016248       ?atexit_exception_filter@@YAHK@Z 0000000180017248 f   libucrt:exit.obj
 0001:00016254       ?common_exit@@YAXHW4_crt_exit_cleanup_mode@@W4_crt_exit_return_mode@@@Z 0000000180017254 f   libucrt:exit.obj
 0001:00016310       ?exit_or_terminate_process@@YAXI@Z 0000000180017310 f   libucrt:exit.obj
 0001:0001635c       ?try_cor_exit_process@@YAXI@Z 000000018001735c f   libucrt:exit.obj
 0001:000163e4       ??$parse_command_line@D@@YAXPEADPEAPEAD0PEA_K2@Z 00000001800173e4 f   libucrt:argv_parsing.obj
 0001:0001678c       ??$common_initialize_environment_nolock@D@@YAHXZ 000000018001778c f   libucrt:environment_initialization.obj
 0001:000167f8       ??$create_environment@D@@YAQEAPEADQEAD@Z 00000001800177f8 f   libucrt:environment_initialization.obj
 0001:00016900       ??$free_environment@D@@YAXQEAPEAD@Z 0000000180017900 f   libucrt:environment_initialization.obj
 0001:00016900       ??$free_environment@_W@@YAXQEAPEA_W@Z 0000000180017900 f   libucrt:environment_initialization.obj
 0001:00016944       ??$uninitialize_environment_internal@D@@YAXAEAPEAPEAD@Z 0000000180017944 f   libucrt:environment_initialization.obj
 0001:00016960       ??$uninitialize_environment_internal@_W@@YAXAEAPEAPEA_W@Z 0000000180017960 f   libucrt:environment_initialization.obj
 0001:000169bc       ??$?RV<lambda_638799b9deba96c50f710eeac98168cd>@@AEAV<lambda_22ebabd17bc4fa466a2aca6d8deb888d>@@V<lambda_a6f7d7db0129f75315ebf26d50c089f1>@@@?$__crt_seh_guarded_call@H@@QEAAH$$QEAV<lambda_638799b9deba96c50f710eeac98168cd>@@AEAV<lambda_22ebabd17bc4fa466a2aca6d8deb888d>@@$$QEAV<lambda_a6f7d7db0129f75315ebf26d50c089f1>@@@Z 00000001800179bc f   libucrt:onexit.obj
 0001:000169f8       ??$?RV<lambda_7777bce6b2f8c936911f934f8298dc43>@@AEAV<lambda_f03950bc5685219e0bcd2087efbe011e>@@V<lambda_3883c3dff614d5e0c5f61bb1ac94921c>@@@?$__crt_seh_guarded_call@H@@QEAAH$$QEAV<lambda_7777bce6b2f8c936911f934f8298dc43>@@AEAV<lambda_f03950bc5685219e0bcd2087efbe011e>@@$$QEAV<lambda_3883c3dff614d5e0c5f61bb1ac94921c>@@@Z 00000001800179f8 f   libucrt:onexit.obj
 0001:00016a34       ??R<lambda_22ebabd17bc4fa466a2aca6d8deb888d>@@QEBAHXZ 0000000180017a34 f   libucrt:onexit.obj
 0001:00016be4       ??R<lambda_f03950bc5685219e0bcd2087efbe011e>@@QEBAHXZ 0000000180017be4 f   libucrt:onexit.obj
 0001:00016db8       initialize_global_variables 0000000180017db8 f   libucrt:initialization.obj
 0001:00016dcc       initialize_c               0000000180017dcc f   libucrt:initialization.obj
 0001:00016df0       initialize_environment     0000000180017df0 f   libucrt:initialization.obj
 0001:00016df0       initialize_global_state_isolation 0000000180017df0 f   libucrt:initialization.obj
 0001:00016df0       report_memory_leaks        0000000180017df0 f   libucrt:initialization.obj
 0001:00016df0       uninitialize_c             0000000180017df0 f   libucrt:initialization.obj
 0001:00016df0       uninitialize_global_state_isolation 0000000180017df0 f   libucrt:initialization.obj
 0001:00016df4       uninitialize_environment   0000000180017df4 f   libucrt:initialization.obj
 0001:00016e04       initialize_pointers        0000000180017e04 f   libucrt:initialization.obj
 0001:00016e44       uninitialize_vcruntime     0000000180017e44 f   libucrt:initialization.obj
 0001:00016e4c       uninitialize_allocated_memory 0000000180017e4c f   libucrt:initialization.obj
 0001:00016e8c       uninitialize_allocated_io_buffers 0000000180017e8c f   libucrt:initialization.obj
 0001:00017800       $$000000                   0000000180018800     libucrt:strncmp.obj
 0001:000178fc       ??$?RV<lambda_0ae27a3a962d80f24befdcbee591983d>@@AEAV<lambda_8d0ee55de4b1038c4002e0adecdf1839>@@V<lambda_dc504788e8f1664fe9b84e20bfb512f2>@@@?$__crt_seh_guarded_call@X@@QEAAX$$QEAV<lambda_0ae27a3a962d80f24befdcbee591983d>@@AEAV<lambda_8d0ee55de4b1038c4002e0adecdf1839>@@$$QEAV<lambda_dc504788e8f1664fe9b84e20bfb512f2>@@@Z 00000001800188fc f   libucrt:per_thread_data.obj
 0001:0001793c       ??$?RV<lambda_2d41944a1d46af3157314b8a01080d33>@@AEAV<lambda_8f455de75cd7d7f24b4096f044d8b9e6>@@V<lambda_aa500f224e6afead328df44964fe2772>@@@?$__crt_seh_guarded_call@X@@QEAAX$$QEAV<lambda_2d41944a1d46af3157314b8a01080d33>@@AEAV<lambda_8f455de75cd7d7f24b4096f044d8b9e6>@@$$QEAV<lambda_aa500f224e6afead328df44964fe2772>@@@Z 000000018001893c f   libucrt:per_thread_data.obj
 0001:0001797c       ??$?RV<lambda_aa87e3671a710a21b5dc78c0bdf72e11>@@AEAV<lambda_92619d2358a28f41a33ba319515a20b9>@@V<lambda_6992ecaafeb10aed2b74cb1fae11a551>@@@?$__crt_seh_guarded_call@X@@QEAAX$$QEAV<lambda_aa87e3671a710a21b5dc78c0bdf72e11>@@AEAV<lambda_92619d2358a28f41a33ba319515a20b9>@@$$QEAV<lambda_6992ecaafeb10aed2b74cb1fae11a551>@@@Z 000000018001897c f   libucrt:per_thread_data.obj
 0001:000179c4       ??$?RV<lambda_f2e299630e499de9f9a165e60fcd3db5>@@AEAV<lambda_2ae9d31cdba2644fcbeaf08da7c24588>@@V<lambda_40d01ff24d0e7b3814fdbdcee8eab3c7>@@@?$__crt_seh_guarded_call@X@@QEAAX$$QEAV<lambda_f2e299630e499de9f9a165e60fcd3db5>@@AEAV<lambda_2ae9d31cdba2644fcbeaf08da7c24588>@@$$QEAV<lambda_40d01ff24d0e7b3814fdbdcee8eab3c7>@@@Z 00000001800189c4 f   libucrt:per_thread_data.obj
 0001:00017a24       ?construct_ptd_array@@YAXQEAU__acrt_ptd@@@Z 0000000180018a24 f   libucrt:per_thread_data.obj
 0001:00017af4       ?destroy_fls@@YAXPEAX@Z    0000000180018af4 f   libucrt:per_thread_data.obj
 0001:00017b14       ?destroy_ptd_array@@YAXQEAU__acrt_ptd@@@Z 0000000180018b14 f   libucrt:per_thread_data.obj
 0001:00017c0c       ?replace_current_thread_locale_nolock@@YAXQEAU__acrt_ptd@@QEAU__crt_locale_data@@@Z 0000000180018c0c f   libucrt:per_thread_data.obj
 0001:000180f0       ?try_get_function@@YAPEAXW4function_id@?A0x391cf84c@@QEBDQEBW4module_id@2@2@Z 00000001800190f0 f   libucrt:winapi_thunks.obj
 0001:00018ac0       ?fp_format_a@@YAHQEBNPEAD_KQEAD2H_NIQEAU__crt_locale_pointers@@W4__acrt_rounding_mode@@@Z 0000000180019ac0 f   libucrt:cvt.obj
 0001:00018e40       ?fp_format_e@@YAHQEBNQEAD_K12H_NIQEAU__crt_locale_pointers@@W4__acrt_rounding_mode@@@Z 0000000180019e40 f   libucrt:cvt.obj
 0001:00018f30       ?fp_format_e_internal@@YAHQEAD_KH_NIQEAU_strflt@@2QEAU__crt_locale_pointers@@@Z 0000000180019f30 f   libucrt:cvt.obj
 0001:00019104       ?fp_format_f_internal@@YAHQEAD_KHQEAU_strflt@@_NQEAU__crt_locale_pointers@@@Z 000000018001a104 f   libucrt:cvt.obj
 0001:0001926c       ?fp_format_g@@YAHQEBNQEAD_K12H_NIQEAU__crt_locale_pointers@@@Z 000000018001a26c f   libucrt:cvt.obj
 0001:000193ac       ?should_round_up@@YA_NQEBN_KFW4__acrt_rounding_mode@@@Z 000000018001a3ac f   libucrt:cvt.obj
 0001:000199d0       ??$?RV<lambda_410d79af7f07d98d83a3f525b3859a53>@@AEAV<lambda_3e16ef9562a7dcce91392c22ab16ea36>@@V<lambda_38119f0e861e05405d8a144b9b982f0a>@@@?$__crt_seh_guarded_call@X@@QEAAX$$QEAV<lambda_410d79af7f07d98d83a3f525b3859a53>@@AEAV<lambda_3e16ef9562a7dcce91392c22ab16ea36>@@$$QEAV<lambda_38119f0e861e05405d8a144b9b982f0a>@@@Z 000000018001a9d0 f   libucrt:wsetlocale.obj
 0001:00019a7c       ?initialize_inherited_file_handles_nolock@@YAXXZ 000000018001aa7c f   libucrt:ioinit.obj
 0001:00019b6c       ?initialize_stdio_handles_nolock@@YAXXZ 000000018001ab6c f   libucrt:ioinit.obj
 0001:00019de8       ?<lambda_invoker_cdecl>@<lambda_a1ce4c8ae42411fd470c77163914f50e>@@CAHPEBX0@Z 000000018001ade8 f   libucrt:argv_wildcards.obj
 0001:0001a100       ??$common_expand_argv_wildcards@D@@YAHQEAPEADQEAPEAPEAD@Z 000000018001b100 f   libucrt:argv_wildcards.obj
 0001:0001a30c       ??$copy_and_add_argument_to_buffer@D@@YAHQEBD0_KAEAV?$argument_list@D@?A0x5f5c8891@@@Z 000000018001b30c f   libucrt:argv_wildcards.obj
 0001:0001a494       ??$expand_argument_wildcards@D@@YAHQEAD0AEAV?$argument_list@D@?A0x5f5c8891@@@Z 000000018001b494 f   libucrt:argv_wildcards.obj
 0001:0001a9e0       ??$?RV<lambda_efdfa57d1f175319df784efa44bb7b81>@@AEAV<lambda_5f0a4c1567f8adc6734073e5d1e1b35c>@@V<lambda_2e8a7d3640ea6ccb4c2413664c2db6fd>@@@?$__crt_seh_guarded_call@X@@QEAAX$$QEAV<lambda_efdfa57d1f175319df784efa44bb7b81>@@AEAV<lambda_5f0a4c1567f8adc6734073e5d1e1b35c>@@$$QEAV<lambda_2e8a7d3640ea6ccb4c2413664c2db6fd>@@@Z 000000018001b9e0 f   libucrt:mbctype.obj
 0001:0001ab9c       ?getSystemCP@@YAHH@Z       000000018001bb9c f   libucrt:mbctype.obj
 0001:0001ac1c       ?setSBCS@@YAXPEAU__crt_multibyte_data@@@Z 000000018001bc1c f   libucrt:mbctype.obj
 0001:0001acac       ?setSBUpLow@@YAXPEAU__crt_multibyte_data@@@Z 000000018001bcac f   libucrt:mbctype.obj
 0001:0001ae90       ?setmbcp_internal@@YAHH_NQEAU__acrt_ptd@@QEAPEAU__crt_multibyte_data@@@Z 000000018001be90 f   libucrt:mbctype.obj
 0001:0001b050       ?update_thread_multibyte_data_internal@@YAPEAU__crt_multibyte_data@@QEAU__acrt_ptd@@QEAPEAU1@@Z 000000018001c050 f   libucrt:mbctype.obj
 0001:0001b440       ?x_ismbbtype_l@@YAHPEAU__crt_locale_pointers@@IHH@Z 000000018001c440 f   libucrt:ismbbyte.obj
 0001:0001b7e8       ??$?RV<lambda_450d765d439847d4c735a33c368b5fc0>@@AEAV<lambda_44731a7d0e6d81c3e6aa82d741081786>@@V<lambda_601a2a7da3b7a96e9554ac7215c4b07c>@@@?$__crt_seh_guarded_call@P6AXH@Z@@QEAAP6AXH@Z$$QEAV<lambda_450d765d439847d4c735a33c368b5fc0>@@AEAV<lambda_44731a7d0e6d81c3e6aa82d741081786>@@$$QEAV<lambda_601a2a7da3b7a96e9554ac7215c4b07c>@@@Z 000000018001c7e8 f   libucrt:signal.obj
 0001:0001bb44       ??$?RV<lambda_842d9ff0dc9ef11c61343bbaebe7f885>@@AEAV<lambda_c5860995281e5c4ce005b3de8f5874ee>@@V<lambda_d90129c13df834fdcbf8d2b88dafcf2d>@@@?$__crt_seh_guarded_call@X@@QEAAX$$QEAV<lambda_842d9ff0dc9ef11c61343bbaebe7f885>@@AEAV<lambda_c5860995281e5c4ce005b3de8f5874ee>@@$$QEAV<lambda_d90129c13df834fdcbf8d2b88dafcf2d>@@@Z 000000018001cb44 f   libucrt:fflush.obj
 0001:0001bbe0       ??$?RV<lambda_886d6c58226a84441f68b9f2b8217b83>@@AEAV<lambda_ab61a845afdef5b7c387490eaf3616ee>@@V<lambda_f7f22ab5edc0698d5f6905b0d3f44752>@@@?$__crt_seh_guarded_call@X@@QEAAX$$QEAV<lambda_886d6c58226a84441f68b9f2b8217b83>@@AEAV<lambda_ab61a845afdef5b7c387490eaf3616ee>@@$$QEAV<lambda_f7f22ab5edc0698d5f6905b0d3f44752>@@@Z 000000018001cbe0 f   libucrt:fflush.obj
 0001:0001bcc0       ?common_flush_all@@YAH_N@Z 000000018001ccc0 f   libucrt:fflush.obj
 0001:0001dd10       memcpy_s                   000000018001ed10 f   libucrt:cfout.obj
 0001:0001e078       ?free_crt_array_internal@@YAXQEAPEBX_K@Z 000000018001f078 f   libucrt:inittime.obj
 0001:0001eb04       fallbackMethod             000000018001fb04 f   libucrt:strpbrk.obj
 0001:0001eebc       $LN78                      000000018001febc     libucrt:strpbrk.obj
 0001:0001eef8       $LN77                      000000018001fef8     libucrt:strpbrk.obj
 0001:0001ef38       $LN76                      000000018001ff38     libucrt:strpbrk.obj
 0001:0001f014       ?__acrt_LCMapStringA_stat@@YAHPEAU__crt_locale_pointers@@PEB_WKPEBDHPEADHHH@Z 0000000180020014 f   libucrt:lcmapstringa.obj
 0001:0001f3c4       ?initialize_multibyte@@YAHXZ 00000001800203c4 f   libucrt:multibyte_initializer.obj
 0001:0001f3dc       ??$?RV<lambda_a37b2b86f63e897a80ea819b0eb08c01>@@AEAV<lambda_38ce7e780aa69e748d6df282ebc68efe>@@V<lambda_99fb1378e971ab6e7edea83e3a7a83a2>@@@?$__crt_seh_guarded_call@H@@QEAAH$$QEAV<lambda_a37b2b86f63e897a80ea819b0eb08c01>@@AEAV<lambda_38ce7e780aa69e748d6df282ebc68efe>@@$$QEAV<lambda_99fb1378e971ab6e7edea83e3a7a83a2>@@@Z 00000001800203dc f   libucrt:commit.obj
 0001:0001f4fc       ?write_double_translated_ansi_nolock@@YA?AUwrite_result@?A0x17268360@@HQEBDI@Z 00000001800204fc f   libucrt:write.obj
 0001:0001f9e8       ?write_text_ansi_nolock@@YA?AUwrite_result@?A0x17268360@@HQEBDI@Z 00000001800209e8 f   libucrt:write.obj
 0001:0001faec       ?write_text_utf16le_nolock@@YA?AUwrite_result@?A0x17268360@@HQEBDI@Z 0000000180020aec f   libucrt:write.obj
 0001:0001fc08       ?write_text_utf8_nolock@@YA?AUwrite_result@?A0x17268360@@HQEBDI@Z 0000000180020c08 f   libucrt:write.obj
 0001:00020560       $$000000                   0000000180021560     libucrt:log10.obj
 0001:00020e2c       ??$common_lseek_nolock@_J@@YA_JH_JH@Z 0000000180021e2c f   libucrt:lseek.obj
 0001:0002108c       common_control87           000000018002208c f   libucrt:ieee.obj
 0001:0002134c       _call_matherr              000000018002234c f   libucrt:libm_error.obj
 0001:000213b4       _exception_enabled         00000001800223b4 f   libucrt:libm_error.obj
 0001:00021650       _log_special_common        0000000180022650 f   libucrt:log_special.obj
 0001:000216e8       ??$?RV<lambda_751a882b2c74d4b022dec766aa51a29a>@@AEAV<lambda_628dfdc04ba53c8bfc02c9951375f3f5>@@V<lambda_f6c7be5f7998530c34de24c7437d6b54>@@@?$__crt_seh_guarded_call@H@@QEAAH$$QEAV<lambda_751a882b2c74d4b022dec766aa51a29a>@@AEAV<lambda_628dfdc04ba53c8bfc02c9951375f3f5>@@$$QEAV<lambda_f6c7be5f7998530c34de24c7437d6b54>@@@Z 00000001800226e8 f   libucrt:close.obj
 0001:00021a10       $$000000                   0000000180022a10     libucrt:fpsr.obj
 0001:000220b0       $$000000                   00000001800230b0     LIBCMT:guard_dispatch.obj
 0001:000220d0       $$000000                   00000001800230d0     LIBCMT:guard_xfg_dispatch.obj
 0001:000220f0       ?filt$0@?0??_AtlVerifyStackAvailable@_ATL_SAFE_ALLOCA_IMPL@ATL@@YA_N_K@Z@4HA 00000001800230f0 f   ElectronicJournal.obj
 0001:00022111       __scrt_is_nonwritable_in_current_image$filt$0 0000000180023111 f   LIBCMT:utility.obj
 0001:00022129       ?catch$0@?0???2@YAPEAX_KAEBUnothrow_t@std@@@Z@4HA 0000000180023129 f   LIBCMT:new_scalar_nothrow.obj
 0001:00022136       __catch$??2@YAPEAX_KAEBUnothrow_t@std@@@Z$0 0000000180023136 f   LIBCMT:new_scalar_nothrow.obj
 0001:00022147       ?fin$0@?0??dllmain_crt_process_attach@@YAHQEAUHINSTANCE__@@QEAX@Z@4HA 0000000180023147 f   LIBCMT:dll_dllmain.obj
 0001:0002215e       ?fin$0@?0??dllmain_crt_process_detach@@YAH_N@Z@4HA 000000018002315e f   LIBCMT:dll_dllmain.obj
 0001:00022177       ?fin$1@?0??dllmain_crt_process_detach@@YAH_N@Z@4HA 0000000180023177 f   LIBCMT:dll_dllmain.obj
 0001:0002218b       ?filt$0@?0??dllmain_dispatch@@YAHQEAUHINSTANCE__@@KQEAX@Z@4HA 000000018002318b f   LIBCMT:dll_dllmain.obj
 0001:000221c1       ?filt$0@?0???$_CallSETranslator@V__FrameHandler4@@@@YAHPEAUEHExceptionRecord@@PEA_KPEAU_CONTEXT@@PEAU_xDISPATCHER_CONTEXT@@PEAUFuncInfo4@FH4@@K1H@Z@4HA 00000001800231c1 f   libvcruntime:risctrnsctrl.obj
 0001:00022260       __DestructExceptionObject$filt$0 0000000180023260 f   libvcruntime:ehhelpers.obj
 0001:000222f6       ?filt$0@?0??CxxCallCatchBlock@__FrameHandler4@@SAPEAXPEAU_EXCEPTION_RECORD@@@Z@4HA 00000001800232f6 f   libvcruntime:frame.obj
 0001:00022325       ?fin$1@?0??CxxCallCatchBlock@__FrameHandler4@@SAPEAXPEAU_EXCEPTION_RECORD@@@Z@4HA 0000000180023325 f   libvcruntime:frame.obj
 0001:000223a8       ?filt$0@?0??FrameUnwindToState@__FrameHandler4@@SAXPEA_KPEAU_xDISPATCHER_CONTEXT@@PEAUFuncInfo4@FH4@@H@Z@4HA 00000001800233a8 f   libvcruntime:frame.obj
 0001:000223be       ?fin$1@?0??FrameUnwindToState@__FrameHandler4@@SAXPEA_KPEAU_xDISPATCHER_CONTEXT@@PEAUFuncInfo4@FH4@@H@Z@4HA 00000001800233be f   libvcruntime:frame.obj
 0001:000223e1       ?fin$0@?0???$?RV<lambda_0ae27a3a962d80f24befdcbee591983d>@@AEAV<lambda_8d0ee55de4b1038c4002e0adecdf1839>@@V<lambda_dc504788e8f1664fe9b84e20bfb512f2>@@@?$__crt_seh_guarded_call@X@@QEAAX$$QEAV<lambda_0ae27a3a962d80f24befdcbee591983d>@@AEAV<lambda_8d0ee55de4b1038c4002e0adecdf1839>@@$$QEAV<lambda_dc504788e8f1664fe9b84e20bfb512f2>@@@Z@4HA 00000001800233e1 f   libucrt:per_thread_data.obj
 0001:000223e1       ?fin$0@?0???$?RV<lambda_2d41944a1d46af3157314b8a01080d33>@@AEAV<lambda_8f455de75cd7d7f24b4096f044d8b9e6>@@V<lambda_aa500f224e6afead328df44964fe2772>@@@?$__crt_seh_guarded_call@X@@QEAAX$$QEAV<lambda_2d41944a1d46af3157314b8a01080d33>@@AEAV<lambda_8f455de75cd7d7f24b4096f044d8b9e6>@@$$QEAV<lambda_aa500f224e6afead328df44964fe2772>@@@Z@4HA 00000001800233e1 f   libucrt:per_thread_data.obj
 0001:000223e1       ?fin$0@?0???$?RV<lambda_aa87e3671a710a21b5dc78c0bdf72e11>@@AEAV<lambda_92619d2358a28f41a33ba319515a20b9>@@V<lambda_6992ecaafeb10aed2b74cb1fae11a551>@@@?$__crt_seh_guarded_call@X@@QEAAX$$QEAV<lambda_aa87e3671a710a21b5dc78c0bdf72e11>@@AEAV<lambda_92619d2358a28f41a33ba319515a20b9>@@$$QEAV<lambda_6992ecaafeb10aed2b74cb1fae11a551>@@@Z@4HA 00000001800233e1 f   libucrt:per_thread_data.obj
 0001:000223e1       ?fin$0@?0???$?RV<lambda_f2e299630e499de9f9a165e60fcd3db5>@@AEAV<lambda_2ae9d31cdba2644fcbeaf08da7c24588>@@V<lambda_40d01ff24d0e7b3814fdbdcee8eab3c7>@@@?$__crt_seh_guarded_call@X@@QEAAX$$QEAV<lambda_f2e299630e499de9f9a165e60fcd3db5>@@AEAV<lambda_2ae9d31cdba2644fcbeaf08da7c24588>@@$$QEAV<lambda_40d01ff24d0e7b3814fdbdcee8eab3c7>@@@Z@4HA 00000001800233e1 f   libucrt:per_thread_data.obj
 0001:000223e1       ?fin$0@?0???$?RV<lambda_efdfa57d1f175319df784efa44bb7b81>@@AEAV<lambda_5f0a4c1567f8adc6734073e5d1e1b35c>@@V<lambda_2e8a7d3640ea6ccb4c2413664c2db6fd>@@@?$__crt_seh_guarded_call@X@@QEAAX$$QEAV<lambda_efdfa57d1f175319df784efa44bb7b81>@@AEAV<lambda_5f0a4c1567f8adc6734073e5d1e1b35c>@@$$QEAV<lambda_2e8a7d3640ea6ccb4c2413664c2db6fd>@@@Z@4HA 00000001800233e1 f   libucrt:mbctype.obj
 0001:000223e1       ?fin$0@?0???$?RV<lambda_450d765d439847d4c735a33c368b5fc0>@@AEAV<lambda_44731a7d0e6d81c3e6aa82d741081786>@@V<lambda_601a2a7da3b7a96e9554ac7215c4b07c>@@@?$__crt_seh_guarded_call@P6AXH@Z@@QEAAP6AXH@Z$$QEAV<lambda_450d765d439847d4c735a33c368b5fc0>@@AEAV<lambda_44731a7d0e6d81c3e6aa82d741081786>@@$$QEAV<lambda_601a2a7da3b7a96e9554ac7215c4b07c>@@@Z@4HA 00000001800233e1 f   libucrt:signal.obj
 0001:000223e1       ?fin$0@?0???$?RV<lambda_d80eeec6fff315bfe5c115232f3240e3>@@AEAV<lambda_6e4b09c48022b2350581041d5f6b0c4c>@@V<lambda_2358e3775559c9db80273638284d5e45>@@@?$__crt_seh_guarded_call@X@@QEAAX$$QEAV<lambda_d80eeec6fff315bfe5c115232f3240e3>@@AEAV<lambda_6e4b09c48022b2350581041d5f6b0c4c>@@$$QEAV<lambda_2358e3775559c9db80273638284d5e45>@@@Z@4HA 00000001800233e1 f   libucrt:exit.obj
 0001:000223e1       ?fin$0@?0???$?RV<lambda_638799b9deba96c50f710eeac98168cd>@@AEAV<lambda_22ebabd17bc4fa466a2aca6d8deb888d>@@V<lambda_a6f7d7db0129f75315ebf26d50c089f1>@@@?$__crt_seh_guarded_call@H@@QEAAH$$QEAV<lambda_638799b9deba96c50f710eeac98168cd>@@AEAV<lambda_22ebabd17bc4fa466a2aca6d8deb888d>@@$$QEAV<lambda_a6f7d7db0129f75315ebf26d50c089f1>@@@Z@4HA 00000001800233e1 f   libucrt:onexit.obj
 0001:000223e1       ?fin$0@?0???$?RV<lambda_7777bce6b2f8c936911f934f8298dc43>@@AEAV<lambda_f03950bc5685219e0bcd2087efbe011e>@@V<lambda_3883c3dff614d5e0c5f61bb1ac94921c>@@@?$__crt_seh_guarded_call@H@@QEAAH$$QEAV<lambda_7777bce6b2f8c936911f934f8298dc43>@@AEAV<lambda_f03950bc5685219e0bcd2087efbe011e>@@$$QEAV<lambda_3883c3dff614d5e0c5f61bb1ac94921c>@@@Z@4HA 00000001800233e1 f   libucrt:onexit.obj
 0001:000223fb       ?filt$0@?0???R<lambda_6e4b09c48022b2350581041d5f6b0c4c>@@QEBA@XZ@4HA 00000001800233fb f   libucrt:exit.obj
 0001:00022416       _query_new_handler$fin$0   0000000180023416 f   libucrt:new_handler.obj
 0001:0002242c       ?fin$0@?0???$?RV<lambda_410d79af7f07d98d83a3f525b3859a53>@@AEAV<lambda_3e16ef9562a7dcce91392c22ab16ea36>@@V<lambda_38119f0e861e05405d8a144b9b982f0a>@@@?$__crt_seh_guarded_call@X@@QEAAX$$QEAV<lambda_410d79af7f07d98d83a3f525b3859a53>@@AEAV<lambda_3e16ef9562a7dcce91392c22ab16ea36>@@$$QEAV<lambda_38119f0e861e05405d8a144b9b982f0a>@@@Z@4HA 000000018002342c f   libucrt:wsetlocale.obj
 0001:00022446       __acrt_initialize_lowio$fin$0 0000000180023446 f   libucrt:ioinit.obj
 0001:00022446       __acrt_lowio_ensure_fh_exists$fin$0 0000000180023446 f   libucrt:osfinfo.obj
 0001:0002245f       ?fin$0@?0??update_thread_multibyte_data_internal@@YAPEAU__crt_multibyte_data@@QEAU__acrt_ptd@@QEAPEAU1@@Z@4HA 000000018002345f f   libucrt:mbctype.obj
 0001:00022478       raise$fin$0                0000000180023478 f   libucrt:signal.obj
 0001:00022499       ?fin$0@?0???$?RV<lambda_842d9ff0dc9ef11c61343bbaebe7f885>@@AEAV<lambda_c5860995281e5c4ce005b3de8f5874ee>@@V<lambda_d90129c13df834fdcbf8d2b88dafcf2d>@@@?$__crt_seh_guarded_call@X@@QEAAX$$QEAV<lambda_842d9ff0dc9ef11c61343bbaebe7f885>@@AEAV<lambda_c5860995281e5c4ce005b3de8f5874ee>@@$$QEAV<lambda_d90129c13df834fdcbf8d2b88dafcf2d>@@@Z@4HA 0000000180023499 f   libucrt:fflush.obj
 0001:000224b4       ?fin$0@?0???$?RV<lambda_886d6c58226a84441f68b9f2b8217b83>@@AEAV<lambda_ab61a845afdef5b7c387490eaf3616ee>@@V<lambda_f7f22ab5edc0698d5f6905b0d3f44752>@@@?$__crt_seh_guarded_call@X@@QEAAX$$QEAV<lambda_886d6c58226a84441f68b9f2b8217b83>@@AEAV<lambda_ab61a845afdef5b7c387490eaf3616ee>@@$$QEAV<lambda_f7f22ab5edc0698d5f6905b0d3f44752>@@@Z@4HA 00000001800234b4 f   libucrt:fflush.obj
 0001:000224d1       __acrt_update_thread_locale_data$fin$0 00000001800234d1 f   libucrt:locale_refcounting.obj
 0001:000224ea       _fcloseall$fin$0           00000001800234ea f   libucrt:closeall.obj
 0001:00022503       ?fin$0@?0???$?RV<lambda_751a882b2c74d4b022dec766aa51a29a>@@AEAV<lambda_628dfdc04ba53c8bfc02c9951375f3f5>@@V<lambda_f6c7be5f7998530c34de24c7437d6b54>@@@?$__crt_seh_guarded_call@H@@QEAAH$$QEAV<lambda_751a882b2c74d4b022dec766aa51a29a>@@AEAV<lambda_628dfdc04ba53c8bfc02c9951375f3f5>@@$$QEAV<lambda_f6c7be5f7998530c34de24c7437d6b54>@@@Z@4HA 0000000180023503 f   libucrt:close.obj
 0001:00022503       ?fin$0@?0???$?RV<lambda_a37b2b86f63e897a80ea819b0eb08c01>@@AEAV<lambda_38ce7e780aa69e748d6df282ebc68efe>@@V<lambda_99fb1378e971ab6e7edea83e3a7a83a2>@@@?$__crt_seh_guarded_call@H@@QEAAH$$QEAV<lambda_a37b2b86f63e897a80ea819b0eb08c01>@@AEAV<lambda_38ce7e780aa69e748d6df282ebc68efe>@@$$QEAV<lambda_99fb1378e971ab6e7edea83e3a7a83a2>@@@Z@4HA 0000000180023503 f   libucrt:commit.obj
 0001:0002251d       _write$fin$0               000000018002351d f   libucrt:write.obj
 0001:00022534       fclose$fin$0               0000000180023534 f   libucrt:fclose.obj
 0001:0002254c       _ctrlfp$filt$0             000000018002354c f   libucrt:fpctrl.obj
 0001:0002254c       common_control87$filt$0    000000018002354c f   libucrt:ieee.obj
 0001:00022580       _IsNonwritableInCurrentImage$filt$0 0000000180023580 f   LIBCMT:pesect.obj
 0001:000225a0       ??__F_AtlComModule@ATL@@YAXXZ 00000001800235a0 f   OposVariant.obj
 0001:000225ac       ??__F_AtlWinModule@ATL@@YAXXZ 00000001800235ac f   OposVariant.obj
 0001:000225f0       ??__F_Module@@YAXXZ        00000001800235f0 f   ElectronicJournal.obj
 0001:0002260c       ??__F_AtlBaseModule@ATL@@YAXXZ 000000018002360c f   atls:atlbase.obj
 0002:00000648       ?_AtlBaseModule$initializer$@ATL@@3P6AXXZEA 0000000180024648     atls:atlbase.obj
 0002:00000650       ?_AtlComModule$initializer$@ATL@@3P6AXXZEA 0000000180024650     OposVariant.obj
 0002:00000658       ?_AtlWinModule$initializer$@ATL@@3P6AXXZEA 0000000180024658     OposVariant.obj
 0002:00000660       ?_Module$initializer$@@3P6AXXZEA 0000000180024660     ElectronicJournal.obj
 0002:00000668       ??pConnMap$initializer$@?$IConnectionPointContainerImpl@VCOPOSElectronicJournal@@@ATL@@0P6AXXZEA@@3P6AXXZEA 0000000180024668     ElectronicJournal.obj
 0002:00000680       ?__scrt_initialize_tss_var@@3P6AHXZEA 0000000180024680     LIBCMT:thread_safe_statics.obj
 0002:00002a28       GS_ExceptionPointers       0000000180026a28     LIBCMT:gs_report.obj
 0002:00002c10       ?ExceptionTemplate@?1??UnwindNestedFrames@__FrameHandler4@@SAXPEA_KPEAUEHExceptionRecord@@PEAU_CONTEXT@@0PEAXPEAUFuncInfo4@FH4@@HHPEAUHandlerType4@6@PEAU_xDISPATCHER_CONTEXT@@E@Z@4U_EXCEPTION_RECORD@@B 0000000180026c10     libvcruntime:risctrnsctrl.obj
 0002:00002ce0       ?tokenTable@@3QBUStringLiteral@@B 0000000180026ce0     libvcruntime:undname.obj
 0002:00002de0       ?nameTable@@3QBUStringLiteral@@B 0000000180026de0     libvcruntime:undname.obj
 0002:00003310       ?rttiTable@@3QBUStringLiteral@@B 0000000180027310     libvcruntime:undname.obj
 0002:00003360       ?IndirectionName@@3QBUStringLiteral@@B 0000000180027360     libvcruntime:undname.obj
 0002:000033c0       ?PrefixName@@3QBUStringLiteral@@B 00000001800273c0     libvcruntime:undname.obj
 0002:00003a98       ?module_names@?A0x5302d918@@3QBQEB_WB 0000000180027a98     libvcruntime:winapi_downlevel.obj
 0002:00003b58       ?candidate_modules@?1??try_get_FlsAlloc@@YAP6AKP6AXPEAX@Z@ZXZ@4QBW4module_id@?A0x5302d918@@B 0000000180027b58     libvcruntime:winapi_downlevel.obj
 0002:00003b70       ?candidate_modules@?1??try_get_FlsFree@@YAP6AHK@ZXZ@4QBW4module_id@?A0x5302d918@@B 0000000180027b70     libvcruntime:winapi_downlevel.obj
 0002:00003b80       ?candidate_modules@?1??try_get_FlsGetValue@@YAP6APEAXK@ZXZ@4QBW4module_id@?A0x5302d918@@B 0000000180027b80     libvcruntime:winapi_downlevel.obj
 0002:00003b98       ?candidate_modules@?1??try_get_FlsSetValue@@YAP6AHKPEAX@ZXZ@4QBW4module_id@?A0x5302d918@@B 0000000180027b98     libvcruntime:winapi_downlevel.obj
 0002:00003bb0       ?candidate_modules@?1??try_get_InitializeCriticalSectionEx@@YAP6AHPEAU_RTL_CRITICAL_SECTION@@KK@ZXZ@4QBW4module_id@?A0x5302d918@@B 0000000180027bb0     libvcruntime:winapi_downlevel.obj
 0002:00003be0       ?errtable@@3QBUerrentry@?A0x31fdb9ec@@B 0000000180027be0     libucrt:errno.obj
 0002:00004270       __acrt_initializers        0000000180028270     libucrt:initialization.obj
 0002:00004370       ?module_names@?A0x391cf84c@@3QBQEB_WB 0000000180028370     libucrt:winapi_thunks.obj
 0002:00004878       ?candidate_modules@?1??try_get_AreFileApisANSI@@YAP6AHXZXZ@4QBW4module_id@?A0x391cf84c@@B 0000000180028878     libucrt:winapi_thunks.obj
 0002:00004890       ?candidate_modules@?1??try_get_FlsAlloc@@YAP6AKP6AXPEAX@Z@ZXZ@4QBW4module_id@?A0x391cf84c@@B 0000000180028890     libucrt:winapi_thunks.obj
 0002:00004898       ?candidate_modules@?1??try_get_FlsFree@@YAP6AHK@ZXZ@4QBW4module_id@?A0x391cf84c@@B 0000000180028898     libucrt:winapi_thunks.obj
 0002:000048a0       ?candidate_modules@?1??try_get_FlsGetValue@@YAP6APEAXK@ZXZ@4QBW4module_id@?A0x391cf84c@@B 00000001800288a0     libucrt:winapi_thunks.obj
 0002:000048a8       ?candidate_modules@?1??try_get_FlsSetValue@@YAP6AHKPEAX@ZXZ@4QBW4module_id@?A0x391cf84c@@B 00000001800288a8     libucrt:winapi_thunks.obj
 0002:000048b0       ?candidate_modules@?1??try_get_InitializeCriticalSectionEx@@YAP6AHPEAU_RTL_CRITICAL_SECTION@@KK@ZXZ@4QBW4module_id@?A0x391cf84c@@B 00000001800288b0     libucrt:winapi_thunks.obj
 0002:000048b8       ?candidate_modules@?1??try_get_LCMapStringEx@@YAP6AHPEB_WK0HPEA_WHPEAU_nlsversioninfo@@PEAX_J@ZXZ@4QBW4module_id@?A0x391cf84c@@B 00000001800288b8     libucrt:winapi_thunks.obj
 0002:000048d0       ?candidate_modules@?1??try_get_LocaleNameToLCID@@YAP6AKPEB_WK@ZXZ@4QBW4module_id@?A0x391cf84c@@B 00000001800288d0     libucrt:winapi_thunks.obj
 0002:000048ec       ?candidate_modules@?1??try_get_AppPolicyGetProcessTerminationMethod@@YAP6AJPEAXPEAW4AppPolicyProcessTerminationMethod@@@ZXZ@4QBW4module_id@?A0x391cf84c@@B 00000001800288ec     libucrt:winapi_thunks.obj
 0002:00004918       ?candidate_modules@?1??try_get_SetThreadStackGuarantee@@YAP6AHPEAK@ZXZ@4QBW4module_id@?A0x391cf84c@@B 0000000180028918     libucrt:winapi_thunks.obj
 0002:00004940       ?strings@?1??fp_format_nan_or_infinity@@YAHW4__acrt_fp_class@@_NPEAD_K1@Z@4QAY03QEBDA 0000000180028940     libucrt:cvt.obj
 0002:000050a0       ?_mb_locale_names@@3QBQEB_WB 00000001800290a0     libucrt:mbctype.obj
 0002:00005910       ?LcidToLocaleNameTable@?A0x881e4c05@@3QBULcidToLocaleName@1@B 0000000180029910     libucrt:lcidtoname_downlevel.obj
 0002:00007370       ?LocaleNameToIndexTable@?A0x881e4c05@@3QBULocaleNameIndex@1@B 000000018002b370     libucrt:lcidtoname_downlevel.obj
 0002:00009610       __real_ninf                000000018002d610     libucrt:log10.obj
 0002:00009620       __real_inf                 000000018002d620     libucrt:log10.obj
 0002:00009630       __real_neg_qnan            000000018002d630     libucrt:log10.obj
 0002:00009640       __real_qnanbit             000000018002d640     libucrt:log10.obj
 0002:00009650       __int_1023                 000000018002d650     libucrt:log10.obj
 0002:00009660       __mask_001                 000000018002d660     libucrt:log10.obj
 0002:00009670       __mask_mant                000000018002d670     libucrt:log10.obj
 0002:00009680       __mask_mant_top8           000000018002d680     libucrt:log10.obj
 0002:00009690       __mask_mant9               000000018002d690     libucrt:log10.obj
 0002:000096a0       __real_log10_e             000000018002d6a0     libucrt:log10.obj
 0002:000096b0       __real_log10_e_lead        000000018002d6b0     libucrt:log10.obj
 0002:000096c0       __real_log10_e_tail        000000018002d6c0     libucrt:log10.obj
 0002:000096d0       __real_log10_2_lead        000000018002d6d0     libucrt:log10.obj
 0002:000096e0       __real_log10_2_tail        000000018002d6e0     libucrt:log10.obj
 0002:000096f0       __real_two                 000000018002d6f0     libucrt:log10.obj
 0002:00009700       __real_one                 000000018002d700     libucrt:log10.obj
 0002:00009710       __real_half                000000018002d710     libucrt:log10.obj
 0002:00009720       __mask_100                 000000018002d720     libucrt:log10.obj
 0002:00009730       __real_1_over_512          000000018002d730     libucrt:log10.obj
 0002:00009740       __real_1_over_2            000000018002d740     libucrt:log10.obj
 0002:00009750       __real_1_over_3            000000018002d750     libucrt:log10.obj
 0002:00009760       __real_1_over_4            000000018002d760     libucrt:log10.obj
 0002:00009770       __real_1_over_5            000000018002d770     libucrt:log10.obj
 0002:00009780       __real_1_over_6            000000018002d780     libucrt:log10.obj
 0002:00009790       __real_neg_1023            000000018002d790     libucrt:log10.obj
 0002:000097a0       __mask_2045                000000018002d7a0     libucrt:log10.obj
 0002:000097b0       __real_threshold           000000018002d7b0     libucrt:log10.obj
 0002:000097c0       __real_near_one_lt         000000018002d7c0     libucrt:log10.obj
 0002:000097d0       __real_near_one_gt         000000018002d7d0     libucrt:log10.obj
 0002:000097e0       __real_min_norm            000000018002d7e0     libucrt:log10.obj
 0002:000097f0       __real_notsign             000000018002d7f0     libucrt:log10.obj
 0002:00009800       __real_ca1                 000000018002d800     libucrt:log10.obj
 0002:00009810       __real_ca2                 000000018002d810     libucrt:log10.obj
 0002:00009820       __real_ca3                 000000018002d820     libucrt:log10.obj
 0002:00009830       __real_ca4                 000000018002d830     libucrt:log10.obj
 0002:00009840       __mask_lower               000000018002d840     libucrt:log10.obj
 0002:00009850       __flag_x_zero              000000018002d850     libucrt:log10.obj
 0002:00009854       __flag_x_neg               000000018002d854     libucrt:log10.obj
 0002:00009858       __flag_x_nan               000000018002d858     libucrt:log10.obj
 0002:0000b0b0       __real@433fffffffffffff    000000018002f0b0     libucrt:fpsr.obj
 0002:0000b0b8       __real@c33fffffffffffff    000000018002f0b8     libucrt:fpsr.obj
 0002:0000b930       $unwind$?cw_memcpy@@YAHPEA_WPEBDH@Z 000000018002f930     CWString.obj
 0002:0000b930       $unwind$?ProcessWindowMessage@?$CComControl@VCOPOSElectronicJournal@@V?$CWindowImpl@VCOPOSElectronicJournal@@VCWindow@ATL@@V?$CWinTraits@$0FGAAAAAA@$0A@@3@@ATL@@@ATL@@UEAAHPEAUHWND__@@I_K_JAEA_JK@Z 000000018002f930     ElectronicJournal.obj
 0002:0000b930       $unwind$wcstol             000000018002f930     libucrt:strtox.obj
 0002:0000b930       $unwind$_invalid_parameter_noinfo 000000018002f930     libucrt:invalid_parameter.obj
 0002:0000b930       $unwind$_log10_special     000000018002f930     libucrt:log_special.obj
 0002:0000b938       $unwind$?cw_strcpy@@YAHPEA_WPEBD@Z 000000018002f938     CWString.obj
 0002:0000b938       $unwind$??__E?pConnMap@?$IConnectionPointContainerImpl@VCOPOSElectronicJournal@@@ATL@@0PEBU_ATL_CONNMAP_ENTRY@2@EB@@YAXXZ 000000018002f938     ElectronicJournal.obj
 0002:0000b938       $unwind$?AddReplacement@CRegObject@ATL@@UEAAJPEB_W0@Z 000000018002f938     ElectronicJournal.obj
 0002:0000b938       $unwind$?AtlHresultFromLastError@ATL@@YAJXZ 000000018002f938     ElectronicJournal.obj
 0002:0000b938       $unwind$?AtlThrowImpl@ATL@@YAXJ@Z 000000018002f938     ElectronicJournal.obj
 0002:0000b938       $unwind$?CreateInstance@CComClassFactory@ATL@@UEAAJPEAUIUnknown@@AEBU_GUID@@PEAPEAX@Z 000000018002f938     ElectronicJournal.obj
 0002:0000b938       $unwind$?DefaultReflectionHandler@?$CWindowImplRoot@VCWindow@ATL@@@ATL@@SAHPEAUHWND__@@I_K_JAEA_J@Z 000000018002f938     ElectronicJournal.obj
 0002:0000b938       $unwind$?EnumAdvise@?$IOleObjectImpl@VCOPOSElectronicJournal@@@ATL@@UEAAJPEAPEAUIEnumSTATDATA@@@Z 000000018002f938     ElectronicJournal.obj
 0002:0000b938       $unwind$?FireViewChange@CComControlBase@ATL@@QEAAJXZ 000000018002f938     ElectronicJournal.obj
 0002:0000b938       $unwind$?GetAdvise@?$IViewObjectExImpl@VCOPOSElectronicJournal@@@ATL@@UEAAJPEAK0PEAPEAUIAdviseSink@@@Z 000000018002f938     ElectronicJournal.obj
 0002:0000b938       $unwind$?LockServer@CComClassFactory@ATL@@UEAAJH@Z 000000018002f938     ElectronicJournal.obj
 0002:0000b938       $unwind$?OnDocWindowActivate@?$IOleInPlaceActiveObjectImpl@VCOPOSElectronicJournal@@@ATL@@UEAAJH@Z 000000018002f938     ElectronicJournal.obj
 0002:0000b938       $unwind$?Unadvise@?$IOleObjectImpl@VCOPOSElectronicJournal@@@ATL@@UEAAJK@Z 000000018002f938     ElectronicJournal.obj
 0002:0000b938       $unwind$?_LocCPQueryInterface@?$IConnectionPointImpl@VCOPOSElectronicJournal@@$1?DIID__IOPOSElectronicJournalEvents@@3U_GUID@@BVCComDynamicUnkArray@ATL@@@ATL@@UEAAJAEBU_GUID@@PEAPEAX@Z 000000018002f938     ElectronicJournal.obj
 0002:0000b938       $unwind$?_LocCPQueryInterface@?$IConnectionPointImpl@VCOPOSElectronicJournal@@$1?IID_IPropertyNotifySink@@3U_GUID@@BVCComDynamicUnkArray@ATL@@@ATL@@UEAAJAEBU_GUID@@PEAPEAX@Z 000000018002f938     ElectronicJournal.obj
 0002:0000b938       $unwind$?FinalConstruct@COPOSElectronicJournal@@QEAAJXZ 000000018002f938     ElectronicJournalImpl.obj
 0002:0000b938       $unwind$?get_ResultCode@COPOSElectronicJournal@@UEAAJPEAJ@Z 000000018002f938     ElectronicJournalImpl.obj
 0002:0000b938       $unwind$?get_State@COPOSElectronicJournal@@UEAAJPEAJ@Z 000000018002f938     ElectronicJournalImpl.obj
 0002:0000b938       $unwind$??1OposDispParms@@QEAA@XZ 000000018002f938     OposVariant.obj
 0002:0000b938       $unwind$??__E_AtlComModule@ATL@@YAXXZ 000000018002f938     OposVariant.obj
 0002:0000b938       $unwind$??__E_AtlWinModule@ATL@@YAXXZ 000000018002f938     OposVariant.obj
 0002:0000b938       $unwind$??__F_AtlWinModule@ATL@@YAXXZ 000000018002f938     OposVariant.obj
 0002:0000b938       $unwind$?GetLONG@OposVariant@@QEAAJXZ 000000018002f938     OposVariant.obj
 0002:0000b938       $unwind$??__E_AtlBaseModule@ATL@@YAXXZ 000000018002f938     atls:atlbase.obj
 0002:0000b938       $unwind$__scrt_initialize_default_local_stdio_options 000000018002f938     LIBCMT:default_local_stdio_options.obj
 0002:0000b938       $unwind$?dllmain_crt_dispatch@@YAHQEAUHINSTANCE__@@KQEAX@Z 000000018002f938     LIBCMT:dll_dllmain.obj
 0002:0000b938       $unwind$__report_rangecheckfailure 000000018002f938     LIBCMT:gs_report.obj
 0002:0000b938       $unwind$__GSHandlerCheck   000000018002f938     LIBCMT:gshandler.obj
 0002:0000b938       $unwind$?__scrt_uninitialize_thread_safe_statics@@YAXXZ 000000018002f938     LIBCMT:thread_safe_statics.obj
 0002:0000b938       $unwind$_Init_thread_notify 000000018002f938     LIBCMT:thread_safe_statics.obj
 0002:0000b938       $unwind$__scrt_acquire_startup_lock 000000018002f938     LIBCMT:utility.obj
 0002:0000b938       $unwind$__scrt_dllmain_after_initialize_c 000000018002f938     LIBCMT:utility.obj
 0002:0000b938       $unwind$__scrt_dllmain_before_initialize_c 000000018002f938     LIBCMT:utility.obj
 0002:0000b938       $unwind$__scrt_dllmain_crt_thread_attach 000000018002f938     LIBCMT:utility.obj
 0002:0000b938       $unwind$__scrt_dllmain_crt_thread_detach 000000018002f938     LIBCMT:utility.obj
 0002:0000b938       $unwind$__scrt_dllmain_uninitialize_c 000000018002f938     LIBCMT:utility.obj
 0002:0000b938       $unwind$__scrt_dllmain_uninitialize_critical 000000018002f938     LIBCMT:utility.obj
 0002:0000b938       $unwind$atexit             000000018002f938     LIBCMT:utility.obj
 0002:0000b938       $unwind$__vcrt_initialize  000000018002f938     libvcruntime:initialization.obj
 0002:0000b938       $unwind$__vcrt_thread_attach 000000018002f938     libvcruntime:initialization.obj
 0002:0000b938       $unwind$__vcrt_thread_detach 000000018002f938     libvcruntime:initialization.obj
 0002:0000b938       $unwind$__vcrt_uninitialize 000000018002f938     libvcruntime:initialization.obj
 0002:0000b938       $unwind$__vcrt_uninitialize_critical 000000018002f938     libvcruntime:initialization.obj
 0002:0000b938       $unwind$__vcrt_initialize_locks 000000018002f938     libvcruntime:locks.obj
 0002:0000b938       $unwind$__vcrt_freefls     000000018002f938     libvcruntime:per_thread_data.obj
 0002:0000b938       $unwind$__vcrt_getptd      000000018002f938     libvcruntime:per_thread_data.obj
 0002:0000b938       $unwind$__vcrt_initialize_ptd 000000018002f938     libvcruntime:per_thread_data.obj
 0002:0000b938       $unwind$__vcrt_uninitialize_ptd 000000018002f938     libvcruntime:per_thread_data.obj
 0002:0000b938       $unwind$_purecall          000000018002f938     libvcruntime:purevirt.obj
 0002:0000b938       $unwind$?FrameUnwindToEmptyState@__FrameHandler4@@SAXPEA_KPEAU_xDISPATCHER_CONTEXT@@PEAUFuncInfo4@FH4@@@Z 000000018002f938     libvcruntime:risctrnsctrl.obj
 0002:0000b938       $unwind$_GetImageBase      000000018002f938     libvcruntime:risctrnsctrl.obj
 0002:0000b938       $unwind$_GetThrowImageBase 000000018002f938     libvcruntime:risctrnsctrl.obj
 0002:0000b938       $unwind$__dcrt_terminate_console_output 000000018002f938     libucrt:initcon.obj
 0002:0000b938       $unwind$??$uninitialize_environment_internal@D@@YAXAEAPEAPEAD@Z 000000018002f938     libucrt:environment_initialization.obj
 0002:0000b938       $unwind$??$uninitialize_environment_internal@_W@@YAXAEAPEAPEA_W@Z 000000018002f938     libucrt:environment_initialization.obj
 0002:0000b938       $unwind$__dcrt_uninitialize_environments_nolock 000000018002f938     libucrt:environment_initialization.obj
 0002:0000b938       $unwind$__acrt_initialize_heap 000000018002f938     libucrt:heap_handle.obj
 0002:0000b938       $unwind$_msize_base        000000018002f938     libucrt:msize.obj
 0002:0000b938       $unwind$?initialize_multibyte@@YAHXZ 000000018002f938     libucrt:multibyte_initializer.obj
 0002:0000b938       $unwind$__acrt_thread_attach 000000018002f938     libucrt:initialization.obj
 0002:0000b938       $unwind$__acrt_thread_detach 000000018002f938     libucrt:initialization.obj
 0002:0000b938       $unwind$__acrt_uninitialize 000000018002f938     libucrt:initialization.obj
 0002:0000b938       $unwind$__acrt_uninitialize_critical 000000018002f938     libucrt:initialization.obj
 0002:0000b938       $unwind$initialize_c       000000018002f938     libucrt:initialization.obj
 0002:0000b938       $unwind$uninitialize_allocated_io_buffers 000000018002f938     libucrt:initialization.obj
 0002:0000b938       $unwind$uninitialize_environment 000000018002f938     libucrt:initialization.obj
 0002:0000b938       $unwind$__acrt_initialize_ptd 000000018002f938     libucrt:per_thread_data.obj
 0002:0000b938       $unwind$__acrt_uninitialize_ptd 000000018002f938     libucrt:per_thread_data.obj
 0002:0000b938       $unwind$__acrt_AreFileApisANSI 000000018002f938     libucrt:winapi_thunks.obj
 0002:0000b938       $unwind$__pctype_func      000000018002f938     libucrt:ctype.obj
 0002:0000b938       $unwind$__acrt_release_locale_ref 000000018002f938     libucrt:locale_refcounting.obj
 0002:0000b938       $unwind$_isatty            000000018002f938     libucrt:isatty.obj
 0002:0000b938       $unwind$_get_osfhandle     000000018002f938     libucrt:osfinfo.obj
 0002:0000b938       $unwind$__acrt_initialize_multibyte 000000018002f938     libucrt:mbctype.obj
 0002:0000b938       $unwind$__acrt_update_thread_multibyte_data 000000018002f938     libucrt:mbctype.obj
 0002:0000b938       $unwind$__doserrno         000000018002f938     libucrt:errno.obj
 0002:0000b938       $unwind$_errno             000000018002f938     libucrt:errno.obj
 0002:0000b938       $unwind$_invoke_watson     000000018002f938     libucrt:invalid_parameter.obj
 0002:0000b938       $unwind$abort              000000018002f938     libucrt:abort.obj
 0002:0000b938       $unwind$__acrt_initialize_command_line 000000018002f938     libucrt:argv_data.obj
 0002:0000b938       $unwind$_fileno            000000018002f938     libucrt:fileno.obj
 0002:0000b938       $unwind$?state_case_size@?$output_processor@_WV?$string_output_adapter@_W@__crt_stdio_output@@V?$format_validation_base@_WV?$string_output_adapter@_W@__crt_stdio_output@@@2@@__crt_stdio_output@@AEAA_NXZ 000000018002f938     libucrt:output.obj
 0002:0000b938       $unwind$_statfp            000000018002f938     libucrt:fpctrl.obj
 0002:0000b938       $unwind$fegetround         000000018002f938     libucrt:fegetround.obj
 0002:0000b938       $unwind$_set_errno_from_matherr 000000018002f938     libucrt:fpexcept.obj
 0002:0000b940       $unwind$?cw_dup@@YAXPEBDAEAHAEAPEA_W1@Z 000000018002f940     CWString.obj
 0002:0000b940       $unwind$?DAdvise@?$IDataObjectImpl@VCOPOSElectronicJournal@@@ATL@@UEAAJPEAUtagFORMATETC@@KPEAUIAdviseSink@@PEAK@Z 000000018002f940     ElectronicJournal.obj
 0002:0000b940       $unwind$??$__acrt_mbs_to_wcs_cp@U__crt_win32_buffer_internal_dynamic_resizing@@@@YAHQEBDAEAV?$__crt_win32_buffer@_WU__crt_win32_buffer_internal_dynamic_resizing@@@@I@Z 000000018002f940     libucrt:argv_wildcards.obj
 0002:0000b958       $unwind$?DupWide@_CW@@AEAAXXZ 000000018002f958     CWString.obj
 0002:0000b958       $unwind$??0?$CComObject@VCOPOSElectronicJournal@@@ATL@@QEAA@PEAX@Z 000000018002f958     ElectronicJournal.obj
 0002:0000b958       $unwind$??0CAtlModule@ATL@@QEAA@XZ 000000018002f958     ElectronicJournal.obj
 0002:0000b958       $unwind$??1?$CComObject@VCOPOSElectronicJournal@@@ATL@@UEAA@XZ 000000018002f958     ElectronicJournal.obj
 0002:0000b958       $unwind$??__E_Module@@YAXXZ 000000018002f958     ElectronicJournal.obj
 0002:0000b958       $unwind$?AddRef@?$CComObjectCached@VCComClassFactory@ATL@@@ATL@@UEAAKXZ 000000018002f958     ElectronicJournal.obj
 0002:0000b958       $unwind$?AllocateHeap@?$CTempBuffer@E$0BAA@VCCRTAllocator@ATL@@@ATL@@AEAAX_K@Z 000000018002f958     ElectronicJournal.obj
 0002:0000b958       $unwind$?AllocateHeap@?$CTempBuffer@_W$0BAA@VCCRTAllocator@ATL@@@ATL@@AEAAX_K@Z 000000018002f958     ElectronicJournal.obj
 0002:0000b958       $unwind$?AllocateHeap@?$CTempBuffer@_W$0EAA@VCCRTAllocator@ATL@@@ATL@@AEAAX_K@Z 000000018002f958     ElectronicJournal.obj
 0002:0000b958       $unwind$?GetClassInfoW@?$IProvideClassInfo2Impl@$1?CLSID_OPOSElectronicJournal@@3U_GUID@@B$1?DIID__IOPOSElectronicJournalEvents@@3U2@B$1?LIBID_OposElectronicJournal_CCO@@3U2@B$00$0A@VCComTypeInfoHolder@ATL@@@ATL@@UEAAJPEAPEAUITypeInfo@@@Z 000000018002f958     ElectronicJournal.obj
 0002:0000b958       $unwind$?GetClientSite@?$IOleObjectImpl@VCOPOSElectronicJournal@@@ATL@@UEAAJPEAPEAUIOleClientSite@@@Z 000000018002f958     ElectronicJournal.obj
 0002:0000b958       $unwind$?GetConnMap@COPOSElectronicJournal@@SAPEBU_ATL_CONNMAP_ENTRY@ATL@@PEAH@Z 000000018002f958     ElectronicJournal.obj
 0002:0000b958       $unwind$?GetTypeInfo@?$IDispatchImpl@UIOPOSElectronicJournal@@$1?IID_IOPOSElectronicJournal@@3U_GUID@@B$1?LIBID_OposElectronicJournal_CCO@@3U3@B$00$0A@VCComTypeInfoHolder@ATL@@@ATL@@UEAAJIKPEAPEAUITypeInfo@@@Z 000000018002f958     ElectronicJournal.obj
 0002:0000b958       $unwind$?IOleInPlaceObject_InPlaceDeactivate@CComControlBase@ATL@@QEAAJXZ 000000018002f958     ElectronicJournal.obj
 0002:0000b958       $unwind$?IOleObject_SetExtent@CComControlBase@ATL@@QEAAJKPEAUtagSIZE@@@Z 000000018002f958     ElectronicJournal.obj
 0002:0000b958       $unwind$?IsEqualObject@?$CComPtrBase@UIOleClientSite@@@ATL@@QEAA_NPEAUIUnknown@@@Z 000000018002f958     ElectronicJournal.obj
 0002:0000b958       $unwind$?QueryHitPoint@?$IViewObjectExImpl@VCOPOSElectronicJournal@@@ATL@@UEAAJKPEBUtagRECT@@UtagPOINT@@JPEAK@Z 000000018002f958     ElectronicJournal.obj
 0002:0000b958       $unwind$?QueryInterface@?$CComAggObject@VCOPOSElectronicJournal@@@ATL@@UEAAJAEBU_GUID@@PEAPEAX@Z 000000018002f958     ElectronicJournal.obj
 0002:0000b958       $unwind$?Release@?$CComObjectCached@VCComClassFactory@ATL@@@ATL@@UEAAKXZ 000000018002f958     ElectronicJournal.obj
 0002:0000b958       $unwind$?Unadvise@?$IConnectionPointImpl@VCOPOSElectronicJournal@@$1?DIID__IOPOSElectronicJournalEvents@@3U_GUID@@BVCComDynamicUnkArray@ATL@@@ATL@@UEAAJK@Z 000000018002f958     ElectronicJournal.obj
 0002:0000b958       $unwind$?Unadvise@?$IConnectionPointImpl@VCOPOSElectronicJournal@@$1?IID_IPropertyNotifySink@@3U_GUID@@BVCComDynamicUnkArray@ATL@@@ATL@@UEAAJK@Z 000000018002f958     ElectronicJournal.obj
 0002:0000b958       $unwind$??1CComControlBase@ATL@@UEAA@XZ 000000018002f958     ElectronicJournalImpl.obj
 0002:0000b958       $unwind$??1COPOSElectronicJournal@@UEAA@XZ 000000018002f958     ElectronicJournalImpl.obj
 0002:0000b958       $unwind$?EventUninit@COPOSElectronicJournal@@IEAAXXZ 000000018002f958     ElectronicJournalImpl.obj
 0002:0000b958       $unwind$?FreezeEvents@COPOSElectronicJournal@@MEAAJH@Z 000000018002f958     ElectronicJournalImpl.obj
 0002:0000b958       $unwind$?SOProcessID@COPOSElectronicJournal@@UEAAJPEAJ@Z 000000018002f958     ElectronicJournalImpl.obj
 0002:0000b958       $unwind$?get_AsyncMode@COPOSElectronicJournal@@UEAAJPEAF@Z 000000018002f958     ElectronicJournalImpl.obj
 0002:0000b958       $unwind$?get_AutoDisable@COPOSElectronicJournal@@UEAAJPEAF@Z 000000018002f958     ElectronicJournalImpl.obj
 0002:0000b958       $unwind$?get_CapAddMarker@COPOSElectronicJournal@@UEAAJPEAF@Z 000000018002f958     ElectronicJournalImpl.obj
 0002:0000b958       $unwind$?get_CapCompareFirmwareVersion@COPOSElectronicJournal@@UEAAJPEAF@Z 000000018002f958     ElectronicJournalImpl.obj
 0002:0000b958       $unwind$?get_CapErasableMedium@COPOSElectronicJournal@@UEAAJPEAF@Z 000000018002f958     ElectronicJournalImpl.obj
 0002:0000b958       $unwind$?get_CapInitializeMedium@COPOSElectronicJournal@@UEAAJPEAF@Z 000000018002f958     ElectronicJournalImpl.obj
 0002:0000b958       $unwind$?get_CapMediumIsAvailable@COPOSElectronicJournal@@UEAAJPEAF@Z 000000018002f958     ElectronicJournalImpl.obj
 0002:0000b958       $unwind$?get_CapPrintContent@COPOSElectronicJournal@@UEAAJPEAF@Z 000000018002f958     ElectronicJournalImpl.obj
 0002:0000b958       $unwind$?get_CapPrintContentFile@COPOSElectronicJournal@@UEAAJPEAF@Z 000000018002f958     ElectronicJournalImpl.obj
 0002:0000b958       $unwind$?get_CapRetrieveCurrentMarker@COPOSElectronicJournal@@UEAAJPEAF@Z 000000018002f958     ElectronicJournalImpl.obj
 0002:0000b958       $unwind$?get_CapRetrieveMarker@COPOSElectronicJournal@@UEAAJPEAF@Z 000000018002f958     ElectronicJournalImpl.obj
 0002:0000b958       $unwind$?get_CapRetrieveMarkerByDateTime@COPOSElectronicJournal@@UEAAJPEAF@Z 000000018002f958     ElectronicJournalImpl.obj
 0002:0000b958       $unwind$?get_CapRetrieveMarkersDateTime@COPOSElectronicJournal@@UEAAJPEAF@Z 000000018002f958     ElectronicJournalImpl.obj
 0002:0000b958       $unwind$?get_CapStatisticsReporting@COPOSElectronicJournal@@UEAAJPEAF@Z 000000018002f958     ElectronicJournalImpl.obj
 0002:0000b958       $unwind$?get_CapStorageEnabled@COPOSElectronicJournal@@UEAAJPEAF@Z 000000018002f958     ElectronicJournalImpl.obj
 0002:0000b958       $unwind$?get_CapSuspendPrintContent@COPOSElectronicJournal@@UEAAJPEAF@Z 000000018002f958     ElectronicJournalImpl.obj
 0002:0000b958       $unwind$?get_CapSuspendQueryContent@COPOSElectronicJournal@@UEAAJPEAF@Z 000000018002f958     ElectronicJournalImpl.obj
 0002:0000b958       $unwind$?get_CapUpdateFirmware@COPOSElectronicJournal@@UEAAJPEAF@Z 000000018002f958     ElectronicJournalImpl.obj
 0002:0000b958       $unwind$?get_CapUpdateStatistics@COPOSElectronicJournal@@UEAAJPEAF@Z 000000018002f958     ElectronicJournalImpl.obj
 0002:0000b958       $unwind$?get_CapWaterMark@COPOSElectronicJournal@@UEAAJPEAF@Z 000000018002f958     ElectronicJournalImpl.obj
 0002:0000b958       $unwind$?get_Claimed@COPOSElectronicJournal@@UEAAJPEAF@Z 000000018002f958     ElectronicJournalImpl.obj
 0002:0000b958       $unwind$?get_DataEventEnabled@COPOSElectronicJournal@@UEAAJPEAF@Z 000000018002f958     ElectronicJournalImpl.obj
 0002:0000b958       $unwind$?get_DeviceEnabled@COPOSElectronicJournal@@UEAAJPEAF@Z 000000018002f958     ElectronicJournalImpl.obj
 0002:0000b958       $unwind$?get_FlagWhenIdle@COPOSElectronicJournal@@UEAAJPEAF@Z 000000018002f958     ElectronicJournalImpl.obj
 0002:0000b958       $unwind$?get_FreezeEvents@COPOSElectronicJournal@@UEAAJPEAF@Z 000000018002f958     ElectronicJournalImpl.obj
 0002:0000b958       $unwind$?get_MediumIsAvailable@COPOSElectronicJournal@@UEAAJPEAF@Z 000000018002f958     ElectronicJournalImpl.obj
 0002:0000b958       $unwind$?get_StorageEnabled@COPOSElectronicJournal@@UEAAJPEAF@Z 000000018002f958     ElectronicJournalImpl.obj
 0002:0000b958       $unwind$?get_Suspended@COPOSElectronicJournal@@UEAAJPEAF@Z 000000018002f958     ElectronicJournalImpl.obj
 0002:0000b958       $unwind$?get_WaterMark@COPOSElectronicJournal@@UEAAJPEAF@Z 000000018002f958     ElectronicJournalImpl.obj
 0002:0000b958       $unwind$?put_FreezeEvents@COPOSElectronicJournal@@UEAAJF@Z 000000018002f958     ElectronicJournalImpl.obj
 0002:0000b958       $unwind$??0CAtlComModule@ATL@@QEAA@XZ 000000018002f958     OposVariant.obj
 0002:0000b958       $unwind$??0CAtlWinModule@ATL@@QEAA@XZ 000000018002f958     OposVariant.obj
 0002:0000b958       $unwind$?SetBSTR_OutPtr@OposVariant@@QEAA_NPEAPEA_WAEAJ@Z 000000018002f958     OposVariant.obj
 0002:0000b958       $unwind$??1CAtlBaseModule@ATL@@QEAA@XZ 000000018002f958     atls:atlbase.obj
 0002:0000b958       $unwind$AtlThunk_AllocateData 000000018002f958     atls:atlthunk.obj
 0002:0000b958       $unwind$__raise_securityfailure 000000018002f958     LIBCMT:gs_report.obj
 0002:0000b958       $unwind$??2@YAPEAX_K@Z     000000018002f958     LIBCMT:new_scalar.obj
 0002:0000b958       $unwind$??_Gtype_info@@UEAAPEAXI@Z 000000018002f958     LIBCMT:std_type_info_static.obj
 0002:0000b958       $unwind$_Init_thread_footer 000000018002f958     LIBCMT:thread_safe_statics.obj
 0002:0000b958       $unwind$_Init_thread_header 000000018002f958     LIBCMT:thread_safe_statics.obj
 0002:0000b958       $unwind$_Init_thread_wait  000000018002f958     LIBCMT:thread_safe_statics.obj
 0002:0000b958       $unwind$??0bad_alloc@std@@QEAA@AEBV01@@Z 000000018002f958     LIBCMT:throw_bad_alloc.obj
 0002:0000b958       $unwind$??0bad_array_new_length@std@@QEAA@AEBV01@@Z 000000018002f958     LIBCMT:throw_bad_alloc.obj
 0002:0000b958       $unwind$??0exception@std@@QEAA@AEBV01@@Z 000000018002f958     LIBCMT:throw_bad_alloc.obj
 0002:0000b958       $unwind$__scrt_initialize_crt 000000018002f958     LIBCMT:utility.obj
 0002:0000b958       $unwind$__scrt_initialize_onexit_tables 000000018002f958     LIBCMT:utility.obj
 0002:0000b958       $unwind$__scrt_release_startup_lock 000000018002f958     LIBCMT:utility.obj
 0002:0000b958       $unwind$__scrt_uninitialize_crt 000000018002f958     LIBCMT:utility.obj
 0002:0000b958       $unwind$_onexit            000000018002f958     LIBCMT:utility.obj
 0002:0000b958       $unwind$_IsExceptionObjectToBeDestroyed 000000018002f958     libvcruntime:ehhelpers.obj
 0002:0000b958       $unwind$??0HandlerMap4@FH4@@QEAA@PEBUTryBlockMapEntry4@1@_KH@Z 000000018002f958     libvcruntime:frame.obj
 0002:0000b958       $unwind$??0bad_exception@std@@QEAA@AEBV01@@Z 000000018002f958     libvcruntime:frame.obj
 0002:0000b958       $unwind$?ExFilterRethrow@@YAHPEAU_EXCEPTION_POINTERS@@PEAUEHExceptionRecord@@PEAH@Z 000000018002f958     libvcruntime:frame.obj
 0002:0000b958       $unwind$__vcrt_uninitialize_locks 000000018002f958     libvcruntime:locks.obj
 0002:0000b958       $unwind$__vcrt_freeptd     000000018002f958     libvcruntime:per_thread_data.obj
 0002:0000b958       $unwind$_CreateFrameInfo   000000018002f958     libvcruntime:risctrnsctrl.obj
 0002:0000b958       $unwind$_SetImageBase      000000018002f958     libvcruntime:risctrnsctrl.obj
 0002:0000b958       $unwind$_SetThrowImageBase 000000018002f958     libvcruntime:risctrnsctrl.obj
 0002:0000b958       $unwind$__std_exception_destroy 000000018002f958     libvcruntime:std_exception.obj
 0002:0000b958       $unwind$__std_type_info_destroy_list 000000018002f958     libvcruntime:std_type_info.obj
 0002:0000b958       $unwind$__vcrt_FlsAlloc    000000018002f958     libvcruntime:winapi_downlevel.obj
 0002:0000b958       $unwind$__vcrt_FlsFree     000000018002f958     libvcruntime:winapi_downlevel.obj
 0002:0000b958       $unwind$__vcrt_FlsGetValue 000000018002f958     libvcruntime:winapi_downlevel.obj
 0002:0000b958       $unwind$_calloc_base       000000018002f958     libucrt:calloc_base.obj
 0002:0000b958       $unwind$_malloc_base       000000018002f958     libucrt:malloc_base.obj
 0002:0000b958       $unwind$_callnewh          000000018002f958     libucrt:new_handler.obj
 0002:0000b958       $unwind$initialize_pointers 000000018002f958     libucrt:initialization.obj
 0002:0000b958       $unwind$uninitialize_allocated_memory 000000018002f958     libucrt:initialization.obj
 0002:0000b958       $unwind$__acrt_initialize_locks 000000018002f958     libucrt:locks.obj
 0002:0000b958       $unwind$__acrt_uninitialize_locks 000000018002f958     libucrt:locks.obj
 0002:0000b958       $unwind$__acrt_freeptd     000000018002f958     libucrt:per_thread_data.obj
 0002:0000b958       $unwind$__acrt_getptd_head 000000018002f958     libucrt:per_thread_data.obj
 0002:0000b958       $unwind$__acrt_get_process_end_policy 000000018002f958     libucrt:win_policies.obj
 0002:0000b958       $unwind$__acrt_AppPolicyGetProcessTerminationMethodInternal 000000018002f958     libucrt:winapi_thunks.obj
 0002:0000b958       $unwind$__acrt_FlsAlloc    000000018002f958     libucrt:winapi_thunks.obj
 0002:0000b958       $unwind$__acrt_FlsFree     000000018002f958     libucrt:winapi_thunks.obj
 0002:0000b958       $unwind$__acrt_FlsGetValue 000000018002f958     libucrt:winapi_thunks.obj
 0002:0000b958       $unwind$__acrt_SetThreadStackGuarantee 000000018002f958     libucrt:winapi_thunks.obj
 0002:0000b958       $unwind$__acrt_uninitialize_winapi_thunks 000000018002f958     libucrt:winapi_thunks.obj
 0002:0000b958       $unwind$__acrt_update_locale_info 000000018002f958     libucrt:locale_update.obj
 0002:0000b958       $unwind$__acrt_update_multibyte_info 000000018002f958     libucrt:locale_update.obj
 0002:0000b958       $unwind$__acrt_allocate_buffer_for_argv 000000018002f958     libucrt:argv_parsing.obj
 0002:0000b958       $unwind$?exit_or_terminate_process@@YAXI@Z 000000018002f958     libucrt:exit.obj
 0002:0000b958       $unwind$?try_cor_exit_process@@YAXI@Z 000000018002f958     libucrt:exit.obj
 0002:0000b958       $unwind$__acrt_uninitialize_stdio 000000018002f958     libucrt:_file.obj
 0002:0000b958       $unwind$__acrt_stdio_free_buffer_nolock 000000018002f958     libucrt:_freebuf.obj
 0002:0000b958       $unwind$_fflush_nolock     000000018002f958     libucrt:fflush.obj
 0002:0000b958       $unwind$strcpy_s           000000018002f958     libucrt:strcpy_s.obj
 0002:0000b958       $unwind$wcscat_s           000000018002f958     libucrt:wcscat_s.obj
 0002:0000b958       $unwind$wcscpy_s           000000018002f958     libucrt:wcscpy_s.obj
 0002:0000b958       $unwind$_clrfp             000000018002f958     libucrt:fpctrl.obj
 0002:0000b958       $unwind$_set_statfp        000000018002f958     libucrt:fpctrl.obj
 0002:0000b958       $unwind$_clearfp           000000018002f958     libucrt:ieee.obj
 0002:0000b958       $unwind$_controlfp_s       000000018002f958     libucrt:contrlfp.obj
 0002:0000b958       $unwind$fegetenv           000000018002f958     libucrt:fegetenv.obj
 0002:0000b958       $unwind$feholdexcept       000000018002f958     libucrt:feholdexcept.obj
 0002:0000b958       $unwind$fesetenv           000000018002f958     libucrt:fesetenv.obj
 0002:0000b960       $unwind$?AtlWinModuleExtractCreateWndData@ATL@@YAPEAXPEAU_ATL_WIN_MODULE70@1@@Z 000000018002f960     ElectronicJournal.obj
 0002:0000b960       $unwind$?CreateInstance@?$CComCreator@V?$CComObject@VCOPOSElectronicJournal@@@ATL@@@ATL@@SAJPEAXAEBU_GUID@@PEAPEAX@Z 000000018002f960     ElectronicJournal.obj
 0002:0000b960       $unwind$?DoEvent@COPOSElectronicJournal@@IEAAXI_K_J@Z 000000018002f960     ElectronicJournal.obj
 0002:0000b960       $unwind$?DoVerb@?$IOleObjectImpl@VCOPOSElectronicJournal@@@ATL@@UEAAJJPEAUtagMSG@@PEAUIOleClientSite@@JPEAUHWND__@@PEBUtagRECT@@@Z 000000018002f960     ElectronicJournal.obj
 0002:0000b960       $unwind$?HKeyFromString@CRegParser@ATL@@KAPEAUHKEY__@@PEA_W@Z 000000018002f960     ElectronicJournal.obj
 0002:0000b960       $unwind$?Next@?$CComEnumImpl@UIEnumConnectionPoints@@$1?_GUID_b196b285_bab4_101a_b69c_00aa00341d07@@3U__s_GUID@@BPEAUIConnectionPoint@@V?$_CopyInterface@UIConnectionPoint@@@ATL@@@ATL@@UEAAJKPEAPEAUIConnectionPoint@@PEAK@Z 000000018002f960     ElectronicJournal.obj
 0002:0000b960       $unwind$?Next@?$CComEnumImpl@UIEnumConnections@@$1?_GUID_b196b287_bab4_101a_b69c_00aa00341d07@@3U__s_GUID@@BUtagCONNECTDATA@@V?$_Copy@UtagCONNECTDATA@@@ATL@@@ATL@@UEAAJKPEAUtagCONNECTDATA@@PEAK@Z 000000018002f960     ElectronicJournal.obj
 0002:0000b960       $unwind$?SODirectIO@COPOSElectronicJournal@@MEAAJJPEAJPEAPEA_W@Z 000000018002f960     ElectronicJournal.obj
 0002:0000b960       $unwind$?SetControlFocus@CComControlBase@ATL@@QEAAHH@Z 000000018002f960     ElectronicJournal.obj
 0002:0000b960       $unwind$?ocscpy_s@@YA_NPEA_W_KPEB_W@Z 000000018002f960     ElectronicJournal.obj
 0002:0000b960       $unwind$?s_EventWindowProc@COPOSElectronicJournal@@KA_JPEAUHWND__@@I_K_J@Z 000000018002f960     ElectronicJournalImpl.obj
 0002:0000b960       $unwind$?AtlWinModuleTerm@ATL@@YAJPEAU_ATL_WIN_MODULE70@1@PEAUHINSTANCE__@@@Z 000000018002f960     OposVariant.obj
 0002:0000b960       $unwind$__scrt_dllmain_exception_filter 000000018002f960     LIBCMT:utility.obj
 0002:0000b960       $unwind$?Is_bad_exception_allowed@@YAEPEBU_s_ESTypeList@@@Z 000000018002f960     libvcruntime:frame.obj
 0002:0000b960       $unwind$_recalloc_base     000000018002f960     libucrt:recalloc.obj
 0002:0000b960       $unwind$__acrt_free_locale 000000018002f960     libucrt:locale_refcounting.obj
 0002:0000b960       $unwind$__acrt_lowio_create_handle_array 000000018002f960     libucrt:osfinfo.obj
 0002:0000b960       $unwind$?setSBCS@@YAXPEAU__crt_multibyte_data@@@Z 000000018002f960     libucrt:mbctype.obj
 0002:0000b960       $unwind$_seh_filter_exe    000000018002f960     libucrt:exception_filter.obj
 0002:0000b960       $unwind$_initterm          000000018002f960     libucrt:initterm.obj
 0002:0000b960       $unwind$??$ensure_buffer_is_big_enough@D@formatting_buffer@__crt_stdio_output@@QEAA_N_K@Z 000000018002f960     libucrt:output.obj
 0002:0000b960       $unwind$??$ensure_buffer_is_big_enough@_W@formatting_buffer@__crt_stdio_output@@QEAA_N_K@Z 000000018002f960     libucrt:output.obj
 0002:0000b974       $unwind$??_GCRegObject@ATL@@UEAAPEAXI@Z 000000018002f974     ElectronicJournal.obj
 0002:0000b974       $unwind$?Add@?$CSimpleArray@GV?$CSimpleArrayEqualHelper@G@ATL@@@ATL@@QEAAHAEBG@Z 000000018002f974     ElectronicJournal.obj
 0002:0000b974       $unwind$?Add@?$CSimpleMap@PEA_WPEA_WVCExpansionVectorEqualHelper@ATL@@@ATL@@QEAAHAEBQEA_W0@Z 000000018002f974     ElectronicJournal.obj
 0002:0000b974       $unwind$?Add@CComDynamicUnkArray@ATL@@QEAAKPEAUIUnknown@@@Z 000000018002f974     ElectronicJournal.obj
 0002:0000b974       $unwind$?Advise@?$IOleObjectImpl@VCOPOSElectronicJournal@@@ATL@@UEAAJPEAUIAdviseSink@@PEAK@Z 000000018002f974     ElectronicJournal.obj
 0002:0000b974       $unwind$?ClearReplacements@CExpansionVector@ATL@@QEAAJXZ 000000018002f974     ElectronicJournal.obj
 0002:0000b974       $unwind$?CreateInstance@?$CComObject@V?$CComEnum@UIEnumConnectionPoints@@$1?_GUID_b196b285_bab4_101a_b69c_00aa00341d07@@3U__s_GUID@@BPEAUIConnectionPoint@@V?$_CopyInterface@UIConnectionPoint@@@ATL@@VCComSingleThreadModel@6@@ATL@@@ATL@@SAJPEAPEAV12@@Z 000000018002f974     ElectronicJournal.obj
 0002:0000b974       $unwind$?CreateInstance@?$CComObject@V?$CComEnum@UIEnumConnections@@$1?_GUID_b196b287_bab4_101a_b69c_00aa00341d07@@3U__s_GUID@@BUtagCONNECTDATA@@V?$_Copy@UtagCONNECTDATA@@@ATL@@VCComSingleThreadModel@6@@ATL@@@ATL@@SAJPEAPEAV12@@Z 000000018002f974     ElectronicJournal.obj
 0002:0000b974       $unwind$?RegisterServer@CComModule@ATL@@QEAAJHPEBU_GUID@@@Z 000000018002f974     ElectronicJournal.obj
 0002:0000b974       $unwind$?Term@CAtlModule@ATL@@QEAAXXZ 000000018002f974     ElectronicJournal.obj
 0002:0000b974       $unwind$?UnregisterServer@CComModule@ATL@@QEAAJHPEBU_GUID@@@Z 000000018002f974     ElectronicJournal.obj
 0002:0000b974       $unwind$?VTFromRegType@CRegParser@ATL@@KAHPEB_WAEAG@Z 000000018002f974     ElectronicJournal.obj
 0002:0000b974       $unwind$??0OposDispParms@@QEAA@PEAVOposVariant@@H@Z 000000018002f974     OposVariant.obj
 0002:0000b974       $unwind$?SetBSTR_Copy@OposVariant@@QEAAXPEA_WAEAJ@Z 000000018002f974     OposVariant.obj
 0002:0000b974       $unwind$?SetBSTR_InOutPtr@OposVariant@@QEAA_NPEAPEA_WAEAJ@Z 000000018002f974     OposVariant.obj
 0002:0000b974       $unwind$?SetDispatch_Ptr@OposVariant@@QEAAXPEAUIDispatch@@AEAJ@Z 000000018002f974     OposVariant.obj
 0002:0000b974       $unwind$?SetLONG_Ptr@OposVariant@@QEAAXPEAJAEAJ@Z 000000018002f974     OposVariant.obj
 0002:0000b974       $unwind$?SetString@OposVariant@@QEAAXPEB_WAEAJ@Z 000000018002f974     OposVariant.obj
 0002:0000b974       $unwind$?Term@CAtlComModule@ATL@@QEAAXXZ 000000018002f974     OposVariant.obj
 0002:0000b974       $unwind$_DllMainCRTStartup 000000018002f974     LIBCMT:dll_dllmain.obj
 0002:0000b974       $unwind$__vcrt_getptd_noexit 000000018002f974     libvcruntime:per_thread_data.obj
 0002:0000b974       $unwind$__vcrt_InitializeCriticalSectionEx 000000018002f974     libvcruntime:winapi_downlevel.obj
 0002:0000b974       $unwind$memcpy_s           000000018002f974     libucrt:cfout.obj
 0002:0000b974       $unwind$__acrt_getptd      000000018002f974     libucrt:per_thread_data.obj
 0002:0000b974       $unwind$__acrt_getptd_noexit 000000018002f974     libucrt:per_thread_data.obj
 0002:0000b974       $unwind$__acrt_execute_initializers 000000018002f974     libucrt:shared_initialization.obj
 0002:0000b974       $unwind$__acrt_InitializeCriticalSectionEx 000000018002f974     libucrt:winapi_thunks.obj
 0002:0000b974       $unwind$?free_crt_array_internal@@YAXQEAPEBX_K@Z 000000018002f974     libucrt:inittime.obj
 0002:0000b974       $unwind$??$common_lseek_nolock@_J@@YA_JH_JH@Z 000000018002f974     libucrt:lseek.obj
 0002:0000b974       $unwind$__acrt_stdio_flush_nolock 000000018002f974     libucrt:fflush.obj
 0002:0000b974       $unwind$??0_LocaleUpdate@@QEAA@QEAU__crt_locale_pointers@@@Z 000000018002f974     libucrt:output.obj
 0002:0000b974       $unwind$?type_case_Z@?$output_processor@_WV?$string_output_adapter@_W@__crt_stdio_output@@V?$format_validation_base@_WV?$string_output_adapter@_W@__crt_stdio_output@@@2@@__crt_stdio_output@@AEAA_NXZ 000000018002f974     libucrt:output.obj
 0002:0000b974       $unwind$?type_case_s@?$output_processor@_WV?$string_output_adapter@_W@__crt_stdio_output@@V?$format_validation_base@_WV?$string_output_adapter@_W@__crt_stdio_output@@@2@@__crt_stdio_output@@AEAA_NXZ 000000018002f974     libucrt:output.obj
 0002:0000b974       $unwind$_exception_enabled 000000018002f974     libucrt:libm_error.obj
 0002:0000b984       $unwind$?AddTermFunc@CAtlModule@ATL@@QEAAJP6AX_K@Z0@Z 000000018002f984     ElectronicJournal.obj
 0002:0000b984       $unwind$?AtlComModuleRegisterServer@ATL@@YAJPEAU_ATL_COM_MODULE70@1@HPEBU_GUID@@@Z 000000018002f984     ElectronicJournal.obj
 0002:0000b984       $unwind$?AtlComModuleUnregisterServer@ATL@@YAJPEAU_ATL_COM_MODULE70@1@HPEBU_GUID@@@Z 000000018002f984     ElectronicJournal.obj
 0002:0000b984       $unwind$?CreateInstance@?$CComCreator@V?$CComAggObject@VCOPOSElectronicJournal@@@ATL@@@ATL@@SAJPEAXAEBU_GUID@@PEAPEAX@Z 000000018002f984     ElectronicJournal.obj
 0002:0000b984       $unwind$?CreateInstance@?$CComCreator@V?$CComObjectCached@VCComClassFactory@ATL@@@ATL@@@ATL@@SAJPEAXAEBU_GUID@@PEAPEAX@Z 000000018002f984     ElectronicJournal.obj
 0002:0000b984       $unwind$?GetPagesHelper@?$ISpecifyPropertyPagesImpl@VCOPOSElectronicJournal@@@ATL@@IEAAJPEAUtagCAUUID@@PEBUATL_PROPMAP_ENTRY@2@@Z 000000018002f984     ElectronicJournal.obj
 0002:0000b984       $unwind$??_Estringdispid@CComTypeInfoHolder@ATL@@QEAAPEAXI@Z 000000018002f984     OposVariant.obj
 0002:0000b984       $unwind$__GSHandlerCheck_SEH 000000018002f984     LIBCMT:gshandlerseh.obj
 0002:0000b984       $unwind$??$TypeMatchHelper@V__FrameHandler3@@@@YAHPEBU_s_HandlerType@@PEBU_s_CatchableType@@PEBU_s_ThrowInfo@@@Z 000000018002f984     libvcruntime:frame.obj
 0002:0000b984       $unwind$??$TypeMatchHelper@V__FrameHandler4@@@@YAHPEAUHandlerType4@FH4@@PEBU_s_CatchableType@@PEBU_s_ThrowInfo@@@Z 000000018002f984     libvcruntime:frame.obj
 0002:0000b984       $unwind$?initialize_stdio_handles_nolock@@YAXXZ 000000018002f984     libucrt:ioinit.obj
 0002:0000b984       $unwind$__acrt_initialize_stdio 000000018002f984     libucrt:_file.obj
 0002:0000b984       $unwind$?process@?$output_processor@_WV?$string_output_adapter@_W@__crt_stdio_output@@V?$format_validation_base@_WV?$string_output_adapter@_W@__crt_stdio_output@@@2@@__crt_stdio_output@@QEAAHXZ 000000018002f984     libucrt:output.obj
 0002:0000b984       $unwind$?type_case_integer@?$output_processor@_WV?$string_output_adapter@_W@__crt_stdio_output@@V?$format_validation_base@_WV?$string_output_adapter@_W@__crt_stdio_output@@@2@@__crt_stdio_output@@AEAA_NI_N@Z 000000018002f984     libucrt:output.obj
 0002:0000b99c       $unwind$??0?$CComContainedObject@VCOPOSElectronicJournal@@@ATL@@QEAA@PEAX@Z 000000018002f99c     ElectronicJournal.obj
 0002:0000b99c       $unwind$??1?$CComEnumImpl@UIEnumConnectionPoints@@$1?_GUID_b196b285_bab4_101a_b69c_00aa00341d07@@3U__s_GUID@@BPEAUIConnectionPoint@@V?$_CopyInterface@UIConnectionPoint@@@ATL@@@ATL@@UEAA@XZ 000000018002f99c     ElectronicJournal.obj
 0002:0000b99c       $unwind$??1?$CComEnumImpl@UIEnumConnections@@$1?_GUID_b196b287_bab4_101a_b69c_00aa00341d07@@3U__s_GUID@@BUtagCONNECTDATA@@V?$_Copy@UtagCONNECTDATA@@@ATL@@@ATL@@UEAA@XZ 000000018002f99c     ElectronicJournal.obj
 0002:0000b99c       $unwind$??_G?$CComAggObject@VCOPOSElectronicJournal@@@ATL@@UEAAPEAXI@Z 000000018002f99c     ElectronicJournal.obj
 0002:0000b99c       $unwind$??_G?$CComContainedObject@VCOPOSElectronicJournal@@@ATL@@UEAAPEAXI@Z 000000018002f99c     ElectronicJournal.obj
 0002:0000b99c       $unwind$??_G?$CComObject@V?$CComEnum@UIEnumConnectionPoints@@$1?_GUID_b196b285_bab4_101a_b69c_00aa00341d07@@3U__s_GUID@@BPEAUIConnectionPoint@@V?$_CopyInterface@UIConnectionPoint@@@ATL@@VCComSingleThreadModel@6@@ATL@@@ATL@@UEAAPEAXI@Z 000000018002f99c     ElectronicJournal.obj
 0002:0000b99c       $unwind$??_G?$CComObject@V?$CComEnum@UIEnumConnections@@$1?_GUID_b196b287_bab4_101a_b69c_00aa00341d07@@3U__s_GUID@@BUtagCONNECTDATA@@V?$_Copy@UtagCONNECTDATA@@@ATL@@VCComSingleThreadModel@6@@ATL@@@ATL@@UEAAPEAXI@Z 000000018002f99c     ElectronicJournal.obj
 0002:0000b99c       $unwind$??_G?$CComObject@VCOPOSElectronicJournal@@@ATL@@UEAAPEAXI@Z 000000018002f99c     ElectronicJournal.obj
 0002:0000b99c       $unwind$??_G?$CComObjectCached@VCComClassFactory@ATL@@@ATL@@UEAAPEAXI@Z 000000018002f99c     ElectronicJournal.obj
 0002:0000b99c       $unwind$??_GCComClassFactory@ATL@@UEAAPEAXI@Z 000000018002f99c     ElectronicJournal.obj
 0002:0000b99c       $unwind$??_GCComModule@ATL@@UEAAPEAXI@Z 000000018002f99c     ElectronicJournal.obj
 0002:0000b99c       $unwind$?DeleteSubKey@CRegKey@ATL@@QEAAJPEB_W@Z 000000018002f99c     ElectronicJournal.obj
 0002:0000b99c       $unwind$?IOleObject_SetClientSite@CComControlBase@ATL@@QEAAJPEAUIOleClientSite@@@Z 000000018002f99c     ElectronicJournal.obj
 0002:0000b99c       $unwind$?InitNew@?$IPersistStorageImpl@VCOPOSElectronicJournal@@@ATL@@UEAAJPEAUIStorage@@@Z 000000018002f99c     ElectronicJournal.obj
 0002:0000b99c       $unwind$?IsDirty@?$IPersistStorageImpl@VCOPOSElectronicJournal@@@ATL@@UEAAJXZ 000000018002f99c     ElectronicJournal.obj
 0002:0000b99c       $unwind$?Release@?$CComAggObject@VCOPOSElectronicJournal@@@ATL@@UEAAKXZ 000000018002f99c     ElectronicJournal.obj
 0002:0000b99c       $unwind$?Release@?$CComObject@V?$CComEnum@UIEnumConnectionPoints@@$1?_GUID_b196b285_bab4_101a_b69c_00aa00341d07@@3U__s_GUID@@BPEAUIConnectionPoint@@V?$_CopyInterface@UIConnectionPoint@@@ATL@@VCComSingleThreadModel@6@@ATL@@@ATL@@UEAAKXZ 000000018002f99c     ElectronicJournal.obj
 0002:0000b99c       $unwind$?Release@?$CComObject@V?$CComEnum@UIEnumConnections@@$1?_GUID_b196b287_bab4_101a_b69c_00aa00341d07@@3U__s_GUID@@BUtagCONNECTDATA@@V?$_Copy@UtagCONNECTDATA@@@ATL@@VCComSingleThreadModel@6@@ATL@@@ATL@@UEAAKXZ 000000018002f99c     ElectronicJournal.obj
 0002:0000b99c       $unwind$?Release@?$CComObject@VCOPOSElectronicJournal@@@ATL@@UEAAKXZ 000000018002f99c     ElectronicJournal.obj
 0002:0000b99c       $unwind$?SOData@COPOSElectronicJournal@@MEAAJJ@Z 000000018002f99c     ElectronicJournal.obj
 0002:0000b99c       $unwind$?SOOutputComplete@COPOSElectronicJournal@@MEAAJJ@Z 000000018002f99c     ElectronicJournal.obj
 0002:0000b99c       $unwind$?SOStatusUpdate@COPOSElectronicJournal@@MEAAJJ@Z 000000018002f99c     ElectronicJournal.obj
 0002:0000b99c       $unwind$?SetAdvise@?$IViewObjectExImpl@VCOPOSElectronicJournal@@@ATL@@UEAAJKKPEAUIAdviseSink@@@Z 000000018002f99c     ElectronicJournal.obj
 0002:0000b99c       $unwind$?Term@CComModule@ATL@@QEAAXXZ 000000018002f99c     ElectronicJournal.obj
 0002:0000b99c       $unwind$DllMain            000000018002f99c     ElectronicJournal.obj
 0002:0000b99c       $unwind$??1?$IConnectionPointImpl@VCOPOSElectronicJournal@@$1?DIID__IOPOSElectronicJournalEvents@@3U_GUID@@BVCComDynamicUnkArray@ATL@@@ATL@@QEAA@XZ 000000018002f99c     ElectronicJournalImpl.obj
 0002:0000b99c       $unwind$??1?$IConnectionPointImpl@VCOPOSElectronicJournal@@$1?IID_IPropertyNotifySink@@3U_GUID@@BVCComDynamicUnkArray@ATL@@@ATL@@QEAA@XZ 000000018002f99c     ElectronicJournalImpl.obj
 0002:0000b99c       $unwind$?SetBSTR@OposVariant@@QEAAXPEA_WAEAJ@Z 000000018002f99c     OposVariant.obj
 0002:0000b99c       $unwind$?SetLONG@OposVariant@@QEAAXJ@Z 000000018002f99c     OposVariant.obj
 0002:0000b99c       $unwind$?SetVARIANT_BOOL@OposVariant@@QEAAXF@Z 000000018002f99c     OposVariant.obj
 0002:0000b99c       $unwind$??0CAtlBaseModule@ATL@@QEAA@XZ 000000018002f99c     atls:atlbase.obj
 0002:0000b99c       $unwind$??$GetProcAddressAll@P6AP6A_JPEAUHWND__@@I_K_J@ZPEAUAtlThunkData_t@@@Z@@YAP6AP6A_JPEAUHWND__@@I_K_J@ZPEAUAtlThunkData_t@@@ZPEAP6AP6A_J0I12@Z3@Z@Z 000000018002f99c     atls:atlthunk.obj
 0002:0000b99c       $unwind$??$GetProcAddressAll@P6APEAUAtlThunkData_t@@XZ@@YAP6APEAUAtlThunkData_t@@XZPEAP6APEAU0@XZ@Z 000000018002f99c     atls:atlthunk.obj
 0002:0000b99c       $unwind$??$GetProcAddressAll@P6AXPEAUAtlThunkData_t@@@Z@@YAP6AXPEAUAtlThunkData_t@@@ZPEAP6AX0@Z@Z 000000018002f99c     atls:atlthunk.obj
 0002:0000b99c       $unwind$??$GetProcAddressAll@P6AXPEAUAtlThunkData_t@@PEAX_K@Z@@YAP6AXPEAUAtlThunkData_t@@PEAX_K@ZPEAP6AX012@Z@Z 000000018002f99c     atls:atlthunk.obj
 0002:0000b99c       $unwind$?__AllocStdCallThunk_cmn@@YAPEAXXZ 000000018002f99c     atls:atlthunk.obj
 0002:0000b99c       $unwind$?__InitializeThunkPool@@YAHXZ 000000018002f99c     atls:atlthunk.obj
 0002:0000b99c       $unwind$AtlThunk_DataToCode 000000018002f99c     atls:atlthunk.obj
 0002:0000b99c       $unwind$_RTC_Initialize    000000018002f99c     LIBCMT:initsect.obj
 0002:0000b99c       $unwind$_RTC_Terminate     000000018002f99c     LIBCMT:initsect.obj
 0002:0000b99c       $unwind$?__scrt_initialize_thread_safe_statics@@YAHXZ 000000018002f99c     LIBCMT:thread_safe_statics.obj
 0002:0000b99c       $unwind$??_Gbad_alloc@std@@UEAAPEAXI@Z 000000018002f99c     LIBCMT:throw_bad_alloc.obj
 0002:0000b99c       $unwind$??_Gbad_array_new_length@std@@UEAAPEAXI@Z 000000018002f99c     LIBCMT:throw_bad_alloc.obj
 0002:0000b99c       $unwind$??_Gexception@std@@UEAAPEAXI@Z 000000018002f99c     LIBCMT:throw_bad_alloc.obj
 0002:0000b99c       $unwind$__FrameUnwindFilter 000000018002f99c     libvcruntime:ehhelpers.obj
 0002:0000b99c       $unwind$??_Gbad_exception@std@@UEAAPEAXI@Z 000000018002f99c     libvcruntime:frame.obj
 0002:0000b99c       $unwind$?ExFilterRethrowFH4@@YAHPEAU_EXCEPTION_POINTERS@@PEAUEHExceptionRecord@@HPEAH@Z 000000018002f99c     libvcruntime:frame.obj
 0002:0000b99c       $unwind$_FindAndUnlinkFrame 000000018002f99c     libvcruntime:risctrnsctrl.obj
 0002:0000b99c       $unwind$__vcrt_FlsSetValue 000000018002f99c     libvcruntime:winapi_downlevel.obj
 0002:0000b99c       $unwind$??$common_initialize_environment_nolock@D@@YAHXZ 000000018002f99c     libucrt:environment_initialization.obj
 0002:0000b99c       $unwind$_realloc_base      000000018002f99c     libucrt:realloc_base.obj
 0002:0000b99c       $unwind$?replace_current_thread_locale_nolock@@YAXQEAU__acrt_ptd@@QEAU__crt_locale_data@@@Z 000000018002f99c     libucrt:per_thread_data.obj
 0002:0000b99c       $unwind$__acrt_execute_uninitializers 000000018002f99c     libucrt:shared_initialization.obj
 0002:0000b99c       $unwind$__acrt_FlsSetValue 000000018002f99c     libucrt:winapi_thunks.obj
 0002:0000b99c       $unwind$__acrt_LocaleNameToLCID 000000018002f99c     libucrt:winapi_thunks.obj
 0002:0000b99c       $unwind$_updatetlocinfoEx_nolock 000000018002f99c     libucrt:locale_refcounting.obj
 0002:0000b99c       $unwind$_close_nolock      000000018002f99c     libucrt:close.obj
 0002:0000b99c       $unwind$__acrt_uninitialize_lowio 000000018002f99c     libucrt:ioinit.obj
 0002:0000b99c       $unwind$__acrt_errno_map_os_error 000000018002f99c     libucrt:errno.obj
 0002:0000b99c       $unwind$_initterm_e        000000018002f99c     libucrt:initterm.obj
 0002:0000b99c       $unwind$_fclose_nolock     000000018002f99c     libucrt:fclose.obj
 0002:0000b99c       $unwind$?type_case_n@?$output_processor@_WV?$string_output_adapter@_W@__crt_stdio_output@@V?$format_validation_base@_WV?$string_output_adapter@_W@__crt_stdio_output@@@2@@__crt_stdio_output@@AEAA_NXZ 000000018002f99c     libucrt:output.obj
 0002:0000b99c       $unwind$strncpy_s          000000018002f99c     libucrt:strncpy_s.obj
 0002:0000b99c       $unwind$wcsncpy_s          000000018002f99c     libucrt:wcsncpy_s.obj
 0002:0000b9a8       $unwind$?ChangeBSTR@OposVariant@@QEAAXPEAPEA_WAEAJ@Z 000000018002f9a8     OposVariant.obj
 0002:0000b9a8       $unwind$?ChangeCURRENCY@OposVariant@@QEAAXPEATtagCY@@AEAJ@Z 000000018002f9a8     OposVariant.obj
 0002:0000b9a8       $unwind$?ChangeLONG@OposVariant@@QEAAXPEAJAEAJ@Z 000000018002f9a8     OposVariant.obj
 0002:0000b9a8       $unwind$?x_ismbbtype_l@@YAHPEAU__crt_locale_pointers@@IHH@Z 000000018002f9a8     libucrt:ismbbyte.obj
 0002:0000b9b8       $unwind$swprintf_s         000000018002f9b8     ElectronicJournal.obj
 0002:0000b9c8       $unwind$?_AtlVerifyStackAvailable@_ATL_SAFE_ALLOCA_IMPL@ATL@@YA_N_K@Z 000000018002f9c8     ElectronicJournal.obj
 0002:0000b9f4       $unwind$?filt$0@?0??_AtlVerifyStackAvailable@_ATL_SAFE_ALLOCA_IMPL@ATL@@YA_N_K@Z@4HA 000000018002f9f4     ElectronicJournal.obj
 0002:0000b9f4       $unwind$?fin$0@?0??dllmain_crt_process_attach@@YAHQEAUHINSTANCE__@@QEAX@Z@4HA 000000018002f9f4     LIBCMT:dll_dllmain.obj
 0002:0000b9f4       $unwind$?fin$0@?0??dllmain_crt_process_detach@@YAH_N@Z@4HA 000000018002f9f4     LIBCMT:dll_dllmain.obj
 0002:0000b9f4       $unwind$?fin$1@?0??dllmain_crt_process_detach@@YAH_N@Z@4HA 000000018002f9f4     LIBCMT:dll_dllmain.obj
 0002:0000b9f4       $unwind$_IsNonwritableInCurrentImage$filt$0 000000018002f9f4     LIBCMT:pesect.obj
 0002:0000b9f4       $unwind$?filt$0@?0??CxxCallCatchBlock@__FrameHandler4@@SAPEAXPEAU_EXCEPTION_RECORD@@@Z@4HA 000000018002f9f4     libvcruntime:frame.obj
 0002:0000b9f4       $unwind$_query_new_handler$fin$0 000000018002f9f4     libucrt:new_handler.obj
 0002:0000b9f4       $unwind$?fin$0@?0???$?RV<lambda_0ae27a3a962d80f24befdcbee591983d>@@AEAV<lambda_8d0ee55de4b1038c4002e0adecdf1839>@@V<lambda_dc504788e8f1664fe9b84e20bfb512f2>@@@?$__crt_seh_guarded_call@X@@QEAAX$$QEAV<lambda_0ae27a3a962d80f24befdcbee591983d>@@AEAV<lambda_8d0ee55de4b1038c4002e0adecdf1839>@@$$QEAV<lambda_dc504788e8f1664fe9b84e20bfb512f2>@@@Z@4HA 000000018002f9f4     libucrt:per_thread_data.obj
 0002:0000b9f4       $unwind$?fin$0@?0???$?RV<lambda_2d41944a1d46af3157314b8a01080d33>@@AEAV<lambda_8f455de75cd7d7f24b4096f044d8b9e6>@@V<lambda_aa500f224e6afead328df44964fe2772>@@@?$__crt_seh_guarded_call@X@@QEAAX$$QEAV<lambda_2d41944a1d46af3157314b8a01080d33>@@AEAV<lambda_8f455de75cd7d7f24b4096f044d8b9e6>@@$$QEAV<lambda_aa500f224e6afead328df44964fe2772>@@@Z@4HA 000000018002f9f4     libucrt:per_thread_data.obj
 0002:0000b9f4       $unwind$?fin$0@?0???$?RV<lambda_aa87e3671a710a21b5dc78c0bdf72e11>@@AEAV<lambda_92619d2358a28f41a33ba319515a20b9>@@V<lambda_6992ecaafeb10aed2b74cb1fae11a551>@@@?$__crt_seh_guarded_call@X@@QEAAX$$QEAV<lambda_aa87e3671a710a21b5dc78c0bdf72e11>@@AEAV<lambda_92619d2358a28f41a33ba319515a20b9>@@$$QEAV<lambda_6992ecaafeb10aed2b74cb1fae11a551>@@@Z@4HA 000000018002f9f4     libucrt:per_thread_data.obj
 0002:0000b9f4       $unwind$?fin$0@?0???$?RV<lambda_f2e299630e499de9f9a165e60fcd3db5>@@AEAV<lambda_2ae9d31cdba2644fcbeaf08da7c24588>@@V<lambda_40d01ff24d0e7b3814fdbdcee8eab3c7>@@@?$__crt_seh_guarded_call@X@@QEAAX$$QEAV<lambda_f2e299630e499de9f9a165e60fcd3db5>@@AEAV<lambda_2ae9d31cdba2644fcbeaf08da7c24588>@@$$QEAV<lambda_40d01ff24d0e7b3814fdbdcee8eab3c7>@@@Z@4HA 000000018002f9f4     libucrt:per_thread_data.obj
 0002:0000b9f4       $unwind$__acrt_update_thread_locale_data$fin$0 000000018002f9f4     libucrt:locale_refcounting.obj
 0002:0000b9f4       $unwind$?fin$0@?0???$?RV<lambda_410d79af7f07d98d83a3f525b3859a53>@@AEAV<lambda_3e16ef9562a7dcce91392c22ab16ea36>@@V<lambda_38119f0e861e05405d8a144b9b982f0a>@@@?$__crt_seh_guarded_call@X@@QEAAX$$QEAV<lambda_410d79af7f07d98d83a3f525b3859a53>@@AEAV<lambda_3e16ef9562a7dcce91392c22ab16ea36>@@$$QEAV<lambda_38119f0e861e05405d8a144b9b982f0a>@@@Z@4HA 000000018002f9f4     libucrt:wsetlocale.obj
 0002:0000b9f4       $unwind$?fin$0@?0???$?RV<lambda_751a882b2c74d4b022dec766aa51a29a>@@AEAV<lambda_628dfdc04ba53c8bfc02c9951375f3f5>@@V<lambda_f6c7be5f7998530c34de24c7437d6b54>@@@?$__crt_seh_guarded_call@H@@QEAAH$$QEAV<lambda_751a882b2c74d4b022dec766aa51a29a>@@AEAV<lambda_628dfdc04ba53c8bfc02c9951375f3f5>@@$$QEAV<lambda_f6c7be5f7998530c34de24c7437d6b54>@@@Z@4HA 000000018002f9f4     libucrt:close.obj
 0002:0000b9f4       $unwind$?fin$0@?0???$?RV<lambda_a37b2b86f63e897a80ea819b0eb08c01>@@AEAV<lambda_38ce7e780aa69e748d6df282ebc68efe>@@V<lambda_99fb1378e971ab6e7edea83e3a7a83a2>@@@?$__crt_seh_guarded_call@H@@QEAAH$$QEAV<lambda_a37b2b86f63e897a80ea819b0eb08c01>@@AEAV<lambda_38ce7e780aa69e748d6df282ebc68efe>@@$$QEAV<lambda_99fb1378e971ab6e7edea83e3a7a83a2>@@@Z@4HA 000000018002f9f4     libucrt:commit.obj
 0002:0000b9f4       $unwind$__acrt_initialize_lowio$fin$0 000000018002f9f4     libucrt:ioinit.obj
 0002:0000b9f4       $unwind$__acrt_lowio_ensure_fh_exists$fin$0 000000018002f9f4     libucrt:osfinfo.obj
 0002:0000b9f4       $unwind$_write$fin$0       000000018002f9f4     libucrt:write.obj
 0002:0000b9f4       $unwind$?fin$0@?0???$?RV<lambda_efdfa57d1f175319df784efa44bb7b81>@@AEAV<lambda_5f0a4c1567f8adc6734073e5d1e1b35c>@@V<lambda_2e8a7d3640ea6ccb4c2413664c2db6fd>@@@?$__crt_seh_guarded_call@X@@QEAAX$$QEAV<lambda_efdfa57d1f175319df784efa44bb7b81>@@AEAV<lambda_5f0a4c1567f8adc6734073e5d1e1b35c>@@$$QEAV<lambda_2e8a7d3640ea6ccb4c2413664c2db6fd>@@@Z@4HA 000000018002f9f4     libucrt:mbctype.obj
 0002:0000b9f4       $unwind$?fin$0@?0??update_thread_multibyte_data_internal@@YAPEAU__crt_multibyte_data@@QEAU__acrt_ptd@@QEAPEAU1@@Z@4HA 000000018002f9f4     libucrt:mbctype.obj
 0002:0000b9f4       $unwind$?fin$0@?0???$?RV<lambda_450d765d439847d4c735a33c368b5fc0>@@AEAV<lambda_44731a7d0e6d81c3e6aa82d741081786>@@V<lambda_601a2a7da3b7a96e9554ac7215c4b07c>@@@?$__crt_seh_guarded_call@P6AXH@Z@@QEAAP6AXH@Z$$QEAV<lambda_450d765d439847d4c735a33c368b5fc0>@@AEAV<lambda_44731a7d0e6d81c3e6aa82d741081786>@@$$QEAV<lambda_601a2a7da3b7a96e9554ac7215c4b07c>@@@Z@4HA 000000018002f9f4     libucrt:signal.obj
 0002:0000b9f4       $unwind$raise$fin$0        000000018002f9f4     libucrt:signal.obj
 0002:0000b9f4       $unwind$?filt$0@?0???R<lambda_6e4b09c48022b2350581041d5f6b0c4c>@@QEBA@XZ@4HA 000000018002f9f4     libucrt:exit.obj
 0002:0000b9f4       $unwind$?fin$0@?0???$?RV<lambda_d80eeec6fff315bfe5c115232f3240e3>@@AEAV<lambda_6e4b09c48022b2350581041d5f6b0c4c>@@V<lambda_2358e3775559c9db80273638284d5e45>@@@?$__crt_seh_guarded_call@X@@QEAAX$$QEAV<lambda_d80eeec6fff315bfe5c115232f3240e3>@@AEAV<lambda_6e4b09c48022b2350581041d5f6b0c4c>@@$$QEAV<lambda_2358e3775559c9db80273638284d5e45>@@@Z@4HA 000000018002f9f4     libucrt:exit.obj
 0002:0000b9f4       $unwind$?fin$0@?0???$?RV<lambda_638799b9deba96c50f710eeac98168cd>@@AEAV<lambda_22ebabd17bc4fa466a2aca6d8deb888d>@@V<lambda_a6f7d7db0129f75315ebf26d50c089f1>@@@?$__crt_seh_guarded_call@H@@QEAAH$$QEAV<lambda_638799b9deba96c50f710eeac98168cd>@@AEAV<lambda_22ebabd17bc4fa466a2aca6d8deb888d>@@$$QEAV<lambda_a6f7d7db0129f75315ebf26d50c089f1>@@@Z@4HA 000000018002f9f4     libucrt:onexit.obj
 0002:0000b9f4       $unwind$?fin$0@?0???$?RV<lambda_7777bce6b2f8c936911f934f8298dc43>@@AEAV<lambda_f03950bc5685219e0bcd2087efbe011e>@@V<lambda_3883c3dff614d5e0c5f61bb1ac94921c>@@@?$__crt_seh_guarded_call@H@@QEAAH$$QEAV<lambda_7777bce6b2f8c936911f934f8298dc43>@@AEAV<lambda_f03950bc5685219e0bcd2087efbe011e>@@$$QEAV<lambda_3883c3dff614d5e0c5f61bb1ac94921c>@@@Z@4HA 000000018002f9f4     libucrt:onexit.obj
 0002:0000b9f4       $unwind$_fcloseall$fin$0   000000018002f9f4     libucrt:closeall.obj
 0002:0000b9f4       $unwind$fclose$fin$0       000000018002f9f4     libucrt:fclose.obj
 0002:0000b9f4       $unwind$?fin$0@?0???$?RV<lambda_842d9ff0dc9ef11c61343bbaebe7f885>@@AEAV<lambda_c5860995281e5c4ce005b3de8f5874ee>@@V<lambda_d90129c13df834fdcbf8d2b88dafcf2d>@@@?$__crt_seh_guarded_call@X@@QEAAX$$QEAV<lambda_842d9ff0dc9ef11c61343bbaebe7f885>@@AEAV<lambda_c5860995281e5c4ce005b3de8f5874ee>@@$$QEAV<lambda_d90129c13df834fdcbf8d2b88dafcf2d>@@@Z@4HA 000000018002f9f4     libucrt:fflush.obj
 0002:0000b9f4       $unwind$?fin$0@?0???$?RV<lambda_886d6c58226a84441f68b9f2b8217b83>@@AEAV<lambda_ab61a845afdef5b7c387490eaf3616ee>@@V<lambda_f7f22ab5edc0698d5f6905b0d3f44752>@@@?$__crt_seh_guarded_call@X@@QEAAX$$QEAV<lambda_886d6c58226a84441f68b9f2b8217b83>@@AEAV<lambda_ab61a845afdef5b7c387490eaf3616ee>@@$$QEAV<lambda_f7f22ab5edc0698d5f6905b0d3f44752>@@@Z@4HA 000000018002f9f4     libucrt:fflush.obj
 0002:0000b9f4       $unwind$_ctrlfp$filt$0     000000018002f9f4     libucrt:fpctrl.obj
 0002:0000b9f4       $unwind$common_control87$filt$0 000000018002f9f4     libucrt:ieee.obj
 0002:0000b9fc       $unwind$?AtlInternalOleLoadFromStream@ATL@@YAJPEAUIStream@@AEBU_GUID@@PEAPEAXTClassesAllowedInStream@1@K@Z 000000018002f9fc     ElectronicJournal.obj
 0002:0000ba18       $unwind$?ReadFromStream@CComBSTR@ATL@@QEAAJPEAUIStream@@@Z 000000018002fa18     ElectronicJournal.obj
 0002:0000ba18       $unwind$_configure_narrow_argv 000000018002fa18     libucrt:argv_parsing.obj
 0002:0000ba2c       $unwind$?WriteToStream@CComVariant@ATL@@QEAAJPEAUIStream@@@Z 000000018002fa2c     ElectronicJournal.obj
 0002:0000ba40       $unwind$?RegOpenKeyExW@CAtlTransactionManager@ATL@@QEAAJPEAUHKEY__@@PEB_WKKPEAPEAU3@@Z 000000018002fa40     ElectronicJournal.obj
 0002:0000ba40       $unwind$?WriteToStream@CComVariant@ATL@@QEAAJPEAUIStream@@G@Z 000000018002fa40     ElectronicJournal.obj
 0002:0000ba40       $unwind$__dcrt_write_console 000000018002fa40     libucrt:initcon.obj
 0002:0000ba40       $unwind$??$__acrt_wcs_to_mbs_cp@U__crt_win32_buffer_no_resizing@@@@YAHQEB_WAEAV?$__crt_win32_buffer@DU__crt_win32_buffer_no_resizing@@@@I@Z 000000018002fa40     libucrt:getmodulefilenamea.obj
 0002:0000ba54       $unwind$?ReadFromStream@CComVariant@ATL@@QEAAJPEAUIStream@@GTClassesAllowedInStream@2@K@Z 000000018002fa54     ElectronicJournal.obj
 0002:0000ba6c       $unwind$?GetSizeMax@CComVariant@ATL@@QEBAJPEAT_ULARGE_INTEGER@@@Z 000000018002fa6c     ElectronicJournal.obj
 0002:0000ba84       $unwind$?RegCreateKeyExW@CAtlTransactionManager@ATL@@QEAAJPEAUHKEY__@@PEB_WKPEA_WKKQEAU_SECURITY_ATTRIBUTES@@PEAPEAU3@PEAK@Z 000000018002fa84     ElectronicJournal.obj
 0002:0000ba98       $unwind$?GetGITPtr@CAtlModule@ATL@@UEAAJPEAPEAUIGlobalInterfaceTable@@@Z 000000018002fa98     ElectronicJournal.obj
 0002:0000ba98       $unwind$?RegDeleteKeyW@CAtlTransactionManager@ATL@@QEAAJPEAUHKEY__@@PEB_W@Z 000000018002fa98     ElectronicJournal.obj
 0002:0000ba98       $unwind$?getStateFromIterators@UWMap4@FH4@@SAHAEBViterator@12@H0H0@Z 000000018002fa98     libvcruntime:frame.obj
 0002:0000baa8       $unwind$?AtlHiMetricToPixel@ATL@@YAXPEBUtagSIZE@@PEAU2@@Z 000000018002faa8     ElectronicJournal.obj
 0002:0000baa8       $unwind$?AtlInternalQueryInterface@ATL@@YAJPEAXPEBU_ATL_INTMAP_ENTRY@1@AEBU_GUID@@PEAPEAX@Z 000000018002faa8     ElectronicJournal.obj
 0002:0000bac0       $unwind$?Append@CParseBuffer@CRegParser@ATL@@QEAAHPEB_WH@Z 000000018002fac0     ElectronicJournal.obj
 0002:0000bac0       $unwind$?AtlComModuleGetClassObject@ATL@@YAJPEAU_ATL_COM_MODULE70@1@AEBU_GUID@@1PEAPEAX@Z 000000018002fac0     ElectronicJournal.obj
 0002:0000bac0       $unwind$?EnumConnections@?$IConnectionPointImpl@VCOPOSElectronicJournal@@$1?DIID__IOPOSElectronicJournalEvents@@3U_GUID@@BVCComDynamicUnkArray@ATL@@@ATL@@UEAAJPEAPEAUIEnumConnections@@@Z 000000018002fac0     ElectronicJournal.obj
 0002:0000bac0       $unwind$?EnumConnections@?$IConnectionPointImpl@VCOPOSElectronicJournal@@$1?IID_IPropertyNotifySink@@3U_GUID@@BVCComDynamicUnkArray@ATL@@@ATL@@UEAAJPEAPEAUIEnumConnections@@@Z 000000018002fac0     ElectronicJournal.obj
 0002:0000bac0       $unwind$?GetClassObject@CComModule@ATL@@QEAAJAEBU_GUID@@0PEAPEAX@Z 000000018002fac0     ElectronicJournal.obj
 0002:0000bac0       $unwind$?Init@?$CComEnumImpl@UIEnumConnectionPoints@@$1?_GUID_b196b285_bab4_101a_b69c_00aa00341d07@@3U__s_GUID@@BPEAUIConnectionPoint@@V?$_CopyInterface@UIConnectionPoint@@@ATL@@@ATL@@QEAAJPEAPEAUIConnectionPoint@@0PEAUIUnknown@@W4CComEnumFlags@2@@Z 000000018002fac0     ElectronicJournal.obj
 0002:0000bac0       $unwind$?Init@?$CComEnumImpl@UIEnumConnections@@$1?_GUID_b196b287_bab4_101a_b69c_00aa00341d07@@3U__s_GUID@@BUtagCONNECTDATA@@V?$_Copy@UtagCONNECTDATA@@@ATL@@@ATL@@QEAAJPEAUtagCONNECTDATA@@0PEAUIUnknown@@W4CComEnumFlags@2@@Z 000000018002fac0     ElectronicJournal.obj
 0002:0000bac0       $unwind$?NextToken@CRegParser@ATL@@IEAAJPEA_W@Z 000000018002fac0     ElectronicJournal.obj
 0002:0000bac0       $unwind$__acrt_fp_strflt_to_string 000000018002fac0     libucrt:_fptostr.obj
 0002:0000bac0       $unwind$__acrt_DownlevelLocaleNameToLCID 000000018002fac0     libucrt:lcidtoname_downlevel.obj
 0002:0000bac0       $unwind$??R<lambda_f03950bc5685219e0bcd2087efbe011e>@@QEBAHXZ 000000018002fac0     libucrt:onexit.obj
 0002:0000bad8       $unwind$?AtlRegisterClassCategoriesHelper@ATL@@YAJAEBU_GUID@@PEBU_ATL_CATMAP_ENTRY@1@H@Z 000000018002fad8     ElectronicJournal.obj
 0002:0000bafc       $unwind$?AtlLoadTypeLib@ATL@@YAJPEAUHINSTANCE__@@PEB_WPEAPEA_WPEAPEAUITypeLib@@@Z 000000018002fafc     ElectronicJournal.obj
 0002:0000bb1c       $unwind$?AtlRegisterTypeLib@ATL@@YAJPEAUHINSTANCE__@@PEB_W@Z 000000018002fb1c     ElectronicJournal.obj
 0002:0000bb38       $unwind$?AtlUnRegisterTypeLib@ATL@@YAJPEAUHINSTANCE__@@PEB_W@Z 000000018002fb38     ElectronicJournal.obj
 0002:0000bb40       $unwind$?GetTI@CComTypeInfoHolder@ATL@@QEAAJK@Z 000000018002fb40     ElectronicJournal.obj
 0002:0000bb40       $unwind$?RecurseDeleteKey@CRegKey@ATL@@QEAAJPEB_W@Z 000000018002fb40     ElectronicJournal.obj
 0002:0000bb60       $unwind$?UpdateRegistryFromResource@CAtlModule@ATL@@QEAAJIHPEAU_ATL_REGMAP_ENTRY@2@@Z 000000018002fb60     ElectronicJournal.obj
 0002:0000bb60       $unwind$?UpdateRegistryFromResource@CAtlModule@ATL@@QEAAJPEB_WHPEAU_ATL_REGMAP_ENTRY@2@@Z 000000018002fb60     ElectronicJournal.obj
 0002:0000bb80       $unwind$?Lookup@?$CSimpleMap@PEA_WPEA_WVCExpansionVectorEqualHelper@ATL@@@ATL@@QEBAPEA_WAEBQEA_W@Z 000000018002fb80     ElectronicJournal.obj
 0002:0000bb80       $unwind$__std_exception_copy 000000018002fb80     libvcruntime:std_exception.obj
 0002:0000bb80       $unwind$_free_osfhnd       000000018002fb80     libucrt:osfinfo.obj
 0002:0000bb94       $unwind$?Add@CExpansionVector@ATL@@QEAAHPEB_W0@Z 000000018002fb94     ElectronicJournal.obj
 0002:0000bbac       $unwind$?PreProcessBuffer@CRegParser@ATL@@QEAAJPEA_WPEAPEA_W@Z 000000018002fbac     ElectronicJournal.obj
 0002:0000bbd0       $unwind$?RegisterBuffer@CRegParser@ATL@@QEAAJPEA_WH@Z 000000018002fbd0     ElectronicJournal.obj
 0002:0000bbf0       $unwind$?AddValue@CRegParser@ATL@@IEAAJAEAVCRegKey@2@PEB_WPEA_W@Z 000000018002fbf0     ElectronicJournal.obj
 0002:0000bc10       $unwind$?RegisterSubkeys@CRegParser@ATL@@IEAAJPEA_WPEAUHKEY__@@HH@Z 000000018002fc10     ElectronicJournal.obj
 0002:0000bc30       $unwind$?SkipAssignment@CRegParser@ATL@@IEAAJPEA_W@Z 000000018002fc30     ElectronicJournal.obj
 0002:0000bc48       $unwind$?RegisterFromResource@CRegObject@ATL@@IEAAJPEB_W00H@Z 000000018002fc48     ElectronicJournal.obj
 0002:0000bc68       $unwind$?Cleanup@CComTypeInfoHolder@ATL@@SAX_K@Z 000000018002fc68     ElectronicJournal.obj
 0002:0000bc68       $unwind$AtlThunk_FreeData  000000018002fc68     atls:atlthunk.obj
 0002:0000bc68       $unwind$_free_base         000000018002fc68     libucrt:free_base.obj
 0002:0000bc68       $unwind$?destroy_fls@@YAXPEAX@Z 000000018002fc68     libucrt:per_thread_data.obj
 0002:0000bc68       $unwind$__acrt_locale_free_numeric 000000018002fc68     libucrt:initnum.obj
 0002:0000bc68       $unwind$__acrt_locale_free_lc_time_if_unreferenced 000000018002fc68     libucrt:locale_refcounting.obj
 0002:0000bc70       $unwind$?GetIDsOfNames@CComTypeInfoHolder@ATL@@QEAAJAEBU_GUID@@PEAPEA_WIKPEAJ@Z 000000018002fc70     ElectronicJournal.obj
 0002:0000bc8c       $unwind$?LoadNameCache@CComTypeInfoHolder@ATL@@QEAAJPEAUITypeInfo@@@Z 000000018002fc8c     ElectronicJournal.obj
 0002:0000bca0       $unwind$?StartWindowProc@?$CWindowImplBaseT@VCWindow@ATL@@V?$CWinTraits@$0FGAAAAAA@$0A@@2@@ATL@@SA_JPEAUHWND__@@I_K_J@Z 000000018002fca0     ElectronicJournal.obj
 0002:0000bca0       $unwind$?should_round_up@@YA_NQEBN_KFW4__acrt_rounding_mode@@@Z 000000018002fca0     libucrt:cvt.obj
 0002:0000bca0       $unwind$??$parse_command_line@D@@YAXPEADPEAPEAD0PEA_K2@Z 000000018002fca0     libucrt:argv_parsing.obj
 0002:0000bcbc       $unwind$?WindowProc@?$CWindowImplBaseT@VCWindow@ATL@@V?$CWinTraits@$0FGAAAAAA@$0A@@2@@ATL@@SA_JPEAUHWND__@@I_K_J@Z 000000018002fcbc     ElectronicJournal.obj
 0002:0000bcd4       $unwind$?atlCreate@?$CWindowImplBaseT@VCWindow@ATL@@V?$CWinTraits@$0FGAAAAAA@$0A@@2@@ATL@@QEAAPEAUHWND__@@PEAU3@V_U_RECT@2@PEB_WKKV_U_MENUorID@2@GPEAX@Z 000000018002fcd4     ElectronicJournal.obj
 0002:0000bcec       $unwind$??$AtlModuleRegisterWndClassInfoT@VAtlModuleRegisterWndClassInfoParamW@ATL@@@ATL@@YAGPEAU_ATL_BASE_MODULE70@0@PEAU_ATL_WIN_MODULE70@0@PEAU_ATL_WNDCLASSINFOW@0@PEAP6A_JPEAUHWND__@@I_K_J@ZVAtlModuleRegisterWndClassInfoParamW@0@@Z 000000018002fcec     ElectronicJournal.obj
 0002:0000bd0c       $unwind$?GetZoomInfo@CComControlBase@ATL@@QEAAXAEAUATL_DRAWINFO@@@Z 000000018002fd0c     ElectronicJournal.obj
 0002:0000bd0c       $unwind$?OnKillFocus@CComControlBase@ATL@@QEAA_JI_K_JAEAH@Z 000000018002fd0c     ElectronicJournal.obj
 0002:0000bd0c       $unwind$iswctype           000000018002fd0c     libucrt:iswctype.obj
 0002:0000bd18       $unwind$?SendOnDataChange@CComControlBase@ATL@@QEAAJK@Z 000000018002fd18     ElectronicJournal.obj
 0002:0000bd28       $unwind$?OnSetFocus@CComControlBase@ATL@@QEAA_JI_K_JAEAH@Z 000000018002fd28     ElectronicJournal.obj
 0002:0000bd38       $unwind$?OnMouseActivate@CComControlBase@ATL@@QEAA_JI_K_JAEAH@Z 000000018002fd38     ElectronicJournal.obj
 0002:0000bd40       $unwind$?GetAmbientLocaleID@CComControlBase@ATL@@QEAAJAEAK@Z 000000018002fd40     ElectronicJournal.obj
 0002:0000bd40       $unwind$?GetAmbientUserMode@CComControlBase@ATL@@QEAAJAEAH@Z 000000018002fd40     ElectronicJournal.obj
 0002:0000bd50       $unwind$?IQuickActivate_QuickActivate@CComControlBase@ATL@@QEAAJPEAUtagQACONTAINER@@PEAUtagQACONTROL@@@Z 000000018002fd50     ElectronicJournal.obj
 0002:0000bd68       $unwind$?DoVerbProperties@CComControlBase@ATL@@QEAAJPEBUtagRECT@@PEAUHWND__@@@Z 000000018002fd68     ElectronicJournal.obj
 0002:0000bd80       $unwind$?InPlaceActivate@CComControlBase@ATL@@QEAAJJPEBUtagRECT@@@Z 000000018002fd80     ElectronicJournal.obj
 0002:0000bda0       $unwind$?IOleObject_Close@CComControlBase@ATL@@QEAAJK@Z 000000018002fda0     ElectronicJournal.obj
 0002:0000bda0       $unwind$?type_case_c_tchar@?$output_processor@_WV?$string_output_adapter@_W@__crt_stdio_output@@V?$format_validation_base@_WV?$string_output_adapter@_W@__crt_stdio_output@@@2@@__crt_stdio_output@@AEAA_N_W@Z 000000018002fda0     libucrt:output.obj
 0002:0000bdb0       $unwind$?IOleInPlaceObject_UIDeactivate@CComControlBase@ATL@@QEAAJXZ 000000018002fdb0     ElectronicJournal.obj
 0002:0000bdc8       $unwind$?IOleInPlaceObject_SetObjectRects@CComControlBase@ATL@@QEAAJPEBUtagRECT@@0@Z 000000018002fdc8     ElectronicJournal.obj
 0002:0000bddc       $unwind$?IViewObject_Draw@CComControlBase@ATL@@QEAAJKJPEAXPEAUtagDVTARGETDEVICE@@PEAUHDC__@@2PEBU_RECTL@@3@Z 000000018002fddc     ElectronicJournal.obj
 0002:0000bdf8       $unwind$?IDataObject_GetData@CComControlBase@ATL@@QEAAJPEAUtagFORMATETC@@PEAUtagSTGMEDIUM@@@Z 000000018002fdf8     ElectronicJournal.obj
 0002:0000be18       $unwind$?OnPaint@CComControlBase@ATL@@QEAA_JI_K_JAEAH@Z 000000018002fe18     ElectronicJournal.obj
 0002:0000be34       $unwind$?OnDrawAdvanced@CComControlBase@ATL@@UEAAJAEAUATL_DRAWINFO@@@Z 000000018002fe34     ElectronicJournal.obj
 0002:0000be50       $unwind$?Invoke@?$IDispatchImpl@UIOPOSElectronicJournal@@$1?IID_IOPOSElectronicJournal@@3U_GUID@@B$1?LIBID_OposElectronicJournal_CCO@@3U3@B$00$0A@VCComTypeInfoHolder@ATL@@@ATL@@UEAAJJAEBU_GUID@@KGPEAUtagDISPPARAMS@@PEAUtagVARIANT@@PEAUtagEXCEPINFO@@PEAI@Z 000000018002fe50     ElectronicJournal.obj
 0002:0000be50       $unwind$?ReleaseDevice@COPOSElectronicJournal@@UEAAJPEAJ@Z 000000018002fe50     ElectronicJournalImpl.obj
 0002:0000be50       $unwind$_mbsdec_l          000000018002fe50     libucrt:mbsdec.obj
 0002:0000be5c       $unwind$?atlCreate@?$CWindowImpl@VCOPOSElectronicJournal@@VCWindow@ATL@@V?$CWinTraits@$0FGAAAAAA@$0A@@3@@ATL@@QEAAPEAUHWND__@@PEAU3@V_U_RECT@2@PEB_WKKV_U_MENUorID@2@PEAX@Z 000000018002fe5c     ElectronicJournal.obj
 0002:0000be5c       $unwind$?fp_format_e@@YAHQEBNQEAD_K12H_NIQEAU__crt_locale_pointers@@W4__acrt_rounding_mode@@@Z 000000018002fe5c     libucrt:cvt.obj
 0002:0000be5c       $unwind$_mbtowc_l          000000018002fe5c     libucrt:mbtowc.obj
 0002:0000be5c       $unwind$__acrt_LCMapStringEx 000000018002fe5c     libucrt:winapi_thunks.obj
 0002:0000be70       $unwind$?CreateControlWindow@?$CComControl@VCOPOSElectronicJournal@@V?$CWindowImpl@VCOPOSElectronicJournal@@VCWindow@ATL@@V?$CWinTraits@$0FGAAAAAA@$0A@@3@@ATL@@@ATL@@UEAAPEAUHWND__@@PEAU3@AEAUtagRECT@@@Z 000000018002fe70     ElectronicJournal.obj
 0002:0000be70       $unwind$?CancelPrintContent@COPOSElectronicJournal@@UEAAJPEAJ@Z 000000018002fe70     ElectronicJournalImpl.obj
 0002:0000be70       $unwind$?CancelQueryContent@COPOSElectronicJournal@@UEAAJPEAJ@Z 000000018002fe70     ElectronicJournalImpl.obj
 0002:0000be70       $unwind$?ClearInput@COPOSElectronicJournal@@UEAAJPEAJ@Z 000000018002fe70     ElectronicJournalImpl.obj
 0002:0000be70       $unwind$?ClearOutput@COPOSElectronicJournal@@UEAAJPEAJ@Z 000000018002fe70     ElectronicJournalImpl.obj
 0002:0000be70       $unwind$?EraseMedium@COPOSElectronicJournal@@UEAAJPEAJ@Z 000000018002fe70     ElectronicJournalImpl.obj
 0002:0000be70       $unwind$?ResumePrintContent@COPOSElectronicJournal@@UEAAJPEAJ@Z 000000018002fe70     ElectronicJournalImpl.obj
 0002:0000be70       $unwind$?ResumeQueryContent@COPOSElectronicJournal@@UEAAJPEAJ@Z 000000018002fe70     ElectronicJournalImpl.obj
 0002:0000be70       $unwind$?SuspendPrintContent@COPOSElectronicJournal@@UEAAJPEAJ@Z 000000018002fe70     ElectronicJournalImpl.obj
 0002:0000be70       $unwind$?SuspendQueryContent@COPOSElectronicJournal@@UEAAJPEAJ@Z 000000018002fe70     ElectronicJournalImpl.obj
 0002:0000be70       $unwind$?__scrt_throw_std_bad_alloc@@YAXXZ 000000018002fe70     LIBCMT:throw_bad_alloc.obj
 0002:0000be70       $unwind$?__scrt_throw_std_bad_array_new_length@@YAXXZ 000000018002fe70     LIBCMT:throw_bad_alloc.obj
 0002:0000be70       $unwind$_raise_exc         000000018002fe70     libucrt:fpexcept.obj
 0002:0000be78       $unwind$?GetSizeMax@?$IPersistStreamInitImpl@VCOPOSElectronicJournal@@@ATL@@UEAAJPEAT_ULARGE_INTEGER@@@Z 000000018002fe78     ElectronicJournal.obj
 0002:0000be90       $unwind$?IPersistStreamInit_Load@?$IPersistStreamInitImpl@VCOPOSElectronicJournal@@@ATL@@QEAAJPEAUIStream@@PEBUATL_PROPMAP_ENTRY@2@@Z 000000018002fe90     ElectronicJournal.obj
 0002:0000beac       $unwind$?IPersistStreamInit_Save@?$IPersistStreamInitImpl@VCOPOSElectronicJournal@@@ATL@@QEAAJPEAUIStream@@HPEBUATL_PROPMAP_ENTRY@2@@Z 000000018002feac     ElectronicJournal.obj
 0002:0000bec8       $unwind$?DoVerbPrimary@?$IOleObjectImpl@VCOPOSElectronicJournal@@@ATL@@QEAAJPEBUtagRECT@@PEAUHWND__@@@Z 000000018002fec8     ElectronicJournal.obj
 0002:0000bee0       $unwind$?TranslateAcceleratorW@?$IOleInPlaceActiveObjectImpl@VCOPOSElectronicJournal@@@ATL@@UEAAJPEAUtagMSG@@@Z 000000018002fee0     ElectronicJournal.obj
 0002:0000beec       $unwind$?Draw@?$IViewObjectExImpl@VCOPOSElectronicJournal@@@ATL@@UEAAJKJPEAXPEAUtagDVTARGETDEVICE@@PEAUHDC__@@2PEBU_RECTL@@3P6AH_K@Z4@Z 000000018002feec     ElectronicJournal.obj
 0002:0000bef4       $unwind$?QueryHitRect@?$IViewObjectExImpl@VCOPOSElectronicJournal@@@ATL@@UEAAJKPEBUtagRECT@@0JPEAK@Z 000000018002fef4     ElectronicJournal.obj
 0002:0000bf04       $unwind$?OnWindowMessage@?$IOleInPlaceObjectWindowlessImpl@VCOPOSElectronicJournal@@@ATL@@UEAAJI_K_JPEA_J@Z 000000018002ff04     ElectronicJournal.obj
 0002:0000bf18       $unwind$?EnumConnectionPoints@?$IConnectionPointContainerImpl@VCOPOSElectronicJournal@@@ATL@@UEAAJPEAPEAUIEnumConnectionPoints@@@Z 000000018002ff18     ElectronicJournal.obj
 0002:0000bf40       $unwind$?FindConnectionPoint@?$IConnectionPointContainerImpl@VCOPOSElectronicJournal@@@ATL@@UEAAJAEBU_GUID@@PEAPEAUIConnectionPoint@@@Z 000000018002ff40     ElectronicJournal.obj
 0002:0000bf40       $unwind$?__mbrtoc32_utf8@__crt_mbstring@@YA_KPEA_UPEBD_KPEAU_Mbstatet@@@Z 000000018002ff40     libucrt:mbrtoc32.obj
 0002:0000bf5c       $unwind$?Load@?$IPersistStorageImpl@VCOPOSElectronicJournal@@@ATL@@UEAAJPEAUIStorage@@@Z 000000018002ff5c     ElectronicJournal.obj
 0002:0000bf6c       $unwind$?Save@?$IPersistStorageImpl@VCOPOSElectronicJournal@@@ATL@@UEAAJPEAUIStorage@@H@Z 000000018002ff6c     ElectronicJournal.obj
 0002:0000bf80       $unwind$?IPSI_GetIPersistStreamInit@?$IPersistStorageImpl@VCOPOSElectronicJournal@@@ATL@@AEAAPEAUIPersistStreamInit@@XZ 000000018002ff80     ElectronicJournal.obj
 0002:0000bf80       $unwind$?parse_int_from_format_string@?$output_processor@_WV?$string_output_adapter@_W@__crt_stdio_output@@V?$format_validation_base@_WV?$string_output_adapter@_W@__crt_stdio_output@@@2@@__crt_stdio_output@@AEAA_NQEAH@Z 000000018002ff80     libucrt:output.obj
 0002:0000bf94       $unwind$?GetInterfaceSafetyOptions@?$IObjectSafetyImpl@VCOPOSElectronicJournal@@$02@ATL@@UEAAJAEBU_GUID@@PEAK1@Z 000000018002ff94     ElectronicJournal.obj
 0002:0000bfa8       $unwind$?SetInterfaceSafetyOptions@?$IObjectSafetyImpl@VCOPOSElectronicJournal@@$02@ATL@@UEAAJAEBU_GUID@@KK@Z 000000018002ffa8     ElectronicJournal.obj
 0002:0000bfbc       $unwind$?Advise@?$IConnectionPointImpl@VCOPOSElectronicJournal@@$1?DIID__IOPOSElectronicJournalEvents@@3U_GUID@@BVCComDynamicUnkArray@ATL@@@ATL@@UEAAJPEAUIUnknown@@PEAK@Z 000000018002ffbc     ElectronicJournal.obj
 0002:0000bfbc       $unwind$?Advise@?$IConnectionPointImpl@VCOPOSElectronicJournal@@$1?IID_IPropertyNotifySink@@3U_GUID@@BVCComDynamicUnkArray@ATL@@@ATL@@UEAAJPEAUIUnknown@@PEAK@Z 000000018002ffbc     ElectronicJournal.obj
 0002:0000bfd0       $unwind$?Fire_DataEvent@?$CProxy_IOPOSEvents@VCOPOSElectronicJournal@@@@QEAAXJ@Z 000000018002ffd0     ElectronicJournal.obj
 0002:0000bfd0       $unwind$?Fire_OutputCompleteEvent@?$CProxy_IOPOSEvents@VCOPOSElectronicJournal@@@@QEAAXJ@Z 000000018002ffd0     ElectronicJournal.obj
 0002:0000bfd0       $unwind$?Fire_StatusUpdateEvent@?$CProxy_IOPOSEvents@VCOPOSElectronicJournal@@@@QEAAXJ@Z 000000018002ffd0     ElectronicJournal.obj
 0002:0000bfe8       $unwind$?Fire_DirectIOEvent@?$CProxy_IOPOSEvents@VCOPOSElectronicJournal@@@@QEAAXJPEAJPEAPEA_W@Z 000000018002ffe8     ElectronicJournal.obj
 0002:0000c008       $unwind$?Fire_ErrorEvent@?$CProxy_IOPOSEvents@VCOPOSElectronicJournal@@@@QEAAXJJJPEAJ@Z 0000000180030008     ElectronicJournal.obj
 0002:0000c028       $unwind$?FireTheEvent@?$CProxy_IOPOSEvents@VCOPOSElectronicJournal@@@@IEAAXPEAVOposVariant@@IAEAJPEB_WJ@Z 0000000180030028     ElectronicJournal.obj
 0002:0000c038       $unwind$?ProcessWindowMessage@COPOSElectronicJournal@@UEAAHPEAUHWND__@@I_K_JAEA_JK@Z 0000000180030038     ElectronicJournal.obj
 0002:0000c038       $unwind$__dcrt_get_narrow_environment_from_os 0000000180030038     libucrt:get_environment_from_os.obj
 0002:0000c038       $unwind$?fp_format_f_internal@@YAHQEAD_KHQEAU_strflt@@_NQEAU__crt_locale_pointers@@@Z 0000000180030038     libucrt:cvt.obj
 0002:0000c038       $unwind$??$__acrt_wcs_to_mbs_cp@U__crt_win32_buffer_internal_dynamic_resizing@@@@YAHQEB_WAEAV?$__crt_win32_buffer@DU__crt_win32_buffer_internal_dynamic_resizing@@@@I@Z 0000000180030038     libucrt:argv_wildcards.obj
 0002:0000c050       $unwind$?SOError@COPOSElectronicJournal@@MEAAJJJJPEAJ@Z 0000000180030050     ElectronicJournal.obj
 0002:0000c050       $unwind$_invalid_parameter 0000000180030050     libucrt:invalid_parameter.obj
 0002:0000c064       $unwind$?Clone@?$CComEnumImpl@UIEnumConnectionPoints@@$1?_GUID_b196b285_bab4_101a_b69c_00aa00341d07@@3U__s_GUID@@BPEAUIConnectionPoint@@V?$_CopyInterface@UIConnectionPoint@@@ATL@@@ATL@@UEAAJPEAPEAUIEnumConnectionPoints@@@Z 0000000180030064     ElectronicJournal.obj
 0002:0000c064       $unwind$?Clone@?$CComEnumImpl@UIEnumConnections@@$1?_GUID_b196b287_bab4_101a_b69c_00aa00341d07@@3U__s_GUID@@BUtagCONNECTDATA@@V?$_Copy@UtagCONNECTDATA@@@ATL@@@ATL@@UEAAJPEAPEAUIEnumConnections@@@Z 0000000180030064     ElectronicJournal.obj
 0002:0000c07c       $unwind$?GetOposProp@COPOSElectronicJournal@@IEAAJJPEAJJ@Z 000000018003007c     ElectronicJournalImpl.obj
 0002:0000c07c       $unwind$?GetOposProp@COPOSElectronicJournal@@IEAAJJPEAPEA_WJ@Z 000000018003007c     ElectronicJournalImpl.obj
 0002:0000c094       $unwind$?SetOposProp@COPOSElectronicJournal@@IEAAJJJJ@Z 0000000180030094     ElectronicJournalImpl.obj
 0002:0000c0b4       $unwind$?DoInvoke@COPOSElectronicJournal@@IEAAJJPEAVOposVariant@@IHPEAJ_N@Z 00000001800300b4     ElectronicJournalImpl.obj
 0002:0000c0cc       $unwind$?SetCOFreezeEvents@COPOSElectronicJournal@@IEAAXF@Z 00000001800300cc     ElectronicJournalImpl.obj
 0002:0000c0e0       $unwind$?OnDraw@COPOSElectronicJournal@@MEAAJAEAUATL_DRAWINFO@@@Z 00000001800300e0     ElectronicJournalImpl.obj
 0002:0000c0f8       $unwind$?EventInit@COPOSElectronicJournal@@IEAAJXZ 00000001800300f8     ElectronicJournalImpl.obj
 0002:0000c10c       $unwind$?EventWindowProc@COPOSElectronicJournal@@IEAA_JI_K_J@Z 000000018003010c     ElectronicJournalImpl.obj
 0002:0000c10c       $unwind$__stdio_common_vswprintf_s 000000018003010c     libucrt:output.obj
 0002:0000c118       $unwind$?get_ControlObjectDescription@COPOSElectronicJournal@@UEAAJPEAPEA_W@Z 0000000180030118     ElectronicJournalImpl.obj
 0002:0000c118       $unwind$__dcrt_lowio_ensure_console_output_initialized 0000000180030118     libucrt:initcon.obj
 0002:0000c118       $unwind$_isleadbyte_l      0000000180030118     libucrt:_wctype.obj
 0002:0000c118       $unwind$?getSystemCP@@YAHH@Z 0000000180030118     libucrt:mbctype.obj
 0002:0000c120       $unwind$?AddMarker@COPOSElectronicJournal@@UEAAJPEA_WPEAJ@Z 0000000180030120     ElectronicJournalImpl.obj
 0002:0000c120       $unwind$?CheckHealth@COPOSElectronicJournal@@UEAAJJPEAJ@Z 0000000180030120     ElectronicJournalImpl.obj
 0002:0000c120       $unwind$?InitializeMedium@COPOSElectronicJournal@@UEAAJPEA_WPEAJ@Z 0000000180030120     ElectronicJournalImpl.obj
 0002:0000c120       $unwind$?PrintContentFile@COPOSElectronicJournal@@UEAAJPEA_WPEAJ@Z 0000000180030120     ElectronicJournalImpl.obj
 0002:0000c120       $unwind$?ResetStatistics@COPOSElectronicJournal@@UEAAJPEA_WPEAJ@Z 0000000180030120     ElectronicJournalImpl.obj
 0002:0000c120       $unwind$?RetrieveStatistics@COPOSElectronicJournal@@UEAAJPEAPEA_WPEAJ@Z 0000000180030120     ElectronicJournalImpl.obj
 0002:0000c120       $unwind$?UpdateFirmware@COPOSElectronicJournal@@UEAAJPEA_WPEAJ@Z 0000000180030120     ElectronicJournalImpl.obj
 0002:0000c120       $unwind$?UpdateStatistics@COPOSElectronicJournal@@UEAAJPEA_WPEAJ@Z 0000000180030120     ElectronicJournalImpl.obj
 0002:0000c130       $unwind$?ClaimDevice@COPOSElectronicJournal@@UEAAJJPEAJ@Z 0000000180030130     ElectronicJournalImpl.obj
 0002:0000c140       $unwind$?Close@COPOSElectronicJournal@@UEAAJPEAJ@Z 0000000180030140     ElectronicJournalImpl.obj
 0002:0000c14c       $unwind$?DirectIO@COPOSElectronicJournal@@UEAAJJPEAJPEAPEA_W0@Z 000000018003014c     ElectronicJournalImpl.obj
 0002:0000c168       $unwind$?Open@COPOSElectronicJournal@@UEAAJPEA_WPEAJ@Z 0000000180030168     ElectronicJournalImpl.obj
 0002:0000c18c       $unwind$?CompareFirmwareVersion@COPOSElectronicJournal@@UEAAJPEA_WPEAJ1@Z 000000018003018c     ElectronicJournalImpl.obj
 0002:0000c18c       $unwind$?PrintContent@COPOSElectronicJournal@@UEAAJPEA_W0PEAJ@Z 000000018003018c     ElectronicJournalImpl.obj
 0002:0000c18c       $unwind$?RetrieveCurrentMarker@COPOSElectronicJournal@@UEAAJJPEAPEA_WPEAJ@Z 000000018003018c     ElectronicJournalImpl.obj
 0002:0000c18c       $unwind$?RetrieveMarkersDateTime@COPOSElectronicJournal@@UEAAJPEA_WPEAPEA_WPEAJ@Z 000000018003018c     ElectronicJournalImpl.obj
 0002:0000c18c       $unwind$?initialize_inherited_file_handles_nolock@@YAXXZ 000000018003018c     libucrt:ioinit.obj
 0002:0000c1a8       $unwind$?get_MediumFreeSpace@COPOSElectronicJournal@@UEAAJPEATtagCY@@@Z 00000001800301a8     ElectronicJournalImpl.obj
 0002:0000c1a8       $unwind$?get_MediumSize@COPOSElectronicJournal@@UEAAJPEATtagCY@@@Z 00000001800301a8     ElectronicJournalImpl.obj
 0002:0000c1bc       $unwind$?QueryContent@COPOSElectronicJournal@@UEAAJPEA_W00PEAJ@Z 00000001800301bc     ElectronicJournalImpl.obj
 0002:0000c1dc       $unwind$?RetrieveMarker@COPOSElectronicJournal@@UEAAJJJJPEAPEA_WPEAJ@Z 00000001800301dc     ElectronicJournalImpl.obj
 0002:0000c1fc       $unwind$?RetrieveMarkerByDateTime@COPOSElectronicJournal@@UEAAJJPEA_W0PEAPEA_WPEAJ@Z 00000001800301fc     ElectronicJournalImpl.obj
 0002:0000c21c       $unwind$__scrt_is_nonwritable_in_current_image 000000018003021c     LIBCMT:utility.obj
 0002:0000c23c       $unwind$__scrt_is_nonwritable_in_current_image$filt$0 000000018003023c     LIBCMT:utility.obj
 0002:0000c244       $unwind$__report_securityfailure 0000000180030244     LIBCMT:gs_report.obj
 0002:0000c24c       $unwind$__report_gsfailure 000000018003024c     LIBCMT:gs_report.obj
 0002:0000c254       $unwind$capture_current_context 0000000180030254     LIBCMT:gs_report.obj
 0002:0000c260       $unwind$capture_previous_context 0000000180030260     LIBCMT:gs_report.obj
 0002:0000c26c       $unwind$??2@YAPEAX_KAEBUnothrow_t@std@@@Z 000000018003026c     LIBCMT:new_scalar_nothrow.obj
 0002:0000c27c       $cppxdata$??2@YAPEAX_KAEBUnothrow_t@std@@@Z 000000018003027c     LIBCMT:new_scalar_nothrow.obj
 0002:0000c289       $stateUnwindMap$??2@YAPEAX_KAEBUnothrow_t@std@@@Z 0000000180030289     LIBCMT:new_scalar_nothrow.obj
 0002:0000c28c       $tryMap$??2@YAPEAX_KAEBUnothrow_t@std@@@Z 000000018003028c     LIBCMT:new_scalar_nothrow.obj
 0002:0000c294       $handlerMap$??2@YAPEAX_KAEBUnothrow_t@std@@@Z 0000000180030294     LIBCMT:new_scalar_nothrow.obj
 0002:0000c29c       $ip2state$??2@YAPEAX_KAEBUnothrow_t@std@@@Z 000000018003029c     LIBCMT:new_scalar_nothrow.obj
 0002:0000c2a0       $unwind$?catch$0@?0???2@YAPEAX_KAEBUnothrow_t@std@@@Z@4HA 00000001800302a0     LIBCMT:new_scalar_nothrow.obj
 0002:0000c2b0       $cppxdata$?catch$0@?0???2@YAPEAX_KAEBUnothrow_t@std@@@Z@4HA 00000001800302b0     LIBCMT:new_scalar_nothrow.obj
 0002:0000c2ba       $stateUnwindMap$?catch$0@?0???2@YAPEAX_KAEBUnothrow_t@std@@@Z@4HA 00000001800302ba     LIBCMT:new_scalar_nothrow.obj
 0002:0000c2bc       $ip2state$?catch$0@?0???2@YAPEAX_KAEBUnothrow_t@std@@@Z@4HA 00000001800302bc     LIBCMT:new_scalar_nothrow.obj
 0002:0000c2c0       $unwind$__GSHandlerCheckCommon 00000001800302c0     LIBCMT:gshandler.obj
 0002:0000c2c8       $xdatasym                  00000001800302c8     LIBCMT:chkstk.obj
 0002:0000c2d0       $xdatasym                  00000001800302d0     LIBCMT:amdsecgs.obj
 0002:0000c2d4       $unwind$?dllmain_crt_process_attach@@YAHQEAUHINSTANCE__@@QEAX@Z 00000001800302d4     LIBCMT:dll_dllmain.obj
 0002:0000c310       $unwind$?dllmain_crt_process_detach@@YAH_N@Z 0000000180030310     LIBCMT:dll_dllmain.obj
 0002:0000c364       $unwind$?dllmain_dispatch@@YAHQEAUHINSTANCE__@@KQEAX@Z 0000000180030364     LIBCMT:dll_dllmain.obj
 0002:0000c38c       $unwind$?filt$0@?0??dllmain_dispatch@@YAHQEAUHINSTANCE__@@KQEAX@Z@4HA 000000018003038c     LIBCMT:dll_dllmain.obj
 0002:0000c38c       $unwind$?filt$0@?0??FrameUnwindToState@__FrameHandler4@@SAXPEA_KPEAU_xDISPATCHER_CONTEXT@@PEAUFuncInfo4@FH4@@H@Z@4HA 000000018003038c     libvcruntime:frame.obj
 0002:0000c38c       $unwind$?fin$1@?0??FrameUnwindToState@__FrameHandler4@@SAXPEA_KPEAU_xDISPATCHER_CONTEXT@@PEAUFuncInfo4@FH4@@H@Z@4HA 000000018003038c     libvcruntime:frame.obj
 0002:0000c394       $unwind$__isa_available_init 0000000180030394     LIBCMT:cpu_disp.obj
 0002:0000c3a4       $unwind$__scrt_fastfail    00000001800303a4     LIBCMT:utility_desktop.obj
 0002:0000c3b4       $unwind$__security_init_cookie 00000001800303b4     LIBCMT:gs_support.obj
 0002:0000c3c0       $xdatasym                  00000001800303c0     LIBCMT:guard_dispatch.obj
 0002:0000c3c8       $xdatasym                  00000001800303c8     LIBCMT:guard_xfg_dispatch.obj
 0002:0000c3cc       $unwind$AtlThunk_InitData  00000001800303cc     atls:atlthunk.obj
 0002:0000c3e0       $unwind$wcsstr             00000001800303e0     libvcruntime:wcsstr.obj
 0002:0000c3f8       $xdatasym                  00000001800303f8     libvcruntime:memcmp.obj
 0002:0000c400       $xdatasym                  0000000180030400     libvcruntime:memcpy.obj
 0002:0000c410       $xdatasym                  0000000180030410     libvcruntime:memset.obj
 0002:0000c420       $unwind$__C_specific_handler 0000000180030420     libvcruntime:riscchandler.obj
 0002:0000c43c       $unwind$?DecompFuncInfo@FH4@@YA_JPEAEAEAUFuncInfo4@1@_KH_N@Z 000000018003043c     libvcruntime:risctrnsctrl.obj
 0002:0000c454       $unwind$?UnwindNestedFrames@__FrameHandler4@@SAXPEA_KPEAUEHExceptionRecord@@PEAU_CONTEXT@@0PEAXPEAUFuncInfo4@FH4@@HHPEAUHandlerType4@5@PEAU_xDISPATCHER_CONTEXT@@E@Z 0000000180030454     libvcruntime:risctrnsctrl.obj
 0002:0000c468       $unwind$?GetRangeOfTrysToCheck@__FrameHandler4@@SA?AU?$pair@Viterator@TryBlockMap4@FH4@@V123@@std@@AEAVTryBlockMap4@FH4@@HPEAU_xDISPATCHER_CONTEXT@@PEAUFuncInfo4@5@H@Z 0000000180030468     libvcruntime:risctrnsctrl.obj
 0002:0000c484       $unwind$__CxxFrameHandler4 0000000180030484     libvcruntime:risctrnsctrl.obj
 0002:0000c498       $unwind$??$_CallSETranslator@V__FrameHandler4@@@@YAHPEAUEHExceptionRecord@@PEA_KPEAU_CONTEXT@@PEAU_xDISPATCHER_CONTEXT@@PEAUFuncInfo4@FH4@@K1H@Z 0000000180030498     libvcruntime:risctrnsctrl.obj
 0002:0000c4b8       $unwind$?filt$0@?0???$_CallSETranslator@V__FrameHandler4@@@@YAHPEAUEHExceptionRecord@@PEA_KPEAU_CONTEXT@@PEAU_xDISPATCHER_CONTEXT@@PEAUFuncInfo4@FH4@@K1H@Z@4HA 00000001800304b8     libvcruntime:risctrnsctrl.obj
 0002:0000c4c4       $unwind$__DestructExceptionObject 00000001800304c4     libvcruntime:ehhelpers.obj
 0002:0000c4e4       $unwind$__DestructExceptionObject$filt$0 00000001800304e4     libvcruntime:ehhelpers.obj
 0002:0000c4e4       $unwind$?fin$1@?0??CxxCallCatchBlock@__FrameHandler4@@SAPEAXPEAU_EXCEPTION_RECORD@@@Z@4HA 00000001800304e4     libvcruntime:frame.obj
 0002:0000c4f0       $unwind$_CxxThrowException 00000001800304f0     libvcruntime:throw.obj
 0002:0000c500       $xdatasym                  0000000180030500     libvcruntime:notify.obj
 0002:0000c50c       $unwind$?StateFromIp@__FrameHandler4@@SAHPEAUFuncInfo4@FH4@@PEAU_xDISPATCHER_CONTEXT@@_K@Z 000000018003050c     libvcruntime:ehstate.obj
 0002:0000c520       $unwind$?getStartStop@UWMap4@FH4@@QEAAXHHAEAViterator@12@0@Z 0000000180030520     libvcruntime:frame.obj
 0002:0000c538       $unwind$?FrameUnwindToState@__FrameHandler4@@SAXPEA_KPEAU_xDISPATCHER_CONTEXT@@PEAUFuncInfo4@FH4@@H@Z 0000000180030538     libvcruntime:frame.obj
 0002:0000c580       $unwind$?CxxCallCatchBlock@__FrameHandler4@@SAPEAXPEAU_EXCEPTION_RECORD@@@Z 0000000180030580     libvcruntime:frame.obj
 0002:0000c5dc       $unwind$?IsInExceptionSpec@@YAEPEAUEHExceptionRecord@@PEBU_s_ESTypeList@@@Z 00000001800305dc     libvcruntime:frame.obj
 0002:0000c5f8       $unwind$??$__InternalCxxFrameHandler@V__FrameHandler4@@@@YA?AW4_EXCEPTION_DISPOSITION@@PEAUEHExceptionRecord@@PEA_KPEAU_CONTEXT@@PEAU_xDISPATCHER_CONTEXT@@PEAUFuncInfo4@FH4@@H1E@Z 00000001800305f8     libvcruntime:frame.obj
 0002:0000c610       $unwind$??$BuildCatchObjectHelperInternal@V__FrameHandler4@@@@YAHPEAUEHExceptionRecord@@PEAXPEAUHandlerType4@FH4@@PEBU_s_CatchableType@@@Z 0000000180030610     libvcruntime:frame.obj
 0002:0000c650       $unwind$??$BuildCatchObjectInternal@V__FrameHandler4@@@@YAXPEAUEHExceptionRecord@@PEAXPEAUHandlerType4@FH4@@PEBU_s_CatchableType@@@Z 0000000180030650     libvcruntime:frame.obj
 0002:0000c67c       $unwind$??$FindHandler@V__FrameHandler4@@@@YAXPEAUEHExceptionRecord@@PEA_KPEAU_CONTEXT@@PEAU_xDISPATCHER_CONTEXT@@PEAUFuncInfo4@FH4@@EH1@Z 000000018003067c     libvcruntime:frame.obj
 0002:0000c69c       $unwind$??$CatchIt@V__FrameHandler4@@@@YAXPEAUEHExceptionRecord@@PEA_KPEAU_CONTEXT@@PEAU_xDISPATCHER_CONTEXT@@PEAUFuncInfo4@FH4@@PEAUHandlerType4@4@PEBU_s_CatchableType@@PEAUTryBlockMapEntry4@4@H1EE@Z 000000018003069c     libvcruntime:frame.obj
 0002:0000c6b4       $unwind$??$FindHandlerForForeignException@V__FrameHandler4@@@@YAXPEAUEHExceptionRecord@@PEA_KPEAU_CONTEXT@@PEAU_xDISPATCHER_CONTEXT@@PEAUFuncInfo4@FH4@@HH1@Z 00000001800306b4     libvcruntime:frame.obj
 0002:0000c6d4       $unwind$?try_get_function@@YAPEAXW4function_id@?A0x5302d918@@QEBDQEBW4module_id@2@2@Z 00000001800306d4     libvcruntime:winapi_downlevel.obj
 0002:0000c6d4       $unwind$?try_get_function@@YAPEAXW4function_id@?A0x391cf84c@@QEBDQEBW4module_id@2@2@Z 00000001800306d4     libucrt:winapi_thunks.obj
 0002:0000c6f0       $xdatasym                  00000001800306f0     libvcruntime:handlers.obj
 0002:0000c710       $unwind$__acrt_call_reportfault 0000000180030710     libucrt:invalid_parameter.obj
 0002:0000c730       $unwind$_resetstkoflw      0000000180030730     libucrt:resetstk.obj
 0002:0000c754       $unwind$?write_string@?$string_output_adapter@_W@__crt_stdio_output@@QEBAXQEB_WHQEAHAEAV__crt_deferred_errno_cache@@@Z 0000000180030754     libucrt:output.obj
 0002:0000c76c       $unwind$??$common_vsprintf@Vformat_validation_base@__crt_stdio_output@@_W@@YAH_KQEA_W0QEB_WQEAU__crt_locale_pointers@@QEAD@Z 000000018003076c     libucrt:output.obj
 0002:0000c78c       $unwind$??$write_multiple_characters@V?$string_output_adapter@_W@__crt_stdio_output@@D@__crt_stdio_output@@YAXAEBV?$string_output_adapter@_W@0@DHQEAH@Z 000000018003078c     libucrt:output.obj
 0002:0000c798       $unwind$?state_case_type@?$output_processor@_WV?$string_output_adapter@_W@__crt_stdio_output@@V?$format_validation_base@_WV?$string_output_adapter@_W@__crt_stdio_output@@@2@@__crt_stdio_output@@AEAA_NXZ 0000000180030798     libucrt:output.obj
 0002:0000c7bc       $unwind$?type_case_a@?$output_processor@_WV?$string_output_adapter@_W@__crt_stdio_output@@V?$format_validation_base@_WV?$string_output_adapter@_W@__crt_stdio_output@@@2@@__crt_stdio_output@@AEAA_NXZ 00000001800307bc     libucrt:output.obj
 0002:0000c7cc       $unwind$?write_stored_string_tchar@?$output_processor@_WV?$string_output_adapter@_W@__crt_stdio_output@@V?$format_validation_base@_WV?$string_output_adapter@_W@__crt_stdio_output@@@2@@__crt_stdio_output@@AEAA_N_W@Z 00000001800307cc     libucrt:output.obj
 0002:0000c7e0       $unwind$??$type_case_integer_parse_into_buffer@I@?$output_processor@_WV?$string_output_adapter@_W@__crt_stdio_output@@V?$format_validation_base@_WV?$string_output_adapter@_W@__crt_stdio_output@@@2@@__crt_stdio_output@@AEAAXII_N@Z 00000001800307e0     libucrt:output.obj
 0002:0000c7e0       $unwind$??$type_case_integer_parse_into_buffer@_K@?$output_processor@_WV?$string_output_adapter@_W@__crt_stdio_output@@V?$format_validation_base@_WV?$string_output_adapter@_W@__crt_stdio_output@@@2@@__crt_stdio_output@@AEAAX_KI_N@Z 00000001800307e0     libucrt:output.obj
 0002:0000c7e8       $unwind$?common_exit@@YAXHW4_crt_exit_cleanup_mode@@W4_crt_exit_return_mode@@@Z 00000001800307e8     libucrt:exit.obj
 0002:0000c7f4       $unwind$??R<lambda_6e4b09c48022b2350581041d5f6b0c4c>@@QEBA@XZ 00000001800307f4     libucrt:exit.obj
 0002:0000c814       $unwind$??$?RV<lambda_d80eeec6fff315bfe5c115232f3240e3>@@AEAV<lambda_6e4b09c48022b2350581041d5f6b0c4c>@@V<lambda_2358e3775559c9db80273638284d5e45>@@@?$__crt_seh_guarded_call@X@@QEAAX$$QEAV<lambda_d80eeec6fff315bfe5c115232f3240e3>@@AEAV<lambda_6e4b09c48022b2350581041d5f6b0c4c>@@$$QEAV<lambda_2358e3775559c9db80273638284d5e45>@@@Z 0000000180030814     libucrt:exit.obj
 0002:0000c838       $unwind$??$free_environment@D@@YAXQEAPEAD@Z 0000000180030838     libucrt:environment_initialization.obj
 0002:0000c838       $unwind$??$free_environment@_W@@YAXQEAPEA_W@Z 0000000180030838     libucrt:environment_initialization.obj
 0002:0000c844       $unwind$??$create_environment@D@@YAQEAPEADQEAD@Z 0000000180030844     libucrt:environment_initialization.obj
 0002:0000c85c       $unwind$_register_onexit_function 000000018003085c     libucrt:onexit.obj
 0002:0000c864       $unwind$_execute_onexit_table 0000000180030864     libucrt:onexit.obj
 0002:0000c86c       $unwind$??R<lambda_22ebabd17bc4fa466a2aca6d8deb888d>@@QEBAHXZ 000000018003086c     libucrt:onexit.obj
 0002:0000c884       $unwind$??$?RV<lambda_638799b9deba96c50f710eeac98168cd>@@AEAV<lambda_22ebabd17bc4fa466a2aca6d8deb888d>@@V<lambda_a6f7d7db0129f75315ebf26d50c089f1>@@@?$__crt_seh_guarded_call@H@@QEAAH$$QEAV<lambda_638799b9deba96c50f710eeac98168cd>@@AEAV<lambda_22ebabd17bc4fa466a2aca6d8deb888d>@@$$QEAV<lambda_a6f7d7db0129f75315ebf26d50c089f1>@@@Z 0000000180030884     libucrt:onexit.obj
 0002:0000c8a8       $unwind$??$?RV<lambda_7777bce6b2f8c936911f934f8298dc43>@@AEAV<lambda_f03950bc5685219e0bcd2087efbe011e>@@V<lambda_3883c3dff614d5e0c5f61bb1ac94921c>@@@?$__crt_seh_guarded_call@H@@QEAAH$$QEAV<lambda_7777bce6b2f8c936911f934f8298dc43>@@AEAV<lambda_f03950bc5685219e0bcd2087efbe011e>@@$$QEAV<lambda_3883c3dff614d5e0c5f61bb1ac94921c>@@@Z 00000001800308a8     libucrt:onexit.obj
 0002:0000c8cc       $unwind$_query_new_handler 00000001800308cc     libucrt:new_handler.obj
 0002:0000c8ec       $unwind$terminate          00000001800308ec     libucrt:terminate.obj
 0002:0000c90c       $unwind$??$parse_integer@KV?$c_string_character_source@_W@__crt_strtox@@@__crt_strtox@@YAKQEAU__crt_locale_pointers@@V?$c_string_character_source@_W@0@H_N@Z 000000018003090c     libucrt:atox.obj
 0002:0000c928       $xdatasym                  0000000180030928     libucrt:strncmp.obj
 0002:0000c92c       $unwind$?construct_ptd_array@@YAXQEAU__acrt_ptd@@@Z 000000018003092c     libucrt:per_thread_data.obj
 0002:0000c934       $unwind$?destroy_ptd_array@@YAXQEAU__acrt_ptd@@@Z 0000000180030934     libucrt:per_thread_data.obj
 0002:0000c93c       $unwind$??$?RV<lambda_0ae27a3a962d80f24befdcbee591983d>@@AEAV<lambda_8d0ee55de4b1038c4002e0adecdf1839>@@V<lambda_dc504788e8f1664fe9b84e20bfb512f2>@@@?$__crt_seh_guarded_call@X@@QEAAX$$QEAV<lambda_0ae27a3a962d80f24befdcbee591983d>@@AEAV<lambda_8d0ee55de4b1038c4002e0adecdf1839>@@$$QEAV<lambda_dc504788e8f1664fe9b84e20bfb512f2>@@@Z 000000018003093c     libucrt:per_thread_data.obj
 0002:0000c960       $unwind$??$?RV<lambda_aa87e3671a710a21b5dc78c0bdf72e11>@@AEAV<lambda_92619d2358a28f41a33ba319515a20b9>@@V<lambda_6992ecaafeb10aed2b74cb1fae11a551>@@@?$__crt_seh_guarded_call@X@@QEAAX$$QEAV<lambda_aa87e3671a710a21b5dc78c0bdf72e11>@@AEAV<lambda_92619d2358a28f41a33ba319515a20b9>@@$$QEAV<lambda_6992ecaafeb10aed2b74cb1fae11a551>@@@Z 0000000180030960     libucrt:per_thread_data.obj
 0002:0000c984       $unwind$??$?RV<lambda_f2e299630e499de9f9a165e60fcd3db5>@@AEAV<lambda_2ae9d31cdba2644fcbeaf08da7c24588>@@V<lambda_40d01ff24d0e7b3814fdbdcee8eab3c7>@@@?$__crt_seh_guarded_call@X@@QEAAX$$QEAV<lambda_f2e299630e499de9f9a165e60fcd3db5>@@AEAV<lambda_2ae9d31cdba2644fcbeaf08da7c24588>@@$$QEAV<lambda_40d01ff24d0e7b3814fdbdcee8eab3c7>@@@Z 0000000180030984     libucrt:per_thread_data.obj
 0002:0000c9a8       $unwind$??$?RV<lambda_2d41944a1d46af3157314b8a01080d33>@@AEAV<lambda_8f455de75cd7d7f24b4096f044d8b9e6>@@V<lambda_aa500f224e6afead328df44964fe2772>@@@?$__crt_seh_guarded_call@X@@QEAAX$$QEAV<lambda_2d41944a1d46af3157314b8a01080d33>@@AEAV<lambda_8f455de75cd7d7f24b4096f044d8b9e6>@@$$QEAV<lambda_aa500f224e6afead328df44964fe2772>@@@Z 00000001800309a8     libucrt:per_thread_data.obj
 0002:0000c9cc       $unwind$__acrt_initialize_winapi_thunks 00000001800309cc     libucrt:winapi_thunks.obj
 0002:0000c9d4       $unwind$__acrt_fp_format   00000001800309d4     libucrt:cvt.obj
 0002:0000c9ec       $unwind$?fp_format_e_internal@@YAHQEAD_KH_NIQEAU_strflt@@2QEAU__crt_locale_pointers@@@Z 00000001800309ec     libucrt:cvt.obj
 0002:0000ca04       $unwind$?fp_format_a@@YAHQEBNPEAD_KQEAD2H_NIQEAU__crt_locale_pointers@@W4__acrt_rounding_mode@@@Z 0000000180030a04     libucrt:cvt.obj
 0002:0000ca20       $unwind$?fp_format_g@@YAHQEBNQEAD_K12H_NIQEAU__crt_locale_pointers@@@Z 0000000180030a20     libucrt:cvt.obj
 0002:0000ca34       $unwind$__acrt_uninitialize_locale 0000000180030a34     libucrt:wsetlocale.obj
 0002:0000ca34       $unwind$__acrt_get_sigabrt_handler 0000000180030a34     libucrt:signal.obj
 0002:0000ca3c       $unwind$??$?RV<lambda_410d79af7f07d98d83a3f525b3859a53>@@AEAV<lambda_3e16ef9562a7dcce91392c22ab16ea36>@@V<lambda_38119f0e861e05405d8a144b9b982f0a>@@@?$__crt_seh_guarded_call@X@@QEAAX$$QEAV<lambda_410d79af7f07d98d83a3f525b3859a53>@@AEAV<lambda_3e16ef9562a7dcce91392c22ab16ea36>@@$$QEAV<lambda_38119f0e861e05405d8a144b9b982f0a>@@@Z 0000000180030a3c     libucrt:wsetlocale.obj
 0002:0000ca64       $unwind$__acrt_initialize_lowio 0000000180030a64     libucrt:ioinit.obj
 0002:0000ca84       $unwind$??$common_expand_argv_wildcards@D@@YAHQEAPEADQEAPEAPEAD@Z 0000000180030a84     libucrt:argv_wildcards.obj
 0002:0000ca9c       $unwind$??$copy_and_add_argument_to_buffer@D@@YAHQEBD0_KAEAV?$argument_list@D@?A0x5f5c8891@@@Z 0000000180030a9c     libucrt:argv_wildcards.obj
 0002:0000cab8       $unwind$??$expand_argument_wildcards@D@@YAHQEAD0AEAV?$argument_list@D@?A0x5f5c8891@@@Z 0000000180030ab8     libucrt:argv_wildcards.obj
 0002:0000cadc       $unwind$__acrt_GetModuleFileNameA 0000000180030adc     libucrt:getmodulefilenamea.obj
 0002:0000caf8       $unwind$_setmbcp_nolock    0000000180030af8     libucrt:mbctype.obj
 0002:0000cb18       $unwind$?update_thread_multibyte_data_internal@@YAPEAU__crt_multibyte_data@@QEAU__acrt_ptd@@QEAPEAU1@@Z 0000000180030b18     libucrt:mbctype.obj
 0002:0000cb40       $unwind$?setmbcp_internal@@YAHH_NQEAU__acrt_ptd@@QEAPEAU__crt_multibyte_data@@@Z 0000000180030b40     libucrt:mbctype.obj
 0002:0000cb50       $unwind$?setSBUpLow@@YAXPEAU__crt_multibyte_data@@@Z 0000000180030b50     libucrt:mbctype.obj
 0002:0000cb6c       $unwind$??$?RV<lambda_efdfa57d1f175319df784efa44bb7b81>@@AEAV<lambda_5f0a4c1567f8adc6734073e5d1e1b35c>@@V<lambda_2e8a7d3640ea6ccb4c2413664c2db6fd>@@@?$__crt_seh_guarded_call@X@@QEAAX$$QEAV<lambda_efdfa57d1f175319df784efa44bb7b81>@@AEAV<lambda_5f0a4c1567f8adc6734073e5d1e1b35c>@@$$QEAV<lambda_2e8a7d3640ea6ccb4c2413664c2db6fd>@@@Z 0000000180030b6c     libucrt:mbctype.obj
 0002:0000cb90       $unwind$__acrt_WideCharToMultiByte 0000000180030b90     libucrt:widechartomultibyte.obj
 0002:0000cb9c       $unwind$raise              0000000180030b9c     libucrt:signal.obj
 0002:0000cbd8       $unwind$??$?RV<lambda_450d765d439847d4c735a33c368b5fc0>@@AEAV<lambda_44731a7d0e6d81c3e6aa82d741081786>@@V<lambda_601a2a7da3b7a96e9554ac7215c4b07c>@@@?$__crt_seh_guarded_call@P6AXH@Z@@QEAAP6AXH@Z$$QEAV<lambda_450d765d439847d4c735a33c368b5fc0>@@AEAV<lambda_44731a7d0e6d81c3e6aa82d741081786>@@$$QEAV<lambda_601a2a7da3b7a96e9554ac7215c4b07c>@@@Z 0000000180030bd8     libucrt:signal.obj
 0002:0000cbfc       $unwind$?common_flush_all@@YAH_N@Z 0000000180030bfc     libucrt:fflush.obj
 0002:0000cc04       $unwind$??$?RV<lambda_842d9ff0dc9ef11c61343bbaebe7f885>@@AEAV<lambda_c5860995281e5c4ce005b3de8f5874ee>@@V<lambda_d90129c13df834fdcbf8d2b88dafcf2d>@@@?$__crt_seh_guarded_call@X@@QEAAX$$QEAV<lambda_842d9ff0dc9ef11c61343bbaebe7f885>@@AEAV<lambda_c5860995281e5c4ce005b3de8f5874ee>@@$$QEAV<lambda_d90129c13df834fdcbf8d2b88dafcf2d>@@@Z 0000000180030c04     libucrt:fflush.obj
 0002:0000cc28       $unwind$??$?RV<lambda_886d6c58226a84441f68b9f2b8217b83>@@AEAV<lambda_ab61a845afdef5b7c387490eaf3616ee>@@V<lambda_f7f22ab5edc0698d5f6905b0d3f44752>@@@?$__crt_seh_guarded_call@X@@QEAAX$$QEAV<lambda_886d6c58226a84441f68b9f2b8217b83>@@AEAV<lambda_ab61a845afdef5b7c387490eaf3616ee>@@$$QEAV<lambda_f7f22ab5edc0698d5f6905b0d3f44752>@@@Z 0000000180030c28     libucrt:fflush.obj
 0002:0000cc50       $unwind$__acrt_update_thread_locale_data 0000000180030c50     libucrt:locale_refcounting.obj
 0002:0000cc74       $unwind$?__mbrtowc_utf8@__crt_mbstring@@YA_KPEA_WPEBD_KPEAU_Mbstatet@@@Z 0000000180030c74     libucrt:mbrtowc.obj
 0002:0000cc7c       $unwind$?__mbsrtowcs_utf8@__crt_mbstring@@YA_KPEA_WPEAPEBD_KPEAU_Mbstatet@@@Z 0000000180030c7c     libucrt:mbrtowc.obj
 0002:0000cc94       $unwind$__acrt_fltout      0000000180030c94     libucrt:cfout.obj
 0002:0000ccb4       $unwind$?divide@__crt_strtox@@YA_KAEAUbig_integer@1@AEBU21@@Z 0000000180030cb4     libucrt:cfout.obj
 0002:0000cccc       $chain$0$?divide@__crt_strtox@@YA_KAEAUbig_integer@1@AEBU21@@Z 0000000180030ccc     libucrt:cfout.obj
 0002:0000cce0       $chain$1$?divide@__crt_strtox@@YA_KAEAUbig_integer@1@AEBU21@@Z 0000000180030ce0     libucrt:cfout.obj
 0002:0000ccf0       $unwind$_fcloseall         0000000180030cf0     libucrt:closeall.obj
 0002:0000cd14       $unwind$__acrt_locale_free_monetary 0000000180030d14     libucrt:initmon.obj
 0002:0000cd1c       $unwind$__acrt_locale_free_time 0000000180030d1c     libucrt:inittime.obj
 0002:0000cd2c       $unwind$__acrt_GetStringTypeA 0000000180030d2c     libucrt:getstringtypea.obj
 0002:0000cd54       $unwind$__acrt_lowio_destroy_handle_array 0000000180030d54     libucrt:osfinfo.obj
 0002:0000cd64       $unwind$__acrt_lowio_ensure_fh_exists 0000000180030d64     libucrt:osfinfo.obj
 0002:0000cd90       $unwind$qsort              0000000180030d90     libucrt:qsort.obj
 0002:0000cda8       $chain$4$qsort             0000000180030da8     libucrt:qsort.obj
 0002:0000cdcc       $chain$5$qsort             0000000180030dcc     libucrt:qsort.obj
 0002:0000cddc       $unwind$strpbrk            0000000180030ddc     libucrt:strpbrk.obj
 0002:0000cdec       $unwind$fallbackMethod     0000000180030dec     libucrt:strpbrk.obj
 0002:0000cdfc       $unwind$__acrt_LCMapStringA 0000000180030dfc     libucrt:lcmapstringa.obj
 0002:0000ce0c       $unwind$?__acrt_LCMapStringA_stat@@YAHPEAU__crt_locale_pointers@@PEB_WKPEBDHPEADHHH@Z 0000000180030e0c     libucrt:lcmapstringa.obj
 0002:0000ce34       $unwind$_close             0000000180030e34     libucrt:close.obj
 0002:0000ce34       $unwind$_commit            0000000180030e34     libucrt:commit.obj
 0002:0000ce3c       $unwind$??$?RV<lambda_a37b2b86f63e897a80ea819b0eb08c01>@@AEAV<lambda_38ce7e780aa69e748d6df282ebc68efe>@@V<lambda_99fb1378e971ab6e7edea83e3a7a83a2>@@@?$__crt_seh_guarded_call@H@@QEAAH$$QEAV<lambda_a37b2b86f63e897a80ea819b0eb08c01>@@AEAV<lambda_38ce7e780aa69e748d6df282ebc68efe>@@$$QEAV<lambda_99fb1378e971ab6e7edea83e3a7a83a2>@@@Z 0000000180030e3c     libucrt:commit.obj
 0002:0000ce60       $unwind$_write             0000000180030e60     libucrt:write.obj
 0002:0000ce90       $unwind$_write_nolock      0000000180030e90     libucrt:write.obj
 0002:0000cea8       $unwind$?write_double_translated_ansi_nolock@@YA?AUwrite_result@?A0x17268360@@HQEBDI@Z 0000000180030ea8     libucrt:write.obj
 0002:0000cecc       $unwind$?write_text_ansi_nolock@@YA?AUwrite_result@?A0x17268360@@HQEBDI@Z 0000000180030ecc     libucrt:write.obj
 0002:0000cecc       $unwind$?write_text_utf16le_nolock@@YA?AUwrite_result@?A0x17268360@@HQEBDI@Z 0000000180030ecc     libucrt:write.obj
 0002:0000ceec       $unwind$?write_text_utf8_nolock@@YA?AUwrite_result@?A0x17268360@@HQEBDI@Z 0000000180030eec     libucrt:write.obj
 0002:0000cf10       $xdatasym                  0000000180030f10     libucrt:log10.obj
 0002:0000cf1c       $unwind$__acrt_fenv_set_control 0000000180030f1c     libucrt:_fenvutils.obj
 0002:0000cf2c       $unwind$fclose             0000000180030f2c     libucrt:fclose.obj
 0002:0000cf50       $unwind$_putwch_nolock     0000000180030f50     libucrt:putwch.obj
 0002:0000cf58       $unwind$common_control87   0000000180030f58     libucrt:ieee.obj
 0002:0000cf84       $unwind$_call_matherr      0000000180030f84     libucrt:libm_error.obj
 0002:0000cf8c       $unwind$_handle_error      0000000180030f8c     libucrt:libm_error.obj
 0002:0000cfac       $unwind$__acrt_initialize_fma3 0000000180030fac     libucrt:fma3_available.obj
 0002:0000cfb4       $unwind$_log_special_common 0000000180030fb4     libucrt:log_special.obj
 0002:0000cfc0       $unwind$??$?RV<lambda_751a882b2c74d4b022dec766aa51a29a>@@AEAV<lambda_628dfdc04ba53c8bfc02c9951375f3f5>@@V<lambda_f6c7be5f7998530c34de24c7437d6b54>@@@?$__crt_seh_guarded_call@H@@QEAAH$$QEAV<lambda_751a882b2c74d4b022dec766aa51a29a>@@AEAV<lambda_628dfdc04ba53c8bfc02c9951375f3f5>@@$$QEAV<lambda_f6c7be5f7998530c34de24c7437d6b54>@@@Z 0000000180030fc0     libucrt:close.obj
 0002:0000cfe8       $xdatasym                  0000000180030fe8     libucrt:fpsr.obj
 0002:0000cff0       $unwind$_raise_exc_ex      0000000180030ff0     libucrt:fpexcept.obj
 0002:0000d004       $unwind$_ctrlfp            0000000180031004     libucrt:fpctrl.obj
 0002:0000d02c       $unwind$_IsNonwritableInCurrentImage 000000018003102c     LIBCMT:pesect.obj
 0002:0000d1b0       .edata                     00000001800311b0     OPOSElectronicJournal.exp
 0002:0000d1d8       rgpv                       00000001800311d8     OPOSElectronicJournal.exp
 0002:0000d1e8       rgszName                   00000001800311e8     OPOSElectronicJournal.exp
 0002:0000d1f8       rgwOrd                     00000001800311f8     OPOSElectronicJournal.exp
 0002:0000d200       szName                     0000000180031200     OPOSElectronicJournal.exp
 0002:0000d21a       $N00001                    000000018003121a     OPOSElectronicJournal.exp
 0002:0000d22a       $N00002                    000000018003122a     OPOSElectronicJournal.exp
 0002:0000d23c       $N00003                    000000018003123c     OPOSElectronicJournal.exp
 0002:0000d24e       $N00004                    000000018003124e     OPOSElectronicJournal.exp
 0002:0000db7a       .idata$6                   0000000180031b7a     kernel32:KERNEL32.dll
 0002:0000dd92       .idata$6                   0000000180031d92     user32:USER32.dll
 0002:0000dec6       .idata$6                   0000000180031ec6     gdi32:GDI32.dll
 0002:0000df6c       .idata$6                   0000000180031f6c     advapi32:ADVAPI32.dll
 0002:0000e088       .idata$6                   0000000180032088     ole32:ole32.dll
 0002:0000e092       .idata$6                   0000000180032092     oleaut32:OLEAUT32.dll
 0003:000001c0       ?ObjectMap@@3PAU_ATL_OBJMAP_ENTRY30@ATL@@A 00000001800331c0     ElectronicJournal.obj
 0003:000002e8       ?s_RequiredMethodsPerRelease@@3PAHA 00000001800332e8     ElectronicJournalImpl.obj
 0003:000002f0       ?s_SOMethodNames@@3PAPEADA 00000001800332f0     ElectronicJournalImpl.obj
 0003:00000450       ?__vcrt_flsindex@@3KA      0000000180033450     libvcruntime:per_thread_data.obj
 0003:00000460       ?errno_no_memory@@3HA      0000000180033460     libucrt:errno.obj
 0003:00000464       ?doserrno_no_memory@@3KA   0000000180033464     libucrt:errno.obj
 0003:00000470       ?__acrt_flsindex@@3KA      0000000180033470     libucrt:per_thread_data.obj
 0003:00000930       _mbctypes                  0000000180033930     libucrt:mbctype.obj
 0003:00000a40       _mbcasemaps                0000000180033a40     libucrt:mbctype.obj
 0003:00000b40       ?__rgctypeflag@@3PADA      0000000180033b40     libucrt:mbctype.obj
 0003:00000b50       ?__rgcode_page_info@@3PAUcode_page_info@@A 0000000180033b50     libucrt:mbctype.obj
 0003:00000df0       ?dazSupported@?1??common_control87@@9@9 0000000180033df0     libucrt:ieee.obj
 0003:00000e00       ?__dcrt_lowio_console_output_handle@@3PEAXEA 0000000180033e00     libucrt:initcon.obj
 0003:00000e10       ?dazSupported@?1??_ctrlfp@@9@9 0000000180033e10     libucrt:fpctrl.obj
 0003:00001060       ?is_initialized_as_dll@@3_NA 0000000180034060     LIBCMT:utility.obj
 0003:00001061       ?module_local_atexit_table_initialized@@3_NA 0000000180034061     LIBCMT:utility.obj
 0003:00001068       ?module_local_atexit_table@@3U_onexit_table_t@@A 0000000180034068     LIBCMT:utility.obj
 0003:00001080       ?module_local_at_quick_exit_table@@3U_onexit_table_t@@A 0000000180034080     LIBCMT:utility.obj
 0003:00001098       ?g_tss_cv@@3U_RTL_CONDITION_VARIABLE@@A 0000000180034098     LIBCMT:thread_safe_statics.obj
 0003:000010a0       ?g_tss_event@@3PEAXEA      00000001800340a0     LIBCMT:thread_safe_statics.obj
 0003:000010a8       ?g_tss_mutex@@3U_RTL_CRITICAL_SECTION@@A 00000001800340a8     LIBCMT:thread_safe_statics.obj
 0003:000010d0       ?g_sleep_condition_variable_cs@@3P6AHPEAU_RTL_CONDITION_VARIABLE@@PEAU_RTL_CRITICAL_SECTION@@K@ZEA 00000001800340d0     LIBCMT:thread_safe_statics.obj
 0003:000010d8       ?g_wake_all_condition_variable@@3P6AXPEAU_RTL_CONDITION_VARIABLE@@@ZEA 00000001800340d8     LIBCMT:thread_safe_statics.obj
 0003:000010e0       GS_ExceptionRecord         00000001800340e0     LIBCMT:gs_report.obj
 0003:00001180       GS_ContextRecord           0000000180034180     LIBCMT:gs_report.obj
 0003:00001654       ?__proc_attached@@3HA      0000000180034654     LIBCMT:dll_dllmain.obj
 0003:000016e8       ?AllocateData@@3P6APEAUAtlThunkData_t@@XZEA 00000001800346e8     atls:atlthunk.obj
 0003:000016f0       ?InitData@@3P6AXPEAUAtlThunkData_t@@PEAX_K@ZEA 00000001800346f0     atls:atlthunk.obj
 0003:000016f8       ?DataToCode@@3P6AP6A_JPEAUHWND__@@I_K_J@ZPEAUAtlThunkData_t@@@ZEA 00000001800346f8     atls:atlthunk.obj
 0003:00001700       ?FreeData@@3P6AXPEAUAtlThunkData_t@@@ZEA 0000000180034700     atls:atlthunk.obj
 0003:00001708       ?Initialized@@3_NA         0000000180034708     atls:atlthunk.obj
 0003:00001720       ?__vcrt_startup_thread_ptd@@3U__vcrt_ptd@@A 0000000180034720     libvcruntime:per_thread_data.obj
 0003:000017a0       __vcrt_lock_table          00000001800347a0     libvcruntime:locks.obj
 0003:000017c8       __vcrt_locks_initialized   00000001800347c8     libvcruntime:locks.obj
 0003:00001810       ?heap@@3V_HeapManager@@A   0000000180034810     libvcruntime:undname.obj
 0003:00001838       ?module_handles@@3PAPEAUHINSTANCE__@@A 0000000180034838     libvcruntime:winapi_downlevel.obj
 0003:00001850       ?function_pointers@@3PAPEAXA 0000000180034850     libvcruntime:winapi_downlevel.obj
 0003:00001878       ?__acrt_invalid_parameter_handler@@3V?$dual_state_global@P6AXPEB_W00I_K@Z@__crt_state_management@@A 0000000180034878     libucrt:invalid_parameter.obj
 0003:00001880       ?c_termination_complete@@3JA 0000000180034880     libucrt:exit.obj
 0003:00001888       ?thread_local_exit_callback_func@@3P6AXPEAXK0@ZEA 0000000180034888     libucrt:exit.obj
 0003:000018a0       ?program_name@?1???$common_configure_argv@D@@YAHW4_crt_argv_mode@@@Z@4PADA 00000001800348a0     libucrt:argv_parsing.obj
 0003:000019f8       ?__acrt_new_handler@@3V?$dual_state_global@P6AH_K@Z@__crt_state_management@@A 00000001800349f8     libucrt:new_handler.obj
 0003:00001a00       ?module_handles@@3PAPEAUHINSTANCE__@@A 0000000180034a00     libucrt:winapi_thunks.obj
 0003:00001aa0       ?encoded_function_pointers@@3PAPEAXA 0000000180034aa0     libucrt:winapi_thunks.obj
 0003:00001bb0       ?internal_state@?1??_mbtowc_l@@9@4U_Mbstatet@@A 0000000180034bb0     libucrt:mbtowc.obj
 0003:00001bc8       ?enable_percent_n@@3_KA    0000000180034bc8     libucrt:printf_count_output.obj
 0003:00002000       ?__acrt_lock_table@@3PAU_RTL_CRITICAL_SECTION@@A 0000000180035000     libucrt:locks.obj
 0003:00002230       ?__acrt_locks_initialized@@3IA 0000000180035230     libucrt:locks.obj
 0003:00002250       ?fSystemSet@@3HA           0000000180035250     libucrt:mbctype.obj
 0003:00002254       ?initialized@?1??__acrt_initialize_multibyte@@9@4_NA 0000000180035254     libucrt:mbctype.obj
 0003:00002290       ?ctrlc_action@@3V?$dual_state_global@P6AXH@Z@__crt_state_management@@A 0000000180035290     libucrt:signal.obj
 0003:00002298       ?ctrlbreak_action@@3V?$dual_state_global@P6AXH@Z@__crt_state_management@@A 0000000180035298     libucrt:signal.obj
 0003:000022a0       ?abort_action@@3V?$dual_state_global@P6AXH@Z@__crt_state_management@@A 00000001800352a0     libucrt:signal.obj
 0003:000022a8       ?term_action@@3V?$dual_state_global@P6AXH@Z@__crt_state_management@@A 00000001800352a8     libucrt:signal.obj
 0003:000022b0       ?user_matherr@@3V?$dual_state_global@P6AHPEAU_exception@@@Z@__crt_state_management@@A 00000001800352b0     libucrt:matherr.obj
 0003:000022b8       ?__acrt_global_new_mode@@3V?$dual_state_global@J@__crt_state_management@@A 00000001800352b8     libucrt:new_mode.obj
 0003:000022c8       ?internal_pst@?1??__mbrtoc32_utf8@__crt_mbstring@@YA_KPEA_UPEBD_KPEAU_Mbstatet@@@Z@4U3@A 00000001800352c8     libucrt:mbrtoc32.obj
 0003:000022d0       ?__acrt_app_type@@3W4_crt_app_type@@A 00000001800352d0     libucrt:report_runtime_error.obj
 0004:00000000       $pdata$?cw_memcpy@@YAHPEA_WPEBDH@Z 0000000180036000     CWString.obj
 0004:0000000c       $pdata$?cw_strcpy@@YAHPEA_WPEBD@Z 000000018003600c     CWString.obj
 0004:00000018       $pdata$?cw_dup@@YAXPEBDAEAHAEAPEA_W1@Z 0000000180036018     CWString.obj
 0004:00000024       $pdata$?DupWide@_CW@@AEAAXXZ 0000000180036024     CWString.obj
 0004:00000030       $pdata$?AtlWinModuleTerm@ATL@@YAJPEAU_ATL_WIN_MODULE70@1@PEAUHINSTANCE__@@@Z 0000000180036030     OposVariant.obj
 0004:0000003c       $pdata$??0CAtlComModule@ATL@@QEAA@XZ 000000018003603c     OposVariant.obj
 0004:00000048       $pdata$?Term@CAtlComModule@ATL@@QEAAXXZ 0000000180036048     OposVariant.obj
 0004:00000054       $pdata$??__E_AtlComModule@ATL@@YAXXZ 0000000180036054     OposVariant.obj
 0004:00000060       $pdata$??0CAtlWinModule@ATL@@QEAA@XZ 0000000180036060     OposVariant.obj
 0004:0000006c       $pdata$??__E_AtlWinModule@ATL@@YAXXZ 000000018003606c     OposVariant.obj
 0004:00000078       $pdata$??__F_AtlWinModule@ATL@@YAXXZ 0000000180036078     OposVariant.obj
 0004:00000084       $pdata$??_Estringdispid@CComTypeInfoHolder@ATL@@QEAAPEAXI@Z 0000000180036084     OposVariant.obj
 0004:00000090       $pdata$?SetVARIANT_BOOL@OposVariant@@QEAAXF@Z 0000000180036090     OposVariant.obj
 0004:0000009c       $pdata$?GetLONG@OposVariant@@QEAAJXZ 000000018003609c     OposVariant.obj
 0004:000000a8       $pdata$?ChangeLONG@OposVariant@@QEAAXPEAJAEAJ@Z 00000001800360a8     OposVariant.obj
 0004:000000b4       $pdata$?SetLONG@OposVariant@@QEAAXJ@Z 00000001800360b4     OposVariant.obj
 0004:000000c0       $pdata$?SetLONG_Ptr@OposVariant@@QEAAXPEAJAEAJ@Z 00000001800360c0     OposVariant.obj
 0004:000000cc       $pdata$?ChangeCURRENCY@OposVariant@@QEAAXPEATtagCY@@AEAJ@Z 00000001800360cc     OposVariant.obj
 0004:000000d8       $pdata$?ChangeBSTR@OposVariant@@QEAAXPEAPEA_WAEAJ@Z 00000001800360d8     OposVariant.obj
 0004:000000e4       $pdata$?SetBSTR@OposVariant@@QEAAXPEA_WAEAJ@Z 00000001800360e4     OposVariant.obj
 0004:000000f0       $pdata$?SetBSTR_Copy@OposVariant@@QEAAXPEA_WAEAJ@Z 00000001800360f0     OposVariant.obj
 0004:000000fc       $pdata$?SetBSTR_OutPtr@OposVariant@@QEAA_NPEAPEA_WAEAJ@Z 00000001800360fc     OposVariant.obj
 0004:00000108       $pdata$?SetBSTR_InOutPtr@OposVariant@@QEAA_NPEAPEA_WAEAJ@Z 0000000180036108     OposVariant.obj
 0004:00000114       $pdata$?SetString@OposVariant@@QEAAXPEB_WAEAJ@Z 0000000180036114     OposVariant.obj
 0004:00000120       $pdata$?SetDispatch_Ptr@OposVariant@@QEAAXPEAUIDispatch@@AEAJ@Z 0000000180036120     OposVariant.obj
 0004:0000012c       $pdata$??0OposDispParms@@QEAA@PEAVOposVariant@@H@Z 000000018003612c     OposVariant.obj
 0004:00000138       $pdata$??1OposDispParms@@QEAA@XZ 0000000180036138     OposVariant.obj
 0004:00000144       $pdata$?AtlThrowImpl@ATL@@YAXJ@Z 0000000180036144     ElectronicJournal.obj
 0004:00000150       $pdata$swprintf_s          0000000180036150     ElectronicJournal.obj
 0004:0000015c       $pdata$?_AtlVerifyStackAvailable@_ATL_SAFE_ALLOCA_IMPL@ATL@@YA_N_K@Z 000000018003615c     ElectronicJournal.obj
 0004:00000168       $pdata$?filt$0@?0??_AtlVerifyStackAvailable@_ATL_SAFE_ALLOCA_IMPL@ATL@@YA_N_K@Z@4HA 0000000180036168     ElectronicJournal.obj
 0004:00000174       $pdata$?ocscpy_s@@YA_NPEA_W_KPEB_W@Z 0000000180036174     ElectronicJournal.obj
 0004:00000180       $pdata$?AtlHresultFromLastError@ATL@@YAJXZ 0000000180036180     ElectronicJournal.obj
 0004:0000018c       $pdata$?AtlInternalOleLoadFromStream@ATL@@YAJPEAUIStream@@AEBU_GUID@@PEAPEAXTClassesAllowedInStream@1@K@Z 000000018003618c     ElectronicJournal.obj
 0004:00000198       $pdata$?ReadFromStream@CComBSTR@ATL@@QEAAJPEAUIStream@@@Z 0000000180036198     ElectronicJournal.obj
 0004:000001a4       $pdata$?WriteToStream@CComVariant@ATL@@QEAAJPEAUIStream@@@Z 00000001800361a4     ElectronicJournal.obj
 0004:000001b0       $pdata$?WriteToStream@CComVariant@ATL@@QEAAJPEAUIStream@@G@Z 00000001800361b0     ElectronicJournal.obj
 0004:000001bc       $pdata$?ReadFromStream@CComVariant@ATL@@QEAAJPEAUIStream@@GTClassesAllowedInStream@2@K@Z 00000001800361bc     ElectronicJournal.obj
 0004:000001c8       $pdata$?GetSizeMax@CComVariant@ATL@@QEBAJPEAT_ULARGE_INTEGER@@@Z 00000001800361c8     ElectronicJournal.obj
 0004:000001d4       $pdata$?RegCreateKeyExW@CAtlTransactionManager@ATL@@QEAAJPEAUHKEY__@@PEB_WKPEA_WKKQEAU_SECURITY_ATTRIBUTES@@PEAPEAU3@PEAK@Z 00000001800361d4     ElectronicJournal.obj
 0004:000001e0       $pdata$?RegOpenKeyExW@CAtlTransactionManager@ATL@@QEAAJPEAUHKEY__@@PEB_WKKPEAPEAU3@@Z 00000001800361e0     ElectronicJournal.obj
 0004:000001ec       $pdata$?RegDeleteKeyW@CAtlTransactionManager@ATL@@QEAAJPEAUHKEY__@@PEB_W@Z 00000001800361ec     ElectronicJournal.obj
 0004:000001f8       $pdata$?Add@?$CSimpleArray@GV?$CSimpleArrayEqualHelper@G@ATL@@@ATL@@QEAAHAEBG@Z 00000001800361f8     ElectronicJournal.obj
 0004:00000204       $pdata$?AtlInternalQueryInterface@ATL@@YAJPEAXPEBU_ATL_INTMAP_ENTRY@1@AEBU_GUID@@PEAPEAX@Z 0000000180036204     ElectronicJournal.obj
 0004:00000210       $pdata$?AtlComModuleGetClassObject@ATL@@YAJPEAU_ATL_COM_MODULE70@1@AEBU_GUID@@1PEAPEAX@Z 0000000180036210     ElectronicJournal.obj
 0004:0000021c       $pdata$?AtlRegisterClassCategoriesHelper@ATL@@YAJAEBU_GUID@@PEBU_ATL_CATMAP_ENTRY@1@H@Z 000000018003621c     ElectronicJournal.obj
 0004:00000228       $pdata$?AtlLoadTypeLib@ATL@@YAJPEAUHINSTANCE__@@PEB_WPEAPEA_WPEAPEAUITypeLib@@@Z 0000000180036228     ElectronicJournal.obj
 0004:00000234       $pdata$?AtlRegisterTypeLib@ATL@@YAJPEAUHINSTANCE__@@PEB_W@Z 0000000180036234     ElectronicJournal.obj
 0004:00000240       $pdata$?AtlUnRegisterTypeLib@ATL@@YAJPEAUHINSTANCE__@@PEB_W@Z 0000000180036240     ElectronicJournal.obj
 0004:0000024c       $pdata$?AtlComModuleRegisterServer@ATL@@YAJPEAU_ATL_COM_MODULE70@1@HPEBU_GUID@@@Z 000000018003624c     ElectronicJournal.obj
 0004:00000258       $pdata$?AtlComModuleUnregisterServer@ATL@@YAJPEAU_ATL_COM_MODULE70@1@HPEBU_GUID@@@Z 0000000180036258     ElectronicJournal.obj
 0004:00000264       $pdata$?AtlWinModuleExtractCreateWndData@ATL@@YAPEAXPEAU_ATL_WIN_MODULE70@1@@Z 0000000180036264     ElectronicJournal.obj
 0004:00000270       $pdata$?DeleteSubKey@CRegKey@ATL@@QEAAJPEB_W@Z 0000000180036270     ElectronicJournal.obj
 0004:0000027c       $pdata$?RecurseDeleteKey@CRegKey@ATL@@QEAAJPEB_W@Z 000000018003627c     ElectronicJournal.obj
 0004:00000288       $pdata$??0CAtlModule@ATL@@QEAA@XZ 0000000180036288     ElectronicJournal.obj
 0004:00000294       $pdata$?Term@CAtlModule@ATL@@QEAAXXZ 0000000180036294     ElectronicJournal.obj
 0004:000002a0       $pdata$?AddTermFunc@CAtlModule@ATL@@QEAAJP6AX_K@Z0@Z 00000001800362a0     ElectronicJournal.obj
 0004:000002ac       $pdata$?GetGITPtr@CAtlModule@ATL@@UEAAJPEAPEAUIGlobalInterfaceTable@@@Z 00000001800362ac     ElectronicJournal.obj
 0004:000002b8       $pdata$?UpdateRegistryFromResource@CAtlModule@ATL@@QEAAJPEB_WHPEAU_ATL_REGMAP_ENTRY@2@@Z 00000001800362b8     ElectronicJournal.obj
 0004:000002c4       $pdata$?UpdateRegistryFromResource@CAtlModule@ATL@@QEAAJIHPEAU_ATL_REGMAP_ENTRY@2@@Z 00000001800362c4     ElectronicJournal.obj
 0004:000002d0       $pdata$?Term@CComModule@ATL@@QEAAXXZ 00000001800362d0     ElectronicJournal.obj
 0004:000002dc       $pdata$?GetClassObject@CComModule@ATL@@QEAAJAEBU_GUID@@0PEAPEAX@Z 00000001800362dc     ElectronicJournal.obj
 0004:000002e8       $pdata$?RegisterServer@CComModule@ATL@@QEAAJHPEBU_GUID@@@Z 00000001800362e8     ElectronicJournal.obj
 0004:000002f4       $pdata$?UnregisterServer@CComModule@ATL@@QEAAJHPEBU_GUID@@@Z 00000001800362f4     ElectronicJournal.obj
 0004:00000300       $pdata$??_GCComModule@ATL@@UEAAPEAXI@Z 0000000180036300     ElectronicJournal.obj
 0004:0000030c       $pdata$?Add@?$CSimpleMap@PEA_WPEA_WVCExpansionVectorEqualHelper@ATL@@@ATL@@QEAAHAEBQEA_W0@Z 000000018003630c     ElectronicJournal.obj
 0004:00000318       $pdata$?Lookup@?$CSimpleMap@PEA_WPEA_WVCExpansionVectorEqualHelper@ATL@@@ATL@@QEBAPEA_WAEBQEA_W@Z 0000000180036318     ElectronicJournal.obj
 0004:00000324       $pdata$?Add@CExpansionVector@ATL@@QEAAHPEB_W0@Z 0000000180036324     ElectronicJournal.obj
 0004:00000330       $pdata$?ClearReplacements@CExpansionVector@ATL@@QEAAJXZ 0000000180036330     ElectronicJournal.obj
 0004:0000033c       $pdata$?PreProcessBuffer@CRegParser@ATL@@QEAAJPEA_WPEAPEA_W@Z 000000018003633c     ElectronicJournal.obj
 0004:00000348       $pdata$?RegisterBuffer@CRegParser@ATL@@QEAAJPEA_WH@Z 0000000180036348     ElectronicJournal.obj
 0004:00000354       $pdata$?NextToken@CRegParser@ATL@@IEAAJPEA_W@Z 0000000180036354     ElectronicJournal.obj
 0004:00000360       $pdata$?AddValue@CRegParser@ATL@@IEAAJAEAVCRegKey@2@PEB_WPEA_W@Z 0000000180036360     ElectronicJournal.obj
 0004:0000036c       $pdata$?RegisterSubkeys@CRegParser@ATL@@IEAAJPEA_WPEAUHKEY__@@HH@Z 000000018003636c     ElectronicJournal.obj
 0004:00000378       $pdata$?SkipAssignment@CRegParser@ATL@@IEAAJPEA_W@Z 0000000180036378     ElectronicJournal.obj
 0004:00000384       $pdata$?HKeyFromString@CRegParser@ATL@@KAPEAUHKEY__@@PEA_W@Z 0000000180036384     ElectronicJournal.obj
 0004:00000390       $pdata$?VTFromRegType@CRegParser@ATL@@KAHPEB_WAEAG@Z 0000000180036390     ElectronicJournal.obj
 0004:0000039c       $pdata$?Append@CParseBuffer@CRegParser@ATL@@QEAAHPEB_WH@Z 000000018003639c     ElectronicJournal.obj
 0004:000003a8       $pdata$?AddReplacement@CRegObject@ATL@@UEAAJPEB_W0@Z 00000001800363a8     ElectronicJournal.obj
 0004:000003b4       $pdata$?RegisterFromResource@CRegObject@ATL@@IEAAJPEB_W00H@Z 00000001800363b4     ElectronicJournal.obj
 0004:000003c0       $pdata$??_GCRegObject@ATL@@UEAAPEAXI@Z 00000001800363c0     ElectronicJournal.obj
 0004:000003cc       $pdata$?AllocateHeap@?$CTempBuffer@E$0BAA@VCCRTAllocator@ATL@@@ATL@@AEAAX_K@Z 00000001800363cc     ElectronicJournal.obj
 0004:000003cc       $pdata$?AllocateHeap@?$CTempBuffer@_W$0BAA@VCCRTAllocator@ATL@@@ATL@@AEAAX_K@Z 00000001800363cc     ElectronicJournal.obj
 0004:000003cc       $pdata$?AllocateHeap@?$CTempBuffer@_W$0EAA@VCCRTAllocator@ATL@@@ATL@@AEAAX_K@Z 00000001800363cc     ElectronicJournal.obj
 0004:000003d8       $pdata$?CreateInstance@CComClassFactory@ATL@@UEAAJPEAUIUnknown@@AEBU_GUID@@PEAPEAX@Z 00000001800363d8     ElectronicJournal.obj
 0004:000003e4       $pdata$?LockServer@CComClassFactory@ATL@@UEAAJH@Z 00000001800363e4     ElectronicJournal.obj
 0004:000003f0       $pdata$??_GCComClassFactory@ATL@@UEAAPEAXI@Z 00000001800363f0     ElectronicJournal.obj
 0004:000003fc       $pdata$?GetTI@CComTypeInfoHolder@ATL@@QEAAJK@Z 00000001800363fc     ElectronicJournal.obj
 0004:00000408       $pdata$?Cleanup@CComTypeInfoHolder@ATL@@SAX_K@Z 0000000180036408     ElectronicJournal.obj
 0004:00000414       $pdata$?GetIDsOfNames@CComTypeInfoHolder@ATL@@QEAAJAEBU_GUID@@PEAPEA_WIKPEAJ@Z 0000000180036414     ElectronicJournal.obj
 0004:00000420       $pdata$?LoadNameCache@CComTypeInfoHolder@ATL@@QEAAJPEAUITypeInfo@@@Z 0000000180036420     ElectronicJournal.obj
 0004:0000042c       $pdata$?Add@CComDynamicUnkArray@ATL@@QEAAKPEAUIUnknown@@@Z 000000018003642c     ElectronicJournal.obj
 0004:00000438       $pdata$?AtlHiMetricToPixel@ATL@@YAXPEBUtagSIZE@@PEAU2@@Z 0000000180036438     ElectronicJournal.obj
 0004:00000444       $pdata$?DefaultReflectionHandler@?$CWindowImplRoot@VCWindow@ATL@@@ATL@@SAHPEAUHWND__@@I_K_JAEA_J@Z 0000000180036444     ElectronicJournal.obj
 0004:00000450       $pdata$?StartWindowProc@?$CWindowImplBaseT@VCWindow@ATL@@V?$CWinTraits@$0FGAAAAAA@$0A@@2@@ATL@@SA_JPEAUHWND__@@I_K_J@Z 0000000180036450     ElectronicJournal.obj
 0004:0000045c       $pdata$?WindowProc@?$CWindowImplBaseT@VCWindow@ATL@@V?$CWinTraits@$0FGAAAAAA@$0A@@2@@ATL@@SA_JPEAUHWND__@@I_K_J@Z 000000018003645c     ElectronicJournal.obj
 0004:00000468       $pdata$?atlCreate@?$CWindowImplBaseT@VCWindow@ATL@@V?$CWinTraits@$0FGAAAAAA@$0A@@2@@ATL@@QEAAPEAUHWND__@@PEAU3@V_U_RECT@2@PEB_WKKV_U_MENUorID@2@GPEAX@Z 0000000180036468     ElectronicJournal.obj
 0004:00000474       $pdata$?IsEqualObject@?$CComPtrBase@UIOleClientSite@@@ATL@@QEAA_NPEAUIUnknown@@@Z 0000000180036474     ElectronicJournal.obj
 0004:00000480       $pdata$??$AtlModuleRegisterWndClassInfoT@VAtlModuleRegisterWndClassInfoParamW@ATL@@@ATL@@YAGPEAU_ATL_BASE_MODULE70@0@PEAU_ATL_WIN_MODULE70@0@PEAU_ATL_WNDCLASSINFOW@0@PEAP6A_JPEAUHWND__@@I_K_J@ZVAtlModuleRegisterWndClassInfoParamW@0@@Z 0000000180036480     ElectronicJournal.obj
 0004:0000048c       $pdata$?GetZoomInfo@CComControlBase@ATL@@QEAAXAEAUATL_DRAWINFO@@@Z 000000018003648c     ElectronicJournal.obj
 0004:00000498       $pdata$?SendOnDataChange@CComControlBase@ATL@@QEAAJK@Z 0000000180036498     ElectronicJournal.obj
 0004:000004a4       $pdata$?OnSetFocus@CComControlBase@ATL@@QEAA_JI_K_JAEAH@Z 00000001800364a4     ElectronicJournal.obj
 0004:000004b0       $pdata$?OnKillFocus@CComControlBase@ATL@@QEAA_JI_K_JAEAH@Z 00000001800364b0     ElectronicJournal.obj
 0004:000004bc       $pdata$?OnMouseActivate@CComControlBase@ATL@@QEAA_JI_K_JAEAH@Z 00000001800364bc     ElectronicJournal.obj
 0004:000004c8       $pdata$?GetAmbientLocaleID@CComControlBase@ATL@@QEAAJAEAK@Z 00000001800364c8     ElectronicJournal.obj
 0004:000004d4       $pdata$?GetAmbientUserMode@CComControlBase@ATL@@QEAAJAEAH@Z 00000001800364d4     ElectronicJournal.obj
 0004:000004e0       $pdata$?SetControlFocus@CComControlBase@ATL@@QEAAHH@Z 00000001800364e0     ElectronicJournal.obj
 0004:000004ec       $pdata$?IQuickActivate_QuickActivate@CComControlBase@ATL@@QEAAJPEAUtagQACONTAINER@@PEAUtagQACONTROL@@@Z 00000001800364ec     ElectronicJournal.obj
 0004:000004f8       $pdata$?DoVerbProperties@CComControlBase@ATL@@QEAAJPEBUtagRECT@@PEAUHWND__@@@Z 00000001800364f8     ElectronicJournal.obj
 0004:00000504       $pdata$?InPlaceActivate@CComControlBase@ATL@@QEAAJJPEBUtagRECT@@@Z 0000000180036504     ElectronicJournal.obj
 0004:00000510       $pdata$?IOleObject_SetClientSite@CComControlBase@ATL@@QEAAJPEAUIOleClientSite@@@Z 0000000180036510     ElectronicJournal.obj
 0004:0000051c       $pdata$?IOleObject_Close@CComControlBase@ATL@@QEAAJK@Z 000000018003651c     ElectronicJournal.obj
 0004:00000528       $pdata$?IOleObject_SetExtent@CComControlBase@ATL@@QEAAJKPEAUtagSIZE@@@Z 0000000180036528     ElectronicJournal.obj
 0004:00000534       $pdata$?IOleInPlaceObject_InPlaceDeactivate@CComControlBase@ATL@@QEAAJXZ 0000000180036534     ElectronicJournal.obj
 0004:00000540       $pdata$?IOleInPlaceObject_UIDeactivate@CComControlBase@ATL@@QEAAJXZ 0000000180036540     ElectronicJournal.obj
 0004:0000054c       $pdata$?IOleInPlaceObject_SetObjectRects@CComControlBase@ATL@@QEAAJPEBUtagRECT@@0@Z 000000018003654c     ElectronicJournal.obj
 0004:00000558       $pdata$?IViewObject_Draw@CComControlBase@ATL@@QEAAJKJPEAXPEAUtagDVTARGETDEVICE@@PEAUHDC__@@2PEBU_RECTL@@3@Z 0000000180036558     ElectronicJournal.obj
 0004:00000564       $pdata$?IDataObject_GetData@CComControlBase@ATL@@QEAAJPEAUtagFORMATETC@@PEAUtagSTGMEDIUM@@@Z 0000000180036564     ElectronicJournal.obj
 0004:00000570       $pdata$?FireViewChange@CComControlBase@ATL@@QEAAJXZ 0000000180036570     ElectronicJournal.obj
 0004:0000057c       $pdata$?OnPaint@CComControlBase@ATL@@QEAA_JI_K_JAEAH@Z 000000018003657c     ElectronicJournal.obj
 0004:00000588       $pdata$?OnDrawAdvanced@CComControlBase@ATL@@UEAAJAEAUATL_DRAWINFO@@@Z 0000000180036588     ElectronicJournal.obj
 0004:00000594       $pdata$?GetTypeInfo@?$IDispatchImpl@UIOPOSElectronicJournal@@$1?IID_IOPOSElectronicJournal@@3U_GUID@@B$1?LIBID_OposElectronicJournal_CCO@@3U3@B$00$0A@VCComTypeInfoHolder@ATL@@@ATL@@UEAAJIKPEAPEAUITypeInfo@@@Z 0000000180036594     ElectronicJournal.obj
 0004:000005a0       $pdata$?Invoke@?$IDispatchImpl@UIOPOSElectronicJournal@@$1?IID_IOPOSElectronicJournal@@3U_GUID@@B$1?LIBID_OposElectronicJournal_CCO@@3U3@B$00$0A@VCComTypeInfoHolder@ATL@@@ATL@@UEAAJJAEBU_GUID@@KGPEAUtagDISPPARAMS@@PEAUtagVARIANT@@PEAUtagEXCEPINFO@@PEAI@Z 00000001800365a0     ElectronicJournal.obj
 0004:000005ac       $pdata$?atlCreate@?$CWindowImpl@VCOPOSElectronicJournal@@VCWindow@ATL@@V?$CWinTraits@$0FGAAAAAA@$0A@@3@@ATL@@QEAAPEAUHWND__@@PEAU3@V_U_RECT@2@PEB_WKKV_U_MENUorID@2@PEAX@Z 00000001800365ac     ElectronicJournal.obj
 0004:000005b8       $pdata$?CreateControlWindow@?$CComControl@VCOPOSElectronicJournal@@V?$CWindowImpl@VCOPOSElectronicJournal@@VCWindow@ATL@@V?$CWinTraits@$0FGAAAAAA@$0A@@3@@ATL@@@ATL@@UEAAPEAUHWND__@@PEAU3@AEAUtagRECT@@@Z 00000001800365b8     ElectronicJournal.obj
 0004:000005c4       $pdata$?ProcessWindowMessage@?$CComControl@VCOPOSElectronicJournal@@V?$CWindowImpl@VCOPOSElectronicJournal@@VCWindow@ATL@@V?$CWinTraits@$0FGAAAAAA@$0A@@3@@ATL@@@ATL@@UEAAHPEAUHWND__@@I_K_JAEA_JK@Z 00000001800365c4     ElectronicJournal.obj
 0004:000005d0       $pdata$?GetSizeMax@?$IPersistStreamInitImpl@VCOPOSElectronicJournal@@@ATL@@UEAAJPEAT_ULARGE_INTEGER@@@Z 00000001800365d0     ElectronicJournal.obj
 0004:000005dc       $pdata$?IPersistStreamInit_Load@?$IPersistStreamInitImpl@VCOPOSElectronicJournal@@@ATL@@QEAAJPEAUIStream@@PEBUATL_PROPMAP_ENTRY@2@@Z 00000001800365dc     ElectronicJournal.obj
 0004:000005e8       $pdata$?IPersistStreamInit_Save@?$IPersistStreamInitImpl@VCOPOSElectronicJournal@@@ATL@@QEAAJPEAUIStream@@HPEBUATL_PROPMAP_ENTRY@2@@Z 00000001800365e8     ElectronicJournal.obj
 0004:000005f4       $pdata$?GetClientSite@?$IOleObjectImpl@VCOPOSElectronicJournal@@@ATL@@UEAAJPEAPEAUIOleClientSite@@@Z 00000001800365f4     ElectronicJournal.obj
 0004:00000600       $pdata$?DoVerbPrimary@?$IOleObjectImpl@VCOPOSElectronicJournal@@@ATL@@QEAAJPEBUtagRECT@@PEAUHWND__@@@Z 0000000180036600     ElectronicJournal.obj
 0004:0000060c       $pdata$?DoVerb@?$IOleObjectImpl@VCOPOSElectronicJournal@@@ATL@@UEAAJJPEAUtagMSG@@PEAUIOleClientSite@@JPEAUHWND__@@PEBUtagRECT@@@Z 000000018003660c     ElectronicJournal.obj
 0004:00000618       $pdata$?Advise@?$IOleObjectImpl@VCOPOSElectronicJournal@@@ATL@@UEAAJPEAUIAdviseSink@@PEAK@Z 0000000180036618     ElectronicJournal.obj
 0004:00000624       $pdata$?Unadvise@?$IOleObjectImpl@VCOPOSElectronicJournal@@@ATL@@UEAAJK@Z 0000000180036624     ElectronicJournal.obj
 0004:00000630       $pdata$?EnumAdvise@?$IOleObjectImpl@VCOPOSElectronicJournal@@@ATL@@UEAAJPEAPEAUIEnumSTATDATA@@@Z 0000000180036630     ElectronicJournal.obj
 0004:0000063c       $pdata$?TranslateAcceleratorW@?$IOleInPlaceActiveObjectImpl@VCOPOSElectronicJournal@@@ATL@@UEAAJPEAUtagMSG@@@Z 000000018003663c     ElectronicJournal.obj
 0004:00000648       $pdata$?OnDocWindowActivate@?$IOleInPlaceActiveObjectImpl@VCOPOSElectronicJournal@@@ATL@@UEAAJH@Z 0000000180036648     ElectronicJournal.obj
 0004:00000654       $pdata$?Draw@?$IViewObjectExImpl@VCOPOSElectronicJournal@@@ATL@@UEAAJKJPEAXPEAUtagDVTARGETDEVICE@@PEAUHDC__@@2PEBU_RECTL@@3P6AH_K@Z4@Z 0000000180036654     ElectronicJournal.obj
 0004:00000660       $pdata$?SetAdvise@?$IViewObjectExImpl@VCOPOSElectronicJournal@@@ATL@@UEAAJKKPEAUIAdviseSink@@@Z 0000000180036660     ElectronicJournal.obj
 0004:0000066c       $pdata$?GetAdvise@?$IViewObjectExImpl@VCOPOSElectronicJournal@@@ATL@@UEAAJPEAK0PEAPEAUIAdviseSink@@@Z 000000018003666c     ElectronicJournal.obj
 0004:00000678       $pdata$?QueryHitPoint@?$IViewObjectExImpl@VCOPOSElectronicJournal@@@ATL@@UEAAJKPEBUtagRECT@@UtagPOINT@@JPEAK@Z 0000000180036678     ElectronicJournal.obj
 0004:00000684       $pdata$?QueryHitRect@?$IViewObjectExImpl@VCOPOSElectronicJournal@@@ATL@@UEAAJKPEBUtagRECT@@0JPEAK@Z 0000000180036684     ElectronicJournal.obj
 0004:00000690       $pdata$?OnWindowMessage@?$IOleInPlaceObjectWindowlessImpl@VCOPOSElectronicJournal@@@ATL@@UEAAJI_K_JPEA_J@Z 0000000180036690     ElectronicJournal.obj
 0004:0000069c       $pdata$?EnumConnectionPoints@?$IConnectionPointContainerImpl@VCOPOSElectronicJournal@@@ATL@@UEAAJPEAPEAUIEnumConnectionPoints@@@Z 000000018003669c     ElectronicJournal.obj
 0004:000006a8       $pdata$?FindConnectionPoint@?$IConnectionPointContainerImpl@VCOPOSElectronicJournal@@@ATL@@UEAAJAEBU_GUID@@PEAPEAUIConnectionPoint@@@Z 00000001800366a8     ElectronicJournal.obj
 0004:000006b4       $pdata$?IsDirty@?$IPersistStorageImpl@VCOPOSElectronicJournal@@@ATL@@UEAAJXZ 00000001800366b4     ElectronicJournal.obj
 0004:000006c0       $pdata$?InitNew@?$IPersistStorageImpl@VCOPOSElectronicJournal@@@ATL@@UEAAJPEAUIStorage@@@Z 00000001800366c0     ElectronicJournal.obj
 0004:000006cc       $pdata$?Load@?$IPersistStorageImpl@VCOPOSElectronicJournal@@@ATL@@UEAAJPEAUIStorage@@@Z 00000001800366cc     ElectronicJournal.obj
 0004:000006d8       $pdata$?Save@?$IPersistStorageImpl@VCOPOSElectronicJournal@@@ATL@@UEAAJPEAUIStorage@@H@Z 00000001800366d8     ElectronicJournal.obj
 0004:000006e4       $pdata$?IPSI_GetIPersistStreamInit@?$IPersistStorageImpl@VCOPOSElectronicJournal@@@ATL@@AEAAPEAUIPersistStreamInit@@XZ 00000001800366e4     ElectronicJournal.obj
 0004:000006f0       $pdata$?GetPagesHelper@?$ISpecifyPropertyPagesImpl@VCOPOSElectronicJournal@@@ATL@@IEAAJPEAUtagCAUUID@@PEBUATL_PROPMAP_ENTRY@2@@Z 00000001800366f0     ElectronicJournal.obj
 0004:000006fc       $pdata$?DAdvise@?$IDataObjectImpl@VCOPOSElectronicJournal@@@ATL@@UEAAJPEAUtagFORMATETC@@KPEAUIAdviseSink@@PEAK@Z 00000001800366fc     ElectronicJournal.obj
 0004:00000708       $pdata$?GetClassInfoW@?$IProvideClassInfo2Impl@$1?CLSID_OPOSElectronicJournal@@3U_GUID@@B$1?DIID__IOPOSElectronicJournalEvents@@3U2@B$1?LIBID_OposElectronicJournal_CCO@@3U2@B$00$0A@VCComTypeInfoHolder@ATL@@@ATL@@UEAAJPEAPEAUITypeInfo@@@Z 0000000180036708     ElectronicJournal.obj
 0004:00000714       $pdata$?GetInterfaceSafetyOptions@?$IObjectSafetyImpl@VCOPOSElectronicJournal@@$02@ATL@@UEAAJAEBU_GUID@@PEAK1@Z 0000000180036714     ElectronicJournal.obj
 0004:00000720       $pdata$?SetInterfaceSafetyOptions@?$IObjectSafetyImpl@VCOPOSElectronicJournal@@$02@ATL@@UEAAJAEBU_GUID@@KK@Z 0000000180036720     ElectronicJournal.obj
 0004:0000072c       $pdata$?_LocCPQueryInterface@?$IConnectionPointImpl@VCOPOSElectronicJournal@@$1?DIID__IOPOSElectronicJournalEvents@@3U_GUID@@BVCComDynamicUnkArray@ATL@@@ATL@@UEAAJAEBU_GUID@@PEAPEAX@Z 000000018003672c     ElectronicJournal.obj
 0004:0000072c       $pdata$?_LocCPQueryInterface@?$IConnectionPointImpl@VCOPOSElectronicJournal@@$1?IID_IPropertyNotifySink@@3U_GUID@@BVCComDynamicUnkArray@ATL@@@ATL@@UEAAJAEBU_GUID@@PEAPEAX@Z 000000018003672c     ElectronicJournal.obj
 0004:00000738       $pdata$?Advise@?$IConnectionPointImpl@VCOPOSElectronicJournal@@$1?DIID__IOPOSElectronicJournalEvents@@3U_GUID@@BVCComDynamicUnkArray@ATL@@@ATL@@UEAAJPEAUIUnknown@@PEAK@Z 0000000180036738     ElectronicJournal.obj
 0004:00000738       $pdata$?Advise@?$IConnectionPointImpl@VCOPOSElectronicJournal@@$1?IID_IPropertyNotifySink@@3U_GUID@@BVCComDynamicUnkArray@ATL@@@ATL@@UEAAJPEAUIUnknown@@PEAK@Z 0000000180036738     ElectronicJournal.obj
 0004:00000744       $pdata$?Unadvise@?$IConnectionPointImpl@VCOPOSElectronicJournal@@$1?DIID__IOPOSElectronicJournalEvents@@3U_GUID@@BVCComDynamicUnkArray@ATL@@@ATL@@UEAAJK@Z 0000000180036744     ElectronicJournal.obj
 0004:00000744       $pdata$?Unadvise@?$IConnectionPointImpl@VCOPOSElectronicJournal@@$1?IID_IPropertyNotifySink@@3U_GUID@@BVCComDynamicUnkArray@ATL@@@ATL@@UEAAJK@Z 0000000180036744     ElectronicJournal.obj
 0004:00000750       $pdata$?EnumConnections@?$IConnectionPointImpl@VCOPOSElectronicJournal@@$1?DIID__IOPOSElectronicJournalEvents@@3U_GUID@@BVCComDynamicUnkArray@ATL@@@ATL@@UEAAJPEAPEAUIEnumConnections@@@Z 0000000180036750     ElectronicJournal.obj
 0004:00000750       $pdata$?EnumConnections@?$IConnectionPointImpl@VCOPOSElectronicJournal@@$1?IID_IPropertyNotifySink@@3U_GUID@@BVCComDynamicUnkArray@ATL@@@ATL@@UEAAJPEAPEAUIEnumConnections@@@Z 0000000180036750     ElectronicJournal.obj
 0004:0000075c       $pdata$?Fire_DataEvent@?$CProxy_IOPOSEvents@VCOPOSElectronicJournal@@@@QEAAXJ@Z 000000018003675c     ElectronicJournal.obj
 0004:00000768       $pdata$?Fire_DirectIOEvent@?$CProxy_IOPOSEvents@VCOPOSElectronicJournal@@@@QEAAXJPEAJPEAPEA_W@Z 0000000180036768     ElectronicJournal.obj
 0004:00000774       $pdata$?Fire_ErrorEvent@?$CProxy_IOPOSEvents@VCOPOSElectronicJournal@@@@QEAAXJJJPEAJ@Z 0000000180036774     ElectronicJournal.obj
 0004:00000780       $pdata$?Fire_OutputCompleteEvent@?$CProxy_IOPOSEvents@VCOPOSElectronicJournal@@@@QEAAXJ@Z 0000000180036780     ElectronicJournal.obj
 0004:0000078c       $pdata$?Fire_StatusUpdateEvent@?$CProxy_IOPOSEvents@VCOPOSElectronicJournal@@@@QEAAXJ@Z 000000018003678c     ElectronicJournal.obj
 0004:00000798       $pdata$?FireTheEvent@?$CProxy_IOPOSEvents@VCOPOSElectronicJournal@@@@IEAAXPEAVOposVariant@@IAEAJPEB_WJ@Z 0000000180036798     ElectronicJournal.obj
 0004:000007a4       $pdata$?GetConnMap@COPOSElectronicJournal@@SAPEBU_ATL_CONNMAP_ENTRY@ATL@@PEAH@Z 00000001800367a4     ElectronicJournal.obj
 0004:000007b0       $pdata$?ProcessWindowMessage@COPOSElectronicJournal@@UEAAHPEAUHWND__@@I_K_JAEA_JK@Z 00000001800367b0     ElectronicJournal.obj
 0004:000007bc       $pdata$?SOData@COPOSElectronicJournal@@MEAAJJ@Z 00000001800367bc     ElectronicJournal.obj
 0004:000007c8       $pdata$?SODirectIO@COPOSElectronicJournal@@MEAAJJPEAJPEAPEA_W@Z 00000001800367c8     ElectronicJournal.obj
 0004:000007d4       $pdata$?SOError@COPOSElectronicJournal@@MEAAJJJJPEAJ@Z 00000001800367d4     ElectronicJournal.obj
 0004:000007e0       $pdata$?SOOutputComplete@COPOSElectronicJournal@@MEAAJJ@Z 00000001800367e0     ElectronicJournal.obj
 0004:000007ec       $pdata$?SOStatusUpdate@COPOSElectronicJournal@@MEAAJJ@Z 00000001800367ec     ElectronicJournal.obj
 0004:000007f8       $pdata$?DoEvent@COPOSElectronicJournal@@IEAAXI_K_J@Z 00000001800367f8     ElectronicJournal.obj
 0004:00000804       $pdata$??__E_Module@@YAXXZ 0000000180036804     ElectronicJournal.obj
 0004:00000810       $pdata$?CreateInstance@?$CComCreator@V?$CComObjectCached@VCComClassFactory@ATL@@@ATL@@@ATL@@SAJPEAXAEBU_GUID@@PEAPEAX@Z 0000000180036810     ElectronicJournal.obj
 0004:0000081c       $pdata$DllMain             000000018003681c     ElectronicJournal.obj
 0004:00000828       $pdata$?CreateInstance@?$CComCreator@V?$CComObject@VCOPOSElectronicJournal@@@ATL@@@ATL@@SAJPEAXAEBU_GUID@@PEAPEAX@Z 0000000180036828     ElectronicJournal.obj
 0004:00000834       $pdata$?CreateInstance@?$CComCreator@V?$CComAggObject@VCOPOSElectronicJournal@@@ATL@@@ATL@@SAJPEAXAEBU_GUID@@PEAPEAX@Z 0000000180036834     ElectronicJournal.obj
 0004:00000840       $pdata$?AddRef@?$CComObjectCached@VCComClassFactory@ATL@@@ATL@@UEAAKXZ 0000000180036840     ElectronicJournal.obj
 0004:0000084c       $pdata$?Release@?$CComObjectCached@VCComClassFactory@ATL@@@ATL@@UEAAKXZ 000000018003684c     ElectronicJournal.obj
 0004:00000858       $pdata$??_G?$CComObjectCached@VCComClassFactory@ATL@@@ATL@@UEAAPEAXI@Z 0000000180036858     ElectronicJournal.obj
 0004:00000864       $pdata$??1?$CComEnumImpl@UIEnumConnectionPoints@@$1?_GUID_b196b285_bab4_101a_b69c_00aa00341d07@@3U__s_GUID@@BPEAUIConnectionPoint@@V?$_CopyInterface@UIConnectionPoint@@@ATL@@@ATL@@UEAA@XZ 0000000180036864     ElectronicJournal.obj
 0004:00000870       $pdata$?Next@?$CComEnumImpl@UIEnumConnectionPoints@@$1?_GUID_b196b285_bab4_101a_b69c_00aa00341d07@@3U__s_GUID@@BPEAUIConnectionPoint@@V?$_CopyInterface@UIConnectionPoint@@@ATL@@@ATL@@UEAAJKPEAPEAUIConnectionPoint@@PEAK@Z 0000000180036870     ElectronicJournal.obj
 0004:0000087c       $pdata$?Clone@?$CComEnumImpl@UIEnumConnectionPoints@@$1?_GUID_b196b285_bab4_101a_b69c_00aa00341d07@@3U__s_GUID@@BPEAUIConnectionPoint@@V?$_CopyInterface@UIConnectionPoint@@@ATL@@@ATL@@UEAAJPEAPEAUIEnumConnectionPoints@@@Z 000000018003687c     ElectronicJournal.obj
 0004:00000888       $pdata$?Init@?$CComEnumImpl@UIEnumConnectionPoints@@$1?_GUID_b196b285_bab4_101a_b69c_00aa00341d07@@3U__s_GUID@@BPEAUIConnectionPoint@@V?$_CopyInterface@UIConnectionPoint@@@ATL@@@ATL@@QEAAJPEAPEAUIConnectionPoint@@0PEAUIUnknown@@W4CComEnumFlags@2@@Z 0000000180036888     ElectronicJournal.obj
 0004:00000894       $pdata$?Release@?$CComObject@V?$CComEnum@UIEnumConnectionPoints@@$1?_GUID_b196b285_bab4_101a_b69c_00aa00341d07@@3U__s_GUID@@BPEAUIConnectionPoint@@V?$_CopyInterface@UIConnectionPoint@@@ATL@@VCComSingleThreadModel@6@@ATL@@@ATL@@UEAAKXZ 0000000180036894     ElectronicJournal.obj
 0004:00000894       $pdata$?Release@?$CComObject@V?$CComEnum@UIEnumConnections@@$1?_GUID_b196b287_bab4_101a_b69c_00aa00341d07@@3U__s_GUID@@BUtagCONNECTDATA@@V?$_Copy@UtagCONNECTDATA@@@ATL@@VCComSingleThreadModel@6@@ATL@@@ATL@@UEAAKXZ 0000000180036894     ElectronicJournal.obj
 0004:000008a0       $pdata$?CreateInstance@?$CComObject@V?$CComEnum@UIEnumConnectionPoints@@$1?_GUID_b196b285_bab4_101a_b69c_00aa00341d07@@3U__s_GUID@@BPEAUIConnectionPoint@@V?$_CopyInterface@UIConnectionPoint@@@ATL@@VCComSingleThreadModel@6@@ATL@@@ATL@@SAJPEAPEAV12@@Z 00000001800368a0     ElectronicJournal.obj
 0004:000008ac       $pdata$??_G?$CComObject@V?$CComEnum@UIEnumConnectionPoints@@$1?_GUID_b196b285_bab4_101a_b69c_00aa00341d07@@3U__s_GUID@@BPEAUIConnectionPoint@@V?$_CopyInterface@UIConnectionPoint@@@ATL@@VCComSingleThreadModel@6@@ATL@@@ATL@@UEAAPEAXI@Z 00000001800368ac     ElectronicJournal.obj
 0004:000008b8       $pdata$?Release@?$CComAggObject@VCOPOSElectronicJournal@@@ATL@@UEAAKXZ 00000001800368b8     ElectronicJournal.obj
 0004:000008c4       $pdata$?QueryInterface@?$CComAggObject@VCOPOSElectronicJournal@@@ATL@@UEAAJAEBU_GUID@@PEAPEAX@Z 00000001800368c4     ElectronicJournal.obj
 0004:000008d0       $pdata$??0?$CComContainedObject@VCOPOSElectronicJournal@@@ATL@@QEAA@PEAX@Z 00000001800368d0     ElectronicJournal.obj
 0004:000008dc       $pdata$??_G?$CComContainedObject@VCOPOSElectronicJournal@@@ATL@@UEAAPEAXI@Z 00000001800368dc     ElectronicJournal.obj
 0004:000008e8       $pdata$??_G?$CComAggObject@VCOPOSElectronicJournal@@@ATL@@UEAAPEAXI@Z 00000001800368e8     ElectronicJournal.obj
 0004:000008f4       $pdata$??0?$CComObject@VCOPOSElectronicJournal@@@ATL@@QEAA@PEAX@Z 00000001800368f4     ElectronicJournal.obj
 0004:00000900       $pdata$??1?$CComObject@VCOPOSElectronicJournal@@@ATL@@UEAA@XZ 0000000180036900     ElectronicJournal.obj
 0004:0000090c       $pdata$?Release@?$CComObject@VCOPOSElectronicJournal@@@ATL@@UEAAKXZ 000000018003690c     ElectronicJournal.obj
 0004:00000918       $pdata$??_G?$CComObject@VCOPOSElectronicJournal@@@ATL@@UEAAPEAXI@Z 0000000180036918     ElectronicJournal.obj
 0004:00000924       $pdata$??__E?pConnMap@?$IConnectionPointContainerImpl@VCOPOSElectronicJournal@@@ATL@@0PEBU_ATL_CONNMAP_ENTRY@2@EB@@YAXXZ 0000000180036924     ElectronicJournal.obj
 0004:00000930       $pdata$??1?$CComEnumImpl@UIEnumConnections@@$1?_GUID_b196b287_bab4_101a_b69c_00aa00341d07@@3U__s_GUID@@BUtagCONNECTDATA@@V?$_Copy@UtagCONNECTDATA@@@ATL@@@ATL@@UEAA@XZ 0000000180036930     ElectronicJournal.obj
 0004:0000093c       $pdata$?Next@?$CComEnumImpl@UIEnumConnections@@$1?_GUID_b196b287_bab4_101a_b69c_00aa00341d07@@3U__s_GUID@@BUtagCONNECTDATA@@V?$_Copy@UtagCONNECTDATA@@@ATL@@@ATL@@UEAAJKPEAUtagCONNECTDATA@@PEAK@Z 000000018003693c     ElectronicJournal.obj
 0004:00000948       $pdata$?Clone@?$CComEnumImpl@UIEnumConnections@@$1?_GUID_b196b287_bab4_101a_b69c_00aa00341d07@@3U__s_GUID@@BUtagCONNECTDATA@@V?$_Copy@UtagCONNECTDATA@@@ATL@@@ATL@@UEAAJPEAPEAUIEnumConnections@@@Z 0000000180036948     ElectronicJournal.obj
 0004:00000954       $pdata$?Init@?$CComEnumImpl@UIEnumConnections@@$1?_GUID_b196b287_bab4_101a_b69c_00aa00341d07@@3U__s_GUID@@BUtagCONNECTDATA@@V?$_Copy@UtagCONNECTDATA@@@ATL@@@ATL@@QEAAJPEAUtagCONNECTDATA@@0PEAUIUnknown@@W4CComEnumFlags@2@@Z 0000000180036954     ElectronicJournal.obj
 0004:00000960       $pdata$?CreateInstance@?$CComObject@V?$CComEnum@UIEnumConnections@@$1?_GUID_b196b287_bab4_101a_b69c_00aa00341d07@@3U__s_GUID@@BUtagCONNECTDATA@@V?$_Copy@UtagCONNECTDATA@@@ATL@@VCComSingleThreadModel@6@@ATL@@@ATL@@SAJPEAPEAV12@@Z 0000000180036960     ElectronicJournal.obj
 0004:0000096c       $pdata$??_G?$CComObject@V?$CComEnum@UIEnumConnections@@$1?_GUID_b196b287_bab4_101a_b69c_00aa00341d07@@3U__s_GUID@@BUtagCONNECTDATA@@V?$_Copy@UtagCONNECTDATA@@@ATL@@VCComSingleThreadModel@6@@ATL@@@ATL@@UEAAPEAXI@Z 000000018003696c     ElectronicJournal.obj
 0004:00000978       $pdata$??1CComControlBase@ATL@@UEAA@XZ 0000000180036978     ElectronicJournalImpl.obj
 0004:00000984       $pdata$??1?$IConnectionPointImpl@VCOPOSElectronicJournal@@$1?DIID__IOPOSElectronicJournalEvents@@3U_GUID@@BVCComDynamicUnkArray@ATL@@@ATL@@QEAA@XZ 0000000180036984     ElectronicJournalImpl.obj
 0004:00000984       $pdata$??1?$IConnectionPointImpl@VCOPOSElectronicJournal@@$1?IID_IPropertyNotifySink@@3U_GUID@@BVCComDynamicUnkArray@ATL@@@ATL@@QEAA@XZ 0000000180036984     ElectronicJournalImpl.obj
 0004:00000990       $pdata$?FinalConstruct@COPOSElectronicJournal@@QEAAJXZ 0000000180036990     ElectronicJournalImpl.obj
 0004:0000099c       $pdata$??1COPOSElectronicJournal@@UEAA@XZ 000000018003699c     ElectronicJournalImpl.obj
 0004:000009a8       $pdata$?GetOposProp@COPOSElectronicJournal@@IEAAJJPEAJJ@Z 00000001800369a8     ElectronicJournalImpl.obj
 0004:000009b4       $pdata$?SetOposProp@COPOSElectronicJournal@@IEAAJJJJ@Z 00000001800369b4     ElectronicJournalImpl.obj
 0004:000009c0       $pdata$?GetOposProp@COPOSElectronicJournal@@IEAAJJPEAPEA_WJ@Z 00000001800369c0     ElectronicJournalImpl.obj
 0004:000009cc       $pdata$?DoInvoke@COPOSElectronicJournal@@IEAAJJPEAVOposVariant@@IHPEAJ_N@Z 00000001800369cc     ElectronicJournalImpl.obj
 0004:000009d8       $pdata$?SetCOFreezeEvents@COPOSElectronicJournal@@IEAAXF@Z 00000001800369d8     ElectronicJournalImpl.obj
 0004:000009e4       $pdata$?FreezeEvents@COPOSElectronicJournal@@MEAAJH@Z 00000001800369e4     ElectronicJournalImpl.obj
 0004:000009f0       $pdata$?OnDraw@COPOSElectronicJournal@@MEAAJAEAUATL_DRAWINFO@@@Z 00000001800369f0     ElectronicJournalImpl.obj
 0004:000009fc       $pdata$?EventInit@COPOSElectronicJournal@@IEAAJXZ 00000001800369fc     ElectronicJournalImpl.obj
 0004:00000a08       $pdata$?EventUninit@COPOSElectronicJournal@@IEAAXXZ 0000000180036a08     ElectronicJournalImpl.obj
 0004:00000a14       $pdata$?s_EventWindowProc@COPOSElectronicJournal@@KA_JPEAUHWND__@@I_K_J@Z 0000000180036a14     ElectronicJournalImpl.obj
 0004:00000a20       $pdata$?EventWindowProc@COPOSElectronicJournal@@IEAA_JI_K_J@Z 0000000180036a20     ElectronicJournalImpl.obj
 0004:00000a2c       $pdata$?SOProcessID@COPOSElectronicJournal@@UEAAJPEAJ@Z 0000000180036a2c     ElectronicJournalImpl.obj
 0004:00000a38       $pdata$?get_AutoDisable@COPOSElectronicJournal@@UEAAJPEAF@Z 0000000180036a38     ElectronicJournalImpl.obj
 0004:00000a44       $pdata$?get_Claimed@COPOSElectronicJournal@@UEAAJPEAF@Z 0000000180036a44     ElectronicJournalImpl.obj
 0004:00000a50       $pdata$?get_DataEventEnabled@COPOSElectronicJournal@@UEAAJPEAF@Z 0000000180036a50     ElectronicJournalImpl.obj
 0004:00000a5c       $pdata$?get_DeviceEnabled@COPOSElectronicJournal@@UEAAJPEAF@Z 0000000180036a5c     ElectronicJournalImpl.obj
 0004:00000a68       $pdata$?get_FreezeEvents@COPOSElectronicJournal@@UEAAJPEAF@Z 0000000180036a68     ElectronicJournalImpl.obj
 0004:00000a74       $pdata$?put_FreezeEvents@COPOSElectronicJournal@@UEAAJF@Z 0000000180036a74     ElectronicJournalImpl.obj
 0004:00000a80       $pdata$?get_ResultCode@COPOSElectronicJournal@@UEAAJPEAJ@Z 0000000180036a80     ElectronicJournalImpl.obj
 0004:00000a8c       $pdata$?get_State@COPOSElectronicJournal@@UEAAJPEAJ@Z 0000000180036a8c     ElectronicJournalImpl.obj
 0004:00000a98       $pdata$?get_ControlObjectDescription@COPOSElectronicJournal@@UEAAJPEAPEA_W@Z 0000000180036a98     ElectronicJournalImpl.obj
 0004:00000aa4       $pdata$?get_CapStatisticsReporting@COPOSElectronicJournal@@UEAAJPEAF@Z 0000000180036aa4     ElectronicJournalImpl.obj
 0004:00000ab0       $pdata$?get_CapUpdateStatistics@COPOSElectronicJournal@@UEAAJPEAF@Z 0000000180036ab0     ElectronicJournalImpl.obj
 0004:00000abc       $pdata$?get_CapCompareFirmwareVersion@COPOSElectronicJournal@@UEAAJPEAF@Z 0000000180036abc     ElectronicJournalImpl.obj
 0004:00000ac8       $pdata$?get_CapUpdateFirmware@COPOSElectronicJournal@@UEAAJPEAF@Z 0000000180036ac8     ElectronicJournalImpl.obj
 0004:00000ad4       $pdata$?CheckHealth@COPOSElectronicJournal@@UEAAJJPEAJ@Z 0000000180036ad4     ElectronicJournalImpl.obj
 0004:00000ae0       $pdata$?ClaimDevice@COPOSElectronicJournal@@UEAAJJPEAJ@Z 0000000180036ae0     ElectronicJournalImpl.obj
 0004:00000aec       $pdata$?ClearInput@COPOSElectronicJournal@@UEAAJPEAJ@Z 0000000180036aec     ElectronicJournalImpl.obj
 0004:00000af8       $pdata$?ClearOutput@COPOSElectronicJournal@@UEAAJPEAJ@Z 0000000180036af8     ElectronicJournalImpl.obj
 0004:00000b04       $pdata$?Close@COPOSElectronicJournal@@UEAAJPEAJ@Z 0000000180036b04     ElectronicJournalImpl.obj
 0004:00000b10       $pdata$?DirectIO@COPOSElectronicJournal@@UEAAJJPEAJPEAPEA_W0@Z 0000000180036b10     ElectronicJournalImpl.obj
 0004:00000b1c       $pdata$?Open@COPOSElectronicJournal@@UEAAJPEA_WPEAJ@Z 0000000180036b1c     ElectronicJournalImpl.obj
 0004:00000b28       $pdata$?ReleaseDevice@COPOSElectronicJournal@@UEAAJPEAJ@Z 0000000180036b28     ElectronicJournalImpl.obj
 0004:00000b34       $pdata$?ResetStatistics@COPOSElectronicJournal@@UEAAJPEA_WPEAJ@Z 0000000180036b34     ElectronicJournalImpl.obj
 0004:00000b40       $pdata$?RetrieveStatistics@COPOSElectronicJournal@@UEAAJPEAPEA_WPEAJ@Z 0000000180036b40     ElectronicJournalImpl.obj
 0004:00000b4c       $pdata$?UpdateStatistics@COPOSElectronicJournal@@UEAAJPEA_WPEAJ@Z 0000000180036b4c     ElectronicJournalImpl.obj
 0004:00000b58       $pdata$?CompareFirmwareVersion@COPOSElectronicJournal@@UEAAJPEA_WPEAJ1@Z 0000000180036b58     ElectronicJournalImpl.obj
 0004:00000b64       $pdata$?UpdateFirmware@COPOSElectronicJournal@@UEAAJPEA_WPEAJ@Z 0000000180036b64     ElectronicJournalImpl.obj
 0004:00000b70       $pdata$?get_AsyncMode@COPOSElectronicJournal@@UEAAJPEAF@Z 0000000180036b70     ElectronicJournalImpl.obj
 0004:00000b7c       $pdata$?get_CapAddMarker@COPOSElectronicJournal@@UEAAJPEAF@Z 0000000180036b7c     ElectronicJournalImpl.obj
 0004:00000b88       $pdata$?get_CapErasableMedium@COPOSElectronicJournal@@UEAAJPEAF@Z 0000000180036b88     ElectronicJournalImpl.obj
 0004:00000b94       $pdata$?get_CapInitializeMedium@COPOSElectronicJournal@@UEAAJPEAF@Z 0000000180036b94     ElectronicJournalImpl.obj
 0004:00000ba0       $pdata$?get_CapMediumIsAvailable@COPOSElectronicJournal@@UEAAJPEAF@Z 0000000180036ba0     ElectronicJournalImpl.obj
 0004:00000bac       $pdata$?get_CapPrintContent@COPOSElectronicJournal@@UEAAJPEAF@Z 0000000180036bac     ElectronicJournalImpl.obj
 0004:00000bb8       $pdata$?get_CapPrintContentFile@COPOSElectronicJournal@@UEAAJPEAF@Z 0000000180036bb8     ElectronicJournalImpl.obj
 0004:00000bc4       $pdata$?get_CapRetrieveCurrentMarker@COPOSElectronicJournal@@UEAAJPEAF@Z 0000000180036bc4     ElectronicJournalImpl.obj
 0004:00000bd0       $pdata$?get_CapRetrieveMarker@COPOSElectronicJournal@@UEAAJPEAF@Z 0000000180036bd0     ElectronicJournalImpl.obj
 0004:00000bdc       $pdata$?get_CapRetrieveMarkerByDateTime@COPOSElectronicJournal@@UEAAJPEAF@Z 0000000180036bdc     ElectronicJournalImpl.obj
 0004:00000be8       $pdata$?get_CapRetrieveMarkersDateTime@COPOSElectronicJournal@@UEAAJPEAF@Z 0000000180036be8     ElectronicJournalImpl.obj
 0004:00000bf4       $pdata$?get_CapStorageEnabled@COPOSElectronicJournal@@UEAAJPEAF@Z 0000000180036bf4     ElectronicJournalImpl.obj
 0004:00000c00       $pdata$?get_CapSuspendPrintContent@COPOSElectronicJournal@@UEAAJPEAF@Z 0000000180036c00     ElectronicJournalImpl.obj
 0004:00000c0c       $pdata$?get_CapSuspendQueryContent@COPOSElectronicJournal@@UEAAJPEAF@Z 0000000180036c0c     ElectronicJournalImpl.obj
 0004:00000c18       $pdata$?get_CapWaterMark@COPOSElectronicJournal@@UEAAJPEAF@Z 0000000180036c18     ElectronicJournalImpl.obj
 0004:00000c24       $pdata$?get_FlagWhenIdle@COPOSElectronicJournal@@UEAAJPEAF@Z 0000000180036c24     ElectronicJournalImpl.obj
 0004:00000c30       $pdata$?get_MediumFreeSpace@COPOSElectronicJournal@@UEAAJPEATtagCY@@@Z 0000000180036c30     ElectronicJournalImpl.obj
 0004:00000c3c       $pdata$?get_MediumIsAvailable@COPOSElectronicJournal@@UEAAJPEAF@Z 0000000180036c3c     ElectronicJournalImpl.obj
 0004:00000c48       $pdata$?get_MediumSize@COPOSElectronicJournal@@UEAAJPEATtagCY@@@Z 0000000180036c48     ElectronicJournalImpl.obj
 0004:00000c54       $pdata$?get_StorageEnabled@COPOSElectronicJournal@@UEAAJPEAF@Z 0000000180036c54     ElectronicJournalImpl.obj
 0004:00000c60       $pdata$?get_Suspended@COPOSElectronicJournal@@UEAAJPEAF@Z 0000000180036c60     ElectronicJournalImpl.obj
 0004:00000c6c       $pdata$?get_WaterMark@COPOSElectronicJournal@@UEAAJPEAF@Z 0000000180036c6c     ElectronicJournalImpl.obj
 0004:00000c78       $pdata$?AddMarker@COPOSElectronicJournal@@UEAAJPEA_WPEAJ@Z 0000000180036c78     ElectronicJournalImpl.obj
 0004:00000c84       $pdata$?CancelPrintContent@COPOSElectronicJournal@@UEAAJPEAJ@Z 0000000180036c84     ElectronicJournalImpl.obj
 0004:00000c90       $pdata$?CancelQueryContent@COPOSElectronicJournal@@UEAAJPEAJ@Z 0000000180036c90     ElectronicJournalImpl.obj
 0004:00000c9c       $pdata$?EraseMedium@COPOSElectronicJournal@@UEAAJPEAJ@Z 0000000180036c9c     ElectronicJournalImpl.obj
 0004:00000ca8       $pdata$?InitializeMedium@COPOSElectronicJournal@@UEAAJPEA_WPEAJ@Z 0000000180036ca8     ElectronicJournalImpl.obj
 0004:00000cb4       $pdata$?PrintContent@COPOSElectronicJournal@@UEAAJPEA_W0PEAJ@Z 0000000180036cb4     ElectronicJournalImpl.obj
 0004:00000cc0       $pdata$?PrintContentFile@COPOSElectronicJournal@@UEAAJPEA_WPEAJ@Z 0000000180036cc0     ElectronicJournalImpl.obj
 0004:00000ccc       $pdata$?QueryContent@COPOSElectronicJournal@@UEAAJPEA_W00PEAJ@Z 0000000180036ccc     ElectronicJournalImpl.obj
 0004:00000cd8       $pdata$?ResumePrintContent@COPOSElectronicJournal@@UEAAJPEAJ@Z 0000000180036cd8     ElectronicJournalImpl.obj
 0004:00000ce4       $pdata$?ResumeQueryContent@COPOSElectronicJournal@@UEAAJPEAJ@Z 0000000180036ce4     ElectronicJournalImpl.obj
 0004:00000cf0       $pdata$?RetrieveCurrentMarker@COPOSElectronicJournal@@UEAAJJPEAPEA_WPEAJ@Z 0000000180036cf0     ElectronicJournalImpl.obj
 0004:00000cfc       $pdata$?RetrieveMarker@COPOSElectronicJournal@@UEAAJJJJPEAPEA_WPEAJ@Z 0000000180036cfc     ElectronicJournalImpl.obj
 0004:00000d08       $pdata$?RetrieveMarkerByDateTime@COPOSElectronicJournal@@UEAAJJPEA_W0PEAPEA_WPEAJ@Z 0000000180036d08     ElectronicJournalImpl.obj
 0004:00000d14       $pdata$?RetrieveMarkersDateTime@COPOSElectronicJournal@@UEAAJPEA_WPEAPEA_WPEAJ@Z 0000000180036d14     ElectronicJournalImpl.obj
 0004:00000d20       $pdata$?SuspendPrintContent@COPOSElectronicJournal@@UEAAJPEAJ@Z 0000000180036d20     ElectronicJournalImpl.obj
 0004:00000d2c       $pdata$?SuspendQueryContent@COPOSElectronicJournal@@UEAAJPEAJ@Z 0000000180036d2c     ElectronicJournalImpl.obj
 0004:00000d38       $pdata$atexit              0000000180036d38     LIBCMT:utility.obj
 0004:00000d44       $pdata$_onexit             0000000180036d44     LIBCMT:utility.obj
 0004:00000d50       $pdata$__scrt_is_nonwritable_in_current_image 0000000180036d50     LIBCMT:utility.obj
 0004:00000d5c       $pdata$__scrt_is_nonwritable_in_current_image$filt$0 0000000180036d5c     LIBCMT:utility.obj
 0004:00000d68       $pdata$__scrt_acquire_startup_lock 0000000180036d68     LIBCMT:utility.obj
 0004:00000d74       $pdata$__scrt_release_startup_lock 0000000180036d74     LIBCMT:utility.obj
 0004:00000d80       $pdata$__scrt_initialize_crt 0000000180036d80     LIBCMT:utility.obj
 0004:00000d8c       $pdata$__scrt_uninitialize_crt 0000000180036d8c     LIBCMT:utility.obj
 0004:00000d98       $pdata$__scrt_initialize_onexit_tables 0000000180036d98     LIBCMT:utility.obj
 0004:00000da4       $pdata$__scrt_dllmain_exception_filter 0000000180036da4     LIBCMT:utility.obj
 0004:00000db0       $pdata$__scrt_dllmain_before_initialize_c 0000000180036db0     LIBCMT:utility.obj
 0004:00000dbc       $pdata$__scrt_dllmain_after_initialize_c 0000000180036dbc     LIBCMT:utility.obj
 0004:00000dc8       $pdata$__scrt_dllmain_uninitialize_c 0000000180036dc8     LIBCMT:utility.obj
 0004:00000dd4       $pdata$__scrt_dllmain_uninitialize_critical 0000000180036dd4     LIBCMT:utility.obj
 0004:00000de0       $pdata$__scrt_dllmain_crt_thread_attach 0000000180036de0     LIBCMT:utility.obj
 0004:00000dec       $pdata$__scrt_dllmain_crt_thread_detach 0000000180036dec     LIBCMT:utility.obj
 0004:00000df8       $pdata$_Init_thread_header 0000000180036df8     LIBCMT:thread_safe_statics.obj
 0004:00000e04       $pdata$_Init_thread_footer 0000000180036e04     LIBCMT:thread_safe_statics.obj
 0004:00000e10       $pdata$_Init_thread_wait   0000000180036e10     LIBCMT:thread_safe_statics.obj
 0004:00000e1c       $pdata$_Init_thread_notify 0000000180036e1c     LIBCMT:thread_safe_statics.obj
 0004:00000e28       $pdata$?__scrt_uninitialize_thread_safe_statics@@YAXXZ 0000000180036e28     LIBCMT:thread_safe_statics.obj
 0004:00000e34       $pdata$?__scrt_initialize_thread_safe_statics@@YAHXZ 0000000180036e34     LIBCMT:thread_safe_statics.obj
 0004:00000e40       $pdata$__report_securityfailure 0000000180036e40     LIBCMT:gs_report.obj
 0004:00000e4c       $pdata$__report_rangecheckfailure 0000000180036e4c     LIBCMT:gs_report.obj
 0004:00000e58       $pdata$__report_gsfailure  0000000180036e58     LIBCMT:gs_report.obj
 0004:00000e64       $pdata$capture_current_context 0000000180036e64     LIBCMT:gs_report.obj
 0004:00000e70       $pdata$capture_previous_context 0000000180036e70     LIBCMT:gs_report.obj
 0004:00000e7c       $pdata$__raise_securityfailure 0000000180036e7c     LIBCMT:gs_report.obj
 0004:00000e88       $pdata$??2@YAPEAX_KAEBUnothrow_t@std@@@Z 0000000180036e88     LIBCMT:new_scalar_nothrow.obj
 0004:00000e94       $pdata$?catch$0@?0???2@YAPEAX_KAEBUnothrow_t@std@@@Z@4HA 0000000180036e94     LIBCMT:new_scalar_nothrow.obj
 0004:00000ea0       $pdata$__GSHandlerCheckCommon 0000000180036ea0     LIBCMT:gshandler.obj
 0004:00000eac       $pdata$__GSHandlerCheck    0000000180036eac     LIBCMT:gshandler.obj
 0004:00000eb8       $pdata$__GSHandlerCheck_SEH 0000000180036eb8     LIBCMT:gshandlerseh.obj
 0004:00000edc       $pdata$?dllmain_crt_process_attach@@YAHQEAUHINSTANCE__@@QEAX@Z 0000000180036edc     LIBCMT:dll_dllmain.obj
 0004:00000ee8       $pdata$?fin$0@?0??dllmain_crt_process_attach@@YAHQEAUHINSTANCE__@@QEAX@Z@4HA 0000000180036ee8     LIBCMT:dll_dllmain.obj
 0004:00000ef4       $pdata$?dllmain_crt_process_detach@@YAH_N@Z 0000000180036ef4     LIBCMT:dll_dllmain.obj
 0004:00000f00       $pdata$?fin$0@?0??dllmain_crt_process_detach@@YAH_N@Z@4HA 0000000180036f00     LIBCMT:dll_dllmain.obj
 0004:00000f0c       $pdata$?fin$1@?0??dllmain_crt_process_detach@@YAH_N@Z@4HA 0000000180036f0c     LIBCMT:dll_dllmain.obj
 0004:00000f18       $pdata$?dllmain_crt_dispatch@@YAHQEAUHINSTANCE__@@KQEAX@Z 0000000180036f18     LIBCMT:dll_dllmain.obj
 0004:00000f24       $pdata$?dllmain_dispatch@@YAHQEAUHINSTANCE__@@KQEAX@Z 0000000180036f24     LIBCMT:dll_dllmain.obj
 0004:00000f30       $pdata$?filt$0@?0??dllmain_dispatch@@YAHQEAUHINSTANCE__@@KQEAX@Z@4HA 0000000180036f30     LIBCMT:dll_dllmain.obj
 0004:00000f3c       $pdata$_DllMainCRTStartup  0000000180036f3c     LIBCMT:dll_dllmain.obj
 0004:00000f48       $pdata$??2@YAPEAX_K@Z      0000000180036f48     LIBCMT:new_scalar.obj
 0004:00000f54       $pdata$__isa_available_init 0000000180036f54     LIBCMT:cpu_disp.obj
 0004:00000f60       $pdata$__scrt_fastfail     0000000180036f60     LIBCMT:utility_desktop.obj
 0004:00000f6c       $pdata$__security_init_cookie 0000000180036f6c     LIBCMT:gs_support.obj
 0004:00000f78       $pdata$__scrt_initialize_default_local_stdio_options 0000000180036f78     LIBCMT:default_local_stdio_options.obj
 0004:00000f84       $pdata$_RTC_Initialize     0000000180036f84     LIBCMT:initsect.obj
 0004:00000f90       $pdata$_RTC_Terminate      0000000180036f90     LIBCMT:initsect.obj
 0004:00000f9c       $pdata$??0exception@std@@QEAA@AEBV01@@Z 0000000180036f9c     LIBCMT:throw_bad_alloc.obj
 0004:00000fa8       $pdata$??_Gbad_alloc@std@@UEAAPEAXI@Z 0000000180036fa8     LIBCMT:throw_bad_alloc.obj
 0004:00000fa8       $pdata$??_Gbad_array_new_length@std@@UEAAPEAXI@Z 0000000180036fa8     LIBCMT:throw_bad_alloc.obj
 0004:00000fa8       $pdata$??_Gexception@std@@UEAAPEAXI@Z 0000000180036fa8     LIBCMT:throw_bad_alloc.obj
 0004:00000fa8       $pdata$??_Gbad_exception@std@@UEAAPEAXI@Z 0000000180036fa8     libvcruntime:frame.obj
 0004:00000fb4       $pdata$??0bad_alloc@std@@QEAA@AEBV01@@Z 0000000180036fb4     LIBCMT:throw_bad_alloc.obj
 0004:00000fc0       $pdata$??0bad_array_new_length@std@@QEAA@AEBV01@@Z 0000000180036fc0     LIBCMT:throw_bad_alloc.obj
 0004:00000fcc       $pdata$?__scrt_throw_std_bad_alloc@@YAXXZ 0000000180036fcc     LIBCMT:throw_bad_alloc.obj
 0004:00000fd8       $pdata$?__scrt_throw_std_bad_array_new_length@@YAXXZ 0000000180036fd8     LIBCMT:throw_bad_alloc.obj
 0004:00000ffc       $pdata$??_Gtype_info@@UEAAPEAXI@Z 0000000180036ffc     LIBCMT:std_type_info_static.obj
 0004:00001008       $pdata$??0CAtlBaseModule@ATL@@QEAA@XZ 0000000180037008     atls:atlbase.obj
 0004:00001014       $pdata$??1CAtlBaseModule@ATL@@QEAA@XZ 0000000180037014     atls:atlbase.obj
 0004:00001020       $pdata$??__E_AtlBaseModule@ATL@@YAXXZ 0000000180037020     atls:atlbase.obj
 0004:0000102c       $pdata$AtlThunk_AllocateData 000000018003702c     atls:atlthunk.obj
 0004:00001038       $pdata$AtlThunk_InitData   0000000180037038     atls:atlthunk.obj
 0004:00001044       $pdata$AtlThunk_DataToCode 0000000180037044     atls:atlthunk.obj
 0004:00001050       $pdata$AtlThunk_FreeData   0000000180037050     atls:atlthunk.obj
 0004:0000105c       $pdata$?__InitializeThunkPool@@YAHXZ 000000018003705c     atls:atlthunk.obj
 0004:00001068       $pdata$?__AllocStdCallThunk_cmn@@YAPEAXXZ 0000000180037068     atls:atlthunk.obj
 0004:00001074       $pdata$??$GetProcAddressAll@P6AP6A_JPEAUHWND__@@I_K_J@ZPEAUAtlThunkData_t@@@Z@@YAP6AP6A_JPEAUHWND__@@I_K_J@ZPEAUAtlThunkData_t@@@ZPEAP6AP6A_J0I12@Z3@Z@Z 0000000180037074     atls:atlthunk.obj
 0004:00001074       $pdata$??$GetProcAddressAll@P6APEAUAtlThunkData_t@@XZ@@YAP6APEAUAtlThunkData_t@@XZPEAP6APEAU0@XZ@Z 0000000180037074     atls:atlthunk.obj
 0004:00001074       $pdata$??$GetProcAddressAll@P6AXPEAUAtlThunkData_t@@@Z@@YAP6AXPEAUAtlThunkData_t@@@ZPEAP6AX0@Z@Z 0000000180037074     atls:atlthunk.obj
 0004:00001074       $pdata$??$GetProcAddressAll@P6AXPEAUAtlThunkData_t@@PEAX_K@Z@@YAP6AXPEAUAtlThunkData_t@@PEAX_K@ZPEAP6AX012@Z@Z 0000000180037074     atls:atlthunk.obj
 0004:00001080       $pdata$_purecall           0000000180037080     libvcruntime:purevirt.obj
 0004:0000108c       $pdata$wcsstr              000000018003708c     libvcruntime:wcsstr.obj
 0004:000010d4       $pdata$__vcrt_initialize   00000001800370d4     libvcruntime:initialization.obj
 0004:000010e0       $pdata$__vcrt_uninitialize 00000001800370e0     libvcruntime:initialization.obj
 0004:000010ec       $pdata$__vcrt_uninitialize_critical 00000001800370ec     libvcruntime:initialization.obj
 0004:000010f8       $pdata$__vcrt_thread_attach 00000001800370f8     libvcruntime:initialization.obj
 0004:00001104       $pdata$__vcrt_thread_detach 0000000180037104     libvcruntime:initialization.obj
 0004:00001110       $pdata$__C_specific_handler 0000000180037110     libvcruntime:riscchandler.obj
 0004:0000111c       $pdata$?DecompFuncInfo@FH4@@YA_JPEAEAEAUFuncInfo4@1@_KH_N@Z 000000018003711c     libvcruntime:risctrnsctrl.obj
 0004:00001128       $pdata$?FrameUnwindToEmptyState@__FrameHandler4@@SAXPEA_KPEAU_xDISPATCHER_CONTEXT@@PEAUFuncInfo4@FH4@@@Z 0000000180037128     libvcruntime:risctrnsctrl.obj
 0004:00001134       $pdata$?UnwindNestedFrames@__FrameHandler4@@SAXPEA_KPEAUEHExceptionRecord@@PEAU_CONTEXT@@0PEAXPEAUFuncInfo4@FH4@@HHPEAUHandlerType4@5@PEAU_xDISPATCHER_CONTEXT@@E@Z 0000000180037134     libvcruntime:risctrnsctrl.obj
 0004:00001140       $pdata$?GetRangeOfTrysToCheck@__FrameHandler4@@SA?AU?$pair@Viterator@TryBlockMap4@FH4@@V123@@std@@AEAVTryBlockMap4@FH4@@HPEAU_xDISPATCHER_CONTEXT@@PEAUFuncInfo4@5@H@Z 0000000180037140     libvcruntime:risctrnsctrl.obj
 0004:0000114c       $pdata$_GetImageBase       000000018003714c     libvcruntime:risctrnsctrl.obj
 0004:00001158       $pdata$_SetImageBase       0000000180037158     libvcruntime:risctrnsctrl.obj
 0004:00001164       $pdata$_GetThrowImageBase  0000000180037164     libvcruntime:risctrnsctrl.obj
 0004:00001170       $pdata$_SetThrowImageBase  0000000180037170     libvcruntime:risctrnsctrl.obj
 0004:0000117c       $pdata$_CreateFrameInfo    000000018003717c     libvcruntime:risctrnsctrl.obj
 0004:00001188       $pdata$_FindAndUnlinkFrame 0000000180037188     libvcruntime:risctrnsctrl.obj
 0004:00001194       $pdata$__CxxFrameHandler4  0000000180037194     libvcruntime:risctrnsctrl.obj
 0004:000011a0       $pdata$??$_CallSETranslator@V__FrameHandler4@@@@YAHPEAUEHExceptionRecord@@PEA_KPEAU_CONTEXT@@PEAU_xDISPATCHER_CONTEXT@@PEAUFuncInfo4@FH4@@K1H@Z 00000001800371a0     libvcruntime:risctrnsctrl.obj
 0004:000011ac       $pdata$?filt$0@?0???$_CallSETranslator@V__FrameHandler4@@@@YAHPEAUEHExceptionRecord@@PEA_KPEAU_CONTEXT@@PEAU_xDISPATCHER_CONTEXT@@PEAUFuncInfo4@FH4@@K1H@Z@4HA 00000001800371ac     libvcruntime:risctrnsctrl.obj
 0004:000011b8       $pdata$_IsExceptionObjectToBeDestroyed 00000001800371b8     libvcruntime:ehhelpers.obj
 0004:000011c4       $pdata$__FrameUnwindFilter 00000001800371c4     libvcruntime:ehhelpers.obj
 0004:000011d0       $pdata$__DestructExceptionObject 00000001800371d0     libvcruntime:ehhelpers.obj
 0004:000011dc       $pdata$__DestructExceptionObject$filt$0 00000001800371dc     libvcruntime:ehhelpers.obj
 0004:000011e8       $pdata$__std_type_info_destroy_list 00000001800371e8     libvcruntime:std_type_info.obj
 0004:000011f4       $pdata$__std_exception_copy 00000001800371f4     libvcruntime:std_exception.obj
 0004:00001200       $pdata$__std_exception_destroy 0000000180037200     libvcruntime:std_exception.obj
 0004:0000120c       $pdata$_CxxThrowException  000000018003720c     libvcruntime:throw.obj
 0004:00001218       $pdata$__vcrt_initialize_ptd 0000000180037218     libvcruntime:per_thread_data.obj
 0004:00001224       $pdata$__vcrt_uninitialize_ptd 0000000180037224     libvcruntime:per_thread_data.obj
 0004:00001230       $pdata$__vcrt_getptd       0000000180037230     libvcruntime:per_thread_data.obj
 0004:0000123c       $pdata$__vcrt_getptd_noexit 000000018003723c     libvcruntime:per_thread_data.obj
 0004:00001248       $pdata$__vcrt_freeptd      0000000180037248     libvcruntime:per_thread_data.obj
 0004:00001254       $pdata$__vcrt_freefls      0000000180037254     libvcruntime:per_thread_data.obj
 0004:00001260       $pdata$__vcrt_initialize_locks 0000000180037260     libvcruntime:locks.obj
 0004:0000126c       $pdata$__vcrt_uninitialize_locks 000000018003726c     libvcruntime:locks.obj
 0004:0000129c       $pdata$?StateFromIp@__FrameHandler4@@SAHPEAUFuncInfo4@FH4@@PEAU_xDISPATCHER_CONTEXT@@_K@Z 000000018003729c     libvcruntime:ehstate.obj
 0004:000012a8       $pdata$?getStartStop@UWMap4@FH4@@QEAAXHHAEAViterator@12@0@Z 00000001800372a8     libvcruntime:frame.obj
 0004:000012b4       $pdata$?getStateFromIterators@UWMap4@FH4@@SAHAEBViterator@12@H0H0@Z 00000001800372b4     libvcruntime:frame.obj
 0004:000012c0       $pdata$??0HandlerMap4@FH4@@QEAA@PEBUTryBlockMapEntry4@1@_KH@Z 00000001800372c0     libvcruntime:frame.obj
 0004:000012cc       $pdata$?FrameUnwindToState@__FrameHandler4@@SAXPEA_KPEAU_xDISPATCHER_CONTEXT@@PEAUFuncInfo4@FH4@@H@Z 00000001800372cc     libvcruntime:frame.obj
 0004:000012d8       $pdata$?filt$0@?0??FrameUnwindToState@__FrameHandler4@@SAXPEA_KPEAU_xDISPATCHER_CONTEXT@@PEAUFuncInfo4@FH4@@H@Z@4HA 00000001800372d8     libvcruntime:frame.obj
 0004:000012e4       $pdata$?fin$1@?0??FrameUnwindToState@__FrameHandler4@@SAXPEA_KPEAU_xDISPATCHER_CONTEXT@@PEAUFuncInfo4@FH4@@H@Z@4HA 00000001800372e4     libvcruntime:frame.obj
 0004:000012f0       $pdata$?CxxCallCatchBlock@__FrameHandler4@@SAPEAXPEAU_EXCEPTION_RECORD@@@Z 00000001800372f0     libvcruntime:frame.obj
 0004:000012fc       $pdata$?filt$0@?0??CxxCallCatchBlock@__FrameHandler4@@SAPEAXPEAU_EXCEPTION_RECORD@@@Z@4HA 00000001800372fc     libvcruntime:frame.obj
 0004:00001308       $pdata$?fin$1@?0??CxxCallCatchBlock@__FrameHandler4@@SAPEAXPEAU_EXCEPTION_RECORD@@@Z@4HA 0000000180037308     libvcruntime:frame.obj
 0004:00001314       $pdata$??0bad_exception@std@@QEAA@AEBV01@@Z 0000000180037314     libvcruntime:frame.obj
 0004:00001320       $pdata$?ExFilterRethrow@@YAHPEAU_EXCEPTION_POINTERS@@PEAUEHExceptionRecord@@PEAH@Z 0000000180037320     libvcruntime:frame.obj
 0004:0000132c       $pdata$?ExFilterRethrowFH4@@YAHPEAU_EXCEPTION_POINTERS@@PEAUEHExceptionRecord@@HPEAH@Z 000000018003732c     libvcruntime:frame.obj
 0004:00001338       $pdata$?IsInExceptionSpec@@YAEPEAUEHExceptionRecord@@PEBU_s_ESTypeList@@@Z 0000000180037338     libvcruntime:frame.obj
 0004:00001344       $pdata$?Is_bad_exception_allowed@@YAEPEBU_s_ESTypeList@@@Z 0000000180037344     libvcruntime:frame.obj
 0004:00001350       $pdata$??$__InternalCxxFrameHandler@V__FrameHandler4@@@@YA?AW4_EXCEPTION_DISPOSITION@@PEAUEHExceptionRecord@@PEA_KPEAU_CONTEXT@@PEAU_xDISPATCHER_CONTEXT@@PEAUFuncInfo4@FH4@@H1E@Z 0000000180037350     libvcruntime:frame.obj
 0004:0000135c       $pdata$??$TypeMatchHelper@V__FrameHandler3@@@@YAHPEBU_s_HandlerType@@PEBU_s_CatchableType@@PEBU_s_ThrowInfo@@@Z 000000018003735c     libvcruntime:frame.obj
 0004:00001368       $pdata$??$TypeMatchHelper@V__FrameHandler4@@@@YAHPEAUHandlerType4@FH4@@PEBU_s_CatchableType@@PEBU_s_ThrowInfo@@@Z 0000000180037368     libvcruntime:frame.obj
 0004:00001374       $pdata$??$BuildCatchObjectHelperInternal@V__FrameHandler4@@@@YAHPEAUEHExceptionRecord@@PEAXPEAUHandlerType4@FH4@@PEBU_s_CatchableType@@@Z 0000000180037374     libvcruntime:frame.obj
 0004:00001380       $pdata$??$BuildCatchObjectInternal@V__FrameHandler4@@@@YAXPEAUEHExceptionRecord@@PEAXPEAUHandlerType4@FH4@@PEBU_s_CatchableType@@@Z 0000000180037380     libvcruntime:frame.obj
 0004:0000138c       $pdata$??$FindHandler@V__FrameHandler4@@@@YAXPEAUEHExceptionRecord@@PEA_KPEAU_CONTEXT@@PEAU_xDISPATCHER_CONTEXT@@PEAUFuncInfo4@FH4@@EH1@Z 000000018003738c     libvcruntime:frame.obj
 0004:00001398       $pdata$??$CatchIt@V__FrameHandler4@@@@YAXPEAUEHExceptionRecord@@PEA_KPEAU_CONTEXT@@PEAU_xDISPATCHER_CONTEXT@@PEAUFuncInfo4@FH4@@PEAUHandlerType4@4@PEBU_s_CatchableType@@PEAUTryBlockMapEntry4@4@H1EE@Z 0000000180037398     libvcruntime:frame.obj
 0004:000013a4       $pdata$??$FindHandlerForForeignException@V__FrameHandler4@@@@YAXPEAUEHExceptionRecord@@PEA_KPEAU_CONTEXT@@PEAU_xDISPATCHER_CONTEXT@@PEAUFuncInfo4@FH4@@HH1@Z 00000001800373a4     libvcruntime:frame.obj
 0004:000013b0       $pdata$__vcrt_FlsAlloc     00000001800373b0     libvcruntime:winapi_downlevel.obj
 0004:000013bc       $pdata$__vcrt_FlsFree      00000001800373bc     libvcruntime:winapi_downlevel.obj
 0004:000013c8       $pdata$__vcrt_FlsGetValue  00000001800373c8     libvcruntime:winapi_downlevel.obj
 0004:000013d4       $pdata$__vcrt_FlsSetValue  00000001800373d4     libvcruntime:winapi_downlevel.obj
 0004:000013e0       $pdata$__vcrt_InitializeCriticalSectionEx 00000001800373e0     libvcruntime:winapi_downlevel.obj
 0004:000013ec       $pdata$?try_get_function@@YAPEAXW4function_id@?A0x5302d918@@QEBDQEBW4module_id@2@2@Z 00000001800373ec     libvcruntime:winapi_downlevel.obj
 0004:00001428       $pdata$_invalid_parameter_noinfo 0000000180037428     libucrt:invalid_parameter.obj
 0004:00001434       $pdata$_invoke_watson      0000000180037434     libucrt:invalid_parameter.obj
 0004:00001440       $pdata$__acrt_call_reportfault 0000000180037440     libucrt:invalid_parameter.obj
 0004:0000144c       $pdata$_invalid_parameter  000000018003744c     libucrt:invalid_parameter.obj
 0004:00001458       $pdata$_errno              0000000180037458     libucrt:errno.obj
 0004:00001464       $pdata$__doserrno          0000000180037464     libucrt:errno.obj
 0004:00001470       $pdata$__acrt_errno_map_os_error 0000000180037470     libucrt:errno.obj
 0004:0000147c       $pdata$_recalloc_base      000000018003747c     libucrt:recalloc.obj
 0004:00001488       $pdata$_resetstkoflw       0000000180037488     libucrt:resetstk.obj
 0004:00001494       $pdata$wcscat_s            0000000180037494     libucrt:wcscat_s.obj
 0004:000014a0       $pdata$wcscpy_s            00000001800374a0     libucrt:wcscpy_s.obj
 0004:000014ac       $pdata$wcsncpy_s           00000001800374ac     libucrt:wcsncpy_s.obj
 0004:000014b8       $pdata$??0_LocaleUpdate@@QEAA@QEAU__crt_locale_pointers@@@Z 00000001800374b8     libucrt:output.obj
 0004:000014c4       $pdata$__stdio_common_vswprintf_s 00000001800374c4     libucrt:output.obj
 0004:000014d0       $pdata$?write_string@?$string_output_adapter@_W@__crt_stdio_output@@QEBAXQEB_WHQEAHAEAV__crt_deferred_errno_cache@@@Z 00000001800374d0     libucrt:output.obj
 0004:000014dc       $pdata$??$common_vsprintf@Vformat_validation_base@__crt_stdio_output@@_W@@YAH_KQEA_W0QEB_WQEAU__crt_locale_pointers@@QEAD@Z 00000001800374dc     libucrt:output.obj
 0004:000014e8       $pdata$??$write_multiple_characters@V?$string_output_adapter@_W@__crt_stdio_output@@D@__crt_stdio_output@@YAXAEBV?$string_output_adapter@_W@0@DHQEAH@Z 00000001800374e8     libucrt:output.obj
 0004:000014f4       $pdata$??$ensure_buffer_is_big_enough@D@formatting_buffer@__crt_stdio_output@@QEAA_N_K@Z 00000001800374f4     libucrt:output.obj
 0004:00001500       $pdata$??$ensure_buffer_is_big_enough@_W@formatting_buffer@__crt_stdio_output@@QEAA_N_K@Z 0000000180037500     libucrt:output.obj
 0004:0000150c       $pdata$?process@?$output_processor@_WV?$string_output_adapter@_W@__crt_stdio_output@@V?$format_validation_base@_WV?$string_output_adapter@_W@__crt_stdio_output@@@2@@__crt_stdio_output@@QEAAHXZ 000000018003750c     libucrt:output.obj
 0004:00001518       $pdata$?parse_int_from_format_string@?$output_processor@_WV?$string_output_adapter@_W@__crt_stdio_output@@V?$format_validation_base@_WV?$string_output_adapter@_W@__crt_stdio_output@@@2@@__crt_stdio_output@@AEAA_NQEAH@Z 0000000180037518     libucrt:output.obj
 0004:00001524       $pdata$?state_case_size@?$output_processor@_WV?$string_output_adapter@_W@__crt_stdio_output@@V?$format_validation_base@_WV?$string_output_adapter@_W@__crt_stdio_output@@@2@@__crt_stdio_output@@AEAA_NXZ 0000000180037524     libucrt:output.obj
 0004:00001530       $pdata$?state_case_type@?$output_processor@_WV?$string_output_adapter@_W@__crt_stdio_output@@V?$format_validation_base@_WV?$string_output_adapter@_W@__crt_stdio_output@@@2@@__crt_stdio_output@@AEAA_NXZ 0000000180037530     libucrt:output.obj
 0004:0000153c       $pdata$?type_case_c_tchar@?$output_processor@_WV?$string_output_adapter@_W@__crt_stdio_output@@V?$format_validation_base@_WV?$string_output_adapter@_W@__crt_stdio_output@@@2@@__crt_stdio_output@@AEAA_N_W@Z 000000018003753c     libucrt:output.obj
 0004:00001548       $pdata$?type_case_Z@?$output_processor@_WV?$string_output_adapter@_W@__crt_stdio_output@@V?$format_validation_base@_WV?$string_output_adapter@_W@__crt_stdio_output@@@2@@__crt_stdio_output@@AEAA_NXZ 0000000180037548     libucrt:output.obj
 0004:00001554       $pdata$?type_case_s@?$output_processor@_WV?$string_output_adapter@_W@__crt_stdio_output@@V?$format_validation_base@_WV?$string_output_adapter@_W@__crt_stdio_output@@@2@@__crt_stdio_output@@AEAA_NXZ 0000000180037554     libucrt:output.obj
 0004:00001560       $pdata$?type_case_a@?$output_processor@_WV?$string_output_adapter@_W@__crt_stdio_output@@V?$format_validation_base@_WV?$string_output_adapter@_W@__crt_stdio_output@@@2@@__crt_stdio_output@@AEAA_NXZ 0000000180037560     libucrt:output.obj
 0004:0000156c       $pdata$?type_case_integer@?$output_processor@_WV?$string_output_adapter@_W@__crt_stdio_output@@V?$format_validation_base@_WV?$string_output_adapter@_W@__crt_stdio_output@@@2@@__crt_stdio_output@@AEAA_NI_N@Z 000000018003756c     libucrt:output.obj
 0004:00001578       $pdata$?type_case_n@?$output_processor@_WV?$string_output_adapter@_W@__crt_stdio_output@@V?$format_validation_base@_WV?$string_output_adapter@_W@__crt_stdio_output@@@2@@__crt_stdio_output@@AEAA_NXZ 0000000180037578     libucrt:output.obj
 0004:00001584       $pdata$?write_stored_string_tchar@?$output_processor@_WV?$string_output_adapter@_W@__crt_stdio_output@@V?$format_validation_base@_WV?$string_output_adapter@_W@__crt_stdio_output@@@2@@__crt_stdio_output@@AEAA_N_W@Z 0000000180037584     libucrt:output.obj
 0004:00001590       $pdata$??$type_case_integer_parse_into_buffer@_K@?$output_processor@_WV?$string_output_adapter@_W@__crt_stdio_output@@V?$format_validation_base@_WV?$string_output_adapter@_W@__crt_stdio_output@@@2@@__crt_stdio_output@@AEAAX_KI_N@Z 0000000180037590     libucrt:output.obj
 0004:0000159c       $pdata$??$type_case_integer_parse_into_buffer@I@?$output_processor@_WV?$string_output_adapter@_W@__crt_stdio_output@@V?$format_validation_base@_WV?$string_output_adapter@_W@__crt_stdio_output@@@2@@__crt_stdio_output@@AEAAXII_N@Z 000000018003759c     libucrt:output.obj
 0004:000015a8       $pdata$_seh_filter_exe     00000001800375a8     libucrt:exception_filter.obj
 0004:000015b4       $pdata$?try_cor_exit_process@@YAXI@Z 00000001800375b4     libucrt:exit.obj
 0004:000015c0       $pdata$?exit_or_terminate_process@@YAXI@Z 00000001800375c0     libucrt:exit.obj
 0004:000015cc       $pdata$?common_exit@@YAXHW4_crt_exit_cleanup_mode@@W4_crt_exit_return_mode@@@Z 00000001800375cc     libucrt:exit.obj
 0004:000015d8       $pdata$??R<lambda_6e4b09c48022b2350581041d5f6b0c4c>@@QEBA@XZ 00000001800375d8     libucrt:exit.obj
 0004:000015e4       $pdata$?filt$0@?0???R<lambda_6e4b09c48022b2350581041d5f6b0c4c>@@QEBA@XZ@4HA 00000001800375e4     libucrt:exit.obj
 0004:000015f0       $pdata$??$?RV<lambda_d80eeec6fff315bfe5c115232f3240e3>@@AEAV<lambda_6e4b09c48022b2350581041d5f6b0c4c>@@V<lambda_2358e3775559c9db80273638284d5e45>@@@?$__crt_seh_guarded_call@X@@QEAAX$$QEAV<lambda_d80eeec6fff315bfe5c115232f3240e3>@@AEAV<lambda_6e4b09c48022b2350581041d5f6b0c4c>@@$$QEAV<lambda_2358e3775559c9db80273638284d5e45>@@@Z 00000001800375f0     libucrt:exit.obj
 0004:000015fc       $pdata$?fin$0@?0???$?RV<lambda_0ae27a3a962d80f24befdcbee591983d>@@AEAV<lambda_8d0ee55de4b1038c4002e0adecdf1839>@@V<lambda_dc504788e8f1664fe9b84e20bfb512f2>@@@?$__crt_seh_guarded_call@X@@QEAAX$$QEAV<lambda_0ae27a3a962d80f24befdcbee591983d>@@AEAV<lambda_8d0ee55de4b1038c4002e0adecdf1839>@@$$QEAV<lambda_dc504788e8f1664fe9b84e20bfb512f2>@@@Z@4HA 00000001800375fc     libucrt:per_thread_data.obj
 0004:000015fc       $pdata$?fin$0@?0???$?RV<lambda_2d41944a1d46af3157314b8a01080d33>@@AEAV<lambda_8f455de75cd7d7f24b4096f044d8b9e6>@@V<lambda_aa500f224e6afead328df44964fe2772>@@@?$__crt_seh_guarded_call@X@@QEAAX$$QEAV<lambda_2d41944a1d46af3157314b8a01080d33>@@AEAV<lambda_8f455de75cd7d7f24b4096f044d8b9e6>@@$$QEAV<lambda_aa500f224e6afead328df44964fe2772>@@@Z@4HA 00000001800375fc     libucrt:per_thread_data.obj
 0004:000015fc       $pdata$?fin$0@?0???$?RV<lambda_aa87e3671a710a21b5dc78c0bdf72e11>@@AEAV<lambda_92619d2358a28f41a33ba319515a20b9>@@V<lambda_6992ecaafeb10aed2b74cb1fae11a551>@@@?$__crt_seh_guarded_call@X@@QEAAX$$QEAV<lambda_aa87e3671a710a21b5dc78c0bdf72e11>@@AEAV<lambda_92619d2358a28f41a33ba319515a20b9>@@$$QEAV<lambda_6992ecaafeb10aed2b74cb1fae11a551>@@@Z@4HA 00000001800375fc     libucrt:per_thread_data.obj
 0004:000015fc       $pdata$?fin$0@?0???$?RV<lambda_f2e299630e499de9f9a165e60fcd3db5>@@AEAV<lambda_2ae9d31cdba2644fcbeaf08da7c24588>@@V<lambda_40d01ff24d0e7b3814fdbdcee8eab3c7>@@@?$__crt_seh_guarded_call@X@@QEAAX$$QEAV<lambda_f2e299630e499de9f9a165e60fcd3db5>@@AEAV<lambda_2ae9d31cdba2644fcbeaf08da7c24588>@@$$QEAV<lambda_40d01ff24d0e7b3814fdbdcee8eab3c7>@@@Z@4HA 00000001800375fc     libucrt:per_thread_data.obj
 0004:000015fc       $pdata$?fin$0@?0???$?RV<lambda_efdfa57d1f175319df784efa44bb7b81>@@AEAV<lambda_5f0a4c1567f8adc6734073e5d1e1b35c>@@V<lambda_2e8a7d3640ea6ccb4c2413664c2db6fd>@@@?$__crt_seh_guarded_call@X@@QEAAX$$QEAV<lambda_efdfa57d1f175319df784efa44bb7b81>@@AEAV<lambda_5f0a4c1567f8adc6734073e5d1e1b35c>@@$$QEAV<lambda_2e8a7d3640ea6ccb4c2413664c2db6fd>@@@Z@4HA 00000001800375fc     libucrt:mbctype.obj
 0004:000015fc       $pdata$?fin$0@?0???$?RV<lambda_450d765d439847d4c735a33c368b5fc0>@@AEAV<lambda_44731a7d0e6d81c3e6aa82d741081786>@@V<lambda_601a2a7da3b7a96e9554ac7215c4b07c>@@@?$__crt_seh_guarded_call@P6AXH@Z@@QEAAP6AXH@Z$$QEAV<lambda_450d765d439847d4c735a33c368b5fc0>@@AEAV<lambda_44731a7d0e6d81c3e6aa82d741081786>@@$$QEAV<lambda_601a2a7da3b7a96e9554ac7215c4b07c>@@@Z@4HA 00000001800375fc     libucrt:signal.obj
 0004:000015fc       $pdata$?fin$0@?0???$?RV<lambda_d80eeec6fff315bfe5c115232f3240e3>@@AEAV<lambda_6e4b09c48022b2350581041d5f6b0c4c>@@V<lambda_2358e3775559c9db80273638284d5e45>@@@?$__crt_seh_guarded_call@X@@QEAAX$$QEAV<lambda_d80eeec6fff315bfe5c115232f3240e3>@@AEAV<lambda_6e4b09c48022b2350581041d5f6b0c4c>@@$$QEAV<lambda_2358e3775559c9db80273638284d5e45>@@@Z@4HA 00000001800375fc     libucrt:exit.obj
 0004:000015fc       $pdata$?fin$0@?0???$?RV<lambda_638799b9deba96c50f710eeac98168cd>@@AEAV<lambda_22ebabd17bc4fa466a2aca6d8deb888d>@@V<lambda_a6f7d7db0129f75315ebf26d50c089f1>@@@?$__crt_seh_guarded_call@H@@QEAAH$$QEAV<lambda_638799b9deba96c50f710eeac98168cd>@@AEAV<lambda_22ebabd17bc4fa466a2aca6d8deb888d>@@$$QEAV<lambda_a6f7d7db0129f75315ebf26d50c089f1>@@@Z@4HA 00000001800375fc     libucrt:onexit.obj
 0004:000015fc       $pdata$?fin$0@?0???$?RV<lambda_7777bce6b2f8c936911f934f8298dc43>@@AEAV<lambda_f03950bc5685219e0bcd2087efbe011e>@@V<lambda_3883c3dff614d5e0c5f61bb1ac94921c>@@@?$__crt_seh_guarded_call@H@@QEAAH$$QEAV<lambda_7777bce6b2f8c936911f934f8298dc43>@@AEAV<lambda_f03950bc5685219e0bcd2087efbe011e>@@$$QEAV<lambda_3883c3dff614d5e0c5f61bb1ac94921c>@@@Z@4HA 00000001800375fc     libucrt:onexit.obj
 0004:00001608       $pdata$_configure_narrow_argv 0000000180037608     libucrt:argv_parsing.obj
 0004:00001614       $pdata$__acrt_allocate_buffer_for_argv 0000000180037614     libucrt:argv_parsing.obj
 0004:00001620       $pdata$??$parse_command_line@D@@YAXPEADPEAPEAD0PEA_K2@Z 0000000180037620     libucrt:argv_parsing.obj
 0004:0000162c       $pdata$__dcrt_uninitialize_environments_nolock 000000018003762c     libucrt:environment_initialization.obj
 0004:00001638       $pdata$??$common_initialize_environment_nolock@D@@YAHXZ 0000000180037638     libucrt:environment_initialization.obj
 0004:00001644       $pdata$??$uninitialize_environment_internal@D@@YAXAEAPEAPEAD@Z 0000000180037644     libucrt:environment_initialization.obj
 0004:00001650       $pdata$??$uninitialize_environment_internal@_W@@YAXAEAPEAPEA_W@Z 0000000180037650     libucrt:environment_initialization.obj
 0004:0000165c       $pdata$??$free_environment@D@@YAXQEAPEAD@Z 000000018003765c     libucrt:environment_initialization.obj
 0004:0000165c       $pdata$??$free_environment@_W@@YAXQEAPEA_W@Z 000000018003765c     libucrt:environment_initialization.obj
 0004:00001668       $pdata$??$create_environment@D@@YAQEAPEADQEAD@Z 0000000180037668     libucrt:environment_initialization.obj
 0004:00001674       $pdata$_register_onexit_function 0000000180037674     libucrt:onexit.obj
 0004:00001680       $pdata$_execute_onexit_table 0000000180037680     libucrt:onexit.obj
 0004:0000168c       $pdata$??R<lambda_22ebabd17bc4fa466a2aca6d8deb888d>@@QEBAHXZ 000000018003768c     libucrt:onexit.obj
 0004:00001698       $pdata$??R<lambda_f03950bc5685219e0bcd2087efbe011e>@@QEBAHXZ 0000000180037698     libucrt:onexit.obj
 0004:000016a4       $pdata$??$?RV<lambda_638799b9deba96c50f710eeac98168cd>@@AEAV<lambda_22ebabd17bc4fa466a2aca6d8deb888d>@@V<lambda_a6f7d7db0129f75315ebf26d50c089f1>@@@?$__crt_seh_guarded_call@H@@QEAAH$$QEAV<lambda_638799b9deba96c50f710eeac98168cd>@@AEAV<lambda_22ebabd17bc4fa466a2aca6d8deb888d>@@$$QEAV<lambda_a6f7d7db0129f75315ebf26d50c089f1>@@@Z 00000001800376a4     libucrt:onexit.obj
 0004:000016b0       $pdata$??$?RV<lambda_7777bce6b2f8c936911f934f8298dc43>@@AEAV<lambda_f03950bc5685219e0bcd2087efbe011e>@@V<lambda_3883c3dff614d5e0c5f61bb1ac94921c>@@@?$__crt_seh_guarded_call@H@@QEAAH$$QEAV<lambda_7777bce6b2f8c936911f934f8298dc43>@@AEAV<lambda_f03950bc5685219e0bcd2087efbe011e>@@$$QEAV<lambda_3883c3dff614d5e0c5f61bb1ac94921c>@@@Z 00000001800376b0     libucrt:onexit.obj
 0004:000016bc       $pdata$__acrt_uninitialize 00000001800376bc     libucrt:initialization.obj
 0004:000016c8       $pdata$__acrt_uninitialize_critical 00000001800376c8     libucrt:initialization.obj
 0004:000016d4       $pdata$__acrt_thread_attach 00000001800376d4     libucrt:initialization.obj
 0004:000016e0       $pdata$__acrt_thread_detach 00000001800376e0     libucrt:initialization.obj
 0004:000016ec       $pdata$initialize_c        00000001800376ec     libucrt:initialization.obj
 0004:000016f8       $pdata$uninitialize_environment 00000001800376f8     libucrt:initialization.obj
 0004:00001704       $pdata$initialize_pointers 0000000180037704     libucrt:initialization.obj
 0004:00001710       $pdata$uninitialize_allocated_memory 0000000180037710     libucrt:initialization.obj
 0004:0000171c       $pdata$uninitialize_allocated_io_buffers 000000018003771c     libucrt:initialization.obj
 0004:00001728       $pdata$_initterm           0000000180037728     libucrt:initterm.obj
 0004:00001734       $pdata$_initterm_e         0000000180037734     libucrt:initterm.obj
 0004:00001740       $pdata$_callnewh           0000000180037740     libucrt:new_handler.obj
 0004:0000174c       $pdata$_query_new_handler  000000018003774c     libucrt:new_handler.obj
 0004:00001758       $pdata$_query_new_handler$fin$0 0000000180037758     libucrt:new_handler.obj
 0004:00001764       $pdata$terminate           0000000180037764     libucrt:terminate.obj
 0004:00001770       $pdata$abort               0000000180037770     libucrt:abort.obj
 0004:0000177c       $pdata$strcpy_s            000000018003777c     libucrt:strcpy_s.obj
 0004:00001788       $pdata$??$parse_integer@KV?$c_string_character_source@_W@__crt_strtox@@@__crt_strtox@@YAKQEAU__crt_locale_pointers@@V?$c_string_character_source@_W@0@H_N@Z 0000000180037788     libucrt:atox.obj
 0004:000017a0       $pdata$_free_base          00000001800377a0     libucrt:free_base.obj
 0004:000017ac       $pdata$__acrt_initialize_ptd 00000001800377ac     libucrt:per_thread_data.obj
 0004:000017b8       $pdata$__acrt_uninitialize_ptd 00000001800377b8     libucrt:per_thread_data.obj
 0004:000017c4       $pdata$__acrt_getptd       00000001800377c4     libucrt:per_thread_data.obj
 0004:000017d0       $pdata$__acrt_getptd_head  00000001800377d0     libucrt:per_thread_data.obj
 0004:000017dc       $pdata$__acrt_getptd_noexit 00000001800377dc     libucrt:per_thread_data.obj
 0004:000017e8       $pdata$__acrt_freeptd      00000001800377e8     libucrt:per_thread_data.obj
 0004:000017f4       $pdata$?destroy_fls@@YAXPEAX@Z 00000001800377f4     libucrt:per_thread_data.obj
 0004:00001800       $pdata$?replace_current_thread_locale_nolock@@YAXQEAU__acrt_ptd@@QEAU__crt_locale_data@@@Z 0000000180037800     libucrt:per_thread_data.obj
 0004:0000180c       $pdata$?construct_ptd_array@@YAXQEAU__acrt_ptd@@@Z 000000018003780c     libucrt:per_thread_data.obj
 0004:00001818       $pdata$?destroy_ptd_array@@YAXQEAU__acrt_ptd@@@Z 0000000180037818     libucrt:per_thread_data.obj
 0004:00001824       $pdata$??$?RV<lambda_0ae27a3a962d80f24befdcbee591983d>@@AEAV<lambda_8d0ee55de4b1038c4002e0adecdf1839>@@V<lambda_dc504788e8f1664fe9b84e20bfb512f2>@@@?$__crt_seh_guarded_call@X@@QEAAX$$QEAV<lambda_0ae27a3a962d80f24befdcbee591983d>@@AEAV<lambda_8d0ee55de4b1038c4002e0adecdf1839>@@$$QEAV<lambda_dc504788e8f1664fe9b84e20bfb512f2>@@@Z 0000000180037824     libucrt:per_thread_data.obj
 0004:00001830       $pdata$??$?RV<lambda_aa87e3671a710a21b5dc78c0bdf72e11>@@AEAV<lambda_92619d2358a28f41a33ba319515a20b9>@@V<lambda_6992ecaafeb10aed2b74cb1fae11a551>@@@?$__crt_seh_guarded_call@X@@QEAAX$$QEAV<lambda_aa87e3671a710a21b5dc78c0bdf72e11>@@AEAV<lambda_92619d2358a28f41a33ba319515a20b9>@@$$QEAV<lambda_6992ecaafeb10aed2b74cb1fae11a551>@@@Z 0000000180037830     libucrt:per_thread_data.obj
 0004:0000183c       $pdata$??$?RV<lambda_f2e299630e499de9f9a165e60fcd3db5>@@AEAV<lambda_2ae9d31cdba2644fcbeaf08da7c24588>@@V<lambda_40d01ff24d0e7b3814fdbdcee8eab3c7>@@@?$__crt_seh_guarded_call@X@@QEAAX$$QEAV<lambda_f2e299630e499de9f9a165e60fcd3db5>@@AEAV<lambda_2ae9d31cdba2644fcbeaf08da7c24588>@@$$QEAV<lambda_40d01ff24d0e7b3814fdbdcee8eab3c7>@@@Z 000000018003783c     libucrt:per_thread_data.obj
 0004:00001848       $pdata$??$?RV<lambda_2d41944a1d46af3157314b8a01080d33>@@AEAV<lambda_8f455de75cd7d7f24b4096f044d8b9e6>@@V<lambda_aa500f224e6afead328df44964fe2772>@@@?$__crt_seh_guarded_call@X@@QEAAX$$QEAV<lambda_2d41944a1d46af3157314b8a01080d33>@@AEAV<lambda_8f455de75cd7d7f24b4096f044d8b9e6>@@$$QEAV<lambda_aa500f224e6afead328df44964fe2772>@@@Z 0000000180037848     libucrt:per_thread_data.obj
 0004:00001854       $pdata$_calloc_base        0000000180037854     libucrt:calloc_base.obj
 0004:00001860       $pdata$_malloc_base        0000000180037860     libucrt:malloc_base.obj
 0004:0000186c       $pdata$_msize_base         000000018003786c     libucrt:msize.obj
 0004:00001878       $pdata$_realloc_base       0000000180037878     libucrt:realloc_base.obj
 0004:00001884       $pdata$__acrt_initialize_winapi_thunks 0000000180037884     libucrt:winapi_thunks.obj
 0004:00001890       $pdata$__acrt_uninitialize_winapi_thunks 0000000180037890     libucrt:winapi_thunks.obj
 0004:0000189c       $pdata$__acrt_AreFileApisANSI 000000018003789c     libucrt:winapi_thunks.obj
 0004:000018a8       $pdata$__acrt_FlsAlloc     00000001800378a8     libucrt:winapi_thunks.obj
 0004:000018b4       $pdata$__acrt_FlsFree      00000001800378b4     libucrt:winapi_thunks.obj
 0004:000018c0       $pdata$__acrt_FlsGetValue  00000001800378c0     libucrt:winapi_thunks.obj
 0004:000018cc       $pdata$__acrt_FlsSetValue  00000001800378cc     libucrt:winapi_thunks.obj
 0004:000018d8       $pdata$__acrt_InitializeCriticalSectionEx 00000001800378d8     libucrt:winapi_thunks.obj
 0004:000018e4       $pdata$__acrt_LCMapStringEx 00000001800378e4     libucrt:winapi_thunks.obj
 0004:000018f0       $pdata$__acrt_LocaleNameToLCID 00000001800378f0     libucrt:winapi_thunks.obj
 0004:000018fc       $pdata$__acrt_AppPolicyGetProcessTerminationMethodInternal 00000001800378fc     libucrt:winapi_thunks.obj
 0004:00001908       $pdata$__acrt_SetThreadStackGuarantee 0000000180037908     libucrt:winapi_thunks.obj
 0004:00001914       $pdata$?try_get_function@@YAPEAXW4function_id@?A0x391cf84c@@QEBDQEBW4module_id@2@2@Z 0000000180037914     libucrt:winapi_thunks.obj
 0004:00001920       $pdata$wcstol              0000000180037920     libucrt:strtox.obj
 0004:0000192c       $pdata$_mbtowc_l           000000018003792c     libucrt:mbtowc.obj
 0004:00001938       $pdata$__acrt_update_locale_info 0000000180037938     libucrt:locale_update.obj
 0004:00001944       $pdata$__acrt_update_multibyte_info 0000000180037944     libucrt:locale_update.obj
 0004:00001950       $pdata$__acrt_fp_format    0000000180037950     libucrt:cvt.obj
 0004:0000195c       $pdata$?fp_format_e_internal@@YAHQEAD_KH_NIQEAU_strflt@@2QEAU__crt_locale_pointers@@@Z 000000018003795c     libucrt:cvt.obj
 0004:00001968       $pdata$?fp_format_e@@YAHQEBNQEAD_K12H_NIQEAU__crt_locale_pointers@@W4__acrt_rounding_mode@@@Z 0000000180037968     libucrt:cvt.obj
 0004:00001974       $pdata$?should_round_up@@YA_NQEBN_KFW4__acrt_rounding_mode@@@Z 0000000180037974     libucrt:cvt.obj
 0004:00001980       $pdata$?fp_format_a@@YAHQEBNPEAD_KQEAD2H_NIQEAU__crt_locale_pointers@@W4__acrt_rounding_mode@@@Z 0000000180037980     libucrt:cvt.obj
 0004:0000198c       $pdata$?fp_format_f_internal@@YAHQEAD_KHQEAU_strflt@@_NQEAU__crt_locale_pointers@@@Z 000000018003798c     libucrt:cvt.obj
 0004:00001998       $pdata$?fp_format_g@@YAHQEBNQEAD_K12H_NIQEAU__crt_locale_pointers@@@Z 0000000180037998     libucrt:cvt.obj
 0004:000019a4       $pdata$_fileno             00000001800379a4     libucrt:fileno.obj
 0004:000019b0       $pdata$__acrt_initialize_stdio 00000001800379b0     libucrt:_file.obj
 0004:000019bc       $pdata$__acrt_uninitialize_stdio 00000001800379bc     libucrt:_file.obj
 0004:000019c8       $pdata$__acrt_uninitialize_locale 00000001800379c8     libucrt:wsetlocale.obj
 0004:000019d4       $pdata$??$?RV<lambda_410d79af7f07d98d83a3f525b3859a53>@@AEAV<lambda_3e16ef9562a7dcce91392c22ab16ea36>@@V<lambda_38119f0e861e05405d8a144b9b982f0a>@@@?$__crt_seh_guarded_call@X@@QEAAX$$QEAV<lambda_410d79af7f07d98d83a3f525b3859a53>@@AEAV<lambda_3e16ef9562a7dcce91392c22ab16ea36>@@$$QEAV<lambda_38119f0e861e05405d8a144b9b982f0a>@@@Z 00000001800379d4     libucrt:wsetlocale.obj
 0004:000019e0       $pdata$?fin$0@?0???$?RV<lambda_410d79af7f07d98d83a3f525b3859a53>@@AEAV<lambda_3e16ef9562a7dcce91392c22ab16ea36>@@V<lambda_38119f0e861e05405d8a144b9b982f0a>@@@?$__crt_seh_guarded_call@X@@QEAAX$$QEAV<lambda_410d79af7f07d98d83a3f525b3859a53>@@AEAV<lambda_3e16ef9562a7dcce91392c22ab16ea36>@@$$QEAV<lambda_38119f0e861e05405d8a144b9b982f0a>@@@Z@4HA 00000001800379e0     libucrt:wsetlocale.obj
 0004:000019ec       $pdata$__acrt_initialize_lowio 00000001800379ec     libucrt:ioinit.obj
 0004:000019f8       $pdata$__acrt_initialize_lowio$fin$0 00000001800379f8     libucrt:ioinit.obj
 0004:000019f8       $pdata$__acrt_lowio_ensure_fh_exists$fin$0 00000001800379f8     libucrt:osfinfo.obj
 0004:00001a04       $pdata$__acrt_uninitialize_lowio 0000000180037a04     libucrt:ioinit.obj
 0004:00001a10       $pdata$?initialize_inherited_file_handles_nolock@@YAXXZ 0000000180037a10     libucrt:ioinit.obj
 0004:00001a1c       $pdata$?initialize_stdio_handles_nolock@@YAXXZ 0000000180037a1c     libucrt:ioinit.obj
 0004:00001a28       $pdata$__acrt_initialize_locks 0000000180037a28     libucrt:locks.obj
 0004:00001a34       $pdata$__acrt_uninitialize_locks 0000000180037a34     libucrt:locks.obj
 0004:00001a40       $pdata$__acrt_get_process_end_policy 0000000180037a40     libucrt:win_policies.obj
 0004:00001a4c       $pdata$??$__acrt_mbs_to_wcs_cp@U__crt_win32_buffer_internal_dynamic_resizing@@@@YAHQEBDAEAV?$__crt_win32_buffer@_WU__crt_win32_buffer_internal_dynamic_resizing@@@@I@Z 0000000180037a4c     libucrt:argv_wildcards.obj
 0004:00001a58       $pdata$??$__acrt_wcs_to_mbs_cp@U__crt_win32_buffer_internal_dynamic_resizing@@@@YAHQEB_WAEAV?$__crt_win32_buffer@DU__crt_win32_buffer_internal_dynamic_resizing@@@@I@Z 0000000180037a58     libucrt:argv_wildcards.obj
 0004:00001a64       $pdata$??$common_expand_argv_wildcards@D@@YAHQEAPEADQEAPEAPEAD@Z 0000000180037a64     libucrt:argv_wildcards.obj
 0004:00001a70       $pdata$??$copy_and_add_argument_to_buffer@D@@YAHQEBD0_KAEAV?$argument_list@D@?A0x5f5c8891@@@Z 0000000180037a70     libucrt:argv_wildcards.obj
 0004:00001a7c       $pdata$??$expand_argument_wildcards@D@@YAHQEAD0AEAV?$argument_list@D@?A0x5f5c8891@@@Z 0000000180037a7c     libucrt:argv_wildcards.obj
 0004:00001a88       $pdata$__acrt_GetModuleFileNameA 0000000180037a88     libucrt:getmodulefilenamea.obj
 0004:00001a94       $pdata$??$__acrt_wcs_to_mbs_cp@U__crt_win32_buffer_no_resizing@@@@YAHQEB_WAEAV?$__crt_win32_buffer@DU__crt_win32_buffer_no_resizing@@@@I@Z 0000000180037a94     libucrt:getmodulefilenamea.obj
 0004:00001aa0       $pdata$__acrt_update_thread_multibyte_data 0000000180037aa0     libucrt:mbctype.obj
 0004:00001aac       $pdata$__acrt_initialize_multibyte 0000000180037aac     libucrt:mbctype.obj
 0004:00001ab8       $pdata$_setmbcp_nolock     0000000180037ab8     libucrt:mbctype.obj
 0004:00001ac4       $pdata$?getSystemCP@@YAHH@Z 0000000180037ac4     libucrt:mbctype.obj
 0004:00001ad0       $pdata$?setSBCS@@YAXPEAU__crt_multibyte_data@@@Z 0000000180037ad0     libucrt:mbctype.obj
 0004:00001adc       $pdata$?update_thread_multibyte_data_internal@@YAPEAU__crt_multibyte_data@@QEAU__acrt_ptd@@QEAPEAU1@@Z 0000000180037adc     libucrt:mbctype.obj
 0004:00001ae8       $pdata$?fin$0@?0??update_thread_multibyte_data_internal@@YAPEAU__crt_multibyte_data@@QEAU__acrt_ptd@@QEAPEAU1@@Z@4HA 0000000180037ae8     libucrt:mbctype.obj
 0004:00001af4       $pdata$?setmbcp_internal@@YAHH_NQEAU__acrt_ptd@@QEAPEAU__crt_multibyte_data@@@Z 0000000180037af4     libucrt:mbctype.obj
 0004:00001b00       $pdata$?setSBUpLow@@YAXPEAU__crt_multibyte_data@@@Z 0000000180037b00     libucrt:mbctype.obj
 0004:00001b0c       $pdata$??$?RV<lambda_efdfa57d1f175319df784efa44bb7b81>@@AEAV<lambda_5f0a4c1567f8adc6734073e5d1e1b35c>@@V<lambda_2e8a7d3640ea6ccb4c2413664c2db6fd>@@@?$__crt_seh_guarded_call@X@@QEAAX$$QEAV<lambda_efdfa57d1f175319df784efa44bb7b81>@@AEAV<lambda_5f0a4c1567f8adc6734073e5d1e1b35c>@@$$QEAV<lambda_2e8a7d3640ea6ccb4c2413664c2db6fd>@@@Z 0000000180037b0c     libucrt:mbctype.obj
 0004:00001b18       $pdata$?x_ismbbtype_l@@YAHPEAU__crt_locale_pointers@@IHH@Z 0000000180037b18     libucrt:ismbbyte.obj
 0004:00001b24       $pdata$__acrt_initialize_command_line 0000000180037b24     libucrt:argv_data.obj
 0004:00001b30       $pdata$__acrt_WideCharToMultiByte 0000000180037b30     libucrt:widechartomultibyte.obj
 0004:00001b3c       $pdata$__dcrt_get_narrow_environment_from_os 0000000180037b3c     libucrt:get_environment_from_os.obj
 0004:00001b48       $pdata$__acrt_initialize_heap 0000000180037b48     libucrt:heap_handle.obj
 0004:00001b54       $pdata$__acrt_execute_initializers 0000000180037b54     libucrt:shared_initialization.obj
 0004:00001b60       $pdata$__acrt_execute_uninitializers 0000000180037b60     libucrt:shared_initialization.obj
 0004:00001b6c       $pdata$__acrt_get_sigabrt_handler 0000000180037b6c     libucrt:signal.obj
 0004:00001b78       $pdata$raise               0000000180037b78     libucrt:signal.obj
 0004:00001b84       $pdata$raise$fin$0         0000000180037b84     libucrt:signal.obj
 0004:00001b90       $pdata$??$?RV<lambda_450d765d439847d4c735a33c368b5fc0>@@AEAV<lambda_44731a7d0e6d81c3e6aa82d741081786>@@V<lambda_601a2a7da3b7a96e9554ac7215c4b07c>@@@?$__crt_seh_guarded_call@P6AXH@Z@@QEAAP6AXH@Z$$QEAV<lambda_450d765d439847d4c735a33c368b5fc0>@@AEAV<lambda_44731a7d0e6d81c3e6aa82d741081786>@@$$QEAV<lambda_601a2a7da3b7a96e9554ac7215c4b07c>@@@Z 0000000180037b90     libucrt:signal.obj
 0004:00001b9c       $pdata$_fflush_nolock      0000000180037b9c     libucrt:fflush.obj
 0004:00001ba8       $pdata$__acrt_stdio_flush_nolock 0000000180037ba8     libucrt:fflush.obj
 0004:00001bb4       $pdata$?common_flush_all@@YAH_N@Z 0000000180037bb4     libucrt:fflush.obj
 0004:00001bc0       $pdata$??$?RV<lambda_842d9ff0dc9ef11c61343bbaebe7f885>@@AEAV<lambda_c5860995281e5c4ce005b3de8f5874ee>@@V<lambda_d90129c13df834fdcbf8d2b88dafcf2d>@@@?$__crt_seh_guarded_call@X@@QEAAX$$QEAV<lambda_842d9ff0dc9ef11c61343bbaebe7f885>@@AEAV<lambda_c5860995281e5c4ce005b3de8f5874ee>@@$$QEAV<lambda_d90129c13df834fdcbf8d2b88dafcf2d>@@@Z 0000000180037bc0     libucrt:fflush.obj
 0004:00001bcc       $pdata$?fin$0@?0???$?RV<lambda_842d9ff0dc9ef11c61343bbaebe7f885>@@AEAV<lambda_c5860995281e5c4ce005b3de8f5874ee>@@V<lambda_d90129c13df834fdcbf8d2b88dafcf2d>@@@?$__crt_seh_guarded_call@X@@QEAAX$$QEAV<lambda_842d9ff0dc9ef11c61343bbaebe7f885>@@AEAV<lambda_c5860995281e5c4ce005b3de8f5874ee>@@$$QEAV<lambda_d90129c13df834fdcbf8d2b88dafcf2d>@@@Z@4HA 0000000180037bcc     libucrt:fflush.obj
 0004:00001bd8       $pdata$??$?RV<lambda_886d6c58226a84441f68b9f2b8217b83>@@AEAV<lambda_ab61a845afdef5b7c387490eaf3616ee>@@V<lambda_f7f22ab5edc0698d5f6905b0d3f44752>@@@?$__crt_seh_guarded_call@X@@QEAAX$$QEAV<lambda_886d6c58226a84441f68b9f2b8217b83>@@AEAV<lambda_ab61a845afdef5b7c387490eaf3616ee>@@$$QEAV<lambda_f7f22ab5edc0698d5f6905b0d3f44752>@@@Z 0000000180037bd8     libucrt:fflush.obj
 0004:00001be4       $pdata$?fin$0@?0???$?RV<lambda_886d6c58226a84441f68b9f2b8217b83>@@AEAV<lambda_ab61a845afdef5b7c387490eaf3616ee>@@V<lambda_f7f22ab5edc0698d5f6905b0d3f44752>@@@?$__crt_seh_guarded_call@X@@QEAAX$$QEAV<lambda_886d6c58226a84441f68b9f2b8217b83>@@AEAV<lambda_ab61a845afdef5b7c387490eaf3616ee>@@$$QEAV<lambda_f7f22ab5edc0698d5f6905b0d3f44752>@@@Z@4HA 0000000180037be4     libucrt:fflush.obj
 0004:00001bf0       $pdata$__pctype_func       0000000180037bf0     libucrt:ctype.obj
 0004:00001bfc       $pdata$iswctype            0000000180037bfc     libucrt:iswctype.obj
 0004:00001c08       $pdata$__acrt_release_locale_ref 0000000180037c08     libucrt:locale_refcounting.obj
 0004:00001c14       $pdata$__acrt_free_locale  0000000180037c14     libucrt:locale_refcounting.obj
 0004:00001c20       $pdata$__acrt_locale_free_lc_time_if_unreferenced 0000000180037c20     libucrt:locale_refcounting.obj
 0004:00001c2c       $pdata$__acrt_update_thread_locale_data 0000000180037c2c     libucrt:locale_refcounting.obj
 0004:00001c38       $pdata$__acrt_update_thread_locale_data$fin$0 0000000180037c38     libucrt:locale_refcounting.obj
 0004:00001c44       $pdata$_updatetlocinfoEx_nolock 0000000180037c44     libucrt:locale_refcounting.obj
 0004:00001c50       $pdata$__acrt_DownlevelLocaleNameToLCID 0000000180037c50     libucrt:lcidtoname_downlevel.obj
 0004:00001c5c       $pdata$_isleadbyte_l       0000000180037c5c     libucrt:_wctype.obj
 0004:00001c68       $pdata$?__mbrtowc_utf8@__crt_mbstring@@YA_KPEA_WPEBD_KPEAU_Mbstatet@@@Z 0000000180037c68     libucrt:mbrtowc.obj
 0004:00001c74       $pdata$?__mbsrtowcs_utf8@__crt_mbstring@@YA_KPEA_WPEAPEBD_KPEAU_Mbstatet@@@Z 0000000180037c74     libucrt:mbrtowc.obj
 0004:00001c80       $pdata$__acrt_fp_strflt_to_string 0000000180037c80     libucrt:_fptostr.obj
 0004:00001c8c       $pdata$memcpy_s            0000000180037c8c     libucrt:cfout.obj
 0004:00001c98       $pdata$__acrt_fltout       0000000180037c98     libucrt:cfout.obj
 0004:00001ca4       $pdata$?divide@__crt_strtox@@YA_KAEAUbig_integer@1@AEBU21@@Z 0000000180037ca4     libucrt:cfout.obj
 0004:00001cb0       $pdata$0$?divide@__crt_strtox@@YA_KAEAUbig_integer@1@AEBU21@@Z 0000000180037cb0     libucrt:cfout.obj
 0004:00001cbc       $pdata$1$?divide@__crt_strtox@@YA_KAEAUbig_integer@1@AEBU21@@Z 0000000180037cbc     libucrt:cfout.obj
 0004:00001cc8       $pdata$fegetround          0000000180037cc8     libucrt:fegetround.obj
 0004:00001cd4       $pdata$_fcloseall          0000000180037cd4     libucrt:closeall.obj
 0004:00001ce0       $pdata$_fcloseall$fin$0    0000000180037ce0     libucrt:closeall.obj
 0004:00001cec       $pdata$__acrt_stdio_free_buffer_nolock 0000000180037cec     libucrt:_freebuf.obj
 0004:00001cf8       $pdata$_isatty             0000000180037cf8     libucrt:isatty.obj
 0004:00001d04       $pdata$__acrt_locale_free_monetary 0000000180037d04     libucrt:initmon.obj
 0004:00001d10       $pdata$__acrt_locale_free_numeric 0000000180037d10     libucrt:initnum.obj
 0004:00001d1c       $pdata$__acrt_locale_free_time 0000000180037d1c     libucrt:inittime.obj
 0004:00001d28       $pdata$?free_crt_array_internal@@YAXQEAPEBX_K@Z 0000000180037d28     libucrt:inittime.obj
 0004:00001d34       $pdata$__acrt_GetStringTypeA 0000000180037d34     libucrt:getstringtypea.obj
 0004:00001d40       $pdata$_get_osfhandle      0000000180037d40     libucrt:osfinfo.obj
 0004:00001d4c       $pdata$_free_osfhnd        0000000180037d4c     libucrt:osfinfo.obj
 0004:00001d58       $pdata$__acrt_lowio_create_handle_array 0000000180037d58     libucrt:osfinfo.obj
 0004:00001d64       $pdata$__acrt_lowio_destroy_handle_array 0000000180037d64     libucrt:osfinfo.obj
 0004:00001d70       $pdata$__acrt_lowio_ensure_fh_exists 0000000180037d70     libucrt:osfinfo.obj
 0004:00001d7c       $pdata$qsort               0000000180037d7c     libucrt:qsort.obj
 0004:00001d88       $pdata$4$qsort             0000000180037d88     libucrt:qsort.obj
 0004:00001d94       $pdata$5$qsort             0000000180037d94     libucrt:qsort.obj
 0004:00001da0       $pdata$strncpy_s           0000000180037da0     libucrt:strncpy_s.obj
 0004:00001dac       $pdata$strpbrk             0000000180037dac     libucrt:strpbrk.obj
 0004:00001db8       $pdata$fallbackMethod      0000000180037db8     libucrt:strpbrk.obj
 0004:00001dc4       $pdata$_mbsdec_l           0000000180037dc4     libucrt:mbsdec.obj
 0004:00001dd0       $pdata$__acrt_LCMapStringA 0000000180037dd0     libucrt:lcmapstringa.obj
 0004:00001ddc       $pdata$?__acrt_LCMapStringA_stat@@YAHPEAU__crt_locale_pointers@@PEB_WKPEBDHPEADHHH@Z 0000000180037ddc     libucrt:lcmapstringa.obj
 0004:00001de8       $pdata$?initialize_multibyte@@YAHXZ 0000000180037de8     libucrt:multibyte_initializer.obj
 0004:00001df4       $pdata$_commit             0000000180037df4     libucrt:commit.obj
 0004:00001e00       $pdata$??$?RV<lambda_a37b2b86f63e897a80ea819b0eb08c01>@@AEAV<lambda_38ce7e780aa69e748d6df282ebc68efe>@@V<lambda_99fb1378e971ab6e7edea83e3a7a83a2>@@@?$__crt_seh_guarded_call@H@@QEAAH$$QEAV<lambda_a37b2b86f63e897a80ea819b0eb08c01>@@AEAV<lambda_38ce7e780aa69e748d6df282ebc68efe>@@$$QEAV<lambda_99fb1378e971ab6e7edea83e3a7a83a2>@@@Z 0000000180037e00     libucrt:commit.obj
 0004:00001e0c       $pdata$?fin$0@?0???$?RV<lambda_751a882b2c74d4b022dec766aa51a29a>@@AEAV<lambda_628dfdc04ba53c8bfc02c9951375f3f5>@@V<lambda_f6c7be5f7998530c34de24c7437d6b54>@@@?$__crt_seh_guarded_call@H@@QEAAH$$QEAV<lambda_751a882b2c74d4b022dec766aa51a29a>@@AEAV<lambda_628dfdc04ba53c8bfc02c9951375f3f5>@@$$QEAV<lambda_f6c7be5f7998530c34de24c7437d6b54>@@@Z@4HA 0000000180037e0c     libucrt:close.obj
 0004:00001e0c       $pdata$?fin$0@?0???$?RV<lambda_a37b2b86f63e897a80ea819b0eb08c01>@@AEAV<lambda_38ce7e780aa69e748d6df282ebc68efe>@@V<lambda_99fb1378e971ab6e7edea83e3a7a83a2>@@@?$__crt_seh_guarded_call@H@@QEAAH$$QEAV<lambda_a37b2b86f63e897a80ea819b0eb08c01>@@AEAV<lambda_38ce7e780aa69e748d6df282ebc68efe>@@$$QEAV<lambda_99fb1378e971ab6e7edea83e3a7a83a2>@@@Z@4HA 0000000180037e0c     libucrt:commit.obj
 0004:00001e18       $pdata$_write              0000000180037e18     libucrt:write.obj
 0004:00001e24       $pdata$_write$fin$0        0000000180037e24     libucrt:write.obj
 0004:00001e30       $pdata$_write_nolock       0000000180037e30     libucrt:write.obj
 0004:00001e3c       $pdata$?write_double_translated_ansi_nolock@@YA?AUwrite_result@?A0x17268360@@HQEBDI@Z 0000000180037e3c     libucrt:write.obj
 0004:00001e48       $pdata$?write_text_ansi_nolock@@YA?AUwrite_result@?A0x17268360@@HQEBDI@Z 0000000180037e48     libucrt:write.obj
 0004:00001e54       $pdata$?write_text_utf16le_nolock@@YA?AUwrite_result@?A0x17268360@@HQEBDI@Z 0000000180037e54     libucrt:write.obj
 0004:00001e60       $pdata$?write_text_utf8_nolock@@YA?AUwrite_result@?A0x17268360@@HQEBDI@Z 0000000180037e60     libucrt:write.obj
 0004:00001e6c       $pdata$?__mbrtoc32_utf8@__crt_mbstring@@YA_KPEA_UPEBD_KPEAU_Mbstatet@@@Z 0000000180037e6c     libucrt:mbrtoc32.obj
 0004:00001e78       $pdata$_controlfp_s        0000000180037e78     libucrt:contrlfp.obj
 0004:00001e84       $pdata$fegetenv            0000000180037e84     libucrt:fegetenv.obj
 0004:00001e90       $pdata$fesetenv            0000000180037e90     libucrt:fesetenv.obj
 0004:00001e9c       $pdata$feholdexcept        0000000180037e9c     libucrt:feholdexcept.obj
 0004:00001eb4       $pdata$__acrt_fenv_set_control 0000000180037eb4     libucrt:_fenvutils.obj
 0004:00001ec0       $pdata$??$common_lseek_nolock@_J@@YA_JH_JH@Z 0000000180037ec0     libucrt:lseek.obj
 0004:00001ecc       $pdata$fclose              0000000180037ecc     libucrt:fclose.obj
 0004:00001ed8       $pdata$fclose$fin$0        0000000180037ed8     libucrt:fclose.obj
 0004:00001ee4       $pdata$_fclose_nolock      0000000180037ee4     libucrt:fclose.obj
 0004:00001ef0       $pdata$_putwch_nolock      0000000180037ef0     libucrt:putwch.obj
 0004:00001efc       $pdata$_clearfp            0000000180037efc     libucrt:ieee.obj
 0004:00001f08       $pdata$common_control87    0000000180037f08     libucrt:ieee.obj
 0004:00001f14       $pdata$_ctrlfp$filt$0      0000000180037f14     libucrt:fpctrl.obj
 0004:00001f14       $pdata$common_control87$filt$0 0000000180037f14     libucrt:ieee.obj
 0004:00001f20       $pdata$_call_matherr       0000000180037f20     libucrt:libm_error.obj
 0004:00001f2c       $pdata$_exception_enabled  0000000180037f2c     libucrt:libm_error.obj
 0004:00001f38       $pdata$_handle_error       0000000180037f38     libucrt:libm_error.obj
 0004:00001f44       $pdata$__acrt_initialize_fma3 0000000180037f44     libucrt:fma3_available.obj
 0004:00001f50       $pdata$_log_special_common 0000000180037f50     libucrt:log_special.obj
 0004:00001f5c       $pdata$_log10_special      0000000180037f5c     libucrt:log_special.obj
 0004:00001f68       $pdata$_close              0000000180037f68     libucrt:close.obj
 0004:00001f74       $pdata$_close_nolock       0000000180037f74     libucrt:close.obj
 0004:00001f80       $pdata$??$?RV<lambda_751a882b2c74d4b022dec766aa51a29a>@@AEAV<lambda_628dfdc04ba53c8bfc02c9951375f3f5>@@V<lambda_f6c7be5f7998530c34de24c7437d6b54>@@@?$__crt_seh_guarded_call@H@@QEAAH$$QEAV<lambda_751a882b2c74d4b022dec766aa51a29a>@@AEAV<lambda_628dfdc04ba53c8bfc02c9951375f3f5>@@$$QEAV<lambda_f6c7be5f7998530c34de24c7437d6b54>@@@Z 0000000180037f80     libucrt:close.obj
 0004:00001f8c       $pdata$__dcrt_lowio_ensure_console_output_initialized 0000000180037f8c     libucrt:initcon.obj
 0004:00001f98       $pdata$__dcrt_write_console 0000000180037f98     libucrt:initcon.obj
 0004:00001fa4       $pdata$__dcrt_terminate_console_output 0000000180037fa4     libucrt:initcon.obj
 0004:00001fbc       $pdata$_set_errno_from_matherr 0000000180037fbc     libucrt:fpexcept.obj
 0004:00001fc8       $pdata$_raise_exc          0000000180037fc8     libucrt:fpexcept.obj
 0004:00001fd4       $pdata$_raise_exc_ex       0000000180037fd4     libucrt:fpexcept.obj
 0004:00001fe0       $pdata$_clrfp              0000000180037fe0     libucrt:fpctrl.obj
 0004:00001fec       $pdata$_ctrlfp             0000000180037fec     libucrt:fpctrl.obj
 0004:00001ff8       $pdata$_statfp             0000000180037ff8     libucrt:fpctrl.obj
 0004:00002004       $pdata$_set_statfp         0000000180038004     libucrt:fpctrl.obj
 0004:00002010       $pdata$_IsNonwritableInCurrentImage 0000000180038010     LIBCMT:pesect.obj
 0004:0000201c       $pdata$_IsNonwritableInCurrentImage$filt$0 000000018003801c     LIBCMT:pesect.obj
 0005:00000000       MoveSmall                  0000000180039000     libvcruntime:memcpy.obj
 0005:00000050       MsetTab                    0000000180039050     libvcruntime:memset.obj
 0006:00000220       $R000000                   000000018003a220     ElectronicJournal.res
 0006:00000be0       $R0009C0                   000000018003abe0     ElectronicJournal.res
 0006:00000cc8       $R000AA8                   000000018003acc8     ElectronicJournal.res
 0006:00000f30       $R000D10                   000000018003af30     ElectronicJournal.res
 0006:00001470       $R001250                   000000018003b470     ElectronicJournal.res
 0006:00005140       $R004F20                   000000018003f140     ElectronicJournal.res
 0006:00005188       $R004F68                   000000018003f188     ElectronicJournal.res
