 OPOSImageScanner

 Timestamp is 5b863d91 (Wed Aug 29 15:30:41 2018)

 Preferred load address is 0000000180000000

 Start         Length     Name                   Class
 0001:00000000 000000c0H .text$di                CODE
 0001:000000c0 0001f830H .text$mn                CODE
 0001:0001f8f0 00000020H .text$mn$00             CODE
 0001:0001f910 00000400H .text$x                 CODE
 0001:0001fd10 000000c0H .text$yd                CODE
 0002:00000000 00000618H .idata$5                DATA
 0002:00000618 00000010H .00cfg                  DATA
 0002:00000628 00000008H .CRT$XCA                DATA
 0002:00000630 00000008H .CRT$XCL                DATA
 0002:00000638 00000020H .CRT$XCU                DATA
 0002:00000658 00000008H .CRT$XCZ                DATA
 0002:00000660 00000008H .CRT$XIA                DATA
 0002:00000668 00000020H .CRT$XIC                DATA
 0002:00000688 00000008H .CRT$XIZ                DATA
 0002:00000690 00000008H .CRT$XLA                DATA
 0002:00000698 00000008H .CRT$XLZ                DATA
 0002:000006a0 00000008H .CRT$XPA                DATA
 0002:000006a8 00000010H .CRT$XPX                DATA
 0002:000006b8 00000008H .CRT$XPXA               DATA
 0002:000006c0 00000008H .CRT$XPZ                DATA
 0002:000006c8 00000008H .CRT$XTA                DATA
 0002:000006d0 00000010H .CRT$XTZ                DATA
 0002:000006d8 00000000H .gfids$y                DATA
 0002:000006e0 0000a140H .rdata                  DATA
 0002:0000a820 00000028H .rdata$T                DATA
 0002:0000a848 00000274H .rdata$r                DATA
 0002:0000aabc 000003fcH .rdata$zzzdbg           DATA
 0002:0000aeb8 00000008H .rtc$IAA                DATA
 0002:0000aec0 00000008H .rtc$IZZ                DATA
 0002:0000aec8 00000008H .rtc$TAA                DATA
 0002:0000aed0 00000008H .rtc$TZZ                DATA
 0002:0000aed8 00000004H .tls                    DATA
 0002:0000aedc 00000004H .tls$                   DATA
 0002:0000aee0 00000008H .tls$ZZZ                DATA
 0002:0000aee8 00001698H .xdata                  DATA
 0002:0000c580 00000150H .xdata$x                DATA
 0002:0000c6d0 00000008H ATL$__a                 DATA
 0002:0000c6d8 00000008H ATL$__z                 DATA
 0002:0000c6e0 000000b0H .edata                  DATA
 0002:0000c790 00000078H .idata$2                DATA
 0002:0000c808 00000018H .idata$3                DATA
 0002:0000c820 00000618H .idata$4                DATA
 0002:0000ce38 00000c1cH .idata$6                DATA
 0003:00000000 00000c58H .data                   DATA
 0003:00000c58 000000c8H .data$r                 DATA
 0003:00000d20 000013fcH .bss                    DATA
 0004:00000000 00001efcH .pdata                  DATA
 0005:00000000 00000220H .rsrc$01                DATA
 0005:00000220 00004350H .rsrc$02                DATA

  Address         Publics by Value              Rva+Base               Lib:Object

 0000:00000000       __hybrid_code_map_count    0000000000000000     <absolute>
 0000:00000000       __hybrid_code_map          0000000000000000     <absolute>
 0000:00000000       __guard_longjmp_count      0000000000000000     <absolute>
 0000:00000000       __guard_iat_count          0000000000000000     <absolute>
 0000:00000000       __guard_longjmp_table      0000000000000000     <absolute>
 0000:00000000       __volatile_metadata        0000000000000000     <absolute>
 0000:00000000       __guard_iat_table          0000000000000000     <absolute>
 0000:00000000       __guard_fids_count         0000000000000000     <absolute>
 0000:00000000       __enclave_config           0000000000000000     <absolute>
 0000:00000000       ___safe_se_handler_count   0000000000000000     <absolute>
 0000:00000000       ___safe_se_handler_table   0000000000000000     <absolute>
 0000:00000000       __guard_fids_table         0000000000000000     <absolute>
 0000:00000000       __hybrid_auxiliary_iat     0000000000000000     <absolute>
 0000:00000000       __dynamic_value_reloc_table 0000000000000000     <absolute>
 0000:00000100       __guard_flags              0000000000000100     <absolute>
 0000:00000000       __ImageBase                0000000180000000     <linker-defined>
 0001:000000c0       ?DupWide@_CW@@AEAAXXZ      00000001800010c0 f   CWString.obj
 0001:000000e8       ?cw_dup@@YAXPEBDAEAHAEAPEA_W1@Z 00000001800010e8 f   CWString.obj
 0001:00000194       ?cw_memcpy@@YAHPEA_WPEBDH@Z 0000000180001194 f   CWString.obj
 0001:000001e0       ?cw_strcpy@@YAHPEA_WPEBD@Z 00000001800011e0 f   CWString.obj
 0001:000001f4       ??0CAtlComModule@ATL@@QEAA@XZ 00000001800011f4 f i OposVariant.obj
 0001:0000027c       ??0CAtlWinModule@ATL@@QEAA@XZ 000000018000127c f i OposVariant.obj
 0001:000002f0       ??0OposDispParms@@QEAA@PEAVOposVariant@@H@Z 00000001800012f0 f   OposVariant.obj
 0001:00000398       ??1OposDispParms@@QEAA@XZ  0000000180001398 f   OposVariant.obj
 0001:000003b0       ??_Estringdispid@CComTypeInfoHolder@ATL@@QEAAPEAXI@Z 00000001800013b0 f i OposVariant.obj
 0001:00000454       ?AtlWinModuleTerm@ATL@@YAJPEAU_ATL_WIN_MODULE70@1@PEAUHINSTANCE__@@@Z 0000000180001454 f i OposVariant.obj
 0001:00000504       ?ChangeBSTR@OposVariant@@QEAAXPEAPEA_WAEAJ@Z 0000000180001504 f   OposVariant.obj
 0001:00000564       ?ChangeLONG@OposVariant@@QEAAXPEAJAEAJ@Z 0000000180001564 f   OposVariant.obj
 0001:000005c0       ?GetLONG@OposVariant@@QEAAJXZ 00000001800015c0 f   OposVariant.obj
 0001:000005e4       ?SetBSTR@OposVariant@@QEAAXPEA_WAEAJ@Z 00000001800015e4 f   OposVariant.obj
 0001:00000624       ?SetBSTR_Copy@OposVariant@@QEAAXPEA_WAEAJ@Z 0000000180001624 f   OposVariant.obj
 0001:00000694       ?SetBSTR_InOutPtr@OposVariant@@QEAA_NPEAPEA_WAEAJ@Z 0000000180001694 f   OposVariant.obj
 0001:000006e4       ?SetDispatch_Ptr@OposVariant@@QEAAXPEAUIDispatch@@AEAJ@Z 00000001800016e4 f   OposVariant.obj
 0001:0000073c       ?SetLONG@OposVariant@@QEAAXJ@Z 000000018000173c f   OposVariant.obj
 0001:0000076c       ?SetLONG_Ptr@OposVariant@@QEAAXPEAJAEAJ@Z 000000018000176c f   OposVariant.obj
 0001:000007b8       ?SetString@OposVariant@@QEAAXPEB_WAEAJ@Z 00000001800017b8 f   OposVariant.obj
 0001:0000081c       ?SetVARIANT_BOOL@OposVariant@@QEAAXF@Z 000000018000181c f   OposVariant.obj
 0001:00000854       ?Term@CAtlComModule@ATL@@QEAAXXZ 0000000180001854 f i OposVariant.obj
 0001:000008c4       ?_AtlInitializeCriticalSectionEx@ATL@@YAHPEAU_RTL_CRITICAL_SECTION@@KK@Z 00000001800018c4 f i OposVariant.obj
 0001:000008cc       ?_AtlRaiseException@ATL@@YAXKK@Z 00000001800018cc f i OposVariant.obj
 0001:000008dc       ?CreateInstance@?$CComCreator@V?$CComObjectCached@VCComClassFactory@ATL@@@ATL@@@ATL@@SAJPEAXAEBU_GUID@@PEAPEAX@Z 00000001800018dc f i ImageScanner.obj
 0001:000009dc       ?CreateInstance@?$CComCreator2@V?$CComCreator@V?$CComObject@VCOPOSImageScanner@@@ATL@@@ATL@@V?$CComCreator@V?$CComAggObject@VCOPOSImageScanner@@@ATL@@@2@@ATL@@SAJPEAXAEBU_GUID@@PEAPEAX@Z 00000001800019dc f i ImageScanner.obj
 0001:000009ec       ?OnMnemonic@?$IOleControlImpl@VCOPOSImageScanner@@@ATL@@UEAAJPEAUtagMSG@@@Z 00000001800019ec f i ImageScanner.obj
 0001:000009ec       ?QueryGetData@?$IDataObjectImpl@VCOPOSImageScanner@@@ATL@@UEAAJPEAUtagFORMATETC@@@Z 00000001800019ec f i ImageScanner.obj
 0001:000009ec       ?GetMoniker@?$IOleObjectImpl@VCOPOSImageScanner@@@ATL@@UEAAJKKPEAPEAUIMoniker@@@Z 00000001800019ec f i ImageScanner.obj
 0001:000009ec       ?GetDataHere@?$IDataObjectImpl@VCOPOSImageScanner@@@ATL@@UEAAJPEAUtagFORMATETC@@PEAUtagSTGMEDIUM@@@Z 00000001800019ec f i ImageScanner.obj
 0001:000009ec       ?QueryInterface@CRegObject@ATL@@UEAAJAEBU_GUID@@PEAPEAX@Z 00000001800019ec f i ImageScanner.obj
 0001:000009ec       ?EnumFormatEtc@?$IDataObjectImpl@VCOPOSImageScanner@@@ATL@@UEAAJKPEAPEAUIEnumFORMATETC@@@Z 00000001800019ec f i ImageScanner.obj
 0001:000009ec       ?SetData@?$IDataObjectImpl@VCOPOSImageScanner@@@ATL@@UEAAJPEAUtagFORMATETC@@PEAUtagSTGMEDIUM@@H@Z 00000001800019ec f i ImageScanner.obj
 0001:000009ec       ?ReactivateAndUndo@?$IOleInPlaceObjectWindowlessImpl@VCOPOSImageScanner@@@ATL@@UEAAJXZ 00000001800019ec f i ImageScanner.obj
 0001:000009ec       ?SetMoniker@?$IOleObjectImpl@VCOPOSImageScanner@@@ATL@@UEAAJKPEAUIMoniker@@@Z 00000001800019ec f i ImageScanner.obj
 0001:000009ec       ?GetClipboardData@?$IOleObjectImpl@VCOPOSImageScanner@@@ATL@@UEAAJKPEAPEAUIDataObject@@@Z 00000001800019ec f i ImageScanner.obj
 0001:000009ec       ?GetCanonicalFormatEtc@?$IDataObjectImpl@VCOPOSImageScanner@@@ATL@@UEAAJPEAUtagFORMATETC@@0@Z 00000001800019ec f i ImageScanner.obj
 0001:000009ec       ?GetRect@?$IViewObjectExImpl@VCOPOSImageScanner@@@ATL@@UEAAJKPEAU_RECTL@@@Z 00000001800019ec f i ImageScanner.obj
 0001:000009ec       ?Freeze@?$IViewObjectExImpl@VCOPOSImageScanner@@@ATL@@UEAAJKJPEAXPEAK@Z 00000001800019ec f i ImageScanner.obj
 0001:000009ec       ?ContextSensitiveHelp@?$IOleInPlaceActiveObjectImpl@VCOPOSImageScanner@@@ATL@@UEAAJH@Z 00000001800019ec f i ImageScanner.obj
 0001:000009ec       ?SOOutputCompleteDummy@COPOSImageScanner@@MEAAJJ@Z 00000001800019ec f i ImageScanner.obj
 0001:000009ec       ?GetDropTarget@?$IOleInPlaceObjectWindowlessImpl@VCOPOSImageScanner@@@ATL@@UEAAJPEAPEAUIDropTarget@@@Z 00000001800019ec f i ImageScanner.obj
 0001:000009ec       ?SetColorScheme@?$IOleObjectImpl@VCOPOSImageScanner@@@ATL@@UEAAJPEAUtagLOGPALETTE@@@Z 00000001800019ec f i ImageScanner.obj
 0001:000009ec       ?InitFromData@?$IOleObjectImpl@VCOPOSImageScanner@@@ATL@@UEAAJPEAUIDataObject@@HK@Z 00000001800019ec f i ImageScanner.obj
 0001:000009ec       ?Unfreeze@?$IViewObjectExImpl@VCOPOSImageScanner@@@ATL@@UEAAJK@Z 00000001800019ec f i ImageScanner.obj
 0001:000009ec       ?GetColorSet@?$IViewObjectExImpl@VCOPOSImageScanner@@@ATL@@UEAAJKJPEAXPEAUtagDVTARGETDEVICE@@PEAUHDC__@@PEAPEAUtagLOGPALETTE@@@Z 00000001800019ec f i ImageScanner.obj
 0001:000009ec       ?GetControlInfo@?$IOleControlImpl@VCOPOSImageScanner@@@ATL@@UEAAJPEAUtagCONTROLINFO@@@Z 00000001800019ec f i ImageScanner.obj
 0001:000009ec       ?ContextSensitiveHelp@?$IOleInPlaceObjectWindowlessImpl@VCOPOSImageScanner@@@ATL@@UEAAJH@Z 00000001800019ec f i ImageScanner.obj
 0001:000009f4       ?AddRef@CRegObject@ATL@@UEAAKXZ 00000001800019f4 f i ImageScanner.obj
 0001:000009f4       ?FAccessAllowed@?$IObjectSafetyImpl@VCOPOSImageScanner@@$02@ATL@@MEAAHXZ 00000001800019f4 f i ImageScanner.obj
 0001:000009fc       ?EnableModeless@?$IOleInPlaceActiveObjectImpl@VCOPOSImageScanner@@@ATL@@UEAAJH@Z 00000001800019fc f i ImageScanner.obj
 0001:000009fc       ?GetCategoryMap@CComObjectRootBase@ATL@@SAPEBU_ATL_CATMAP_ENTRY@2@XZ 00000001800019fc f i ImageScanner.obj
 0001:000009fc       ?GetObjectDescription@?$CComCoClass@VCOPOSImageScanner@@$1?CLSID_OPOSImageScanner@@3U_GUID@@B@ATL@@SAPEB_WXZ 00000001800019fc f i ImageScanner.obj
 0001:000009fc       ?Update@?$IOleObjectImpl@VCOPOSImageScanner@@@ATL@@UEAAJXZ 00000001800019fc f i ImageScanner.obj
 0001:000009fc       ?ResizeBorder@?$IOleInPlaceActiveObjectImpl@VCOPOSImageScanner@@@ATL@@UEAAJPEBUtagRECT@@PEAUIOleInPlaceUIWindow@@H@Z 00000001800019fc f i ImageScanner.obj
 0001:000009fc       ?SaveCompleted@?$IPersistStorageImpl@VCOPOSImageScanner@@@ATL@@UEAAJPEAUIStorage@@@Z 00000001800019fc f i ImageScanner.obj
 0001:000009fc       ?Release@CRegObject@ATL@@UEAAKXZ 00000001800019fc f i ImageScanner.obj
 0001:000009fc       ?OnFrameWindowActivate@?$IOleInPlaceActiveObjectImpl@VCOPOSImageScanner@@@ATL@@UEAAJH@Z 00000001800019fc f i ImageScanner.obj
 0001:000009fc       ?HandsOffStorage@?$IPersistStorageImpl@VCOPOSImageScanner@@@ATL@@UEAAJXZ 00000001800019fc f i ImageScanner.obj
 0001:000009fc       ?SetHostNames@?$IOleObjectImpl@VCOPOSImageScanner@@@ATL@@UEAAJPEB_W0@Z 00000001800019fc f i ImageScanner.obj
 0001:000009fc       ?IsUpToDate@?$IOleObjectImpl@VCOPOSImageScanner@@@ATL@@UEAAJXZ 00000001800019fc f i ImageScanner.obj
 0001:000009fc       ?OnAmbientPropertyChange@?$IOleControlImpl@VCOPOSImageScanner@@@ATL@@UEAAJJ@Z 00000001800019fc f i ImageScanner.obj
 0001:00000a00       ?AddReplacement@CRegObject@ATL@@UEAAJPEB_W0@Z 0000000180001a00 f i ImageScanner.obj
 0001:00000a30       ?ClearReplacements@CRegObject@ATL@@UEAAJXZ 0000000180001a30 f i ImageScanner.obj
 0001:00000a3c       ??_GCRegObject@ATL@@UEAAPEAXI@Z 0000000180001a3c f i ImageScanner.obj
 0001:00000a3c       ??_ECRegObject@ATL@@UEAAPEAXI@Z 0000000180001a3c f i ImageScanner.obj
 0001:00000abc       ?Next@?$CComEnumImpl@UIEnumConnectionPoints@@$1?_GUID_b196b285_bab4_101a_b69c_00aa00341d07@@3U__s_GUID@@BPEAUIConnectionPoint@@V?$_CopyInterface@UIConnectionPoint@@@ATL@@@ATL@@UEAAJKPEAPEAUIConnectionPoint@@PEAK@Z 0000000180001abc f i ImageScanner.obj
 0001:00000b88       ?Skip@?$CComEnumImpl@UIEnumConnectionPoints@@$1?_GUID_b196b285_bab4_101a_b69c_00aa00341d07@@3U__s_GUID@@BPEAUIConnectionPoint@@V?$_CopyInterface@UIConnectionPoint@@@ATL@@@ATL@@UEAAJK@Z 0000000180001b88 f i ImageScanner.obj
 0001:00000bb4       ?Reset@?$CComEnumImpl@UIEnumConnectionPoints@@$1?_GUID_b196b285_bab4_101a_b69c_00aa00341d07@@3U__s_GUID@@BPEAUIConnectionPoint@@V?$_CopyInterface@UIConnectionPoint@@@ATL@@@ATL@@UEAAJXZ 0000000180001bb4 f i ImageScanner.obj
 0001:00000bb4       ?Reset@?$CComEnumImpl@UIEnumConnections@@$1?_GUID_b196b287_bab4_101a_b69c_00aa00341d07@@3U__s_GUID@@BUtagCONNECTDATA@@V?$_Copy@UtagCONNECTDATA@@@ATL@@@ATL@@UEAAJXZ 0000000180001bb4 f i ImageScanner.obj
 0001:00000bc0       ?Clone@?$CComEnumImpl@UIEnumConnectionPoints@@$1?_GUID_b196b285_bab4_101a_b69c_00aa00341d07@@3U__s_GUID@@BPEAUIConnectionPoint@@V?$_CopyInterface@UIConnectionPoint@@@ATL@@@ATL@@UEAAJPEAPEAUIEnumConnectionPoints@@@Z 0000000180001bc0 f i ImageScanner.obj
 0001:00000ce8       ?AddRef@?$CComObject@V?$CComEnum@UIEnumConnections@@$1?_GUID_b196b287_bab4_101a_b69c_00aa00341d07@@3U__s_GUID@@BUtagCONNECTDATA@@V?$_Copy@UtagCONNECTDATA@@@ATL@@VCComSingleThreadModel@6@@ATL@@@ATL@@UEAAKXZ 0000000180001ce8 f i ImageScanner.obj
 0001:00000ce8       ?AddRef@?$CComObject@V?$CComEnum@UIEnumConnectionPoints@@$1?_GUID_b196b285_bab4_101a_b69c_00aa00341d07@@3U__s_GUID@@BPEAUIConnectionPoint@@V?$_CopyInterface@UIConnectionPoint@@@ATL@@VCComSingleThreadModel@6@@ATL@@@ATL@@UEAAKXZ 0000000180001ce8 f i ImageScanner.obj
 0001:00000cf4       ?Release@?$CComObject@V?$CComEnum@UIEnumConnections@@$1?_GUID_b196b287_bab4_101a_b69c_00aa00341d07@@3U__s_GUID@@BUtagCONNECTDATA@@V?$_Copy@UtagCONNECTDATA@@@ATL@@VCComSingleThreadModel@6@@ATL@@@ATL@@UEAAKXZ 0000000180001cf4 f i ImageScanner.obj
 0001:00000cf4       ?Release@?$CComObject@V?$CComEnum@UIEnumConnectionPoints@@$1?_GUID_b196b285_bab4_101a_b69c_00aa00341d07@@3U__s_GUID@@BPEAUIConnectionPoint@@V?$_CopyInterface@UIConnectionPoint@@@ATL@@VCComSingleThreadModel@6@@ATL@@@ATL@@UEAAKXZ 0000000180001cf4 f i ImageScanner.obj
 0001:00000d48       ?QueryInterface@?$CComObject@V?$CComEnum@UIEnumConnectionPoints@@$1?_GUID_b196b285_bab4_101a_b69c_00aa00341d07@@3U__s_GUID@@BPEAUIConnectionPoint@@V?$_CopyInterface@UIConnectionPoint@@@ATL@@VCComSingleThreadModel@6@@ATL@@@ATL@@UEAAJAEBU_GUID@@PEAPEAX@Z 0000000180001d48 f i ImageScanner.obj
 0001:00000d5c       ??_E?$CComObject@V?$CComEnum@UIEnumConnectionPoints@@$1?_GUID_b196b285_bab4_101a_b69c_00aa00341d07@@3U__s_GUID@@BPEAUIConnectionPoint@@V?$_CopyInterface@UIConnectionPoint@@@ATL@@VCComSingleThreadModel@6@@ATL@@@ATL@@UEAAPEAXI@Z 0000000180001d5c f i ImageScanner.obj
 0001:00000d5c       ??_G?$CComObject@V?$CComEnum@UIEnumConnectionPoints@@$1?_GUID_b196b285_bab4_101a_b69c_00aa00341d07@@3U__s_GUID@@BPEAUIConnectionPoint@@V?$_CopyInterface@UIConnectionPoint@@@ATL@@VCComSingleThreadModel@6@@ATL@@@ATL@@UEAAPEAXI@Z 0000000180001d5c f i ImageScanner.obj
 0001:00000db4       ?AddRef@?$CComObjectCached@VCComClassFactory@ATL@@@ATL@@UEAAKXZ 0000000180001db4 f i ImageScanner.obj
 0001:00000de0       ?Release@?$CComObjectCached@VCComClassFactory@ATL@@@ATL@@UEAAKXZ 0000000180001de0 f i ImageScanner.obj
 0001:00000e20       ?QueryInterface@?$CComObjectCached@VCComClassFactory@ATL@@@ATL@@UEAAJAEBU_GUID@@PEAPEAX@Z 0000000180001e20 f i ImageScanner.obj
 0001:00000e34       ??_E?$CComObjectCached@VCComClassFactory@ATL@@@ATL@@UEAAPEAXI@Z 0000000180001e34 f i ImageScanner.obj
 0001:00000e34       ??_G?$CComObjectCached@VCComClassFactory@ATL@@@ATL@@UEAAPEAXI@Z 0000000180001e34 f i ImageScanner.obj
 0001:00000e8c       ?AddRef@?$CComAggObject@VCOPOSImageScanner@@@ATL@@UEAAKXZ 0000000180001e8c f i ImageScanner.obj
 0001:00000e98       ?Release@?$CComAggObject@VCOPOSImageScanner@@@ATL@@UEAAKXZ 0000000180001e98 f i ImageScanner.obj
 0001:00000eec       ?QueryInterface@?$CComAggObject@VCOPOSImageScanner@@@ATL@@UEAAJAEBU_GUID@@PEAPEAX@Z 0000000180001eec f i ImageScanner.obj
 0001:00000f4c       ?AddRef@?$CComContainedObject@VCOPOSImageScanner@@@ATL@@UEAAKXZ 0000000180001f4c f i ImageScanner.obj
 0001:00000f5c       ?Release@?$CComContainedObject@VCOPOSImageScanner@@@ATL@@UEAAKXZ 0000000180001f5c f i ImageScanner.obj
 0001:00000f6c       ?QueryInterface@?$CComContainedObject@VCOPOSImageScanner@@@ATL@@UEAAJAEBU_GUID@@PEAPEAX@Z 0000000180001f6c f i ImageScanner.obj
 0001:00000f7c       ??_G?$CComAggObject@VCOPOSImageScanner@@@ATL@@UEAAPEAXI@Z 0000000180001f7c f i ImageScanner.obj
 0001:00000f7c       ??_E?$CComAggObject@VCOPOSImageScanner@@@ATL@@UEAAPEAXI@Z 0000000180001f7c f i ImageScanner.obj
 0001:00000fd4       ?AddRef@?$CComObject@VCOPOSImageScanner@@@ATL@@UEAAKXZ 0000000180001fd4 f i ImageScanner.obj
 0001:00000fe4       ?Release@?$CComObject@VCOPOSImageScanner@@@ATL@@UEAAKXZ 0000000180001fe4 f i ImageScanner.obj
 0001:0000103c       ?QueryInterface@?$CComObject@VCOPOSImageScanner@@@ATL@@UEAAJAEBU_GUID@@PEAPEAX@Z 000000018000203c f i ImageScanner.obj
 0001:00001050       ?OnDrawAdvanced@CComControlBase@ATL@@UEAAJAEAUATL_DRAWINFO@@@Z 0000000180002050 f i ImageScanner.obj
 0001:00001170       ?ObjectMain@CComObjectRootBase@ATL@@SAX_N@Z 0000000180002170 f i ImageScanner.obj
 0001:00001170       ?OnFinalMessage@?$CWindowImplBaseT@VCWindow@ATL@@V?$CWinTraits@$0FGAAAAAA@$0A@@2@@ATL@@UEAAXPEAUHWND__@@@Z 0000000180002170 f i ImageScanner.obj
 0001:00001174       ?CreateInstance@CComClassFactory@ATL@@UEAAJPEAUIUnknown@@AEBU_GUID@@PEAPEAX@Z 0000000180002174 f i ImageScanner.obj
 0001:000011d4       ?LockServer@CComClassFactory@ATL@@UEAAJH@Z 00000001800021d4 f i ImageScanner.obj
 0001:000011f8       ?Next@?$CComEnumImpl@UIEnumConnections@@$1?_GUID_b196b287_bab4_101a_b69c_00aa00341d07@@3U__s_GUID@@BUtagCONNECTDATA@@V?$_Copy@UtagCONNECTDATA@@@ATL@@@ATL@@UEAAJKPEAUtagCONNECTDATA@@PEAK@Z 00000001800021f8 f i ImageScanner.obj
 0001:000012cc       ?Skip@?$CComEnumImpl@UIEnumConnections@@$1?_GUID_b196b287_bab4_101a_b69c_00aa00341d07@@3U__s_GUID@@BUtagCONNECTDATA@@V?$_Copy@UtagCONNECTDATA@@@ATL@@@ATL@@UEAAJK@Z 00000001800022cc f i ImageScanner.obj
 0001:000012f8       ??_ECComClassFactory@ATL@@UEAAPEAXI@Z 00000001800022f8 f i ImageScanner.obj
 0001:000012f8       ??_GCComClassFactory@ATL@@UEAAPEAXI@Z 00000001800022f8 f i ImageScanner.obj
 0001:00001348       ?Clone@?$CComEnumImpl@UIEnumConnections@@$1?_GUID_b196b287_bab4_101a_b69c_00aa00341d07@@3U__s_GUID@@BUtagCONNECTDATA@@V?$_Copy@UtagCONNECTDATA@@@ATL@@@ATL@@UEAAJPEAPEAUIEnumConnections@@@Z 0000000180002348 f i ImageScanner.obj
 0001:00001470       ?QueryInterface@?$CComObject@V?$CComEnum@UIEnumConnections@@$1?_GUID_b196b287_bab4_101a_b69c_00aa00341d07@@3U__s_GUID@@BUtagCONNECTDATA@@V?$_Copy@UtagCONNECTDATA@@@ATL@@VCComSingleThreadModel@6@@ATL@@@ATL@@UEAAJAEBU_GUID@@PEAPEAX@Z 0000000180002470 f i ImageScanner.obj
 0001:00001484       ??_E?$CComObject@V?$CComEnum@UIEnumConnections@@$1?_GUID_b196b287_bab4_101a_b69c_00aa00341d07@@3U__s_GUID@@BUtagCONNECTDATA@@V?$_Copy@UtagCONNECTDATA@@@ATL@@VCComSingleThreadModel@6@@ATL@@@ATL@@UEAAPEAXI@Z 0000000180002484 f i ImageScanner.obj
 0001:00001484       ??_G?$CComObject@V?$CComEnum@UIEnumConnections@@$1?_GUID_b196b287_bab4_101a_b69c_00aa00341d07@@3U__s_GUID@@BUtagCONNECTDATA@@V?$_Copy@UtagCONNECTDATA@@@ATL@@VCComSingleThreadModel@6@@ATL@@@ATL@@UEAAPEAXI@Z 0000000180002484 f i ImageScanner.obj
 0001:000014dc       ??_E?$CComObject@VCOPOSImageScanner@@@ATL@@W7EAAPEAXI@Z 00000001800024dc f i ImageScanner.obj
 0001:000014e8       ??_E?$CComObject@VCOPOSImageScanner@@@ATL@@WHA@EAAPEAXI@Z 00000001800024e8 f i ImageScanner.obj
 0001:000014f4       ?QueryInterface@?$CComObject@VCOPOSImageScanner@@@ATL@@WLI@EAAJAEBU_GUID@@PEAPEAX@Z 00000001800024f4 f i ImageScanner.obj
 0001:00001500       ?AddRef@?$CComObject@VCOPOSImageScanner@@@ATL@@WLI@EAAKXZ 0000000180002500 f i ImageScanner.obj
 0001:0000150c       ?Release@?$CComObject@VCOPOSImageScanner@@@ATL@@WLI@EAAKXZ 000000018000250c f i ImageScanner.obj
 0001:00001518       ?QueryInterface@?$CComObject@VCOPOSImageScanner@@@ATL@@WMA@EAAJAEBU_GUID@@PEAPEAX@Z 0000000180002518 f i ImageScanner.obj
 0001:00001524       ?AddRef@?$CComObject@VCOPOSImageScanner@@@ATL@@WMA@EAAKXZ 0000000180002524 f i ImageScanner.obj
 0001:00001530       ?Release@?$CComObject@VCOPOSImageScanner@@@ATL@@WMA@EAAKXZ 0000000180002530 f i ImageScanner.obj
 0001:0000153c       ?QueryInterface@?$CComObject@VCOPOSImageScanner@@@ATL@@WMI@EAAJAEBU_GUID@@PEAPEAX@Z 000000018000253c f i ImageScanner.obj
 0001:00001548       ?AddRef@?$CComObject@VCOPOSImageScanner@@@ATL@@WMI@EAAKXZ 0000000180002548 f i ImageScanner.obj
 0001:00001554       ?Release@?$CComObject@VCOPOSImageScanner@@@ATL@@WMI@EAAKXZ 0000000180002554 f i ImageScanner.obj
 0001:00001560       ?QueryInterface@?$CComObject@VCOPOSImageScanner@@@ATL@@WNA@EAAJAEBU_GUID@@PEAPEAX@Z 0000000180002560 f i ImageScanner.obj
 0001:0000156c       ?AddRef@?$CComObject@VCOPOSImageScanner@@@ATL@@WNA@EAAKXZ 000000018000256c f i ImageScanner.obj
 0001:00001578       ?Release@?$CComObject@VCOPOSImageScanner@@@ATL@@WNA@EAAKXZ 0000000180002578 f i ImageScanner.obj
 0001:00001584       ?QueryInterface@?$CComObject@VCOPOSImageScanner@@@ATL@@WNI@EAAJAEBU_GUID@@PEAPEAX@Z 0000000180002584 f i ImageScanner.obj
 0001:00001590       ?AddRef@?$CComObject@VCOPOSImageScanner@@@ATL@@WNI@EAAKXZ 0000000180002590 f i ImageScanner.obj
 0001:0000159c       ?Release@?$CComObject@VCOPOSImageScanner@@@ATL@@WNI@EAAKXZ 000000018000259c f i ImageScanner.obj
 0001:000015a8       ?QueryInterface@?$CComObject@VCOPOSImageScanner@@@ATL@@WOA@EAAJAEBU_GUID@@PEAPEAX@Z 00000001800025a8 f i ImageScanner.obj
 0001:000015b4       ?AddRef@?$CComObject@VCOPOSImageScanner@@@ATL@@WOA@EAAKXZ 00000001800025b4 f i ImageScanner.obj
 0001:000015c0       ?Release@?$CComObject@VCOPOSImageScanner@@@ATL@@WOA@EAAKXZ 00000001800025c0 f i ImageScanner.obj
 0001:000015cc       ?QueryInterface@?$CComObject@VCOPOSImageScanner@@@ATL@@WOI@EAAJAEBU_GUID@@PEAPEAX@Z 00000001800025cc f i ImageScanner.obj
 0001:000015d8       ?AddRef@?$CComObject@VCOPOSImageScanner@@@ATL@@WOI@EAAKXZ 00000001800025d8 f i ImageScanner.obj
 0001:000015e4       ?Release@?$CComObject@VCOPOSImageScanner@@@ATL@@WOI@EAAKXZ 00000001800025e4 f i ImageScanner.obj
 0001:000015f0       ?QueryInterface@?$CComObject@VCOPOSImageScanner@@@ATL@@WPA@EAAJAEBU_GUID@@PEAPEAX@Z 00000001800025f0 f i ImageScanner.obj
 0001:000015fc       ?AddRef@?$CComObject@VCOPOSImageScanner@@@ATL@@WPA@EAAKXZ 00000001800025fc f i ImageScanner.obj
 0001:00001608       ?Release@?$CComObject@VCOPOSImageScanner@@@ATL@@WPA@EAAKXZ 0000000180002608 f i ImageScanner.obj
 0001:00001614       ?QueryInterface@?$CComObject@VCOPOSImageScanner@@@ATL@@WPI@EAAJAEBU_GUID@@PEAPEAX@Z 0000000180002614 f i ImageScanner.obj
 0001:00001620       ?AddRef@?$CComObject@VCOPOSImageScanner@@@ATL@@WPI@EAAKXZ 0000000180002620 f i ImageScanner.obj
 0001:0000162c       ?Release@?$CComObject@VCOPOSImageScanner@@@ATL@@WPI@EAAKXZ 000000018000262c f i ImageScanner.obj
 0001:00001638       ?QueryInterface@?$CComObject@VCOPOSImageScanner@@@ATL@@WBAA@EAAJAEBU_GUID@@PEAPEAX@Z 0000000180002638 f i ImageScanner.obj
 0001:00001644       ?AddRef@?$CComObject@VCOPOSImageScanner@@@ATL@@WBAA@EAAKXZ 0000000180002644 f i ImageScanner.obj
 0001:00001650       ?Release@?$CComObject@VCOPOSImageScanner@@@ATL@@WBAA@EAAKXZ 0000000180002650 f i ImageScanner.obj
 0001:0000165c       ?QueryInterface@?$CComObject@VCOPOSImageScanner@@@ATL@@WBAI@EAAJAEBU_GUID@@PEAPEAX@Z 000000018000265c f i ImageScanner.obj
 0001:00001668       ?AddRef@?$CComObject@VCOPOSImageScanner@@@ATL@@WBAI@EAAKXZ 0000000180002668 f i ImageScanner.obj
 0001:00001674       ?Release@?$CComObject@VCOPOSImageScanner@@@ATL@@WBAI@EAAKXZ 0000000180002674 f i ImageScanner.obj
 0001:00001680       ?QueryInterface@?$CComObject@VCOPOSImageScanner@@@ATL@@WBBA@EAAJAEBU_GUID@@PEAPEAX@Z 0000000180002680 f i ImageScanner.obj
 0001:0000168c       ?AddRef@?$CComObject@VCOPOSImageScanner@@@ATL@@WBBA@EAAKXZ 000000018000268c f i ImageScanner.obj
 0001:00001698       ?Release@?$CComObject@VCOPOSImageScanner@@@ATL@@WBBA@EAAKXZ 0000000180002698 f i ImageScanner.obj
 0001:000016a4       ?QueryInterface@?$CComObject@VCOPOSImageScanner@@@ATL@@WBBI@EAAJAEBU_GUID@@PEAPEAX@Z 00000001800026a4 f i ImageScanner.obj
 0001:000016b0       ?AddRef@?$CComObject@VCOPOSImageScanner@@@ATL@@WBBI@EAAKXZ 00000001800026b0 f i ImageScanner.obj
 0001:000016bc       ?Release@?$CComObject@VCOPOSImageScanner@@@ATL@@WBBI@EAAKXZ 00000001800026bc f i ImageScanner.obj
 0001:000016c8       ?AddRef@?$CComObject@VCOPOSImageScanner@@@ATL@@WBCI@EAAKXZ 00000001800026c8 f i ImageScanner.obj
 0001:000016d4       ?Release@?$CComObject@VCOPOSImageScanner@@@ATL@@WBCI@EAAKXZ 00000001800026d4 f i ImageScanner.obj
 0001:000016e0       ?AddRef@?$CComObject@VCOPOSImageScanner@@@ATL@@WBEA@EAAKXZ 00000001800026e0 f i ImageScanner.obj
 0001:000016ec       ?Release@?$CComObject@VCOPOSImageScanner@@@ATL@@WBEA@EAAKXZ 00000001800026ec f i ImageScanner.obj
 0001:000016f8       ??_E?$CComContainedObject@VCOPOSImageScanner@@@ATL@@W7EAAPEAXI@Z 00000001800026f8 f i ImageScanner.obj
 0001:00001704       ??_E?$CComContainedObject@VCOPOSImageScanner@@@ATL@@WHA@EAAPEAXI@Z 0000000180002704 f i ImageScanner.obj
 0001:00001710       ?QueryInterface@?$CComContainedObject@VCOPOSImageScanner@@@ATL@@WLI@EAAJAEBU_GUID@@PEAPEAX@Z 0000000180002710 f i ImageScanner.obj
 0001:0000171c       ?AddRef@?$CComContainedObject@VCOPOSImageScanner@@@ATL@@WLI@EAAKXZ 000000018000271c f i ImageScanner.obj
 0001:00001728       ?Release@?$CComContainedObject@VCOPOSImageScanner@@@ATL@@WLI@EAAKXZ 0000000180002728 f i ImageScanner.obj
 0001:00001734       ?QueryInterface@?$CComContainedObject@VCOPOSImageScanner@@@ATL@@WMA@EAAJAEBU_GUID@@PEAPEAX@Z 0000000180002734 f i ImageScanner.obj
 0001:00001740       ?AddRef@?$CComContainedObject@VCOPOSImageScanner@@@ATL@@WMA@EAAKXZ 0000000180002740 f i ImageScanner.obj
 0001:0000174c       ?Release@?$CComContainedObject@VCOPOSImageScanner@@@ATL@@WMA@EAAKXZ 000000018000274c f i ImageScanner.obj
 0001:00001758       ?QueryInterface@?$CComContainedObject@VCOPOSImageScanner@@@ATL@@WMI@EAAJAEBU_GUID@@PEAPEAX@Z 0000000180002758 f i ImageScanner.obj
 0001:00001764       ?AddRef@?$CComContainedObject@VCOPOSImageScanner@@@ATL@@WMI@EAAKXZ 0000000180002764 f i ImageScanner.obj
 0001:00001770       ?Release@?$CComContainedObject@VCOPOSImageScanner@@@ATL@@WMI@EAAKXZ 0000000180002770 f i ImageScanner.obj
 0001:0000177c       ?QueryInterface@?$CComContainedObject@VCOPOSImageScanner@@@ATL@@WNA@EAAJAEBU_GUID@@PEAPEAX@Z 000000018000277c f i ImageScanner.obj
 0001:00001788       ?AddRef@?$CComContainedObject@VCOPOSImageScanner@@@ATL@@WNA@EAAKXZ 0000000180002788 f i ImageScanner.obj
 0001:00001794       ?Release@?$CComContainedObject@VCOPOSImageScanner@@@ATL@@WNA@EAAKXZ 0000000180002794 f i ImageScanner.obj
 0001:000017a0       ?QueryInterface@?$CComContainedObject@VCOPOSImageScanner@@@ATL@@WNI@EAAJAEBU_GUID@@PEAPEAX@Z 00000001800027a0 f i ImageScanner.obj
 0001:000017ac       ?AddRef@?$CComContainedObject@VCOPOSImageScanner@@@ATL@@WNI@EAAKXZ 00000001800027ac f i ImageScanner.obj
 0001:000017b8       ?Release@?$CComContainedObject@VCOPOSImageScanner@@@ATL@@WNI@EAAKXZ 00000001800027b8 f i ImageScanner.obj
 0001:000017c4       ?QueryInterface@?$CComContainedObject@VCOPOSImageScanner@@@ATL@@WOA@EAAJAEBU_GUID@@PEAPEAX@Z 00000001800027c4 f i ImageScanner.obj
 0001:000017d0       ?AddRef@?$CComContainedObject@VCOPOSImageScanner@@@ATL@@WOA@EAAKXZ 00000001800027d0 f i ImageScanner.obj
 0001:000017dc       ?Release@?$CComContainedObject@VCOPOSImageScanner@@@ATL@@WOA@EAAKXZ 00000001800027dc f i ImageScanner.obj
 0001:000017e8       ?QueryInterface@?$CComContainedObject@VCOPOSImageScanner@@@ATL@@WOI@EAAJAEBU_GUID@@PEAPEAX@Z 00000001800027e8 f i ImageScanner.obj
 0001:000017f4       ?AddRef@?$CComContainedObject@VCOPOSImageScanner@@@ATL@@WOI@EAAKXZ 00000001800027f4 f i ImageScanner.obj
 0001:00001800       ?Release@?$CComContainedObject@VCOPOSImageScanner@@@ATL@@WOI@EAAKXZ 0000000180002800 f i ImageScanner.obj
 0001:0000180c       ?QueryInterface@?$CComContainedObject@VCOPOSImageScanner@@@ATL@@WPA@EAAJAEBU_GUID@@PEAPEAX@Z 000000018000280c f i ImageScanner.obj
 0001:00001818       ?AddRef@?$CComContainedObject@VCOPOSImageScanner@@@ATL@@WPA@EAAKXZ 0000000180002818 f i ImageScanner.obj
 0001:00001824       ?Release@?$CComContainedObject@VCOPOSImageScanner@@@ATL@@WPA@EAAKXZ 0000000180002824 f i ImageScanner.obj
 0001:00001830       ?QueryInterface@?$CComContainedObject@VCOPOSImageScanner@@@ATL@@WPI@EAAJAEBU_GUID@@PEAPEAX@Z 0000000180002830 f i ImageScanner.obj
 0001:0000183c       ?AddRef@?$CComContainedObject@VCOPOSImageScanner@@@ATL@@WPI@EAAKXZ 000000018000283c f i ImageScanner.obj
 0001:00001848       ?Release@?$CComContainedObject@VCOPOSImageScanner@@@ATL@@WPI@EAAKXZ 0000000180002848 f i ImageScanner.obj
 0001:00001854       ?QueryInterface@?$CComContainedObject@VCOPOSImageScanner@@@ATL@@WBAA@EAAJAEBU_GUID@@PEAPEAX@Z 0000000180002854 f i ImageScanner.obj
 0001:00001860       ?AddRef@?$CComContainedObject@VCOPOSImageScanner@@@ATL@@WBAA@EAAKXZ 0000000180002860 f i ImageScanner.obj
 0001:0000186c       ?Release@?$CComContainedObject@VCOPOSImageScanner@@@ATL@@WBAA@EAAKXZ 000000018000286c f i ImageScanner.obj
 0001:00001878       ?QueryInterface@?$CComContainedObject@VCOPOSImageScanner@@@ATL@@WBAI@EAAJAEBU_GUID@@PEAPEAX@Z 0000000180002878 f i ImageScanner.obj
 0001:00001884       ?AddRef@?$CComContainedObject@VCOPOSImageScanner@@@ATL@@WBAI@EAAKXZ 0000000180002884 f i ImageScanner.obj
 0001:00001890       ?Release@?$CComContainedObject@VCOPOSImageScanner@@@ATL@@WBAI@EAAKXZ 0000000180002890 f i ImageScanner.obj
 0001:0000189c       ?QueryInterface@?$CComContainedObject@VCOPOSImageScanner@@@ATL@@WBBA@EAAJAEBU_GUID@@PEAPEAX@Z 000000018000289c f i ImageScanner.obj
 0001:000018a8       ?AddRef@?$CComContainedObject@VCOPOSImageScanner@@@ATL@@WBBA@EAAKXZ 00000001800028a8 f i ImageScanner.obj
 0001:000018b4       ?Release@?$CComContainedObject@VCOPOSImageScanner@@@ATL@@WBBA@EAAKXZ 00000001800028b4 f i ImageScanner.obj
 0001:000018c0       ?QueryInterface@?$CComContainedObject@VCOPOSImageScanner@@@ATL@@WBBI@EAAJAEBU_GUID@@PEAPEAX@Z 00000001800028c0 f i ImageScanner.obj
 0001:000018cc       ?AddRef@?$CComContainedObject@VCOPOSImageScanner@@@ATL@@WBBI@EAAKXZ 00000001800028cc f i ImageScanner.obj
 0001:000018d8       ?Release@?$CComContainedObject@VCOPOSImageScanner@@@ATL@@WBBI@EAAKXZ 00000001800028d8 f i ImageScanner.obj
 0001:000018e4       ?AddRef@?$CComContainedObject@VCOPOSImageScanner@@@ATL@@WBCI@EAAKXZ 00000001800028e4 f i ImageScanner.obj
 0001:000018f0       ?Release@?$CComContainedObject@VCOPOSImageScanner@@@ATL@@WBCI@EAAKXZ 00000001800028f0 f i ImageScanner.obj
 0001:000018fc       ?AddRef@?$CComContainedObject@VCOPOSImageScanner@@@ATL@@WBEA@EAAKXZ 00000001800028fc f i ImageScanner.obj
 0001:00001908       ?Release@?$CComContainedObject@VCOPOSImageScanner@@@ATL@@WBEA@EAAKXZ 0000000180002908 f i ImageScanner.obj
 0001:00001914       ?GetWindowProc@?$CWindowImplBaseT@VCWindow@ATL@@V?$CWinTraits@$0FGAAAAAA@$0A@@2@@ATL@@UEAAP6A_JPEAUHWND__@@I_K_J@ZXZ 0000000180002914 f i ImageScanner.obj
 0001:0000191c       ?StartWindowProc@?$CWindowImplBaseT@VCWindow@ATL@@V?$CWinTraits@$0FGAAAAAA@$0A@@2@@ATL@@SA_JPEAUHWND__@@I_K_J@Z 000000018000291c f i ImageScanner.obj
 0001:000019e0       ?Lock@CAtlModule@ATL@@UEAAJXZ 00000001800029e0 f i ImageScanner.obj
 0001:000019f0       ?Unlock@CAtlModule@ATL@@UEAAJXZ 00000001800029f0 f i ImageScanner.obj
 0001:000019fc       ?GetLockCount@CAtlModule@ATL@@UEAAJXZ 00000001800029fc f i ImageScanner.obj
 0001:00001a00       ?GetGITPtr@CAtlModule@ATL@@UEAAJPEAPEAUIGlobalInterfaceTable@@@Z 0000000180002a00 f i ImageScanner.obj
 0001:00001a70       ?GetTypeInfoCount@?$IDispatchImpl@UIOPOSImageScanner@@$1?IID_IOPOSImageScanner@@3U_GUID@@B$1?LIBID_OposImageScanner_CCO@@3U3@B$00$0A@VCComTypeInfoHolder@ATL@@@ATL@@UEAAJPEAI@Z 0000000180002a70 f i ImageScanner.obj
 0001:00001a84       ?GetTypeInfo@?$IDispatchImpl@UIOPOSImageScanner@@$1?IID_IOPOSImageScanner@@3U_GUID@@B$1?LIBID_OposImageScanner_CCO@@3U3@B$00$0A@VCComTypeInfoHolder@ATL@@@ATL@@UEAAJIKPEAPEAUITypeInfo@@@Z 0000000180002a84 f i ImageScanner.obj
 0001:00001ae8       ?GetIDsOfNames@?$IDispatchImpl@UIOPOSImageScanner@@$1?IID_IOPOSImageScanner@@3U_GUID@@B$1?LIBID_OposImageScanner_CCO@@3U3@B$00$0A@VCComTypeInfoHolder@ATL@@@ATL@@UEAAJAEBU_GUID@@PEAPEA_WIKPEAJ@Z 0000000180002ae8 f i ImageScanner.obj
 0001:00001af4       ?Invoke@?$IDispatchImpl@UIOPOSImageScanner@@$1?IID_IOPOSImageScanner@@3U_GUID@@B$1?LIBID_OposImageScanner_CCO@@3U3@B$00$0A@VCComTypeInfoHolder@ATL@@@ATL@@UEAAJJAEBU_GUID@@KGPEAUtagDISPPARAMS@@PEAUtagVARIANT@@PEAUtagEXCEPINFO@@PEAI@Z 0000000180002af4 f i ImageScanner.obj
 0001:00001b84       ?CreateControlWindow@?$CComControl@VCOPOSImageScanner@@V?$CWindowImpl@VCOPOSImageScanner@@VCWindow@ATL@@V?$CWinTraits@$0FGAAAAAA@$0A@@3@@ATL@@@ATL@@UEAAPEAUHWND__@@PEAU3@AEAUtagRECT@@@Z 0000000180002b84 f i ImageScanner.obj
 0001:00001bbc       ?ControlQueryInterface@?$CComControl@VCOPOSImageScanner@@V?$CWindowImpl@VCOPOSImageScanner@@VCWindow@ATL@@V?$CWinTraits@$0FGAAAAAA@$0A@@3@@ATL@@@ATL@@UEAAJAEBU_GUID@@PEAPEAX@Z 0000000180002bbc f i ImageScanner.obj
 0001:00001bd0       ?GetUserClassID@?$IOleObjectImpl@VCOPOSImageScanner@@@ATL@@UEAAJPEAU_GUID@@@Z 0000000180002bd0 f i ImageScanner.obj
 0001:00001bd0       ?GetClassID@?$IPersistStorageImpl@VCOPOSImageScanner@@@ATL@@UEAAJPEAU_GUID@@@Z 0000000180002bd0 f i ImageScanner.obj
 0001:00001bd0       ?GetClassID@?$IPersistStreamInitImpl@VCOPOSImageScanner@@@ATL@@UEAAJPEAU_GUID@@@Z 0000000180002bd0 f i ImageScanner.obj
 0001:00001bec       ?IsDirty@?$IPersistStreamInitImpl@VCOPOSImageScanner@@@ATL@@UEAAJXZ 0000000180002bec f i ImageScanner.obj
 0001:00001c08       ?Load@?$IPersistStreamInitImpl@VCOPOSImageScanner@@@ATL@@UEAAJPEAUIStream@@@Z 0000000180002c08 f i ImageScanner.obj
 0001:00001c58       ?Save@?$IPersistStreamInitImpl@VCOPOSImageScanner@@@ATL@@UEAAJPEAUIStream@@H@Z 0000000180002c58 f i ImageScanner.obj
 0001:00001cbc       ?GetSizeMax@?$IPersistStreamInitImpl@VCOPOSImageScanner@@@ATL@@UEAAJPEAT_ULARGE_INTEGER@@@Z 0000000180002cbc f i ImageScanner.obj
 0001:00001ee8       ?InitNew@?$IPersistStreamInitImpl@VCOPOSImageScanner@@@ATL@@UEAAJXZ 0000000180002ee8 f i ImageScanner.obj
 0001:00001f00       ?SetClientSite@?$IOleObjectImpl@VCOPOSImageScanner@@@ATL@@UEAAJPEAUIOleClientSite@@@Z 0000000180002f00 f i ImageScanner.obj
 0001:00001f1c       ?GetClientSite@?$IOleObjectImpl@VCOPOSImageScanner@@@ATL@@UEAAJPEAPEAUIOleClientSite@@@Z 0000000180002f1c f i ImageScanner.obj
 0001:00001f64       ?Close@?$IOleObjectImpl@VCOPOSImageScanner@@@ATL@@UEAAJK@Z 0000000180002f64 f i ImageScanner.obj
 0001:00001f80       ?DoVerb@?$IOleObjectImpl@VCOPOSImageScanner@@@ATL@@UEAAJJPEAUtagMSG@@PEAUIOleClientSite@@JPEAUHWND__@@PEBUtagRECT@@@Z 0000000180002f80 f i ImageScanner.obj
 0001:00002124       ?EnumVerbs@?$IOleObjectImpl@VCOPOSImageScanner@@@ATL@@UEAAJPEAPEAUIEnumOLEVERB@@@Z 0000000180003124 f i ImageScanner.obj
 0001:00002140       ?GetUserType@?$IOleObjectImpl@VCOPOSImageScanner@@@ATL@@UEAAJKPEAPEA_W@Z 0000000180003140 f i ImageScanner.obj
 0001:00002150       ?SetExtent@?$IOleObjectImpl@VCOPOSImageScanner@@@ATL@@UEAAJKPEAUtagSIZE@@@Z 0000000180003150 f i ImageScanner.obj
 0001:0000216c       ?GetExtent@?$IOleObjectImpl@VCOPOSImageScanner@@@ATL@@UEAAJKPEAUtagSIZE@@@Z 000000018000316c f i ImageScanner.obj
 0001:0000219c       ?Advise@?$IOleObjectImpl@VCOPOSImageScanner@@@ATL@@UEAAJPEAUIAdviseSink@@PEAK@Z 000000018000319c f i ImageScanner.obj
 0001:000021f8       ?Unadvise@?$IOleObjectImpl@VCOPOSImageScanner@@@ATL@@UEAAJK@Z 00000001800031f8 f i ImageScanner.obj
 0001:00002230       ?EnumAdvise@?$IOleObjectImpl@VCOPOSImageScanner@@@ATL@@UEAAJPEAPEAUIEnumSTATDATA@@@Z 0000000180003230 f i ImageScanner.obj
 0001:00002278       ?GetMiscStatus@?$IOleObjectImpl@VCOPOSImageScanner@@@ATL@@UEAAJKPEAK@Z 0000000180003278 f i ImageScanner.obj
 0001:00002288       ?AddCommonRGSReplacements@?$CAtlModuleT@VCComModule@ATL@@@ATL@@UEAAJPEAUIRegistrarBase@@@Z 0000000180003288 f i ImageScanner.obj
 0001:000022a0       ?GetWindow@?$IOleInPlaceActiveObjectImpl@VCOPOSImageScanner@@@ATL@@UEAAJPEAPEAUHWND__@@@Z 00000001800032a0 f i ImageScanner.obj
 0001:000022f4       ?TranslateAcceleratorW@?$IOleInPlaceActiveObjectImpl@VCOPOSImageScanner@@@ATL@@UEAAJPEAUtagMSG@@@Z 00000001800032f4 f i ImageScanner.obj
 0001:000023e8       ?OnDocWindowActivate@?$IOleInPlaceActiveObjectImpl@VCOPOSImageScanner@@@ATL@@UEAAJH@Z 00000001800033e8 f i ImageScanner.obj
 0001:00002414       ?Draw@?$IViewObjectExImpl@VCOPOSImageScanner@@@ATL@@UEAAJKJPEAXPEAUtagDVTARGETDEVICE@@PEAUHDC__@@2PEBU_RECTL@@3P6AH_K@Z4@Z 0000000180003414 f i ImageScanner.obj
 0001:00002478       ?SetAdvise@?$IViewObjectExImpl@VCOPOSImageScanner@@@ATL@@UEAAJKKPEAUIAdviseSink@@@Z 0000000180003478 f i ImageScanner.obj
 0001:000024cc       ?GetAdvise@?$IViewObjectExImpl@VCOPOSImageScanner@@@ATL@@UEAAJPEAK0PEAPEAUIAdviseSink@@@Z 00000001800034cc f i ImageScanner.obj
 0001:00002508       ?GetExtent@?$IViewObjectExImpl@VCOPOSImageScanner@@@ATL@@UEAAJKJPEAUtagDVTARGETDEVICE@@PEAUtagSIZE@@@Z 0000000180003508 f i ImageScanner.obj
 0001:00002538       ?GetViewStatus@?$IViewObjectExImpl@VCOPOSImageScanner@@@ATL@@UEAAJPEAK@Z 0000000180003538 f i ImageScanner.obj
 0001:0000254c       ?QueryHitPoint@?$IViewObjectExImpl@VCOPOSImageScanner@@@ATL@@UEAAJKPEBUtagRECT@@UtagPOINT@@JPEAK@Z 000000018000354c f i ImageScanner.obj
 0001:00002590       ?UpdateRegistryFromResourceD@CComModule@ATL@@UEAAJIHPEAU_ATL_REGMAP_ENTRY@2@@Z 0000000180003590 f i ImageScanner.obj
 0001:00002590       ?UpdateRegistryFromResourceD@CComModule@ATL@@UEAAJPEB_WHPEAU_ATL_REGMAP_ENTRY@2@@Z 0000000180003590 f i ImageScanner.obj
 0001:00002598       ?QueryHitRect@?$IViewObjectExImpl@VCOPOSImageScanner@@@ATL@@UEAAJKPEBUtagRECT@@0JPEAK@Z 0000000180003598 f i ImageScanner.obj
 0001:00002600       ?UpdateRegistryFromResource@CComModule@ATL@@UEAAJPEB_WHPEAU_ATL_REGMAP_ENTRY@2@@Z 0000000180003600 f i ImageScanner.obj
 0001:00002608       ?GetNaturalExtent@?$IViewObjectExImpl@VCOPOSImageScanner@@@ATL@@UEAAJKJPEAUtagDVTARGETDEVICE@@PEAUHDC__@@PEAUtagExtentInfo@@PEAUtagSIZE@@@Z 0000000180003608 f i ImageScanner.obj
 0001:00002650       ?UpdateRegistryFromResource@CComModule@ATL@@UEAAJIHPEAU_ATL_REGMAP_ENTRY@2@@Z 0000000180003650 f i ImageScanner.obj
 0001:00002658       ?GetWindow@?$IOleInPlaceObjectWindowlessImpl@VCOPOSImageScanner@@@ATL@@UEAAJPEAPEAUHWND__@@@Z 0000000180003658 f i ImageScanner.obj
 0001:000026ac       ?InPlaceDeactivate@?$IOleInPlaceObjectWindowlessImpl@VCOPOSImageScanner@@@ATL@@UEAAJXZ 00000001800036ac f i ImageScanner.obj
 0001:000026c8       ?UIDeactivate@?$IOleInPlaceObjectWindowlessImpl@VCOPOSImageScanner@@@ATL@@UEAAJXZ 00000001800036c8 f i ImageScanner.obj
 0001:000026e4       ?SetObjectRects@?$IOleInPlaceObjectWindowlessImpl@VCOPOSImageScanner@@@ATL@@UEAAJPEBUtagRECT@@0@Z 00000001800036e4 f i ImageScanner.obj
 0001:00002700       ?OnWindowMessage@?$IOleInPlaceObjectWindowlessImpl@VCOPOSImageScanner@@@ATL@@UEAAJI_K_JPEA_J@Z 0000000180003700 f i ImageScanner.obj
 0001:000027c8       ?EnumConnectionPoints@?$IConnectionPointContainerImpl@VCOPOSImageScanner@@@ATL@@UEAAJPEAPEAUIEnumConnectionPoints@@@Z 00000001800037c8 f i ImageScanner.obj
 0001:00002a10       ?FindConnectionPoint@?$IConnectionPointContainerImpl@VCOPOSImageScanner@@@ATL@@UEAAJAEBU_GUID@@PEAPEAUIConnectionPoint@@@Z 0000000180003a10 f i ImageScanner.obj
 0001:00002ae0       ??_ECComModule@ATL@@UEAAPEAXI@Z 0000000180003ae0 f i ImageScanner.obj
 0001:00002ae0       ??_GCComModule@ATL@@UEAAPEAXI@Z 0000000180003ae0 f i ImageScanner.obj
 0001:00002b60       ?IsDirty@?$IPersistStorageImpl@VCOPOSImageScanner@@@ATL@@UEAAJXZ 0000000180003b60 f i ImageScanner.obj
 0001:00002ba4       ?InitNew@?$IPersistStorageImpl@VCOPOSImageScanner@@@ATL@@UEAAJPEAUIStorage@@@Z 0000000180003ba4 f i ImageScanner.obj
 0001:00002be8       ?Load@?$IPersistStorageImpl@VCOPOSImageScanner@@@ATL@@UEAAJPEAUIStorage@@@Z 0000000180003be8 f i ImageScanner.obj
 0001:00002c88       ?Save@?$IPersistStorageImpl@VCOPOSImageScanner@@@ATL@@UEAAJPEAUIStorage@@H@Z 0000000180003c88 f i ImageScanner.obj
 0001:00002d38       ?GetPages@?$ISpecifyPropertyPagesImpl@VCOPOSImageScanner@@@ATL@@UEAAJPEAUtagCAUUID@@@Z 0000000180003d38 f i ImageScanner.obj
 0001:00002d44       ?QuickActivate@?$IQuickActivateImpl@VCOPOSImageScanner@@@ATL@@UEAAJPEAUtagQACONTAINER@@PEAUtagQACONTROL@@@Z 0000000180003d44 f i ImageScanner.obj
 0001:00002d60       ?SetContentExtent@?$IQuickActivateImpl@VCOPOSImageScanner@@@ATL@@UEAAJPEAUtagSIZE@@@Z 0000000180003d60 f i ImageScanner.obj
 0001:00002d94       ?GetContentExtent@?$IQuickActivateImpl@VCOPOSImageScanner@@@ATL@@UEAAJPEAUtagSIZE@@@Z 0000000180003d94 f i ImageScanner.obj
 0001:00002dcc       ?GetData@?$IDataObjectImpl@VCOPOSImageScanner@@@ATL@@UEAAJPEAUtagFORMATETC@@PEAUtagSTGMEDIUM@@@Z 0000000180003dcc f i ImageScanner.obj
 0001:00002de8       ?DAdvise@?$IDataObjectImpl@VCOPOSImageScanner@@@ATL@@UEAAJPEAUtagFORMATETC@@KPEAUIAdviseSink@@PEAK@Z 0000000180003de8 f i ImageScanner.obj
 0001:00002e70       ?DUnadvise@?$IDataObjectImpl@VCOPOSImageScanner@@@ATL@@UEAAJK@Z 0000000180003e70 f i ImageScanner.obj
 0001:00002e9c       ?EnumDAdvise@?$IDataObjectImpl@VCOPOSImageScanner@@@ATL@@UEAAJPEAPEAUIEnumSTATDATA@@@Z 0000000180003e9c f i ImageScanner.obj
 0001:00002ed8       ?GetClassInfoW@?$IProvideClassInfo2Impl@$1?CLSID_OPOSImageScanner@@3U_GUID@@B$1?DIID__IOPOSImageScannerEvents@@3U2@B$1?LIBID_OposImageScanner_CCO@@3U2@B$00$0A@VCComTypeInfoHolder@ATL@@@ATL@@UEAAJPEAPEAUITypeInfo@@@Z 0000000180003ed8 f i ImageScanner.obj
 0001:00002f30       ?GetGUID@?$IProvideClassInfo2Impl@$1?CLSID_OPOSImageScanner@@3U_GUID@@B$1?DIID__IOPOSImageScannerEvents@@3U2@B$1?LIBID_OposImageScanner_CCO@@3U2@B$00$0A@VCComTypeInfoHolder@ATL@@@ATL@@UEAAJKPEAU_GUID@@@Z 0000000180003f30 f i ImageScanner.obj
 0001:00002f64       ?GetInterfaceSafetyOptions@?$IObjectSafetyImpl@VCOPOSImageScanner@@$02@ATL@@UEAAJAEBU_GUID@@PEAK1@Z 0000000180003f64 f i ImageScanner.obj
 0001:00002ff8       ?SetInterfaceSafetyOptions@?$IObjectSafetyImpl@VCOPOSImageScanner@@$02@ATL@@UEAAJAEBU_GUID@@KK@Z 0000000180003ff8 f i ImageScanner.obj
 0001:0000309c       ?_LocCPQueryInterface@?$IConnectionPointImpl@VCOPOSImageScanner@@$1?DIID__IOPOSImageScannerEvents@@3U_GUID@@BVCComDynamicUnkArray@ATL@@@ATL@@UEAAJAEBU_GUID@@PEAPEAX@Z 000000018000409c f i ImageScanner.obj
 0001:0000309c       ?_LocCPQueryInterface@?$IConnectionPointImpl@VCOPOSImageScanner@@$1?IID_IPropertyNotifySink@@3U_GUID@@BVCComDynamicUnkArray@ATL@@@ATL@@UEAAJAEBU_GUID@@PEAPEAX@Z 000000018000409c f i ImageScanner.obj
 0001:00003110       ?GetConnectionInterface@?$IConnectionPointImpl@VCOPOSImageScanner@@$1?IID_IPropertyNotifySink@@3U_GUID@@BVCComDynamicUnkArray@ATL@@@ATL@@UEAAJPEAU_GUID@@@Z 0000000180004110 f i ImageScanner.obj
 0001:0000312c       ?GetConnectionPointContainer@?$IConnectionPointImpl@VCOPOSImageScanner@@$1?IID_IPropertyNotifySink@@3U_GUID@@BVCComDynamicUnkArray@ATL@@@ATL@@UEAAJPEAPEAUIConnectionPointContainer@@@Z 000000018000412c f i ImageScanner.obj
 0001:0000314c       ?Advise@?$IConnectionPointImpl@VCOPOSImageScanner@@$1?IID_IPropertyNotifySink@@3U_GUID@@BVCComDynamicUnkArray@ATL@@@ATL@@UEAAJPEAUIUnknown@@PEAK@Z 000000018000414c f i ImageScanner.obj
 0001:0000314c       ?Advise@?$IConnectionPointImpl@VCOPOSImageScanner@@$1?DIID__IOPOSImageScannerEvents@@3U_GUID@@BVCComDynamicUnkArray@ATL@@@ATL@@UEAAJPEAUIUnknown@@PEAK@Z 000000018000414c f i ImageScanner.obj
 0001:0000320c       ?Unadvise@?$IConnectionPointImpl@VCOPOSImageScanner@@$1?DIID__IOPOSImageScannerEvents@@3U_GUID@@BVCComDynamicUnkArray@ATL@@@ATL@@UEAAJK@Z 000000018000420c f i ImageScanner.obj
 0001:0000320c       ?Unadvise@?$IConnectionPointImpl@VCOPOSImageScanner@@$1?IID_IPropertyNotifySink@@3U_GUID@@BVCComDynamicUnkArray@ATL@@@ATL@@UEAAJK@Z 000000018000420c f i ImageScanner.obj
 0001:00003288       ?EnumConnections@?$IConnectionPointImpl@VCOPOSImageScanner@@$1?IID_IPropertyNotifySink@@3U_GUID@@BVCComDynamicUnkArray@ATL@@@ATL@@UEAAJPEAPEAUIEnumConnections@@@Z 0000000180004288 f i ImageScanner.obj
 0001:00003288       ?EnumConnections@?$IConnectionPointImpl@VCOPOSImageScanner@@$1?DIID__IOPOSImageScannerEvents@@3U_GUID@@BVCComDynamicUnkArray@ATL@@@ATL@@UEAAJPEAPEAUIEnumConnections@@@Z 0000000180004288 f i ImageScanner.obj
 0001:00003430       ?GetConnectionInterface@?$IConnectionPointImpl@VCOPOSImageScanner@@$1?DIID__IOPOSImageScannerEvents@@3U_GUID@@BVCComDynamicUnkArray@ATL@@@ATL@@UEAAJPEAU_GUID@@@Z 0000000180004430 f i ImageScanner.obj
 0001:0000344c       ?GetConnectionPointContainer@?$IConnectionPointImpl@VCOPOSImageScanner@@$1?DIID__IOPOSImageScannerEvents@@3U_GUID@@BVCComDynamicUnkArray@ATL@@@ATL@@UEAAJPEAPEAUIConnectionPointContainer@@@Z 000000018000444c f i ImageScanner.obj
 0001:0000346c       ?UpdateRegistry@COPOSImageScanner@@SAJH@Z 000000018000446c f i ImageScanner.obj
 0001:00003484       ?ProcessWindowMessage@COPOSImageScanner@@UEAAHPEAUHWND__@@I_K_JAEA_JK@Z 0000000180004484 f i ImageScanner.obj
 0001:0000350c       ?SOData@COPOSImageScanner@@MEAAJJ@Z 000000018000450c f i ImageScanner.obj
 0001:0000355c       ?SODirectIO@COPOSImageScanner@@MEAAJJPEAJPEAPEA_W@Z 000000018000455c f i ImageScanner.obj
 0001:000035d4       ?SOError@COPOSImageScanner@@MEAAJJJJPEAJ@Z 00000001800045d4 f i ImageScanner.obj
 0001:0000365c       ?SOStatusUpdate@COPOSImageScanner@@MEAAJJ@Z 000000018000465c f i ImageScanner.obj
 0001:000036ac       ??$AtlModuleRegisterWndClassInfoT@VAtlModuleRegisterWndClassInfoParamW@ATL@@@ATL@@YAGPEAU_ATL_BASE_MODULE70@0@PEAU_ATL_WIN_MODULE70@0@PEAU_ATL_WNDCLASSINFOW@0@PEAP6A_JPEAUHWND__@@I_K_J@ZVAtlModuleRegisterWndClassInfoParamW@0@@Z 00000001800046ac f i ImageScanner.obj
 0001:000038ac       ??0?$CComContainedObject@VCOPOSImageScanner@@@ATL@@QEAA@PEAX@Z 00000001800048ac f i ImageScanner.obj
 0001:000039c8       ??0?$CComObject@VCOPOSImageScanner@@@ATL@@QEAA@PEAX@Z 00000001800049c8 f i ImageScanner.obj
 0001:00003ae0       ??0CAtlModule@ATL@@QEAA@XZ 0000000180004ae0 f i ImageScanner.obj
 0001:00003b5c       ??1?$CComEnumImpl@UIEnumConnectionPoints@@$1?_GUID_b196b285_bab4_101a_b69c_00aa00341d07@@3U__s_GUID@@BPEAUIConnectionPoint@@V?$_CopyInterface@UIConnectionPoint@@@ATL@@@ATL@@UEAA@XZ 0000000180004b5c f i ImageScanner.obj
 0001:00003bb8       ??1?$CComEnumImpl@UIEnumConnections@@$1?_GUID_b196b287_bab4_101a_b69c_00aa00341d07@@3U__s_GUID@@BUtagCONNECTDATA@@V?$_Copy@UtagCONNECTDATA@@@ATL@@@ATL@@UEAA@XZ 0000000180004bb8 f i ImageScanner.obj
 0001:00003c14       ??1?$CComObject@VCOPOSImageScanner@@@ATL@@UEAA@XZ 0000000180004c14 f i ImageScanner.obj
 0001:00003d34       ??_E?$CComContainedObject@VCOPOSImageScanner@@@ATL@@UEAAPEAXI@Z 0000000180004d34 f i ImageScanner.obj
 0001:00003d34       ??_G?$CComContainedObject@VCOPOSImageScanner@@@ATL@@UEAAPEAXI@Z 0000000180004d34 f i ImageScanner.obj
 0001:00003d68       ??_E?$CComObject@VCOPOSImageScanner@@@ATL@@UEAAPEAXI@Z 0000000180004d68 f i ImageScanner.obj
 0001:00003d68       ??_G?$CComObject@VCOPOSImageScanner@@@ATL@@UEAAPEAXI@Z 0000000180004d68 f i ImageScanner.obj
 0001:00003d9c       ?Add@?$CSimpleArray@GV?$CSimpleArrayEqualHelper@G@ATL@@@ATL@@QEAAHAEBG@Z 0000000180004d9c f i ImageScanner.obj
 0001:00003e50       ?Add@?$CSimpleMap@PEA_WPEA_WVCExpansionVectorEqualHelper@ATL@@@ATL@@QEAAHAEBQEA_W0@Z 0000000180004e50 f i ImageScanner.obj
 0001:00003ef0       ?Add@CComDynamicUnkArray@ATL@@QEAAKPEAUIUnknown@@@Z 0000000180004ef0 f i ImageScanner.obj
 0001:00003fe8       ?Add@CExpansionVector@ATL@@QEAAHPEB_W0@Z 0000000180004fe8 f i ImageScanner.obj
 0001:00004178       ?AddValue@CRegParser@ATL@@IEAAJAEAVCRegKey@2@PEB_WPEA_W@Z 0000000180005178 f i ImageScanner.obj
 0001:000045c0       ?AllocateHeap@?$CTempBuffer@_W$0BAA@VCCRTAllocator@ATL@@@ATL@@AEAAX_K@Z 00000001800055c0 f i ImageScanner.obj
 0001:000045c0       ?AllocateHeap@?$CTempBuffer@E$0BAA@VCCRTAllocator@ATL@@@ATL@@AEAAX_K@Z 00000001800055c0 f i ImageScanner.obj
 0001:000045c0       ?AllocateHeap@?$CTempBuffer@_W$0EAA@VCCRTAllocator@ATL@@@ATL@@AEAAX_K@Z 00000001800055c0 f i ImageScanner.obj
 0001:000045ec       ?Append@CParseBuffer@CRegParser@ATL@@QEAAHPEB_WH@Z 00000001800055ec f i ImageScanner.obj
 0001:00004704       ?AtlCallTermFunc@ATL@@YAXPEAU_ATL_MODULE70@1@@Z 0000000180005704 f i ImageScanner.obj
 0001:00004768       ?AtlComModuleGetClassObject@ATL@@YAJPEAU_ATL_COM_MODULE70@1@AEBU_GUID@@1PEAPEAX@Z 0000000180005768 f i ImageScanner.obj
 0001:000048a8       ?AtlComModuleRegisterServer@ATL@@YAJPEAU_ATL_COM_MODULE70@1@HPEBU_GUID@@@Z 00000001800058a8 f i ImageScanner.obj
 0001:00004968       ?AtlComModuleUnregisterServer@ATL@@YAJPEAU_ATL_COM_MODULE70@1@HPEBU_GUID@@@Z 0000000180005968 f i ImageScanner.obj
 0001:00004a24       ?AtlCreateTargetDC@ATL@@YAPEAUHDC__@@PEAU2@PEAUtagDVTARGETDEVICE@@@Z 0000000180005a24 f i ImageScanner.obj
 0001:00004a98       ?AtlHiMetricToPixel@ATL@@YAXPEBUtagSIZE@@PEAU2@@Z 0000000180005a98 f i ImageScanner.obj
 0001:00004b48       ?AtlHresultFromLastError@ATL@@YAJXZ 0000000180005b48 f i ImageScanner.obj
 0001:00004b68       ?AtlHresultFromWin32@ATL@@YAJK@Z 0000000180005b68 f i ImageScanner.obj
 0001:00004b78       ?AtlIPersistStreamInit_Load@ATL@@YAJPEAUIStream@@PEBUATL_PROPMAP_ENTRY@1@PEAXPEAUIUnknown@@@Z 0000000180005b78 f i ImageScanner.obj
 0001:00004db0       ?AtlIPersistStreamInit_Save@ATL@@YAJPEAUIStream@@HPEBUATL_PROPMAP_ENTRY@1@PEAXPEAUIUnknown@@@Z 0000000180005db0 f i ImageScanner.obj
 0001:00004fec       ?AtlInternalOleLoadFromStream@ATL@@YAJPEAUIStream@@AEBU_GUID@@PEAPEAXTClassesAllowedInStream@1@K@Z 0000000180005fec f i ImageScanner.obj
 0001:00005130       ?AtlInternalQueryInterface@ATL@@YAJPEAXPEBU_ATL_INTMAP_ENTRY@1@AEBU_GUID@@PEAPEAX@Z 0000000180006130 f i ImageScanner.obj
 0001:00005238       ?AtlLoadTypeLib@ATL@@YAJPEAUHINSTANCE__@@PEB_WPEAPEA_WPEAPEAUITypeLib@@@Z 0000000180006238 f i ImageScanner.obj
 0001:00005494       ?AtlModuleAddTermFunc@ATL@@YAJPEAU_ATL_MODULE70@1@P6AX_K@Z1@Z 0000000180006494 f i ImageScanner.obj
 0001:00005528       ?AtlRegisterClassCategoriesHelper@ATL@@YAJAEBU_GUID@@PEBU_ATL_CATMAP_ENTRY@1@H@Z 0000000180006528 f i ImageScanner.obj
 0001:0000598c       ?AtlRegisterTypeLib@ATL@@YAJPEAUHINSTANCE__@@PEB_W@Z 000000018000698c f i ImageScanner.obj
 0001:00005b88       ?AtlThrowImpl@ATL@@YAXJ@Z  0000000180006b88 f i ImageScanner.obj
 0001:00005bac       ?AtlUnRegisterTypeLib@ATL@@YAJPEAUHINSTANCE__@@PEB_W@Z 0000000180006bac f i ImageScanner.obj
 0001:00005c74       ?AtlWinModuleExtractCreateWndData@ATL@@YAPEAXPEAU_ATL_WIN_MODULE70@1@@Z 0000000180006c74 f i ImageScanner.obj
 0001:00005d00       ?Cleanup@CComTypeInfoHolder@ATL@@SAX_K@Z 0000000180006d00 f i ImageScanner.obj
 0001:00005d40       ?ClearReplacements@CExpansionVector@ATL@@QEAAJXZ 0000000180006d40 f i ImageScanner.obj
 0001:00005ddc       ?Create@?$CWindowImpl@VCOPOSImageScanner@@VCWindow@ATL@@V?$CWinTraits@$0FGAAAAAA@$0A@@3@@ATL@@QEAAPEAUHWND__@@PEAU3@V_U_RECT@2@PEB_WKKV_U_MENUorID@2@PEAX@Z 0000000180006ddc f i ImageScanner.obj
 0001:00005e8c       ?Create@?$CWindowImplBaseT@VCWindow@ATL@@V?$CWinTraits@$0FGAAAAAA@$0A@@2@@ATL@@QEAAPEAUHWND__@@PEAU3@V_U_RECT@2@PEB_WKKV_U_MENUorID@2@GPEAX@Z 0000000180006e8c f i ImageScanner.obj
 0001:00005ffc       ?Create@CRegKey@ATL@@QEAAJPEAUHKEY__@@PEB_WPEA_WKKPEAU_SECURITY_ATTRIBUTES@@PEAK@Z 0000000180006ffc f i ImageScanner.obj
 0001:000060e0       ?CreateInstance@?$CComCreator@V?$CComAggObject@VCOPOSImageScanner@@@ATL@@@ATL@@SAJPEAXAEBU_GUID@@PEAPEAX@Z 00000001800070e0 f i ImageScanner.obj
 0001:000061b8       ?CreateInstance@?$CComCreator@V?$CComObject@VCOPOSImageScanner@@@ATL@@@ATL@@SAJPEAXAEBU_GUID@@PEAPEAX@Z 00000001800071b8 f i ImageScanner.obj
 0001:00006270       ?CreateInstance@?$CComObject@V?$CComEnum@UIEnumConnectionPoints@@$1?_GUID_b196b285_bab4_101a_b69c_00aa00341d07@@3U__s_GUID@@BPEAUIConnectionPoint@@V?$_CopyInterface@UIConnectionPoint@@@ATL@@VCComSingleThreadModel@6@@ATL@@@ATL@@SAJPEAPEAV12@@Z 0000000180007270 f i ImageScanner.obj
 0001:000062fc       ?CreateInstance@?$CComObject@V?$CComEnum@UIEnumConnections@@$1?_GUID_b196b287_bab4_101a_b69c_00aa00341d07@@3U__s_GUID@@BUtagCONNECTDATA@@V?$_Copy@UtagCONNECTDATA@@@ATL@@VCComSingleThreadModel@6@@ATL@@@ATL@@SAJPEAPEAV12@@Z 00000001800072fc f i ImageScanner.obj
 0001:00006388       ?DefaultReflectionHandler@?$CWindowImplRoot@VCWindow@ATL@@@ATL@@SAHPEAUHWND__@@I_K_JAEA_J@Z 0000000180007388 f i ImageScanner.obj
 0001:000063ec       ?DoEvent@COPOSImageScanner@@IEAAXI_K_J@Z 00000001800073ec f i ImageScanner.obj
 0001:000064a0       ?DoVerbPrimary@?$IOleObjectImpl@VCOPOSImageScanner@@@ATL@@QEAAJPEBUtagRECT@@PEAUHWND__@@@Z 00000001800074a0 f i ImageScanner.obj
 0001:000065c8       ?DoVerbProperties@CComControlBase@ATL@@QEAAJPEBUtagRECT@@PEAUHWND__@@@Z 00000001800075c8 f i ImageScanner.obj
 0001:000067f0       ?FireTheEvent@?$CProxy_IOPOSEvents@VCOPOSImageScanner@@@@IEAAXPEAVOposVariant@@IAEAJPEB_WJ@Z 00000001800077f0 f i ImageScanner.obj
 0001:000068dc       ?FireViewChange@CComControlBase@ATL@@QEAAJXZ 00000001800078dc f i ImageScanner.obj
 0001:00006940       ?Fire_DataEvent@?$CProxy_IOPOSEvents@VCOPOSImageScanner@@@@QEAAXJ@Z 0000000180007940 f i ImageScanner.obj
 0001:00006a2c       ?Fire_DirectIOEvent@?$CProxy_IOPOSEvents@VCOPOSImageScanner@@@@QEAAXJPEAJPEAPEA_W@Z 0000000180007a2c f i ImageScanner.obj
 0001:00006b84       ?Fire_ErrorEvent@?$CProxy_IOPOSEvents@VCOPOSImageScanner@@@@QEAAXJJJPEAJ@Z 0000000180007b84 f i ImageScanner.obj
 0001:00006cec       ?Fire_StatusUpdateEvent@?$CProxy_IOPOSEvents@VCOPOSImageScanner@@@@QEAAXJ@Z 0000000180007cec f i ImageScanner.obj
 0001:00006dd8       ?FreeHeap@?$CTempBuffer@_W$0EAA@VCCRTAllocator@ATL@@@ATL@@AEAAXXZ 0000000180007dd8 f i ImageScanner.obj
 0001:00006dd8       ?FreeHeap@?$CTempBuffer@_W$0BAA@VCCRTAllocator@ATL@@@ATL@@AEAAXXZ 0000000180007dd8 f i ImageScanner.obj
 0001:00006dd8       ?FreeHeap@?$CTempBuffer@E$0BAA@VCCRTAllocator@ATL@@@ATL@@AEAAXXZ 0000000180007dd8 f i ImageScanner.obj
 0001:00006de0       ?GetAmbientLocaleID@CComControlBase@ATL@@QEAAJAEAK@Z 0000000180007de0 f i ImageScanner.obj
 0001:00006ea0       ?GetAmbientUserMode@CComControlBase@ATL@@QEAAJAEAH@Z 0000000180007ea0 f i ImageScanner.obj
 0001:00006f74       ?GetClassObject@CComModule@ATL@@QEAAJAEBU_GUID@@0PEAPEAX@Z 0000000180007f74 f i ImageScanner.obj
 0001:00007068       ?GetConnMap@COPOSImageScanner@@SAPEBU_ATL_CONNMAP_ENTRY@ATL@@PEAH@Z 0000000180008068 f i ImageScanner.obj
 0001:000070f0       ?GetIDsOfNames@CComTypeInfoHolder@ATL@@QEAAJAEBU_GUID@@PEAPEA_WIKPEAJ@Z 00000001800080f0 f i ImageScanner.obj
 0001:00007268       ?GetPagesHelper@?$ISpecifyPropertyPagesImpl@VCOPOSImageScanner@@@ATL@@IEAAJPEAUtagCAUUID@@PEBUATL_PROPMAP_ENTRY@2@@Z 0000000180008268 f i ImageScanner.obj
 0001:00007408       ?GetSizeMax@CComVariant@ATL@@QEBAJPEAT_ULARGE_INTEGER@@@Z 0000000180008408 f i ImageScanner.obj
 0001:0000763c       ?GetTI@CComTypeInfoHolder@ATL@@QEAAJK@Z 000000018000863c f i ImageScanner.obj
 0001:000078b4       ?GetZoomInfo@CComControlBase@ATL@@QEAAXAEAUATL_DRAWINFO@@@Z 00000001800088b4 f i ImageScanner.obj
 0001:00007958       ?HKeyFromString@CRegParser@ATL@@KAPEAUHKEY__@@PEA_W@Z 0000000180008958 f i ImageScanner.obj
 0001:000079bc       ?IDataObject_GetData@CComControlBase@ATL@@QEAAJPEAUtagFORMATETC@@PEAUtagSTGMEDIUM@@@Z 00000001800089bc f i ImageScanner.obj
 0001:00007bb0       ?IOleInPlaceObject_InPlaceDeactivate@CComControlBase@ATL@@QEAAJXZ 0000000180008bb0 f i ImageScanner.obj
 0001:00007c50       ?IOleInPlaceObject_SetObjectRects@CComControlBase@ATL@@QEAAJPEBUtagRECT@@0@Z 0000000180008c50 f i ImageScanner.obj
 0001:00007d40       ?IOleInPlaceObject_UIDeactivate@CComControlBase@ATL@@QEAAJXZ 0000000180008d40 f i ImageScanner.obj
 0001:00007e4c       ?IOleObject_Close@CComControlBase@ATL@@QEAAJK@Z 0000000180008e4c f i ImageScanner.obj
 0001:00007f64       ?IOleObject_SetClientSite@CComControlBase@ATL@@QEAAJPEAUIOleClientSite@@@Z 0000000180008f64 f i ImageScanner.obj
 0001:00007fdc       ?IOleObject_SetExtent@CComControlBase@ATL@@QEAAJKPEAUtagSIZE@@@Z 0000000180008fdc f i ImageScanner.obj
 0001:00008074       ?IPSI_GetIPersistStreamInit@?$IPersistStorageImpl@VCOPOSImageScanner@@@ATL@@AEAAPEAUIPersistStreamInit@@XZ 0000000180009074 f i ImageScanner.obj
 0001:000080d0       ?IQuickActivate_QuickActivate@CComControlBase@ATL@@QEAAJPEAUtagQACONTAINER@@PEAUtagQACONTROL@@@Z 00000001800090d0 f i ImageScanner.obj
 0001:00008394       ?IViewObject_Draw@CComControlBase@ATL@@QEAAJKJPEAXPEAUtagDVTARGETDEVICE@@PEAUHDC__@@2PEBU_RECTL@@3@Z 0000000180009394 f i ImageScanner.obj
 0001:000084a8       ?InPlaceActivate@CComControlBase@ATL@@QEAAJJPEBUtagRECT@@@Z 00000001800094a8 f i ImageScanner.obj
 0001:000087e0       ?Init@?$CComEnumImpl@UIEnumConnectionPoints@@$1?_GUID_b196b285_bab4_101a_b69c_00aa00341d07@@3U__s_GUID@@BPEAUIConnectionPoint@@V?$_CopyInterface@UIConnectionPoint@@@ATL@@@ATL@@QEAAJPEAPEAUIConnectionPoint@@0PEAUIUnknown@@W4CComEnumFlags@2@@Z 00000001800097e0 f i ImageScanner.obj
 0001:00008900       ?Init@?$CComEnumImpl@UIEnumConnections@@$1?_GUID_b196b287_bab4_101a_b69c_00aa00341d07@@3U__s_GUID@@BUtagCONNECTDATA@@V?$_Copy@UtagCONNECTDATA@@@ATL@@@ATL@@QEAAJPEAUtagCONNECTDATA@@0PEAUIUnknown@@W4CComEnumFlags@2@@Z 0000000180009900 f i ImageScanner.obj
 0001:00008a24       ?IsEqualObject@?$CComPtrBase@UIOleClientSite@@@ATL@@QEAA_NPEAUIUnknown@@@Z 0000000180009a24 f i ImageScanner.obj
 0001:00008a24       ?IsEqualObject@?$CComPtrBase@UITypeInfo@@@ATL@@QEAA_NPEAUIUnknown@@@Z 0000000180009a24 f i ImageScanner.obj
 0001:00008ab0       ?LoadNameCache@CComTypeInfoHolder@ATL@@QEAAJPEAUITypeInfo@@@Z 0000000180009ab0 f i ImageScanner.obj
 0001:00008c34       ?Lookup@?$CSimpleMap@PEA_WPEA_WVCExpansionVectorEqualHelper@ATL@@@ATL@@QEBAPEA_WAEBQEA_W@Z 0000000180009c34 f i ImageScanner.obj
 0001:00008cc0       ?NextToken@CRegParser@ATL@@IEAAJPEA_W@Z 0000000180009cc0 f i ImageScanner.obj
 0001:00008e78       ?OnKillFocus@CComControlBase@ATL@@QEAA_JI_K_JAEAH@Z 0000000180009e78 f i ImageScanner.obj
 0001:00008f14       ?OnMouseActivate@CComControlBase@ATL@@QEAA_JI_K_JAEAH@Z 0000000180009f14 f i ImageScanner.obj
 0001:00008fb4       ?OnPaint@CComControlBase@ATL@@QEAA_JI_K_JAEAH@Z 0000000180009fb4 f i ImageScanner.obj
 0001:000090a0       ?OnSetFocus@CComControlBase@ATL@@QEAA_JI_K_JAEAH@Z 000000018000a0a0 f i ImageScanner.obj
 0001:0000919c       ?Open@CRegKey@ATL@@QEAAJPEAUHKEY__@@PEB_WK@Z 000000018000a19c f i ImageScanner.obj
 0001:00009218       ?PreProcessBuffer@CRegParser@ATL@@QEAAJPEA_WPEAPEA_W@Z 000000018000a218 f i ImageScanner.obj
 0001:0000959c       ?ProcessWindowMessage@?$CComControl@VCOPOSImageScanner@@V?$CWindowImpl@VCOPOSImageScanner@@VCWindow@ATL@@V?$CWinTraits@$0FGAAAAAA@$0A@@3@@ATL@@@ATL@@UEAAHPEAUHWND__@@I_K_JAEA_JK@Z 000000018000a59c f i ImageScanner.obj
 0001:00009680       ?PutProperty@?$CComPtr@UIDispatch@@@ATL@@SAJPEAUIDispatch@@JPEAUtagVARIANT@@@Z 000000018000a680 f i ImageScanner.obj
 0001:00009784       ?ReadFromStream@CComBSTR@ATL@@QEAAJPEAUIStream@@@Z 000000018000a784 f i ImageScanner.obj
 0001:000098e0       ?ReadFromStream@CComVariant@ATL@@QEAAJPEAUIStream@@GTClassesAllowedInStream@2@K@Z 000000018000a8e0 f i ImageScanner.obj
 0001:00009af0       ?RecurseDeleteKey@CRegKey@ATL@@QEAAJPEB_W@Z 000000018000aaf0 f i ImageScanner.obj
 0001:00009c14       ?RegCreateKeyExW@CAtlTransactionManager@ATL@@QEAAJPEAUHKEY__@@PEB_WKPEA_WKKQEAU_SECURITY_ATTRIBUTES@@PEAPEAU3@PEAK@Z 000000018000ac14 f i ImageScanner.obj
 0001:00009d48       ?RegDeleteKeyW@CAtlTransactionManager@ATL@@QEAAJPEAUHKEY__@@PEB_W@Z 000000018000ad48 f i ImageScanner.obj
 0001:00009dd4       ?RegOpenKeyExW@CAtlTransactionManager@ATL@@QEAAJPEAUHKEY__@@PEB_WKKPEAPEAU3@@Z 000000018000add4 f i ImageScanner.obj
 0001:00009e8c       ?RegisterBuffer@CRegParser@ATL@@QEAAJPEA_WH@Z 000000018000ae8c f i ImageScanner.obj
 0001:00009ff4       ?RegisterFromResource@CRegObject@ATL@@IEAAJPEB_W00H@Z 000000018000aff4 f i ImageScanner.obj
 0001:0000a1b0       ?RegisterServer@CComModule@ATL@@QEAAJHPEBU_GUID@@@Z 000000018000b1b0 f i ImageScanner.obj
 0001:0000a270       ?RegisterSubkeys@CRegParser@ATL@@IEAAJPEA_WPEAUHKEY__@@HH@Z 000000018000b270 f i ImageScanner.obj
 0001:0000a960       ?SendOnDataChange@CComControlBase@ATL@@QEAAJK@Z 000000018000b960 f i ImageScanner.obj
 0001:0000a9d0       ?SetControlFocus@CComControlBase@ATL@@QEAAHH@Z 000000018000b9d0 f i ImageScanner.obj
 0001:0000aaac       ?SkipAssignment@CRegParser@ATL@@IEAAJPEA_W@Z 000000018000baac f i ImageScanner.obj
 0001:0000ab50       ?Term@CComModule@ATL@@QEAAXXZ 000000018000bb50 f i ImageScanner.obj
 0001:0000abfc       ?UnregisterServer@CComModule@ATL@@QEAAJHPEBU_GUID@@@Z 000000018000bbfc f i ImageScanner.obj
 0001:0000acac       ?UpdateRegistryFromResource@CAtlModule@ATL@@QEAAJIHPEAU_ATL_REGMAP_ENTRY@2@@Z 000000018000bcac f i ImageScanner.obj
 0001:0000afe4       ?UpdateRegistryFromResource@CAtlModule@ATL@@QEAAJPEB_WHPEAU_ATL_REGMAP_ENTRY@2@@Z 000000018000bfe4 f i ImageScanner.obj
 0001:0000b33c       ?VTFromRegType@CRegParser@ATL@@KAHPEB_WAEAG@Z 000000018000c33c f i ImageScanner.obj
 0001:0000b3d8       ?WindowProc@?$CWindowImplBaseT@VCWindow@ATL@@V?$CWinTraits@$0FGAAAAAA@$0A@@2@@ATL@@SA_JPEAUHWND__@@I_K_J@Z 000000018000c3d8 f i ImageScanner.obj
 0001:0000b544       ?WriteToStream@CComBSTR@ATL@@QEAAJPEAUIStream@@@Z 000000018000c544 f i ImageScanner.obj
 0001:0000b5c4       ?WriteToStream@CComVariant@ATL@@QEAAJPEAUIStream@@@Z 000000018000c5c4 f i ImageScanner.obj
 0001:0000b7d8       ?WriteToStream@CComVariant@ATL@@QEAAJPEAUIStream@@G@Z 000000018000c7d8 f i ImageScanner.obj
 0001:0000b870       ?_AtlVerifyStackAvailable@_ATL_SAFE_ALLOCA_IMPL@ATL@@YA_N_K@Z 000000018000c870 f i ImageScanner.obj
 0001:0000b8f4       DllCanUnloadNow            000000018000c8f4 f   ImageScanner.obj
 0001:0000b900       DllGetClassObject          000000018000c900 f   ImageScanner.obj
 0001:0000b918       DllMain                    000000018000c918 f   ImageScanner.obj
 0001:0000b9c0       DllRegisterServer          000000018000c9c0 f   ImageScanner.obj
 0001:0000b9d4       DllUnregisterServer        000000018000c9d4 f   ImageScanner.obj
 0001:0000b9e8       __local_stdio_printf_options 000000018000c9e8 f i ImageScanner.obj
 0001:0000ba78       swprintf_s                 000000018000ca78 f i ImageScanner.obj
 0001:0000bacc       ??0COPOSImageScanner@@QEAA@XZ 000000018000cacc f   ImageScannerImpl.obj
 0001:0000bb94       ??1?$IConnectionPointImpl@VCOPOSImageScanner@@$1?IID_IPropertyNotifySink@@3U_GUID@@BVCComDynamicUnkArray@ATL@@@ATL@@QEAA@XZ 000000018000cb94 f i ImageScannerImpl.obj
 0001:0000bb94       ??1?$IConnectionPointImpl@VCOPOSImageScanner@@$1?DIID__IOPOSImageScannerEvents@@3U_GUID@@BVCComDynamicUnkArray@ATL@@@ATL@@QEAA@XZ 000000018000cb94 f i ImageScannerImpl.obj
 0001:0000bbf0       ??1CComControlBase@ATL@@UEAA@XZ 000000018000cbf0 f i ImageScannerImpl.obj
 0001:0000bc6c       ??1COPOSImageScanner@@UEAA@XZ 000000018000cc6c f   ImageScannerImpl.obj
 0001:0000bcd0       ?CheckHealth@COPOSImageScanner@@UEAAJJPEAJ@Z 000000018000ccd0 f   ImageScannerImpl.obj
 0001:0000bd4c       ?ClaimDevice@COPOSImageScanner@@UEAAJJPEAJ@Z 000000018000cd4c f   ImageScannerImpl.obj
 0001:0000bdec       ?ClearInput@COPOSImageScanner@@UEAAJPEAJ@Z 000000018000cdec f   ImageScannerImpl.obj
 0001:0000be14       ?ClearInputProperties@COPOSImageScanner@@UEAAJPEAJ@Z 000000018000ce14 f   ImageScannerImpl.obj
 0001:0000be3c       ?Close@COPOSImageScanner@@UEAAJPEAJ@Z 000000018000ce3c f   ImageScannerImpl.obj
 0001:0000bef4       ?CompareFirmwareVersion@COPOSImageScanner@@UEAAJPEA_WPEAJ1@Z 000000018000cef4 f   ImageScannerImpl.obj
 0001:0000bfd0       ?DirectIO@COPOSImageScanner@@UEAAJJPEAJPEAPEA_W0@Z 000000018000cfd0 f   ImageScannerImpl.obj
 0001:0000c0cc       ?DoInvoke@COPOSImageScanner@@IEAAJJPEAVOposVariant@@IHPEAJ_N@Z 000000018000d0cc f   ImageScannerImpl.obj
 0001:0000c200       ?EventInit@COPOSImageScanner@@IEAAJXZ 000000018000d200 f i ImageScannerImpl.obj
 0001:0000c348       ?EventUninit@COPOSImageScanner@@IEAAXXZ 000000018000d348 f i ImageScannerImpl.obj
 0001:0000c3ac       ?EventWindowProc@COPOSImageScanner@@IEAA_JI_K_J@Z 000000018000d3ac f i ImageScannerImpl.obj
 0001:0000c538       ?FinalConstruct@COPOSImageScanner@@QEAAJXZ 000000018000d538 f   ImageScannerImpl.obj
 0001:0000c574       ?FreezeEvents@COPOSImageScanner@@MEAAJH@Z 000000018000d574 f   ImageScannerImpl.obj
 0001:0000c5e8       ?GetOposProp@COPOSImageScanner@@IEAAJJPEAJJ@Z 000000018000d5e8 f   ImageScannerImpl.obj
 0001:0000c704       ?GetOposProp@COPOSImageScanner@@IEAAJJPEAPEA_WJ@Z 000000018000d704 f   ImageScannerImpl.obj
 0001:0000c830       ?OnDraw@COPOSImageScanner@@MEAAJAEAUATL_DRAWINFO@@@Z 000000018000d830 f   ImageScannerImpl.obj
 0001:0000c91c       ?Open@COPOSImageScanner@@UEAAJPEA_WPEAJ@Z 000000018000d91c f   ImageScannerImpl.obj
 0001:0000d1a4       ?ReleaseDevice@COPOSImageScanner@@UEAAJPEAJ@Z 000000018000e1a4 f   ImageScannerImpl.obj
 0001:0000d210       ?ResetStatistics@COPOSImageScanner@@UEAAJPEA_WPEAJ@Z 000000018000e210 f   ImageScannerImpl.obj
 0001:0000d298       ?RetrieveStatistics@COPOSImageScanner@@UEAAJPEAPEA_WPEAJ@Z 000000018000e298 f   ImageScannerImpl.obj
 0001:0000d320       ?SOProcessID@COPOSImageScanner@@UEAAJPEAJ@Z 000000018000e320 f   ImageScannerImpl.obj
 0001:0000d33c       ?SetCOFreezeEvents@COPOSImageScanner@@IEAAXF@Z 000000018000e33c f   ImageScannerImpl.obj
 0001:0000d420       ?SetOposProp@COPOSImageScanner@@IEAAJJJJ@Z 000000018000e420 f   ImageScannerImpl.obj
 0001:0000d580       ?StartSession@COPOSImageScanner@@UEAAJPEAJ@Z 000000018000e580 f   ImageScannerImpl.obj
 0001:0000d5a8       ?StopSession@COPOSImageScanner@@UEAAJPEAJ@Z 000000018000e5a8 f   ImageScannerImpl.obj
 0001:0000d5d0       ?UpdateFirmware@COPOSImageScanner@@UEAAJPEA_WPEAJ@Z 000000018000e5d0 f   ImageScannerImpl.obj
 0001:0000d658       ?UpdateStatistics@COPOSImageScanner@@UEAAJPEA_WPEAJ@Z 000000018000e658 f   ImageScannerImpl.obj
 0001:0000d6e0       ?get_AimMode@COPOSImageScanner@@UEAAJPEAF@Z 000000018000e6e0 f   ImageScannerImpl.obj
 0001:0000d714       ?get_AutoDisable@COPOSImageScanner@@UEAAJPEAF@Z 000000018000e714 f   ImageScannerImpl.obj
 0001:0000d748       ?get_BinaryConversion@COPOSImageScanner@@UEAAJPEAJ@Z 000000018000e748 f   ImageScannerImpl.obj
 0001:0000d75c       ?get_BitsPerPixel@COPOSImageScanner@@UEAAJPEAJ@Z 000000018000e75c f   ImageScannerImpl.obj
 0001:0000d770       ?get_CapAim@COPOSImageScanner@@UEAAJPEAF@Z 000000018000e770 f   ImageScannerImpl.obj
 0001:0000d7a4       ?get_CapCompareFirmwareVersion@COPOSImageScanner@@UEAAJPEAF@Z 000000018000e7a4 f   ImageScannerImpl.obj
 0001:0000d7d8       ?get_CapDecodeData@COPOSImageScanner@@UEAAJPEAF@Z 000000018000e7d8 f   ImageScannerImpl.obj
 0001:0000d80c       ?get_CapHostTriggered@COPOSImageScanner@@UEAAJPEAF@Z 000000018000e80c f   ImageScannerImpl.obj
 0001:0000d840       ?get_CapIlluminate@COPOSImageScanner@@UEAAJPEAF@Z 000000018000e840 f   ImageScannerImpl.obj
 0001:0000d874       ?get_CapImageData@COPOSImageScanner@@UEAAJPEAF@Z 000000018000e874 f   ImageScannerImpl.obj
 0001:0000d8a8       ?get_CapImageQuality@COPOSImageScanner@@UEAAJPEAF@Z 000000018000e8a8 f   ImageScannerImpl.obj
 0001:0000d8dc       ?get_CapPowerReporting@COPOSImageScanner@@UEAAJPEAJ@Z 000000018000e8dc f   ImageScannerImpl.obj
 0001:0000d8f0       ?get_CapStatisticsReporting@COPOSImageScanner@@UEAAJPEAF@Z 000000018000e8f0 f   ImageScannerImpl.obj
 0001:0000d924       ?get_CapUpdateFirmware@COPOSImageScanner@@UEAAJPEAF@Z 000000018000e924 f   ImageScannerImpl.obj
 0001:0000d958       ?get_CapUpdateStatistics@COPOSImageScanner@@UEAAJPEAF@Z 000000018000e958 f   ImageScannerImpl.obj
 0001:0000d98c       ?get_CapVideoData@COPOSImageScanner@@UEAAJPEAF@Z 000000018000e98c f   ImageScannerImpl.obj
 0001:0000d9c0       ?get_CheckHealthText@COPOSImageScanner@@UEAAJPEAPEA_W@Z 000000018000e9c0 f   ImageScannerImpl.obj
 0001:0000d9d4       ?get_Claimed@COPOSImageScanner@@UEAAJPEAF@Z 000000018000e9d4 f   ImageScannerImpl.obj
 0001:0000da08       ?get_ControlObjectDescription@COPOSImageScanner@@UEAAJPEAPEA_W@Z 000000018000ea08 f   ImageScannerImpl.obj
 0001:0000da6c       ?get_ControlObjectVersion@COPOSImageScanner@@UEAAJPEAJ@Z 000000018000ea6c f   ImageScannerImpl.obj
 0001:0000da78       ?get_DataCount@COPOSImageScanner@@UEAAJPEAJ@Z 000000018000ea78 f   ImageScannerImpl.obj
 0001:0000da8c       ?get_DataEventEnabled@COPOSImageScanner@@UEAAJPEAF@Z 000000018000ea8c f   ImageScannerImpl.obj
 0001:0000dac0       ?get_DeviceDescription@COPOSImageScanner@@UEAAJPEAPEA_W@Z 000000018000eac0 f   ImageScannerImpl.obj
 0001:0000dad4       ?get_DeviceEnabled@COPOSImageScanner@@UEAAJPEAF@Z 000000018000ead4 f   ImageScannerImpl.obj
 0001:0000db08       ?get_DeviceName@COPOSImageScanner@@UEAAJPEAPEA_W@Z 000000018000eb08 f   ImageScannerImpl.obj
 0001:0000db1c       ?get_FrameData@COPOSImageScanner@@UEAAJPEAPEA_W@Z 000000018000eb1c f   ImageScannerImpl.obj
 0001:0000db30       ?get_FrameType@COPOSImageScanner@@UEAAJPEAJ@Z 000000018000eb30 f   ImageScannerImpl.obj
 0001:0000db44       ?get_FreezeEvents@COPOSImageScanner@@UEAAJPEAF@Z 000000018000eb44 f   ImageScannerImpl.obj
 0001:0000db74       ?get_IlluminateMode@COPOSImageScanner@@UEAAJPEAF@Z 000000018000eb74 f   ImageScannerImpl.obj
 0001:0000dba8       ?get_ImageHeight@COPOSImageScanner@@UEAAJPEAJ@Z 000000018000eba8 f   ImageScannerImpl.obj
 0001:0000dbbc       ?get_ImageLength@COPOSImageScanner@@UEAAJPEAJ@Z 000000018000ebbc f   ImageScannerImpl.obj
 0001:0000dbd0       ?get_ImageMode@COPOSImageScanner@@UEAAJPEAJ@Z 000000018000ebd0 f   ImageScannerImpl.obj
 0001:0000dbe4       ?get_ImageQuality@COPOSImageScanner@@UEAAJPEAJ@Z 000000018000ebe4 f   ImageScannerImpl.obj
 0001:0000dbf8       ?get_ImageType@COPOSImageScanner@@UEAAJPEAJ@Z 000000018000ebf8 f   ImageScannerImpl.obj
 0001:0000dc0c       ?get_ImageWidth@COPOSImageScanner@@UEAAJPEAJ@Z 000000018000ec0c f   ImageScannerImpl.obj
 0001:0000dc20       ?get_OpenResult@COPOSImageScanner@@UEAAJPEAJ@Z 000000018000ec20 f   ImageScannerImpl.obj
 0001:0000dc2c       ?get_PowerNotify@COPOSImageScanner@@UEAAJPEAJ@Z 000000018000ec2c f   ImageScannerImpl.obj
 0001:0000dc40       ?get_PowerState@COPOSImageScanner@@UEAAJPEAJ@Z 000000018000ec40 f   ImageScannerImpl.obj
 0001:0000dc54       ?get_ResultCode@COPOSImageScanner@@UEAAJPEAJ@Z 000000018000ec54 f   ImageScannerImpl.obj
 0001:0000dc90       ?get_ResultCodeExtended@COPOSImageScanner@@UEAAJPEAJ@Z 000000018000ec90 f   ImageScannerImpl.obj
 0001:0000dca4       ?get_ServiceObjectDescription@COPOSImageScanner@@UEAAJPEAPEA_W@Z 000000018000eca4 f   ImageScannerImpl.obj
 0001:0000dcb8       ?get_ServiceObjectVersion@COPOSImageScanner@@UEAAJPEAJ@Z 000000018000ecb8 f   ImageScannerImpl.obj
 0001:0000dccc       ?get_State@COPOSImageScanner@@UEAAJPEAJ@Z 000000018000eccc f   ImageScannerImpl.obj
 0001:0000dcf8       ?get_VideoCount@COPOSImageScanner@@UEAAJPEAJ@Z 000000018000ecf8 f   ImageScannerImpl.obj
 0001:0000dd0c       ?get_VideoRate@COPOSImageScanner@@UEAAJPEAJ@Z 000000018000ed0c f   ImageScannerImpl.obj
 0001:0000dd20       ?put_AimMode@COPOSImageScanner@@UEAAJF@Z 000000018000ed20 f   ImageScannerImpl.obj
 0001:0000dd3c       ?put_AutoDisable@COPOSImageScanner@@UEAAJF@Z 000000018000ed3c f   ImageScannerImpl.obj
 0001:0000dd54       ?put_BinaryConversion@COPOSImageScanner@@UEAAJJ@Z 000000018000ed54 f   ImageScannerImpl.obj
 0001:0000dd68       ?put_DataEventEnabled@COPOSImageScanner@@UEAAJF@Z 000000018000ed68 f   ImageScannerImpl.obj
 0001:0000dd80       ?put_DeviceEnabled@COPOSImageScanner@@UEAAJF@Z 000000018000ed80 f   ImageScannerImpl.obj
 0001:0000dd98       ?put_FreezeEvents@COPOSImageScanner@@UEAAJF@Z 000000018000ed98 f   ImageScannerImpl.obj
 0001:0000dde8       ?put_IlluminateMode@COPOSImageScanner@@UEAAJF@Z 000000018000ede8 f   ImageScannerImpl.obj
 0001:0000de04       ?put_ImageMode@COPOSImageScanner@@UEAAJJ@Z 000000018000ee04 f   ImageScannerImpl.obj
 0001:0000de18       ?put_ImageQuality@COPOSImageScanner@@UEAAJJ@Z 000000018000ee18 f   ImageScannerImpl.obj
 0001:0000de2c       ?put_PowerNotify@COPOSImageScanner@@UEAAJJ@Z 000000018000ee2c f   ImageScannerImpl.obj
 0001:0000de40       ?put_VideoCount@COPOSImageScanner@@UEAAJJ@Z 000000018000ee40 f   ImageScannerImpl.obj
 0001:0000de54       ?put_VideoRate@COPOSImageScanner@@UEAAJJ@Z 000000018000ee54 f   ImageScannerImpl.obj
 0001:0000de68       ?s_EventWindowProc@COPOSImageScanner@@KA_JPEAUHWND__@@I_K_J@Z 000000018000ee68 f i ImageScannerImpl.obj
 0001:0000dee4       ??_U@YAPEAX_K@Z            000000018000eee4 f   LIBCMT:new_array.obj
 0001:0000deec       ??3@YAXPEAX_K@Z            000000018000eeec f   LIBCMT:delete_scalar_size.obj
 0001:0000deec       ??_V@YAXPEAX@Z             000000018000eeec f   LIBCMT:delete_array.obj
 0001:0000def4       ??_V@YAXPEAX_K@Z           000000018000eef4 f   LIBCMT:delete_array_size.obj
 0001:0000defc       __scrt_acquire_startup_lock 000000018000eefc f   LIBCMT:utility.obj
 0001:0000df38       __scrt_dllmain_after_initialize_c 000000018000ef38 f   LIBCMT:utility.obj
 0001:0000df6c       __scrt_dllmain_before_initialize_c 000000018000ef6c f   LIBCMT:utility.obj
 0001:0000df84       __scrt_dllmain_crt_thread_attach 000000018000ef84 f   LIBCMT:utility.obj
 0001:0000dfac       __scrt_dllmain_crt_thread_detach 000000018000efac f   LIBCMT:utility.obj
 0001:0000dfc4       __scrt_dllmain_exception_filter 000000018000efc4 f   LIBCMT:utility.obj
 0001:0000e024       __scrt_dllmain_uninitialize_c 000000018000f024 f   LIBCMT:utility.obj
 0001:0000e054       __scrt_dllmain_uninitialize_critical 000000018000f054 f   LIBCMT:utility.obj
 0001:0000e068       __scrt_initialize_crt      000000018000f068 f   LIBCMT:utility.obj
 0001:0000e0b4       __scrt_initialize_onexit_tables 000000018000f0b4 f   LIBCMT:utility.obj
 0001:0000e18c       __scrt_is_nonwritable_in_current_image 000000018000f18c f   LIBCMT:utility.obj
 0001:0000e228       __scrt_release_startup_lock 000000018000f228 f   LIBCMT:utility.obj
 0001:0000e24c       __scrt_uninitialize_crt    000000018000f24c f   LIBCMT:utility.obj
 0001:0000e278       _onexit                    000000018000f278 f   LIBCMT:utility.obj
 0001:0000e2c8       atexit                     000000018000f2c8 f   LIBCMT:utility.obj
 0001:0000e2e0       ??3@YAXPEAX@Z              000000018000f2e0 f   LIBCMT:delete_scalar.obj
 0001:0000e470       _Init_thread_footer        000000018000f470 f   LIBCMT:thread_safe_statics.obj
 0001:0000e4d0       _Init_thread_header        000000018000f4d0 f   LIBCMT:thread_safe_statics.obj
 0001:0000e538       _Init_thread_notify        000000018000f538 f   LIBCMT:thread_safe_statics.obj
 0001:0000e588       _Init_thread_wait          000000018000f588 f   LIBCMT:thread_safe_statics.obj
 0001:0000e600       __raise_securityfailure    000000018000f600 f   LIBCMT:gs_report.obj
 0001:0000e634       __report_gsfailure         000000018000f634 f   LIBCMT:gs_report.obj
 0001:0000e708       __report_rangecheckfailure 000000018000f708 f   LIBCMT:gs_report.obj
 0001:0000e71c       __report_securityfailure   000000018000f71c f   LIBCMT:gs_report.obj
 0001:0000e89c       ??2@YAPEAX_KAEBUnothrow_t@std@@@Z 000000018000f89c f   LIBCMT:new_scalar_nothrow.obj
 0001:0000e8bc       ??_U@YAPEAX_KAEBUnothrow_t@std@@@Z 000000018000f8bc f   LIBCMT:new_array_nothrow.obj
 0001:0000e8c4       __GSHandlerCheck           000000018000f8c4 f   LIBCMT:_gshandler_.obj
 0001:0000e8e4       __GSHandlerCheckCommon     000000018000f8e4 f   LIBCMT:_gshandler_.obj
 0001:0000e940       __GSHandlerCheck_SEH       000000018000f940 f   LIBCMT:_gshandlerseh_.obj
 0001:0000e9e0       _alloca_probe              000000018000f9e0 f   LIBCMT:_chkstk_.obj
 0001:0000e9e0       __chkstk                   000000018000f9e0 f   LIBCMT:_chkstk_.obj
 0001:0000ea50       __security_check_cookie    000000018000fa50 f   LIBCMT:_amdsecgs_.obj
 0001:0000eda4       _DllMainCRTStartup         000000018000fda4 f   LIBCMT:dll_dllmain.obj
 0001:0000ede4       ??2@YAPEAX_K@Z             000000018000fde4 f   LIBCMT:new_scalar.obj
 0001:0000ee20       __isa_available_init       000000018000fe20 f   LIBCMT:_cpu_disp_.obj
 0001:0000efdc       _get_startup_argv_mode     000000018000ffdc f   LIBCMT:argv_mode.obj
 0001:0000efe4       __scrt_is_ucrt_dll_in_use  000000018000ffe4 f   LIBCMT:ucrt_detection.obj
 0001:0000eff0       __crt_debugger_hook        000000018000fff0 f   LIBCMT:utility_desktop.obj
 0001:0000eff8       __scrt_fastfail            000000018000fff8 f   LIBCMT:utility_desktop.obj
 0001:0000f144       _guard_check_icall_nop     0000000180010144 f i LIBCMT:guard_support.obj
 0001:0000f148       __security_init_cookie     0000000180010148 f   LIBCMT:gs_support.obj
 0001:0000f1f4       ?__scrt_initialize_type_info@@YAXXZ 00000001800101f4 f   LIBCMT:tncleanup.obj
 0001:0000f204       ?__scrt_uninitialize_type_info@@YAXXZ 0000000180010204 f   LIBCMT:tncleanup.obj
 0001:0000f210       __local_stdio_scanf_options 0000000180010210 f i LIBCMT:default_local_stdio_options.obj
 0001:0000f218       __scrt_initialize_default_local_stdio_options 0000000180010218 f   LIBCMT:default_local_stdio_options.obj
 0001:0000f234       __scrt_get_dyn_tls_init_callback 0000000180010234 f   LIBCMT:dyn_tls_init.obj
 0001:0000f23c       _RTC_Initialize            000000018001023c f   LIBCMT:_initsect_.obj
 0001:0000f278       _RTC_Terminate             0000000180010278 f   LIBCMT:_initsect_.obj
 0001:0000f2b4       ??0bad_alloc@std@@QEAA@AEBV01@@Z 00000001800102b4 f i LIBCMT:throw_bad_alloc.obj
 0001:0000f2f4       ??0bad_alloc@std@@QEAA@XZ  00000001800102f4 f i LIBCMT:throw_bad_alloc.obj
 0001:0000f314       ??0bad_array_new_length@std@@QEAA@AEBV01@@Z 0000000180010314 f i LIBCMT:throw_bad_alloc.obj
 0001:0000f354       ??0bad_array_new_length@std@@QEAA@XZ 0000000180010354 f i LIBCMT:throw_bad_alloc.obj
 0001:0000f374       ??0exception@std@@QEAA@AEBV01@@Z 0000000180010374 f i LIBCMT:throw_bad_alloc.obj
 0001:0000f3ac       ??1bad_alloc@std@@UEAA@XZ  00000001800103ac f i LIBCMT:throw_bad_alloc.obj
 0001:0000f3ac       ??1bad_array_new_length@std@@UEAA@XZ 00000001800103ac f i LIBCMT:throw_bad_alloc.obj
 0001:0000f3ac       ??1bad_exception@std@@UEAA@XZ 00000001800103ac f i libvcruntime:frame.obj
 0001:0000f3c0       ??_Eexception@std@@UEAAPEAXI@Z 00000001800103c0 f i LIBCMT:throw_bad_alloc.obj
 0001:0000f3c0       ??_Gexception@std@@UEAAPEAXI@Z 00000001800103c0 f i LIBCMT:throw_bad_alloc.obj
 0001:0000f3c0       ??_Gbad_alloc@std@@UEAAPEAXI@Z 00000001800103c0 f i LIBCMT:throw_bad_alloc.obj
 0001:0000f3c0       ??_Gbad_exception@std@@UEAAPEAXI@Z 00000001800103c0 f i libvcruntime:frame.obj
 0001:0000f3c0       ??_Ebad_array_new_length@std@@UEAAPEAXI@Z 00000001800103c0 f i LIBCMT:throw_bad_alloc.obj
 0001:0000f3c0       ??_Ebad_alloc@std@@UEAAPEAXI@Z 00000001800103c0 f i LIBCMT:throw_bad_alloc.obj
 0001:0000f3c0       ??_Gbad_array_new_length@std@@UEAAPEAXI@Z 00000001800103c0 f i LIBCMT:throw_bad_alloc.obj
 0001:0000f3c0       ??_Ebad_exception@std@@UEAAPEAXI@Z 00000001800103c0 f i libvcruntime:frame.obj
 0001:0000f404       ?__scrt_throw_std_bad_alloc@@YAXXZ 0000000180010404 f   LIBCMT:throw_bad_alloc.obj
 0001:0000f424       ?__scrt_throw_std_bad_array_new_length@@YAXXZ 0000000180010424 f   LIBCMT:throw_bad_alloc.obj
 0001:0000f444       ?what@exception@std@@UEBAPEBDXZ 0000000180010444 f i LIBCMT:throw_bad_alloc.obj
 0001:0000f460       ??_Gtype_info@@UEAAPEAXI@Z 0000000180010460 f i LIBCMT:std_type_info_static.obj
 0001:0000f460       ??_Etype_info@@UEAAPEAXI@Z 0000000180010460 f i LIBCMT:std_type_info_static.obj
 0001:0000f48c       ??0CAtlBaseModule@ATL@@QEAA@XZ 000000018001048c f   atls:atlbase.obj
 0001:0000f534       ??1CAtlBaseModule@ATL@@QEAA@XZ 0000000180010534 f   atls:atlbase.obj
 0001:0000f668       ?__AllocStdCallThunk_cmn@@YAPEAXXZ 0000000180010668 f   atls:atlthunk.obj
 0001:0000f7c0       AtlThunk_AllocateData      00000001800107c0 f   atls:atlthunk.obj
 0001:0000f83c       AtlThunk_DataToCode        000000018001083c f   atls:atlthunk.obj
 0001:0000f890       AtlThunk_FreeData          0000000180010890 f   atls:atlthunk.obj
 0001:0000f8f0       AtlThunk_InitData          00000001800108f0 f   atls:atlthunk.obj
 0001:0000f9b0       memset_repmovs             00000001800109b0 f   libvcruntime:memset.obj
 0001:0000f9d0       memset                     00000001800109d0 f   libvcruntime:memset.obj
 0001:0000fb60       _purecall                  0000000180010b60 f   libvcruntime:purevirt.obj
 0001:0000fb90       wcsstr                     0000000180010b90 f   libvcruntime:wcsstr.obj
 0001:0000fdc0       memcmp                     0000000180010dc0 f   libvcruntime:memcmp.obj
 0001:0000fea0       memcpy_repmovs             0000000180010ea0 f   libvcruntime:memcpy.obj
 0001:0000fec0       memcpy                     0000000180010ec0 f   libvcruntime:memcpy.obj
 0001:0000fec0       memmove                    0000000180010ec0 f   libvcruntime:memcpy.obj
 0001:000102f8       __vcrt_initialize          00000001800112f8 f   libvcruntime:initialization.obj
 0001:0001032c       __vcrt_thread_attach       000000018001132c f   libvcruntime:initialization.obj
 0001:00010340       __vcrt_thread_detach       0000000180011340 f   libvcruntime:initialization.obj
 0001:00010354       __vcrt_uninitialize        0000000180011354 f   libvcruntime:initialization.obj
 0001:00010374       __vcrt_uninitialize_critical 0000000180011374 f   libvcruntime:initialization.obj
 0001:00010384       __C_specific_handler       0000000180011384 f   libvcruntime:_riscchandler_.obj
 0001:00010590       __DestructExceptionObject  0000000180011590 f   libvcruntime:ehhelpers.obj
 0001:00010604       ?_CallMemberFunction0@@YAXQEAX0@Z 0000000180011604 f i libvcruntime:ehhelpers.obj
 0001:00010608       _IsExceptionObjectToBeDestroyed 0000000180011608 f   libvcruntime:ehhelpers.obj
 0001:00010638       __AdjustPointer            0000000180011638 f   libvcruntime:ehhelpers.obj
 0001:0001065c       __FrameUnwindFilter        000000018001165c f   libvcruntime:ehhelpers.obj
 0001:000106a8       __std_terminate            00000001800116a8 f   libvcruntime:ehhelpers.obj
 0001:000106b4       ??$_CallSETranslator@V__FrameHandler3@@@@YAHPEAUEHExceptionRecord@@PEA_KPEAU_CONTEXT@@PEAU_xDISPATCHER_CONTEXT@@PEBU_s_FuncInfo@@K1@Z 00000001800116b4 f i libvcruntime:risctrnsctrl.obj
 0001:00010708       ?CatchTryBlock@__FrameHandler3@@SAPEBU_s_TryBlockMapEntry@@PEBU_s_FuncInfo@@H@Z 0000000180011708 f   libvcruntime:risctrnsctrl.obj
 0001:00010760       ?ExecutionInCatch@__FrameHandler3@@SA_NPEAU_xDISPATCHER_CONTEXT@@PEBU_s_FuncInfo@@@Z 0000000180011760 f   libvcruntime:risctrnsctrl.obj
 0001:0001078c       ?FrameUnwindToEmptyState@__FrameHandler3@@SAXPEA_KPEAU_xDISPATCHER_CONTEXT@@PEBU_s_FuncInfo@@@Z 000000018001178c f   libvcruntime:risctrnsctrl.obj
 0001:000107f0       ?GetEstablisherFrame@__FrameHandler3@@SAPEA_KPEA_KPEAU_xDISPATCHER_CONTEXT@@PEBU_s_FuncInfo@@0@Z 00000001800117f0 f   libvcruntime:risctrnsctrl.obj
 0001:000108bc       ?GetRangeOfTrysToCheck@__FrameHandler3@@SA?AU?$pair@Viterator@TryBlockMap@__FrameHandler3@@V123@@std@@AEAVTryBlockMap@1@HH@Z 00000001800118bc f   libvcruntime:risctrnsctrl.obj
 0001:00010a18       ?UnwindNestedFrames@__FrameHandler3@@SAXPEA_KPEAUEHExceptionRecord@@PEAU_CONTEXT@@0PEAXPEBU_s_FuncInfo@@HHPEBU_s_HandlerType@@PEAU_xDISPATCHER_CONTEXT@@E@Z 0000000180011a18 f   libvcruntime:risctrnsctrl.obj
 0001:00010b3c       _CreateFrameInfo           0000000180011b3c f   libvcruntime:risctrnsctrl.obj
 0001:00010b78       _FindAndUnlinkFrame        0000000180011b78 f   libvcruntime:risctrnsctrl.obj
 0001:00010bcc       _GetImageBase              0000000180011bcc f   libvcruntime:risctrnsctrl.obj
 0001:00010be0       _GetThrowImageBase         0000000180011be0 f   libvcruntime:risctrnsctrl.obj
 0001:00010bf4       _SetImageBase              0000000180011bf4 f   libvcruntime:risctrnsctrl.obj
 0001:00010c0c       _SetThrowImageBase         0000000180011c0c f   libvcruntime:risctrnsctrl.obj
 0001:00010c24       __CxxFrameHandler3         0000000180011c24 f   libvcruntime:risctrnsctrl.obj
 0001:00010ca4       __std_type_info_compare    0000000180011ca4 f   libvcruntime:std_type_info.obj
 0001:00010ccc       __std_type_info_destroy_list 0000000180011ccc f   libvcruntime:std_type_info.obj
 0001:00010cf8       __std_exception_copy       0000000180011cf8 f   libvcruntime:std_exception.obj
 0001:00010d88       __std_exception_destroy    0000000180011d88 f   libvcruntime:std_exception.obj
 0001:00010db0       _CxxThrowException         0000000180011db0 f   libvcruntime:throw.obj
 0001:00010e70       __vcrt_initialize_pure_virtual_call_handler 0000000180011e70 f   libvcruntime:purevirt_data.obj
 0001:00010e80       __vcrt_freefls             0000000180011e80 f   libvcruntime:per_thread_data.obj
 0001:00010ea0       __vcrt_freeptd             0000000180011ea0 f   libvcruntime:per_thread_data.obj
 0001:00010ef0       __vcrt_getptd              0000000180011ef0 f   libvcruntime:per_thread_data.obj
 0001:00010f0c       __vcrt_getptd_noexit       0000000180011f0c f   libvcruntime:per_thread_data.obj
 0001:00010fd8       __vcrt_initialize_ptd      0000000180011fd8 f   libvcruntime:per_thread_data.obj
 0001:0001102c       __vcrt_uninitialize_ptd    000000018001202c f   libvcruntime:per_thread_data.obj
 0001:00011050       __vcrt_initialize_locks    0000000180012050 f   libvcruntime:locks.obj
 0001:00011098       __vcrt_uninitialize_locks  0000000180012098 f   libvcruntime:locks.obj
 0001:000112a8       __vcrt_FlsAlloc            00000001800122a8 f   libvcruntime:winapi_downlevel.obj
 0001:000112f0       __vcrt_FlsFree             00000001800122f0 f   libvcruntime:winapi_downlevel.obj
 0001:00011338       __vcrt_FlsGetValue         0000000180012338 f   libvcruntime:winapi_downlevel.obj
 0001:00011380       __vcrt_FlsSetValue         0000000180012380 f   libvcruntime:winapi_downlevel.obj
 0001:000113d4       __vcrt_InitializeCriticalSectionEx 00000001800123d4 f   libvcruntime:winapi_downlevel.obj
 0001:00011438       __vcrt_initialize_winapi_thunks 0000000180012438 f   libvcruntime:winapi_downlevel.obj
 0001:00011468       __vcrt_uninitialize_winapi_thunks 0000000180012468 f   libvcruntime:winapi_downlevel.obj
 0001:000114c0       _NLG_Notify                00000001800124c0 f   libvcruntime:_notify_.obj
 0001:000114e0       __NLG_Dispatch2            00000001800124e0 f   libvcruntime:_notify_.obj
 0001:000114f0       __NLG_Return2              00000001800124f0 f   libvcruntime:_notify_.obj
 0001:000114f4       __except_validate_context_record 00000001800124f4 f   libvcruntime:jbcxrval.obj
 0001:0001152c       ?GetCurrentState@__FrameHandler3@@SAHPEA_KPEAU_xDISPATCHER_CONTEXT@@PEBU_s_FuncInfo@@@Z 000000018001252c f   libvcruntime:ehstate.obj
 0001:00011554       ?GetUnwindTryBlock@__FrameHandler3@@SAHPEA_KPEAU_xDISPATCHER_CONTEXT@@PEBU_s_FuncInfo@@@Z 0000000180012554 f   libvcruntime:ehstate.obj
 0001:00011580       ?SetState@__FrameHandler3@@SAXPEA_KPEBU_s_FuncInfo@@H@Z 0000000180012580 f   libvcruntime:ehstate.obj
 0001:0001158c       ?SetUnwindTryBlock@__FrameHandler3@@SAXPEA_KPEAU_xDISPATCHER_CONTEXT@@PEBU_s_FuncInfo@@H@Z 000000018001258c f   libvcruntime:ehstate.obj
 0001:000115c8       ?StateFromControlPc@__FrameHandler3@@SAHPEBU_s_FuncInfo@@PEAU_xDISPATCHER_CONTEXT@@@Z 00000001800125c8 f   libvcruntime:ehstate.obj
 0001:000115d0       ?StateFromIp@__FrameHandler3@@SAHPEBU_s_FuncInfo@@PEAU_xDISPATCHER_CONTEXT@@_K@Z 00000001800125d0 f   libvcruntime:ehstate.obj
 0001:0001205c       ??$TypeMatchHelper@$$CBU_s_HandlerType@@@@YAHPEBU_s_HandlerType@@PEBU_s_CatchableType@@PEBU_s_ThrowInfo@@@Z 000000018001305c f i libvcruntime:frame.obj
 0001:000121a0       ??$__InternalCxxFrameHandler@V__FrameHandler3@@@@YA?AW4_EXCEPTION_DISPOSITION@@PEAUEHExceptionRecord@@PEA_KPEAU_CONTEXT@@PEAU_xDISPATCHER_CONTEXT@@PEBU_s_FuncInfo@@H1E@Z 00000001800131a0 f i libvcruntime:frame.obj
 0001:000123e8       ??0bad_exception@std@@QEAA@AEBV01@@Z 00000001800133e8 f i libvcruntime:frame.obj
 0001:00012428       ??0bad_exception@std@@QEAA@XZ 0000000180013428 f i libvcruntime:frame.obj
 0001:00012448       ?CxxCallCatchBlock@__FrameHandler3@@SAPEAXPEAU_EXCEPTION_RECORD@@@Z 0000000180013448 f   libvcruntime:frame.obj
 0001:000126bc       ?FrameUnwindToState@__FrameHandler3@@SAXPEA_KPEAU_xDISPATCHER_CONTEXT@@PEBU_s_FuncInfo@@H@Z 00000001800136bc f   libvcruntime:frame.obj
 0001:00012850       ?GetHandlerSearchState@__FrameHandler3@@SAHPEA_KPEAU_xDISPATCHER_CONTEXT@@PEBU_s_FuncInfo@@@Z 0000000180013850 f i libvcruntime:frame.obj
 0001:00012a54       ?_CallMemberFunction1@@YAXQEAX00@Z 0000000180013a54 f i libvcruntime:frame.obj
 0001:00012a60       ?_CallMemberFunction2@@YAXQEAX00H@Z 0000000180013a60 f i libvcruntime:frame.obj
 0001:00012a80       _CallSettingFrame          0000000180013a80 f   libvcruntime:handlers.obj
 0001:00012ad0       _CallSettingFrameEncoded   0000000180013ad0 f   libvcruntime:handlers.obj
 0001:00012b18       free                       0000000180013b18 f   libucrt:free.obj
 0001:00012b2c       __acrt_call_reportfault    0000000180013b2c f   libucrt:invalid_parameter.obj
 0001:00012c88       __acrt_initialize_invalid_parameter_handler 0000000180013c88 f   libucrt:invalid_parameter.obj
 0001:00012c90       _invalid_parameter         0000000180013c90 f   libucrt:invalid_parameter.obj
 0001:00012d40       _invalid_parameter_noinfo  0000000180013d40 f   libucrt:invalid_parameter.obj
 0001:00012d60       _invoke_watson             0000000180013d60 f   libucrt:invalid_parameter.obj
 0001:00012da8       __acrt_errno_from_os_error 0000000180013da8 f   libucrt:errno.obj
 0001:00012df0       __acrt_errno_map_os_error  0000000180013df0 f   libucrt:errno.obj
 0001:00012e40       __doserrno                 0000000180013e40 f   libucrt:errno.obj
 0001:00012e60       _errno                     0000000180013e60 f   libucrt:errno.obj
 0001:00012e80       calloc                     0000000180013e80 f   libucrt:calloc.obj
 0001:00012e88       malloc                     0000000180013e88 f   libucrt:malloc.obj
 0001:00012e90       _recalloc                  0000000180013e90 f   libucrt:recalloc.obj
 0001:00012e98       _recalloc_base             0000000180013e98 f   libucrt:recalloc.obj
 0001:00012f30       _resetstkoflw              0000000180013f30 f   libucrt:resetstk.obj
 0001:00013054       wcscat_s                   0000000180014054 f   libucrt:wcscat_s.obj
 0001:000130d4       wcscpy_s                   00000001800140d4 f   libucrt:wcscpy_s.obj
 0001:0001313c       wcsncpy_s                  000000018001413c f   libucrt:wcsncpy_s.obj
 0001:000133f4       ??$ensure_buffer_is_big_enough@D@formatting_buffer@__crt_stdio_output@@QEAA_N_K@Z 00000001800143f4 f i libucrt:output.obj
 0001:000134a0       ??$is_wide_character_specifier@_W@__crt_stdio_output@@YA_N_K_WW4length_modifier@0@@Z 00000001800144a0 f i libucrt:output.obj
 0001:000134e4       ??$type_case_integer_parse_into_buffer@I@?$output_processor@_WV?$string_output_adapter@_W@__crt_stdio_output@@V?$format_validation_base@_WV?$string_output_adapter@_W@__crt_stdio_output@@@2@@__crt_stdio_output@@AEAAXII_N@Z 00000001800144e4 f i libucrt:output.obj
 0001:00013590       ??$type_case_integer_parse_into_buffer@_K@?$output_processor@_WV?$string_output_adapter@_W@__crt_stdio_output@@V?$format_validation_base@_WV?$string_output_adapter@_W@__crt_stdio_output@@@2@@__crt_stdio_output@@AEAAX_KI_N@Z 0000000180014590 f i libucrt:output.obj
 0001:0001363c       ??$write_multiple_characters@V?$string_output_adapter@_W@__crt_stdio_output@@D@__crt_stdio_output@@YAXAEBV?$string_output_adapter@_W@0@DHQEAH@Z 000000018001463c f i libucrt:output.obj
 0001:000136ac       ??0_LocaleUpdate@@QEAA@QEAU__crt_locale_pointers@@@Z 00000001800146ac f i libucrt:output.obj
 0001:0001373c       ?force_decimal_point@__crt_stdio_output@@YAXPEADQEAU__crt_locale_pointers@@@Z 000000018001473c f i libucrt:output.obj
 0001:000137ac       ?parse_int_from_format_string@?$output_processor@_WV?$string_output_adapter@_W@__crt_stdio_output@@V?$format_validation_base@_WV?$string_output_adapter@_W@__crt_stdio_output@@@2@@__crt_stdio_output@@AEAA_NQEAH@Z 00000001800147ac f i libucrt:output.obj
 0001:00013850       ?process@?$output_processor@_WV?$string_output_adapter@_W@__crt_stdio_output@@V?$format_validation_base@_WV?$string_output_adapter@_W@__crt_stdio_output@@@2@@__crt_stdio_output@@QEAAHXZ 0000000180014850 f i libucrt:output.obj
 0001:00013adc       ?state_case_size@?$output_processor@_WV?$string_output_adapter@_W@__crt_stdio_output@@V?$format_validation_base@_WV?$string_output_adapter@_W@__crt_stdio_output@@@2@@__crt_stdio_output@@AEAA_NXZ 0000000180014adc f i libucrt:output.obj
 0001:00013c80       ?state_case_type@?$output_processor@_WV?$string_output_adapter@_W@__crt_stdio_output@@V?$format_validation_base@_WV?$string_output_adapter@_W@__crt_stdio_output@@@2@@__crt_stdio_output@@AEAA_NXZ 0000000180014c80 f i libucrt:output.obj
 0001:00013f4c       ?type_case_Z@?$output_processor@_WV?$string_output_adapter@_W@__crt_stdio_output@@V?$format_validation_base@_WV?$string_output_adapter@_W@__crt_stdio_output@@@2@@__crt_stdio_output@@AEAA_NXZ 0000000180014f4c f i libucrt:output.obj
 0001:00013fcc       ?type_case_a@?$output_processor@_WV?$string_output_adapter@_W@__crt_stdio_output@@V?$format_validation_base@_WV?$string_output_adapter@_W@__crt_stdio_output@@@2@@__crt_stdio_output@@AEAA_NXZ 0000000180014fcc f i libucrt:output.obj
 0001:00014210       ?type_case_c_tchar@?$output_processor@_WV?$string_output_adapter@_W@__crt_stdio_output@@V?$format_validation_base@_WV?$string_output_adapter@_W@__crt_stdio_output@@@2@@__crt_stdio_output@@AEAA_N_W@Z 0000000180015210 f i libucrt:output.obj
 0001:000142b8       ?type_case_integer@?$output_processor@_WV?$string_output_adapter@_W@__crt_stdio_output@@V?$format_validation_base@_WV?$string_output_adapter@_W@__crt_stdio_output@@@2@@__crt_stdio_output@@AEAA_NI_N@Z 00000001800152b8 f i libucrt:output.obj
 0001:00014464       ?type_case_n@?$output_processor@_WV?$string_output_adapter@_W@__crt_stdio_output@@V?$format_validation_base@_WV?$string_output_adapter@_W@__crt_stdio_output@@@2@@__crt_stdio_output@@AEAA_NXZ 0000000180015464 f i libucrt:output.obj
 0001:00014540       ?type_case_s@?$output_processor@_WV?$string_output_adapter@_W@__crt_stdio_output@@V?$format_validation_base@_WV?$string_output_adapter@_W@__crt_stdio_output@@@2@@__crt_stdio_output@@AEAA_NXZ 0000000180015540 f i libucrt:output.obj
 0001:00014608       ?write_stored_string_tchar@?$output_processor@_WV?$string_output_adapter@_W@__crt_stdio_output@@V?$format_validation_base@_WV?$string_output_adapter@_W@__crt_stdio_output@@@2@@__crt_stdio_output@@AEAA_N_W@Z 0000000180015608 f i libucrt:output.obj
 0001:000146f8       ?write_string@?$string_output_adapter@_W@__crt_stdio_output@@QEBAXQEB_WHQEAHAEAV__crt_deferred_errno_cache@@@Z 00000001800156f8 f i libucrt:output.obj
 0001:000147a0       __stdio_common_vswprintf_s 00000001800157a0 f   libucrt:output.obj
 0001:00014810       _seh_filter_dll            0000000180015810 f   libucrt:exception_filter.obj
 0001:00014824       _seh_filter_exe            0000000180015824 f   libucrt:exception_filter.obj
 0001:000149b0       ??$?RV<lambda_d80eeec6fff315bfe5c115232f3240e3>@@AEAV<lambda_6e4b09c48022b2350581041d5f6b0c4c>@@V<lambda_2358e3775559c9db80273638284d5e45>@@@?$__crt_seh_guarded_call@X@@QEAAX$$QEAV<lambda_d80eeec6fff315bfe5c115232f3240e3>@@AEAV<lambda_6e4b09c48022b2350581041d5f6b0c4c>@@$$QEAV<lambda_2358e3775559c9db80273638284d5e45>@@@Z 00000001800159b0 f i libucrt:exit.obj
 0001:00014c30       __acrt_initialize_thread_local_exit_callback 0000000180015c30 f   libucrt:exit.obj
 0001:00014c38       _cexit                     0000000180015c38 f   libucrt:exit.obj
 0001:00014c48       _exit                      0000000180015c48 f   libucrt:exit.obj
 0001:00014c54       _is_c_termination_complete 0000000180015c54 f   libucrt:exit.obj
 0001:00014e18       __acrt_allocate_buffer_for_argv 0000000180015e18 f   libucrt:argv_parsing.obj
 0001:00014e7c       _configure_narrow_argv     0000000180015e7c f   libucrt:argv_parsing.obj
 0001:000151e8       __dcrt_uninitialize_environments_nolock 00000001800161e8 f   libucrt:environment_initialization.obj
 0001:00015220       _initialize_narrow_environment 0000000180016220 f   libucrt:environment_initialization.obj
 0001:00015228       ??$?RV<lambda_638799b9deba96c50f710eeac98168cd>@@AEAV<lambda_22ebabd17bc4fa466a2aca6d8deb888d>@@V<lambda_a6f7d7db0129f75315ebf26d50c089f1>@@@?$__crt_seh_guarded_call@H@@QEAAH$$QEAV<lambda_638799b9deba96c50f710eeac98168cd>@@AEAV<lambda_22ebabd17bc4fa466a2aca6d8deb888d>@@$$QEAV<lambda_a6f7d7db0129f75315ebf26d50c089f1>@@@Z 0000000180016228 f i libucrt:onexit.obj
 0001:00015264       ??$?RV<lambda_7777bce6b2f8c936911f934f8298dc43>@@AEAV<lambda_f03950bc5685219e0bcd2087efbe011e>@@V<lambda_3883c3dff614d5e0c5f61bb1ac94921c>@@@?$__crt_seh_guarded_call@H@@QEAAH$$QEAV<lambda_7777bce6b2f8c936911f934f8298dc43>@@AEAV<lambda_f03950bc5685219e0bcd2087efbe011e>@@$$QEAV<lambda_3883c3dff614d5e0c5f61bb1ac94921c>@@@Z 0000000180016264 f i libucrt:onexit.obj
 0001:000155c8       _crt_atexit                00000001800165c8 f   libucrt:onexit.obj
 0001:000155d8       _execute_onexit_table      00000001800165d8 f   libucrt:onexit.obj
 0001:00015614       _initialize_onexit_table   0000000180016614 f   libucrt:onexit.obj
 0001:00015654       _register_onexit_function  0000000180016654 f   libucrt:onexit.obj
 0001:000156d4       __acrt_uninitialize_command_line 00000001800166d4 f   libucrt:argv_data.obj
 0001:000157b0       ??$uninitialize@V<lambda_af42a3ee9806e9a7305d451646e05244>@@@?$dual_state_global@PEAU__crt_multibyte_data@@@__crt_state_management@@QEAAX$$QEAV<lambda_af42a3ee9806e9a7305d451646e05244>@@@Z 00000001800167b0 f i libucrt:initialization.obj
 0001:00015830       __acrt_initialize          0000000180016830 f   libucrt:initialization.obj
 0001:00015844       __acrt_thread_attach       0000000180016844 f   libucrt:initialization.obj
 0001:00015858       __acrt_thread_detach       0000000180016858 f   libucrt:initialization.obj
 0001:00015868       __acrt_uninitialize        0000000180016868 f   libucrt:initialization.obj
 0001:0001587c       __acrt_uninitialize_critical 000000018001687c f   libucrt:initialization.obj
 0001:0001588c       _initterm                  000000018001688c f   libucrt:initterm.obj
 0001:000158f0       _initterm_e                00000001800168f0 f   libucrt:initterm.obj
 0001:00015930       __acrt_initialize_new_handler 0000000180016930 f   libucrt:new_handler.obj
 0001:00015938       _callnewh                  0000000180016938 f   libucrt:new_handler.obj
 0001:00015968       _query_new_handler         0000000180016968 f   libucrt:new_handler.obj
 0001:0001599c       terminate                  000000018001699c f   libucrt:terminate.obj
 0001:000159bc       abort                      00000001800169bc f   libucrt:abort.obj
 0001:00015a14       strcpy_s                   0000000180016a14 f   libucrt:strcpy_s.obj
 0001:00015a74       wcsncmp                    0000000180016a74 f   libucrt:wcsncmp.obj
 0001:00015aa0       ??$is_overflow_condition@K@__crt_strtox@@YA_NIK@Z 0000000180016aa0 f i libucrt:atox.obj
 0001:00015acc       ??$parse_integer@KV?$c_string_character_source@_W@__crt_strtox@@@__crt_strtox@@YAKQEAU__crt_locale_pointers@@V?$c_string_character_source@_W@0@H_N@Z 0000000180016acc f i libucrt:atox.obj
 0001:000161b0       strncmp                    00000001800171b0 f   libucrt:strncmp.obj
 0001:00016230       _free_base                 0000000180017230 f   libucrt:free_base.obj
 0001:00016270       ??$?RV<lambda_0ae27a3a962d80f24befdcbee591983d>@@AEAV<lambda_8d0ee55de4b1038c4002e0adecdf1839>@@V<lambda_dc504788e8f1664fe9b84e20bfb512f2>@@@?$__crt_seh_guarded_call@X@@QEAAX$$QEAV<lambda_0ae27a3a962d80f24befdcbee591983d>@@AEAV<lambda_8d0ee55de4b1038c4002e0adecdf1839>@@$$QEAV<lambda_dc504788e8f1664fe9b84e20bfb512f2>@@@Z 0000000180017270 f i libucrt:per_thread_data.obj
 0001:000162b0       ??$?RV<lambda_2d41944a1d46af3157314b8a01080d33>@@AEAV<lambda_8f455de75cd7d7f24b4096f044d8b9e6>@@V<lambda_aa500f224e6afead328df44964fe2772>@@@?$__crt_seh_guarded_call@X@@QEAAX$$QEAV<lambda_2d41944a1d46af3157314b8a01080d33>@@AEAV<lambda_8f455de75cd7d7f24b4096f044d8b9e6>@@$$QEAV<lambda_aa500f224e6afead328df44964fe2772>@@@Z 00000001800172b0 f i libucrt:per_thread_data.obj
 0001:000162f0       ??$?RV<lambda_aa87e3671a710a21b5dc78c0bdf72e11>@@AEAV<lambda_92619d2358a28f41a33ba319515a20b9>@@V<lambda_6992ecaafeb10aed2b74cb1fae11a551>@@@?$__crt_seh_guarded_call@X@@QEAAX$$QEAV<lambda_aa87e3671a710a21b5dc78c0bdf72e11>@@AEAV<lambda_92619d2358a28f41a33ba319515a20b9>@@$$QEAV<lambda_6992ecaafeb10aed2b74cb1fae11a551>@@@Z 00000001800172f0 f i libucrt:per_thread_data.obj
 0001:00016338       ??$?RV<lambda_f2e299630e499de9f9a165e60fcd3db5>@@AEAV<lambda_2ae9d31cdba2644fcbeaf08da7c24588>@@V<lambda_40d01ff24d0e7b3814fdbdcee8eab3c7>@@@?$__crt_seh_guarded_call@X@@QEAAX$$QEAV<lambda_f2e299630e499de9f9a165e60fcd3db5>@@AEAV<lambda_2ae9d31cdba2644fcbeaf08da7c24588>@@$$QEAV<lambda_40d01ff24d0e7b3814fdbdcee8eab3c7>@@@Z 0000000180017338 f i libucrt:per_thread_data.obj
 0001:000165e8       __acrt_freeptd             00000001800175e8 f   libucrt:per_thread_data.obj
 0001:0001662c       __acrt_getptd              000000018001762c f   libucrt:per_thread_data.obj
 0001:000166f8       __acrt_getptd_head         00000001800176f8 f   libucrt:per_thread_data.obj
 0001:000167a0       __acrt_getptd_noexit       00000001800177a0 f   libucrt:per_thread_data.obj
 0001:00016870       __acrt_initialize_ptd      0000000180017870 f   libucrt:per_thread_data.obj
 0001:000168ac       __acrt_uninitialize_ptd    00000001800178ac f   libucrt:per_thread_data.obj
 0001:000168d0       _calloc_base               00000001800178d0 f   libucrt:calloc_base.obj
 0001:00016948       _malloc_base               0000000180017948 f   libucrt:malloc_base.obj
 0001:000169a8       _msize                     00000001800179a8 f   libucrt:msize.obj
 0001:000169b0       _msize_base                00000001800179b0 f   libucrt:msize.obj
 0001:000169ec       _realloc_base              00000001800179ec f   libucrt:realloc_base.obj
 0001:00016c48       __acrt_AppPolicyGetProcessTerminationMethodInternal 0000000180017c48 f   libucrt:winapi_thunks.obj
 0001:00016c98       __acrt_FlsAlloc            0000000180017c98 f   libucrt:winapi_thunks.obj
 0001:00016ce0       __acrt_FlsFree             0000000180017ce0 f   libucrt:winapi_thunks.obj
 0001:00016d28       __acrt_FlsGetValue         0000000180017d28 f   libucrt:winapi_thunks.obj
 0001:00016d70       __acrt_FlsSetValue         0000000180017d70 f   libucrt:winapi_thunks.obj
 0001:00016dc4       __acrt_InitializeCriticalSectionEx 0000000180017dc4 f   libucrt:winapi_thunks.obj
 0001:00016e28       __acrt_LCMapStringEx       0000000180017e28 f   libucrt:winapi_thunks.obj
 0001:00016f04       __acrt_LocaleNameToLCID    0000000180017f04 f   libucrt:winapi_thunks.obj
 0001:00016f54       __acrt_SetThreadStackGuarantee 0000000180017f54 f   libucrt:winapi_thunks.obj
 0001:00016f98       __acrt_initialize_winapi_thunks 0000000180017f98 f   libucrt:winapi_thunks.obj
 0001:00016fd0       __acrt_uninitialize_winapi_thunks 0000000180017fd0 f   libucrt:winapi_thunks.obj
 0001:00017014       isdigit                    0000000180018014 f i libucrt:_ctype.obj
 0001:000170d8       _tolower_l                 00000001800180d8 f   libucrt:tolower_toupper.obj
 0001:00017218       tolower                    0000000180018218 f   libucrt:tolower_toupper.obj
 0001:00017244       ??$make_c_string_character_source@_WPEAPEA_W@__crt_strtox@@YA?AV?$c_string_character_source@_W@0@QEB_WQEAPEA_W@Z 0000000180018244 f i libucrt:strtox.obj
 0001:00017258       wcstol                     0000000180018258 f   libucrt:strtox.obj
 0001:00017288       _mbtowc_l                  0000000180018288 f   libucrt:mbtowc.obj
 0001:000173d0       mbtowc                     00000001800183d0 f   libucrt:mbtowc.obj
 0001:000173d8       wcsnlen                    00000001800183d8 f   libucrt:strnlen.obj
 0001:000175d0       __acrt_update_locale_info  00000001800185d0 f   libucrt:locale_update.obj
 0001:00017604       __acrt_update_multibyte_info 0000000180018604 f   libucrt:locale_update.obj
 0001:00017638       ?__acrt_fp_classify@@YA?AW4__acrt_fp_class@@AEBN@Z 0000000180018638 f i libucrt:cvt.obj
 0001:00018070       __acrt_fp_format           0000000180019070 f   libucrt:cvt.obj
 0001:000182b4       _fileno                    00000001800192b4 f   libucrt:fileno.obj
 0001:000182dc       __acrt_initialize_stdio    00000001800192dc f   libucrt:_file.obj
 0001:000183fc       __acrt_uninitialize_stdio  00000001800193fc f   libucrt:_file.obj
 0001:00018458       _lock_file                 0000000180019458 f   libucrt:_file.obj
 0001:00018464       _unlock_file               0000000180019464 f   libucrt:_file.obj
 0001:00018470       _get_printf_count_output   0000000180019470 f   libucrt:printf_count_output.obj
 0001:00018488       ??$?RV<lambda_410d79af7f07d98d83a3f525b3859a53>@@AEAV<lambda_3e16ef9562a7dcce91392c22ab16ea36>@@V<lambda_38119f0e861e05405d8a144b9b982f0a>@@@?$__crt_seh_guarded_call@X@@QEAAX$$QEAV<lambda_410d79af7f07d98d83a3f525b3859a53>@@AEAV<lambda_3e16ef9562a7dcce91392c22ab16ea36>@@$$QEAV<lambda_38119f0e861e05405d8a144b9b982f0a>@@@Z 0000000180019488 f i libucrt:wsetlocale.obj
 0001:000184f8       __acrt_set_locale_changed  00000001800194f8 f   libucrt:wsetlocale.obj
 0001:00018504       __acrt_uninitialize_locale 0000000180019504 f   libucrt:wsetlocale.obj
 0001:0001871c       __acrt_initialize_lowio    000000018001971c f   libucrt:ioinit.obj
 0001:00018758       __acrt_uninitialize_lowio  0000000180019758 f   libucrt:ioinit.obj
 0001:00018798       __acrt_initialize_locks    0000000180019798 f   libucrt:locks.obj
 0001:000187e0       __acrt_lock                00000001800197e0 f   libucrt:locks.obj
 0001:000187fc       __acrt_uninitialize_locks  00000001800197fc f   libucrt:locks.obj
 0001:00018834       __acrt_unlock              0000000180019834 f   libucrt:locks.obj
 0001:00018850       __acrt_get_process_end_policy 0000000180019850 f   libucrt:win_policies.obj
 0001:00018ddc       __acrt_expand_narrow_argv_wildcards 0000000180019ddc f   libucrt:argv_wildcards.obj
 0001:00018de4       ??$?RV<lambda_efdfa57d1f175319df784efa44bb7b81>@@AEAV<lambda_5f0a4c1567f8adc6734073e5d1e1b35c>@@V<lambda_2e8a7d3640ea6ccb4c2413664c2db6fd>@@@?$__crt_seh_guarded_call@X@@QEAAX$$QEAV<lambda_efdfa57d1f175319df784efa44bb7b81>@@AEAV<lambda_5f0a4c1567f8adc6734073e5d1e1b35c>@@$$QEAV<lambda_2e8a7d3640ea6ccb4c2413664c2db6fd>@@@Z 0000000180019de4 f i libucrt:mbctype.obj
 0001:0001951c       __acrt_initialize_multibyte 000000018001a51c f   libucrt:mbctype.obj
 0001:0001957c       __acrt_update_thread_multibyte_data 000000018001a57c f   libucrt:mbctype.obj
 0001:00019598       _setmbcp_nolock            000000018001a598 f   libucrt:mbctype.obj
 0001:000198b8       _ismbblead                 000000018001a8b8 f   libucrt:ismbbyte.obj
 0001:000198cc       __acrt_initialize_command_line 000000018001a8cc f   libucrt:argv_data.obj
 0001:000198f4       __dcrt_get_narrow_environment_from_os 000000018001a8f4 f   libucrt:get_environment_from_os.obj
 0001:000199f8       __acrt_initialize_heap     000000018001a9f8 f   libucrt:heap_handle.obj
 0001:00019a14       __acrt_uninitialize_heap   000000018001aa14 f   libucrt:heap_handle.obj
 0001:00019a20       __acrt_execute_initializers 000000018001aa20 f   libucrt:shared_initialization.obj
 0001:00019aa0       __acrt_execute_uninitializers 000000018001aaa0 f   libucrt:shared_initialization.obj
 0001:00019ae0       ??$?RV<lambda_450d765d439847d4c735a33c368b5fc0>@@AEAV<lambda_44731a7d0e6d81c3e6aa82d741081786>@@V<lambda_601a2a7da3b7a96e9554ac7215c4b07c>@@@?$__crt_seh_guarded_call@P6AXH@Z@@QEAAP6AXH@Z$$QEAV<lambda_450d765d439847d4c735a33c368b5fc0>@@AEAV<lambda_44731a7d0e6d81c3e6aa82d741081786>@@$$QEAV<lambda_601a2a7da3b7a96e9554ac7215c4b07c>@@@Z 000000018001aae0 f i libucrt:signal.obj
 0001:00019b28       __acrt_get_sigabrt_handler 000000018001ab28 f   libucrt:signal.obj
 0001:00019b58       __acrt_initialize_signal_handlers 000000018001ab58 f   libucrt:signal.obj
 0001:00019b78       raise                      000000018001ab78 f   libucrt:signal.obj
 0001:00019e0c       __acrt_has_user_matherr    000000018001ae0c f   libucrt:matherr.obj
 0001:00019e2c       __acrt_initialize_user_matherr 000000018001ae2c f   libucrt:matherr.obj
 0001:00019e34       __acrt_invoke_user_matherr 000000018001ae34 f   libucrt:matherr.obj
 0001:00019e64       __pctype_func              000000018001ae64 f   libucrt:ctype.obj
 0001:00019e94       iswctype                   000000018001ae94 f   libucrt:iswctype.obj
 0001:00019f04       _isctype_l                 000000018001af04 f   libucrt:isctype.obj
 0001:0001a014       __acrt_add_locale_ref      000000018001b014 f   libucrt:locale_refcounting.obj
 0001:0001a0a0       __acrt_free_locale         000000018001b0a0 f   libucrt:locale_refcounting.obj
 0001:0001a218       __acrt_locale_add_lc_time_reference 000000018001b218 f   libucrt:locale_refcounting.obj
 0001:0001a240       __acrt_locale_free_lc_time_if_unreferenced 000000018001b240 f   libucrt:locale_refcounting.obj
 0001:0001a278       __acrt_locale_release_lc_time_reference 000000018001b278 f   libucrt:locale_refcounting.obj
 0001:0001a2a0       __acrt_release_locale_ref  000000018001b2a0 f   libucrt:locale_refcounting.obj
 0001:0001a348       __acrt_update_thread_locale_data 000000018001b348 f   libucrt:locale_refcounting.obj
 0001:0001a3b8       _updatetlocinfoEx_nolock   000000018001b3b8 f   libucrt:locale_refcounting.obj
 0001:0001a420       _query_new_mode            000000018001b420 f   libucrt:new_mode.obj
 0001:0001a4f0       __acrt_DownlevelLocaleNameToLCID 000000018001b4f0 f   libucrt:lcidtoname_downlevel.obj
 0001:0001a524       _isleadbyte_l              000000018001b524 f i libucrt:_wctype.obj
 0001:0001a8c0       __acrt_LCMapStringA        000000018001b8c0 f   libucrt:lcmapstringa.obj
 0001:0001a958       __acrt_fp_strflt_to_string 000000018001b958 f   libucrt:_fptostr.obj
 0001:0001aa20       ?divide@__crt_strtox@@YA_KAEAUbig_integer@1@AEBU21@@Z 000000018001ba20 f i libucrt:cfout.obj
 0001:0001aef0       __acrt_fltout              000000018001bef0 f   libucrt:cfout.obj
 0001:0001c298       _fcloseall                 000000018001d298 f   libucrt:closeall.obj
 0001:0001c34c       ??$?RV<lambda_842d9ff0dc9ef11c61343bbaebe7f885>@@AEAV<lambda_c5860995281e5c4ce005b3de8f5874ee>@@V<lambda_d90129c13df834fdcbf8d2b88dafcf2d>@@@?$__crt_seh_guarded_call@X@@QEAAX$$QEAV<lambda_842d9ff0dc9ef11c61343bbaebe7f885>@@AEAV<lambda_c5860995281e5c4ce005b3de8f5874ee>@@$$QEAV<lambda_d90129c13df834fdcbf8d2b88dafcf2d>@@@Z 000000018001d34c f i libucrt:fflush.obj
 0001:0001c3e8       ??$?RV<lambda_886d6c58226a84441f68b9f2b8217b83>@@AEAV<lambda_ab61a845afdef5b7c387490eaf3616ee>@@V<lambda_f7f22ab5edc0698d5f6905b0d3f44752>@@@?$__crt_seh_guarded_call@X@@QEAAX$$QEAV<lambda_886d6c58226a84441f68b9f2b8217b83>@@AEAV<lambda_ab61a845afdef5b7c387490eaf3616ee>@@$$QEAV<lambda_f7f22ab5edc0698d5f6905b0d3f44752>@@@Z 000000018001d3e8 f i libucrt:fflush.obj
 0001:0001c530       __acrt_stdio_flush_nolock  000000018001d530 f   libucrt:fflush.obj
 0001:0001c5ac       _fflush_nolock             000000018001d5ac f   libucrt:fflush.obj
 0001:0001c5f8       _flushall                  000000018001d5f8 f   libucrt:fflush.obj
 0001:0001c600       __acrt_stdio_free_buffer_nolock 000000018001d600 f   libucrt:_freebuf.obj
 0001:0001c640       _isatty                    000000018001d640 f   libucrt:isatty.obj
 0001:0001c6a0       __acrt_locale_free_monetary 000000018001d6a0 f   libucrt:initmon.obj
 0001:0001c7ac       __acrt_locale_free_numeric 000000018001d7ac f   libucrt:initnum.obj
 0001:0001c870       __acrt_locale_free_time    000000018001d870 f   libucrt:inittime.obj
 0001:0001c978       __acrt_GetStringTypeA      000000018001d978 f   libucrt:getstringtypea.obj
 0001:0001cb2c       __acrt_lowio_create_handle_array 000000018001db2c f   libucrt:osfinfo.obj
 0001:0001cbc4       __acrt_lowio_destroy_handle_array 000000018001dbc4 f   libucrt:osfinfo.obj
 0001:0001cc14       __acrt_lowio_ensure_fh_exists 000000018001dc14 f   libucrt:osfinfo.obj
 0001:0001cccc       __acrt_lowio_lock_fh       000000018001dccc f   libucrt:osfinfo.obj
 0001:0001ccf0       __acrt_lowio_unlock_fh     000000018001dcf0 f   libucrt:osfinfo.obj
 0001:0001cd14       _free_osfhnd               000000018001dd14 f   libucrt:osfinfo.obj
 0001:0001cdd0       _get_osfhandle             000000018001ddd0 f   libucrt:osfinfo.obj
 0001:0001cf10       qsort                      000000018001df10 f   libucrt:qsort.obj
 0001:0001d230       strncpy_s                  000000018001e230 f   libucrt:strncpy_s.obj
 0001:0001d304       strpbrk                    000000018001e304 f   libucrt:strpbrk.obj
 0001:0001d3a4       _mbsdec                    000000018001e3a4 f   libucrt:mbsdec.obj
 0001:0001d3ac       _mbsdec_l                  000000018001e3ac f   libucrt:mbsdec.obj
 0001:0001d45c       __strncnt                  000000018001e45c f   libucrt:strncnt.obj
 0001:0001d474       fegetenv                   000000018001e474 f   libucrt:fegetenv.obj
 0001:0001d494       fesetenv                   000000018001e494 f   libucrt:fesetenv.obj
 0001:0001d4e0       feholdexcept               000000018001e4e0 f   libucrt:feholdexcept.obj
 0001:0001d530       ceil                       000000018001e530 f   libucrt:ceil.obj
 0001:0001d600       log10                      000000018001e600 f   libucrt:log10.obj
 0001:0001e168       _write                     000000018001f168 f   libucrt:write.obj
 0001:0001e254       _write_nolock              000000018001f254 f   libucrt:write.obj
 0001:0001e5ec       _lseeki64_nolock           000000018001f5ec f   libucrt:lseek.obj
 0001:0001e5f4       _fclose_nolock             000000018001f5f4 f   libucrt:fclose.obj
 0001:0001e678       fclose                     000000018001f678 f   libucrt:fclose.obj
 0001:0001e6e4       ??$?RV<lambda_a37b2b86f63e897a80ea819b0eb08c01>@@AEAV<lambda_38ce7e780aa69e748d6df282ebc68efe>@@V<lambda_99fb1378e971ab6e7edea83e3a7a83a2>@@@?$__crt_seh_guarded_call@H@@QEAAH$$QEAV<lambda_a37b2b86f63e897a80ea819b0eb08c01>@@AEAV<lambda_38ce7e780aa69e748d6df282ebc68efe>@@$$QEAV<lambda_99fb1378e971ab6e7edea83e3a7a83a2>@@@Z 000000018001f6e4 f i libucrt:commit.obj
 0001:0001e770       _commit                    000000018001f770 f   libucrt:commit.obj
 0001:0001e804       _query_app_type            000000018001f804 f   libucrt:report_runtime_error.obj
 0001:0001e80c       _getfpcontrolword          000000018001f80c f   libucrt:_fenvutils.obj
 0001:0001e824       _getfpstatusword           000000018001f824 f   libucrt:_fenvutils.obj
 0001:0001e838       _setfpcontrolword          000000018001f838 f   libucrt:_fenvutils.obj
 0001:0001e844       _setfpstatusword           000000018001f844 f   libucrt:_fenvutils.obj
 0001:0001e890       _clearfp                   000000018001f890 f   libucrt:ieee.obj
 0001:0001e8e0       _controlfp                 000000018001f8e0 f   libucrt:ieee.obj
 0001:0001e8ec       _statusfp                  000000018001f8ec f   libucrt:ieee.obj
 0001:0001ece4       _handle_error              000000018001fce4 f   libucrt:libm_error.obj
 0001:0001ee0c       _handle_nan                000000018001fe0c f   libucrt:libm_error.obj
 0001:0001ee30       __acrt_initialize_fma3     000000018001fe30 f   libucrt:fma3_available.obj
 0001:0001eea0       _log10_special             000000018001fea0 f   libucrt:log_special.obj
 0001:0001ef58       _putwch_nolock             000000018001ff58 f   libucrt:putwch.obj
 0001:0001efb4       ??$?RV<lambda_751a882b2c74d4b022dec766aa51a29a>@@AEAV<lambda_628dfdc04ba53c8bfc02c9951375f3f5>@@V<lambda_f6c7be5f7998530c34de24c7437d6b54>@@@?$__crt_seh_guarded_call@H@@QEAAH$$QEAV<lambda_751a882b2c74d4b022dec766aa51a29a>@@AEAV<lambda_628dfdc04ba53c8bfc02c9951375f3f5>@@$$QEAV<lambda_f6c7be5f7998530c34de24c7437d6b54>@@@Z 000000018001ffb4 f i libucrt:close.obj
 0001:0001f028       _close                     0000000180020028 f   libucrt:close.obj
 0001:0001f0cc       _close_nolock              00000001800200cc f   libucrt:close.obj
 0001:0001f188       ?__acrt_stdio_free_stream@@YAXV__crt_stdio_stream@@@Z 0000000180020188 f   libucrt:stream.obj
 0001:0001f1e0       _get_fpsr                  00000001800201e0 f   libucrt:fpsr.obj
 0001:0001f1f0       _set_fpsr                  00000001800201f0 f   libucrt:fpsr.obj
 0001:0001f1fa       _fclrf                     00000001800201fa f   libucrt:fpsr.obj
 0001:0001f20e       _frnd                      000000018002020e f   libucrt:fpsr.obj
 0001:0001f230       _raise_exc                 0000000180020230 f   libucrt:fpexcept.obj
 0001:0001f258       _raise_exc_ex              0000000180020258 f   libucrt:fpexcept.obj
 0001:0001f560       _set_errno_from_matherr    0000000180020560 f   libucrt:fpexcept.obj
 0001:0001f590       _clrfp                     0000000180020590 f   libucrt:fpctrl.obj
 0001:0001f5b0       _ctrlfp                    00000001800205b0 f   libucrt:fpctrl.obj
 0001:0001f62c       _set_statfp                000000018002062c f   libucrt:fpctrl.obj
 0001:0001f64c       _statfp                    000000018002064c f   libucrt:fpctrl.obj
 0001:0001f660       __dcrt_lowio_initialize_console_output 0000000180020660 f   libucrt:initcon.obj
 0001:0001f69c       __dcrt_terminate_console_output 000000018002069c f   libucrt:initcon.obj
 0001:0001f6bc       IsProcessorFeaturePresent  00000001800206bc f   kernel32:KERNEL32.dll
 0001:0001f6d0       _FindPESection             00000001800206d0 f   LIBCMT:pesect.obj
 0001:0001f720       _IsNonwritableInCurrentImage 0000000180020720 f   LIBCMT:pesect.obj
 0001:0001f770       _ValidateImageBase         0000000180020770 f   LIBCMT:pesect.obj
 0001:0001f7a0       strrchr                    00000001800207a0 f   libvcruntime:strrchr.obj
 0001:0001f900       _guard_dispatch_icall_nop  0000000180020900 f   LIBCMT:_guard_dispatch_.obj
 0002:00000000       __imp_RegQueryValueExW     0000000180021000     advapi32:ADVAPI32.dll
 0002:00000008       __imp_RegSetValueExW       0000000180021008     advapi32:ADVAPI32.dll
 0002:00000010       __imp_RegQueryInfoKeyW     0000000180021010     advapi32:ADVAPI32.dll
 0002:00000018       __imp_RegOpenKeyExW        0000000180021018     advapi32:ADVAPI32.dll
 0002:00000020       __imp_RegEnumKeyExW        0000000180021020     advapi32:ADVAPI32.dll
 0002:00000028       __imp_RegDeleteValueW      0000000180021028     advapi32:ADVAPI32.dll
 0002:00000030       __imp_RegDeleteKeyW        0000000180021030     advapi32:ADVAPI32.dll
 0002:00000038       __imp_RegCreateKeyExW      0000000180021038     advapi32:ADVAPI32.dll
 0002:00000040       __imp_RegCloseKey          0000000180021040     advapi32:ADVAPI32.dll
 0002:00000048       \177ADVAPI32_NULL_THUNK_DATA 0000000180021048     advapi32:ADVAPI32.dll
 0002:00000050       __imp_GetObjectW           0000000180021050     gdi32:GDI32.dll
 0002:00000058       __imp_SelectObject         0000000180021058     gdi32:GDI32.dll
 0002:00000060       __imp_DeleteObject         0000000180021060     gdi32:GDI32.dll
 0002:00000068       __imp_CreateCompatibleDC   0000000180021068     gdi32:GDI32.dll
 0002:00000070       __imp_BitBlt               0000000180021070     gdi32:GDI32.dll
 0002:00000078       __imp_SetWindowOrgEx       0000000180021078     gdi32:GDI32.dll
 0002:00000080       __imp_SetWindowExtEx       0000000180021080     gdi32:GDI32.dll
 0002:00000088       __imp_SetViewportOrgEx     0000000180021088     gdi32:GDI32.dll
 0002:00000090       __imp_LPtoDP               0000000180021090     gdi32:GDI32.dll
 0002:00000098       __imp_SetMapMode           0000000180021098     gdi32:GDI32.dll
 0002:000000a0       __imp_SaveDC               00000001800210a0     gdi32:GDI32.dll
 0002:000000a8       __imp_RestoreDC            00000001800210a8     gdi32:GDI32.dll
 0002:000000b0       __imp_GetDeviceCaps        00000001800210b0     gdi32:GDI32.dll
 0002:000000b8       __imp_DeleteMetaFile       00000001800210b8     gdi32:GDI32.dll
 0002:000000c0       __imp_DeleteDC             00000001800210c0     gdi32:GDI32.dll
 0002:000000c8       __imp_CreateRectRgnIndirect 00000001800210c8     gdi32:GDI32.dll
 0002:000000d0       __imp_CreateMetaFileW      00000001800210d0     gdi32:GDI32.dll
 0002:000000d8       __imp_CreateDCW            00000001800210d8     gdi32:GDI32.dll
 0002:000000e0       __imp_CloseMetaFile        00000001800210e0     gdi32:GDI32.dll
 0002:000000e8       \177GDI32_NULL_THUNK_DATA  00000001800210e8     gdi32:GDI32.dll
 0002:000000f0       __imp_CloseHandle          00000001800210f0     kernel32:KERNEL32.dll
 0002:000000f8       __imp_SetEvent             00000001800210f8     kernel32:KERNEL32.dll
 0002:00000100       __imp_CreateMutexW         0000000180021100     kernel32:KERNEL32.dll
 0002:00000108       __imp_CreateEventW         0000000180021108     kernel32:KERNEL32.dll
 0002:00000110       __imp_GetCurrentProcessId  0000000180021110     kernel32:KERNEL32.dll
 0002:00000118       __imp_CreateFileW          0000000180021118     kernel32:KERNEL32.dll
 0002:00000120       __imp_WriteConsoleW        0000000180021120     kernel32:KERNEL32.dll
 0002:00000128       __imp_FlushFileBuffers     0000000180021128     kernel32:KERNEL32.dll
 0002:00000130       __imp_SetFilePointerEx     0000000180021130     kernel32:KERNEL32.dll
 0002:00000138       __imp_GetConsoleMode       0000000180021138     kernel32:KERNEL32.dll
 0002:00000140       __imp_GetConsoleCP         0000000180021140     kernel32:KERNEL32.dll
 0002:00000148       __imp_WriteFile            0000000180021148     kernel32:KERNEL32.dll
 0002:00000150       __imp_SetStdHandle         0000000180021150     kernel32:KERNEL32.dll
 0002:00000158       __imp_GetStringTypeW       0000000180021158     kernel32:KERNEL32.dll
 0002:00000160       __imp_FreeEnvironmentStringsW 0000000180021160     kernel32:KERNEL32.dll
 0002:00000168       __imp_GetEnvironmentStringsW 0000000180021168     kernel32:KERNEL32.dll
 0002:00000170       __imp_lstrcmpiW            0000000180021170     kernel32:KERNEL32.dll
 0002:00000178       __imp_GetCommandLineA      0000000180021178     kernel32:KERNEL32.dll
 0002:00000180       __imp_GetCPInfo            0000000180021180     kernel32:KERNEL32.dll
 0002:00000188       __imp_GetOEMCP             0000000180021188     kernel32:KERNEL32.dll
 0002:00000190       __imp_IsValidCodePage      0000000180021190     kernel32:KERNEL32.dll
 0002:00000198       __imp_FindNextFileA        0000000180021198     kernel32:KERNEL32.dll
 0002:000001a0       __imp_FindFirstFileExA     00000001800211a0     kernel32:KERNEL32.dll
 0002:000001a8       __imp_FindClose            00000001800211a8     kernel32:KERNEL32.dll
 0002:000001b0       __imp_GetFileType          00000001800211b0     kernel32:KERNEL32.dll
 0002:000001b8       __imp_GetStdHandle         00000001800211b8     kernel32:KERNEL32.dll
 0002:000001c0       __imp_GetACP               00000001800211c0     kernel32:KERNEL32.dll
 0002:000001c8       __imp_LCMapStringW         00000001800211c8     kernel32:KERNEL32.dll
 0002:000001d0       __imp_HeapReAlloc          00000001800211d0     kernel32:KERNEL32.dll
 0002:000001d8       __imp_MulDiv               00000001800211d8     kernel32:KERNEL32.dll
 0002:000001e0       __imp_GlobalUnlock         00000001800211e0     kernel32:KERNEL32.dll
 0002:000001e8       __imp_GlobalLock           00000001800211e8     kernel32:KERNEL32.dll
 0002:000001f0       __imp_GlobalAlloc          00000001800211f0     kernel32:KERNEL32.dll
 0002:000001f8       __imp_FindResourceW        00000001800211f8     kernel32:KERNEL32.dll
 0002:00000200       __imp_SizeofResource       0000000180021200     kernel32:KERNEL32.dll
 0002:00000208       __imp_LoadResource         0000000180021208     kernel32:KERNEL32.dll
 0002:00000210       __imp_LoadLibraryExW       0000000180021210     kernel32:KERNEL32.dll
 0002:00000218       __imp_GetProcAddress       0000000180021218     kernel32:KERNEL32.dll
 0002:00000220       __imp_GetModuleHandleW     0000000180021220     kernel32:KERNEL32.dll
 0002:00000228       __imp_GetModuleFileNameW   0000000180021228     kernel32:KERNEL32.dll
 0002:00000230       __imp_FreeLibrary          0000000180021230     kernel32:KERNEL32.dll
 0002:00000238       __imp_DisableThreadLibraryCalls 0000000180021238     kernel32:KERNEL32.dll
 0002:00000240       __imp_GetCurrentThreadId   0000000180021240     kernel32:KERNEL32.dll
 0002:00000248       __imp_Sleep                0000000180021248     kernel32:KERNEL32.dll
 0002:00000250       __imp_WaitForSingleObject  0000000180021250     kernel32:KERNEL32.dll
 0002:00000258       __imp_ReleaseMutex         0000000180021258     kernel32:KERNEL32.dll
 0002:00000260       __imp_ResetEvent           0000000180021260     kernel32:KERNEL32.dll
 0002:00000268       __imp_EnterCriticalSection 0000000180021268     kernel32:KERNEL32.dll
 0002:00000270       __imp_LeaveCriticalSection 0000000180021270     kernel32:KERNEL32.dll
 0002:00000278       __imp_SetLastError         0000000180021278     kernel32:KERNEL32.dll
 0002:00000280       __imp_EncodePointer        0000000180021280     kernel32:KERNEL32.dll
 0002:00000288       __imp_DeleteCriticalSection 0000000180021288     kernel32:KERNEL32.dll
 0002:00000290       __imp_InitializeCriticalSectionAndSpinCount 0000000180021290     kernel32:KERNEL32.dll
 0002:00000298       __imp_GetLastError         0000000180021298     kernel32:KERNEL32.dll
 0002:000002a0       __imp_RaiseException       00000001800212a0     kernel32:KERNEL32.dll
 0002:000002a8       __imp_DecodePointer        00000001800212a8     kernel32:KERNEL32.dll
 0002:000002b0       __imp_WideCharToMultiByte  00000001800212b0     kernel32:KERNEL32.dll
 0002:000002b8       __imp_GetCommandLineW      00000001800212b8     kernel32:KERNEL32.dll
 0002:000002c0       __imp_MultiByteToWideChar  00000001800212c0     kernel32:KERNEL32.dll
 0002:000002c8       __imp_HeapSize             00000001800212c8     kernel32:KERNEL32.dll
 0002:000002d0       __imp_GetModuleFileNameA   00000001800212d0     kernel32:KERNEL32.dll
 0002:000002d8       __imp_GetModuleHandleExW   00000001800212d8     kernel32:KERNEL32.dll
 0002:000002e0       __imp_ExitProcess          00000001800212e0     kernel32:KERNEL32.dll
 0002:000002e8       __imp_VirtualQuery         00000001800212e8     kernel32:KERNEL32.dll
 0002:000002f0       __imp_VirtualProtect       00000001800212f0     kernel32:KERNEL32.dll
 0002:000002f8       __imp_GetSystemInfo        00000001800212f8     kernel32:KERNEL32.dll
 0002:00000300       __imp_TlsFree              0000000180021300     kernel32:KERNEL32.dll
 0002:00000308       __imp_TlsSetValue          0000000180021308     kernel32:KERNEL32.dll
 0002:00000310       __imp_TlsGetValue          0000000180021310     kernel32:KERNEL32.dll
 0002:00000318       __imp_TlsAlloc             0000000180021318     kernel32:KERNEL32.dll
 0002:00000320       __imp_RtlPcToFileHeader    0000000180021320     kernel32:KERNEL32.dll
 0002:00000328       __imp_InterlockedFlushSList 0000000180021328     kernel32:KERNEL32.dll
 0002:00000330       __imp_RtlUnwindEx          0000000180021330     kernel32:KERNEL32.dll
 0002:00000338       __imp_LoadLibraryExA       0000000180021338     kernel32:KERNEL32.dll
 0002:00000340       __imp_VirtualFree          0000000180021340     kernel32:KERNEL32.dll
 0002:00000348       __imp_VirtualAlloc         0000000180021348     kernel32:KERNEL32.dll
 0002:00000350       __imp_FlushInstructionCache 0000000180021350     kernel32:KERNEL32.dll
 0002:00000358       __imp_InterlockedPushEntrySList 0000000180021358     kernel32:KERNEL32.dll
 0002:00000360       __imp_InterlockedPopEntrySList 0000000180021360     kernel32:KERNEL32.dll
 0002:00000368       __imp_GetProcessHeap       0000000180021368     kernel32:KERNEL32.dll
 0002:00000370       __imp_HeapFree             0000000180021370     kernel32:KERNEL32.dll
 0002:00000378       __imp_HeapAlloc            0000000180021378     kernel32:KERNEL32.dll
 0002:00000380       __imp_OutputDebugStringW   0000000180021380     kernel32:KERNEL32.dll
 0002:00000388       __imp_InitializeSListHead  0000000180021388     kernel32:KERNEL32.dll
 0002:00000390       __imp_GetSystemTimeAsFileTime 0000000180021390     kernel32:KERNEL32.dll
 0002:00000398       __imp_QueryPerformanceCounter 0000000180021398     kernel32:KERNEL32.dll
 0002:000003a0       __imp_GetStartupInfoW      00000001800213a0     kernel32:KERNEL32.dll
 0002:000003a8       __imp_IsDebuggerPresent    00000001800213a8     kernel32:KERNEL32.dll
 0002:000003b0       __imp_IsProcessorFeaturePresent 00000001800213b0     kernel32:KERNEL32.dll
 0002:000003b8       __imp_WaitForSingleObjectEx 00000001800213b8     kernel32:KERNEL32.dll
 0002:000003c0       __imp_RtlCaptureContext    00000001800213c0     kernel32:KERNEL32.dll
 0002:000003c8       __imp_RtlLookupFunctionEntry 00000001800213c8     kernel32:KERNEL32.dll
 0002:000003d0       __imp_RtlVirtualUnwind     00000001800213d0     kernel32:KERNEL32.dll
 0002:000003d8       __imp_UnhandledExceptionFilter 00000001800213d8     kernel32:KERNEL32.dll
 0002:000003e0       __imp_SetUnhandledExceptionFilter 00000001800213e0     kernel32:KERNEL32.dll
 0002:000003e8       __imp_GetCurrentProcess    00000001800213e8     kernel32:KERNEL32.dll
 0002:000003f0       __imp_TerminateProcess     00000001800213f0     kernel32:KERNEL32.dll
 0002:000003f8       \177KERNEL32_NULL_THUNK_DATA 00000001800213f8     kernel32:KERNEL32.dll
 0002:00000400       __imp_OleCreatePropertyFrame 0000000180021400     oleaut32:OLEAUT32.dll
 0002:00000408       __imp_UnRegisterTypeLib    0000000180021408     oleaut32:OLEAUT32.dll
 0002:00000410       __imp_RegisterTypeLib      0000000180021410     oleaut32:OLEAUT32.dll
 0002:00000418       __imp_LoadRegTypeLib       0000000180021418     oleaut32:OLEAUT32.dll
 0002:00000420       __imp_LoadTypeLib          0000000180021420     oleaut32:OLEAUT32.dll
 0002:00000428       __imp_VarUI4FromStr        0000000180021428     oleaut32:OLEAUT32.dll
 0002:00000430       __imp_VariantInit          0000000180021430     oleaut32:OLEAUT32.dll
 0002:00000438       __imp_SysAllocStringByteLen 0000000180021438     oleaut32:OLEAUT32.dll
 0002:00000440       __imp_SysStringByteLen     0000000180021440     oleaut32:OLEAUT32.dll
 0002:00000448       __imp_VariantChangeType    0000000180021448     oleaut32:OLEAUT32.dll
 0002:00000450       __imp_VariantClear         0000000180021450     oleaut32:OLEAUT32.dll
 0002:00000458       __imp_SysStringLen         0000000180021458     oleaut32:OLEAUT32.dll
 0002:00000460       __imp_SysFreeString        0000000180021460     oleaut32:OLEAUT32.dll
 0002:00000468       __imp_SysAllocStringLen    0000000180021468     oleaut32:OLEAUT32.dll
 0002:00000470       __imp_SysAllocString       0000000180021470     oleaut32:OLEAUT32.dll
 0002:00000478       \177OLEAUT32_NULL_THUNK_DATA 0000000180021478     oleaut32:OLEAUT32.dll
 0002:00000480       __imp_UnregisterClassW     0000000180021480     user32:USER32.dll
 0002:00000488       __imp_PostMessageW         0000000180021488     user32:USER32.dll
 0002:00000490       __imp_DefWindowProcW       0000000180021490     user32:USER32.dll
 0002:00000498       __imp_CallWindowProcW      0000000180021498     user32:USER32.dll
 0002:000004a0       __imp_RegisterClassExW     00000001800214a0     user32:USER32.dll
 0002:000004a8       __imp_GetClassInfoExW      00000001800214a8     user32:USER32.dll
 0002:000004b0       __imp_CreateWindowExW      00000001800214b0     user32:USER32.dll
 0002:000004b8       __imp_IsWindow             00000001800214b8     user32:USER32.dll
 0002:000004c0       __imp_IsChild              00000001800214c0     user32:USER32.dll
 0002:000004c8       __imp_DestroyWindow        00000001800214c8     user32:USER32.dll
 0002:000004d0       __imp_ShowWindow           00000001800214d0     user32:USER32.dll
 0002:000004d8       __imp_SetWindowPos         00000001800214d8     user32:USER32.dll
 0002:000004e0       __imp_CharNextW            00000001800214e0     user32:USER32.dll
 0002:000004e8       __imp_SetFocus             00000001800214e8     user32:USER32.dll
 0002:000004f0       __imp_LoadBitmapW          00000001800214f0     user32:USER32.dll
 0002:000004f8       __imp_RegisterClassW       00000001800214f8     user32:USER32.dll
 0002:00000500       __imp_PeekMessageW         0000000180021500     user32:USER32.dll
 0002:00000508       __imp_LoadCursorW          0000000180021508     user32:USER32.dll
 0002:00000510       __imp_GetParent            0000000180021510     user32:USER32.dll
 0002:00000518       __imp_SetWindowLongPtrW    0000000180021518     user32:USER32.dll
 0002:00000520       __imp_GetWindowLongPtrW    0000000180021520     user32:USER32.dll
 0002:00000528       __imp_PtInRect             0000000180021528     user32:USER32.dll
 0002:00000530       __imp_EqualRect            0000000180021530     user32:USER32.dll
 0002:00000538       __imp_OffsetRect           0000000180021538     user32:USER32.dll
 0002:00000540       __imp_UnionRect            0000000180021540     user32:USER32.dll
 0002:00000548       __imp_IntersectRect        0000000180021548     user32:USER32.dll
 0002:00000550       __imp_GetClientRect        0000000180021550     user32:USER32.dll
 0002:00000558       __imp_InvalidateRect       0000000180021558     user32:USER32.dll
 0002:00000560       __imp_SetWindowRgn         0000000180021560     user32:USER32.dll
 0002:00000568       __imp_EndPaint             0000000180021568     user32:USER32.dll
 0002:00000570       __imp_BeginPaint           0000000180021570     user32:USER32.dll
 0002:00000578       __imp_ReleaseDC            0000000180021578     user32:USER32.dll
 0002:00000580       __imp_GetDC                0000000180021580     user32:USER32.dll
 0002:00000588       __imp_GetKeyState          0000000180021588     user32:USER32.dll
 0002:00000590       __imp_GetFocus             0000000180021590     user32:USER32.dll
 0002:00000598       \177USER32_NULL_THUNK_DATA 0000000180021598     user32:USER32.dll
 0002:000005a0       __imp_CoCreateInstance     00000001800215a0     ole32:ole32.dll
 0002:000005a8       __imp_StringFromGUID2      00000001800215a8     ole32:ole32.dll
 0002:000005b0       __imp_CoTaskMemAlloc       00000001800215b0     ole32:ole32.dll
 0002:000005b8       __imp_CoTaskMemFree        00000001800215b8     ole32:ole32.dll
 0002:000005c0       __imp_ReadClassStm         00000001800215c0     ole32:ole32.dll
 0002:000005c8       __imp_WriteClassStm        00000001800215c8     ole32:ole32.dll
 0002:000005d0       __imp_CreateDataAdviseHolder 00000001800215d0     ole32:ole32.dll
 0002:000005d8       __imp_OleSaveToStream      00000001800215d8     ole32:ole32.dll
 0002:000005e0       __imp_CreateOleAdviseHolder 00000001800215e0     ole32:ole32.dll
 0002:000005e8       __imp_OleRegGetUserType    00000001800215e8     ole32:ole32.dll
 0002:000005f0       __imp_OleRegGetMiscStatus  00000001800215f0     ole32:ole32.dll
 0002:000005f8       __imp_OleRegEnumVerbs      00000001800215f8     ole32:ole32.dll
 0002:00000600       __imp_CLSIDFromProgID      0000000180021600     ole32:ole32.dll
 0002:00000608       __imp_CoTaskMemRealloc     0000000180021608     ole32:ole32.dll
 0002:00000610       \177ole32_NULL_THUNK_DATA  0000000180021610     ole32:ole32.dll
 0002:00000618       __guard_check_icall_fptr   0000000180021618     LIBCMT:guard_support.obj
 0002:00000620       __guard_dispatch_icall_fptr 0000000180021620     LIBCMT:guard_support.obj
 0002:00000628       __xc_a                     0000000180021628     LIBCMT:initializers.obj
 0002:00000658       __xc_z                     0000000180021658     LIBCMT:initializers.obj
 0002:00000660       __xi_a                     0000000180021660     LIBCMT:initializers.obj
 0002:00000670       __acrt_stdio_initializer   0000000180021670     libucrt:stdio_initializer.obj
 0002:00000678       __acrt_multibyte_initializer 0000000180021678     libucrt:multibyte_initializer.obj
 0002:00000680       __acrt_tran_fma3_initializer 0000000180021680     libucrt:fma3_initializer.obj
 0002:00000688       __xi_z                     0000000180021688     LIBCMT:initializers.obj
 0002:00000690       __xl_a                     0000000180021690     LIBCMT:tlssup.obj
 0002:00000698       __xl_z                     0000000180021698     LIBCMT:tlssup.obj
 0002:000006a0       __xp_a                     00000001800216a0     LIBCMT:initializers.obj
 0002:000006a8       __acrt_locale_terminator   00000001800216a8     libucrt:locale_initializer.obj
 0002:000006b0       __dcrt_console_output_terminator 00000001800216b0     libucrt:console_output_initializer.obj
 0002:000006b8       __acrt_stdio_terminator    00000001800216b8     libucrt:stdio_initializer.obj
 0002:000006c0       __xp_z                     00000001800216c0     LIBCMT:initializers.obj
 0002:000006c8       __xt_a                     00000001800216c8     LIBCMT:initializers.obj
 0002:000006d0       __xt_z                     00000001800216d0     LIBCMT:initializers.obj
 0002:000006e0       ??_C@_13HADIAKP@?$AAS@     00000001800216e0     OposVariant.obj
 0002:000006e4       ??_C@_13LHMFKAAD@?$AAM@    00000001800216e4     OposVariant.obj
 0002:000006e8       ??_C@_13MKMNOPIJ@?$AAD@    00000001800216e8     OposVariant.obj
 0002:000006ec       ??_C@_13OPKGLAFF@?$AAB@    00000001800216ec     OposVariant.obj
 0002:000006f0       ??_C@_17LLMMEOJD@?$AAV?$AAa?$AAl@ 00000001800216f0     OposVariant.obj
 0002:000006f8       ??_C@_1BI@JFAIJMHL@?$AAF?$AAo?$AAr?$AAc?$AAe?$AAR?$AAe?$AAm?$AAo?$AAv?$AAe@ 00000001800216f8     OposVariant.obj
 0002:00000710       ??_C@_1BC@GCKHIPE@?$AAN?$AAo?$AAR?$AAe?$AAm?$AAo?$AAv?$AAe@ 0000000180021710     OposVariant.obj
 0002:00000728       ??_C@_1O@JDLOHAN@?$AAD?$AAe?$AAl?$AAe?$AAt?$AAe@ 0000000180021728     OposVariant.obj
 0002:00000738       ??_C@_11LOCGONAA@@         0000000180021738     OposVariant.obj
 0002:00000740       ?_entries@?1??_GetEntries@COPOSImageScanner@@SAPEBU_ATL_INTMAP_ENTRY@ATL@@XZ@4QBU34@B 0000000180021740     ImageScanner.obj
 0002:00000980       _GUID_cf51ed10_62fe_11cf_bf86_00a0c9034836 0000000180021980     ImageScanner.obj
 0002:00000990       _GUID_0000010a_0000_0000_c000_000000000046 0000000180021990     ImageScanner.obj
 0002:000009a0       _GUID_b196b283_bab4_101a_b69c_00aa00341d07 00000001800219a0     ImageScanner.obj
 0002:000009b0       _GUID_cb5bdc81_93c1_11cf_8f20_00805f2cd064 00000001800219b0     ImageScanner.obj
 0002:000009c0       ?pPropMap@?1??GetPropertyMap@COPOSImageScanner@@SAPEBUATL_PROPMAP_ENTRY@ATL@@XZ@4QBU34@B 00000001800219c0     ImageScanner.obj
 0002:00000a68       ??_C@_17DGDADEHL@?$AA_?$AAc?$AAx@ 0000000180021a68     ImageScanner.obj
 0002:00000a70       ??_C@_17IOIMFDBO@?$AA_?$AAc?$AAy@ 0000000180021a70     ImageScanner.obj
 0002:00000a78       ??_C@_1M@KANJNLFF@?$AAC?$AAL?$AAS?$AAI?$AAD@ 0000000180021a78     ImageScanner.obj
 0002:00000a88       ??_C@_1M@EJNEECMJ@?$AAA?$AAp?$AAp?$AAI?$AAD@ 0000000180021a88     ImageScanner.obj
 0002:00000a98       _GUID_922eada0_3424_11cf_b670_00aa004cd6d8 0000000180021a98     ImageScanner.obj
 0002:00000aa8       _GUID_9c2cad80_3424_11cf_b670_00aa004cd6d8 0000000180021aa8     ImageScanner.obj
 0002:00000ab8       _GUID_00000119_0000_0000_c000_000000000046 0000000180021ab8     ImageScanner.obj
 0002:00000ac8       _GUID_b196b289_bab4_101a_b69c_00aa00341d07 0000000180021ac8     ImageScanner.obj
 0002:00000ad8       _GUID_b196b286_bab4_101a_b69c_00aa00341d07 0000000180021ad8     ImageScanner.obj
 0002:00000ae8       ??_C@_1CE@PGFMOFKI@?$AAS?$AAt?$AAa?$AAt?$AAu?$AAs?$AAU?$AAp?$AAd?$AAa?$AAt?$AAe?$AAE?$AAv?$AAe@ 0000000180021ae8     ImageScanner.obj
 0002:00000b10       ??_C@_1BG@LODEBHDD@?$AAE?$AAr?$AAr?$AAo?$AAr?$AAE?$AAv?$AAe?$AAn?$AAt@ 0000000180021b10     ImageScanner.obj
 0002:00000b28       ??_C@_1BM@CBGEBBBJ@?$AAD?$AAi?$AAr?$AAe?$AAc?$AAt?$AAI?$AAO?$AAE?$AAv?$AAe?$AAn?$AAt@ 0000000180021b28     ImageScanner.obj
 0002:00000b48       ??_C@_1BE@IEBMACEM@?$AAD?$AAa?$AAt?$AAa?$AAE?$AAv?$AAe?$AAn?$AAt@ 0000000180021b48     ImageScanner.obj
 0002:00000b60       ?rgszNeverDelete@CRegParser@ATL@@1QBQEB_WB 0000000180021b60     ImageScanner.obj
 0002:00000bc0       _GUID_00000117_0000_0000_c000_000000000046 0000000180021bc0     ImageScanner.obj
 0002:00000bd0       ??_C@_1BC@ENICKDH@?$AAC?$AAo?$AAn?$AAt?$AAe?$AAn?$AAt?$AAs@ 0000000180021bd0     ImageScanner.obj
 0002:00000be8       ??_7CRegObject@ATL@@6B@    0000000180021be8     ImageScanner.obj
 0002:00000c18       ??_7?$CComObject@V?$CComEnum@UIEnumConnectionPoints@@$1?_GUID_b196b285_bab4_101a_b69c_00aa00341d07@@3U__s_GUID@@BPEAUIConnectionPoint@@V?$_CopyInterface@UIConnectionPoint@@@ATL@@VCComSingleThreadModel@6@@ATL@@@ATL@@6B@ 0000000180021c18     ImageScanner.obj
 0002:00000c58       ??_C@_1CK@OEKPKBNA@?$AAC?$AAo?$AAm?$AAp?$AAo?$AAn?$AAe?$AAn?$AAt?$AA?5?$AAC?$AAa?$AAt?$AAe?$AAg@ 0000000180021c58     ImageScanner.obj
 0002:00000c88       ??_C@_1BC@NKMMNMGL@?$AAF?$AAi?$AAl?$AAe?$AAT?$AAy?$AAp?$AAe@ 0000000180021c88     ImageScanner.obj
 0002:00000ca0       ??_C@_1BE@EKPAFMCP@?$AAI?$AAn?$AAt?$AAe?$AAr?$AAf?$AAa?$AAc?$AAe@ 0000000180021ca0     ImageScanner.obj
 0002:00000cb8       ??_C@_1BC@MAICEHGI@?$AAH?$AAa?$AAr?$AAd?$AAw?$AAa?$AAr?$AAe@ 0000000180021cb8     ImageScanner.obj
 0002:00000cd0       ??_C@_19HLLLM@?$AAM?$AAi?$AAm?$AAe@ 0000000180021cd0     ImageScanner.obj
 0002:00000ce0       ??_C@_17OMAOINJK@?$AAS?$AAA?$AAM@ 0000000180021ce0     ImageScanner.obj
 0002:00000ce8       ??_C@_1BC@IBECJAAI@?$AAS?$AAE?$AAC?$AAU?$AAR?$AAI?$AAT?$AAY@ 0000000180021ce8     ImageScanner.obj
 0002:00000d00       ??_C@_1O@GBFINDKL@?$AAS?$AAY?$AAS?$AAT?$AAE?$AAM@ 0000000180021d00     ImageScanner.obj
 0002:00000d10       ??_C@_1BC@EAHCMADO@?$AAS?$AAo?$AAf?$AAt?$AAw?$AAa?$AAr?$AAe@ 0000000180021d10     ImageScanner.obj
 0002:00000d28       ??_C@_1BA@JIHHIEDE@?$AAT?$AAy?$AAp?$AAe?$AAL?$AAi?$AAb@ 0000000180021d28     ImageScanner.obj
 0002:00000e20       ??_C@_19NCHLBIN@?$AAH?$AAK?$AAC?$AAR@ 0000000180021e20     ImageScanner.obj
 0002:00000e30       ??_C@_19JAPAIJDE@?$AAH?$AAK?$AAC?$AAU@ 0000000180021e30     ImageScanner.obj
 0002:00000e40       ??_C@_19PEALEEJB@?$AAH?$AAK?$AAL?$AAM@ 0000000180021e40     ImageScanner.obj
 0002:00000e50       ??_C@_17PJOJPMPB@?$AAH?$AAK?$AAU@ 0000000180021e50     ImageScanner.obj
 0002:00000e58       ??_C@_19PNBHMJPL@?$AAH?$AAK?$AAP?$AAD@ 0000000180021e58     ImageScanner.obj
 0002:00000e68       ??_C@_19GFFAIJHG@?$AAH?$AAK?$AAD?$AAD@ 0000000180021e68     ImageScanner.obj
 0002:00000e78       ??_C@_19OFICIBHH@?$AAH?$AAK?$AAC?$AAC@ 0000000180021e78     ImageScanner.obj
 0002:00000e88       ??_C@_1CE@PACHPJFI@?$AAH?$AAK?$AAE?$AAY?$AA_?$AAC?$AAL?$AAA?$AAS?$AAS?$AAE?$AAS?$AA_?$AAR?$AAO@ 0000000180021e88     ImageScanner.obj
 0002:00000eb0       ??_C@_1CE@HLHNCBPM@?$AAH?$AAK?$AAE?$AAY?$AA_?$AAC?$AAU?$AAR?$AAR?$AAE?$AAN?$AAT?$AA_?$AAU?$AAS@ 0000000180021eb0     ImageScanner.obj
 0002:00000ed8       ??_C@_1CG@GFBEANJL@?$AAH?$AAK?$AAE?$AAY?$AA_?$AAL?$AAO?$AAC?$AAA?$AAL?$AA_?$AAM?$AAA?$AAC?$AAH@ 0000000180021ed8     ImageScanner.obj
 0002:00000f00       ??_C@_1BG@BGODANIO@?$AAH?$AAK?$AAE?$AAY?$AA_?$AAU?$AAS?$AAE?$AAR?$AAS@ 0000000180021f00     ImageScanner.obj
 0002:00000f18       ??_C@_1CM@KHNNAOIC@?$AAH?$AAK?$AAE?$AAY?$AA_?$AAP?$AAE?$AAR?$AAF?$AAO?$AAR?$AAM?$AAA?$AAN?$AAC@ 0000000180021f18     ImageScanner.obj
 0002:00000f48       ??_C@_1BM@HAGMMHIA@?$AAH?$AAK?$AAE?$AAY?$AA_?$AAD?$AAY?$AAN?$AA_?$AAD?$AAA?$AAT?$AAA@ 0000000180021f48     ImageScanner.obj
 0002:00000f68       ??_C@_1CI@BBJOACGG@?$AAH?$AAK?$AAE?$AAY?$AA_?$AAC?$AAU?$AAR?$AAR?$AAE?$AAN?$AAT?$AA_?$AAC?$AAO@ 0000000180021f68     ImageScanner.obj
 0002:00000f90       ??_C@_1EA@NHKLICFA@?$AAH?$AAK?$AAC?$AAU?$AA?$AN?$AA?6?$AA?$HL?$AA?7?$AAS?$AAo?$AAf?$AAt?$AAw?$AAa?$AAr@ 0000000180021f90     ImageScanner.obj
 0002:00000fd0       ??_C@_1BE@LJOLIMEM@?$AA?$AN?$AA?6?$AA?7?$AA?$HN?$AA?$AN?$AA?6?$AA?$HN?$AA?$AN?$AA?6@ 0000000180021fd0     ImageScanner.obj
 0002:00000fe8       _GUID_00000109_0000_0000_c000_000000000046 0000000180021fe8     ImageScanner.obj
 0002:00000ff8       _GUID_7fd52380_4e07_101b_ae2d_08002b2ec713 0000000180021ff8     ImageScanner.obj
 0002:00001008       _GUID_0000010e_0000_0000_c000_000000000046 0000000180022008     ImageScanner.obj
 0002:00001018       _GUID_b196b288_bab4_101a_b69c_00aa00341d07 0000000180022018     ImageScanner.obj
 0002:00001028       ??_C@_1O@MNLDABAF@?$AAM?$AAo?$AAd?$AAu?$AAl?$AAe@ 0000000180022028     ImageScanner.obj
 0002:00001038       ??_C@_1BG@JBACFMF@?$AAM?$AAo?$AAd?$AAu?$AAl?$AAe?$AA_?$AAR?$AAa?$AAw@ 0000000180022038     ImageScanner.obj
 0002:00001050       ??_C@_1BC@KAILKFFG@?$AAR?$AAE?$AAG?$AAI?$AAS?$AAT?$AAR?$AAY@ 0000000180022050     ImageScanner.obj
 0002:00001068       _GUID_00000113_0000_0000_c000_000000000046 0000000180022068     ImageScanner.obj
 0002:00001078       _GUID_1c2056cc_5ef4_101b_8bc8_00aa003e3b29 0000000180022078     ImageScanner.obj
 0002:00001088       ??_7?$CComObjectCached@VCComClassFactory@ATL@@@ATL@@6B@ 0000000180022088     ImageScanner.obj
 0002:000010b8       _GUID_00000112_0000_0000_c000_000000000046 00000001800220b8     ImageScanner.obj
 0002:000010c8       _GUID_3af24292_0c96_11ce_a0cf_00aa00600ab8 00000001800220c8     ImageScanner.obj
 0002:000010d8       _GUID_00000127_0000_0000_c000_000000000046 00000001800220d8     ImageScanner.obj
 0002:000010e8       _GUID_0000010d_0000_0000_c000_000000000046 00000001800220e8     ImageScanner.obj
 0002:000010f8       ??_C@_1M@PPPPCDEP@?$AAA?$AAP?$AAP?$AAI?$AAD@ 00000001800220f8     ImageScanner.obj
 0002:00001108       _GUID_b196b284_bab4_101a_b69c_00aa00341d07 0000000180022108     ImageScanner.obj
 0002:00001118       ??_7?$CComContainedObject@VCOPOSImageScanner@@@ATL@@6B?$IDispatchImpl@UIOPOSImageScanner@@$1?IID_IOPOSImageScanner@@3U_GUID@@B$1?LIBID_OposImageScanner_CCO@@3U3@B$00$0A@VCComTypeInfoHolder@ATL@@@1@@ 0000000180022118     ImageScanner.obj
 0002:000013c0       ??_7?$CComContainedObject@VCOPOSImageScanner@@@ATL@@6BCComControlBase@1@@ 00000001800223c0     ImageScanner.obj
 0002:000013e8       ??_7?$CComContainedObject@VCOPOSImageScanner@@@ATL@@6B?$CWindowImpl@VCOPOSImageScanner@@VCWindow@ATL@@V?$CWinTraits@$0FGAAAAAA@$0A@@3@@1@@ 00000001800223e8     ImageScanner.obj
 0002:00001408       ??_7?$CComContainedObject@VCOPOSImageScanner@@@ATL@@6B?$IPersistStreamInitImpl@VCOPOSImageScanner@@@1@@ 0000000180022408     ImageScanner.obj
 0002:00001450       ??_7?$CComContainedObject@VCOPOSImageScanner@@@ATL@@6B?$IOleControlImpl@VCOPOSImageScanner@@@1@@ 0000000180022450     ImageScanner.obj
 0002:00001488       ??_7?$CComContainedObject@VCOPOSImageScanner@@@ATL@@6B?$IOleObjectImpl@VCOPOSImageScanner@@@1@@ 0000000180022488     ImageScanner.obj
 0002:00001548       ??_7?$CComContainedObject@VCOPOSImageScanner@@@ATL@@6B?$IOleInPlaceActiveObjectImpl@VCOPOSImageScanner@@@1@@ 0000000180022548     ImageScanner.obj
 0002:00001598       ??_7?$CComContainedObject@VCOPOSImageScanner@@@ATL@@6B?$IViewObjectExImpl@VCOPOSImageScanner@@@1@@ 0000000180022598     ImageScanner.obj
 0002:00001610       ??_7?$CComContainedObject@VCOPOSImageScanner@@@ATL@@6B?$IOleInPlaceObjectWindowlessImpl@VCOPOSImageScanner@@@1@@ 0000000180022610     ImageScanner.obj
 0002:00001668       ??_7?$CComContainedObject@VCOPOSImageScanner@@@ATL@@6B?$IConnectionPointContainerImpl@VCOPOSImageScanner@@@1@@ 0000000180022668     ImageScanner.obj
 0002:00001690       ??_7?$CComContainedObject@VCOPOSImageScanner@@@ATL@@6B?$IPersistStorageImpl@VCOPOSImageScanner@@@1@@ 0000000180022690     ImageScanner.obj
 0002:000016e0       ??_7?$CComContainedObject@VCOPOSImageScanner@@@ATL@@6B?$ISpecifyPropertyPagesImpl@VCOPOSImageScanner@@@1@@ 00000001800226e0     ImageScanner.obj
 0002:00001700       ??_7?$CComContainedObject@VCOPOSImageScanner@@@ATL@@6B?$IQuickActivateImpl@VCOPOSImageScanner@@@1@@ 0000000180022700     ImageScanner.obj
 0002:00001730       ??_7?$CComContainedObject@VCOPOSImageScanner@@@ATL@@6B?$IDataObjectImpl@VCOPOSImageScanner@@@1@@ 0000000180022730     ImageScanner.obj
 0002:00001790       ??_7?$CComContainedObject@VCOPOSImageScanner@@@ATL@@6B?$IProvideClassInfo2Impl@$1?CLSID_OPOSImageScanner@@3U_GUID@@B$1?DIID__IOPOSImageScannerEvents@@3U2@B$1?LIBID_OposImageScanner_CCO@@3U2@B$00$0A@VCComTypeInfoHolder@ATL@@@1@@ 0000000180022790     ImageScanner.obj
 0002:000017b8       ??_7?$CComContainedObject@VCOPOSImageScanner@@@ATL@@6B?$IObjectSafetyImpl@VCOPOSImageScanner@@$02@1@@ 00000001800227b8     ImageScanner.obj
 0002:000017e8       ??_7?$CComContainedObject@VCOPOSImageScanner@@@ATL@@6B?$IPropertyNotifySinkCP@VCOPOSImageScanner@@VCComDynamicUnkArray@ATL@@@1@@ 00000001800227e8     ImageScanner.obj
 0002:00001828       ??_7?$CComContainedObject@VCOPOSImageScanner@@@ATL@@6B?$CProxy_IOPOSEvents@VCOPOSImageScanner@@@@@ 0000000180022828     ImageScanner.obj
 0002:00001868       ??_7?$CComAggObject@VCOPOSImageScanner@@@ATL@@6B@ 0000000180022868     ImageScanner.obj
 0002:00001888       ??_7?$CComObject@VCOPOSImageScanner@@@ATL@@6B?$IDispatchImpl@UIOPOSImageScanner@@$1?IID_IOPOSImageScanner@@3U_GUID@@B$1?LIBID_OposImageScanner_CCO@@3U3@B$00$0A@VCComTypeInfoHolder@ATL@@@1@@ 0000000180022888     ImageScanner.obj
 0002:00001b30       ??_7?$CComObject@VCOPOSImageScanner@@@ATL@@6BCComControlBase@1@@ 0000000180022b30     ImageScanner.obj
 0002:00001b58       ??_7?$CComObject@VCOPOSImageScanner@@@ATL@@6B?$CWindowImpl@VCOPOSImageScanner@@VCWindow@ATL@@V?$CWinTraits@$0FGAAAAAA@$0A@@3@@1@@ 0000000180022b58     ImageScanner.obj
 0002:00001b78       ??_7?$CComObject@VCOPOSImageScanner@@@ATL@@6B?$IPersistStreamInitImpl@VCOPOSImageScanner@@@1@@ 0000000180022b78     ImageScanner.obj
 0002:00001bc0       ??_7?$CComObject@VCOPOSImageScanner@@@ATL@@6B?$IOleControlImpl@VCOPOSImageScanner@@@1@@ 0000000180022bc0     ImageScanner.obj
 0002:00001bf8       ??_7?$CComObject@VCOPOSImageScanner@@@ATL@@6B?$IOleObjectImpl@VCOPOSImageScanner@@@1@@ 0000000180022bf8     ImageScanner.obj
 0002:00001cb8       ??_7?$CComObject@VCOPOSImageScanner@@@ATL@@6B?$IOleInPlaceActiveObjectImpl@VCOPOSImageScanner@@@1@@ 0000000180022cb8     ImageScanner.obj
 0002:00001d08       ??_7?$CComObject@VCOPOSImageScanner@@@ATL@@6B?$IViewObjectExImpl@VCOPOSImageScanner@@@1@@ 0000000180022d08     ImageScanner.obj
 0002:00001d80       ??_7?$CComObject@VCOPOSImageScanner@@@ATL@@6B?$IOleInPlaceObjectWindowlessImpl@VCOPOSImageScanner@@@1@@ 0000000180022d80     ImageScanner.obj
 0002:00001dd8       ??_7?$CComObject@VCOPOSImageScanner@@@ATL@@6B?$IConnectionPointContainerImpl@VCOPOSImageScanner@@@1@@ 0000000180022dd8     ImageScanner.obj
 0002:00001e00       ??_7?$CComObject@VCOPOSImageScanner@@@ATL@@6B?$IPersistStorageImpl@VCOPOSImageScanner@@@1@@ 0000000180022e00     ImageScanner.obj
 0002:00001e50       ??_7?$CComObject@VCOPOSImageScanner@@@ATL@@6B?$ISpecifyPropertyPagesImpl@VCOPOSImageScanner@@@1@@ 0000000180022e50     ImageScanner.obj
 0002:00001e70       ??_7?$CComObject@VCOPOSImageScanner@@@ATL@@6B?$IQuickActivateImpl@VCOPOSImageScanner@@@1@@ 0000000180022e70     ImageScanner.obj
 0002:00001ea0       ??_7?$CComObject@VCOPOSImageScanner@@@ATL@@6B?$IDataObjectImpl@VCOPOSImageScanner@@@1@@ 0000000180022ea0     ImageScanner.obj
 0002:00001f00       ??_7?$CComObject@VCOPOSImageScanner@@@ATL@@6B?$IProvideClassInfo2Impl@$1?CLSID_OPOSImageScanner@@3U_GUID@@B$1?DIID__IOPOSImageScannerEvents@@3U2@B$1?LIBID_OposImageScanner_CCO@@3U2@B$00$0A@VCComTypeInfoHolder@ATL@@@1@@ 0000000180022f00     ImageScanner.obj
 0002:00001f28       ??_7?$CComObject@VCOPOSImageScanner@@@ATL@@6B?$IObjectSafetyImpl@VCOPOSImageScanner@@$02@1@@ 0000000180022f28     ImageScanner.obj
 0002:00001f58       ??_7?$CComObject@VCOPOSImageScanner@@@ATL@@6B?$IPropertyNotifySinkCP@VCOPOSImageScanner@@VCComDynamicUnkArray@ATL@@@1@@ 0000000180022f58     ImageScanner.obj
 0002:00001f98       ??_7?$CComObject@VCOPOSImageScanner@@@ATL@@6B?$CProxy_IOPOSEvents@VCOPOSImageScanner@@@@@ 0000000180022f98     ImageScanner.obj
 0002:00001fd8       ??_C@_1O@GBFKGNEO@?$AAA?$AAT?$AAL?$AA?3?$AA?$CF?$AAp@ 0000000180022fd8     ImageScanner.obj
 0002:00001fe8       ??_C@_1BA@PICGEGJB@?$AAD?$AAI?$AAS?$AAP?$AAL?$AAA?$AAY@ 0000000180022fe8     ImageScanner.obj
 0002:00001ff8       _GUID_9bfbbc02_eff1_101a_84ed_00aa00341d07 0000000180022ff8     ImageScanner.obj
 0002:00002008       ?_entries@?1??_GetEntries@?$CComEnum@UIEnumConnectionPoints@@$1?_GUID_b196b285_bab4_101a_b69c_00aa00341d07@@3U__s_GUID@@BPEAUIConnectionPoint@@V?$_CopyInterface@UIConnectionPoint@@@ATL@@VCComSingleThreadModel@6@@ATL@@SAPEBU_ATL_INTMAP_ENTRY@3@XZ@4QBU43@B 0000000180023008     ImageScanner.obj
 0002:00002038       _GUID_00020412_0000_0000_c000_000000000046 0000000180023038     ImageScanner.obj
 0002:00002048       _GUID_00020401_0000_0000_c000_000000000046 0000000180023048     ImageScanner.obj
 0002:00002058       ??_7CComClassFactory@ATL@@6B@ 0000000180023058     ImageScanner.obj
 0002:00002088       ?_entries@?1??_GetEntries@CComClassFactory@ATL@@SAPEBU_ATL_INTMAP_ENTRY@3@XZ@4QBU43@B 0000000180023088     ImageScanner.obj
 0002:000020b8       _GUID_00000001_0000_0000_c000_000000000046 00000001800230b8     ImageScanner.obj
 0002:000020c8       ??_7?$CComObject@V?$CComEnum@UIEnumConnections@@$1?_GUID_b196b287_bab4_101a_b69c_00aa00341d07@@3U__s_GUID@@BUtagCONNECTDATA@@V?$_Copy@UtagCONNECTDATA@@@ATL@@VCComSingleThreadModel@6@@ATL@@@ATL@@6B@ 00000001800230c8     ImageScanner.obj
 0002:00002108       _GUID_55980ba0_35aa_11cf_b671_00aa004cd6d8 0000000180023108     ImageScanner.obj
 0002:00002118       _GUID_b196b28b_bab4_101a_b69c_00aa00341d07 0000000180023118     ImageScanner.obj
 0002:00002128       ?_entries@?1??_GetEntries@?$CComEnum@UIEnumConnections@@$1?_GUID_b196b287_bab4_101a_b69c_00aa00341d07@@3U__s_GUID@@BUtagCONNECTDATA@@V?$_Copy@UtagCONNECTDATA@@@ATL@@VCComSingleThreadModel@6@@ATL@@SAPEBU_ATL_INTMAP_ENTRY@3@XZ@4QBU43@B 0000000180023128     ImageScanner.obj
 0002:00002158       ??_C@_1BK@BIGILECK@?$AAA?$AAd?$AAv?$AAa?$AAp?$AAi?$AA3?$AA2?$AA?4?$AAd?$AAl?$AAl@ 0000000180023158     ImageScanner.obj
 0002:00002178       ??_C@_0BI@MNCFCPFK@RegCreateKeyTransactedW@ 0000000180023178     ImageScanner.obj
 0002:00002190       _GUID_b196b287_bab4_101a_b69c_00aa00341d07 0000000180023190     ImageScanner.obj
 0002:000021a0       _GUID_b196b285_bab4_101a_b69c_00aa00341d07 00000001800231a0     ImageScanner.obj
 0002:000021b0       IID_IOPOSImageScanner_1_11 00000001800231b0     ImageScanner.obj
 0002:000021c0       IID_IOPOSImageScanner      00000001800231c0     ImageScanner.obj
 0002:000021d0       LIBID_OposImageScanner_CCO 00000001800231d0     ImageScanner.obj
 0002:000021e0       DIID__IOPOSImageScannerEvents 00000001800231e0     ImageScanner.obj
 0002:000021f0       CLSID_OPOSImageScanner     00000001800231f0     ImageScanner.obj
 0002:00002200       _GUID_a6bc3ac0_dbaa_11ce_9de3_00aa004bb851 0000000180023200     ImageScanner.obj
 0002:00002210       _GUID_0000010c_0000_0000_c000_000000000046 0000000180023210     ImageScanner.obj
 0002:00002220       _GUID_00000114_0000_0000_c000_000000000046 0000000180023220     ImageScanner.obj
 0002:00002230       _GUID_00000146_0000_0000_c000_000000000046 0000000180023230     ImageScanner.obj
 0002:00002240       ??_7CComModule@ATL@@6B@    0000000180023240     ImageScanner.obj
 0002:00002290       _GUID_00000000_0000_0000_c000_000000000046 0000000180023290     ImageScanner.obj
 0002:000022a0       _GUID_00020400_0000_0000_c000_000000000046 00000001800232a0     ImageScanner.obj
 0002:000022b0       ??_C@_0BG@EKFFMJIO@RegOpenKeyTransactedW@ 00000001800232b0     ImageScanner.obj
 0002:000022c8       ??_C@_0BI@HAKLOOGP@RegDeleteKeyTransactedW@ 00000001800232c8     ImageScanner.obj
 0002:000022e0       ??_C@_19ILOCMLCJ@?$AA?4?$AAt?$AAl?$AAb@ 00000001800232e0     ImageScanner.obj
 0002:000022f0       _GUID_0002e012_0000_0000_c000_000000000046 00000001800232f0     ImageScanner.obj
 0002:00002300       ??_C@_1O@FHBGLCIO@?$AAC?$AAL?$AAS?$AAI?$AAD?$AA?2@ 0000000180023300     ImageScanner.obj
 0002:00002310       ??_C@_1CK@IFBKBFAA@?$AA?2?$AAR?$AAe?$AAq?$AAu?$AAi?$AAr?$AAe?$AAd?$AA?5?$AAC?$AAa?$AAt?$AAe?$AAg@ 0000000180023310     ImageScanner.obj
 0002:00002340       ??_C@_1DA@BIHALFED@?$AA?2?$AAI?$AAm?$AAp?$AAl?$AAe?$AAm?$AAe?$AAn?$AAt?$AAe?$AAd?$AA?5?$AAC?$AAa@ 0000000180023340     ImageScanner.obj
 0002:00002370       ??_C@_1BK@EDKOLFBJ@?$AAO?$AAL?$AAE?$AAA?$AAU?$AAT?$AA3?$AA2?$AA?4?$AAD?$AAL?$AAL@ 0000000180023370     ImageScanner.obj
 0002:00002390       ??_C@_0BJ@CNLFOMHB@UnRegisterTypeLibForUser@ 0000000180023390     ImageScanner.obj
 0002:000023b0       ??_C@_0BH@LBOMMKPJ@RegisterTypeLibForUser@ 00000001800233b0     ImageScanner.obj
 0002:000023c8       ??_C@_0P@MMNMMLGK@COFreezeEvents@ 00000001800233c8     ImageScannerImpl.obj
 0002:000023d8       ??_C@_0BC@OGCGGIMP@GetPropertyNumber@ 00000001800233d8     ImageScannerImpl.obj
 0002:000023f0       ??_C@_0BC@MDCNODNB@SetPropertyNumber@ 00000001800233f0     ImageScannerImpl.obj
 0002:00002408       ??_C@_0BC@CFCCMIMD@GetPropertyString@ 0000000180023408     ImageScannerImpl.obj
 0002:00002420       ??_C@_0BC@CJEDNN@SetPropertyString@ 0000000180023420     ImageScannerImpl.obj
 0002:00002438       ??_C@_0M@LNPKKKDA@OpenService@ 0000000180023438     ImageScannerImpl.obj
 0002:00002448       ??_C@_0M@PCMCHHMH@CheckHealth@ 0000000180023448     ImageScannerImpl.obj
 0002:00002458       ??_C@_0M@JGMIDNEK@ClaimDevice@ 0000000180023458     ImageScannerImpl.obj
 0002:00002468       ??_C@_0L@BNEIFEJC@ClearInput@ 0000000180023468     ImageScannerImpl.obj
 0002:00002478       ??_C@_0N@DDFIIBMP@CloseService@ 0000000180023478     ImageScannerImpl.obj
 0002:00002488       ??_C@_08EEIHICPC@DirectIO@ 0000000180023488     ImageScannerImpl.obj
 0002:00002498       ??_C@_0O@BCPMENMJ@ReleaseDevice@ 0000000180023498     ImageScannerImpl.obj
 0002:000024a8       ??_C@_0BA@GFABKEEE@ResetStatistics@ 00000001800234a8     ImageScannerImpl.obj
 0002:000024b8       ??_C@_0BD@DPALHJGC@RetrieveStatistics@ 00000001800234b8     ImageScannerImpl.obj
 0002:000024d0       ??_C@_0BB@KOHIKNFC@UpdateStatistics@ 00000001800234d0     ImageScannerImpl.obj
 0002:000024e8       ??_C@_0BH@PBKBNMGB@CompareFirmwareVersion@ 00000001800234e8     ImageScannerImpl.obj
 0002:00002500       ??_C@_0P@FBPDPIPA@UpdateFirmware@ 0000000180023500     ImageScannerImpl.obj
 0002:00002510       ??_C@_0BF@CMAPCJGM@ClearInputProperties@ 0000000180023510     ImageScannerImpl.obj
 0002:00002528       ??_C@_0N@GCBGNGGH@StartSession@ 0000000180023528     ImageScannerImpl.obj
 0002:00002538       ??_C@_0M@JOEDAMJP@StopSession@ 0000000180023538     ImageScannerImpl.obj
 0002:00002548       ??_7?$CProxy_IOPOSEvents@VCOPOSImageScanner@@@@6B@ 0000000180023548     ImageScannerImpl.obj
 0002:00002588       ??_C@_1BA@IFHENID@?$AA?$FL?$AAE?$AAr?$AAr?$AAo?$AAr?$AA?$FN@ 0000000180023588     ImageScannerImpl.obj
 0002:00002598       ??_C@_0CP@HACMBLAI@SOFTWARE?2OLEforRetail?2ServiceOP@ 0000000180023598     ImageScannerImpl.obj
 0002:000025c8       ??_C@_1M@IAIJHCCH@?$AAC?$AAl?$AAo?$AAs?$AAe@ 00000001800235c8     ImageScannerImpl.obj
 0002:000025d8       ??_C@_1M@PCPKGJAH@?$AAC?$AAl?$AAa?$AAi?$AAm@ 00000001800235d8     ImageScannerImpl.obj
 0002:000025e8       ??_C@_1BA@NDFKIOCP@?$AAR?$AAe?$AAl?$AAe?$AAa?$AAs?$AAe@ 00000001800235e8     ImageScannerImpl.obj
 0002:000025f8       ??_C@_0N@MEEKPIMD@ImageScanner@ 00000001800235f8     ImageScannerImpl.obj
 0002:00002608       ??_C@_1BM@IJMNMBPK@?$AAG?$AAe?$AAt?$AAO?$AAp?$AAe?$AAn?$AAR?$AAe?$AAs?$AAu?$AAl?$AAt@ 0000000180023608     ImageScannerImpl.obj
 0002:00002628       GUID_NULL                  0000000180023628     uuid:cguid_i.obj
 0002:00002638       CLSID_StdGlobalInterfaceTable 0000000180023638     uuid:cguid_i.obj
 0002:00002648       IID_IPropertyNotifySink    0000000180023648     uuid:ocidl_i.obj
 0002:00002658       IID_IDispatch              0000000180023658     uuid:oaidl_i.obj
 0002:00002668       CLSID_StdComponentCategoriesMgr 0000000180023668     uuid:ieguids.obj
 0002:00002678       IID_IUnknown               0000000180023678     uuid:unknwn_i.obj
 0002:000026b0       ??_C@_1EC@JIJBPKFM@?$AAa?$AAp?$AAi?$AA?9?$AAm?$AAs?$AA?9?$AAw?$AAi?$AAn?$AA?9?$AAc?$AAo?$AAr?$AAe@ 00000001800236b0     LIBCMT:thread_safe_statics.obj
 0002:000026f8       ??_C@_1BK@MGMFAEKH@?$AAk?$AAe?$AAr?$AAn?$AAe?$AAl?$AA3?$AA2?$AA?4?$AAd?$AAl?$AAl@ 00000001800236f8     LIBCMT:thread_safe_statics.obj
 0002:00002718       ??_C@_0BM@HLJJNPAH@InitializeConditionVariable@ 0000000180023718     LIBCMT:thread_safe_statics.obj
 0002:00002738       ??_C@_0BJ@JEBJOJFJ@SleepConditionVariableCS@ 0000000180023738     LIBCMT:thread_safe_statics.obj
 0002:00002758       ??_C@_0BJ@PGPPEPCC@WakeAllConditionVariable@ 0000000180023758     LIBCMT:thread_safe_statics.obj
 0002:00002771       ?nothrow@std@@3Unothrow_t@1@B 0000000180023771     LIBCMT:std_nothrow.obj
 0002:000027b0       _pDefaultRawDllMain        00000001800237b0     LIBCMT:dll_dllmain.obj
 0002:000027b0       _pRawDllMain               00000001800237b0     LIBCMT:dll_dllmain.obj
 0002:000027c0       ??_7exception@std@@6B@     00000001800237c0     LIBCMT:throw_bad_alloc.obj
 0002:000027d0       ??_C@_0BC@EOODALEL@Unknown?5exception@ 00000001800237d0     LIBCMT:throw_bad_alloc.obj
 0002:000027f0       ??_7bad_alloc@std@@6B@     00000001800237f0     LIBCMT:throw_bad_alloc.obj
 0002:00002800       ??_C@_0P@GHFPNOJB@bad?5allocation@ 0000000180023800     LIBCMT:throw_bad_alloc.obj
 0002:00002818       ??_7bad_array_new_length@std@@6B@ 0000000180023818     LIBCMT:throw_bad_alloc.obj
 0002:00002828       ??_C@_0BF@KINCDENJ@bad?5array?5new?5length@ 0000000180023828     LIBCMT:throw_bad_alloc.obj
 0002:00002848       ??_7type_info@@6B@         0000000180023848     LIBCMT:std_type_info_static.obj
 0002:00002850       GUID_ATLVer110             0000000180023850     atls:atlbase.obj
 0002:00002860       ??_C@_1IC@ONKHOIDK@?$AAE?$AAR?$AAR?$AAO?$AAR?$AA?5?$AA?3?$AA?5?$AAU?$AAn?$AAa?$AAb?$AAl?$AAe?$AA?5@ 0000000180023860     atls:atlbase.obj
 0002:000028e8       ??_C@_0N@FJEPLCIH@atlthunk?4dll@ 00000001800238e8     atls:atlthunk.obj
 0002:000028f8       ??_C@_0BG@GAKFHCBM@AtlThunk_AllocateData@ 00000001800238f8     atls:atlthunk.obj
 0002:00002910       ??_C@_0BC@JKONFIAH@AtlThunk_InitData@ 0000000180023910     atls:atlthunk.obj
 0002:00002928       ??_C@_0BE@IAOEELAK@AtlThunk_DataToCode@ 0000000180023928     atls:atlthunk.obj
 0002:00002940       ??_C@_0BC@GBGKAIPI@AtlThunk_FreeData@ 0000000180023940     atls:atlthunk.obj
 0002:00002958       _pDestructExceptionObject  0000000180023958     libvcruntime:ehhelpers.obj
 0002:00002a58       ??_C@_1DM@KHCHBNEB@?$AAa?$AAp?$AAi?$AA?9?$AAm?$AAs?$AA?9?$AAw?$AAi?$AAn?$AA?9?$AAc?$AAo?$AAr?$AAe@ 0000000180023a58     libvcruntime:winapi_downlevel.obj
 0002:00002a98       ??_C@_1DK@LPPGFMPP@?$AAa?$AAp?$AAi?$AA?9?$AAm?$AAs?$AA?9?$AAw?$AAi?$AAn?$AA?9?$AAc?$AAo?$AAr?$AAe@ 0000000180023a98     libvcruntime:winapi_downlevel.obj
 0002:00002ad8       ??_C@_1BC@GDMECMAK@?$AAk?$AAe?$AAr?$AAn?$AAe?$AAl?$AA3?$AA2@ 0000000180023ad8     libvcruntime:winapi_downlevel.obj
 0002:00002af0       ??_C@_1BA@PFFKHIOG@?$AAa?$AAp?$AAi?$AA?9?$AAm?$AAs?$AA?9@ 0000000180023af0     libvcruntime:winapi_downlevel.obj
 0002:00002b00       ??_C@_1BA@IAIFMGEF@?$AAe?$AAx?$AAt?$AA?9?$AAm?$AAs?$AA?9@ 0000000180023b00     libvcruntime:winapi_downlevel.obj
 0002:00002b18       ??_C@_08KNHFBNJ@FlsAlloc@  0000000180023b18     libvcruntime:winapi_downlevel.obj
 0002:00002b30       ??_C@_07PEJMOBNF@FlsFree@  0000000180023b30     libvcruntime:winapi_downlevel.obj
 0002:00002b40       ??_C@_0M@GDNOONDI@FlsGetValue@ 0000000180023b40     libvcruntime:winapi_downlevel.obj
 0002:00002b58       ??_C@_0M@JCPCPOEF@FlsSetValue@ 0000000180023b58     libvcruntime:winapi_downlevel.obj
 0002:00002b70       ??_C@_0BM@HCFOFFN@InitializeCriticalSectionEx@ 0000000180023b70     libvcruntime:winapi_downlevel.obj
 0002:00002b98       ??_7bad_exception@std@@6B@ 0000000180023b98     libvcruntime:frame.obj
 0002:00002ba8       ??_C@_0O@DPKOEFFH@bad?5exception@ 0000000180023ba8     libvcruntime:frame.obj
 0002:00002ef8       ??_C@_08EHJDFFNH@__based?$CI@ 0000000180023ef8     libvcruntime:undname.obj
 0002:00002f08       ??_C@_07KOLFKCDI@__cdecl@  0000000180023f08     libvcruntime:undname.obj
 0002:00002f10       ??_C@_08GHMPAG@__pascal@   0000000180023f10     libvcruntime:undname.obj
 0002:00002f20       ??_C@_09IFJBGAPI@__stdcall@ 0000000180023f20     libvcruntime:undname.obj
 0002:00002f30       ??_C@_0L@NPHFGOKO@__thiscall@ 0000000180023f30     libvcruntime:undname.obj
 0002:00002f40       ??_C@_0L@JMKHOMEK@__fastcall@ 0000000180023f40     libvcruntime:undname.obj
 0002:00002f50       ??_C@_0N@BCKKPABJ@__vectorcall@ 0000000180023f50     libvcruntime:undname.obj
 0002:00002f60       ??_C@_09HIJEGCPM@__clrcall@ 0000000180023f60     libvcruntime:undname.obj
 0002:00002f6c       ??_C@_06GHPCKEAG@__eabi@   0000000180023f6c     libvcruntime:undname.obj
 0002:00002f78       ??_C@_09IOPIDJLG@__swift_1@ 0000000180023f78     libvcruntime:undname.obj
 0002:00002f88       ??_C@_09KFNFGKHF@__swift_2@ 0000000180023f88     libvcruntime:undname.obj
 0002:00002f98       ??_C@_07JOMMBBKO@__ptr64@  0000000180023f98     libvcruntime:undname.obj
 0002:00002fa0       ??_C@_0L@PILCLIHE@__restrict@ 0000000180023fa0     libvcruntime:undname.obj
 0002:00002fb0       ??_C@_0M@GFIIJFMG@__unaligned@ 0000000180023fb0     libvcruntime:undname.obj
 0002:00002fc0       ??_C@_09DHDLOLLB@restrict?$CI@ 0000000180023fc0     libvcruntime:undname.obj
 0002:00002fca       ??_C@_00CNPNBAHC@@         0000000180023fca     libvcruntime:undname.obj
 0002:00002fcc       ??_C@_04NIHEBCM@?5new@     0000000180023fcc     libvcruntime:undname.obj
 0002:00002fd8       ??_C@_07FPCDHGMM@?5delete@ 0000000180023fd8     libvcruntime:undname.obj
 0002:00002fe0       ??_C@_01NEMOKFLO@?$DN@     0000000180023fe0     libvcruntime:undname.obj
 0002:00002fe4       ??_C@_02GPIOPFAK@?$DO?$DO@ 0000000180023fe4     libvcruntime:undname.obj
 0002:00002fe8       ??_C@_02FODMEDOG@?$DM?$DM@ 0000000180023fe8     libvcruntime:undname.obj
 0002:00002fec       ??_C@_01DCLJPIOD@?$CB@     0000000180023fec     libvcruntime:undname.obj
 0002:00002ff0       ??_C@_02EGOFBIJA@?$DN?$DN@ 0000000180023ff0     libvcruntime:undname.obj
 0002:00002ff4       ??_C@_02FDNJECIE@?$CB?$DN@ 0000000180023ff4     libvcruntime:undname.obj
 0002:00002ff8       ??_C@_02GPECMEKF@?$FL?$FN@ 0000000180023ff8     libvcruntime:undname.obj
 0002:00003000       ??_C@_08LHJFAFGD@operator@ 0000000180024000     libvcruntime:undname.obj
 0002:0000300c       ??_C@_02HBOOOICD@?9?$DO@   000000018002400c     libvcruntime:undname.obj
 0002:00003010       ??_C@_01NBENCBCI@?$CK@     0000000180024010     libvcruntime:undname.obj
 0002:00003014       ??_C@_02ECNGHCIF@?$CL?$CL@ 0000000180024014     libvcruntime:undname.obj
 0002:00003018       ??_C@_02BAABKJLB@?9?9@     0000000180024018     libvcruntime:undname.obj
 0002:0000301c       ??_C@_01JOAMLHOP@?9@       000000018002401c     libvcruntime:undname.obj
 0002:00003020       ??_C@_01MIFGBAGJ@?$CL@     0000000180024020     libvcruntime:undname.obj
 0002:00003024       ??_C@_01HNPIGOCE@?$CG@     0000000180024024     libvcruntime:undname.obj
 0002:00003028       ??_C@_03MNHNFDLC@?9?$DO?$CK@ 0000000180024028     libvcruntime:undname.obj
 0002:0000302c       ??_C@_01KMDKNFGN@?1@       000000018002402c     libvcruntime:undname.obj
 0002:00003030       ??_C@_01FGNFDNOH@?$CF@     0000000180024030     libvcruntime:undname.obj
 0002:00003034       ??_C@_01MNNFJEPP@?$DM@     0000000180024034     libvcruntime:undname.obj
 0002:00003038       ??_C@_02EHCHHCKH@?$DM?$DN@ 0000000180024038     libvcruntime:undname.obj
 0002:0000303c       ??_C@_01PPODPGHN@?$DO@     000000018002403c     libvcruntime:undname.obj
 0002:00003040       ??_C@_02EEKDKGMJ@?$DO?$DN@ 0000000180024040     libvcruntime:undname.obj
 0002:00003044       ??_C@_01IHBHIGKO@?0@       0000000180024044     libvcruntime:undname.obj
 0002:00003048       ??_C@_02HCKGKOFO@?$CI?$CJ@ 0000000180024048     libvcruntime:undname.obj
 0002:0000304c       ??_C@_01PJKLJHI@?$HO@      000000018002404c     libvcruntime:undname.obj
 0002:00003050       ??_C@_01JKBOJNNK@?$FO@     0000000180024050     libvcruntime:undname.obj
 0002:00003054       ??_C@_01DNKMNLPK@?$HM@     0000000180024054     libvcruntime:undname.obj
 0002:00003058       ??_C@_02PPKAJPJL@?$CG?$CG@ 0000000180024058     libvcruntime:undname.obj
 0002:0000305c       ??_C@_02NONPIBCD@?$HM?$HM@ 000000018002405c     libvcruntime:undname.obj
 0002:00003060       ??_C@_02FPIMKNGF@?$CK?$DN@ 0000000180024060     libvcruntime:undname.obj
 0002:00003064       ??_C@_02FOEOMHFC@?$CL?$DN@ 0000000180024064     libvcruntime:undname.obj
 0002:00003068       ??_C@_02FKMDLLOA@?9?$DN@   0000000180024068     libvcruntime:undname.obj
 0002:0000306c       ??_C@_02FJEHGPIO@?1?$DN@   000000018002406c     libvcruntime:undname.obj
 0002:00003070       ??_C@_02FENAOKFI@?$CF?$DN@ 0000000180024070     libvcruntime:undname.obj
 0002:00003074       ??_C@_03IKFCCPFF@?$DO?$DO?$DN@ 0000000180024074     libvcruntime:undname.obj
 0002:00003078       ??_C@_03CDNPDDLA@?$DM?$DM?$DN@ 0000000180024078     libvcruntime:undname.obj
 0002:0000307c       ??_C@_02FGJGFEAB@?$CG?$DN@ 000000018002407c     libvcruntime:undname.obj
 0002:00003080       ??_C@_02DHLNPPGH@?$HM?$DN@ 0000000180024080     libvcruntime:undname.obj
 0002:00003084       ??_C@_02MHEGNOJ@?$FO?$DN@  0000000180024084     libvcruntime:undname.obj
 0002:00003088       ??_C@_09IFPLHPGF@?$GAvftable?8@ 0000000180024088     libvcruntime:undname.obj
 0002:00003098       ??_C@_09BLBHBJP@?$GAvbtable?8@ 0000000180024098     libvcruntime:undname.obj
 0002:000030a8       ??_C@_07FEEIOKP@?$GAvcall?8@ 00000001800240a8     libvcruntime:undname.obj
 0002:000030b0       ??_C@_08LLFFHHDJ@?$GAtypeof?8@ 00000001800240b0     libvcruntime:undname.obj
 0002:000030c0       ??_C@_0BF@KDPPACIK@?$GAlocal?5static?5guard?8@ 00000001800240c0     libvcruntime:undname.obj
 0002:000030d8       ??_C@_08OBABFOLI@?$GAstring?8@ 00000001800240d8     libvcruntime:undname.obj
 0002:000030e8       ??_C@_0BD@JDLKDPAB@?$GAvbase?5destructor?8@ 00000001800240e8     libvcruntime:undname.obj
 0002:00003100       ??_C@_0BN@DEGPLNFK@?$GAvector?5deleting?5destructor?8@ 0000000180024100     libvcruntime:undname.obj
 0002:00003120       ??_C@_0BO@OBMKPJIG@?$GAdefault?5constructor?5closure?8@ 0000000180024120     libvcruntime:undname.obj
 0002:00003140       ??_C@_0BN@IMDCHIKM@?$GAscalar?5deleting?5destructor?8@ 0000000180024140     libvcruntime:undname.obj
 0002:00003160       ??_C@_0BO@PFGOCPJJ@?$GAvector?5constructor?5iterator?8@ 0000000180024160     libvcruntime:undname.obj
 0002:00003180       ??_C@_0BN@LFPFMEDL@?$GAvector?5destructor?5iterator?8@ 0000000180024180     libvcruntime:undname.obj
 0002:000031a0       ??_C@_0CE@IKBNEHA@?$GAvector?5vbase?5constructor?5itera@ 00000001800241a0     libvcruntime:undname.obj
 0002:000031c8       ??_C@_0BL@NILFHHPC@?$GAvirtual?5displacement?5map?8@ 00000001800241c8     libvcruntime:undname.obj
 0002:000031e8       ??_C@_0CB@JONCMFFK@?$GAeh?5vector?5constructor?5iterator@ 00000001800241e8     libvcruntime:undname.obj
 0002:00003210       ??_C@_0CA@GCEOPDGL@?$GAeh?5vector?5destructor?5iterator?8@ 0000000180024210     libvcruntime:undname.obj
 0002:00003230       ??_C@_0CH@OOJPLCPH@?$GAeh?5vector?5vbase?5constructor?5it@ 0000000180024230     libvcruntime:undname.obj
 0002:00003258       ??_C@_0BL@LLKPOHJI@?$GAcopy?5constructor?5closure?8@ 0000000180024258     libvcruntime:undname.obj
 0002:00003278       ??_C@_0BA@KBCDOMBN@?$GAudt?5returning?8@ 0000000180024278     libvcruntime:undname.obj
 0002:00003288       ??_C@_03KLGMFNMG@?$GAEH@   0000000180024288     libvcruntime:undname.obj
 0002:0000328c       ??_C@_05KHLCHHI@?$GARTTI@  000000018002428c     libvcruntime:undname.obj
 0002:00003298       ??_C@_0BA@KKLDJDLB@?$GAlocal?5vftable?8@ 0000000180024298     libvcruntime:undname.obj
 0002:000032a8       ??_C@_0CE@IIHCMGGL@?$GAlocal?5vftable?5constructor?5clos@ 00000001800242a8     libvcruntime:undname.obj
 0002:000032cc       ??_C@_06FHBGPFGH@?5new?$FL?$FN@ 00000001800242cc     libvcruntime:undname.obj
 0002:000032d8       ??_C@_09LBNFPBCA@?5delete?$FL?$FN@ 00000001800242d8     libvcruntime:undname.obj
 0002:000032e8       ??_C@_0P@HJKNJFNN@?$GAomni?5callsig?8@ 00000001800242e8     libvcruntime:undname.obj
 0002:000032f8       ??_C@_0BL@CNOONJFP@?$GAplacement?5delete?5closure?8@ 00000001800242f8     libvcruntime:undname.obj
 0002:00003318       ??_C@_0BN@CKNJLHMB@?$GAplacement?5delete?$FL?$FN?5closure?8@ 0000000180024318     libvcruntime:undname.obj
 0002:00003338       ??_C@_0CG@CFDHKGGD@?$GAmanaged?5vector?5constructor?5ite@ 0000000180024338     libvcruntime:undname.obj
 0002:00003360       ??_C@_0CF@IMGKMJNO@?$GAmanaged?5vector?5destructor?5iter@ 0000000180024360     libvcruntime:undname.obj
 0002:00003388       ??_C@_0CG@HLDDJMAG@?$GAeh?5vector?5copy?5constructor?5ite@ 0000000180024388     libvcruntime:undname.obj
 0002:000033b0       ??_C@_0CM@FCBBDIGB@?$GAeh?5vector?5vbase?5copy?5construct@ 00000001800243b0     libvcruntime:undname.obj
 0002:000033e0       ??_C@_0BL@CLIPGLGB@?$GAdynamic?5initializer?5for?5?8@ 00000001800243e0     libvcruntime:undname.obj
 0002:00003400       ??_C@_0CB@PDBIFEP@?$GAdynamic?5atexit?5destructor?5for?5@ 0000000180024400     libvcruntime:undname.obj
 0002:00003428       ??_C@_0CD@CGAJBKEJ@?$GAvector?5copy?5constructor?5iterat@ 0000000180024428     libvcruntime:undname.obj
 0002:00003450       ??_C@_0CJ@GJELGAMM@?$GAvector?5vbase?5copy?5constructor?5@ 0000000180024450     libvcruntime:undname.obj
 0002:00003480       ??_C@_0CL@FGIJHLCE@?$GAmanaged?5vector?5copy?5constructo@ 0000000180024480     libvcruntime:undname.obj
 0002:000034b0       ??_C@_0BM@PMGGMLDN@?$GAlocal?5static?5thread?5guard?8@ 00000001800244b0     libvcruntime:undname.obj
 0002:000034d0       ??_C@_0N@BDNMDMOL@operator?5?$CC?$CC?5@ 00000001800244d0     libvcruntime:undname.obj
 0002:000034e0       ??_C@_0BC@GGEBGALA@operator?5co_await@ 00000001800244e0     libvcruntime:undname.obj
 0002:000034f8       ??_C@_0BC@DAFEJGAK@?5Type?5Descriptor?8@ 00000001800244f8     libvcruntime:undname.obj
 0002:00003510       ??_C@_0BM@LDKODKLH@?5Base?5Class?5Descriptor?5at?5?$CI@ 0000000180024510     libvcruntime:undname.obj
 0002:00003530       ??_C@_0BD@LGICGFMM@?5Base?5Class?5Array?8@ 0000000180024530     libvcruntime:undname.obj
 0002:00003548       ??_C@_0BN@MECKDCOJ@?5Class?5Hierarchy?5Descriptor?8@ 0000000180024548     libvcruntime:undname.obj
 0002:00003568       ??_C@_0BK@CFCOFLF@?5Complete?5Object?5Locator?8@ 0000000180024568     libvcruntime:undname.obj
 0002:000036f0       format_validation_lookup_table 00000001800246f0     libucrt:output.obj
 0002:00003750       ??_C@_1O@CEDCILHN@?$AA?$CI?$AAn?$AAu?$AAl?$AAl?$AA?$CJ?$AA?$AA@ 0000000180024750     libucrt:output.obj
 0002:00003760       ??_C@_06OJHGLDPL@?$CInull?$CJ?$AA@ 0000000180024760     libucrt:output.obj
 0002:00003770       __acrt_exception_action_table 0000000180024770     libucrt:exception_filter.obj
 0002:00003830       __acrt_signal_action_table_count 0000000180024830     libucrt:exception_filter.obj
 0002:00003838       __acrt_signal_action_first_fpe_index 0000000180024838     libucrt:exception_filter.obj
 0002:00003840       __acrt_signal_action_fpe_count 0000000180024840     libucrt:exception_filter.obj
 0002:00003848       ??_C@_1BI@BGOHAHKC@?$AAm?$AAs?$AAc?$AAo?$AAr?$AAe?$AAe?$AA?4?$AAd?$AAl?$AAl?$AA?$AA@ 0000000180024848     libucrt:exit.obj
 0002:00003860       ??_C@_0P@MIGLKIOC@CorExitProcess?$AA@ 0000000180024860     libucrt:exit.obj
 0002:00003a00       ??_C@_1EA@JGEFHKEI@?$AAa?$AAp?$AAi?$AA?9?$AAm?$AAs?$AA?9?$AAw?$AAi?$AAn?$AA?9?$AAc?$AAo?$AAr?$AAe?$AA?9?$AAd?$AAa?$AAt?$AAe?$AAt?$AAi?$AAm?$AAe?$AA?9?$AAl?$AA1?$AA?9?$AA1?$AA?9?$AA1?$AA?$AA@ 0000000180024a00     libucrt:winapi_thunks.obj
 0002:00003a40       ??_C@_1DM@KHCHBNEB@?$AAa?$AAp?$AAi?$AA?9?$AAm?$AAs?$AA?9?$AAw?$AAi?$AAn?$AA?9?$AAc?$AAo?$AAr?$AAe?$AA?9?$AAf?$AAi?$AAb?$AAe?$AAr?$AAs?$AA?9?$AAl?$AA1?$AA?9?$AA1?$AA?9?$AA1?$AA?$AA@ 0000000180024a40     libucrt:winapi_thunks.obj
 0002:00003a80       ??_C@_1EI@MPIAOHOC@?$AAa?$AAp?$AAi?$AA?9?$AAm?$AAs?$AA?9?$AAw?$AAi?$AAn?$AA?9?$AAc?$AAo?$AAr?$AAe?$AA?9?$AAl?$AAo?$AAc?$AAa?$AAl?$AAi?$AAz?$AAa?$AAt?$AAi?$AAo?$AAn?$AA?9?$AAl?$AA1?$AA?9@ 0000000180024a80     libucrt:winapi_thunks.obj
 0002:00003ad0       ??_C@_1FK@FPHCKFIE@?$AAa?$AAp?$AAi?$AA?9?$AAm?$AAs?$AA?9?$AAw?$AAi?$AAn?$AA?9?$AAc?$AAo?$AAr?$AAe?$AA?9?$AAl?$AAo?$AAc?$AAa?$AAl?$AAi?$AAz?$AAa?$AAt?$AAi?$AAo?$AAn?$AA?9?$AAo?$AAb?$AAs@ 0000000180024ad0     libucrt:winapi_thunks.obj
 0002:00003b30       ??_C@_1EM@DILCGIIO@?$AAa?$AAp?$AAi?$AA?9?$AAm?$AAs?$AA?9?$AAw?$AAi?$AAn?$AA?9?$AAc?$AAo?$AAr?$AAe?$AA?9?$AAp?$AAr?$AAo?$AAc?$AAe?$AAs?$AAs?$AAt?$AAh?$AAr?$AAe?$AAa?$AAd?$AAs?$AA?9?$AAl@ 0000000180024b30     libucrt:winapi_thunks.obj
 0002:00003b80       ??_C@_1DM@LNCGDDPN@?$AAa?$AAp?$AAi?$AA?9?$AAm?$AAs?$AA?9?$AAw?$AAi?$AAn?$AA?9?$AAc?$AAo?$AAr?$AAe?$AA?9?$AAs?$AAt?$AAr?$AAi?$AAn?$AAg?$AA?9?$AAl?$AA1?$AA?9?$AA1?$AA?9?$AA0?$AA?$AA@ 0000000180024b80     libucrt:winapi_thunks.obj
 0002:00003bc0       ??_C@_1DK@LPPGFMPP@?$AAa?$AAp?$AAi?$AA?9?$AAm?$AAs?$AA?9?$AAw?$AAi?$AAn?$AA?9?$AAc?$AAo?$AAr?$AAe?$AA?9?$AAs?$AAy?$AAn?$AAc?$AAh?$AA?9?$AAl?$AA1?$AA?9?$AA2?$AA?9?$AA0?$AA?$AA@ 0000000180024bc0     libucrt:winapi_thunks.obj
 0002:00003c00       ??_C@_1DO@FPAPJEMD@?$AAa?$AAp?$AAi?$AA?9?$AAm?$AAs?$AA?9?$AAw?$AAi?$AAn?$AA?9?$AAc?$AAo?$AAr?$AAe?$AA?9?$AAs?$AAy?$AAs?$AAi?$AAn?$AAf?$AAo?$AA?9?$AAl?$AA1?$AA?9?$AA2?$AA?9?$AA1?$AA?$AA@ 0000000180024c00     libucrt:winapi_thunks.obj
 0002:00003c40       ??_C@_1DK@NDHNAHIO@?$AAa?$AAp?$AAi?$AA?9?$AAm?$AAs?$AA?9?$AAw?$AAi?$AAn?$AA?9?$AAc?$AAo?$AAr?$AAe?$AA?9?$AAw?$AAi?$AAn?$AAr?$AAt?$AA?9?$AAl?$AA1?$AA?9?$AA1?$AA?9?$AA0?$AA?$AA@ 0000000180024c40     libucrt:winapi_thunks.obj
 0002:00003c80       ??_C@_1DM@KGHDGBCM@?$AAa?$AAp?$AAi?$AA?9?$AAm?$AAs?$AA?9?$AAw?$AAi?$AAn?$AA?9?$AAc?$AAo?$AAr?$AAe?$AA?9?$AAx?$AAs?$AAt?$AAa?$AAt?$AAe?$AA?9?$AAl?$AA2?$AA?9?$AA1?$AA?9?$AA0?$AA?$AA@ 0000000180024c80     libucrt:winapi_thunks.obj
 0002:00003cc0       ??_C@_1EO@IJIOEFOH@?$AAa?$AAp?$AAi?$AA?9?$AAm?$AAs?$AA?9?$AAw?$AAi?$AAn?$AA?9?$AAr?$AAt?$AAc?$AAo?$AAr?$AAe?$AA?9?$AAn?$AAt?$AAu?$AAs?$AAe?$AAr?$AA?9?$AAw?$AAi?$AAn?$AAd?$AAo?$AAw?$AA?9@ 0000000180024cc0     libucrt:winapi_thunks.obj
 0002:00003d10       ??_C@_1FG@HHGEKANL@?$AAa?$AAp?$AAi?$AA?9?$AAm?$AAs?$AA?9?$AAw?$AAi?$AAn?$AA?9?$AAs?$AAe?$AAc?$AAu?$AAr?$AAi?$AAt?$AAy?$AA?9?$AAs?$AAy?$AAs?$AAt?$AAe?$AAm?$AAf?$AAu?$AAn?$AAc?$AAt?$AAi@ 0000000180024d10     libucrt:winapi_thunks.obj
 0002:00003d70       ??_C@_1EG@DBIOJECG@?$AAe?$AAx?$AAt?$AA?9?$AAm?$AAs?$AA?9?$AAw?$AAi?$AAn?$AA?9?$AAn?$AAt?$AAu?$AAs?$AAe?$AAr?$AA?9?$AAd?$AAi?$AAa?$AAl?$AAo?$AAg?$AAb?$AAo?$AAx?$AA?9?$AAl?$AA1?$AA?9?$AA1@ 0000000180024d70     libucrt:winapi_thunks.obj
 0002:00003dc0       ??_C@_1EO@FIHMJCLF@?$AAe?$AAx?$AAt?$AA?9?$AAm?$AAs?$AA?9?$AAw?$AAi?$AAn?$AA?9?$AAn?$AAt?$AAu?$AAs?$AAe?$AAr?$AA?9?$AAw?$AAi?$AAn?$AAd?$AAo?$AAw?$AAs?$AAt?$AAa?$AAt?$AAi?$AAo?$AAn?$AA?9@ 0000000180024dc0     libucrt:winapi_thunks.obj
 0002:00003e10       ??_C@_1BC@DNHGCMLG@?$AAa?$AAd?$AAv?$AAa?$AAp?$AAi?$AA3?$AA2?$AA?$AA@ 0000000180024e10     libucrt:winapi_thunks.obj
 0002:00003e28       ??_C@_1BC@GDMECMAK@?$AAk?$AAe?$AAr?$AAn?$AAe?$AAl?$AA3?$AA2?$AA?$AA@ 0000000180024e28     libucrt:winapi_thunks.obj
 0002:00003e40       ??_C@_1M@OAIMIKLP@?$AAn?$AAt?$AAd?$AAl?$AAl?$AA?$AA@ 0000000180024e40     libucrt:winapi_thunks.obj
 0002:00003e50       ??_C@_1EG@DPGNFKGC@?$AAa?$AAp?$AAi?$AA?9?$AAm?$AAs?$AA?9?$AAw?$AAi?$AAn?$AA?9?$AAa?$AAp?$AAp?$AAm?$AAo?$AAd?$AAe?$AAl?$AA?9?$AAr?$AAu?$AAn?$AAt?$AAi?$AAm?$AAe?$AA?9?$AAl?$AA1?$AA?9?$AA1@ 0000000180024e50     libucrt:winapi_thunks.obj
 0002:00003e98       ??_C@_1O@BCCLBEOE@?$AAu?$AAs?$AAe?$AAr?$AA3?$AA2?$AA?$AA@ 0000000180024e98     libucrt:winapi_thunks.obj
 0002:00003ea8       ??_C@_1BA@PFFKHIOG@?$AAa?$AAp?$AAi?$AA?9?$AAm?$AAs?$AA?9?$AA?$AA@ 0000000180024ea8     libucrt:winapi_thunks.obj
 0002:00003eb8       ??_C@_1BA@IAIFMGEF@?$AAe?$AAx?$AAt?$AA?9?$AAm?$AAs?$AA?9?$AA?$AA@ 0000000180024eb8     libucrt:winapi_thunks.obj
 0002:00003ed0       ??_C@_08KNHFBNJ@FlsAlloc?$AA@ 0000000180024ed0     libucrt:winapi_thunks.obj
 0002:00003ee8       ??_C@_07PEJMOBNF@FlsFree?$AA@ 0000000180024ee8     libucrt:winapi_thunks.obj
 0002:00003ef8       ??_C@_0M@GDNOONDI@FlsGetValue?$AA@ 0000000180024ef8     libucrt:winapi_thunks.obj
 0002:00003f10       ??_C@_0M@JCPCPOEF@FlsSetValue?$AA@ 0000000180024f10     libucrt:winapi_thunks.obj
 0002:00003f28       ??_C@_0BM@HCFOFFN@InitializeCriticalSectionEx?$AA@ 0000000180024f28     libucrt:winapi_thunks.obj
 0002:00003f50       ??_C@_0O@KKBNKAPF@LCMapStringEx?$AA@ 0000000180024f50     libucrt:winapi_thunks.obj
 0002:00003f68       ??_C@_0BB@HBDEELFH@LocaleNameToLCID?$AA@ 0000000180024f68     libucrt:winapi_thunks.obj
 0002:00003f80       ??_C@_0CF@OJOFEIGO@AppPolicyGetProcessTerminationMe@ 0000000180024f80     libucrt:winapi_thunks.obj
 0002:00003fb0       ??_C@_0BI@BKLFFAPO@SetThreadStackGuarantee?$AA@ 0000000180024fb0     libucrt:winapi_thunks.obj
 0002:00003fc8       ??_C@_03OEIAHPBN@INF?$AA@  0000000180024fc8     libucrt:cvt.obj
 0002:00003fcc       ??_C@_03OJHLLCGB@inf?$AA@  0000000180024fcc     libucrt:cvt.obj
 0002:00003fd0       ??_C@_03LKNCIKJB@NAN?$AA@  0000000180024fd0     libucrt:cvt.obj
 0002:00003fd4       ??_C@_03LHCJEHON@nan?$AA@  0000000180024fd4     libucrt:cvt.obj
 0002:00003fd8       ??_C@_09OFJJIMPC@NAN?$CISNAN?$CJ?$AA@ 0000000180024fd8     libucrt:cvt.obj
 0002:00003fe8       ??_C@_09IPFBKMDL@nan?$CIsnan?$CJ?$AA@ 0000000180024fe8     libucrt:cvt.obj
 0002:00003ff8       ??_C@_08IKHNHAJ@NAN?$CIIND?$CJ?$AA@ 0000000180024ff8     libucrt:cvt.obj
 0002:00004008       ??_C@_08OFCDMILK@nan?$CIind?$CJ?$AA@ 0000000180025008     libucrt:cvt.obj
 0002:00004014       ??_C@_05KLBDPFGC@e?$CL000?$AA@ 0000000180025014     libucrt:cvt.obj
 0002:00004020       __lc_time_c                0000000180025020     libucrt:nlsdata.obj
 0002:000042e0       ??_C@_03KOEHGMDN@Sun?$AA@  00000001800252e0     libucrt:nlsdata.obj
 0002:000042e4       ??_C@_03PDAGKDH@Mon?$AA@   00000001800252e4     libucrt:nlsdata.obj
 0002:000042e8       ??_C@_03NAGEINEP@Tue?$AA@  00000001800252e8     libucrt:nlsdata.obj
 0002:000042ec       ??_C@_03MHOMLAJA@Wed?$AA@  00000001800252ec     libucrt:nlsdata.obj
 0002:000042f0       ??_C@_03IOFIKPDN@Thu?$AA@  00000001800252f0     libucrt:nlsdata.obj
 0002:000042f4       ??_C@_03IDIOELNC@Fri?$AA@  00000001800252f4     libucrt:nlsdata.obj
 0002:000042f8       ??_C@_03FEFJNEK@Sat?$AA@   00000001800252f8     libucrt:nlsdata.obj
 0002:000042fc       ??_C@_06OOPIFAJ@Sunday?$AA@ 00000001800252fc     libucrt:nlsdata.obj
 0002:00004304       ??_C@_06JLEDEDGH@Monday?$AA@ 0000000180025304     libucrt:nlsdata.obj
 0002:00004310       ??_C@_07BAAGCFCM@Tuesday?$AA@ 0000000180025310     libucrt:nlsdata.obj
 0002:00004318       ??_C@_09DLIGFAKA@Wednesday?$AA@ 0000000180025318     libucrt:nlsdata.obj
 0002:00004328       ??_C@_08HACCIKIA@Thursday?$AA@ 0000000180025328     libucrt:nlsdata.obj
 0002:00004334       ??_C@_06JECMNKMI@Friday?$AA@ 0000000180025334     libucrt:nlsdata.obj
 0002:00004340       ??_C@_08INBOOONO@Saturday?$AA@ 0000000180025340     libucrt:nlsdata.obj
 0002:0000434c       ??_C@_03JIHJHPIE@Jan?$AA@  000000018002534c     libucrt:nlsdata.obj
 0002:00004350       ??_C@_03HJBDCHOM@Feb?$AA@  0000000180025350     libucrt:nlsdata.obj
 0002:00004354       ??_C@_03ODNJBKGA@Mar?$AA@  0000000180025354     libucrt:nlsdata.obj
 0002:00004358       ??_C@_03LEOLGMJP@Apr?$AA@  0000000180025358     libucrt:nlsdata.obj
 0002:0000435c       ??_C@_03CNMDKL@May?$AA@    000000018002535c     libucrt:nlsdata.obj
 0002:00004360       ??_C@_03IDFGHECI@Jun?$AA@  0000000180025360     libucrt:nlsdata.obj
 0002:00004364       ??_C@_03LBGABGKK@Jul?$AA@  0000000180025364     libucrt:nlsdata.obj
 0002:00004368       ??_C@_03IFJFEIGA@Aug?$AA@  0000000180025368     libucrt:nlsdata.obj
 0002:0000436c       ??_C@_03GGCAPAJC@Sep?$AA@  000000018002536c     libucrt:nlsdata.obj
 0002:00004370       ??_C@_03BMAOKBAD@Oct?$AA@  0000000180025370     libucrt:nlsdata.obj
 0002:00004374       ??_C@_03JPJOFNIA@Nov?$AA@  0000000180025374     libucrt:nlsdata.obj
 0002:00004378       ??_C@_03MKABNOCG@Dec?$AA@  0000000180025378     libucrt:nlsdata.obj
 0002:00004380       ??_C@_07CGJPFGJA@January?$AA@ 0000000180025380     libucrt:nlsdata.obj
 0002:00004388       ??_C@_08GNJGEPFN@February?$AA@ 0000000180025388     libucrt:nlsdata.obj
 0002:00004394       ??_C@_05HPCKOFNC@March?$AA@ 0000000180025394     libucrt:nlsdata.obj
 0002:0000439c       ??_C@_05DMJDNLEJ@April?$AA@ 000000018002539c     libucrt:nlsdata.obj
 0002:000043a4       ??_C@_04CNLMGBGM@June?$AA@ 00000001800253a4     libucrt:nlsdata.obj
 0002:000043ac       ??_C@_04MIEPOIFP@July?$AA@ 00000001800253ac     libucrt:nlsdata.obj
 0002:000043b4       ??_C@_06LBBHFDDG@August?$AA@ 00000001800253b4     libucrt:nlsdata.obj
 0002:000043c0       ??_C@_09BHHEALKD@September?$AA@ 00000001800253c0     libucrt:nlsdata.obj
 0002:000043d0       ??_C@_07JJNFCEND@October?$AA@ 00000001800253d0     libucrt:nlsdata.obj
 0002:000043d8       ??_C@_08HCHEGEOA@November?$AA@ 00000001800253d8     libucrt:nlsdata.obj
 0002:000043e8       ??_C@_08EDHMEBNP@December?$AA@ 00000001800253e8     libucrt:nlsdata.obj
 0002:000043f4       ??_C@_02DEDBPAFC@AM?$AA@   00000001800253f4     libucrt:nlsdata.obj
 0002:000043f8       ??_C@_02CJNFDJBF@PM?$AA@   00000001800253f8     libucrt:nlsdata.obj
 0002:00004400       ??_C@_08BPBNCDIB@MM?1dd?1yy?$AA@ 0000000180025400     libucrt:nlsdata.obj
 0002:00004410       ??_C@_0BE@CKGJFCPC@dddd?0?5MMMM?5dd?0?5yyyy?$AA@ 0000000180025410     libucrt:nlsdata.obj
 0002:00004428       ??_C@_08JCCMCCIL@HH?3mm?3ss?$AA@ 0000000180025428     libucrt:nlsdata.obj
 0002:00004438       ??_C@_17MBGCMIPB@?$AAS?$AAu?$AAn?$AA?$AA@ 0000000180025438     libucrt:nlsdata.obj
 0002:00004440       ??_C@_17KBOMKBF@?$AAM?$AAo?$AAn?$AA?$AA@ 0000000180025440     libucrt:nlsdata.obj
 0002:00004448       ??_C@_17BMKGEGOJ@?$AAT?$AAu?$AAe?$AA?$AA@ 0000000180025448     libucrt:nlsdata.obj
 0002:00004450       ??_C@_17CJEDCEPE@?$AAW?$AAe?$AAd?$AA?$AA@ 0000000180025450     libucrt:nlsdata.obj
 0002:00004458       ??_C@_17PDPHAADD@?$AAT?$AAh?$AAu?$AA?$AA@ 0000000180025458     libucrt:nlsdata.obj
 0002:00004460       ??_C@_17HFOLPPLP@?$AAF?$AAr?$AAi?$AA?$AA@ 0000000180025460     libucrt:nlsdata.obj
 0002:00004468       ??_C@_17GGIBDPIH@?$AAS?$AAa?$AAt?$AA?$AA@ 0000000180025468     libucrt:nlsdata.obj
 0002:00004470       ??_C@_1O@IHNHDHPB@?$AAS?$AAu?$AAn?$AAd?$AAa?$AAy?$AA?$AA@ 0000000180025470     libucrt:nlsdata.obj
 0002:00004480       ??_C@_1O@MMNBFLIA@?$AAM?$AAo?$AAn?$AAd?$AAa?$AAy?$AA?$AA@ 0000000180025480     libucrt:nlsdata.obj
 0002:00004490       ??_C@_1BA@ENFBFFEK@?$AAT?$AAu?$AAe?$AAs?$AAd?$AAa?$AAy?$AA?$AA@ 0000000180025490     libucrt:nlsdata.obj
 0002:000044a0       ??_C@_1BE@EBOGMDOH@?$AAW?$AAe?$AAd?$AAn?$AAe?$AAs?$AAd?$AAa?$AAy?$AA?$AA@ 00000001800254a0     libucrt:nlsdata.obj
 0002:000044b8       ??_C@_1BC@HHMNLIHE@?$AAT?$AAh?$AAu?$AAr?$AAs?$AAd?$AAa?$AAy?$AA?$AA@ 00000001800254b8     libucrt:nlsdata.obj
 0002:000044d0       ??_C@_1O@PDICJHAG@?$AAF?$AAr?$AAi?$AAd?$AAa?$AAy?$AA?$AA@ 00000001800254d0     libucrt:nlsdata.obj
 0002:000044e0       ??_C@_1BC@ENMNNPAJ@?$AAS?$AAa?$AAt?$AAu?$AAr?$AAd?$AAa?$AAy?$AA?$AA@ 00000001800254e0     libucrt:nlsdata.obj
 0002:000044f8       ??_C@_17DKNBKCHM@?$AAJ?$AAa?$AAn?$AA?$AA@ 00000001800254f8     libucrt:nlsdata.obj
 0002:00004500       ??_C@_17LMDJEKJN@?$AAF?$AAe?$AAb?$AA?$AA@ 0000000180025500     libucrt:nlsdata.obj
 0002:00004508       ??_C@_17CKNLEDEC@?$AAM?$AAa?$AAr?$AA?$AA@ 0000000180025508     libucrt:nlsdata.obj
 0002:00004510       ??_C@_17LFPOIHDD@?$AAA?$AAp?$AAr?$AA?$AA@ 0000000180025510     libucrt:nlsdata.obj
 0002:00004518       ??_C@_17PNNKMEED@?$AAM?$AAa?$AAy?$AA?$AA@ 0000000180025518     libucrt:nlsdata.obj
 0002:00004520       ??_C@_17KCJGOCPB@?$AAJ?$AAu?$AAn?$AA?$AA@ 0000000180025520     libucrt:nlsdata.obj
 0002:00004528       ??_C@_17IJPCKHK@?$AAJ?$AAu?$AAl?$AA?$AA@ 0000000180025528     libucrt:nlsdata.obj
 0002:00004530       ??_C@_17ICPELBCN@?$AAA?$AAu?$AAg?$AA?$AA@ 0000000180025530     libucrt:nlsdata.obj
 0002:00004538       ??_C@_17HCHCOKMG@?$AAS?$AAe?$AAp?$AA?$AA@ 0000000180025538     libucrt:nlsdata.obj
 0002:00004540       ??_C@_17FNLKOI@?$AAO?$AAc?$AAt?$AA?$AA@ 0000000180025540     libucrt:nlsdata.obj
 0002:00004548       ??_C@_17BBDMLCIG@?$AAN?$AAo?$AAv?$AA?$AA@ 0000000180025548     libucrt:nlsdata.obj
 0002:00004550       ??_C@_17EGKACKIF@?$AAD?$AAe?$AAc?$AA?$AA@ 0000000180025550     libucrt:nlsdata.obj
 0002:00004558       ??_C@_1BA@EFMEIEBA@?$AAJ?$AAa?$AAn?$AAu?$AAa?$AAr?$AAy?$AA?$AA@ 0000000180025558     libucrt:nlsdata.obj
 0002:00004568       ??_C@_1BC@JGDDFFAM@?$AAF?$AAe?$AAb?$AAr?$AAu?$AAa?$AAr?$AAy?$AA?$AA@ 0000000180025568     libucrt:nlsdata.obj
 0002:00004580       ??_C@_1M@IKEENEDF@?$AAM?$AAa?$AAr?$AAc?$AAh?$AA?$AA@ 0000000180025580     libucrt:nlsdata.obj
 0002:00004590       ??_C@_1M@GJNLMHFD@?$AAA?$AAp?$AAr?$AAi?$AAl?$AA?$AA@ 0000000180025590     libucrt:nlsdata.obj
 0002:000045a0       ??_C@_19EPFLPGAP@?$AAJ?$AAu?$AAn?$AAe?$AA?$AA@ 00000001800255a0     libucrt:nlsdata.obj
 0002:000045b0       ??_C@_19BIFMLPCD@?$AAJ?$AAu?$AAl?$AAy?$AA?$AA@ 00000001800255b0     libucrt:nlsdata.obj
 0002:000045c0       ??_C@_1O@PAHLKOAC@?$AAA?$AAu?$AAg?$AAu?$AAs?$AAt?$AA?$AA@ 00000001800255c0     libucrt:nlsdata.obj
 0002:000045d0       ??_C@_1BE@DKAAMBJL@?$AAS?$AAe?$AAp?$AAt?$AAe?$AAm?$AAb?$AAe?$AAr?$AA?$AA@ 00000001800255d0     libucrt:nlsdata.obj
 0002:000045e8       ??_C@_1BA@EPANDLNG@?$AAO?$AAc?$AAt?$AAo?$AAb?$AAe?$AAr?$AA?$AA@ 00000001800255e8     libucrt:nlsdata.obj
 0002:000045f8       ??_C@_1BC@BGLIFPF@?$AAN?$AAo?$AAv?$AAe?$AAm?$AAb?$AAe?$AAr?$AA?$AA@ 00000001800255f8     libucrt:nlsdata.obj
 0002:00004610       ??_C@_1BC@FEMKIFH@?$AAD?$AAe?$AAc?$AAe?$AAm?$AAb?$AAe?$AAr?$AA?$AA@ 0000000180025610     libucrt:nlsdata.obj
 0002:00004624       ??_C@_15ODEHAHHF@?$AAA?$AAM?$AA?$AA@ 0000000180025624     libucrt:nlsdata.obj
 0002:0000462c       ??_C@_15CLMNNGEL@?$AAP?$AAM?$AA?$AA@ 000000018002562c     libucrt:nlsdata.obj
 0002:00004638       ??_C@_1BC@IEBCMHCM@?$AAM?$AAM?$AA?1?$AAd?$AAd?$AA?1?$AAy?$AAy?$AA?$AA@ 0000000180025638     libucrt:nlsdata.obj
 0002:00004650       ??_C@_1CI@KNAKOEBC@?$AAd?$AAd?$AAd?$AAd?$AA?0?$AA?5?$AAM?$AAM?$AAM?$AAM?$AA?5?$AAd?$AAd?$AA?0?$AA?5?$AAy?$AAy?$AAy?$AAy?$AA?$AA@ 0000000180025650     libucrt:nlsdata.obj
 0002:00004678       ??_C@_1BC@GDGBMEMK@?$AAH?$AAH?$AA?3?$AAm?$AAm?$AA?3?$AAs?$AAs?$AA?$AA@ 0000000180025678     libucrt:nlsdata.obj
 0002:00004690       ??_C@_1M@BMHNFIME@?$AAe?$AAn?$AA?9?$AAU?$AAS?$AA?$AA@ 0000000180025690     libucrt:nlsdata.obj
 0002:000046c0       ??_C@_1M@HPNHIDJI@?$AAj?$AAa?$AA?9?$AAJ?$AAP?$AA?$AA@ 00000001800256c0     libucrt:mbctype.obj
 0002:000046d0       ??_C@_1M@BIBDDEMK@?$AAz?$AAh?$AA?9?$AAC?$AAN?$AA?$AA@ 00000001800256d0     libucrt:mbctype.obj
 0002:000046e0       ??_C@_1M@JLOOOEGK@?$AAk?$AAo?$AA?9?$AAK?$AAR?$AA?$AA@ 00000001800256e0     libucrt:mbctype.obj
 0002:000046f0       ??_C@_1M@CLNBBOPM@?$AAz?$AAh?$AA?9?$AAT?$AAW?$AA?$AA@ 00000001800256f0     libucrt:mbctype.obj
 0002:00004700       __newctype                 0000000180025700     libucrt:ctype.obj
 0002:00004a00       __newclmap                 0000000180025a00     libucrt:ctype.obj
 0002:00004b80       __newcumap                 0000000180025b80     libucrt:ctype.obj
 0002:00004d00       _wctype                    0000000180025d00     libucrt:ctype.obj
 0002:00004f08       ??_C@_1M@GPCBKDJK@?$AAh?$AAy?$AA?9?$AAA?$AAM?$AA?$AA@ 0000000180025f08     libucrt:lcidtoname_downlevel.obj
 0002:00004f18       ??_C@_1BG@BECMDDJB@?$AAa?$AAz?$AA?9?$AAA?$AAZ?$AA?9?$AAL?$AAa?$AAt?$AAn?$AA?$AA@ 0000000180025f18     libucrt:lcidtoname_downlevel.obj
 0002:00004f30       ??_C@_1M@MAOFCAEA@?$AAe?$AAu?$AA?9?$AAE?$AAS?$AA?$AA@ 0000000180025f30     libucrt:lcidtoname_downlevel.obj
 0002:00004f40       ??_C@_1M@IGHABKPI@?$AAm?$AAk?$AA?9?$AAM?$AAK?$AA?$AA@ 0000000180025f40     libucrt:lcidtoname_downlevel.obj
 0002:00004f50       ??_C@_1M@IAIGNEJG@?$AAt?$AAn?$AA?9?$AAZ?$AAA?$AA?$AA@ 0000000180025f50     libucrt:lcidtoname_downlevel.obj
 0002:00004f60       ??_C@_1M@IIJCOJFA@?$AAx?$AAh?$AA?9?$AAZ?$AAA?$AA?$AA@ 0000000180025f60     libucrt:lcidtoname_downlevel.obj
 0002:00004f70       ??_C@_1M@LGPJHNJH@?$AAz?$AAu?$AA?9?$AAZ?$AAA?$AA?$AA@ 0000000180025f70     libucrt:lcidtoname_downlevel.obj
 0002:00004f80       ??_C@_1M@HOKAOIO@?$AAa?$AAf?$AA?9?$AAZ?$AAA?$AA?$AA@ 0000000180025f80     libucrt:lcidtoname_downlevel.obj
 0002:00004f90       ??_C@_1M@DPCLHLIE@?$AAk?$AAa?$AA?9?$AAG?$AAE?$AA?$AA@ 0000000180025f90     libucrt:lcidtoname_downlevel.obj
 0002:00004fa0       ??_C@_1M@BLKMHJBI@?$AAf?$AAo?$AA?9?$AAF?$AAO?$AA?$AA@ 0000000180025fa0     libucrt:lcidtoname_downlevel.obj
 0002:00004fb0       ??_C@_1M@LGGJAPPB@?$AAh?$AAi?$AA?9?$AAI?$AAN?$AA?$AA@ 0000000180025fb0     libucrt:lcidtoname_downlevel.obj
 0002:00004fc0       ??_C@_1M@FIKPIHFE@?$AAm?$AAt?$AA?9?$AAM?$AAT?$AA?$AA@ 0000000180025fc0     libucrt:lcidtoname_downlevel.obj
 0002:00004fd0       ??_C@_1M@HEGGPBFA@?$AAs?$AAe?$AA?9?$AAN?$AAO?$AA?$AA@ 0000000180025fd0     libucrt:lcidtoname_downlevel.obj
 0002:00004fe0       ??_C@_1M@EIBJEEPA@?$AAm?$AAs?$AA?9?$AAM?$AAY?$AA?$AA@ 0000000180025fe0     libucrt:lcidtoname_downlevel.obj
 0002:00004ff0       ??_C@_1M@FHLBGMPP@?$AAk?$AAk?$AA?9?$AAK?$AAZ?$AA?$AA@ 0000000180025ff0     libucrt:lcidtoname_downlevel.obj
 0002:00005000       ??_C@_1M@NGJJLCGI@?$AAk?$AAy?$AA?9?$AAK?$AAG?$AA?$AA@ 0000000180026000     libucrt:lcidtoname_downlevel.obj
 0002:00005010       ??_C@_1M@GIENNBFC@?$AAs?$AAw?$AA?9?$AAK?$AAE?$AA?$AA@ 0000000180026010     libucrt:lcidtoname_downlevel.obj
 0002:00005020       ??_C@_1BG@NDGMJIMJ@?$AAu?$AAz?$AA?9?$AAU?$AAZ?$AA?9?$AAL?$AAa?$AAt?$AAn?$AA?$AA@ 0000000180026020     libucrt:lcidtoname_downlevel.obj
 0002:00005038       ??_C@_1M@IDCCIHBC@?$AAt?$AAt?$AA?9?$AAR?$AAU?$AA?$AA@ 0000000180026038     libucrt:lcidtoname_downlevel.obj
 0002:00005048       ??_C@_1M@LOICPMOJ@?$AAb?$AAn?$AA?9?$AAI?$AAN?$AA?$AA@ 0000000180026048     libucrt:lcidtoname_downlevel.obj
 0002:00005058       ??_C@_1M@KPKKNEAH@?$AAp?$AAa?$AA?9?$AAI?$AAN?$AA?$AA@ 0000000180026058     libucrt:lcidtoname_downlevel.obj
 0002:00005068       ??_C@_1M@PJGPPBOG@?$AAg?$AAu?$AA?9?$AAI?$AAN?$AA?$AA@ 0000000180026068     libucrt:lcidtoname_downlevel.obj
 0002:00005078       ??_C@_1M@KMKMOPHI@?$AAt?$AAa?$AA?9?$AAI?$AAN?$AA?$AA@ 0000000180026078     libucrt:lcidtoname_downlevel.obj
 0002:00005088       ??_C@_1M@KFEHEPAC@?$AAt?$AAe?$AA?9?$AAI?$AAN?$AA?$AA@ 0000000180026088     libucrt:lcidtoname_downlevel.obj
 0002:00005098       ??_C@_1M@CDCLMGHI@?$AAk?$AAn?$AA?9?$AAI?$AAN?$AA?$AA@ 0000000180026098     libucrt:lcidtoname_downlevel.obj
 0002:000050a8       ??_C@_1M@MIODLDKF@?$AAm?$AAl?$AA?9?$AAI?$AAN?$AA?$AA@ 00000001800260a8     libucrt:lcidtoname_downlevel.obj
 0002:000050b8       ??_C@_1M@PBIEACPO@?$AAm?$AAr?$AA?9?$AAI?$AAN?$AA?$AA@ 00000001800260b8     libucrt:lcidtoname_downlevel.obj
 0002:000050c8       ??_C@_1M@NIDEAGPH@?$AAs?$AAa?$AA?9?$AAI?$AAN?$AA?$AA@ 00000001800260c8     libucrt:lcidtoname_downlevel.obj
 0002:000050d8       ??_C@_1M@FHIHCBIO@?$AAm?$AAn?$AA?9?$AAM?$AAN?$AA?$AA@ 00000001800260d8     libucrt:lcidtoname_downlevel.obj
 0002:000050e8       ??_C@_1M@JAIJPENP@?$AAc?$AAy?$AA?9?$AAG?$AAB?$AA?$AA@ 00000001800260e8     libucrt:lcidtoname_downlevel.obj
 0002:000050f8       ??_C@_1M@PHGFBEPN@?$AAg?$AAl?$AA?9?$AAE?$AAS?$AA?$AA@ 00000001800260f8     libucrt:lcidtoname_downlevel.obj
 0002:00005108       ??_C@_1O@KPIPDNCP@?$AAk?$AAo?$AAk?$AA?9?$AAI?$AAN?$AA?$AA@ 0000000180026108     libucrt:lcidtoname_downlevel.obj
 0002:00005118       ??_C@_1O@KNHJLDJA@?$AAs?$AAy?$AAr?$AA?9?$AAS?$AAY?$AA?$AA@ 0000000180026118     libucrt:lcidtoname_downlevel.obj
 0002:00005128       ??_C@_1O@MKEKBLAH@?$AAd?$AAi?$AAv?$AA?9?$AAM?$AAV?$AA?$AA@ 0000000180026128     libucrt:lcidtoname_downlevel.obj
 0002:00005138       ??_C@_1O@OHDCKDDF@?$AAq?$AAu?$AAz?$AA?9?$AAB?$AAO?$AA?$AA@ 0000000180026138     libucrt:lcidtoname_downlevel.obj
 0002:00005148       ??_C@_1M@LEPJNLFD@?$AAn?$AAs?$AA?9?$AAZ?$AAA?$AA?$AA@ 0000000180026148     libucrt:lcidtoname_downlevel.obj
 0002:00005158       ??_C@_1M@OMLEIIJB@?$AAm?$AAi?$AA?9?$AAN?$AAZ?$AA?$AA@ 0000000180026158     libucrt:lcidtoname_downlevel.obj
 0002:00005168       ??_C@_1M@PMPEAILG@?$AAa?$AAr?$AA?9?$AAI?$AAQ?$AA?$AA@ 0000000180026168     libucrt:lcidtoname_downlevel.obj
 0002:00005178       ??_C@_1M@CNKPNOEE@?$AAd?$AAe?$AA?9?$AAC?$AAH?$AA?$AA@ 0000000180026178     libucrt:lcidtoname_downlevel.obj
 0002:00005188       ??_C@_1M@LKMGMLKO@?$AAe?$AAn?$AA?9?$AAG?$AAB?$AA?$AA@ 0000000180026188     libucrt:lcidtoname_downlevel.obj
 0002:00005198       ??_C@_1M@PGKJFFGL@?$AAe?$AAs?$AA?9?$AAM?$AAX?$AA?$AA@ 0000000180026198     libucrt:lcidtoname_downlevel.obj
 0002:000051a8       ??_C@_1M@DNNANBDC@?$AAf?$AAr?$AA?9?$AAB?$AAE?$AA?$AA@ 00000001800261a8     libucrt:lcidtoname_downlevel.obj
 0002:000051b8       ??_C@_1M@HLGMDFHM@?$AAi?$AAt?$AA?9?$AAC?$AAH?$AA?$AA@ 00000001800261b8     libucrt:lcidtoname_downlevel.obj
 0002:000051c8       ??_C@_1M@CLLBGJH@?$AAn?$AAl?$AA?9?$AAB?$AAE?$AA?$AA@ 00000001800261c8     libucrt:lcidtoname_downlevel.obj
 0002:000051d8       ??_C@_1M@BODBOGLF@?$AAn?$AAn?$AA?9?$AAN?$AAO?$AA?$AA@ 00000001800261d8     libucrt:lcidtoname_downlevel.obj
 0002:000051e8       ??_C@_1M@HFFAHKAD@?$AAp?$AAt?$AA?9?$AAP?$AAT?$AA?$AA@ 00000001800261e8     libucrt:lcidtoname_downlevel.obj
 0002:000051f8       ??_C@_1BG@LNOAKHIE@?$AAs?$AAr?$AA?9?$AAS?$AAP?$AA?9?$AAL?$AAa?$AAt?$AAn?$AA?$AA@ 00000001800261f8     libucrt:lcidtoname_downlevel.obj
 0002:00005210       ??_C@_1M@HBMHBGAK@?$AAs?$AAv?$AA?9?$AAF?$AAI?$AA?$AA@ 0000000180026210     libucrt:lcidtoname_downlevel.obj
 0002:00005220       ??_C@_1BG@DGCJGJBE@?$AAa?$AAz?$AA?9?$AAA?$AAZ?$AA?9?$AAC?$AAy?$AAr?$AAl?$AA?$AA@ 0000000180026220     libucrt:lcidtoname_downlevel.obj
 0002:00005238       ??_C@_1M@KEJDAAHB@?$AAs?$AAe?$AA?9?$AAS?$AAE?$AA?$AA@ 0000000180026238     libucrt:lcidtoname_downlevel.obj
 0002:00005248       ??_C@_1M@HEIBJJAD@?$AAm?$AAs?$AA?9?$AAB?$AAN?$AA?$AA@ 0000000180026248     libucrt:lcidtoname_downlevel.obj
 0002:00005258       ??_C@_1BG@PBGJMCEM@?$AAu?$AAz?$AA?9?$AAU?$AAZ?$AA?9?$AAC?$AAy?$AAr?$AAl?$AA?$AA@ 0000000180026258     libucrt:lcidtoname_downlevel.obj
 0002:00005270       ??_C@_1O@LAOBCMDF@?$AAq?$AAu?$AAz?$AA?9?$AAE?$AAC?$AA?$AA@ 0000000180026270     libucrt:lcidtoname_downlevel.obj
 0002:00005280       ??_C@_1M@POEEMAIO@?$AAa?$AAr?$AA?9?$AAE?$AAG?$AA?$AA@ 0000000180026280     libucrt:lcidtoname_downlevel.obj
 0002:00005290       ??_C@_1M@EFAKDEDL@?$AAz?$AAh?$AA?9?$AAH?$AAK?$AA?$AA@ 0000000180026290     libucrt:lcidtoname_downlevel.obj
 0002:000052a0       ??_C@_1M@HKKIJHGI@?$AAd?$AAe?$AA?9?$AAA?$AAT?$AA?$AA@ 00000001800262a0     libucrt:lcidtoname_downlevel.obj
 0002:000052b0       ??_C@_1M@KBFBEHJF@?$AAe?$AAn?$AA?9?$AAA?$AAU?$AA?$AA@ 00000001800262b0     libucrt:lcidtoname_downlevel.obj
 0002:000052c0       ??_C@_1M@MNPLFAAH@?$AAe?$AAs?$AA?9?$AAE?$AAS?$AA?$AA@ 00000001800262c0     libucrt:lcidtoname_downlevel.obj
 0002:000052d0       ??_C@_1M@HJOOJFMA@?$AAf?$AAr?$AA?9?$AAC?$AAA?$AA?$AA@ 00000001800262d0     libucrt:lcidtoname_downlevel.obj
 0002:000052e0       ??_C@_1BG@JPOFPNAB@?$AAs?$AAr?$AA?9?$AAS?$AAP?$AA?9?$AAC?$AAy?$AAr?$AAl?$AA?$AA@ 00000001800262e0     libucrt:lcidtoname_downlevel.obj
 0002:000052f8       ??_C@_1M@LNFOCMOB@?$AAs?$AAe?$AA?9?$AAF?$AAI?$AA?$AA@ 00000001800262f8     libucrt:lcidtoname_downlevel.obj
 0002:00005308       ??_C@_1O@MGJBOAMB@?$AAq?$AAu?$AAz?$AA?9?$AAP?$AAE?$AA?$AA@ 0000000180026308     libucrt:lcidtoname_downlevel.obj
 0002:00005318       ??_C@_1M@GJINLBOK@?$AAa?$AAr?$AA?9?$AAL?$AAY?$AA?$AA@ 0000000180026318     libucrt:lcidtoname_downlevel.obj
 0002:00005328       ??_C@_1M@GGMNHJNL@?$AAz?$AAh?$AA?9?$AAS?$AAG?$AA?$AA@ 0000000180026328     libucrt:lcidtoname_downlevel.obj
 0002:00005338       ??_C@_1M@HOIKODND@?$AAd?$AAe?$AA?9?$AAL?$AAU?$AA?$AA@ 0000000180026338     libucrt:lcidtoname_downlevel.obj
 0002:00005348       ??_C@_1M@DDOCCGFG@?$AAe?$AAn?$AA?9?$AAC?$AAA?$AA?$AA@ 0000000180026348     libucrt:lcidtoname_downlevel.obj
 0002:00005358       ??_C@_1M@BNOEMJLF@?$AAe?$AAs?$AA?9?$AAG?$AAT?$AA?$AA@ 0000000180026358     libucrt:lcidtoname_downlevel.obj
 0002:00005368       ??_C@_1M@EOGNKEK@?$AAf?$AAr?$AA?9?$AAC?$AAH?$AA?$AA@ 0000000180026368     libucrt:lcidtoname_downlevel.obj
 0002:00005378       ??_C@_1M@FLIDJFHL@?$AAh?$AAr?$AA?9?$AAB?$AAA?$AA?$AA@ 0000000180026378     libucrt:lcidtoname_downlevel.obj
 0002:00005388       ??_C@_1O@FMCELNAJ@?$AAs?$AAm?$AAj?$AA?9?$AAN?$AAO?$AA?$AA@ 0000000180026388     libucrt:lcidtoname_downlevel.obj
 0002:00005398       ??_C@_1M@JHGLJMGJ@?$AAa?$AAr?$AA?9?$AAD?$AAZ?$AA?$AA@ 0000000180026398     libucrt:lcidtoname_downlevel.obj
 0002:000053a8       ??_C@_1M@JKKFDCNP@?$AAz?$AAh?$AA?9?$AAM?$AAO?$AA?$AA@ 00000001800263a8     libucrt:lcidtoname_downlevel.obj
 0002:000053b8       ??_C@_1M@GEEFALPE@?$AAd?$AAe?$AA?9?$AAL?$AAI?$AA?$AA@ 00000001800263b8     libucrt:lcidtoname_downlevel.obj
 0002:000053c8       ??_C@_1M@IGEOFBG@?$AAe?$AAn?$AA?9?$AAN?$AAZ?$AA?$AA@ 00000001800263c8     libucrt:lcidtoname_downlevel.obj
 0002:000053d8       ??_C@_1M@KDBONEHP@?$AAe?$AAs?$AA?9?$AAC?$AAR?$AA?$AA@ 00000001800263d8     libucrt:lcidtoname_downlevel.obj
 0002:000053e8       ??_C@_1M@FHMDOHNN@?$AAf?$AAr?$AA?9?$AAL?$AAU?$AA?$AA@ 00000001800263e8     libucrt:lcidtoname_downlevel.obj
 0002:000053f8       ??_C@_1BG@NFKKMAFG@?$AAb?$AAs?$AA?9?$AAB?$AAA?$AA?9?$AAL?$AAa?$AAt?$AAn?$AA?$AA@ 00000001800263f8     libucrt:lcidtoname_downlevel.obj
 0002:00005410       ??_C@_1O@IMNBEMCI@?$AAs?$AAm?$AAj?$AA?9?$AAS?$AAE?$AA?$AA@ 0000000180026410     libucrt:lcidtoname_downlevel.obj
 0002:00005420       ??_C@_1M@DHHMBNDP@?$AAa?$AAr?$AA?9?$AAM?$AAA?$AA?$AA@ 0000000180026420     libucrt:lcidtoname_downlevel.obj
 0002:00005430       ??_C@_1M@BNBLJCGH@?$AAe?$AAn?$AA?9?$AAI?$AAE?$AA?$AA@ 0000000180026430     libucrt:lcidtoname_downlevel.obj
 0002:00005440       ??_C@_1M@GEPAFMDL@?$AAe?$AAs?$AA?9?$AAP?$AAA?$AA?$AA@ 0000000180026440     libucrt:lcidtoname_downlevel.obj
 0002:00005450       ??_C@_1M@OJONDMDL@?$AAf?$AAr?$AA?9?$AAM?$AAC?$AA?$AA@ 0000000180026450     libucrt:lcidtoname_downlevel.obj
 0002:00005460       ??_C@_1BG@OBCNFJB@?$AAs?$AAr?$AA?9?$AAB?$AAA?$AA?9?$AAL?$AAa?$AAt?$AAn?$AA?$AA@ 0000000180026460     libucrt:lcidtoname_downlevel.obj
 0002:00005478       ??_C@_1O@KEMEEGPO@?$AAs?$AAm?$AAa?$AA?9?$AAN?$AAO?$AA?$AA@ 0000000180026478     libucrt:lcidtoname_downlevel.obj
 0002:00005488       ??_C@_1M@ELMGFODK@?$AAa?$AAr?$AA?9?$AAT?$AAN?$AA?$AA@ 0000000180026488     libucrt:lcidtoname_downlevel.obj
 0002:00005498       ??_C@_1M@BHDLHFAF@?$AAe?$AAn?$AA?9?$AAZ?$AAA?$AA?$AA@ 0000000180026498     libucrt:lcidtoname_downlevel.obj
 0002:000054a8       ??_C@_1M@BMGIGLIF@?$AAe?$AAs?$AA?9?$AAD?$AAO?$AA?$AA@ 00000001800264a8     libucrt:lcidtoname_downlevel.obj
 0002:000054b8       ??_C@_1BG@CMBHIPBE@?$AAs?$AAr?$AA?9?$AAB?$AAA?$AA?9?$AAC?$AAy?$AAr?$AAl?$AA?$AA@ 00000001800264b8     libucrt:lcidtoname_downlevel.obj
 0002:000054d0       ??_C@_1O@HEDBLHNP@?$AAs?$AAm?$AAa?$AA?9?$AAS?$AAE?$AA?$AA@ 00000001800264d0     libucrt:lcidtoname_downlevel.obj
 0002:000054e0       ??_C@_1M@DAGCADIM@?$AAa?$AAr?$AA?9?$AAO?$AAM?$AA?$AA@ 00000001800264e0     libucrt:lcidtoname_downlevel.obj
 0002:000054f0       ??_C@_1M@FODLMICG@?$AAe?$AAn?$AA?9?$AAJ?$AAM?$AA?$AA@ 00000001800264f0     libucrt:lcidtoname_downlevel.obj
 0002:00005500       ??_C@_1M@DNMLCIHB@?$AAe?$AAs?$AA?9?$AAV?$AAE?$AA?$AA@ 0000000180026500     libucrt:lcidtoname_downlevel.obj
 0002:00005510       ??_C@_1O@EOKHMKJK@?$AAs?$AAm?$AAs?$AA?9?$AAF?$AAI?$AA?$AA@ 0000000180026510     libucrt:lcidtoname_downlevel.obj
 0002:00005520       ??_C@_1M@CAFJMKOF@?$AAa?$AAr?$AA?9?$AAY?$AAE?$AA?$AA@ 0000000180026520     libucrt:lcidtoname_downlevel.obj
 0002:00005530       ??_C@_1M@CBFHIJLI@?$AAe?$AAn?$AA?9?$AAC?$AAB?$AA?$AA@ 0000000180026530     libucrt:lcidtoname_downlevel.obj
 0002:00005540       ??_C@_1M@BGNFLDN@?$AAe?$AAs?$AA?9?$AAC?$AAO?$AA?$AA@ 0000000180026540     libucrt:lcidtoname_downlevel.obj
 0002:00005550       ??_C@_1O@JMPHMAMC@?$AAs?$AAm?$AAn?$AA?9?$AAF?$AAI?$AA?$AA@ 0000000180026550     libucrt:lcidtoname_downlevel.obj
 0002:00005560       ??_C@_1M@JLANABKE@?$AAa?$AAr?$AA?9?$AAS?$AAY?$AA?$AA@ 0000000180026560     libucrt:lcidtoname_downlevel.obj
 0002:00005570       ??_C@_1M@HPKGCFGN@?$AAe?$AAn?$AA?9?$AAB?$AAZ?$AA?$AA@ 0000000180026570     libucrt:lcidtoname_downlevel.obj
 0002:00005580       ??_C@_1M@OLJCMLGM@?$AAe?$AAs?$AA?9?$AAP?$AAE?$AA?$AA@ 0000000180026580     libucrt:lcidtoname_downlevel.obj
 0002:00005590       ??_C@_1M@MKKGFKLE@?$AAa?$AAr?$AA?9?$AAJ?$AAO?$AA?$AA@ 0000000180026590     libucrt:lcidtoname_downlevel.obj
 0002:000055a0       ??_C@_1M@EKPGLDNI@?$AAe?$AAn?$AA?9?$AAT?$AAT?$AA?$AA@ 00000001800265a0     libucrt:lcidtoname_downlevel.obj
 0002:000055b0       ??_C@_1M@OONGHFHE@?$AAe?$AAs?$AA?9?$AAA?$AAR?$AA?$AA@ 00000001800265b0     libucrt:lcidtoname_downlevel.obj
 0002:000055c0       ??_C@_1M@OOJFGBHE@?$AAa?$AAr?$AA?9?$AAL?$AAB?$AA?$AA@ 00000001800265c0     libucrt:lcidtoname_downlevel.obj
 0002:000055d0       ??_C@_1M@GCEJHNEG@?$AAe?$AAn?$AA?9?$AAZ?$AAW?$AA?$AA@ 00000001800265d0     libucrt:lcidtoname_downlevel.obj
 0002:000055e0       ??_C@_1M@JNOCAHJI@?$AAe?$AAs?$AA?9?$AAE?$AAC?$AA?$AA@ 00000001800265e0     libucrt:lcidtoname_downlevel.obj
 0002:000055f0       ??_C@_1M@JEFHPGGB@?$AAa?$AAr?$AA?9?$AAK?$AAW?$AA?$AA@ 00000001800265f0     libucrt:lcidtoname_downlevel.obj
 0002:00005600       ??_C@_1M@MLKIBJOJ@?$AAe?$AAn?$AA?9?$AAP?$AAH?$AA?$AA@ 0000000180026600     libucrt:lcidtoname_downlevel.obj
 0002:00005610       ??_C@_1M@BDNIPEND@?$AAe?$AAs?$AA?9?$AAC?$AAL?$AA?$AA@ 0000000180026610     libucrt:lcidtoname_downlevel.obj
 0002:00005620       ??_C@_1M@MPNMEKBD@?$AAa?$AAr?$AA?9?$AAA?$AAE?$AA?$AA@ 0000000180026620     libucrt:lcidtoname_downlevel.obj
 0002:00005630       ??_C@_1M@KBJALCPI@?$AAe?$AAs?$AA?9?$AAU?$AAY?$AA?$AA@ 0000000180026630     libucrt:lcidtoname_downlevel.obj
 0002:00005640       ??_C@_1M@LLCCOAGA@?$AAa?$AAr?$AA?9?$AAB?$AAH?$AA?$AA@ 0000000180026640     libucrt:lcidtoname_downlevel.obj
 0002:00005650       ??_C@_1M@PBFNCDEL@?$AAe?$AAs?$AA?9?$AAP?$AAY?$AA?$AA@ 0000000180026650     libucrt:lcidtoname_downlevel.obj
 0002:00005660       ??_C@_1M@EDGINPNP@?$AAa?$AAr?$AA?9?$AAQ?$AAA?$AA?$AA@ 0000000180026660     libucrt:lcidtoname_downlevel.obj
 0002:00005670       ??_C@_1M@MKDBIIJI@?$AAe?$AAs?$AA?9?$AAB?$AAO?$AA?$AA@ 0000000180026670     libucrt:lcidtoname_downlevel.obj
 0002:00005680       ??_C@_1M@CPKKEBLD@?$AAe?$AAs?$AA?9?$AAS?$AAV?$AA?$AA@ 0000000180026680     libucrt:lcidtoname_downlevel.obj
 0002:00005690       ??_C@_1M@NDBGMMJL@?$AAe?$AAs?$AA?9?$AAH?$AAN?$AA?$AA@ 0000000180026690     libucrt:lcidtoname_downlevel.obj
 0002:000056a0       ??_C@_1M@JIJIBHDP@?$AAe?$AAs?$AA?9?$AAN?$AAI?$AA?$AA@ 00000001800266a0     libucrt:lcidtoname_downlevel.obj
 0002:000056b0       ??_C@_1M@CGFMKEEK@?$AAe?$AAs?$AA?9?$AAP?$AAR?$AA?$AA@ 00000001800266b0     libucrt:lcidtoname_downlevel.obj
 0002:000056c0       ??_C@_1O@ICJHKIIK@?$AAz?$AAh?$AA?9?$AAC?$AAH?$AAT?$AA?$AA@ 00000001800266c0     libucrt:lcidtoname_downlevel.obj
 0002:000056d0       ??_C@_15CLNEJCE@?$AAs?$AAr?$AA?$AA@ 00000001800266d0     libucrt:lcidtoname_downlevel.obj
 0002:00006520       ??_C@_1M@KAHEKEIG@?$AAa?$AAf?$AA?9?$AAz?$AAa?$AA?$AA@ 0000000180027520     libucrt:lcidtoname_downlevel.obj
 0002:00006530       ??_C@_1M@GIECOABL@?$AAa?$AAr?$AA?9?$AAa?$AAe?$AA?$AA@ 0000000180027530     libucrt:lcidtoname_downlevel.obj
 0002:00006540       ??_C@_1M@BMLMEKGI@?$AAa?$AAr?$AA?9?$AAb?$AAh?$AA?$AA@ 0000000180027540     libucrt:lcidtoname_downlevel.obj
 0002:00006550       ??_C@_1M@DAPFDGGB@?$AAa?$AAr?$AA?9?$AAd?$AAz?$AA?$AA@ 0000000180027550     libucrt:lcidtoname_downlevel.obj
 0002:00006560       ??_C@_1M@FJNKGKIG@?$AAa?$AAr?$AA?9?$AAe?$AAg?$AA?$AA@ 0000000180027560     libucrt:lcidtoname_downlevel.obj
 0002:00006570       ??_C@_1M@FLGKKCLO@?$AAa?$AAr?$AA?9?$AAi?$AAq?$AA?$AA@ 0000000180027570     libucrt:lcidtoname_downlevel.obj
 0002:00006580       ??_C@_1M@GNDIPALM@?$AAa?$AAr?$AA?9?$AAj?$AAo?$AA?$AA@ 0000000180027580     libucrt:lcidtoname_downlevel.obj
 0002:00006590       ??_C@_1M@DDMJFMGJ@?$AAa?$AAr?$AA?9?$AAk?$AAw?$AA?$AA@ 0000000180027590     libucrt:lcidtoname_downlevel.obj
 0002:000065a0       ??_C@_1M@EJALMLHM@?$AAa?$AAr?$AA?9?$AAl?$AAb?$AA?$AA@ 00000001800275a0     libucrt:lcidtoname_downlevel.obj
 0002:000065b0       ??_C@_1M@MOBDBLOC@?$AAa?$AAr?$AA?9?$AAl?$AAy?$AA?$AA@ 00000001800275b0     libucrt:lcidtoname_downlevel.obj
 0002:000065c0       ??_C@_1M@JAOCLHDH@?$AAa?$AAr?$AA?9?$AAm?$AAa?$AA?$AA@ 00000001800275c0     libucrt:lcidtoname_downlevel.obj
 0002:000065d0       ??_C@_1M@JHPMKJIE@?$AAa?$AAr?$AA?9?$AAo?$AAm?$AA?$AA@ 00000001800275d0     libucrt:lcidtoname_downlevel.obj
 0002:000065e0       ??_C@_1M@OEPGHFNH@?$AAa?$AAr?$AA?9?$AAq?$AAa?$AA?$AA@ 00000001800275e0     libucrt:lcidtoname_downlevel.obj
 0002:000065f0       ??_C@_1M@KJDONENM@?$AAa?$AAr?$AA?9?$AAs?$AAa?$AA?$AA@ 00000001800275f0     libucrt:lcidtoname_downlevel.obj
 0002:00006600       ??_C@_1M@DMJDKLKM@?$AAa?$AAr?$AA?9?$AAs?$AAy?$AA?$AA@ 0000000180027600     libucrt:lcidtoname_downlevel.obj
 0002:00006610       ??_C@_1M@OMFIPEDC@?$AAa?$AAr?$AA?9?$AAt?$AAn?$AA?$AA@ 0000000180027610     libucrt:lcidtoname_downlevel.obj
 0002:00006620       ??_C@_1M@IHMHGAON@?$AAa?$AAr?$AA?9?$AAy?$AAe?$AA?$AA@ 0000000180027620     libucrt:lcidtoname_downlevel.obj
 0002:00006630       ??_C@_1BG@KDCPGJGB@?$AAa?$AAz?$AA?9?$AAa?$AAz?$AA?9?$AAc?$AAy?$AAr?$AAl?$AA?$AA@ 0000000180027630     libucrt:lcidtoname_downlevel.obj
 0002:00006648       ??_C@_1BG@IBCKDDOE@?$AAa?$AAz?$AA?9?$AAa?$AAz?$AA?9?$AAl?$AAa?$AAt?$AAn?$AA?$AA@ 0000000180027648     libucrt:lcidtoname_downlevel.obj
 0002:00006660       ??_C@_1M@EGPFDCPD@?$AAb?$AAe?$AA?9?$AAb?$AAy?$AA?$AA@ 0000000180027660     libucrt:lcidtoname_downlevel.obj
 0002:00006670       ??_C@_1M@PCMGMCGC@?$AAb?$AAg?$AA?9?$AAb?$AAg?$AA?$AA@ 0000000180027670     libucrt:lcidtoname_downlevel.obj
 0002:00006680       ??_C@_1M@BJBMFGOB@?$AAb?$AAn?$AA?9?$AAi?$AAn?$AA?$AA@ 0000000180027680     libucrt:lcidtoname_downlevel.obj
 0002:00006690       ??_C@_1BG@EAKMMACD@?$AAb?$AAs?$AA?9?$AAb?$AAa?$AA?9?$AAl?$AAa?$AAt?$AAn?$AA?$AA@ 0000000180027690     libucrt:lcidtoname_downlevel.obj
 0002:000066a8       ??_C@_1M@KGADAODK@?$AAc?$AAa?$AA?9?$AAe?$AAs?$AA?$AA@ 00000001800276a8     libucrt:lcidtoname_downlevel.obj
 0002:000066b8       ??_C@_1M@COAJPDHI@?$AAc?$AAs?$AA?9?$AAc?$AAz?$AA?$AA@ 00000001800276b8     libucrt:lcidtoname_downlevel.obj
 0002:000066c8       ??_C@_1M@DHBHFONH@?$AAc?$AAy?$AA?9?$AAg?$AAb?$AA?$AA@ 00000001800276c8     libucrt:lcidtoname_downlevel.obj
 0002:000066d8       ??_C@_1M@IMGKELGA@?$AAd?$AAa?$AA?9?$AAd?$AAk?$AA?$AA@ 00000001800276d8     libucrt:lcidtoname_downlevel.obj
 0002:000066e8       ??_C@_1M@NNDGDNGA@?$AAd?$AAe?$AA?9?$AAa?$AAt?$AA?$AA@ 00000001800276e8     libucrt:lcidtoname_downlevel.obj
 0002:000066f8       ??_C@_1M@IKDBHEEM@?$AAd?$AAe?$AA?9?$AAc?$AAh?$AA?$AA@ 00000001800276f8     libucrt:lcidtoname_downlevel.obj
 0002:00006708       ??_C@_1M@GFFOJMCJ@?$AAd?$AAe?$AA?9?$AAd?$AAe?$AA?$AA@ 0000000180027708     libucrt:lcidtoname_downlevel.obj
 0002:00006718       ??_C@_1M@MDNLKBPM@?$AAd?$AAe?$AA?9?$AAl?$AAi?$AA?$AA@ 0000000180027718     libucrt:lcidtoname_downlevel.obj
 0002:00006728       ??_C@_1M@NJBEEJNL@?$AAd?$AAe?$AA?9?$AAl?$AAu?$AA?$AA@ 0000000180027728     libucrt:lcidtoname_downlevel.obj
 0002:00006738       ??_C@_1O@GNNELBAP@?$AAd?$AAi?$AAv?$AA?9?$AAm?$AAv?$AA?$AA@ 0000000180027738     libucrt:lcidtoname_downlevel.obj
 0002:00006748       ??_C@_1M@EJLEOGAE@?$AAe?$AAl?$AA?9?$AAg?$AAr?$AA?$AA@ 0000000180027748     libucrt:lcidtoname_downlevel.obj
 0002:00006758       ??_C@_1M@GMPONJN@?$AAe?$AAn?$AA?9?$AAa?$AAu?$AA?$AA@ 0000000180027758     libucrt:lcidtoname_downlevel.obj
 0002:00006768       ??_C@_1M@NIDIIPGF@?$AAe?$AAn?$AA?9?$AAb?$AAz?$AA?$AA@ 0000000180027768     libucrt:lcidtoname_downlevel.obj
 0002:00006778       ??_C@_1M@JEHMIMFO@?$AAe?$AAn?$AA?9?$AAc?$AAa?$AA?$AA@ 0000000180027778     libucrt:lcidtoname_downlevel.obj
 0002:00006788       ??_C@_1M@IGMJCDLA@?$AAe?$AAn?$AA?9?$AAc?$AAb?$AA?$AA@ 0000000180027788     libucrt:lcidtoname_downlevel.obj
 0002:00006798       ??_C@_1M@BNFIGBKG@?$AAe?$AAn?$AA?9?$AAg?$AAb?$AA?$AA@ 0000000180027798     libucrt:lcidtoname_downlevel.obj
 0002:000067a8       ??_C@_1M@LKIFDIGP@?$AAe?$AAn?$AA?9?$AAi?$AAe?$AA?$AA@ 00000001800277a8     libucrt:lcidtoname_downlevel.obj
 0002:000067b8       ??_C@_1M@PJKFGCCO@?$AAe?$AAn?$AA?9?$AAj?$AAm?$AA?$AA@ 00000001800277b8     libucrt:lcidtoname_downlevel.obj
 0002:000067c8       ??_C@_1M@KPPKEPBO@?$AAe?$AAn?$AA?9?$AAn?$AAz?$AA?$AA@ 00000001800277c8     libucrt:lcidtoname_downlevel.obj
 0002:000067d8       ??_C@_1M@GMDGLDOB@?$AAe?$AAn?$AA?9?$AAp?$AAh?$AA?$AA@ 00000001800277d8     libucrt:lcidtoname_downlevel.obj
 0002:000067e8       ??_C@_1M@ONGIBJNA@?$AAe?$AAn?$AA?9?$AAt?$AAt?$AA?$AA@ 00000001800277e8     libucrt:lcidtoname_downlevel.obj
 0002:000067f8       ??_C@_1M@LLODPCMM@?$AAe?$AAn?$AA?9?$AAu?$AAs?$AA?$AA@ 00000001800277f8     libucrt:lcidtoname_downlevel.obj
 0002:00006808       ??_C@_1M@LAKFNPAN@?$AAe?$AAn?$AA?9?$AAz?$AAa?$AA?$AA@ 0000000180027808     libucrt:lcidtoname_downlevel.obj
 0002:00006818       ??_C@_1M@MFNHNHEO@?$AAe?$AAn?$AA?9?$AAz?$AAw?$AA?$AA@ 0000000180027818     libucrt:lcidtoname_downlevel.obj
 0002:00006828       ??_C@_1M@EJEINPHM@?$AAe?$AAs?$AA?9?$AAa?$AAr?$AA?$AA@ 0000000180027828     libucrt:lcidtoname_downlevel.obj
 0002:00006838       ??_C@_1M@GNKPCCJA@?$AAe?$AAs?$AA?9?$AAb?$AAo?$AA?$AA@ 0000000180027838     libucrt:lcidtoname_downlevel.obj
 0002:00006848       ??_C@_1M@LEEGFONL@?$AAe?$AAs?$AA?9?$AAc?$AAl?$AA?$AA@ 0000000180027848     libucrt:lcidtoname_downlevel.obj
 0002:00006858       ??_C@_1M@KGPDPBDF@?$AAe?$AAs?$AA?9?$AAc?$AAo?$AA?$AA@ 0000000180027858     libucrt:lcidtoname_downlevel.obj
 0002:00006868       ??_C@_1M@EIAHOHH@?$AAe?$AAs?$AA?9?$AAc?$AAr?$AA?$AA@ 0000000180027868     libucrt:lcidtoname_downlevel.obj
 0002:00006878       ??_C@_1M@LLPGMBIN@?$AAe?$AAs?$AA?9?$AAd?$AAo?$AA?$AA@ 0000000180027878     libucrt:lcidtoname_downlevel.obj
 0002:00006888       ??_C@_1M@DKHMKNJA@?$AAe?$AAs?$AA?9?$AAe?$AAc?$AA?$AA@ 0000000180027888     libucrt:lcidtoname_downlevel.obj
 0002:00006898       ??_C@_1M@GKGFPKAP@?$AAe?$AAs?$AA?9?$AAe?$AAs?$AA?$AA@ 0000000180027898     libucrt:lcidtoname_downlevel.obj
 0002:000068a8       ??_C@_1M@LKHKGDLN@?$AAe?$AAs?$AA?9?$AAg?$AAt?$AA?$AA@ 00000001800278a8     libucrt:lcidtoname_downlevel.obj
 0002:000068b8       ??_C@_1M@HEIIGGJD@?$AAe?$AAs?$AA?9?$AAh?$AAn?$AA?$AA@ 00000001800278b8     libucrt:lcidtoname_downlevel.obj
 0002:000068c8       ??_C@_1M@FBDHPPGD@?$AAe?$AAs?$AA?9?$AAm?$AAx?$AA?$AA@ 00000001800278c8     libucrt:lcidtoname_downlevel.obj
 0002:000068d8       ??_C@_1M@DPAGLNDH@?$AAe?$AAs?$AA?9?$AAn?$AAi?$AA?$AA@ 00000001800278d8     libucrt:lcidtoname_downlevel.obj
 0002:000068e8       ??_C@_1M@MDGOPGDD@?$AAe?$AAs?$AA?9?$AAp?$AAa?$AA?$AA@ 00000001800278e8     libucrt:lcidtoname_downlevel.obj
 0002:000068f8       ??_C@_1M@EMAMGBGE@?$AAe?$AAs?$AA?9?$AAp?$AAe?$AA?$AA@ 00000001800278f8     libucrt:lcidtoname_downlevel.obj
 0002:00006908       ??_C@_1M@IBMCAOEC@?$AAe?$AAs?$AA?9?$AAp?$AAr?$AA?$AA@ 0000000180027908     libucrt:lcidtoname_downlevel.obj
 0002:00006918       ??_C@_1M@FGMDIJED@?$AAe?$AAs?$AA?9?$AAp?$AAy?$AA?$AA@ 0000000180027918     libucrt:lcidtoname_downlevel.obj
 0002:00006928       ??_C@_1M@IIDEOLLL@?$AAe?$AAs?$AA?9?$AAs?$AAv?$AA?$AA@ 0000000180027928     libucrt:lcidtoname_downlevel.obj
 0002:00006938       ??_C@_1M@GAOBIPA@?$AAe?$AAs?$AA?9?$AAu?$AAy?$AA?$AA@ 0000000180027938     libucrt:lcidtoname_downlevel.obj
 0002:00006948       ??_C@_1M@JKFFICHJ@?$AAe?$AAs?$AA?9?$AAv?$AAe?$AA?$AA@ 0000000180027948     libucrt:lcidtoname_downlevel.obj
 0002:00006958       ??_C@_1M@PNMLOJDF@?$AAe?$AAt?$AA?9?$AAe?$AAe?$AA?$AA@ 0000000180027958     libucrt:lcidtoname_downlevel.obj
 0002:00006968       ??_C@_1M@GHHLIKEI@?$AAe?$AAu?$AA?9?$AAe?$AAs?$AA?$AA@ 0000000180027968     libucrt:lcidtoname_downlevel.obj
 0002:00006978       ??_C@_1M@PBNONODE@?$AAf?$AAa?$AA?9?$AAi?$AAr?$AA?$AA@ 0000000180027978     libucrt:lcidtoname_downlevel.obj
 0002:00006988       ??_C@_1M@JEEHPMIL@?$AAf?$AAi?$AA?9?$AAf?$AAi?$AA?$AA@ 0000000180027988     libucrt:lcidtoname_downlevel.obj
 0002:00006998       ??_C@_1M@LMDCNDBA@?$AAf?$AAo?$AA?9?$AAf?$AAo?$AA?$AA@ 0000000180027998     libucrt:lcidtoname_downlevel.obj
 0002:000069a8       ??_C@_1M@JKEOHLDK@?$AAf?$AAr?$AA?9?$AAb?$AAe?$AA?$AA@ 00000001800279a8     libucrt:lcidtoname_downlevel.obj
 0002:000069b8       ??_C@_1M@NOHADPMI@?$AAf?$AAr?$AA?9?$AAc?$AAa?$AA?$AA@ 00000001800279b8     libucrt:lcidtoname_downlevel.obj
 0002:000069c8       ??_C@_1M@KDHIHAEC@?$AAf?$AAr?$AA?9?$AAc?$AAh?$AA?$AA@ 00000001800279c8     libucrt:lcidtoname_downlevel.obj
 0002:000069d8       ??_C@_1M@MMBBFGAK@?$AAf?$AAr?$AA?9?$AAf?$AAr?$AA?$AA@ 00000001800279d8     libucrt:lcidtoname_downlevel.obj
 0002:000069e8       ??_C@_1M@PAFNENNF@?$AAf?$AAr?$AA?9?$AAl?$AAu?$AA?$AA@ 00000001800279e8     libucrt:lcidtoname_downlevel.obj
 0002:000069f8       ??_C@_1M@EOHDJGDD@?$AAf?$AAr?$AA?9?$AAm?$AAc?$AA?$AA@ 00000001800279f8     libucrt:lcidtoname_downlevel.obj
 0002:00006a08       ??_C@_1M@FAPLLOPF@?$AAg?$AAl?$AA?9?$AAe?$AAs?$AA?$AA@ 0000000180027a08     libucrt:lcidtoname_downlevel.obj
 0002:00006a18       ??_C@_1M@FOPBFLOO@?$AAg?$AAu?$AA?9?$AAi?$AAn?$AA?$AA@ 0000000180027a18     libucrt:lcidtoname_downlevel.obj
 0002:00006a28       ??_C@_1M@KBMCINPM@?$AAh?$AAe?$AA?9?$AAi?$AAl?$AA?$AA@ 0000000180027a28     libucrt:lcidtoname_downlevel.obj
 0002:00006a38       ??_C@_1M@BBPHKFPJ@?$AAh?$AAi?$AA?9?$AAi?$AAn?$AA?$AA@ 0000000180027a38     libucrt:lcidtoname_downlevel.obj
 0002:00006a48       ??_C@_1M@PMBNDPHD@?$AAh?$AAr?$AA?9?$AAb?$AAa?$AA?$AA@ 0000000180027a48     libucrt:lcidtoname_downlevel.obj
 0002:00006a58       ??_C@_1M@BPCKOEGE@?$AAh?$AAr?$AA?9?$AAh?$AAr?$AA?$AA@ 0000000180027a58     libucrt:lcidtoname_downlevel.obj
 0002:00006a68       ??_C@_1M@GACBMHKE@?$AAh?$AAu?$AA?9?$AAh?$AAu?$AA?$AA@ 0000000180027a68     libucrt:lcidtoname_downlevel.obj
 0002:00006a78       ??_C@_1M@MILPAJJC@?$AAh?$AAy?$AA?9?$AAa?$AAm?$AA?$AA@ 0000000180027a78     libucrt:lcidtoname_downlevel.obj
 0002:00006a88       ??_C@_1M@BABBICEC@?$AAi?$AAd?$AA?9?$AAi?$AAd?$AA?$AA@ 0000000180027a88     libucrt:lcidtoname_downlevel.obj
 0002:00006a98       ??_C@_1M@BIKNHHPF@?$AAi?$AAs?$AA?9?$AAi?$AAs?$AA?$AA@ 0000000180027a98     libucrt:lcidtoname_downlevel.obj
 0002:00006aa8       ??_C@_1M@NMPCJPHE@?$AAi?$AAt?$AA?9?$AAc?$AAh?$AA?$AA@ 0000000180027aa8     libucrt:lcidtoname_downlevel.obj
 0002:00006ab8       ??_C@_1M@GHKGFEDF@?$AAi?$AAt?$AA?9?$AAi?$AAt?$AA?$AA@ 0000000180027ab8     libucrt:lcidtoname_downlevel.obj
 0002:00006ac8       ??_C@_1M@NIEJCJJA@?$AAj?$AAa?$AA?9?$AAj?$AAp?$AA?$AA@ 0000000180027ac8     libucrt:lcidtoname_downlevel.obj
 0002:00006ad8       ??_C@_1M@JILFNBIM@?$AAk?$AAa?$AA?9?$AAg?$AAe?$AA?$AA@ 0000000180027ad8     libucrt:lcidtoname_downlevel.obj
 0002:00006ae8       ??_C@_1M@PACPMGPH@?$AAk?$AAk?$AA?9?$AAk?$AAz?$AA?$AA@ 0000000180027ae8     libucrt:lcidtoname_downlevel.obj
 0002:00006af8       ??_C@_1M@IELFGMHA@?$AAk?$AAn?$AA?9?$AAi?$AAn?$AA?$AA@ 0000000180027af8     libucrt:lcidtoname_downlevel.obj
 0002:00006b08       ??_C@_1O@IBBJHCH@?$AAk?$AAo?$AAk?$AA?9?$AAi?$AAn?$AA?$AA@ 0000000180027b08     libucrt:lcidtoname_downlevel.obj
 0002:00006b18       ??_C@_1M@DMHAEOGC@?$AAk?$AAo?$AA?9?$AAk?$AAr?$AA?$AA@ 0000000180027b18     libucrt:lcidtoname_downlevel.obj
 0002:00006b28       ??_C@_1M@HBAHBIGA@?$AAk?$AAy?$AA?9?$AAk?$AAg?$AA?$AA@ 0000000180027b28     libucrt:lcidtoname_downlevel.obj
 0002:00006b38       ??_C@_1M@KPMILCJG@?$AAl?$AAt?$AA?9?$AAl?$AAt?$AA?$AA@ 0000000180027b38     libucrt:lcidtoname_downlevel.obj
 0002:00006b48       ??_C@_1M@BDEKKCA@?$AAl?$AAv?$AA?9?$AAl?$AAv?$AA?$AA@ 0000000180027b48     libucrt:lcidtoname_downlevel.obj
 0002:00006b58       ??_C@_1M@ELCKCCJJ@?$AAm?$AAi?$AA?9?$AAn?$AAz?$AA?$AA@ 0000000180027b58     libucrt:lcidtoname_downlevel.obj
 0002:00006b68       ??_C@_1M@CBOOLAPA@?$AAm?$AAk?$AA?9?$AAm?$AAk?$AA?$AA@ 0000000180027b68     libucrt:lcidtoname_downlevel.obj
 0002:00006b78       ??_C@_1M@GPHNBJKN@?$AAm?$AAl?$AA?9?$AAi?$AAn?$AA?$AA@ 0000000180027b78     libucrt:lcidtoname_downlevel.obj
 0002:00006b88       ??_C@_1M@PABJILIG@?$AAm?$AAn?$AA?9?$AAm?$AAn?$AA?$AA@ 0000000180027b88     libucrt:lcidtoname_downlevel.obj
 0002:00006b98       ??_C@_1M@FGBKKIPG@?$AAm?$AAr?$AA?9?$AAi?$AAn?$AA?$AA@ 0000000180027b98     libucrt:lcidtoname_downlevel.obj
 0002:00006ba8       ??_C@_1M@NDBPDDAL@?$AAm?$AAs?$AA?9?$AAb?$AAn?$AA?$AA@ 0000000180027ba8     libucrt:lcidtoname_downlevel.obj
 0002:00006bb8       ??_C@_1M@OPIHOOPI@?$AAm?$AAs?$AA?9?$AAm?$AAy?$AA?$AA@ 0000000180027bb8     libucrt:lcidtoname_downlevel.obj
 0002:00006bc8       ??_C@_1M@PPDBCNFM@?$AAm?$AAt?$AA?9?$AAm?$AAt?$AA?$AA@ 0000000180027bc8     libucrt:lcidtoname_downlevel.obj
 0002:00006bd8       ??_C@_1M@KDJDKMDD@?$AAn?$AAb?$AA?9?$AAn?$AAo?$AA?$AA@ 0000000180027bd8     libucrt:lcidtoname_downlevel.obj
 0002:00006be8       ??_C@_1M@KFCFLMJP@?$AAn?$AAl?$AA?9?$AAb?$AAe?$AA?$AA@ 0000000180027be8     libucrt:lcidtoname_downlevel.obj
 0002:00006bf8       ??_C@_1M@KPOPDDGO@?$AAn?$AAl?$AA?9?$AAn?$AAl?$AA?$AA@ 0000000180027bf8     libucrt:lcidtoname_downlevel.obj
 0002:00006c08       ??_C@_1M@LJKPEMLN@?$AAn?$AAn?$AA?9?$AAn?$AAo?$AA?$AA@ 0000000180027c08     libucrt:lcidtoname_downlevel.obj
 0002:00006c18       ??_C@_1M@BDGHHBFL@?$AAn?$AAs?$AA?9?$AAz?$AAa?$AA?$AA@ 0000000180027c18     libucrt:lcidtoname_downlevel.obj
 0002:00006c28       ??_C@_1M@IDEHOAP@?$AAp?$AAa?$AA?9?$AAi?$AAn?$AA?$AA@ 0000000180027c28     libucrt:lcidtoname_downlevel.obj
 0002:00006c38       ??_C@_1M@HDBKGOGH@?$AAp?$AAl?$AA?9?$AAp?$AAl?$AA?$AA@ 0000000180027c38     libucrt:lcidtoname_downlevel.obj
 0002:00006c48       ??_C@_1M@LJLLCMEH@?$AAp?$AAt?$AA?9?$AAb?$AAr?$AA?$AA@ 0000000180027c48     libucrt:lcidtoname_downlevel.obj
 0002:00006c58       ??_C@_1M@NCMONAAL@?$AAp?$AAt?$AA?9?$AAp?$AAt?$AA?$AA@ 0000000180027c58     libucrt:lcidtoname_downlevel.obj
 0002:00006c68       ??_C@_1O@EAKMAJDN@?$AAq?$AAu?$AAz?$AA?9?$AAb?$AAo?$AA?$AA@ 0000000180027c68     libucrt:lcidtoname_downlevel.obj
 0002:00006c78       ??_C@_1O@BHHPIGDN@?$AAq?$AAu?$AAz?$AA?9?$AAe?$AAc?$AA?$AA@ 0000000180027c78     libucrt:lcidtoname_downlevel.obj
 0002:00006c88       ??_C@_1O@GBAPEKMJ@?$AAq?$AAu?$AAz?$AA?9?$AAp?$AAe?$AA?$AA@ 0000000180027c88     libucrt:lcidtoname_downlevel.obj
 0002:00006c98       ??_C@_1M@CLGLEFBO@?$AAr?$AAo?$AA?9?$AAr?$AAo?$AA?$AA@ 0000000180027c98     libucrt:lcidtoname_downlevel.obj
 0002:00006ca8       ??_C@_1M@CEEDODME@?$AAr?$AAu?$AA?9?$AAr?$AAu?$AA?$AA@ 0000000180027ca8     libucrt:lcidtoname_downlevel.obj
 0002:00006cb8       ??_C@_1M@HPKKKMPP@?$AAs?$AAa?$AA?9?$AAi?$AAn?$AA?$AA@ 0000000180027cb8     libucrt:lcidtoname_downlevel.obj
 0002:00006cc8       ??_C@_1M@BKMAIGOJ@?$AAs?$AAe?$AA?9?$AAf?$AAi?$AA?$AA@ 0000000180027cc8     libucrt:lcidtoname_downlevel.obj
 0002:00006cd8       ??_C@_1M@NDPIFLFI@?$AAs?$AAe?$AA?9?$AAn?$AAo?$AA?$AA@ 0000000180027cd8     libucrt:lcidtoname_downlevel.obj
 0002:00006ce8       ??_C@_1M@DANKKHJ@?$AAs?$AAe?$AA?9?$AAs?$AAe?$AA?$AA@ 0000000180027ce8     libucrt:lcidtoname_downlevel.obj
 0002:00006cf8       ??_C@_1M@PNBLONPJ@?$AAs?$AAk?$AA?9?$AAs?$AAk?$AA?$AA@ 0000000180027cf8     libucrt:lcidtoname_downlevel.obj
 0002:00006d08       ??_C@_1M@LFMODOAL@?$AAs?$AAl?$AA?9?$AAs?$AAi?$AA?$AA@ 0000000180027d08     libucrt:lcidtoname_downlevel.obj
 0002:00006d18       ??_C@_1O@DFKOMPG@?$AAs?$AAm?$AAa?$AA?9?$AAn?$AAo?$AA?$AA@ 0000000180027d18     libucrt:lcidtoname_downlevel.obj
 0002:00006d28       ??_C@_1O@NDKPBNNH@?$AAs?$AAm?$AAa?$AA?9?$AAs?$AAe?$AA?$AA@ 0000000180027d28     libucrt:lcidtoname_downlevel.obj
 0002:00006d38       ??_C@_1O@PLLKBHAB@?$AAs?$AAm?$AAj?$AA?9?$AAn?$AAo?$AA?$AA@ 0000000180027d38     libucrt:lcidtoname_downlevel.obj
 0002:00006d48       ??_C@_1O@CLEPOGCA@?$AAs?$AAm?$AAj?$AA?9?$AAs?$AAe?$AA?$AA@ 0000000180027d48     libucrt:lcidtoname_downlevel.obj
 0002:00006d58       ??_C@_1O@DLGJGKMK@?$AAs?$AAm?$AAn?$AA?9?$AAf?$AAi?$AA?$AA@ 0000000180027d58     libucrt:lcidtoname_downlevel.obj
 0002:00006d68       ??_C@_1O@OJDJGAJC@?$AAs?$AAm?$AAs?$AA?9?$AAf?$AAi?$AA?$AA@ 0000000180027d68     libucrt:lcidtoname_downlevel.obj
 0002:00006d78       ??_C@_1M@BOFOGHPB@?$AAs?$AAq?$AA?9?$AAa?$AAl?$AA?$AA@ 0000000180027d78     libucrt:lcidtoname_downlevel.obj
 0002:00006d88       ??_C@_1BG@LJBBIPGB@?$AAs?$AAr?$AA?9?$AAb?$AAa?$AA?9?$AAc?$AAy?$AAr?$AAl?$AA?$AA@ 0000000180027d88     libucrt:lcidtoname_downlevel.obj
 0002:00006da0       ??_C@_1BG@JLBENFOE@?$AAs?$AAr?$AA?9?$AAb?$AAa?$AA?9?$AAl?$AAa?$AAt?$AAn?$AA?$AA@ 0000000180027da0     libucrt:lcidtoname_downlevel.obj
 0002:00006db8       ??_C@_1BG@KODPNHE@?$AAs?$AAr?$AA?9?$AAs?$AAp?$AA?9?$AAc?$AAy?$AAr?$AAl?$AA?$AA@ 0000000180027db8     libucrt:lcidtoname_downlevel.obj
 0002:00006dd0       ??_C@_1BG@CIOGKHPB@?$AAs?$AAr?$AA?9?$AAs?$AAp?$AA?9?$AAl?$AAa?$AAt?$AAn?$AA?$AA@ 0000000180027dd0     libucrt:lcidtoname_downlevel.obj
 0002:00006de8       ??_C@_1M@NGFJLMAC@?$AAs?$AAv?$AA?9?$AAf?$AAi?$AA?$AA@ 0000000180027de8     libucrt:lcidtoname_downlevel.obj
 0002:00006df8       ??_C@_1M@MPJEJAJC@?$AAs?$AAv?$AA?9?$AAs?$AAe?$AA?$AA@ 0000000180027df8     libucrt:lcidtoname_downlevel.obj
 0002:00006e08       ??_C@_1M@MPNDHLFK@?$AAs?$AAw?$AA?9?$AAk?$AAe?$AA?$AA@ 0000000180027e08     libucrt:lcidtoname_downlevel.obj
 0002:00006e18       ??_C@_1O@KOHBJJI@?$AAs?$AAy?$AAr?$AA?9?$AAs?$AAy?$AA?$AA@ 0000000180027e18     libucrt:lcidtoname_downlevel.obj
 0002:00006e28       ??_C@_1M@LDCEFHA@?$AAt?$AAa?$AA?9?$AAi?$AAn?$AA?$AA@ 0000000180027e28     libucrt:lcidtoname_downlevel.obj
 0002:00006e38       ??_C@_1M@CNJOFAK@?$AAt?$AAe?$AA?9?$AAi?$AAn?$AA?$AA@ 0000000180027e38     libucrt:lcidtoname_downlevel.obj
 0002:00006e48       ??_C@_1M@GNAECACD@?$AAt?$AAh?$AA?9?$AAt?$AAh?$AA?$AA@ 0000000180027e48     libucrt:lcidtoname_downlevel.obj
 0002:00006e58       ??_C@_1M@CHBIHOJO@?$AAt?$AAn?$AA?9?$AAz?$AAa?$AA?$AA@ 0000000180027e58     libucrt:lcidtoname_downlevel.obj
 0002:00006e68       ??_C@_1M@GCCMIGPJ@?$AAt?$AAr?$AA?9?$AAt?$AAr?$AA?$AA@ 0000000180027e68     libucrt:lcidtoname_downlevel.obj
 0002:00006e78       ??_C@_1M@CELMCNBK@?$AAt?$AAt?$AA?9?$AAr?$AAu?$AA?$AA@ 0000000180027e78     libucrt:lcidtoname_downlevel.obj
 0002:00006e88       ??_C@_1M@KLMCELGA@?$AAu?$AAk?$AA?9?$AAu?$AAa?$AA?$AA@ 0000000180027e88     libucrt:lcidtoname_downlevel.obj
 0002:00006e98       ??_C@_1M@EPAJJAJF@?$AAu?$AAr?$AA?9?$AAp?$AAk?$AA?$AA@ 0000000180027e98     libucrt:lcidtoname_downlevel.obj
 0002:00006ea8       ??_C@_1BG@GEGPMCDJ@?$AAu?$AAz?$AA?9?$AAu?$AAz?$AA?9?$AAc?$AAy?$AAr?$AAl?$AA?$AA@ 0000000180027ea8     libucrt:lcidtoname_downlevel.obj
 0002:00006ec0       ??_C@_1BG@EGGKJILM@?$AAu?$AAz?$AA?9?$AAu?$AAz?$AA?9?$AAl?$AAa?$AAt?$AAn?$AA?$AA@ 0000000180027ec0     libucrt:lcidtoname_downlevel.obj
 0002:00006ed8       ??_C@_1M@GFOCLFF@?$AAv?$AAi?$AA?9?$AAv?$AAn?$AA?$AA@ 0000000180027ed8     libucrt:lcidtoname_downlevel.obj
 0002:00006ee8       ??_C@_1M@CPAMEDFI@?$AAx?$AAh?$AA?9?$AAz?$AAa?$AA?$AA@ 0000000180027ee8     libucrt:lcidtoname_downlevel.obj
 0002:00006ef8       ??_C@_1O@EBKIFIGN@?$AAz?$AAh?$AA?9?$AAc?$AAh?$AAs?$AA?$AA@ 0000000180027ef8     libucrt:lcidtoname_downlevel.obj
 0002:00006f08       ??_C@_1O@NMHPGANE@?$AAz?$AAh?$AA?9?$AAc?$AAh?$AAt?$AA?$AA@ 0000000180027f08     libucrt:lcidtoname_downlevel.obj
 0002:00006f18       ??_C@_1M@LPINJOMC@?$AAz?$AAh?$AA?9?$AAc?$AAn?$AA?$AA@ 0000000180027f18     libucrt:lcidtoname_downlevel.obj
 0002:00006f28       ??_C@_1M@OCJEJODD@?$AAz?$AAh?$AA?9?$AAh?$AAk?$AA?$AA@ 0000000180027f28     libucrt:lcidtoname_downlevel.obj
 0002:00006f38       ??_C@_1M@DNDLJINH@?$AAz?$AAh?$AA?9?$AAm?$AAo?$AA?$AA@ 0000000180027f38     libucrt:lcidtoname_downlevel.obj
 0002:00006f48       ??_C@_1M@MBFDNDND@?$AAz?$AAh?$AA?9?$AAs?$AAg?$AA?$AA@ 0000000180027f48     libucrt:lcidtoname_downlevel.obj
 0002:00006f58       ??_C@_1M@IMEPLEPE@?$AAz?$AAh?$AA?9?$AAt?$AAw?$AA?$AA@ 0000000180027f58     libucrt:lcidtoname_downlevel.obj
 0002:00006f68       ??_C@_1M@BBGHNHJP@?$AAz?$AAu?$AA?9?$AAz?$AAa?$AA?$AA@ 0000000180027f68     libucrt:lcidtoname_downlevel.obj
 0002:00007dc0       ??_C@_15EMKDOKLE@?$AAa?$AAr?$AA?$AA@ 0000000180028dc0     libucrt:lcidtoname_downlevel.obj
 0002:00007dc8       ??_C@_15KNPADPLH@?$AAb?$AAg?$AA?$AA@ 0000000180028dc8     libucrt:lcidtoname_downlevel.obj
 0002:00007dd0       ??_C@_15EDMHLDMO@?$AAc?$AAa?$AA?$AA@ 0000000180028dd0     libucrt:lcidtoname_downlevel.obj
 0002:00007dd8       ??_C@_1O@BPEAJADD@?$AAz?$AAh?$AA?9?$AAC?$AAH?$AAS?$AA?$AA@ 0000000180028dd8     libucrt:lcidtoname_downlevel.obj
 0002:00007de8       ??_C@_15LJNHCMNK@?$AAc?$AAs?$AA?$AA@ 0000000180028de8     libucrt:lcidtoname_downlevel.obj
 0002:00007df0       ??_C@_15FOMCIDHG@?$AAd?$AAa?$AA?$AA@ 0000000180028df0     libucrt:lcidtoname_downlevel.obj
 0002:00007df8       ??_C@_15NBKABECB@?$AAd?$AAe?$AA?$AA@ 0000000180028df8     libucrt:lcidtoname_downlevel.obj
 0002:00007e00       ??_C@_15GHPEIIAO@?$AAe?$AAl?$AA?$AA@ 0000000180028e00     libucrt:lcidtoname_downlevel.obj
 0002:00007e08       ??_C@_15MNPNEAIF@?$AAe?$AAn?$AA?$AA@ 0000000180028e08     libucrt:lcidtoname_downlevel.obj
 0002:00007e10       ??_C@_15GPIOMPMH@?$AAe?$AAs?$AA?$AA@ 0000000180028e10     libucrt:lcidtoname_downlevel.obj
 0002:00007e18       ??_C@_15NGLOAKJC@?$AAf?$AAi?$AA?$AA@ 0000000180028e18     libucrt:lcidtoname_downlevel.obj
 0002:00007e20       ??_C@_15FBKGNKAM@?$AAf?$AAr?$AA?$AA@ 0000000180028e20     libucrt:lcidtoname_downlevel.obj
 0002:00007e28       ??_C@_15KGGCNEFK@?$AAh?$AAe?$AA?$AA@ 0000000180028e28     libucrt:lcidtoname_downlevel.obj
 0002:00007e30       ??_C@_15PGHLIDMF@?$AAh?$AAu?$AA?$AA@ 0000000180028e30     libucrt:lcidtoname_downlevel.obj
 0002:00007e38       ??_C@_15BIEMAPLM@?$AAi?$AAs?$AA?$AA@ 0000000180028e38     libucrt:lcidtoname_downlevel.obj
 0002:00007e40       ??_C@_15IFJLDHAF@?$AAi?$AAt?$AA?$AA@ 0000000180028e40     libucrt:lcidtoname_downlevel.obj
 0002:00007e48       ??_C@_15GEMIOCAG@?$AAj?$AAa?$AA?$AA@ 0000000180028e48     libucrt:lcidtoname_downlevel.obj
 0002:00007e50       ??_C@_15EPELEGJA@?$AAk?$AAo?$AA?$AA@ 0000000180028e50     libucrt:lcidtoname_downlevel.obj
 0002:00007e58       ??_C@_15NDDHIMN@?$AAn?$AAl?$AA?$AA@ 0000000180028e58     libucrt:lcidtoname_downlevel.obj
 0002:00007e60       ??_C@_15BPIGNHCD@?$AAn?$AAo?$AA?$AA@ 0000000180028e60     libucrt:lcidtoname_downlevel.obj
 0002:00007e68       ??_C@_15DEOPBLCG@?$AAp?$AAl?$AA?$AA@ 0000000180028e68     libucrt:lcidtoname_downlevel.obj
 0002:00007e70       ??_C@_15KBECGEFG@?$AAp?$AAt?$AA?$AA@ 0000000180028e70     libucrt:lcidtoname_downlevel.obj
 0002:00007e78       ??_C@_15GLJCBFMD@?$AAr?$AAo?$AA?$AA@ 0000000180028e78     libucrt:lcidtoname_downlevel.obj
 0002:00007e80       ??_C@_15FEDGKCDI@?$AAr?$AAu?$AA?$AA@ 0000000180028e80     libucrt:lcidtoname_downlevel.obj
 0002:00007e88       ??_C@_15GLKMLLHM@?$AAh?$AAr?$AA?$AA@ 0000000180028e88     libucrt:lcidtoname_downlevel.obj
 0002:00007e90       ??_C@_15CPKMFBDB@?$AAs?$AAk?$AA?$AA@ 0000000180028e90     libucrt:lcidtoname_downlevel.obj
 0002:00007e98       ??_C@_15BAAIOGMK@?$AAs?$AAq?$AA?$AA@ 0000000180028e98     libucrt:lcidtoname_downlevel.obj
 0002:00007ea0       ??_C@_15INNPNOHD@?$AAs?$AAv?$AA?$AA@ 0000000180028ea0     libucrt:lcidtoname_downlevel.obj
 0002:00007ea8       ??_C@_15CABMMOGH@?$AAt?$AAh?$AA?$AA@ 0000000180028ea8     libucrt:lcidtoname_downlevel.obj
 0002:00007eb0       ??_C@_15BPLIHJJM@?$AAt?$AAr?$AA?$AA@ 0000000180028eb0     libucrt:lcidtoname_downlevel.obj
 0002:00007eb8       ??_C@_15NEOEKKDJ@?$AAu?$AAr?$AA?$AA@ 0000000180028eb8     libucrt:lcidtoname_downlevel.obj
 0002:00007ec0       ??_C@_15NFICGAJK@?$AAi?$AAd?$AA?$AA@ 0000000180028ec0     libucrt:lcidtoname_downlevel.obj
 0002:00007ec8       ??_C@_15PJPFLCCM@?$AAu?$AAk?$AA?$AA@ 0000000180028ec8     libucrt:lcidtoname_downlevel.obj
 0002:00007ed0       ??_C@_15HPJPHDM@?$AAb?$AAe?$AA?$AA@ 0000000180028ed0     libucrt:lcidtoname_downlevel.obj
 0002:00007ed8       ??_C@_15LCHLGJII@?$AAs?$AAl?$AA?$AA@ 0000000180028ed8     libucrt:lcidtoname_downlevel.obj
 0002:00007ee0       ??_C@_15PCFJPHHO@?$AAe?$AAt?$AA?$AA@ 0000000180028ee0     libucrt:lcidtoname_downlevel.obj
 0002:00007ee8       ??_C@_15HPFPGODN@?$AAl?$AAv?$AA?$AA@ 0000000180028ee8     libucrt:lcidtoname_downlevel.obj
 0002:00007ef0       ??_C@_15NFFGKGLG@?$AAl?$AAt?$AA?$AA@ 0000000180028ef0     libucrt:lcidtoname_downlevel.obj
 0002:00007ef8       ??_C@_15BDAKCCHN@?$AAf?$AAa?$AA?$AA@ 0000000180028ef8     libucrt:lcidtoname_downlevel.obj
 0002:00007f00       ??_C@_15NFGIAIAJ@?$AAv?$AAi?$AA?$AA@ 0000000180028f00     libucrt:lcidtoname_downlevel.obj
 0002:00007f08       ??_C@_15LMKNDMHN@?$AAh?$AAy?$AA?$AA@ 0000000180028f08     libucrt:lcidtoname_downlevel.obj
 0002:00007f10       ??_C@_15IJBHMCFL@?$AAa?$AAz?$AA?$AA@ 0000000180028f10     libucrt:lcidtoname_downlevel.obj
 0002:00007f18       ??_C@_15EKOFJABL@?$AAe?$AAu?$AA?$AA@ 0000000180028f18     libucrt:lcidtoname_downlevel.obj
 0002:00007f20       ??_C@_15BGHADCNK@?$AAm?$AAk?$AA?$AA@ 0000000180028f20     libucrt:lcidtoname_downlevel.obj
 0002:00007f28       ??_C@_15JDNICKHM@?$AAa?$AAf?$AA?$AA@ 0000000180028f28     libucrt:lcidtoname_downlevel.obj
 0002:00007f30       ??_C@_15KPJEDBKD@?$AAk?$AAa?$AA?$AA@ 0000000180028f30     libucrt:lcidtoname_downlevel.obj
 0002:00007f38       ??_C@_15PDNFFFEO@?$AAf?$AAo?$AA?$AA@ 0000000180028f38     libucrt:lcidtoname_downlevel.obj
 0002:00007f40       ??_C@_15OMLEGLOC@?$AAh?$AAi?$AA?$AA@ 0000000180028f40     libucrt:lcidtoname_downlevel.obj
 0002:00007f48       ??_C@_15IDNNENKK@?$AAm?$AAs?$AA?$AA@ 0000000180028f48     libucrt:lcidtoname_downlevel.obj
 0002:00007f50       ??_C@_15MACJNBMH@?$AAk?$AAk?$AA?$AA@ 0000000180028f50     libucrt:lcidtoname_downlevel.obj
 0002:00007f58       ??_C@_15DKDJEOND@?$AAk?$AAy?$AA?$AA@ 0000000180028f58     libucrt:lcidtoname_downlevel.obj
 0002:00007f60       ??_C@_15DFGDLJBG@?$AAs?$AAw?$AA?$AA@ 0000000180028f60     libucrt:lcidtoname_downlevel.obj
 0002:00007f68       ??_C@_15BBFAICNG@?$AAu?$AAz?$AA?$AA@ 0000000180028f68     libucrt:lcidtoname_downlevel.obj
 0002:00007f70       ??_C@_15DKNDCGEA@?$AAt?$AAt?$AA?$AA@ 0000000180028f70     libucrt:lcidtoname_downlevel.obj
 0002:00007f78       ??_C@_15MGIFMDPL@?$AAp?$AAa?$AA?$AA@ 0000000180028f78     libucrt:lcidtoname_downlevel.obj
 0002:00007f80       ??_C@_15HCNDBBA@?$AAg?$AAu?$AA?$AA@ 0000000180028f80     libucrt:lcidtoname_downlevel.obj
 0002:00007f88       ??_C@_15FNBEIBON@?$AAt?$AAa?$AA?$AA@ 0000000180028f88     libucrt:lcidtoname_downlevel.obj
 0002:00007f90       ??_C@_15NCHGBGLK@?$AAt?$AAe?$AA?$AA@ 0000000180028f90     libucrt:lcidtoname_downlevel.obj
 0002:00007f98       ??_C@_15PHPHCBPF@?$AAk?$AAn?$AA?$AA@ 0000000180028f98     libucrt:lcidtoname_downlevel.obj
 0002:00007fa0       ??_C@_15DLGBCKMP@?$AAm?$AAr?$AA?$AA@ 0000000180028fa0     libucrt:lcidtoname_downlevel.obj
 0002:00007fa8       ??_C@_15EABBLBFF@?$AAs?$AAa?$AA?$AA@ 0000000180028fa8     libucrt:lcidtoname_downlevel.obj
 0002:00007fb0       ??_C@_15CBKOMCOI@?$AAm?$AAn?$AA?$AA@ 0000000180028fb0     libucrt:lcidtoname_downlevel.obj
 0002:00007fb8       ??_C@_15CKDMCJAF@?$AAg?$AAl?$AA?$AA@ 0000000180028fb8     libucrt:lcidtoname_downlevel.obj
 0002:00007fc0       ??_C@_17CNJFBPG@?$AAk?$AAo?$AAk?$AA?$AA@ 0000000180028fc0     libucrt:lcidtoname_downlevel.obj
 0002:00007fc8       ??_C@_17FFBJICPL@?$AAs?$AAy?$AAr?$AA?$AA@ 0000000180028fc8     libucrt:lcidtoname_downlevel.obj
 0002:00007fd0       ??_C@_17KPNDCPAF@?$AAd?$AAi?$AAv?$AA?$AA@ 0000000180028fd0     libucrt:lcidtoname_downlevel.obj
 0002:00007fd8       ??_C@_11LOCGONAA@?$AA?$AA@ 0000000180028fd8     libucrt:lcidtoname_downlevel.obj
 0002:00007fe0       ??_C@_1M@OKAHONE@?$AAa?$AAr?$AA?9?$AAS?$AAA?$AA?$AA@ 0000000180028fe0     libucrt:lcidtoname_downlevel.obj
 0002:00007ff0       ??_C@_1M@FFFIGIGK@?$AAb?$AAg?$AA?9?$AAB?$AAG?$AA?$AA@ 0000000180028ff0     libucrt:lcidtoname_downlevel.obj
 0002:00008000       ??_C@_1M@BJNKEDC@?$AAc?$AAa?$AA?9?$AAE?$AAS?$AA?$AA@ 0000000180029000     libucrt:lcidtoname_downlevel.obj
 0002:00008010       ??_C@_1M@IJJHFJHA@?$AAc?$AAs?$AA?9?$AAC?$AAZ?$AA?$AA@ 0000000180029010     libucrt:lcidtoname_downlevel.obj
 0002:00008020       ??_C@_1M@CLPEOBGI@?$AAd?$AAa?$AA?9?$AAD?$AAK?$AA?$AA@ 0000000180029020     libucrt:lcidtoname_downlevel.obj
 0002:00008030       ??_C@_1M@MCMADGCB@?$AAd?$AAe?$AA?9?$AAD?$AAE?$AA?$AA@ 0000000180029030     libucrt:lcidtoname_downlevel.obj
 0002:00008040       ??_C@_1M@OOCKEMAM@?$AAe?$AAl?$AA?9?$AAG?$AAR?$AA?$AA@ 0000000180029040     libucrt:lcidtoname_downlevel.obj
 0002:00008050       ??_C@_1M@DDNJFGID@?$AAf?$AAi?$AA?9?$AAF?$AAI?$AA?$AA@ 0000000180029050     libucrt:lcidtoname_downlevel.obj
 0002:00008060       ??_C@_1M@GLIPPMAC@?$AAf?$AAr?$AA?9?$AAF?$AAR?$AA?$AA@ 0000000180029060     libucrt:lcidtoname_downlevel.obj
 0002:00008070       ??_C@_1M@GFMCHPE@?$AAh?$AAe?$AA?9?$AAI?$AAL?$AA?$AA@ 0000000180029070     libucrt:lcidtoname_downlevel.obj
 0002:00008080       ??_C@_1M@MHLPGNKM@?$AAh?$AAu?$AA?9?$AAH?$AAU?$AA?$AA@ 0000000180029080     libucrt:lcidtoname_downlevel.obj
 0002:00008090       ??_C@_1M@LPDDNNPN@?$AAi?$AAs?$AA?9?$AAI?$AAS?$AA?$AA@ 0000000180029090     libucrt:lcidtoname_downlevel.obj
 0002:000080a0       ??_C@_1M@MADIPODN@?$AAi?$AAt?$AA?9?$AAI?$AAT?$AA?$AA@ 00000001800290a0     libucrt:lcidtoname_downlevel.obj
 0002:000080b0       ??_C@_1M@IHBJJGG@?$AAn?$AAl?$AA?9?$AAN?$AAL?$AA?$AA@ 00000001800290b0     libucrt:lcidtoname_downlevel.obj
 0002:000080c0       ??_C@_1M@EANAGDL@?$AAn?$AAb?$AA?9?$AAN?$AAO?$AA?$AA@ 00000001800290c0     libucrt:lcidtoname_downlevel.obj
 0002:000080d0       ??_C@_1M@NEIEMEGP@?$AAp?$AAl?$AA?9?$AAP?$AAL?$AA?$AA@ 00000001800290d0     libucrt:lcidtoname_downlevel.obj
 0002:000080e0       ??_C@_1M@BOCFIGEP@?$AAp?$AAt?$AA?9?$AAB?$AAR?$AA?$AA@ 00000001800290e0     libucrt:lcidtoname_downlevel.obj
 0002:000080f0       ??_C@_1M@IMPFOPBG@?$AAr?$AAo?$AA?9?$AAR?$AAO?$AA?$AA@ 00000001800290f0     libucrt:lcidtoname_downlevel.obj
 0002:00008100       ??_C@_1M@IDNNEJMM@?$AAr?$AAu?$AA?9?$AAR?$AAU?$AA?$AA@ 0000000180029100     libucrt:lcidtoname_downlevel.obj
 0002:00008110       ??_C@_1M@LILEEOGM@?$AAh?$AAr?$AA?9?$AAH?$AAR?$AA?$AA@ 0000000180029110     libucrt:lcidtoname_downlevel.obj
 0002:00008120       ??_C@_1M@FKIFEHPB@?$AAs?$AAk?$AA?9?$AAS?$AAK?$AA?$AA@ 0000000180029120     libucrt:lcidtoname_downlevel.obj
 0002:00008130       ??_C@_1M@LJMAMNPJ@?$AAs?$AAq?$AA?9?$AAA?$AAL?$AA?$AA@ 0000000180029130     libucrt:lcidtoname_downlevel.obj
 0002:00008140       ??_C@_1M@GIAKDKJK@?$AAs?$AAv?$AA?9?$AAS?$AAE?$AA?$AA@ 0000000180029140     libucrt:lcidtoname_downlevel.obj
 0002:00008150       ??_C@_1M@MKJKIKCL@?$AAt?$AAh?$AA?9?$AAT?$AAH?$AA?$AA@ 0000000180029150     libucrt:lcidtoname_downlevel.obj
 0002:00008160       ??_C@_1M@MFLCCMPB@?$AAt?$AAr?$AA?9?$AAT?$AAR?$AA?$AA@ 0000000180029160     libucrt:lcidtoname_downlevel.obj
 0002:00008170       ??_C@_1M@OIJHDKJN@?$AAu?$AAr?$AA?9?$AAP?$AAK?$AA?$AA@ 0000000180029170     libucrt:lcidtoname_downlevel.obj
 0002:00008180       ??_C@_1M@LHIPCIEK@?$AAi?$AAd?$AA?9?$AAI?$AAD?$AA?$AA@ 0000000180029180     libucrt:lcidtoname_downlevel.obj
 0002:00008190       ??_C@_1M@MFMOBGI@?$AAu?$AAk?$AA?9?$AAU?$AAA?$AA?$AA@ 0000000180029190     libucrt:lcidtoname_downlevel.obj
 0002:000081a0       ??_C@_1M@OBGLJIPL@?$AAb?$AAe?$AA?9?$AAB?$AAY?$AA?$AA@ 00000001800291a0     libucrt:lcidtoname_downlevel.obj
 0002:000081b0       ??_C@_1M@BCFAJEAD@?$AAs?$AAl?$AA?9?$AAS?$AAI?$AA?$AA@ 00000001800291b0     libucrt:lcidtoname_downlevel.obj
 0002:000081c0       ??_C@_1M@FKFFEDDN@?$AAe?$AAt?$AA?9?$AAE?$AAE?$AA?$AA@ 00000001800291c0     libucrt:lcidtoname_downlevel.obj
 0002:000081d0       ??_C@_1M@KGKKAACI@?$AAl?$AAv?$AA?9?$AAL?$AAV?$AA?$AA@ 00000001800291d0     libucrt:lcidtoname_downlevel.obj
 0002:000081e0       ??_C@_1M@IFGBIJO@?$AAl?$AAt?$AA?9?$AAL?$AAT?$AA?$AA@ 00000001800291e0     libucrt:lcidtoname_downlevel.obj
 0002:000081f0       ??_C@_1M@FGEAHEDM@?$AAf?$AAa?$AA?9?$AAI?$AAR?$AA?$AA@ 00000001800291f0     libucrt:lcidtoname_downlevel.obj
 0002:00008200       ??_C@_1M@KBMAIBFN@?$AAv?$AAi?$AA?9?$AAV?$AAN?$AA?$AA@ 0000000180029200     libucrt:lcidtoname_downlevel.obj
 0002:00008210       ?large_power_data@?1??multiply_by_power_of_ten@__crt_strtox@@YA_NAEAUbig_integer@2@I@Z@4QBIB 0000000180029210     libucrt:cfout.obj
 0002:00008b20       ?large_power_indices@?1??multiply_by_power_of_ten@__crt_strtox@@YA_NAEAUbig_integer@2@I@Z@4QBUunpack_index@?1??12@YA_N0I@Z@B 0000000180029b20     libucrt:cfout.obj
 0002:00008bb8       ?small_powers_of_ten@?1??multiply_by_power_of_ten@__crt_strtox@@YA_NAEAUbig_integer@2@I@Z@4QBIB 0000000180029bb8     libucrt:cfout.obj
 0002:00008bdc       ??_C@_01GBGANLPD@0?$AA@    0000000180029bdc     libucrt:cfout.obj
 0002:00008be0       ??_C@_05DNEBIAHO@1?$CDINF?$AA@ 0000000180029be0     libucrt:cfout.obj
 0002:00008be8       ??_C@_06IMKFLFPG@1?$CDQNAN?$AA@ 0000000180029be8     libucrt:cfout.obj
 0002:00008bf0       ??_C@_06PGGFOGJG@1?$CDSNAN?$AA@ 0000000180029bf0     libucrt:cfout.obj
 0002:00008bf8       ??_C@_05PHHOCPM@1?$CDIND?$AA@ 0000000180029bf8     libucrt:cfout.obj
 0002:00008c00       __real@3ff0000000000000    0000000180029c00     libucrt:ceil.obj
 0002:00008e60       __log10_256_lead           0000000180029e60     libucrt:log10_256_lead_tail_table.obj
 0002:00009670       __log10_256_tail           000000018002a670     libucrt:log10_256_lead_tail_table.obj
 0002:00009e80       __log_F_inv_qword          000000018002ae80     libucrt:log_f_inv_qword_table.obj
 0002:0000a690       ??_C@_05HGHHAHAP@log10?$AA@ 000000018002b690     libucrt:log_special.obj
 0002:0000a6b0       ??_C@_1BA@BALFACEM@?$AAC?$AAO?$AAN?$AAO?$AAU?$AAT?$AA$?$AA?$AA@ 000000018002b6b0     libucrt:initcon.obj
 0002:0000a720       _load_config_used          000000018002b720     LIBCMT:loadcfg.obj
 0002:0000a820       _tls_used                  000000018002b820     LIBCMT:tlssup.obj
 0002:0000a848       ??_R4exception@std@@6B@    000000018002b848     LIBCMT:throw_bad_alloc.obj
 0002:0000a870       ??_R3exception@std@@8      000000018002b870     LIBCMT:throw_bad_alloc.obj
 0002:0000a888       ??_R2exception@std@@8      000000018002b888     LIBCMT:throw_bad_alloc.obj
 0002:0000a898       ??_R1A@?0A@EA@exception@std@@8 000000018002b898     LIBCMT:throw_bad_alloc.obj
 0002:0000a8c0       ??_R4bad_alloc@std@@6B@    000000018002b8c0     LIBCMT:throw_bad_alloc.obj
 0002:0000a8e8       ??_R3bad_alloc@std@@8      000000018002b8e8     LIBCMT:throw_bad_alloc.obj
 0002:0000a900       ??_R2bad_alloc@std@@8      000000018002b900     LIBCMT:throw_bad_alloc.obj
 0002:0000a918       ??_R1A@?0A@EA@bad_alloc@std@@8 000000018002b918     LIBCMT:throw_bad_alloc.obj
 0002:0000a940       ??_R4bad_array_new_length@std@@6B@ 000000018002b940     LIBCMT:throw_bad_alloc.obj
 0002:0000a968       ??_R3bad_array_new_length@std@@8 000000018002b968     LIBCMT:throw_bad_alloc.obj
 0002:0000a980       ??_R2bad_array_new_length@std@@8 000000018002b980     LIBCMT:throw_bad_alloc.obj
 0002:0000a9a0       ??_R1A@?0A@EA@bad_array_new_length@std@@8 000000018002b9a0     LIBCMT:throw_bad_alloc.obj
 0002:0000a9c8       ??_R4type_info@@6B@        000000018002b9c8     LIBCMT:std_type_info_static.obj
 0002:0000a9f0       ??_R3type_info@@8          000000018002b9f0     LIBCMT:std_type_info_static.obj
 0002:0000aa08       ??_R2type_info@@8          000000018002ba08     LIBCMT:std_type_info_static.obj
 0002:0000aa18       ??_R1A@?0A@EA@type_info@@8 000000018002ba18     LIBCMT:std_type_info_static.obj
 0002:0000aa40       ??_R4bad_exception@std@@6B@ 000000018002ba40     libvcruntime:frame.obj
 0002:0000aa68       ??_R3bad_exception@std@@8  000000018002ba68     libvcruntime:frame.obj
 0002:0000aa80       ??_R2bad_exception@std@@8  000000018002ba80     libvcruntime:frame.obj
 0002:0000aa98       ??_R1A@?0A@EA@bad_exception@std@@8 000000018002ba98     libvcruntime:frame.obj
 0002:0000aeb8       __rtc_iaa                  000000018002beb8     LIBCMT:_initsect_.obj
 0002:0000aec0       __rtc_izz                  000000018002bec0     LIBCMT:_initsect_.obj
 0002:0000aec8       __rtc_taa                  000000018002bec8     LIBCMT:_initsect_.obj
 0002:0000aed0       __rtc_tzz                  000000018002bed0     LIBCMT:_initsect_.obj
 0002:0000aed8       _tls_start                 000000018002bed8     LIBCMT:tlssup.obj
 0002:0000aedc       _Init_thread_epoch         000000018002bedc     LIBCMT:thread_safe_statics.obj
 0002:0000aee0       _tls_end                   000000018002bee0     LIBCMT:tlssup.obj
 0002:0000c580       _TI2?AVbad_alloc@std@@     000000018002d580     LIBCMT:throw_bad_alloc.obj
 0002:0000c5a0       _CTA2?AVbad_alloc@std@@    000000018002d5a0     LIBCMT:throw_bad_alloc.obj
 0002:0000c5b8       _CT??_R0?AVbad_alloc@std@@@8??0bad_alloc@std@@QEAA@AEBV01@@Z24 000000018002d5b8     LIBCMT:throw_bad_alloc.obj
 0002:0000c5e0       _CT??_R0?AVexception@std@@@8??0exception@std@@QEAA@AEBV01@@Z24 000000018002d5e0     LIBCMT:throw_bad_alloc.obj
 0002:0000c608       _TI3?AVbad_array_new_length@std@@ 000000018002d608     LIBCMT:throw_bad_alloc.obj
 0002:0000c628       _CTA3?AVbad_array_new_length@std@@ 000000018002d628     LIBCMT:throw_bad_alloc.obj
 0002:0000c648       _CT??_R0?AVbad_array_new_length@std@@@8??0bad_array_new_length@std@@QEAA@AEBV01@@Z24 000000018002d648     LIBCMT:throw_bad_alloc.obj
 0002:0000c670       _TI2?AVbad_exception@std@@ 000000018002d670     libvcruntime:frame.obj
 0002:0000c690       _CTA2?AVbad_exception@std@@ 000000018002d690     libvcruntime:frame.obj
 0002:0000c6a8       _CT??_R0?AVbad_exception@std@@@8??0bad_exception@std@@QEAA@AEBV01@@Z24 000000018002d6a8     libvcruntime:frame.obj
 0002:0000c6d0       __pobjMapEntryFirst        000000018002d6d0     OposVariant.obj
 0002:0000c6d8       __pobjMapEntryLast         000000018002d6d8     OposVariant.obj
 0002:0000c790       __IMPORT_DESCRIPTOR_KERNEL32 000000018002d790     kernel32:KERNEL32.dll
 0002:0000c7a4       __IMPORT_DESCRIPTOR_USER32 000000018002d7a4     user32:USER32.dll
 0002:0000c7b8       __IMPORT_DESCRIPTOR_GDI32  000000018002d7b8     gdi32:GDI32.dll
 0002:0000c7cc       __IMPORT_DESCRIPTOR_ADVAPI32 000000018002d7cc     advapi32:ADVAPI32.dll
 0002:0000c7e0       __IMPORT_DESCRIPTOR_ole32  000000018002d7e0     ole32:ole32.dll
 0002:0000c7f4       __IMPORT_DESCRIPTOR_OLEAUT32 000000018002d7f4     oleaut32:OLEAUT32.dll
 0002:0000c808       __NULL_IMPORT_DESCRIPTOR   000000018002d808     kernel32:KERNEL32.dll
 0003:00000000       ?vszContents@?6??Save@?$IPersistStorageImpl@VCOPOSImageScanner@@@ATL@@UEAAJPEAUIStorage@@H@Z@4PEB_WEB 000000018002f000     ImageScanner.obj
 0003:00000010       ?wc@?1??GetWndClassInfo@?$CWindowImpl@VCOPOSImageScanner@@VCWindow@ATL@@V?$CWinTraits@$0FGAAAAAA@$0A@@3@@ATL@@SAAEAU_ATL_WNDCLASSINFOW@3@XZ@4U43@A 000000018002f010     ImageScanner.obj
 0003:00000108       ?rcDefault@CWindow@ATL@@2UtagRECT@@A 000000018002f108     ImageScanner.obj
 0003:00000118       ?s_Claim@?7??GetIDsOfNames@CComTypeInfoHolder@ATL@@QEAAJAEBU_GUID@@PEAPEA_WIKPEAJ@Z@4PA_WA 000000018002f118     ImageScanner.obj
 0003:00000130       ?s_Release@?7??GetIDsOfNames@CComTypeInfoHolder@ATL@@QEAAJAEBU_GUID@@PEAPEA_WIKPEAJ@Z@4PA_WA 000000018002f130     ImageScanner.obj
 0003:00000150       ?_tih@?$IDispatchImpl@UIOPOSImageScanner@@$1?IID_IOPOSImageScanner@@3U_GUID@@B$1?LIBID_OposImageScanner_CCO@@3U3@B$00$0A@VCComTypeInfoHolder@ATL@@@ATL@@1VCComTypeInfoHolder@2@A 000000018002f150     ImageScanner.obj
 0003:00000188       ?_tih@?$IProvideClassInfo2Impl@$1?CLSID_OPOSImageScanner@@3U_GUID@@B$1?DIID__IOPOSImageScannerEvents@@3U2@B$1?LIBID_OposImageScanner_CCO@@3U2@B$00$0A@VCComTypeInfoHolder@ATL@@@ATL@@1VCComTypeInfoHolder@2@A 000000018002f188     ImageScanner.obj
 0003:00000250       ?g_ControlVersion@@3JA     000000018002f250     ImageScannerImpl.obj
 0003:00000258       ?g_WindowName@@3PA_WA      000000018002f258     ImageScannerImpl.obj
 0003:00000280       ?g_ControlDescription@@3PADA 000000018002f280     ImageScannerImpl.obj
 0003:00000368       __scrt_native_dllmain_reason 000000018002f368     LIBCMT:utility.obj
 0003:0000036c       _Init_global_epoch         000000018002f36c     LIBCMT:thread_safe_statics.obj
 0003:00000370       __security_cookie_complement 000000018002f370     LIBCMT:gs_cookie.obj
 0003:00000378       __security_cookie          000000018002f378     LIBCMT:gs_cookie.obj
 0003:00000380       __isa_available            000000018002f380     LIBCMT:_cpu_disp_.obj
 0003:00000384       __isa_enabled              000000018002f384     LIBCMT:_cpu_disp_.obj
 0003:00000388       __memcpy_nt_iters          000000018002f388     LIBCMT:_cpu_disp_.obj
 0003:000003a8       __abort_behavior           000000018002f3a8     libucrt:abort.obj
 0003:000003c0       _iob                       000000018002f3c0     libucrt:_file.obj
 0003:000004d0       __acrt_initial_locale_data 000000018002f4d0     libucrt:nlsdata.obj
 0003:00000628       __acrt_initial_locale_pointers 000000018002f628     libucrt:nlsdata.obj
 0003:00000638       __acrt_wide_c_locale_string 000000018002f638     libucrt:nlsdata.obj
 0003:00000640       __acrt_initial_multibyte_data 000000018002f640     libucrt:mbctype.obj
 0003:00000b80       _pwctype                   000000018002fb80     libucrt:ctype.obj
 0003:00000b88       __globallocalestatus       000000018002fb88     libucrt:glstatus.obj
 0003:00000b90       __acrt_lconv_c             000000018002fb90     libucrt:localeconv.obj
 0003:00000c28       __acrt_lconv_static_decimal 000000018002fc28     libucrt:localeconv.obj
 0003:00000c2c       __acrt_lconv_static_W_decimal 000000018002fc2c     libucrt:localeconv.obj
 0003:00000c48       __dcrt_lowio_console_output_handle 000000018002fc48     libucrt:initcon.obj
 0003:00000c50       _fltused                   000000018002fc50     LIBCMT:fltused.obj
 0003:00000c58       ??_R0?AVbad_alloc@std@@@8  000000018002fc58     LIBCMT:throw_bad_alloc.obj
 0003:00000c80       ??_R0?AVexception@std@@@8  000000018002fc80     LIBCMT:throw_bad_alloc.obj
 0003:00000ca8       ??_R0?AVbad_array_new_length@std@@@8 000000018002fca8     LIBCMT:throw_bad_alloc.obj
 0003:00000cd8       ??_R0?AVtype_info@@@8      000000018002fcd8     LIBCMT:std_type_info_static.obj
 0003:00000cf8       ??_R0?AVbad_exception@std@@@8 000000018002fcf8     libvcruntime:frame.obj
 0003:00000d20       ?m_bInitFailed@CAtlBaseModule@ATL@@2_NA 000000018002fd20     OposVariant.obj
 0003:00000d28       ?_pPerfRegFunc@ATL@@3P6AJPEAUHINSTANCE__@@@ZEA 000000018002fd28     OposVariant.obj
 0003:00000d30       ?_pPerfUnRegFunc@ATL@@3P6AJXZEA 000000018002fd30     OposVariant.obj
 0003:00000d38       ?_AtlRegisterPerUser@ATL@@3_NA 000000018002fd38     OposVariant.obj
 0003:00000d40       ?_pAtlModule@ATL@@3PEAVCAtlModule@1@EA 000000018002fd40     OposVariant.obj
 0003:00000d48       ?_pModule@ATL@@3PEAVCComModule@1@EA 000000018002fd48     OposVariant.obj
 0003:00000d50       ?_AtlComModule@ATL@@3VCAtlComModule@1@A 000000018002fd50     OposVariant.obj
 0003:00000da0       ?_AtlWinModule@ATL@@3VCAtlWinModule@1@A 000000018002fda0     OposVariant.obj
 0003:00000de8       ?_entries@?1??GetConnMap@COPOSImageScanner@@SAPEBU_ATL_CONNMAP_ENTRY@ATL@@PEAH@Z@4QBU34@B 000000018002fde8     ImageScanner.obj
 0003:00000e00       ?$TSS0@?1??GetConnMap@COPOSImageScanner@@SAPEBU_ATL_CONNMAP_ENTRY@ATL@@PEAH@Z@4HA 000000018002fe00     ImageScanner.obj
 0003:00000e08       ?_OptionsStorage@?1??__local_stdio_printf_options@@9@4_KA 000000018002fe08     ImageScanner.obj
 0003:00000e10       ?m_libid@CAtlModule@ATL@@2U_GUID@@A 000000018002fe10     ImageScanner.obj
 0003:00000e20       ?_Module@@3VCComModule@ATL@@A 000000018002fe20     ImageScanner.obj
 0003:00000e70       ?pConnMap@?$IConnectionPointContainerImpl@VCOPOSImageScanner@@@ATL@@0PEBU_ATL_CONNMAP_ENTRY@2@EB 000000018002fe70     ImageScanner.obj
 0003:00000e78       ?s_nInstances@COPOSImageScanner@@1HA 000000018002fe78     ImageScannerImpl.obj
 0003:00000e80       __scrt_current_native_startup_state 000000018002fe80     LIBCMT:utility.obj
 0003:00000e88       __scrt_native_startup_lock 000000018002fe88     LIBCMT:utility.obj
 0003:00001480       _tls_index                 0000000180030480     LIBCMT:tlssup.obj
 0003:00001488       __favor                    0000000180030488     LIBCMT:_cpu_disp_.obj
 0003:0000148c       __scrt_debugger_hook_flag  000000018003048c     LIBCMT:utility_desktop.obj
 0003:00001490       ?__type_info_root_node@@3U__type_info_node@@A 0000000180030490     LIBCMT:tncleanup.obj
 0003:000014a0       ?_OptionsStorage@?1??__local_stdio_scanf_options@@9@4_KA 00000001800304a0     LIBCMT:default_local_stdio_options.obj
 0003:000014b0       ?_AtlBaseModule@ATL@@3VCAtlBaseModule@1@A 00000001800304b0     atls:atlbase.obj
 0003:00001510       ?__AtlThunkPool@@3PEAT_SLIST_HEADER@@EA 0000000180030510     atls:atlthunk.obj
 0003:0000153c       __@@_PchSym_@00@UyrmzirvhUrmgvinvwrzgvUexgllohUzgohOmzgrevkilqPBACIAJCBDBUlyqiUznwGEUhgwzucOlyq@4B2008FD98C1DD4 000000018003053c     atls:stdafx.obj
 0003:00001540       ?__WinRTOutOfMemoryExceptionCallback@@3P6APEAXXZEA 0000000180030540     libvcruntime:ehhelpers.obj
 0003:00001548       __pPurecall                0000000180030548     libvcruntime:purevirt_data.obj
 0003:00001650       ?pArgList@UnDecorator@@0PEAVReplicator@@EA 0000000180030650     libvcruntime:undname.obj
 0003:00001658       ?pZNameList@UnDecorator@@0PEAVReplicator@@EA 0000000180030658     libvcruntime:undname.obj
 0003:00001660       ?pTemplateArgList@UnDecorator@@0PEAVReplicator@@EA 0000000180030660     libvcruntime:undname.obj
 0003:00001668       ?gName@UnDecorator@@0PEBDEB 0000000180030668     libvcruntime:undname.obj
 0003:00001670       ?name@UnDecorator@@0PEBDEB 0000000180030670     libvcruntime:undname.obj
 0003:00001678       ?disableFlags@UnDecorator@@0KA 0000000180030678     libvcruntime:undname.obj
 0003:0000167c       ?fExplicitTemplateParams@UnDecorator@@0_NA 000000018003067c     libvcruntime:undname.obj
 0003:0000167d       ?fGetTemplateArgumentList@UnDecorator@@0_NA 000000018003067d     libvcruntime:undname.obj
 0003:00001680       ?m_pGetParameter@UnDecorator@@0P6APEADJ@ZEA 0000000180030680     libvcruntime:undname.obj
 0003:00001688       ?m_CHPENameOffset@UnDecorator@@0KA 0000000180030688     libvcruntime:undname.obj
 0003:0000168c       ?m_recursionLevel@UnDecorator@@0KA 000000018003068c     libvcruntime:undname.obj
 0003:000016d0       ?c_exit_complete@?1???R<lambda_6e4b09c48022b2350581041d5f6b0c4c>@@QEBA@XZ@4_NA 00000001800306d0     libucrt:exit.obj
 0003:000017e8       __dcrt_initial_wide_environment 00000001800307e8     libucrt:environment_initialization.obj
 0003:000017f0       __dcrt_initial_narrow_environment 00000001800307f0     libucrt:environment_initialization.obj
 0003:000017f8       _environ_table             00000001800307f8     libucrt:environment_initialization.obj
 0003:00001800       _wenviron_table            0000000180030800     libucrt:environment_initialization.obj
 0003:00001808       __acrt_atexit_table        0000000180030808     libucrt:onexit.obj
 0003:00001820       __acrt_at_quick_exit_table 0000000180030820     libucrt:onexit.obj
 0003:000019f0       _nstream                   00000001800309f0     libucrt:_file.obj
 0003:000019f8       __piob                     00000001800309f8     libucrt:_file.obj
 0003:00001a08       __acrt_stdout_buffer       0000000180030a08     libucrt:_sftbuf.obj
 0003:00001a10       __acrt_stderr_buffer       0000000180030a10     libucrt:_sftbuf.obj
 0003:00001a18       __acrt_locale_changed_data 0000000180030a18     libucrt:wsetlocale.obj
 0003:00001a20       __acrt_current_locale_data 0000000180030a20     libucrt:nlsdata.obj
 0003:00001a30       __pioinfo                  0000000180030a30     libucrt:ioinit.obj
 0003:00001e30       _nhandle                   0000000180030e30     libucrt:ioinit.obj
 0003:00002078       __acrt_current_multibyte_data 0000000180031078     libucrt:mbctype.obj
 0003:00002080       _mbctype                   0000000180031080     libucrt:mbctype.obj
 0003:00002088       _mbcasemap                 0000000180031088     libucrt:mbctype.obj
 0003:00002098       __argc                     0000000180031098     libucrt:argv_data.obj
 0003:000020a0       __argv                     00000001800310a0     libucrt:argv_data.obj
 0003:000020a8       __wargv                    00000001800310a8     libucrt:argv_data.obj
 0003:000020b0       _acmdln                    00000001800310b0     libucrt:argv_data.obj
 0003:000020b8       _wcmdln                    00000001800310b8     libucrt:argv_data.obj
 0003:000020c0       _pgmptr                    00000001800310c0     libucrt:argv_data.obj
 0003:000020c8       __acrt_heap                00000001800310c8     libucrt:heap_handle.obj
 0003:000020fc       __acrt_lconv_static_null   00000001800310fc     libucrt:localeconv.obj
 0003:00002100       __acrt_lconv_static_W_null 0000000180031100     libucrt:localeconv.obj
 0003:00002108       __fma3_is_available        0000000180031108     libucrt:fma3_available.obj
 0003:0000210c       __use_fma3_lib             000000018003110c     libucrt:fma3_available.obj
 0003:00002110       __dyn_tls_init_callback    0000000180031110     <common>
 0003:00002118       __scrt_ucrt_dll_is_in_use  0000000180031118     <common>

 entry point at        0001:0000eda4

 Static symbols

 0000:fffc6000       .debug$S                   0000000180000000     kernel32:KERNEL32.dll
 0000:fffc6000       .debug$S                   0000000180000000     kernel32:KERNEL32.dll
 0000:fffc6000       .debug$S                   0000000180000000     user32:USER32.dll
 0000:fffc6000       .debug$S                   0000000180000000     user32:USER32.dll
 0000:fffc6000       .debug$S                   0000000180000000     kernel32:KERNEL32.dll
 0000:fffc6000       .debug$S                   0000000180000000     kernel32:KERNEL32.dll
 0000:fffc6000       .debug$S                   0000000180000000     kernel32:KERNEL32.dll
 0000:fffc6000       .debug$S                   0000000180000000     kernel32:KERNEL32.dll
 0000:fffc6000       .debug$S                   0000000180000000     kernel32:KERNEL32.dll
 0000:fffc6000       .debug$S                   0000000180000000     user32:USER32.dll
 0000:fffc6000       .debug$S                   0000000180000000     kernel32:KERNEL32.dll
 0000:fffc6000       .debug$S                   0000000180000000     kernel32:KERNEL32.dll
 0000:fffc6000       .debug$S                   0000000180000000     kernel32:KERNEL32.dll
 0000:fffc6000       .debug$S                   0000000180000000     user32:USER32.dll
 0000:fffc6000       .debug$S                   0000000180000000     user32:USER32.dll
 0000:fffc6000       .debug$S                   0000000180000000     OPOSImageScanner.exp
 0000:fffc6000       .debug$S                   0000000180000000     oleaut32:OLEAUT32.dll
 0000:fffc6000       .debug$S                   0000000180000000     kernel32:KERNEL32.dll
 0000:fffc6000       .debug$S                   0000000180000000     oleaut32:OLEAUT32.dll
 0000:fffc6000       .debug$S                   0000000180000000     user32:USER32.dll
 0000:fffc6000       .debug$S                   0000000180000000     kernel32:KERNEL32.dll
 0000:fffc6000       .debug$S                   0000000180000000     oleaut32:OLEAUT32.dll
 0000:fffc6000       .debug$S                   0000000180000000     user32:USER32.dll
 0000:fffc6000       .debug$S                   0000000180000000     kernel32:KERNEL32.dll
 0000:fffc6000       .debug$S                   0000000180000000     kernel32:KERNEL32.dll
 0000:fffc6000       .debug$S                   0000000180000000     kernel32:KERNEL32.dll
 0000:fffc6000       .debug$S                   0000000180000000     kernel32:KERNEL32.dll
 0000:fffc6000       .debug$S                   0000000180000000     kernel32:KERNEL32.dll
 0000:fffc6000       .debug$S                   0000000180000000     kernel32:KERNEL32.dll
 0000:fffc6000       .debug$S                   0000000180000000     kernel32:KERNEL32.dll
 0000:fffc6000       .debug$S                   0000000180000000     kernel32:KERNEL32.dll
 0000:fffc6000       .debug$S                   0000000180000000     kernel32:KERNEL32.dll
 0000:fffc6000       .debug$S                   0000000180000000     kernel32:KERNEL32.dll
 0000:fffc6000       .debug$S                   0000000180000000     kernel32:KERNEL32.dll
 0000:fffc6000       .debug$S                   0000000180000000     kernel32:KERNEL32.dll
 0000:fffc6000       .debug$S                   0000000180000000     kernel32:KERNEL32.dll
 0000:fffc6000       .debug$S                   0000000180000000     kernel32:KERNEL32.dll
 0000:fffc6000       .debug$S                   0000000180000000     kernel32:KERNEL32.dll
 0000:fffc6000       .debug$S                   0000000180000000     kernel32:KERNEL32.dll
 0000:fffc6000       .debug$S                   0000000180000000     kernel32:KERNEL32.dll
 0000:fffc6000       .debug$S                   0000000180000000     kernel32:KERNEL32.dll
 0000:fffc6000       .debug$S                   0000000180000000     kernel32:KERNEL32.dll
 0000:fffc6000       .debug$S                   0000000180000000     kernel32:KERNEL32.dll
 0000:fffc6000       .debug$S                   0000000180000000     kernel32:KERNEL32.dll
 0000:fffc6000       .debug$S                   0000000180000000     kernel32:KERNEL32.dll
 0000:fffc6000       .debug$S                   0000000180000000     kernel32:KERNEL32.dll
 0000:fffc6000       .debug$S                   0000000180000000     kernel32:KERNEL32.dll
 0000:fffc6000       .debug$S                   0000000180000000     kernel32:KERNEL32.dll
 0000:fffc6000       .debug$S                   0000000180000000     kernel32:KERNEL32.dll
 0000:fffc6000       .debug$S                   0000000180000000     kernel32:KERNEL32.dll
 0000:fffc6000       .debug$S                   0000000180000000     kernel32:KERNEL32.dll
 0000:fffc6000       .debug$S                   0000000180000000     kernel32:KERNEL32.dll
 0000:fffc6000       .debug$S                   0000000180000000     kernel32:KERNEL32.dll
 0000:fffc6000       .debug$S                   0000000180000000     kernel32:KERNEL32.dll
 0000:fffc6000       .debug$S                   0000000180000000     kernel32:KERNEL32.dll
 0000:fffc6000       .debug$S                   0000000180000000     kernel32:KERNEL32.dll
 0000:fffc6000       .debug$S                   0000000180000000     kernel32:KERNEL32.dll
 0000:fffc6000       .debug$S                   0000000180000000     kernel32:KERNEL32.dll
 0000:fffc6000       .debug$S                   0000000180000000     kernel32:KERNEL32.dll
 0000:fffc6000       .debug$S                   0000000180000000     kernel32:KERNEL32.dll
 0000:fffc6000       .debug$S                   0000000180000000     kernel32:KERNEL32.dll
 0000:fffc6000       .debug$S                   0000000180000000     kernel32:KERNEL32.dll
 0000:fffc6000       .debug$S                   0000000180000000     kernel32:KERNEL32.dll
 0000:fffc6000       .debug$S                   0000000180000000     kernel32:KERNEL32.dll
 0000:fffc6000       .debug$S                   0000000180000000     kernel32:KERNEL32.dll
 0000:fffc6000       .debug$S                   0000000180000000     kernel32:KERNEL32.dll
 0000:fffc6000       .debug$S                   0000000180000000     kernel32:KERNEL32.dll
 0000:fffc6000       .debug$S                   0000000180000000     kernel32:KERNEL32.dll
 0000:fffc6000       .debug$S                   0000000180000000     kernel32:KERNEL32.dll
 0000:fffc6000       .debug$S                   0000000180000000     kernel32:KERNEL32.dll
 0000:fffc6000       .debug$S                   0000000180000000     kernel32:KERNEL32.dll
 0000:fffc6000       .debug$S                   0000000180000000     kernel32:KERNEL32.dll
 0000:fffc6000       .debug$S                   0000000180000000     kernel32:KERNEL32.dll
 0000:fffc6000       .debug$S                   0000000180000000     kernel32:KERNEL32.dll
 0000:fffc6000       .debug$S                   0000000180000000     kernel32:KERNEL32.dll
 0000:fffc6000       .debug$S                   0000000180000000     kernel32:KERNEL32.dll
 0000:fffc6000       .debug$S                   0000000180000000     kernel32:KERNEL32.dll
 0000:fffc6000       .debug$S                   0000000180000000     kernel32:KERNEL32.dll
 0000:fffc6000       .debug$S                   0000000180000000     kernel32:KERNEL32.dll
 0000:fffc6000       .debug$S                   0000000180000000     kernel32:KERNEL32.dll
 0000:fffc6000       .debug$S                   0000000180000000     kernel32:KERNEL32.dll
 0000:fffc6000       .debug$S                   0000000180000000     kernel32:KERNEL32.dll
 0000:fffc6000       .debug$S                   0000000180000000     kernel32:KERNEL32.dll
 0000:fffc6000       .debug$S                   0000000180000000     kernel32:KERNEL32.dll
 0000:fffc6000       .debug$S                   0000000180000000     kernel32:KERNEL32.dll
 0000:fffc6000       .debug$S                   0000000180000000     kernel32:KERNEL32.dll
 0000:fffc6000       .debug$S                   0000000180000000     kernel32:KERNEL32.dll
 0000:fffc6000       .debug$S                   0000000180000000     kernel32:KERNEL32.dll
 0000:fffc6000       .debug$S                   0000000180000000     kernel32:KERNEL32.dll
 0000:fffc6000       .debug$S                   0000000180000000     kernel32:KERNEL32.dll
 0000:fffc6000       .debug$S                   0000000180000000     kernel32:KERNEL32.dll
 0000:fffc6000       .debug$S                   0000000180000000     kernel32:KERNEL32.dll
 0000:fffc6000       .debug$S                   0000000180000000     kernel32:KERNEL32.dll
 0000:fffc6000       .debug$S                   0000000180000000     kernel32:KERNEL32.dll
 0000:fffc6000       .debug$S                   0000000180000000     kernel32:KERNEL32.dll
 0000:fffc6000       .debug$S                   0000000180000000     kernel32:KERNEL32.dll
 0000:fffc6000       .debug$S                   0000000180000000     kernel32:KERNEL32.dll
 0000:fffc6000       .debug$S                   0000000180000000     kernel32:KERNEL32.dll
 0000:fffc6000       .debug$S                   0000000180000000     kernel32:KERNEL32.dll
 0000:fffc6000       .debug$S                   0000000180000000     kernel32:KERNEL32.dll
 0000:fffc6000       .debug$S                   0000000180000000     kernel32:KERNEL32.dll
 0000:fffc6000       .debug$S                   0000000180000000     kernel32:KERNEL32.dll
 0000:fffc6000       .debug$S                   0000000180000000     oleaut32:OLEAUT32.dll
 0000:fffc6000       .debug$S                   0000000180000000     kernel32:KERNEL32.dll
 0000:fffc6000       .debug$S                   0000000180000000     user32:USER32.dll
 0000:fffc6000       .debug$S                   0000000180000000     user32:USER32.dll
 0000:fffc6000       .debug$S                   0000000180000000     user32:USER32.dll
 0000:fffc6000       .debug$S                   0000000180000000     kernel32:KERNEL32.dll
 0000:fffc6000       .debug$S                   0000000180000000     kernel32:KERNEL32.dll
 0000:fffc6000       .debug$S                   0000000180000000     kernel32:KERNEL32.dll
 0000:fffc6000       .debug$S                   0000000180000000     kernel32:KERNEL32.dll
 0000:fffc6000       .debug$S                   0000000180000000     kernel32:KERNEL32.dll
 0000:fffc6000       .debug$S                   0000000180000000     oleaut32:OLEAUT32.dll
 0000:fffc6000       .debug$S                   0000000180000000     kernel32:KERNEL32.dll
 0000:fffc6000       .debug$S                   0000000180000000     oleaut32:OLEAUT32.dll
 0000:fffc6000       .debug$S                   0000000180000000     user32:USER32.dll
 0000:fffc6000       .debug$S                   0000000180000000     kernel32:KERNEL32.dll
 0000:fffc6000       .debug$S                   0000000180000000     user32:USER32.dll
 0000:fffc6000       .debug$S                   0000000180000000     user32:USER32.dll
 0000:fffc6000       .debug$S                   0000000180000000     oleaut32:OLEAUT32.dll
 0000:fffc6000       .debug$S                   0000000180000000     kernel32:KERNEL32.dll
 0000:fffc6000       .debug$S                   0000000180000000     oleaut32:OLEAUT32.dll
 0000:fffc6000       .debug$S                   0000000180000000     oleaut32:OLEAUT32.dll
 0000:fffc6000       .debug$S                   0000000180000000     kernel32:KERNEL32.dll
 0000:fffc6000       .debug$S                   0000000180000000     oleaut32:OLEAUT32.dll
 0000:fffc6000       .debug$S                   0000000180000000     oleaut32:OLEAUT32.dll
 0000:fffc6000       .debug$S                   0000000180000000     oleaut32:OLEAUT32.dll
 0000:fffc6000       .debug$S                   0000000180000000     kernel32:KERNEL32.dll
 0000:fffc6000       .debug$S                   0000000180000000     oleaut32:OLEAUT32.dll
 0000:fffc6000       .debug$S                   0000000180000000     oleaut32:OLEAUT32.dll
 0000:fffc6000       .debug$S                   0000000180000000     kernel32:KERNEL32.dll
 0000:fffc6000       .debug$S                   0000000180000000     oleaut32:OLEAUT32.dll
 0000:fffc6000       .debug$S                   0000000180000000     oleaut32:OLEAUT32.dll
 0000:fffc6000       .debug$S                   0000000180000000     kernel32:KERNEL32.dll
 0000:fffc6000       .debug$S                   0000000180000000     ole32:ole32.dll
 0000:fffc6000       .debug$S                   0000000180000000     kernel32:KERNEL32.dll
 0000:fffc6000       .debug$S                   0000000180000000     ole32:ole32.dll
 0000:fffc6000       .debug$S                   0000000180000000     kernel32:KERNEL32.dll
 0000:fffc6000       .debug$S                   0000000180000000     user32:USER32.dll
 0000:fffc6000       .debug$S                   0000000180000000     ole32:ole32.dll
 0000:fffc6000       .debug$S                   0000000180000000     ole32:ole32.dll
 0000:fffc6000       .debug$S                   0000000180000000     ole32:ole32.dll
 0000:fffc6000       .debug$S                   0000000180000000     kernel32:KERNEL32.dll
 0000:fffc6000       .debug$S                   0000000180000000     kernel32:KERNEL32.dll
 0000:fffc6000       .debug$S                   0000000180000000     kernel32:KERNEL32.dll
 0000:fffc6000       .debug$S                   0000000180000000     kernel32:KERNEL32.dll
 0000:fffc6000       .debug$S                   0000000180000000     ole32:ole32.dll
 0000:fffc6000       .debug$S                   0000000180000000     user32:USER32.dll
 0000:fffc6000       .debug$S                   0000000180000000     kernel32:KERNEL32.dll
 0000:fffc6000       .debug$S                   0000000180000000     ole32:ole32.dll
 0000:fffc6000       .debug$S                   0000000180000000     user32:USER32.dll
 0000:fffc6000       .debug$S                   0000000180000000     user32:USER32.dll
 0000:fffc6000       .debug$S                   0000000180000000     user32:USER32.dll
 0000:fffc6000       .debug$S                   0000000180000000     user32:USER32.dll
 0000:fffc6000       .debug$S                   0000000180000000     ole32:ole32.dll
 0000:fffc6000       .debug$S                   0000000180000000     user32:USER32.dll
 0000:fffc6000       .debug$S                   0000000180000000     user32:USER32.dll
 0000:fffc6000       .debug$S                   0000000180000000     user32:USER32.dll
 0000:fffc6000       .debug$S                   0000000180000000     ole32:ole32.dll
 0000:fffc6000       .debug$S                   0000000180000000     user32:USER32.dll
 0000:fffc6000       .debug$S                   0000000180000000     user32:USER32.dll
 0000:fffc6000       .debug$S                   0000000180000000     user32:USER32.dll
 0000:fffc6000       .debug$S                   0000000180000000     user32:USER32.dll
 0000:fffc6000       .debug$S                   0000000180000000     ole32:ole32.dll
 0000:fffc6000       .debug$S                   0000000180000000     ole32:ole32.dll
 0000:fffc6000       .debug$S                   0000000180000000     user32:USER32.dll
 0000:fffc6000       .debug$S                   0000000180000000     ole32:ole32.dll
 0000:fffc6000       .debug$S                   0000000180000000     ole32:ole32.dll
 0000:fffc6000       .debug$S                   0000000180000000     ole32:ole32.dll
 0000:fffc6000       .debug$S                   0000000180000000     user32:USER32.dll
 0000:fffc6000       .debug$S                   0000000180000000     user32:USER32.dll
 0000:fffc6000       .debug$S                   0000000180000000     user32:USER32.dll
 0000:fffc6000       .debug$S                   0000000180000000     user32:USER32.dll
 0000:fffc6000       .debug$S                   0000000180000000     user32:USER32.dll
 0000:fffc6000       .debug$S                   0000000180000000     user32:USER32.dll
 0000:fffc6000       .debug$S                   0000000180000000     user32:USER32.dll
 0000:fffc6000       .debug$S                   0000000180000000     user32:USER32.dll
 0000:fffc6000       .debug$S                   0000000180000000     gdi32:GDI32.dll
 0000:fffc6000       .debug$S                   0000000180000000     advapi32:ADVAPI32.dll
 0000:fffc6000       .debug$S                   0000000180000000     gdi32:GDI32.dll
 0000:fffc6000       .debug$S                   0000000180000000     gdi32:GDI32.dll
 0000:fffc6000       .debug$S                   0000000180000000     gdi32:GDI32.dll
 0000:fffc6000       .debug$S                   0000000180000000     gdi32:GDI32.dll
 0000:fffc6000       .debug$S                   0000000180000000     gdi32:GDI32.dll
 0000:fffc6000       .debug$S                   0000000180000000     gdi32:GDI32.dll
 0000:fffc6000       .debug$S                   0000000180000000     gdi32:GDI32.dll
 0000:fffc6000       .debug$S                   0000000180000000     gdi32:GDI32.dll
 0000:fffc6000       .debug$S                   0000000180000000     advapi32:ADVAPI32.dll
 0000:fffc6000       .debug$S                   0000000180000000     gdi32:GDI32.dll
 0000:fffc6000       .debug$S                   0000000180000000     gdi32:GDI32.dll
 0000:fffc6000       .debug$S                   0000000180000000     advapi32:ADVAPI32.dll
 0000:fffc6000       .debug$S                   0000000180000000     advapi32:ADVAPI32.dll
 0000:fffc6000       .debug$S                   0000000180000000     gdi32:GDI32.dll
 0000:fffc6000       .debug$S                   0000000180000000     gdi32:GDI32.dll
 0000:fffc6000       .debug$S                   0000000180000000     advapi32:ADVAPI32.dll
 0000:fffc6000       .debug$S                   0000000180000000     advapi32:ADVAPI32.dll
 0000:fffc6000       .debug$S                   0000000180000000     gdi32:GDI32.dll
 0000:fffc6000       .debug$S                   0000000180000000     advapi32:ADVAPI32.dll
 0000:fffc6000       .debug$S                   0000000180000000     advapi32:ADVAPI32.dll
 0000:fffc6000       .debug$S                   0000000180000000     advapi32:ADVAPI32.dll
 0000:fffc6000       .debug$S                   0000000180000000     gdi32:GDI32.dll
 0000:fffc6000       .debug$S                   0000000180000000     gdi32:GDI32.dll
 0000:fffc6000       .debug$S                   0000000180000000     gdi32:GDI32.dll
 0000:fffc6000       .debug$S                   0000000180000000     gdi32:GDI32.dll
 0000:fffc6000       .debug$S                   0000000180000000     gdi32:GDI32.dll
 0000:fffc6000       .debug$S                   0000000180000000     kernel32:KERNEL32.dll
 0001:00000000       ??__E_AtlComModule@ATL@@YAXXZ 0000000180001000 f   OposVariant.obj
 0001:00000020       ??__E_AtlWinModule@ATL@@YAXXZ 0000000180001020 f   OposVariant.obj
 0001:00000040       ??__E?pConnMap@?$IConnectionPointContainerImpl@VCOPOSImageScanner@@@ATL@@0PEBU_ATL_CONNMAP_ENTRY@2@EB@@YAXXZ 0000000180001040 f   ImageScanner.obj
 0001:00000058       ??__E_Module@@YAXXZ        0000000180001058 f   ImageScanner.obj
 0001:00000094       ??__E_AtlBaseModule@ATL@@YAXXZ 0000000180001094 f   atls:atlbase.obj
 0001:0000b9f0       memcpy_s                   000000018000c9f0 f   ImageScanner.obj
 0001:0000e2e8       ?__scrt_initialize_thread_safe_statics@@YAHXZ 000000018000f2e8 f   LIBCMT:thread_safe_statics.obj
 0001:0000e448       ?__scrt_uninitialize_thread_safe_statics@@YAXXZ 000000018000f448 f   LIBCMT:thread_safe_statics.obj
 0001:0000e7b8       capture_current_context    000000018000f7b8 f   LIBCMT:gs_report.obj
 0001:0000e828       capture_previous_context   000000018000f828 f   LIBCMT:gs_report.obj
 0001:0000e9d0       $$000000                   000000018000f9d0     LIBCMT:_chkstk_.obj
 0001:0000ea40       $$000000                   000000018000fa40     LIBCMT:_amdsecgs_.obj
 0001:0000ea74       ?dllmain_crt_dispatch@@YAHQEAUHINSTANCE__@@KQEAX@Z 000000018000fa74 f   LIBCMT:dll_dllmain.obj
 0001:0000eac4       ?dllmain_crt_process_attach@@YAHQEAUHINSTANCE__@@QEAX@Z 000000018000fac4 f   LIBCMT:dll_dllmain.obj
 0001:0000ebe0       ?dllmain_crt_process_detach@@YAH_N@Z 000000018000fbe0 f   LIBCMT:dll_dllmain.obj
 0001:0000ec70       ?dllmain_dispatch@@YAHQEAUHINSTANCE__@@KQEAX@Z 000000018000fc70 f   LIBCMT:dll_dllmain.obj
 0001:0000f568       ??$GetProcAddressAll@P6AP6A_JPEAUHWND__@@I_K_J@ZPEAUAtlThunkData_t@@@Z@@YAP6AP6A_JPEAUHWND__@@I_K_J@ZPEAUAtlThunkData_t@@@ZPEAP6AP6A_J0I12@Z3@Z@Z 0000000180010568 f   atls:atlthunk.obj
 0001:0000f568       ??$GetProcAddressAll@P6AXPEAUAtlThunkData_t@@PEAX_K@Z@@YAP6AXPEAUAtlThunkData_t@@PEAX_K@ZPEAP6AX012@Z@Z 0000000180010568 f   atls:atlthunk.obj
 0001:0000f568       ??$GetProcAddressAll@P6APEAUAtlThunkData_t@@XZ@@YAP6APEAUAtlThunkData_t@@XZPEAP6APEAU0@XZ@Z 0000000180010568 f   atls:atlthunk.obj
 0001:0000f568       ??$GetProcAddressAll@P6AXPEAUAtlThunkData_t@@@Z@@YAP6AXPEAUAtlThunkData_t@@@ZPEAP6AX0@Z@Z 0000000180010568 f   atls:atlthunk.obj
 0001:0000f740       ?__InitializeThunkPool@@YAHXZ 0000000180010740 f   atls:atlthunk.obj
 0001:0000f9a0       $$000000                   00000001800109a0     libvcruntime:memset.obj
 0001:0000fa9c       MsetTab                    0000000180010a9c     libvcruntime:memset.obj
 0001:0000fdb0       $$000000                   0000000180010db0     libvcruntime:memcmp.obj
 0001:0000fe90       $$000000                   0000000180010e90     libvcruntime:memcpy.obj
 0001:0000ff47       MoveSmall                  0000000180010f47     libvcruntime:memcpy.obj
 0001:000110d0       ?try_get_function@@YAPEAXW4function_id@?A0xcc2f1bd3@@QEBDQEBW4module_id@2@2@Z 00000001800120d0 f   libvcruntime:winapi_downlevel.obj
 0001:000114b0       $$000000                   00000001800124b0     libvcruntime:_notify_.obj
 0001:00011638       ??$BuildCatchObjectHelperInternal@$$CBU_s_HandlerType@@@@YAHPEAUEHExceptionRecord@@PEAXPEBU_s_HandlerType@@PEBU_s_CatchableType@@@Z 0000000180012638 f   libvcruntime:frame.obj
 0001:00011838       ??$BuildCatchObjectInternal@$$CBU_s_HandlerType@@@@YAXPEAUEHExceptionRecord@@PEAXPEBU_s_HandlerType@@PEBU_s_CatchableType@@@Z 0000000180012838 f   libvcruntime:frame.obj
 0001:000118f8       ??$CatchIt@V__FrameHandler3@@@@YAXPEAUEHExceptionRecord@@PEA_KPEAU_CONTEXT@@PEAU_xDISPATCHER_CONTEXT@@PEBU_s_FuncInfo@@PEBU_s_HandlerType@@PEBU_s_CatchableType@@PEBU_s_TryBlockMapEntry@@H1EE@Z 00000001800128f8 f   libvcruntime:frame.obj
 0001:000119c8       ??$FindHandler@V__FrameHandler3@@@@YAXPEAUEHExceptionRecord@@PEA_KPEAU_CONTEXT@@PEAU_xDISPATCHER_CONTEXT@@PEBU_s_FuncInfo@@EH1@Z 00000001800129c8 f   libvcruntime:frame.obj
 0001:00011e2c       ??$FindHandlerForForeignException@V__FrameHandler3@@@@YAXPEAUEHExceptionRecord@@PEA_KPEAU_CONTEXT@@PEAU_xDISPATCHER_CONTEXT@@PEBU_s_FuncInfo@@HH1@Z 0000000180012e2c f   libvcruntime:frame.obj
 0001:00012634       ?ExFilterRethrow@@YAHPEAU_EXCEPTION_POINTERS@@PEAUEHExceptionRecord@@PEAH@Z 0000000180013634 f   libvcruntime:frame.obj
 0001:000128e8       ?IsInExceptionSpec@@YAEPEAUEHExceptionRecord@@PEBU_s_ESTypeList@@@Z 00000001800138e8 f   libvcruntime:frame.obj
 0001:000129c0       ?Is_bad_exception_allowed@@YAEPEBU_s_ESTypeList@@@Z 00000001800139c0 f   libvcruntime:frame.obj
 0001:00012a70       $$000000                   0000000180013a70     libvcruntime:handlers.obj
 0001:00013220       ??$common_vsprintf@Vformat_validation_base@__crt_stdio_output@@_W@@YAH_KQEA_W0QEB_WQEAU__crt_locale_pointers@@QEAD@Z 0000000180014220 f   libucrt:output.obj
 0001:000149e8       ??R<lambda_6e4b09c48022b2350581041d5f6b0c4c>@@QEBA@XZ 00000001800159e8 f   libucrt:exit.obj
 0001:00014ac0       ?atexit_exception_filter@@YAHK@Z 0000000180015ac0 f   libucrt:exit.obj
 0001:00014acc       ?common_exit@@YAXHW4_crt_exit_cleanup_mode@@W4_crt_exit_return_mode@@@Z 0000000180015acc f   libucrt:exit.obj
 0001:00014b88       ?exit_or_terminate_process@@YAXI@Z 0000000180015b88 f   libucrt:exit.obj
 0001:00014bd4       ?try_cor_exit_process@@YAXI@Z 0000000180015bd4 f   libucrt:exit.obj
 0001:00014c5c       ??$parse_command_line@D@@YAXPEADPEAPEAD0PEA_K2@Z 0000000180015c5c f   libucrt:argv_parsing.obj
 0001:00015004       ??$common_initialize_environment_nolock@D@@YAHXZ 0000000180016004 f   libucrt:environment_initialization.obj
 0001:00015070       ??$create_environment@D@@YAQEAPEADQEAD@Z 0000000180016070 f   libucrt:environment_initialization.obj
 0001:0001516c       ??$free_environment@D@@YAXQEAPEAD@Z 000000018001616c f   libucrt:environment_initialization.obj
 0001:0001516c       ??$free_environment@_W@@YAXQEAPEA_W@Z 000000018001616c f   libucrt:environment_initialization.obj
 0001:000151b0       ??$uninitialize_environment_internal@D@@YAXAEAPEAPEAD@Z 00000001800161b0 f   libucrt:environment_initialization.obj
 0001:000151cc       ??$uninitialize_environment_internal@_W@@YAXAEAPEAPEA_W@Z 00000001800161cc f   libucrt:environment_initialization.obj
 0001:000152a0       ??R<lambda_22ebabd17bc4fa466a2aca6d8deb888d>@@QEBAHXZ 00000001800162a0 f   libucrt:onexit.obj
 0001:0001547c       ??R<lambda_f03950bc5685219e0bcd2087efbe011e>@@QEBAHXZ 000000018001647c f   libucrt:onexit.obj
 0001:0001569c       initialize_global_variables 000000018001669c f   libucrt:initialization.obj
 0001:000156b0       initialize_c               00000001800166b0 f   libucrt:initialization.obj
 0001:000156d4       uninitialize_c             00000001800166d4 f   libucrt:initialization.obj
 0001:000156d4       initialize_environment     00000001800166d4 f   libucrt:initialization.obj
 0001:000156d4       report_memory_leaks        00000001800166d4 f   libucrt:initialization.obj
 0001:000156d4       initialize_global_state_isolation 00000001800166d4 f   libucrt:initialization.obj
 0001:000156d4       uninitialize_global_state_isolation 00000001800166d4 f   libucrt:initialization.obj
 0001:000156d8       uninitialize_environment   00000001800166d8 f   libucrt:initialization.obj
 0001:000156e8       initialize_pointers        00000001800166e8 f   libucrt:initialization.obj
 0001:0001573c       uninitialize_vcruntime     000000018001673c f   libucrt:initialization.obj
 0001:00015744       uninitialize_allocated_memory 0000000180016744 f   libucrt:initialization.obj
 0001:000161a0       $$000000                   00000001800171a0     libucrt:strncmp.obj
 0001:00016398       ?construct_ptd_array@@YAXQEAU__acrt_ptd@@@Z 0000000180017398 f   libucrt:per_thread_data.obj
 0001:00016468       ?destroy_fls@@YAXPEAX@Z    0000000180017468 f   libucrt:per_thread_data.obj
 0001:00016488       ?destroy_ptd_array@@YAXQEAU__acrt_ptd@@@Z 0000000180017488 f   libucrt:per_thread_data.obj
 0001:00016580       ?replace_current_thread_locale_nolock@@YAXQEAU__acrt_ptd@@QEAU__crt_locale_data@@@Z 0000000180017580 f   libucrt:per_thread_data.obj
 0001:00016a70       ?try_get_function@@YAPEAXW4function_id@?A0x391cf84c@@QEBDQEBW4module_id@2@2@Z 0000000180017a70 f   libucrt:winapi_thunks.obj
 0001:00017088       ?internal_isupper_l@@YA_NHQEAU__crt_locale_pointers@@@Z 0000000180018088 f   libucrt:tolower_toupper.obj
 0001:000176a0       ?fp_format_a@@YAHQEBNPEAD_KQEAD2H_NIQEAU__crt_locale_pointers@@@Z 00000001800186a0 f   libucrt:cvt.obj
 0001:00017a00       ?fp_format_e@@YAHQEBNQEAD_K12H_NIQEAU__crt_locale_pointers@@@Z 0000000180018a00 f   libucrt:cvt.obj
 0001:00017ad0       ?fp_format_e_internal@@YAHQEAD_KH_NIQEAU_strflt@@2QEAU__crt_locale_pointers@@@Z 0000000180018ad0 f   libucrt:cvt.obj
 0001:00017cac       ?fp_format_f_internal@@YAHQEAD_KHQEAU_strflt@@_NQEAU__crt_locale_pointers@@@Z 0000000180018cac f   libucrt:cvt.obj
 0001:00017df4       ?fp_format_g@@YAHQEBNQEAD_K12H_NIQEAU__crt_locale_pointers@@@Z 0000000180018df4 f   libucrt:cvt.obj
 0001:00017f2c       ?fp_format_nan_or_infinity@@YAHW4__acrt_fp_class@@_NPEAD_K1@Z 0000000180018f2c f   libucrt:cvt.obj
 0001:00018534       ?initialize_inherited_file_handles_nolock@@YAXXZ 0000000180019534 f   libucrt:ioinit.obj
 0001:00018620       ?initialize_stdio_handles_nolock@@YAXXZ 0000000180019620 f   libucrt:ioinit.obj
 0001:00018878       ?<lambda_invoker_cdecl>@<lambda_c2303d2482d7c3675ea2e24c4cfb6115>@@CAHPEBX0@Z 0000000180019878 f   libucrt:argv_wildcards.obj
 0001:0001888c       ??$common_expand_argv_wildcards@D@@YAHQEAPEADQEAPEAPEAD@Z 000000018001988c f   libucrt:argv_wildcards.obj
 0001:00018a98       ??$copy_and_add_argument_to_buffer@D@@YAHQEBD0_KAEAV?$argument_list@D@?A0x5f5c8891@@@Z 0000000180019a98 f   libucrt:argv_wildcards.obj
 0001:00018c30       ??$expand_argument_wildcards@D@@YAHQEAD0AEAV?$argument_list@D@?A0x5f5c8891@@@Z 0000000180019c30 f   libucrt:argv_wildcards.obj
 0001:00018fac       ?getSystemCP@@YAHH@Z       0000000180019fac f   libucrt:mbctype.obj
 0001:0001902c       ?setSBCS@@YAXPEAU__crt_multibyte_data@@@Z 000000018001a02c f   libucrt:mbctype.obj
 0001:000190bc       ?setSBUpLow@@YAXPEAU__crt_multibyte_data@@@Z 000000018001a0bc f   libucrt:mbctype.obj
 0001:000192a0       ?setmbcp_internal@@YAHH_NQEAU__acrt_ptd@@QEAPEAU__crt_multibyte_data@@@Z 000000018001a2a0 f   libucrt:mbctype.obj
 0001:00019464       ?update_thread_multibyte_data_internal@@YAPEAU__crt_multibyte_data@@QEAU__acrt_ptd@@QEAU1@@Z 000000018001a464 f   libucrt:mbctype.obj
 0001:00019840       ?x_ismbbtype_l@@YAHPEAU__crt_locale_pointers@@IHH@Z 000000018001a840 f   libucrt:ismbbyte.obj
 0001:0001a428       ?GetTableIndexFromLocaleName@@YAHPEB_W@Z 000000018001b428 f   libucrt:lcidtoname_downlevel.obj
 0001:0001a564       ?__acrt_LCMapStringA_stat@@YAHPEAU__crt_locale_pointers@@PEB_WKPEBDHPEADHHH@Z 000000018001b564 f   libucrt:lcmapstringa.obj
 0001:0001c210       memcpy_s                   000000018001d210 f   libucrt:cfout.obj
 0001:0001c4d0       ?common_flush_all@@YAH_N@Z 000000018001d4d0 f   libucrt:fflush.obj
 0001:0001c818       ?free_crt_array_internal@@YAXQEAPEBX_K@Z 000000018001d818 f   libucrt:inittime.obj
 0001:0001ce50       ?shortsort@@YAXPEAD0_KP6AHPEBX2@Z@Z 000000018001de50 f   libucrt:qsort.obj
 0001:0001d444       ?initialize_multibyte@@YAHXZ 000000018001e444 f   libucrt:multibyte_initializer.obj
 0001:0001d600       $$000000                   000000018001e600     libucrt:log10.obj
 0001:0001dbac       ?write_double_translated_ansi_nolock@@YA?AUwrite_result@?A0x17268360@@HQEBDI@Z 000000018001ebac f   libucrt:write.obj
 0001:0001ddd4       ?write_text_ansi_nolock@@YA?AUwrite_result@?A0x17268360@@HQEBDI@Z 000000018001edd4 f   libucrt:write.obj
 0001:0001ded8       ?write_text_utf16le_nolock@@YA?AUwrite_result@?A0x17268360@@HQEBDI@Z 000000018001eed8 f   libucrt:write.obj
 0001:0001dff4       ?write_text_utf8_nolock@@YA?AUwrite_result@?A0x17268360@@HQEBDI@Z 000000018001eff4 f   libucrt:write.obj
 0001:0001e550       ??$common_lseek_nolock@_J@@YA_JH_JH@Z 000000018001f550 f   libucrt:lseek.obj
 0001:0001e930       common_control87           000000018001f930 f   libucrt:ieee.obj
 0001:0001ebc0       _call_matherr              000000018001fbc0 f   libucrt:libm_error.obj
 0001:0001ec28       _exception_enabled         000000018001fc28 f   libucrt:libm_error.obj
 0001:0001eec0       _log_special_common        000000018001fec0 f   libucrt:log_special.obj
 0001:0001f1d0       $$000000                   00000001800201d0     libucrt:fpsr.obj
 0001:0001f8f0       $$000000                   00000001800208f0     LIBCMT:_guard_dispatch_.obj
 0001:0001f910       ?filt$0@?0??_AtlVerifyStackAvailable@_ATL_SAFE_ALLOCA_IMPL@ATL@@YA_N_K@Z@4HA 0000000180020910 f   ImageScanner.obj
 0001:0001f931       __scrt_is_nonwritable_in_current_image$filt$0 0000000180020931 f   LIBCMT:utility.obj
 0001:0001f949       ?catch$0@?0???2@YAPEAX_KAEBUnothrow_t@std@@@Z@4HA 0000000180020949 f   LIBCMT:new_scalar_nothrow.obj
 0001:0001f956       __catch$??2@YAPEAX_KAEBUnothrow_t@std@@@Z$0 0000000180020956 f   LIBCMT:new_scalar_nothrow.obj
 0001:0001f964       ?fin$0@?0??dllmain_crt_process_attach@@YAHQEAUHINSTANCE__@@QEAX@Z@4HA 0000000180020964 f   LIBCMT:dll_dllmain.obj
 0001:0001f97b       ?fin$0@?0??dllmain_crt_process_detach@@YAH_N@Z@4HA 000000018002097b f   LIBCMT:dll_dllmain.obj
 0001:0001f997       ?filt$0@?0??dllmain_dispatch@@YAHQEAUHINSTANCE__@@KQEAX@Z@4HA 0000000180020997 f   LIBCMT:dll_dllmain.obj
 0001:0001f9cd       __DestructExceptionObject$filt$0 00000001800209cd f   libvcruntime:ehhelpers.obj
 0001:0001f9e5       ?filt$0@?0???$_CallSETranslator@V__FrameHandler3@@@@YAHPEAUEHExceptionRecord@@PEA_KPEAU_CONTEXT@@PEAU_xDISPATCHER_CONTEXT@@PEBU_s_FuncInfo@@K1@Z@4HA 00000001800209e5 f   libvcruntime:risctrnsctrl.obj
 0001:0001fa76       ?filt$0@?0??CxxCallCatchBlock@__FrameHandler3@@SAPEAXPEAU_EXCEPTION_RECORD@@@Z@4HA 0000000180020a76 f   libvcruntime:frame.obj
 0001:0001fa9b       ?fin$1@?0??CxxCallCatchBlock@__FrameHandler3@@SAPEAXPEAU_EXCEPTION_RECORD@@@Z@4HA 0000000180020a9b f   libvcruntime:frame.obj
 0001:0001fb13       ?filt$0@?0??FrameUnwindToState@__FrameHandler3@@SAXPEA_KPEAU_xDISPATCHER_CONTEXT@@PEBU_s_FuncInfo@@H@Z@4HA 0000000180020b13 f   libvcruntime:frame.obj
 0001:0001fb29       ?fin$1@?0??FrameUnwindToState@__FrameHandler3@@SAXPEA_KPEAU_xDISPATCHER_CONTEXT@@PEBU_s_FuncInfo@@H@Z@4HA 0000000180020b29 f   libvcruntime:frame.obj
 0001:0001fb4c       ?fin$0@?0???$?RV<lambda_d80eeec6fff315bfe5c115232f3240e3>@@AEAV<lambda_6e4b09c48022b2350581041d5f6b0c4c>@@V<lambda_2358e3775559c9db80273638284d5e45>@@@?$__crt_seh_guarded_call@X@@QEAAX$$QEAV<lambda_d80eeec6fff315bfe5c115232f3240e3>@@AEAV<lambda_6e4b09c48022b2350581041d5f6b0c4c>@@$$QEAV<lambda_2358e3775559c9db80273638284d5e45>@@@Z@4HA 0000000180020b4c f   libucrt:exit.obj
 0001:0001fb4c       ?fin$0@?0???$?RV<lambda_638799b9deba96c50f710eeac98168cd>@@AEAV<lambda_22ebabd17bc4fa466a2aca6d8deb888d>@@V<lambda_a6f7d7db0129f75315ebf26d50c089f1>@@@?$__crt_seh_guarded_call@H@@QEAAH$$QEAV<lambda_638799b9deba96c50f710eeac98168cd>@@AEAV<lambda_22ebabd17bc4fa466a2aca6d8deb888d>@@$$QEAV<lambda_a6f7d7db0129f75315ebf26d50c089f1>@@@Z@4HA 0000000180020b4c f   libucrt:onexit.obj
 0001:0001fb4c       ?fin$0@?0???$?RV<lambda_2d41944a1d46af3157314b8a01080d33>@@AEAV<lambda_8f455de75cd7d7f24b4096f044d8b9e6>@@V<lambda_aa500f224e6afead328df44964fe2772>@@@?$__crt_seh_guarded_call@X@@QEAAX$$QEAV<lambda_2d41944a1d46af3157314b8a01080d33>@@AEAV<lambda_8f455de75cd7d7f24b4096f044d8b9e6>@@$$QEAV<lambda_aa500f224e6afead328df44964fe2772>@@@Z@4HA 0000000180020b4c f   libucrt:per_thread_data.obj
 0001:0001fb4c       ?fin$0@?0???$?RV<lambda_7777bce6b2f8c936911f934f8298dc43>@@AEAV<lambda_f03950bc5685219e0bcd2087efbe011e>@@V<lambda_3883c3dff614d5e0c5f61bb1ac94921c>@@@?$__crt_seh_guarded_call@H@@QEAAH$$QEAV<lambda_7777bce6b2f8c936911f934f8298dc43>@@AEAV<lambda_f03950bc5685219e0bcd2087efbe011e>@@$$QEAV<lambda_3883c3dff614d5e0c5f61bb1ac94921c>@@@Z@4HA 0000000180020b4c f   libucrt:onexit.obj
 0001:0001fb4c       ?fin$0@?0???$?RV<lambda_450d765d439847d4c735a33c368b5fc0>@@AEAV<lambda_44731a7d0e6d81c3e6aa82d741081786>@@V<lambda_601a2a7da3b7a96e9554ac7215c4b07c>@@@?$__crt_seh_guarded_call@P6AXH@Z@@QEAAP6AXH@Z$$QEAV<lambda_450d765d439847d4c735a33c368b5fc0>@@AEAV<lambda_44731a7d0e6d81c3e6aa82d741081786>@@$$QEAV<lambda_601a2a7da3b7a96e9554ac7215c4b07c>@@@Z@4HA 0000000180020b4c f   libucrt:signal.obj
 0001:0001fb4c       ?fin$0@?0???$?RV<lambda_aa87e3671a710a21b5dc78c0bdf72e11>@@AEAV<lambda_92619d2358a28f41a33ba319515a20b9>@@V<lambda_6992ecaafeb10aed2b74cb1fae11a551>@@@?$__crt_seh_guarded_call@X@@QEAAX$$QEAV<lambda_aa87e3671a710a21b5dc78c0bdf72e11>@@AEAV<lambda_92619d2358a28f41a33ba319515a20b9>@@$$QEAV<lambda_6992ecaafeb10aed2b74cb1fae11a551>@@@Z@4HA 0000000180020b4c f   libucrt:per_thread_data.obj
 0001:0001fb4c       ?fin$0@?0???$?RV<lambda_f2e299630e499de9f9a165e60fcd3db5>@@AEAV<lambda_2ae9d31cdba2644fcbeaf08da7c24588>@@V<lambda_40d01ff24d0e7b3814fdbdcee8eab3c7>@@@?$__crt_seh_guarded_call@X@@QEAAX$$QEAV<lambda_f2e299630e499de9f9a165e60fcd3db5>@@AEAV<lambda_2ae9d31cdba2644fcbeaf08da7c24588>@@$$QEAV<lambda_40d01ff24d0e7b3814fdbdcee8eab3c7>@@@Z@4HA 0000000180020b4c f   libucrt:per_thread_data.obj
 0001:0001fb4c       ?fin$0@?0???$?RV<lambda_efdfa57d1f175319df784efa44bb7b81>@@AEAV<lambda_5f0a4c1567f8adc6734073e5d1e1b35c>@@V<lambda_2e8a7d3640ea6ccb4c2413664c2db6fd>@@@?$__crt_seh_guarded_call@X@@QEAAX$$QEAV<lambda_efdfa57d1f175319df784efa44bb7b81>@@AEAV<lambda_5f0a4c1567f8adc6734073e5d1e1b35c>@@$$QEAV<lambda_2e8a7d3640ea6ccb4c2413664c2db6fd>@@@Z@4HA 0000000180020b4c f   libucrt:mbctype.obj
 0001:0001fb4c       ?fin$0@?0???$?RV<lambda_0ae27a3a962d80f24befdcbee591983d>@@AEAV<lambda_8d0ee55de4b1038c4002e0adecdf1839>@@V<lambda_dc504788e8f1664fe9b84e20bfb512f2>@@@?$__crt_seh_guarded_call@X@@QEAAX$$QEAV<lambda_0ae27a3a962d80f24befdcbee591983d>@@AEAV<lambda_8d0ee55de4b1038c4002e0adecdf1839>@@$$QEAV<lambda_dc504788e8f1664fe9b84e20bfb512f2>@@@Z@4HA 0000000180020b4c f   libucrt:per_thread_data.obj
 0001:0001fb66       ?filt$0@?0???R<lambda_6e4b09c48022b2350581041d5f6b0c4c>@@QEBA@XZ@4HA 0000000180020b66 f   libucrt:exit.obj
 0001:0001fb81       _query_new_handler$fin$0   0000000180020b81 f   libucrt:new_handler.obj
 0001:0001fb97       ?fin$0@?0???$?RV<lambda_410d79af7f07d98d83a3f525b3859a53>@@AEAV<lambda_3e16ef9562a7dcce91392c22ab16ea36>@@V<lambda_38119f0e861e05405d8a144b9b982f0a>@@@?$__crt_seh_guarded_call@X@@QEAAX$$QEAV<lambda_410d79af7f07d98d83a3f525b3859a53>@@AEAV<lambda_3e16ef9562a7dcce91392c22ab16ea36>@@$$QEAV<lambda_38119f0e861e05405d8a144b9b982f0a>@@@Z@4HA 0000000180020b97 f   libucrt:wsetlocale.obj
 0001:0001fbb1       __acrt_initialize_lowio$fin$0 0000000180020bb1 f   libucrt:ioinit.obj
 0001:0001fbb1       __acrt_lowio_ensure_fh_exists$fin$0 0000000180020bb1 f   libucrt:osfinfo.obj
 0001:0001fbca       ?fin$0@?0??update_thread_multibyte_data_internal@@YAPEAU__crt_multibyte_data@@QEAU__acrt_ptd@@QEAU1@@Z@4HA 0000000180020bca f   libucrt:mbctype.obj
 0001:0001fbe3       raise$fin$0                0000000180020be3 f   libucrt:signal.obj
 0001:0001fc07       __acrt_update_thread_locale_data$fin$0 0000000180020c07 f   libucrt:locale_refcounting.obj
 0001:0001fc20       _fcloseall$fin$0           0000000180020c20 f   libucrt:closeall.obj
 0001:0001fc39       ?fin$0@?0???$?RV<lambda_842d9ff0dc9ef11c61343bbaebe7f885>@@AEAV<lambda_c5860995281e5c4ce005b3de8f5874ee>@@V<lambda_d90129c13df834fdcbf8d2b88dafcf2d>@@@?$__crt_seh_guarded_call@X@@QEAAX$$QEAV<lambda_842d9ff0dc9ef11c61343bbaebe7f885>@@AEAV<lambda_c5860995281e5c4ce005b3de8f5874ee>@@$$QEAV<lambda_d90129c13df834fdcbf8d2b88dafcf2d>@@@Z@4HA 0000000180020c39 f   libucrt:fflush.obj
 0001:0001fc54       ?fin$0@?0???$?RV<lambda_886d6c58226a84441f68b9f2b8217b83>@@AEAV<lambda_ab61a845afdef5b7c387490eaf3616ee>@@V<lambda_f7f22ab5edc0698d5f6905b0d3f44752>@@@?$__crt_seh_guarded_call@X@@QEAAX$$QEAV<lambda_886d6c58226a84441f68b9f2b8217b83>@@AEAV<lambda_ab61a845afdef5b7c387490eaf3616ee>@@$$QEAV<lambda_f7f22ab5edc0698d5f6905b0d3f44752>@@@Z@4HA 0000000180020c54 f   libucrt:fflush.obj
 0001:0001fc71       _write$fin$0               0000000180020c71 f   libucrt:write.obj
 0001:0001fc88       fclose$fin$0               0000000180020c88 f   libucrt:fclose.obj
 0001:0001fca0       ?fin$0@?0???$?RV<lambda_a37b2b86f63e897a80ea819b0eb08c01>@@AEAV<lambda_38ce7e780aa69e748d6df282ebc68efe>@@V<lambda_99fb1378e971ab6e7edea83e3a7a83a2>@@@?$__crt_seh_guarded_call@H@@QEAAH$$QEAV<lambda_a37b2b86f63e897a80ea819b0eb08c01>@@AEAV<lambda_38ce7e780aa69e748d6df282ebc68efe>@@$$QEAV<lambda_99fb1378e971ab6e7edea83e3a7a83a2>@@@Z@4HA 0000000180020ca0 f   libucrt:commit.obj
 0001:0001fca0       ?fin$0@?0???$?RV<lambda_751a882b2c74d4b022dec766aa51a29a>@@AEAV<lambda_628dfdc04ba53c8bfc02c9951375f3f5>@@V<lambda_f6c7be5f7998530c34de24c7437d6b54>@@@?$__crt_seh_guarded_call@H@@QEAAH$$QEAV<lambda_751a882b2c74d4b022dec766aa51a29a>@@AEAV<lambda_628dfdc04ba53c8bfc02c9951375f3f5>@@$$QEAV<lambda_f6c7be5f7998530c34de24c7437d6b54>@@@Z@4HA 0000000180020ca0 f   libucrt:close.obj
 0001:0001fcba       _ctrlfp$filt$0             0000000180020cba f   libucrt:fpctrl.obj
 0001:0001fcba       common_control87$filt$0    0000000180020cba f   libucrt:ieee.obj
 0001:0001fcf0       _IsNonwritableInCurrentImage$filt$0 0000000180020cf0 f   LIBCMT:pesect.obj
 0001:0001fd10       ??__F_AtlComModule@ATL@@YAXXZ 0000000180020d10 f   OposVariant.obj
 0001:0001fd1c       ??__F_AtlWinModule@ATL@@YAXXZ 0000000180020d1c f   OposVariant.obj
 0001:0001fd60       ??__F_Module@@YAXXZ        0000000180020d60 f   ImageScanner.obj
 0001:0001fdc4       ??__F_AtlBaseModule@ATL@@YAXXZ 0000000180020dc4 f   atls:atlbase.obj
 0002:00000630       ?_AtlBaseModule$initializer$@ATL@@3P6AXXZEA 0000000180021630     atls:atlbase.obj
 0002:00000638       ?_AtlComModule$initializer$@ATL@@3P6AXXZEA 0000000180021638     OposVariant.obj
 0002:00000640       ?_AtlWinModule$initializer$@ATL@@3P6AXXZEA 0000000180021640     OposVariant.obj
 0002:00000648       ?_Module$initializer$@@3P6AXXZEA 0000000180021648     ImageScanner.obj
 0002:00000650       ??pConnMap$initializer$@?$IConnectionPointContainerImpl@VCOPOSImageScanner@@@ATL@@0P6AXXZEA@@3P6AXXZEA 0000000180021650     ImageScanner.obj
 0002:00000668       ?__scrt_initialize_tss_var@@3P6AHXZEA 0000000180021668     LIBCMT:thread_safe_statics.obj
 0002:00000d40       ?map@?1??HKeyFromString@CRegParser@ATL@@KAPEAUHKEY__@@PEA_W@Z@4QBUkeymap@?1??123@KAPEAU4@0@Z@B 0000000180021d40     ImageScanner.obj
 0002:00002688       $cppxdata$?__scrt_initialize_thread_safe_statics@@YAHXZ 0000000180023688     LIBCMT:thread_safe_statics.obj
 0002:00002778       GS_ExceptionPointers       0000000180023778     LIBCMT:gs_report.obj
 0002:00002788       $cppxdata$??2@YAPEAX_KAEBUnothrow_t@std@@@Z 0000000180023788     LIBCMT:new_scalar_nothrow.obj
 0002:00002960       ?ExceptionTemplate@?1??UnwindNestedFrames@__FrameHandler3@@SAXPEA_KPEAUEHExceptionRecord@@PEAU_CONTEXT@@0PEAXPEBU_s_FuncInfo@@HHPEBU_s_HandlerType@@PEAU_xDISPATCHER_CONTEXT@@E@Z@4U_EXCEPTION_RECORD@@B 0000000180023960     libvcruntime:risctrnsctrl.obj
 0002:00002a00       ?ExceptionTemplate@?1??_CxxThrowException@@9@4UEHExceptionRecord@@B 0000000180023a00     libvcruntime:throw.obj
 0002:00002a40       ?module_names@?A0xcc2f1bd3@@3QBQEB_WB 0000000180023a40     libvcruntime:winapi_downlevel.obj
 0002:00002b10       ?candidate_modules@?1??try_get_FlsAlloc@@YAP6AKP6AXPEAX@Z@ZXZ@4QBW4module_id@?A0xcc2f1bd3@@B 0000000180023b10     libvcruntime:winapi_downlevel.obj
 0002:00002b28       ?candidate_modules@?1??try_get_FlsFree@@YAP6AHK@ZXZ@4QBW4module_id@?A0xcc2f1bd3@@B 0000000180023b28     libvcruntime:winapi_downlevel.obj
 0002:00002b38       ?candidate_modules@?1??try_get_FlsGetValue@@YAP6APEAXK@ZXZ@4QBW4module_id@?A0xcc2f1bd3@@B 0000000180023b38     libvcruntime:winapi_downlevel.obj
 0002:00002b50       ?candidate_modules@?1??try_get_FlsSetValue@@YAP6AHKPEAX@ZXZ@4QBW4module_id@?A0xcc2f1bd3@@B 0000000180023b50     libvcruntime:winapi_downlevel.obj
 0002:00002b68       ?candidate_modules@?1??try_get_InitializeCriticalSectionEx@@YAP6AHPEAU_RTL_CRITICAL_SECTION@@KK@ZXZ@4QBW4module_id@?A0xcc2f1bd3@@B 0000000180023b68     libvcruntime:winapi_downlevel.obj
 0002:00002bc0       ?tokenTable@@3QBQEBDB      0000000180023bc0     libvcruntime:undname.obj
 0002:00002c40       ?nameTable@@3QBQEBDB       0000000180023c40     libvcruntime:undname.obj
 0002:00002ed0       ?rttiTable@@3QBQEBDB       0000000180023ed0     libvcruntime:undname.obj
 0002:00003590       ?errtable@@3QBUerrentry@?A0x31fdb9ec@@B 0000000180024590     libucrt:errno.obj
 0002:00003870       __acrt_initializers        0000000180024870     libucrt:initialization.obj
 0002:00003960       ?module_names@?A0x391cf84c@@3QBQEB_WB 0000000180024960     libucrt:winapi_thunks.obj
 0002:00003ec8       ?candidate_modules@?1??try_get_FlsAlloc@@YAP6AKP6AXPEAX@Z@ZXZ@4QBW4module_id@?A0x391cf84c@@B 0000000180024ec8     libucrt:winapi_thunks.obj
 0002:00003ee0       ?candidate_modules@?1??try_get_FlsFree@@YAP6AHK@ZXZ@4QBW4module_id@?A0x391cf84c@@B 0000000180024ee0     libucrt:winapi_thunks.obj
 0002:00003ef0       ?candidate_modules@?1??try_get_FlsGetValue@@YAP6APEAXK@ZXZ@4QBW4module_id@?A0x391cf84c@@B 0000000180024ef0     libucrt:winapi_thunks.obj
 0002:00003f08       ?candidate_modules@?1??try_get_FlsSetValue@@YAP6AHKPEAX@ZXZ@4QBW4module_id@?A0x391cf84c@@B 0000000180024f08     libucrt:winapi_thunks.obj
 0002:00003f20       ?candidate_modules@?1??try_get_InitializeCriticalSectionEx@@YAP6AHPEAU_RTL_CRITICAL_SECTION@@KK@ZXZ@4QBW4module_id@?A0x391cf84c@@B 0000000180024f20     libucrt:winapi_thunks.obj
 0002:00003f48       ?candidate_modules@?1??try_get_LCMapStringEx@@YAP6AHPEB_WK0HPEA_WHPEAU_nlsversioninfo@@PEAX_J@ZXZ@4QBW4module_id@?A0x391cf84c@@B 0000000180024f48     libucrt:winapi_thunks.obj
 0002:00003f60       ?candidate_modules@?1??try_get_LocaleNameToLCID@@YAP6AKPEB_WK@ZXZ@4QBW4module_id@?A0x391cf84c@@B 0000000180024f60     libucrt:winapi_thunks.obj
 0002:00003f7c       ?candidate_modules@?1??try_get_AppPolicyGetProcessTerminationMethod@@YAP6AJPEAXPEAW4AppPolicyProcessTerminationMethod@@@ZXZ@4QBW4module_id@?A0x391cf84c@@B 0000000180024f7c     libucrt:winapi_thunks.obj
 0002:00003fa8       ?candidate_modules@?1??try_get_SetThreadStackGuarantee@@YAP6AHPEAK@ZXZ@4QBW4module_id@?A0x391cf84c@@B 0000000180024fa8     libucrt:winapi_thunks.obj
 0002:000046a0       ?_mb_locale_names@@3QBQEB_WB 00000001800256a0     libucrt:mbctype.obj
 0002:000056e0       ?LocaleNameToIndexTable@?A0x881e4c05@@3QBULocaleNameIndex@1@B 00000001800266e0     libucrt:lcidtoname_downlevel.obj
 0002:00006f80       ?LcidToLocaleNameTable@?A0x881e4c05@@3QBULcidToLocaleName@1@B 0000000180027f80     libucrt:lcidtoname_downlevel.obj
 0002:00008c10       __real_ninf                0000000180029c10     libucrt:log10.obj
 0002:00008c20       __real_inf                 0000000180029c20     libucrt:log10.obj
 0002:00008c30       __real_neg_qnan            0000000180029c30     libucrt:log10.obj
 0002:00008c40       __real_qnanbit             0000000180029c40     libucrt:log10.obj
 0002:00008c50       __int_1023                 0000000180029c50     libucrt:log10.obj
 0002:00008c60       __mask_001                 0000000180029c60     libucrt:log10.obj
 0002:00008c70       __mask_mant                0000000180029c70     libucrt:log10.obj
 0002:00008c80       __mask_mant_top8           0000000180029c80     libucrt:log10.obj
 0002:00008c90       __mask_mant9               0000000180029c90     libucrt:log10.obj
 0002:00008ca0       __real_log10_e             0000000180029ca0     libucrt:log10.obj
 0002:00008cb0       __real_log10_e_lead        0000000180029cb0     libucrt:log10.obj
 0002:00008cc0       __real_log10_e_tail        0000000180029cc0     libucrt:log10.obj
 0002:00008cd0       __real_log10_2_lead        0000000180029cd0     libucrt:log10.obj
 0002:00008ce0       __real_log10_2_tail        0000000180029ce0     libucrt:log10.obj
 0002:00008cf0       __real_two                 0000000180029cf0     libucrt:log10.obj
 0002:00008d00       __real_one                 0000000180029d00     libucrt:log10.obj
 0002:00008d10       __real_half                0000000180029d10     libucrt:log10.obj
 0002:00008d20       __mask_100                 0000000180029d20     libucrt:log10.obj
 0002:00008d30       __real_1_over_512          0000000180029d30     libucrt:log10.obj
 0002:00008d40       __real_1_over_2            0000000180029d40     libucrt:log10.obj
 0002:00008d50       __real_1_over_3            0000000180029d50     libucrt:log10.obj
 0002:00008d60       __real_1_over_4            0000000180029d60     libucrt:log10.obj
 0002:00008d70       __real_1_over_5            0000000180029d70     libucrt:log10.obj
 0002:00008d80       __real_1_over_6            0000000180029d80     libucrt:log10.obj
 0002:00008d90       __real_neg_1023            0000000180029d90     libucrt:log10.obj
 0002:00008da0       __mask_2045                0000000180029da0     libucrt:log10.obj
 0002:00008db0       __real_threshold           0000000180029db0     libucrt:log10.obj
 0002:00008dc0       __real_near_one_lt         0000000180029dc0     libucrt:log10.obj
 0002:00008dd0       __real_near_one_gt         0000000180029dd0     libucrt:log10.obj
 0002:00008de0       __real_min_norm            0000000180029de0     libucrt:log10.obj
 0002:00008df0       __real_notsign             0000000180029df0     libucrt:log10.obj
 0002:00008e00       __real_ca1                 0000000180029e00     libucrt:log10.obj
 0002:00008e10       __real_ca2                 0000000180029e10     libucrt:log10.obj
 0002:00008e20       __real_ca3                 0000000180029e20     libucrt:log10.obj
 0002:00008e30       __real_ca4                 0000000180029e30     libucrt:log10.obj
 0002:00008e40       __mask_lower               0000000180029e40     libucrt:log10.obj
 0002:00008e50       __flag_x_zero              0000000180029e50     libucrt:log10.obj
 0002:00008e54       __flag_x_neg               0000000180029e54     libucrt:log10.obj
 0002:00008e58       __flag_x_nan               0000000180029e58     libucrt:log10.obj
 0002:0000a6a0       __real@433fffffffffffff    000000018002b6a0     libucrt:fpsr.obj
 0002:0000a6a8       __real@c33fffffffffffff    000000018002b6a8     libucrt:fpsr.obj
 0002:0000aee8       $unwind$_log10_special     000000018002bee8     libucrt:log_special.obj
 0002:0000aee8       $unwind$?cw_memcpy@@YAHPEA_WPEBDH@Z 000000018002bee8     CWString.obj
 0002:0000aee8       $unwind$?ProcessWindowMessage@?$CComControl@VCOPOSImageScanner@@V?$CWindowImpl@VCOPOSImageScanner@@VCWindow@ATL@@V?$CWinTraits@$0FGAAAAAA@$0A@@3@@ATL@@@ATL@@UEAAHPEAUHWND__@@I_K_JAEA_JK@Z 000000018002bee8     ImageScanner.obj
 0002:0000aee8       $unwind$_invalid_parameter_noinfo 000000018002bee8     libucrt:invalid_parameter.obj
 0002:0000aef0       $unwind$?GetAdvise@?$IViewObjectExImpl@VCOPOSImageScanner@@@ATL@@UEAAJPEAK0PEAPEAUIAdviseSink@@@Z 000000018002bef0     ImageScanner.obj
 0002:0000aef0       $unwind$_set_errno_from_matherr 000000018002bef0     libucrt:fpexcept.obj
 0002:0000aef0       $unwind$_purecall          000000018002bef0     libvcruntime:purevirt.obj
 0002:0000aef0       $unwind$?AtlThrowImpl@ATL@@YAXJ@Z 000000018002bef0     ImageScanner.obj
 0002:0000aef0       $unwind$_GetImageBase      000000018002bef0     libvcruntime:risctrnsctrl.obj
 0002:0000aef0       $unwind$?get_State@COPOSImageScanner@@UEAAJPEAJ@Z 000000018002bef0     ImageScannerImpl.obj
 0002:0000aef0       $unwind$?get_ResultCode@COPOSImageScanner@@UEAAJPEAJ@Z 000000018002bef0     ImageScannerImpl.obj
 0002:0000aef0       $unwind$?initialize_multibyte@@YAHXZ 000000018002bef0     libucrt:multibyte_initializer.obj
 0002:0000aef0       $unwind$??__E_AtlWinModule@ATL@@YAXXZ 000000018002bef0     OposVariant.obj
 0002:0000aef0       $unwind$?OnDocWindowActivate@?$IOleInPlaceActiveObjectImpl@VCOPOSImageScanner@@@ATL@@UEAAJH@Z 000000018002bef0     ImageScanner.obj
 0002:0000aef0       $unwind$??__F_AtlWinModule@ATL@@YAXXZ 000000018002bef0     OposVariant.obj
 0002:0000aef0       $unwind$?CreateInstance@CComClassFactory@ATL@@UEAAJPEAUIUnknown@@AEBU_GUID@@PEAPEAX@Z 000000018002bef0     ImageScanner.obj
 0002:0000aef0       $unwind$??1OposDispParms@@QEAA@XZ 000000018002bef0     OposVariant.obj
 0002:0000aef0       $unwind$_msize_base        000000018002bef0     libucrt:msize.obj
 0002:0000aef0       $unwind$_Init_thread_notify 000000018002bef0     LIBCMT:thread_safe_statics.obj
 0002:0000aef0       $unwind$??__E_AtlComModule@ATL@@YAXXZ 000000018002bef0     OposVariant.obj
 0002:0000aef0       $unwind$__FrameUnwindFilter 000000018002bef0     libvcruntime:ehhelpers.obj
 0002:0000aef0       $unwind$?LockServer@CComClassFactory@ATL@@UEAAJH@Z 000000018002bef0     ImageScanner.obj
 0002:0000aef0       $unwind$_GetThrowImageBase 000000018002bef0     libvcruntime:risctrnsctrl.obj
 0002:0000aef0       $unwind$__acrt_uninitialize_ptd 000000018002bef0     libucrt:per_thread_data.obj
 0002:0000aef0       $unwind$__scrt_dllmain_crt_thread_detach 000000018002bef0     LIBCMT:utility.obj
 0002:0000aef0       $unwind$?GetLONG@OposVariant@@QEAAJXZ 000000018002bef0     OposVariant.obj
 0002:0000aef0       $unwind$?AddReplacement@CRegObject@ATL@@UEAAJPEB_W0@Z 000000018002bef0     ImageScanner.obj
 0002:0000aef0       $unwind$__acrt_initialize_ptd 000000018002bef0     libucrt:per_thread_data.obj
 0002:0000aef0       $unwind$_get_osfhandle     000000018002bef0     libucrt:osfinfo.obj
 0002:0000aef0       $unwind$_statfp            000000018002bef0     libucrt:fpctrl.obj
 0002:0000aef0       $unwind$__acrt_update_thread_multibyte_data 000000018002bef0     libucrt:mbctype.obj
 0002:0000aef0       $unwind$__vcrt_freefls     000000018002bef0     libvcruntime:per_thread_data.obj
 0002:0000aef0       $unwind$__acrt_initialize_multibyte 000000018002bef0     libucrt:mbctype.obj
 0002:0000aef0       $unwind$__dcrt_terminate_console_output 000000018002bef0     libucrt:initcon.obj
 0002:0000aef0       $unwind$?AtlHresultFromLastError@ATL@@YAJXZ 000000018002bef0     ImageScanner.obj
 0002:0000aef0       $unwind$__vcrt_getptd      000000018002bef0     libvcruntime:per_thread_data.obj
 0002:0000aef0       $unwind$__std_terminate    000000018002bef0     libvcruntime:ehhelpers.obj
 0002:0000aef0       $unwind$__scrt_dllmain_crt_thread_attach 000000018002bef0     LIBCMT:utility.obj
 0002:0000aef0       $unwind$??__F_Module@@YAXXZ 000000018002bef0     ImageScanner.obj
 0002:0000aef0       $unwind$__scrt_dllmain_uninitialize_critical 000000018002bef0     LIBCMT:utility.obj
 0002:0000aef0       $unwind$_isatty            000000018002bef0     libucrt:isatty.obj
 0002:0000aef0       $unwind$__vcrt_uninitialize_ptd 000000018002bef0     libvcruntime:per_thread_data.obj
 0002:0000aef0       $unwind$__GSHandlerCheck   000000018002bef0     LIBCMT:_gshandler_.obj
 0002:0000aef0       $unwind$??__E?pConnMap@?$IConnectionPointContainerImpl@VCOPOSImageScanner@@@ATL@@0PEBU_ATL_CONNMAP_ENTRY@2@EB@@YAXXZ 000000018002bef0     ImageScanner.obj
 0002:0000aef0       $unwind$_invoke_watson     000000018002bef0     libucrt:invalid_parameter.obj
 0002:0000aef0       $unwind$??$uninitialize_environment_internal@_W@@YAXAEAPEAPEA_W@Z 000000018002bef0     libucrt:environment_initialization.obj
 0002:0000aef0       $unwind$__vcrt_initialize_ptd 000000018002bef0     libvcruntime:per_thread_data.obj
 0002:0000aef0       $unwind$_fileno            000000018002bef0     libucrt:fileno.obj
 0002:0000aef0       $unwind$??__E_AtlBaseModule@ATL@@YAXXZ 000000018002bef0     atls:atlbase.obj
 0002:0000aef0       $unwind$abort              000000018002bef0     libucrt:abort.obj
 0002:0000aef0       $unwind$_errno             000000018002bef0     libucrt:errno.obj
 0002:0000aef0       $unwind$__doserrno         000000018002bef0     libucrt:errno.obj
 0002:0000aef0       $unwind$atexit             000000018002bef0     LIBCMT:utility.obj
 0002:0000aef0       $unwind$__scrt_acquire_startup_lock 000000018002bef0     LIBCMT:utility.obj
 0002:0000aef0       $unwind$?_LocCPQueryInterface@?$IConnectionPointImpl@VCOPOSImageScanner@@$1?DIID__IOPOSImageScannerEvents@@3U_GUID@@BVCComDynamicUnkArray@ATL@@@ATL@@UEAAJAEBU_GUID@@PEAPEAX@Z 000000018002bef0     ImageScanner.obj
 0002:0000aef0       $unwind$?GetCurrentState@__FrameHandler3@@SAHPEA_KPEAU_xDISPATCHER_CONTEXT@@PEBU_s_FuncInfo@@@Z 000000018002bef0     libvcruntime:ehstate.obj
 0002:0000aef0       $unwind$__acrt_DownlevelLocaleNameToLCID 000000018002bef0     libucrt:lcidtoname_downlevel.obj
 0002:0000aef0       $unwind$?_LocCPQueryInterface@?$IConnectionPointImpl@VCOPOSImageScanner@@$1?IID_IPropertyNotifySink@@3U_GUID@@BVCComDynamicUnkArray@ATL@@@ATL@@UEAAJAEBU_GUID@@PEAPEAX@Z 000000018002bef0     ImageScanner.obj
 0002:0000aef0       $unwind$uninitialize_allocated_memory 000000018002bef0     libucrt:initialization.obj
 0002:0000aef0       $unwind$__scrt_dllmain_before_initialize_c 000000018002bef0     LIBCMT:utility.obj
 0002:0000aef0       $unwind$__acrt_initialize_command_line 000000018002bef0     libucrt:argv_data.obj
 0002:0000aef0       $unwind$?FireViewChange@CComControlBase@ATL@@QEAAJXZ 000000018002bef0     ImageScanner.obj
 0002:0000aef0       $unwind$?DefaultReflectionHandler@?$CWindowImplRoot@VCWindow@ATL@@@ATL@@SAHPEAUHWND__@@I_K_JAEA_J@Z 000000018002bef0     ImageScanner.obj
 0002:0000aef0       $unwind$??$uninitialize_environment_internal@D@@YAXAEAPEAPEAD@Z 000000018002bef0     libucrt:environment_initialization.obj
 0002:0000aef0       $unwind$uninitialize_environment 000000018002bef0     libucrt:initialization.obj
 0002:0000aef0       $unwind$__acrt_initialize_heap 000000018002bef0     libucrt:heap_handle.obj
 0002:0000aef0       $unwind$__scrt_dllmain_after_initialize_c 000000018002bef0     LIBCMT:utility.obj
 0002:0000aef0       $unwind$?dllmain_crt_dispatch@@YAHQEAUHINSTANCE__@@KQEAX@Z 000000018002bef0     LIBCMT:dll_dllmain.obj
 0002:0000aef0       $unwind$_getfpstatusword   000000018002bef0     libucrt:_fenvutils.obj
 0002:0000aef0       $unwind$__report_rangecheckfailure 000000018002bef0     LIBCMT:gs_report.obj
 0002:0000aef0       $unwind$initialize_c       000000018002bef0     libucrt:initialization.obj
 0002:0000aef0       $unwind$__dcrt_uninitialize_environments_nolock 000000018002bef0     libucrt:environment_initialization.obj
 0002:0000aef0       $unwind$?cw_strcpy@@YAHPEA_WPEBD@Z 000000018002bef0     CWString.obj
 0002:0000aef0       $unwind$?EnumAdvise@?$IOleObjectImpl@VCOPOSImageScanner@@@ATL@@UEAAJPEAPEAUIEnumSTATDATA@@@Z 000000018002bef0     ImageScanner.obj
 0002:0000aef0       $unwind$__vcrt_initialize  000000018002bef0     libvcruntime:initialization.obj
 0002:0000aef0       $unwind$__vcrt_uninitialize 000000018002bef0     libvcruntime:initialization.obj
 0002:0000aef0       $unwind$_getfpcontrolword  000000018002bef0     libucrt:_fenvutils.obj
 0002:0000aef0       $unwind$__vcrt_thread_detach 000000018002bef0     libvcruntime:initialization.obj
 0002:0000aef0       $unwind$__vcrt_uninitialize_critical 000000018002bef0     libvcruntime:initialization.obj
 0002:0000aef0       $unwind$__acrt_release_locale_ref 000000018002bef0     libucrt:locale_refcounting.obj
 0002:0000aef0       $unwind$?Unadvise@?$IOleObjectImpl@VCOPOSImageScanner@@@ATL@@UEAAJK@Z 000000018002bef0     ImageScanner.obj
 0002:0000aef0       $unwind$__acrt_thread_detach 000000018002bef0     libucrt:initialization.obj
 0002:0000aef0       $unwind$__vcrt_thread_attach 000000018002bef0     libvcruntime:initialization.obj
 0002:0000aef0       $unwind$tolower            000000018002bef0     libucrt:tolower_toupper.obj
 0002:0000aef0       $unwind$__scrt_dllmain_uninitialize_c 000000018002bef0     LIBCMT:utility.obj
 0002:0000aef0       $unwind$__pctype_func      000000018002bef0     libucrt:ctype.obj
 0002:0000aef0       $unwind$?FinalConstruct@COPOSImageScanner@@QEAAJXZ 000000018002bef0     ImageScannerImpl.obj
 0002:0000aef0       $unwind$__acrt_thread_attach 000000018002bef0     libucrt:initialization.obj
 0002:0000aef0       $unwind$?state_case_size@?$output_processor@_WV?$string_output_adapter@_W@__crt_stdio_output@@V?$format_validation_base@_WV?$string_output_adapter@_W@__crt_stdio_output@@@2@@__crt_stdio_output@@AEAA_NXZ 000000018002bef0     libucrt:output.obj
 0002:0000aef0       $unwind$__scrt_initialize_default_local_stdio_options 000000018002bef0     LIBCMT:default_local_stdio_options.obj
 0002:0000aef0       $unwind$__acrt_uninitialize_critical 000000018002bef0     libucrt:initialization.obj
 0002:0000aef0       $unwind$?__scrt_uninitialize_thread_safe_statics@@YAXXZ 000000018002bef0     LIBCMT:thread_safe_statics.obj
 0002:0000aef8       $unwind$?AtlComModuleRegisterServer@ATL@@YAJPEAU_ATL_COM_MODULE70@1@HPEBU_GUID@@@Z 000000018002bef8     ImageScanner.obj
 0002:0000aef8       $unwind$?AtlComModuleUnregisterServer@ATL@@YAJPEAU_ATL_COM_MODULE70@1@HPEBU_GUID@@@Z 000000018002bef8     ImageScanner.obj
 0002:0000aef8       $unwind$?AtlModuleAddTermFunc@ATL@@YAJPEAU_ATL_MODULE70@1@P6AX_K@Z1@Z 000000018002bef8     ImageScanner.obj
 0002:0000aef8       $unwind$?GetPagesHelper@?$ISpecifyPropertyPagesImpl@VCOPOSImageScanner@@@ATL@@IEAAJPEAUtagCAUUID@@PEBUATL_PROPMAP_ENTRY@2@@Z 000000018002bef8     ImageScanner.obj
 0002:0000aef8       $unwind$?cw_dup@@YAXPEBDAEAHAEAPEA_W1@Z 000000018002bef8     CWString.obj
 0002:0000aef8       $unwind$??$TypeMatchHelper@$$CBU_s_HandlerType@@@@YAHPEBU_s_HandlerType@@PEBU_s_CatchableType@@PEBU_s_ThrowInfo@@@Z 000000018002bef8     libvcruntime:frame.obj
 0002:0000aef8       $unwind$?CreateInstance@?$CComCreator@V?$CComAggObject@VCOPOSImageScanner@@@ATL@@@ATL@@SAJPEAXAEBU_GUID@@PEAPEAX@Z 000000018002bef8     ImageScanner.obj
 0002:0000aef8       $unwind$?process@?$output_processor@_WV?$string_output_adapter@_W@__crt_stdio_output@@V?$format_validation_base@_WV?$string_output_adapter@_W@__crt_stdio_output@@@2@@__crt_stdio_output@@QEAAHXZ 000000018002bef8     libucrt:output.obj
 0002:0000aef8       $unwind$??_Estringdispid@CComTypeInfoHolder@ATL@@QEAAPEAXI@Z 000000018002bef8     OposVariant.obj
 0002:0000aef8       $unwind$__GSHandlerCheck_SEH 000000018002bef8     LIBCMT:_gshandlerseh_.obj
 0002:0000aef8       $unwind$__acrt_initialize_stdio 000000018002bef8     libucrt:_file.obj
 0002:0000af10       $unwind$__acrt_AppPolicyGetProcessTerminationMethodInternal 000000018002bf10     libucrt:winapi_thunks.obj
 0002:0000af10       $unwind$__acrt_update_locale_info 000000018002bf10     libucrt:locale_update.obj
 0002:0000af10       $unwind$__acrt_update_multibyte_info 000000018002bf10     libucrt:locale_update.obj
 0002:0000af10       $unwind$__raise_securityfailure 000000018002bf10     LIBCMT:gs_report.obj
 0002:0000af10       $unwind$?get_DeviceEnabled@COPOSImageScanner@@UEAAJPEAF@Z 000000018002bf10     ImageScannerImpl.obj
 0002:0000af10       $unwind$__acrt_allocate_buffer_for_argv 000000018002bf10     libucrt:argv_parsing.obj
 0002:0000af10       $unwind$?get_DataEventEnabled@COPOSImageScanner@@UEAAJPEAF@Z 000000018002bf10     ImageScannerImpl.obj
 0002:0000af10       $unwind$_clearfp           000000018002bf10     libucrt:ieee.obj
 0002:0000af10       $unwind$?StateFromIp@__FrameHandler3@@SAHPEBU_s_FuncInfo@@PEAU_xDISPATCHER_CONTEXT@@_K@Z 000000018002bf10     libvcruntime:ehstate.obj
 0002:0000af10       $unwind$__acrt_uninitialize_stdio 000000018002bf10     libucrt:_file.obj
 0002:0000af10       $unwind$__acrt_FlsGetValue 000000018002bf10     libucrt:winapi_thunks.obj
 0002:0000af10       $unwind$__acrt_SetThreadStackGuarantee 000000018002bf10     libucrt:winapi_thunks.obj
 0002:0000af10       $unwind$__acrt_FlsFree     000000018002bf10     libucrt:winapi_thunks.obj
 0002:0000af10       $unwind$__std_exception_destroy 000000018002bf10     libvcruntime:std_exception.obj
 0002:0000af10       $unwind$__acrt_FlsAlloc    000000018002bf10     libucrt:winapi_thunks.obj
 0002:0000af10       $unwind$?exit_or_terminate_process@@YAXI@Z 000000018002bf10     libucrt:exit.obj
 0002:0000af10       $unwind$__acrt_uninitialize_winapi_thunks 000000018002bf10     libucrt:winapi_thunks.obj
 0002:0000af10       $unwind$??1?$CComObject@VCOPOSImageScanner@@@ATL@@UEAA@XZ 000000018002bf10     ImageScanner.obj
 0002:0000af10       $unwind$??0?$CComObject@VCOPOSImageScanner@@@ATL@@QEAA@PEAX@Z 000000018002bf10     ImageScanner.obj
 0002:0000af10       $unwind$_IsExceptionObjectToBeDestroyed 000000018002bf10     libvcruntime:ehhelpers.obj
 0002:0000af10       $unwind$?try_cor_exit_process@@YAXI@Z 000000018002bf10     libucrt:exit.obj
 0002:0000af10       $unwind$__acrt_initialize_locks 000000018002bf10     libucrt:locks.obj
 0002:0000af10       $unwind$?get_FreezeEvents@COPOSImageScanner@@UEAAJPEAF@Z 000000018002bf10     ImageScannerImpl.obj
 0002:0000af10       $unwind$__acrt_uninitialize_locks 000000018002bf10     libucrt:locks.obj
 0002:0000af10       $unwind$feholdexcept       000000018002bf10     libucrt:feholdexcept.obj
 0002:0000af10       $unwind$?get_Claimed@COPOSImageScanner@@UEAAJPEAF@Z 000000018002bf10     ImageScannerImpl.obj
 0002:0000af10       $unwind$_malloc_base       000000018002bf10     libucrt:malloc_base.obj
 0002:0000af10       $unwind$?AllocateHeap@?$CTempBuffer@_W$0EAA@VCCRTAllocator@ATL@@@ATL@@AEAAX_K@Z 000000018002bf10     ImageScanner.obj
 0002:0000af10       $unwind$_calloc_base       000000018002bf10     libucrt:calloc_base.obj
 0002:0000af10       $unwind$fesetenv           000000018002bf10     libucrt:fesetenv.obj
 0002:0000af10       $unwind$?QueryInterface@?$CComAggObject@VCOPOSImageScanner@@@ATL@@UEAAJAEBU_GUID@@PEAPEAX@Z 000000018002bf10     ImageScanner.obj
 0002:0000af10       $unwind$?AllocateHeap@?$CTempBuffer@_W$0BAA@VCCRTAllocator@ATL@@@ATL@@AEAAX_K@Z 000000018002bf10     ImageScanner.obj
 0002:0000af10       $unwind$__acrt_get_process_end_policy 000000018002bf10     libucrt:win_policies.obj
 0002:0000af10       $unwind$?put_FreezeEvents@COPOSImageScanner@@UEAAJF@Z 000000018002bf10     ImageScannerImpl.obj
 0002:0000af10       $unwind$?Release@?$CComObjectCached@VCComClassFactory@ATL@@@ATL@@UEAAKXZ 000000018002bf10     ImageScanner.obj
 0002:0000af10       $unwind$?AllocateHeap@?$CTempBuffer@E$0BAA@VCCRTAllocator@ATL@@@ATL@@AEAAX_K@Z 000000018002bf10     ImageScanner.obj
 0002:0000af10       $unwind$?ExecutionInCatch@__FrameHandler3@@SA_NPEAU_xDISPATCHER_CONTEXT@@PEBU_s_FuncInfo@@@Z 000000018002bf10     libvcruntime:risctrnsctrl.obj
 0002:0000af10       $unwind$fegetenv           000000018002bf10     libucrt:fegetenv.obj
 0002:0000af10       $unwind$?AddRef@?$CComObjectCached@VCComClassFactory@ATL@@@ATL@@UEAAKXZ 000000018002bf10     ImageScanner.obj
 0002:0000af10       $unwind$?IsEqualObject@?$CComPtrBase@UITypeInfo@@@ATL@@QEAA_NPEAUIUnknown@@@Z 000000018002bf10     ImageScanner.obj
 0002:0000af10       $unwind$?get_CapStatisticsReporting@COPOSImageScanner@@UEAAJPEAF@Z 000000018002bf10     ImageScannerImpl.obj
 0002:0000af10       $unwind$__vcrt_FlsGetValue 000000018002bf10     libvcruntime:winapi_downlevel.obj
 0002:0000af10       $unwind$_SetImageBase      000000018002bf10     libvcruntime:risctrnsctrl.obj
 0002:0000af10       $unwind$_Init_thread_wait  000000018002bf10     LIBCMT:thread_safe_statics.obj
 0002:0000af10       $unwind$?get_CapUpdateStatistics@COPOSImageScanner@@UEAAJPEAF@Z 000000018002bf10     ImageScannerImpl.obj
 0002:0000af10       $unwind$?get_CapCompareFirmwareVersion@COPOSImageScanner@@UEAAJPEAF@Z 000000018002bf10     ImageScannerImpl.obj
 0002:0000af10       $unwind$__vcrt_FlsFree     000000018002bf10     libvcruntime:winapi_downlevel.obj
 0002:0000af10       $unwind$_Init_thread_footer 000000018002bf10     LIBCMT:thread_safe_statics.obj
 0002:0000af10       $unwind$??0bad_exception@std@@QEAA@AEBV01@@Z 000000018002bf10     libvcruntime:frame.obj
 0002:0000af10       $unwind$?GetUnwindTryBlock@__FrameHandler3@@SAHPEA_KPEAU_xDISPATCHER_CONTEXT@@PEBU_s_FuncInfo@@@Z 000000018002bf10     libvcruntime:ehstate.obj
 0002:0000af10       $unwind$_Init_thread_header 000000018002bf10     LIBCMT:thread_safe_statics.obj
 0002:0000af10       $unwind$?ExFilterRethrow@@YAHPEAU_EXCEPTION_POINTERS@@PEAUEHExceptionRecord@@PEAH@Z 000000018002bf10     libvcruntime:frame.obj
 0002:0000af10       $unwind$__vcrt_FlsAlloc    000000018002bf10     libvcruntime:winapi_downlevel.obj
 0002:0000af10       $unwind$?GetClientSite@?$IOleObjectImpl@VCOPOSImageScanner@@@ATL@@UEAAJPEAPEAUIOleClientSite@@@Z 000000018002bf10     ImageScanner.obj
 0002:0000af10       $unwind$__acrt_freeptd     000000018002bf10     libucrt:per_thread_data.obj
 0002:0000af10       $unwind$?get_CapAim@COPOSImageScanner@@UEAAJPEAF@Z 000000018002bf10     ImageScannerImpl.obj
 0002:0000af10       $unwind$?get_CapDecodeData@COPOSImageScanner@@UEAAJPEAF@Z 000000018002bf10     ImageScannerImpl.obj
 0002:0000af10       $unwind$_clrfp             000000018002bf10     libucrt:fpctrl.obj
 0002:0000af10       $unwind$__acrt_getptd_head 000000018002bf10     libucrt:per_thread_data.obj
 0002:0000af10       $unwind$_SetThrowImageBase 000000018002bf10     libvcruntime:risctrnsctrl.obj
 0002:0000af10       $unwind$?IsEqualObject@?$CComPtrBase@UIOleClientSite@@@ATL@@QEAA_NPEAUIUnknown@@@Z 000000018002bf10     ImageScanner.obj
 0002:0000af10       $unwind$_setfpstatusword   000000018002bf10     libucrt:_fenvutils.obj
 0002:0000af10       $unwind$?get_AutoDisable@COPOSImageScanner@@UEAAJPEAF@Z 000000018002bf10     ImageScannerImpl.obj
 0002:0000af10       $unwind$?Load@?$IPersistStreamInitImpl@VCOPOSImageScanner@@@ATL@@UEAAJPEAUIStream@@@Z 000000018002bf10     ImageScanner.obj
 0002:0000af10       $unwind$?get_CapHostTriggered@COPOSImageScanner@@UEAAJPEAF@Z 000000018002bf10     ImageScannerImpl.obj
 0002:0000af10       $unwind$_CreateFrameInfo   000000018002bf10     libvcruntime:risctrnsctrl.obj
 0002:0000af10       $unwind$__vcrt_uninitialize_locks 000000018002bf10     libvcruntime:locks.obj
 0002:0000af10       $unwind$?QueryHitPoint@?$IViewObjectExImpl@VCOPOSImageScanner@@@ATL@@UEAAJKPEBUtagRECT@@UtagPOINT@@JPEAK@Z 000000018002bf10     ImageScanner.obj
 0002:0000af10       $unwind$AtlThunk_AllocateData 000000018002bf10     atls:atlthunk.obj
 0002:0000af10       $unwind$__vcrt_initialize_locks 000000018002bf10     libvcruntime:locks.obj
 0002:0000af10       $unwind$_set_statfp        000000018002bf10     libucrt:fpctrl.obj
 0002:0000af10       $unwind$?get_CapIlluminate@COPOSImageScanner@@UEAAJPEAF@Z 000000018002bf10     ImageScannerImpl.obj
 0002:0000af10       $unwind$__vcrt_freeptd     000000018002bf10     libvcruntime:per_thread_data.obj
 0002:0000af10       $unwind$?get_CapImageData@COPOSImageScanner@@UEAAJPEAF@Z 000000018002bf10     ImageScannerImpl.obj
 0002:0000af10       $unwind$?get_CapImageQuality@COPOSImageScanner@@UEAAJPEAF@Z 000000018002bf10     ImageScannerImpl.obj
 0002:0000af10       $unwind$?get_CapVideoData@COPOSImageScanner@@UEAAJPEAF@Z 000000018002bf10     ImageScannerImpl.obj
 0002:0000af10       $unwind$?get_AimMode@COPOSImageScanner@@UEAAJPEAF@Z 000000018002bf10     ImageScannerImpl.obj
 0002:0000af10       $unwind$??__E_Module@@YAXXZ 000000018002bf10     ImageScanner.obj
 0002:0000af10       $unwind$?get_IlluminateMode@COPOSImageScanner@@UEAAJPEAF@Z 000000018002bf10     ImageScannerImpl.obj
 0002:0000af10       $unwind$__std_type_info_destroy_list 000000018002bf10     libvcruntime:std_type_info.obj
 0002:0000af10       $unwind$__acrt_stdio_free_buffer_nolock 000000018002bf10     libucrt:_freebuf.obj
 0002:0000af10       $unwind$strcpy_s           000000018002bf10     libucrt:strcpy_s.obj
 0002:0000af10       $unwind$_fflush_nolock     000000018002bf10     libucrt:fflush.obj
 0002:0000af10       $unwind$??1CAtlBaseModule@ATL@@QEAA@XZ 000000018002bf10     atls:atlbase.obj
 0002:0000af10       $unwind$__acrt_fp_strflt_to_string 000000018002bf10     libucrt:_fptostr.obj
 0002:0000af10       $unwind$_onexit            000000018002bf10     LIBCMT:utility.obj
 0002:0000af10       $unwind$?GetTypeInfo@?$IDispatchImpl@UIOPOSImageScanner@@$1?IID_IOPOSImageScanner@@3U_GUID@@B$1?LIBID_OposImageScanner_CCO@@3U3@B$00$0A@VCComTypeInfoHolder@ATL@@@ATL@@UEAAJIKPEAPEAUITypeInfo@@@Z 000000018002bf10     ImageScanner.obj
 0002:0000af10       $unwind$?GetConnMap@COPOSImageScanner@@SAPEBU_ATL_CONNMAP_ENTRY@ATL@@PEAH@Z 000000018002bf10     ImageScanner.obj
 0002:0000af10       $unwind$?Unadvise@?$IConnectionPointImpl@VCOPOSImageScanner@@$1?DIID__IOPOSImageScannerEvents@@3U_GUID@@BVCComDynamicUnkArray@ATL@@@ATL@@UEAAJK@Z 000000018002bf10     ImageScanner.obj
 0002:0000af10       $unwind$__scrt_release_startup_lock 000000018002bf10     LIBCMT:utility.obj
 0002:0000af10       $unwind$__scrt_initialize_crt 000000018002bf10     LIBCMT:utility.obj
 0002:0000af10       $unwind$??_Gtype_info@@UEAAPEAXI@Z 000000018002bf10     LIBCMT:std_type_info_static.obj
 0002:0000af10       $unwind$_callnewh          000000018002bf10     libucrt:new_handler.obj
 0002:0000af10       $unwind$?Unadvise@?$IConnectionPointImpl@VCOPOSImageScanner@@$1?IID_IPropertyNotifySink@@3U_GUID@@BVCComDynamicUnkArray@ATL@@@ATL@@UEAAJK@Z 000000018002bf10     ImageScanner.obj
 0002:0000af10       $unwind$__scrt_uninitialize_crt 000000018002bf10     LIBCMT:utility.obj
 0002:0000af10       $unwind$wcscat_s           000000018002bf10     libucrt:wcscat_s.obj
 0002:0000af10       $unwind$?AtlCreateTargetDC@ATL@@YAPEAUHDC__@@PEAU2@PEAUtagDVTARGETDEVICE@@@Z 000000018002bf10     ImageScanner.obj
 0002:0000af10       $unwind$?DupWide@_CW@@AEAAXXZ 000000018002bf10     CWString.obj
 0002:0000af10       $unwind$?GetClassInfoW@?$IProvideClassInfo2Impl@$1?CLSID_OPOSImageScanner@@3U_GUID@@B$1?DIID__IOPOSImageScannerEvents@@3U2@B$1?LIBID_OposImageScanner_CCO@@3U2@B$00$0A@VCComTypeInfoHolder@ATL@@@ATL@@UEAAJPEAPEAUITypeInfo@@@Z 000000018002bf10     ImageScanner.obj
 0002:0000af10       $unwind$??1CComControlBase@ATL@@UEAA@XZ 000000018002bf10     ImageScannerImpl.obj
 0002:0000af10       $unwind$?SOProcessID@COPOSImageScanner@@UEAAJPEAJ@Z 000000018002bf10     ImageScannerImpl.obj
 0002:0000af10       $unwind$wcscpy_s           000000018002bf10     libucrt:wcscpy_s.obj
 0002:0000af10       $unwind$?type_case_integer@?$output_processor@_WV?$string_output_adapter@_W@__crt_stdio_output@@V?$format_validation_base@_WV?$string_output_adapter@_W@__crt_stdio_output@@@2@@__crt_stdio_output@@AEAA_NI_N@Z 000000018002bf10     libucrt:output.obj
 0002:0000af10       $unwind$initialize_pointers 000000018002bf10     libucrt:initialization.obj
 0002:0000af10       $unwind$??0bad_array_new_length@std@@QEAA@AEBV01@@Z 000000018002bf10     LIBCMT:throw_bad_alloc.obj
 0002:0000af10       $unwind$?EventUninit@COPOSImageScanner@@IEAAXXZ 000000018002bf10     ImageScannerImpl.obj
 0002:0000af10       $unwind$??0bad_alloc@std@@QEAA@AEBV01@@Z 000000018002bf10     LIBCMT:throw_bad_alloc.obj
 0002:0000af10       $unwind$?FreezeEvents@COPOSImageScanner@@MEAAJH@Z 000000018002bf10     ImageScannerImpl.obj
 0002:0000af10       $unwind$?IOleObject_SetExtent@CComControlBase@ATL@@QEAAJKPEAUtagSIZE@@@Z 000000018002bf10     ImageScanner.obj
 0002:0000af10       $unwind$?get_CapUpdateFirmware@COPOSImageScanner@@UEAAJPEAF@Z 000000018002bf10     ImageScannerImpl.obj
 0002:0000af10       $unwind$??0exception@std@@QEAA@AEBV01@@Z 000000018002bf10     LIBCMT:throw_bad_alloc.obj
 0002:0000af10       $unwind$??1COPOSImageScanner@@UEAA@XZ 000000018002bf10     ImageScannerImpl.obj
 0002:0000af10       $unwind$?IPSI_GetIPersistStreamInit@?$IPersistStorageImpl@VCOPOSImageScanner@@@ATL@@AEAAPEAUIPersistStreamInit@@XZ 000000018002bf10     ImageScanner.obj
 0002:0000af10       $unwind$??2@YAPEAX_K@Z     000000018002bf10     LIBCMT:new_scalar.obj
 0002:0000af10       $unwind$?IOleInPlaceObject_InPlaceDeactivate@CComControlBase@ATL@@QEAAJXZ 000000018002bf10     ImageScanner.obj
 0002:0000af18       $unwind$_recalloc_base     000000018002bf18     libucrt:recalloc.obj
 0002:0000af18       $unwind$?AtlWinModuleExtractCreateWndData@ATL@@YAPEAXPEAU_ATL_WIN_MODULE70@1@@Z 000000018002bf18     ImageScanner.obj
 0002:0000af18       $unwind$__acrt_free_locale 000000018002bf18     libucrt:locale_refcounting.obj
 0002:0000af18       $unwind$??$uninitialize@V<lambda_af42a3ee9806e9a7305d451646e05244>@@@?$dual_state_global@PEAU__crt_multibyte_data@@@__crt_state_management@@QEAAX$$QEAV<lambda_af42a3ee9806e9a7305d451646e05244>@@@Z 000000018002bf18     libucrt:initialization.obj
 0002:0000af18       $unwind$__scrt_dllmain_exception_filter 000000018002bf18     LIBCMT:utility.obj
 0002:0000af18       $unwind$_initterm          000000018002bf18     libucrt:initterm.obj
 0002:0000af18       $unwind$_seh_filter_exe    000000018002bf18     libucrt:exception_filter.obj
 0002:0000af18       $unwind$?Add@CComDynamicUnkArray@ATL@@QEAAKPEAUIUnknown@@@Z 000000018002bf18     ImageScanner.obj
 0002:0000af18       $unwind$?SODirectIO@COPOSImageScanner@@MEAAJJPEAJPEAPEA_W@Z 000000018002bf18     ImageScanner.obj
 0002:0000af18       $unwind$?setSBCS@@YAXPEAU__crt_multibyte_data@@@Z 000000018002bf18     libucrt:mbctype.obj
 0002:0000af18       $unwind$?DoEvent@COPOSImageScanner@@IEAAXI_K_J@Z 000000018002bf18     ImageScanner.obj
 0002:0000af18       $unwind$?AtlWinModuleTerm@ATL@@YAJPEAU_ATL_WIN_MODULE70@1@PEAUHINSTANCE__@@@Z 000000018002bf18     OposVariant.obj
 0002:0000af18       $unwind$?SetControlFocus@CComControlBase@ATL@@QEAAHH@Z 000000018002bf18     ImageScanner.obj
 0002:0000af18       $unwind$__acrt_lowio_create_handle_array 000000018002bf18     libucrt:osfinfo.obj
 0002:0000af18       $unwind$?Is_bad_exception_allowed@@YAEPEBU_s_ESTypeList@@@Z 000000018002bf18     libvcruntime:frame.obj
 0002:0000af18       $unwind$?DoVerb@?$IOleObjectImpl@VCOPOSImageScanner@@@ATL@@UEAAJJPEAUtagMSG@@PEAUIOleClientSite@@JPEAUHWND__@@PEBUtagRECT@@@Z 000000018002bf18     ImageScanner.obj
 0002:0000af18       $unwind$?CreateInstance@?$CComCreator@V?$CComObject@VCOPOSImageScanner@@@ATL@@@ATL@@SAJPEAXAEBU_GUID@@PEAPEAX@Z 000000018002bf18     ImageScanner.obj
 0002:0000af18       $unwind$?GetHandlerSearchState@__FrameHandler3@@SAHPEA_KPEAU_xDISPATCHER_CONTEXT@@PEBU_s_FuncInfo@@@Z 000000018002bf18     libvcruntime:frame.obj
 0002:0000af18       $unwind$?s_EventWindowProc@COPOSImageScanner@@KA_JPEAUHWND__@@I_K_J@Z 000000018002bf18     ImageScannerImpl.obj
 0002:0000af18       $unwind$?Next@?$CComEnumImpl@UIEnumConnections@@$1?_GUID_b196b287_bab4_101a_b69c_00aa00341d07@@3U__s_GUID@@BUtagCONNECTDATA@@V?$_Copy@UtagCONNECTDATA@@@ATL@@@ATL@@UEAAJKPEAUtagCONNECTDATA@@PEAK@Z 000000018002bf18     ImageScanner.obj
 0002:0000af18       $unwind$?HKeyFromString@CRegParser@ATL@@KAPEAUHKEY__@@PEA_W@Z 000000018002bf18     ImageScanner.obj
 0002:0000af18       $unwind$?Next@?$CComEnumImpl@UIEnumConnectionPoints@@$1?_GUID_b196b285_bab4_101a_b69c_00aa00341d07@@3U__s_GUID@@BPEAUIConnectionPoint@@V?$_CopyInterface@UIConnectionPoint@@@ATL@@@ATL@@UEAAJKPEAPEAUIConnectionPoint@@PEAK@Z 000000018002bf18     ImageScanner.obj
 0002:0000af18       $unwind$?Append@CParseBuffer@CRegParser@ATL@@QEAAHPEB_WH@Z 000000018002bf18     ImageScanner.obj
 0002:0000af18       $unwind$??$ensure_buffer_is_big_enough@D@formatting_buffer@__crt_stdio_output@@QEAA_N_K@Z 000000018002bf18     libucrt:output.obj
 0002:0000af2c       $unwind$?CreateInstance@?$CComObject@V?$CComEnum@UIEnumConnectionPoints@@$1?_GUID_b196b285_bab4_101a_b69c_00aa00341d07@@3U__s_GUID@@BPEAUIConnectionPoint@@V?$_CopyInterface@UIConnectionPoint@@@ATL@@VCComSingleThreadModel@6@@ATL@@@ATL@@SAJPEAPEAV12@@Z 000000018002bf2c     ImageScanner.obj
 0002:0000af2c       $unwind$??0CAtlWinModule@ATL@@QEAA@XZ 000000018002bf2c     OposVariant.obj
 0002:0000af2c       $unwind$?SetAdvise@?$IViewObjectExImpl@VCOPOSImageScanner@@@ATL@@UEAAJKKPEAUIAdviseSink@@@Z 000000018002bf2c     ImageScanner.obj
 0002:0000af2c       $unwind$__vcrt_FlsSetValue 000000018002bf2c     libvcruntime:winapi_downlevel.obj
 0002:0000af2c       $unwind$??_G?$CComObject@V?$CComEnum@UIEnumConnectionPoints@@$1?_GUID_b196b285_bab4_101a_b69c_00aa00341d07@@3U__s_GUID@@BPEAUIConnectionPoint@@V?$_CopyInterface@UIConnectionPoint@@@ATL@@VCComSingleThreadModel@6@@ATL@@@ATL@@UEAAPEAXI@Z 000000018002bf2c     ImageScanner.obj
 0002:0000af2c       $unwind$_close_nolock      000000018002bf2c     libucrt:close.obj
 0002:0000af2c       $unwind$??_G?$CComObjectCached@VCComClassFactory@ATL@@@ATL@@UEAAPEAXI@Z 000000018002bf2c     ImageScanner.obj
 0002:0000af2c       $unwind$?Release@?$CComAggObject@VCOPOSImageScanner@@@ATL@@UEAAKXZ 000000018002bf2c     ImageScanner.obj
 0002:0000af2c       $unwind$_realloc_base      000000018002bf2c     libucrt:realloc_base.obj
 0002:0000af2c       $unwind$??0?$CComContainedObject@VCOPOSImageScanner@@@ATL@@QEAA@PEAX@Z 000000018002bf2c     ImageScanner.obj
 0002:0000af2c       $unwind$??_G?$CComContainedObject@VCOPOSImageScanner@@@ATL@@UEAAPEAXI@Z 000000018002bf2c     ImageScanner.obj
 0002:0000af2c       $unwind$?Release@?$CComObject@V?$CComEnum@UIEnumConnectionPoints@@$1?_GUID_b196b285_bab4_101a_b69c_00aa00341d07@@3U__s_GUID@@BPEAUIConnectionPoint@@V?$_CopyInterface@UIConnectionPoint@@@ATL@@VCComSingleThreadModel@6@@ATL@@@ATL@@UEAAKXZ 000000018002bf2c     ImageScanner.obj
 0002:0000af2c       $unwind$__acrt_FlsSetValue 000000018002bf2c     libucrt:winapi_thunks.obj
 0002:0000af2c       $unwind$??_G?$CComAggObject@VCOPOSImageScanner@@@ATL@@UEAAPEAXI@Z 000000018002bf2c     ImageScanner.obj
 0002:0000af2c       $unwind$?SetVARIANT_BOOL@OposVariant@@QEAAXF@Z 000000018002bf2c     OposVariant.obj
 0002:0000af2c       $unwind$?Release@?$CComObject@VCOPOSImageScanner@@@ATL@@UEAAKXZ 000000018002bf2c     ImageScanner.obj
 0002:0000af2c       $unwind$??_G?$CComObject@VCOPOSImageScanner@@@ATL@@UEAAPEAXI@Z 000000018002bf2c     ImageScanner.obj
 0002:0000af2c       $unwind$??1?$CComEnumImpl@UIEnumConnections@@$1?_GUID_b196b287_bab4_101a_b69c_00aa00341d07@@3U__s_GUID@@BUtagCONNECTDATA@@V?$_Copy@UtagCONNECTDATA@@@ATL@@@ATL@@UEAA@XZ 000000018002bf2c     ImageScanner.obj
 0002:0000af2c       $unwind$??$common_initialize_environment_nolock@D@@YAHXZ 000000018002bf2c     libucrt:environment_initialization.obj
 0002:0000af2c       $unwind$__acrt_LocaleNameToLCID 000000018002bf2c     libucrt:winapi_thunks.obj
 0002:0000af2c       $unwind$??1?$CComEnumImpl@UIEnumConnectionPoints@@$1?_GUID_b196b285_bab4_101a_b69c_00aa00341d07@@3U__s_GUID@@BPEAUIConnectionPoint@@V?$_CopyInterface@UIConnectionPoint@@@ATL@@@ATL@@UEAA@XZ 000000018002bf2c     ImageScanner.obj
 0002:0000af2c       $unwind$__acrt_getptd_noexit 000000018002bf2c     libucrt:per_thread_data.obj
 0002:0000af2c       $unwind$?SetLONG@OposVariant@@QEAAXJ@Z 000000018002bf2c     OposVariant.obj
 0002:0000af2c       $unwind$?SetUnwindTryBlock@__FrameHandler3@@SAXPEA_KPEAU_xDISPATCHER_CONTEXT@@PEBU_s_FuncInfo@@H@Z 000000018002bf2c     libvcruntime:ehstate.obj
 0002:0000af2c       $unwind$?internal_isupper_l@@YA_NHQEAU__crt_locale_pointers@@@Z 000000018002bf2c     libucrt:tolower_toupper.obj
 0002:0000af2c       $unwind$?Release@?$CComObject@V?$CComEnum@UIEnumConnections@@$1?_GUID_b196b287_bab4_101a_b69c_00aa00341d07@@3U__s_GUID@@BUtagCONNECTDATA@@V?$_Copy@UtagCONNECTDATA@@@ATL@@VCComSingleThreadModel@6@@ATL@@@ATL@@UEAAKXZ 000000018002bf2c     ImageScanner.obj
 0002:0000af2c       $unwind$?CreateInstance@?$CComObject@V?$CComEnum@UIEnumConnections@@$1?_GUID_b196b287_bab4_101a_b69c_00aa00341d07@@3U__s_GUID@@BUtagCONNECTDATA@@V?$_Copy@UtagCONNECTDATA@@@ATL@@VCComSingleThreadModel@6@@ATL@@@ATL@@SAJPEAPEAV12@@Z 000000018002bf2c     ImageScanner.obj
 0002:0000af2c       $unwind$??_G?$CComObject@V?$CComEnum@UIEnumConnections@@$1?_GUID_b196b287_bab4_101a_b69c_00aa00341d07@@3U__s_GUID@@BUtagCONNECTDATA@@V?$_Copy@UtagCONNECTDATA@@@ATL@@VCComSingleThreadModel@6@@ATL@@@ATL@@UEAAPEAXI@Z 000000018002bf2c     ImageScanner.obj
 0002:0000af2c       $unwind$?SetBSTR@OposVariant@@QEAAXPEA_WAEAJ@Z 000000018002bf2c     OposVariant.obj
 0002:0000af2c       $unwind$_fclose_nolock     000000018002bf2c     libucrt:fclose.obj
 0002:0000af2c       $unwind$??1?$IConnectionPointImpl@VCOPOSImageScanner@@$1?IID_IPropertyNotifySink@@3U_GUID@@BVCComDynamicUnkArray@ATL@@@ATL@@QEAA@XZ 000000018002bf2c     ImageScannerImpl.obj
 0002:0000af2c       $unwind$??1?$IConnectionPointImpl@VCOPOSImageScanner@@$1?DIID__IOPOSImageScannerEvents@@3U_GUID@@BVCComDynamicUnkArray@ATL@@@ATL@@QEAA@XZ 000000018002bf2c     ImageScannerImpl.obj
 0002:0000af2c       $unwind$??_GCComClassFactory@ATL@@UEAAPEAXI@Z 000000018002bf2c     ImageScanner.obj
 0002:0000af2c       $unwind$__acrt_getptd      000000018002bf2c     libucrt:per_thread_data.obj
 0002:0000af2c       $unwind$??0CAtlComModule@ATL@@QEAA@XZ 000000018002bf2c     OposVariant.obj
 0002:0000af2c       $unwind$strncpy_s          000000018002bf2c     libucrt:strncpy_s.obj
 0002:0000af2c       $unwind$??_Gbad_exception@std@@UEAAPEAXI@Z 000000018002bf2c     libvcruntime:frame.obj
 0002:0000af2c       $unwind$DllMain            000000018002bf2c     ImageScanner.obj
 0002:0000af2c       $unwind$??$GetProcAddressAll@P6AXPEAUAtlThunkData_t@@@Z@@YAP6AXPEAUAtlThunkData_t@@@ZPEAP6AX0@Z@Z 000000018002bf2c     atls:atlthunk.obj
 0002:0000af2c       $unwind$??$GetProcAddressAll@P6AXPEAUAtlThunkData_t@@PEAX_K@Z@@YAP6AXPEAUAtlThunkData_t@@PEAX_K@ZPEAP6AX012@Z@Z 000000018002bf2c     atls:atlthunk.obj
 0002:0000af2c       $unwind$_FindAndUnlinkFrame 000000018002bf2c     libvcruntime:risctrnsctrl.obj
 0002:0000af2c       $unwind$??$GetProcAddressAll@P6APEAUAtlThunkData_t@@XZ@@YAP6APEAUAtlThunkData_t@@XZPEAP6APEAU0@XZ@Z 000000018002bf2c     atls:atlthunk.obj
 0002:0000af2c       $unwind$?InitNew@?$IPersistStorageImpl@VCOPOSImageScanner@@@ATL@@UEAAJPEAUIStorage@@@Z 000000018002bf2c     ImageScanner.obj
 0002:0000af2c       $unwind$??$GetProcAddressAll@P6AP6A_JPEAUHWND__@@I_K_J@ZPEAUAtlThunkData_t@@@Z@@YAP6AP6A_JPEAUHWND__@@I_K_J@ZPEAUAtlThunkData_t@@@ZPEAP6AP6A_J0I12@Z3@Z@Z 000000018002bf2c     atls:atlthunk.obj
 0002:0000af2c       $unwind$?__AllocStdCallThunk_cmn@@YAPEAXXZ 000000018002bf2c     atls:atlthunk.obj
 0002:0000af2c       $unwind$?__InitializeThunkPool@@YAHXZ 000000018002bf2c     atls:atlthunk.obj
 0002:0000af2c       $unwind$AtlThunk_DataToCode 000000018002bf2c     atls:atlthunk.obj
 0002:0000af2c       $unwind$?WriteToStream@CComBSTR@ATL@@QEAAJPEAUIStream@@@Z 000000018002bf2c     ImageScanner.obj
 0002:0000af2c       $unwind$??0CAtlBaseModule@ATL@@QEAA@XZ 000000018002bf2c     atls:atlbase.obj
 0002:0000af2c       $unwind$?Term@CComModule@ATL@@QEAAXXZ 000000018002bf2c     ImageScanner.obj
 0002:0000af2c       $unwind$__acrt_errno_map_os_error 000000018002bf2c     libucrt:errno.obj
 0002:0000af2c       $unwind$__acrt_uninitialize_lowio 000000018002bf2c     libucrt:ioinit.obj
 0002:0000af2c       $unwind$_updatetlocinfoEx_nolock 000000018002bf2c     libucrt:locale_refcounting.obj
 0002:0000af2c       $unwind$??0CAtlModule@ATL@@QEAA@XZ 000000018002bf2c     ImageScanner.obj
 0002:0000af2c       $unwind$wcsncpy_s          000000018002bf2c     libucrt:wcsncpy_s.obj
 0002:0000af2c       $unwind$?SOStatusUpdate@COPOSImageScanner@@MEAAJJ@Z 000000018002bf2c     ImageScanner.obj
 0002:0000af2c       $unwind$??0_LocaleUpdate@@QEAA@QEAU__crt_locale_pointers@@@Z 000000018002bf2c     libucrt:output.obj
 0002:0000af2c       $unwind$?force_decimal_point@__crt_stdio_output@@YAXPEADQEAU__crt_locale_pointers@@@Z 000000018002bf2c     libucrt:output.obj
 0002:0000af2c       $unwind$??_Gbad_array_new_length@std@@UEAAPEAXI@Z 000000018002bf2c     LIBCMT:throw_bad_alloc.obj
 0002:0000af2c       $unwind$_initterm_e        000000018002bf2c     libucrt:initterm.obj
 0002:0000af2c       $unwind$?SOData@COPOSImageScanner@@MEAAJJ@Z 000000018002bf2c     ImageScanner.obj
 0002:0000af2c       $unwind$?IsDirty@?$IPersistStorageImpl@VCOPOSImageScanner@@@ATL@@UEAAJXZ 000000018002bf2c     ImageScanner.obj
 0002:0000af2c       $unwind$??_Gbad_alloc@std@@UEAAPEAXI@Z 000000018002bf2c     LIBCMT:throw_bad_alloc.obj
 0002:0000af2c       $unwind$??_Gexception@std@@UEAAPEAXI@Z 000000018002bf2c     LIBCMT:throw_bad_alloc.obj
 0002:0000af2c       $unwind$?replace_current_thread_locale_nolock@@YAXQEAU__acrt_ptd@@QEAU__crt_locale_data@@@Z 000000018002bf2c     libucrt:per_thread_data.obj
 0002:0000af2c       $unwind$_RTC_Terminate     000000018002bf2c     LIBCMT:_initsect_.obj
 0002:0000af2c       $unwind$?IOleObject_SetClientSite@CComControlBase@ATL@@QEAAJPEAUIOleClientSite@@@Z 000000018002bf2c     ImageScanner.obj
 0002:0000af2c       $unwind$_RTC_Initialize    000000018002bf2c     LIBCMT:_initsect_.obj
 0002:0000af2c       $unwind$__acrt_execute_uninitializers 000000018002bf2c     libucrt:shared_initialization.obj
 0002:0000af38       $unwind$?AtlCallTermFunc@ATL@@YAXPEAU_ATL_MODULE70@1@@Z 000000018002bf38     ImageScanner.obj
 0002:0000af38       $unwind$_exception_enabled 000000018002bf38     libucrt:libm_error.obj
 0002:0000af38       $unwind$__acrt_execute_initializers 000000018002bf38     libucrt:shared_initialization.obj
 0002:0000af38       $unwind$_DllMainCRTStartup 000000018002bf38     LIBCMT:dll_dllmain.obj
 0002:0000af38       $unwind$?type_case_s@?$output_processor@_WV?$string_output_adapter@_W@__crt_stdio_output@@V?$format_validation_base@_WV?$string_output_adapter@_W@__crt_stdio_output@@@2@@__crt_stdio_output@@AEAA_NXZ 000000018002bf38     libucrt:output.obj
 0002:0000af38       $unwind$__acrt_InitializeCriticalSectionEx 000000018002bf38     libucrt:winapi_thunks.obj
 0002:0000af38       $unwind$?type_case_Z@?$output_processor@_WV?$string_output_adapter@_W@__crt_stdio_output@@V?$format_validation_base@_WV?$string_output_adapter@_W@__crt_stdio_output@@@2@@__crt_stdio_output@@AEAA_NXZ 000000018002bf38     libucrt:output.obj
 0002:0000af38       $unwind$?SetLONG_Ptr@OposVariant@@QEAAXPEAJAEAJ@Z 000000018002bf38     OposVariant.obj
 0002:0000af38       $unwind$?SetBSTR_Copy@OposVariant@@QEAAXPEA_WAEAJ@Z 000000018002bf38     OposVariant.obj
 0002:0000af38       $unwind$?ClearReplacements@CExpansionVector@ATL@@QEAAJXZ 000000018002bf38     ImageScanner.obj
 0002:0000af38       $unwind$??_GCRegObject@ATL@@UEAAPEAXI@Z 000000018002bf38     ImageScanner.obj
 0002:0000af38       $unwind$?type_case_n@?$output_processor@_WV?$string_output_adapter@_W@__crt_stdio_output@@V?$format_validation_base@_WV?$string_output_adapter@_W@__crt_stdio_output@@@2@@__crt_stdio_output@@AEAA_NXZ 000000018002bf38     libucrt:output.obj
 0002:0000af38       $unwind$??$common_lseek_nolock@_J@@YA_JH_JH@Z 000000018002bf38     libucrt:lseek.obj
 0002:0000af38       $unwind$?SetBSTR_InOutPtr@OposVariant@@QEAA_NPEAPEA_WAEAJ@Z 000000018002bf38     OposVariant.obj
 0002:0000af38       $unwind$?SetString@OposVariant@@QEAAXPEB_WAEAJ@Z 000000018002bf38     OposVariant.obj
 0002:0000af38       $unwind$?SetDispatch_Ptr@OposVariant@@QEAAXPEAUIDispatch@@AEAJ@Z 000000018002bf38     OposVariant.obj
 0002:0000af38       $unwind$?Advise@?$IOleObjectImpl@VCOPOSImageScanner@@@ATL@@UEAAJPEAUIAdviseSink@@PEAK@Z 000000018002bf38     ImageScanner.obj
 0002:0000af38       $unwind$??0OposDispParms@@QEAA@PEAVOposVariant@@H@Z 000000018002bf38     OposVariant.obj
 0002:0000af38       $unwind$?CatchTryBlock@__FrameHandler3@@SAPEBU_s_TryBlockMapEntry@@PEBU_s_FuncInfo@@H@Z 000000018002bf38     libvcruntime:risctrnsctrl.obj
 0002:0000af38       $unwind$memcpy_s           000000018002bf38     ImageScanner.obj
 0002:0000af38       $unwind$?Add@?$CSimpleMap@PEA_WPEA_WVCExpansionVectorEqualHelper@ATL@@@ATL@@QEAAHAEBQEA_W0@Z 000000018002bf38     ImageScanner.obj
 0002:0000af38       $unwind$?FrameUnwindToEmptyState@__FrameHandler3@@SAXPEA_KPEAU_xDISPATCHER_CONTEXT@@PEBU_s_FuncInfo@@@Z 000000018002bf38     libvcruntime:risctrnsctrl.obj
 0002:0000af38       $unwind$__vcrt_InitializeCriticalSectionEx 000000018002bf38     libvcruntime:winapi_downlevel.obj
 0002:0000af38       $unwind$??_GCComModule@ATL@@UEAAPEAXI@Z 000000018002bf38     ImageScanner.obj
 0002:0000af38       $unwind$__vcrt_getptd_noexit 000000018002bf38     libvcruntime:per_thread_data.obj
 0002:0000af38       $unwind$?UnregisterServer@CComModule@ATL@@QEAAJHPEBU_GUID@@@Z 000000018002bf38     ImageScanner.obj
 0002:0000af38       $unwind$?RegisterServer@CComModule@ATL@@QEAAJHPEBU_GUID@@@Z 000000018002bf38     ImageScanner.obj
 0002:0000af38       $unwind$?free_crt_array_internal@@YAXQEAPEBX_K@Z 000000018002bf38     libucrt:inittime.obj
 0002:0000af38       $unwind$?VTFromRegType@CRegParser@ATL@@KAHPEB_WAEAG@Z 000000018002bf38     ImageScanner.obj
 0002:0000af38       $unwind$__acrt_stdio_flush_nolock 000000018002bf38     libucrt:fflush.obj
 0002:0000af38       $unwind$?Term@CAtlComModule@ATL@@QEAAXXZ 000000018002bf38     OposVariant.obj
 0002:0000af38       $unwind$memcpy_s           000000018002bf38     libucrt:cfout.obj
 0002:0000af38       $unwind$?Add@?$CSimpleArray@GV?$CSimpleArrayEqualHelper@G@ATL@@@ATL@@QEAAHAEBG@Z 000000018002bf38     ImageScanner.obj
 0002:0000af48       $unwind$?x_ismbbtype_l@@YAHPEAU__crt_locale_pointers@@IHH@Z 000000018002bf48     libucrt:ismbbyte.obj
 0002:0000af48       $unwind$?ChangeLONG@OposVariant@@QEAAXPEAJAEAJ@Z 000000018002bf48     OposVariant.obj
 0002:0000af48       $unwind$?ChangeBSTR@OposVariant@@QEAAXPEAPEA_WAEAJ@Z 000000018002bf48     OposVariant.obj
 0002:0000af58       $unwind$swprintf_s         000000018002bf58     ImageScanner.obj
 0002:0000af68       $unwind$?_AtlVerifyStackAvailable@_ATL_SAFE_ALLOCA_IMPL@ATL@@YA_N_K@Z 000000018002bf68     ImageScanner.obj
 0002:0000af94       $unwind$?fin$0@?0???$?RV<lambda_638799b9deba96c50f710eeac98168cd>@@AEAV<lambda_22ebabd17bc4fa466a2aca6d8deb888d>@@V<lambda_a6f7d7db0129f75315ebf26d50c089f1>@@@?$__crt_seh_guarded_call@H@@QEAAH$$QEAV<lambda_638799b9deba96c50f710eeac98168cd>@@AEAV<lambda_22ebabd17bc4fa466a2aca6d8deb888d>@@$$QEAV<lambda_a6f7d7db0129f75315ebf26d50c089f1>@@@Z@4HA 000000018002bf94     libucrt:onexit.obj
 0002:0000af94       $unwind$?fin$0@?0??dllmain_crt_process_detach@@YAH_N@Z@4HA 000000018002bf94     LIBCMT:dll_dllmain.obj
 0002:0000af94       $unwind$raise$fin$0        000000018002bf94     libucrt:signal.obj
 0002:0000af94       $unwind$?fin$0@?0???$?RV<lambda_a37b2b86f63e897a80ea819b0eb08c01>@@AEAV<lambda_38ce7e780aa69e748d6df282ebc68efe>@@V<lambda_99fb1378e971ab6e7edea83e3a7a83a2>@@@?$__crt_seh_guarded_call@H@@QEAAH$$QEAV<lambda_a37b2b86f63e897a80ea819b0eb08c01>@@AEAV<lambda_38ce7e780aa69e748d6df282ebc68efe>@@$$QEAV<lambda_99fb1378e971ab6e7edea83e3a7a83a2>@@@Z@4HA 000000018002bf94     libucrt:commit.obj
 0002:0000af94       $unwind$_ctrlfp$filt$0     000000018002bf94     libucrt:fpctrl.obj
 0002:0000af94       $unwind$__DestructExceptionObject$filt$0 000000018002bf94     libvcruntime:ehhelpers.obj
 0002:0000af94       $unwind$fclose$fin$0       000000018002bf94     libucrt:fclose.obj
 0002:0000af94       $unwind$?fin$0@?0???$?RV<lambda_450d765d439847d4c735a33c368b5fc0>@@AEAV<lambda_44731a7d0e6d81c3e6aa82d741081786>@@V<lambda_601a2a7da3b7a96e9554ac7215c4b07c>@@@?$__crt_seh_guarded_call@P6AXH@Z@@QEAAP6AXH@Z$$QEAV<lambda_450d765d439847d4c735a33c368b5fc0>@@AEAV<lambda_44731a7d0e6d81c3e6aa82d741081786>@@$$QEAV<lambda_601a2a7da3b7a96e9554ac7215c4b07c>@@@Z@4HA 000000018002bf94     libucrt:signal.obj
 0002:0000af94       $unwind$?fin$0@?0??dllmain_crt_process_attach@@YAHQEAUHINSTANCE__@@QEAX@Z@4HA 000000018002bf94     LIBCMT:dll_dllmain.obj
 0002:0000af94       $unwind$__acrt_update_thread_locale_data$fin$0 000000018002bf94     libucrt:locale_refcounting.obj
 0002:0000af94       $unwind$?filt$0@?0??FrameUnwindToState@__FrameHandler3@@SAXPEA_KPEAU_xDISPATCHER_CONTEXT@@PEBU_s_FuncInfo@@H@Z@4HA 000000018002bf94     libvcruntime:frame.obj
 0002:0000af94       $unwind$_query_new_handler$fin$0 000000018002bf94     libucrt:new_handler.obj
 0002:0000af94       $unwind$?fin$1@?0??FrameUnwindToState@__FrameHandler3@@SAXPEA_KPEAU_xDISPATCHER_CONTEXT@@PEBU_s_FuncInfo@@H@Z@4HA 000000018002bf94     libvcruntime:frame.obj
 0002:0000af94       $unwind$_fcloseall$fin$0   000000018002bf94     libucrt:closeall.obj
 0002:0000af94       $unwind$_write$fin$0       000000018002bf94     libucrt:write.obj
 0002:0000af94       $unwind$?filt$0@?0??CxxCallCatchBlock@__FrameHandler3@@SAPEAXPEAU_EXCEPTION_RECORD@@@Z@4HA 000000018002bf94     libvcruntime:frame.obj
 0002:0000af94       $unwind$common_control87$filt$0 000000018002bf94     libucrt:ieee.obj
 0002:0000af94       $unwind$?fin$0@?0???$?RV<lambda_f2e299630e499de9f9a165e60fcd3db5>@@AEAV<lambda_2ae9d31cdba2644fcbeaf08da7c24588>@@V<lambda_40d01ff24d0e7b3814fdbdcee8eab3c7>@@@?$__crt_seh_guarded_call@X@@QEAAX$$QEAV<lambda_f2e299630e499de9f9a165e60fcd3db5>@@AEAV<lambda_2ae9d31cdba2644fcbeaf08da7c24588>@@$$QEAV<lambda_40d01ff24d0e7b3814fdbdcee8eab3c7>@@@Z@4HA 000000018002bf94     libucrt:per_thread_data.obj
 0002:0000af94       $unwind$?fin$0@?0???$?RV<lambda_efdfa57d1f175319df784efa44bb7b81>@@AEAV<lambda_5f0a4c1567f8adc6734073e5d1e1b35c>@@V<lambda_2e8a7d3640ea6ccb4c2413664c2db6fd>@@@?$__crt_seh_guarded_call@X@@QEAAX$$QEAV<lambda_efdfa57d1f175319df784efa44bb7b81>@@AEAV<lambda_5f0a4c1567f8adc6734073e5d1e1b35c>@@$$QEAV<lambda_2e8a7d3640ea6ccb4c2413664c2db6fd>@@@Z@4HA 000000018002bf94     libucrt:mbctype.obj
 0002:0000af94       $unwind$?fin$0@?0???$?RV<lambda_842d9ff0dc9ef11c61343bbaebe7f885>@@AEAV<lambda_c5860995281e5c4ce005b3de8f5874ee>@@V<lambda_d90129c13df834fdcbf8d2b88dafcf2d>@@@?$__crt_seh_guarded_call@X@@QEAAX$$QEAV<lambda_842d9ff0dc9ef11c61343bbaebe7f885>@@AEAV<lambda_c5860995281e5c4ce005b3de8f5874ee>@@$$QEAV<lambda_d90129c13df834fdcbf8d2b88dafcf2d>@@@Z@4HA 000000018002bf94     libucrt:fflush.obj
 0002:0000af94       $unwind$__acrt_lowio_ensure_fh_exists$fin$0 000000018002bf94     libucrt:osfinfo.obj
 0002:0000af94       $unwind$_IsNonwritableInCurrentImage$filt$0 000000018002bf94     LIBCMT:pesect.obj
 0002:0000af94       $unwind$?fin$0@?0???$?RV<lambda_2d41944a1d46af3157314b8a01080d33>@@AEAV<lambda_8f455de75cd7d7f24b4096f044d8b9e6>@@V<lambda_aa500f224e6afead328df44964fe2772>@@@?$__crt_seh_guarded_call@X@@QEAAX$$QEAV<lambda_2d41944a1d46af3157314b8a01080d33>@@AEAV<lambda_8f455de75cd7d7f24b4096f044d8b9e6>@@$$QEAV<lambda_aa500f224e6afead328df44964fe2772>@@@Z@4HA 000000018002bf94     libucrt:per_thread_data.obj
 0002:0000af94       $unwind$?fin$0@?0???$?RV<lambda_886d6c58226a84441f68b9f2b8217b83>@@AEAV<lambda_ab61a845afdef5b7c387490eaf3616ee>@@V<lambda_f7f22ab5edc0698d5f6905b0d3f44752>@@@?$__crt_seh_guarded_call@X@@QEAAX$$QEAV<lambda_886d6c58226a84441f68b9f2b8217b83>@@AEAV<lambda_ab61a845afdef5b7c387490eaf3616ee>@@$$QEAV<lambda_f7f22ab5edc0698d5f6905b0d3f44752>@@@Z@4HA 000000018002bf94     libucrt:fflush.obj
 0002:0000af94       $unwind$?fin$0@?0???$?RV<lambda_d80eeec6fff315bfe5c115232f3240e3>@@AEAV<lambda_6e4b09c48022b2350581041d5f6b0c4c>@@V<lambda_2358e3775559c9db80273638284d5e45>@@@?$__crt_seh_guarded_call@X@@QEAAX$$QEAV<lambda_d80eeec6fff315bfe5c115232f3240e3>@@AEAV<lambda_6e4b09c48022b2350581041d5f6b0c4c>@@$$QEAV<lambda_2358e3775559c9db80273638284d5e45>@@@Z@4HA 000000018002bf94     libucrt:exit.obj
 0002:0000af94       $unwind$__acrt_initialize_lowio$fin$0 000000018002bf94     libucrt:ioinit.obj
 0002:0000af94       $unwind$?fin$0@?0???$?RV<lambda_7777bce6b2f8c936911f934f8298dc43>@@AEAV<lambda_f03950bc5685219e0bcd2087efbe011e>@@V<lambda_3883c3dff614d5e0c5f61bb1ac94921c>@@@?$__crt_seh_guarded_call@H@@QEAAH$$QEAV<lambda_7777bce6b2f8c936911f934f8298dc43>@@AEAV<lambda_f03950bc5685219e0bcd2087efbe011e>@@$$QEAV<lambda_3883c3dff614d5e0c5f61bb1ac94921c>@@@Z@4HA 000000018002bf94     libucrt:onexit.obj
 0002:0000af94       $unwind$?fin$0@?0???$?RV<lambda_0ae27a3a962d80f24befdcbee591983d>@@AEAV<lambda_8d0ee55de4b1038c4002e0adecdf1839>@@V<lambda_dc504788e8f1664fe9b84e20bfb512f2>@@@?$__crt_seh_guarded_call@X@@QEAAX$$QEAV<lambda_0ae27a3a962d80f24befdcbee591983d>@@AEAV<lambda_8d0ee55de4b1038c4002e0adecdf1839>@@$$QEAV<lambda_dc504788e8f1664fe9b84e20bfb512f2>@@@Z@4HA 000000018002bf94     libucrt:per_thread_data.obj
 0002:0000af94       $unwind$?filt$0@?0???R<lambda_6e4b09c48022b2350581041d5f6b0c4c>@@QEBA@XZ@4HA 000000018002bf94     libucrt:exit.obj
 0002:0000af94       $unwind$?filt$0@?0??_AtlVerifyStackAvailable@_ATL_SAFE_ALLOCA_IMPL@ATL@@YA_N_K@Z@4HA 000000018002bf94     ImageScanner.obj
 0002:0000af94       $unwind$?fin$0@?0???$?RV<lambda_410d79af7f07d98d83a3f525b3859a53>@@AEAV<lambda_3e16ef9562a7dcce91392c22ab16ea36>@@V<lambda_38119f0e861e05405d8a144b9b982f0a>@@@?$__crt_seh_guarded_call@X@@QEAAX$$QEAV<lambda_410d79af7f07d98d83a3f525b3859a53>@@AEAV<lambda_3e16ef9562a7dcce91392c22ab16ea36>@@$$QEAV<lambda_38119f0e861e05405d8a144b9b982f0a>@@@Z@4HA 000000018002bf94     libucrt:wsetlocale.obj
 0002:0000af94       $unwind$?fin$0@?0???$?RV<lambda_751a882b2c74d4b022dec766aa51a29a>@@AEAV<lambda_628dfdc04ba53c8bfc02c9951375f3f5>@@V<lambda_f6c7be5f7998530c34de24c7437d6b54>@@@?$__crt_seh_guarded_call@H@@QEAAH$$QEAV<lambda_751a882b2c74d4b022dec766aa51a29a>@@AEAV<lambda_628dfdc04ba53c8bfc02c9951375f3f5>@@$$QEAV<lambda_f6c7be5f7998530c34de24c7437d6b54>@@@Z@4HA 000000018002bf94     libucrt:close.obj
 0002:0000af94       $unwind$?fin$0@?0??update_thread_multibyte_data_internal@@YAPEAU__crt_multibyte_data@@QEAU__acrt_ptd@@QEAU1@@Z@4HA 000000018002bf94     libucrt:mbctype.obj
 0002:0000af94       $unwind$?fin$0@?0???$?RV<lambda_aa87e3671a710a21b5dc78c0bdf72e11>@@AEAV<lambda_92619d2358a28f41a33ba319515a20b9>@@V<lambda_6992ecaafeb10aed2b74cb1fae11a551>@@@?$__crt_seh_guarded_call@X@@QEAAX$$QEAV<lambda_aa87e3671a710a21b5dc78c0bdf72e11>@@AEAV<lambda_92619d2358a28f41a33ba319515a20b9>@@$$QEAV<lambda_6992ecaafeb10aed2b74cb1fae11a551>@@@Z@4HA 000000018002bf94     libucrt:per_thread_data.obj
 0002:0000af9c       $unwind$?AtlInternalOleLoadFromStream@ATL@@YAJPEAUIStream@@AEBU_GUID@@PEAPEAXTClassesAllowedInStream@1@K@Z 000000018002bf9c     ImageScanner.obj
 0002:0000afb8       $unwind$?PutProperty@?$CComPtr@UIDispatch@@@ATL@@SAJPEAUIDispatch@@JPEAUtagVARIANT@@@Z 000000018002bfb8     ImageScanner.obj
 0002:0000afb8       $unwind$?Close@COPOSImageScanner@@UEAAJPEAJ@Z 000000018002bfb8     ImageScannerImpl.obj
 0002:0000afc4       $unwind$_configure_narrow_argv 000000018002bfc4     libucrt:argv_parsing.obj
 0002:0000afc4       $unwind$?ReadFromStream@CComBSTR@ATL@@QEAAJPEAUIStream@@@Z 000000018002bfc4     ImageScanner.obj
 0002:0000afd8       $unwind$?WriteToStream@CComVariant@ATL@@QEAAJPEAUIStream@@@Z 000000018002bfd8     ImageScanner.obj
 0002:0000afec       $unwind$?RegOpenKeyExW@CAtlTransactionManager@ATL@@QEAAJPEAUHKEY__@@PEB_WKKPEAPEAU3@@Z 000000018002bfec     ImageScanner.obj
 0002:0000afec       $unwind$?WriteToStream@CComVariant@ATL@@QEAAJPEAUIStream@@G@Z 000000018002bfec     ImageScanner.obj
 0002:0000b000       $unwind$?ReadFromStream@CComVariant@ATL@@QEAAJPEAUIStream@@GTClassesAllowedInStream@2@K@Z 000000018002c000     ImageScanner.obj
 0002:0000b018       $unwind$?GetSizeMax@CComVariant@ATL@@QEBAJPEAT_ULARGE_INTEGER@@@Z 000000018002c018     ImageScanner.obj
 0002:0000b030       $unwind$?RegCreateKeyExW@CAtlTransactionManager@ATL@@QEAAJPEAUHKEY__@@PEB_WKPEA_WKKQEAU_SECURITY_ATTRIBUTES@@PEAPEAU3@PEAK@Z 000000018002c030     ImageScanner.obj
 0002:0000b044       $unwind$?RegDeleteKeyW@CAtlTransactionManager@ATL@@QEAAJPEAUHKEY__@@PEB_W@Z 000000018002c044     ImageScanner.obj
 0002:0000b044       $unwind$?GetGITPtr@CAtlModule@ATL@@UEAAJPEAPEAUIGlobalInterfaceTable@@@Z 000000018002c044     ImageScanner.obj
 0002:0000b054       $unwind$?AtlHiMetricToPixel@ATL@@YAXPEBUtagSIZE@@PEAU2@@Z 000000018002c054     ImageScanner.obj
 0002:0000b054       $unwind$?AtlInternalQueryInterface@ATL@@YAJPEAXPEBU_ATL_INTMAP_ENTRY@1@AEBU_GUID@@PEAPEAX@Z 000000018002c054     ImageScanner.obj
 0002:0000b06c       $unwind$?Init@?$CComEnumImpl@UIEnumConnections@@$1?_GUID_b196b287_bab4_101a_b69c_00aa00341d07@@3U__s_GUID@@BUtagCONNECTDATA@@V?$_Copy@UtagCONNECTDATA@@@ATL@@@ATL@@QEAAJPEAUtagCONNECTDATA@@0PEAUIUnknown@@W4CComEnumFlags@2@@Z 000000018002c06c     ImageScanner.obj
 0002:0000b06c       $unwind$?GetClassObject@CComModule@ATL@@QEAAJAEBU_GUID@@0PEAPEAX@Z 000000018002c06c     ImageScanner.obj
 0002:0000b06c       $unwind$?CreateInstance@?$CComCreator@V?$CComObjectCached@VCComClassFactory@ATL@@@ATL@@@ATL@@SAJPEAXAEBU_GUID@@PEAPEAX@Z 000000018002c06c     ImageScanner.obj
 0002:0000b06c       $unwind$?NextToken@CRegParser@ATL@@IEAAJPEA_W@Z 000000018002c06c     ImageScanner.obj
 0002:0000b06c       $unwind$?Init@?$CComEnumImpl@UIEnumConnectionPoints@@$1?_GUID_b196b285_bab4_101a_b69c_00aa00341d07@@3U__s_GUID@@BPEAUIConnectionPoint@@V?$_CopyInterface@UIConnectionPoint@@@ATL@@@ATL@@QEAAJPEAPEAUIConnectionPoint@@0PEAUIUnknown@@W4CComEnumFlags@2@@Z 000000018002c06c     ImageScanner.obj
 0002:0000b06c       $unwind$?AtlComModuleGetClassObject@ATL@@YAJPEAU_ATL_COM_MODULE70@1@AEBU_GUID@@1PEAPEAX@Z 000000018002c06c     ImageScanner.obj
 0002:0000b084       $unwind$?AtlRegisterClassCategoriesHelper@ATL@@YAJAEBU_GUID@@PEBU_ATL_CATMAP_ENTRY@1@H@Z 000000018002c084     ImageScanner.obj
 0002:0000b0a8       $unwind$?AtlLoadTypeLib@ATL@@YAJPEAUHINSTANCE__@@PEB_WPEAPEA_WPEAPEAUITypeLib@@@Z 000000018002c0a8     ImageScanner.obj
 0002:0000b0c8       $unwind$?AtlRegisterTypeLib@ATL@@YAJPEAUHINSTANCE__@@PEB_W@Z 000000018002c0c8     ImageScanner.obj
 0002:0000b0e4       $unwind$?AtlUnRegisterTypeLib@ATL@@YAJPEAUHINSTANCE__@@PEB_W@Z 000000018002c0e4     ImageScanner.obj
 0002:0000b0ec       $unwind$?Create@CRegKey@ATL@@QEAAJPEAUHKEY__@@PEB_WPEA_WKKPEAU_SECURITY_ATTRIBUTES@@PEAK@Z 000000018002c0ec     ImageScanner.obj
 0002:0000b0f4       $unwind$?Open@CRegKey@ATL@@QEAAJPEAUHKEY__@@PEB_WK@Z 000000018002c0f4     ImageScanner.obj
 0002:0000b0fc       $unwind$?RecurseDeleteKey@CRegKey@ATL@@QEAAJPEB_W@Z 000000018002c0fc     ImageScanner.obj
 0002:0000b118       $unwind$?UpdateRegistryFromResource@CAtlModule@ATL@@QEAAJIHPEAU_ATL_REGMAP_ENTRY@2@@Z 000000018002c118     ImageScanner.obj
 0002:0000b118       $unwind$?UpdateRegistryFromResource@CAtlModule@ATL@@QEAAJPEB_WHPEAU_ATL_REGMAP_ENTRY@2@@Z 000000018002c118     ImageScanner.obj
 0002:0000b138       $unwind$__std_exception_copy 000000018002c138     libvcruntime:std_exception.obj
 0002:0000b138       $unwind$_free_osfhnd       000000018002c138     libucrt:osfinfo.obj
 0002:0000b138       $unwind$?initialize_stdio_handles_nolock@@YAXXZ 000000018002c138     libucrt:ioinit.obj
 0002:0000b138       $unwind$?Lookup@?$CSimpleMap@PEA_WPEA_WVCExpansionVectorEqualHelper@ATL@@@ATL@@QEBAPEA_WAEBQEA_W@Z 000000018002c138     ImageScanner.obj
 0002:0000b14c       $unwind$?Add@CExpansionVector@ATL@@QEAAHPEB_W0@Z 000000018002c14c     ImageScanner.obj
 0002:0000b164       $unwind$?PreProcessBuffer@CRegParser@ATL@@QEAAJPEA_WPEAPEA_W@Z 000000018002c164     ImageScanner.obj
 0002:0000b188       $unwind$?RegisterBuffer@CRegParser@ATL@@QEAAJPEA_WH@Z 000000018002c188     ImageScanner.obj
 0002:0000b1a8       $unwind$?AddValue@CRegParser@ATL@@IEAAJAEAVCRegKey@2@PEB_WPEA_W@Z 000000018002c1a8     ImageScanner.obj
 0002:0000b1c8       $unwind$?RegisterSubkeys@CRegParser@ATL@@IEAAJPEA_WPEAUHKEY__@@HH@Z 000000018002c1c8     ImageScanner.obj
 0002:0000b1e8       $unwind$?SkipAssignment@CRegParser@ATL@@IEAAJPEA_W@Z 000000018002c1e8     ImageScanner.obj
 0002:0000b200       $unwind$?RegisterFromResource@CRegObject@ATL@@IEAAJPEB_W00H@Z 000000018002c200     ImageScanner.obj
 0002:0000b220       $unwind$?AtlIPersistStreamInit_Load@ATL@@YAJPEAUIStream@@PEBUATL_PROPMAP_ENTRY@1@PEAXPEAUIUnknown@@@Z 000000018002c220     ImageScanner.obj
 0002:0000b238       $unwind$?AtlIPersistStreamInit_Save@ATL@@YAJPEAUIStream@@HPEBUATL_PROPMAP_ENTRY@1@PEAXPEAUIUnknown@@@Z 000000018002c238     ImageScanner.obj
 0002:0000b254       $unwind$?GetTI@CComTypeInfoHolder@ATL@@QEAAJK@Z 000000018002c254     ImageScanner.obj
 0002:0000b274       $unwind$AtlThunk_FreeData  000000018002c274     atls:atlthunk.obj
 0002:0000b274       $unwind$__acrt_locale_free_lc_time_if_unreferenced 000000018002c274     libucrt:locale_refcounting.obj
 0002:0000b274       $unwind$?Cleanup@CComTypeInfoHolder@ATL@@SAX_K@Z 000000018002c274     ImageScanner.obj
 0002:0000b274       $unwind$?destroy_fls@@YAXPEAX@Z 000000018002c274     libucrt:per_thread_data.obj
 0002:0000b274       $unwind$__acrt_locale_free_numeric 000000018002c274     libucrt:initnum.obj
 0002:0000b274       $unwind$_free_base         000000018002c274     libucrt:free_base.obj
 0002:0000b27c       $unwind$?GetIDsOfNames@CComTypeInfoHolder@ATL@@QEAAJAEBU_GUID@@PEAPEA_WIKPEAJ@Z 000000018002c27c     ImageScanner.obj
 0002:0000b298       $unwind$?LoadNameCache@CComTypeInfoHolder@ATL@@QEAAJPEAUITypeInfo@@@Z 000000018002c298     ImageScanner.obj
 0002:0000b2ac       $unwind$??$parse_command_line@D@@YAXPEADPEAPEAD0PEA_K2@Z 000000018002c2ac     libucrt:argv_parsing.obj
 0002:0000b2ac       $unwind$?StartWindowProc@?$CWindowImplBaseT@VCWindow@ATL@@V?$CWinTraits@$0FGAAAAAA@$0A@@2@@ATL@@SA_JPEAUHWND__@@I_K_J@Z 000000018002c2ac     ImageScanner.obj
 0002:0000b2ac       $unwind$??R<lambda_22ebabd17bc4fa466a2aca6d8deb888d>@@QEBAHXZ 000000018002c2ac     libucrt:onexit.obj
 0002:0000b2c8       $unwind$?WindowProc@?$CWindowImplBaseT@VCWindow@ATL@@V?$CWinTraits@$0FGAAAAAA@$0A@@2@@ATL@@SA_JPEAUHWND__@@I_K_J@Z 000000018002c2c8     ImageScanner.obj
 0002:0000b2e0       $unwind$?Create@?$CWindowImplBaseT@VCWindow@ATL@@V?$CWinTraits@$0FGAAAAAA@$0A@@2@@ATL@@QEAAPEAUHWND__@@PEAU3@V_U_RECT@2@PEB_WKKV_U_MENUorID@2@GPEAX@Z 000000018002c2e0     ImageScanner.obj
 0002:0000b2f8       $unwind$??$AtlModuleRegisterWndClassInfoT@VAtlModuleRegisterWndClassInfoParamW@ATL@@@ATL@@YAGPEAU_ATL_BASE_MODULE70@0@PEAU_ATL_WIN_MODULE70@0@PEAU_ATL_WNDCLASSINFOW@0@PEAP6A_JPEAUHWND__@@I_K_J@ZVAtlModuleRegisterWndClassInfoParamW@0@@Z 000000018002c2f8     ImageScanner.obj
 0002:0000b318       $unwind$?OnKillFocus@CComControlBase@ATL@@QEAA_JI_K_JAEAH@Z 000000018002c318     ImageScanner.obj
 0002:0000b318       $unwind$?GetZoomInfo@CComControlBase@ATL@@QEAAXAEAUATL_DRAWINFO@@@Z 000000018002c318     ImageScanner.obj
 0002:0000b318       $unwind$iswctype           000000018002c318     libucrt:iswctype.obj
 0002:0000b324       $unwind$?SendOnDataChange@CComControlBase@ATL@@QEAAJK@Z 000000018002c324     ImageScanner.obj
 0002:0000b334       $unwind$?OnSetFocus@CComControlBase@ATL@@QEAA_JI_K_JAEAH@Z 000000018002c334     ImageScanner.obj
 0002:0000b344       $unwind$?OnMouseActivate@CComControlBase@ATL@@QEAA_JI_K_JAEAH@Z 000000018002c344     ImageScanner.obj
 0002:0000b34c       $unwind$?GetAmbientLocaleID@CComControlBase@ATL@@QEAAJAEAK@Z 000000018002c34c     ImageScanner.obj
 0002:0000b35c       $unwind$?GetAmbientUserMode@CComControlBase@ATL@@QEAAJAEAH@Z 000000018002c35c     ImageScanner.obj
 0002:0000b370       $unwind$?IQuickActivate_QuickActivate@CComControlBase@ATL@@QEAAJPEAUtagQACONTAINER@@PEAUtagQACONTROL@@@Z 000000018002c370     ImageScanner.obj
 0002:0000b388       $unwind$?DoVerbProperties@CComControlBase@ATL@@QEAAJPEBUtagRECT@@PEAUHWND__@@@Z 000000018002c388     ImageScanner.obj
 0002:0000b3a0       $unwind$?InPlaceActivate@CComControlBase@ATL@@QEAAJJPEBUtagRECT@@@Z 000000018002c3a0     ImageScanner.obj
 0002:0000b3c0       $unwind$?type_case_c_tchar@?$output_processor@_WV?$string_output_adapter@_W@__crt_stdio_output@@V?$format_validation_base@_WV?$string_output_adapter@_W@__crt_stdio_output@@@2@@__crt_stdio_output@@AEAA_N_W@Z 000000018002c3c0     libucrt:output.obj
 0002:0000b3c0       $unwind$?IOleObject_Close@CComControlBase@ATL@@QEAAJK@Z 000000018002c3c0     ImageScanner.obj
 0002:0000b3d0       $unwind$?IOleInPlaceObject_UIDeactivate@CComControlBase@ATL@@QEAAJXZ 000000018002c3d0     ImageScanner.obj
 0002:0000b3e8       $unwind$?IOleInPlaceObject_SetObjectRects@CComControlBase@ATL@@QEAAJPEBUtagRECT@@0@Z 000000018002c3e8     ImageScanner.obj
 0002:0000b3fc       $unwind$?IViewObject_Draw@CComControlBase@ATL@@QEAAJKJPEAXPEAUtagDVTARGETDEVICE@@PEAUHDC__@@2PEBU_RECTL@@3@Z 000000018002c3fc     ImageScanner.obj
 0002:0000b418       $unwind$?IDataObject_GetData@CComControlBase@ATL@@QEAAJPEAUtagFORMATETC@@PEAUtagSTGMEDIUM@@@Z 000000018002c418     ImageScanner.obj
 0002:0000b438       $unwind$?OnPaint@CComControlBase@ATL@@QEAA_JI_K_JAEAH@Z 000000018002c438     ImageScanner.obj
 0002:0000b454       $unwind$?OnDrawAdvanced@CComControlBase@ATL@@UEAAJAEAUATL_DRAWINFO@@@Z 000000018002c454     ImageScanner.obj
 0002:0000b46c       $unwind$?Invoke@?$IDispatchImpl@UIOPOSImageScanner@@$1?IID_IOPOSImageScanner@@3U_GUID@@B$1?LIBID_OposImageScanner_CCO@@3U3@B$00$0A@VCComTypeInfoHolder@ATL@@@ATL@@UEAAJJAEBU_GUID@@KGPEAUtagDISPPARAMS@@PEAUtagVARIANT@@PEAUtagEXCEPINFO@@PEAI@Z 000000018002c46c     ImageScanner.obj
 0002:0000b46c       $unwind$_mbsdec_l          000000018002c46c     libucrt:mbsdec.obj
 0002:0000b46c       $unwind$?ReleaseDevice@COPOSImageScanner@@UEAAJPEAJ@Z 000000018002c46c     ImageScannerImpl.obj
 0002:0000b478       $unwind$__acrt_LCMapStringEx 000000018002c478     libucrt:winapi_thunks.obj
 0002:0000b478       $unwind$?Create@?$CWindowImpl@VCOPOSImageScanner@@VCWindow@ATL@@V?$CWinTraits@$0FGAAAAAA@$0A@@3@@ATL@@QEAAPEAUHWND__@@PEAU3@V_U_RECT@2@PEB_WKKV_U_MENUorID@2@PEAX@Z 000000018002c478     ImageScanner.obj
 0002:0000b478       $unwind$?fp_format_e@@YAHQEBNQEAD_K12H_NIQEAU__crt_locale_pointers@@@Z 000000018002c478     libucrt:cvt.obj
 0002:0000b48c       $unwind$?__scrt_throw_std_bad_array_new_length@@YAXXZ 000000018002c48c     LIBCMT:throw_bad_alloc.obj
 0002:0000b48c       $unwind$?ClearInputProperties@COPOSImageScanner@@UEAAJPEAJ@Z 000000018002c48c     ImageScannerImpl.obj
 0002:0000b48c       $unwind$?CreateControlWindow@?$CComControl@VCOPOSImageScanner@@V?$CWindowImpl@VCOPOSImageScanner@@VCWindow@ATL@@V?$CWinTraits@$0FGAAAAAA@$0A@@3@@ATL@@@ATL@@UEAAPEAUHWND__@@PEAU3@AEAUtagRECT@@@Z 000000018002c48c     ImageScanner.obj
 0002:0000b48c       $unwind$?StartSession@COPOSImageScanner@@UEAAJPEAJ@Z 000000018002c48c     ImageScannerImpl.obj
 0002:0000b48c       $unwind$?ClearInput@COPOSImageScanner@@UEAAJPEAJ@Z 000000018002c48c     ImageScannerImpl.obj
 0002:0000b48c       $unwind$?__scrt_throw_std_bad_alloc@@YAXXZ 000000018002c48c     LIBCMT:throw_bad_alloc.obj
 0002:0000b48c       $unwind$?StopSession@COPOSImageScanner@@UEAAJPEAJ@Z 000000018002c48c     ImageScannerImpl.obj
 0002:0000b48c       $unwind$__dcrt_lowio_initialize_console_output 000000018002c48c     libucrt:initcon.obj
 0002:0000b48c       $unwind$_raise_exc         000000018002c48c     libucrt:fpexcept.obj
 0002:0000b494       $unwind$__stdio_common_vswprintf_s 000000018002c494     libucrt:output.obj
 0002:0000b494       $unwind$?Save@?$IPersistStreamInitImpl@VCOPOSImageScanner@@@ATL@@UEAAJPEAUIStream@@H@Z 000000018002c494     ImageScanner.obj
 0002:0000b4a0       $unwind$?GetSizeMax@?$IPersistStreamInitImpl@VCOPOSImageScanner@@@ATL@@UEAAJPEAT_ULARGE_INTEGER@@@Z 000000018002c4a0     ImageScanner.obj
 0002:0000b4b8       $unwind$?DoVerbPrimary@?$IOleObjectImpl@VCOPOSImageScanner@@@ATL@@QEAAJPEBUtagRECT@@PEAUHWND__@@@Z 000000018002c4b8     ImageScanner.obj
 0002:0000b4d0       $unwind$?TranslateAcceleratorW@?$IOleInPlaceActiveObjectImpl@VCOPOSImageScanner@@@ATL@@UEAAJPEAUtagMSG@@@Z 000000018002c4d0     ImageScanner.obj
 0002:0000b4dc       $unwind$?Draw@?$IViewObjectExImpl@VCOPOSImageScanner@@@ATL@@UEAAJKJPEAXPEAUtagDVTARGETDEVICE@@PEAUHDC__@@2PEBU_RECTL@@3P6AH_K@Z4@Z 000000018002c4dc     ImageScanner.obj
 0002:0000b4e4       $unwind$?QueryHitRect@?$IViewObjectExImpl@VCOPOSImageScanner@@@ATL@@UEAAJKPEBUtagRECT@@0JPEAK@Z 000000018002c4e4     ImageScanner.obj
 0002:0000b4f4       $unwind$?OnWindowMessage@?$IOleInPlaceObjectWindowlessImpl@VCOPOSImageScanner@@@ATL@@UEAAJI_K_JPEA_J@Z 000000018002c4f4     ImageScanner.obj
 0002:0000b508       $unwind$?EnumConnectionPoints@?$IConnectionPointContainerImpl@VCOPOSImageScanner@@@ATL@@UEAAJPEAPEAUIEnumConnectionPoints@@@Z 000000018002c508     ImageScanner.obj
 0002:0000b530       $unwind$?FindConnectionPoint@?$IConnectionPointContainerImpl@VCOPOSImageScanner@@@ATL@@UEAAJAEBU_GUID@@PEAPEAUIConnectionPoint@@@Z 000000018002c530     ImageScanner.obj
 0002:0000b54c       $unwind$?Load@?$IPersistStorageImpl@VCOPOSImageScanner@@@ATL@@UEAAJPEAUIStorage@@@Z 000000018002c54c     ImageScanner.obj
 0002:0000b55c       $unwind$?Save@?$IPersistStorageImpl@VCOPOSImageScanner@@@ATL@@UEAAJPEAUIStorage@@H@Z 000000018002c55c     ImageScanner.obj
 0002:0000b570       $unwind$?DAdvise@?$IDataObjectImpl@VCOPOSImageScanner@@@ATL@@UEAAJPEAUtagFORMATETC@@KPEAUIAdviseSink@@PEAK@Z 000000018002c570     ImageScanner.obj
 0002:0000b588       $unwind$?GetInterfaceSafetyOptions@?$IObjectSafetyImpl@VCOPOSImageScanner@@$02@ATL@@UEAAJAEBU_GUID@@PEAK1@Z 000000018002c588     ImageScanner.obj
 0002:0000b59c       $unwind$?SetInterfaceSafetyOptions@?$IObjectSafetyImpl@VCOPOSImageScanner@@$02@ATL@@UEAAJAEBU_GUID@@KK@Z 000000018002c59c     ImageScanner.obj
 0002:0000b5b0       $unwind$?Advise@?$IConnectionPointImpl@VCOPOSImageScanner@@$1?DIID__IOPOSImageScannerEvents@@3U_GUID@@BVCComDynamicUnkArray@ATL@@@ATL@@UEAAJPEAUIUnknown@@PEAK@Z 000000018002c5b0     ImageScanner.obj
 0002:0000b5b0       $unwind$?Advise@?$IConnectionPointImpl@VCOPOSImageScanner@@$1?IID_IPropertyNotifySink@@3U_GUID@@BVCComDynamicUnkArray@ATL@@@ATL@@UEAAJPEAUIUnknown@@PEAK@Z 000000018002c5b0     ImageScanner.obj
 0002:0000b5c4       $unwind$??$create_environment@D@@YAQEAPEADQEAD@Z 000000018002c5c4     libucrt:environment_initialization.obj
 0002:0000b5c4       $unwind$?EnumConnections@?$IConnectionPointImpl@VCOPOSImageScanner@@$1?IID_IPropertyNotifySink@@3U_GUID@@BVCComDynamicUnkArray@ATL@@@ATL@@UEAAJPEAPEAUIEnumConnections@@@Z 000000018002c5c4     ImageScanner.obj
 0002:0000b5c4       $unwind$?EnumConnections@?$IConnectionPointImpl@VCOPOSImageScanner@@$1?DIID__IOPOSImageScannerEvents@@3U_GUID@@BVCComDynamicUnkArray@ATL@@@ATL@@UEAAJPEAPEAUIEnumConnections@@@Z 000000018002c5c4     ImageScanner.obj
 0002:0000b5dc       $unwind$_mbtowc_l          000000018002c5dc     libucrt:mbtowc.obj
 0002:0000b5dc       $unwind$??$__InternalCxxFrameHandler@V__FrameHandler3@@@@YA?AW4_EXCEPTION_DISPOSITION@@PEAUEHExceptionRecord@@PEA_KPEAU_CONTEXT@@PEAU_xDISPATCHER_CONTEXT@@PEBU_s_FuncInfo@@H1E@Z 000000018002c5dc     libvcruntime:frame.obj
 0002:0000b5dc       $unwind$?Fire_StatusUpdateEvent@?$CProxy_IOPOSEvents@VCOPOSImageScanner@@@@QEAAXJ@Z 000000018002c5dc     ImageScanner.obj
 0002:0000b5dc       $unwind$?Fire_DataEvent@?$CProxy_IOPOSEvents@VCOPOSImageScanner@@@@QEAAXJ@Z 000000018002c5dc     ImageScanner.obj
 0002:0000b5f4       $unwind$?Fire_DirectIOEvent@?$CProxy_IOPOSEvents@VCOPOSImageScanner@@@@QEAAXJPEAJPEAPEA_W@Z 000000018002c5f4     ImageScanner.obj
 0002:0000b614       $unwind$?Fire_ErrorEvent@?$CProxy_IOPOSEvents@VCOPOSImageScanner@@@@QEAAXJJJPEAJ@Z 000000018002c614     ImageScanner.obj
 0002:0000b634       $unwind$?FireTheEvent@?$CProxy_IOPOSEvents@VCOPOSImageScanner@@@@IEAAXPEAVOposVariant@@IAEAJPEB_WJ@Z 000000018002c634     ImageScanner.obj
 0002:0000b644       $unwind$__dcrt_get_narrow_environment_from_os 000000018002c644     libucrt:get_environment_from_os.obj
 0002:0000b644       $unwind$?fp_format_f_internal@@YAHQEAD_KHQEAU_strflt@@_NQEAU__crt_locale_pointers@@@Z 000000018002c644     libucrt:cvt.obj
 0002:0000b644       $unwind$?ProcessWindowMessage@COPOSImageScanner@@UEAAHPEAUHWND__@@I_K_JAEA_JK@Z 000000018002c644     ImageScanner.obj
 0002:0000b65c       $unwind$_invalid_parameter 000000018002c65c     libucrt:invalid_parameter.obj
 0002:0000b65c       $unwind$?SOError@COPOSImageScanner@@MEAAJJJJPEAJ@Z 000000018002c65c     ImageScanner.obj
 0002:0000b670       $unwind$?Clone@?$CComEnumImpl@UIEnumConnections@@$1?_GUID_b196b287_bab4_101a_b69c_00aa00341d07@@3U__s_GUID@@BUtagCONNECTDATA@@V?$_Copy@UtagCONNECTDATA@@@ATL@@@ATL@@UEAAJPEAPEAUIEnumConnections@@@Z 000000018002c670     ImageScanner.obj
 0002:0000b670       $unwind$?Clone@?$CComEnumImpl@UIEnumConnectionPoints@@$1?_GUID_b196b285_bab4_101a_b69c_00aa00341d07@@3U__s_GUID@@BPEAUIConnectionPoint@@V?$_CopyInterface@UIConnectionPoint@@@ATL@@@ATL@@UEAAJPEAPEAUIEnumConnectionPoints@@@Z 000000018002c670     ImageScanner.obj
 0002:0000b688       $unwind$?GetOposProp@COPOSImageScanner@@IEAAJJPEAJJ@Z 000000018002c688     ImageScannerImpl.obj
 0002:0000b688       $unwind$?GetOposProp@COPOSImageScanner@@IEAAJJPEAPEA_WJ@Z 000000018002c688     ImageScannerImpl.obj
 0002:0000b6a0       $unwind$?SetOposProp@COPOSImageScanner@@IEAAJJJJ@Z 000000018002c6a0     ImageScannerImpl.obj
 0002:0000b6c0       $unwind$?DoInvoke@COPOSImageScanner@@IEAAJJPEAVOposVariant@@IHPEAJ_N@Z 000000018002c6c0     ImageScannerImpl.obj
 0002:0000b6d8       $unwind$?SetCOFreezeEvents@COPOSImageScanner@@IEAAXF@Z 000000018002c6d8     ImageScannerImpl.obj
 0002:0000b6ec       $unwind$?OnDraw@COPOSImageScanner@@MEAAJAEAUATL_DRAWINFO@@@Z 000000018002c6ec     ImageScannerImpl.obj
 0002:0000b704       $unwind$?EventInit@COPOSImageScanner@@IEAAJXZ 000000018002c704     ImageScannerImpl.obj
 0002:0000b718       $unwind$?EventWindowProc@COPOSImageScanner@@IEAA_JI_K_J@Z 000000018002c718     ImageScannerImpl.obj
 0002:0000b728       $unwind$_isleadbyte_l      000000018002c728     libucrt:_wctype.obj
 0002:0000b728       $unwind$__scrt_initialize_onexit_tables 000000018002c728     LIBCMT:utility.obj
 0002:0000b728       $unwind$?getSystemCP@@YAHH@Z 000000018002c728     libucrt:mbctype.obj
 0002:0000b728       $unwind$isdigit            000000018002c728     libucrt:_ctype.obj
 0002:0000b728       $unwind$?get_ControlObjectDescription@COPOSImageScanner@@UEAAJPEAPEA_W@Z 000000018002c728     ImageScannerImpl.obj
 0002:0000b730       $unwind$?ResetStatistics@COPOSImageScanner@@UEAAJPEA_WPEAJ@Z 000000018002c730     ImageScannerImpl.obj
 0002:0000b730       $unwind$?UpdateFirmware@COPOSImageScanner@@UEAAJPEA_WPEAJ@Z 000000018002c730     ImageScannerImpl.obj
 0002:0000b730       $unwind$?RetrieveStatistics@COPOSImageScanner@@UEAAJPEAPEA_WPEAJ@Z 000000018002c730     ImageScannerImpl.obj
 0002:0000b730       $unwind$?UpdateStatistics@COPOSImageScanner@@UEAAJPEA_WPEAJ@Z 000000018002c730     ImageScannerImpl.obj
 0002:0000b730       $unwind$?CheckHealth@COPOSImageScanner@@UEAAJJPEAJ@Z 000000018002c730     ImageScannerImpl.obj
 0002:0000b740       $unwind$?ClaimDevice@COPOSImageScanner@@UEAAJJPEAJ@Z 000000018002c740     ImageScannerImpl.obj
 0002:0000b750       $unwind$?DirectIO@COPOSImageScanner@@UEAAJJPEAJPEAPEA_W0@Z 000000018002c750     ImageScannerImpl.obj
 0002:0000b76c       $unwind$?Open@COPOSImageScanner@@UEAAJPEA_WPEAJ@Z 000000018002c76c     ImageScannerImpl.obj
 0002:0000b790       $unwind$?CompareFirmwareVersion@COPOSImageScanner@@UEAAJPEA_WPEAJ1@Z 000000018002c790     ImageScannerImpl.obj
 0002:0000b790       $unwind$?initialize_inherited_file_handles_nolock@@YAXXZ 000000018002c790     libucrt:ioinit.obj
 0002:0000b7ac       $unwind$__scrt_is_nonwritable_in_current_image 000000018002c7ac     LIBCMT:utility.obj
 0002:0000b7cc       $unwind$__scrt_is_nonwritable_in_current_image$filt$0 000000018002c7cc     LIBCMT:utility.obj
 0002:0000b7d4       $unwind$?__scrt_initialize_thread_safe_statics@@YAHXZ 000000018002c7d4     LIBCMT:thread_safe_statics.obj
 0002:0000b7ec       $stateUnwindMap$?__scrt_initialize_thread_safe_statics@@YAHXZ 000000018002c7ec     LIBCMT:thread_safe_statics.obj
 0002:0000b7f8       $ip2state$?__scrt_initialize_thread_safe_statics@@YAHXZ 000000018002c7f8     LIBCMT:thread_safe_statics.obj
 0002:0000b800       $unwind$__report_securityfailure 000000018002c800     LIBCMT:gs_report.obj
 0002:0000b808       $unwind$__report_gsfailure 000000018002c808     LIBCMT:gs_report.obj
 0002:0000b808       $unwind$_putwch_nolock     000000018002c808     libucrt:putwch.obj
 0002:0000b810       $unwind$capture_current_context 000000018002c810     LIBCMT:gs_report.obj
 0002:0000b81c       $unwind$capture_previous_context 000000018002c81c     LIBCMT:gs_report.obj
 0002:0000b828       $unwind$??2@YAPEAX_KAEBUnothrow_t@std@@@Z 000000018002c828     LIBCMT:new_scalar_nothrow.obj
 0002:0000b838       $stateUnwindMap$??2@YAPEAX_KAEBUnothrow_t@std@@@Z 000000018002c838     LIBCMT:new_scalar_nothrow.obj
 0002:0000b848       $tryMap$??2@YAPEAX_KAEBUnothrow_t@std@@@Z 000000018002c848     LIBCMT:new_scalar_nothrow.obj
 0002:0000b85c       $handlerMap$0$??2@YAPEAX_KAEBUnothrow_t@std@@@Z 000000018002c85c     LIBCMT:new_scalar_nothrow.obj
 0002:0000b870       $ip2state$??2@YAPEAX_KAEBUnothrow_t@std@@@Z 000000018002c870     LIBCMT:new_scalar_nothrow.obj
 0002:0000b878       $unwind$?catch$0@?0???2@YAPEAX_KAEBUnothrow_t@std@@@Z@4HA 000000018002c878     LIBCMT:new_scalar_nothrow.obj
 0002:0000b888       $unwind$__GSHandlerCheckCommon 000000018002c888     LIBCMT:_gshandler_.obj
 0002:0000b890       $xdatasym                  000000018002c890     LIBCMT:_chkstk_.obj
 0002:0000b898       $xdatasym                  000000018002c898     LIBCMT:_amdsecgs_.obj
 0002:0000b89c       $unwind$?dllmain_crt_process_attach@@YAHQEAUHINSTANCE__@@QEAX@Z 000000018002c89c     LIBCMT:dll_dllmain.obj
 0002:0000b8d8       $unwind$?dllmain_crt_process_detach@@YAH_N@Z 000000018002c8d8     LIBCMT:dll_dllmain.obj
 0002:0000b910       $unwind$?dllmain_dispatch@@YAHQEAUHINSTANCE__@@KQEAX@Z 000000018002c910     LIBCMT:dll_dllmain.obj
 0002:0000b938       $unwind$?filt$0@?0??dllmain_dispatch@@YAHQEAUHINSTANCE__@@KQEAX@Z@4HA 000000018002c938     LIBCMT:dll_dllmain.obj
 0002:0000b940       $unwind$__isa_available_init 000000018002c940     LIBCMT:_cpu_disp_.obj
 0002:0000b954       $unwind$__scrt_fastfail    000000018002c954     LIBCMT:utility_desktop.obj
 0002:0000b964       $unwind$__security_init_cookie 000000018002c964     LIBCMT:gs_support.obj
 0002:0000b970       $xdatasym                  000000018002c970     LIBCMT:_guard_dispatch_.obj
 0002:0000b974       $unwind$AtlThunk_InitData  000000018002c974     atls:atlthunk.obj
 0002:0000b988       $xdatasym                  000000018002c988     libvcruntime:memset.obj
 0002:0000b998       $unwind$wcsstr             000000018002c998     libvcruntime:wcsstr.obj
 0002:0000b9b0       $xdatasym                  000000018002c9b0     libvcruntime:memcmp.obj
 0002:0000b9b8       $xdatasym                  000000018002c9b8     libvcruntime:memcpy.obj
 0002:0000b9c8       $unwind$__C_specific_handler 000000018002c9c8     libvcruntime:_riscchandler_.obj
 0002:0000b9e4       $unwind$__DestructExceptionObject 000000018002c9e4     libvcruntime:ehhelpers.obj
 0002:0000ba04       $unwind$?GetEstablisherFrame@__FrameHandler3@@SAPEA_KPEA_KPEAU_xDISPATCHER_CONTEXT@@PEBU_s_FuncInfo@@0@Z 000000018002ca04     libvcruntime:risctrnsctrl.obj
 0002:0000ba1c       $unwind$?UnwindNestedFrames@__FrameHandler3@@SAXPEA_KPEAUEHExceptionRecord@@PEAU_CONTEXT@@0PEAXPEBU_s_FuncInfo@@HHPEBU_s_HandlerType@@PEAU_xDISPATCHER_CONTEXT@@E@Z 000000018002ca1c     libvcruntime:risctrnsctrl.obj
 0002:0000ba30       $unwind$?GetRangeOfTrysToCheck@__FrameHandler3@@SA?AU?$pair@Viterator@TryBlockMap@__FrameHandler3@@V123@@std@@AEAVTryBlockMap@1@HH@Z 000000018002ca30     libvcruntime:risctrnsctrl.obj
 0002:0000ba48       $unwind$__CxxFrameHandler3 000000018002ca48     libvcruntime:risctrnsctrl.obj
 0002:0000ba58       $unwind$??$_CallSETranslator@V__FrameHandler3@@@@YAHPEAUEHExceptionRecord@@PEA_KPEAU_CONTEXT@@PEAU_xDISPATCHER_CONTEXT@@PEBU_s_FuncInfo@@K1@Z 000000018002ca58     libvcruntime:risctrnsctrl.obj
 0002:0000ba78       $unwind$?filt$0@?0???$_CallSETranslator@V__FrameHandler3@@@@YAHPEAUEHExceptionRecord@@PEA_KPEAU_CONTEXT@@PEAU_xDISPATCHER_CONTEXT@@PEBU_s_FuncInfo@@K1@Z@4HA 000000018002ca78     libvcruntime:risctrnsctrl.obj
 0002:0000ba84       $unwind$_CxxThrowException 000000018002ca84     libvcruntime:throw.obj
 0002:0000ba94       $unwind$__acrt_initialize_winapi_thunks 000000018002ca94     libucrt:winapi_thunks.obj
 0002:0000ba94       $unwind$__vcrt_initialize_winapi_thunks 000000018002ca94     libvcruntime:winapi_downlevel.obj
 0002:0000ba9c       $unwind$__vcrt_uninitialize_winapi_thunks 000000018002ca9c     libvcruntime:winapi_downlevel.obj
 0002:0000baa4       $unwind$?try_get_function@@YAPEAXW4function_id@?A0xcc2f1bd3@@QEBDQEBW4module_id@2@2@Z 000000018002caa4     libvcruntime:winapi_downlevel.obj
 0002:0000baa4       $unwind$?IsInExceptionSpec@@YAEPEAUEHExceptionRecord@@PEBU_s_ESTypeList@@@Z 000000018002caa4     libvcruntime:frame.obj
 0002:0000baa4       $unwind$?try_get_function@@YAPEAXW4function_id@?A0x391cf84c@@QEBDQEBW4module_id@2@2@Z 000000018002caa4     libucrt:winapi_thunks.obj
 0002:0000baa4       $unwind$??R<lambda_f03950bc5685219e0bcd2087efbe011e>@@QEBAHXZ 000000018002caa4     libucrt:onexit.obj
 0002:0000bac0       $xdatasym                  000000018002cac0     libvcruntime:_notify_.obj
 0002:0000bacc       $unwind$?FrameUnwindToState@__FrameHandler3@@SAXPEA_KPEAU_xDISPATCHER_CONTEXT@@PEBU_s_FuncInfo@@H@Z 000000018002cacc     libvcruntime:frame.obj
 0002:0000bb18       $unwind$?CxxCallCatchBlock@__FrameHandler3@@SAPEAXPEAU_EXCEPTION_RECORD@@@Z 000000018002cb18     libvcruntime:frame.obj
 0002:0000bb54       $unwind$?fin$1@?0??CxxCallCatchBlock@__FrameHandler3@@SAPEAXPEAU_EXCEPTION_RECORD@@@Z@4HA 000000018002cb54     libvcruntime:frame.obj
 0002:0000bb60       $unwind$??$BuildCatchObjectHelperInternal@$$CBU_s_HandlerType@@@@YAHPEAUEHExceptionRecord@@PEAXPEBU_s_HandlerType@@PEBU_s_CatchableType@@@Z 000000018002cb60     libvcruntime:frame.obj
 0002:0000bba0       $unwind$??$BuildCatchObjectInternal@$$CBU_s_HandlerType@@@@YAXPEAUEHExceptionRecord@@PEAXPEBU_s_HandlerType@@PEBU_s_CatchableType@@@Z 000000018002cba0     libvcruntime:frame.obj
 0002:0000bbcc       $unwind$??$FindHandler@V__FrameHandler3@@@@YAXPEAUEHExceptionRecord@@PEA_KPEAU_CONTEXT@@PEAU_xDISPATCHER_CONTEXT@@PEBU_s_FuncInfo@@EH1@Z 000000018002cbcc     libvcruntime:frame.obj
 0002:0000bbe8       $unwind$??$CatchIt@V__FrameHandler3@@@@YAXPEAUEHExceptionRecord@@PEA_KPEAU_CONTEXT@@PEAU_xDISPATCHER_CONTEXT@@PEBU_s_FuncInfo@@PEBU_s_HandlerType@@PEBU_s_CatchableType@@PEBU_s_TryBlockMapEntry@@H1EE@Z 000000018002cbe8     libvcruntime:frame.obj
 0002:0000bc00       $unwind$??$FindHandlerForForeignException@V__FrameHandler3@@@@YAXPEAUEHExceptionRecord@@PEA_KPEAU_CONTEXT@@PEAU_xDISPATCHER_CONTEXT@@PEBU_s_FuncInfo@@HH1@Z 000000018002cc00     libvcruntime:frame.obj
 0002:0000bc20       $xdatasym                  000000018002cc20     libvcruntime:handlers.obj
 0002:0000bc30       $unwind$__acrt_call_reportfault 000000018002cc30     libucrt:invalid_parameter.obj
 0002:0000bc50       $unwind$_resetstkoflw      000000018002cc50     libucrt:resetstk.obj
 0002:0000bc74       $unwind$?write_string@?$string_output_adapter@_W@__crt_stdio_output@@QEBAXQEB_WHQEAHAEAV__crt_deferred_errno_cache@@@Z 000000018002cc74     libucrt:output.obj
 0002:0000bc8c       $unwind$??$common_vsprintf@Vformat_validation_base@__crt_stdio_output@@_W@@YAH_KQEA_W0QEB_WQEAU__crt_locale_pointers@@QEAD@Z 000000018002cc8c     libucrt:output.obj
 0002:0000bcac       $unwind$??$write_multiple_characters@V?$string_output_adapter@_W@__crt_stdio_output@@D@__crt_stdio_output@@YAXAEBV?$string_output_adapter@_W@0@DHQEAH@Z 000000018002ccac     libucrt:output.obj
 0002:0000bcb8       $unwind$?parse_int_from_format_string@?$output_processor@_WV?$string_output_adapter@_W@__crt_stdio_output@@V?$format_validation_base@_WV?$string_output_adapter@_W@__crt_stdio_output@@@2@@__crt_stdio_output@@AEAA_NQEAH@Z 000000018002ccb8     libucrt:output.obj
 0002:0000bccc       $unwind$?state_case_type@?$output_processor@_WV?$string_output_adapter@_W@__crt_stdio_output@@V?$format_validation_base@_WV?$string_output_adapter@_W@__crt_stdio_output@@@2@@__crt_stdio_output@@AEAA_NXZ 000000018002cccc     libucrt:output.obj
 0002:0000bcf0       $unwind$?type_case_a@?$output_processor@_WV?$string_output_adapter@_W@__crt_stdio_output@@V?$format_validation_base@_WV?$string_output_adapter@_W@__crt_stdio_output@@@2@@__crt_stdio_output@@AEAA_NXZ 000000018002ccf0     libucrt:output.obj
 0002:0000bd00       $unwind$?write_stored_string_tchar@?$output_processor@_WV?$string_output_adapter@_W@__crt_stdio_output@@V?$format_validation_base@_WV?$string_output_adapter@_W@__crt_stdio_output@@@2@@__crt_stdio_output@@AEAA_N_W@Z 000000018002cd00     libucrt:output.obj
 0002:0000bd14       $unwind$??$type_case_integer_parse_into_buffer@_K@?$output_processor@_WV?$string_output_adapter@_W@__crt_stdio_output@@V?$format_validation_base@_WV?$string_output_adapter@_W@__crt_stdio_output@@@2@@__crt_stdio_output@@AEAAX_KI_N@Z 000000018002cd14     libucrt:output.obj
 0002:0000bd14       $unwind$??$type_case_integer_parse_into_buffer@I@?$output_processor@_WV?$string_output_adapter@_W@__crt_stdio_output@@V?$format_validation_base@_WV?$string_output_adapter@_W@__crt_stdio_output@@@2@@__crt_stdio_output@@AEAAXII_N@Z 000000018002cd14     libucrt:output.obj
 0002:0000bd1c       $unwind$?common_exit@@YAXHW4_crt_exit_cleanup_mode@@W4_crt_exit_return_mode@@@Z 000000018002cd1c     libucrt:exit.obj
 0002:0000bd28       $unwind$??R<lambda_6e4b09c48022b2350581041d5f6b0c4c>@@QEBA@XZ 000000018002cd28     libucrt:exit.obj
 0002:0000bd48       $unwind$??$?RV<lambda_d80eeec6fff315bfe5c115232f3240e3>@@AEAV<lambda_6e4b09c48022b2350581041d5f6b0c4c>@@V<lambda_2358e3775559c9db80273638284d5e45>@@@?$__crt_seh_guarded_call@X@@QEAAX$$QEAV<lambda_d80eeec6fff315bfe5c115232f3240e3>@@AEAV<lambda_6e4b09c48022b2350581041d5f6b0c4c>@@$$QEAV<lambda_2358e3775559c9db80273638284d5e45>@@@Z 000000018002cd48     libucrt:exit.obj
 0002:0000bd6c       $unwind$??$free_environment@_W@@YAXQEAPEA_W@Z 000000018002cd6c     libucrt:environment_initialization.obj
 0002:0000bd6c       $unwind$??$free_environment@D@@YAXQEAPEAD@Z 000000018002cd6c     libucrt:environment_initialization.obj
 0002:0000bd78       $unwind$_register_onexit_function 000000018002cd78     libucrt:onexit.obj
 0002:0000bd80       $unwind$_execute_onexit_table 000000018002cd80     libucrt:onexit.obj
 0002:0000bd88       $unwind$??$?RV<lambda_638799b9deba96c50f710eeac98168cd>@@AEAV<lambda_22ebabd17bc4fa466a2aca6d8deb888d>@@V<lambda_a6f7d7db0129f75315ebf26d50c089f1>@@@?$__crt_seh_guarded_call@H@@QEAAH$$QEAV<lambda_638799b9deba96c50f710eeac98168cd>@@AEAV<lambda_22ebabd17bc4fa466a2aca6d8deb888d>@@$$QEAV<lambda_a6f7d7db0129f75315ebf26d50c089f1>@@@Z 000000018002cd88     libucrt:onexit.obj
 0002:0000bdac       $unwind$??$?RV<lambda_7777bce6b2f8c936911f934f8298dc43>@@AEAV<lambda_f03950bc5685219e0bcd2087efbe011e>@@V<lambda_3883c3dff614d5e0c5f61bb1ac94921c>@@@?$__crt_seh_guarded_call@H@@QEAAH$$QEAV<lambda_7777bce6b2f8c936911f934f8298dc43>@@AEAV<lambda_f03950bc5685219e0bcd2087efbe011e>@@$$QEAV<lambda_3883c3dff614d5e0c5f61bb1ac94921c>@@@Z 000000018002cdac     libucrt:onexit.obj
 0002:0000bdd0       $unwind$_query_new_handler 000000018002cdd0     libucrt:new_handler.obj
 0002:0000bdf0       $unwind$terminate          000000018002cdf0     libucrt:terminate.obj
 0002:0000be10       $unwind$??$parse_integer@KV?$c_string_character_source@_W@__crt_strtox@@@__crt_strtox@@YAKQEAU__crt_locale_pointers@@V?$c_string_character_source@_W@0@H_N@Z 000000018002ce10     libucrt:atox.obj
 0002:0000be30       $xdatasym                  000000018002ce30     libucrt:strncmp.obj
 0002:0000be34       $unwind$?construct_ptd_array@@YAXQEAU__acrt_ptd@@@Z 000000018002ce34     libucrt:per_thread_data.obj
 0002:0000be3c       $unwind$?destroy_ptd_array@@YAXQEAU__acrt_ptd@@@Z 000000018002ce3c     libucrt:per_thread_data.obj
 0002:0000be44       $unwind$??$?RV<lambda_0ae27a3a962d80f24befdcbee591983d>@@AEAV<lambda_8d0ee55de4b1038c4002e0adecdf1839>@@V<lambda_dc504788e8f1664fe9b84e20bfb512f2>@@@?$__crt_seh_guarded_call@X@@QEAAX$$QEAV<lambda_0ae27a3a962d80f24befdcbee591983d>@@AEAV<lambda_8d0ee55de4b1038c4002e0adecdf1839>@@$$QEAV<lambda_dc504788e8f1664fe9b84e20bfb512f2>@@@Z 000000018002ce44     libucrt:per_thread_data.obj
 0002:0000be68       $unwind$??$?RV<lambda_aa87e3671a710a21b5dc78c0bdf72e11>@@AEAV<lambda_92619d2358a28f41a33ba319515a20b9>@@V<lambda_6992ecaafeb10aed2b74cb1fae11a551>@@@?$__crt_seh_guarded_call@X@@QEAAX$$QEAV<lambda_aa87e3671a710a21b5dc78c0bdf72e11>@@AEAV<lambda_92619d2358a28f41a33ba319515a20b9>@@$$QEAV<lambda_6992ecaafeb10aed2b74cb1fae11a551>@@@Z 000000018002ce68     libucrt:per_thread_data.obj
 0002:0000be8c       $unwind$??$?RV<lambda_f2e299630e499de9f9a165e60fcd3db5>@@AEAV<lambda_2ae9d31cdba2644fcbeaf08da7c24588>@@V<lambda_40d01ff24d0e7b3814fdbdcee8eab3c7>@@@?$__crt_seh_guarded_call@X@@QEAAX$$QEAV<lambda_f2e299630e499de9f9a165e60fcd3db5>@@AEAV<lambda_2ae9d31cdba2644fcbeaf08da7c24588>@@$$QEAV<lambda_40d01ff24d0e7b3814fdbdcee8eab3c7>@@@Z 000000018002ce8c     libucrt:per_thread_data.obj
 0002:0000beb0       $unwind$??$?RV<lambda_2d41944a1d46af3157314b8a01080d33>@@AEAV<lambda_8f455de75cd7d7f24b4096f044d8b9e6>@@V<lambda_aa500f224e6afead328df44964fe2772>@@@?$__crt_seh_guarded_call@X@@QEAAX$$QEAV<lambda_2d41944a1d46af3157314b8a01080d33>@@AEAV<lambda_8f455de75cd7d7f24b4096f044d8b9e6>@@$$QEAV<lambda_aa500f224e6afead328df44964fe2772>@@@Z 000000018002ceb0     libucrt:per_thread_data.obj
 0002:0000bed4       $unwind$_tolower_l         000000018002ced4     libucrt:tolower_toupper.obj
 0002:0000bee4       $unwind$wcstol             000000018002cee4     libucrt:strtox.obj
 0002:0000beec       $unwind$wcsnlen            000000018002ceec     libucrt:strnlen.obj
 0002:0000bef4       $unwind$__acrt_fp_format   000000018002cef4     libucrt:cvt.obj
 0002:0000bf10       $unwind$?fp_format_nan_or_infinity@@YAHW4__acrt_fp_class@@_NPEAD_K1@Z 000000018002cf10     libucrt:cvt.obj
 0002:0000bf24       $unwind$?fp_format_e_internal@@YAHQEAD_KH_NIQEAU_strflt@@2QEAU__crt_locale_pointers@@@Z 000000018002cf24     libucrt:cvt.obj
 0002:0000bf3c       $unwind$?fp_format_a@@YAHQEBNPEAD_KQEAD2H_NIQEAU__crt_locale_pointers@@@Z 000000018002cf3c     libucrt:cvt.obj
 0002:0000bf58       $unwind$?fp_format_g@@YAHQEBNQEAD_K12H_NIQEAU__crt_locale_pointers@@@Z 000000018002cf58     libucrt:cvt.obj
 0002:0000bf6c       $unwind$__acrt_uninitialize_locale 000000018002cf6c     libucrt:wsetlocale.obj
 0002:0000bf6c       $unwind$__acrt_get_sigabrt_handler 000000018002cf6c     libucrt:signal.obj
 0002:0000bf74       $unwind$??$?RV<lambda_410d79af7f07d98d83a3f525b3859a53>@@AEAV<lambda_3e16ef9562a7dcce91392c22ab16ea36>@@V<lambda_38119f0e861e05405d8a144b9b982f0a>@@@?$__crt_seh_guarded_call@X@@QEAAX$$QEAV<lambda_410d79af7f07d98d83a3f525b3859a53>@@AEAV<lambda_3e16ef9562a7dcce91392c22ab16ea36>@@$$QEAV<lambda_38119f0e861e05405d8a144b9b982f0a>@@@Z 000000018002cf74     libucrt:wsetlocale.obj
 0002:0000bf9c       $unwind$__acrt_initialize_lowio 000000018002cf9c     libucrt:ioinit.obj
 0002:0000bfbc       $unwind$??$common_expand_argv_wildcards@D@@YAHQEAPEADQEAPEAPEAD@Z 000000018002cfbc     libucrt:argv_wildcards.obj
 0002:0000bfd4       $unwind$??$copy_and_add_argument_to_buffer@D@@YAHQEBD0_KAEAV?$argument_list@D@?A0x5f5c8891@@@Z 000000018002cfd4     libucrt:argv_wildcards.obj
 0002:0000bff0       $unwind$??$expand_argument_wildcards@D@@YAHQEAD0AEAV?$argument_list@D@?A0x5f5c8891@@@Z 000000018002cff0     libucrt:argv_wildcards.obj
 0002:0000c010       $unwind$_setmbcp_nolock    000000018002d010     libucrt:mbctype.obj
 0002:0000c030       $unwind$?setSBUpLow@@YAXPEAU__crt_multibyte_data@@@Z 000000018002d030     libucrt:mbctype.obj
 0002:0000c04c       $unwind$?update_thread_multibyte_data_internal@@YAPEAU__crt_multibyte_data@@QEAU__acrt_ptd@@QEAU1@@Z 000000018002d04c     libucrt:mbctype.obj
 0002:0000c074       $unwind$?setmbcp_internal@@YAHH_NQEAU__acrt_ptd@@QEAPEAU__crt_multibyte_data@@@Z 000000018002d074     libucrt:mbctype.obj
 0002:0000c084       $unwind$??$?RV<lambda_efdfa57d1f175319df784efa44bb7b81>@@AEAV<lambda_5f0a4c1567f8adc6734073e5d1e1b35c>@@V<lambda_2e8a7d3640ea6ccb4c2413664c2db6fd>@@@?$__crt_seh_guarded_call@X@@QEAAX$$QEAV<lambda_efdfa57d1f175319df784efa44bb7b81>@@AEAV<lambda_5f0a4c1567f8adc6734073e5d1e1b35c>@@$$QEAV<lambda_2e8a7d3640ea6ccb4c2413664c2db6fd>@@@Z 000000018002d084     libucrt:mbctype.obj
 0002:0000c0a8       $unwind$raise              000000018002d0a8     libucrt:signal.obj
 0002:0000c0d4       $unwind$??$?RV<lambda_450d765d439847d4c735a33c368b5fc0>@@AEAV<lambda_44731a7d0e6d81c3e6aa82d741081786>@@V<lambda_601a2a7da3b7a96e9554ac7215c4b07c>@@@?$__crt_seh_guarded_call@P6AXH@Z@@QEAAP6AXH@Z$$QEAV<lambda_450d765d439847d4c735a33c368b5fc0>@@AEAV<lambda_44731a7d0e6d81c3e6aa82d741081786>@@$$QEAV<lambda_601a2a7da3b7a96e9554ac7215c4b07c>@@@Z 000000018002d0d4     libucrt:signal.obj
 0002:0000c0f8       $unwind$_isctype_l         000000018002d0f8     libucrt:isctype.obj
 0002:0000c114       $unwind$__acrt_update_thread_locale_data 000000018002d114     libucrt:locale_refcounting.obj
 0002:0000c138       $unwind$?GetTableIndexFromLocaleName@@YAHPEB_W@Z 000000018002d138     libucrt:lcidtoname_downlevel.obj
 0002:0000c150       $unwind$__acrt_LCMapStringA 000000018002d150     libucrt:lcmapstringa.obj
 0002:0000c160       $unwind$?__acrt_LCMapStringA_stat@@YAHPEAU__crt_locale_pointers@@PEB_WKPEBDHPEADHHH@Z 000000018002d160     libucrt:lcmapstringa.obj
 0002:0000c188       $unwind$__acrt_fltout      000000018002d188     libucrt:cfout.obj
 0002:0000c1a8       $unwind$?divide@__crt_strtox@@YA_KAEAUbig_integer@1@AEBU21@@Z 000000018002d1a8     libucrt:cfout.obj
 0002:0000c1c8       $chain$5$?divide@__crt_strtox@@YA_KAEAUbig_integer@1@AEBU21@@Z 000000018002d1c8     libucrt:cfout.obj
 0002:0000c1dc       $chain$6$?divide@__crt_strtox@@YA_KAEAUbig_integer@1@AEBU21@@Z 000000018002d1dc     libucrt:cfout.obj
 0002:0000c1ec       $unwind$_fcloseall         000000018002d1ec     libucrt:closeall.obj
 0002:0000c210       $unwind$?common_flush_all@@YAH_N@Z 000000018002d210     libucrt:fflush.obj
 0002:0000c218       $unwind$??$?RV<lambda_842d9ff0dc9ef11c61343bbaebe7f885>@@AEAV<lambda_c5860995281e5c4ce005b3de8f5874ee>@@V<lambda_d90129c13df834fdcbf8d2b88dafcf2d>@@@?$__crt_seh_guarded_call@X@@QEAAX$$QEAV<lambda_842d9ff0dc9ef11c61343bbaebe7f885>@@AEAV<lambda_c5860995281e5c4ce005b3de8f5874ee>@@$$QEAV<lambda_d90129c13df834fdcbf8d2b88dafcf2d>@@@Z 000000018002d218     libucrt:fflush.obj
 0002:0000c23c       $unwind$??$?RV<lambda_886d6c58226a84441f68b9f2b8217b83>@@AEAV<lambda_ab61a845afdef5b7c387490eaf3616ee>@@V<lambda_f7f22ab5edc0698d5f6905b0d3f44752>@@@?$__crt_seh_guarded_call@X@@QEAAX$$QEAV<lambda_886d6c58226a84441f68b9f2b8217b83>@@AEAV<lambda_ab61a845afdef5b7c387490eaf3616ee>@@$$QEAV<lambda_f7f22ab5edc0698d5f6905b0d3f44752>@@@Z 000000018002d23c     libucrt:fflush.obj
 0002:0000c264       $unwind$__acrt_locale_free_monetary 000000018002d264     libucrt:initmon.obj
 0002:0000c26c       $unwind$__acrt_locale_free_time 000000018002d26c     libucrt:inittime.obj
 0002:0000c27c       $unwind$__acrt_GetStringTypeA 000000018002d27c     libucrt:getstringtypea.obj
 0002:0000c2a4       $unwind$__acrt_lowio_destroy_handle_array 000000018002d2a4     libucrt:osfinfo.obj
 0002:0000c2b4       $unwind$__acrt_lowio_ensure_fh_exists 000000018002d2b4     libucrt:osfinfo.obj
 0002:0000c2e0       $unwind$qsort              000000018002d2e0     libucrt:qsort.obj
 0002:0000c2f8       $chain$4$qsort             000000018002d2f8     libucrt:qsort.obj
 0002:0000c31c       $chain$5$qsort             000000018002d31c     libucrt:qsort.obj
 0002:0000c32c       $unwind$?shortsort@@YAXPEAD0_KP6AHPEBX2@Z@Z 000000018002d32c     libucrt:qsort.obj
 0002:0000c33c       $chain$2$?shortsort@@YAXPEAD0_KP6AHPEBX2@Z@Z 000000018002d33c     libucrt:qsort.obj
 0002:0000c358       $chain$3$?shortsort@@YAXPEAD0_KP6AHPEBX2@Z@Z 000000018002d358     libucrt:qsort.obj
 0002:0000c368       $unwind$strpbrk            000000018002d368     libucrt:strpbrk.obj
 0002:0000c378       $xdatasym                  000000018002d378     libucrt:log10.obj
 0002:0000c384       $unwind$_write             000000018002d384     libucrt:write.obj
 0002:0000c3b4       $unwind$_write_nolock      000000018002d3b4     libucrt:write.obj
 0002:0000c3cc       $unwind$?write_double_translated_ansi_nolock@@YA?AUwrite_result@?A0x17268360@@HQEBDI@Z 000000018002d3cc     libucrt:write.obj
 0002:0000c3ec       $unwind$?write_text_utf16le_nolock@@YA?AUwrite_result@?A0x17268360@@HQEBDI@Z 000000018002d3ec     libucrt:write.obj
 0002:0000c3ec       $unwind$?write_text_ansi_nolock@@YA?AUwrite_result@?A0x17268360@@HQEBDI@Z 000000018002d3ec     libucrt:write.obj
 0002:0000c40c       $unwind$?write_text_utf8_nolock@@YA?AUwrite_result@?A0x17268360@@HQEBDI@Z 000000018002d40c     libucrt:write.obj
 0002:0000c430       $unwind$fclose             000000018002d430     libucrt:fclose.obj
 0002:0000c454       $unwind$_commit            000000018002d454     libucrt:commit.obj
 0002:0000c454       $unwind$_close             000000018002d454     libucrt:close.obj
 0002:0000c45c       $unwind$??$?RV<lambda_a37b2b86f63e897a80ea819b0eb08c01>@@AEAV<lambda_38ce7e780aa69e748d6df282ebc68efe>@@V<lambda_99fb1378e971ab6e7edea83e3a7a83a2>@@@?$__crt_seh_guarded_call@H@@QEAAH$$QEAV<lambda_a37b2b86f63e897a80ea819b0eb08c01>@@AEAV<lambda_38ce7e780aa69e748d6df282ebc68efe>@@$$QEAV<lambda_99fb1378e971ab6e7edea83e3a7a83a2>@@@Z 000000018002d45c     libucrt:commit.obj
 0002:0000c480       $unwind$common_control87   000000018002d480     libucrt:ieee.obj
 0002:0000c4b0       $unwind$_call_matherr      000000018002d4b0     libucrt:libm_error.obj
 0002:0000c4b8       $unwind$_handle_error      000000018002d4b8     libucrt:libm_error.obj
 0002:0000c4d8       $unwind$__acrt_initialize_fma3 000000018002d4d8     libucrt:fma3_available.obj
 0002:0000c4e0       $unwind$_log_special_common 000000018002d4e0     libucrt:log_special.obj
 0002:0000c4ec       $unwind$??$?RV<lambda_751a882b2c74d4b022dec766aa51a29a>@@AEAV<lambda_628dfdc04ba53c8bfc02c9951375f3f5>@@V<lambda_f6c7be5f7998530c34de24c7437d6b54>@@@?$__crt_seh_guarded_call@H@@QEAAH$$QEAV<lambda_751a882b2c74d4b022dec766aa51a29a>@@AEAV<lambda_628dfdc04ba53c8bfc02c9951375f3f5>@@$$QEAV<lambda_f6c7be5f7998530c34de24c7437d6b54>@@@Z 000000018002d4ec     libucrt:close.obj
 0002:0000c510       $xdatasym                  000000018002d510     libucrt:fpsr.obj
 0002:0000c518       $unwind$_raise_exc_ex      000000018002d518     libucrt:fpexcept.obj
 0002:0000c52c       $unwind$_ctrlfp            000000018002d52c     libucrt:fpctrl.obj
 0002:0000c554       $unwind$_IsNonwritableInCurrentImage 000000018002d554     LIBCMT:pesect.obj
 0002:0000c578       $unwind$strrchr            000000018002d578     libvcruntime:strrchr.obj
 0002:0000c6e0       .edata                     000000018002d6e0     OPOSImageScanner.exp
 0002:0000c708       rgpv                       000000018002d708     OPOSImageScanner.exp
 0002:0000c718       rgszName                   000000018002d718     OPOSImageScanner.exp
 0002:0000c728       rgwOrd                     000000018002d728     OPOSImageScanner.exp
 0002:0000c730       szName                     000000018002d730     OPOSImageScanner.exp
 0002:0000c745       $N00001                    000000018002d745     OPOSImageScanner.exp
 0002:0000c755       $N00002                    000000018002d755     OPOSImageScanner.exp
 0002:0000c767       $N00003                    000000018002d767     OPOSImageScanner.exp
 0002:0000c779       $N00004                    000000018002d779     OPOSImageScanner.exp
 0002:0000d0b4       .idata$6                   000000018002e0b4     kernel32:KERNEL32.dll
 0002:0000d2cc       .idata$6                   000000018002e2cc     user32:USER32.dll
 0002:0000d400       .idata$6                   000000018002e400     gdi32:GDI32.dll
 0002:0000d4a6       .idata$6                   000000018002e4a6     advapi32:ADVAPI32.dll
 0002:0000d5c2       .idata$6                   000000018002e5c2     ole32:ole32.dll
 0002:0000d5cc       .idata$6                   000000018002e5cc     oleaut32:OLEAUT32.dll
 0003:000001c0       ?ObjectMap@@3PAU_ATL_OBJMAP_ENTRY30@ATL@@A 000000018002f1c0     ImageScanner.obj
 0003:000002b8       ?s_RequiredMethodsPerRelease@@3PAHA 000000018002f2b8     ImageScannerImpl.obj
 0003:000002c0       ?s_SOMethodNames@@3PAPEADA 000000018002f2c0     ImageScannerImpl.obj
 0003:00000390       ?__vcrt_flsindex@@3KA      000000018002f390     libvcruntime:per_thread_data.obj
 0003:000003a0       ?errno_no_memory@@3HA      000000018002f3a0     libucrt:errno.obj
 0003:000003a4       ?doserrno_no_memory@@3KA   000000018002f3a4     libucrt:errno.obj
 0003:000003b0       ?__acrt_flsindex@@3KA      000000018002f3b0     libucrt:per_thread_data.obj
 0003:00000870       _mbctypes                  000000018002f870     libucrt:mbctype.obj
 0003:00000980       _mbcasemaps                000000018002f980     libucrt:mbctype.obj
 0003:00000a80       ?__rgctypeflag@@3PADA      000000018002fa80     libucrt:mbctype.obj
 0003:00000a90       ?__rgcode_page_info@@3PAUcode_page_info@@A 000000018002fa90     libucrt:mbctype.obj
 0003:00000c30       ?dazSupported@?1??common_control87@@9@9 000000018002fc30     libucrt:ieee.obj
 0003:00000c40       ?dazSupported@?1??_ctrlfp@@9@9 000000018002fc40     libucrt:fpctrl.obj
 0003:00000e90       ?is_initialized_as_dll@@3_NA 000000018002fe90     LIBCMT:utility.obj
 0003:00000e91       ?module_local_atexit_table_initialized@@3_NA 000000018002fe91     LIBCMT:utility.obj
 0003:00000e98       ?module_local_atexit_table@@3U_onexit_table_t@@A 000000018002fe98     LIBCMT:utility.obj
 0003:00000eb0       ?module_local_at_quick_exit_table@@3U_onexit_table_t@@A 000000018002feb0     LIBCMT:utility.obj
 0003:00000ec8       ?_Tss_mutex@@3U_RTL_CRITICAL_SECTION@@A 000000018002fec8     LIBCMT:thread_safe_statics.obj
 0003:00000ef0       ?_Tss_cv@@3U_RTL_CONDITION_VARIABLE@@A 000000018002fef0     LIBCMT:thread_safe_statics.obj
 0003:00000ef8       ?_Tss_event@@3PEAXEA       000000018002fef8     LIBCMT:thread_safe_statics.obj
 0003:00000f00       ?encoded_sleep_condition_variable_cs@@3P6AHPEAU_RTL_CONDITION_VARIABLE@@PEAU_RTL_CRITICAL_SECTION@@K@ZEA 000000018002ff00     LIBCMT:thread_safe_statics.obj
 0003:00000f08       ?encoded_wake_all_condition_variable@@3P6AXPEAU_RTL_CONDITION_VARIABLE@@@ZEA 000000018002ff08     LIBCMT:thread_safe_statics.obj
 0003:00000f10       GS_ExceptionRecord         000000018002ff10     LIBCMT:gs_report.obj
 0003:00000fb0       GS_ContextRecord           000000018002ffb0     LIBCMT:gs_report.obj
 0003:00001484       ?__proc_attached@@3HA      0000000180030484     LIBCMT:dll_dllmain.obj
 0003:00001518       ?AllocateData@@3P6APEAUAtlThunkData_t@@XZEA 0000000180030518     atls:atlthunk.obj
 0003:00001520       ?InitData@@3P6AXPEAUAtlThunkData_t@@PEAX_K@ZEA 0000000180030520     atls:atlthunk.obj
 0003:00001528       ?DataToCode@@3P6AP6A_JPEAUHWND__@@I_K_J@ZPEAUAtlThunkData_t@@@ZEA 0000000180030528     atls:atlthunk.obj
 0003:00001530       ?FreeData@@3P6AXPEAUAtlThunkData_t@@@ZEA 0000000180030530     atls:atlthunk.obj
 0003:00001538       ?Initialized@@3_NA         0000000180030538     atls:atlthunk.obj
 0003:00001550       ?__vcrt_startup_thread_ptd@@3U__vcrt_ptd@@A 0000000180030550     libvcruntime:per_thread_data.obj
 0003:000015e0       __vcrt_lock_table          00000001800305e0     libvcruntime:locks.obj
 0003:00001608       __vcrt_locks_initialized   0000000180030608     libvcruntime:locks.obj
 0003:00001610       ?module_handles@@3PAPEAUHINSTANCE__@@A 0000000180030610     libvcruntime:winapi_downlevel.obj
 0003:00001628       ?encoded_function_pointers@@3PAPEAXA 0000000180030628     libvcruntime:winapi_downlevel.obj
 0003:00001690       ?heap@@3V_HeapManager@@A   0000000180030690     libvcruntime:undname.obj
 0003:000016b8       ?__acrt_invalid_parameter_handler@@3V?$dual_state_global@P6AXPEB_W00I_K@Z@__crt_state_management@@A 00000001800306b8     libucrt:invalid_parameter.obj
 0003:000016c0       ?c_termination_complete@@3JA 00000001800306c0     libucrt:exit.obj
 0003:000016c8       ?thread_local_exit_callback_func@@3P6AXPEAXK0@ZEA 00000001800306c8     libucrt:exit.obj
 0003:000016e0       ?program_name@?1???$common_configure_argv@D@@YAHW4_crt_argv_mode@@@Z@4PADA 00000001800306e0     libucrt:argv_parsing.obj
 0003:00001838       ?__acrt_new_handler@@3V?$dual_state_global@P6AH_K@Z@__crt_state_management@@A 0000000180030838     libucrt:new_handler.obj
 0003:00001840       ?module_handles@@3PAPEAUHINSTANCE__@@A 0000000180030840     libucrt:winapi_thunks.obj
 0003:000018e0       ?encoded_function_pointers@@3PAPEAXA 00000001800308e0     libucrt:winapi_thunks.obj
 0003:00001a00       ?enable_percent_n@@3_KA    0000000180030a00     libucrt:printf_count_output.obj
 0003:00001e40       ?__acrt_lock_table@@3PAU_RTL_CRITICAL_SECTION@@A 0000000180030e40     libucrt:locks.obj
 0003:00002070       ?__acrt_locks_initialized@@3IA 0000000180031070     libucrt:locks.obj
 0003:00002090       ?fSystemSet@@3HA           0000000180031090     libucrt:mbctype.obj
 0003:00002094       ?initialized@?1??__acrt_initialize_multibyte@@9@4_NA 0000000180031094     libucrt:mbctype.obj
 0003:000020d0       ?ctrlc_action@@3V?$dual_state_global@P6AXH@Z@__crt_state_management@@A 00000001800310d0     libucrt:signal.obj
 0003:000020d8       ?ctrlbreak_action@@3V?$dual_state_global@P6AXH@Z@__crt_state_management@@A 00000001800310d8     libucrt:signal.obj
 0003:000020e0       ?abort_action@@3V?$dual_state_global@P6AXH@Z@__crt_state_management@@A 00000001800310e0     libucrt:signal.obj
 0003:000020e8       ?term_action@@3V?$dual_state_global@P6AXH@Z@__crt_state_management@@A 00000001800310e8     libucrt:signal.obj
 0003:000020f0       ?user_matherr@@3V?$dual_state_global@P6AHPEAU_exception@@@Z@__crt_state_management@@A 00000001800310f0     libucrt:matherr.obj
 0003:000020f8       ?__acrt_global_new_mode@@3V?$dual_state_global@J@__crt_state_management@@A 00000001800310f8     libucrt:new_mode.obj
 0003:00002104       ?__acrt_app_type@@3W4_crt_app_type@@A 0000000180031104     libucrt:report_runtime_error.obj
 0004:00000000       $pdata$?cw_memcpy@@YAHPEA_WPEBDH@Z 0000000180032000     CWString.obj
 0004:0000000c       $pdata$?cw_strcpy@@YAHPEA_WPEBD@Z 000000018003200c     CWString.obj
 0004:00000018       $pdata$?cw_dup@@YAXPEBDAEAHAEAPEA_W1@Z 0000000180032018     CWString.obj
 0004:00000024       $pdata$?DupWide@_CW@@AEAAXXZ 0000000180032024     CWString.obj
 0004:00000030       $pdata$?AtlWinModuleTerm@ATL@@YAJPEAU_ATL_WIN_MODULE70@1@PEAUHINSTANCE__@@@Z 0000000180032030     OposVariant.obj
 0004:0000003c       $pdata$??0CAtlComModule@ATL@@QEAA@XZ 000000018003203c     OposVariant.obj
 0004:00000048       $pdata$?Term@CAtlComModule@ATL@@QEAAXXZ 0000000180032048     OposVariant.obj
 0004:00000054       $pdata$??__E_AtlComModule@ATL@@YAXXZ 0000000180032054     OposVariant.obj
 0004:00000060       $pdata$??0CAtlWinModule@ATL@@QEAA@XZ 0000000180032060     OposVariant.obj
 0004:0000006c       $pdata$??__E_AtlWinModule@ATL@@YAXXZ 000000018003206c     OposVariant.obj
 0004:00000078       $pdata$??__F_AtlWinModule@ATL@@YAXXZ 0000000180032078     OposVariant.obj
 0004:00000084       $pdata$??_Estringdispid@CComTypeInfoHolder@ATL@@QEAAPEAXI@Z 0000000180032084     OposVariant.obj
 0004:00000090       $pdata$?SetVARIANT_BOOL@OposVariant@@QEAAXF@Z 0000000180032090     OposVariant.obj
 0004:0000009c       $pdata$?GetLONG@OposVariant@@QEAAJXZ 000000018003209c     OposVariant.obj
 0004:000000a8       $pdata$?ChangeLONG@OposVariant@@QEAAXPEAJAEAJ@Z 00000001800320a8     OposVariant.obj
 0004:000000b4       $pdata$?SetLONG@OposVariant@@QEAAXJ@Z 00000001800320b4     OposVariant.obj
 0004:000000c0       $pdata$?SetLONG_Ptr@OposVariant@@QEAAXPEAJAEAJ@Z 00000001800320c0     OposVariant.obj
 0004:000000cc       $pdata$?ChangeBSTR@OposVariant@@QEAAXPEAPEA_WAEAJ@Z 00000001800320cc     OposVariant.obj
 0004:000000d8       $pdata$?SetBSTR@OposVariant@@QEAAXPEA_WAEAJ@Z 00000001800320d8     OposVariant.obj
 0004:000000e4       $pdata$?SetBSTR_Copy@OposVariant@@QEAAXPEA_WAEAJ@Z 00000001800320e4     OposVariant.obj
 0004:000000f0       $pdata$?SetBSTR_InOutPtr@OposVariant@@QEAA_NPEAPEA_WAEAJ@Z 00000001800320f0     OposVariant.obj
 0004:000000fc       $pdata$?SetString@OposVariant@@QEAAXPEB_WAEAJ@Z 00000001800320fc     OposVariant.obj
 0004:00000108       $pdata$?SetDispatch_Ptr@OposVariant@@QEAAXPEAUIDispatch@@AEAJ@Z 0000000180032108     OposVariant.obj
 0004:00000114       $pdata$??0OposDispParms@@QEAA@PEAVOposVariant@@H@Z 0000000180032114     OposVariant.obj
 0004:00000120       $pdata$??1OposDispParms@@QEAA@XZ 0000000180032120     OposVariant.obj
 0004:0000012c       $pdata$memcpy_s            000000018003212c     ImageScanner.obj
 0004:00000138       $pdata$?AtlThrowImpl@ATL@@YAXJ@Z 0000000180032138     ImageScanner.obj
 0004:00000144       $pdata$swprintf_s          0000000180032144     ImageScanner.obj
 0004:00000150       $pdata$?_AtlVerifyStackAvailable@_ATL_SAFE_ALLOCA_IMPL@ATL@@YA_N_K@Z 0000000180032150     ImageScanner.obj
 0004:0000015c       $pdata$?filt$0@?0??_AtlVerifyStackAvailable@_ATL_SAFE_ALLOCA_IMPL@ATL@@YA_N_K@Z@4HA 000000018003215c     ImageScanner.obj
 0004:00000168       $pdata$?AtlHresultFromLastError@ATL@@YAJXZ 0000000180032168     ImageScanner.obj
 0004:00000174       $pdata$?AtlInternalOleLoadFromStream@ATL@@YAJPEAUIStream@@AEBU_GUID@@PEAPEAXTClassesAllowedInStream@1@K@Z 0000000180032174     ImageScanner.obj
 0004:00000180       $pdata$?PutProperty@?$CComPtr@UIDispatch@@@ATL@@SAJPEAUIDispatch@@JPEAUtagVARIANT@@@Z 0000000180032180     ImageScanner.obj
 0004:0000018c       $pdata$?WriteToStream@CComBSTR@ATL@@QEAAJPEAUIStream@@@Z 000000018003218c     ImageScanner.obj
 0004:00000198       $pdata$?ReadFromStream@CComBSTR@ATL@@QEAAJPEAUIStream@@@Z 0000000180032198     ImageScanner.obj
 0004:000001a4       $pdata$?WriteToStream@CComVariant@ATL@@QEAAJPEAUIStream@@@Z 00000001800321a4     ImageScanner.obj
 0004:000001b0       $pdata$?WriteToStream@CComVariant@ATL@@QEAAJPEAUIStream@@G@Z 00000001800321b0     ImageScanner.obj
 0004:000001bc       $pdata$?ReadFromStream@CComVariant@ATL@@QEAAJPEAUIStream@@GTClassesAllowedInStream@2@K@Z 00000001800321bc     ImageScanner.obj
 0004:000001c8       $pdata$?GetSizeMax@CComVariant@ATL@@QEBAJPEAT_ULARGE_INTEGER@@@Z 00000001800321c8     ImageScanner.obj
 0004:000001d4       $pdata$?RegCreateKeyExW@CAtlTransactionManager@ATL@@QEAAJPEAUHKEY__@@PEB_WKPEA_WKKQEAU_SECURITY_ATTRIBUTES@@PEAPEAU3@PEAK@Z 00000001800321d4     ImageScanner.obj
 0004:000001e0       $pdata$?RegOpenKeyExW@CAtlTransactionManager@ATL@@QEAAJPEAUHKEY__@@PEB_WKKPEAPEAU3@@Z 00000001800321e0     ImageScanner.obj
 0004:000001ec       $pdata$?RegDeleteKeyW@CAtlTransactionManager@ATL@@QEAAJPEAUHKEY__@@PEB_W@Z 00000001800321ec     ImageScanner.obj
 0004:000001f8       $pdata$?Add@?$CSimpleArray@GV?$CSimpleArrayEqualHelper@G@ATL@@@ATL@@QEAAHAEBG@Z 00000001800321f8     ImageScanner.obj
 0004:00000204       $pdata$?AtlInternalQueryInterface@ATL@@YAJPEAXPEBU_ATL_INTMAP_ENTRY@1@AEBU_GUID@@PEAPEAX@Z 0000000180032204     ImageScanner.obj
 0004:00000210       $pdata$?AtlComModuleGetClassObject@ATL@@YAJPEAU_ATL_COM_MODULE70@1@AEBU_GUID@@1PEAPEAX@Z 0000000180032210     ImageScanner.obj
 0004:0000021c       $pdata$?AtlRegisterClassCategoriesHelper@ATL@@YAJAEBU_GUID@@PEBU_ATL_CATMAP_ENTRY@1@H@Z 000000018003221c     ImageScanner.obj
 0004:00000228       $pdata$?AtlLoadTypeLib@ATL@@YAJPEAUHINSTANCE__@@PEB_WPEAPEA_WPEAPEAUITypeLib@@@Z 0000000180032228     ImageScanner.obj
 0004:00000234       $pdata$?AtlRegisterTypeLib@ATL@@YAJPEAUHINSTANCE__@@PEB_W@Z 0000000180032234     ImageScanner.obj
 0004:00000240       $pdata$?AtlUnRegisterTypeLib@ATL@@YAJPEAUHINSTANCE__@@PEB_W@Z 0000000180032240     ImageScanner.obj
 0004:0000024c       $pdata$?AtlComModuleRegisterServer@ATL@@YAJPEAU_ATL_COM_MODULE70@1@HPEBU_GUID@@@Z 000000018003224c     ImageScanner.obj
 0004:00000258       $pdata$?AtlComModuleUnregisterServer@ATL@@YAJPEAU_ATL_COM_MODULE70@1@HPEBU_GUID@@@Z 0000000180032258     ImageScanner.obj
 0004:00000264       $pdata$?AtlModuleAddTermFunc@ATL@@YAJPEAU_ATL_MODULE70@1@P6AX_K@Z1@Z 0000000180032264     ImageScanner.obj
 0004:00000270       $pdata$?AtlCallTermFunc@ATL@@YAXPEAU_ATL_MODULE70@1@@Z 0000000180032270     ImageScanner.obj
 0004:0000027c       $pdata$?AtlWinModuleExtractCreateWndData@ATL@@YAPEAXPEAU_ATL_WIN_MODULE70@1@@Z 000000018003227c     ImageScanner.obj
 0004:00000288       $pdata$?Create@CRegKey@ATL@@QEAAJPEAUHKEY__@@PEB_WPEA_WKKPEAU_SECURITY_ATTRIBUTES@@PEAK@Z 0000000180032288     ImageScanner.obj
 0004:00000294       $pdata$?Open@CRegKey@ATL@@QEAAJPEAUHKEY__@@PEB_WK@Z 0000000180032294     ImageScanner.obj
 0004:000002a0       $pdata$?RecurseDeleteKey@CRegKey@ATL@@QEAAJPEB_W@Z 00000001800322a0     ImageScanner.obj
 0004:000002ac       $pdata$??0CAtlModule@ATL@@QEAA@XZ 00000001800322ac     ImageScanner.obj
 0004:000002b8       $pdata$?GetGITPtr@CAtlModule@ATL@@UEAAJPEAPEAUIGlobalInterfaceTable@@@Z 00000001800322b8     ImageScanner.obj
 0004:000002c4       $pdata$?UpdateRegistryFromResource@CAtlModule@ATL@@QEAAJPEB_WHPEAU_ATL_REGMAP_ENTRY@2@@Z 00000001800322c4     ImageScanner.obj
 0004:000002d0       $pdata$?UpdateRegistryFromResource@CAtlModule@ATL@@QEAAJIHPEAU_ATL_REGMAP_ENTRY@2@@Z 00000001800322d0     ImageScanner.obj
 0004:000002dc       $pdata$?Term@CComModule@ATL@@QEAAXXZ 00000001800322dc     ImageScanner.obj
 0004:000002e8       $pdata$?GetClassObject@CComModule@ATL@@QEAAJAEBU_GUID@@0PEAPEAX@Z 00000001800322e8     ImageScanner.obj
 0004:000002f4       $pdata$?RegisterServer@CComModule@ATL@@QEAAJHPEBU_GUID@@@Z 00000001800322f4     ImageScanner.obj
 0004:00000300       $pdata$?UnregisterServer@CComModule@ATL@@QEAAJHPEBU_GUID@@@Z 0000000180032300     ImageScanner.obj
 0004:0000030c       $pdata$??_GCComModule@ATL@@UEAAPEAXI@Z 000000018003230c     ImageScanner.obj
 0004:00000318       $pdata$?Add@?$CSimpleMap@PEA_WPEA_WVCExpansionVectorEqualHelper@ATL@@@ATL@@QEAAHAEBQEA_W0@Z 0000000180032318     ImageScanner.obj
 0004:00000324       $pdata$?Lookup@?$CSimpleMap@PEA_WPEA_WVCExpansionVectorEqualHelper@ATL@@@ATL@@QEBAPEA_WAEBQEA_W@Z 0000000180032324     ImageScanner.obj
 0004:00000330       $pdata$?Add@CExpansionVector@ATL@@QEAAHPEB_W0@Z 0000000180032330     ImageScanner.obj
 0004:0000033c       $pdata$?ClearReplacements@CExpansionVector@ATL@@QEAAJXZ 000000018003233c     ImageScanner.obj
 0004:00000348       $pdata$?PreProcessBuffer@CRegParser@ATL@@QEAAJPEA_WPEAPEA_W@Z 0000000180032348     ImageScanner.obj
 0004:00000354       $pdata$?RegisterBuffer@CRegParser@ATL@@QEAAJPEA_WH@Z 0000000180032354     ImageScanner.obj
 0004:00000360       $pdata$?NextToken@CRegParser@ATL@@IEAAJPEA_W@Z 0000000180032360     ImageScanner.obj
 0004:0000036c       $pdata$?AddValue@CRegParser@ATL@@IEAAJAEAVCRegKey@2@PEB_WPEA_W@Z 000000018003236c     ImageScanner.obj
 0004:00000378       $pdata$?RegisterSubkeys@CRegParser@ATL@@IEAAJPEA_WPEAUHKEY__@@HH@Z 0000000180032378     ImageScanner.obj
 0004:00000384       $pdata$?SkipAssignment@CRegParser@ATL@@IEAAJPEA_W@Z 0000000180032384     ImageScanner.obj
 0004:00000390       $pdata$?HKeyFromString@CRegParser@ATL@@KAPEAUHKEY__@@PEA_W@Z 0000000180032390     ImageScanner.obj
 0004:0000039c       $pdata$?VTFromRegType@CRegParser@ATL@@KAHPEB_WAEAG@Z 000000018003239c     ImageScanner.obj
 0004:000003a8       $pdata$?Append@CParseBuffer@CRegParser@ATL@@QEAAHPEB_WH@Z 00000001800323a8     ImageScanner.obj
 0004:000003b4       $pdata$?AddReplacement@CRegObject@ATL@@UEAAJPEB_W0@Z 00000001800323b4     ImageScanner.obj
 0004:000003c0       $pdata$?RegisterFromResource@CRegObject@ATL@@IEAAJPEB_W00H@Z 00000001800323c0     ImageScanner.obj
 0004:000003cc       $pdata$??_GCRegObject@ATL@@UEAAPEAXI@Z 00000001800323cc     ImageScanner.obj
 0004:000003d8       $pdata$?AllocateHeap@?$CTempBuffer@_W$0EAA@VCCRTAllocator@ATL@@@ATL@@AEAAX_K@Z 00000001800323d8     ImageScanner.obj
 0004:000003d8       $pdata$?AllocateHeap@?$CTempBuffer@_W$0BAA@VCCRTAllocator@ATL@@@ATL@@AEAAX_K@Z 00000001800323d8     ImageScanner.obj
 0004:000003d8       $pdata$?AllocateHeap@?$CTempBuffer@E$0BAA@VCCRTAllocator@ATL@@@ATL@@AEAAX_K@Z 00000001800323d8     ImageScanner.obj
 0004:000003e4       $pdata$?IsEqualObject@?$CComPtrBase@UIOleClientSite@@@ATL@@QEAA_NPEAUIUnknown@@@Z 00000001800323e4     ImageScanner.obj
 0004:000003e4       $pdata$?IsEqualObject@?$CComPtrBase@UITypeInfo@@@ATL@@QEAA_NPEAUIUnknown@@@Z 00000001800323e4     ImageScanner.obj
 0004:000003f0       $pdata$?AtlIPersistStreamInit_Load@ATL@@YAJPEAUIStream@@PEBUATL_PROPMAP_ENTRY@1@PEAXPEAUIUnknown@@@Z 00000001800323f0     ImageScanner.obj
 0004:000003fc       $pdata$?AtlIPersistStreamInit_Save@ATL@@YAJPEAUIStream@@HPEBUATL_PROPMAP_ENTRY@1@PEAXPEAUIUnknown@@@Z 00000001800323fc     ImageScanner.obj
 0004:00000408       $pdata$?CreateInstance@CComClassFactory@ATL@@UEAAJPEAUIUnknown@@AEBU_GUID@@PEAPEAX@Z 0000000180032408     ImageScanner.obj
 0004:00000414       $pdata$?LockServer@CComClassFactory@ATL@@UEAAJH@Z 0000000180032414     ImageScanner.obj
 0004:00000420       $pdata$??_GCComClassFactory@ATL@@UEAAPEAXI@Z 0000000180032420     ImageScanner.obj
 0004:0000042c       $pdata$?GetTI@CComTypeInfoHolder@ATL@@QEAAJK@Z 000000018003242c     ImageScanner.obj
 0004:00000438       $pdata$?Cleanup@CComTypeInfoHolder@ATL@@SAX_K@Z 0000000180032438     ImageScanner.obj
 0004:00000444       $pdata$?GetIDsOfNames@CComTypeInfoHolder@ATL@@QEAAJAEBU_GUID@@PEAPEA_WIKPEAJ@Z 0000000180032444     ImageScanner.obj
 0004:00000450       $pdata$?LoadNameCache@CComTypeInfoHolder@ATL@@QEAAJPEAUITypeInfo@@@Z 0000000180032450     ImageScanner.obj
 0004:0000045c       $pdata$?Add@CComDynamicUnkArray@ATL@@QEAAKPEAUIUnknown@@@Z 000000018003245c     ImageScanner.obj
 0004:00000468       $pdata$?AtlCreateTargetDC@ATL@@YAPEAUHDC__@@PEAU2@PEAUtagDVTARGETDEVICE@@@Z 0000000180032468     ImageScanner.obj
 0004:00000474       $pdata$?AtlHiMetricToPixel@ATL@@YAXPEBUtagSIZE@@PEAU2@@Z 0000000180032474     ImageScanner.obj
 0004:00000480       $pdata$?DefaultReflectionHandler@?$CWindowImplRoot@VCWindow@ATL@@@ATL@@SAHPEAUHWND__@@I_K_JAEA_J@Z 0000000180032480     ImageScanner.obj
 0004:0000048c       $pdata$?StartWindowProc@?$CWindowImplBaseT@VCWindow@ATL@@V?$CWinTraits@$0FGAAAAAA@$0A@@2@@ATL@@SA_JPEAUHWND__@@I_K_J@Z 000000018003248c     ImageScanner.obj
 0004:00000498       $pdata$?WindowProc@?$CWindowImplBaseT@VCWindow@ATL@@V?$CWinTraits@$0FGAAAAAA@$0A@@2@@ATL@@SA_JPEAUHWND__@@I_K_J@Z 0000000180032498     ImageScanner.obj
 0004:000004a4       $pdata$?Create@?$CWindowImplBaseT@VCWindow@ATL@@V?$CWinTraits@$0FGAAAAAA@$0A@@2@@ATL@@QEAAPEAUHWND__@@PEAU3@V_U_RECT@2@PEB_WKKV_U_MENUorID@2@GPEAX@Z 00000001800324a4     ImageScanner.obj
 0004:000004b0       $pdata$??$AtlModuleRegisterWndClassInfoT@VAtlModuleRegisterWndClassInfoParamW@ATL@@@ATL@@YAGPEAU_ATL_BASE_MODULE70@0@PEAU_ATL_WIN_MODULE70@0@PEAU_ATL_WNDCLASSINFOW@0@PEAP6A_JPEAUHWND__@@I_K_J@ZVAtlModuleRegisterWndClassInfoParamW@0@@Z 00000001800324b0     ImageScanner.obj
 0004:000004bc       $pdata$?GetZoomInfo@CComControlBase@ATL@@QEAAXAEAUATL_DRAWINFO@@@Z 00000001800324bc     ImageScanner.obj
 0004:000004c8       $pdata$?SendOnDataChange@CComControlBase@ATL@@QEAAJK@Z 00000001800324c8     ImageScanner.obj
 0004:000004d4       $pdata$?OnSetFocus@CComControlBase@ATL@@QEAA_JI_K_JAEAH@Z 00000001800324d4     ImageScanner.obj
 0004:000004e0       $pdata$?OnKillFocus@CComControlBase@ATL@@QEAA_JI_K_JAEAH@Z 00000001800324e0     ImageScanner.obj
 0004:000004ec       $pdata$?OnMouseActivate@CComControlBase@ATL@@QEAA_JI_K_JAEAH@Z 00000001800324ec     ImageScanner.obj
 0004:000004f8       $pdata$?GetAmbientLocaleID@CComControlBase@ATL@@QEAAJAEAK@Z 00000001800324f8     ImageScanner.obj
 0004:00000504       $pdata$?GetAmbientUserMode@CComControlBase@ATL@@QEAAJAEAH@Z 0000000180032504     ImageScanner.obj
 0004:00000510       $pdata$?SetControlFocus@CComControlBase@ATL@@QEAAHH@Z 0000000180032510     ImageScanner.obj
 0004:0000051c       $pdata$?IQuickActivate_QuickActivate@CComControlBase@ATL@@QEAAJPEAUtagQACONTAINER@@PEAUtagQACONTROL@@@Z 000000018003251c     ImageScanner.obj
 0004:00000528       $pdata$?DoVerbProperties@CComControlBase@ATL@@QEAAJPEBUtagRECT@@PEAUHWND__@@@Z 0000000180032528     ImageScanner.obj
 0004:00000534       $pdata$?InPlaceActivate@CComControlBase@ATL@@QEAAJJPEBUtagRECT@@@Z 0000000180032534     ImageScanner.obj
 0004:00000540       $pdata$?IOleObject_SetClientSite@CComControlBase@ATL@@QEAAJPEAUIOleClientSite@@@Z 0000000180032540     ImageScanner.obj
 0004:0000054c       $pdata$?IOleObject_Close@CComControlBase@ATL@@QEAAJK@Z 000000018003254c     ImageScanner.obj
 0004:00000558       $pdata$?IOleObject_SetExtent@CComControlBase@ATL@@QEAAJKPEAUtagSIZE@@@Z 0000000180032558     ImageScanner.obj
 0004:00000564       $pdata$?IOleInPlaceObject_InPlaceDeactivate@CComControlBase@ATL@@QEAAJXZ 0000000180032564     ImageScanner.obj
 0004:00000570       $pdata$?IOleInPlaceObject_UIDeactivate@CComControlBase@ATL@@QEAAJXZ 0000000180032570     ImageScanner.obj
 0004:0000057c       $pdata$?IOleInPlaceObject_SetObjectRects@CComControlBase@ATL@@QEAAJPEBUtagRECT@@0@Z 000000018003257c     ImageScanner.obj
 0004:00000588       $pdata$?IViewObject_Draw@CComControlBase@ATL@@QEAAJKJPEAXPEAUtagDVTARGETDEVICE@@PEAUHDC__@@2PEBU_RECTL@@3@Z 0000000180032588     ImageScanner.obj
 0004:00000594       $pdata$?IDataObject_GetData@CComControlBase@ATL@@QEAAJPEAUtagFORMATETC@@PEAUtagSTGMEDIUM@@@Z 0000000180032594     ImageScanner.obj
 0004:000005a0       $pdata$?FireViewChange@CComControlBase@ATL@@QEAAJXZ 00000001800325a0     ImageScanner.obj
 0004:000005ac       $pdata$?OnPaint@CComControlBase@ATL@@QEAA_JI_K_JAEAH@Z 00000001800325ac     ImageScanner.obj
 0004:000005b8       $pdata$?OnDrawAdvanced@CComControlBase@ATL@@UEAAJAEAUATL_DRAWINFO@@@Z 00000001800325b8     ImageScanner.obj
 0004:000005c4       $pdata$?GetTypeInfo@?$IDispatchImpl@UIOPOSImageScanner@@$1?IID_IOPOSImageScanner@@3U_GUID@@B$1?LIBID_OposImageScanner_CCO@@3U3@B$00$0A@VCComTypeInfoHolder@ATL@@@ATL@@UEAAJIKPEAPEAUITypeInfo@@@Z 00000001800325c4     ImageScanner.obj
 0004:000005d0       $pdata$?Invoke@?$IDispatchImpl@UIOPOSImageScanner@@$1?IID_IOPOSImageScanner@@3U_GUID@@B$1?LIBID_OposImageScanner_CCO@@3U3@B$00$0A@VCComTypeInfoHolder@ATL@@@ATL@@UEAAJJAEBU_GUID@@KGPEAUtagDISPPARAMS@@PEAUtagVARIANT@@PEAUtagEXCEPINFO@@PEAI@Z 00000001800325d0     ImageScanner.obj
 0004:000005dc       $pdata$?Create@?$CWindowImpl@VCOPOSImageScanner@@VCWindow@ATL@@V?$CWinTraits@$0FGAAAAAA@$0A@@3@@ATL@@QEAAPEAUHWND__@@PEAU3@V_U_RECT@2@PEB_WKKV_U_MENUorID@2@PEAX@Z 00000001800325dc     ImageScanner.obj
 0004:000005e8       $pdata$?CreateControlWindow@?$CComControl@VCOPOSImageScanner@@V?$CWindowImpl@VCOPOSImageScanner@@VCWindow@ATL@@V?$CWinTraits@$0FGAAAAAA@$0A@@3@@ATL@@@ATL@@UEAAPEAUHWND__@@PEAU3@AEAUtagRECT@@@Z 00000001800325e8     ImageScanner.obj
 0004:000005f4       $pdata$?ProcessWindowMessage@?$CComControl@VCOPOSImageScanner@@V?$CWindowImpl@VCOPOSImageScanner@@VCWindow@ATL@@V?$CWinTraits@$0FGAAAAAA@$0A@@3@@ATL@@@ATL@@UEAAHPEAUHWND__@@I_K_JAEA_JK@Z 00000001800325f4     ImageScanner.obj
 0004:00000600       $pdata$?Load@?$IPersistStreamInitImpl@VCOPOSImageScanner@@@ATL@@UEAAJPEAUIStream@@@Z 0000000180032600     ImageScanner.obj
 0004:0000060c       $pdata$?Save@?$IPersistStreamInitImpl@VCOPOSImageScanner@@@ATL@@UEAAJPEAUIStream@@H@Z 000000018003260c     ImageScanner.obj
 0004:00000618       $pdata$?GetSizeMax@?$IPersistStreamInitImpl@VCOPOSImageScanner@@@ATL@@UEAAJPEAT_ULARGE_INTEGER@@@Z 0000000180032618     ImageScanner.obj
 0004:00000624       $pdata$?GetClientSite@?$IOleObjectImpl@VCOPOSImageScanner@@@ATL@@UEAAJPEAPEAUIOleClientSite@@@Z 0000000180032624     ImageScanner.obj
 0004:00000630       $pdata$?DoVerbPrimary@?$IOleObjectImpl@VCOPOSImageScanner@@@ATL@@QEAAJPEBUtagRECT@@PEAUHWND__@@@Z 0000000180032630     ImageScanner.obj
 0004:0000063c       $pdata$?DoVerb@?$IOleObjectImpl@VCOPOSImageScanner@@@ATL@@UEAAJJPEAUtagMSG@@PEAUIOleClientSite@@JPEAUHWND__@@PEBUtagRECT@@@Z 000000018003263c     ImageScanner.obj
 0004:00000648       $pdata$?Advise@?$IOleObjectImpl@VCOPOSImageScanner@@@ATL@@UEAAJPEAUIAdviseSink@@PEAK@Z 0000000180032648     ImageScanner.obj
 0004:00000654       $pdata$?Unadvise@?$IOleObjectImpl@VCOPOSImageScanner@@@ATL@@UEAAJK@Z 0000000180032654     ImageScanner.obj
 0004:00000660       $pdata$?EnumAdvise@?$IOleObjectImpl@VCOPOSImageScanner@@@ATL@@UEAAJPEAPEAUIEnumSTATDATA@@@Z 0000000180032660     ImageScanner.obj
 0004:0000066c       $pdata$?TranslateAcceleratorW@?$IOleInPlaceActiveObjectImpl@VCOPOSImageScanner@@@ATL@@UEAAJPEAUtagMSG@@@Z 000000018003266c     ImageScanner.obj
 0004:00000678       $pdata$?OnDocWindowActivate@?$IOleInPlaceActiveObjectImpl@VCOPOSImageScanner@@@ATL@@UEAAJH@Z 0000000180032678     ImageScanner.obj
 0004:00000684       $pdata$?Draw@?$IViewObjectExImpl@VCOPOSImageScanner@@@ATL@@UEAAJKJPEAXPEAUtagDVTARGETDEVICE@@PEAUHDC__@@2PEBU_RECTL@@3P6AH_K@Z4@Z 0000000180032684     ImageScanner.obj
 0004:00000690       $pdata$?SetAdvise@?$IViewObjectExImpl@VCOPOSImageScanner@@@ATL@@UEAAJKKPEAUIAdviseSink@@@Z 0000000180032690     ImageScanner.obj
 0004:0000069c       $pdata$?GetAdvise@?$IViewObjectExImpl@VCOPOSImageScanner@@@ATL@@UEAAJPEAK0PEAPEAUIAdviseSink@@@Z 000000018003269c     ImageScanner.obj
 0004:000006a8       $pdata$?QueryHitPoint@?$IViewObjectExImpl@VCOPOSImageScanner@@@ATL@@UEAAJKPEBUtagRECT@@UtagPOINT@@JPEAK@Z 00000001800326a8     ImageScanner.obj
 0004:000006b4       $pdata$?QueryHitRect@?$IViewObjectExImpl@VCOPOSImageScanner@@@ATL@@UEAAJKPEBUtagRECT@@0JPEAK@Z 00000001800326b4     ImageScanner.obj
 0004:000006c0       $pdata$?OnWindowMessage@?$IOleInPlaceObjectWindowlessImpl@VCOPOSImageScanner@@@ATL@@UEAAJI_K_JPEA_J@Z 00000001800326c0     ImageScanner.obj
 0004:000006cc       $pdata$?EnumConnectionPoints@?$IConnectionPointContainerImpl@VCOPOSImageScanner@@@ATL@@UEAAJPEAPEAUIEnumConnectionPoints@@@Z 00000001800326cc     ImageScanner.obj
 0004:000006d8       $pdata$?FindConnectionPoint@?$IConnectionPointContainerImpl@VCOPOSImageScanner@@@ATL@@UEAAJAEBU_GUID@@PEAPEAUIConnectionPoint@@@Z 00000001800326d8     ImageScanner.obj
 0004:000006e4       $pdata$?IsDirty@?$IPersistStorageImpl@VCOPOSImageScanner@@@ATL@@UEAAJXZ 00000001800326e4     ImageScanner.obj
 0004:000006f0       $pdata$?InitNew@?$IPersistStorageImpl@VCOPOSImageScanner@@@ATL@@UEAAJPEAUIStorage@@@Z 00000001800326f0     ImageScanner.obj
 0004:000006fc       $pdata$?Load@?$IPersistStorageImpl@VCOPOSImageScanner@@@ATL@@UEAAJPEAUIStorage@@@Z 00000001800326fc     ImageScanner.obj
 0004:00000708       $pdata$?Save@?$IPersistStorageImpl@VCOPOSImageScanner@@@ATL@@UEAAJPEAUIStorage@@H@Z 0000000180032708     ImageScanner.obj
 0004:00000714       $pdata$?IPSI_GetIPersistStreamInit@?$IPersistStorageImpl@VCOPOSImageScanner@@@ATL@@AEAAPEAUIPersistStreamInit@@XZ 0000000180032714     ImageScanner.obj
 0004:00000720       $pdata$?GetPagesHelper@?$ISpecifyPropertyPagesImpl@VCOPOSImageScanner@@@ATL@@IEAAJPEAUtagCAUUID@@PEBUATL_PROPMAP_ENTRY@2@@Z 0000000180032720     ImageScanner.obj
 0004:0000072c       $pdata$?DAdvise@?$IDataObjectImpl@VCOPOSImageScanner@@@ATL@@UEAAJPEAUtagFORMATETC@@KPEAUIAdviseSink@@PEAK@Z 000000018003272c     ImageScanner.obj
 0004:00000738       $pdata$?GetClassInfoW@?$IProvideClassInfo2Impl@$1?CLSID_OPOSImageScanner@@3U_GUID@@B$1?DIID__IOPOSImageScannerEvents@@3U2@B$1?LIBID_OposImageScanner_CCO@@3U2@B$00$0A@VCComTypeInfoHolder@ATL@@@ATL@@UEAAJPEAPEAUITypeInfo@@@Z 0000000180032738     ImageScanner.obj
 0004:00000744       $pdata$?GetInterfaceSafetyOptions@?$IObjectSafetyImpl@VCOPOSImageScanner@@$02@ATL@@UEAAJAEBU_GUID@@PEAK1@Z 0000000180032744     ImageScanner.obj
 0004:00000750       $pdata$?SetInterfaceSafetyOptions@?$IObjectSafetyImpl@VCOPOSImageScanner@@$02@ATL@@UEAAJAEBU_GUID@@KK@Z 0000000180032750     ImageScanner.obj
 0004:0000075c       $pdata$?_LocCPQueryInterface@?$IConnectionPointImpl@VCOPOSImageScanner@@$1?IID_IPropertyNotifySink@@3U_GUID@@BVCComDynamicUnkArray@ATL@@@ATL@@UEAAJAEBU_GUID@@PEAPEAX@Z 000000018003275c     ImageScanner.obj
 0004:0000075c       $pdata$?_LocCPQueryInterface@?$IConnectionPointImpl@VCOPOSImageScanner@@$1?DIID__IOPOSImageScannerEvents@@3U_GUID@@BVCComDynamicUnkArray@ATL@@@ATL@@UEAAJAEBU_GUID@@PEAPEAX@Z 000000018003275c     ImageScanner.obj
 0004:00000768       $pdata$?Advise@?$IConnectionPointImpl@VCOPOSImageScanner@@$1?DIID__IOPOSImageScannerEvents@@3U_GUID@@BVCComDynamicUnkArray@ATL@@@ATL@@UEAAJPEAUIUnknown@@PEAK@Z 0000000180032768     ImageScanner.obj
 0004:00000768       $pdata$?Advise@?$IConnectionPointImpl@VCOPOSImageScanner@@$1?IID_IPropertyNotifySink@@3U_GUID@@BVCComDynamicUnkArray@ATL@@@ATL@@UEAAJPEAUIUnknown@@PEAK@Z 0000000180032768     ImageScanner.obj
 0004:00000774       $pdata$?Unadvise@?$IConnectionPointImpl@VCOPOSImageScanner@@$1?DIID__IOPOSImageScannerEvents@@3U_GUID@@BVCComDynamicUnkArray@ATL@@@ATL@@UEAAJK@Z 0000000180032774     ImageScanner.obj
 0004:00000774       $pdata$?Unadvise@?$IConnectionPointImpl@VCOPOSImageScanner@@$1?IID_IPropertyNotifySink@@3U_GUID@@BVCComDynamicUnkArray@ATL@@@ATL@@UEAAJK@Z 0000000180032774     ImageScanner.obj
 0004:00000780       $pdata$?EnumConnections@?$IConnectionPointImpl@VCOPOSImageScanner@@$1?DIID__IOPOSImageScannerEvents@@3U_GUID@@BVCComDynamicUnkArray@ATL@@@ATL@@UEAAJPEAPEAUIEnumConnections@@@Z 0000000180032780     ImageScanner.obj
 0004:00000780       $pdata$?EnumConnections@?$IConnectionPointImpl@VCOPOSImageScanner@@$1?IID_IPropertyNotifySink@@3U_GUID@@BVCComDynamicUnkArray@ATL@@@ATL@@UEAAJPEAPEAUIEnumConnections@@@Z 0000000180032780     ImageScanner.obj
 0004:0000078c       $pdata$?Fire_DataEvent@?$CProxy_IOPOSEvents@VCOPOSImageScanner@@@@QEAAXJ@Z 000000018003278c     ImageScanner.obj
 0004:00000798       $pdata$?Fire_DirectIOEvent@?$CProxy_IOPOSEvents@VCOPOSImageScanner@@@@QEAAXJPEAJPEAPEA_W@Z 0000000180032798     ImageScanner.obj
 0004:000007a4       $pdata$?Fire_ErrorEvent@?$CProxy_IOPOSEvents@VCOPOSImageScanner@@@@QEAAXJJJPEAJ@Z 00000001800327a4     ImageScanner.obj
 0004:000007b0       $pdata$?Fire_StatusUpdateEvent@?$CProxy_IOPOSEvents@VCOPOSImageScanner@@@@QEAAXJ@Z 00000001800327b0     ImageScanner.obj
 0004:000007bc       $pdata$?FireTheEvent@?$CProxy_IOPOSEvents@VCOPOSImageScanner@@@@IEAAXPEAVOposVariant@@IAEAJPEB_WJ@Z 00000001800327bc     ImageScanner.obj
 0004:000007c8       $pdata$?GetConnMap@COPOSImageScanner@@SAPEBU_ATL_CONNMAP_ENTRY@ATL@@PEAH@Z 00000001800327c8     ImageScanner.obj
 0004:000007d4       $pdata$?ProcessWindowMessage@COPOSImageScanner@@UEAAHPEAUHWND__@@I_K_JAEA_JK@Z 00000001800327d4     ImageScanner.obj
 0004:000007e0       $pdata$?SOData@COPOSImageScanner@@MEAAJJ@Z 00000001800327e0     ImageScanner.obj
 0004:000007ec       $pdata$?SODirectIO@COPOSImageScanner@@MEAAJJPEAJPEAPEA_W@Z 00000001800327ec     ImageScanner.obj
 0004:000007f8       $pdata$?SOError@COPOSImageScanner@@MEAAJJJJPEAJ@Z 00000001800327f8     ImageScanner.obj
 0004:00000804       $pdata$?SOStatusUpdate@COPOSImageScanner@@MEAAJJ@Z 0000000180032804     ImageScanner.obj
 0004:00000810       $pdata$?DoEvent@COPOSImageScanner@@IEAAXI_K_J@Z 0000000180032810     ImageScanner.obj
 0004:0000081c       $pdata$??__E_Module@@YAXXZ 000000018003281c     ImageScanner.obj
 0004:00000828       $pdata$??__F_Module@@YAXXZ 0000000180032828     ImageScanner.obj
 0004:00000834       $pdata$?CreateInstance@?$CComCreator@V?$CComObjectCached@VCComClassFactory@ATL@@@ATL@@@ATL@@SAJPEAXAEBU_GUID@@PEAPEAX@Z 0000000180032834     ImageScanner.obj
 0004:00000840       $pdata$DllMain             0000000180032840     ImageScanner.obj
 0004:0000084c       $pdata$?CreateInstance@?$CComCreator@V?$CComObject@VCOPOSImageScanner@@@ATL@@@ATL@@SAJPEAXAEBU_GUID@@PEAPEAX@Z 000000018003284c     ImageScanner.obj
 0004:00000858       $pdata$?CreateInstance@?$CComCreator@V?$CComAggObject@VCOPOSImageScanner@@@ATL@@@ATL@@SAJPEAXAEBU_GUID@@PEAPEAX@Z 0000000180032858     ImageScanner.obj
 0004:00000864       $pdata$??1?$CComEnumImpl@UIEnumConnectionPoints@@$1?_GUID_b196b285_bab4_101a_b69c_00aa00341d07@@3U__s_GUID@@BPEAUIConnectionPoint@@V?$_CopyInterface@UIConnectionPoint@@@ATL@@@ATL@@UEAA@XZ 0000000180032864     ImageScanner.obj
 0004:00000870       $pdata$?Next@?$CComEnumImpl@UIEnumConnectionPoints@@$1?_GUID_b196b285_bab4_101a_b69c_00aa00341d07@@3U__s_GUID@@BPEAUIConnectionPoint@@V?$_CopyInterface@UIConnectionPoint@@@ATL@@@ATL@@UEAAJKPEAPEAUIConnectionPoint@@PEAK@Z 0000000180032870     ImageScanner.obj
 0004:0000087c       $pdata$?Clone@?$CComEnumImpl@UIEnumConnectionPoints@@$1?_GUID_b196b285_bab4_101a_b69c_00aa00341d07@@3U__s_GUID@@BPEAUIConnectionPoint@@V?$_CopyInterface@UIConnectionPoint@@@ATL@@@ATL@@UEAAJPEAPEAUIEnumConnectionPoints@@@Z 000000018003287c     ImageScanner.obj
 0004:00000888       $pdata$?Init@?$CComEnumImpl@UIEnumConnectionPoints@@$1?_GUID_b196b285_bab4_101a_b69c_00aa00341d07@@3U__s_GUID@@BPEAUIConnectionPoint@@V?$_CopyInterface@UIConnectionPoint@@@ATL@@@ATL@@QEAAJPEAPEAUIConnectionPoint@@0PEAUIUnknown@@W4CComEnumFlags@2@@Z 0000000180032888     ImageScanner.obj
 0004:00000894       $pdata$?Release@?$CComObject@V?$CComEnum@UIEnumConnectionPoints@@$1?_GUID_b196b285_bab4_101a_b69c_00aa00341d07@@3U__s_GUID@@BPEAUIConnectionPoint@@V?$_CopyInterface@UIConnectionPoint@@@ATL@@VCComSingleThreadModel@6@@ATL@@@ATL@@UEAAKXZ 0000000180032894     ImageScanner.obj
 0004:00000894       $pdata$?Release@?$CComObject@V?$CComEnum@UIEnumConnections@@$1?_GUID_b196b287_bab4_101a_b69c_00aa00341d07@@3U__s_GUID@@BUtagCONNECTDATA@@V?$_Copy@UtagCONNECTDATA@@@ATL@@VCComSingleThreadModel@6@@ATL@@@ATL@@UEAAKXZ 0000000180032894     ImageScanner.obj
 0004:000008a0       $pdata$?CreateInstance@?$CComObject@V?$CComEnum@UIEnumConnectionPoints@@$1?_GUID_b196b285_bab4_101a_b69c_00aa00341d07@@3U__s_GUID@@BPEAUIConnectionPoint@@V?$_CopyInterface@UIConnectionPoint@@@ATL@@VCComSingleThreadModel@6@@ATL@@@ATL@@SAJPEAPEAV12@@Z 00000001800328a0     ImageScanner.obj
 0004:000008ac       $pdata$??_G?$CComObject@V?$CComEnum@UIEnumConnectionPoints@@$1?_GUID_b196b285_bab4_101a_b69c_00aa00341d07@@3U__s_GUID@@BPEAUIConnectionPoint@@V?$_CopyInterface@UIConnectionPoint@@@ATL@@VCComSingleThreadModel@6@@ATL@@@ATL@@UEAAPEAXI@Z 00000001800328ac     ImageScanner.obj
 0004:000008b8       $pdata$?AddRef@?$CComObjectCached@VCComClassFactory@ATL@@@ATL@@UEAAKXZ 00000001800328b8     ImageScanner.obj
 0004:000008c4       $pdata$?Release@?$CComObjectCached@VCComClassFactory@ATL@@@ATL@@UEAAKXZ 00000001800328c4     ImageScanner.obj
 0004:000008d0       $pdata$??_G?$CComObjectCached@VCComClassFactory@ATL@@@ATL@@UEAAPEAXI@Z 00000001800328d0     ImageScanner.obj
 0004:000008dc       $pdata$?Release@?$CComAggObject@VCOPOSImageScanner@@@ATL@@UEAAKXZ 00000001800328dc     ImageScanner.obj
 0004:000008e8       $pdata$?QueryInterface@?$CComAggObject@VCOPOSImageScanner@@@ATL@@UEAAJAEBU_GUID@@PEAPEAX@Z 00000001800328e8     ImageScanner.obj
 0004:000008f4       $pdata$??0?$CComContainedObject@VCOPOSImageScanner@@@ATL@@QEAA@PEAX@Z 00000001800328f4     ImageScanner.obj
 0004:00000900       $pdata$??_G?$CComContainedObject@VCOPOSImageScanner@@@ATL@@UEAAPEAXI@Z 0000000180032900     ImageScanner.obj
 0004:0000090c       $pdata$??_G?$CComAggObject@VCOPOSImageScanner@@@ATL@@UEAAPEAXI@Z 000000018003290c     ImageScanner.obj
 0004:00000918       $pdata$??0?$CComObject@VCOPOSImageScanner@@@ATL@@QEAA@PEAX@Z 0000000180032918     ImageScanner.obj
 0004:00000924       $pdata$??1?$CComObject@VCOPOSImageScanner@@@ATL@@UEAA@XZ 0000000180032924     ImageScanner.obj
 0004:00000930       $pdata$?Release@?$CComObject@VCOPOSImageScanner@@@ATL@@UEAAKXZ 0000000180032930     ImageScanner.obj
 0004:0000093c       $pdata$??_G?$CComObject@VCOPOSImageScanner@@@ATL@@UEAAPEAXI@Z 000000018003293c     ImageScanner.obj
 0004:00000948       $pdata$??__E?pConnMap@?$IConnectionPointContainerImpl@VCOPOSImageScanner@@@ATL@@0PEBU_ATL_CONNMAP_ENTRY@2@EB@@YAXXZ 0000000180032948     ImageScanner.obj
 0004:00000954       $pdata$??1?$CComEnumImpl@UIEnumConnections@@$1?_GUID_b196b287_bab4_101a_b69c_00aa00341d07@@3U__s_GUID@@BUtagCONNECTDATA@@V?$_Copy@UtagCONNECTDATA@@@ATL@@@ATL@@UEAA@XZ 0000000180032954     ImageScanner.obj
 0004:00000960       $pdata$?Next@?$CComEnumImpl@UIEnumConnections@@$1?_GUID_b196b287_bab4_101a_b69c_00aa00341d07@@3U__s_GUID@@BUtagCONNECTDATA@@V?$_Copy@UtagCONNECTDATA@@@ATL@@@ATL@@UEAAJKPEAUtagCONNECTDATA@@PEAK@Z 0000000180032960     ImageScanner.obj
 0004:0000096c       $pdata$?Clone@?$CComEnumImpl@UIEnumConnections@@$1?_GUID_b196b287_bab4_101a_b69c_00aa00341d07@@3U__s_GUID@@BUtagCONNECTDATA@@V?$_Copy@UtagCONNECTDATA@@@ATL@@@ATL@@UEAAJPEAPEAUIEnumConnections@@@Z 000000018003296c     ImageScanner.obj
 0004:00000978       $pdata$?Init@?$CComEnumImpl@UIEnumConnections@@$1?_GUID_b196b287_bab4_101a_b69c_00aa00341d07@@3U__s_GUID@@BUtagCONNECTDATA@@V?$_Copy@UtagCONNECTDATA@@@ATL@@@ATL@@QEAAJPEAUtagCONNECTDATA@@0PEAUIUnknown@@W4CComEnumFlags@2@@Z 0000000180032978     ImageScanner.obj
 0004:00000984       $pdata$?CreateInstance@?$CComObject@V?$CComEnum@UIEnumConnections@@$1?_GUID_b196b287_bab4_101a_b69c_00aa00341d07@@3U__s_GUID@@BUtagCONNECTDATA@@V?$_Copy@UtagCONNECTDATA@@@ATL@@VCComSingleThreadModel@6@@ATL@@@ATL@@SAJPEAPEAV12@@Z 0000000180032984     ImageScanner.obj
 0004:00000990       $pdata$??_G?$CComObject@V?$CComEnum@UIEnumConnections@@$1?_GUID_b196b287_bab4_101a_b69c_00aa00341d07@@3U__s_GUID@@BUtagCONNECTDATA@@V?$_Copy@UtagCONNECTDATA@@@ATL@@VCComSingleThreadModel@6@@ATL@@@ATL@@UEAAPEAXI@Z 0000000180032990     ImageScanner.obj
 0004:0000099c       $pdata$??1CComControlBase@ATL@@UEAA@XZ 000000018003299c     ImageScannerImpl.obj
 0004:000009a8       $pdata$??1?$IConnectionPointImpl@VCOPOSImageScanner@@$1?IID_IPropertyNotifySink@@3U_GUID@@BVCComDynamicUnkArray@ATL@@@ATL@@QEAA@XZ 00000001800329a8     ImageScannerImpl.obj
 0004:000009a8       $pdata$??1?$IConnectionPointImpl@VCOPOSImageScanner@@$1?DIID__IOPOSImageScannerEvents@@3U_GUID@@BVCComDynamicUnkArray@ATL@@@ATL@@QEAA@XZ 00000001800329a8     ImageScannerImpl.obj
 0004:000009b4       $pdata$?FinalConstruct@COPOSImageScanner@@QEAAJXZ 00000001800329b4     ImageScannerImpl.obj
 0004:000009c0       $pdata$??1COPOSImageScanner@@UEAA@XZ 00000001800329c0     ImageScannerImpl.obj
 0004:000009cc       $pdata$?GetOposProp@COPOSImageScanner@@IEAAJJPEAJJ@Z 00000001800329cc     ImageScannerImpl.obj
 0004:000009d8       $pdata$?SetOposProp@COPOSImageScanner@@IEAAJJJJ@Z 00000001800329d8     ImageScannerImpl.obj
 0004:000009e4       $pdata$?GetOposProp@COPOSImageScanner@@IEAAJJPEAPEA_WJ@Z 00000001800329e4     ImageScannerImpl.obj
 0004:000009f0       $pdata$?DoInvoke@COPOSImageScanner@@IEAAJJPEAVOposVariant@@IHPEAJ_N@Z 00000001800329f0     ImageScannerImpl.obj
 0004:000009fc       $pdata$?SetCOFreezeEvents@COPOSImageScanner@@IEAAXF@Z 00000001800329fc     ImageScannerImpl.obj
 0004:00000a08       $pdata$?FreezeEvents@COPOSImageScanner@@MEAAJH@Z 0000000180032a08     ImageScannerImpl.obj
 0004:00000a14       $pdata$?OnDraw@COPOSImageScanner@@MEAAJAEAUATL_DRAWINFO@@@Z 0000000180032a14     ImageScannerImpl.obj
 0004:00000a20       $pdata$?EventInit@COPOSImageScanner@@IEAAJXZ 0000000180032a20     ImageScannerImpl.obj
 0004:00000a2c       $pdata$?EventUninit@COPOSImageScanner@@IEAAXXZ 0000000180032a2c     ImageScannerImpl.obj
 0004:00000a38       $pdata$?s_EventWindowProc@COPOSImageScanner@@KA_JPEAUHWND__@@I_K_J@Z 0000000180032a38     ImageScannerImpl.obj
 0004:00000a44       $pdata$?EventWindowProc@COPOSImageScanner@@IEAA_JI_K_J@Z 0000000180032a44     ImageScannerImpl.obj
 0004:00000a50       $pdata$?SOProcessID@COPOSImageScanner@@UEAAJPEAJ@Z 0000000180032a50     ImageScannerImpl.obj
 0004:00000a5c       $pdata$?get_AutoDisable@COPOSImageScanner@@UEAAJPEAF@Z 0000000180032a5c     ImageScannerImpl.obj
 0004:00000a68       $pdata$?get_Claimed@COPOSImageScanner@@UEAAJPEAF@Z 0000000180032a68     ImageScannerImpl.obj
 0004:00000a74       $pdata$?get_DataEventEnabled@COPOSImageScanner@@UEAAJPEAF@Z 0000000180032a74     ImageScannerImpl.obj
 0004:00000a80       $pdata$?get_DeviceEnabled@COPOSImageScanner@@UEAAJPEAF@Z 0000000180032a80     ImageScannerImpl.obj
 0004:00000a8c       $pdata$?get_FreezeEvents@COPOSImageScanner@@UEAAJPEAF@Z 0000000180032a8c     ImageScannerImpl.obj
 0004:00000a98       $pdata$?put_FreezeEvents@COPOSImageScanner@@UEAAJF@Z 0000000180032a98     ImageScannerImpl.obj
 0004:00000aa4       $pdata$?get_ResultCode@COPOSImageScanner@@UEAAJPEAJ@Z 0000000180032aa4     ImageScannerImpl.obj
 0004:00000ab0       $pdata$?get_State@COPOSImageScanner@@UEAAJPEAJ@Z 0000000180032ab0     ImageScannerImpl.obj
 0004:00000abc       $pdata$?get_ControlObjectDescription@COPOSImageScanner@@UEAAJPEAPEA_W@Z 0000000180032abc     ImageScannerImpl.obj
 0004:00000ac8       $pdata$?get_CapStatisticsReporting@COPOSImageScanner@@UEAAJPEAF@Z 0000000180032ac8     ImageScannerImpl.obj
 0004:00000ad4       $pdata$?get_CapUpdateStatistics@COPOSImageScanner@@UEAAJPEAF@Z 0000000180032ad4     ImageScannerImpl.obj
 0004:00000ae0       $pdata$?get_CapCompareFirmwareVersion@COPOSImageScanner@@UEAAJPEAF@Z 0000000180032ae0     ImageScannerImpl.obj
 0004:00000aec       $pdata$?get_CapUpdateFirmware@COPOSImageScanner@@UEAAJPEAF@Z 0000000180032aec     ImageScannerImpl.obj
 0004:00000af8       $pdata$?CheckHealth@COPOSImageScanner@@UEAAJJPEAJ@Z 0000000180032af8     ImageScannerImpl.obj
 0004:00000b04       $pdata$?ClaimDevice@COPOSImageScanner@@UEAAJJPEAJ@Z 0000000180032b04     ImageScannerImpl.obj
 0004:00000b10       $pdata$?ClearInput@COPOSImageScanner@@UEAAJPEAJ@Z 0000000180032b10     ImageScannerImpl.obj
 0004:00000b1c       $pdata$?Close@COPOSImageScanner@@UEAAJPEAJ@Z 0000000180032b1c     ImageScannerImpl.obj
 0004:00000b28       $pdata$?DirectIO@COPOSImageScanner@@UEAAJJPEAJPEAPEA_W0@Z 0000000180032b28     ImageScannerImpl.obj
 0004:00000b34       $pdata$?Open@COPOSImageScanner@@UEAAJPEA_WPEAJ@Z 0000000180032b34     ImageScannerImpl.obj
 0004:00000b40       $pdata$?ReleaseDevice@COPOSImageScanner@@UEAAJPEAJ@Z 0000000180032b40     ImageScannerImpl.obj
 0004:00000b4c       $pdata$?ResetStatistics@COPOSImageScanner@@UEAAJPEA_WPEAJ@Z 0000000180032b4c     ImageScannerImpl.obj
 0004:00000b58       $pdata$?RetrieveStatistics@COPOSImageScanner@@UEAAJPEAPEA_WPEAJ@Z 0000000180032b58     ImageScannerImpl.obj
 0004:00000b64       $pdata$?UpdateStatistics@COPOSImageScanner@@UEAAJPEA_WPEAJ@Z 0000000180032b64     ImageScannerImpl.obj
 0004:00000b70       $pdata$?CompareFirmwareVersion@COPOSImageScanner@@UEAAJPEA_WPEAJ1@Z 0000000180032b70     ImageScannerImpl.obj
 0004:00000b7c       $pdata$?UpdateFirmware@COPOSImageScanner@@UEAAJPEA_WPEAJ@Z 0000000180032b7c     ImageScannerImpl.obj
 0004:00000b88       $pdata$?ClearInputProperties@COPOSImageScanner@@UEAAJPEAJ@Z 0000000180032b88     ImageScannerImpl.obj
 0004:00000b94       $pdata$?get_CapAim@COPOSImageScanner@@UEAAJPEAF@Z 0000000180032b94     ImageScannerImpl.obj
 0004:00000ba0       $pdata$?get_CapDecodeData@COPOSImageScanner@@UEAAJPEAF@Z 0000000180032ba0     ImageScannerImpl.obj
 0004:00000bac       $pdata$?get_CapHostTriggered@COPOSImageScanner@@UEAAJPEAF@Z 0000000180032bac     ImageScannerImpl.obj
 0004:00000bb8       $pdata$?get_CapIlluminate@COPOSImageScanner@@UEAAJPEAF@Z 0000000180032bb8     ImageScannerImpl.obj
 0004:00000bc4       $pdata$?get_CapImageData@COPOSImageScanner@@UEAAJPEAF@Z 0000000180032bc4     ImageScannerImpl.obj
 0004:00000bd0       $pdata$?get_CapImageQuality@COPOSImageScanner@@UEAAJPEAF@Z 0000000180032bd0     ImageScannerImpl.obj
 0004:00000bdc       $pdata$?get_CapVideoData@COPOSImageScanner@@UEAAJPEAF@Z 0000000180032bdc     ImageScannerImpl.obj
 0004:00000be8       $pdata$?get_AimMode@COPOSImageScanner@@UEAAJPEAF@Z 0000000180032be8     ImageScannerImpl.obj
 0004:00000bf4       $pdata$?get_IlluminateMode@COPOSImageScanner@@UEAAJPEAF@Z 0000000180032bf4     ImageScannerImpl.obj
 0004:00000c00       $pdata$?StartSession@COPOSImageScanner@@UEAAJPEAJ@Z 0000000180032c00     ImageScannerImpl.obj
 0004:00000c0c       $pdata$?StopSession@COPOSImageScanner@@UEAAJPEAJ@Z 0000000180032c0c     ImageScannerImpl.obj
 0004:00000c18       $pdata$atexit              0000000180032c18     LIBCMT:utility.obj
 0004:00000c24       $pdata$_onexit             0000000180032c24     LIBCMT:utility.obj
 0004:00000c30       $pdata$__scrt_is_nonwritable_in_current_image 0000000180032c30     LIBCMT:utility.obj
 0004:00000c3c       $pdata$__scrt_is_nonwritable_in_current_image$filt$0 0000000180032c3c     LIBCMT:utility.obj
 0004:00000c48       $pdata$__scrt_acquire_startup_lock 0000000180032c48     LIBCMT:utility.obj
 0004:00000c54       $pdata$__scrt_release_startup_lock 0000000180032c54     LIBCMT:utility.obj
 0004:00000c60       $pdata$__scrt_initialize_crt 0000000180032c60     LIBCMT:utility.obj
 0004:00000c6c       $pdata$__scrt_uninitialize_crt 0000000180032c6c     LIBCMT:utility.obj
 0004:00000c78       $pdata$__scrt_initialize_onexit_tables 0000000180032c78     LIBCMT:utility.obj
 0004:00000c84       $pdata$__scrt_dllmain_exception_filter 0000000180032c84     LIBCMT:utility.obj
 0004:00000c90       $pdata$__scrt_dllmain_before_initialize_c 0000000180032c90     LIBCMT:utility.obj
 0004:00000c9c       $pdata$__scrt_dllmain_after_initialize_c 0000000180032c9c     LIBCMT:utility.obj
 0004:00000ca8       $pdata$__scrt_dllmain_uninitialize_c 0000000180032ca8     LIBCMT:utility.obj
 0004:00000cb4       $pdata$__scrt_dllmain_uninitialize_critical 0000000180032cb4     LIBCMT:utility.obj
 0004:00000cc0       $pdata$__scrt_dllmain_crt_thread_attach 0000000180032cc0     LIBCMT:utility.obj
 0004:00000ccc       $pdata$__scrt_dllmain_crt_thread_detach 0000000180032ccc     LIBCMT:utility.obj
 0004:00000cd8       $pdata$_Init_thread_header 0000000180032cd8     LIBCMT:thread_safe_statics.obj
 0004:00000ce4       $pdata$_Init_thread_footer 0000000180032ce4     LIBCMT:thread_safe_statics.obj
 0004:00000cf0       $pdata$_Init_thread_wait   0000000180032cf0     LIBCMT:thread_safe_statics.obj
 0004:00000cfc       $pdata$_Init_thread_notify 0000000180032cfc     LIBCMT:thread_safe_statics.obj
 0004:00000d08       $pdata$?__scrt_uninitialize_thread_safe_statics@@YAXXZ 0000000180032d08     LIBCMT:thread_safe_statics.obj
 0004:00000d14       $pdata$?__scrt_initialize_thread_safe_statics@@YAHXZ 0000000180032d14     LIBCMT:thread_safe_statics.obj
 0004:00000d20       $pdata$__report_securityfailure 0000000180032d20     LIBCMT:gs_report.obj
 0004:00000d2c       $pdata$__report_rangecheckfailure 0000000180032d2c     LIBCMT:gs_report.obj
 0004:00000d38       $pdata$__report_gsfailure  0000000180032d38     LIBCMT:gs_report.obj
 0004:00000d44       $pdata$capture_current_context 0000000180032d44     LIBCMT:gs_report.obj
 0004:00000d50       $pdata$capture_previous_context 0000000180032d50     LIBCMT:gs_report.obj
 0004:00000d5c       $pdata$__raise_securityfailure 0000000180032d5c     LIBCMT:gs_report.obj
 0004:00000d68       $pdata$??2@YAPEAX_KAEBUnothrow_t@std@@@Z 0000000180032d68     LIBCMT:new_scalar_nothrow.obj
 0004:00000d74       $pdata$?catch$0@?0???2@YAPEAX_KAEBUnothrow_t@std@@@Z@4HA 0000000180032d74     LIBCMT:new_scalar_nothrow.obj
 0004:00000d80       $pdata$__GSHandlerCheckCommon 0000000180032d80     LIBCMT:_gshandler_.obj
 0004:00000d8c       $pdata$__GSHandlerCheck    0000000180032d8c     LIBCMT:_gshandler_.obj
 0004:00000d98       $pdata$__GSHandlerCheck_SEH 0000000180032d98     LIBCMT:_gshandlerseh_.obj
 0004:00000dbc       $pdata$?dllmain_crt_process_attach@@YAHQEAUHINSTANCE__@@QEAX@Z 0000000180032dbc     LIBCMT:dll_dllmain.obj
 0004:00000dc8       $pdata$?fin$0@?0??dllmain_crt_process_attach@@YAHQEAUHINSTANCE__@@QEAX@Z@4HA 0000000180032dc8     LIBCMT:dll_dllmain.obj
 0004:00000dd4       $pdata$?dllmain_crt_process_detach@@YAH_N@Z 0000000180032dd4     LIBCMT:dll_dllmain.obj
 0004:00000de0       $pdata$?fin$0@?0??dllmain_crt_process_detach@@YAH_N@Z@4HA 0000000180032de0     LIBCMT:dll_dllmain.obj
 0004:00000dec       $pdata$?dllmain_crt_dispatch@@YAHQEAUHINSTANCE__@@KQEAX@Z 0000000180032dec     LIBCMT:dll_dllmain.obj
 0004:00000df8       $pdata$?dllmain_dispatch@@YAHQEAUHINSTANCE__@@KQEAX@Z 0000000180032df8     LIBCMT:dll_dllmain.obj
 0004:00000e04       $pdata$?filt$0@?0??dllmain_dispatch@@YAHQEAUHINSTANCE__@@KQEAX@Z@4HA 0000000180032e04     LIBCMT:dll_dllmain.obj
 0004:00000e10       $pdata$_DllMainCRTStartup  0000000180032e10     LIBCMT:dll_dllmain.obj
 0004:00000e1c       $pdata$??2@YAPEAX_K@Z      0000000180032e1c     LIBCMT:new_scalar.obj
 0004:00000e28       $pdata$__isa_available_init 0000000180032e28     LIBCMT:_cpu_disp_.obj
 0004:00000e34       $pdata$__scrt_fastfail     0000000180032e34     LIBCMT:utility_desktop.obj
 0004:00000e40       $pdata$__security_init_cookie 0000000180032e40     LIBCMT:gs_support.obj
 0004:00000e4c       $pdata$__scrt_initialize_default_local_stdio_options 0000000180032e4c     LIBCMT:default_local_stdio_options.obj
 0004:00000e58       $pdata$_RTC_Initialize     0000000180032e58     LIBCMT:_initsect_.obj
 0004:00000e64       $pdata$_RTC_Terminate      0000000180032e64     LIBCMT:_initsect_.obj
 0004:00000e70       $pdata$??0exception@std@@QEAA@AEBV01@@Z 0000000180032e70     LIBCMT:throw_bad_alloc.obj
 0004:00000e7c       $pdata$??_Gexception@std@@UEAAPEAXI@Z 0000000180032e7c     LIBCMT:throw_bad_alloc.obj
 0004:00000e7c       $pdata$??_Gbad_exception@std@@UEAAPEAXI@Z 0000000180032e7c     libvcruntime:frame.obj
 0004:00000e7c       $pdata$??_Gbad_alloc@std@@UEAAPEAXI@Z 0000000180032e7c     LIBCMT:throw_bad_alloc.obj
 0004:00000e7c       $pdata$??_Gbad_array_new_length@std@@UEAAPEAXI@Z 0000000180032e7c     LIBCMT:throw_bad_alloc.obj
 0004:00000e88       $pdata$??0bad_alloc@std@@QEAA@AEBV01@@Z 0000000180032e88     LIBCMT:throw_bad_alloc.obj
 0004:00000e94       $pdata$??0bad_array_new_length@std@@QEAA@AEBV01@@Z 0000000180032e94     LIBCMT:throw_bad_alloc.obj
 0004:00000ea0       $pdata$?__scrt_throw_std_bad_alloc@@YAXXZ 0000000180032ea0     LIBCMT:throw_bad_alloc.obj
 0004:00000eac       $pdata$?__scrt_throw_std_bad_array_new_length@@YAXXZ 0000000180032eac     LIBCMT:throw_bad_alloc.obj
 0004:00000ec4       $pdata$??_Gtype_info@@UEAAPEAXI@Z 0000000180032ec4     LIBCMT:std_type_info_static.obj
 0004:00000ed0       $pdata$??0CAtlBaseModule@ATL@@QEAA@XZ 0000000180032ed0     atls:atlbase.obj
 0004:00000edc       $pdata$??1CAtlBaseModule@ATL@@QEAA@XZ 0000000180032edc     atls:atlbase.obj
 0004:00000ee8       $pdata$??__E_AtlBaseModule@ATL@@YAXXZ 0000000180032ee8     atls:atlbase.obj
 0004:00000ef4       $pdata$AtlThunk_AllocateData 0000000180032ef4     atls:atlthunk.obj
 0004:00000f00       $pdata$AtlThunk_InitData   0000000180032f00     atls:atlthunk.obj
 0004:00000f0c       $pdata$AtlThunk_DataToCode 0000000180032f0c     atls:atlthunk.obj
 0004:00000f18       $pdata$AtlThunk_FreeData   0000000180032f18     atls:atlthunk.obj
 0004:00000f24       $pdata$?__InitializeThunkPool@@YAHXZ 0000000180032f24     atls:atlthunk.obj
 0004:00000f30       $pdata$?__AllocStdCallThunk_cmn@@YAPEAXXZ 0000000180032f30     atls:atlthunk.obj
 0004:00000f3c       $pdata$??$GetProcAddressAll@P6AP6A_JPEAUHWND__@@I_K_J@ZPEAUAtlThunkData_t@@@Z@@YAP6AP6A_JPEAUHWND__@@I_K_J@ZPEAUAtlThunkData_t@@@ZPEAP6AP6A_J0I12@Z3@Z@Z 0000000180032f3c     atls:atlthunk.obj
 0004:00000f3c       $pdata$??$GetProcAddressAll@P6APEAUAtlThunkData_t@@XZ@@YAP6APEAUAtlThunkData_t@@XZPEAP6APEAU0@XZ@Z 0000000180032f3c     atls:atlthunk.obj
 0004:00000f3c       $pdata$??$GetProcAddressAll@P6AXPEAUAtlThunkData_t@@@Z@@YAP6AXPEAUAtlThunkData_t@@@ZPEAP6AX0@Z@Z 0000000180032f3c     atls:atlthunk.obj
 0004:00000f3c       $pdata$??$GetProcAddressAll@P6AXPEAUAtlThunkData_t@@PEAX_K@Z@@YAP6AXPEAUAtlThunkData_t@@PEAX_K@ZPEAP6AX012@Z@Z 0000000180032f3c     atls:atlthunk.obj
 0004:00000f60       $pdata$_purecall           0000000180032f60     libvcruntime:purevirt.obj
 0004:00000f6c       $pdata$wcsstr              0000000180032f6c     libvcruntime:wcsstr.obj
 0004:00000f9c       $pdata$__vcrt_initialize   0000000180032f9c     libvcruntime:initialization.obj
 0004:00000fa8       $pdata$__vcrt_uninitialize 0000000180032fa8     libvcruntime:initialization.obj
 0004:00000fb4       $pdata$__vcrt_uninitialize_critical 0000000180032fb4     libvcruntime:initialization.obj
 0004:00000fc0       $pdata$__vcrt_thread_attach 0000000180032fc0     libvcruntime:initialization.obj
 0004:00000fcc       $pdata$__vcrt_thread_detach 0000000180032fcc     libvcruntime:initialization.obj
 0004:00000fd8       $pdata$__C_specific_handler 0000000180032fd8     libvcruntime:_riscchandler_.obj
 0004:00000fe4       $pdata$__std_terminate     0000000180032fe4     libvcruntime:ehhelpers.obj
 0004:00000ff0       $pdata$_IsExceptionObjectToBeDestroyed 0000000180032ff0     libvcruntime:ehhelpers.obj
 0004:00000ffc       $pdata$__FrameUnwindFilter 0000000180032ffc     libvcruntime:ehhelpers.obj
 0004:00001008       $pdata$__DestructExceptionObject 0000000180033008     libvcruntime:ehhelpers.obj
 0004:00001014       $pdata$__DestructExceptionObject$filt$0 0000000180033014     libvcruntime:ehhelpers.obj
 0004:00001020       $pdata$?CatchTryBlock@__FrameHandler3@@SAPEBU_s_TryBlockMapEntry@@PEBU_s_FuncInfo@@H@Z 0000000180033020     libvcruntime:risctrnsctrl.obj
 0004:0000102c       $pdata$?ExecutionInCatch@__FrameHandler3@@SA_NPEAU_xDISPATCHER_CONTEXT@@PEBU_s_FuncInfo@@@Z 000000018003302c     libvcruntime:risctrnsctrl.obj
 0004:00001038       $pdata$?FrameUnwindToEmptyState@__FrameHandler3@@SAXPEA_KPEAU_xDISPATCHER_CONTEXT@@PEBU_s_FuncInfo@@@Z 0000000180033038     libvcruntime:risctrnsctrl.obj
 0004:00001044       $pdata$?GetEstablisherFrame@__FrameHandler3@@SAPEA_KPEA_KPEAU_xDISPATCHER_CONTEXT@@PEBU_s_FuncInfo@@0@Z 0000000180033044     libvcruntime:risctrnsctrl.obj
 0004:00001050       $pdata$?UnwindNestedFrames@__FrameHandler3@@SAXPEA_KPEAUEHExceptionRecord@@PEAU_CONTEXT@@0PEAXPEBU_s_FuncInfo@@HHPEBU_s_HandlerType@@PEAU_xDISPATCHER_CONTEXT@@E@Z 0000000180033050     libvcruntime:risctrnsctrl.obj
 0004:0000105c       $pdata$?GetRangeOfTrysToCheck@__FrameHandler3@@SA?AU?$pair@Viterator@TryBlockMap@__FrameHandler3@@V123@@std@@AEAVTryBlockMap@1@HH@Z 000000018003305c     libvcruntime:risctrnsctrl.obj
 0004:00001068       $pdata$_GetImageBase       0000000180033068     libvcruntime:risctrnsctrl.obj
 0004:00001074       $pdata$_SetImageBase       0000000180033074     libvcruntime:risctrnsctrl.obj
 0004:00001080       $pdata$_GetThrowImageBase  0000000180033080     libvcruntime:risctrnsctrl.obj
 0004:0000108c       $pdata$_SetThrowImageBase  000000018003308c     libvcruntime:risctrnsctrl.obj
 0004:00001098       $pdata$_CreateFrameInfo    0000000180033098     libvcruntime:risctrnsctrl.obj
 0004:000010a4       $pdata$_FindAndUnlinkFrame 00000001800330a4     libvcruntime:risctrnsctrl.obj
 0004:000010b0       $pdata$__CxxFrameHandler3  00000001800330b0     libvcruntime:risctrnsctrl.obj
 0004:000010bc       $pdata$??$_CallSETranslator@V__FrameHandler3@@@@YAHPEAUEHExceptionRecord@@PEA_KPEAU_CONTEXT@@PEAU_xDISPATCHER_CONTEXT@@PEBU_s_FuncInfo@@K1@Z 00000001800330bc     libvcruntime:risctrnsctrl.obj
 0004:000010c8       $pdata$?filt$0@?0???$_CallSETranslator@V__FrameHandler3@@@@YAHPEAUEHExceptionRecord@@PEA_KPEAU_CONTEXT@@PEAU_xDISPATCHER_CONTEXT@@PEBU_s_FuncInfo@@K1@Z@4HA 00000001800330c8     libvcruntime:risctrnsctrl.obj
 0004:000010d4       $pdata$__std_type_info_destroy_list 00000001800330d4     libvcruntime:std_type_info.obj
 0004:000010e0       $pdata$__std_exception_copy 00000001800330e0     libvcruntime:std_exception.obj
 0004:000010ec       $pdata$__std_exception_destroy 00000001800330ec     libvcruntime:std_exception.obj
 0004:000010f8       $pdata$_CxxThrowException  00000001800330f8     libvcruntime:throw.obj
 0004:00001104       $pdata$__vcrt_initialize_ptd 0000000180033104     libvcruntime:per_thread_data.obj
 0004:00001110       $pdata$__vcrt_uninitialize_ptd 0000000180033110     libvcruntime:per_thread_data.obj
 0004:0000111c       $pdata$__vcrt_getptd       000000018003311c     libvcruntime:per_thread_data.obj
 0004:00001128       $pdata$__vcrt_getptd_noexit 0000000180033128     libvcruntime:per_thread_data.obj
 0004:00001134       $pdata$__vcrt_freeptd      0000000180033134     libvcruntime:per_thread_data.obj
 0004:00001140       $pdata$__vcrt_freefls      0000000180033140     libvcruntime:per_thread_data.obj
 0004:0000114c       $pdata$__vcrt_initialize_locks 000000018003314c     libvcruntime:locks.obj
 0004:00001158       $pdata$__vcrt_uninitialize_locks 0000000180033158     libvcruntime:locks.obj
 0004:00001164       $pdata$__vcrt_FlsAlloc     0000000180033164     libvcruntime:winapi_downlevel.obj
 0004:00001170       $pdata$__vcrt_FlsFree      0000000180033170     libvcruntime:winapi_downlevel.obj
 0004:0000117c       $pdata$__vcrt_FlsGetValue  000000018003317c     libvcruntime:winapi_downlevel.obj
 0004:00001188       $pdata$__vcrt_FlsSetValue  0000000180033188     libvcruntime:winapi_downlevel.obj
 0004:00001194       $pdata$__vcrt_InitializeCriticalSectionEx 0000000180033194     libvcruntime:winapi_downlevel.obj
 0004:000011a0       $pdata$__vcrt_initialize_winapi_thunks 00000001800331a0     libvcruntime:winapi_downlevel.obj
 0004:000011ac       $pdata$__vcrt_uninitialize_winapi_thunks 00000001800331ac     libvcruntime:winapi_downlevel.obj
 0004:000011b8       $pdata$?try_get_function@@YAPEAXW4function_id@?A0xcc2f1bd3@@QEBDQEBW4module_id@2@2@Z 00000001800331b8     libvcruntime:winapi_downlevel.obj
 0004:000011e8       $pdata$?StateFromIp@__FrameHandler3@@SAHPEBU_s_FuncInfo@@PEAU_xDISPATCHER_CONTEXT@@_K@Z 00000001800331e8     libvcruntime:ehstate.obj
 0004:000011f4       $pdata$?GetCurrentState@__FrameHandler3@@SAHPEA_KPEAU_xDISPATCHER_CONTEXT@@PEBU_s_FuncInfo@@@Z 00000001800331f4     libvcruntime:ehstate.obj
 0004:00001200       $pdata$?SetUnwindTryBlock@__FrameHandler3@@SAXPEA_KPEAU_xDISPATCHER_CONTEXT@@PEBU_s_FuncInfo@@H@Z 0000000180033200     libvcruntime:ehstate.obj
 0004:0000120c       $pdata$?GetUnwindTryBlock@__FrameHandler3@@SAHPEA_KPEAU_xDISPATCHER_CONTEXT@@PEBU_s_FuncInfo@@@Z 000000018003320c     libvcruntime:ehstate.obj
 0004:00001218       $pdata$?FrameUnwindToState@__FrameHandler3@@SAXPEA_KPEAU_xDISPATCHER_CONTEXT@@PEBU_s_FuncInfo@@H@Z 0000000180033218     libvcruntime:frame.obj
 0004:00001224       $pdata$?filt$0@?0??FrameUnwindToState@__FrameHandler3@@SAXPEA_KPEAU_xDISPATCHER_CONTEXT@@PEBU_s_FuncInfo@@H@Z@4HA 0000000180033224     libvcruntime:frame.obj
 0004:00001230       $pdata$?fin$1@?0??FrameUnwindToState@__FrameHandler3@@SAXPEA_KPEAU_xDISPATCHER_CONTEXT@@PEBU_s_FuncInfo@@H@Z@4HA 0000000180033230     libvcruntime:frame.obj
 0004:0000123c       $pdata$?GetHandlerSearchState@__FrameHandler3@@SAHPEA_KPEAU_xDISPATCHER_CONTEXT@@PEBU_s_FuncInfo@@@Z 000000018003323c     libvcruntime:frame.obj
 0004:00001248       $pdata$?CxxCallCatchBlock@__FrameHandler3@@SAPEAXPEAU_EXCEPTION_RECORD@@@Z 0000000180033248     libvcruntime:frame.obj
 0004:00001254       $pdata$?filt$0@?0??CxxCallCatchBlock@__FrameHandler3@@SAPEAXPEAU_EXCEPTION_RECORD@@@Z@4HA 0000000180033254     libvcruntime:frame.obj
 0004:00001260       $pdata$?fin$1@?0??CxxCallCatchBlock@__FrameHandler3@@SAPEAXPEAU_EXCEPTION_RECORD@@@Z@4HA 0000000180033260     libvcruntime:frame.obj
 0004:0000126c       $pdata$??0bad_exception@std@@QEAA@AEBV01@@Z 000000018003326c     libvcruntime:frame.obj
 0004:00001278       $pdata$?ExFilterRethrow@@YAHPEAU_EXCEPTION_POINTERS@@PEAUEHExceptionRecord@@PEAH@Z 0000000180033278     libvcruntime:frame.obj
 0004:00001284       $pdata$?IsInExceptionSpec@@YAEPEAUEHExceptionRecord@@PEBU_s_ESTypeList@@@Z 0000000180033284     libvcruntime:frame.obj
 0004:00001290       $pdata$?Is_bad_exception_allowed@@YAEPEBU_s_ESTypeList@@@Z 0000000180033290     libvcruntime:frame.obj
 0004:0000129c       $pdata$??$__InternalCxxFrameHandler@V__FrameHandler3@@@@YA?AW4_EXCEPTION_DISPOSITION@@PEAUEHExceptionRecord@@PEA_KPEAU_CONTEXT@@PEAU_xDISPATCHER_CONTEXT@@PEBU_s_FuncInfo@@H1E@Z 000000018003329c     libvcruntime:frame.obj
 0004:000012a8       $pdata$??$TypeMatchHelper@$$CBU_s_HandlerType@@@@YAHPEBU_s_HandlerType@@PEBU_s_CatchableType@@PEBU_s_ThrowInfo@@@Z 00000001800332a8     libvcruntime:frame.obj
 0004:000012b4       $pdata$??$BuildCatchObjectHelperInternal@$$CBU_s_HandlerType@@@@YAHPEAUEHExceptionRecord@@PEAXPEBU_s_HandlerType@@PEBU_s_CatchableType@@@Z 00000001800332b4     libvcruntime:frame.obj
 0004:000012c0       $pdata$??$BuildCatchObjectInternal@$$CBU_s_HandlerType@@@@YAXPEAUEHExceptionRecord@@PEAXPEBU_s_HandlerType@@PEBU_s_CatchableType@@@Z 00000001800332c0     libvcruntime:frame.obj
 0004:000012cc       $pdata$??$FindHandler@V__FrameHandler3@@@@YAXPEAUEHExceptionRecord@@PEA_KPEAU_CONTEXT@@PEAU_xDISPATCHER_CONTEXT@@PEBU_s_FuncInfo@@EH1@Z 00000001800332cc     libvcruntime:frame.obj
 0004:000012d8       $pdata$??$CatchIt@V__FrameHandler3@@@@YAXPEAUEHExceptionRecord@@PEA_KPEAU_CONTEXT@@PEAU_xDISPATCHER_CONTEXT@@PEBU_s_FuncInfo@@PEBU_s_HandlerType@@PEBU_s_CatchableType@@PEBU_s_TryBlockMapEntry@@H1EE@Z 00000001800332d8     libvcruntime:frame.obj
 0004:000012e4       $pdata$??$FindHandlerForForeignException@V__FrameHandler3@@@@YAXPEAUEHExceptionRecord@@PEA_KPEAU_CONTEXT@@PEAU_xDISPATCHER_CONTEXT@@PEBU_s_FuncInfo@@HH1@Z 00000001800332e4     libvcruntime:frame.obj
 0004:00001308       $pdata$_invalid_parameter_noinfo 0000000180033308     libucrt:invalid_parameter.obj
 0004:00001314       $pdata$_invoke_watson      0000000180033314     libucrt:invalid_parameter.obj
 0004:00001320       $pdata$__acrt_call_reportfault 0000000180033320     libucrt:invalid_parameter.obj
 0004:0000132c       $pdata$_invalid_parameter  000000018003332c     libucrt:invalid_parameter.obj
 0004:00001338       $pdata$_errno              0000000180033338     libucrt:errno.obj
 0004:00001344       $pdata$__doserrno          0000000180033344     libucrt:errno.obj
 0004:00001350       $pdata$__acrt_errno_map_os_error 0000000180033350     libucrt:errno.obj
 0004:0000135c       $pdata$_recalloc_base      000000018003335c     libucrt:recalloc.obj
 0004:00001368       $pdata$_resetstkoflw       0000000180033368     libucrt:resetstk.obj
 0004:00001374       $pdata$wcscat_s            0000000180033374     libucrt:wcscat_s.obj
 0004:00001380       $pdata$wcscpy_s            0000000180033380     libucrt:wcscpy_s.obj
 0004:0000138c       $pdata$wcsncpy_s           000000018003338c     libucrt:wcsncpy_s.obj
 0004:00001398       $pdata$??0_LocaleUpdate@@QEAA@QEAU__crt_locale_pointers@@@Z 0000000180033398     libucrt:output.obj
 0004:000013a4       $pdata$__stdio_common_vswprintf_s 00000001800333a4     libucrt:output.obj
 0004:000013b0       $pdata$?force_decimal_point@__crt_stdio_output@@YAXPEADQEAU__crt_locale_pointers@@@Z 00000001800333b0     libucrt:output.obj
 0004:000013bc       $pdata$?write_string@?$string_output_adapter@_W@__crt_stdio_output@@QEBAXQEB_WHQEAHAEAV__crt_deferred_errno_cache@@@Z 00000001800333bc     libucrt:output.obj
 0004:000013c8       $pdata$??$common_vsprintf@Vformat_validation_base@__crt_stdio_output@@_W@@YAH_KQEA_W0QEB_WQEAU__crt_locale_pointers@@QEAD@Z 00000001800333c8     libucrt:output.obj
 0004:000013d4       $pdata$??$write_multiple_characters@V?$string_output_adapter@_W@__crt_stdio_output@@D@__crt_stdio_output@@YAXAEBV?$string_output_adapter@_W@0@DHQEAH@Z 00000001800333d4     libucrt:output.obj
 0004:000013e0       $pdata$??$ensure_buffer_is_big_enough@D@formatting_buffer@__crt_stdio_output@@QEAA_N_K@Z 00000001800333e0     libucrt:output.obj
 0004:000013ec       $pdata$?process@?$output_processor@_WV?$string_output_adapter@_W@__crt_stdio_output@@V?$format_validation_base@_WV?$string_output_adapter@_W@__crt_stdio_output@@@2@@__crt_stdio_output@@QEAAHXZ 00000001800333ec     libucrt:output.obj
 0004:000013f8       $pdata$?parse_int_from_format_string@?$output_processor@_WV?$string_output_adapter@_W@__crt_stdio_output@@V?$format_validation_base@_WV?$string_output_adapter@_W@__crt_stdio_output@@@2@@__crt_stdio_output@@AEAA_NQEAH@Z 00000001800333f8     libucrt:output.obj
 0004:00001404       $pdata$?state_case_size@?$output_processor@_WV?$string_output_adapter@_W@__crt_stdio_output@@V?$format_validation_base@_WV?$string_output_adapter@_W@__crt_stdio_output@@@2@@__crt_stdio_output@@AEAA_NXZ 0000000180033404     libucrt:output.obj
 0004:00001410       $pdata$?state_case_type@?$output_processor@_WV?$string_output_adapter@_W@__crt_stdio_output@@V?$format_validation_base@_WV?$string_output_adapter@_W@__crt_stdio_output@@@2@@__crt_stdio_output@@AEAA_NXZ 0000000180033410     libucrt:output.obj
 0004:0000141c       $pdata$?type_case_c_tchar@?$output_processor@_WV?$string_output_adapter@_W@__crt_stdio_output@@V?$format_validation_base@_WV?$string_output_adapter@_W@__crt_stdio_output@@@2@@__crt_stdio_output@@AEAA_N_W@Z 000000018003341c     libucrt:output.obj
 0004:00001428       $pdata$?type_case_Z@?$output_processor@_WV?$string_output_adapter@_W@__crt_stdio_output@@V?$format_validation_base@_WV?$string_output_adapter@_W@__crt_stdio_output@@@2@@__crt_stdio_output@@AEAA_NXZ 0000000180033428     libucrt:output.obj
 0004:00001434       $pdata$?type_case_s@?$output_processor@_WV?$string_output_adapter@_W@__crt_stdio_output@@V?$format_validation_base@_WV?$string_output_adapter@_W@__crt_stdio_output@@@2@@__crt_stdio_output@@AEAA_NXZ 0000000180033434     libucrt:output.obj
 0004:00001440       $pdata$?type_case_a@?$output_processor@_WV?$string_output_adapter@_W@__crt_stdio_output@@V?$format_validation_base@_WV?$string_output_adapter@_W@__crt_stdio_output@@@2@@__crt_stdio_output@@AEAA_NXZ 0000000180033440     libucrt:output.obj
 0004:0000144c       $pdata$?type_case_integer@?$output_processor@_WV?$string_output_adapter@_W@__crt_stdio_output@@V?$format_validation_base@_WV?$string_output_adapter@_W@__crt_stdio_output@@@2@@__crt_stdio_output@@AEAA_NI_N@Z 000000018003344c     libucrt:output.obj
 0004:00001458       $pdata$?type_case_n@?$output_processor@_WV?$string_output_adapter@_W@__crt_stdio_output@@V?$format_validation_base@_WV?$string_output_adapter@_W@__crt_stdio_output@@@2@@__crt_stdio_output@@AEAA_NXZ 0000000180033458     libucrt:output.obj
 0004:00001464       $pdata$?write_stored_string_tchar@?$output_processor@_WV?$string_output_adapter@_W@__crt_stdio_output@@V?$format_validation_base@_WV?$string_output_adapter@_W@__crt_stdio_output@@@2@@__crt_stdio_output@@AEAA_N_W@Z 0000000180033464     libucrt:output.obj
 0004:00001470       $pdata$??$type_case_integer_parse_into_buffer@_K@?$output_processor@_WV?$string_output_adapter@_W@__crt_stdio_output@@V?$format_validation_base@_WV?$string_output_adapter@_W@__crt_stdio_output@@@2@@__crt_stdio_output@@AEAAX_KI_N@Z 0000000180033470     libucrt:output.obj
 0004:0000147c       $pdata$??$type_case_integer_parse_into_buffer@I@?$output_processor@_WV?$string_output_adapter@_W@__crt_stdio_output@@V?$format_validation_base@_WV?$string_output_adapter@_W@__crt_stdio_output@@@2@@__crt_stdio_output@@AEAAXII_N@Z 000000018003347c     libucrt:output.obj
 0004:00001488       $pdata$_seh_filter_exe     0000000180033488     libucrt:exception_filter.obj
 0004:00001494       $pdata$?try_cor_exit_process@@YAXI@Z 0000000180033494     libucrt:exit.obj
 0004:000014a0       $pdata$?exit_or_terminate_process@@YAXI@Z 00000001800334a0     libucrt:exit.obj
 0004:000014ac       $pdata$?common_exit@@YAXHW4_crt_exit_cleanup_mode@@W4_crt_exit_return_mode@@@Z 00000001800334ac     libucrt:exit.obj
 0004:000014b8       $pdata$??R<lambda_6e4b09c48022b2350581041d5f6b0c4c>@@QEBA@XZ 00000001800334b8     libucrt:exit.obj
 0004:000014c4       $pdata$?filt$0@?0???R<lambda_6e4b09c48022b2350581041d5f6b0c4c>@@QEBA@XZ@4HA 00000001800334c4     libucrt:exit.obj
 0004:000014d0       $pdata$??$?RV<lambda_d80eeec6fff315bfe5c115232f3240e3>@@AEAV<lambda_6e4b09c48022b2350581041d5f6b0c4c>@@V<lambda_2358e3775559c9db80273638284d5e45>@@@?$__crt_seh_guarded_call@X@@QEAAX$$QEAV<lambda_d80eeec6fff315bfe5c115232f3240e3>@@AEAV<lambda_6e4b09c48022b2350581041d5f6b0c4c>@@$$QEAV<lambda_2358e3775559c9db80273638284d5e45>@@@Z 00000001800334d0     libucrt:exit.obj
 0004:000014dc       $pdata$?fin$0@?0???$?RV<lambda_d80eeec6fff315bfe5c115232f3240e3>@@AEAV<lambda_6e4b09c48022b2350581041d5f6b0c4c>@@V<lambda_2358e3775559c9db80273638284d5e45>@@@?$__crt_seh_guarded_call@X@@QEAAX$$QEAV<lambda_d80eeec6fff315bfe5c115232f3240e3>@@AEAV<lambda_6e4b09c48022b2350581041d5f6b0c4c>@@$$QEAV<lambda_2358e3775559c9db80273638284d5e45>@@@Z@4HA 00000001800334dc     libucrt:exit.obj
 0004:000014dc       $pdata$?fin$0@?0???$?RV<lambda_450d765d439847d4c735a33c368b5fc0>@@AEAV<lambda_44731a7d0e6d81c3e6aa82d741081786>@@V<lambda_601a2a7da3b7a96e9554ac7215c4b07c>@@@?$__crt_seh_guarded_call@P6AXH@Z@@QEAAP6AXH@Z$$QEAV<lambda_450d765d439847d4c735a33c368b5fc0>@@AEAV<lambda_44731a7d0e6d81c3e6aa82d741081786>@@$$QEAV<lambda_601a2a7da3b7a96e9554ac7215c4b07c>@@@Z@4HA 00000001800334dc     libucrt:signal.obj
 0004:000014dc       $pdata$?fin$0@?0???$?RV<lambda_2d41944a1d46af3157314b8a01080d33>@@AEAV<lambda_8f455de75cd7d7f24b4096f044d8b9e6>@@V<lambda_aa500f224e6afead328df44964fe2772>@@@?$__crt_seh_guarded_call@X@@QEAAX$$QEAV<lambda_2d41944a1d46af3157314b8a01080d33>@@AEAV<lambda_8f455de75cd7d7f24b4096f044d8b9e6>@@$$QEAV<lambda_aa500f224e6afead328df44964fe2772>@@@Z@4HA 00000001800334dc     libucrt:per_thread_data.obj
 0004:000014dc       $pdata$?fin$0@?0???$?RV<lambda_f2e299630e499de9f9a165e60fcd3db5>@@AEAV<lambda_2ae9d31cdba2644fcbeaf08da7c24588>@@V<lambda_40d01ff24d0e7b3814fdbdcee8eab3c7>@@@?$__crt_seh_guarded_call@X@@QEAAX$$QEAV<lambda_f2e299630e499de9f9a165e60fcd3db5>@@AEAV<lambda_2ae9d31cdba2644fcbeaf08da7c24588>@@$$QEAV<lambda_40d01ff24d0e7b3814fdbdcee8eab3c7>@@@Z@4HA 00000001800334dc     libucrt:per_thread_data.obj
 0004:000014dc       $pdata$?fin$0@?0???$?RV<lambda_aa87e3671a710a21b5dc78c0bdf72e11>@@AEAV<lambda_92619d2358a28f41a33ba319515a20b9>@@V<lambda_6992ecaafeb10aed2b74cb1fae11a551>@@@?$__crt_seh_guarded_call@X@@QEAAX$$QEAV<lambda_aa87e3671a710a21b5dc78c0bdf72e11>@@AEAV<lambda_92619d2358a28f41a33ba319515a20b9>@@$$QEAV<lambda_6992ecaafeb10aed2b74cb1fae11a551>@@@Z@4HA 00000001800334dc     libucrt:per_thread_data.obj
 0004:000014dc       $pdata$?fin$0@?0???$?RV<lambda_0ae27a3a962d80f24befdcbee591983d>@@AEAV<lambda_8d0ee55de4b1038c4002e0adecdf1839>@@V<lambda_dc504788e8f1664fe9b84e20bfb512f2>@@@?$__crt_seh_guarded_call@X@@QEAAX$$QEAV<lambda_0ae27a3a962d80f24befdcbee591983d>@@AEAV<lambda_8d0ee55de4b1038c4002e0adecdf1839>@@$$QEAV<lambda_dc504788e8f1664fe9b84e20bfb512f2>@@@Z@4HA 00000001800334dc     libucrt:per_thread_data.obj
 0004:000014dc       $pdata$?fin$0@?0???$?RV<lambda_efdfa57d1f175319df784efa44bb7b81>@@AEAV<lambda_5f0a4c1567f8adc6734073e5d1e1b35c>@@V<lambda_2e8a7d3640ea6ccb4c2413664c2db6fd>@@@?$__crt_seh_guarded_call@X@@QEAAX$$QEAV<lambda_efdfa57d1f175319df784efa44bb7b81>@@AEAV<lambda_5f0a4c1567f8adc6734073e5d1e1b35c>@@$$QEAV<lambda_2e8a7d3640ea6ccb4c2413664c2db6fd>@@@Z@4HA 00000001800334dc     libucrt:mbctype.obj
 0004:000014dc       $pdata$?fin$0@?0???$?RV<lambda_7777bce6b2f8c936911f934f8298dc43>@@AEAV<lambda_f03950bc5685219e0bcd2087efbe011e>@@V<lambda_3883c3dff614d5e0c5f61bb1ac94921c>@@@?$__crt_seh_guarded_call@H@@QEAAH$$QEAV<lambda_7777bce6b2f8c936911f934f8298dc43>@@AEAV<lambda_f03950bc5685219e0bcd2087efbe011e>@@$$QEAV<lambda_3883c3dff614d5e0c5f61bb1ac94921c>@@@Z@4HA 00000001800334dc     libucrt:onexit.obj
 0004:000014dc       $pdata$?fin$0@?0???$?RV<lambda_638799b9deba96c50f710eeac98168cd>@@AEAV<lambda_22ebabd17bc4fa466a2aca6d8deb888d>@@V<lambda_a6f7d7db0129f75315ebf26d50c089f1>@@@?$__crt_seh_guarded_call@H@@QEAAH$$QEAV<lambda_638799b9deba96c50f710eeac98168cd>@@AEAV<lambda_22ebabd17bc4fa466a2aca6d8deb888d>@@$$QEAV<lambda_a6f7d7db0129f75315ebf26d50c089f1>@@@Z@4HA 00000001800334dc     libucrt:onexit.obj
 0004:000014e8       $pdata$_configure_narrow_argv 00000001800334e8     libucrt:argv_parsing.obj
 0004:000014f4       $pdata$__acrt_allocate_buffer_for_argv 00000001800334f4     libucrt:argv_parsing.obj
 0004:00001500       $pdata$??$parse_command_line@D@@YAXPEADPEAPEAD0PEA_K2@Z 0000000180033500     libucrt:argv_parsing.obj
 0004:0000150c       $pdata$__dcrt_uninitialize_environments_nolock 000000018003350c     libucrt:environment_initialization.obj
 0004:00001518       $pdata$??$common_initialize_environment_nolock@D@@YAHXZ 0000000180033518     libucrt:environment_initialization.obj
 0004:00001524       $pdata$??$uninitialize_environment_internal@D@@YAXAEAPEAPEAD@Z 0000000180033524     libucrt:environment_initialization.obj
 0004:00001530       $pdata$??$uninitialize_environment_internal@_W@@YAXAEAPEAPEA_W@Z 0000000180033530     libucrt:environment_initialization.obj
 0004:0000153c       $pdata$??$free_environment@D@@YAXQEAPEAD@Z 000000018003353c     libucrt:environment_initialization.obj
 0004:0000153c       $pdata$??$free_environment@_W@@YAXQEAPEA_W@Z 000000018003353c     libucrt:environment_initialization.obj
 0004:00001548       $pdata$??$create_environment@D@@YAQEAPEADQEAD@Z 0000000180033548     libucrt:environment_initialization.obj
 0004:00001554       $pdata$_register_onexit_function 0000000180033554     libucrt:onexit.obj
 0004:00001560       $pdata$_execute_onexit_table 0000000180033560     libucrt:onexit.obj
 0004:0000156c       $pdata$??R<lambda_22ebabd17bc4fa466a2aca6d8deb888d>@@QEBAHXZ 000000018003356c     libucrt:onexit.obj
 0004:00001578       $pdata$??R<lambda_f03950bc5685219e0bcd2087efbe011e>@@QEBAHXZ 0000000180033578     libucrt:onexit.obj
 0004:00001584       $pdata$??$?RV<lambda_638799b9deba96c50f710eeac98168cd>@@AEAV<lambda_22ebabd17bc4fa466a2aca6d8deb888d>@@V<lambda_a6f7d7db0129f75315ebf26d50c089f1>@@@?$__crt_seh_guarded_call@H@@QEAAH$$QEAV<lambda_638799b9deba96c50f710eeac98168cd>@@AEAV<lambda_22ebabd17bc4fa466a2aca6d8deb888d>@@$$QEAV<lambda_a6f7d7db0129f75315ebf26d50c089f1>@@@Z 0000000180033584     libucrt:onexit.obj
 0004:00001590       $pdata$??$?RV<lambda_7777bce6b2f8c936911f934f8298dc43>@@AEAV<lambda_f03950bc5685219e0bcd2087efbe011e>@@V<lambda_3883c3dff614d5e0c5f61bb1ac94921c>@@@?$__crt_seh_guarded_call@H@@QEAAH$$QEAV<lambda_7777bce6b2f8c936911f934f8298dc43>@@AEAV<lambda_f03950bc5685219e0bcd2087efbe011e>@@$$QEAV<lambda_3883c3dff614d5e0c5f61bb1ac94921c>@@@Z 0000000180033590     libucrt:onexit.obj
 0004:0000159c       $pdata$__acrt_uninitialize_critical 000000018003359c     libucrt:initialization.obj
 0004:000015a8       $pdata$__acrt_thread_attach 00000001800335a8     libucrt:initialization.obj
 0004:000015b4       $pdata$__acrt_thread_detach 00000001800335b4     libucrt:initialization.obj
 0004:000015c0       $pdata$initialize_c        00000001800335c0     libucrt:initialization.obj
 0004:000015cc       $pdata$uninitialize_environment 00000001800335cc     libucrt:initialization.obj
 0004:000015d8       $pdata$initialize_pointers 00000001800335d8     libucrt:initialization.obj
 0004:000015e4       $pdata$uninitialize_allocated_memory 00000001800335e4     libucrt:initialization.obj
 0004:000015f0       $pdata$??$uninitialize@V<lambda_af42a3ee9806e9a7305d451646e05244>@@@?$dual_state_global@PEAU__crt_multibyte_data@@@__crt_state_management@@QEAAX$$QEAV<lambda_af42a3ee9806e9a7305d451646e05244>@@@Z 00000001800335f0     libucrt:initialization.obj
 0004:000015fc       $pdata$_initterm           00000001800335fc     libucrt:initterm.obj
 0004:00001608       $pdata$_initterm_e         0000000180033608     libucrt:initterm.obj
 0004:00001614       $pdata$_callnewh           0000000180033614     libucrt:new_handler.obj
 0004:00001620       $pdata$_query_new_handler  0000000180033620     libucrt:new_handler.obj
 0004:0000162c       $pdata$_query_new_handler$fin$0 000000018003362c     libucrt:new_handler.obj
 0004:00001638       $pdata$terminate           0000000180033638     libucrt:terminate.obj
 0004:00001644       $pdata$abort               0000000180033644     libucrt:abort.obj
 0004:00001650       $pdata$strcpy_s            0000000180033650     libucrt:strcpy_s.obj
 0004:0000165c       $pdata$??$parse_integer@KV?$c_string_character_source@_W@__crt_strtox@@@__crt_strtox@@YAKQEAU__crt_locale_pointers@@V?$c_string_character_source@_W@0@H_N@Z 000000018003365c     libucrt:atox.obj
 0004:00001674       $pdata$_free_base          0000000180033674     libucrt:free_base.obj
 0004:00001680       $pdata$__acrt_initialize_ptd 0000000180033680     libucrt:per_thread_data.obj
 0004:0000168c       $pdata$__acrt_uninitialize_ptd 000000018003368c     libucrt:per_thread_data.obj
 0004:00001698       $pdata$__acrt_getptd       0000000180033698     libucrt:per_thread_data.obj
 0004:000016a4       $pdata$__acrt_getptd_head  00000001800336a4     libucrt:per_thread_data.obj
 0004:000016b0       $pdata$__acrt_getptd_noexit 00000001800336b0     libucrt:per_thread_data.obj
 0004:000016bc       $pdata$__acrt_freeptd      00000001800336bc     libucrt:per_thread_data.obj
 0004:000016c8       $pdata$?destroy_fls@@YAXPEAX@Z 00000001800336c8     libucrt:per_thread_data.obj
 0004:000016d4       $pdata$?replace_current_thread_locale_nolock@@YAXQEAU__acrt_ptd@@QEAU__crt_locale_data@@@Z 00000001800336d4     libucrt:per_thread_data.obj
 0004:000016e0       $pdata$?construct_ptd_array@@YAXQEAU__acrt_ptd@@@Z 00000001800336e0     libucrt:per_thread_data.obj
 0004:000016ec       $pdata$?destroy_ptd_array@@YAXQEAU__acrt_ptd@@@Z 00000001800336ec     libucrt:per_thread_data.obj
 0004:000016f8       $pdata$??$?RV<lambda_0ae27a3a962d80f24befdcbee591983d>@@AEAV<lambda_8d0ee55de4b1038c4002e0adecdf1839>@@V<lambda_dc504788e8f1664fe9b84e20bfb512f2>@@@?$__crt_seh_guarded_call@X@@QEAAX$$QEAV<lambda_0ae27a3a962d80f24befdcbee591983d>@@AEAV<lambda_8d0ee55de4b1038c4002e0adecdf1839>@@$$QEAV<lambda_dc504788e8f1664fe9b84e20bfb512f2>@@@Z 00000001800336f8     libucrt:per_thread_data.obj
 0004:00001704       $pdata$??$?RV<lambda_aa87e3671a710a21b5dc78c0bdf72e11>@@AEAV<lambda_92619d2358a28f41a33ba319515a20b9>@@V<lambda_6992ecaafeb10aed2b74cb1fae11a551>@@@?$__crt_seh_guarded_call@X@@QEAAX$$QEAV<lambda_aa87e3671a710a21b5dc78c0bdf72e11>@@AEAV<lambda_92619d2358a28f41a33ba319515a20b9>@@$$QEAV<lambda_6992ecaafeb10aed2b74cb1fae11a551>@@@Z 0000000180033704     libucrt:per_thread_data.obj
 0004:00001710       $pdata$??$?RV<lambda_f2e299630e499de9f9a165e60fcd3db5>@@AEAV<lambda_2ae9d31cdba2644fcbeaf08da7c24588>@@V<lambda_40d01ff24d0e7b3814fdbdcee8eab3c7>@@@?$__crt_seh_guarded_call@X@@QEAAX$$QEAV<lambda_f2e299630e499de9f9a165e60fcd3db5>@@AEAV<lambda_2ae9d31cdba2644fcbeaf08da7c24588>@@$$QEAV<lambda_40d01ff24d0e7b3814fdbdcee8eab3c7>@@@Z 0000000180033710     libucrt:per_thread_data.obj
 0004:0000171c       $pdata$??$?RV<lambda_2d41944a1d46af3157314b8a01080d33>@@AEAV<lambda_8f455de75cd7d7f24b4096f044d8b9e6>@@V<lambda_aa500f224e6afead328df44964fe2772>@@@?$__crt_seh_guarded_call@X@@QEAAX$$QEAV<lambda_2d41944a1d46af3157314b8a01080d33>@@AEAV<lambda_8f455de75cd7d7f24b4096f044d8b9e6>@@$$QEAV<lambda_aa500f224e6afead328df44964fe2772>@@@Z 000000018003371c     libucrt:per_thread_data.obj
 0004:00001728       $pdata$_calloc_base        0000000180033728     libucrt:calloc_base.obj
 0004:00001734       $pdata$_malloc_base        0000000180033734     libucrt:malloc_base.obj
 0004:00001740       $pdata$_msize_base         0000000180033740     libucrt:msize.obj
 0004:0000174c       $pdata$_realloc_base       000000018003374c     libucrt:realloc_base.obj
 0004:00001758       $pdata$__acrt_initialize_winapi_thunks 0000000180033758     libucrt:winapi_thunks.obj
 0004:00001764       $pdata$__acrt_uninitialize_winapi_thunks 0000000180033764     libucrt:winapi_thunks.obj
 0004:00001770       $pdata$__acrt_FlsAlloc     0000000180033770     libucrt:winapi_thunks.obj
 0004:0000177c       $pdata$__acrt_FlsFree      000000018003377c     libucrt:winapi_thunks.obj
 0004:00001788       $pdata$__acrt_FlsGetValue  0000000180033788     libucrt:winapi_thunks.obj
 0004:00001794       $pdata$__acrt_FlsSetValue  0000000180033794     libucrt:winapi_thunks.obj
 0004:000017a0       $pdata$__acrt_InitializeCriticalSectionEx 00000001800337a0     libucrt:winapi_thunks.obj
 0004:000017ac       $pdata$__acrt_LCMapStringEx 00000001800337ac     libucrt:winapi_thunks.obj
 0004:000017b8       $pdata$__acrt_LocaleNameToLCID 00000001800337b8     libucrt:winapi_thunks.obj
 0004:000017c4       $pdata$__acrt_AppPolicyGetProcessTerminationMethodInternal 00000001800337c4     libucrt:winapi_thunks.obj
 0004:000017d0       $pdata$__acrt_SetThreadStackGuarantee 00000001800337d0     libucrt:winapi_thunks.obj
 0004:000017dc       $pdata$?try_get_function@@YAPEAXW4function_id@?A0x391cf84c@@QEBDQEBW4module_id@2@2@Z 00000001800337dc     libucrt:winapi_thunks.obj
 0004:000017e8       $pdata$isdigit             00000001800337e8     libucrt:_ctype.obj
 0004:000017f4       $pdata$tolower             00000001800337f4     libucrt:tolower_toupper.obj
 0004:00001800       $pdata$_tolower_l          0000000180033800     libucrt:tolower_toupper.obj
 0004:0000180c       $pdata$?internal_isupper_l@@YA_NHQEAU__crt_locale_pointers@@@Z 000000018003380c     libucrt:tolower_toupper.obj
 0004:00001818       $pdata$wcstol              0000000180033818     libucrt:strtox.obj
 0004:00001824       $pdata$_mbtowc_l           0000000180033824     libucrt:mbtowc.obj
 0004:00001830       $pdata$wcsnlen             0000000180033830     libucrt:strnlen.obj
 0004:0000183c       $pdata$__acrt_update_locale_info 000000018003383c     libucrt:locale_update.obj
 0004:00001848       $pdata$__acrt_update_multibyte_info 0000000180033848     libucrt:locale_update.obj
 0004:00001854       $pdata$__acrt_fp_format    0000000180033854     libucrt:cvt.obj
 0004:00001860       $pdata$?fp_format_nan_or_infinity@@YAHW4__acrt_fp_class@@_NPEAD_K1@Z 0000000180033860     libucrt:cvt.obj
 0004:0000186c       $pdata$?fp_format_e_internal@@YAHQEAD_KH_NIQEAU_strflt@@2QEAU__crt_locale_pointers@@@Z 000000018003386c     libucrt:cvt.obj
 0004:00001878       $pdata$?fp_format_e@@YAHQEBNQEAD_K12H_NIQEAU__crt_locale_pointers@@@Z 0000000180033878     libucrt:cvt.obj
 0004:00001884       $pdata$?fp_format_a@@YAHQEBNPEAD_KQEAD2H_NIQEAU__crt_locale_pointers@@@Z 0000000180033884     libucrt:cvt.obj
 0004:00001890       $pdata$?fp_format_f_internal@@YAHQEAD_KHQEAU_strflt@@_NQEAU__crt_locale_pointers@@@Z 0000000180033890     libucrt:cvt.obj
 0004:0000189c       $pdata$?fp_format_g@@YAHQEBNQEAD_K12H_NIQEAU__crt_locale_pointers@@@Z 000000018003389c     libucrt:cvt.obj
 0004:000018a8       $pdata$_fileno             00000001800338a8     libucrt:fileno.obj
 0004:000018b4       $pdata$__acrt_initialize_stdio 00000001800338b4     libucrt:_file.obj
 0004:000018c0       $pdata$__acrt_uninitialize_stdio 00000001800338c0     libucrt:_file.obj
 0004:000018cc       $pdata$__acrt_uninitialize_locale 00000001800338cc     libucrt:wsetlocale.obj
 0004:000018d8       $pdata$??$?RV<lambda_410d79af7f07d98d83a3f525b3859a53>@@AEAV<lambda_3e16ef9562a7dcce91392c22ab16ea36>@@V<lambda_38119f0e861e05405d8a144b9b982f0a>@@@?$__crt_seh_guarded_call@X@@QEAAX$$QEAV<lambda_410d79af7f07d98d83a3f525b3859a53>@@AEAV<lambda_3e16ef9562a7dcce91392c22ab16ea36>@@$$QEAV<lambda_38119f0e861e05405d8a144b9b982f0a>@@@Z 00000001800338d8     libucrt:wsetlocale.obj
 0004:000018e4       $pdata$?fin$0@?0???$?RV<lambda_410d79af7f07d98d83a3f525b3859a53>@@AEAV<lambda_3e16ef9562a7dcce91392c22ab16ea36>@@V<lambda_38119f0e861e05405d8a144b9b982f0a>@@@?$__crt_seh_guarded_call@X@@QEAAX$$QEAV<lambda_410d79af7f07d98d83a3f525b3859a53>@@AEAV<lambda_3e16ef9562a7dcce91392c22ab16ea36>@@$$QEAV<lambda_38119f0e861e05405d8a144b9b982f0a>@@@Z@4HA 00000001800338e4     libucrt:wsetlocale.obj
 0004:000018f0       $pdata$__acrt_initialize_lowio 00000001800338f0     libucrt:ioinit.obj
 0004:000018fc       $pdata$__acrt_lowio_ensure_fh_exists$fin$0 00000001800338fc     libucrt:osfinfo.obj
 0004:000018fc       $pdata$__acrt_initialize_lowio$fin$0 00000001800338fc     libucrt:ioinit.obj
 0004:00001908       $pdata$__acrt_uninitialize_lowio 0000000180033908     libucrt:ioinit.obj
 0004:00001914       $pdata$?initialize_inherited_file_handles_nolock@@YAXXZ 0000000180033914     libucrt:ioinit.obj
 0004:00001920       $pdata$?initialize_stdio_handles_nolock@@YAXXZ 0000000180033920     libucrt:ioinit.obj
 0004:0000192c       $pdata$__acrt_initialize_locks 000000018003392c     libucrt:locks.obj
 0004:00001938       $pdata$__acrt_uninitialize_locks 0000000180033938     libucrt:locks.obj
 0004:00001944       $pdata$__acrt_get_process_end_policy 0000000180033944     libucrt:win_policies.obj
 0004:00001950       $pdata$??$common_expand_argv_wildcards@D@@YAHQEAPEADQEAPEAPEAD@Z 0000000180033950     libucrt:argv_wildcards.obj
 0004:0000195c       $pdata$??$copy_and_add_argument_to_buffer@D@@YAHQEBD0_KAEAV?$argument_list@D@?A0x5f5c8891@@@Z 000000018003395c     libucrt:argv_wildcards.obj
 0004:00001968       $pdata$??$expand_argument_wildcards@D@@YAHQEAD0AEAV?$argument_list@D@?A0x5f5c8891@@@Z 0000000180033968     libucrt:argv_wildcards.obj
 0004:00001974       $pdata$__acrt_update_thread_multibyte_data 0000000180033974     libucrt:mbctype.obj
 0004:00001980       $pdata$__acrt_initialize_multibyte 0000000180033980     libucrt:mbctype.obj
 0004:0000198c       $pdata$_setmbcp_nolock     000000018003398c     libucrt:mbctype.obj
 0004:00001998       $pdata$?getSystemCP@@YAHH@Z 0000000180033998     libucrt:mbctype.obj
 0004:000019a4       $pdata$?setSBCS@@YAXPEAU__crt_multibyte_data@@@Z 00000001800339a4     libucrt:mbctype.obj
 0004:000019b0       $pdata$?setSBUpLow@@YAXPEAU__crt_multibyte_data@@@Z 00000001800339b0     libucrt:mbctype.obj
 0004:000019bc       $pdata$?update_thread_multibyte_data_internal@@YAPEAU__crt_multibyte_data@@QEAU__acrt_ptd@@QEAU1@@Z 00000001800339bc     libucrt:mbctype.obj
 0004:000019c8       $pdata$?fin$0@?0??update_thread_multibyte_data_internal@@YAPEAU__crt_multibyte_data@@QEAU__acrt_ptd@@QEAU1@@Z@4HA 00000001800339c8     libucrt:mbctype.obj
 0004:000019d4       $pdata$?setmbcp_internal@@YAHH_NQEAU__acrt_ptd@@QEAPEAU__crt_multibyte_data@@@Z 00000001800339d4     libucrt:mbctype.obj
 0004:000019e0       $pdata$??$?RV<lambda_efdfa57d1f175319df784efa44bb7b81>@@AEAV<lambda_5f0a4c1567f8adc6734073e5d1e1b35c>@@V<lambda_2e8a7d3640ea6ccb4c2413664c2db6fd>@@@?$__crt_seh_guarded_call@X@@QEAAX$$QEAV<lambda_efdfa57d1f175319df784efa44bb7b81>@@AEAV<lambda_5f0a4c1567f8adc6734073e5d1e1b35c>@@$$QEAV<lambda_2e8a7d3640ea6ccb4c2413664c2db6fd>@@@Z 00000001800339e0     libucrt:mbctype.obj
 0004:000019ec       $pdata$?x_ismbbtype_l@@YAHPEAU__crt_locale_pointers@@IHH@Z 00000001800339ec     libucrt:ismbbyte.obj
 0004:000019f8       $pdata$__acrt_initialize_command_line 00000001800339f8     libucrt:argv_data.obj
 0004:00001a04       $pdata$__dcrt_get_narrow_environment_from_os 0000000180033a04     libucrt:get_environment_from_os.obj
 0004:00001a10       $pdata$__acrt_initialize_heap 0000000180033a10     libucrt:heap_handle.obj
 0004:00001a1c       $pdata$__acrt_execute_initializers 0000000180033a1c     libucrt:shared_initialization.obj
 0004:00001a28       $pdata$__acrt_execute_uninitializers 0000000180033a28     libucrt:shared_initialization.obj
 0004:00001a34       $pdata$__acrt_get_sigabrt_handler 0000000180033a34     libucrt:signal.obj
 0004:00001a40       $pdata$raise               0000000180033a40     libucrt:signal.obj
 0004:00001a4c       $pdata$raise$fin$0         0000000180033a4c     libucrt:signal.obj
 0004:00001a58       $pdata$??$?RV<lambda_450d765d439847d4c735a33c368b5fc0>@@AEAV<lambda_44731a7d0e6d81c3e6aa82d741081786>@@V<lambda_601a2a7da3b7a96e9554ac7215c4b07c>@@@?$__crt_seh_guarded_call@P6AXH@Z@@QEAAP6AXH@Z$$QEAV<lambda_450d765d439847d4c735a33c368b5fc0>@@AEAV<lambda_44731a7d0e6d81c3e6aa82d741081786>@@$$QEAV<lambda_601a2a7da3b7a96e9554ac7215c4b07c>@@@Z 0000000180033a58     libucrt:signal.obj
 0004:00001a64       $pdata$__pctype_func       0000000180033a64     libucrt:ctype.obj
 0004:00001a70       $pdata$iswctype            0000000180033a70     libucrt:iswctype.obj
 0004:00001a7c       $pdata$_isctype_l          0000000180033a7c     libucrt:isctype.obj
 0004:00001a88       $pdata$__acrt_release_locale_ref 0000000180033a88     libucrt:locale_refcounting.obj
 0004:00001a94       $pdata$__acrt_free_locale  0000000180033a94     libucrt:locale_refcounting.obj
 0004:00001aa0       $pdata$__acrt_locale_free_lc_time_if_unreferenced 0000000180033aa0     libucrt:locale_refcounting.obj
 0004:00001aac       $pdata$__acrt_update_thread_locale_data 0000000180033aac     libucrt:locale_refcounting.obj
 0004:00001ab8       $pdata$__acrt_update_thread_locale_data$fin$0 0000000180033ab8     libucrt:locale_refcounting.obj
 0004:00001ac4       $pdata$_updatetlocinfoEx_nolock 0000000180033ac4     libucrt:locale_refcounting.obj
 0004:00001ad0       $pdata$__acrt_DownlevelLocaleNameToLCID 0000000180033ad0     libucrt:lcidtoname_downlevel.obj
 0004:00001adc       $pdata$?GetTableIndexFromLocaleName@@YAHPEB_W@Z 0000000180033adc     libucrt:lcidtoname_downlevel.obj
 0004:00001ae8       $pdata$_isleadbyte_l       0000000180033ae8     libucrt:_wctype.obj
 0004:00001af4       $pdata$__acrt_LCMapStringA 0000000180033af4     libucrt:lcmapstringa.obj
 0004:00001b00       $pdata$?__acrt_LCMapStringA_stat@@YAHPEAU__crt_locale_pointers@@PEB_WKPEBDHPEADHHH@Z 0000000180033b00     libucrt:lcmapstringa.obj
 0004:00001b0c       $pdata$__acrt_fp_strflt_to_string 0000000180033b0c     libucrt:_fptostr.obj
 0004:00001b18       $pdata$memcpy_s            0000000180033b18     libucrt:cfout.obj
 0004:00001b24       $pdata$__acrt_fltout       0000000180033b24     libucrt:cfout.obj
 0004:00001b30       $pdata$?divide@__crt_strtox@@YA_KAEAUbig_integer@1@AEBU21@@Z 0000000180033b30     libucrt:cfout.obj
 0004:00001b3c       $pdata$5$?divide@__crt_strtox@@YA_KAEAUbig_integer@1@AEBU21@@Z 0000000180033b3c     libucrt:cfout.obj
 0004:00001b48       $pdata$6$?divide@__crt_strtox@@YA_KAEAUbig_integer@1@AEBU21@@Z 0000000180033b48     libucrt:cfout.obj
 0004:00001b54       $pdata$_fcloseall          0000000180033b54     libucrt:closeall.obj
 0004:00001b60       $pdata$_fcloseall$fin$0    0000000180033b60     libucrt:closeall.obj
 0004:00001b6c       $pdata$_fflush_nolock      0000000180033b6c     libucrt:fflush.obj
 0004:00001b78       $pdata$__acrt_stdio_flush_nolock 0000000180033b78     libucrt:fflush.obj
 0004:00001b84       $pdata$?common_flush_all@@YAH_N@Z 0000000180033b84     libucrt:fflush.obj
 0004:00001b90       $pdata$??$?RV<lambda_842d9ff0dc9ef11c61343bbaebe7f885>@@AEAV<lambda_c5860995281e5c4ce005b3de8f5874ee>@@V<lambda_d90129c13df834fdcbf8d2b88dafcf2d>@@@?$__crt_seh_guarded_call@X@@QEAAX$$QEAV<lambda_842d9ff0dc9ef11c61343bbaebe7f885>@@AEAV<lambda_c5860995281e5c4ce005b3de8f5874ee>@@$$QEAV<lambda_d90129c13df834fdcbf8d2b88dafcf2d>@@@Z 0000000180033b90     libucrt:fflush.obj
 0004:00001b9c       $pdata$?fin$0@?0???$?RV<lambda_842d9ff0dc9ef11c61343bbaebe7f885>@@AEAV<lambda_c5860995281e5c4ce005b3de8f5874ee>@@V<lambda_d90129c13df834fdcbf8d2b88dafcf2d>@@@?$__crt_seh_guarded_call@X@@QEAAX$$QEAV<lambda_842d9ff0dc9ef11c61343bbaebe7f885>@@AEAV<lambda_c5860995281e5c4ce005b3de8f5874ee>@@$$QEAV<lambda_d90129c13df834fdcbf8d2b88dafcf2d>@@@Z@4HA 0000000180033b9c     libucrt:fflush.obj
 0004:00001ba8       $pdata$??$?RV<lambda_886d6c58226a84441f68b9f2b8217b83>@@AEAV<lambda_ab61a845afdef5b7c387490eaf3616ee>@@V<lambda_f7f22ab5edc0698d5f6905b0d3f44752>@@@?$__crt_seh_guarded_call@X@@QEAAX$$QEAV<lambda_886d6c58226a84441f68b9f2b8217b83>@@AEAV<lambda_ab61a845afdef5b7c387490eaf3616ee>@@$$QEAV<lambda_f7f22ab5edc0698d5f6905b0d3f44752>@@@Z 0000000180033ba8     libucrt:fflush.obj
 0004:00001bb4       $pdata$?fin$0@?0???$?RV<lambda_886d6c58226a84441f68b9f2b8217b83>@@AEAV<lambda_ab61a845afdef5b7c387490eaf3616ee>@@V<lambda_f7f22ab5edc0698d5f6905b0d3f44752>@@@?$__crt_seh_guarded_call@X@@QEAAX$$QEAV<lambda_886d6c58226a84441f68b9f2b8217b83>@@AEAV<lambda_ab61a845afdef5b7c387490eaf3616ee>@@$$QEAV<lambda_f7f22ab5edc0698d5f6905b0d3f44752>@@@Z@4HA 0000000180033bb4     libucrt:fflush.obj
 0004:00001bc0       $pdata$__acrt_stdio_free_buffer_nolock 0000000180033bc0     libucrt:_freebuf.obj
 0004:00001bcc       $pdata$_isatty             0000000180033bcc     libucrt:isatty.obj
 0004:00001bd8       $pdata$__acrt_locale_free_monetary 0000000180033bd8     libucrt:initmon.obj
 0004:00001be4       $pdata$__acrt_locale_free_numeric 0000000180033be4     libucrt:initnum.obj
 0004:00001bf0       $pdata$__acrt_locale_free_time 0000000180033bf0     libucrt:inittime.obj
 0004:00001bfc       $pdata$?free_crt_array_internal@@YAXQEAPEBX_K@Z 0000000180033bfc     libucrt:inittime.obj
 0004:00001c08       $pdata$__acrt_GetStringTypeA 0000000180033c08     libucrt:getstringtypea.obj
 0004:00001c14       $pdata$_get_osfhandle      0000000180033c14     libucrt:osfinfo.obj
 0004:00001c20       $pdata$_free_osfhnd        0000000180033c20     libucrt:osfinfo.obj
 0004:00001c2c       $pdata$__acrt_lowio_create_handle_array 0000000180033c2c     libucrt:osfinfo.obj
 0004:00001c38       $pdata$__acrt_lowio_destroy_handle_array 0000000180033c38     libucrt:osfinfo.obj
 0004:00001c44       $pdata$__acrt_lowio_ensure_fh_exists 0000000180033c44     libucrt:osfinfo.obj
 0004:00001c50       $pdata$qsort               0000000180033c50     libucrt:qsort.obj
 0004:00001c5c       $pdata$4$qsort             0000000180033c5c     libucrt:qsort.obj
 0004:00001c68       $pdata$5$qsort             0000000180033c68     libucrt:qsort.obj
 0004:00001c74       $pdata$?shortsort@@YAXPEAD0_KP6AHPEBX2@Z@Z 0000000180033c74     libucrt:qsort.obj
 0004:00001c80       $pdata$2$?shortsort@@YAXPEAD0_KP6AHPEBX2@Z@Z 0000000180033c80     libucrt:qsort.obj
 0004:00001c8c       $pdata$3$?shortsort@@YAXPEAD0_KP6AHPEBX2@Z@Z 0000000180033c8c     libucrt:qsort.obj
 0004:00001c98       $pdata$strncpy_s           0000000180033c98     libucrt:strncpy_s.obj
 0004:00001ca4       $pdata$strpbrk             0000000180033ca4     libucrt:strpbrk.obj
 0004:00001cb0       $pdata$_mbsdec_l           0000000180033cb0     libucrt:mbsdec.obj
 0004:00001cbc       $pdata$?initialize_multibyte@@YAHXZ 0000000180033cbc     libucrt:multibyte_initializer.obj
 0004:00001cc8       $pdata$fegetenv            0000000180033cc8     libucrt:fegetenv.obj
 0004:00001cd4       $pdata$fesetenv            0000000180033cd4     libucrt:fesetenv.obj
 0004:00001ce0       $pdata$feholdexcept        0000000180033ce0     libucrt:feholdexcept.obj
 0004:00001cf8       $pdata$_write              0000000180033cf8     libucrt:write.obj
 0004:00001d04       $pdata$_write$fin$0        0000000180033d04     libucrt:write.obj
 0004:00001d10       $pdata$_write_nolock       0000000180033d10     libucrt:write.obj
 0004:00001d1c       $pdata$?write_double_translated_ansi_nolock@@YA?AUwrite_result@?A0x17268360@@HQEBDI@Z 0000000180033d1c     libucrt:write.obj
 0004:00001d28       $pdata$?write_text_ansi_nolock@@YA?AUwrite_result@?A0x17268360@@HQEBDI@Z 0000000180033d28     libucrt:write.obj
 0004:00001d34       $pdata$?write_text_utf16le_nolock@@YA?AUwrite_result@?A0x17268360@@HQEBDI@Z 0000000180033d34     libucrt:write.obj
 0004:00001d40       $pdata$?write_text_utf8_nolock@@YA?AUwrite_result@?A0x17268360@@HQEBDI@Z 0000000180033d40     libucrt:write.obj
