 OPOSRFIDScanner

 Timestamp is 61a75821 (Wed Dec  1 20:10:25 2021)

 Preferred load address is 0000000180000000

 Start         Length     Name                   Class
 0001:00000000 000000c0H .text$di                CODE
 0001:000000c0 000244d0H .text$mn                CODE
 0001:00024590 00000040H .text$mn$00             CODE
 0001:000245d0 00000660H .text$x                 CODE
 0001:00024c30 00000078H .text$yd                CODE
 0002:00000000 00000638H .idata$5                DATA
 0002:00000638 00000030H .00cfg                  DATA
 0002:00000668 00000008H .CRT$XCA                DATA
 0002:00000670 00000008H .CRT$XCL                DATA
 0002:00000678 00000020H .CRT$XCU                DATA
 0002:00000698 00000008H .CRT$XCZ                DATA
 0002:000006a0 00000008H .CRT$XIA                DATA
 0002:000006a8 00000020H .CRT$XIC                DATA
 0002:000006c8 00000008H .CRT$XIZ                DATA
 0002:000006d0 00000008H .CRT$XLA                DATA
 0002:000006d8 00000008H .CRT$XLZ                DATA
 0002:000006e0 00000008H .CRT$XPA                DATA
 0002:000006e8 00000010H .CRT$XPX                DATA
 0002:000006f8 00000008H .CRT$XPXA               DATA
 0002:00000700 00000008H .CRT$XPZ                DATA
 0002:00000708 00000008H .CRT$XTA                DATA
 0002:00000710 00000010H .CRT$XTZ                DATA
 0002:00000718 00000000H .gehcont$y              DATA
 0002:00000718 00000000H .gfids$y                DATA
 0002:00000720 0000a5e0H .rdata                  DATA
 0002:0000ad00 00000000H .rdata$CastGuardVftablesA DATA
 0002:0000ad00 00000000H .rdata$CastGuardVftablesC DATA
 0002:0000ad00 00000028H .rdata$T                DATA
 0002:0000ad28 00000274H .rdata$r                DATA
 0002:0000af9c 00000048H .rdata$voltmd           DATA
 0002:0000afe4 00000434H .rdata$zzzdbg           DATA
 0002:0000b418 00000008H .rtc$IAA                DATA
 0002:0000b420 00000008H .rtc$IZZ                DATA
 0002:0000b428 00000008H .rtc$TAA                DATA
 0002:0000b430 00000008H .rtc$TZZ                DATA
 0002:0000b438 00000004H .tls                    DATA
 0002:0000b43c 00000004H .tls$                   DATA
 0002:0000b440 00000008H .tls$ZZZ                DATA
 0002:0000b448 00001980H .xdata                  DATA
 0002:0000cdc8 00000150H .xdata$x                DATA
 0002:0000cf18 00000008H ATL$__a                 DATA
 0002:0000cf20 00000010H ATL$__z                 DATA
 0002:0000cf30 000000acH .edata                  DATA
 0002:0000cfdc 00000078H .idata$2                DATA
 0002:0000d054 00000014H .idata$3                DATA
 0002:0000d068 00000638H .idata$4                DATA
 0002:0000d6a0 00000c5cH .idata$6                DATA
 0003:00000000 00000dc8H .data                   DATA
 0003:00000dc8 000000a8H .data$r                 DATA
 0003:00000e70 00000020H .data$rs                DATA
 0003:00000e90 000013ecH .bss                    DATA
 0004:00000000 000020acH .pdata                  DATA
 0005:00000000 000000f4H _RDATA                  DATA
 0006:00000000 00000220H .rsrc$01                DATA
 0006:00000220 00004630H .rsrc$02                DATA

  Address         Publics by Value              Rva+Base               Lib:Object

 0000:00000000       ___safe_se_handler_table   0000000000000000     <absolute>
 0000:00000000       __guard_longjmp_table      0000000000000000     <absolute>
 0000:00000000       __arm64x_redirection_metadata 0000000000000000     <absolute>
 0000:00000000       __x64_code_ranges_to_entry_points 0000000000000000     <absolute>
 0000:00000000       __guard_iat_table          0000000000000000     <absolute>
 0000:00000000       __guard_fids_count         0000000000000000     <absolute>
 0000:00000000       __guard_iat_count          0000000000000000     <absolute>
 0000:00000000       __arm64x_extra_rfe_table   0000000000000000     <absolute>
 0000:00000000       __guard_longjmp_count      0000000000000000     <absolute>
 0000:00000000       __dynamic_value_reloc_table 0000000000000000     <absolute>
 0000:00000000       __x64_code_ranges_to_entry_points_count 0000000000000000     <absolute>
 0000:00000000       __hybrid_auxiliary_iat     0000000000000000     <absolute>
 0000:00000000       __hybrid_code_map          0000000000000000     <absolute>
 0000:00000000       __hybrid_auxiliary_iat_copy 0000000000000000     <absolute>
 0000:00000000       __arm64x_extra_rfe_table_size 0000000000000000     <absolute>
 0000:00000000       ___safe_se_handler_count   0000000000000000     <absolute>
 0000:00000000       __AbsoluteZero             0000000000000000     <absolute>
 0000:00000000       __guard_check_icall_a64n_fptr 0000000000000000     <absolute>
 0000:00000000       __guard_eh_cont_count      0000000000000000     <absolute>
 0000:00000000       __guard_fids_table         0000000000000000     <absolute>
 0000:00000000       __arm64x_redirection_metadata_count 0000000000000000     <absolute>
 0000:00000000       __enclave_config           0000000000000000     <absolute>
 0000:00000000       __guard_eh_cont_table      0000000000000000     <absolute>
 0000:00000000       __arm64x_native_entrypoint 0000000000000000     <absolute>
 0000:00000000       __hybrid_code_map_count    0000000000000000     <absolute>
 0000:00000100       __guard_flags              0000000000000100     <absolute>
 0000:00000000       __ImageBase                0000000180000000     <linker-defined>
 0001:000000c0       ?DupWide@_CW@@AEAAXXZ      00000001800010c0 f   CWString.obj
 0001:000000e8       ?cw_dup@@YAXPEBDAEAHAEAPEA_W1@Z 00000001800010e8 f   CWString.obj
 0001:000001c8       ?cw_memcpy@@YAHPEA_WPEBDH@Z 00000001800011c8 f   CWString.obj
 0001:00000214       ?cw_strcpy@@YAHPEA_WPEBD@Z 0000000180001214 f   CWString.obj
 0001:00000228       ??0CAtlComModule@ATL@@QEAA@XZ 0000000180001228 f i OposVariant.obj
 0001:000002a8       ??0CAtlWinModule@ATL@@QEAA@XZ 00000001800012a8 f i OposVariant.obj
 0001:00000314       ??0OposDispParms@@QEAA@PEAVOposVariant@@H@Z 0000000180001314 f   OposVariant.obj
 0001:000003bc       ??1OposDispParms@@QEAA@XZ  00000001800013bc f   OposVariant.obj
 0001:000003d4       ??_Estringdispid@CComTypeInfoHolder@ATL@@QEAAPEAXI@Z 00000001800013d4 f i OposVariant.obj
 0001:00000478       ?AtlWinModuleTerm@ATL@@YAJPEAU_ATL_WIN_MODULE70@1@PEAUHINSTANCE__@@@Z 0000000180001478 f i OposVariant.obj
 0001:00000528       ?ChangeBSTR@OposVariant@@QEAAXPEAPEA_WAEAJ@Z 0000000180001528 f   OposVariant.obj
 0001:00000588       ?ChangeLONG@OposVariant@@QEAAXPEAJAEAJ@Z 0000000180001588 f   OposVariant.obj
 0001:000005e4       ?GetLONG@OposVariant@@QEAAJXZ 00000001800015e4 f   OposVariant.obj
 0001:00000608       ?SetBSTR@OposVariant@@QEAAXPEA_WAEAJ@Z 0000000180001608 f   OposVariant.obj
 0001:00000648       ?SetBSTR_Copy@OposVariant@@QEAAXPEA_WAEAJ@Z 0000000180001648 f   OposVariant.obj
 0001:000006b8       ?SetBSTR_InOutPtr@OposVariant@@QEAA_NPEAPEA_WAEAJ@Z 00000001800016b8 f   OposVariant.obj
 0001:00000708       ?SetDispatch_Ptr@OposVariant@@QEAAXPEAUIDispatch@@AEAJ@Z 0000000180001708 f   OposVariant.obj
 0001:00000760       ?SetLONG@OposVariant@@QEAAXJ@Z 0000000180001760 f   OposVariant.obj
 0001:00000790       ?SetLONG_Ptr@OposVariant@@QEAAXPEAJAEAJ@Z 0000000180001790 f   OposVariant.obj
 0001:000007dc       ?SetString@OposVariant@@QEAAXPEB_WAEAJ@Z 00000001800017dc f   OposVariant.obj
 0001:00000840       ?SetVARIANT_BOOL@OposVariant@@QEAAXF@Z 0000000180001840 f   OposVariant.obj
 0001:00000878       ?Term@CAtlComModule@ATL@@QEAAXXZ 0000000180001878 f i OposVariant.obj
 0001:000008e8       ?_AtlInitializeCriticalSectionEx@ATL@@YAHPEAU_RTL_CRITICAL_SECTION@@KK@Z 00000001800018e8 f i OposVariant.obj
 0001:000008f0       ?_AtlRaiseException@ATL@@YAXKK@Z 00000001800018f0 f i OposVariant.obj
 0001:00000900       ?Next@?$CComEnumImpl@UIEnumConnections@@$1?_GUID_b196b287_bab4_101a_b69c_00aa00341d07@@3U__s_GUID@@BUtagCONNECTDATA@@V?$_Copy@UtagCONNECTDATA@@@ATL@@@ATL@@UEAAJKPEAUtagCONNECTDATA@@PEAK@Z 0000000180001900 f i RFIDScanner.obj
 0001:000009c8       ?Skip@?$CComEnumImpl@UIEnumConnections@@$1?_GUID_b196b287_bab4_101a_b69c_00aa00341d07@@3U__s_GUID@@BUtagCONNECTDATA@@V?$_Copy@UtagCONNECTDATA@@@ATL@@@ATL@@UEAAJK@Z 00000001800019c8 f i RFIDScanner.obj
 0001:000009f4       ?Reset@?$CComEnumImpl@UIEnumConnectionPoints@@$1?_GUID_b196b285_bab4_101a_b69c_00aa00341d07@@3U__s_GUID@@BPEAUIConnectionPoint@@V?$_CopyInterface@UIConnectionPoint@@@ATL@@@ATL@@UEAAJXZ 00000001800019f4 f i RFIDScanner.obj
 0001:000009f4       ?Reset@?$CComEnumImpl@UIEnumConnections@@$1?_GUID_b196b287_bab4_101a_b69c_00aa00341d07@@3U__s_GUID@@BUtagCONNECTDATA@@V?$_Copy@UtagCONNECTDATA@@@ATL@@@ATL@@UEAAJXZ 00000001800019f4 f i RFIDScanner.obj
 0001:00000a00       ?Clone@?$CComEnumImpl@UIEnumConnections@@$1?_GUID_b196b287_bab4_101a_b69c_00aa00341d07@@3U__s_GUID@@BUtagCONNECTDATA@@V?$_Copy@UtagCONNECTDATA@@@ATL@@@ATL@@UEAAJPEAPEAUIEnumConnections@@@Z 0000000180001a00 f i RFIDScanner.obj
 0001:00000b2c       ?AddRef@?$CComObject@V?$CComEnum@UIEnumConnectionPoints@@$1?_GUID_b196b285_bab4_101a_b69c_00aa00341d07@@3U__s_GUID@@BPEAUIConnectionPoint@@V?$_CopyInterface@UIConnectionPoint@@@ATL@@VCComSingleThreadModel@6@@ATL@@@ATL@@UEAAKXZ 0000000180001b2c f i RFIDScanner.obj
 0001:00000b2c       ?AddRef@?$CComObject@V?$CComEnum@UIEnumConnections@@$1?_GUID_b196b287_bab4_101a_b69c_00aa00341d07@@3U__s_GUID@@BUtagCONNECTDATA@@V?$_Copy@UtagCONNECTDATA@@@ATL@@VCComSingleThreadModel@6@@ATL@@@ATL@@UEAAKXZ 0000000180001b2c f i RFIDScanner.obj
 0001:00000b38       ?Release@?$CComObject@V?$CComEnum@UIEnumConnections@@$1?_GUID_b196b287_bab4_101a_b69c_00aa00341d07@@3U__s_GUID@@BUtagCONNECTDATA@@V?$_Copy@UtagCONNECTDATA@@@ATL@@VCComSingleThreadModel@6@@ATL@@@ATL@@UEAAKXZ 0000000180001b38 f i RFIDScanner.obj
 0001:00000b38       ?Release@?$CComObject@V?$CComEnum@UIEnumConnectionPoints@@$1?_GUID_b196b285_bab4_101a_b69c_00aa00341d07@@3U__s_GUID@@BPEAUIConnectionPoint@@V?$_CopyInterface@UIConnectionPoint@@@ATL@@VCComSingleThreadModel@6@@ATL@@@ATL@@UEAAKXZ 0000000180001b38 f i RFIDScanner.obj
 0001:00000b8c       ?QueryInterface@?$CComObject@V?$CComEnum@UIEnumConnections@@$1?_GUID_b196b287_bab4_101a_b69c_00aa00341d07@@3U__s_GUID@@BUtagCONNECTDATA@@V?$_Copy@UtagCONNECTDATA@@@ATL@@VCComSingleThreadModel@6@@ATL@@@ATL@@UEAAJAEBU_GUID@@PEAPEAX@Z 0000000180001b8c f i RFIDScanner.obj
 0001:00000ba0       ??_G?$CComObject@V?$CComEnum@UIEnumConnections@@$1?_GUID_b196b287_bab4_101a_b69c_00aa00341d07@@3U__s_GUID@@BUtagCONNECTDATA@@V?$_Copy@UtagCONNECTDATA@@@ATL@@VCComSingleThreadModel@6@@ATL@@@ATL@@UEAAPEAXI@Z 0000000180001ba0 f i RFIDScanner.obj
 0001:00000ba0       ??_E?$CComObject@V?$CComEnum@UIEnumConnections@@$1?_GUID_b196b287_bab4_101a_b69c_00aa00341d07@@3U__s_GUID@@BUtagCONNECTDATA@@V?$_Copy@UtagCONNECTDATA@@@ATL@@VCComSingleThreadModel@6@@ATL@@@ATL@@UEAAPEAXI@Z 0000000180001ba0 f i RFIDScanner.obj
 0001:00000bf8       ?ObjectMain@CComObjectRootBase@ATL@@SAX_N@Z 0000000180001bf8 f i RFIDScanner.obj
 0001:00000bf8       _guard_check_icall_nop     0000000180001bf8 f i LIBCMT:guard_support.obj
 0001:00000bf8       ?OnFinalMessage@?$CWindowImplBaseT@VCWindow@ATL@@V?$CWinTraits@$0FGAAAAAA@$0A@@2@@ATL@@UEAAXPEAUHWND__@@@Z 0000000180001bf8 f i RFIDScanner.obj
 0001:00000bfc       ?HandsOffStorage@?$IPersistStorageImpl@VCOPOSRFIDScanner@@@ATL@@UEAAJXZ 0000000180001bfc f i RFIDScanner.obj
 0001:00000bfc       ?OnFrameWindowActivate@?$IOleInPlaceActiveObjectImpl@VCOPOSRFIDScanner@@@ATL@@UEAAJH@Z 0000000180001bfc f i RFIDScanner.obj
 0001:00000bfc       ?ResizeBorder@?$IOleInPlaceActiveObjectImpl@VCOPOSRFIDScanner@@@ATL@@UEAAJPEBUtagRECT@@PEAUIOleInPlaceUIWindow@@H@Z 0000000180001bfc f i RFIDScanner.obj
 0001:00000bfc       ?OnAmbientPropertyChange@?$IOleControlImpl@VCOPOSRFIDScanner@@@ATL@@UEAAJJ@Z 0000000180001bfc f i RFIDScanner.obj
 0001:00000bfc       ?EnableModeless@?$IOleInPlaceActiveObjectImpl@VCOPOSRFIDScanner@@@ATL@@UEAAJH@Z 0000000180001bfc f i RFIDScanner.obj
 0001:00000bfc       ?Release@CRegObject@ATL@@UEAAKXZ 0000000180001bfc f i RFIDScanner.obj
 0001:00000bfc       ?GetCategoryMap@CComObjectRootBase@ATL@@SAPEBU_ATL_CATMAP_ENTRY@2@XZ 0000000180001bfc f i RFIDScanner.obj
 0001:00000bfc       ?SaveCompleted@?$IPersistStorageImpl@VCOPOSRFIDScanner@@@ATL@@UEAAJPEAUIStorage@@@Z 0000000180001bfc f i RFIDScanner.obj
 0001:00000bfc       ?SetHostNames@?$IOleObjectImpl@VCOPOSRFIDScanner@@@ATL@@UEAAJPEB_W0@Z 0000000180001bfc f i RFIDScanner.obj
 0001:00000bfc       ?GetObjectDescription@?$CComCoClass@VCOPOSRFIDScanner@@$1?CLSID_OPOSRFIDScanner@@3U_GUID@@B@ATL@@SAPEB_WXZ 0000000180001bfc f i RFIDScanner.obj
 0001:00000bfc       ?IsUpToDate@?$IOleObjectImpl@VCOPOSRFIDScanner@@@ATL@@UEAAJXZ 0000000180001bfc f i RFIDScanner.obj
 0001:00000bfc       ?Update@?$IOleObjectImpl@VCOPOSRFIDScanner@@@ATL@@UEAAJXZ 0000000180001bfc f i RFIDScanner.obj
 0001:00000c00       ??_E?$CComObject@VCOPOSRFIDScanner@@@ATL@@W7EAAPEAXI@Z 0000000180001c00 f i RFIDScanner.obj
 0001:00000c0c       ??_E?$CComObject@VCOPOSRFIDScanner@@@ATL@@WHA@EAAPEAXI@Z 0000000180001c0c f i RFIDScanner.obj
 0001:00000c18       ?QueryInterface@?$CComObject@VCOPOSRFIDScanner@@@ATL@@WLI@EAAJAEBU_GUID@@PEAPEAX@Z 0000000180001c18 f i RFIDScanner.obj
 0001:00000c24       ?AddRef@?$CComObject@VCOPOSRFIDScanner@@@ATL@@WLI@EAAKXZ 0000000180001c24 f i RFIDScanner.obj
 0001:00000c30       ?Release@?$CComObject@VCOPOSRFIDScanner@@@ATL@@WLI@EAAKXZ 0000000180001c30 f i RFIDScanner.obj
 0001:00000c3c       ?QueryInterface@?$CComObject@VCOPOSRFIDScanner@@@ATL@@WMA@EAAJAEBU_GUID@@PEAPEAX@Z 0000000180001c3c f i RFIDScanner.obj
 0001:00000c48       ?CreateInstance@CComClassFactory@ATL@@UEAAJPEAUIUnknown@@AEBU_GUID@@PEAPEAX@Z 0000000180001c48 f i RFIDScanner.obj
 0001:00000ca8       ?AddRef@?$CComObject@VCOPOSRFIDScanner@@@ATL@@WMA@EAAKXZ 0000000180001ca8 f i RFIDScanner.obj
 0001:00000cb4       ?Release@?$CComObject@VCOPOSRFIDScanner@@@ATL@@WMA@EAAKXZ 0000000180001cb4 f i RFIDScanner.obj
 0001:00000cc0       ?LockServer@CComClassFactory@ATL@@UEAAJH@Z 0000000180001cc0 f i RFIDScanner.obj
 0001:00000ce4       ?QueryInterface@?$CComObject@VCOPOSRFIDScanner@@@ATL@@WMI@EAAJAEBU_GUID@@PEAPEAX@Z 0000000180001ce4 f i RFIDScanner.obj
 0001:00000cf0       ?AddRef@?$CComObject@VCOPOSRFIDScanner@@@ATL@@WMI@EAAKXZ 0000000180001cf0 f i RFIDScanner.obj
 0001:00000cfc       ?Release@?$CComObject@VCOPOSRFIDScanner@@@ATL@@WMI@EAAKXZ 0000000180001cfc f i RFIDScanner.obj
 0001:00000d08       ?QueryInterface@?$CComObject@VCOPOSRFIDScanner@@@ATL@@WNA@EAAJAEBU_GUID@@PEAPEAX@Z 0000000180001d08 f i RFIDScanner.obj
 0001:00000d14       ?AddRef@?$CComObject@VCOPOSRFIDScanner@@@ATL@@WNA@EAAKXZ 0000000180001d14 f i RFIDScanner.obj
 0001:00000d20       ?Release@?$CComObject@VCOPOSRFIDScanner@@@ATL@@WNA@EAAKXZ 0000000180001d20 f i RFIDScanner.obj
 0001:00000d2c       ?QueryInterface@?$CComObject@VCOPOSRFIDScanner@@@ATL@@WNI@EAAJAEBU_GUID@@PEAPEAX@Z 0000000180001d2c f i RFIDScanner.obj
 0001:00000d38       ?AddRef@?$CComObject@VCOPOSRFIDScanner@@@ATL@@WNI@EAAKXZ 0000000180001d38 f i RFIDScanner.obj
 0001:00000d44       ?Release@?$CComObject@VCOPOSRFIDScanner@@@ATL@@WNI@EAAKXZ 0000000180001d44 f i RFIDScanner.obj
 0001:00000d50       ?QueryInterface@?$CComObject@VCOPOSRFIDScanner@@@ATL@@WOA@EAAJAEBU_GUID@@PEAPEAX@Z 0000000180001d50 f i RFIDScanner.obj
 0001:00000d5c       ?AddRef@?$CComObject@VCOPOSRFIDScanner@@@ATL@@WOA@EAAKXZ 0000000180001d5c f i RFIDScanner.obj
 0001:00000d68       ?Release@?$CComObject@VCOPOSRFIDScanner@@@ATL@@WOA@EAAKXZ 0000000180001d68 f i RFIDScanner.obj
 0001:00000d74       ?QueryInterface@?$CComObject@VCOPOSRFIDScanner@@@ATL@@WOI@EAAJAEBU_GUID@@PEAPEAX@Z 0000000180001d74 f i RFIDScanner.obj
 0001:00000d80       ??_ECComClassFactory@ATL@@UEAAPEAXI@Z 0000000180001d80 f i RFIDScanner.obj
 0001:00000d80       ??_GCComClassFactory@ATL@@UEAAPEAXI@Z 0000000180001d80 f i RFIDScanner.obj
 0001:00000dd0       ?AddRef@?$CComObject@VCOPOSRFIDScanner@@@ATL@@WOI@EAAKXZ 0000000180001dd0 f i RFIDScanner.obj
 0001:00000ddc       ?Release@?$CComObject@VCOPOSRFIDScanner@@@ATL@@WOI@EAAKXZ 0000000180001ddc f i RFIDScanner.obj
 0001:00000de8       ?QueryInterface@?$CComObject@VCOPOSRFIDScanner@@@ATL@@WPA@EAAJAEBU_GUID@@PEAPEAX@Z 0000000180001de8 f i RFIDScanner.obj
 0001:00000df4       ?AddRef@?$CComObject@VCOPOSRFIDScanner@@@ATL@@WPA@EAAKXZ 0000000180001df4 f i RFIDScanner.obj
 0001:00000e00       ?Release@?$CComObject@VCOPOSRFIDScanner@@@ATL@@WPA@EAAKXZ 0000000180001e00 f i RFIDScanner.obj
 0001:00000e0c       ?QueryInterface@?$CComObject@VCOPOSRFIDScanner@@@ATL@@WPI@EAAJAEBU_GUID@@PEAPEAX@Z 0000000180001e0c f i RFIDScanner.obj
 0001:00000e18       ?AddRef@?$CComObject@VCOPOSRFIDScanner@@@ATL@@WPI@EAAKXZ 0000000180001e18 f i RFIDScanner.obj
 0001:00000e24       ?Release@?$CComObject@VCOPOSRFIDScanner@@@ATL@@WPI@EAAKXZ 0000000180001e24 f i RFIDScanner.obj
 0001:00000e30       ?QueryInterface@?$CComObject@VCOPOSRFIDScanner@@@ATL@@WBAA@EAAJAEBU_GUID@@PEAPEAX@Z 0000000180001e30 f i RFIDScanner.obj
 0001:00000e3c       ?AddRef@?$CComObject@VCOPOSRFIDScanner@@@ATL@@WBAA@EAAKXZ 0000000180001e3c f i RFIDScanner.obj
 0001:00000e48       ?Release@?$CComObject@VCOPOSRFIDScanner@@@ATL@@WBAA@EAAKXZ 0000000180001e48 f i RFIDScanner.obj
 0001:00000e54       ?QueryInterface@?$CComObject@VCOPOSRFIDScanner@@@ATL@@WBAI@EAAJAEBU_GUID@@PEAPEAX@Z 0000000180001e54 f i RFIDScanner.obj
 0001:00000e60       ?AddRef@?$CComObject@VCOPOSRFIDScanner@@@ATL@@WBAI@EAAKXZ 0000000180001e60 f i RFIDScanner.obj
 0001:00000e6c       ?Release@?$CComObject@VCOPOSRFIDScanner@@@ATL@@WBAI@EAAKXZ 0000000180001e6c f i RFIDScanner.obj
 0001:00000e78       ?QueryInterface@?$CComObject@VCOPOSRFIDScanner@@@ATL@@WBBA@EAAJAEBU_GUID@@PEAPEAX@Z 0000000180001e78 f i RFIDScanner.obj
 0001:00000e84       ?AddRef@?$CComObject@VCOPOSRFIDScanner@@@ATL@@WBBA@EAAKXZ 0000000180001e84 f i RFIDScanner.obj
 0001:00000e90       ?Release@?$CComObject@VCOPOSRFIDScanner@@@ATL@@WBBA@EAAKXZ 0000000180001e90 f i RFIDScanner.obj
 0001:00000e9c       ?QueryInterface@?$CComObject@VCOPOSRFIDScanner@@@ATL@@WBBI@EAAJAEBU_GUID@@PEAPEAX@Z 0000000180001e9c f i RFIDScanner.obj
 0001:00000ea8       ?AddRef@?$CComObject@VCOPOSRFIDScanner@@@ATL@@WBBI@EAAKXZ 0000000180001ea8 f i RFIDScanner.obj
 0001:00000eb4       ?Release@?$CComObject@VCOPOSRFIDScanner@@@ATL@@WBBI@EAAKXZ 0000000180001eb4 f i RFIDScanner.obj
 0001:00000ec0       ?AddRef@?$CComObject@VCOPOSRFIDScanner@@@ATL@@WBCI@EAAKXZ 0000000180001ec0 f i RFIDScanner.obj
 0001:00000ecc       ?Release@?$CComObject@VCOPOSRFIDScanner@@@ATL@@WBCI@EAAKXZ 0000000180001ecc f i RFIDScanner.obj
 0001:00000ed8       ?AddRef@?$CComObject@VCOPOSRFIDScanner@@@ATL@@WBEA@EAAKXZ 0000000180001ed8 f i RFIDScanner.obj
 0001:00000ee4       ?Release@?$CComObject@VCOPOSRFIDScanner@@@ATL@@WBEA@EAAKXZ 0000000180001ee4 f i RFIDScanner.obj
 0001:00000ef0       ??_E?$CComContainedObject@VCOPOSRFIDScanner@@@ATL@@W7EAAPEAXI@Z 0000000180001ef0 f i RFIDScanner.obj
 0001:00000efc       ??_E?$CComContainedObject@VCOPOSRFIDScanner@@@ATL@@WHA@EAAPEAXI@Z 0000000180001efc f i RFIDScanner.obj
 0001:00000f08       ?QueryInterface@?$CComContainedObject@VCOPOSRFIDScanner@@@ATL@@WLI@EAAJAEBU_GUID@@PEAPEAX@Z 0000000180001f08 f i RFIDScanner.obj
 0001:00000f14       ?AddRef@?$CComContainedObject@VCOPOSRFIDScanner@@@ATL@@WLI@EAAKXZ 0000000180001f14 f i RFIDScanner.obj
 0001:00000f20       ?Release@?$CComContainedObject@VCOPOSRFIDScanner@@@ATL@@WLI@EAAKXZ 0000000180001f20 f i RFIDScanner.obj
 0001:00000f2c       ?QueryInterface@?$CComContainedObject@VCOPOSRFIDScanner@@@ATL@@WMA@EAAJAEBU_GUID@@PEAPEAX@Z 0000000180001f2c f i RFIDScanner.obj
 0001:00000f38       ?AddRef@?$CComContainedObject@VCOPOSRFIDScanner@@@ATL@@WMA@EAAKXZ 0000000180001f38 f i RFIDScanner.obj
 0001:00000f44       ?Release@?$CComContainedObject@VCOPOSRFIDScanner@@@ATL@@WMA@EAAKXZ 0000000180001f44 f i RFIDScanner.obj
 0001:00000f50       ?QueryInterface@?$CComContainedObject@VCOPOSRFIDScanner@@@ATL@@WMI@EAAJAEBU_GUID@@PEAPEAX@Z 0000000180001f50 f i RFIDScanner.obj
 0001:00000f5c       ?AddRef@?$CComContainedObject@VCOPOSRFIDScanner@@@ATL@@WMI@EAAKXZ 0000000180001f5c f i RFIDScanner.obj
 0001:00000f68       ?Release@?$CComContainedObject@VCOPOSRFIDScanner@@@ATL@@WMI@EAAKXZ 0000000180001f68 f i RFIDScanner.obj
 0001:00000f74       ?QueryInterface@?$CComContainedObject@VCOPOSRFIDScanner@@@ATL@@WNA@EAAJAEBU_GUID@@PEAPEAX@Z 0000000180001f74 f i RFIDScanner.obj
 0001:00000f80       ?AddRef@?$CComContainedObject@VCOPOSRFIDScanner@@@ATL@@WNA@EAAKXZ 0000000180001f80 f i RFIDScanner.obj
 0001:00000f8c       ?Release@?$CComContainedObject@VCOPOSRFIDScanner@@@ATL@@WNA@EAAKXZ 0000000180001f8c f i RFIDScanner.obj
 0001:00000f98       ?QueryInterface@?$CComContainedObject@VCOPOSRFIDScanner@@@ATL@@WNI@EAAJAEBU_GUID@@PEAPEAX@Z 0000000180001f98 f i RFIDScanner.obj
 0001:00000fa4       ?AddRef@?$CComContainedObject@VCOPOSRFIDScanner@@@ATL@@WNI@EAAKXZ 0000000180001fa4 f i RFIDScanner.obj
 0001:00000fb0       ?Release@?$CComContainedObject@VCOPOSRFIDScanner@@@ATL@@WNI@EAAKXZ 0000000180001fb0 f i RFIDScanner.obj
 0001:00000fbc       ?QueryInterface@?$CComContainedObject@VCOPOSRFIDScanner@@@ATL@@WOA@EAAJAEBU_GUID@@PEAPEAX@Z 0000000180001fbc f i RFIDScanner.obj
 0001:00000fc8       ?AddRef@?$CComContainedObject@VCOPOSRFIDScanner@@@ATL@@WOA@EAAKXZ 0000000180001fc8 f i RFIDScanner.obj
 0001:00000fd4       ?Release@?$CComContainedObject@VCOPOSRFIDScanner@@@ATL@@WOA@EAAKXZ 0000000180001fd4 f i RFIDScanner.obj
 0001:00000fe0       ?QueryInterface@?$CComContainedObject@VCOPOSRFIDScanner@@@ATL@@WOI@EAAJAEBU_GUID@@PEAPEAX@Z 0000000180001fe0 f i RFIDScanner.obj
 0001:00000fec       ?AddRef@?$CComContainedObject@VCOPOSRFIDScanner@@@ATL@@WOI@EAAKXZ 0000000180001fec f i RFIDScanner.obj
 0001:00000ff8       ?Release@?$CComContainedObject@VCOPOSRFIDScanner@@@ATL@@WOI@EAAKXZ 0000000180001ff8 f i RFIDScanner.obj
 0001:00001004       ?QueryInterface@?$CComContainedObject@VCOPOSRFIDScanner@@@ATL@@WPA@EAAJAEBU_GUID@@PEAPEAX@Z 0000000180002004 f i RFIDScanner.obj
 0001:00001010       ?AddRef@?$CComContainedObject@VCOPOSRFIDScanner@@@ATL@@WPA@EAAKXZ 0000000180002010 f i RFIDScanner.obj
 0001:0000101c       ?Release@?$CComContainedObject@VCOPOSRFIDScanner@@@ATL@@WPA@EAAKXZ 000000018000201c f i RFIDScanner.obj
 0001:00001028       ?QueryInterface@?$CComContainedObject@VCOPOSRFIDScanner@@@ATL@@WPI@EAAJAEBU_GUID@@PEAPEAX@Z 0000000180002028 f i RFIDScanner.obj
 0001:00001034       ?AddRef@?$CComContainedObject@VCOPOSRFIDScanner@@@ATL@@WPI@EAAKXZ 0000000180002034 f i RFIDScanner.obj
 0001:00001040       ?Release@?$CComContainedObject@VCOPOSRFIDScanner@@@ATL@@WPI@EAAKXZ 0000000180002040 f i RFIDScanner.obj
 0001:0000104c       ?QueryInterface@?$CComContainedObject@VCOPOSRFIDScanner@@@ATL@@WBAA@EAAJAEBU_GUID@@PEAPEAX@Z 000000018000204c f i RFIDScanner.obj
 0001:00001058       ?AddRef@?$CComContainedObject@VCOPOSRFIDScanner@@@ATL@@WBAA@EAAKXZ 0000000180002058 f i RFIDScanner.obj
 0001:00001064       ?Release@?$CComContainedObject@VCOPOSRFIDScanner@@@ATL@@WBAA@EAAKXZ 0000000180002064 f i RFIDScanner.obj
 0001:00001070       ?QueryInterface@?$CComContainedObject@VCOPOSRFIDScanner@@@ATL@@WBAI@EAAJAEBU_GUID@@PEAPEAX@Z 0000000180002070 f i RFIDScanner.obj
 0001:0000107c       ?AddRef@?$CComContainedObject@VCOPOSRFIDScanner@@@ATL@@WBAI@EAAKXZ 000000018000207c f i RFIDScanner.obj
 0001:00001088       ?Release@?$CComContainedObject@VCOPOSRFIDScanner@@@ATL@@WBAI@EAAKXZ 0000000180002088 f i RFIDScanner.obj
 0001:00001094       ?QueryInterface@?$CComContainedObject@VCOPOSRFIDScanner@@@ATL@@WBBA@EAAJAEBU_GUID@@PEAPEAX@Z 0000000180002094 f i RFIDScanner.obj
 0001:000010a0       ?AddRef@?$CComContainedObject@VCOPOSRFIDScanner@@@ATL@@WBBA@EAAKXZ 00000001800020a0 f i RFIDScanner.obj
 0001:000010ac       ?Release@?$CComContainedObject@VCOPOSRFIDScanner@@@ATL@@WBBA@EAAKXZ 00000001800020ac f i RFIDScanner.obj
 0001:000010b8       ?QueryInterface@?$CComContainedObject@VCOPOSRFIDScanner@@@ATL@@WBBI@EAAJAEBU_GUID@@PEAPEAX@Z 00000001800020b8 f i RFIDScanner.obj
 0001:000010c4       ?AddRef@?$CComContainedObject@VCOPOSRFIDScanner@@@ATL@@WBBI@EAAKXZ 00000001800020c4 f i RFIDScanner.obj
 0001:000010d0       ?Release@?$CComContainedObject@VCOPOSRFIDScanner@@@ATL@@WBBI@EAAKXZ 00000001800020d0 f i RFIDScanner.obj
 0001:000010dc       ?AddRef@?$CComContainedObject@VCOPOSRFIDScanner@@@ATL@@WBCI@EAAKXZ 00000001800020dc f i RFIDScanner.obj
 0001:000010e8       ?Release@?$CComContainedObject@VCOPOSRFIDScanner@@@ATL@@WBCI@EAAKXZ 00000001800020e8 f i RFIDScanner.obj
 0001:000010f4       ?AddRef@?$CComContainedObject@VCOPOSRFIDScanner@@@ATL@@WBEA@EAAKXZ 00000001800020f4 f i RFIDScanner.obj
 0001:00001100       ?Release@?$CComContainedObject@VCOPOSRFIDScanner@@@ATL@@WBEA@EAAKXZ 0000000180002100 f i RFIDScanner.obj
 0001:0000110c       ?GetWindowProc@?$CWindowImplBaseT@VCWindow@ATL@@V?$CWinTraits@$0FGAAAAAA@$0A@@2@@ATL@@UEAAP6A_JPEAUHWND__@@I_K_J@ZXZ 000000018000210c f i RFIDScanner.obj
 0001:00001114       ?StartWindowProc@?$CWindowImplBaseT@VCWindow@ATL@@V?$CWinTraits@$0FGAAAAAA@$0A@@2@@ATL@@SA_JPEAUHWND__@@I_K_J@Z 0000000180002114 f i RFIDScanner.obj
 0001:000011c8       ?GetTypeInfoCount@?$IDispatchImpl@UIOPOSRFIDScanner@@$1?IID_IOPOSRFIDScanner@@3U_GUID@@B$1?LIBID_OposRFIDScanner_CCO@@3U3@B$00$0A@VCComTypeInfoHolder@ATL@@@ATL@@UEAAJPEAI@Z 00000001800021c8 f i RFIDScanner.obj
 0001:000011dc       ?GetTypeInfo@?$IDispatchImpl@UIOPOSRFIDScanner@@$1?IID_IOPOSRFIDScanner@@3U_GUID@@B$1?LIBID_OposRFIDScanner_CCO@@3U3@B$00$0A@VCComTypeInfoHolder@ATL@@@ATL@@UEAAJIKPEAPEAUITypeInfo@@@Z 00000001800021dc f i RFIDScanner.obj
 0001:00001240       ?GetIDsOfNames@?$IDispatchImpl@UIOPOSRFIDScanner@@$1?IID_IOPOSRFIDScanner@@3U_GUID@@B$1?LIBID_OposRFIDScanner_CCO@@3U3@B$00$0A@VCComTypeInfoHolder@ATL@@@ATL@@UEAAJAEBU_GUID@@PEAPEA_WIKPEAJ@Z 0000000180002240 f i RFIDScanner.obj
 0001:0000124c       ?Invoke@?$IDispatchImpl@UIOPOSRFIDScanner@@$1?IID_IOPOSRFIDScanner@@3U_GUID@@B$1?LIBID_OposRFIDScanner_CCO@@3U3@B$00$0A@VCComTypeInfoHolder@ATL@@@ATL@@UEAAJJAEBU_GUID@@KGPEAUtagDISPPARAMS@@PEAUtagVARIANT@@PEAUtagEXCEPINFO@@PEAI@Z 000000018000224c f i RFIDScanner.obj
 0001:000012dc       ?CreateControlWindow@?$CComControl@VCOPOSRFIDScanner@@V?$CWindowImpl@VCOPOSRFIDScanner@@VCWindow@ATL@@V?$CWinTraits@$0FGAAAAAA@$0A@@3@@ATL@@@ATL@@UEAAPEAUHWND__@@PEAU3@AEAUtagRECT@@@Z 00000001800022dc f i RFIDScanner.obj
 0001:00001314       ?ControlQueryInterface@?$CComControl@VCOPOSRFIDScanner@@V?$CWindowImpl@VCOPOSRFIDScanner@@VCWindow@ATL@@V?$CWinTraits@$0FGAAAAAA@$0A@@3@@ATL@@@ATL@@UEAAJAEBU_GUID@@PEAPEAX@Z 0000000180002314 f i RFIDScanner.obj
 0001:00001328       ?GetUserClassID@?$IOleObjectImpl@VCOPOSRFIDScanner@@@ATL@@UEAAJPEAU_GUID@@@Z 0000000180002328 f i RFIDScanner.obj
 0001:00001328       ?GetClassID@?$IPersistStreamInitImpl@VCOPOSRFIDScanner@@@ATL@@UEAAJPEAU_GUID@@@Z 0000000180002328 f i RFIDScanner.obj
 0001:00001328       ?GetClassID@?$IPersistStorageImpl@VCOPOSRFIDScanner@@@ATL@@UEAAJPEAU_GUID@@@Z 0000000180002328 f i RFIDScanner.obj
 0001:00001344       ?IsDirty@?$IPersistStreamInitImpl@VCOPOSRFIDScanner@@@ATL@@UEAAJXZ 0000000180002344 f i RFIDScanner.obj
 0001:00001360       ?Load@?$IPersistStreamInitImpl@VCOPOSRFIDScanner@@@ATL@@UEAAJPEAUIStream@@@Z 0000000180002360 f i RFIDScanner.obj
 0001:00001378       ?Save@?$IPersistStreamInitImpl@VCOPOSRFIDScanner@@@ATL@@UEAAJPEAUIStream@@H@Z 0000000180002378 f i RFIDScanner.obj
 0001:00001390       ?GetSizeMax@?$IPersistStreamInitImpl@VCOPOSRFIDScanner@@@ATL@@UEAAJPEAT_ULARGE_INTEGER@@@Z 0000000180002390 f i RFIDScanner.obj
 0001:000015b4       ?InitNew@?$IPersistStreamInitImpl@VCOPOSRFIDScanner@@@ATL@@UEAAJXZ 00000001800025b4 f i RFIDScanner.obj
 0001:000015cc       ?EnumFormatEtc@?$IDataObjectImpl@VCOPOSRFIDScanner@@@ATL@@UEAAJKPEAPEAUIEnumFORMATETC@@@Z 00000001800025cc f i RFIDScanner.obj
 0001:000015cc       ?GetCanonicalFormatEtc@?$IDataObjectImpl@VCOPOSRFIDScanner@@@ATL@@UEAAJPEAUtagFORMATETC@@0@Z 00000001800025cc f i RFIDScanner.obj
 0001:000015cc       ?SetData@?$IDataObjectImpl@VCOPOSRFIDScanner@@@ATL@@UEAAJPEAUtagFORMATETC@@PEAUtagSTGMEDIUM@@H@Z 00000001800025cc f i RFIDScanner.obj
 0001:000015cc       ?InitFromData@?$IOleObjectImpl@VCOPOSRFIDScanner@@@ATL@@UEAAJPEAUIDataObject@@HK@Z 00000001800025cc f i RFIDScanner.obj
 0001:000015cc       ?Unfreeze@?$IViewObjectExImpl@VCOPOSRFIDScanner@@@ATL@@UEAAJK@Z 00000001800025cc f i RFIDScanner.obj
 0001:000015cc       ?Freeze@?$IViewObjectExImpl@VCOPOSRFIDScanner@@@ATL@@UEAAJKJPEAXPEAK@Z 00000001800025cc f i RFIDScanner.obj
 0001:000015cc       ?GetDataHere@?$IDataObjectImpl@VCOPOSRFIDScanner@@@ATL@@UEAAJPEAUtagFORMATETC@@PEAUtagSTGMEDIUM@@@Z 00000001800025cc f i RFIDScanner.obj
 0001:000015cc       ?ReactivateAndUndo@?$IOleInPlaceObjectWindowlessImpl@VCOPOSRFIDScanner@@@ATL@@UEAAJXZ 00000001800025cc f i RFIDScanner.obj
 0001:000015cc       ?GetMoniker@?$IOleObjectImpl@VCOPOSRFIDScanner@@@ATL@@UEAAJKKPEAPEAUIMoniker@@@Z 00000001800025cc f i RFIDScanner.obj
 0001:000015cc       ?ContextSensitiveHelp@?$IOleInPlaceActiveObjectImpl@VCOPOSRFIDScanner@@@ATL@@UEAAJH@Z 00000001800025cc f i RFIDScanner.obj
 0001:000015cc       ?QueryGetData@?$IDataObjectImpl@VCOPOSRFIDScanner@@@ATL@@UEAAJPEAUtagFORMATETC@@@Z 00000001800025cc f i RFIDScanner.obj
 0001:000015cc       ?GetRect@?$IViewObjectExImpl@VCOPOSRFIDScanner@@@ATL@@UEAAJKPEAU_RECTL@@@Z 00000001800025cc f i RFIDScanner.obj
 0001:000015cc       ?GetDropTarget@?$IOleInPlaceObjectWindowlessImpl@VCOPOSRFIDScanner@@@ATL@@UEAAJPEAPEAUIDropTarget@@@Z 00000001800025cc f i RFIDScanner.obj
 0001:000015cc       ?GetColorSet@?$IViewObjectExImpl@VCOPOSRFIDScanner@@@ATL@@UEAAJKJPEAXPEAUtagDVTARGETDEVICE@@PEAUHDC__@@PEAPEAUtagLOGPALETTE@@@Z 00000001800025cc f i RFIDScanner.obj
 0001:000015cc       ?GetControlInfo@?$IOleControlImpl@VCOPOSRFIDScanner@@@ATL@@UEAAJPEAUtagCONTROLINFO@@@Z 00000001800025cc f i RFIDScanner.obj
 0001:000015cc       ?OnMnemonic@?$IOleControlImpl@VCOPOSRFIDScanner@@@ATL@@UEAAJPEAUtagMSG@@@Z 00000001800025cc f i RFIDScanner.obj
 0001:000015cc       ?SetMoniker@?$IOleObjectImpl@VCOPOSRFIDScanner@@@ATL@@UEAAJKPEAUIMoniker@@@Z 00000001800025cc f i RFIDScanner.obj
 0001:000015cc       ?SetColorScheme@?$IOleObjectImpl@VCOPOSRFIDScanner@@@ATL@@UEAAJPEAUtagLOGPALETTE@@@Z 00000001800025cc f i RFIDScanner.obj
 0001:000015cc       ?ContextSensitiveHelp@?$IOleInPlaceObjectWindowlessImpl@VCOPOSRFIDScanner@@@ATL@@UEAAJH@Z 00000001800025cc f i RFIDScanner.obj
 0001:000015cc       ?QueryInterface@CRegObject@ATL@@UEAAJAEBU_GUID@@PEAPEAX@Z 00000001800025cc f i RFIDScanner.obj
 0001:000015cc       ?GetClipboardData@?$IOleObjectImpl@VCOPOSRFIDScanner@@@ATL@@UEAAJKPEAPEAUIDataObject@@@Z 00000001800025cc f i RFIDScanner.obj
 0001:000015d4       ?SetClientSite@?$IOleObjectImpl@VCOPOSRFIDScanner@@@ATL@@UEAAJPEAUIOleClientSite@@@Z 00000001800025d4 f i RFIDScanner.obj
 0001:000015f0       ?GetClientSite@?$IOleObjectImpl@VCOPOSRFIDScanner@@@ATL@@UEAAJPEAPEAUIOleClientSite@@@Z 00000001800025f0 f i RFIDScanner.obj
 0001:00001638       ?Close@?$IOleObjectImpl@VCOPOSRFIDScanner@@@ATL@@UEAAJK@Z 0000000180002638 f i RFIDScanner.obj
 0001:00001654       ?DoVerb@?$IOleObjectImpl@VCOPOSRFIDScanner@@@ATL@@UEAAJJPEAUtagMSG@@PEAUIOleClientSite@@JPEAUHWND__@@PEBUtagRECT@@@Z 0000000180002654 f i RFIDScanner.obj
 0001:000017f8       ?EnumVerbs@?$IOleObjectImpl@VCOPOSRFIDScanner@@@ATL@@UEAAJPEAPEAUIEnumOLEVERB@@@Z 00000001800027f8 f i RFIDScanner.obj
 0001:00001814       ?GetUserType@?$IOleObjectImpl@VCOPOSRFIDScanner@@@ATL@@UEAAJKPEAPEA_W@Z 0000000180002814 f i RFIDScanner.obj
 0001:00001824       ?SetExtent@?$IOleObjectImpl@VCOPOSRFIDScanner@@@ATL@@UEAAJKPEAUtagSIZE@@@Z 0000000180002824 f i RFIDScanner.obj
 0001:00001840       ?GetExtent@?$IOleObjectImpl@VCOPOSRFIDScanner@@@ATL@@UEAAJKPEAUtagSIZE@@@Z 0000000180002840 f i RFIDScanner.obj
 0001:00001870       ?Advise@?$IOleObjectImpl@VCOPOSRFIDScanner@@@ATL@@UEAAJPEAUIAdviseSink@@PEAK@Z 0000000180002870 f i RFIDScanner.obj
 0001:000018cc       ?Unadvise@?$IOleObjectImpl@VCOPOSRFIDScanner@@@ATL@@UEAAJK@Z 00000001800028cc f i RFIDScanner.obj
 0001:00001904       ?EnumAdvise@?$IOleObjectImpl@VCOPOSRFIDScanner@@@ATL@@UEAAJPEAPEAUIEnumSTATDATA@@@Z 0000000180002904 f i RFIDScanner.obj
 0001:0000194c       ?GetMiscStatus@?$IOleObjectImpl@VCOPOSRFIDScanner@@@ATL@@UEAAJKPEAK@Z 000000018000294c f i RFIDScanner.obj
 0001:0000195c       ?GetWindow@?$IOleInPlaceActiveObjectImpl@VCOPOSRFIDScanner@@@ATL@@UEAAJPEAPEAUHWND__@@@Z 000000018000295c f i RFIDScanner.obj
 0001:000019b0       ?TranslateAcceleratorW@?$IOleInPlaceActiveObjectImpl@VCOPOSRFIDScanner@@@ATL@@UEAAJPEAUtagMSG@@@Z 00000001800029b0 f i RFIDScanner.obj
 0001:00001aa4       ?OnDocWindowActivate@?$IOleInPlaceActiveObjectImpl@VCOPOSRFIDScanner@@@ATL@@UEAAJH@Z 0000000180002aa4 f i RFIDScanner.obj
 0001:00001ad0       ?Draw@?$IViewObjectExImpl@VCOPOSRFIDScanner@@@ATL@@UEAAJKJPEAXPEAUtagDVTARGETDEVICE@@PEAUHDC__@@2PEBU_RECTL@@3P6AH_K@Z4@Z 0000000180002ad0 f i RFIDScanner.obj
 0001:00001b34       ?SetAdvise@?$IViewObjectExImpl@VCOPOSRFIDScanner@@@ATL@@UEAAJKKPEAUIAdviseSink@@@Z 0000000180002b34 f i RFIDScanner.obj
 0001:00001b88       ?GetAdvise@?$IViewObjectExImpl@VCOPOSRFIDScanner@@@ATL@@UEAAJPEAK0PEAPEAUIAdviseSink@@@Z 0000000180002b88 f i RFIDScanner.obj
 0001:00001bc4       ?GetExtent@?$IViewObjectExImpl@VCOPOSRFIDScanner@@@ATL@@UEAAJKJPEAUtagDVTARGETDEVICE@@PEAUtagSIZE@@@Z 0000000180002bc4 f i RFIDScanner.obj
 0001:00001bf4       ?GetViewStatus@?$IViewObjectExImpl@VCOPOSRFIDScanner@@@ATL@@UEAAJPEAK@Z 0000000180002bf4 f i RFIDScanner.obj
 0001:00001c08       ?QueryHitPoint@?$IViewObjectExImpl@VCOPOSRFIDScanner@@@ATL@@UEAAJKPEBUtagRECT@@UtagPOINT@@JPEAK@Z 0000000180002c08 f i RFIDScanner.obj
 0001:00001c4c       ?QueryHitRect@?$IViewObjectExImpl@VCOPOSRFIDScanner@@@ATL@@UEAAJKPEBUtagRECT@@0JPEAK@Z 0000000180002c4c f i RFIDScanner.obj
 0001:00001cb4       ?GetNaturalExtent@?$IViewObjectExImpl@VCOPOSRFIDScanner@@@ATL@@UEAAJKJPEAUtagDVTARGETDEVICE@@PEAUHDC__@@PEAUtagExtentInfo@@PEAUtagSIZE@@@Z 0000000180002cb4 f i RFIDScanner.obj
 0001:00001cfc       ?GetWindow@?$IOleInPlaceObjectWindowlessImpl@VCOPOSRFIDScanner@@@ATL@@UEAAJPEAPEAUHWND__@@@Z 0000000180002cfc f i RFIDScanner.obj
 0001:00001d50       ?InPlaceDeactivate@?$IOleInPlaceObjectWindowlessImpl@VCOPOSRFIDScanner@@@ATL@@UEAAJXZ 0000000180002d50 f i RFIDScanner.obj
 0001:00001d6c       ?UIDeactivate@?$IOleInPlaceObjectWindowlessImpl@VCOPOSRFIDScanner@@@ATL@@UEAAJXZ 0000000180002d6c f i RFIDScanner.obj
 0001:00001d88       ?SetObjectRects@?$IOleInPlaceObjectWindowlessImpl@VCOPOSRFIDScanner@@@ATL@@UEAAJPEBUtagRECT@@0@Z 0000000180002d88 f i RFIDScanner.obj
 0001:00001da4       ?OnWindowMessage@?$IOleInPlaceObjectWindowlessImpl@VCOPOSRFIDScanner@@@ATL@@UEAAJI_K_JPEA_J@Z 0000000180002da4 f i RFIDScanner.obj
 0001:00001e6c       ?EnumConnectionPoints@?$IConnectionPointContainerImpl@VCOPOSRFIDScanner@@@ATL@@UEAAJPEAPEAUIEnumConnectionPoints@@@Z 0000000180002e6c f i RFIDScanner.obj
 0001:000020b4       ?FindConnectionPoint@?$IConnectionPointContainerImpl@VCOPOSRFIDScanner@@@ATL@@UEAAJAEBU_GUID@@PEAPEAUIConnectionPoint@@@Z 00000001800030b4 f i RFIDScanner.obj
 0001:00002184       ?IsDirty@?$IPersistStorageImpl@VCOPOSRFIDScanner@@@ATL@@UEAAJXZ 0000000180003184 f i RFIDScanner.obj
 0001:000021c4       ?InitNew@?$IPersistStorageImpl@VCOPOSRFIDScanner@@@ATL@@UEAAJPEAUIStorage@@@Z 00000001800031c4 f i RFIDScanner.obj
 0001:00002204       ?Load@?$IPersistStorageImpl@VCOPOSRFIDScanner@@@ATL@@UEAAJPEAUIStorage@@@Z 0000000180003204 f i RFIDScanner.obj
 0001:000022a4       ?Save@?$IPersistStorageImpl@VCOPOSRFIDScanner@@@ATL@@UEAAJPEAUIStorage@@H@Z 00000001800032a4 f i RFIDScanner.obj
 0001:00002354       ?GetPages@?$ISpecifyPropertyPagesImpl@VCOPOSRFIDScanner@@@ATL@@UEAAJPEAUtagCAUUID@@@Z 0000000180003354 f i RFIDScanner.obj
 0001:00002360       ?QuickActivate@?$IQuickActivateImpl@VCOPOSRFIDScanner@@@ATL@@UEAAJPEAUtagQACONTAINER@@PEAUtagQACONTROL@@@Z 0000000180003360 f i RFIDScanner.obj
 0001:0000237c       ?SetContentExtent@?$IQuickActivateImpl@VCOPOSRFIDScanner@@@ATL@@UEAAJPEAUtagSIZE@@@Z 000000018000337c f i RFIDScanner.obj
 0001:000023b0       ?GetContentExtent@?$IQuickActivateImpl@VCOPOSRFIDScanner@@@ATL@@UEAAJPEAUtagSIZE@@@Z 00000001800033b0 f i RFIDScanner.obj
 0001:000023e8       ?GetData@?$IDataObjectImpl@VCOPOSRFIDScanner@@@ATL@@UEAAJPEAUtagFORMATETC@@PEAUtagSTGMEDIUM@@@Z 00000001800033e8 f i RFIDScanner.obj
 0001:00002404       ?DAdvise@?$IDataObjectImpl@VCOPOSRFIDScanner@@@ATL@@UEAAJPEAUtagFORMATETC@@KPEAUIAdviseSink@@PEAK@Z 0000000180003404 f i RFIDScanner.obj
 0001:0000248c       ?DUnadvise@?$IDataObjectImpl@VCOPOSRFIDScanner@@@ATL@@UEAAJK@Z 000000018000348c f i RFIDScanner.obj
 0001:000024b8       ?EnumDAdvise@?$IDataObjectImpl@VCOPOSRFIDScanner@@@ATL@@UEAAJPEAPEAUIEnumSTATDATA@@@Z 00000001800034b8 f i RFIDScanner.obj
 0001:000024f4       ?GetClassInfoW@?$IProvideClassInfo2Impl@$1?CLSID_OPOSRFIDScanner@@3U_GUID@@B$1?DIID__IOPOSRFIDScannerEvents@@3U2@B$1?LIBID_OposRFIDScanner_CCO@@3U2@B$00$0A@VCComTypeInfoHolder@ATL@@@ATL@@UEAAJPEAPEAUITypeInfo@@@Z 00000001800034f4 f i RFIDScanner.obj
 0001:0000254c       ?GetGUID@?$IProvideClassInfo2Impl@$1?CLSID_OPOSRFIDScanner@@3U_GUID@@B$1?DIID__IOPOSRFIDScannerEvents@@3U2@B$1?LIBID_OposRFIDScanner_CCO@@3U2@B$00$0A@VCComTypeInfoHolder@ATL@@@ATL@@UEAAJKPEAU_GUID@@@Z 000000018000354c f i RFIDScanner.obj
 0001:00002580       ?AddRef@CRegObject@ATL@@UEAAKXZ 0000000180003580 f i RFIDScanner.obj
 0001:00002580       _get_startup_argv_mode     0000000180003580 f i LIBCMT:argv_mode.obj
 0001:00002580       ?FAccessAllowed@?$IObjectSafetyImpl@VCOPOSRFIDScanner@@$02@ATL@@MEAAHXZ 0000000180003580 f i RFIDScanner.obj
 0001:00002588       ?GetInterfaceSafetyOptions@?$IObjectSafetyImpl@VCOPOSRFIDScanner@@$02@ATL@@UEAAJAEBU_GUID@@PEAK1@Z 0000000180003588 f i RFIDScanner.obj
 0001:0000261c       ?SetInterfaceSafetyOptions@?$IObjectSafetyImpl@VCOPOSRFIDScanner@@$02@ATL@@UEAAJAEBU_GUID@@KK@Z 000000018000361c f i RFIDScanner.obj
 0001:000026c0       ?_LocCPQueryInterface@?$IConnectionPointImpl@VCOPOSRFIDScanner@@$1?DIID__IOPOSRFIDScannerEvents@@3U_GUID@@BVCComDynamicUnkArray@ATL@@@ATL@@UEAAJAEBU_GUID@@PEAPEAX@Z 00000001800036c0 f i RFIDScanner.obj
 0001:000026c0       ?_LocCPQueryInterface@?$IConnectionPointImpl@VCOPOSRFIDScanner@@$1?IID_IPropertyNotifySink@@3U_GUID@@BVCComDynamicUnkArray@ATL@@@ATL@@UEAAJAEBU_GUID@@PEAPEAX@Z 00000001800036c0 f i RFIDScanner.obj
 0001:00002734       ?GetConnectionInterface@?$IConnectionPointImpl@VCOPOSRFIDScanner@@$1?IID_IPropertyNotifySink@@3U_GUID@@BVCComDynamicUnkArray@ATL@@@ATL@@UEAAJPEAU_GUID@@@Z 0000000180003734 f i RFIDScanner.obj
 0001:00002750       ?GetConnectionPointContainer@?$IConnectionPointImpl@VCOPOSRFIDScanner@@$1?IID_IPropertyNotifySink@@3U_GUID@@BVCComDynamicUnkArray@ATL@@@ATL@@UEAAJPEAPEAUIConnectionPointContainer@@@Z 0000000180003750 f i RFIDScanner.obj
 0001:00002770       ?Advise@?$IConnectionPointImpl@VCOPOSRFIDScanner@@$1?IID_IPropertyNotifySink@@3U_GUID@@BVCComDynamicUnkArray@ATL@@@ATL@@UEAAJPEAUIUnknown@@PEAK@Z 0000000180003770 f i RFIDScanner.obj
 0001:00002770       ?Advise@?$IConnectionPointImpl@VCOPOSRFIDScanner@@$1?DIID__IOPOSRFIDScannerEvents@@3U_GUID@@BVCComDynamicUnkArray@ATL@@@ATL@@UEAAJPEAUIUnknown@@PEAK@Z 0000000180003770 f i RFIDScanner.obj
 0001:0000282c       ?Unadvise@?$IConnectionPointImpl@VCOPOSRFIDScanner@@$1?IID_IPropertyNotifySink@@3U_GUID@@BVCComDynamicUnkArray@ATL@@@ATL@@UEAAJK@Z 000000018000382c f i RFIDScanner.obj
 0001:0000282c       ?Unadvise@?$IConnectionPointImpl@VCOPOSRFIDScanner@@$1?DIID__IOPOSRFIDScannerEvents@@3U_GUID@@BVCComDynamicUnkArray@ATL@@@ATL@@UEAAJK@Z 000000018000382c f i RFIDScanner.obj
 0001:00002894       ?EnumConnections@?$IConnectionPointImpl@VCOPOSRFIDScanner@@$1?DIID__IOPOSRFIDScannerEvents@@3U_GUID@@BVCComDynamicUnkArray@ATL@@@ATL@@UEAAJPEAPEAUIEnumConnections@@@Z 0000000180003894 f i RFIDScanner.obj
 0001:00002894       ?EnumConnections@?$IConnectionPointImpl@VCOPOSRFIDScanner@@$1?IID_IPropertyNotifySink@@3U_GUID@@BVCComDynamicUnkArray@ATL@@@ATL@@UEAAJPEAPEAUIEnumConnections@@@Z 0000000180003894 f i RFIDScanner.obj
 0001:00002a28       ?GetConnectionInterface@?$IConnectionPointImpl@VCOPOSRFIDScanner@@$1?DIID__IOPOSRFIDScannerEvents@@3U_GUID@@BVCComDynamicUnkArray@ATL@@@ATL@@UEAAJPEAU_GUID@@@Z 0000000180003a28 f i RFIDScanner.obj
 0001:00002a44       ?GetConnectionPointContainer@?$IConnectionPointImpl@VCOPOSRFIDScanner@@$1?DIID__IOPOSRFIDScannerEvents@@3U_GUID@@BVCComDynamicUnkArray@ATL@@@ATL@@UEAAJPEAPEAUIConnectionPointContainer@@@Z 0000000180003a44 f i RFIDScanner.obj
 0001:00002a64       ?Lock@CAtlModule@ATL@@UEAAJXZ 0000000180003a64 f i RFIDScanner.obj
 0001:00002a74       ?Unlock@CAtlModule@ATL@@UEAAJXZ 0000000180003a74 f i RFIDScanner.obj
 0001:00002a80       ?GetLockCount@CAtlModule@ATL@@UEAAJXZ 0000000180003a80 f i RFIDScanner.obj
 0001:00002a84       ?GetGITPtr@CAtlModule@ATL@@UEAAJPEAPEAUIGlobalInterfaceTable@@@Z 0000000180003a84 f i RFIDScanner.obj
 0001:00002af4       ?UpdateRegistry@COPOSRFIDScanner@@SAJH@Z 0000000180003af4 f i RFIDScanner.obj
 0001:00002b0c       ?ProcessWindowMessage@COPOSRFIDScanner@@UEAAHPEAUHWND__@@I_K_JAEA_JK@Z 0000000180003b0c f i RFIDScanner.obj
 0001:00002b9c       ?SOData@COPOSRFIDScanner@@MEAAJJ@Z 0000000180003b9c f i RFIDScanner.obj
 0001:00002bec       ?SODirectIO@COPOSRFIDScanner@@MEAAJJPEAJPEAPEA_W@Z 0000000180003bec f i RFIDScanner.obj
 0001:00002c64       ?SOError@COPOSRFIDScanner@@MEAAJJJJPEAJ@Z 0000000180003c64 f i RFIDScanner.obj
 0001:00002cec       ?SOOutputComplete@COPOSRFIDScanner@@MEAAJJ@Z 0000000180003cec f i RFIDScanner.obj
 0001:00002d3c       ?SOStatusUpdate@COPOSRFIDScanner@@MEAAJJ@Z 0000000180003d3c f i RFIDScanner.obj
 0001:00002d8c       ?AddCommonRGSReplacements@?$CAtlModuleT@VCComModule@ATL@@@ATL@@UEAAJPEAUIRegistrarBase@@@Z 0000000180003d8c f i RFIDScanner.obj
 0001:00002da4       ?UpdateRegistryFromResourceD@CComModule@ATL@@UEAAJPEB_WHPEAU_ATL_REGMAP_ENTRY@2@@Z 0000000180003da4 f i RFIDScanner.obj
 0001:00002da4       ?UpdateRegistryFromResourceD@CComModule@ATL@@UEAAJIHPEAU_ATL_REGMAP_ENTRY@2@@Z 0000000180003da4 f i RFIDScanner.obj
 0001:00002dac       ?UpdateRegistryFromResource@CComModule@ATL@@UEAAJPEB_WHPEAU_ATL_REGMAP_ENTRY@2@@Z 0000000180003dac f i RFIDScanner.obj
 0001:00002db4       ?UpdateRegistryFromResource@CComModule@ATL@@UEAAJIHPEAU_ATL_REGMAP_ENTRY@2@@Z 0000000180003db4 f i RFIDScanner.obj
 0001:00002dbc       ??_ECComModule@ATL@@UEAAPEAXI@Z 0000000180003dbc f i RFIDScanner.obj
 0001:00002dbc       ??_GCComModule@ATL@@UEAAPEAXI@Z 0000000180003dbc f i RFIDScanner.obj
 0001:00002dfc       ?CreateInstance@?$CComCreator@V?$CComObjectCached@VCComClassFactory@ATL@@@ATL@@@ATL@@SAJPEAXAEBU_GUID@@PEAPEAX@Z 0000000180003dfc f i RFIDScanner.obj
 0001:00002f20       ?CreateInstance@?$CComCreator2@V?$CComCreator@V?$CComObject@VCOPOSRFIDScanner@@@ATL@@@ATL@@V?$CComCreator@V?$CComAggObject@VCOPOSRFIDScanner@@@ATL@@@2@@ATL@@SAJPEAXAEBU_GUID@@PEAPEAX@Z 0000000180003f20 f i RFIDScanner.obj
 0001:00002f30       ?AddRef@?$CComObjectCached@VCComClassFactory@ATL@@@ATL@@UEAAKXZ 0000000180003f30 f i RFIDScanner.obj
 0001:00002f5c       ?Release@?$CComObjectCached@VCComClassFactory@ATL@@@ATL@@UEAAKXZ 0000000180003f5c f i RFIDScanner.obj
 0001:00002f9c       ?QueryInterface@?$CComObjectCached@VCComClassFactory@ATL@@@ATL@@UEAAJAEBU_GUID@@PEAPEAX@Z 0000000180003f9c f i RFIDScanner.obj
 0001:00002fb0       ??_E?$CComObjectCached@VCComClassFactory@ATL@@@ATL@@UEAAPEAXI@Z 0000000180003fb0 f i RFIDScanner.obj
 0001:00002fb0       ??_G?$CComObjectCached@VCComClassFactory@ATL@@@ATL@@UEAAPEAXI@Z 0000000180003fb0 f i RFIDScanner.obj
 0001:00003008       ?Next@?$CComEnumImpl@UIEnumConnectionPoints@@$1?_GUID_b196b285_bab4_101a_b69c_00aa00341d07@@3U__s_GUID@@BPEAUIConnectionPoint@@V?$_CopyInterface@UIConnectionPoint@@@ATL@@@ATL@@UEAAJKPEAPEAUIConnectionPoint@@PEAK@Z 0000000180004008 f i RFIDScanner.obj
 0001:000030cc       ?Skip@?$CComEnumImpl@UIEnumConnectionPoints@@$1?_GUID_b196b285_bab4_101a_b69c_00aa00341d07@@3U__s_GUID@@BPEAUIConnectionPoint@@V?$_CopyInterface@UIConnectionPoint@@@ATL@@@ATL@@UEAAJK@Z 00000001800040cc f i RFIDScanner.obj
 0001:000030f8       ?Clone@?$CComEnumImpl@UIEnumConnectionPoints@@$1?_GUID_b196b285_bab4_101a_b69c_00aa00341d07@@3U__s_GUID@@BPEAUIConnectionPoint@@V?$_CopyInterface@UIConnectionPoint@@@ATL@@@ATL@@UEAAJPEAPEAUIEnumConnectionPoints@@@Z 00000001800040f8 f i RFIDScanner.obj
 0001:00003224       ?QueryInterface@?$CComObject@V?$CComEnum@UIEnumConnectionPoints@@$1?_GUID_b196b285_bab4_101a_b69c_00aa00341d07@@3U__s_GUID@@BPEAUIConnectionPoint@@V?$_CopyInterface@UIConnectionPoint@@@ATL@@VCComSingleThreadModel@6@@ATL@@@ATL@@UEAAJAEBU_GUID@@PEAPEAX@Z 0000000180004224 f i RFIDScanner.obj
 0001:00003238       ??_E?$CComObject@V?$CComEnum@UIEnumConnectionPoints@@$1?_GUID_b196b285_bab4_101a_b69c_00aa00341d07@@3U__s_GUID@@BPEAUIConnectionPoint@@V?$_CopyInterface@UIConnectionPoint@@@ATL@@VCComSingleThreadModel@6@@ATL@@@ATL@@UEAAPEAXI@Z 0000000180004238 f i RFIDScanner.obj
 0001:00003238       ??_G?$CComObject@V?$CComEnum@UIEnumConnectionPoints@@$1?_GUID_b196b285_bab4_101a_b69c_00aa00341d07@@3U__s_GUID@@BPEAUIConnectionPoint@@V?$_CopyInterface@UIConnectionPoint@@@ATL@@VCComSingleThreadModel@6@@ATL@@@ATL@@UEAAPEAXI@Z 0000000180004238 f i RFIDScanner.obj
 0001:00003290       ?AddReplacement@CRegObject@ATL@@UEAAJPEB_W0@Z 0000000180004290 f i RFIDScanner.obj
 0001:000032c0       ?ClearReplacements@CRegObject@ATL@@UEAAJXZ 00000001800042c0 f i RFIDScanner.obj
 0001:000032cc       ??_ECRegObject@ATL@@UEAAPEAXI@Z 00000001800042cc f i RFIDScanner.obj
 0001:000032cc       ??_GCRegObject@ATL@@UEAAPEAXI@Z 00000001800042cc f i RFIDScanner.obj
 0001:0000334c       ?AddRef@?$CComAggObject@VCOPOSRFIDScanner@@@ATL@@UEAAKXZ 000000018000434c f i RFIDScanner.obj
 0001:00003358       ?Release@?$CComAggObject@VCOPOSRFIDScanner@@@ATL@@UEAAKXZ 0000000180004358 f i RFIDScanner.obj
 0001:000033ac       ?QueryInterface@?$CComAggObject@VCOPOSRFIDScanner@@@ATL@@UEAAJAEBU_GUID@@PEAPEAX@Z 00000001800043ac f i RFIDScanner.obj
 0001:0000340c       ?AddRef@?$CComContainedObject@VCOPOSRFIDScanner@@@ATL@@UEAAKXZ 000000018000440c f i RFIDScanner.obj
 0001:0000341c       ?Release@?$CComContainedObject@VCOPOSRFIDScanner@@@ATL@@UEAAKXZ 000000018000441c f i RFIDScanner.obj
 0001:0000342c       ?QueryInterface@?$CComContainedObject@VCOPOSRFIDScanner@@@ATL@@UEAAJAEBU_GUID@@PEAPEAX@Z 000000018000442c f i RFIDScanner.obj
 0001:0000343c       ??_G?$CComAggObject@VCOPOSRFIDScanner@@@ATL@@UEAAPEAXI@Z 000000018000443c f i RFIDScanner.obj
 0001:0000343c       ??_E?$CComAggObject@VCOPOSRFIDScanner@@@ATL@@UEAAPEAXI@Z 000000018000443c f i RFIDScanner.obj
 0001:00003494       ?AddRef@?$CComObject@VCOPOSRFIDScanner@@@ATL@@UEAAKXZ 0000000180004494 f i RFIDScanner.obj
 0001:000034a4       ?Release@?$CComObject@VCOPOSRFIDScanner@@@ATL@@UEAAKXZ 00000001800044a4 f i RFIDScanner.obj
 0001:000034fc       ?QueryInterface@?$CComObject@VCOPOSRFIDScanner@@@ATL@@UEAAJAEBU_GUID@@PEAPEAX@Z 00000001800044fc f i RFIDScanner.obj
 0001:00003510       ?OnDrawAdvanced@CComControlBase@ATL@@UEAAJAEAUATL_DRAWINFO@@@Z 0000000180004510 f i RFIDScanner.obj
 0001:0000369c       ??$AtlModuleRegisterWndClassInfoT@VAtlModuleRegisterWndClassInfoParamW@ATL@@@ATL@@YAGPEAU_ATL_BASE_MODULE70@0@PEAU_ATL_WIN_MODULE70@0@PEAU_ATL_WNDCLASSINFOW@0@PEAP6A_JPEAUHWND__@@I_K_J@ZVAtlModuleRegisterWndClassInfoParamW@0@@Z 000000018000469c f i RFIDScanner.obj
 0001:0000389c       ??0?$CComContainedObject@VCOPOSRFIDScanner@@@ATL@@QEAA@PEAX@Z 000000018000489c f i RFIDScanner.obj
 0001:000039b8       ??0?$CComObject@VCOPOSRFIDScanner@@@ATL@@QEAA@PEAX@Z 00000001800049b8 f i RFIDScanner.obj
 0001:00003ad0       ??0CAtlModule@ATL@@QEAA@XZ 0000000180004ad0 f i RFIDScanner.obj
 0001:00003b44       ??1?$CComEnumImpl@UIEnumConnectionPoints@@$1?_GUID_b196b285_bab4_101a_b69c_00aa00341d07@@3U__s_GUID@@BPEAUIConnectionPoint@@V?$_CopyInterface@UIConnectionPoint@@@ATL@@@ATL@@UEAA@XZ 0000000180004b44 f i RFIDScanner.obj
 0001:00003b9c       ??1?$CComEnumImpl@UIEnumConnections@@$1?_GUID_b196b287_bab4_101a_b69c_00aa00341d07@@3U__s_GUID@@BUtagCONNECTDATA@@V?$_Copy@UtagCONNECTDATA@@@ATL@@@ATL@@UEAA@XZ 0000000180004b9c f i RFIDScanner.obj
 0001:00003bf4       ??1?$CComObject@VCOPOSRFIDScanner@@@ATL@@UEAA@XZ 0000000180004bf4 f i RFIDScanner.obj
 0001:00003d14       ??_G?$CComContainedObject@VCOPOSRFIDScanner@@@ATL@@UEAAPEAXI@Z 0000000180004d14 f i RFIDScanner.obj
 0001:00003d14       ??_E?$CComContainedObject@VCOPOSRFIDScanner@@@ATL@@UEAAPEAXI@Z 0000000180004d14 f i RFIDScanner.obj
 0001:00003d48       ??_E?$CComObject@VCOPOSRFIDScanner@@@ATL@@UEAAPEAXI@Z 0000000180004d48 f i RFIDScanner.obj
 0001:00003d48       ??_G?$CComObject@VCOPOSRFIDScanner@@@ATL@@UEAAPEAXI@Z 0000000180004d48 f i RFIDScanner.obj
 0001:00003d7c       ?Add@?$CSimpleArray@GV?$CSimpleArrayEqualHelper@G@ATL@@@ATL@@QEAAHAEBG@Z 0000000180004d7c f i RFIDScanner.obj
 0001:00003e1c       ?Add@?$CSimpleMap@PEA_WPEA_WVCExpansionVectorEqualHelper@ATL@@@ATL@@QEAAHAEBQEA_W0@Z 0000000180004e1c f i RFIDScanner.obj
 0001:00003eb8       ?Add@CComDynamicUnkArray@ATL@@QEAAKPEAUIUnknown@@@Z 0000000180004eb8 f i RFIDScanner.obj
 0001:00003f9c       ?Add@CExpansionVector@ATL@@QEAAHPEB_W0@Z 0000000180004f9c f i RFIDScanner.obj
 0001:000040d0       ?AddTermFunc@CAtlModule@ATL@@QEAAJP6AX_K@Z0@Z 00000001800050d0 f i RFIDScanner.obj
 0001:0000416c       ?AddValue@CRegParser@ATL@@IEAAJAEAVCRegKey@2@PEB_WPEA_W@Z 000000018000516c f i RFIDScanner.obj
 0001:0000457c       ?AllocateHeap@?$CTempBuffer@_W$0BAA@VCCRTAllocator@ATL@@@ATL@@AEAAX_K@Z 000000018000557c f i RFIDScanner.obj
 0001:0000457c       ?AllocateHeap@?$CTempBuffer@_W$0EAA@VCCRTAllocator@ATL@@@ATL@@AEAAX_K@Z 000000018000557c f i RFIDScanner.obj
 0001:0000457c       ?AllocateHeap@?$CTempBuffer@E$0BAA@VCCRTAllocator@ATL@@@ATL@@AEAAX_K@Z 000000018000557c f i RFIDScanner.obj
 0001:000045a8       ?Append@CParseBuffer@CRegParser@ATL@@QEAAHPEB_WH@Z 00000001800055a8 f i RFIDScanner.obj
 0001:000046dc       ?AtlComModuleGetClassObject@ATL@@YAJPEAU_ATL_COM_MODULE70@1@AEBU_GUID@@1PEAPEAX@Z 00000001800056dc f i RFIDScanner.obj
 0001:00004818       ?AtlComModuleRegisterServer@ATL@@YAJPEAU_ATL_COM_MODULE70@1@HPEBU_GUID@@@Z 0000000180005818 f i RFIDScanner.obj
 0001:000048d8       ?AtlComModuleUnregisterServer@ATL@@YAJPEAU_ATL_COM_MODULE70@1@HPEBU_GUID@@@Z 00000001800058d8 f i RFIDScanner.obj
 0001:00004994       ?AtlHiMetricToPixel@ATL@@YAXPEBUtagSIZE@@PEAU2@@Z 0000000180005994 f i RFIDScanner.obj
 0001:00004a44       ?AtlHresultFromLastError@ATL@@YAJXZ 0000000180005a44 f i RFIDScanner.obj
 0001:00004a64       ?AtlHresultFromWin32@ATL@@YAJK@Z 0000000180005a64 f i RFIDScanner.obj
 0001:00004a74       ?AtlInternalOleLoadFromStream@ATL@@YAJPEAUIStream@@AEBU_GUID@@PEAPEAXTClassesAllowedInStream@1@K@Z 0000000180005a74 f i RFIDScanner.obj
 0001:00004bc4       ?AtlInternalQueryInterface@ATL@@YAJPEAXPEBU_ATL_INTMAP_ENTRY@1@AEBU_GUID@@PEAPEAX@Z 0000000180005bc4 f i RFIDScanner.obj
 0001:00004ccc       ?AtlLoadTypeLib@ATL@@YAJPEAUHINSTANCE__@@PEB_WPEAPEA_WPEAPEAUITypeLib@@@Z 0000000180005ccc f i RFIDScanner.obj
 0001:00004f28       ?AtlRegisterClassCategoriesHelper@ATL@@YAJAEBU_GUID@@PEBU_ATL_CATMAP_ENTRY@1@H@Z 0000000180005f28 f i RFIDScanner.obj
 0001:000053ac       ?AtlRegisterTypeLib@ATL@@YAJPEAUHINSTANCE__@@PEB_W@Z 00000001800063ac f i RFIDScanner.obj
 0001:000055a8       ?AtlThrowImpl@ATL@@YAXJ@Z  00000001800065a8 f i RFIDScanner.obj
 0001:000055cc       ?AtlUnRegisterTypeLib@ATL@@YAJPEAUHINSTANCE__@@PEB_W@Z 00000001800065cc f i RFIDScanner.obj
 0001:00005694       ?AtlWinModuleExtractCreateWndData@ATL@@YAPEAXPEAU_ATL_WIN_MODULE70@1@@Z 0000000180006694 f i RFIDScanner.obj
 0001:00005720       ?ChToByte@CRegParser@ATL@@KAE_W@Z 0000000180006720 f i RFIDScanner.obj
 0001:000057ac       ?Cleanup@CComTypeInfoHolder@ATL@@SAX_K@Z 00000001800067ac f i RFIDScanner.obj
 0001:000057ec       ?ClearReplacements@CExpansionVector@ATL@@QEAAJXZ 00000001800067ec f i RFIDScanner.obj
 0001:00005888       ?CreateInstance@?$CComCreator@V?$CComAggObject@VCOPOSRFIDScanner@@@ATL@@@ATL@@SAJPEAXAEBU_GUID@@PEAPEAX@Z 0000000180006888 f i RFIDScanner.obj
 0001:0000596c       ?CreateInstance@?$CComCreator@V?$CComObject@VCOPOSRFIDScanner@@@ATL@@@ATL@@SAJPEAXAEBU_GUID@@PEAPEAX@Z 000000018000696c f i RFIDScanner.obj
 0001:00005a2c       ?CreateInstance@?$CComObject@V?$CComEnum@UIEnumConnectionPoints@@$1?_GUID_b196b285_bab4_101a_b69c_00aa00341d07@@3U__s_GUID@@BPEAUIConnectionPoint@@V?$_CopyInterface@UIConnectionPoint@@@ATL@@VCComSingleThreadModel@6@@ATL@@@ATL@@SAJPEAPEAV12@@Z 0000000180006a2c f i RFIDScanner.obj
 0001:00005abc       ?CreateInstance@?$CComObject@V?$CComEnum@UIEnumConnections@@$1?_GUID_b196b287_bab4_101a_b69c_00aa00341d07@@3U__s_GUID@@BUtagCONNECTDATA@@V?$_Copy@UtagCONNECTDATA@@@ATL@@VCComSingleThreadModel@6@@ATL@@@ATL@@SAJPEAPEAV12@@Z 0000000180006abc f i RFIDScanner.obj
 0001:00005b4c       ?DefaultReflectionHandler@?$CWindowImplRoot@VCWindow@ATL@@@ATL@@SAHPEAUHWND__@@I_K_JAEA_J@Z 0000000180006b4c f i RFIDScanner.obj
 0001:00005be0       ?DeleteSubKey@CRegKey@ATL@@QEAAJPEB_W@Z 0000000180006be0 f i RFIDScanner.obj
 0001:00005c78       ?DoEvent@COPOSRFIDScanner@@IEAAXI_K_J@Z 0000000180006c78 f i RFIDScanner.obj
 0001:00005d2c       ?DoVerbPrimary@?$IOleObjectImpl@VCOPOSRFIDScanner@@@ATL@@QEAAJPEBUtagRECT@@PEAUHWND__@@@Z 0000000180006d2c f i RFIDScanner.obj
 0001:00005e58       ?DoVerbProperties@CComControlBase@ATL@@QEAAJPEBUtagRECT@@PEAUHWND__@@@Z 0000000180006e58 f i RFIDScanner.obj
 0001:00006080       ?FireTheEvent@?$CProxy_IOPOSEvents@VCOPOSRFIDScanner@@@@IEAAXPEAVOposVariant@@IAEAJPEB_WJ@Z 0000000180007080 f i RFIDScanner.obj
 0001:0000616c       ?FireViewChange@CComControlBase@ATL@@QEAAJXZ 000000018000716c f i RFIDScanner.obj
 0001:000061d0       ?Fire_DataEvent@?$CProxy_IOPOSEvents@VCOPOSRFIDScanner@@@@QEAAXJ@Z 00000001800071d0 f i RFIDScanner.obj
 0001:000062bc       ?Fire_DirectIOEvent@?$CProxy_IOPOSEvents@VCOPOSRFIDScanner@@@@QEAAXJPEAJPEAPEA_W@Z 00000001800072bc f i RFIDScanner.obj
 0001:0000641c       ?Fire_ErrorEvent@?$CProxy_IOPOSEvents@VCOPOSRFIDScanner@@@@QEAAXJJJPEAJ@Z 000000018000741c f i RFIDScanner.obj
 0001:00006590       ?Fire_OutputCompleteEvent@?$CProxy_IOPOSEvents@VCOPOSRFIDScanner@@@@QEAAXJ@Z 0000000180007590 f i RFIDScanner.obj
 0001:0000667c       ?Fire_StatusUpdateEvent@?$CProxy_IOPOSEvents@VCOPOSRFIDScanner@@@@QEAAXJ@Z 000000018000767c f i RFIDScanner.obj
 0001:00006768       ?FreeHeap@?$CTempBuffer@E$0BAA@VCCRTAllocator@ATL@@@ATL@@AEAAXXZ 0000000180007768 f i RFIDScanner.obj
 0001:00006768       ?FreeHeap@?$CTempBuffer@_W$0BAA@VCCRTAllocator@ATL@@@ATL@@AEAAXXZ 0000000180007768 f i RFIDScanner.obj
 0001:00006768       ?FreeHeap@?$CTempBuffer@_W$0EAA@VCCRTAllocator@ATL@@@ATL@@AEAAXXZ 0000000180007768 f i RFIDScanner.obj
 0001:00006770       ?GetAmbientLocaleID@CComControlBase@ATL@@QEAAJAEAK@Z 0000000180007770 f i RFIDScanner.obj
 0001:00006830       ?GetAmbientUserMode@CComControlBase@ATL@@QEAAJAEAH@Z 0000000180007830 f i RFIDScanner.obj
 0001:00006900       ?GetClassObject@CComModule@ATL@@QEAAJAEBU_GUID@@0PEAPEAX@Z 0000000180007900 f i RFIDScanner.obj
 0001:000069f4       ?GetConnMap@COPOSRFIDScanner@@SAPEBU_ATL_CONNMAP_ENTRY@ATL@@PEAH@Z 00000001800079f4 f i RFIDScanner.obj
 0001:00006a7c       ?GetIDsOfNames@CComTypeInfoHolder@ATL@@QEAAJAEBU_GUID@@PEAPEA_WIKPEAJ@Z 0000000180007a7c f i RFIDScanner.obj
 0001:00006bec       ?GetPagesHelper@?$ISpecifyPropertyPagesImpl@VCOPOSRFIDScanner@@@ATL@@IEAAJPEAUtagCAUUID@@PEBUATL_PROPMAP_ENTRY@2@@Z 0000000180007bec f i RFIDScanner.obj
 0001:00006d8c       ?GetSizeMax@CComVariant@ATL@@QEBAJPEAT_ULARGE_INTEGER@@@Z 0000000180007d8c f i RFIDScanner.obj
 0001:00006fbc       ?GetTI@CComTypeInfoHolder@ATL@@QEAAJK@Z 0000000180007fbc f i RFIDScanner.obj
 0001:000072a0       ?GetZoomInfo@CComControlBase@ATL@@QEAAXAEAUATL_DRAWINFO@@@Z 00000001800082a0 f i RFIDScanner.obj
 0001:00007344       ?HKeyFromString@CRegParser@ATL@@KAPEAUHKEY__@@PEA_W@Z 0000000180008344 f i RFIDScanner.obj
 0001:000073a8       ?IDataObject_GetData@CComControlBase@ATL@@QEAAJPEAUtagFORMATETC@@PEAUtagSTGMEDIUM@@@Z 00000001800083a8 f i RFIDScanner.obj
 0001:0000759c       ?IOleInPlaceObject_InPlaceDeactivate@CComControlBase@ATL@@QEAAJXZ 000000018000859c f i RFIDScanner.obj
 0001:0000763c       ?IOleInPlaceObject_SetObjectRects@CComControlBase@ATL@@QEAAJPEBUtagRECT@@0@Z 000000018000863c f i RFIDScanner.obj
 0001:0000772c       ?IOleInPlaceObject_UIDeactivate@CComControlBase@ATL@@QEAAJXZ 000000018000872c f i RFIDScanner.obj
 0001:00007838       ?IOleObject_Close@CComControlBase@ATL@@QEAAJK@Z 0000000180008838 f i RFIDScanner.obj
 0001:00007950       ?IOleObject_SetClientSite@CComControlBase@ATL@@QEAAJPEAUIOleClientSite@@@Z 0000000180008950 f i RFIDScanner.obj
 0001:000079c4       ?IOleObject_SetExtent@CComControlBase@ATL@@QEAAJKPEAUtagSIZE@@@Z 00000001800089c4 f i RFIDScanner.obj
 0001:00007a5c       ?IPSI_GetIPersistStreamInit@?$IPersistStorageImpl@VCOPOSRFIDScanner@@@ATL@@AEAAPEAUIPersistStreamInit@@XZ 0000000180008a5c f i RFIDScanner.obj
 0001:00007b44       ?IPersistStreamInit_Load@?$IPersistStreamInitImpl@VCOPOSRFIDScanner@@@ATL@@QEAAJPEAUIStream@@PEBUATL_PROPMAP_ENTRY@2@@Z 0000000180008b44 f i RFIDScanner.obj
 0001:00007e6c       ?IPersistStreamInit_Save@?$IPersistStreamInitImpl@VCOPOSRFIDScanner@@@ATL@@QEAAJPEAUIStream@@HPEBUATL_PROPMAP_ENTRY@2@@Z 0000000180008e6c f i RFIDScanner.obj
 0001:00008108       ?IQuickActivate_QuickActivate@CComControlBase@ATL@@QEAAJPEAUtagQACONTAINER@@PEAUtagQACONTROL@@@Z 0000000180009108 f i RFIDScanner.obj
 0001:000083cc       ?IViewObject_Draw@CComControlBase@ATL@@QEAAJKJPEAXPEAUtagDVTARGETDEVICE@@PEAUHDC__@@2PEBU_RECTL@@3@Z 00000001800093cc f i RFIDScanner.obj
 0001:000084e0       ?InPlaceActivate@CComControlBase@ATL@@QEAAJJPEBUtagRECT@@@Z 00000001800094e0 f i RFIDScanner.obj
 0001:00008810       ?Init@?$CComEnumImpl@UIEnumConnectionPoints@@$1?_GUID_b196b285_bab4_101a_b69c_00aa00341d07@@3U__s_GUID@@BPEAUIConnectionPoint@@V?$_CopyInterface@UIConnectionPoint@@@ATL@@@ATL@@QEAAJPEAPEAUIConnectionPoint@@0PEAUIUnknown@@W4CComEnumFlags@2@@Z 0000000180009810 f i RFIDScanner.obj
 0001:0000892c       ?Init@?$CComEnumImpl@UIEnumConnections@@$1?_GUID_b196b287_bab4_101a_b69c_00aa00341d07@@3U__s_GUID@@BUtagCONNECTDATA@@V?$_Copy@UtagCONNECTDATA@@@ATL@@@ATL@@QEAAJPEAUtagCONNECTDATA@@0PEAUIUnknown@@W4CComEnumFlags@2@@Z 000000018000992c f i RFIDScanner.obj
 0001:00008a4c       ?IsEqualObject@?$CComPtrBase@UIOleClientSite@@@ATL@@QEAA_NPEAUIUnknown@@@Z 0000000180009a4c f i RFIDScanner.obj
 0001:00008ad8       ?LoadNameCache@CComTypeInfoHolder@ATL@@QEAAJPEAUITypeInfo@@@Z 0000000180009ad8 f i RFIDScanner.obj
 0001:00008c68       ?Lookup@?$CSimpleMap@PEA_WPEA_WVCExpansionVectorEqualHelper@ATL@@@ATL@@QEBAPEA_WAEBQEA_W@Z 0000000180009c68 f i RFIDScanner.obj
 0001:00008cf0       ?NextToken@CRegParser@ATL@@IEAAJPEA_W@Z 0000000180009cf0 f i RFIDScanner.obj
 0001:00008e8c       ?OnKillFocus@CComControlBase@ATL@@QEAA_JI_K_JAEAH@Z 0000000180009e8c f i RFIDScanner.obj
 0001:00008f28       ?OnMouseActivate@CComControlBase@ATL@@QEAA_JI_K_JAEAH@Z 0000000180009f28 f i RFIDScanner.obj
 0001:00008fc8       ?OnPaint@CComControlBase@ATL@@QEAA_JI_K_JAEAH@Z 0000000180009fc8 f i RFIDScanner.obj
 0001:000090b4       ?OnSetFocus@CComControlBase@ATL@@QEAA_JI_K_JAEAH@Z 000000018000a0b4 f i RFIDScanner.obj
 0001:000091bc       ?PreProcessBuffer@CRegParser@ATL@@QEAAJPEA_WPEAPEA_W@Z 000000018000a1bc f i RFIDScanner.obj
 0001:00009544       ?ProcessWindowMessage@?$CComControl@VCOPOSRFIDScanner@@V?$CWindowImpl@VCOPOSRFIDScanner@@VCWindow@ATL@@V?$CWinTraits@$0FGAAAAAA@$0A@@3@@ATL@@@ATL@@UEAAHPEAUHWND__@@I_K_JAEA_JK@Z 000000018000a544 f i RFIDScanner.obj
 0001:00009630       ?ReadFromStream@CComBSTR@ATL@@QEAAJPEAUIStream@@@Z 000000018000a630 f i RFIDScanner.obj
 0001:00009780       ?ReadFromStream@CComVariant@ATL@@QEAAJPEAUIStream@@GTClassesAllowedInStream@2@K@Z 000000018000a780 f i RFIDScanner.obj
 0001:000099c4       ?RecurseDeleteKey@CRegKey@ATL@@QEAAJPEB_W@Z 000000018000a9c4 f i RFIDScanner.obj
 0001:00009b1c       ?RegCreateKeyExW@CAtlTransactionManager@ATL@@QEAAJPEAUHKEY__@@PEB_WKPEA_WKKQEAU_SECURITY_ATTRIBUTES@@PEAPEAU3@PEAK@Z 000000018000ab1c f i RFIDScanner.obj
 0001:00009c50       ?RegDeleteKeyW@CAtlTransactionManager@ATL@@QEAAJPEAUHKEY__@@PEB_W@Z 000000018000ac50 f i RFIDScanner.obj
 0001:00009cdc       ?RegOpenKeyExW@CAtlTransactionManager@ATL@@QEAAJPEAUHKEY__@@PEB_WKKPEAPEAU3@@Z 000000018000acdc f i RFIDScanner.obj
 0001:00009d94       ?RegisterBuffer@CRegParser@ATL@@QEAAJPEA_WH@Z 000000018000ad94 f i RFIDScanner.obj
 0001:00009f00       ?RegisterFromResource@CRegObject@ATL@@IEAAJPEB_W00H@Z 000000018000af00 f i RFIDScanner.obj
 0001:0000a0bc       ?RegisterServer@CComModule@ATL@@QEAAJHPEBU_GUID@@@Z 000000018000b0bc f i RFIDScanner.obj
 0001:0000a178       ?RegisterSubkeys@CRegParser@ATL@@IEAAJPEA_WPEAUHKEY__@@HH@Z 000000018000b178 f i RFIDScanner.obj
 0001:0000a9f8       ?SendOnDataChange@CComControlBase@ATL@@QEAAJK@Z 000000018000b9f8 f i RFIDScanner.obj
 0001:0000aa68       ?SetControlFocus@CComControlBase@ATL@@QEAAHH@Z 000000018000ba68 f i RFIDScanner.obj
 0001:0000ab38       ?SkipAssignment@CRegParser@ATL@@IEAAJPEA_W@Z 000000018000bb38 f i RFIDScanner.obj
 0001:0000abf0       ?Term@CAtlModule@ATL@@QEAAXXZ 000000018000bbf0 f i RFIDScanner.obj
 0001:0000aca8       ?Term@CComModule@ATL@@QEAAXXZ 000000018000bca8 f i RFIDScanner.obj
 0001:0000ad24       ?UnregisterServer@CComModule@ATL@@QEAAJHPEBU_GUID@@@Z 000000018000bd24 f i RFIDScanner.obj
 0001:0000add4       ?UpdateRegistryFromResource@CAtlModule@ATL@@QEAAJIHPEAU_ATL_REGMAP_ENTRY@2@@Z 000000018000bdd4 f i RFIDScanner.obj
 0001:0000b0e0       ?UpdateRegistryFromResource@CAtlModule@ATL@@QEAAJPEB_WHPEAU_ATL_REGMAP_ENTRY@2@@Z 000000018000c0e0 f i RFIDScanner.obj
 0001:0000b404       ?VTFromRegType@CRegParser@ATL@@KAHPEB_WAEAG@Z 000000018000c404 f i RFIDScanner.obj
 0001:0000b4a0       ?WindowProc@?$CWindowImplBaseT@VCWindow@ATL@@V?$CWinTraits@$0FGAAAAAA@$0A@@2@@ATL@@SA_JPEAUHWND__@@I_K_J@Z 000000018000c4a0 f i RFIDScanner.obj
 0001:0000b60c       ?WriteToStream@CComVariant@ATL@@QEAAJPEAUIStream@@@Z 000000018000c60c f i RFIDScanner.obj
 0001:0000b878       ?WriteToStream@CComVariant@ATL@@QEAAJPEAUIStream@@G@Z 000000018000c878 f i RFIDScanner.obj
 0001:0000b910       ?_AtlVerifyStackAvailable@_ATL_SAFE_ALLOCA_IMPL@ATL@@YA_N_K@Z 000000018000c910 f i RFIDScanner.obj
 0001:0000b994       ?atlCreate@?$CWindowImpl@VCOPOSRFIDScanner@@VCWindow@ATL@@V?$CWinTraits@$0FGAAAAAA@$0A@@3@@ATL@@QEAAPEAUHWND__@@PEAU3@V_U_RECT@2@PEB_WKKV_U_MENUorID@2@PEAX@Z 000000018000c994 f i RFIDScanner.obj
 0001:0000ba50       ?atlCreate@?$CWindowImplBaseT@VCWindow@ATL@@V?$CWinTraits@$0FGAAAAAA@$0A@@2@@ATL@@QEAAPEAUHWND__@@PEAU3@V_U_RECT@2@PEB_WKKV_U_MENUorID@2@GPEAX@Z 000000018000ca50 f i RFIDScanner.obj
 0001:0000bbc0       ?ocscpy_s@@YA_NPEA_W_KPEB_W@Z 000000018000cbc0 f i RFIDScanner.obj
 0001:0000bc70       DllCanUnloadNow            000000018000cc70 f   RFIDScanner.obj
 0001:0000bc7c       DllGetClassObject          000000018000cc7c f   RFIDScanner.obj
 0001:0000bc94       DllMain                    000000018000cc94 f   RFIDScanner.obj
 0001:0000bd3c       DllRegisterServer          000000018000cd3c f   RFIDScanner.obj
 0001:0000bd50       DllUnregisterServer        000000018000cd50 f   RFIDScanner.obj
 0001:0000bd64       __local_stdio_printf_options 000000018000cd64 f i RFIDScanner.obj
 0001:0000bd6c       swprintf_s                 000000018000cd6c f i RFIDScanner.obj
 0001:0000bdc0       ??0COPOSRFIDScanner@@QEAA@XZ 000000018000cdc0 f   RFIDScannerImpl.obj
 0001:0000be90       ??1?$IConnectionPointImpl@VCOPOSRFIDScanner@@$1?IID_IPropertyNotifySink@@3U_GUID@@BVCComDynamicUnkArray@ATL@@@ATL@@QEAA@XZ 000000018000ce90 f i RFIDScannerImpl.obj
 0001:0000be90       ??1?$IConnectionPointImpl@VCOPOSRFIDScanner@@$1?DIID__IOPOSRFIDScannerEvents@@3U_GUID@@BVCComDynamicUnkArray@ATL@@@ATL@@QEAA@XZ 000000018000ce90 f i RFIDScannerImpl.obj
 0001:0000beec       ??1CComControlBase@ATL@@UEAA@XZ 000000018000ceec f i RFIDScannerImpl.obj
 0001:0000bf68       ??1COPOSRFIDScanner@@UEAA@XZ 000000018000cf68 f   RFIDScannerImpl.obj
 0001:0000bfcc       ?CheckHealth@COPOSRFIDScanner@@UEAAJJPEAJ@Z 000000018000cfcc f   RFIDScannerImpl.obj
 0001:0000c048       ?ClaimDevice@COPOSRFIDScanner@@UEAAJJPEAJ@Z 000000018000d048 f   RFIDScannerImpl.obj
 0001:0000c0e8       ?ClearInput@COPOSRFIDScanner@@UEAAJPEAJ@Z 000000018000d0e8 f   RFIDScannerImpl.obj
 0001:0000c110       ?ClearInputProperties@COPOSRFIDScanner@@UEAAJPEAJ@Z 000000018000d110 f   RFIDScannerImpl.obj
 0001:0000c138       ?ClearOutput@COPOSRFIDScanner@@UEAAJPEAJ@Z 000000018000d138 f   RFIDScannerImpl.obj
 0001:0000c160       ?Close@COPOSRFIDScanner@@UEAAJPEAJ@Z 000000018000d160 f   RFIDScannerImpl.obj
 0001:0000c218       ?CompareFirmwareVersion@COPOSRFIDScanner@@UEAAJPEA_WPEAJ1@Z 000000018000d218 f   RFIDScannerImpl.obj
 0001:0000c2f4       ?DirectIO@COPOSRFIDScanner@@UEAAJJPEAJPEAPEA_W0@Z 000000018000d2f4 f   RFIDScannerImpl.obj
 0001:0000c3f0       ?DisableTag@COPOSRFIDScanner@@UEAAJPEA_WJ0PEAJ@Z 000000018000d3f0 f   RFIDScannerImpl.obj
 0001:0000c4ec       ?DoInvoke@COPOSRFIDScanner@@IEAAJJPEAVOposVariant@@IHPEAJ_N@Z 000000018000d4ec f   RFIDScannerImpl.obj
 0001:0000c620       ?EventInit@COPOSRFIDScanner@@IEAAJXZ 000000018000d620 f i RFIDScannerImpl.obj
 0001:0000c770       ?EventUninit@COPOSRFIDScanner@@IEAAXXZ 000000018000d770 f i RFIDScannerImpl.obj
 0001:0000c7d4       ?EventWindowProc@COPOSRFIDScanner@@IEAA_JI_K_J@Z 000000018000d7d4 f i RFIDScannerImpl.obj
 0001:0000c998       ?FinalConstruct@COPOSRFIDScanner@@QEAAJXZ 000000018000d998 f   RFIDScannerImpl.obj
 0001:0000c9d4       ?FirstTag@COPOSRFIDScanner@@UEAAJPEAJ@Z 000000018000d9d4 f   RFIDScannerImpl.obj
 0001:0000c9fc       ?FreezeEvents@COPOSRFIDScanner@@MEAAJH@Z 000000018000d9fc f   RFIDScannerImpl.obj
 0001:0000ca68       ?GetOposProp@COPOSRFIDScanner@@IEAAJJPEAJJ@Z 000000018000da68 f   RFIDScannerImpl.obj
 0001:0000cb84       ?GetOposProp@COPOSRFIDScanner@@IEAAJJPEAPEA_WJ@Z 000000018000db84 f   RFIDScannerImpl.obj
 0001:0000ccb0       ?LockTag@COPOSRFIDScanner@@UEAAJPEA_WJ0PEAJ@Z 000000018000dcb0 f   RFIDScannerImpl.obj
 0001:0000cdac       ?NextTag@COPOSRFIDScanner@@UEAAJPEAJ@Z 000000018000ddac f   RFIDScannerImpl.obj
 0001:0000cdd4       ?OnDraw@COPOSRFIDScanner@@MEAAJAEAUATL_DRAWINFO@@@Z 000000018000ddd4 f   RFIDScannerImpl.obj
 0001:0000cec0       ?Open@COPOSRFIDScanner@@UEAAJPEA_WPEAJ@Z 000000018000dec0 f   RFIDScannerImpl.obj
 0001:0000d730       ?PreviousTag@COPOSRFIDScanner@@UEAAJPEAJ@Z 000000018000e730 f   RFIDScannerImpl.obj
 0001:0000d758       ?ReadTags@COPOSRFIDScanner@@UEAAJJPEA_W0JJJ0PEAJ@Z 000000018000e758 f   RFIDScannerImpl.obj
 0001:0000d894       ?ReleaseDevice@COPOSRFIDScanner@@UEAAJPEAJ@Z 000000018000e894 f   RFIDScannerImpl.obj
 0001:0000d900       ?ResetStatistics@COPOSRFIDScanner@@UEAAJPEA_WPEAJ@Z 000000018000e900 f   RFIDScannerImpl.obj
 0001:0000d988       ?RetrieveStatistics@COPOSRFIDScanner@@UEAAJPEAPEA_WPEAJ@Z 000000018000e988 f   RFIDScannerImpl.obj
 0001:0000da10       ?SOProcessID@COPOSRFIDScanner@@UEAAJPEAJ@Z 000000018000ea10 f   RFIDScannerImpl.obj
 0001:0000da2c       ?SetCOFreezeEvents@COPOSRFIDScanner@@IEAAXF@Z 000000018000ea2c f   RFIDScannerImpl.obj
 0001:0000db10       ?SetOposProp@COPOSRFIDScanner@@IEAAJJJJ@Z 000000018000eb10 f   RFIDScannerImpl.obj
 0001:0000dc70       ?StartReadTags@COPOSRFIDScanner@@UEAAJJPEA_W0JJ0PEAJ@Z 000000018000ec70 f   RFIDScannerImpl.obj
 0001:0000dda0       ?StopReadTags@COPOSRFIDScanner@@UEAAJPEA_WPEAJ@Z 000000018000eda0 f   RFIDScannerImpl.obj
 0001:0000de28       ?UpdateFirmware@COPOSRFIDScanner@@UEAAJPEA_WPEAJ@Z 000000018000ee28 f   RFIDScannerImpl.obj
 0001:0000deb0       ?UpdateStatistics@COPOSRFIDScanner@@UEAAJPEA_WPEAJ@Z 000000018000eeb0 f   RFIDScannerImpl.obj
 0001:0000df38       ?WriteTagData@COPOSRFIDScanner@@UEAAJPEA_W0JJ0PEAJ@Z 000000018000ef38 f   RFIDScannerImpl.obj
 0001:0000e050       ?WriteTagID@COPOSRFIDScanner@@UEAAJPEA_W0J0PEAJ@Z 000000018000f050 f   RFIDScannerImpl.obj
 0001:0000e158       ?get_AutoDisable@COPOSRFIDScanner@@UEAAJPEAF@Z 000000018000f158 f   RFIDScannerImpl.obj
 0001:0000e18c       ?get_BinaryConversion@COPOSRFIDScanner@@UEAAJPEAJ@Z 000000018000f18c f   RFIDScannerImpl.obj
 0001:0000e1a0       ?get_CapCompareFirmwareVersion@COPOSRFIDScanner@@UEAAJPEAF@Z 000000018000f1a0 f   RFIDScannerImpl.obj
 0001:0000e1d4       ?get_CapContinuousRead@COPOSRFIDScanner@@UEAAJPEAF@Z 000000018000f1d4 f   RFIDScannerImpl.obj
 0001:0000e208       ?get_CapDisableTag@COPOSRFIDScanner@@UEAAJPEAF@Z 000000018000f208 f   RFIDScannerImpl.obj
 0001:0000e23c       ?get_CapLockTag@COPOSRFIDScanner@@UEAAJPEAF@Z 000000018000f23c f   RFIDScannerImpl.obj
 0001:0000e270       ?get_CapMultipleProtocols@COPOSRFIDScanner@@UEAAJPEAJ@Z 000000018000f270 f   RFIDScannerImpl.obj
 0001:0000e284       ?get_CapPowerReporting@COPOSRFIDScanner@@UEAAJPEAJ@Z 000000018000f284 f   RFIDScannerImpl.obj
 0001:0000e298       ?get_CapReadTimer@COPOSRFIDScanner@@UEAAJPEAF@Z 000000018000f298 f   RFIDScannerImpl.obj
 0001:0000e2cc       ?get_CapStatisticsReporting@COPOSRFIDScanner@@UEAAJPEAF@Z 000000018000f2cc f   RFIDScannerImpl.obj
 0001:0000e300       ?get_CapUpdateFirmware@COPOSRFIDScanner@@UEAAJPEAF@Z 000000018000f300 f   RFIDScannerImpl.obj
 0001:0000e334       ?get_CapUpdateStatistics@COPOSRFIDScanner@@UEAAJPEAF@Z 000000018000f334 f   RFIDScannerImpl.obj
 0001:0000e368       ?get_CapWriteTag@COPOSRFIDScanner@@UEAAJPEAJ@Z 000000018000f368 f   RFIDScannerImpl.obj
 0001:0000e37c       ?get_CheckHealthText@COPOSRFIDScanner@@UEAAJPEAPEA_W@Z 000000018000f37c f   RFIDScannerImpl.obj
 0001:0000e390       ?get_Claimed@COPOSRFIDScanner@@UEAAJPEAF@Z 000000018000f390 f   RFIDScannerImpl.obj
 0001:0000e3c4       ?get_ContinuousReadMode@COPOSRFIDScanner@@UEAAJPEAF@Z 000000018000f3c4 f   RFIDScannerImpl.obj
 0001:0000e3f8       ?get_ControlObjectDescription@COPOSRFIDScanner@@UEAAJPEAPEA_W@Z 000000018000f3f8 f   RFIDScannerImpl.obj
 0001:0000e45c       ?get_ControlObjectVersion@COPOSRFIDScanner@@UEAAJPEAJ@Z 000000018000f45c f   RFIDScannerImpl.obj
 0001:0000e468       ?get_CurrentTagID@COPOSRFIDScanner@@UEAAJPEAPEA_W@Z 000000018000f468 f   RFIDScannerImpl.obj
 0001:0000e47c       ?get_CurrentTagProtocol@COPOSRFIDScanner@@UEAAJPEAJ@Z 000000018000f47c f   RFIDScannerImpl.obj
 0001:0000e490       ?get_CurrentTagUserData@COPOSRFIDScanner@@UEAAJPEAPEA_W@Z 000000018000f490 f   RFIDScannerImpl.obj
 0001:0000e4a4       ?get_DataCount@COPOSRFIDScanner@@UEAAJPEAJ@Z 000000018000f4a4 f   RFIDScannerImpl.obj
 0001:0000e4b8       ?get_DataEventEnabled@COPOSRFIDScanner@@UEAAJPEAF@Z 000000018000f4b8 f   RFIDScannerImpl.obj
 0001:0000e4ec       ?get_DeviceDescription@COPOSRFIDScanner@@UEAAJPEAPEA_W@Z 000000018000f4ec f   RFIDScannerImpl.obj
 0001:0000e500       ?get_DeviceEnabled@COPOSRFIDScanner@@UEAAJPEAF@Z 000000018000f500 f   RFIDScannerImpl.obj
 0001:0000e534       ?get_DeviceName@COPOSRFIDScanner@@UEAAJPEAPEA_W@Z 000000018000f534 f   RFIDScannerImpl.obj
 0001:0000e548       ?get_FreezeEvents@COPOSRFIDScanner@@UEAAJPEAF@Z 000000018000f548 f   RFIDScannerImpl.obj
 0001:0000e578       ?get_OpenResult@COPOSRFIDScanner@@UEAAJPEAJ@Z 000000018000f578 f   RFIDScannerImpl.obj
 0001:0000e584       ?get_OutputID@COPOSRFIDScanner@@UEAAJPEAJ@Z 000000018000f584 f   RFIDScannerImpl.obj
 0001:0000e598       ?get_PowerNotify@COPOSRFIDScanner@@UEAAJPEAJ@Z 000000018000f598 f   RFIDScannerImpl.obj
 0001:0000e5ac       ?get_PowerState@COPOSRFIDScanner@@UEAAJPEAJ@Z 000000018000f5ac f   RFIDScannerImpl.obj
 0001:0000e5c0       ?get_ProtocolMask@COPOSRFIDScanner@@UEAAJPEAJ@Z 000000018000f5c0 f   RFIDScannerImpl.obj
 0001:0000e5d4       ?get_ReadTimerInterval@COPOSRFIDScanner@@UEAAJPEAJ@Z 000000018000f5d4 f   RFIDScannerImpl.obj
 0001:0000e5e8       ?get_ResultCode@COPOSRFIDScanner@@UEAAJPEAJ@Z 000000018000f5e8 f   RFIDScannerImpl.obj
 0001:0000e624       ?get_ResultCodeExtended@COPOSRFIDScanner@@UEAAJPEAJ@Z 000000018000f624 f   RFIDScannerImpl.obj
 0001:0000e638       ?get_ServiceObjectDescription@COPOSRFIDScanner@@UEAAJPEAPEA_W@Z 000000018000f638 f   RFIDScannerImpl.obj
 0001:0000e64c       ?get_ServiceObjectVersion@COPOSRFIDScanner@@UEAAJPEAJ@Z 000000018000f64c f   RFIDScannerImpl.obj
 0001:0000e660       ?get_State@COPOSRFIDScanner@@UEAAJPEAJ@Z 000000018000f660 f   RFIDScannerImpl.obj
 0001:0000e68c       ?get_TagCount@COPOSRFIDScanner@@UEAAJPEAJ@Z 000000018000f68c f   RFIDScannerImpl.obj
 0001:0000e6a0       ?put_AutoDisable@COPOSRFIDScanner@@UEAAJF@Z 000000018000f6a0 f   RFIDScannerImpl.obj
 0001:0000e6b8       ?put_BinaryConversion@COPOSRFIDScanner@@UEAAJJ@Z 000000018000f6b8 f   RFIDScannerImpl.obj
 0001:0000e6cc       ?put_DataEventEnabled@COPOSRFIDScanner@@UEAAJF@Z 000000018000f6cc f   RFIDScannerImpl.obj
 0001:0000e6e4       ?put_DeviceEnabled@COPOSRFIDScanner@@UEAAJF@Z 000000018000f6e4 f   RFIDScannerImpl.obj
 0001:0000e6fc       ?put_FreezeEvents@COPOSRFIDScanner@@UEAAJF@Z 000000018000f6fc f   RFIDScannerImpl.obj
 0001:0000e74c       ?put_PowerNotify@COPOSRFIDScanner@@UEAAJJ@Z 000000018000f74c f   RFIDScannerImpl.obj
 0001:0000e760       ?put_ProtocolMask@COPOSRFIDScanner@@UEAAJJ@Z 000000018000f760 f   RFIDScannerImpl.obj
 0001:0000e774       ?put_ReadTimerInterval@COPOSRFIDScanner@@UEAAJJ@Z 000000018000f774 f   RFIDScannerImpl.obj
 0001:0000e788       ?s_EventWindowProc@COPOSRFIDScanner@@KA_JPEAUHWND__@@I_K_J@Z 000000018000f788 f i RFIDScannerImpl.obj
 0001:0000e804       ??_U@YAPEAX_K@Z            000000018000f804 f   LIBCMT:new_array.obj
 0001:0000e80c       ??3@YAXPEAX_K@Z            000000018000f80c f   LIBCMT:delete_scalar_size.obj
 0001:0000e80c       ??_V@YAXPEAX@Z             000000018000f80c f   LIBCMT:delete_array.obj
 0001:0000e814       ??_V@YAXPEAX_K@Z           000000018000f814 f   LIBCMT:delete_array_size.obj
 0001:0000e81c       __scrt_acquire_startup_lock 000000018000f81c f   LIBCMT:utility.obj
 0001:0000e858       __scrt_dllmain_after_initialize_c 000000018000f858 f   LIBCMT:utility.obj
 0001:0000e88c       __scrt_dllmain_before_initialize_c 000000018000f88c f   LIBCMT:utility.obj
 0001:0000e8a4       __scrt_dllmain_crt_thread_attach 000000018000f8a4 f   LIBCMT:utility.obj
 0001:0000e8cc       __scrt_dllmain_crt_thread_detach 000000018000f8cc f   LIBCMT:utility.obj
 0001:0000e8e4       __scrt_dllmain_exception_filter 000000018000f8e4 f   LIBCMT:utility.obj
 0001:0000e944       __scrt_dllmain_uninitialize_c 000000018000f944 f   LIBCMT:utility.obj
 0001:0000e974       __scrt_dllmain_uninitialize_critical 000000018000f974 f   LIBCMT:utility.obj
 0001:0000e988       __scrt_initialize_crt      000000018000f988 f   LIBCMT:utility.obj
 0001:0000e9d4       __scrt_initialize_onexit_tables 000000018000f9d4 f   LIBCMT:utility.obj
 0001:0000ea60       __scrt_is_nonwritable_in_current_image 000000018000fa60 f   LIBCMT:utility.obj
 0001:0000eaf8       __scrt_release_startup_lock 000000018000faf8 f   LIBCMT:utility.obj
 0001:0000eb1c       __scrt_uninitialize_crt    000000018000fb1c f   LIBCMT:utility.obj
 0001:0000eb48       _onexit                    000000018000fb48 f   LIBCMT:utility.obj
 0001:0000eb84       atexit                     000000018000fb84 f   LIBCMT:utility.obj
 0001:0000eb9c       ??3@YAXPEAX@Z              000000018000fb9c f   LIBCMT:delete_scalar.obj
 0001:0000ec9c       _Init_thread_footer        000000018000fc9c f   LIBCMT:thread_safe_statics.obj
 0001:0000ecfc       _Init_thread_header        000000018000fcfc f   LIBCMT:thread_safe_statics.obj
 0001:0000ed64       _Init_thread_notify        000000018000fd64 f   LIBCMT:thread_safe_statics.obj
 0001:0000eda8       _Init_thread_wait          000000018000fda8 f   LIBCMT:thread_safe_statics.obj
 0001:0000ee0c       __raise_securityfailure    000000018000fe0c f   LIBCMT:gs_report.obj
 0001:0000ee40       __report_gsfailure         000000018000fe40 f   LIBCMT:gs_report.obj
 0001:0000ef14       __report_rangecheckfailure 000000018000ff14 f   LIBCMT:gs_report.obj
 0001:0000ef28       __report_securityfailure   000000018000ff28 f   LIBCMT:gs_report.obj
 0001:0000f0a8       ??2@YAPEAX_KAEBUnothrow_t@std@@@Z 00000001800100a8 f   LIBCMT:new_scalar_nothrow.obj
 0001:0000f0bc       ??_U@YAPEAX_KAEBUnothrow_t@std@@@Z 00000001800100bc f   LIBCMT:new_array_nothrow.obj
 0001:0000f0c4       __GSHandlerCheck           00000001800100c4 f   LIBCMT:gshandler.obj
 0001:0000f0e4       __GSHandlerCheckCommon     00000001800100e4 f   LIBCMT:gshandler.obj
 0001:0000f140       __GSHandlerCheck_SEH       0000000180010140 f   LIBCMT:gshandlerseh.obj
 0001:0000f1e0       __chkstk                   00000001800101e0 f   LIBCMT:chkstk.obj
 0001:0000f1e0       _alloca_probe              00000001800101e0 f   LIBCMT:chkstk.obj
 0001:0000f240       __security_check_cookie    0000000180010240 f   LIBCMT:amdsecgs.obj
 0001:0000f580       _DllMainCRTStartup         0000000180010580 f   LIBCMT:dll_dllmain.obj
 0001:0000f5c0       ??2@YAPEAX_K@Z             00000001800105c0 f   LIBCMT:new_scalar.obj
 0001:0000f5fc       __isa_available_init       00000001800105fc f   LIBCMT:cpu_disp.obj
 0001:0000f7a0       __scrt_is_ucrt_dll_in_use  00000001800107a0 f   LIBCMT:ucrt_detection.obj
 0001:0000f7ac       __crt_debugger_hook        00000001800107ac f   LIBCMT:utility_desktop.obj
 0001:0000f7b4       __scrt_fastfail            00000001800107b4 f   LIBCMT:utility_desktop.obj
 0001:0000f900       __security_init_cookie     0000000180010900 f   LIBCMT:gs_support.obj
 0001:0000f9ac       ?__scrt_initialize_type_info@@YAXXZ 00000001800109ac f   LIBCMT:tncleanup.obj
 0001:0000f9bc       ?__scrt_uninitialize_type_info@@YAXXZ 00000001800109bc f   LIBCMT:tncleanup.obj
 0001:0000f9c8       __local_stdio_scanf_options 00000001800109c8 f i LIBCMT:default_local_stdio_options.obj
 0001:0000f9d0       __scrt_initialize_default_local_stdio_options 00000001800109d0 f   LIBCMT:default_local_stdio_options.obj
 0001:0000f9ec       __scrt_get_dyn_tls_init_callback 00000001800109ec f   LIBCMT:dyn_tls_init.obj
 0001:0000f9f4       _RTC_Initialize            00000001800109f4 f   LIBCMT:initsect.obj
 0001:0000fa30       _RTC_Terminate             0000000180010a30 f   LIBCMT:initsect.obj
 0001:0000fa6c       ??0bad_alloc@std@@QEAA@AEBV01@@Z 0000000180010a6c f i LIBCMT:throw_bad_alloc.obj
 0001:0000faa8       ??0bad_alloc@std@@QEAA@XZ  0000000180010aa8 f i LIBCMT:throw_bad_alloc.obj
 0001:0000fac8       ??0bad_array_new_length@std@@QEAA@AEBV01@@Z 0000000180010ac8 f i LIBCMT:throw_bad_alloc.obj
 0001:0000fb04       ??0bad_array_new_length@std@@QEAA@XZ 0000000180010b04 f i LIBCMT:throw_bad_alloc.obj
 0001:0000fb24       ??0exception@std@@QEAA@AEBV01@@Z 0000000180010b24 f i LIBCMT:throw_bad_alloc.obj
 0001:0000fb58       ??1bad_alloc@std@@UEAA@XZ  0000000180010b58 f i LIBCMT:throw_bad_alloc.obj
 0001:0000fb58       ??1bad_array_new_length@std@@UEAA@XZ 0000000180010b58 f i LIBCMT:throw_bad_alloc.obj
 0001:0000fb58       ??1bad_exception@std@@UEAA@XZ 0000000180010b58 f i libvcruntime:frame.obj
 0001:0000fb6c       ??_Gbad_alloc@std@@UEAAPEAXI@Z 0000000180010b6c f i LIBCMT:throw_bad_alloc.obj
 0001:0000fb6c       ??_Ebad_exception@std@@UEAAPEAXI@Z 0000000180010b6c f i libvcruntime:frame.obj
 0001:0000fb6c       ??_Eexception@std@@UEAAPEAXI@Z 0000000180010b6c f i LIBCMT:throw_bad_alloc.obj
 0001:0000fb6c       ??_Ebad_alloc@std@@UEAAPEAXI@Z 0000000180010b6c f i LIBCMT:throw_bad_alloc.obj
 0001:0000fb6c       ??_Gexception@std@@UEAAPEAXI@Z 0000000180010b6c f i LIBCMT:throw_bad_alloc.obj
 0001:0000fb6c       ??_Ebad_array_new_length@std@@UEAAPEAXI@Z 0000000180010b6c f i LIBCMT:throw_bad_alloc.obj
 0001:0000fb6c       ??_Gbad_exception@std@@UEAAPEAXI@Z 0000000180010b6c f i libvcruntime:frame.obj
 0001:0000fb6c       ??_Gbad_array_new_length@std@@UEAAPEAXI@Z 0000000180010b6c f i LIBCMT:throw_bad_alloc.obj
 0001:0000fbb0       ?__scrt_throw_std_bad_alloc@@YAXXZ 0000000180010bb0 f   LIBCMT:throw_bad_alloc.obj
 0001:0000fbd0       ?__scrt_throw_std_bad_array_new_length@@YAXXZ 0000000180010bd0 f   LIBCMT:throw_bad_alloc.obj
 0001:0000fbf0       ?what@exception@std@@UEBAPEBDXZ 0000000180010bf0 f i LIBCMT:throw_bad_alloc.obj
 0001:0000fc10       ??_Etype_info@@UEAAPEAXI@Z 0000000180010c10 f i LIBCMT:std_type_info_static.obj
 0001:0000fc10       ??_Gtype_info@@UEAAPEAXI@Z 0000000180010c10 f i LIBCMT:std_type_info_static.obj
 0001:0000fc3c       ??0CAtlBaseModule@ATL@@QEAA@XZ 0000000180010c3c f   atls:atlbase.obj
 0001:0000fce4       ??1CAtlBaseModule@ATL@@QEAA@XZ 0000000180010ce4 f   atls:atlbase.obj
 0001:0000fe18       ?__AllocStdCallThunk_cmn@@YAPEAXXZ 0000000180010e18 f   atls:atlthunk.obj
 0001:0000ff70       AtlThunk_AllocateData      0000000180010f70 f   atls:atlthunk.obj
 0001:0000ffec       AtlThunk_DataToCode        0000000180010fec f   atls:atlthunk.obj
 0001:00010040       AtlThunk_FreeData          0000000180011040 f   atls:atlthunk.obj
 0001:000100a0       AtlThunk_InitData          00000001800110a0 f   atls:atlthunk.obj
 0001:00010148       _get_purecall_handler      0000000180011148 f   libvcruntime:purevirt.obj
 0001:00010154       _purecall                  0000000180011154 f   libvcruntime:purevirt.obj
 0001:00010170       wcsstr                     0000000180011170 f   libvcruntime:wcsstr.obj
 0001:000103a0       memcmp                     00000001800113a0 f   libvcruntime:memcmp.obj
 0001:00010480       memcpy_repmovs             0000000180011480 f   libvcruntime:memcpy.obj
 0001:000104a0       memmove                    00000001800114a0 f   libvcruntime:memcpy.obj
 0001:000104a0       memcpy                     00000001800114a0 f   libvcruntime:memcpy.obj
 0001:00010b30       memset_repmovs             0000000180011b30 f   libvcruntime:memset.obj
 0001:00010b50       memset                     0000000180011b50 f   libvcruntime:memset.obj
 0001:00010ce0       __vcrt_initialize          0000000180011ce0 f   libvcruntime:initialization.obj
 0001:00010d08       __vcrt_thread_attach       0000000180011d08 f   libvcruntime:initialization.obj
 0001:00010d1c       __vcrt_thread_detach       0000000180011d1c f   libvcruntime:initialization.obj
 0001:00010d30       __vcrt_uninitialize        0000000180011d30 f   libvcruntime:initialization.obj
 0001:00010d4c       __vcrt_uninitialize_critical 0000000180011d4c f   libvcruntime:initialization.obj
 0001:00010d5c       __C_specific_handler       0000000180011d5c f   libvcruntime:riscchandler.obj
 0001:00010f54       ??$_CallSETranslator@V__FrameHandler3@@@@YAHPEAUEHExceptionRecord@@PEA_KPEAU_CONTEXT@@PEAU_xDISPATCHER_CONTEXT@@PEBU_s_FuncInfo@@K1H@Z 0000000180011f54 f i libvcruntime:risctrnsctrl.obj
 0001:00010fa8       ??$_CallSETranslator@V__FrameHandler4@@@@YAHPEAUEHExceptionRecord@@PEA_KPEAU_CONTEXT@@PEAU_xDISPATCHER_CONTEXT@@PEAUFuncInfo4@FH4@@K1H@Z 0000000180011fa8 f i libvcruntime:risctrnsctrl.obj
 0001:00010ffc       ?CatchTryBlock@__FrameHandler3@@SAPEBU_s_TryBlockMapEntry@@PEBU_s_FuncInfo@@H@Z 0000000180011ffc f   libvcruntime:risctrnsctrl.obj
 0001:00011060       ?DecompFuncInfo@FH4@@YA_JPEAEAEAUFuncInfo4@1@_KH_N@Z 0000000180012060 f i libvcruntime:risctrnsctrl.obj
 0001:00011184       ?ExecutionInCatch@__FrameHandler3@@SA_NPEAU_xDISPATCHER_CONTEXT@@PEBU_s_FuncInfo@@@Z 0000000180012184 f   libvcruntime:risctrnsctrl.obj
 0001:000111b0       ?ExecutionInCatch@__FrameHandler4@@SA_NPEAU_xDISPATCHER_CONTEXT@@PEAUFuncInfo4@FH4@@@Z 00000001800121b0 f   libvcruntime:risctrnsctrl.obj
 0001:000111b8       ?FrameUnwindToEmptyState@__FrameHandler3@@SAXPEA_KPEAU_xDISPATCHER_CONTEXT@@PEBU_s_FuncInfo@@@Z 00000001800121b8 f   libvcruntime:risctrnsctrl.obj
 0001:0001121c       ?FrameUnwindToEmptyState@__FrameHandler4@@SAXPEA_KPEAU_xDISPATCHER_CONTEXT@@PEAUFuncInfo4@FH4@@@Z 000000018001221c f   libvcruntime:risctrnsctrl.obj
 0001:00011250       ?GetEstablisherFrame@__FrameHandler3@@SAPEA_KPEA_KPEAU_xDISPATCHER_CONTEXT@@PEBU_s_FuncInfo@@0@Z 0000000180012250 f   libvcruntime:risctrnsctrl.obj
 0001:0001131c       ?GetEstablisherFrame@__FrameHandler4@@SAPEA_KPEA_KPEAU_xDISPATCHER_CONTEXT@@PEAUFuncInfo4@FH4@@0@Z 000000018001231c f   libvcruntime:risctrnsctrl.obj
 0001:00011340       ?GetRangeOfTrysToCheck@__FrameHandler3@@SA?AU?$pair@Viterator@TryBlockMap@__FrameHandler3@@V123@@std@@AEAVTryBlockMap@1@HPEAU_xDISPATCHER_CONTEXT@@PEBU_s_FuncInfo@@H@Z 0000000180012340 f   libvcruntime:risctrnsctrl.obj
 0001:00011480       ?GetRangeOfTrysToCheck@__FrameHandler4@@SA?AU?$pair@Viterator@TryBlockMap4@FH4@@V123@@std@@AEAVTryBlockMap4@FH4@@HPEAU_xDISPATCHER_CONTEXT@@PEAUFuncInfo4@5@H@Z 0000000180012480 f   libvcruntime:risctrnsctrl.obj
 0001:000115ec       ?UnwindNestedFrames@__FrameHandler3@@SAXPEA_KPEAUEHExceptionRecord@@PEAU_CONTEXT@@0PEAXPEBU_s_FuncInfo@@HHPEBU_s_HandlerType@@PEAU_xDISPATCHER_CONTEXT@@E@Z 00000001800125ec f   libvcruntime:risctrnsctrl.obj
 0001:000116f0       ?UnwindNestedFrames@__FrameHandler4@@SAXPEA_KPEAUEHExceptionRecord@@PEAU_CONTEXT@@0PEAXPEAUFuncInfo4@FH4@@HHPEAUHandlerType4@5@PEAU_xDISPATCHER_CONTEXT@@E@Z 00000001800126f0 f   libvcruntime:risctrnsctrl.obj
 0001:00011810       ?setBuffer@TryBlockMap4@FH4@@QEAAXViterator@12@@Z 0000000180012810 f i libvcruntime:risctrnsctrl.obj
 0001:000119d4       _CreateFrameInfo           00000001800129d4 f   libvcruntime:risctrnsctrl.obj
 0001:00011a10       _FindAndUnlinkFrame        0000000180012a10 f   libvcruntime:risctrnsctrl.obj
 0001:00011a64       _GetImageBase              0000000180012a64 f   libvcruntime:risctrnsctrl.obj
 0001:00011a78       _GetThrowImageBase         0000000180012a78 f   libvcruntime:risctrnsctrl.obj
 0001:00011a8c       _SetImageBase              0000000180012a8c f   libvcruntime:risctrnsctrl.obj
 0001:00011aa4       _SetThrowImageBase         0000000180012aa4 f   libvcruntime:risctrnsctrl.obj
 0001:00011abc       __CxxFrameHandler3         0000000180012abc f   libvcruntime:risctrnsctrl.obj
 0001:00011b44       __CxxFrameHandler4         0000000180012b44 f   libvcruntime:risctrnsctrl.obj
 0001:00011c04       __DestructExceptionObject  0000000180012c04 f   libvcruntime:ehhelpers.obj
 0001:00011c74       ?_CallMemberFunction0@@YAXQEAX0@Z 0000000180012c74 f i libvcruntime:ehhelpers.obj
 0001:00011c78       _IsExceptionObjectToBeDestroyed 0000000180012c78 f   libvcruntime:ehhelpers.obj
 0001:00011ca8       __AdjustPointer            0000000180012ca8 f   libvcruntime:ehhelpers.obj
 0001:00011ccc       __FrameUnwindFilter        0000000180012ccc f   libvcruntime:ehhelpers.obj
 0001:00011d34       __std_terminate            0000000180012d34 f   libvcruntime:ehhelpers.obj
 0001:00011d40       __std_type_info_compare    0000000180012d40 f   libvcruntime:std_type_info.obj
 0001:00011d68       __std_type_info_destroy_list 0000000180012d68 f   libvcruntime:std_type_info.obj
 0001:00011d94       __std_exception_copy       0000000180012d94 f   libvcruntime:std_exception.obj
 0001:00011e24       __std_exception_destroy    0000000180012e24 f   libvcruntime:std_exception.obj
 0001:00011e4c       _CxxThrowException         0000000180012e4c f   libvcruntime:throw.obj
 0001:00011eec       __vcrt_freefls             0000000180012eec f   libvcruntime:per_thread_data.obj
 0001:00011f0c       __vcrt_freeptd             0000000180012f0c f   libvcruntime:per_thread_data.obj
 0001:00011f5c       __vcrt_getptd              0000000180012f5c f   libvcruntime:per_thread_data.obj
 0001:00011f78       __vcrt_getptd_noexit       0000000180012f78 f   libvcruntime:per_thread_data.obj
 0001:00012038       __vcrt_initialize_ptd      0000000180013038 f   libvcruntime:per_thread_data.obj
 0001:00012080       __vcrt_uninitialize_ptd    0000000180013080 f   libvcruntime:per_thread_data.obj
 0001:000120a4       __vcrt_initialize_locks    00000001800130a4 f   libvcruntime:locks.obj
 0001:000120ec       __vcrt_uninitialize_locks  00000001800130ec f   libvcruntime:locks.obj
 0001:00012140       _NLG_Notify                0000000180013140 f   libvcruntime:notify.obj
 0001:00012160       __NLG_Dispatch2            0000000180013160 f   libvcruntime:notify.obj
 0001:00012170       __NLG_Return2              0000000180013170 f   libvcruntime:notify.obj
 0001:00012174       __except_validate_context_record 0000000180013174 f   libvcruntime:jbcxrval.obj
 0001:000121ac       ?GetCurrentState@__FrameHandler3@@SAHPEA_KPEAU_xDISPATCHER_CONTEXT@@PEBU_s_FuncInfo@@@Z 00000001800131ac f   libvcruntime:ehstate.obj
 0001:000121d4       ?GetUnwindTryBlock@__FrameHandler3@@SAHPEA_KPEAU_xDISPATCHER_CONTEXT@@PEBU_s_FuncInfo@@@Z 00000001800131d4 f   libvcruntime:ehstate.obj
 0001:00012200       ?SetState@__FrameHandler3@@SAXPEA_KPEBU_s_FuncInfo@@H@Z 0000000180013200 f   libvcruntime:ehstate.obj
 0001:0001220c       ?SetUnwindTryBlock@__FrameHandler3@@SAXPEA_KPEAU_xDISPATCHER_CONTEXT@@PEBU_s_FuncInfo@@H@Z 000000018001320c f   libvcruntime:ehstate.obj
 0001:00012248       ?StateFromControlPc@__FrameHandler3@@SAHPEBU_s_FuncInfo@@PEAU_xDISPATCHER_CONTEXT@@@Z 0000000180013248 f   libvcruntime:ehstate.obj
 0001:00012250       ?StateFromControlPc@__FrameHandler4@@SAHPEAUFuncInfo4@FH4@@PEAU_xDISPATCHER_CONTEXT@@@Z 0000000180013250 f   libvcruntime:ehstate.obj
 0001:00012258       ?StateFromIp@__FrameHandler3@@SAHPEBU_s_FuncInfo@@PEAU_xDISPATCHER_CONTEXT@@_K@Z 0000000180013258 f   libvcruntime:ehstate.obj
 0001:000122c0       ?StateFromIp@__FrameHandler4@@SAHPEAUFuncInfo4@FH4@@PEAU_xDISPATCHER_CONTEXT@@_K@Z 00000001800132c0 f   libvcruntime:ehstate.obj
 0001:000139c0       ??$TypeMatchHelper@V__FrameHandler3@@@@YAHPEBU_s_HandlerType@@PEBU_s_CatchableType@@PEBU_s_ThrowInfo@@@Z 00000001800149c0 f i libvcruntime:frame.obj
 0001:00013b00       ??$TypeMatchHelper@V__FrameHandler4@@@@YAHPEAUHandlerType4@FH4@@PEBU_s_CatchableType@@PEBU_s_ThrowInfo@@@Z 0000000180014b00 f i libvcruntime:frame.obj
 0001:00013c44       ??$__InternalCxxFrameHandler@V__FrameHandler3@@@@YA?AW4_EXCEPTION_DISPOSITION@@PEAUEHExceptionRecord@@PEA_KPEAU_CONTEXT@@PEAU_xDISPATCHER_CONTEXT@@PEBU_s_FuncInfo@@H1E@Z 0000000180014c44 f i libvcruntime:frame.obj
 0001:00013e7c       ??$__InternalCxxFrameHandler@V__FrameHandler4@@@@YA?AW4_EXCEPTION_DISPOSITION@@PEAUEHExceptionRecord@@PEA_KPEAU_CONTEXT@@PEAU_xDISPATCHER_CONTEXT@@PEAUFuncInfo4@FH4@@H1E@Z 0000000180014e7c f i libvcruntime:frame.obj
 0001:00014110       ??0HandlerMap4@FH4@@QEAA@PEBUTryBlockMapEntry4@1@_KH@Z 0000000180015110 f i libvcruntime:frame.obj
 0001:0001418c       ??0TryBlockMap4@FH4@@QEAA@PEBUFuncInfo4@1@_K@Z 000000018001518c f i libvcruntime:frame.obj
 0001:00014264       ??0bad_exception@std@@QEAA@AEBV01@@Z 0000000180015264 f i libvcruntime:frame.obj
 0001:000142a0       ??0bad_exception@std@@QEAA@XZ 00000001800152a0 f i libvcruntime:frame.obj
 0001:000142c0       ?CxxCallCatchBlock@__FrameHandler3@@SAPEAXPEAU_EXCEPTION_RECORD@@@Z 00000001800152c0 f   libvcruntime:frame.obj
 0001:000144ac       ?CxxCallCatchBlock@__FrameHandler4@@SAPEAXPEAU_EXCEPTION_RECORD@@@Z 00000001800154ac f   libvcruntime:frame.obj
 0001:000146fc       ?DecompHandler@HandlerMap4@FH4@@AEAAXXZ 00000001800156fc f i libvcruntime:frame.obj
 0001:00014948       ?FrameUnwindToState@__FrameHandler3@@SAXPEA_KPEAU_xDISPATCHER_CONTEXT@@PEBU_s_FuncInfo@@H@Z 0000000180015948 f   libvcruntime:frame.obj
 0001:00014ad4       ?FrameUnwindToState@__FrameHandler4@@SAXPEA_KPEAU_xDISPATCHER_CONTEXT@@PEAUFuncInfo4@FH4@@H@Z 0000000180015ad4 f   libvcruntime:frame.obj
 0001:00014dd0       ?GetHandlerSearchState@__FrameHandler3@@SAHPEA_KPEAU_xDISPATCHER_CONTEXT@@PEBU_s_FuncInfo@@@Z 0000000180015dd0 f i libvcruntime:frame.obj
 0001:00014fe0       ?ReadEntry@UWMap4@FH4@@AEAAXPEAPEAE@Z 0000000180015fe0 f i libvcruntime:frame.obj
 0001:0001507c       ?_CallMemberFunction1@@YAXQEAX00@Z 000000018001607c f i libvcruntime:frame.obj
 0001:00015088       ?_CallMemberFunction2@@YAXQEAX00H@Z 0000000180016088 f i libvcruntime:frame.obj
 0001:00015098       ?getStartStop@UWMap4@FH4@@QEAAXHHAEAViterator@12@0@Z 0000000180016098 f i libvcruntime:frame.obj
 0001:00015168       ?getStateFromIterators@UWMap4@FH4@@SAHAEBViterator@12@H0H0@Z 0000000180016168 f i libvcruntime:frame.obj
 0001:00015384       __vcrt_FlsAlloc            0000000180016384 f   libvcruntime:winapi_downlevel.obj
 0001:000153cc       __vcrt_FlsFree             00000001800163cc f   libvcruntime:winapi_downlevel.obj
 0001:00015414       __vcrt_FlsGetValue         0000000180016414 f   libvcruntime:winapi_downlevel.obj
 0001:0001545c       __vcrt_FlsSetValue         000000018001645c f   libvcruntime:winapi_downlevel.obj
 0001:000154b0       __vcrt_InitializeCriticalSectionEx 00000001800164b0 f   libvcruntime:winapi_downlevel.obj
 0001:00015530       _CallSettingFrame          0000000180016530 f   libvcruntime:handlers.obj
 0001:00015580       _CallSettingFrame_LookupContinuationIndex 0000000180016580 f   libvcruntime:handlers.obj
 0001:000155b0       _CallSettingFrame_NotifyContinuationAddr 00000001800165b0 f   libvcruntime:handlers.obj
 0001:000155e0       _CallSettingFrameEncoded   00000001800165e0 f   libvcruntime:handlers.obj
 0001:00015628       free                       0000000180016628 f   libucrt:free.obj
 0001:0001563c       ?get_raw_ptd@__crt_cached_ptd_host@@QEAAPEAU__acrt_ptd@@XZ 000000018001663c f i libucrt:invalid_parameter.obj
 0001:000156a4       ?get_raw_ptd_noexit@__crt_cached_ptd_host@@QEAAPEAU__acrt_ptd@@XZ 00000001800166a4 f i libucrt:invalid_parameter.obj
 0001:00015710       ?value@?$dual_state_global@P6AXPEB_W00I_K@Z@__crt_state_management@@QEAAAEAP6AXPEB_W00I_K@ZAEAV__crt_cached_ptd_host@@@Z 0000000180016710 f i libucrt:invalid_parameter.obj
 0001:0001575c       __acrt_call_reportfault    000000018001675c f   libucrt:invalid_parameter.obj
 0001:000158b8       __acrt_initialize_invalid_parameter_handler 00000001800168b8 f   libucrt:invalid_parameter.obj
 0001:000158c0       _invalid_parameter         00000001800168c0 f   libucrt:invalid_parameter.obj
 0001:0001595c       _invalid_parameter_internal 000000018001695c f   libucrt:invalid_parameter.obj
 0001:00015a2c       _invalid_parameter_noinfo  0000000180016a2c f   libucrt:invalid_parameter.obj
 0001:00015a4c       _invoke_watson             0000000180016a4c f   libucrt:invalid_parameter.obj
 0001:00015a94       __acrt_errno_from_os_error 0000000180016a94 f   libucrt:errno.obj
 0001:00015adc       __acrt_errno_map_os_error  0000000180016adc f   libucrt:errno.obj
 0001:00015b24       __acrt_errno_map_os_error_ptd 0000000180016b24 f   libucrt:errno.obj
 0001:00015b48       __doserrno                 0000000180016b48 f   libucrt:errno.obj
 0001:00015b68       _errno                     0000000180016b68 f   libucrt:errno.obj
 0001:00015b88       calloc                     0000000180016b88 f   libucrt:calloc.obj
 0001:00015b90       malloc                     0000000180016b90 f   libucrt:malloc.obj
 0001:00015b98       _recalloc                  0000000180016b98 f   libucrt:recalloc.obj
 0001:00015ba0       _recalloc_base             0000000180016ba0 f   libucrt:recalloc.obj
 0001:00015c38       _resetstkoflw              0000000180016c38 f   libucrt:resetstk.obj
 0001:00015d64       wcscat_s                   0000000180016d64 f   libucrt:wcscat_s.obj
 0001:00015de8       wcscpy_s                   0000000180016de8 f   libucrt:wcscpy_s.obj
 0001:00015e50       wcsncpy_s                  0000000180016e50 f   libucrt:wcsncpy_s.obj
 0001:00016104       ??$ensure_buffer_is_big_enough@D@formatting_buffer@__crt_stdio_output@@QEAA_N_KAEAV__crt_cached_ptd_host@@@Z 0000000180017104 f i libucrt:output.obj
 0001:000161ac       ??$ensure_buffer_is_big_enough@_W@formatting_buffer@__crt_stdio_output@@QEAA_N_KAEAV__crt_cached_ptd_host@@@Z 00000001800171ac f i libucrt:output.obj
 0001:00016258       ??$is_wide_character_specifier@_W@__crt_stdio_output@@YA_N_K_WW4length_modifier@0@@Z 0000000180017258 f i libucrt:output.obj
 0001:00016298       ??$parse_integer@KV?$c_string_character_source@_W@__crt_strtox@@$0A@@__crt_strtox@@YAKAEAV__crt_cached_ptd_host@@V?$c_string_character_source@_W@0@H_N@Z 0000000180017298 f i libucrt:output.obj
 0001:000169f0       ??$type_case_integer@$07@?$output_processor@_WV?$string_output_adapter@_W@__crt_stdio_output@@V?$format_validation_base@_WV?$string_output_adapter@_W@__crt_stdio_output@@@2@@__crt_stdio_output@@AEAA_N_N@Z 00000001800179f0 f i libucrt:output.obj
 0001:00016bdc       ??$type_case_integer@$09@?$output_processor@_WV?$string_output_adapter@_W@__crt_stdio_output@@V?$format_validation_base@_WV?$string_output_adapter@_W@__crt_stdio_output@@@2@@__crt_stdio_output@@AEAA_N_N@Z 0000000180017bdc f i libucrt:output.obj
 0001:00016dc8       ??$type_case_integer@$0BA@@?$output_processor@_WV?$string_output_adapter@_W@__crt_stdio_output@@V?$format_validation_base@_WV?$string_output_adapter@_W@__crt_stdio_output@@@2@@__crt_stdio_output@@AEAA_N_N@Z 0000000180017dc8 f i libucrt:output.obj
 0001:00016fb4       ??$type_case_integer_parse_into_buffer@I$07@?$output_processor@_WV?$string_output_adapter@_W@__crt_stdio_output@@V?$format_validation_base@_WV?$string_output_adapter@_W@__crt_stdio_output@@@2@@__crt_stdio_output@@AEAAXI_N@Z 0000000180017fb4 f i libucrt:output.obj
 0001:0001703c       ??$type_case_integer_parse_into_buffer@I$09@?$output_processor@_WV?$string_output_adapter@_W@__crt_stdio_output@@V?$format_validation_base@_WV?$string_output_adapter@_W@__crt_stdio_output@@@2@@__crt_stdio_output@@AEAAXI_N@Z 000000018001803c f i libucrt:output.obj
 0001:000170f4       ??$type_case_integer_parse_into_buffer@I$0BA@@?$output_processor@_WV?$string_output_adapter@_W@__crt_stdio_output@@V?$format_validation_base@_WV?$string_output_adapter@_W@__crt_stdio_output@@@2@@__crt_stdio_output@@AEAAXI_N@Z 00000001800180f4 f i libucrt:output.obj
 0001:00017198       ??$type_case_integer_parse_into_buffer@_K$07@?$output_processor@_WV?$string_output_adapter@_W@__crt_stdio_output@@V?$format_validation_base@_WV?$string_output_adapter@_W@__crt_stdio_output@@@2@@__crt_stdio_output@@AEAAX_K_N@Z 0000000180018198 f i libucrt:output.obj
 0001:00017220       ??$type_case_integer_parse_into_buffer@_K$09@?$output_processor@_WV?$string_output_adapter@_W@__crt_stdio_output@@V?$format_validation_base@_WV?$string_output_adapter@_W@__crt_stdio_output@@@2@@__crt_stdio_output@@AEAAX_K_N@Z 0000000180018220 f i libucrt:output.obj
 0001:000172e0       ??$type_case_integer_parse_into_buffer@_K$0BA@@?$output_processor@_WV?$string_output_adapter@_W@__crt_stdio_output@@V?$format_validation_base@_WV?$string_output_adapter@_W@__crt_stdio_output@@@2@@__crt_stdio_output@@AEAAX_K_N@Z 00000001800182e0 f i libucrt:output.obj
 0001:00017384       ?crop_zeroes@__crt_stdio_output@@YAXPEADQEAU__crt_locale_pointers@@@Z 0000000180018384 f i libucrt:output.obj
 0001:000173f0       ?parse_int_from_format_string@?$output_processor@_WV?$string_output_adapter@_W@__crt_stdio_output@@V?$format_validation_base@_WV?$string_output_adapter@_W@__crt_stdio_output@@@2@@__crt_stdio_output@@AEAA_NQEAH@Z 00000001800183f0 f i libucrt:output.obj
 0001:00017480       ?process@?$output_processor@_WV?$string_output_adapter@_W@__crt_stdio_output@@V?$format_validation_base@_WV?$string_output_adapter@_W@__crt_stdio_output@@@2@@__crt_stdio_output@@QEAAHXZ 0000000180018480 f i libucrt:output.obj
 0001:0001775c       ?state_case_size@?$output_processor@_WV?$string_output_adapter@_W@__crt_stdio_output@@V?$format_validation_base@_WV?$string_output_adapter@_W@__crt_stdio_output@@@2@@__crt_stdio_output@@AEAA_NXZ 000000018001875c f i libucrt:output.obj
 0001:00017908       ?state_case_type@?$output_processor@_WV?$string_output_adapter@_W@__crt_stdio_output@@V?$format_validation_base@_WV?$string_output_adapter@_W@__crt_stdio_output@@@2@@__crt_stdio_output@@AEAA_NXZ 0000000180018908 f i libucrt:output.obj
 0001:00017d64       ?type_case_Z@?$output_processor@_WV?$string_output_adapter@_W@__crt_stdio_output@@V?$format_validation_base@_WV?$string_output_adapter@_W@__crt_stdio_output@@@2@@__crt_stdio_output@@AEAA_NXZ 0000000180018d64 f i libucrt:output.obj
 0001:00017de0       ?type_case_a@?$output_processor@_WV?$string_output_adapter@_W@__crt_stdio_output@@V?$format_validation_base@_WV?$string_output_adapter@_W@__crt_stdio_output@@@2@@__crt_stdio_output@@AEAA_NXZ 0000000180018de0 f i libucrt:output.obj
 0001:00018040       ?type_case_c_tchar@?$output_processor@_WV?$string_output_adapter@_W@__crt_stdio_output@@V?$format_validation_base@_WV?$string_output_adapter@_W@__crt_stdio_output@@@2@@__crt_stdio_output@@AEAA_N_W@Z 0000000180019040 f i libucrt:output.obj
 0001:00018104       ?type_case_n@?$output_processor@_WV?$string_output_adapter@_W@__crt_stdio_output@@V?$format_validation_base@_WV?$string_output_adapter@_W@__crt_stdio_output@@@2@@__crt_stdio_output@@AEAA_NXZ 0000000180019104 f i libucrt:output.obj
 0001:000181b8       ?type_case_s@?$output_processor@_WV?$string_output_adapter@_W@__crt_stdio_output@@V?$format_validation_base@_WV?$string_output_adapter@_W@__crt_stdio_output@@@2@@__crt_stdio_output@@AEAA_NXZ 00000001800191b8 f i libucrt:output.obj
 0001:00018250       ?type_case_s_compute_narrow_string_length@?$output_processor@_WV?$string_output_adapter@_W@__crt_stdio_output@@V?$format_validation_base@_WV?$string_output_adapter@_W@__crt_stdio_output@@@2@@__crt_stdio_output@@AEAAHH_W@Z 0000000180019250 f i libucrt:output.obj
 0001:000182d0       ?update_locale_slow@__crt_cached_ptd_host@@AEAAXXZ 00000001800192d0 f i libucrt:output.obj
 0001:00018348       ?write_string@?$string_output_adapter@_W@__crt_stdio_output@@QEBAXQEB_WHQEAHAEAV__crt_cached_ptd_host@@@Z 0000000180019348 f i libucrt:output.obj
 0001:000183f0       __stdio_common_vswprintf_s 00000001800193f0 f   libucrt:output.obj
 0001:00018504       _seh_filter_dll            0000000180019504 f   libucrt:exception_filter.obj
 0001:00018518       _seh_filter_exe            0000000180019518 f   libucrt:exception_filter.obj
 0001:0001893c       __acrt_initialize_thread_local_exit_callback 000000018001993c f   libucrt:exit.obj
 0001:00018944       _cexit                     0000000180019944 f   libucrt:exit.obj
 0001:00018954       _exit                      0000000180019954 f   libucrt:exit.obj
 0001:00018960       _is_c_termination_complete 0000000180019960 f   libucrt:exit.obj
 0001:00018b28       __acrt_allocate_buffer_for_argv 0000000180019b28 f   libucrt:argv_parsing.obj
 0001:00018b88       _configure_narrow_argv     0000000180019b88 f   libucrt:argv_parsing.obj
 0001:00018f10       __dcrt_uninitialize_environments_nolock 0000000180019f10 f   libucrt:environment_initialization.obj
 0001:00018f54       _initialize_narrow_environment 0000000180019f54 f   libucrt:environment_initialization.obj
 0001:000192a4       _crt_atexit                000000018001a2a4 f   libucrt:onexit.obj
 0001:000192b4       _execute_onexit_table      000000018001a2b4 f   libucrt:onexit.obj
 0001:000192f8       _initialize_onexit_table   000000018001a2f8 f   libucrt:onexit.obj
 0001:00019320       _register_onexit_function  000000018001a320 f   libucrt:onexit.obj
 0001:000193a0       __acrt_uninitialize_command_line 000000018001a3a0 f   libucrt:argv_data.obj
 0001:00019498       __acrt_initialize          000000018001a498 f   libucrt:initialization.obj
 0001:000194ac       __acrt_thread_attach       000000018001a4ac f   libucrt:initialization.obj
 0001:000194c0       __acrt_thread_detach       000000018001a4c0 f   libucrt:initialization.obj
 0001:000194d0       __acrt_uninitialize        000000018001a4d0 f   libucrt:initialization.obj
 0001:00019508       __acrt_uninitialize_critical 000000018001a508 f   libucrt:initialization.obj
 0001:00019518       _initterm                  000000018001a518 f   libucrt:initterm.obj
 0001:0001955c       _initterm_e                000000018001a55c f   libucrt:initterm.obj
 0001:000195a4       __acrt_initialize_new_handler 000000018001a5a4 f   libucrt:new_handler.obj
 0001:000195ac       _callnewh                  000000018001a5ac f   libucrt:new_handler.obj
 0001:000195e8       _query_new_handler         000000018001a5e8 f   libucrt:new_handler.obj
 0001:0001961c       terminate                  000000018001a61c f   libucrt:terminate.obj
 0001:00019648       abort                      000000018001a648 f   libucrt:abort.obj
 0001:000196a0       strcpy_s                   000000018001a6a0 f   libucrt:strcpy_s.obj
 0001:00019710       strncmp                    000000018001a710 f   libucrt:strncmp.obj
 0001:00019790       wcsncmp                    000000018001a790 f   libucrt:wcsncmp.obj
 0001:000197bc       _free_base                 000000018001a7bc f   libucrt:free_base.obj
 0001:00019b70       __acrt_freeptd             000000018001ab70 f   libucrt:per_thread_data.obj
 0001:00019bb4       __acrt_getptd              000000018001abb4 f   libucrt:per_thread_data.obj
 0001:00019c88       __acrt_getptd_head         000000018001ac88 f   libucrt:per_thread_data.obj
 0001:00019d2c       __acrt_getptd_noexit       000000018001ad2c f   libucrt:per_thread_data.obj
 0001:00019df4       __acrt_getptd_noexit_explicit 000000018001adf4 f   libucrt:per_thread_data.obj
 0001:00019eb4       __acrt_initialize_ptd      000000018001aeb4 f   libucrt:per_thread_data.obj
 0001:00019ef0       __acrt_uninitialize_ptd    000000018001aef0 f   libucrt:per_thread_data.obj
 0001:00019f84       __acrt_set_locale_changed  000000018001af84 f   libucrt:wsetlocale.obj
 0001:00019f90       __acrt_uninitialize_locale 000000018001af90 f   libucrt:wsetlocale.obj
 0001:00019fc0       _calloc_base               000000018001afc0 f   libucrt:calloc_base.obj
 0001:0001a038       _malloc_base               000000018001b038 f   libucrt:malloc_base.obj
 0001:0001a098       _msize_base                000000018001b098 f   libucrt:msize.obj
 0001:0001a0d4       _realloc_base              000000018001b0d4 f   libucrt:realloc_base.obj
 0001:0001a310       __acrt_AppPolicyGetProcessTerminationMethodInternal 000000018001b310 f   libucrt:winapi_thunks.obj
 0001:0001a368       __acrt_AreFileApisANSI     000000018001b368 f   libucrt:winapi_thunks.obj
 0001:0001a3ac       __acrt_FlsAlloc            000000018001b3ac f   libucrt:winapi_thunks.obj
 0001:0001a3b4       __acrt_FlsFree             000000018001b3b4 f   libucrt:winapi_thunks.obj
 0001:0001a3bc       __acrt_FlsGetValue         000000018001b3bc f   libucrt:winapi_thunks.obj
 0001:0001a3c4       __acrt_FlsSetValue         000000018001b3c4 f   libucrt:winapi_thunks.obj
 0001:0001a3cc       __acrt_InitializeCriticalSectionEx 000000018001b3cc f   libucrt:winapi_thunks.obj
 0001:0001a43c       __acrt_LCMapStringEx       000000018001b43c f   libucrt:winapi_thunks.obj
 0001:0001a528       __acrt_LocaleNameToLCID    000000018001b528 f   libucrt:winapi_thunks.obj
 0001:0001a588       __acrt_SetThreadStackGuarantee 000000018001b588 f   libucrt:winapi_thunks.obj
 0001:0001a5d4       __acrt_initialize_winapi_thunks 000000018001b5d4 f   libucrt:winapi_thunks.obj
 0001:0001a5f8       __acrt_uninitialize_winapi_thunks 000000018001b5f8 f   libucrt:winapi_thunks.obj
 0001:0001a63c       wcsnlen                    000000018001b63c f   libucrt:strnlen.obj
 0001:0001a814       __acrt_update_locale_info  000000018001b814 f   libucrt:locale_update.obj
 0001:0001a848       __acrt_update_locale_info_explicit 000000018001b848 f   libucrt:locale_update.obj
 0001:0001a880       __acrt_update_multibyte_info 000000018001b880 f   libucrt:locale_update.obj
 0001:0001a8b4       __acrt_update_multibyte_info_explicit 000000018001b8b4 f   libucrt:locale_update.obj
 0001:0001b41c       __acrt_fp_format           000000018001c41c f   libucrt:cvt.obj
 0001:0001b704       _mbtowc_internal           000000018001c704 f   libucrt:mbtowc.obj
 0001:0001b87c       _fileno                    000000018001c87c f   libucrt:fileno.obj
 0001:0001b8a4       __acrt_initialize_stdio    000000018001c8a4 f   libucrt:_file.obj
 0001:0001b9c4       __acrt_uninitialize_stdio  000000018001c9c4 f   libucrt:_file.obj
 0001:0001ba20       _lock_file                 000000018001ca20 f   libucrt:_file.obj
 0001:0001ba2c       _unlock_file               000000018001ca2c f   libucrt:_file.obj
 0001:0001ba38       _get_printf_count_output   000000018001ca38 f   libucrt:printf_count_output.obj
 0001:0001bc48       __acrt_initialize_lowio    000000018001cc48 f   libucrt:ioinit.obj
 0001:0001bc84       __acrt_uninitialize_lowio  000000018001cc84 f   libucrt:ioinit.obj
 0001:0001bcc4       __acrt_initialize_locks    000000018001ccc4 f   libucrt:locks.obj
 0001:0001bd0c       __acrt_lock                000000018001cd0c f   libucrt:locks.obj
 0001:0001bd28       __acrt_uninitialize_locks  000000018001cd28 f   libucrt:locks.obj
 0001:0001bd60       __acrt_unlock              000000018001cd60 f   libucrt:locks.obj
 0001:0001bd7c       __acrt_get_process_end_policy 000000018001cd7c f   libucrt:win_policies.obj
 0001:0001bdcc       ??$__acrt_convert_wcs_mbs_cp@D_WV<lambda_7c9dea7b4ca7285d2cdb541a38da6275>@@U__crt_win32_buffer_internal_dynamic_resizing@@@@YAHQEBDAEAV?$__crt_win32_buffer@_WU__crt_win32_buffer_internal_dynamic_resizing@@@@AEBV<lambda_7c9dea7b4ca7285d2cdb541a38da6275>@@I@Z 000000018001cdcc f i libucrt:argv_wildcards.obj
 0001:0001bf48       ??$__acrt_convert_wcs_mbs_cp@_WDV<lambda_d8593a27d1aa8c02be35c86a17d324c4>@@U__crt_win32_buffer_internal_dynamic_resizing@@@@YAHQEB_WAEAV?$__crt_win32_buffer@DU__crt_win32_buffer_internal_dynamic_resizing@@@@AEBV<lambda_d8593a27d1aa8c02be35c86a17d324c4>@@I@Z 000000018001cf48 f i libucrt:argv_wildcards.obj
 0001:0001c7f0       ??0_LocaleUpdate@@QEAA@QEAU__crt_locale_pointers@@@Z 000000018001d7f0 f i libucrt:argv_wildcards.obj
 0001:0001c88c       __acrt_expand_narrow_argv_wildcards 000000018001d88c f   libucrt:argv_wildcards.obj
 0001:0001c894       ??$__acrt_convert_wcs_mbs_cp@_WDV<lambda_f788ae46380686e8b737efdd8c720d07>@@U__crt_win32_buffer_no_resizing@@@@YAHQEB_WAEAV?$__crt_win32_buffer@DU__crt_win32_buffer_no_resizing@@@@AEBV<lambda_f788ae46380686e8b737efdd8c720d07>@@I@Z 000000018001d894 f i libucrt:getmodulefilenamea.obj
 0001:0001c9b0       __acrt_GetModuleFileNameA  000000018001d9b0 f   libucrt:getmodulefilenamea.obj
 0001:0001d2cc       __acrt_initialize_multibyte 000000018001e2cc f   libucrt:mbctype.obj
 0001:0001d32c       __acrt_update_thread_multibyte_data 000000018001e32c f   libucrt:mbctype.obj
 0001:0001d348       _setmbcp_nolock            000000018001e348 f   libucrt:mbctype.obj
 0001:0001d67c       _ismbblead                 000000018001e67c f   libucrt:ismbbyte.obj
 0001:0001d690       __acrt_initialize_command_line 000000018001e690 f   libucrt:argv_data.obj
 0001:0001d6b8       __acrt_MultiByteToWideChar 000000018001e6b8 f   libucrt:multibytetowidechar.obj
 0001:0001d714       __acrt_WideCharToMultiByte 000000018001e714 f   libucrt:widechartomultibyte.obj
 0001:0001d7c4       __dcrt_get_narrow_environment_from_os 000000018001e7c4 f   libucrt:get_environment_from_os.obj
 0001:0001d8d4       __acrt_initialize_heap     000000018001e8d4 f   libucrt:heap_handle.obj
 0001:0001d8f0       __acrt_uninitialize_heap   000000018001e8f0 f   libucrt:heap_handle.obj
 0001:0001d8fc       __acrt_execute_initializers 000000018001e8fc f   libucrt:shared_initialization.obj
 0001:0001d990       __acrt_execute_uninitializers 000000018001e990 f   libucrt:shared_initialization.obj
 0001:0001da20       __acrt_get_sigabrt_handler 000000018001ea20 f   libucrt:signal.obj
 0001:0001da50       __acrt_initialize_signal_handlers 000000018001ea50 f   libucrt:signal.obj
 0001:0001da70       raise                      000000018001ea70 f   libucrt:signal.obj
 0001:0001dcf0       __acrt_has_user_matherr    000000018001ecf0 f   libucrt:matherr.obj
 0001:0001dd10       __acrt_initialize_user_matherr 000000018001ed10 f   libucrt:matherr.obj
 0001:0001dd18       __acrt_invoke_user_matherr 000000018001ed18 f   libucrt:matherr.obj
 0001:0001df2c       __acrt_stdio_flush_nolock  000000018001ef2c f   libucrt:fflush.obj
 0001:0001dfb8       _fflush_nolock             000000018001efb8 f   libucrt:fflush.obj
 0001:0001e08c       _flushall                  000000018001f08c f   libucrt:fflush.obj
 0001:0001e094       __acrt_add_locale_ref      000000018001f094 f   libucrt:locale_refcounting.obj
 0001:0001e120       __acrt_free_locale         000000018001f120 f   libucrt:locale_refcounting.obj
 0001:0001e298       __acrt_locale_add_lc_time_reference 000000018001f298 f   libucrt:locale_refcounting.obj
 0001:0001e2c0       __acrt_locale_free_lc_time_if_unreferenced 000000018001f2c0 f   libucrt:locale_refcounting.obj
 0001:0001e2f8       __acrt_locale_release_lc_time_reference 000000018001f2f8 f   libucrt:locale_refcounting.obj
 0001:0001e320       __acrt_release_locale_ref  000000018001f320 f   libucrt:locale_refcounting.obj
 0001:0001e3c8       __acrt_update_thread_locale_data 000000018001f3c8 f   libucrt:locale_refcounting.obj
 0001:0001e438       _updatetlocinfoEx_nolock   000000018001f438 f   libucrt:locale_refcounting.obj
 0001:0001e4a0       __acrt_locale_free_monetary 000000018001f4a0 f   libucrt:initmon.obj
 0001:0001e5ac       __acrt_locale_free_numeric 000000018001f5ac f   libucrt:initnum.obj
 0001:0001e64c       __acrt_locale_free_time    000000018001f64c f   libucrt:inittime.obj
 0001:0001e754       __acrt_GetStringTypeA      000000018001f754 f   libucrt:getstringtypea.obj
 0001:0001e8f0       _query_new_mode            000000018001f8f0 f   libucrt:new_mode.obj
 0001:0001e8f8       __acrt_DownlevelLocaleNameToLCID 000000018001f8f8 f   libucrt:lcidtoname_downlevel.obj
 0001:0001e9a0       __acrt_fp_strflt_to_string 000000018001f9a0 f   libucrt:_fptostr.obj
 0001:0001eb30       ?divide@__crt_strtox@@YA_KAEAUbig_integer@1@AEBU21@@Z 000000018001fb30 f i libucrt:cfout.obj
 0001:0001efbc       __acrt_fltout              000000018001ffbc f   libucrt:cfout.obj
 0001:00020284       fegetround                 0000000180021284 f   libucrt:fegetround.obj
 0001:00020298       ?__mbrtowc_utf8@__crt_mbstring@@YA_KPEA_WPEBD_KPEAU_Mbstatet@@AEAV__crt_cached_ptd_host@@@Z 0000000180021298 f   libucrt:mbrtowc.obj
 0001:000202dc       ?__mbsrtowcs_utf8@__crt_mbstring@@YA_KPEA_WPEAPEBD_KPEAU_Mbstatet@@AEAV__crt_cached_ptd_host@@@Z 00000001800212dc f   libucrt:mbrtowc.obj
 0001:00020480       _fcloseall                 0000000180021480 f   libucrt:closeall.obj
 0001:00020534       __acrt_stdio_free_buffer_nolock 0000000180021534 f   libucrt:_freebuf.obj
 0001:00020574       _isatty                    0000000180021574 f   libucrt:isatty.obj
 0001:000205d4       __acrt_lowio_create_handle_array 00000001800215d4 f   libucrt:osfinfo.obj
 0001:0002067c       __acrt_lowio_destroy_handle_array 000000018002167c f   libucrt:osfinfo.obj
 0001:000206cc       __acrt_lowio_ensure_fh_exists 00000001800216cc f   libucrt:osfinfo.obj
 0001:00020774       __acrt_lowio_lock_fh       0000000180021774 f   libucrt:osfinfo.obj
 0001:0002079c       __acrt_lowio_unlock_fh     000000018002179c f   libucrt:osfinfo.obj
 0001:000207c4       _free_osfhnd               00000001800217c4 f   libucrt:osfinfo.obj
 0001:00020880       _get_osfhandle             0000000180021880 f   libucrt:osfinfo.obj
 0001:00020900       qsort                      0000000180021900 f   libucrt:qsort.obj
 0001:00020d10       strncpy_s                  0000000180021d10 f   libucrt:strncpy_s.obj
 0001:00020ea0       strpbrk                    0000000180021ea0 f   libucrt:strpbrk.obj
 0001:00021268       _mbsdec                    0000000180022268 f   libucrt:mbsdec.obj
 0001:00021270       _mbsdec_l                  0000000180022270 f   libucrt:mbsdec.obj
 0001:00021624       __acrt_LCMapStringA        0000000180022624 f   libucrt:lcmapstringa.obj
 0001:00021760       _commit                    0000000180022760 f   libucrt:commit.obj
 0001:00022010       _write_internal            0000000180023010 f   libucrt:write.obj
 0001:00022138       _write_nolock              0000000180023138 f   libucrt:write.obj
 0001:00022448       __ascii_wcsnicmp           0000000180023448 f   libucrt:wcsnicmp.obj
 0001:00022494       _controlfp_s               0000000180023494 f   libucrt:contrlfp.obj
 0001:000224f8       fegetenv                   00000001800234f8 f   libucrt:fegetenv.obj
 0001:00022518       fesetenv                   0000000180023518 f   libucrt:fesetenv.obj
 0001:00022564       feholdexcept               0000000180023564 f   libucrt:feholdexcept.obj
 0001:000225b4       ceil                       00000001800235b4 f   libucrt:ceil.obj
 0001:00022680       log10                      0000000180023680 f   libucrt:log10.obj
 0001:00022c2c       __acrt_fenv_get_common_round_control 0000000180023c2c f   libucrt:_fenvutils.obj
 0001:00022c38       __acrt_fenv_get_control    0000000180023c38 f   libucrt:_fenvutils.obj
 0001:00022d1c       __acrt_fenv_get_status     0000000180023d1c f   libucrt:_fenvutils.obj
 0001:00022d74       __acrt_fenv_set_control    0000000180023d74 f   libucrt:_fenvutils.obj
 0001:00022eb0       __acrt_fenv_set_status     0000000180023eb0 f   libucrt:_fenvutils.obj
 0001:00022f24       ?reset_and_return@__crt_mbstring@@YA_K_KPEAU_Mbstatet@@@Z 0000000180023f24 f   libucrt:common_utf8.obj
 0001:00022f2c       ?return_illegal_sequence@__crt_mbstring@@YA_KPEAU_Mbstatet@@AEAV__crt_cached_ptd_host@@@Z 0000000180023f2c f   libucrt:common_utf8.obj
 0001:00022f40       ?__mbrtoc32_utf8@__crt_mbstring@@YA_KPEA_UPEBD_KPEAU_Mbstatet@@AEAV__crt_cached_ptd_host@@@Z 0000000180023f40 f   libucrt:mbrtoc32.obj
 0001:0002323c       fclose                     000000018002423c f   libucrt:fclose.obj
 0001:00023380       _lseeki64_nolock_internal  0000000180024380 f   libucrt:lseek.obj
 0001:00023388       _query_app_type            0000000180024388 f   libucrt:report_runtime_error.obj
 0001:00023390       __strncnt                  0000000180024390 f   libucrt:strncnt.obj
 0001:000233a8       _putwch_nolock             00000001800243a8 f   libucrt:putwch.obj
 0001:000233e4       _clearfp                   00000001800243e4 f   libucrt:ieee.obj
 0001:00023454       _control87                 0000000180024454 f   libucrt:ieee.obj
 0001:00023840       _handle_error              0000000180024840 f   libucrt:libm_error.obj
 0001:00023968       _handle_nan                0000000180024968 f   libucrt:libm_error.obj
 0001:00023990       __acrt_initialize_fma3     0000000180024990 f   libucrt:fma3_available.obj
 0001:00023a00       _log10_special             0000000180024a00 f   libucrt:log_special.obj
 0001:00023b30       _close_internal            0000000180024b30 f   libucrt:close.obj
 0001:00023bf4       _close_nolock_internal     0000000180024bf4 f   libucrt:close.obj
 0001:00023cc4       ?__acrt_stdio_free_stream@@YAXV__crt_stdio_stream@@@Z 0000000180024cc4 f   libucrt:stream.obj
 0001:00023ce0       __dcrt_lowio_ensure_console_output_initialized 0000000180024ce0 f   libucrt:initcon.obj
 0001:00023d34       __dcrt_terminate_console_output 0000000180024d34 f   libucrt:initcon.obj
 0001:00023d50       __dcrt_write_console       0000000180024d50 f   libucrt:initcon.obj
 0001:00023e20       _get_fpsr                  0000000180024e20 f   libucrt:fpsr.obj
 0001:00023e30       _set_fpsr                  0000000180024e30 f   libucrt:fpsr.obj
 0001:00023e3a       _fclrf                     0000000180024e3a f   libucrt:fpsr.obj
 0001:00023e4e       _frnd                      0000000180024e4e f   libucrt:fpsr.obj
 0001:00023e70       _raise_exc                 0000000180024e70 f   libucrt:fpexcept.obj
 0001:00023e98       _raise_exc_ex              0000000180024e98 f   libucrt:fpexcept.obj
 0001:000241a8       _set_errno_from_matherr    00000001800251a8 f   libucrt:fpexcept.obj
 0001:000241d8       _clrfp                     00000001800251d8 f   libucrt:fpctrl.obj
 0001:000241f8       _ctrlfp                    00000001800251f8 f   libucrt:fpctrl.obj
 0001:00024274       _set_statfp                0000000180025274 f   libucrt:fpctrl.obj
 0001:00024294       _statfp                    0000000180025294 f   libucrt:fpctrl.obj
 0001:000242b0       _FindPESection             00000001800252b0 f   LIBCMT:pesect.obj
 0001:00024300       _IsNonwritableInCurrentImage 0000000180025300 f   LIBCMT:pesect.obj
 0001:00024350       _ValidateImageBase         0000000180025350 f   LIBCMT:pesect.obj
 0001:0002437c       __GSHandlerCheck_EH        000000018002537c f   LIBCMT:gshandlereh.obj
 0001:000243fc       __C_specific_handler_noexcept 00000001800253fc f   libvcruntime:chandler_noexcept.obj
 0001:00024448       strrchr                    0000000180025448 f   libvcruntime:strrchr.obj
 0001:000245a0       _guard_dispatch_icall_nop  00000001800255a0 f   LIBCMT:guard_dispatch.obj
 0001:000245c0       _guard_xfg_dispatch_icall_nop 00000001800255c0 f   LIBCMT:guard_xfg_dispatch.obj
 0002:00000000       __imp_RegQueryValueExW     0000000180026000     advapi32:ADVAPI32.dll
 0002:00000008       __imp_RegSetValueExW       0000000180026008     advapi32:ADVAPI32.dll
 0002:00000010       __imp_RegQueryInfoKeyW     0000000180026010     advapi32:ADVAPI32.dll
 0002:00000018       __imp_RegOpenKeyExW        0000000180026018     advapi32:ADVAPI32.dll
 0002:00000020       __imp_RegEnumKeyExW        0000000180026020     advapi32:ADVAPI32.dll
 0002:00000028       __imp_RegDeleteValueW      0000000180026028     advapi32:ADVAPI32.dll
 0002:00000030       __imp_RegDeleteKeyW        0000000180026030     advapi32:ADVAPI32.dll
 0002:00000038       __imp_RegCreateKeyExW      0000000180026038     advapi32:ADVAPI32.dll
 0002:00000040       __imp_RegCloseKey          0000000180026040     advapi32:ADVAPI32.dll
 0002:00000048       \177ADVAPI32_NULL_THUNK_DATA 0000000180026048     advapi32:ADVAPI32.dll
 0002:00000050       __imp_GetObjectW           0000000180026050     gdi32:GDI32.dll
 0002:00000058       __imp_SelectObject         0000000180026058     gdi32:GDI32.dll
 0002:00000060       __imp_DeleteObject         0000000180026060     gdi32:GDI32.dll
 0002:00000068       __imp_CreateCompatibleDC   0000000180026068     gdi32:GDI32.dll
 0002:00000070       __imp_BitBlt               0000000180026070     gdi32:GDI32.dll
 0002:00000078       __imp_SetWindowOrgEx       0000000180026078     gdi32:GDI32.dll
 0002:00000080       __imp_SetWindowExtEx       0000000180026080     gdi32:GDI32.dll
 0002:00000088       __imp_SetViewportOrgEx     0000000180026088     gdi32:GDI32.dll
 0002:00000090       __imp_LPtoDP               0000000180026090     gdi32:GDI32.dll
 0002:00000098       __imp_SetMapMode           0000000180026098     gdi32:GDI32.dll
 0002:000000a0       __imp_SaveDC               00000001800260a0     gdi32:GDI32.dll
 0002:000000a8       __imp_RestoreDC            00000001800260a8     gdi32:GDI32.dll
 0002:000000b0       __imp_GetDeviceCaps        00000001800260b0     gdi32:GDI32.dll
 0002:000000b8       __imp_DeleteMetaFile       00000001800260b8     gdi32:GDI32.dll
 0002:000000c0       __imp_DeleteDC             00000001800260c0     gdi32:GDI32.dll
 0002:000000c8       __imp_CreateRectRgnIndirect 00000001800260c8     gdi32:GDI32.dll
 0002:000000d0       __imp_CreateMetaFileW      00000001800260d0     gdi32:GDI32.dll
 0002:000000d8       __imp_CreateDCW            00000001800260d8     gdi32:GDI32.dll
 0002:000000e0       __imp_CloseMetaFile        00000001800260e0     gdi32:GDI32.dll
 0002:000000e8       \177GDI32_NULL_THUNK_DATA  00000001800260e8     gdi32:GDI32.dll
 0002:000000f0       __imp_CloseHandle          00000001800260f0     kernel32:KERNEL32.dll
 0002:000000f8       __imp_SetEvent             00000001800260f8     kernel32:KERNEL32.dll
 0002:00000100       __imp_CreateMutexW         0000000180026100     kernel32:KERNEL32.dll
 0002:00000108       __imp_CreateEventW         0000000180026108     kernel32:KERNEL32.dll
 0002:00000110       __imp_GetCurrentProcessId  0000000180026110     kernel32:KERNEL32.dll
 0002:00000118       __imp_WriteConsoleW        0000000180026118     kernel32:KERNEL32.dll
 0002:00000120       __imp_CreateFileW          0000000180026120     kernel32:KERNEL32.dll
 0002:00000128       __imp_GetConsoleMode       0000000180026128     kernel32:KERNEL32.dll
 0002:00000130       __imp_GetConsoleOutputCP   0000000180026130     kernel32:KERNEL32.dll
 0002:00000138       __imp_WriteFile            0000000180026138     kernel32:KERNEL32.dll
 0002:00000140       __imp_FlushFileBuffers     0000000180026140     kernel32:KERNEL32.dll
 0002:00000148       __imp_SetStdHandle         0000000180026148     kernel32:KERNEL32.dll
 0002:00000150       __imp_SetFilePointerEx     0000000180026150     kernel32:KERNEL32.dll
 0002:00000158       __imp_GetStringTypeW       0000000180026158     kernel32:KERNEL32.dll
 0002:00000160       __imp_FreeEnvironmentStringsW 0000000180026160     kernel32:KERNEL32.dll
 0002:00000168       __imp_lstrcmpiW            0000000180026168     kernel32:KERNEL32.dll
 0002:00000170       __imp_GetCommandLineW      0000000180026170     kernel32:KERNEL32.dll
 0002:00000178       __imp_GetCommandLineA      0000000180026178     kernel32:KERNEL32.dll
 0002:00000180       __imp_GetCPInfo            0000000180026180     kernel32:KERNEL32.dll
 0002:00000188       __imp_GetOEMCP             0000000180026188     kernel32:KERNEL32.dll
 0002:00000190       __imp_GetACP               0000000180026190     kernel32:KERNEL32.dll
 0002:00000198       __imp_IsValidCodePage      0000000180026198     kernel32:KERNEL32.dll
 0002:000001a0       __imp_FindNextFileW        00000001800261a0     kernel32:KERNEL32.dll
 0002:000001a8       __imp_FindFirstFileExW     00000001800261a8     kernel32:KERNEL32.dll
 0002:000001b0       __imp_FindClose            00000001800261b0     kernel32:KERNEL32.dll
 0002:000001b8       __imp_GetFileType          00000001800261b8     kernel32:KERNEL32.dll
 0002:000001c0       __imp_GetStdHandle         00000001800261c0     kernel32:KERNEL32.dll
 0002:000001c8       __imp_LCMapStringW         00000001800261c8     kernel32:KERNEL32.dll
 0002:000001d0       __imp_FlsFree              00000001800261d0     kernel32:KERNEL32.dll
 0002:000001d8       __imp_FlsSetValue          00000001800261d8     kernel32:KERNEL32.dll
 0002:000001e0       __imp_MulDiv               00000001800261e0     kernel32:KERNEL32.dll
 0002:000001e8       __imp_GlobalLock           00000001800261e8     kernel32:KERNEL32.dll
 0002:000001f0       __imp_GlobalUnlock         00000001800261f0     kernel32:KERNEL32.dll
 0002:000001f8       __imp_GlobalAlloc          00000001800261f8     kernel32:KERNEL32.dll
 0002:00000200       __imp_FindResourceW        0000000180026200     kernel32:KERNEL32.dll
 0002:00000208       __imp_SizeofResource       0000000180026208     kernel32:KERNEL32.dll
 0002:00000210       __imp_LoadResource         0000000180026210     kernel32:KERNEL32.dll
 0002:00000218       __imp_LoadLibraryExW       0000000180026218     kernel32:KERNEL32.dll
 0002:00000220       __imp_GetProcAddress       0000000180026220     kernel32:KERNEL32.dll
 0002:00000228       __imp_GetModuleHandleW     0000000180026228     kernel32:KERNEL32.dll
 0002:00000230       __imp_GetModuleFileNameW   0000000180026230     kernel32:KERNEL32.dll
 0002:00000238       __imp_FreeLibrary          0000000180026238     kernel32:KERNEL32.dll
 0002:00000240       __imp_DisableThreadLibraryCalls 0000000180026240     kernel32:KERNEL32.dll
 0002:00000248       __imp_GetCurrentThreadId   0000000180026248     kernel32:KERNEL32.dll
 0002:00000250       __imp_Sleep                0000000180026250     kernel32:KERNEL32.dll
 0002:00000258       __imp_WaitForSingleObject  0000000180026258     kernel32:KERNEL32.dll
 0002:00000260       __imp_ReleaseMutex         0000000180026260     kernel32:KERNEL32.dll
 0002:00000268       __imp_ResetEvent           0000000180026268     kernel32:KERNEL32.dll
 0002:00000270       __imp_EnterCriticalSection 0000000180026270     kernel32:KERNEL32.dll
 0002:00000278       __imp_LeaveCriticalSection 0000000180026278     kernel32:KERNEL32.dll
 0002:00000280       __imp_SetLastError         0000000180026280     kernel32:KERNEL32.dll
 0002:00000288       __imp_EncodePointer        0000000180026288     kernel32:KERNEL32.dll
 0002:00000290       __imp_DeleteCriticalSection 0000000180026290     kernel32:KERNEL32.dll
 0002:00000298       __imp_InitializeCriticalSectionEx 0000000180026298     kernel32:KERNEL32.dll
 0002:000002a0       __imp_GetLastError         00000001800262a0     kernel32:KERNEL32.dll
 0002:000002a8       __imp_RaiseException       00000001800262a8     kernel32:KERNEL32.dll
 0002:000002b0       __imp_DecodePointer        00000001800262b0     kernel32:KERNEL32.dll
 0002:000002b8       __imp_WideCharToMultiByte  00000001800262b8     kernel32:KERNEL32.dll
 0002:000002c0       __imp_GetEnvironmentStringsW 00000001800262c0     kernel32:KERNEL32.dll
 0002:000002c8       __imp_MultiByteToWideChar  00000001800262c8     kernel32:KERNEL32.dll
 0002:000002d0       __imp_FlsGetValue          00000001800262d0     kernel32:KERNEL32.dll
 0002:000002d8       __imp_FlsAlloc             00000001800262d8     kernel32:KERNEL32.dll
 0002:000002e0       __imp_HeapReAlloc          00000001800262e0     kernel32:KERNEL32.dll
 0002:000002e8       __imp_HeapSize             00000001800262e8     kernel32:KERNEL32.dll
 0002:000002f0       __imp_GetModuleHandleExW   00000001800262f0     kernel32:KERNEL32.dll
 0002:000002f8       __imp_ExitProcess          00000001800262f8     kernel32:KERNEL32.dll
 0002:00000300       __imp_VirtualQuery         0000000180026300     kernel32:KERNEL32.dll
 0002:00000308       __imp_VirtualProtect       0000000180026308     kernel32:KERNEL32.dll
 0002:00000310       __imp_GetSystemInfo        0000000180026310     kernel32:KERNEL32.dll
 0002:00000318       __imp_TlsFree              0000000180026318     kernel32:KERNEL32.dll
 0002:00000320       __imp_TlsSetValue          0000000180026320     kernel32:KERNEL32.dll
 0002:00000328       __imp_TlsGetValue          0000000180026328     kernel32:KERNEL32.dll
 0002:00000330       __imp_TlsAlloc             0000000180026330     kernel32:KERNEL32.dll
 0002:00000338       __imp_RtlPcToFileHeader    0000000180026338     kernel32:KERNEL32.dll
 0002:00000340       __imp_InterlockedFlushSList 0000000180026340     kernel32:KERNEL32.dll
 0002:00000348       __imp_RtlUnwindEx          0000000180026348     kernel32:KERNEL32.dll
 0002:00000350       __imp_LoadLibraryExA       0000000180026350     kernel32:KERNEL32.dll
 0002:00000358       __imp_VirtualFree          0000000180026358     kernel32:KERNEL32.dll
 0002:00000360       __imp_VirtualAlloc         0000000180026360     kernel32:KERNEL32.dll
 0002:00000368       __imp_FlushInstructionCache 0000000180026368     kernel32:KERNEL32.dll
 0002:00000370       __imp_InterlockedPushEntrySList 0000000180026370     kernel32:KERNEL32.dll
 0002:00000378       __imp_InterlockedPopEntrySList 0000000180026378     kernel32:KERNEL32.dll
 0002:00000380       __imp_GetProcessHeap       0000000180026380     kernel32:KERNEL32.dll
 0002:00000388       __imp_HeapFree             0000000180026388     kernel32:KERNEL32.dll
 0002:00000390       __imp_HeapAlloc            0000000180026390     kernel32:KERNEL32.dll
 0002:00000398       __imp_OutputDebugStringW   0000000180026398     kernel32:KERNEL32.dll
 0002:000003a0       __imp_InitializeSListHead  00000001800263a0     kernel32:KERNEL32.dll
 0002:000003a8       __imp_GetSystemTimeAsFileTime 00000001800263a8     kernel32:KERNEL32.dll
 0002:000003b0       __imp_QueryPerformanceCounter 00000001800263b0     kernel32:KERNEL32.dll
 0002:000003b8       __imp_GetStartupInfoW      00000001800263b8     kernel32:KERNEL32.dll
 0002:000003c0       __imp_InitializeCriticalSectionAndSpinCount 00000001800263c0     kernel32:KERNEL32.dll
 0002:000003c8       __imp_WaitForSingleObjectEx 00000001800263c8     kernel32:KERNEL32.dll
 0002:000003d0       __imp_RtlCaptureContext    00000001800263d0     kernel32:KERNEL32.dll
 0002:000003d8       __imp_RtlLookupFunctionEntry 00000001800263d8     kernel32:KERNEL32.dll
 0002:000003e0       __imp_RtlVirtualUnwind     00000001800263e0     kernel32:KERNEL32.dll
 0002:000003e8       __imp_UnhandledExceptionFilter 00000001800263e8     kernel32:KERNEL32.dll
 0002:000003f0       __imp_SetUnhandledExceptionFilter 00000001800263f0     kernel32:KERNEL32.dll
 0002:000003f8       __imp_GetCurrentProcess    00000001800263f8     kernel32:KERNEL32.dll
 0002:00000400       __imp_TerminateProcess     0000000180026400     kernel32:KERNEL32.dll
 0002:00000408       __imp_IsProcessorFeaturePresent 0000000180026408     kernel32:KERNEL32.dll
 0002:00000410       __imp_IsDebuggerPresent    0000000180026410     kernel32:KERNEL32.dll
 0002:00000418       \177KERNEL32_NULL_THUNK_DATA 0000000180026418     kernel32:KERNEL32.dll
 0002:00000420       __imp_OleCreatePropertyFrame 0000000180026420     oleaut32:OLEAUT32.dll
 0002:00000428       __imp_UnRegisterTypeLib    0000000180026428     oleaut32:OLEAUT32.dll
 0002:00000430       __imp_RegisterTypeLib      0000000180026430     oleaut32:OLEAUT32.dll
 0002:00000438       __imp_LoadRegTypeLib       0000000180026438     oleaut32:OLEAUT32.dll
 0002:00000440       __imp_LoadTypeLib          0000000180026440     oleaut32:OLEAUT32.dll
 0002:00000448       __imp_VarUI4FromStr        0000000180026448     oleaut32:OLEAUT32.dll
 0002:00000450       __imp_VariantInit          0000000180026450     oleaut32:OLEAUT32.dll
 0002:00000458       __imp_SysAllocStringByteLen 0000000180026458     oleaut32:OLEAUT32.dll
 0002:00000460       __imp_SysStringByteLen     0000000180026460     oleaut32:OLEAUT32.dll
 0002:00000468       __imp_VariantChangeType    0000000180026468     oleaut32:OLEAUT32.dll
 0002:00000470       __imp_VariantClear         0000000180026470     oleaut32:OLEAUT32.dll
 0002:00000478       __imp_SysStringLen         0000000180026478     oleaut32:OLEAUT32.dll
 0002:00000480       __imp_SysFreeString        0000000180026480     oleaut32:OLEAUT32.dll
 0002:00000488       __imp_SysAllocStringLen    0000000180026488     oleaut32:OLEAUT32.dll
 0002:00000490       __imp_SysAllocString       0000000180026490     oleaut32:OLEAUT32.dll
 0002:00000498       \177OLEAUT32_NULL_THUNK_DATA 0000000180026498     oleaut32:OLEAUT32.dll
 0002:000004a0       __imp_UnregisterClassW     00000001800264a0     user32:USER32.dll
 0002:000004a8       __imp_PostMessageW         00000001800264a8     user32:USER32.dll
 0002:000004b0       __imp_DefWindowProcW       00000001800264b0     user32:USER32.dll
 0002:000004b8       __imp_CallWindowProcW      00000001800264b8     user32:USER32.dll
 0002:000004c0       __imp_RegisterClassExW     00000001800264c0     user32:USER32.dll
 0002:000004c8       __imp_GetClassInfoExW      00000001800264c8     user32:USER32.dll
 0002:000004d0       __imp_CreateWindowExW      00000001800264d0     user32:USER32.dll
 0002:000004d8       __imp_IsWindow             00000001800264d8     user32:USER32.dll
 0002:000004e0       __imp_IsChild              00000001800264e0     user32:USER32.dll
 0002:000004e8       __imp_DestroyWindow        00000001800264e8     user32:USER32.dll
 0002:000004f0       __imp_ShowWindow           00000001800264f0     user32:USER32.dll
 0002:000004f8       __imp_SetWindowPos         00000001800264f8     user32:USER32.dll
 0002:00000500       __imp_CharNextW            0000000180026500     user32:USER32.dll
 0002:00000508       __imp_SetFocus             0000000180026508     user32:USER32.dll
 0002:00000510       __imp_LoadBitmapW          0000000180026510     user32:USER32.dll
 0002:00000518       __imp_RegisterClassW       0000000180026518     user32:USER32.dll
 0002:00000520       __imp_PeekMessageW         0000000180026520     user32:USER32.dll
 0002:00000528       __imp_LoadCursorW          0000000180026528     user32:USER32.dll
 0002:00000530       __imp_GetParent            0000000180026530     user32:USER32.dll
 0002:00000538       __imp_SetWindowLongPtrW    0000000180026538     user32:USER32.dll
 0002:00000540       __imp_GetWindowLongPtrW    0000000180026540     user32:USER32.dll
 0002:00000548       __imp_PtInRect             0000000180026548     user32:USER32.dll
 0002:00000550       __imp_EqualRect            0000000180026550     user32:USER32.dll
 0002:00000558       __imp_OffsetRect           0000000180026558     user32:USER32.dll
 0002:00000560       __imp_UnionRect            0000000180026560     user32:USER32.dll
 0002:00000568       __imp_IntersectRect        0000000180026568     user32:USER32.dll
 0002:00000570       __imp_GetClientRect        0000000180026570     user32:USER32.dll
 0002:00000578       __imp_InvalidateRect       0000000180026578     user32:USER32.dll
 0002:00000580       __imp_SetWindowRgn         0000000180026580     user32:USER32.dll
 0002:00000588       __imp_EndPaint             0000000180026588     user32:USER32.dll
 0002:00000590       __imp_BeginPaint           0000000180026590     user32:USER32.dll
 0002:00000598       __imp_ReleaseDC            0000000180026598     user32:USER32.dll
 0002:000005a0       __imp_GetDC                00000001800265a0     user32:USER32.dll
 0002:000005a8       __imp_GetKeyState          00000001800265a8     user32:USER32.dll
 0002:000005b0       __imp_GetFocus             00000001800265b0     user32:USER32.dll
 0002:000005b8       \177USER32_NULL_THUNK_DATA 00000001800265b8     user32:USER32.dll
 0002:000005c0       __imp_CoCreateInstance     00000001800265c0     ole32:ole32.dll
 0002:000005c8       __imp_StringFromGUID2      00000001800265c8     ole32:ole32.dll
 0002:000005d0       __imp_CoTaskMemAlloc       00000001800265d0     ole32:ole32.dll
 0002:000005d8       __imp_CoTaskMemRealloc     00000001800265d8     ole32:ole32.dll
 0002:000005e0       __imp_CoTaskMemFree        00000001800265e0     ole32:ole32.dll
 0002:000005e8       __imp_WriteClassStm        00000001800265e8     ole32:ole32.dll
 0002:000005f0       __imp_CreateDataAdviseHolder 00000001800265f0     ole32:ole32.dll
 0002:000005f8       __imp_OleSaveToStream      00000001800265f8     ole32:ole32.dll
 0002:00000600       __imp_CreateOleAdviseHolder 0000000180026600     ole32:ole32.dll
 0002:00000608       __imp_OleRegGetUserType    0000000180026608     ole32:ole32.dll
 0002:00000610       __imp_OleRegGetMiscStatus  0000000180026610     ole32:ole32.dll
 0002:00000618       __imp_OleRegEnumVerbs      0000000180026618     ole32:ole32.dll
 0002:00000620       __imp_CLSIDFromProgID      0000000180026620     ole32:ole32.dll
 0002:00000628       __imp_ReadClassStm         0000000180026628     ole32:ole32.dll
 0002:00000630       \177ole32_NULL_THUNK_DATA  0000000180026630     ole32:ole32.dll
 0002:00000638       __guard_check_icall_fptr   0000000180026638     LIBCMT:guard_support.obj
 0002:00000640       __guard_xfg_check_icall_fptr 0000000180026640     LIBCMT:guard_support.obj
 0002:00000648       __guard_dispatch_icall_fptr 0000000180026648     LIBCMT:guard_support.obj
 0002:00000650       __guard_xfg_dispatch_icall_fptr 0000000180026650     LIBCMT:guard_support.obj
 0002:00000658       __guard_xfg_table_dispatch_icall_fptr 0000000180026658     LIBCMT:guard_support.obj
 0002:00000660       __castguard_check_failure_os_handled_fptr 0000000180026660     LIBCMT:guard_support.obj
 0002:00000668       __xc_a                     0000000180026668     LIBCMT:initializers.obj
 0002:00000698       __xc_z                     0000000180026698     LIBCMT:initializers.obj
 0002:000006a0       __xi_a                     00000001800266a0     LIBCMT:initializers.obj
 0002:000006b0       __acrt_stdio_initializer   00000001800266b0     libucrt:stdio_initializer.obj
 0002:000006b8       __acrt_multibyte_initializer 00000001800266b8     libucrt:multibyte_initializer.obj
 0002:000006c0       __acrt_tran_fma3_initializer 00000001800266c0     libucrt:fma3_initializer.obj
 0002:000006c8       __xi_z                     00000001800266c8     LIBCMT:initializers.obj
 0002:000006d0       __xl_a                     00000001800266d0     LIBCMT:tlssup.obj
 0002:000006d8       __xl_z                     00000001800266d8     LIBCMT:tlssup.obj
 0002:000006e0       __xp_a                     00000001800266e0     LIBCMT:initializers.obj
 0002:000006e8       __acrt_locale_terminator   00000001800266e8     libucrt:locale_initializer.obj
 0002:000006f0       __dcrt_console_output_terminator 00000001800266f0     libucrt:console_output_initializer.obj
 0002:000006f8       __acrt_stdio_terminator    00000001800266f8     libucrt:stdio_initializer.obj
 0002:00000700       __xp_z                     0000000180026700     LIBCMT:initializers.obj
 0002:00000708       __xt_a                     0000000180026708     LIBCMT:initializers.obj
 0002:00000710       __xt_z                     0000000180026710     LIBCMT:initializers.obj
 0002:00000720       ??_C@_13HADIAKP@?$AAS@     0000000180026720     OposVariant.obj
 0002:00000724       ??_C@_13LHMFKAAD@?$AAM@    0000000180026724     OposVariant.obj
 0002:00000728       ??_C@_13MKMNOPIJ@?$AAD@    0000000180026728     OposVariant.obj
 0002:0000072c       ??_C@_13OPKGLAFF@?$AAB@    000000018002672c     OposVariant.obj
 0002:00000730       ??_C@_17LLMMEOJD@?$AAV?$AAa?$AAl@ 0000000180026730     OposVariant.obj
 0002:00000738       ??_C@_1BI@JFAIJMHL@?$AAF?$AAo?$AAr?$AAc?$AAe?$AAR?$AAe?$AAm?$AAo?$AAv?$AAe@ 0000000180026738     OposVariant.obj
 0002:00000750       ??_C@_1BC@GCKHIPE@?$AAN?$AAo?$AAR?$AAe?$AAm?$AAo?$AAv?$AAe@ 0000000180026750     OposVariant.obj
 0002:00000768       ??_C@_1O@JDLOHAN@?$AAD?$AAe?$AAl?$AAe?$AAt?$AAe@ 0000000180026768     OposVariant.obj
 0002:00000778       ??_C@_11LOCGONAA@@         0000000180026778     OposVariant.obj
 0002:00000780       _GUID_55980ba0_35aa_11cf_b671_00aa004cd6d8 0000000180026780     RFIDScanner.obj
 0002:00000790       ??_7?$CComObject@V?$CComEnum@UIEnumConnections@@$1?_GUID_b196b287_bab4_101a_b69c_00aa00341d07@@3U__s_GUID@@BUtagCONNECTDATA@@V?$_Copy@UtagCONNECTDATA@@@ATL@@VCComSingleThreadModel@6@@ATL@@@ATL@@6B@ 0000000180026790     RFIDScanner.obj
 0002:000007d0       _GUID_b196b28b_bab4_101a_b69c_00aa00341d07 00000001800267d0     RFIDScanner.obj
 0002:000007e0       ?_entries@?1??_GetEntries@?$CComEnum@UIEnumConnections@@$1?_GUID_b196b287_bab4_101a_b69c_00aa00341d07@@3U__s_GUID@@BUtagCONNECTDATA@@V?$_Copy@UtagCONNECTDATA@@@ATL@@VCComSingleThreadModel@6@@ATL@@SAPEBU_ATL_INTMAP_ENTRY@3@XZ@4QBU43@B 00000001800267e0     RFIDScanner.obj
 0002:00000810       ??_7CComClassFactory@ATL@@6B@ 0000000180026810     RFIDScanner.obj
 0002:00000840       ?_entries@?1??_GetEntries@CComClassFactory@ATL@@SAPEBU_ATL_INTMAP_ENTRY@3@XZ@4QBU43@B 0000000180026840     RFIDScanner.obj
 0002:00000870       _GUID_00000001_0000_0000_c000_000000000046 0000000180026870     RFIDScanner.obj
 0002:00000880       IID_IOPOSRFIDScanner_1_12  0000000180026880     RFIDScanner.obj
 0002:00000890       IID_IOPOSRFIDScanner       0000000180026890     RFIDScanner.obj
 0002:000008a0       LIBID_OposRFIDScanner_CCO  00000001800268a0     RFIDScanner.obj
 0002:000008b0       DIID__IOPOSRFIDScannerEvents 00000001800268b0     RFIDScanner.obj
 0002:000008c0       ??_C@_1BK@BIGILECK@?$AAA?$AAd?$AAv?$AAa?$AAp?$AAi?$AA3?$AA2?$AA?4?$AAd?$AAl?$AAl@ 00000001800268c0     RFIDScanner.obj
 0002:000008e0       CLSID_OPOSRFIDScanner      00000001800268e0     RFIDScanner.obj
 0002:000008f0       ??_C@_0BI@MNCFCPFK@RegCreateKeyTransactedW@ 00000001800268f0     RFIDScanner.obj
 0002:00000908       _GUID_00000114_0000_0000_c000_000000000046 0000000180026908     RFIDScanner.obj
 0002:00000918       _GUID_b196b287_bab4_101a_b69c_00aa00341d07 0000000180026918     RFIDScanner.obj
 0002:00000928       _GUID_b196b285_bab4_101a_b69c_00aa00341d07 0000000180026928     RFIDScanner.obj
 0002:00000938       _GUID_a6bc3ac0_dbaa_11ce_9de3_00aa004bb851 0000000180026938     RFIDScanner.obj
 0002:00000948       _GUID_0000010c_0000_0000_c000_000000000046 0000000180026948     RFIDScanner.obj
 0002:00000958       _GUID_00000146_0000_0000_c000_000000000046 0000000180026958     RFIDScanner.obj
 0002:00000970       ?_entries@?1??_GetEntries@COPOSRFIDScanner@@SAPEBU_ATL_INTMAP_ENTRY@ATL@@XZ@4QBU34@B 0000000180026970     RFIDScanner.obj
 0002:00000bb0       ??_7CComModule@ATL@@6B@    0000000180026bb0     RFIDScanner.obj
 0002:00000c00       _GUID_cf51ed10_62fe_11cf_bf86_00a0c9034836 0000000180026c00     RFIDScanner.obj
 0002:00000c10       _GUID_0000010a_0000_0000_c000_000000000046 0000000180026c10     RFIDScanner.obj
 0002:00000c20       _GUID_b196b283_bab4_101a_b69c_00aa00341d07 0000000180026c20     RFIDScanner.obj
 0002:00000c30       _GUID_cb5bdc81_93c1_11cf_8f20_00805f2cd064 0000000180026c30     RFIDScanner.obj
 0002:00000c40       ?pPropMap@?1??GetPropertyMap@COPOSRFIDScanner@@SAPEBUATL_PROPMAP_ENTRY@ATL@@XZ@4QBU34@B 0000000180026c40     RFIDScanner.obj
 0002:00000ce8       ??_C@_17DGDADEHL@?$AA_?$AAc?$AAx@ 0000000180026ce8     RFIDScanner.obj
 0002:00000cf0       ??_C@_17IOIMFDBO@?$AA_?$AAc?$AAy@ 0000000180026cf0     RFIDScanner.obj
 0002:00000cf8       _GUID_00000000_0000_0000_c000_000000000046 0000000180026cf8     RFIDScanner.obj
 0002:00000d08       _GUID_00020400_0000_0000_c000_000000000046 0000000180026d08     RFIDScanner.obj
 0002:00000d18       _GUID_922eada0_3424_11cf_b670_00aa004cd6d8 0000000180026d18     RFIDScanner.obj
 0002:00000d28       _GUID_9c2cad80_3424_11cf_b670_00aa004cd6d8 0000000180026d28     RFIDScanner.obj
 0002:00000d38       _GUID_00000119_0000_0000_c000_000000000046 0000000180026d38     RFIDScanner.obj
 0002:00000d48       _GUID_b196b289_bab4_101a_b69c_00aa00341d07 0000000180026d48     RFIDScanner.obj
 0002:00000d58       ??_7?$CComObjectCached@VCComClassFactory@ATL@@@ATL@@6B@ 0000000180026d58     RFIDScanner.obj
 0002:00000d88       _GUID_00000117_0000_0000_c000_000000000046 0000000180026d88     RFIDScanner.obj
 0002:00000d98       ??_C@_1CE@PGFMOFKI@?$AAS?$AAt?$AAa?$AAt?$AAu?$AAs?$AAU?$AAp?$AAd?$AAa?$AAt?$AAe?$AAE?$AAv?$AAe@ 0000000180026d98     RFIDScanner.obj
 0002:00000dc0       ??_C@_1CI@HLBJDONE@?$AAO?$AAu?$AAt?$AAp?$AAu?$AAt?$AAC?$AAo?$AAm?$AAp?$AAl?$AAe?$AAt?$AAe?$AAE@ 0000000180026dc0     RFIDScanner.obj
 0002:00000de8       ??_C@_1BG@LODEBHDD@?$AAE?$AAr?$AAr?$AAo?$AAr?$AAE?$AAv?$AAe?$AAn?$AAt@ 0000000180026de8     RFIDScanner.obj
 0002:00000e00       ??_C@_1BM@CBGEBBBJ@?$AAD?$AAi?$AAr?$AAe?$AAc?$AAt?$AAI?$AAO?$AAE?$AAv?$AAe?$AAn?$AAt@ 0000000180026e00     RFIDScanner.obj
 0002:00000e20       ??_C@_1BE@IEBMACEM@?$AAD?$AAa?$AAt?$AAa?$AAE?$AAv?$AAe?$AAn?$AAt@ 0000000180026e20     RFIDScanner.obj
 0002:00000e38       _GUID_b196b286_bab4_101a_b69c_00aa00341d07 0000000180026e38     RFIDScanner.obj
 0002:00000e48       ??_C@_1BC@ENICKDH@?$AAC?$AAo?$AAn?$AAt?$AAe?$AAn?$AAt?$AAs@ 0000000180026e48     RFIDScanner.obj
 0002:00000e60       ??_7?$CComObject@V?$CComEnum@UIEnumConnectionPoints@@$1?_GUID_b196b285_bab4_101a_b69c_00aa00341d07@@3U__s_GUID@@BPEAUIConnectionPoint@@V?$_CopyInterface@UIConnectionPoint@@@ATL@@VCComSingleThreadModel@6@@ATL@@@ATL@@6B@ 0000000180026e60     RFIDScanner.obj
 0002:00000ea0       ??_C@_1M@KANJNLFF@?$AAC?$AAL?$AAS?$AAI?$AAD@ 0000000180026ea0     RFIDScanner.obj
 0002:00000eb0       ??_C@_1M@EJNEECMJ@?$AAA?$AAp?$AAp?$AAI?$AAD@ 0000000180026eb0     RFIDScanner.obj
 0002:00000ec0       _GUID_0000010e_0000_0000_c000_000000000046 0000000180026ec0     RFIDScanner.obj
 0002:00000ed0       ?rgszNeverDelete@CRegParser@ATL@@1QBQEB_WB 0000000180026ed0     RFIDScanner.obj
 0002:00000f30       _GUID_b196b288_bab4_101a_b69c_00aa00341d07 0000000180026f30     RFIDScanner.obj
 0002:00000f40       ??_7CRegObject@ATL@@6B@    0000000180026f40     RFIDScanner.obj
 0002:00000f70       _GUID_00000113_0000_0000_c000_000000000046 0000000180026f70     RFIDScanner.obj
 0002:00000f80       ??_C@_1CK@OEKPKBNA@?$AAC?$AAo?$AAm?$AAp?$AAo?$AAn?$AAe?$AAn?$AAt?$AA?5?$AAC?$AAa?$AAt?$AAe?$AAg@ 0000000180026f80     RFIDScanner.obj
 0002:00000fb0       ??_C@_1BC@NKMMNMGL@?$AAF?$AAi?$AAl?$AAe?$AAT?$AAy?$AAp?$AAe@ 0000000180026fb0     RFIDScanner.obj
 0002:00000fc8       ??_C@_1BE@EKPAFMCP@?$AAI?$AAn?$AAt?$AAe?$AAr?$AAf?$AAa?$AAc?$AAe@ 0000000180026fc8     RFIDScanner.obj
 0002:00000fe0       ??_C@_1BC@MAICEHGI@?$AAH?$AAa?$AAr?$AAd?$AAw?$AAa?$AAr?$AAe@ 0000000180026fe0     RFIDScanner.obj
 0002:00000ff8       ??_C@_19HLLLM@?$AAM?$AAi?$AAm?$AAe@ 0000000180026ff8     RFIDScanner.obj
 0002:00001008       ??_C@_17OMAOINJK@?$AAS?$AAA?$AAM@ 0000000180027008     RFIDScanner.obj
 0002:00001010       ??_C@_1BC@IBECJAAI@?$AAS?$AAE?$AAC?$AAU?$AAR?$AAI?$AAT?$AAY@ 0000000180027010     RFIDScanner.obj
 0002:00001028       ??_C@_1O@GBFINDKL@?$AAS?$AAY?$AAS?$AAT?$AAE?$AAM@ 0000000180027028     RFIDScanner.obj
 0002:00001038       ??_C@_1BC@EAHCMADO@?$AAS?$AAo?$AAf?$AAt?$AAw?$AAa?$AAr?$AAe@ 0000000180027038     RFIDScanner.obj
 0002:00001050       ??_C@_1BA@JIHHIEDE@?$AAT?$AAy?$AAp?$AAe?$AAL?$AAi?$AAb@ 0000000180027050     RFIDScanner.obj
 0002:00001060       _GUID_1c2056cc_5ef4_101b_8bc8_00aa003e3b29 0000000180027060     RFIDScanner.obj
 0002:00001070       ?map@?1??HKeyFromString@CRegParser@ATL@@KAPEAUHKEY__@@PEA_W@Z@4QBUkeymap@?1??123@KAPEAU4@0@Z@B 0000000180027070     RFIDScanner.obj
 0002:00001150       ??_C@_19NCHLBIN@?$AAH?$AAK?$AAC?$AAR@ 0000000180027150     RFIDScanner.obj
 0002:00001160       ??_C@_19JAPAIJDE@?$AAH?$AAK?$AAC?$AAU@ 0000000180027160     RFIDScanner.obj
 0002:00001170       ??_C@_19PEALEEJB@?$AAH?$AAK?$AAL?$AAM@ 0000000180027170     RFIDScanner.obj
 0002:00001180       ??_C@_17PJOJPMPB@?$AAH?$AAK?$AAU@ 0000000180027180     RFIDScanner.obj
 0002:00001188       ??_C@_19PNBHMJPL@?$AAH?$AAK?$AAP?$AAD@ 0000000180027188     RFIDScanner.obj
 0002:00001198       ??_C@_19GFFAIJHG@?$AAH?$AAK?$AAD?$AAD@ 0000000180027198     RFIDScanner.obj
 0002:000011a8       ??_C@_19OFICIBHH@?$AAH?$AAK?$AAC?$AAC@ 00000001800271a8     RFIDScanner.obj
 0002:000011b8       ??_C@_1CE@PACHPJFI@?$AAH?$AAK?$AAE?$AAY?$AA_?$AAC?$AAL?$AAA?$AAS?$AAS?$AAE?$AAS?$AA_?$AAR?$AAO@ 00000001800271b8     RFIDScanner.obj
 0002:000011e0       ??_C@_1CE@HLHNCBPM@?$AAH?$AAK?$AAE?$AAY?$AA_?$AAC?$AAU?$AAR?$AAR?$AAE?$AAN?$AAT?$AA_?$AAU?$AAS@ 00000001800271e0     RFIDScanner.obj
 0002:00001208       ??_C@_1CG@GFBEANJL@?$AAH?$AAK?$AAE?$AAY?$AA_?$AAL?$AAO?$AAC?$AAA?$AAL?$AA_?$AAM?$AAA?$AAC?$AAH@ 0000000180027208     RFIDScanner.obj
 0002:00001230       ??_C@_1BG@BGODANIO@?$AAH?$AAK?$AAE?$AAY?$AA_?$AAU?$AAS?$AAE?$AAR?$AAS@ 0000000180027230     RFIDScanner.obj
 0002:00001248       ??_C@_1CM@KHNNAOIC@?$AAH?$AAK?$AAE?$AAY?$AA_?$AAP?$AAE?$AAR?$AAF?$AAO?$AAR?$AAM?$AAA?$AAN?$AAC@ 0000000180027248     RFIDScanner.obj
 0002:00001278       ??_C@_1BM@HAGMMHIA@?$AAH?$AAK?$AAE?$AAY?$AA_?$AAD?$AAY?$AAN?$AA_?$AAD?$AAA?$AAT?$AAA@ 0000000180027278     RFIDScanner.obj
 0002:00001298       ??_C@_1CI@BBJOACGG@?$AAH?$AAK?$AAE?$AAY?$AA_?$AAC?$AAU?$AAR?$AAR?$AAE?$AAN?$AAT?$AA_?$AAC?$AAO@ 0000000180027298     RFIDScanner.obj
 0002:000012c0       _GUID_00000109_0000_0000_c000_000000000046 00000001800272c0     RFIDScanner.obj
 0002:000012d0       _GUID_7fd52380_4e07_101b_ae2d_08002b2ec713 00000001800272d0     RFIDScanner.obj
 0002:000012e0       _GUID_00000112_0000_0000_c000_000000000046 00000001800272e0     RFIDScanner.obj
 0002:000012f0       ??_C@_1EA@NHKLICFA@?$AAH?$AAK?$AAC?$AAU?$AA?$AN?$AA?6?$AA?$HL?$AA?7?$AAS?$AAo?$AAf?$AAt?$AAw?$AAa?$AAr@ 00000001800272f0     RFIDScanner.obj
 0002:00001330       ??_C@_1BE@LJOLIMEM@?$AA?$AN?$AA?6?$AA?7?$AA?$HN?$AA?$AN?$AA?6?$AA?$HN?$AA?$AN?$AA?6@ 0000000180027330     RFIDScanner.obj
 0002:00001348       _GUID_3af24292_0c96_11ce_a0cf_00aa00600ab8 0000000180027348     RFIDScanner.obj
 0002:00001358       _GUID_00000127_0000_0000_c000_000000000046 0000000180027358     RFIDScanner.obj
 0002:00001368       _GUID_0000010d_0000_0000_c000_000000000046 0000000180027368     RFIDScanner.obj
 0002:00001378       ??_C@_1O@MNLDABAF@?$AAM?$AAo?$AAd?$AAu?$AAl?$AAe@ 0000000180027378     RFIDScanner.obj
 0002:00001388       ??_C@_1BG@JBACFMF@?$AAM?$AAo?$AAd?$AAu?$AAl?$AAe?$AA_?$AAR?$AAa?$AAw@ 0000000180027388     RFIDScanner.obj
 0002:000013a0       ??_C@_1BC@KAILKFFG@?$AAR?$AAE?$AAG?$AAI?$AAS?$AAT?$AAR?$AAY@ 00000001800273a0     RFIDScanner.obj
 0002:000013b8       ??_C@_1M@PPPPCDEP@?$AAA?$AAP?$AAP?$AAI?$AAD@ 00000001800273b8     RFIDScanner.obj
 0002:000013c8       ??_7?$CComContainedObject@VCOPOSRFIDScanner@@@ATL@@6B?$IDispatchImpl@UIOPOSRFIDScanner@@$1?IID_IOPOSRFIDScanner@@3U_GUID@@B$1?LIBID_OposRFIDScanner_CCO@@3U3@B$00$0A@VCComTypeInfoHolder@ATL@@@1@@ 00000001800273c8     RFIDScanner.obj
 0002:00001668       ??_7?$CComContainedObject@VCOPOSRFIDScanner@@@ATL@@6BCComControlBase@1@@ 0000000180027668     RFIDScanner.obj
 0002:00001690       ??_7?$CComContainedObject@VCOPOSRFIDScanner@@@ATL@@6B?$CWindowImpl@VCOPOSRFIDScanner@@VCWindow@ATL@@V?$CWinTraits@$0FGAAAAAA@$0A@@3@@1@@ 0000000180027690     RFIDScanner.obj
 0002:000016b0       ??_7?$CComContainedObject@VCOPOSRFIDScanner@@@ATL@@6B?$IPersistStreamInitImpl@VCOPOSRFIDScanner@@@1@@ 00000001800276b0     RFIDScanner.obj
 0002:000016f8       ??_7?$CComContainedObject@VCOPOSRFIDScanner@@@ATL@@6B?$IOleControlImpl@VCOPOSRFIDScanner@@@1@@ 00000001800276f8     RFIDScanner.obj
 0002:00001730       ??_7?$CComContainedObject@VCOPOSRFIDScanner@@@ATL@@6B?$IOleObjectImpl@VCOPOSRFIDScanner@@@1@@ 0000000180027730     RFIDScanner.obj
 0002:000017f0       ??_7?$CComContainedObject@VCOPOSRFIDScanner@@@ATL@@6B?$IOleInPlaceActiveObjectImpl@VCOPOSRFIDScanner@@@1@@ 00000001800277f0     RFIDScanner.obj
 0002:00001840       ??_7?$CComContainedObject@VCOPOSRFIDScanner@@@ATL@@6B?$IViewObjectExImpl@VCOPOSRFIDScanner@@@1@@ 0000000180027840     RFIDScanner.obj
 0002:000018b8       ??_7?$CComContainedObject@VCOPOSRFIDScanner@@@ATL@@6B?$IOleInPlaceObjectWindowlessImpl@VCOPOSRFIDScanner@@@1@@ 00000001800278b8     RFIDScanner.obj
 0002:00001910       ??_7?$CComContainedObject@VCOPOSRFIDScanner@@@ATL@@6B?$IConnectionPointContainerImpl@VCOPOSRFIDScanner@@@1@@ 0000000180027910     RFIDScanner.obj
 0002:00001938       ??_7?$CComContainedObject@VCOPOSRFIDScanner@@@ATL@@6B?$IPersistStorageImpl@VCOPOSRFIDScanner@@@1@@ 0000000180027938     RFIDScanner.obj
 0002:00001988       ??_7?$CComContainedObject@VCOPOSRFIDScanner@@@ATL@@6B?$ISpecifyPropertyPagesImpl@VCOPOSRFIDScanner@@@1@@ 0000000180027988     RFIDScanner.obj
 0002:000019a8       ??_7?$CComContainedObject@VCOPOSRFIDScanner@@@ATL@@6B?$IQuickActivateImpl@VCOPOSRFIDScanner@@@1@@ 00000001800279a8     RFIDScanner.obj
 0002:000019d8       ??_7?$CComContainedObject@VCOPOSRFIDScanner@@@ATL@@6B?$IDataObjectImpl@VCOPOSRFIDScanner@@@1@@ 00000001800279d8     RFIDScanner.obj
 0002:00001a38       ??_7?$CComContainedObject@VCOPOSRFIDScanner@@@ATL@@6B?$IProvideClassInfo2Impl@$1?CLSID_OPOSRFIDScanner@@3U_GUID@@B$1?DIID__IOPOSRFIDScannerEvents@@3U2@B$1?LIBID_OposRFIDScanner_CCO@@3U2@B$00$0A@VCComTypeInfoHolder@ATL@@@1@@ 0000000180027a38     RFIDScanner.obj
 0002:00001a60       ??_7?$CComContainedObject@VCOPOSRFIDScanner@@@ATL@@6B?$IObjectSafetyImpl@VCOPOSRFIDScanner@@$02@1@@ 0000000180027a60     RFIDScanner.obj
 0002:00001a90       ??_7?$CComContainedObject@VCOPOSRFIDScanner@@@ATL@@6B?$IPropertyNotifySinkCP@VCOPOSRFIDScanner@@VCComDynamicUnkArray@ATL@@@1@@ 0000000180027a90     RFIDScanner.obj
 0002:00001ad0       ??_7?$CComContainedObject@VCOPOSRFIDScanner@@@ATL@@6B?$CProxy_IOPOSEvents@VCOPOSRFIDScanner@@@@@ 0000000180027ad0     RFIDScanner.obj
 0002:00001b10       ??_7?$CComAggObject@VCOPOSRFIDScanner@@@ATL@@6B@ 0000000180027b10     RFIDScanner.obj
 0002:00001b30       ??_7?$CComObject@VCOPOSRFIDScanner@@@ATL@@6B?$IDispatchImpl@UIOPOSRFIDScanner@@$1?IID_IOPOSRFIDScanner@@3U_GUID@@B$1?LIBID_OposRFIDScanner_CCO@@3U3@B$00$0A@VCComTypeInfoHolder@ATL@@@1@@ 0000000180027b30     RFIDScanner.obj
 0002:00001dd0       ??_7?$CComObject@VCOPOSRFIDScanner@@@ATL@@6BCComControlBase@1@@ 0000000180027dd0     RFIDScanner.obj
 0002:00001df8       ??_7?$CComObject@VCOPOSRFIDScanner@@@ATL@@6B?$CWindowImpl@VCOPOSRFIDScanner@@VCWindow@ATL@@V?$CWinTraits@$0FGAAAAAA@$0A@@3@@1@@ 0000000180027df8     RFIDScanner.obj
 0002:00001e18       ??_7?$CComObject@VCOPOSRFIDScanner@@@ATL@@6B?$IPersistStreamInitImpl@VCOPOSRFIDScanner@@@1@@ 0000000180027e18     RFIDScanner.obj
 0002:00001e60       ??_7?$CComObject@VCOPOSRFIDScanner@@@ATL@@6B?$IOleControlImpl@VCOPOSRFIDScanner@@@1@@ 0000000180027e60     RFIDScanner.obj
 0002:00001e98       ??_7?$CComObject@VCOPOSRFIDScanner@@@ATL@@6B?$IOleObjectImpl@VCOPOSRFIDScanner@@@1@@ 0000000180027e98     RFIDScanner.obj
 0002:00001f58       ??_7?$CComObject@VCOPOSRFIDScanner@@@ATL@@6B?$IOleInPlaceActiveObjectImpl@VCOPOSRFIDScanner@@@1@@ 0000000180027f58     RFIDScanner.obj
 0002:00001fa8       ??_7?$CComObject@VCOPOSRFIDScanner@@@ATL@@6B?$IViewObjectExImpl@VCOPOSRFIDScanner@@@1@@ 0000000180027fa8     RFIDScanner.obj
 0002:00002020       ??_7?$CComObject@VCOPOSRFIDScanner@@@ATL@@6B?$IOleInPlaceObjectWindowlessImpl@VCOPOSRFIDScanner@@@1@@ 0000000180028020     RFIDScanner.obj
 0002:00002078       ??_7?$CComObject@VCOPOSRFIDScanner@@@ATL@@6B?$IConnectionPointContainerImpl@VCOPOSRFIDScanner@@@1@@ 0000000180028078     RFIDScanner.obj
 0002:000020a0       ??_7?$CComObject@VCOPOSRFIDScanner@@@ATL@@6B?$IPersistStorageImpl@VCOPOSRFIDScanner@@@1@@ 00000001800280a0     RFIDScanner.obj
 0002:000020f0       ??_7?$CComObject@VCOPOSRFIDScanner@@@ATL@@6B?$ISpecifyPropertyPagesImpl@VCOPOSRFIDScanner@@@1@@ 00000001800280f0     RFIDScanner.obj
 0002:00002110       ??_7?$CComObject@VCOPOSRFIDScanner@@@ATL@@6B?$IQuickActivateImpl@VCOPOSRFIDScanner@@@1@@ 0000000180028110     RFIDScanner.obj
 0002:00002140       ??_7?$CComObject@VCOPOSRFIDScanner@@@ATL@@6B?$IDataObjectImpl@VCOPOSRFIDScanner@@@1@@ 0000000180028140     RFIDScanner.obj
 0002:000021a0       ??_7?$CComObject@VCOPOSRFIDScanner@@@ATL@@6B?$IProvideClassInfo2Impl@$1?CLSID_OPOSRFIDScanner@@3U_GUID@@B$1?DIID__IOPOSRFIDScannerEvents@@3U2@B$1?LIBID_OposRFIDScanner_CCO@@3U2@B$00$0A@VCComTypeInfoHolder@ATL@@@1@@ 00000001800281a0     RFIDScanner.obj
 0002:000021c8       ??_7?$CComObject@VCOPOSRFIDScanner@@@ATL@@6B?$IObjectSafetyImpl@VCOPOSRFIDScanner@@$02@1@@ 00000001800281c8     RFIDScanner.obj
 0002:000021f8       ??_7?$CComObject@VCOPOSRFIDScanner@@@ATL@@6B?$IPropertyNotifySinkCP@VCOPOSRFIDScanner@@VCComDynamicUnkArray@ATL@@@1@@ 00000001800281f8     RFIDScanner.obj
 0002:00002238       ??_7?$CComObject@VCOPOSRFIDScanner@@@ATL@@6B?$CProxy_IOPOSEvents@VCOPOSRFIDScanner@@@@@ 0000000180028238     RFIDScanner.obj
 0002:00002278       ??_C@_1O@GBFKGNEO@?$AAA?$AAT?$AAL?$AA?3?$AA?$CF?$AAp@ 0000000180028278     RFIDScanner.obj
 0002:00002288       ??_C@_1BA@PICGEGJB@?$AAD?$AAI?$AAS?$AAP?$AAL?$AAA?$AAY@ 0000000180028288     RFIDScanner.obj
 0002:00002298       _GUID_b196b284_bab4_101a_b69c_00aa00341d07 0000000180028298     RFIDScanner.obj
 0002:000022a8       _GUID_9bfbbc02_eff1_101a_84ed_00aa00341d07 00000001800282a8     RFIDScanner.obj
 0002:000022b8       ?_entries@?1??_GetEntries@?$CComEnum@UIEnumConnectionPoints@@$1?_GUID_b196b285_bab4_101a_b69c_00aa00341d07@@3U__s_GUID@@BPEAUIConnectionPoint@@V?$_CopyInterface@UIConnectionPoint@@@ATL@@VCComSingleThreadModel@6@@ATL@@SAPEBU_ATL_INTMAP_ENTRY@3@XZ@4QBU43@B 00000001800282b8     RFIDScanner.obj
 0002:000022e8       _GUID_00020412_0000_0000_c000_000000000046 00000001800282e8     RFIDScanner.obj
 0002:000022f8       _GUID_00020401_0000_0000_c000_000000000046 00000001800282f8     RFIDScanner.obj
 0002:00002308       ??_C@_0BG@EKFFMJIO@RegOpenKeyTransactedW@ 0000000180028308     RFIDScanner.obj
 0002:00002320       ??_C@_0BI@HAKLOOGP@RegDeleteKeyTransactedW@ 0000000180028320     RFIDScanner.obj
 0002:00002338       ??_C@_0BA@LILAPHGE@RegDeleteKeyExW@ 0000000180028338     RFIDScanner.obj
 0002:00002348       ??_C@_19ILOCMLCJ@?$AA?4?$AAt?$AAl?$AAb@ 0000000180028348     RFIDScanner.obj
 0002:00002358       _GUID_0002e012_0000_0000_c000_000000000046 0000000180028358     RFIDScanner.obj
 0002:00002368       ??_C@_1O@FHBGLCIO@?$AAC?$AAL?$AAS?$AAI?$AAD?$AA?2@ 0000000180028368     RFIDScanner.obj
 0002:00002378       ??_C@_1CK@IFBKBFAA@?$AA?2?$AAR?$AAe?$AAq?$AAu?$AAi?$AAr?$AAe?$AAd?$AA?5?$AAC?$AAa?$AAt?$AAe?$AAg@ 0000000180028378     RFIDScanner.obj
 0002:000023a8       ??_C@_1DA@BIHALFED@?$AA?2?$AAI?$AAm?$AAp?$AAl?$AAe?$AAm?$AAe?$AAn?$AAt?$AAe?$AAd?$AA?5?$AAC?$AAa@ 00000001800283a8     RFIDScanner.obj
 0002:000023d8       ??_C@_1BK@EDKOLFBJ@?$AAO?$AAL?$AAE?$AAA?$AAU?$AAT?$AA3?$AA2?$AA?4?$AAD?$AAL?$AAL@ 00000001800283d8     RFIDScanner.obj
 0002:000023f8       ??_C@_0BJ@CNLFOMHB@UnRegisterTypeLibForUser@ 00000001800283f8     RFIDScanner.obj
 0002:00002418       ??_C@_0BH@LBOMMKPJ@RegisterTypeLibForUser@ 0000000180028418     RFIDScanner.obj
 0002:00002430       ??_C@_0P@MMNMMLGK@COFreezeEvents@ 0000000180028430     RFIDScannerImpl.obj
 0002:00002440       ??_C@_0BC@OGCGGIMP@GetPropertyNumber@ 0000000180028440     RFIDScannerImpl.obj
 0002:00002458       ??_C@_0BC@MDCNODNB@SetPropertyNumber@ 0000000180028458     RFIDScannerImpl.obj
 0002:00002470       ??_C@_0BC@CFCCMIMD@GetPropertyString@ 0000000180028470     RFIDScannerImpl.obj
 0002:00002488       ??_C@_0BC@CJEDNN@SetPropertyString@ 0000000180028488     RFIDScannerImpl.obj
 0002:000024a0       ??_C@_0M@LNPKKKDA@OpenService@ 00000001800284a0     RFIDScannerImpl.obj
 0002:000024b0       ??_C@_0M@PCMCHHMH@CheckHealth@ 00000001800284b0     RFIDScannerImpl.obj
 0002:000024c0       ??_C@_0M@JGMIDNEK@ClaimDevice@ 00000001800284c0     RFIDScannerImpl.obj
 0002:000024d0       ??_C@_0L@BNEIFEJC@ClearInput@ 00000001800284d0     RFIDScannerImpl.obj
 0002:000024e0       ??_C@_0M@JMBCPNGJ@ClearOutput@ 00000001800284e0     RFIDScannerImpl.obj
 0002:000024f0       ??_C@_0N@DDFIIBMP@CloseService@ 00000001800284f0     RFIDScannerImpl.obj
 0002:00002500       ??_C@_08EEIHICPC@DirectIO@ 0000000180028500     RFIDScannerImpl.obj
 0002:00002510       ??_C@_0O@BCPMENMJ@ReleaseDevice@ 0000000180028510     RFIDScannerImpl.obj
 0002:00002520       ??_C@_0BA@GFABKEEE@ResetStatistics@ 0000000180028520     RFIDScannerImpl.obj
 0002:00002530       ??_C@_0BD@DPALHJGC@RetrieveStatistics@ 0000000180028530     RFIDScannerImpl.obj
 0002:00002548       ??_C@_0BB@KOHIKNFC@UpdateStatistics@ 0000000180028548     RFIDScannerImpl.obj
 0002:00002560       ??_C@_0BH@PBKBNMGB@CompareFirmwareVersion@ 0000000180028560     RFIDScannerImpl.obj
 0002:00002578       ??_C@_0P@FBPDPIPA@UpdateFirmware@ 0000000180028578     RFIDScannerImpl.obj
 0002:00002588       ??_C@_0BF@CMAPCJGM@ClearInputProperties@ 0000000180028588     RFIDScannerImpl.obj
 0002:000025a0       ??_C@_0L@BPHPPKKD@DisableTag@ 00000001800285a0     RFIDScannerImpl.obj
 0002:000025b0       ??_C@_08KGAPBGKM@FirstTag@ 00000001800285b0     RFIDScannerImpl.obj
 0002:000025c0       ??_C@_07NOFFDEBC@LockTag@  00000001800285c0     RFIDScannerImpl.obj
 0002:000025c8       ??_C@_07LDKBJOCK@NextTag@  00000001800285c8     RFIDScannerImpl.obj
 0002:000025d0       ??_C@_0M@NKGJLILG@PreviousTag@ 00000001800285d0     RFIDScannerImpl.obj
 0002:000025e0       ??_C@_08GEHOCIJO@ReadTags@ 00000001800285e0     RFIDScannerImpl.obj
 0002:000025f0       ??_C@_0O@JIPAFDBE@StartReadTags@ 00000001800285f0     RFIDScannerImpl.obj
 0002:00002600       ??_C@_0N@CLGKHMOA@StopReadTags@ 0000000180028600     RFIDScannerImpl.obj
 0002:00002610       ??_C@_0N@GGGHKPIB@WriteTagData@ 0000000180028610     RFIDScannerImpl.obj
 0002:00002620       ??_C@_0L@EIPHPPCO@WriteTagID@ 0000000180028620     RFIDScannerImpl.obj
 0002:00002630       ??_7?$CProxy_IOPOSEvents@VCOPOSRFIDScanner@@@@6B@ 0000000180028630     RFIDScannerImpl.obj
 0002:00002670       ??_C@_1BA@IFHENID@?$AA?$FL?$AAE?$AAr?$AAr?$AAo?$AAr?$AA?$FN@ 0000000180028670     RFIDScannerImpl.obj
 0002:00002680       ??_C@_0CO@OKKKIJDD@SOFTWARE?2OLEforRetail?2ServiceOP@ 0000000180028680     RFIDScannerImpl.obj
 0002:000026b0       ??_C@_1M@IAIJHCCH@?$AAC?$AAl?$AAo?$AAs?$AAe@ 00000001800286b0     RFIDScannerImpl.obj
 0002:000026c0       ??_C@_1M@PCPKGJAH@?$AAC?$AAl?$AAa?$AAi?$AAm@ 00000001800286c0     RFIDScannerImpl.obj
 0002:000026d0       ??_C@_1BA@NDFKIOCP@?$AAR?$AAe?$AAl?$AAe?$AAa?$AAs?$AAe@ 00000001800286d0     RFIDScannerImpl.obj
 0002:000026e0       ??_C@_0M@IHPHHFMP@RFIDScanner@ 00000001800286e0     RFIDScannerImpl.obj
 0002:000026f0       ??_C@_1BM@IJMNMBPK@?$AAG?$AAe?$AAt?$AAO?$AAp?$AAe?$AAn?$AAR?$AAe?$AAs?$AAu?$AAl?$AAt@ 00000001800286f0     RFIDScannerImpl.obj
 0002:00002710       IID_IDispatch              0000000180028710     uuid:oaidl_i.obj
 0002:00002720       IID_IPropertyNotifySink    0000000180028720     uuid:ocidl_i.obj
 0002:00002730       GUID_NULL                  0000000180028730     uuid:cguid_i.obj
 0002:00002740       CLSID_StdGlobalInterfaceTable 0000000180028740     uuid:cguid_i.obj
 0002:00002750       CLSID_StdComponentCategoriesMgr 0000000180028750     uuid:ieguids.obj
 0002:00002760       IID_IUnknown               0000000180028760     uuid:unknwn_i.obj
 0002:00002770       __xmm@ffffffffffffffffffffffffffffffff 0000000180028770     LIBCMT:utility.obj
 0002:00002780       ??_C@_1EC@JIJBPKFM@?$AAa?$AAp?$AAi?$AA?9?$AAm?$AAs?$AA?9?$AAw?$AAi?$AAn?$AA?9?$AAc?$AAo?$AAr?$AAe@ 0000000180028780     LIBCMT:thread_safe_statics.obj
 0002:000027c8       ??_C@_1BK@MGMFAEKH@?$AAk?$AAe?$AAr?$AAn?$AAe?$AAl?$AA3?$AA2?$AA?4?$AAd?$AAl?$AAl@ 00000001800287c8     LIBCMT:thread_safe_statics.obj
 0002:000027e8       ??_C@_0BJ@JEBJOJFJ@SleepConditionVariableCS@ 00000001800287e8     LIBCMT:thread_safe_statics.obj
 0002:00002808       ??_C@_0BJ@PGPPEPCC@WakeAllConditionVariable@ 0000000180028808     LIBCMT:thread_safe_statics.obj
 0002:00002821       ?nothrow@std@@3Unothrow_t@1@B 0000000180028821     LIBCMT:std_nothrow.obj
 0002:00002838       _pDefaultRawDllMain        0000000180028838     LIBCMT:dll_dllmain.obj
 0002:00002838       _pRawDllMain               0000000180028838     LIBCMT:dll_dllmain.obj
 0002:00002848       ??_7exception@std@@6B@     0000000180028848     LIBCMT:throw_bad_alloc.obj
 0002:00002858       ??_C@_0BC@EOODALEL@Unknown?5exception@ 0000000180028858     LIBCMT:throw_bad_alloc.obj
 0002:00002878       ??_7bad_alloc@std@@6B@     0000000180028878     LIBCMT:throw_bad_alloc.obj
 0002:00002888       ??_C@_0P@GHFPNOJB@bad?5allocation@ 0000000180028888     LIBCMT:throw_bad_alloc.obj
 0002:000028a0       ??_7bad_array_new_length@std@@6B@ 00000001800288a0     LIBCMT:throw_bad_alloc.obj
 0002:000028b0       ??_C@_0BF@KINCDENJ@bad?5array?5new?5length@ 00000001800288b0     LIBCMT:throw_bad_alloc.obj
 0002:000028d0       ??_7type_info@@6B@         00000001800288d0     LIBCMT:std_type_info_static.obj
 0002:000028d8       GUID_ATLVer110             00000001800288d8     atls:atlbase.obj
 0002:000028f0       ??_C@_1IC@ONKHOIDK@?$AAE?$AAR?$AAR?$AAO?$AAR?$AA?5?$AA?3?$AA?5?$AAU?$AAn?$AAa?$AAb?$AAl?$AAe?$AA?5@ 00000001800288f0     atls:atlbase.obj
 0002:00002978       ??_C@_0N@FJEPLCIH@atlthunk?4dll@ 0000000180028978     atls:atlthunk.obj
 0002:00002988       ??_C@_0BG@GAKFHCBM@AtlThunk_AllocateData@ 0000000180028988     atls:atlthunk.obj
 0002:000029a0       ??_C@_0BC@JKONFIAH@AtlThunk_InitData@ 00000001800289a0     atls:atlthunk.obj
 0002:000029b8       ??_C@_0BE@IAOEELAK@AtlThunk_DataToCode@ 00000001800289b8     atls:atlthunk.obj
 0002:000029d0       ??_C@_0BC@GBGKAIPI@AtlThunk_FreeData@ 00000001800289d0     atls:atlthunk.obj
 0002:000029e8       ?s_negLengthTab@FH4@@3QBCB 00000001800289e8     libvcruntime:risctrnsctrl.obj
 0002:000029f8       ?s_shiftTab@FH4@@3QBEB     00000001800289f8     libvcruntime:risctrnsctrl.obj
 0002:00002b48       _pDestructExceptionObject  0000000180028b48     libvcruntime:ehhelpers.obj
 0002:00002b58       ??_7bad_exception@std@@6B@ 0000000180028b58     libvcruntime:frame.obj
 0002:00002b68       ??_C@_0O@DPKOEFFH@bad?5exception@ 0000000180028b68     libvcruntime:frame.obj
 0002:00003290       ??_C@_08EHJDFFNH@__based?$CI@ 0000000180029290     libvcruntime:undname.obj
 0002:000032a0       ??_C@_07KOLFKCDI@__cdecl@  00000001800292a0     libvcruntime:undname.obj
 0002:000032a8       ??_C@_08GHMPAG@__pascal@   00000001800292a8     libvcruntime:undname.obj
 0002:000032b8       ??_C@_09IFJBGAPI@__stdcall@ 00000001800292b8     libvcruntime:undname.obj
 0002:000032c8       ??_C@_0L@NPHFGOKO@__thiscall@ 00000001800292c8     libvcruntime:undname.obj
 0002:000032d8       ??_C@_0L@JMKHOMEK@__fastcall@ 00000001800292d8     libvcruntime:undname.obj
 0002:000032e8       ??_C@_0N@BCKKPABJ@__vectorcall@ 00000001800292e8     libvcruntime:undname.obj
 0002:000032f8       ??_C@_09HIJEGCPM@__clrcall@ 00000001800292f8     libvcruntime:undname.obj
 0002:00003304       ??_C@_06GHPCKEAG@__eabi@   0000000180029304     libvcruntime:undname.obj
 0002:00003310       ??_C@_09IOPIDJLG@__swift_1@ 0000000180029310     libvcruntime:undname.obj
 0002:00003320       ??_C@_09KFNFGKHF@__swift_2@ 0000000180029320     libvcruntime:undname.obj
 0002:00003330       ??_C@_09LMMOFLDE@__swift_3@ 0000000180029330     libvcruntime:undname.obj
 0002:00003340       ??_C@_07JOMMBBKO@__ptr64@  0000000180029340     libvcruntime:undname.obj
 0002:00003348       ??_C@_0L@PILCLIHE@__restrict@ 0000000180029348     libvcruntime:undname.obj
 0002:00003358       ??_C@_0M@GFIIJFMG@__unaligned@ 0000000180029358     libvcruntime:undname.obj
 0002:00003368       ??_C@_09DHDLOLLB@restrict?$CI@ 0000000180029368     libvcruntime:undname.obj
 0002:00003372       ??_C@_00CNPNBAHC@@         0000000180029372     libvcruntime:undname.obj
 0002:00003374       ??_C@_04NIHEBCM@?5new@     0000000180029374     libvcruntime:undname.obj
 0002:00003380       ??_C@_07FPCDHGMM@?5delete@ 0000000180029380     libvcruntime:undname.obj
 0002:00003388       ??_C@_01NEMOKFLO@?$DN@     0000000180029388     libvcruntime:undname.obj
 0002:0000338c       ??_C@_02GPIOPFAK@?$DO?$DO@ 000000018002938c     libvcruntime:undname.obj
 0002:00003390       ??_C@_02FODMEDOG@?$DM?$DM@ 0000000180029390     libvcruntime:undname.obj
 0002:00003394       ??_C@_01DCLJPIOD@?$CB@     0000000180029394     libvcruntime:undname.obj
 0002:00003398       ??_C@_02EGOFBIJA@?$DN?$DN@ 0000000180029398     libvcruntime:undname.obj
 0002:0000339c       ??_C@_02FDNJECIE@?$CB?$DN@ 000000018002939c     libvcruntime:undname.obj
 0002:000033a0       ??_C@_02GPECMEKF@?$FL?$FN@ 00000001800293a0     libvcruntime:undname.obj
 0002:000033a8       ??_C@_08LHJFAFGD@operator@ 00000001800293a8     libvcruntime:undname.obj
 0002:000033b4       ??_C@_02HBOOOICD@?9?$DO@   00000001800293b4     libvcruntime:undname.obj
 0002:000033b8       ??_C@_01NBENCBCI@?$CK@     00000001800293b8     libvcruntime:undname.obj
 0002:000033bc       ??_C@_02ECNGHCIF@?$CL?$CL@ 00000001800293bc     libvcruntime:undname.obj
 0002:000033c0       ??_C@_02BAABKJLB@?9?9@     00000001800293c0     libvcruntime:undname.obj
 0002:000033c4       ??_C@_01JOAMLHOP@?9@       00000001800293c4     libvcruntime:undname.obj
 0002:000033c8       ??_C@_01MIFGBAGJ@?$CL@     00000001800293c8     libvcruntime:undname.obj
 0002:000033cc       ??_C@_01HNPIGOCE@?$CG@     00000001800293cc     libvcruntime:undname.obj
 0002:000033d0       ??_C@_03MNHNFDLC@?9?$DO?$CK@ 00000001800293d0     libvcruntime:undname.obj
 0002:000033d4       ??_C@_01KMDKNFGN@?1@       00000001800293d4     libvcruntime:undname.obj
 0002:000033d8       ??_C@_01FGNFDNOH@?$CF@     00000001800293d8     libvcruntime:undname.obj
 0002:000033dc       ??_C@_01MNNFJEPP@?$DM@     00000001800293dc     libvcruntime:undname.obj
 0002:000033e0       ??_C@_02EHCHHCKH@?$DM?$DN@ 00000001800293e0     libvcruntime:undname.obj
 0002:000033e4       ??_C@_01PPODPGHN@?$DO@     00000001800293e4     libvcruntime:undname.obj
 0002:000033e8       ??_C@_02EEKDKGMJ@?$DO?$DN@ 00000001800293e8     libvcruntime:undname.obj
 0002:000033ec       ??_C@_01IHBHIGKO@?0@       00000001800293ec     libvcruntime:undname.obj
 0002:000033f0       ??_C@_02HCKGKOFO@?$CI?$CJ@ 00000001800293f0     libvcruntime:undname.obj
 0002:000033f4       ??_C@_01PJKLJHI@?$HO@      00000001800293f4     libvcruntime:undname.obj
 0002:000033f8       ??_C@_01JKBOJNNK@?$FO@     00000001800293f8     libvcruntime:undname.obj
 0002:000033fc       ??_C@_01DNKMNLPK@?$HM@     00000001800293fc     libvcruntime:undname.obj
 0002:00003400       ??_C@_02PPKAJPJL@?$CG?$CG@ 0000000180029400     libvcruntime:undname.obj
 0002:00003404       ??_C@_02NONPIBCD@?$HM?$HM@ 0000000180029404     libvcruntime:undname.obj
 0002:00003408       ??_C@_02FPIMKNGF@?$CK?$DN@ 0000000180029408     libvcruntime:undname.obj
 0002:0000340c       ??_C@_02FOEOMHFC@?$CL?$DN@ 000000018002940c     libvcruntime:undname.obj
 0002:00003410       ??_C@_02FKMDLLOA@?9?$DN@   0000000180029410     libvcruntime:undname.obj
 0002:00003414       ??_C@_02FJEHGPIO@?1?$DN@   0000000180029414     libvcruntime:undname.obj
 0002:00003418       ??_C@_02FENAOKFI@?$CF?$DN@ 0000000180029418     libvcruntime:undname.obj
 0002:0000341c       ??_C@_03IKFCCPFF@?$DO?$DO?$DN@ 000000018002941c     libvcruntime:undname.obj
 0002:00003420       ??_C@_03CDNPDDLA@?$DM?$DM?$DN@ 0000000180029420     libvcruntime:undname.obj
 0002:00003424       ??_C@_02FGJGFEAB@?$CG?$DN@ 0000000180029424     libvcruntime:undname.obj
 0002:00003428       ??_C@_02DHLNPPGH@?$HM?$DN@ 0000000180029428     libvcruntime:undname.obj
 0002:0000342c       ??_C@_02MHEGNOJ@?$FO?$DN@  000000018002942c     libvcruntime:undname.obj
 0002:00003430       ??_C@_09IFPLHPGF@?$GAvftable?8@ 0000000180029430     libvcruntime:undname.obj
 0002:00003440       ??_C@_09BLBHBJP@?$GAvbtable?8@ 0000000180029440     libvcruntime:undname.obj
 0002:00003450       ??_C@_07FEEIOKP@?$GAvcall?8@ 0000000180029450     libvcruntime:undname.obj
 0002:00003458       ??_C@_08LLFFHHDJ@?$GAtypeof?8@ 0000000180029458     libvcruntime:undname.obj
 0002:00003468       ??_C@_0BF@KDPPACIK@?$GAlocal?5static?5guard?8@ 0000000180029468     libvcruntime:undname.obj
 0002:00003480       ??_C@_08OBABFOLI@?$GAstring?8@ 0000000180029480     libvcruntime:undname.obj
 0002:00003490       ??_C@_0BD@JDLKDPAB@?$GAvbase?5destructor?8@ 0000000180029490     libvcruntime:undname.obj
 0002:000034a8       ??_C@_0BN@DEGPLNFK@?$GAvector?5deleting?5destructor?8@ 00000001800294a8     libvcruntime:undname.obj
 0002:000034c8       ??_C@_0BO@OBMKPJIG@?$GAdefault?5constructor?5closure?8@ 00000001800294c8     libvcruntime:undname.obj
 0002:000034e8       ??_C@_0BN@IMDCHIKM@?$GAscalar?5deleting?5destructor?8@ 00000001800294e8     libvcruntime:undname.obj
 0002:00003508       ??_C@_0BO@PFGOCPJJ@?$GAvector?5constructor?5iterator?8@ 0000000180029508     libvcruntime:undname.obj
 0002:00003528       ??_C@_0BN@LFPFMEDL@?$GAvector?5destructor?5iterator?8@ 0000000180029528     libvcruntime:undname.obj
 0002:00003548       ??_C@_0CE@IKBNEHA@?$GAvector?5vbase?5constructor?5itera@ 0000000180029548     libvcruntime:undname.obj
 0002:00003570       ??_C@_0BL@NILFHHPC@?$GAvirtual?5displacement?5map?8@ 0000000180029570     libvcruntime:undname.obj
 0002:00003590       ??_C@_0CB@JONCMFFK@?$GAeh?5vector?5constructor?5iterator@ 0000000180029590     libvcruntime:undname.obj
 0002:000035b8       ??_C@_0CA@GCEOPDGL@?$GAeh?5vector?5destructor?5iterator?8@ 00000001800295b8     libvcruntime:undname.obj
 0002:000035d8       ??_C@_0CH@OOJPLCPH@?$GAeh?5vector?5vbase?5constructor?5it@ 00000001800295d8     libvcruntime:undname.obj
 0002:00003600       ??_C@_0BL@LLKPOHJI@?$GAcopy?5constructor?5closure?8@ 0000000180029600     libvcruntime:undname.obj
 0002:00003620       ??_C@_0BA@KBCDOMBN@?$GAudt?5returning?8@ 0000000180029620     libvcruntime:undname.obj
 0002:00003630       ??_C@_03KLGMFNMG@?$GAEH@   0000000180029630     libvcruntime:undname.obj
 0002:00003634       ??_C@_05KHLCHHI@?$GARTTI@  0000000180029634     libvcruntime:undname.obj
 0002:00003640       ??_C@_0BA@KKLDJDLB@?$GAlocal?5vftable?8@ 0000000180029640     libvcruntime:undname.obj
 0002:00003650       ??_C@_0CE@IIHCMGGL@?$GAlocal?5vftable?5constructor?5clos@ 0000000180029650     libvcruntime:undname.obj
 0002:00003674       ??_C@_06FHBGPFGH@?5new?$FL?$FN@ 0000000180029674     libvcruntime:undname.obj
 0002:00003680       ??_C@_09LBNFPBCA@?5delete?$FL?$FN@ 0000000180029680     libvcruntime:undname.obj
 0002:00003690       ??_C@_0P@HJKNJFNN@?$GAomni?5callsig?8@ 0000000180029690     libvcruntime:undname.obj
 0002:000036a0       ??_C@_0BL@CNOONJFP@?$GAplacement?5delete?5closure?8@ 00000001800296a0     libvcruntime:undname.obj
 0002:000036c0       ??_C@_0BN@CKNJLHMB@?$GAplacement?5delete?$FL?$FN?5closure?8@ 00000001800296c0     libvcruntime:undname.obj
 0002:000036e0       ??_C@_0CG@CFDHKGGD@?$GAmanaged?5vector?5constructor?5ite@ 00000001800296e0     libvcruntime:undname.obj
 0002:00003708       ??_C@_0CF@IMGKMJNO@?$GAmanaged?5vector?5destructor?5iter@ 0000000180029708     libvcruntime:undname.obj
 0002:00003730       ??_C@_0CG@HLDDJMAG@?$GAeh?5vector?5copy?5constructor?5ite@ 0000000180029730     libvcruntime:undname.obj
 0002:00003758       ??_C@_0CM@FCBBDIGB@?$GAeh?5vector?5vbase?5copy?5construct@ 0000000180029758     libvcruntime:undname.obj
 0002:00003788       ??_C@_0BL@CLIPGLGB@?$GAdynamic?5initializer?5for?5?8@ 0000000180029788     libvcruntime:undname.obj
 0002:000037a8       ??_C@_0CB@PDBIFEP@?$GAdynamic?5atexit?5destructor?5for?5@ 00000001800297a8     libvcruntime:undname.obj
 0002:000037d0       ??_C@_0CD@CGAJBKEJ@?$GAvector?5copy?5constructor?5iterat@ 00000001800297d0     libvcruntime:undname.obj
 0002:000037f8       ??_C@_0CJ@GJELGAMM@?$GAvector?5vbase?5copy?5constructor?5@ 00000001800297f8     libvcruntime:undname.obj
 0002:00003828       ??_C@_0CL@FGIJHLCE@?$GAmanaged?5vector?5copy?5constructo@ 0000000180029828     libvcruntime:undname.obj
 0002:00003858       ??_C@_0BM@PMGGMLDN@?$GAlocal?5static?5thread?5guard?8@ 0000000180029858     libvcruntime:undname.obj
 0002:00003878       ??_C@_0N@BDNMDMOL@operator?5?$CC?$CC?5@ 0000000180029878     libvcruntime:undname.obj
 0002:00003888       ??_C@_0BC@GGEBGALA@operator?5co_await@ 0000000180029888     libvcruntime:undname.obj
 0002:000038a0       ??_C@_0M@GAAIMMOH@operator?$DM?$DN?$DO@ 00000001800298a0     libvcruntime:undname.obj
 0002:000038b0       ??_C@_0BC@DAFEJGAK@?5Type?5Descriptor?8@ 00000001800298b0     libvcruntime:undname.obj
 0002:000038c8       ??_C@_0BM@LDKODKLH@?5Base?5Class?5Descriptor?5at?5?$CI@ 00000001800298c8     libvcruntime:undname.obj
 0002:000038e8       ??_C@_0BD@LGICGFMM@?5Base?5Class?5Array?8@ 00000001800298e8     libvcruntime:undname.obj
 0002:00003900       ??_C@_0BN@MECKDCOJ@?5Class?5Hierarchy?5Descriptor?8@ 0000000180029900     libvcruntime:undname.obj
 0002:00003920       ??_C@_0BK@CFCOFLF@?5Complete?5Object?5Locator?8@ 0000000180029920     libvcruntime:undname.obj
 0002:00003940       ??_C@_0BG@JNJLAMPM@?$GAanonymous?5namespace?8@ 0000000180029940     libvcruntime:undname.obj
 0002:00003970       ??_C@_1DM@KHCHBNEB@?$AAa?$AAp?$AAi?$AA?9?$AAm?$AAs?$AA?9?$AAw?$AAi?$AAn?$AA?9?$AAc?$AAo?$AAr?$AAe@ 0000000180029970     libvcruntime:winapi_downlevel.obj
 0002:000039b0       ??_C@_1DK@LPPGFMPP@?$AAa?$AAp?$AAi?$AA?9?$AAm?$AAs?$AA?9?$AAw?$AAi?$AAn?$AA?9?$AAc?$AAo?$AAr?$AAe@ 00000001800299b0     libvcruntime:winapi_downlevel.obj
 0002:000039f0       ??_C@_1BC@GDMECMAK@?$AAk?$AAe?$AAr?$AAn?$AAe?$AAl?$AA3?$AA2@ 00000001800299f0     libvcruntime:winapi_downlevel.obj
 0002:00003a08       ??_C@_1BA@PFFKHIOG@?$AAa?$AAp?$AAi?$AA?9?$AAm?$AAs?$AA?9@ 0000000180029a08     libvcruntime:winapi_downlevel.obj
 0002:00003a20       ??_C@_08KNHFBNJ@FlsAlloc@  0000000180029a20     libvcruntime:winapi_downlevel.obj
 0002:00003a38       ??_C@_07PEJMOBNF@FlsFree@  0000000180029a38     libvcruntime:winapi_downlevel.obj
 0002:00003a48       ??_C@_0M@GDNOONDI@FlsGetValue@ 0000000180029a48     libvcruntime:winapi_downlevel.obj
 0002:00003a60       ??_C@_0M@JCPCPOEF@FlsSetValue@ 0000000180029a60     libvcruntime:winapi_downlevel.obj
 0002:00003a78       ??_C@_0BM@HCFOFFN@InitializeCriticalSectionEx@ 0000000180029a78     libvcruntime:winapi_downlevel.obj
 0002:00003c10       ?format_validation_lookup_table_spectre@__crt_stdio_output@@3V?$spectre_mitigated_lookup_table@Ustate_transition_pair@__crt_stdio_output@@$0IA@@1@B 0000000180029c10     libucrt:output.obj
 0002:00003d10       ??_C@_1O@CEDCILHN@?$AA?$CI?$AAn?$AAu?$AAl?$AAl?$AA?$CJ@ 0000000180029d10     libucrt:output.obj
 0002:00003d20       ??_C@_06OJHGLDPL@?$CInull?$CJ@ 0000000180029d20     libucrt:output.obj
 0002:00003d30       __acrt_exception_action_table 0000000180029d30     libucrt:exception_filter.obj
 0002:00003df0       __acrt_signal_action_table_count 0000000180029df0     libucrt:exception_filter.obj
 0002:00003df8       __acrt_signal_action_first_fpe_index 0000000180029df8     libucrt:exception_filter.obj
 0002:00003e00       __acrt_signal_action_fpe_count 0000000180029e00     libucrt:exception_filter.obj
 0002:00003e58       ??_C@_1BI@BGOHAHKC@?$AAm?$AAs?$AAc?$AAo?$AAr?$AAe?$AAe?$AA?4?$AAd?$AAl?$AAl@ 0000000180029e58     libucrt:exit.obj
 0002:00003e70       ??_C@_0P@MIGLKIOC@CorExitProcess@ 0000000180029e70     libucrt:exit.obj
 0002:00003fd0       __lc_time_c                0000000180029fd0     libucrt:nlsdata.obj
 0002:00004290       ??_C@_03KOEHGMDN@Sun@      000000018002a290     libucrt:nlsdata.obj
 0002:00004294       ??_C@_03PDAGKDH@Mon@       000000018002a294     libucrt:nlsdata.obj
 0002:00004298       ??_C@_03NAGEINEP@Tue@      000000018002a298     libucrt:nlsdata.obj
 0002:0000429c       ??_C@_03MHOMLAJA@Wed@      000000018002a29c     libucrt:nlsdata.obj
 0002:000042a0       ??_C@_03IOFIKPDN@Thu@      000000018002a2a0     libucrt:nlsdata.obj
 0002:000042a4       ??_C@_03IDIOELNC@Fri@      000000018002a2a4     libucrt:nlsdata.obj
 0002:000042a8       ??_C@_03FEFJNEK@Sat@       000000018002a2a8     libucrt:nlsdata.obj
 0002:000042ac       ??_C@_06OOPIFAJ@Sunday@    000000018002a2ac     libucrt:nlsdata.obj
 0002:000042b4       ??_C@_06JLEDEDGH@Monday@   000000018002a2b4     libucrt:nlsdata.obj
 0002:000042c0       ??_C@_07BAAGCFCM@Tuesday@  000000018002a2c0     libucrt:nlsdata.obj
 0002:000042c8       ??_C@_09DLIGFAKA@Wednesday@ 000000018002a2c8     libucrt:nlsdata.obj
 0002:000042d8       ??_C@_08HACCIKIA@Thursday@ 000000018002a2d8     libucrt:nlsdata.obj
 0002:000042e4       ??_C@_06JECMNKMI@Friday@   000000018002a2e4     libucrt:nlsdata.obj
 0002:000042f0       ??_C@_08INBOOONO@Saturday@ 000000018002a2f0     libucrt:nlsdata.obj
 0002:000042fc       ??_C@_03JIHJHPIE@Jan@      000000018002a2fc     libucrt:nlsdata.obj
 0002:00004300       ??_C@_03HJBDCHOM@Feb@      000000018002a300     libucrt:nlsdata.obj
 0002:00004304       ??_C@_03ODNJBKGA@Mar@      000000018002a304     libucrt:nlsdata.obj
 0002:00004308       ??_C@_03LEOLGMJP@Apr@      000000018002a308     libucrt:nlsdata.obj
 0002:0000430c       ??_C@_03CNMDKL@May@        000000018002a30c     libucrt:nlsdata.obj
 0002:00004310       ??_C@_03IDFGHECI@Jun@      000000018002a310     libucrt:nlsdata.obj
 0002:00004314       ??_C@_03LBGABGKK@Jul@      000000018002a314     libucrt:nlsdata.obj
 0002:00004318       ??_C@_03IFJFEIGA@Aug@      000000018002a318     libucrt:nlsdata.obj
 0002:0000431c       ??_C@_03GGCAPAJC@Sep@      000000018002a31c     libucrt:nlsdata.obj
 0002:00004320       ??_C@_03BMAOKBAD@Oct@      000000018002a320     libucrt:nlsdata.obj
 0002:00004324       ??_C@_03JPJOFNIA@Nov@      000000018002a324     libucrt:nlsdata.obj
 0002:00004328       ??_C@_03MKABNOCG@Dec@      000000018002a328     libucrt:nlsdata.obj
 0002:00004330       ??_C@_07CGJPFGJA@January@  000000018002a330     libucrt:nlsdata.obj
 0002:00004338       ??_C@_08GNJGEPFN@February@ 000000018002a338     libucrt:nlsdata.obj
 0002:00004344       ??_C@_05HPCKOFNC@March@    000000018002a344     libucrt:nlsdata.obj
 0002:0000434c       ??_C@_05DMJDNLEJ@April@    000000018002a34c     libucrt:nlsdata.obj
 0002:00004354       ??_C@_04CNLMGBGM@June@     000000018002a354     libucrt:nlsdata.obj
 0002:0000435c       ??_C@_04MIEPOIFP@July@     000000018002a35c     libucrt:nlsdata.obj
 0002:00004364       ??_C@_06LBBHFDDG@August@   000000018002a364     libucrt:nlsdata.obj
 0002:00004370       ??_C@_09BHHEALKD@September@ 000000018002a370     libucrt:nlsdata.obj
 0002:00004380       ??_C@_07JJNFCEND@October@  000000018002a380     libucrt:nlsdata.obj
 0002:00004388       ??_C@_08HCHEGEOA@November@ 000000018002a388     libucrt:nlsdata.obj
 0002:00004398       ??_C@_08EDHMEBNP@December@ 000000018002a398     libucrt:nlsdata.obj
 0002:000043a4       ??_C@_02DEDBPAFC@AM@       000000018002a3a4     libucrt:nlsdata.obj
 0002:000043a8       ??_C@_02CJNFDJBF@PM@       000000018002a3a8     libucrt:nlsdata.obj
 0002:000043b0       ??_C@_08BPBNCDIB@MM?1dd?1yy@ 000000018002a3b0     libucrt:nlsdata.obj
 0002:000043c0       ??_C@_0BE@CKGJFCPC@dddd?0?5MMMM?5dd?0?5yyyy@ 000000018002a3c0     libucrt:nlsdata.obj
 0002:000043d8       ??_C@_08JCCMCCIL@HH?3mm?3ss@ 000000018002a3d8     libucrt:nlsdata.obj
 0002:000043e8       ??_C@_17MBGCMIPB@?$AAS?$AAu?$AAn@ 000000018002a3e8     libucrt:nlsdata.obj
 0002:000043f0       ??_C@_17KBOMKBF@?$AAM?$AAo?$AAn@ 000000018002a3f0     libucrt:nlsdata.obj
 0002:000043f8       ??_C@_17BMKGEGOJ@?$AAT?$AAu?$AAe@ 000000018002a3f8     libucrt:nlsdata.obj
 0002:00004400       ??_C@_17CJEDCEPE@?$AAW?$AAe?$AAd@ 000000018002a400     libucrt:nlsdata.obj
 0002:00004408       ??_C@_17PDPHAADD@?$AAT?$AAh?$AAu@ 000000018002a408     libucrt:nlsdata.obj
 0002:00004410       ??_C@_17HFOLPPLP@?$AAF?$AAr?$AAi@ 000000018002a410     libucrt:nlsdata.obj
 0002:00004418       ??_C@_17GGIBDPIH@?$AAS?$AAa?$AAt@ 000000018002a418     libucrt:nlsdata.obj
 0002:00004420       ??_C@_1O@IHNHDHPB@?$AAS?$AAu?$AAn?$AAd?$AAa?$AAy@ 000000018002a420     libucrt:nlsdata.obj
 0002:00004430       ??_C@_1O@MMNBFLIA@?$AAM?$AAo?$AAn?$AAd?$AAa?$AAy@ 000000018002a430     libucrt:nlsdata.obj
 0002:00004440       ??_C@_1BA@ENFBFFEK@?$AAT?$AAu?$AAe?$AAs?$AAd?$AAa?$AAy@ 000000018002a440     libucrt:nlsdata.obj
 0002:00004450       ??_C@_1BE@EBOGMDOH@?$AAW?$AAe?$AAd?$AAn?$AAe?$AAs?$AAd?$AAa?$AAy@ 000000018002a450     libucrt:nlsdata.obj
 0002:00004468       ??_C@_1BC@HHMNLIHE@?$AAT?$AAh?$AAu?$AAr?$AAs?$AAd?$AAa?$AAy@ 000000018002a468     libucrt:nlsdata.obj
 0002:00004480       ??_C@_1O@PDICJHAG@?$AAF?$AAr?$AAi?$AAd?$AAa?$AAy@ 000000018002a480     libucrt:nlsdata.obj
 0002:00004490       ??_C@_1BC@ENMNNPAJ@?$AAS?$AAa?$AAt?$AAu?$AAr?$AAd?$AAa?$AAy@ 000000018002a490     libucrt:nlsdata.obj
 0002:000044a8       ??_C@_17DKNBKCHM@?$AAJ?$AAa?$AAn@ 000000018002a4a8     libucrt:nlsdata.obj
 0002:000044b0       ??_C@_17LMDJEKJN@?$AAF?$AAe?$AAb@ 000000018002a4b0     libucrt:nlsdata.obj
 0002:000044b8       ??_C@_17CKNLEDEC@?$AAM?$AAa?$AAr@ 000000018002a4b8     libucrt:nlsdata.obj
 0002:000044c0       ??_C@_17LFPOIHDD@?$AAA?$AAp?$AAr@ 000000018002a4c0     libucrt:nlsdata.obj
 0002:000044c8       ??_C@_17PNNKMEED@?$AAM?$AAa?$AAy@ 000000018002a4c8     libucrt:nlsdata.obj
 0002:000044d0       ??_C@_17KCJGOCPB@?$AAJ?$AAu?$AAn@ 000000018002a4d0     libucrt:nlsdata.obj
 0002:000044d8       ??_C@_17IJPCKHK@?$AAJ?$AAu?$AAl@ 000000018002a4d8     libucrt:nlsdata.obj
 0002:000044e0       ??_C@_17ICPELBCN@?$AAA?$AAu?$AAg@ 000000018002a4e0     libucrt:nlsdata.obj
 0002:000044e8       ??_C@_17HCHCOKMG@?$AAS?$AAe?$AAp@ 000000018002a4e8     libucrt:nlsdata.obj
 0002:000044f0       ??_C@_17FNLKOI@?$AAO?$AAc?$AAt@ 000000018002a4f0     libucrt:nlsdata.obj
 0002:000044f8       ??_C@_17BBDMLCIG@?$AAN?$AAo?$AAv@ 000000018002a4f8     libucrt:nlsdata.obj
 0002:00004500       ??_C@_17EGKACKIF@?$AAD?$AAe?$AAc@ 000000018002a500     libucrt:nlsdata.obj
 0002:00004508       ??_C@_1BA@EFMEIEBA@?$AAJ?$AAa?$AAn?$AAu?$AAa?$AAr?$AAy@ 000000018002a508     libucrt:nlsdata.obj
 0002:00004518       ??_C@_1BC@JGDDFFAM@?$AAF?$AAe?$AAb?$AAr?$AAu?$AAa?$AAr?$AAy@ 000000018002a518     libucrt:nlsdata.obj
 0002:00004530       ??_C@_1M@IKEENEDF@?$AAM?$AAa?$AAr?$AAc?$AAh@ 000000018002a530     libucrt:nlsdata.obj
 0002:00004540       ??_C@_1M@GJNLMHFD@?$AAA?$AAp?$AAr?$AAi?$AAl@ 000000018002a540     libucrt:nlsdata.obj
 0002:00004550       ??_C@_19EPFLPGAP@?$AAJ?$AAu?$AAn?$AAe@ 000000018002a550     libucrt:nlsdata.obj
 0002:00004560       ??_C@_19BIFMLPCD@?$AAJ?$AAu?$AAl?$AAy@ 000000018002a560     libucrt:nlsdata.obj
 0002:00004570       ??_C@_1O@PAHLKOAC@?$AAA?$AAu?$AAg?$AAu?$AAs?$AAt@ 000000018002a570     libucrt:nlsdata.obj
 0002:00004580       ??_C@_1BE@DKAAMBJL@?$AAS?$AAe?$AAp?$AAt?$AAe?$AAm?$AAb?$AAe?$AAr@ 000000018002a580     libucrt:nlsdata.obj
 0002:00004598       ??_C@_1BA@EPANDLNG@?$AAO?$AAc?$AAt?$AAo?$AAb?$AAe?$AAr@ 000000018002a598     libucrt:nlsdata.obj
 0002:000045a8       ??_C@_1BC@BGLIFPF@?$AAN?$AAo?$AAv?$AAe?$AAm?$AAb?$AAe?$AAr@ 000000018002a5a8     libucrt:nlsdata.obj
 0002:000045c0       ??_C@_1BC@FEMKIFH@?$AAD?$AAe?$AAc?$AAe?$AAm?$AAb?$AAe?$AAr@ 000000018002a5c0     libucrt:nlsdata.obj
 0002:000045d4       ??_C@_15ODEHAHHF@?$AAA?$AAM@ 000000018002a5d4     libucrt:nlsdata.obj
 0002:000045dc       ??_C@_15CLMNNGEL@?$AAP?$AAM@ 000000018002a5dc     libucrt:nlsdata.obj
 0002:000045e8       ??_C@_1BC@IEBCMHCM@?$AAM?$AAM?$AA?1?$AAd?$AAd?$AA?1?$AAy?$AAy@ 000000018002a5e8     libucrt:nlsdata.obj
 0002:00004600       ??_C@_1CI@KNAKOEBC@?$AAd?$AAd?$AAd?$AAd?$AA?0?$AA?5?$AAM?$AAM?$AAM?$AAM?$AA?5?$AAd?$AAd?$AA?0?$AA?5@ 000000018002a600     libucrt:nlsdata.obj
 0002:00004628       ??_C@_1BC@GDGBMEMK@?$AAH?$AAH?$AA?3?$AAm?$AAm?$AA?3?$AAs?$AAs@ 000000018002a628     libucrt:nlsdata.obj
 0002:00004640       ??_C@_1M@BMHNFIME@?$AAe?$AAn?$AA?9?$AAU?$AAS@ 000000018002a640     libucrt:nlsdata.obj
 0002:000046f0       ??_C@_1EA@JGEFHKEI@?$AAa?$AAp?$AAi?$AA?9?$AAm?$AAs?$AA?9?$AAw?$AAi?$AAn?$AA?9?$AAc?$AAo?$AAr?$AAe@ 000000018002a6f0     libucrt:winapi_thunks.obj
 0002:00004730       ??_C@_1DI@IJCEHOCB@?$AAa?$AAp?$AAi?$AA?9?$AAm?$AAs?$AA?9?$AAw?$AAi?$AAn?$AA?9?$AAc?$AAo?$AAr?$AAe@ 000000018002a730     libucrt:winapi_thunks.obj
 0002:00004770       ??_C@_1EI@MPIAOHOC@?$AAa?$AAp?$AAi?$AA?9?$AAm?$AAs?$AA?9?$AAw?$AAi?$AAn?$AA?9?$AAc?$AAo?$AAr?$AAe@ 000000018002a770     libucrt:winapi_thunks.obj
 0002:000047c0       ??_C@_1FK@FPHCKFIE@?$AAa?$AAp?$AAi?$AA?9?$AAm?$AAs?$AA?9?$AAw?$AAi?$AAn?$AA?9?$AAc?$AAo?$AAr?$AAe@ 000000018002a7c0     libucrt:winapi_thunks.obj
 0002:00004820       ??_C@_1EM@DILCGIIO@?$AAa?$AAp?$AAi?$AA?9?$AAm?$AAs?$AA?9?$AAw?$AAi?$AAn?$AA?9?$AAc?$AAo?$AAr?$AAe@ 000000018002a820     libucrt:winapi_thunks.obj
 0002:00004870       ??_C@_1DM@LNCGDDPN@?$AAa?$AAp?$AAi?$AA?9?$AAm?$AAs?$AA?9?$AAw?$AAi?$AAn?$AA?9?$AAc?$AAo?$AAr?$AAe@ 000000018002a870     libucrt:winapi_thunks.obj
 0002:000048b0       ??_C@_1DO@FPAPJEMD@?$AAa?$AAp?$AAi?$AA?9?$AAm?$AAs?$AA?9?$AAw?$AAi?$AAn?$AA?9?$AAc?$AAo?$AAr?$AAe@ 000000018002a8b0     libucrt:winapi_thunks.obj
 0002:000048f0       ??_C@_1DK@NDHNAHIO@?$AAa?$AAp?$AAi?$AA?9?$AAm?$AAs?$AA?9?$AAw?$AAi?$AAn?$AA?9?$AAc?$AAo?$AAr?$AAe@ 000000018002a8f0     libucrt:winapi_thunks.obj
 0002:00004930       ??_C@_1DM@KGHDGBCM@?$AAa?$AAp?$AAi?$AA?9?$AAm?$AAs?$AA?9?$AAw?$AAi?$AAn?$AA?9?$AAc?$AAo?$AAr?$AAe@ 000000018002a930     libucrt:winapi_thunks.obj
 0002:00004970       ??_C@_1EO@IJIOEFOH@?$AAa?$AAp?$AAi?$AA?9?$AAm?$AAs?$AA?9?$AAw?$AAi?$AAn?$AA?9?$AAr?$AAt?$AAc?$AAo@ 000000018002a970     libucrt:winapi_thunks.obj
 0002:000049c0       ??_C@_1FG@HHGEKANL@?$AAa?$AAp?$AAi?$AA?9?$AAm?$AAs?$AA?9?$AAw?$AAi?$AAn?$AA?9?$AAs?$AAe?$AAc?$AAu@ 000000018002a9c0     libucrt:winapi_thunks.obj
 0002:00004a20       ??_C@_1EG@DBIOJECG@?$AAe?$AAx?$AAt?$AA?9?$AAm?$AAs?$AA?9?$AAw?$AAi?$AAn?$AA?9?$AAn?$AAt?$AAu?$AAs@ 000000018002aa20     libucrt:winapi_thunks.obj
 0002:00004a70       ??_C@_1EO@FIHMJCLF@?$AAe?$AAx?$AAt?$AA?9?$AAm?$AAs?$AA?9?$AAw?$AAi?$AAn?$AA?9?$AAn?$AAt?$AAu?$AAs@ 000000018002aa70     libucrt:winapi_thunks.obj
 0002:00004ac0       ??_C@_1BC@DNHGCMLG@?$AAa?$AAd?$AAv?$AAa?$AAp?$AAi?$AA3?$AA2@ 000000018002aac0     libucrt:winapi_thunks.obj
 0002:00004ad8       ??_C@_1M@OAIMIKLP@?$AAn?$AAt?$AAd?$AAl?$AAl@ 000000018002aad8     libucrt:winapi_thunks.obj
 0002:00004af0       ??_C@_1EG@DPGNFKGC@?$AAa?$AAp?$AAi?$AA?9?$AAm?$AAs?$AA?9?$AAw?$AAi?$AAn?$AA?9?$AAa?$AAp?$AAp?$AAm@ 000000018002aaf0     libucrt:winapi_thunks.obj
 0002:00004b38       ??_C@_1O@BCCLBEOE@?$AAu?$AAs?$AAe?$AAr?$AA3?$AA2@ 000000018002ab38     libucrt:winapi_thunks.obj
 0002:00004b48       ??_C@_1BA@IAIFMGEF@?$AAe?$AAx?$AAt?$AA?9?$AAm?$AAs?$AA?9@ 000000018002ab48     libucrt:winapi_thunks.obj
 0002:00004b60       ??_C@_0BA@FHFNEAED@AreFileApisANSI@ 000000018002ab60     libucrt:winapi_thunks.obj
 0002:00004b80       ??_C@_0O@KKBNKAPF@LCMapStringEx@ 000000018002ab80     libucrt:winapi_thunks.obj
 0002:00004b98       ??_C@_0BB@HBDEELFH@LocaleNameToLCID@ 000000018002ab98     libucrt:winapi_thunks.obj
 0002:00004bb0       ??_C@_0CF@OJOFEIGO@AppPolicyGetProcessTerminationM@ 000000018002abb0     libucrt:winapi_thunks.obj
 0002:00004be0       ??_C@_0BI@BKLFFAPO@SetThreadStackGuarantee@ 000000018002abe0     libucrt:winapi_thunks.obj
 0002:00004c80       ??_C@_03OEIAHPBN@INF@      000000018002ac80     libucrt:cvt.obj
 0002:00004c84       ??_C@_03OJHLLCGB@inf@      000000018002ac84     libucrt:cvt.obj
 0002:00004c88       ??_C@_03LKNCIKJB@NAN@      000000018002ac88     libucrt:cvt.obj
 0002:00004c8c       ??_C@_03LHCJEHON@nan@      000000018002ac8c     libucrt:cvt.obj
 0002:00004c90       ??_C@_09OFJJIMPC@NAN?$CISNAN?$CJ@ 000000018002ac90     libucrt:cvt.obj
 0002:00004ca0       ??_C@_09IPFBKMDL@nan?$CIsnan?$CJ@ 000000018002aca0     libucrt:cvt.obj
 0002:00004cb0       ??_C@_08IKHNHAJ@NAN?$CIIND?$CJ@ 000000018002acb0     libucrt:cvt.obj
 0002:00004cc0       ??_C@_08OFCDMILK@nan?$CIind?$CJ@ 000000018002acc0     libucrt:cvt.obj
 0002:00004ccc       ??_C@_05KLBDPFGC@e?$CL000@ 000000018002accc     libucrt:cvt.obj
 0002:00004cf8       ??_C@_1M@HPNHIDJI@?$AAj?$AAa?$AA?9?$AAJ?$AAP@ 000000018002acf8     libucrt:mbctype.obj
 0002:00004d08       ??_C@_1M@BIBDDEMK@?$AAz?$AAh?$AA?9?$AAC?$AAN@ 000000018002ad08     libucrt:mbctype.obj
 0002:00004d18       ??_C@_1M@JLOOOEGK@?$AAk?$AAo?$AA?9?$AAK?$AAR@ 000000018002ad18     libucrt:mbctype.obj
 0002:00004d28       ??_C@_1M@CLNBBOPM@?$AAz?$AAh?$AA?9?$AAT?$AAW@ 000000018002ad28     libucrt:mbctype.obj
 0002:00004d40       __newctype                 000000018002ad40     libucrt:ctype.obj
 0002:00005040       __newclmap                 000000018002b040     libucrt:ctype.obj
 0002:000051c0       __newcumap                 000000018002b1c0     libucrt:ctype.obj
 0002:00005340       ??_C@_15PJPFLCCM@?$AAu?$AAk@ 000000018002b340     libucrt:get_qualified_locale.obj
 0002:00006190       ??_C@_15EMKDOKLE@?$AAa?$AAr@ 000000018002c190     libucrt:lcidtoname_downlevel.obj
 0002:00006198       ??_C@_15KNPADPLH@?$AAb?$AAg@ 000000018002c198     libucrt:lcidtoname_downlevel.obj
 0002:000061a0       ??_C@_15EDMHLDMO@?$AAc?$AAa@ 000000018002c1a0     libucrt:lcidtoname_downlevel.obj
 0002:000061a8       ??_C@_1O@BPEAJADD@?$AAz?$AAh?$AA?9?$AAC?$AAH?$AAS@ 000000018002c1a8     libucrt:lcidtoname_downlevel.obj
 0002:000061b8       ??_C@_15LJNHCMNK@?$AAc?$AAs@ 000000018002c1b8     libucrt:lcidtoname_downlevel.obj
 0002:000061c0       ??_C@_15FOMCIDHG@?$AAd?$AAa@ 000000018002c1c0     libucrt:lcidtoname_downlevel.obj
 0002:000061c8       ??_C@_15NBKABECB@?$AAd?$AAe@ 000000018002c1c8     libucrt:lcidtoname_downlevel.obj
 0002:000061d0       ??_C@_15GHPEIIAO@?$AAe?$AAl@ 000000018002c1d0     libucrt:lcidtoname_downlevel.obj
 0002:000061d8       ??_C@_15MNPNEAIF@?$AAe?$AAn@ 000000018002c1d8     libucrt:lcidtoname_downlevel.obj
 0002:000061e0       ??_C@_15GPIOMPMH@?$AAe?$AAs@ 000000018002c1e0     libucrt:lcidtoname_downlevel.obj
 0002:000061e8       ??_C@_15NGLOAKJC@?$AAf?$AAi@ 000000018002c1e8     libucrt:lcidtoname_downlevel.obj
 0002:000061f0       ??_C@_15FBKGNKAM@?$AAf?$AAr@ 000000018002c1f0     libucrt:lcidtoname_downlevel.obj
 0002:000061f8       ??_C@_15KGGCNEFK@?$AAh?$AAe@ 000000018002c1f8     libucrt:lcidtoname_downlevel.obj
 0002:00006200       ??_C@_15PGHLIDMF@?$AAh?$AAu@ 000000018002c200     libucrt:lcidtoname_downlevel.obj
 0002:00006208       ??_C@_15BIEMAPLM@?$AAi?$AAs@ 000000018002c208     libucrt:lcidtoname_downlevel.obj
 0002:00006210       ??_C@_15IFJLDHAF@?$AAi?$AAt@ 000000018002c210     libucrt:lcidtoname_downlevel.obj
 0002:00006218       ??_C@_15GEMIOCAG@?$AAj?$AAa@ 000000018002c218     libucrt:lcidtoname_downlevel.obj
 0002:00006220       ??_C@_15EPELEGJA@?$AAk?$AAo@ 000000018002c220     libucrt:lcidtoname_downlevel.obj
 0002:00006228       ??_C@_15NDDHIMN@?$AAn?$AAl@ 000000018002c228     libucrt:lcidtoname_downlevel.obj
 0002:00006230       ??_C@_15BPIGNHCD@?$AAn?$AAo@ 000000018002c230     libucrt:lcidtoname_downlevel.obj
 0002:00006238       ??_C@_15DEOPBLCG@?$AAp?$AAl@ 000000018002c238     libucrt:lcidtoname_downlevel.obj
 0002:00006240       ??_C@_15KBECGEFG@?$AAp?$AAt@ 000000018002c240     libucrt:lcidtoname_downlevel.obj
 0002:00006248       ??_C@_15GLJCBFMD@?$AAr?$AAo@ 000000018002c248     libucrt:lcidtoname_downlevel.obj
 0002:00006250       ??_C@_15FEDGKCDI@?$AAr?$AAu@ 000000018002c250     libucrt:lcidtoname_downlevel.obj
 0002:00006258       ??_C@_15GLKMLLHM@?$AAh?$AAr@ 000000018002c258     libucrt:lcidtoname_downlevel.obj
 0002:00006260       ??_C@_15CPKMFBDB@?$AAs?$AAk@ 000000018002c260     libucrt:lcidtoname_downlevel.obj
 0002:00006268       ??_C@_15BAAIOGMK@?$AAs?$AAq@ 000000018002c268     libucrt:lcidtoname_downlevel.obj
 0002:00006270       ??_C@_15INNPNOHD@?$AAs?$AAv@ 000000018002c270     libucrt:lcidtoname_downlevel.obj
 0002:00006278       ??_C@_15CABMMOGH@?$AAt?$AAh@ 000000018002c278     libucrt:lcidtoname_downlevel.obj
 0002:00006280       ??_C@_15BPLIHJJM@?$AAt?$AAr@ 000000018002c280     libucrt:lcidtoname_downlevel.obj
 0002:00006288       ??_C@_15NEOEKKDJ@?$AAu?$AAr@ 000000018002c288     libucrt:lcidtoname_downlevel.obj
 0002:00006290       ??_C@_15NFICGAJK@?$AAi?$AAd@ 000000018002c290     libucrt:lcidtoname_downlevel.obj
 0002:00006298       ??_C@_15HPJPHDM@?$AAb?$AAe@ 000000018002c298     libucrt:lcidtoname_downlevel.obj
 0002:000062a0       ??_C@_15LCHLGJII@?$AAs?$AAl@ 000000018002c2a0     libucrt:lcidtoname_downlevel.obj
 0002:000062a8       ??_C@_15PCFJPHHO@?$AAe?$AAt@ 000000018002c2a8     libucrt:lcidtoname_downlevel.obj
 0002:000062b0       ??_C@_15HPFPGODN@?$AAl?$AAv@ 000000018002c2b0     libucrt:lcidtoname_downlevel.obj
 0002:000062b8       ??_C@_15NFFGKGLG@?$AAl?$AAt@ 000000018002c2b8     libucrt:lcidtoname_downlevel.obj
 0002:000062c0       ??_C@_15BDAKCCHN@?$AAf?$AAa@ 000000018002c2c0     libucrt:lcidtoname_downlevel.obj
 0002:000062c8       ??_C@_15NFGIAIAJ@?$AAv?$AAi@ 000000018002c2c8     libucrt:lcidtoname_downlevel.obj
 0002:000062d0       ??_C@_15LMKNDMHN@?$AAh?$AAy@ 000000018002c2d0     libucrt:lcidtoname_downlevel.obj
 0002:000062d8       ??_C@_15IJBHMCFL@?$AAa?$AAz@ 000000018002c2d8     libucrt:lcidtoname_downlevel.obj
 0002:000062e0       ??_C@_15EKOFJABL@?$AAe?$AAu@ 000000018002c2e0     libucrt:lcidtoname_downlevel.obj
 0002:000062e8       ??_C@_15BGHADCNK@?$AAm?$AAk@ 000000018002c2e8     libucrt:lcidtoname_downlevel.obj
 0002:000062f0       ??_C@_15JDNICKHM@?$AAa?$AAf@ 000000018002c2f0     libucrt:lcidtoname_downlevel.obj
 0002:000062f8       ??_C@_15KPJEDBKD@?$AAk?$AAa@ 000000018002c2f8     libucrt:lcidtoname_downlevel.obj
 0002:00006300       ??_C@_15PDNFFFEO@?$AAf?$AAo@ 000000018002c300     libucrt:lcidtoname_downlevel.obj
 0002:00006308       ??_C@_15OMLEGLOC@?$AAh?$AAi@ 000000018002c308     libucrt:lcidtoname_downlevel.obj
 0002:00006310       ??_C@_15IDNNENKK@?$AAm?$AAs@ 000000018002c310     libucrt:lcidtoname_downlevel.obj
 0002:00006318       ??_C@_15MACJNBMH@?$AAk?$AAk@ 000000018002c318     libucrt:lcidtoname_downlevel.obj
 0002:00006320       ??_C@_15DKDJEOND@?$AAk?$AAy@ 000000018002c320     libucrt:lcidtoname_downlevel.obj
 0002:00006328       ??_C@_15DFGDLJBG@?$AAs?$AAw@ 000000018002c328     libucrt:lcidtoname_downlevel.obj
 0002:00006330       ??_C@_15BBFAICNG@?$AAu?$AAz@ 000000018002c330     libucrt:lcidtoname_downlevel.obj
 0002:00006338       ??_C@_15DKNDCGEA@?$AAt?$AAt@ 000000018002c338     libucrt:lcidtoname_downlevel.obj
 0002:00006340       ??_C@_15MGIFMDPL@?$AAp?$AAa@ 000000018002c340     libucrt:lcidtoname_downlevel.obj
 0002:00006348       ??_C@_15HCNDBBA@?$AAg?$AAu@ 000000018002c348     libucrt:lcidtoname_downlevel.obj
 0002:00006350       ??_C@_15FNBEIBON@?$AAt?$AAa@ 000000018002c350     libucrt:lcidtoname_downlevel.obj
 0002:00006358       ??_C@_15NCHGBGLK@?$AAt?$AAe@ 000000018002c358     libucrt:lcidtoname_downlevel.obj
 0002:00006360       ??_C@_15PHPHCBPF@?$AAk?$AAn@ 000000018002c360     libucrt:lcidtoname_downlevel.obj
 0002:00006368       ??_C@_15DLGBCKMP@?$AAm?$AAr@ 000000018002c368     libucrt:lcidtoname_downlevel.obj
 0002:00006370       ??_C@_15EABBLBFF@?$AAs?$AAa@ 000000018002c370     libucrt:lcidtoname_downlevel.obj
 0002:00006378       ??_C@_15CBKOMCOI@?$AAm?$AAn@ 000000018002c378     libucrt:lcidtoname_downlevel.obj
 0002:00006380       ??_C@_15CKDMCJAF@?$AAg?$AAl@ 000000018002c380     libucrt:lcidtoname_downlevel.obj
 0002:00006388       ??_C@_17CNJFBPG@?$AAk?$AAo?$AAk@ 000000018002c388     libucrt:lcidtoname_downlevel.obj
 0002:00006390       ??_C@_17FFBJICPL@?$AAs?$AAy?$AAr@ 000000018002c390     libucrt:lcidtoname_downlevel.obj
 0002:00006398       ??_C@_17KPNDCPAF@?$AAd?$AAi?$AAv@ 000000018002c398     libucrt:lcidtoname_downlevel.obj
 0002:000063a0       ??_C@_1M@OKAHONE@?$AAa?$AAr?$AA?9?$AAS?$AAA@ 000000018002c3a0     libucrt:lcidtoname_downlevel.obj
 0002:000063b0       ??_C@_1M@FFFIGIGK@?$AAb?$AAg?$AA?9?$AAB?$AAG@ 000000018002c3b0     libucrt:lcidtoname_downlevel.obj
 0002:000063c0       ??_C@_1M@BJNKEDC@?$AAc?$AAa?$AA?9?$AAE?$AAS@ 000000018002c3c0     libucrt:lcidtoname_downlevel.obj
 0002:000063d0       ??_C@_1M@IJJHFJHA@?$AAc?$AAs?$AA?9?$AAC?$AAZ@ 000000018002c3d0     libucrt:lcidtoname_downlevel.obj
 0002:000063e0       ??_C@_1M@CLPEOBGI@?$AAd?$AAa?$AA?9?$AAD?$AAK@ 000000018002c3e0     libucrt:lcidtoname_downlevel.obj
 0002:000063f0       ??_C@_1M@MCMADGCB@?$AAd?$AAe?$AA?9?$AAD?$AAE@ 000000018002c3f0     libucrt:lcidtoname_downlevel.obj
 0002:00006400       ??_C@_1M@OOCKEMAM@?$AAe?$AAl?$AA?9?$AAG?$AAR@ 000000018002c400     libucrt:lcidtoname_downlevel.obj
 0002:00006410       ??_C@_1M@DDNJFGID@?$AAf?$AAi?$AA?9?$AAF?$AAI@ 000000018002c410     libucrt:lcidtoname_downlevel.obj
 0002:00006420       ??_C@_1M@GLIPPMAC@?$AAf?$AAr?$AA?9?$AAF?$AAR@ 000000018002c420     libucrt:lcidtoname_downlevel.obj
 0002:00006430       ??_C@_1M@GFMCHPE@?$AAh?$AAe?$AA?9?$AAI?$AAL@ 000000018002c430     libucrt:lcidtoname_downlevel.obj
 0002:00006440       ??_C@_1M@MHLPGNKM@?$AAh?$AAu?$AA?9?$AAH?$AAU@ 000000018002c440     libucrt:lcidtoname_downlevel.obj
 0002:00006450       ??_C@_1M@LPDDNNPN@?$AAi?$AAs?$AA?9?$AAI?$AAS@ 000000018002c450     libucrt:lcidtoname_downlevel.obj
 0002:00006460       ??_C@_1M@MADIPODN@?$AAi?$AAt?$AA?9?$AAI?$AAT@ 000000018002c460     libucrt:lcidtoname_downlevel.obj
 0002:00006470       ??_C@_1M@IHBJJGG@?$AAn?$AAl?$AA?9?$AAN?$AAL@ 000000018002c470     libucrt:lcidtoname_downlevel.obj
 0002:00006480       ??_C@_1M@EANAGDL@?$AAn?$AAb?$AA?9?$AAN?$AAO@ 000000018002c480     libucrt:lcidtoname_downlevel.obj
 0002:00006490       ??_C@_1M@NEIEMEGP@?$AAp?$AAl?$AA?9?$AAP?$AAL@ 000000018002c490     libucrt:lcidtoname_downlevel.obj
 0002:000064a0       ??_C@_1M@BOCFIGEP@?$AAp?$AAt?$AA?9?$AAB?$AAR@ 000000018002c4a0     libucrt:lcidtoname_downlevel.obj
 0002:000064b0       ??_C@_1M@IMPFOPBG@?$AAr?$AAo?$AA?9?$AAR?$AAO@ 000000018002c4b0     libucrt:lcidtoname_downlevel.obj
 0002:000064c0       ??_C@_1M@IDNNEJMM@?$AAr?$AAu?$AA?9?$AAR?$AAU@ 000000018002c4c0     libucrt:lcidtoname_downlevel.obj
 0002:000064d0       ??_C@_1M@LILEEOGM@?$AAh?$AAr?$AA?9?$AAH?$AAR@ 000000018002c4d0     libucrt:lcidtoname_downlevel.obj
 0002:000064e0       ??_C@_1M@FKIFEHPB@?$AAs?$AAk?$AA?9?$AAS?$AAK@ 000000018002c4e0     libucrt:lcidtoname_downlevel.obj
 0002:000064f0       ??_C@_1M@LJMAMNPJ@?$AAs?$AAq?$AA?9?$AAA?$AAL@ 000000018002c4f0     libucrt:lcidtoname_downlevel.obj
 0002:00006500       ??_C@_1M@GIAKDKJK@?$AAs?$AAv?$AA?9?$AAS?$AAE@ 000000018002c500     libucrt:lcidtoname_downlevel.obj
 0002:00006510       ??_C@_1M@MKJKIKCL@?$AAt?$AAh?$AA?9?$AAT?$AAH@ 000000018002c510     libucrt:lcidtoname_downlevel.obj
 0002:00006520       ??_C@_1M@MFLCCMPB@?$AAt?$AAr?$AA?9?$AAT?$AAR@ 000000018002c520     libucrt:lcidtoname_downlevel.obj
 0002:00006530       ??_C@_1M@OIJHDKJN@?$AAu?$AAr?$AA?9?$AAP?$AAK@ 000000018002c530     libucrt:lcidtoname_downlevel.obj
 0002:00006540       ??_C@_1M@LHIPCIEK@?$AAi?$AAd?$AA?9?$AAI?$AAD@ 000000018002c540     libucrt:lcidtoname_downlevel.obj
 0002:00006550       ??_C@_1M@MFMOBGI@?$AAu?$AAk?$AA?9?$AAU?$AAA@ 000000018002c550     libucrt:lcidtoname_downlevel.obj
 0002:00006560       ??_C@_1M@OBGLJIPL@?$AAb?$AAe?$AA?9?$AAB?$AAY@ 000000018002c560     libucrt:lcidtoname_downlevel.obj
 0002:00006570       ??_C@_1M@BCFAJEAD@?$AAs?$AAl?$AA?9?$AAS?$AAI@ 000000018002c570     libucrt:lcidtoname_downlevel.obj
 0002:00006580       ??_C@_1M@FKFFEDDN@?$AAe?$AAt?$AA?9?$AAE?$AAE@ 000000018002c580     libucrt:lcidtoname_downlevel.obj
 0002:00006590       ??_C@_1M@KGKKAACI@?$AAl?$AAv?$AA?9?$AAL?$AAV@ 000000018002c590     libucrt:lcidtoname_downlevel.obj
 0002:000065a0       ??_C@_1M@IFGBIJO@?$AAl?$AAt?$AA?9?$AAL?$AAT@ 000000018002c5a0     libucrt:lcidtoname_downlevel.obj
 0002:000065b0       ??_C@_1M@FGEAHEDM@?$AAf?$AAa?$AA?9?$AAI?$AAR@ 000000018002c5b0     libucrt:lcidtoname_downlevel.obj
 0002:000065c0       ??_C@_1M@KBMAIBFN@?$AAv?$AAi?$AA?9?$AAV?$AAN@ 000000018002c5c0     libucrt:lcidtoname_downlevel.obj
 0002:000065d0       ??_C@_1M@GPCBKDJK@?$AAh?$AAy?$AA?9?$AAA?$AAM@ 000000018002c5d0     libucrt:lcidtoname_downlevel.obj
 0002:000065e0       ??_C@_1BG@BECMDDJB@?$AAa?$AAz?$AA?9?$AAA?$AAZ?$AA?9?$AAL?$AAa?$AAt?$AAn@ 000000018002c5e0     libucrt:lcidtoname_downlevel.obj
 0002:000065f8       ??_C@_1M@MAOFCAEA@?$AAe?$AAu?$AA?9?$AAE?$AAS@ 000000018002c5f8     libucrt:lcidtoname_downlevel.obj
 0002:00006608       ??_C@_1M@IGHABKPI@?$AAm?$AAk?$AA?9?$AAM?$AAK@ 000000018002c608     libucrt:lcidtoname_downlevel.obj
 0002:00006618       ??_C@_1M@IAIGNEJG@?$AAt?$AAn?$AA?9?$AAZ?$AAA@ 000000018002c618     libucrt:lcidtoname_downlevel.obj
 0002:00006628       ??_C@_1M@IIJCOJFA@?$AAx?$AAh?$AA?9?$AAZ?$AAA@ 000000018002c628     libucrt:lcidtoname_downlevel.obj
 0002:00006638       ??_C@_1M@LGPJHNJH@?$AAz?$AAu?$AA?9?$AAZ?$AAA@ 000000018002c638     libucrt:lcidtoname_downlevel.obj
 0002:00006648       ??_C@_1M@HOKAOIO@?$AAa?$AAf?$AA?9?$AAZ?$AAA@ 000000018002c648     libucrt:lcidtoname_downlevel.obj
 0002:00006658       ??_C@_1M@DPCLHLIE@?$AAk?$AAa?$AA?9?$AAG?$AAE@ 000000018002c658     libucrt:lcidtoname_downlevel.obj
 0002:00006668       ??_C@_1M@BLKMHJBI@?$AAf?$AAo?$AA?9?$AAF?$AAO@ 000000018002c668     libucrt:lcidtoname_downlevel.obj
 0002:00006678       ??_C@_1M@LGGJAPPB@?$AAh?$AAi?$AA?9?$AAI?$AAN@ 000000018002c678     libucrt:lcidtoname_downlevel.obj
 0002:00006688       ??_C@_1M@FIKPIHFE@?$AAm?$AAt?$AA?9?$AAM?$AAT@ 000000018002c688     libucrt:lcidtoname_downlevel.obj
 0002:00006698       ??_C@_1M@HEGGPBFA@?$AAs?$AAe?$AA?9?$AAN?$AAO@ 000000018002c698     libucrt:lcidtoname_downlevel.obj
 0002:000066a8       ??_C@_1M@EIBJEEPA@?$AAm?$AAs?$AA?9?$AAM?$AAY@ 000000018002c6a8     libucrt:lcidtoname_downlevel.obj
 0002:000066b8       ??_C@_1M@FHLBGMPP@?$AAk?$AAk?$AA?9?$AAK?$AAZ@ 000000018002c6b8     libucrt:lcidtoname_downlevel.obj
 0002:000066c8       ??_C@_1M@NGJJLCGI@?$AAk?$AAy?$AA?9?$AAK?$AAG@ 000000018002c6c8     libucrt:lcidtoname_downlevel.obj
 0002:000066d8       ??_C@_1M@GIENNBFC@?$AAs?$AAw?$AA?9?$AAK?$AAE@ 000000018002c6d8     libucrt:lcidtoname_downlevel.obj
 0002:000066e8       ??_C@_1BG@NDGMJIMJ@?$AAu?$AAz?$AA?9?$AAU?$AAZ?$AA?9?$AAL?$AAa?$AAt?$AAn@ 000000018002c6e8     libucrt:lcidtoname_downlevel.obj
 0002:00006700       ??_C@_1M@IDCCIHBC@?$AAt?$AAt?$AA?9?$AAR?$AAU@ 000000018002c700     libucrt:lcidtoname_downlevel.obj
 0002:00006710       ??_C@_1M@LOICPMOJ@?$AAb?$AAn?$AA?9?$AAI?$AAN@ 000000018002c710     libucrt:lcidtoname_downlevel.obj
 0002:00006720       ??_C@_1M@KPKKNEAH@?$AAp?$AAa?$AA?9?$AAI?$AAN@ 000000018002c720     libucrt:lcidtoname_downlevel.obj
 0002:00006730       ??_C@_1M@PJGPPBOG@?$AAg?$AAu?$AA?9?$AAI?$AAN@ 000000018002c730     libucrt:lcidtoname_downlevel.obj
 0002:00006740       ??_C@_1M@KMKMOPHI@?$AAt?$AAa?$AA?9?$AAI?$AAN@ 000000018002c740     libucrt:lcidtoname_downlevel.obj
 0002:00006750       ??_C@_1M@KFEHEPAC@?$AAt?$AAe?$AA?9?$AAI?$AAN@ 000000018002c750     libucrt:lcidtoname_downlevel.obj
 0002:00006760       ??_C@_1M@CDCLMGHI@?$AAk?$AAn?$AA?9?$AAI?$AAN@ 000000018002c760     libucrt:lcidtoname_downlevel.obj
 0002:00006770       ??_C@_1M@MIODLDKF@?$AAm?$AAl?$AA?9?$AAI?$AAN@ 000000018002c770     libucrt:lcidtoname_downlevel.obj
 0002:00006780       ??_C@_1M@PBIEACPO@?$AAm?$AAr?$AA?9?$AAI?$AAN@ 000000018002c780     libucrt:lcidtoname_downlevel.obj
 0002:00006790       ??_C@_1M@NIDEAGPH@?$AAs?$AAa?$AA?9?$AAI?$AAN@ 000000018002c790     libucrt:lcidtoname_downlevel.obj
 0002:000067a0       ??_C@_1M@FHIHCBIO@?$AAm?$AAn?$AA?9?$AAM?$AAN@ 000000018002c7a0     libucrt:lcidtoname_downlevel.obj
 0002:000067b0       ??_C@_1M@JAIJPENP@?$AAc?$AAy?$AA?9?$AAG?$AAB@ 000000018002c7b0     libucrt:lcidtoname_downlevel.obj
 0002:000067c0       ??_C@_1M@PHGFBEPN@?$AAg?$AAl?$AA?9?$AAE?$AAS@ 000000018002c7c0     libucrt:lcidtoname_downlevel.obj
 0002:000067d0       ??_C@_1O@KPIPDNCP@?$AAk?$AAo?$AAk?$AA?9?$AAI?$AAN@ 000000018002c7d0     libucrt:lcidtoname_downlevel.obj
 0002:000067e0       ??_C@_1O@KNHJLDJA@?$AAs?$AAy?$AAr?$AA?9?$AAS?$AAY@ 000000018002c7e0     libucrt:lcidtoname_downlevel.obj
 0002:000067f0       ??_C@_1O@MKEKBLAH@?$AAd?$AAi?$AAv?$AA?9?$AAM?$AAV@ 000000018002c7f0     libucrt:lcidtoname_downlevel.obj
 0002:00006800       ??_C@_1O@OHDCKDDF@?$AAq?$AAu?$AAz?$AA?9?$AAB?$AAO@ 000000018002c800     libucrt:lcidtoname_downlevel.obj
 0002:00006810       ??_C@_1M@LEPJNLFD@?$AAn?$AAs?$AA?9?$AAZ?$AAA@ 000000018002c810     libucrt:lcidtoname_downlevel.obj
 0002:00006820       ??_C@_1M@OMLEIIJB@?$AAm?$AAi?$AA?9?$AAN?$AAZ@ 000000018002c820     libucrt:lcidtoname_downlevel.obj
 0002:00006830       ??_C@_1M@PMPEAILG@?$AAa?$AAr?$AA?9?$AAI?$AAQ@ 000000018002c830     libucrt:lcidtoname_downlevel.obj
 0002:00006840       ??_C@_1M@CNKPNOEE@?$AAd?$AAe?$AA?9?$AAC?$AAH@ 000000018002c840     libucrt:lcidtoname_downlevel.obj
 0002:00006850       ??_C@_1M@LKMGMLKO@?$AAe?$AAn?$AA?9?$AAG?$AAB@ 000000018002c850     libucrt:lcidtoname_downlevel.obj
 0002:00006860       ??_C@_1M@PGKJFFGL@?$AAe?$AAs?$AA?9?$AAM?$AAX@ 000000018002c860     libucrt:lcidtoname_downlevel.obj
 0002:00006870       ??_C@_1M@DNNANBDC@?$AAf?$AAr?$AA?9?$AAB?$AAE@ 000000018002c870     libucrt:lcidtoname_downlevel.obj
 0002:00006880       ??_C@_1M@HLGMDFHM@?$AAi?$AAt?$AA?9?$AAC?$AAH@ 000000018002c880     libucrt:lcidtoname_downlevel.obj
 0002:00006890       ??_C@_1M@CLLBGJH@?$AAn?$AAl?$AA?9?$AAB?$AAE@ 000000018002c890     libucrt:lcidtoname_downlevel.obj
 0002:000068a0       ??_C@_1M@BODBOGLF@?$AAn?$AAn?$AA?9?$AAN?$AAO@ 000000018002c8a0     libucrt:lcidtoname_downlevel.obj
 0002:000068b0       ??_C@_1M@HFFAHKAD@?$AAp?$AAt?$AA?9?$AAP?$AAT@ 000000018002c8b0     libucrt:lcidtoname_downlevel.obj
 0002:000068c0       ??_C@_1BG@LNOAKHIE@?$AAs?$AAr?$AA?9?$AAS?$AAP?$AA?9?$AAL?$AAa?$AAt?$AAn@ 000000018002c8c0     libucrt:lcidtoname_downlevel.obj
 0002:000068d8       ??_C@_1M@HBMHBGAK@?$AAs?$AAv?$AA?9?$AAF?$AAI@ 000000018002c8d8     libucrt:lcidtoname_downlevel.obj
 0002:000068e8       ??_C@_1BG@DGCJGJBE@?$AAa?$AAz?$AA?9?$AAA?$AAZ?$AA?9?$AAC?$AAy?$AAr?$AAl@ 000000018002c8e8     libucrt:lcidtoname_downlevel.obj
 0002:00006900       ??_C@_1M@KEJDAAHB@?$AAs?$AAe?$AA?9?$AAS?$AAE@ 000000018002c900     libucrt:lcidtoname_downlevel.obj
 0002:00006910       ??_C@_1M@HEIBJJAD@?$AAm?$AAs?$AA?9?$AAB?$AAN@ 000000018002c910     libucrt:lcidtoname_downlevel.obj
 0002:00006920       ??_C@_1BG@PBGJMCEM@?$AAu?$AAz?$AA?9?$AAU?$AAZ?$AA?9?$AAC?$AAy?$AAr?$AAl@ 000000018002c920     libucrt:lcidtoname_downlevel.obj
 0002:00006938       ??_C@_1O@LAOBCMDF@?$AAq?$AAu?$AAz?$AA?9?$AAE?$AAC@ 000000018002c938     libucrt:lcidtoname_downlevel.obj
 0002:00006948       ??_C@_1M@POEEMAIO@?$AAa?$AAr?$AA?9?$AAE?$AAG@ 000000018002c948     libucrt:lcidtoname_downlevel.obj
 0002:00006958       ??_C@_1M@EFAKDEDL@?$AAz?$AAh?$AA?9?$AAH?$AAK@ 000000018002c958     libucrt:lcidtoname_downlevel.obj
 0002:00006968       ??_C@_1M@HKKIJHGI@?$AAd?$AAe?$AA?9?$AAA?$AAT@ 000000018002c968     libucrt:lcidtoname_downlevel.obj
 0002:00006978       ??_C@_1M@KBFBEHJF@?$AAe?$AAn?$AA?9?$AAA?$AAU@ 000000018002c978     libucrt:lcidtoname_downlevel.obj
 0002:00006988       ??_C@_1M@MNPLFAAH@?$AAe?$AAs?$AA?9?$AAE?$AAS@ 000000018002c988     libucrt:lcidtoname_downlevel.obj
 0002:00006998       ??_C@_1M@HJOOJFMA@?$AAf?$AAr?$AA?9?$AAC?$AAA@ 000000018002c998     libucrt:lcidtoname_downlevel.obj
 0002:000069a8       ??_C@_1BG@JPOFPNAB@?$AAs?$AAr?$AA?9?$AAS?$AAP?$AA?9?$AAC?$AAy?$AAr?$AAl@ 000000018002c9a8     libucrt:lcidtoname_downlevel.obj
 0002:000069c0       ??_C@_1M@LNFOCMOB@?$AAs?$AAe?$AA?9?$AAF?$AAI@ 000000018002c9c0     libucrt:lcidtoname_downlevel.obj
 0002:000069d0       ??_C@_1O@MGJBOAMB@?$AAq?$AAu?$AAz?$AA?9?$AAP?$AAE@ 000000018002c9d0     libucrt:lcidtoname_downlevel.obj
 0002:000069e0       ??_C@_1M@GJINLBOK@?$AAa?$AAr?$AA?9?$AAL?$AAY@ 000000018002c9e0     libucrt:lcidtoname_downlevel.obj
 0002:000069f0       ??_C@_1M@GGMNHJNL@?$AAz?$AAh?$AA?9?$AAS?$AAG@ 000000018002c9f0     libucrt:lcidtoname_downlevel.obj
 0002:00006a00       ??_C@_1M@HOIKODND@?$AAd?$AAe?$AA?9?$AAL?$AAU@ 000000018002ca00     libucrt:lcidtoname_downlevel.obj
 0002:00006a10       ??_C@_1M@DDOCCGFG@?$AAe?$AAn?$AA?9?$AAC?$AAA@ 000000018002ca10     libucrt:lcidtoname_downlevel.obj
 0002:00006a20       ??_C@_1M@BNOEMJLF@?$AAe?$AAs?$AA?9?$AAG?$AAT@ 000000018002ca20     libucrt:lcidtoname_downlevel.obj
 0002:00006a30       ??_C@_1M@EOGNKEK@?$AAf?$AAr?$AA?9?$AAC?$AAH@ 000000018002ca30     libucrt:lcidtoname_downlevel.obj
 0002:00006a40       ??_C@_1M@FLIDJFHL@?$AAh?$AAr?$AA?9?$AAB?$AAA@ 000000018002ca40     libucrt:lcidtoname_downlevel.obj
 0002:00006a50       ??_C@_1O@FMCELNAJ@?$AAs?$AAm?$AAj?$AA?9?$AAN?$AAO@ 000000018002ca50     libucrt:lcidtoname_downlevel.obj
 0002:00006a60       ??_C@_1M@JHGLJMGJ@?$AAa?$AAr?$AA?9?$AAD?$AAZ@ 000000018002ca60     libucrt:lcidtoname_downlevel.obj
 0002:00006a70       ??_C@_1M@JKKFDCNP@?$AAz?$AAh?$AA?9?$AAM?$AAO@ 000000018002ca70     libucrt:lcidtoname_downlevel.obj
 0002:00006a80       ??_C@_1M@GEEFALPE@?$AAd?$AAe?$AA?9?$AAL?$AAI@ 000000018002ca80     libucrt:lcidtoname_downlevel.obj
 0002:00006a90       ??_C@_1M@IGEOFBG@?$AAe?$AAn?$AA?9?$AAN?$AAZ@ 000000018002ca90     libucrt:lcidtoname_downlevel.obj
 0002:00006aa0       ??_C@_1M@KDBONEHP@?$AAe?$AAs?$AA?9?$AAC?$AAR@ 000000018002caa0     libucrt:lcidtoname_downlevel.obj
 0002:00006ab0       ??_C@_1M@FHMDOHNN@?$AAf?$AAr?$AA?9?$AAL?$AAU@ 000000018002cab0     libucrt:lcidtoname_downlevel.obj
 0002:00006ac0       ??_C@_1BG@NFKKMAFG@?$AAb?$AAs?$AA?9?$AAB?$AAA?$AA?9?$AAL?$AAa?$AAt?$AAn@ 000000018002cac0     libucrt:lcidtoname_downlevel.obj
 0002:00006ad8       ??_C@_1O@IMNBEMCI@?$AAs?$AAm?$AAj?$AA?9?$AAS?$AAE@ 000000018002cad8     libucrt:lcidtoname_downlevel.obj
 0002:00006ae8       ??_C@_1M@DHHMBNDP@?$AAa?$AAr?$AA?9?$AAM?$AAA@ 000000018002cae8     libucrt:lcidtoname_downlevel.obj
 0002:00006af8       ??_C@_1M@BNBLJCGH@?$AAe?$AAn?$AA?9?$AAI?$AAE@ 000000018002caf8     libucrt:lcidtoname_downlevel.obj
 0002:00006b08       ??_C@_1M@GEPAFMDL@?$AAe?$AAs?$AA?9?$AAP?$AAA@ 000000018002cb08     libucrt:lcidtoname_downlevel.obj
 0002:00006b18       ??_C@_1M@OJONDMDL@?$AAf?$AAr?$AA?9?$AAM?$AAC@ 000000018002cb18     libucrt:lcidtoname_downlevel.obj
 0002:00006b28       ??_C@_1BG@OBCNFJB@?$AAs?$AAr?$AA?9?$AAB?$AAA?$AA?9?$AAL?$AAa?$AAt?$AAn@ 000000018002cb28     libucrt:lcidtoname_downlevel.obj
 0002:00006b40       ??_C@_1O@KEMEEGPO@?$AAs?$AAm?$AAa?$AA?9?$AAN?$AAO@ 000000018002cb40     libucrt:lcidtoname_downlevel.obj
 0002:00006b50       ??_C@_1M@ELMGFODK@?$AAa?$AAr?$AA?9?$AAT?$AAN@ 000000018002cb50     libucrt:lcidtoname_downlevel.obj
 0002:00006b60       ??_C@_1M@BHDLHFAF@?$AAe?$AAn?$AA?9?$AAZ?$AAA@ 000000018002cb60     libucrt:lcidtoname_downlevel.obj
 0002:00006b70       ??_C@_1M@BMGIGLIF@?$AAe?$AAs?$AA?9?$AAD?$AAO@ 000000018002cb70     libucrt:lcidtoname_downlevel.obj
 0002:00006b80       ??_C@_1BG@CMBHIPBE@?$AAs?$AAr?$AA?9?$AAB?$AAA?$AA?9?$AAC?$AAy?$AAr?$AAl@ 000000018002cb80     libucrt:lcidtoname_downlevel.obj
 0002:00006b98       ??_C@_1O@HEDBLHNP@?$AAs?$AAm?$AAa?$AA?9?$AAS?$AAE@ 000000018002cb98     libucrt:lcidtoname_downlevel.obj
 0002:00006ba8       ??_C@_1M@DAGCADIM@?$AAa?$AAr?$AA?9?$AAO?$AAM@ 000000018002cba8     libucrt:lcidtoname_downlevel.obj
 0002:00006bb8       ??_C@_1M@FODLMICG@?$AAe?$AAn?$AA?9?$AAJ?$AAM@ 000000018002cbb8     libucrt:lcidtoname_downlevel.obj
 0002:00006bc8       ??_C@_1M@DNMLCIHB@?$AAe?$AAs?$AA?9?$AAV?$AAE@ 000000018002cbc8     libucrt:lcidtoname_downlevel.obj
 0002:00006bd8       ??_C@_1O@EOKHMKJK@?$AAs?$AAm?$AAs?$AA?9?$AAF?$AAI@ 000000018002cbd8     libucrt:lcidtoname_downlevel.obj
 0002:00006be8       ??_C@_1M@CAFJMKOF@?$AAa?$AAr?$AA?9?$AAY?$AAE@ 000000018002cbe8     libucrt:lcidtoname_downlevel.obj
 0002:00006bf8       ??_C@_1M@CBFHIJLI@?$AAe?$AAn?$AA?9?$AAC?$AAB@ 000000018002cbf8     libucrt:lcidtoname_downlevel.obj
 0002:00006c08       ??_C@_1M@BGNFLDN@?$AAe?$AAs?$AA?9?$AAC?$AAO@ 000000018002cc08     libucrt:lcidtoname_downlevel.obj
 0002:00006c18       ??_C@_1O@JMPHMAMC@?$AAs?$AAm?$AAn?$AA?9?$AAF?$AAI@ 000000018002cc18     libucrt:lcidtoname_downlevel.obj
 0002:00006c28       ??_C@_1M@JLANABKE@?$AAa?$AAr?$AA?9?$AAS?$AAY@ 000000018002cc28     libucrt:lcidtoname_downlevel.obj
 0002:00006c38       ??_C@_1M@HPKGCFGN@?$AAe?$AAn?$AA?9?$AAB?$AAZ@ 000000018002cc38     libucrt:lcidtoname_downlevel.obj
 0002:00006c48       ??_C@_1M@OLJCMLGM@?$AAe?$AAs?$AA?9?$AAP?$AAE@ 000000018002cc48     libucrt:lcidtoname_downlevel.obj
 0002:00006c58       ??_C@_1M@MKKGFKLE@?$AAa?$AAr?$AA?9?$AAJ?$AAO@ 000000018002cc58     libucrt:lcidtoname_downlevel.obj
 0002:00006c68       ??_C@_1M@EKPGLDNI@?$AAe?$AAn?$AA?9?$AAT?$AAT@ 000000018002cc68     libucrt:lcidtoname_downlevel.obj
 0002:00006c78       ??_C@_1M@OONGHFHE@?$AAe?$AAs?$AA?9?$AAA?$AAR@ 000000018002cc78     libucrt:lcidtoname_downlevel.obj
 0002:00006c88       ??_C@_1M@OOJFGBHE@?$AAa?$AAr?$AA?9?$AAL?$AAB@ 000000018002cc88     libucrt:lcidtoname_downlevel.obj
 0002:00006c98       ??_C@_1M@GCEJHNEG@?$AAe?$AAn?$AA?9?$AAZ?$AAW@ 000000018002cc98     libucrt:lcidtoname_downlevel.obj
 0002:00006ca8       ??_C@_1M@JNOCAHJI@?$AAe?$AAs?$AA?9?$AAE?$AAC@ 000000018002cca8     libucrt:lcidtoname_downlevel.obj
 0002:00006cb8       ??_C@_1M@JEFHPGGB@?$AAa?$AAr?$AA?9?$AAK?$AAW@ 000000018002ccb8     libucrt:lcidtoname_downlevel.obj
 0002:00006cc8       ??_C@_1M@MLKIBJOJ@?$AAe?$AAn?$AA?9?$AAP?$AAH@ 000000018002ccc8     libucrt:lcidtoname_downlevel.obj
 0002:00006cd8       ??_C@_1M@BDNIPEND@?$AAe?$AAs?$AA?9?$AAC?$AAL@ 000000018002ccd8     libucrt:lcidtoname_downlevel.obj
 0002:00006ce8       ??_C@_1M@MPNMEKBD@?$AAa?$AAr?$AA?9?$AAA?$AAE@ 000000018002cce8     libucrt:lcidtoname_downlevel.obj
 0002:00006cf8       ??_C@_1M@KBJALCPI@?$AAe?$AAs?$AA?9?$AAU?$AAY@ 000000018002ccf8     libucrt:lcidtoname_downlevel.obj
 0002:00006d08       ??_C@_1M@LLCCOAGA@?$AAa?$AAr?$AA?9?$AAB?$AAH@ 000000018002cd08     libucrt:lcidtoname_downlevel.obj
 0002:00006d18       ??_C@_1M@PBFNCDEL@?$AAe?$AAs?$AA?9?$AAP?$AAY@ 000000018002cd18     libucrt:lcidtoname_downlevel.obj
 0002:00006d28       ??_C@_1M@EDGINPNP@?$AAa?$AAr?$AA?9?$AAQ?$AAA@ 000000018002cd28     libucrt:lcidtoname_downlevel.obj
 0002:00006d38       ??_C@_1M@MKDBIIJI@?$AAe?$AAs?$AA?9?$AAB?$AAO@ 000000018002cd38     libucrt:lcidtoname_downlevel.obj
 0002:00006d48       ??_C@_1M@CPKKEBLD@?$AAe?$AAs?$AA?9?$AAS?$AAV@ 000000018002cd48     libucrt:lcidtoname_downlevel.obj
 0002:00006d58       ??_C@_1M@NDBGMMJL@?$AAe?$AAs?$AA?9?$AAH?$AAN@ 000000018002cd58     libucrt:lcidtoname_downlevel.obj
 0002:00006d68       ??_C@_1M@JIJIBHDP@?$AAe?$AAs?$AA?9?$AAN?$AAI@ 000000018002cd68     libucrt:lcidtoname_downlevel.obj
 0002:00006d78       ??_C@_1M@CGFMKEEK@?$AAe?$AAs?$AA?9?$AAP?$AAR@ 000000018002cd78     libucrt:lcidtoname_downlevel.obj
 0002:00006d88       ??_C@_1O@ICJHKIIK@?$AAz?$AAh?$AA?9?$AAC?$AAH?$AAT@ 000000018002cd88     libucrt:lcidtoname_downlevel.obj
 0002:00006d98       ??_C@_15CLNEJCE@?$AAs?$AAr@ 000000018002cd98     libucrt:lcidtoname_downlevel.obj
 0002:00007be0       ??_C@_1M@KAHEKEIG@?$AAa?$AAf?$AA?9?$AAz?$AAa@ 000000018002dbe0     libucrt:lcidtoname_downlevel.obj
 0002:00007bf0       ??_C@_1M@GIECOABL@?$AAa?$AAr?$AA?9?$AAa?$AAe@ 000000018002dbf0     libucrt:lcidtoname_downlevel.obj
 0002:00007c00       ??_C@_1M@BMLMEKGI@?$AAa?$AAr?$AA?9?$AAb?$AAh@ 000000018002dc00     libucrt:lcidtoname_downlevel.obj
 0002:00007c10       ??_C@_1M@DAPFDGGB@?$AAa?$AAr?$AA?9?$AAd?$AAz@ 000000018002dc10     libucrt:lcidtoname_downlevel.obj
 0002:00007c20       ??_C@_1M@FJNKGKIG@?$AAa?$AAr?$AA?9?$AAe?$AAg@ 000000018002dc20     libucrt:lcidtoname_downlevel.obj
 0002:00007c30       ??_C@_1M@FLGKKCLO@?$AAa?$AAr?$AA?9?$AAi?$AAq@ 000000018002dc30     libucrt:lcidtoname_downlevel.obj
 0002:00007c40       ??_C@_1M@GNDIPALM@?$AAa?$AAr?$AA?9?$AAj?$AAo@ 000000018002dc40     libucrt:lcidtoname_downlevel.obj
 0002:00007c50       ??_C@_1M@DDMJFMGJ@?$AAa?$AAr?$AA?9?$AAk?$AAw@ 000000018002dc50     libucrt:lcidtoname_downlevel.obj
 0002:00007c60       ??_C@_1M@EJALMLHM@?$AAa?$AAr?$AA?9?$AAl?$AAb@ 000000018002dc60     libucrt:lcidtoname_downlevel.obj
 0002:00007c70       ??_C@_1M@MOBDBLOC@?$AAa?$AAr?$AA?9?$AAl?$AAy@ 000000018002dc70     libucrt:lcidtoname_downlevel.obj
 0002:00007c80       ??_C@_1M@JAOCLHDH@?$AAa?$AAr?$AA?9?$AAm?$AAa@ 000000018002dc80     libucrt:lcidtoname_downlevel.obj
 0002:00007c90       ??_C@_1M@JHPMKJIE@?$AAa?$AAr?$AA?9?$AAo?$AAm@ 000000018002dc90     libucrt:lcidtoname_downlevel.obj
 0002:00007ca0       ??_C@_1M@OEPGHFNH@?$AAa?$AAr?$AA?9?$AAq?$AAa@ 000000018002dca0     libucrt:lcidtoname_downlevel.obj
 0002:00007cb0       ??_C@_1M@KJDONENM@?$AAa?$AAr?$AA?9?$AAs?$AAa@ 000000018002dcb0     libucrt:lcidtoname_downlevel.obj
 0002:00007cc0       ??_C@_1M@DMJDKLKM@?$AAa?$AAr?$AA?9?$AAs?$AAy@ 000000018002dcc0     libucrt:lcidtoname_downlevel.obj
 0002:00007cd0       ??_C@_1M@OMFIPEDC@?$AAa?$AAr?$AA?9?$AAt?$AAn@ 000000018002dcd0     libucrt:lcidtoname_downlevel.obj
 0002:00007ce0       ??_C@_1M@IHMHGAON@?$AAa?$AAr?$AA?9?$AAy?$AAe@ 000000018002dce0     libucrt:lcidtoname_downlevel.obj
 0002:00007cf0       ??_C@_1BG@KDCPGJGB@?$AAa?$AAz?$AA?9?$AAa?$AAz?$AA?9?$AAc?$AAy?$AAr?$AAl@ 000000018002dcf0     libucrt:lcidtoname_downlevel.obj
 0002:00007d08       ??_C@_1BG@IBCKDDOE@?$AAa?$AAz?$AA?9?$AAa?$AAz?$AA?9?$AAl?$AAa?$AAt?$AAn@ 000000018002dd08     libucrt:lcidtoname_downlevel.obj
 0002:00007d20       ??_C@_1M@EGPFDCPD@?$AAb?$AAe?$AA?9?$AAb?$AAy@ 000000018002dd20     libucrt:lcidtoname_downlevel.obj
 0002:00007d30       ??_C@_1M@PCMGMCGC@?$AAb?$AAg?$AA?9?$AAb?$AAg@ 000000018002dd30     libucrt:lcidtoname_downlevel.obj
 0002:00007d40       ??_C@_1M@BJBMFGOB@?$AAb?$AAn?$AA?9?$AAi?$AAn@ 000000018002dd40     libucrt:lcidtoname_downlevel.obj
 0002:00007d50       ??_C@_1BG@EAKMMACD@?$AAb?$AAs?$AA?9?$AAb?$AAa?$AA?9?$AAl?$AAa?$AAt?$AAn@ 000000018002dd50     libucrt:lcidtoname_downlevel.obj
 0002:00007d68       ??_C@_1M@KGADAODK@?$AAc?$AAa?$AA?9?$AAe?$AAs@ 000000018002dd68     libucrt:lcidtoname_downlevel.obj
 0002:00007d78       ??_C@_1M@COAJPDHI@?$AAc?$AAs?$AA?9?$AAc?$AAz@ 000000018002dd78     libucrt:lcidtoname_downlevel.obj
 0002:00007d88       ??_C@_1M@DHBHFONH@?$AAc?$AAy?$AA?9?$AAg?$AAb@ 000000018002dd88     libucrt:lcidtoname_downlevel.obj
 0002:00007d98       ??_C@_1M@IMGKELGA@?$AAd?$AAa?$AA?9?$AAd?$AAk@ 000000018002dd98     libucrt:lcidtoname_downlevel.obj
 0002:00007da8       ??_C@_1M@NNDGDNGA@?$AAd?$AAe?$AA?9?$AAa?$AAt@ 000000018002dda8     libucrt:lcidtoname_downlevel.obj
 0002:00007db8       ??_C@_1M@IKDBHEEM@?$AAd?$AAe?$AA?9?$AAc?$AAh@ 000000018002ddb8     libucrt:lcidtoname_downlevel.obj
 0002:00007dc8       ??_C@_1M@GFFOJMCJ@?$AAd?$AAe?$AA?9?$AAd?$AAe@ 000000018002ddc8     libucrt:lcidtoname_downlevel.obj
 0002:00007dd8       ??_C@_1M@MDNLKBPM@?$AAd?$AAe?$AA?9?$AAl?$AAi@ 000000018002ddd8     libucrt:lcidtoname_downlevel.obj
 0002:00007de8       ??_C@_1M@NJBEEJNL@?$AAd?$AAe?$AA?9?$AAl?$AAu@ 000000018002dde8     libucrt:lcidtoname_downlevel.obj
 0002:00007df8       ??_C@_1O@GNNELBAP@?$AAd?$AAi?$AAv?$AA?9?$AAm?$AAv@ 000000018002ddf8     libucrt:lcidtoname_downlevel.obj
 0002:00007e08       ??_C@_1M@EJLEOGAE@?$AAe?$AAl?$AA?9?$AAg?$AAr@ 000000018002de08     libucrt:lcidtoname_downlevel.obj
 0002:00007e18       ??_C@_1M@GMPONJN@?$AAe?$AAn?$AA?9?$AAa?$AAu@ 000000018002de18     libucrt:lcidtoname_downlevel.obj
 0002:00007e28       ??_C@_1M@NIDIIPGF@?$AAe?$AAn?$AA?9?$AAb?$AAz@ 000000018002de28     libucrt:lcidtoname_downlevel.obj
 0002:00007e38       ??_C@_1M@JEHMIMFO@?$AAe?$AAn?$AA?9?$AAc?$AAa@ 000000018002de38     libucrt:lcidtoname_downlevel.obj
 0002:00007e48       ??_C@_1M@IGMJCDLA@?$AAe?$AAn?$AA?9?$AAc?$AAb@ 000000018002de48     libucrt:lcidtoname_downlevel.obj
 0002:00007e58       ??_C@_1M@BNFIGBKG@?$AAe?$AAn?$AA?9?$AAg?$AAb@ 000000018002de58     libucrt:lcidtoname_downlevel.obj
 0002:00007e68       ??_C@_1M@LKIFDIGP@?$AAe?$AAn?$AA?9?$AAi?$AAe@ 000000018002de68     libucrt:lcidtoname_downlevel.obj
 0002:00007e78       ??_C@_1M@PJKFGCCO@?$AAe?$AAn?$AA?9?$AAj?$AAm@ 000000018002de78     libucrt:lcidtoname_downlevel.obj
 0002:00007e88       ??_C@_1M@KPPKEPBO@?$AAe?$AAn?$AA?9?$AAn?$AAz@ 000000018002de88     libucrt:lcidtoname_downlevel.obj
 0002:00007e98       ??_C@_1M@GMDGLDOB@?$AAe?$AAn?$AA?9?$AAp?$AAh@ 000000018002de98     libucrt:lcidtoname_downlevel.obj
 0002:00007ea8       ??_C@_1M@ONGIBJNA@?$AAe?$AAn?$AA?9?$AAt?$AAt@ 000000018002dea8     libucrt:lcidtoname_downlevel.obj
 0002:00007eb8       ??_C@_1M@LLODPCMM@?$AAe?$AAn?$AA?9?$AAu?$AAs@ 000000018002deb8     libucrt:lcidtoname_downlevel.obj
 0002:00007ec8       ??_C@_1M@LAKFNPAN@?$AAe?$AAn?$AA?9?$AAz?$AAa@ 000000018002dec8     libucrt:lcidtoname_downlevel.obj
 0002:00007ed8       ??_C@_1M@MFNHNHEO@?$AAe?$AAn?$AA?9?$AAz?$AAw@ 000000018002ded8     libucrt:lcidtoname_downlevel.obj
 0002:00007ee8       ??_C@_1M@EJEINPHM@?$AAe?$AAs?$AA?9?$AAa?$AAr@ 000000018002dee8     libucrt:lcidtoname_downlevel.obj
 0002:00007ef8       ??_C@_1M@GNKPCCJA@?$AAe?$AAs?$AA?9?$AAb?$AAo@ 000000018002def8     libucrt:lcidtoname_downlevel.obj
 0002:00007f08       ??_C@_1M@LEEGFONL@?$AAe?$AAs?$AA?9?$AAc?$AAl@ 000000018002df08     libucrt:lcidtoname_downlevel.obj
 0002:00007f18       ??_C@_1M@KGPDPBDF@?$AAe?$AAs?$AA?9?$AAc?$AAo@ 000000018002df18     libucrt:lcidtoname_downlevel.obj
 0002:00007f28       ??_C@_1M@EIAHOHH@?$AAe?$AAs?$AA?9?$AAc?$AAr@ 000000018002df28     libucrt:lcidtoname_downlevel.obj
 0002:00007f38       ??_C@_1M@LLPGMBIN@?$AAe?$AAs?$AA?9?$AAd?$AAo@ 000000018002df38     libucrt:lcidtoname_downlevel.obj
 0002:00007f48       ??_C@_1M@DKHMKNJA@?$AAe?$AAs?$AA?9?$AAe?$AAc@ 000000018002df48     libucrt:lcidtoname_downlevel.obj
 0002:00007f58       ??_C@_1M@GKGFPKAP@?$AAe?$AAs?$AA?9?$AAe?$AAs@ 000000018002df58     libucrt:lcidtoname_downlevel.obj
 0002:00007f68       ??_C@_1M@LKHKGDLN@?$AAe?$AAs?$AA?9?$AAg?$AAt@ 000000018002df68     libucrt:lcidtoname_downlevel.obj
 0002:00007f78       ??_C@_1M@HEIIGGJD@?$AAe?$AAs?$AA?9?$AAh?$AAn@ 000000018002df78     libucrt:lcidtoname_downlevel.obj
 0002:00007f88       ??_C@_1M@FBDHPPGD@?$AAe?$AAs?$AA?9?$AAm?$AAx@ 000000018002df88     libucrt:lcidtoname_downlevel.obj
 0002:00007f98       ??_C@_1M@DPAGLNDH@?$AAe?$AAs?$AA?9?$AAn?$AAi@ 000000018002df98     libucrt:lcidtoname_downlevel.obj
 0002:00007fa8       ??_C@_1M@MDGOPGDD@?$AAe?$AAs?$AA?9?$AAp?$AAa@ 000000018002dfa8     libucrt:lcidtoname_downlevel.obj
 0002:00007fb8       ??_C@_1M@EMAMGBGE@?$AAe?$AAs?$AA?9?$AAp?$AAe@ 000000018002dfb8     libucrt:lcidtoname_downlevel.obj
 0002:00007fc8       ??_C@_1M@IBMCAOEC@?$AAe?$AAs?$AA?9?$AAp?$AAr@ 000000018002dfc8     libucrt:lcidtoname_downlevel.obj
 0002:00007fd8       ??_C@_1M@FGMDIJED@?$AAe?$AAs?$AA?9?$AAp?$AAy@ 000000018002dfd8     libucrt:lcidtoname_downlevel.obj
 0002:00007fe8       ??_C@_1M@IIDEOLLL@?$AAe?$AAs?$AA?9?$AAs?$AAv@ 000000018002dfe8     libucrt:lcidtoname_downlevel.obj
 0002:00007ff8       ??_C@_1M@GAOBIPA@?$AAe?$AAs?$AA?9?$AAu?$AAy@ 000000018002dff8     libucrt:lcidtoname_downlevel.obj
 0002:00008008       ??_C@_1M@JKFFICHJ@?$AAe?$AAs?$AA?9?$AAv?$AAe@ 000000018002e008     libucrt:lcidtoname_downlevel.obj
 0002:00008018       ??_C@_1M@PNMLOJDF@?$AAe?$AAt?$AA?9?$AAe?$AAe@ 000000018002e018     libucrt:lcidtoname_downlevel.obj
 0002:00008028       ??_C@_1M@GHHLIKEI@?$AAe?$AAu?$AA?9?$AAe?$AAs@ 000000018002e028     libucrt:lcidtoname_downlevel.obj
 0002:00008038       ??_C@_1M@PBNONODE@?$AAf?$AAa?$AA?9?$AAi?$AAr@ 000000018002e038     libucrt:lcidtoname_downlevel.obj
 0002:00008048       ??_C@_1M@JEEHPMIL@?$AAf?$AAi?$AA?9?$AAf?$AAi@ 000000018002e048     libucrt:lcidtoname_downlevel.obj
 0002:00008058       ??_C@_1M@LMDCNDBA@?$AAf?$AAo?$AA?9?$AAf?$AAo@ 000000018002e058     libucrt:lcidtoname_downlevel.obj
 0002:00008068       ??_C@_1M@JKEOHLDK@?$AAf?$AAr?$AA?9?$AAb?$AAe@ 000000018002e068     libucrt:lcidtoname_downlevel.obj
 0002:00008078       ??_C@_1M@NOHADPMI@?$AAf?$AAr?$AA?9?$AAc?$AAa@ 000000018002e078     libucrt:lcidtoname_downlevel.obj
 0002:00008088       ??_C@_1M@KDHIHAEC@?$AAf?$AAr?$AA?9?$AAc?$AAh@ 000000018002e088     libucrt:lcidtoname_downlevel.obj
 0002:00008098       ??_C@_1M@MMBBFGAK@?$AAf?$AAr?$AA?9?$AAf?$AAr@ 000000018002e098     libucrt:lcidtoname_downlevel.obj
 0002:000080a8       ??_C@_1M@PAFNENNF@?$AAf?$AAr?$AA?9?$AAl?$AAu@ 000000018002e0a8     libucrt:lcidtoname_downlevel.obj
 0002:000080b8       ??_C@_1M@EOHDJGDD@?$AAf?$AAr?$AA?9?$AAm?$AAc@ 000000018002e0b8     libucrt:lcidtoname_downlevel.obj
 0002:000080c8       ??_C@_1M@FAPLLOPF@?$AAg?$AAl?$AA?9?$AAe?$AAs@ 000000018002e0c8     libucrt:lcidtoname_downlevel.obj
 0002:000080d8       ??_C@_1M@FOPBFLOO@?$AAg?$AAu?$AA?9?$AAi?$AAn@ 000000018002e0d8     libucrt:lcidtoname_downlevel.obj
 0002:000080e8       ??_C@_1M@KBMCINPM@?$AAh?$AAe?$AA?9?$AAi?$AAl@ 000000018002e0e8     libucrt:lcidtoname_downlevel.obj
 0002:000080f8       ??_C@_1M@BBPHKFPJ@?$AAh?$AAi?$AA?9?$AAi?$AAn@ 000000018002e0f8     libucrt:lcidtoname_downlevel.obj
 0002:00008108       ??_C@_1M@PMBNDPHD@?$AAh?$AAr?$AA?9?$AAb?$AAa@ 000000018002e108     libucrt:lcidtoname_downlevel.obj
 0002:00008118       ??_C@_1M@BPCKOEGE@?$AAh?$AAr?$AA?9?$AAh?$AAr@ 000000018002e118     libucrt:lcidtoname_downlevel.obj
 0002:00008128       ??_C@_1M@GACBMHKE@?$AAh?$AAu?$AA?9?$AAh?$AAu@ 000000018002e128     libucrt:lcidtoname_downlevel.obj
 0002:00008138       ??_C@_1M@MILPAJJC@?$AAh?$AAy?$AA?9?$AAa?$AAm@ 000000018002e138     libucrt:lcidtoname_downlevel.obj
 0002:00008148       ??_C@_1M@BABBICEC@?$AAi?$AAd?$AA?9?$AAi?$AAd@ 000000018002e148     libucrt:lcidtoname_downlevel.obj
 0002:00008158       ??_C@_1M@BIKNHHPF@?$AAi?$AAs?$AA?9?$AAi?$AAs@ 000000018002e158     libucrt:lcidtoname_downlevel.obj
 0002:00008168       ??_C@_1M@NMPCJPHE@?$AAi?$AAt?$AA?9?$AAc?$AAh@ 000000018002e168     libucrt:lcidtoname_downlevel.obj
 0002:00008178       ??_C@_1M@GHKGFEDF@?$AAi?$AAt?$AA?9?$AAi?$AAt@ 000000018002e178     libucrt:lcidtoname_downlevel.obj
 0002:00008188       ??_C@_1M@NIEJCJJA@?$AAj?$AAa?$AA?9?$AAj?$AAp@ 000000018002e188     libucrt:lcidtoname_downlevel.obj
 0002:00008198       ??_C@_1M@JILFNBIM@?$AAk?$AAa?$AA?9?$AAg?$AAe@ 000000018002e198     libucrt:lcidtoname_downlevel.obj
 0002:000081a8       ??_C@_1M@PACPMGPH@?$AAk?$AAk?$AA?9?$AAk?$AAz@ 000000018002e1a8     libucrt:lcidtoname_downlevel.obj
 0002:000081b8       ??_C@_1M@IELFGMHA@?$AAk?$AAn?$AA?9?$AAi?$AAn@ 000000018002e1b8     libucrt:lcidtoname_downlevel.obj
 0002:000081c8       ??_C@_1O@IBBJHCH@?$AAk?$AAo?$AAk?$AA?9?$AAi?$AAn@ 000000018002e1c8     libucrt:lcidtoname_downlevel.obj
 0002:000081d8       ??_C@_1M@DMHAEOGC@?$AAk?$AAo?$AA?9?$AAk?$AAr@ 000000018002e1d8     libucrt:lcidtoname_downlevel.obj
 0002:000081e8       ??_C@_1M@HBAHBIGA@?$AAk?$AAy?$AA?9?$AAk?$AAg@ 000000018002e1e8     libucrt:lcidtoname_downlevel.obj
 0002:000081f8       ??_C@_1M@KPMILCJG@?$AAl?$AAt?$AA?9?$AAl?$AAt@ 000000018002e1f8     libucrt:lcidtoname_downlevel.obj
 0002:00008208       ??_C@_1M@BDEKKCA@?$AAl?$AAv?$AA?9?$AAl?$AAv@ 000000018002e208     libucrt:lcidtoname_downlevel.obj
 0002:00008218       ??_C@_1M@ELCKCCJJ@?$AAm?$AAi?$AA?9?$AAn?$AAz@ 000000018002e218     libucrt:lcidtoname_downlevel.obj
 0002:00008228       ??_C@_1M@CBOOLAPA@?$AAm?$AAk?$AA?9?$AAm?$AAk@ 000000018002e228     libucrt:lcidtoname_downlevel.obj
 0002:00008238       ??_C@_1M@GPHNBJKN@?$AAm?$AAl?$AA?9?$AAi?$AAn@ 000000018002e238     libucrt:lcidtoname_downlevel.obj
 0002:00008248       ??_C@_1M@PABJILIG@?$AAm?$AAn?$AA?9?$AAm?$AAn@ 000000018002e248     libucrt:lcidtoname_downlevel.obj
 0002:00008258       ??_C@_1M@FGBKKIPG@?$AAm?$AAr?$AA?9?$AAi?$AAn@ 000000018002e258     libucrt:lcidtoname_downlevel.obj
 0002:00008268       ??_C@_1M@NDBPDDAL@?$AAm?$AAs?$AA?9?$AAb?$AAn@ 000000018002e268     libucrt:lcidtoname_downlevel.obj
 0002:00008278       ??_C@_1M@OPIHOOPI@?$AAm?$AAs?$AA?9?$AAm?$AAy@ 000000018002e278     libucrt:lcidtoname_downlevel.obj
 0002:00008288       ??_C@_1M@PPDBCNFM@?$AAm?$AAt?$AA?9?$AAm?$AAt@ 000000018002e288     libucrt:lcidtoname_downlevel.obj
 0002:00008298       ??_C@_1M@KDJDKMDD@?$AAn?$AAb?$AA?9?$AAn?$AAo@ 000000018002e298     libucrt:lcidtoname_downlevel.obj
 0002:000082a8       ??_C@_1M@KFCFLMJP@?$AAn?$AAl?$AA?9?$AAb?$AAe@ 000000018002e2a8     libucrt:lcidtoname_downlevel.obj
 0002:000082b8       ??_C@_1M@KPOPDDGO@?$AAn?$AAl?$AA?9?$AAn?$AAl@ 000000018002e2b8     libucrt:lcidtoname_downlevel.obj
 0002:000082c8       ??_C@_1M@LJKPEMLN@?$AAn?$AAn?$AA?9?$AAn?$AAo@ 000000018002e2c8     libucrt:lcidtoname_downlevel.obj
 0002:000082d8       ??_C@_1M@BDGHHBFL@?$AAn?$AAs?$AA?9?$AAz?$AAa@ 000000018002e2d8     libucrt:lcidtoname_downlevel.obj
 0002:000082e8       ??_C@_1M@IDEHOAP@?$AAp?$AAa?$AA?9?$AAi?$AAn@ 000000018002e2e8     libucrt:lcidtoname_downlevel.obj
 0002:000082f8       ??_C@_1M@HDBKGOGH@?$AAp?$AAl?$AA?9?$AAp?$AAl@ 000000018002e2f8     libucrt:lcidtoname_downlevel.obj
 0002:00008308       ??_C@_1M@LJLLCMEH@?$AAp?$AAt?$AA?9?$AAb?$AAr@ 000000018002e308     libucrt:lcidtoname_downlevel.obj
 0002:00008318       ??_C@_1M@NCMONAAL@?$AAp?$AAt?$AA?9?$AAp?$AAt@ 000000018002e318     libucrt:lcidtoname_downlevel.obj
 0002:00008328       ??_C@_1O@EAKMAJDN@?$AAq?$AAu?$AAz?$AA?9?$AAb?$AAo@ 000000018002e328     libucrt:lcidtoname_downlevel.obj
 0002:00008338       ??_C@_1O@BHHPIGDN@?$AAq?$AAu?$AAz?$AA?9?$AAe?$AAc@ 000000018002e338     libucrt:lcidtoname_downlevel.obj
 0002:00008348       ??_C@_1O@GBAPEKMJ@?$AAq?$AAu?$AAz?$AA?9?$AAp?$AAe@ 000000018002e348     libucrt:lcidtoname_downlevel.obj
 0002:00008358       ??_C@_1M@CLGLEFBO@?$AAr?$AAo?$AA?9?$AAr?$AAo@ 000000018002e358     libucrt:lcidtoname_downlevel.obj
 0002:00008368       ??_C@_1M@CEEDODME@?$AAr?$AAu?$AA?9?$AAr?$AAu@ 000000018002e368     libucrt:lcidtoname_downlevel.obj
 0002:00008378       ??_C@_1M@HPKKKMPP@?$AAs?$AAa?$AA?9?$AAi?$AAn@ 000000018002e378     libucrt:lcidtoname_downlevel.obj
 0002:00008388       ??_C@_1M@BKMAIGOJ@?$AAs?$AAe?$AA?9?$AAf?$AAi@ 000000018002e388     libucrt:lcidtoname_downlevel.obj
 0002:00008398       ??_C@_1M@NDPIFLFI@?$AAs?$AAe?$AA?9?$AAn?$AAo@ 000000018002e398     libucrt:lcidtoname_downlevel.obj
 0002:000083a8       ??_C@_1M@DANKKHJ@?$AAs?$AAe?$AA?9?$AAs?$AAe@ 000000018002e3a8     libucrt:lcidtoname_downlevel.obj
 0002:000083b8       ??_C@_1M@PNBLONPJ@?$AAs?$AAk?$AA?9?$AAs?$AAk@ 000000018002e3b8     libucrt:lcidtoname_downlevel.obj
 0002:000083c8       ??_C@_1M@LFMODOAL@?$AAs?$AAl?$AA?9?$AAs?$AAi@ 000000018002e3c8     libucrt:lcidtoname_downlevel.obj
 0002:000083d8       ??_C@_1O@DFKOMPG@?$AAs?$AAm?$AAa?$AA?9?$AAn?$AAo@ 000000018002e3d8     libucrt:lcidtoname_downlevel.obj
 0002:000083e8       ??_C@_1O@NDKPBNNH@?$AAs?$AAm?$AAa?$AA?9?$AAs?$AAe@ 000000018002e3e8     libucrt:lcidtoname_downlevel.obj
 0002:000083f8       ??_C@_1O@PLLKBHAB@?$AAs?$AAm?$AAj?$AA?9?$AAn?$AAo@ 000000018002e3f8     libucrt:lcidtoname_downlevel.obj
 0002:00008408       ??_C@_1O@CLEPOGCA@?$AAs?$AAm?$AAj?$AA?9?$AAs?$AAe@ 000000018002e408     libucrt:lcidtoname_downlevel.obj
 0002:00008418       ??_C@_1O@DLGJGKMK@?$AAs?$AAm?$AAn?$AA?9?$AAf?$AAi@ 000000018002e418     libucrt:lcidtoname_downlevel.obj
 0002:00008428       ??_C@_1O@OJDJGAJC@?$AAs?$AAm?$AAs?$AA?9?$AAf?$AAi@ 000000018002e428     libucrt:lcidtoname_downlevel.obj
 0002:00008438       ??_C@_1M@BOFOGHPB@?$AAs?$AAq?$AA?9?$AAa?$AAl@ 000000018002e438     libucrt:lcidtoname_downlevel.obj
 0002:00008448       ??_C@_1BG@LJBBIPGB@?$AAs?$AAr?$AA?9?$AAb?$AAa?$AA?9?$AAc?$AAy?$AAr?$AAl@ 000000018002e448     libucrt:lcidtoname_downlevel.obj
 0002:00008460       ??_C@_1BG@JLBENFOE@?$AAs?$AAr?$AA?9?$AAb?$AAa?$AA?9?$AAl?$AAa?$AAt?$AAn@ 000000018002e460     libucrt:lcidtoname_downlevel.obj
 0002:00008478       ??_C@_1BG@KODPNHE@?$AAs?$AAr?$AA?9?$AAs?$AAp?$AA?9?$AAc?$AAy?$AAr?$AAl@ 000000018002e478     libucrt:lcidtoname_downlevel.obj
 0002:00008490       ??_C@_1BG@CIOGKHPB@?$AAs?$AAr?$AA?9?$AAs?$AAp?$AA?9?$AAl?$AAa?$AAt?$AAn@ 000000018002e490     libucrt:lcidtoname_downlevel.obj
 0002:000084a8       ??_C@_1M@NGFJLMAC@?$AAs?$AAv?$AA?9?$AAf?$AAi@ 000000018002e4a8     libucrt:lcidtoname_downlevel.obj
 0002:000084b8       ??_C@_1M@MPJEJAJC@?$AAs?$AAv?$AA?9?$AAs?$AAe@ 000000018002e4b8     libucrt:lcidtoname_downlevel.obj
 0002:000084c8       ??_C@_1M@MPNDHLFK@?$AAs?$AAw?$AA?9?$AAk?$AAe@ 000000018002e4c8     libucrt:lcidtoname_downlevel.obj
 0002:000084d8       ??_C@_1O@KOHBJJI@?$AAs?$AAy?$AAr?$AA?9?$AAs?$AAy@ 000000018002e4d8     libucrt:lcidtoname_downlevel.obj
 0002:000084e8       ??_C@_1M@LDCEFHA@?$AAt?$AAa?$AA?9?$AAi?$AAn@ 000000018002e4e8     libucrt:lcidtoname_downlevel.obj
 0002:000084f8       ??_C@_1M@CNJOFAK@?$AAt?$AAe?$AA?9?$AAi?$AAn@ 000000018002e4f8     libucrt:lcidtoname_downlevel.obj
 0002:00008508       ??_C@_1M@GNAECACD@?$AAt?$AAh?$AA?9?$AAt?$AAh@ 000000018002e508     libucrt:lcidtoname_downlevel.obj
 0002:00008518       ??_C@_1M@CHBIHOJO@?$AAt?$AAn?$AA?9?$AAz?$AAa@ 000000018002e518     libucrt:lcidtoname_downlevel.obj
 0002:00008528       ??_C@_1M@GCCMIGPJ@?$AAt?$AAr?$AA?9?$AAt?$AAr@ 000000018002e528     libucrt:lcidtoname_downlevel.obj
 0002:00008538       ??_C@_1M@CELMCNBK@?$AAt?$AAt?$AA?9?$AAr?$AAu@ 000000018002e538     libucrt:lcidtoname_downlevel.obj
 0002:00008548       ??_C@_1M@KLMCELGA@?$AAu?$AAk?$AA?9?$AAu?$AAa@ 000000018002e548     libucrt:lcidtoname_downlevel.obj
 0002:00008558       ??_C@_1M@EPAJJAJF@?$AAu?$AAr?$AA?9?$AAp?$AAk@ 000000018002e558     libucrt:lcidtoname_downlevel.obj
 0002:00008568       ??_C@_1BG@GEGPMCDJ@?$AAu?$AAz?$AA?9?$AAu?$AAz?$AA?9?$AAc?$AAy?$AAr?$AAl@ 000000018002e568     libucrt:lcidtoname_downlevel.obj
 0002:00008580       ??_C@_1BG@EGGKJILM@?$AAu?$AAz?$AA?9?$AAu?$AAz?$AA?9?$AAl?$AAa?$AAt?$AAn@ 000000018002e580     libucrt:lcidtoname_downlevel.obj
 0002:00008598       ??_C@_1M@GFOCLFF@?$AAv?$AAi?$AA?9?$AAv?$AAn@ 000000018002e598     libucrt:lcidtoname_downlevel.obj
 0002:000085a8       ??_C@_1M@CPAMEDFI@?$AAx?$AAh?$AA?9?$AAz?$AAa@ 000000018002e5a8     libucrt:lcidtoname_downlevel.obj
 0002:000085b8       ??_C@_1O@EBKIFIGN@?$AAz?$AAh?$AA?9?$AAc?$AAh?$AAs@ 000000018002e5b8     libucrt:lcidtoname_downlevel.obj
 0002:000085c8       ??_C@_1O@NMHPGANE@?$AAz?$AAh?$AA?9?$AAc?$AAh?$AAt@ 000000018002e5c8     libucrt:lcidtoname_downlevel.obj
 0002:000085d8       ??_C@_1M@LPINJOMC@?$AAz?$AAh?$AA?9?$AAc?$AAn@ 000000018002e5d8     libucrt:lcidtoname_downlevel.obj
 0002:000085e8       ??_C@_1M@OCJEJODD@?$AAz?$AAh?$AA?9?$AAh?$AAk@ 000000018002e5e8     libucrt:lcidtoname_downlevel.obj
 0002:000085f8       ??_C@_1M@DNDLJINH@?$AAz?$AAh?$AA?9?$AAm?$AAo@ 000000018002e5f8     libucrt:lcidtoname_downlevel.obj
 0002:00008608       ??_C@_1M@MBFDNDND@?$AAz?$AAh?$AA?9?$AAs?$AAg@ 000000018002e608     libucrt:lcidtoname_downlevel.obj
 0002:00008618       ??_C@_1M@IMEPLEPE@?$AAz?$AAh?$AA?9?$AAt?$AAw@ 000000018002e618     libucrt:lcidtoname_downlevel.obj
 0002:00008628       ??_C@_1M@BBGHNHJP@?$AAz?$AAu?$AA?9?$AAz?$AAa@ 000000018002e628     libucrt:lcidtoname_downlevel.obj
 0002:00008640       ?large_power_data@?1??multiply_by_power_of_ten@__crt_strtox@@YA_NAEAUbig_integer@2@I@Z@4QBIB 000000018002e640     libucrt:cfout.obj
 0002:00008f50       ?large_power_indices@?1??multiply_by_power_of_ten@__crt_strtox@@YA_NAEAUbig_integer@2@I@Z@4QBUunpack_index@?1??12@YA_N0I@Z@B 000000018002ef50     libucrt:cfout.obj
 0002:00008fe8       ?small_powers_of_ten@?1??multiply_by_power_of_ten@__crt_strtox@@YA_NAEAUbig_integer@2@I@Z@4QBIB 000000018002efe8     libucrt:cfout.obj
 0002:0000900c       ??_C@_01GBGANLPD@0@        000000018002f00c     libucrt:cfout.obj
 0002:00009010       ??_C@_05DNEBIAHO@1?$CDINF@ 000000018002f010     libucrt:cfout.obj
 0002:00009018       ??_C@_06IMKFLFPG@1?$CDQNAN@ 000000018002f018     libucrt:cfout.obj
 0002:00009020       ??_C@_06PGGFOGJG@1?$CDSNAN@ 000000018002f020     libucrt:cfout.obj
 0002:00009028       ??_C@_05PHHOCPM@1?$CDIND@  000000018002f028     libucrt:cfout.obj
 0002:00009058       __real@3ff0000000000000    000000018002f058     libucrt:ceil.obj
 0002:000092b0       __log10_256_lead           000000018002f2b0     libucrt:log10_256_lead_tail_table.obj
 0002:00009ac0       __log10_256_tail           000000018002fac0     libucrt:log10_256_lead_tail_table.obj
 0002:0000a2d0       __log_F_inv_qword          00000001800302d0     libucrt:log_f_inv_qword_table.obj
 0002:0000aae0       ??_C@_05HGHHAHAP@log10@    0000000180030ae0     libucrt:log_special.obj
 0002:0000aae8       ??_C@_1BA@BALFACEM@?$AAC?$AAO?$AAN?$AAO?$AAU?$AAT?$AA$@ 0000000180030ae8     libucrt:initcon.obj
 0002:0000ab70       _load_config_used          0000000180030b70     LIBCMT:loadcfg.obj
 0002:0000ad00       _tls_used                  0000000180030d00     LIBCMT:tlssup.obj
 0002:0000ad28       ??_R4exception@std@@6B@    0000000180030d28     LIBCMT:throw_bad_alloc.obj
 0002:0000ad50       ??_R3exception@std@@8      0000000180030d50     LIBCMT:throw_bad_alloc.obj
 0002:0000ad68       ??_R2exception@std@@8      0000000180030d68     LIBCMT:throw_bad_alloc.obj
 0002:0000ad78       ??_R1A@?0A@EA@exception@std@@8 0000000180030d78     LIBCMT:throw_bad_alloc.obj
 0002:0000ada0       ??_R4bad_alloc@std@@6B@    0000000180030da0     LIBCMT:throw_bad_alloc.obj
 0002:0000adc8       ??_R3bad_alloc@std@@8      0000000180030dc8     LIBCMT:throw_bad_alloc.obj
 0002:0000ade0       ??_R2bad_alloc@std@@8      0000000180030de0     LIBCMT:throw_bad_alloc.obj
 0002:0000adf8       ??_R1A@?0A@EA@bad_alloc@std@@8 0000000180030df8     LIBCMT:throw_bad_alloc.obj
 0002:0000ae20       ??_R4bad_array_new_length@std@@6B@ 0000000180030e20     LIBCMT:throw_bad_alloc.obj
 0002:0000ae48       ??_R3bad_array_new_length@std@@8 0000000180030e48     LIBCMT:throw_bad_alloc.obj
 0002:0000ae60       ??_R2bad_array_new_length@std@@8 0000000180030e60     LIBCMT:throw_bad_alloc.obj
 0002:0000ae80       ??_R1A@?0A@EA@bad_array_new_length@std@@8 0000000180030e80     LIBCMT:throw_bad_alloc.obj
 0002:0000aea8       ??_R4type_info@@6B@        0000000180030ea8     LIBCMT:std_type_info_static.obj
 0002:0000aed0       ??_R3type_info@@8          0000000180030ed0     LIBCMT:std_type_info_static.obj
 0002:0000aee8       ??_R2type_info@@8          0000000180030ee8     LIBCMT:std_type_info_static.obj
 0002:0000aef8       ??_R1A@?0A@EA@type_info@@8 0000000180030ef8     LIBCMT:std_type_info_static.obj
 0002:0000af20       ??_R4bad_exception@std@@6B@ 0000000180030f20     libvcruntime:frame.obj
 0002:0000af48       ??_R3bad_exception@std@@8  0000000180030f48     libvcruntime:frame.obj
 0002:0000af60       ??_R2bad_exception@std@@8  0000000180030f60     libvcruntime:frame.obj
 0002:0000af78       ??_R1A@?0A@EA@bad_exception@std@@8 0000000180030f78     libvcruntime:frame.obj
 0002:0000af9c       __volatile_metadata        0000000180030f9c     <linker-defined>
 0002:0000b418       __rtc_iaa                  0000000180031418     LIBCMT:initsect.obj
 0002:0000b420       __rtc_izz                  0000000180031420     LIBCMT:initsect.obj
 0002:0000b428       __rtc_taa                  0000000180031428     LIBCMT:initsect.obj
 0002:0000b430       __rtc_tzz                  0000000180031430     LIBCMT:initsect.obj
 0002:0000b438       _tls_start                 0000000180031438     LIBCMT:tlssup.obj
 0002:0000b43c       _Init_thread_epoch         000000018003143c     LIBCMT:thread_safe_statics.obj
 0002:0000b440       _tls_end                   0000000180031440     LIBCMT:tlssup.obj
 0002:0000cdc8       _TI2?AVbad_alloc@std@@     0000000180032dc8     LIBCMT:throw_bad_alloc.obj
 0002:0000cde8       _CTA2?AVbad_alloc@std@@    0000000180032de8     LIBCMT:throw_bad_alloc.obj
 0002:0000ce00       _CT??_R0?AVbad_alloc@std@@@8??0bad_alloc@std@@QEAA@AEBV01@@Z24 0000000180032e00     LIBCMT:throw_bad_alloc.obj
 0002:0000ce28       _CT??_R0?AVexception@std@@@8??0exception@std@@QEAA@AEBV01@@Z24 0000000180032e28     LIBCMT:throw_bad_alloc.obj
 0002:0000ce50       _TI3?AVbad_array_new_length@std@@ 0000000180032e50     LIBCMT:throw_bad_alloc.obj
 0002:0000ce70       _CTA3?AVbad_array_new_length@std@@ 0000000180032e70     LIBCMT:throw_bad_alloc.obj
 0002:0000ce90       _CT??_R0?AVbad_array_new_length@std@@@8??0bad_array_new_length@std@@QEAA@AEBV01@@Z24 0000000180032e90     LIBCMT:throw_bad_alloc.obj
 0002:0000ceb8       _TI2?AVbad_exception@std@@ 0000000180032eb8     libvcruntime:frame.obj
 0002:0000ced8       _CTA2?AVbad_exception@std@@ 0000000180032ed8     libvcruntime:frame.obj
 0002:0000cef0       _CT??_R0?AVbad_exception@std@@@8??0bad_exception@std@@QEAA@AEBV01@@Z24 0000000180032ef0     libvcruntime:frame.obj
 0002:0000cf18       __pobjMapEntryFirst        0000000180032f18     OposVariant.obj
 0002:0000cf20       __pobjMapEntryLast         0000000180032f20     OposVariant.obj
 0002:0000cfdc       __IMPORT_DESCRIPTOR_KERNEL32 0000000180032fdc     kernel32:KERNEL32.dll
 0002:0000cff0       __IMPORT_DESCRIPTOR_USER32 0000000180032ff0     user32:USER32.dll
 0002:0000d004       __IMPORT_DESCRIPTOR_GDI32  0000000180033004     gdi32:GDI32.dll
 0002:0000d018       __IMPORT_DESCRIPTOR_ADVAPI32 0000000180033018     advapi32:ADVAPI32.dll
 0002:0000d02c       __IMPORT_DESCRIPTOR_ole32  000000018003302c     ole32:ole32.dll
 0002:0000d040       __IMPORT_DESCRIPTOR_OLEAUT32 0000000180033040     oleaut32:OLEAUT32.dll
 0002:0000d054       __NULL_IMPORT_DESCRIPTOR   0000000180033054     kernel32:KERNEL32.dll
 0003:00000000       ?rcDefault@CWindow@ATL@@2UtagRECT@@A 0000000180035000     RFIDScanner.obj
 0003:00000010       ?s_Claim@?7??GetIDsOfNames@CComTypeInfoHolder@ATL@@QEAAJAEBU_GUID@@PEAPEA_WIKPEAJ@Z@4PA_WA 0000000180035010     RFIDScanner.obj
 0003:00000028       ?s_Release@?7??GetIDsOfNames@CComTypeInfoHolder@ATL@@QEAAJAEBU_GUID@@PEAPEA_WIKPEAJ@Z@4PA_WA 0000000180035028     RFIDScanner.obj
 0003:00000048       ?_tih@?$IDispatchImpl@UIOPOSRFIDScanner@@$1?IID_IOPOSRFIDScanner@@3U_GUID@@B$1?LIBID_OposRFIDScanner_CCO@@3U3@B$00$0A@VCComTypeInfoHolder@ATL@@@ATL@@1VCComTypeInfoHolder@2@A 0000000180035048     RFIDScanner.obj
 0003:00000080       ?_tih@?$IProvideClassInfo2Impl@$1?CLSID_OPOSRFIDScanner@@3U_GUID@@B$1?DIID__IOPOSRFIDScannerEvents@@3U2@B$1?LIBID_OposRFIDScanner_CCO@@3U2@B$00$0A@VCComTypeInfoHolder@ATL@@@ATL@@1VCComTypeInfoHolder@2@A 0000000180035080     RFIDScanner.obj
 0003:000000b8       ?vszContents@?6??Save@?$IPersistStorageImpl@VCOPOSRFIDScanner@@@ATL@@UEAAJPEAUIStorage@@H@Z@4PEB_WEB 00000001800350b8     RFIDScanner.obj
 0003:000000c0       ?wc@?1??GetWndClassInfo@?$CWindowImpl@VCOPOSRFIDScanner@@VCWindow@ATL@@V?$CWinTraits@$0FGAAAAAA@$0A@@3@@ATL@@SAAEAU_ATL_WNDCLASSINFOW@3@XZ@4U43@A 00000001800350c0     RFIDScanner.obj
 0003:00000250       ?g_WindowName@@3PA_WA      0000000180035250     RFIDScannerImpl.obj
 0003:00000280       ?g_ControlDescription@@3PADA 0000000180035280     RFIDScannerImpl.obj
 0003:000002cc       ?g_ControlVersion@@3JA     00000001800352cc     RFIDScannerImpl.obj
 0003:000003c4       __scrt_native_dllmain_reason 00000001800353c4     LIBCMT:utility.obj
 0003:000003c8       _Init_global_epoch         00000001800353c8     LIBCMT:thread_safe_statics.obj
 0003:000003d0       __security_cookie          00000001800353d0     LIBCMT:gs_cookie.obj
 0003:000003d8       __security_cookie_complement 00000001800353d8     LIBCMT:gs_cookie.obj
 0003:000003e0       __isa_available            00000001800353e0     LIBCMT:cpu_disp.obj
 0003:000003e4       __isa_enabled              00000001800353e4     LIBCMT:cpu_disp.obj
 0003:000003e8       __memcpy_nt_iters          00000001800353e8     LIBCMT:cpu_disp.obj
 0003:000003f0       __memset_nt_iters          00000001800353f0     LIBCMT:cpu_disp.obj
 0003:00000418       __abort_behavior           0000000180035418     libucrt:abort.obj
 0003:00000430       __acrt_initial_locale_data 0000000180035430     libucrt:nlsdata.obj
 0003:00000588       __acrt_initial_locale_pointers 0000000180035588     libucrt:nlsdata.obj
 0003:00000598       __acrt_wide_c_locale_string 0000000180035598     libucrt:nlsdata.obj
 0003:000005a0       _iob                       00000001800355a0     libucrt:_file.obj
 0003:000006b0       __acrt_initial_multibyte_data 00000001800356b0     libucrt:mbctype.obj
 0003:00000bf0       __acrt_lconv_c             0000000180035bf0     libucrt:localeconv.obj
 0003:00000c88       __acrt_lconv_static_decimal 0000000180035c88     libucrt:localeconv.obj
 0003:00000c8c       __acrt_lconv_static_W_decimal 0000000180035c8c     libucrt:localeconv.obj
 0003:00000c90       __globallocalestatus       0000000180035c90     libucrt:glstatus.obj
 0003:00000ca0       _lookuptrailbytes          0000000180035ca0     libucrt:read.obj
 0003:00000dc4       _fltused                   0000000180035dc4     LIBCMT:fltused.obj
 0003:00000dc8       ??_R0?AVbad_alloc@std@@@8  0000000180035dc8     LIBCMT:throw_bad_alloc.obj
 0003:00000df0       ??_R0?AVexception@std@@@8  0000000180035df0     LIBCMT:throw_bad_alloc.obj
 0003:00000e18       ??_R0?AVbad_array_new_length@std@@@8 0000000180035e18     LIBCMT:throw_bad_alloc.obj
 0003:00000e48       ??_R0?AVbad_exception@std@@@8 0000000180035e48     libvcruntime:frame.obj
 0003:00000e70       ??_R0?AVtype_info@@@8      0000000180035e70     LIBCMT:std_type_info_static.obj
 0003:00000e90       ?m_bInitFailed@CAtlBaseModule@ATL@@2_NA 0000000180035e90     OposVariant.obj
 0003:00000e98       ?_pPerfRegFunc@ATL@@3P6AJPEAUHINSTANCE__@@@ZEA 0000000180035e98     OposVariant.obj
 0003:00000ea0       ?_pPerfUnRegFunc@ATL@@3P6AJXZEA 0000000180035ea0     OposVariant.obj
 0003:00000ea8       ?_AtlRegisterPerUser@ATL@@3_NA 0000000180035ea8     OposVariant.obj
 0003:00000eb0       ?_pAtlModule@ATL@@3PEAVCAtlModule@1@EA 0000000180035eb0     OposVariant.obj
 0003:00000eb8       ?_pModule@ATL@@3PEAVCComModule@1@EA 0000000180035eb8     OposVariant.obj
 0003:00000ec0       ?_AtlComModule@ATL@@3VCAtlComModule@1@A 0000000180035ec0     OposVariant.obj
 0003:00000f10       ?_AtlWinModule@ATL@@3VCAtlWinModule@1@A 0000000180035f10     OposVariant.obj
 0003:00000f58       ?m_libid@CAtlModule@ATL@@2U_GUID@@A 0000000180035f58     RFIDScanner.obj
 0003:00000f68       ?_entries@?1??GetConnMap@COPOSRFIDScanner@@SAPEBU_ATL_CONNMAP_ENTRY@ATL@@PEAH@Z@4QBU34@B 0000000180035f68     RFIDScanner.obj
 0003:00000f80       ?$TSS0@?1??GetConnMap@COPOSRFIDScanner@@SAPEBU_ATL_CONNMAP_ENTRY@ATL@@PEAH@Z@4HA 0000000180035f80     RFIDScanner.obj
 0003:00000f88       ?_OptionsStorage@?1??__local_stdio_printf_options@@9@4_KA 0000000180035f88     RFIDScanner.obj
 0003:00000f90       ?pfnRegDeleteKeyEx@?1??DeleteSubKey@CRegKey@ATL@@QEAAJPEB_W@Z@4P6AJPEAUHKEY__@@0KK@ZEA 0000000180035f90     RFIDScanner.obj
 0003:00000f98       ?bInitialized@?1??DeleteSubKey@CRegKey@ATL@@QEAAJPEB_W@Z@4_NA 0000000180035f98     RFIDScanner.obj
 0003:00000fa0       ?_Module@@3VCComModule@ATL@@A 0000000180035fa0     RFIDScanner.obj
 0003:00000ff0       ?pConnMap@?$IConnectionPointContainerImpl@VCOPOSRFIDScanner@@@ATL@@0PEBU_ATL_CONNMAP_ENTRY@2@EB 0000000180035ff0     RFIDScanner.obj
 0003:00000ff8       ?s_nInstances@COPOSRFIDScanner@@1HA 0000000180035ff8     RFIDScannerImpl.obj
 0003:00001000       __scrt_current_native_startup_state 0000000180036000     LIBCMT:utility.obj
 0003:00001008       __scrt_native_startup_lock 0000000180036008     LIBCMT:utility.obj
 0003:00001600       _tls_index                 0000000180036600     LIBCMT:tlssup.obj
 0003:00001608       __favor                    0000000180036608     LIBCMT:cpu_disp.obj
 0003:0000160c       __scrt_debugger_hook_flag  000000018003660c     LIBCMT:utility_desktop.obj
 0003:00001610       ?__type_info_root_node@@3U__type_info_node@@A 0000000180036610     LIBCMT:tncleanup.obj
 0003:00001620       ?_OptionsStorage@?1??__local_stdio_scanf_options@@9@4_KA 0000000180036620     LIBCMT:default_local_stdio_options.obj
 0003:00001630       ?_AtlBaseModule@ATL@@3VCAtlBaseModule@1@A 0000000180036630     atls:atlbase.obj
 0003:00001690       ?__AtlThunkPool@@3PEAT_SLIST_HEADER@@EA 0000000180036690     atls:atlthunk.obj
 0003:000016bc       __@@_PchSym_@00@UzABUPdlipUCAUhUrmgvinvwrzgvUexgllohUzgohOmzgrevkilqPBACIAJCBDBUlyqiUznwGEUhgwzucOlyq@4B2008FD98C1DD4 00000001800366bc     atls:stdafx.obj
 0003:000016c0       ?__WinRTOutOfMemoryExceptionCallback@@3P6APEAXXZEA 00000001800366c0     libvcruntime:ehhelpers.obj
 0003:000016c8       __pPurecall                00000001800366c8     libvcruntime:purevirt_data.obj
 0003:00001780       ?pArgList@UnDecorator@@0PEAVReplicator@@EA 0000000180036780     libvcruntime:undname.obj
 0003:00001788       ?pZNameList@UnDecorator@@0PEAVReplicator@@EA 0000000180036788     libvcruntime:undname.obj
 0003:00001790       ?pTemplateArgList@UnDecorator@@0PEAVReplicator@@EA 0000000180036790     libvcruntime:undname.obj
 0003:00001798       ?gName@UnDecorator@@0PEBDEB 0000000180036798     libvcruntime:undname.obj
 0003:000017a0       ?name@UnDecorator@@0PEBDEB 00000001800367a0     libvcruntime:undname.obj
 0003:000017a8       ?disableFlags@UnDecorator@@0KA 00000001800367a8     libvcruntime:undname.obj
 0003:000017ac       ?fExplicitTemplateParams@UnDecorator@@0_NA 00000001800367ac     libvcruntime:undname.obj
 0003:000017ad       ?fGetTemplateArgumentList@UnDecorator@@0_NA 00000001800367ad     libvcruntime:undname.obj
 0003:000017b0       ?m_pGetParameter@UnDecorator@@0P6APEADJ@ZEA 00000001800367b0     libvcruntime:undname.obj
 0003:000017b8       ?m_CHPENameOffset@UnDecorator@@0KA 00000001800367b8     libvcruntime:undname.obj
 0003:000017bc       ?m_recursionLevel@UnDecorator@@0KA 00000001800367bc     libvcruntime:undname.obj
 0003:00001840       ?c_exit_complete@?1???R<lambda_6e4b09c48022b2350581041d5f6b0c4c>@@QEBA@XZ@4_NA 0000000180036840     libucrt:exit.obj
 0003:00001958       _environ_table             0000000180036958     libucrt:environment_initialization.obj
 0003:00001960       _wenviron_table            0000000180036960     libucrt:environment_initialization.obj
 0003:00001968       __dcrt_initial_wide_environment 0000000180036968     libucrt:environment_initialization.obj
 0003:00001970       __dcrt_initial_narrow_environment 0000000180036970     libucrt:environment_initialization.obj
 0003:00001978       __acrt_atexit_table        0000000180036978     libucrt:onexit.obj
 0003:00001990       __acrt_at_quick_exit_table 0000000180036990     libucrt:onexit.obj
 0003:000019b0       __acrt_locale_changed_data 00000001800369b0     libucrt:wsetlocale.obj
 0003:000019b8       __acrt_current_locale_data 00000001800369b8     libucrt:nlsdata.obj
 0003:00001b58       _nstream                   0000000180036b58     libucrt:_file.obj
 0003:00001b60       __piob                     0000000180036b60     libucrt:_file.obj
 0003:00001b70       __acrt_stdout_buffer       0000000180036b70     libucrt:_sftbuf.obj
 0003:00001b78       __acrt_stderr_buffer       0000000180036b78     libucrt:_sftbuf.obj
 0003:00001b80       __pioinfo                  0000000180036b80     libucrt:ioinit.obj
 0003:00001f80       _nhandle                   0000000180036f80     libucrt:ioinit.obj
 0003:000021c8       _mbctype                   00000001800371c8     libucrt:mbctype.obj
 0003:000021d0       _mbcasemap                 00000001800371d0     libucrt:mbctype.obj
 0003:000021d8       __acrt_current_multibyte_data 00000001800371d8     libucrt:mbctype.obj
 0003:000021e8       _pgmptr                    00000001800371e8     libucrt:argv_data.obj
 0003:000021f0       __argc                     00000001800371f0     libucrt:argv_data.obj
 0003:000021f8       __argv                     00000001800371f8     libucrt:argv_data.obj
 0003:00002200       __wargv                    0000000180037200     libucrt:argv_data.obj
 0003:00002208       _acmdln                    0000000180037208     libucrt:argv_data.obj
 0003:00002210       _wcmdln                    0000000180037210     libucrt:argv_data.obj
 0003:00002218       __acrt_heap                0000000180037218     libucrt:heap_handle.obj
 0003:00002248       __acrt_lconv_static_null   0000000180037248     libucrt:localeconv.obj
 0003:0000224c       __acrt_lconv_static_W_null 000000018003724c     libucrt:localeconv.obj
 0003:00002264       __fma3_is_available        0000000180037264     libucrt:fma3_available.obj
 0003:00002268       __use_fma3_lib             0000000180037268     libucrt:fma3_available.obj
 0003:00002270       __dyn_tls_init_callback    0000000180037270     <common>
 0003:00002278       __scrt_ucrt_dll_is_in_use  0000000180037278     <common>

 entry point at        0001:0000f580

 Static symbols

 0000:fffbe000       .debug$S                   0000000180000000     OPOSRFIDScanner.exp
 0000:fffbe000       .debug$S                   0000000180000000     advapi32:ADVAPI32.dll
 0000:fffbe000       .debug$S                   0000000180000000     advapi32:ADVAPI32.dll
 0000:fffbe000       .debug$S                   0000000180000000     advapi32:ADVAPI32.dll
 0000:fffbe000       .debug$S                   0000000180000000     advapi32:ADVAPI32.dll
 0000:fffbe000       .debug$S                   0000000180000000     advapi32:ADVAPI32.dll
 0000:fffbe000       .debug$S                   0000000180000000     advapi32:ADVAPI32.dll
 0000:fffbe000       .debug$S                   0000000180000000     advapi32:ADVAPI32.dll
 0000:fffbe000       .debug$S                   0000000180000000     advapi32:ADVAPI32.dll
 0000:fffbe000       .debug$S                   0000000180000000     advapi32:ADVAPI32.dll
 0000:fffbe000       .debug$S                   0000000180000000     gdi32:GDI32.dll
 0000:fffbe000       .debug$S                   0000000180000000     gdi32:GDI32.dll
 0000:fffbe000       .debug$S                   0000000180000000     gdi32:GDI32.dll
 0000:fffbe000       .debug$S                   0000000180000000     gdi32:GDI32.dll
 0000:fffbe000       .debug$S                   0000000180000000     gdi32:GDI32.dll
 0000:fffbe000       .debug$S                   0000000180000000     gdi32:GDI32.dll
 0000:fffbe000       .debug$S                   0000000180000000     gdi32:GDI32.dll
 0000:fffbe000       .debug$S                   0000000180000000     gdi32:GDI32.dll
 0000:fffbe000       .debug$S                   0000000180000000     gdi32:GDI32.dll
 0000:fffbe000       .debug$S                   0000000180000000     gdi32:GDI32.dll
 0000:fffbe000       .debug$S                   0000000180000000     gdi32:GDI32.dll
 0000:fffbe000       .debug$S                   0000000180000000     gdi32:GDI32.dll
 0000:fffbe000       .debug$S                   0000000180000000     gdi32:GDI32.dll
 0000:fffbe000       .debug$S                   0000000180000000     gdi32:GDI32.dll
 0000:fffbe000       .debug$S                   0000000180000000     gdi32:GDI32.dll
 0000:fffbe000       .debug$S                   0000000180000000     gdi32:GDI32.dll
 0000:fffbe000       .debug$S                   0000000180000000     gdi32:GDI32.dll
 0000:fffbe000       .debug$S                   0000000180000000     gdi32:GDI32.dll
 0000:fffbe000       .debug$S                   0000000180000000     gdi32:GDI32.dll
 0000:fffbe000       .debug$S                   0000000180000000     kernel32:KERNEL32.dll
 0000:fffbe000       .debug$S                   0000000180000000     kernel32:KERNEL32.dll
 0000:fffbe000       .debug$S                   0000000180000000     kernel32:KERNEL32.dll
 0000:fffbe000       .debug$S                   0000000180000000     kernel32:KERNEL32.dll
 0000:fffbe000       .debug$S                   0000000180000000     kernel32:KERNEL32.dll
 0000:fffbe000       .debug$S                   0000000180000000     kernel32:KERNEL32.dll
 0000:fffbe000       .debug$S                   0000000180000000     kernel32:KERNEL32.dll
 0000:fffbe000       .debug$S                   0000000180000000     kernel32:KERNEL32.dll
 0000:fffbe000       .debug$S                   0000000180000000     kernel32:KERNEL32.dll
 0000:fffbe000       .debug$S                   0000000180000000     kernel32:KERNEL32.dll
 0000:fffbe000       .debug$S                   0000000180000000     kernel32:KERNEL32.dll
 0000:fffbe000       .debug$S                   0000000180000000     kernel32:KERNEL32.dll
 0000:fffbe000       .debug$S                   0000000180000000     kernel32:KERNEL32.dll
 0000:fffbe000       .debug$S                   0000000180000000     kernel32:KERNEL32.dll
 0000:fffbe000       .debug$S                   0000000180000000     kernel32:KERNEL32.dll
 0000:fffbe000       .debug$S                   0000000180000000     kernel32:KERNEL32.dll
 0000:fffbe000       .debug$S                   0000000180000000     kernel32:KERNEL32.dll
 0000:fffbe000       .debug$S                   0000000180000000     kernel32:KERNEL32.dll
 0000:fffbe000       .debug$S                   0000000180000000     kernel32:KERNEL32.dll
 0000:fffbe000       .debug$S                   0000000180000000     kernel32:KERNEL32.dll
 0000:fffbe000       .debug$S                   0000000180000000     kernel32:KERNEL32.dll
 0000:fffbe000       .debug$S                   0000000180000000     kernel32:KERNEL32.dll
 0000:fffbe000       .debug$S                   0000000180000000     kernel32:KERNEL32.dll
 0000:fffbe000       .debug$S                   0000000180000000     kernel32:KERNEL32.dll
 0000:fffbe000       .debug$S                   0000000180000000     kernel32:KERNEL32.dll
 0000:fffbe000       .debug$S                   0000000180000000     kernel32:KERNEL32.dll
 0000:fffbe000       .debug$S                   0000000180000000     kernel32:KERNEL32.dll
 0000:fffbe000       .debug$S                   0000000180000000     kernel32:KERNEL32.dll
 0000:fffbe000       .debug$S                   0000000180000000     kernel32:KERNEL32.dll
 0000:fffbe000       .debug$S                   0000000180000000     kernel32:KERNEL32.dll
 0000:fffbe000       .debug$S                   0000000180000000     kernel32:KERNEL32.dll
 0000:fffbe000       .debug$S                   0000000180000000     kernel32:KERNEL32.dll
 0000:fffbe000       .debug$S                   0000000180000000     kernel32:KERNEL32.dll
 0000:fffbe000       .debug$S                   0000000180000000     kernel32:KERNEL32.dll
 0000:fffbe000       .debug$S                   0000000180000000     kernel32:KERNEL32.dll
 0000:fffbe000       .debug$S                   0000000180000000     kernel32:KERNEL32.dll
 0000:fffbe000       .debug$S                   0000000180000000     kernel32:KERNEL32.dll
 0000:fffbe000       .debug$S                   0000000180000000     kernel32:KERNEL32.dll
 0000:fffbe000       .debug$S                   0000000180000000     kernel32:KERNEL32.dll
 0000:fffbe000       .debug$S                   0000000180000000     kernel32:KERNEL32.dll
 0000:fffbe000       .debug$S                   0000000180000000     kernel32:KERNEL32.dll
 0000:fffbe000       .debug$S                   0000000180000000     kernel32:KERNEL32.dll
 0000:fffbe000       .debug$S                   0000000180000000     kernel32:KERNEL32.dll
 0000:fffbe000       .debug$S                   0000000180000000     kernel32:KERNEL32.dll
 0000:fffbe000       .debug$S                   0000000180000000     kernel32:KERNEL32.dll
 0000:fffbe000       .debug$S                   0000000180000000     kernel32:KERNEL32.dll
 0000:fffbe000       .debug$S                   0000000180000000     kernel32:KERNEL32.dll
 0000:fffbe000       .debug$S                   0000000180000000     kernel32:KERNEL32.dll
 0000:fffbe000       .debug$S                   0000000180000000     kernel32:KERNEL32.dll
 0000:fffbe000       .debug$S                   0000000180000000     kernel32:KERNEL32.dll
 0000:fffbe000       .debug$S                   0000000180000000     kernel32:KERNEL32.dll
 0000:fffbe000       .debug$S                   0000000180000000     kernel32:KERNEL32.dll
 0000:fffbe000       .debug$S                   0000000180000000     kernel32:KERNEL32.dll
 0000:fffbe000       .debug$S                   0000000180000000     kernel32:KERNEL32.dll
 0000:fffbe000       .debug$S                   0000000180000000     kernel32:KERNEL32.dll
 0000:fffbe000       .debug$S                   0000000180000000     kernel32:KERNEL32.dll
 0000:fffbe000       .debug$S                   0000000180000000     kernel32:KERNEL32.dll
 0000:fffbe000       .debug$S                   0000000180000000     kernel32:KERNEL32.dll
 0000:fffbe000       .debug$S                   0000000180000000     kernel32:KERNEL32.dll
 0000:fffbe000       .debug$S                   0000000180000000     kernel32:KERNEL32.dll
 0000:fffbe000       .debug$S                   0000000180000000     kernel32:KERNEL32.dll
 0000:fffbe000       .debug$S                   0000000180000000     kernel32:KERNEL32.dll
 0000:fffbe000       .debug$S                   0000000180000000     kernel32:KERNEL32.dll
 0000:fffbe000       .debug$S                   0000000180000000     kernel32:KERNEL32.dll
 0000:fffbe000       .debug$S                   0000000180000000     kernel32:KERNEL32.dll
 0000:fffbe000       .debug$S                   0000000180000000     kernel32:KERNEL32.dll
 0000:fffbe000       .debug$S                   0000000180000000     kernel32:KERNEL32.dll
 0000:fffbe000       .debug$S                   0000000180000000     kernel32:KERNEL32.dll
 0000:fffbe000       .debug$S                   0000000180000000     kernel32:KERNEL32.dll
 0000:fffbe000       .debug$S                   0000000180000000     kernel32:KERNEL32.dll
 0000:fffbe000       .debug$S                   0000000180000000     kernel32:KERNEL32.dll
 0000:fffbe000       .debug$S                   0000000180000000     kernel32:KERNEL32.dll
 0000:fffbe000       .debug$S                   0000000180000000     kernel32:KERNEL32.dll
 0000:fffbe000       .debug$S                   0000000180000000     kernel32:KERNEL32.dll
 0000:fffbe000       .debug$S                   0000000180000000     kernel32:KERNEL32.dll
 0000:fffbe000       .debug$S                   0000000180000000     kernel32:KERNEL32.dll
 0000:fffbe000       .debug$S                   0000000180000000     kernel32:KERNEL32.dll
 0000:fffbe000       .debug$S                   0000000180000000     kernel32:KERNEL32.dll
 0000:fffbe000       .debug$S                   0000000180000000     kernel32:KERNEL32.dll
 0000:fffbe000       .debug$S                   0000000180000000     kernel32:KERNEL32.dll
 0000:fffbe000       .debug$S                   0000000180000000     kernel32:KERNEL32.dll
 0000:fffbe000       .debug$S                   0000000180000000     kernel32:KERNEL32.dll
 0000:fffbe000       .debug$S                   0000000180000000     kernel32:KERNEL32.dll
 0000:fffbe000       .debug$S                   0000000180000000     kernel32:KERNEL32.dll
 0000:fffbe000       .debug$S                   0000000180000000     kernel32:KERNEL32.dll
 0000:fffbe000       .debug$S                   0000000180000000     kernel32:KERNEL32.dll
 0000:fffbe000       .debug$S                   0000000180000000     kernel32:KERNEL32.dll
 0000:fffbe000       .debug$S                   0000000180000000     kernel32:KERNEL32.dll
 0000:fffbe000       .debug$S                   0000000180000000     kernel32:KERNEL32.dll
 0000:fffbe000       .debug$S                   0000000180000000     kernel32:KERNEL32.dll
 0000:fffbe000       .debug$S                   0000000180000000     kernel32:KERNEL32.dll
 0000:fffbe000       .debug$S                   0000000180000000     kernel32:KERNEL32.dll
 0000:fffbe000       .debug$S                   0000000180000000     kernel32:KERNEL32.dll
 0000:fffbe000       .debug$S                   0000000180000000     kernel32:KERNEL32.dll
 0000:fffbe000       .debug$S                   0000000180000000     kernel32:KERNEL32.dll
 0000:fffbe000       .debug$S                   0000000180000000     kernel32:KERNEL32.dll
 0000:fffbe000       .debug$S                   0000000180000000     kernel32:KERNEL32.dll
 0000:fffbe000       .debug$S                   0000000180000000     kernel32:KERNEL32.dll
 0000:fffbe000       .debug$S                   0000000180000000     kernel32:KERNEL32.dll
 0000:fffbe000       .debug$S                   0000000180000000     kernel32:KERNEL32.dll
 0000:fffbe000       .debug$S                   0000000180000000     kernel32:KERNEL32.dll
 0000:fffbe000       .debug$S                   0000000180000000     kernel32:KERNEL32.dll
 0000:fffbe000       .debug$S                   0000000180000000     kernel32:KERNEL32.dll
 0000:fffbe000       .debug$S                   0000000180000000     kernel32:KERNEL32.dll
 0000:fffbe000       .debug$S                   0000000180000000     kernel32:KERNEL32.dll
 0000:fffbe000       .debug$S                   0000000180000000     kernel32:KERNEL32.dll
 0000:fffbe000       .debug$S                   0000000180000000     kernel32:KERNEL32.dll
 0000:fffbe000       .debug$S                   0000000180000000     kernel32:KERNEL32.dll
 0000:fffbe000       .debug$S                   0000000180000000     kernel32:KERNEL32.dll
 0000:fffbe000       .debug$S                   0000000180000000     kernel32:KERNEL32.dll
 0000:fffbe000       .debug$S                   0000000180000000     kernel32:KERNEL32.dll
 0000:fffbe000       .debug$S                   0000000180000000     kernel32:KERNEL32.dll
 0000:fffbe000       .debug$S                   0000000180000000     kernel32:KERNEL32.dll
 0000:fffbe000       .debug$S                   0000000180000000     kernel32:KERNEL32.dll
 0000:fffbe000       .debug$S                   0000000180000000     kernel32:KERNEL32.dll
 0000:fffbe000       .debug$S                   0000000180000000     ole32:ole32.dll
 0000:fffbe000       .debug$S                   0000000180000000     ole32:ole32.dll
 0000:fffbe000       .debug$S                   0000000180000000     ole32:ole32.dll
 0000:fffbe000       .debug$S                   0000000180000000     ole32:ole32.dll
 0000:fffbe000       .debug$S                   0000000180000000     ole32:ole32.dll
 0000:fffbe000       .debug$S                   0000000180000000     ole32:ole32.dll
 0000:fffbe000       .debug$S                   0000000180000000     ole32:ole32.dll
 0000:fffbe000       .debug$S                   0000000180000000     ole32:ole32.dll
 0000:fffbe000       .debug$S                   0000000180000000     ole32:ole32.dll
 0000:fffbe000       .debug$S                   0000000180000000     ole32:ole32.dll
 0000:fffbe000       .debug$S                   0000000180000000     ole32:ole32.dll
 0000:fffbe000       .debug$S                   0000000180000000     ole32:ole32.dll
 0000:fffbe000       .debug$S                   0000000180000000     ole32:ole32.dll
 0000:fffbe000       .debug$S                   0000000180000000     ole32:ole32.dll
 0000:fffbe000       .debug$S                   0000000180000000     oleaut32:OLEAUT32.dll
 0000:fffbe000       .debug$S                   0000000180000000     oleaut32:OLEAUT32.dll
 0000:fffbe000       .debug$S                   0000000180000000     oleaut32:OLEAUT32.dll
 0000:fffbe000       .debug$S                   0000000180000000     oleaut32:OLEAUT32.dll
 0000:fffbe000       .debug$S                   0000000180000000     oleaut32:OLEAUT32.dll
 0000:fffbe000       .debug$S                   0000000180000000     oleaut32:OLEAUT32.dll
 0000:fffbe000       .debug$S                   0000000180000000     oleaut32:OLEAUT32.dll
 0000:fffbe000       .debug$S                   0000000180000000     oleaut32:OLEAUT32.dll
 0000:fffbe000       .debug$S                   0000000180000000     oleaut32:OLEAUT32.dll
 0000:fffbe000       .debug$S                   0000000180000000     oleaut32:OLEAUT32.dll
 0000:fffbe000       .debug$S                   0000000180000000     oleaut32:OLEAUT32.dll
 0000:fffbe000       .debug$S                   0000000180000000     oleaut32:OLEAUT32.dll
 0000:fffbe000       .debug$S                   0000000180000000     oleaut32:OLEAUT32.dll
 0000:fffbe000       .debug$S                   0000000180000000     oleaut32:OLEAUT32.dll
 0000:fffbe000       .debug$S                   0000000180000000     oleaut32:OLEAUT32.dll
 0000:fffbe000       .debug$S                   0000000180000000     oleaut32:OLEAUT32.dll
 0000:fffbe000       .debug$S                   0000000180000000     user32:USER32.dll
 0000:fffbe000       .debug$S                   0000000180000000     user32:USER32.dll
 0000:fffbe000       .debug$S                   0000000180000000     user32:USER32.dll
 0000:fffbe000       .debug$S                   0000000180000000     user32:USER32.dll
 0000:fffbe000       .debug$S                   0000000180000000     user32:USER32.dll
 0000:fffbe000       .debug$S                   0000000180000000     user32:USER32.dll
 0000:fffbe000       .debug$S                   0000000180000000     user32:USER32.dll
 0000:fffbe000       .debug$S                   0000000180000000     user32:USER32.dll
 0000:fffbe000       .debug$S                   0000000180000000     user32:USER32.dll
 0000:fffbe000       .debug$S                   0000000180000000     user32:USER32.dll
 0000:fffbe000       .debug$S                   0000000180000000     user32:USER32.dll
 0000:fffbe000       .debug$S                   0000000180000000     user32:USER32.dll
 0000:fffbe000       .debug$S                   0000000180000000     user32:USER32.dll
 0000:fffbe000       .debug$S                   0000000180000000     user32:USER32.dll
 0000:fffbe000       .debug$S                   0000000180000000     user32:USER32.dll
 0000:fffbe000       .debug$S                   0000000180000000     user32:USER32.dll
 0000:fffbe000       .debug$S                   0000000180000000     user32:USER32.dll
 0000:fffbe000       .debug$S                   0000000180000000     user32:USER32.dll
 0000:fffbe000       .debug$S                   0000000180000000     user32:USER32.dll
 0000:fffbe000       .debug$S                   0000000180000000     user32:USER32.dll
 0000:fffbe000       .debug$S                   0000000180000000     user32:USER32.dll
 0000:fffbe000       .debug$S                   0000000180000000     user32:USER32.dll
 0000:fffbe000       .debug$S                   0000000180000000     user32:USER32.dll
 0000:fffbe000       .debug$S                   0000000180000000     user32:USER32.dll
 0000:fffbe000       .debug$S                   0000000180000000     user32:USER32.dll
 0000:fffbe000       .debug$S                   0000000180000000     user32:USER32.dll
 0000:fffbe000       .debug$S                   0000000180000000     user32:USER32.dll
 0000:fffbe000       .debug$S                   0000000180000000     user32:USER32.dll
 0000:fffbe000       .debug$S                   0000000180000000     user32:USER32.dll
 0000:fffbe000       .debug$S                   0000000180000000     user32:USER32.dll
 0000:fffbe000       .debug$S                   0000000180000000     user32:USER32.dll
 0000:fffbe000       .debug$S                   0000000180000000     user32:USER32.dll
 0000:fffbe000       .debug$S                   0000000180000000     user32:USER32.dll
 0000:fffbe000       .debug$S                   0000000180000000     user32:USER32.dll
 0000:fffbe000       .debug$S                   0000000180000000     user32:USER32.dll
 0001:00000000       ??__E_AtlComModule@ATL@@YAXXZ 0000000180001000 f   OposVariant.obj
 0001:00000020       ??__E_AtlWinModule@ATL@@YAXXZ 0000000180001020 f   OposVariant.obj
 0001:00000040       ??__E?pConnMap@?$IConnectionPointContainerImpl@VCOPOSRFIDScanner@@@ATL@@0PEBU_ATL_CONNMAP_ENTRY@2@EB@@YAXXZ 0000000180001040 f   RFIDScanner.obj
 0001:00000058       ??__E_Module@@YAXXZ        0000000180001058 f   RFIDScanner.obj
 0001:00000094       ??__E_AtlBaseModule@ATL@@YAXXZ 0000000180001094 f   atls:atlbase.obj
 0001:0000eba4       ?__scrt_initialize_thread_safe_statics@@YAHXZ 000000018000fba4 f   LIBCMT:thread_safe_statics.obj
 0001:0000ec74       ?__scrt_uninitialize_thread_safe_statics@@YAXXZ 000000018000fc74 f   LIBCMT:thread_safe_statics.obj
 0001:0000efc4       capture_current_context    000000018000ffc4 f   LIBCMT:gs_report.obj
 0001:0000f034       capture_previous_context   0000000180010034 f   LIBCMT:gs_report.obj
 0001:0000f1d0       $$000000                   00000001800101d0     LIBCMT:chkstk.obj
 0001:0000f230       $$000000                   0000000180010230     LIBCMT:amdsecgs.obj
 0001:0000f260       ?dllmain_crt_dispatch@@YAHQEAUHINSTANCE__@@KQEAX@Z 0000000180010260 f   LIBCMT:dll_dllmain.obj
 0001:0000f2b0       ?dllmain_crt_process_attach@@YAHQEAUHINSTANCE__@@QEAX@Z 00000001800102b0 f   LIBCMT:dll_dllmain.obj
 0001:0000f3c8       ?dllmain_crt_process_detach@@YAH_N@Z 00000001800103c8 f   LIBCMT:dll_dllmain.obj
 0001:0000f44c       ?dllmain_dispatch@@YAHQEAUHINSTANCE__@@KQEAX@Z 000000018001044c f   LIBCMT:dll_dllmain.obj
 0001:0000fd18       ??$GetProcAddressAll@P6AP6A_JPEAUHWND__@@I_K_J@ZPEAUAtlThunkData_t@@@Z@@YAP6AP6A_JPEAUHWND__@@I_K_J@ZPEAUAtlThunkData_t@@@ZPEAP6AP6A_J0I12@Z3@Z@Z 0000000180010d18 f   atls:atlthunk.obj
 0001:0000fd18       ??$GetProcAddressAll@P6APEAUAtlThunkData_t@@XZ@@YAP6APEAUAtlThunkData_t@@XZPEAP6APEAU0@XZ@Z 0000000180010d18 f   atls:atlthunk.obj
 0001:0000fd18       ??$GetProcAddressAll@P6AXPEAUAtlThunkData_t@@@Z@@YAP6AXPEAUAtlThunkData_t@@@ZPEAP6AX0@Z@Z 0000000180010d18 f   atls:atlthunk.obj
 0001:0000fd18       ??$GetProcAddressAll@P6AXPEAUAtlThunkData_t@@PEAX_K@Z@@YAP6AXPEAUAtlThunkData_t@@PEAX_K@ZPEAP6AX012@Z@Z 0000000180010d18 f   atls:atlthunk.obj
 0001:0000fef0       ?__InitializeThunkPool@@YAHXZ 0000000180010ef0 f   atls:atlthunk.obj
 0001:00010390       $$000000                   0000000180011390     libvcruntime:memcmp.obj
 0001:00010470       $$000000                   0000000180011470     libvcruntime:memcpy.obj
 0001:00010b20       $$000000                   0000000180011b20     libvcruntime:memset.obj
 0001:00012130       $$000000                   0000000180013130     libvcruntime:notify.obj
 0001:000123b0       ??$BuildCatchObjectHelperInternal@V__FrameHandler3@@@@YAHPEAUEHExceptionRecord@@PEAXPEBU_s_HandlerType@@PEBU_s_CatchableType@@@Z 00000001800133b0 f   libvcruntime:frame.obj
 0001:000125b0       ??$BuildCatchObjectHelperInternal@V__FrameHandler4@@@@YAHPEAUEHExceptionRecord@@PEAXPEAUHandlerType4@FH4@@PEBU_s_CatchableType@@@Z 00000001800135b0 f   libvcruntime:frame.obj
 0001:000127b4       ??$BuildCatchObjectInternal@V__FrameHandler3@@@@YAXPEAUEHExceptionRecord@@PEAXPEBU_s_HandlerType@@PEBU_s_CatchableType@@@Z 00000001800137b4 f   libvcruntime:frame.obj
 0001:00012874       ??$BuildCatchObjectInternal@V__FrameHandler4@@@@YAXPEAUEHExceptionRecord@@PEAXPEAUHandlerType4@FH4@@PEBU_s_CatchableType@@@Z 0000000180013874 f   libvcruntime:frame.obj
 0001:00012938       ??$CatchIt@V__FrameHandler3@@@@YAXPEAUEHExceptionRecord@@PEA_KPEAU_CONTEXT@@PEAU_xDISPATCHER_CONTEXT@@PEBU_s_FuncInfo@@PEBU_s_HandlerType@@PEBU_s_CatchableType@@PEBU_s_TryBlockMapEntry@@H1EE@Z 0000000180013938 f   libvcruntime:frame.obj
 0001:00012a0c       ??$CatchIt@V__FrameHandler4@@@@YAXPEAUEHExceptionRecord@@PEA_KPEAU_CONTEXT@@PEAU_xDISPATCHER_CONTEXT@@PEAUFuncInfo4@FH4@@PEAUHandlerType4@4@PEBU_s_CatchableType@@PEAUTryBlockMapEntry4@4@H1EE@Z 0000000180013a0c f   libvcruntime:frame.obj
 0001:00012ae0       ??$FindHandler@V__FrameHandler3@@@@YAXPEAUEHExceptionRecord@@PEA_KPEAU_CONTEXT@@PEAU_xDISPATCHER_CONTEXT@@PEBU_s_FuncInfo@@EH1@Z 0000000180013ae0 f   libvcruntime:frame.obj
 0001:00012fb8       ??$FindHandler@V__FrameHandler4@@@@YAXPEAUEHExceptionRecord@@PEA_KPEAU_CONTEXT@@PEAU_xDISPATCHER_CONTEXT@@PEAUFuncInfo4@FH4@@EH1@Z 0000000180013fb8 f   libvcruntime:frame.obj
 0001:000134b4       ??$FindHandlerForForeignException@V__FrameHandler3@@@@YAXPEAUEHExceptionRecord@@PEA_KPEAU_CONTEXT@@PEAU_xDISPATCHER_CONTEXT@@PEBU_s_FuncInfo@@HH1@Z 00000001800144b4 f   libvcruntime:frame.obj
 0001:000136d0       ??$FindHandlerForForeignException@V__FrameHandler4@@@@YAXPEAUEHExceptionRecord@@PEA_KPEAU_CONTEXT@@PEAU_xDISPATCHER_CONTEXT@@PEAUFuncInfo4@FH4@@HH1@Z 00000001800146d0 f   libvcruntime:frame.obj
 0001:00014890       ?ExFilterRethrow@@YAHPEAU_EXCEPTION_POINTERS@@PEAUEHExceptionRecord@@PEAH@Z 0000000180015890 f   libvcruntime:frame.obj
 0001:00014918       ?ExFilterRethrowFH4@@YAHPEAU_EXCEPTION_POINTERS@@PEAUEHExceptionRecord@@HPEAH@Z 0000000180015918 f   libvcruntime:frame.obj
 0001:00014e68       ?IsInExceptionSpec@@YAEPEAUEHExceptionRecord@@PEBU_s_ESTypeList@@@Z 0000000180015e68 f   libvcruntime:frame.obj
 0001:00014f58       ?Is_bad_exception_allowed@@YAEPEBU_s_ESTypeList@@@Z 0000000180015f58 f   libvcruntime:frame.obj
 0001:00015234       ?try_get_function@@YAPEAXW4function_id@?A0xbc0cc709@@QEBDQEBW4module_id@2@2@Z 0000000180016234 f   libvcruntime:winapi_downlevel.obj
 0001:00015520       $$000000                   0000000180016520     libvcruntime:handlers.obj
 0001:00015f4c       ??$common_vsprintf@Vformat_validation_base@__crt_stdio_output@@_W@@YAH_KQEA_W0QEB_WAEAV__crt_cached_ptd_host@@QEAD@Z 0000000180016f4c f   libucrt:output.obj
 0001:0001869c       ??$?RV<lambda_d80eeec6fff315bfe5c115232f3240e3>@@AEAV<lambda_6e4b09c48022b2350581041d5f6b0c4c>@@V<lambda_2358e3775559c9db80273638284d5e45>@@@?$__crt_seh_guarded_call@X@@QEAAX$$QEAV<lambda_d80eeec6fff315bfe5c115232f3240e3>@@AEAV<lambda_6e4b09c48022b2350581041d5f6b0c4c>@@$$QEAV<lambda_2358e3775559c9db80273638284d5e45>@@@Z 000000018001969c f   libucrt:exit.obj
 0001:000186d4       ??R<lambda_6e4b09c48022b2350581041d5f6b0c4c>@@QEBA@XZ 00000001800196d4 f   libucrt:exit.obj
 0001:000187a0       ?common_exit@@YAXHW4_crt_exit_cleanup_mode@@W4_crt_exit_return_mode@@@Z 00000001800197a0 f   libucrt:exit.obj
 0001:00018868       ?exit_or_terminate_process@@YAXI@Z 0000000180019868 f   libucrt:exit.obj
 0001:0001889c       ?should_call_terminate_process@@YA_NXZ 000000018001989c f   libucrt:exit.obj
 0001:000188cc       ?try_cor_exit_process@@YAXI@Z 00000001800198cc f   libucrt:exit.obj
 0001:00018968       ??$parse_command_line@D@@YAXPEADPEAPEAD0PEA_K2@Z 0000000180019968 f   libucrt:argv_parsing.obj
 0001:00018d10       ??$common_initialize_environment_nolock@D@@YAHXZ 0000000180019d10 f   libucrt:environment_initialization.obj
 0001:00018d84       ??$create_environment@D@@YAQEAPEADQEAD@Z 0000000180019d84 f   libucrt:environment_initialization.obj
 0001:00018e94       ??$free_environment@D@@YAXQEAPEAD@Z 0000000180019e94 f   libucrt:environment_initialization.obj
 0001:00018e94       ??$free_environment@_W@@YAXQEAPEA_W@Z 0000000180019e94 f   libucrt:environment_initialization.obj
 0001:00018ed8       ??$uninitialize_environment_internal@D@@YAXAEAPEAPEAD@Z 0000000180019ed8 f   libucrt:environment_initialization.obj
 0001:00018ef4       ??$uninitialize_environment_internal@_W@@YAXAEAPEAPEA_W@Z 0000000180019ef4 f   libucrt:environment_initialization.obj
 0001:00018f5c       ??$?RV<lambda_638799b9deba96c50f710eeac98168cd>@@AEAV<lambda_22ebabd17bc4fa466a2aca6d8deb888d>@@V<lambda_a6f7d7db0129f75315ebf26d50c089f1>@@@?$__crt_seh_guarded_call@H@@QEAAH$$QEAV<lambda_638799b9deba96c50f710eeac98168cd>@@AEAV<lambda_22ebabd17bc4fa466a2aca6d8deb888d>@@$$QEAV<lambda_a6f7d7db0129f75315ebf26d50c089f1>@@@Z 0000000180019f5c f   libucrt:onexit.obj
 0001:00018f98       ??$?RV<lambda_7777bce6b2f8c936911f934f8298dc43>@@AEAV<lambda_f03950bc5685219e0bcd2087efbe011e>@@V<lambda_3883c3dff614d5e0c5f61bb1ac94921c>@@@?$__crt_seh_guarded_call@H@@QEAAH$$QEAV<lambda_7777bce6b2f8c936911f934f8298dc43>@@AEAV<lambda_f03950bc5685219e0bcd2087efbe011e>@@$$QEAV<lambda_3883c3dff614d5e0c5f61bb1ac94921c>@@@Z 0000000180019f98 f   libucrt:onexit.obj
 0001:00018fd4       ??R<lambda_22ebabd17bc4fa466a2aca6d8deb888d>@@QEBAHXZ 0000000180019fd4 f   libucrt:onexit.obj
 0001:00019184       ??R<lambda_f03950bc5685219e0bcd2087efbe011e>@@QEBAHXZ 000000018001a184 f   libucrt:onexit.obj
 0001:00019368       initialize_global_variables 000000018001a368 f   libucrt:initialization.obj
 0001:0001937c       initialize_c               000000018001a37c f   libucrt:initialization.obj
 0001:000193a0       initialize_environment     000000018001a3a0 f   libucrt:initialization.obj
 0001:000193a0       initialize_global_state_isolation 000000018001a3a0 f   libucrt:initialization.obj
 0001:000193a0       report_memory_leaks        000000018001a3a0 f   libucrt:initialization.obj
 0001:000193a0       uninitialize_c             000000018001a3a0 f   libucrt:initialization.obj
 0001:000193a0       uninitialize_global_state_isolation 000000018001a3a0 f   libucrt:initialization.obj
 0001:000193a4       uninitialize_environment   000000018001a3a4 f   libucrt:initialization.obj
 0001:000193b4       initialize_pointers        000000018001a3b4 f   libucrt:initialization.obj
 0001:000193f4       uninitialize_vcruntime     000000018001a3f4 f   libucrt:initialization.obj
 0001:000193fc       uninitialize_allocated_memory 000000018001a3fc f   libucrt:initialization.obj
 0001:0001943c       uninitialize_allocated_io_buffers 000000018001a43c f   libucrt:initialization.obj
 0001:00019700       $$000000                   000000018001a700     libucrt:strncmp.obj
 0001:000197f8       ??$?RV<lambda_0ae27a3a962d80f24befdcbee591983d>@@AEAV<lambda_8d0ee55de4b1038c4002e0adecdf1839>@@V<lambda_dc504788e8f1664fe9b84e20bfb512f2>@@@?$__crt_seh_guarded_call@X@@QEAAX$$QEAV<lambda_0ae27a3a962d80f24befdcbee591983d>@@AEAV<lambda_8d0ee55de4b1038c4002e0adecdf1839>@@$$QEAV<lambda_dc504788e8f1664fe9b84e20bfb512f2>@@@Z 000000018001a7f8 f   libucrt:per_thread_data.obj
 0001:00019838       ??$?RV<lambda_2d41944a1d46af3157314b8a01080d33>@@AEAV<lambda_8f455de75cd7d7f24b4096f044d8b9e6>@@V<lambda_aa500f224e6afead328df44964fe2772>@@@?$__crt_seh_guarded_call@X@@QEAAX$$QEAV<lambda_2d41944a1d46af3157314b8a01080d33>@@AEAV<lambda_8f455de75cd7d7f24b4096f044d8b9e6>@@$$QEAV<lambda_aa500f224e6afead328df44964fe2772>@@@Z 000000018001a838 f   libucrt:per_thread_data.obj
 0001:00019878       ??$?RV<lambda_aa87e3671a710a21b5dc78c0bdf72e11>@@AEAV<lambda_92619d2358a28f41a33ba319515a20b9>@@V<lambda_6992ecaafeb10aed2b74cb1fae11a551>@@@?$__crt_seh_guarded_call@X@@QEAAX$$QEAV<lambda_aa87e3671a710a21b5dc78c0bdf72e11>@@AEAV<lambda_92619d2358a28f41a33ba319515a20b9>@@$$QEAV<lambda_6992ecaafeb10aed2b74cb1fae11a551>@@@Z 000000018001a878 f   libucrt:per_thread_data.obj
 0001:000198c0       ??$?RV<lambda_f2e299630e499de9f9a165e60fcd3db5>@@AEAV<lambda_2ae9d31cdba2644fcbeaf08da7c24588>@@V<lambda_40d01ff24d0e7b3814fdbdcee8eab3c7>@@@?$__crt_seh_guarded_call@X@@QEAAX$$QEAV<lambda_f2e299630e499de9f9a165e60fcd3db5>@@AEAV<lambda_2ae9d31cdba2644fcbeaf08da7c24588>@@$$QEAV<lambda_40d01ff24d0e7b3814fdbdcee8eab3c7>@@@Z 000000018001a8c0 f   libucrt:per_thread_data.obj
 0001:00019920       ?construct_ptd_array@@YAXQEAU__acrt_ptd@@@Z 000000018001a920 f   libucrt:per_thread_data.obj
 0001:000199f0       ?destroy_fls@@YAXPEAX@Z    000000018001a9f0 f   libucrt:per_thread_data.obj
 0001:00019a10       ?destroy_ptd_array@@YAXQEAU__acrt_ptd@@@Z 000000018001aa10 f   libucrt:per_thread_data.obj
 0001:00019b08       ?replace_current_thread_locale_nolock@@YAXQEAU__acrt_ptd@@QEAU__crt_locale_data@@@Z 000000018001ab08 f   libucrt:per_thread_data.obj
 0001:00019f14       ??$?RV<lambda_410d79af7f07d98d83a3f525b3859a53>@@AEAV<lambda_3e16ef9562a7dcce91392c22ab16ea36>@@V<lambda_38119f0e861e05405d8a144b9b982f0a>@@@?$__crt_seh_guarded_call@X@@QEAAX$$QEAV<lambda_410d79af7f07d98d83a3f525b3859a53>@@AEAV<lambda_3e16ef9562a7dcce91392c22ab16ea36>@@$$QEAV<lambda_38119f0e861e05405d8a144b9b982f0a>@@@Z 000000018001af14 f   libucrt:wsetlocale.obj
 0001:0001a150       ?try_get_function@@YAPEAXW4function_id@?A0x391cf84c@@QEBDQEBW4module_id@2@2@Z 000000018001b150 f   libucrt:winapi_thunks.obj
 0001:0001a8ec       ?fp_format_a@@YAHQEBNPEAD_KQEAD2H_NIW4__acrt_rounding_mode@@AEAV__crt_cached_ptd_host@@@Z 000000018001b8ec f   libucrt:cvt.obj
 0001:0001aca0       ?fp_format_e@@YAHQEBNQEAD_K12H_NIW4__acrt_rounding_mode@@AEAV__crt_cached_ptd_host@@@Z 000000018001bca0 f   libucrt:cvt.obj
 0001:0001ad9c       ?fp_format_e_internal@@YAHQEAD_KH_NIQEAU_strflt@@2AEAV__crt_cached_ptd_host@@@Z 000000018001bd9c f   libucrt:cvt.obj
 0001:0001af80       ?fp_format_f@@YAHQEBNQEAD_K12HW4__acrt_rounding_mode@@AEAV__crt_cached_ptd_host@@@Z 000000018001bf80 f   libucrt:cvt.obj
 0001:0001b058       ?fp_format_f_internal@@YAHQEAD_KHQEAU_strflt@@_NAEAV__crt_cached_ptd_host@@@Z 000000018001c058 f   libucrt:cvt.obj
 0001:0001b1b0       ?fp_format_g@@YAHQEBNQEAD_K12H_NIW4__acrt_rounding_mode@@AEAV__crt_cached_ptd_host@@@Z 000000018001c1b0 f   libucrt:cvt.obj
 0001:0001b304       ?should_round_up@@YA_NQEBN_KFW4__acrt_rounding_mode@@@Z 000000018001c304 f   libucrt:cvt.obj
 0001:0001ba50       ?initialize_inherited_file_handles_nolock@@YAXXZ 000000018001ca50 f   libucrt:ioinit.obj
 0001:0001bb40       ?initialize_stdio_handles_nolock@@YAXXZ 000000018001cb40 f   libucrt:ioinit.obj
 0001:0001bdb8       ?<lambda_invoker_cdecl>@<lambda_a1ce4c8ae42411fd470c77163914f50e>@@CAHPEBX0@Z 000000018001cdb8 f   libucrt:argv_wildcards.obj
 0001:0001c0d4       ??$common_expand_argv_wildcards@D@@YAHQEAPEADQEAPEAPEAD@Z 000000018001d0d4 f   libucrt:argv_wildcards.obj
 0001:0001c318       ??$copy_and_add_argument_to_buffer@D@@YAHQEBD0_KAEAV?$argument_list@D@?A0x5f5c8891@@@Z 000000018001d318 f   libucrt:argv_wildcards.obj
 0001:0001c4a0       ??$expand_argument_wildcards@D@@YAHQEAD0AEAV?$argument_list@D@?A0x5f5c8891@@@Z 000000018001d4a0 f   libucrt:argv_wildcards.obj
 0001:0001cad4       ??$?RV<lambda_efdfa57d1f175319df784efa44bb7b81>@@AEAV<lambda_5f0a4c1567f8adc6734073e5d1e1b35c>@@V<lambda_2e8a7d3640ea6ccb4c2413664c2db6fd>@@@?$__crt_seh_guarded_call@X@@QEAAX$$QEAV<lambda_efdfa57d1f175319df784efa44bb7b81>@@AEAV<lambda_5f0a4c1567f8adc6734073e5d1e1b35c>@@$$QEAV<lambda_2e8a7d3640ea6ccb4c2413664c2db6fd>@@@Z 000000018001dad4 f   libucrt:mbctype.obj
 0001:0001cca4       ?getSystemCP@@YAHH@Z       000000018001dca4 f   libucrt:mbctype.obj
 0001:0001cd24       ?setSBCS@@YAXPEAU__crt_multibyte_data@@@Z 000000018001dd24 f   libucrt:mbctype.obj
 0001:0001cdbc       ?setSBUpLow@@YAXPEAU__crt_multibyte_data@@@Z 000000018001ddbc f   libucrt:mbctype.obj
 0001:0001cfa4       ?setmbcp_internal@@YAHH_NQEAU__acrt_ptd@@QEAPEAU__crt_multibyte_data@@@Z 000000018001dfa4 f   libucrt:mbctype.obj
 0001:0001d214       ?update_thread_multibyte_data_internal@@YAPEAU__crt_multibyte_data@@QEAU__acrt_ptd@@QEAPEAU1@@Z 000000018001e214 f   libucrt:mbctype.obj
 0001:0001d608       ?x_ismbbtype_l@@YAHPEAU__crt_locale_pointers@@IHH@Z 000000018001e608 f   libucrt:ismbbyte.obj
 0001:0001d9d8       ??$?RV<lambda_450d765d439847d4c735a33c368b5fc0>@@AEAV<lambda_44731a7d0e6d81c3e6aa82d741081786>@@V<lambda_601a2a7da3b7a96e9554ac7215c4b07c>@@@?$__crt_seh_guarded_call@P6AXH@Z@@QEAAP6AXH@Z$$QEAV<lambda_450d765d439847d4c735a33c368b5fc0>@@AEAV<lambda_44731a7d0e6d81c3e6aa82d741081786>@@$$QEAV<lambda_601a2a7da3b7a96e9554ac7215c4b07c>@@@Z 000000018001e9d8 f   libucrt:signal.obj
 0001:0001dd50       ??$?RV<lambda_842d9ff0dc9ef11c61343bbaebe7f885>@@AEAV<lambda_c5860995281e5c4ce005b3de8f5874ee>@@V<lambda_d90129c13df834fdcbf8d2b88dafcf2d>@@@?$__crt_seh_guarded_call@X@@QEAAX$$QEAV<lambda_842d9ff0dc9ef11c61343bbaebe7f885>@@AEAV<lambda_c5860995281e5c4ce005b3de8f5874ee>@@$$QEAV<lambda_d90129c13df834fdcbf8d2b88dafcf2d>@@@Z 000000018001ed50 f   libucrt:fflush.obj
 0001:0001ddec       ??$?RV<lambda_886d6c58226a84441f68b9f2b8217b83>@@AEAV<lambda_ab61a845afdef5b7c387490eaf3616ee>@@V<lambda_f7f22ab5edc0698d5f6905b0d3f44752>@@@?$__crt_seh_guarded_call@X@@QEAAX$$QEAV<lambda_886d6c58226a84441f68b9f2b8217b83>@@AEAV<lambda_ab61a845afdef5b7c387490eaf3616ee>@@$$QEAV<lambda_f7f22ab5edc0698d5f6905b0d3f44752>@@@Z 000000018001edec f   libucrt:fflush.obj
 0001:0001decc       ?common_flush_all@@YAH_N@Z 000000018001eecc f   libucrt:fflush.obj
 0001:0001e618       ?free_crt_array_internal@@YAXQEAPEBX_K@Z 000000018001f618 f   libucrt:inittime.obj
 0001:000201fc       memcpy_s                   00000001800211fc f   libucrt:cfout.obj
 0001:00020e00       fallbackMethod             0000000180021e00 f   libucrt:strpbrk.obj
 0001:000211ac       $LN78                      00000001800221ac     libucrt:strpbrk.obj
 0001:000211e8       $LN77                      00000001800221e8     libucrt:strpbrk.obj
 0001:00021228       $LN76                      0000000180022228     libucrt:strpbrk.obj
 0001:00021304       ?__acrt_LCMapStringA_stat@@YAHPEAU__crt_locale_pointers@@PEB_WKPEBDHPEADHHH@Z 0000000180022304 f   libucrt:lcmapstringa.obj
 0001:000216bc       ?initialize_multibyte@@YAHXZ 00000001800226bc f   libucrt:multibyte_initializer.obj
 0001:000216d4       ??$?RV<lambda_a37b2b86f63e897a80ea819b0eb08c01>@@AEAV<lambda_38ce7e780aa69e748d6df282ebc68efe>@@V<lambda_99fb1378e971ab6e7edea83e3a7a83a2>@@@?$__crt_seh_guarded_call@H@@QEAAH$$QEAV<lambda_a37b2b86f63e897a80ea819b0eb08c01>@@AEAV<lambda_38ce7e780aa69e748d6df282ebc68efe>@@$$QEAV<lambda_99fb1378e971ab6e7edea83e3a7a83a2>@@@Z 00000001800226d4 f   libucrt:commit.obj
 0001:000217f4       ?write_double_translated_ansi_nolock@@YA?AUwrite_result@?A0x17268360@@HQEBDIAEAV__crt_cached_ptd_host@@@Z 00000001800227f4 f   libucrt:write.obj
 0001:00021c80       ?write_text_ansi_nolock@@YA?AUwrite_result@?A0x17268360@@HQEBDI@Z 0000000180022c80 f   libucrt:write.obj
 0001:00021d84       ?write_text_utf16le_nolock@@YA?AUwrite_result@?A0x17268360@@HQEBDI@Z 0000000180022d84 f   libucrt:write.obj
 0001:00021ea0       ?write_text_utf8_nolock@@YA?AUwrite_result@?A0x17268360@@HQEBDI@Z 0000000180022ea0 f   libucrt:write.obj
 0001:00022680       $$000000                   0000000180023680     libucrt:log10.obj
 0001:0002311c       ?_fclose_internal@@YAHQEAU_iobuf@@AEAV__crt_cached_ptd_host@@@Z 000000018002411c f   libucrt:fclose.obj
 0001:00023198       ?_fclose_nolock_internal@@YAHQEAU_iobuf@@AEAV__crt_cached_ptd_host@@@Z 0000000180024198 f   libucrt:fclose.obj
 0001:000232d4       ??$common_lseek_nolock@_J@@YA_JH_JHAEAV__crt_cached_ptd_host@@@Z 00000001800242d4 f   libucrt:lseek.obj
 0001:0002345c       common_control87           000000018002445c f   libucrt:ieee.obj
 0001:0002371c       _call_matherr              000000018002471c f   libucrt:libm_error.obj
 0001:00023784       _exception_enabled         0000000180024784 f   libucrt:libm_error.obj
 0001:00023a20       _log_special_common        0000000180024a20 f   libucrt:log_special.obj
 0001:00023ab8       ??$?RV<lambda_ad8af0d99a0adf03d037d7dffe354bb5>@@AEAV<lambda_c9ba49e555ba839a7b07aa3fbecb7617>@@V<lambda_2f1ebd5d68526518146ae959c9e734c8>@@@?$__crt_seh_guarded_call@H@@QEAAH$$QEAV<lambda_ad8af0d99a0adf03d037d7dffe354bb5>@@AEAV<lambda_c9ba49e555ba839a7b07aa3fbecb7617>@@$$QEAV<lambda_2f1ebd5d68526518146ae959c9e734c8>@@@Z 0000000180024ab8 f   libucrt:close.obj
 0001:00023e10       $$000000                   0000000180024e10     libucrt:fpsr.obj
 0001:00024590       $$000000                   0000000180025590     LIBCMT:guard_dispatch.obj
 0001:000245b0       $$000000                   00000001800255b0     LIBCMT:guard_xfg_dispatch.obj
 0001:000245d0       ?filt$0@?0??_AtlVerifyStackAvailable@_ATL_SAFE_ALLOCA_IMPL@ATL@@YA_N_K@Z@4HA 00000001800255d0 f   RFIDScanner.obj
 0001:000245f1       __scrt_is_nonwritable_in_current_image$filt$0 00000001800255f1 f   LIBCMT:utility.obj
 0001:00024609       ?catch$0@?0???2@YAPEAX_KAEBUnothrow_t@std@@@Z@4HA 0000000180025609 f   LIBCMT:new_scalar_nothrow.obj
 0001:00024616       __catch$??2@YAPEAX_KAEBUnothrow_t@std@@@Z$0 0000000180025616 f   LIBCMT:new_scalar_nothrow.obj
 0001:00024627       ?fin$0@?0??dllmain_crt_process_attach@@YAHQEAUHINSTANCE__@@QEAX@Z@4HA 0000000180025627 f   LIBCMT:dll_dllmain.obj
 0001:0002463e       ?fin$0@?0??dllmain_crt_process_detach@@YAH_N@Z@4HA 000000018002563e f   LIBCMT:dll_dllmain.obj
 0001:00024657       ?fin$1@?0??dllmain_crt_process_detach@@YAH_N@Z@4HA 0000000180025657 f   LIBCMT:dll_dllmain.obj
 0001:0002466b       ?filt$0@?0??dllmain_dispatch@@YAHQEAUHINSTANCE__@@KQEAX@Z@4HA 000000018002566b f   LIBCMT:dll_dllmain.obj
 0001:000246a1       ?filt$0@?0???$_CallSETranslator@V__FrameHandler3@@@@YAHPEAUEHExceptionRecord@@PEA_KPEAU_CONTEXT@@PEAU_xDISPATCHER_CONTEXT@@PEBU_s_FuncInfo@@K1H@Z@4HA 00000001800256a1 f   libvcruntime:risctrnsctrl.obj
 0001:00024732       ?filt$0@?0???$_CallSETranslator@V__FrameHandler4@@@@YAHPEAUEHExceptionRecord@@PEA_KPEAU_CONTEXT@@PEAU_xDISPATCHER_CONTEXT@@PEAUFuncInfo4@FH4@@K1H@Z@4HA 0000000180025732 f   libvcruntime:risctrnsctrl.obj
 0001:000247d1       __DestructExceptionObject$filt$0 00000001800257d1 f   libvcruntime:ehhelpers.obj
 0001:00024867       ?filt$0@?0??CxxCallCatchBlock@__FrameHandler3@@SAPEAXPEAU_EXCEPTION_RECORD@@@Z@4HA 0000000180025867 f   libvcruntime:frame.obj
 0001:0002488c       ?fin$1@?0??CxxCallCatchBlock@__FrameHandler3@@SAPEAXPEAU_EXCEPTION_RECORD@@@Z@4HA 000000018002588c f   libvcruntime:frame.obj
 0001:00024912       ?filt$0@?0??CxxCallCatchBlock@__FrameHandler4@@SAPEAXPEAU_EXCEPTION_RECORD@@@Z@4HA 0000000180025912 f   libvcruntime:frame.obj
 0001:00024941       ?fin$1@?0??CxxCallCatchBlock@__FrameHandler4@@SAPEAXPEAU_EXCEPTION_RECORD@@@Z@4HA 0000000180025941 f   libvcruntime:frame.obj
 0001:000249d2       ?filt$0@?0??FrameUnwindToState@__FrameHandler3@@SAXPEA_KPEAU_xDISPATCHER_CONTEXT@@PEBU_s_FuncInfo@@H@Z@4HA 00000001800259d2 f   libvcruntime:frame.obj
 0001:000249e8       ?fin$1@?0??FrameUnwindToState@__FrameHandler3@@SAXPEA_KPEAU_xDISPATCHER_CONTEXT@@PEBU_s_FuncInfo@@H@Z@4HA 00000001800259e8 f   libvcruntime:frame.obj
 0001:00024a0b       ?filt$0@?0??FrameUnwindToState@__FrameHandler4@@SAXPEA_KPEAU_xDISPATCHER_CONTEXT@@PEAUFuncInfo4@FH4@@H@Z@4HA 0000000180025a0b f   libvcruntime:frame.obj
 0001:00024a21       ?fin$1@?0??FrameUnwindToState@__FrameHandler4@@SAXPEA_KPEAU_xDISPATCHER_CONTEXT@@PEAUFuncInfo4@FH4@@H@Z@4HA 0000000180025a21 f   libvcruntime:frame.obj
 0001:00024a44       ?fin$0@?0???$?RV<lambda_0ae27a3a962d80f24befdcbee591983d>@@AEAV<lambda_8d0ee55de4b1038c4002e0adecdf1839>@@V<lambda_dc504788e8f1664fe9b84e20bfb512f2>@@@?$__crt_seh_guarded_call@X@@QEAAX$$QEAV<lambda_0ae27a3a962d80f24befdcbee591983d>@@AEAV<lambda_8d0ee55de4b1038c4002e0adecdf1839>@@$$QEAV<lambda_dc504788e8f1664fe9b84e20bfb512f2>@@@Z@4HA 0000000180025a44 f   libucrt:per_thread_data.obj
 0001:00024a44       ?fin$0@?0???$?RV<lambda_2d41944a1d46af3157314b8a01080d33>@@AEAV<lambda_8f455de75cd7d7f24b4096f044d8b9e6>@@V<lambda_aa500f224e6afead328df44964fe2772>@@@?$__crt_seh_guarded_call@X@@QEAAX$$QEAV<lambda_2d41944a1d46af3157314b8a01080d33>@@AEAV<lambda_8f455de75cd7d7f24b4096f044d8b9e6>@@$$QEAV<lambda_aa500f224e6afead328df44964fe2772>@@@Z@4HA 0000000180025a44 f   libucrt:per_thread_data.obj
 0001:00024a44       ?fin$0@?0???$?RV<lambda_aa87e3671a710a21b5dc78c0bdf72e11>@@AEAV<lambda_92619d2358a28f41a33ba319515a20b9>@@V<lambda_6992ecaafeb10aed2b74cb1fae11a551>@@@?$__crt_seh_guarded_call@X@@QEAAX$$QEAV<lambda_aa87e3671a710a21b5dc78c0bdf72e11>@@AEAV<lambda_92619d2358a28f41a33ba319515a20b9>@@$$QEAV<lambda_6992ecaafeb10aed2b74cb1fae11a551>@@@Z@4HA 0000000180025a44 f   libucrt:per_thread_data.obj
 0001:00024a44       ?fin$0@?0???$?RV<lambda_f2e299630e499de9f9a165e60fcd3db5>@@AEAV<lambda_2ae9d31cdba2644fcbeaf08da7c24588>@@V<lambda_40d01ff24d0e7b3814fdbdcee8eab3c7>@@@?$__crt_seh_guarded_call@X@@QEAAX$$QEAV<lambda_f2e299630e499de9f9a165e60fcd3db5>@@AEAV<lambda_2ae9d31cdba2644fcbeaf08da7c24588>@@$$QEAV<lambda_40d01ff24d0e7b3814fdbdcee8eab3c7>@@@Z@4HA 0000000180025a44 f   libucrt:per_thread_data.obj
 0001:00024a44       ?fin$0@?0???$?RV<lambda_450d765d439847d4c735a33c368b5fc0>@@AEAV<lambda_44731a7d0e6d81c3e6aa82d741081786>@@V<lambda_601a2a7da3b7a96e9554ac7215c4b07c>@@@?$__crt_seh_guarded_call@P6AXH@Z@@QEAAP6AXH@Z$$QEAV<lambda_450d765d439847d4c735a33c368b5fc0>@@AEAV<lambda_44731a7d0e6d81c3e6aa82d741081786>@@$$QEAV<lambda_601a2a7da3b7a96e9554ac7215c4b07c>@@@Z@4HA 0000000180025a44 f   libucrt:signal.obj
 0001:00024a44       ?fin$0@?0???$?RV<lambda_d80eeec6fff315bfe5c115232f3240e3>@@AEAV<lambda_6e4b09c48022b2350581041d5f6b0c4c>@@V<lambda_2358e3775559c9db80273638284d5e45>@@@?$__crt_seh_guarded_call@X@@QEAAX$$QEAV<lambda_d80eeec6fff315bfe5c115232f3240e3>@@AEAV<lambda_6e4b09c48022b2350581041d5f6b0c4c>@@$$QEAV<lambda_2358e3775559c9db80273638284d5e45>@@@Z@4HA 0000000180025a44 f   libucrt:exit.obj
 0001:00024a44       ?fin$0@?0???$?RV<lambda_638799b9deba96c50f710eeac98168cd>@@AEAV<lambda_22ebabd17bc4fa466a2aca6d8deb888d>@@V<lambda_a6f7d7db0129f75315ebf26d50c089f1>@@@?$__crt_seh_guarded_call@H@@QEAAH$$QEAV<lambda_638799b9deba96c50f710eeac98168cd>@@AEAV<lambda_22ebabd17bc4fa466a2aca6d8deb888d>@@$$QEAV<lambda_a6f7d7db0129f75315ebf26d50c089f1>@@@Z@4HA 0000000180025a44 f   libucrt:onexit.obj
 0001:00024a44       ?fin$0@?0???$?RV<lambda_7777bce6b2f8c936911f934f8298dc43>@@AEAV<lambda_f03950bc5685219e0bcd2087efbe011e>@@V<lambda_3883c3dff614d5e0c5f61bb1ac94921c>@@@?$__crt_seh_guarded_call@H@@QEAAH$$QEAV<lambda_7777bce6b2f8c936911f934f8298dc43>@@AEAV<lambda_f03950bc5685219e0bcd2087efbe011e>@@$$QEAV<lambda_3883c3dff614d5e0c5f61bb1ac94921c>@@@Z@4HA 0000000180025a44 f   libucrt:onexit.obj
 0001:00024a5e       ?filt$0@?0???R<lambda_6e4b09c48022b2350581041d5f6b0c4c>@@QEBA@XZ@4HA 0000000180025a5e f   libucrt:exit.obj
 0001:00024a8b       _query_new_handler$fin$0   0000000180025a8b f   libucrt:new_handler.obj
 0001:00024aa1       ?fin$0@?0???$?RV<lambda_410d79af7f07d98d83a3f525b3859a53>@@AEAV<lambda_3e16ef9562a7dcce91392c22ab16ea36>@@V<lambda_38119f0e861e05405d8a144b9b982f0a>@@@?$__crt_seh_guarded_call@X@@QEAAX$$QEAV<lambda_410d79af7f07d98d83a3f525b3859a53>@@AEAV<lambda_3e16ef9562a7dcce91392c22ab16ea36>@@$$QEAV<lambda_38119f0e861e05405d8a144b9b982f0a>@@@Z@4HA 0000000180025aa1 f   libucrt:wsetlocale.obj
 0001:00024abb       __acrt_initialize_lowio$fin$0 0000000180025abb f   libucrt:ioinit.obj
 0001:00024abb       __acrt_lowio_ensure_fh_exists$fin$0 0000000180025abb f   libucrt:osfinfo.obj
 0001:00024ad4       ?fin$0@?0???$?RV<lambda_efdfa57d1f175319df784efa44bb7b81>@@AEAV<lambda_5f0a4c1567f8adc6734073e5d1e1b35c>@@V<lambda_2e8a7d3640ea6ccb4c2413664c2db6fd>@@@?$__crt_seh_guarded_call@X@@QEAAX$$QEAV<lambda_efdfa57d1f175319df784efa44bb7b81>@@AEAV<lambda_5f0a4c1567f8adc6734073e5d1e1b35c>@@$$QEAV<lambda_2e8a7d3640ea6ccb4c2413664c2db6fd>@@@Z@4HA 0000000180025ad4 f   libucrt:mbctype.obj
 0001:00024aee       ?fin$0@?0??update_thread_multibyte_data_internal@@YAPEAU__crt_multibyte_data@@QEAU__acrt_ptd@@QEAPEAU1@@Z@4HA 0000000180025aee f   libucrt:mbctype.obj
 0001:00024b07       raise$fin$0                0000000180025b07 f   libucrt:signal.obj
 0001:00024b28       ?fin$0@?0???$?RV<lambda_842d9ff0dc9ef11c61343bbaebe7f885>@@AEAV<lambda_c5860995281e5c4ce005b3de8f5874ee>@@V<lambda_d90129c13df834fdcbf8d2b88dafcf2d>@@@?$__crt_seh_guarded_call@X@@QEAAX$$QEAV<lambda_842d9ff0dc9ef11c61343bbaebe7f885>@@AEAV<lambda_c5860995281e5c4ce005b3de8f5874ee>@@$$QEAV<lambda_d90129c13df834fdcbf8d2b88dafcf2d>@@@Z@4HA 0000000180025b28 f   libucrt:fflush.obj
 0001:00024b43       ?fin$0@?0???$?RV<lambda_886d6c58226a84441f68b9f2b8217b83>@@AEAV<lambda_ab61a845afdef5b7c387490eaf3616ee>@@V<lambda_f7f22ab5edc0698d5f6905b0d3f44752>@@@?$__crt_seh_guarded_call@X@@QEAAX$$QEAV<lambda_886d6c58226a84441f68b9f2b8217b83>@@AEAV<lambda_ab61a845afdef5b7c387490eaf3616ee>@@$$QEAV<lambda_f7f22ab5edc0698d5f6905b0d3f44752>@@@Z@4HA 0000000180025b43 f   libucrt:fflush.obj
 0001:00024b60       __acrt_update_thread_locale_data$fin$0 0000000180025b60 f   libucrt:locale_refcounting.obj
 0001:00024b79       _fcloseall$fin$0           0000000180025b79 f   libucrt:closeall.obj
 0001:00024b92       ?fin$0@?0???$?RV<lambda_ad8af0d99a0adf03d037d7dffe354bb5>@@AEAV<lambda_c9ba49e555ba839a7b07aa3fbecb7617>@@V<lambda_2f1ebd5d68526518146ae959c9e734c8>@@@?$__crt_seh_guarded_call@H@@QEAAH$$QEAV<lambda_ad8af0d99a0adf03d037d7dffe354bb5>@@AEAV<lambda_c9ba49e555ba839a7b07aa3fbecb7617>@@$$QEAV<lambda_2f1ebd5d68526518146ae959c9e734c8>@@@Z@4HA 0000000180025b92 f   libucrt:close.obj
 0001:00024b92       ?fin$0@?0???$?RV<lambda_a37b2b86f63e897a80ea819b0eb08c01>@@AEAV<lambda_38ce7e780aa69e748d6df282ebc68efe>@@V<lambda_99fb1378e971ab6e7edea83e3a7a83a2>@@@?$__crt_seh_guarded_call@H@@QEAAH$$QEAV<lambda_a37b2b86f63e897a80ea819b0eb08c01>@@AEAV<lambda_38ce7e780aa69e748d6df282ebc68efe>@@$$QEAV<lambda_99fb1378e971ab6e7edea83e3a7a83a2>@@@Z@4HA 0000000180025b92 f   libucrt:commit.obj
 0001:00024bac       _write_internal$fin$0      0000000180025bac f   libucrt:write.obj
 0001:00024bc3       ?fin$0@?0??_fclose_internal@@YAHQEAU_iobuf@@AEAV__crt_cached_ptd_host@@@Z@4HA 0000000180025bc3 f   libucrt:fclose.obj
 0001:00024bdb       _ctrlfp$filt$0             0000000180025bdb f   libucrt:fpctrl.obj
 0001:00024bdb       common_control87$filt$0    0000000180025bdb f   libucrt:ieee.obj
 0001:00024c10       _IsNonwritableInCurrentImage$filt$0 0000000180025c10 f   LIBCMT:pesect.obj
 0001:00024c30       ??__F_AtlComModule@ATL@@YAXXZ 0000000180025c30 f   OposVariant.obj
 0001:00024c3c       ??__F_AtlWinModule@ATL@@YAXXZ 0000000180025c3c f   OposVariant.obj
 0001:00024c80       ??__F_Module@@YAXXZ        0000000180025c80 f   RFIDScanner.obj
 0001:00024c9c       ??__F_AtlBaseModule@ATL@@YAXXZ 0000000180025c9c f   atls:atlbase.obj
 0002:00000670       ?_AtlBaseModule$initializer$@ATL@@3P6AXXZEA 0000000180026670     atls:atlbase.obj
 0002:00000678       ?_AtlComModule$initializer$@ATL@@3P6AXXZEA 0000000180026678     OposVariant.obj
 0002:00000680       ?_AtlWinModule$initializer$@ATL@@3P6AXXZEA 0000000180026680     OposVariant.obj
 0002:00000688       ?_Module$initializer$@@3P6AXXZEA 0000000180026688     RFIDScanner.obj
 0002:00000690       ??pConnMap$initializer$@?$IConnectionPointContainerImpl@VCOPOSRFIDScanner@@@ATL@@0P6AXXZEA@@3P6AXXZEA 0000000180026690     RFIDScanner.obj
 0002:000006a8       ?__scrt_initialize_tss_var@@3P6AHXZEA 00000001800266a8     LIBCMT:thread_safe_statics.obj
 0002:00002828       GS_ExceptionPointers       0000000180028828     LIBCMT:gs_report.obj
 0002:00002a10       ?ExceptionTemplate@?1??UnwindNestedFrames@__FrameHandler4@@SAXPEA_KPEAUEHExceptionRecord@@PEAU_CONTEXT@@0PEAXPEAUFuncInfo4@FH4@@HHPEAUHandlerType4@6@PEAU_xDISPATCHER_CONTEXT@@E@Z@4U_EXCEPTION_RECORD@@B 0000000180028a10     libvcruntime:risctrnsctrl.obj
 0002:00002ab0       ?ExceptionTemplate@?1??UnwindNestedFrames@__FrameHandler3@@SAXPEA_KPEAUEHExceptionRecord@@PEAU_CONTEXT@@0PEAXPEBU_s_FuncInfo@@HHPEBU_s_HandlerType@@PEAU_xDISPATCHER_CONTEXT@@E@Z@4U_EXCEPTION_RECORD@@B 0000000180028ab0     libvcruntime:risctrnsctrl.obj
 0002:00002b80       ?tokenTable@@3QBUStringLiteral@@B 0000000180028b80     libvcruntime:undname.obj
 0002:00002c90       ?nameTable@@3QBUStringLiteral@@B 0000000180028c90     libvcruntime:undname.obj
 0002:000031c0       ?rttiTable@@3QBUStringLiteral@@B 00000001800291c0     libvcruntime:undname.obj
 0002:00003210       ?IndirectionName@@3QBUStringLiteral@@B 0000000180029210     libvcruntime:undname.obj
 0002:00003270       ?PrefixName@@3QBUStringLiteral@@B 0000000180029270     libvcruntime:undname.obj
 0002:00003958       ?module_names@?A0xbc0cc709@@3QBQEB_WB 0000000180029958     libvcruntime:winapi_downlevel.obj
 0002:00003a18       ?candidate_modules@?1??try_get_FlsAlloc@@YAP6AKP6AXPEAX@Z@ZXZ@4QBW4module_id@?A0xbc0cc709@@B 0000000180029a18     libvcruntime:winapi_downlevel.obj
 0002:00003a30       ?candidate_modules@?1??try_get_FlsFree@@YAP6AHK@ZXZ@4QBW4module_id@?A0xbc0cc709@@B 0000000180029a30     libvcruntime:winapi_downlevel.obj
 0002:00003a40       ?candidate_modules@?1??try_get_FlsGetValue@@YAP6APEAXK@ZXZ@4QBW4module_id@?A0xbc0cc709@@B 0000000180029a40     libvcruntime:winapi_downlevel.obj
 0002:00003a58       ?candidate_modules@?1??try_get_FlsSetValue@@YAP6AHKPEAX@ZXZ@4QBW4module_id@?A0xbc0cc709@@B 0000000180029a58     libvcruntime:winapi_downlevel.obj
 0002:00003a70       ?candidate_modules@?1??try_get_InitializeCriticalSectionEx@@YAP6AHPEAU_RTL_CRITICAL_SECTION@@KK@ZXZ@4QBW4module_id@?A0xbc0cc709@@B 0000000180029a70     libvcruntime:winapi_downlevel.obj
 0002:00003aa0       ?errtable@@3QBUerrentry@?A0x31fdb9ec@@B 0000000180029aa0     libucrt:errno.obj
 0002:00003e08       $cppxdata$?try_cor_exit_process@@YAXI@Z 0000000180029e08     libucrt:exit.obj
 0002:00003e30       $cppxdata$?common_exit@@YAXHW4_crt_exit_cleanup_mode@@W4_crt_exit_return_mode@@@Z 0000000180029e30     libucrt:exit.obj
 0002:00003e80       $cppxdata$__dcrt_uninitialize_environments_nolock 0000000180029e80     libucrt:environment_initialization.obj
 0002:00003ea8       $cppxdata$_execute_onexit_table 0000000180029ea8     libucrt:onexit.obj
 0002:00003ed0       __acrt_initializers        0000000180029ed0     libucrt:initialization.obj
 0002:00004650       ?module_names@?A0x391cf84c@@3QBQEB_WB 000000018002a650     libucrt:winapi_thunks.obj
 0002:00004b58       ?candidate_modules@?1??try_get_AreFileApisANSI@@YAP6AHXZXZ@4QBW4module_id@?A0x391cf84c@@B 000000018002ab58     libucrt:winapi_thunks.obj
 0002:00004b70       ?candidate_modules@?1??try_get_InitializeCriticalSectionEx@@YAP6AHPEAU_RTL_CRITICAL_SECTION@@KK@ZXZ@4QBW4module_id@?A0x391cf84c@@B 000000018002ab70     libucrt:winapi_thunks.obj
 0002:00004b78       ?candidate_modules@?1??try_get_LCMapStringEx@@YAP6AHPEB_WK0HPEA_WHPEAU_nlsversioninfo@@PEAX_J@ZXZ@4QBW4module_id@?A0x391cf84c@@B 000000018002ab78     libucrt:winapi_thunks.obj
 0002:00004b90       ?candidate_modules@?1??try_get_LocaleNameToLCID@@YAP6AKPEB_WK@ZXZ@4QBW4module_id@?A0x391cf84c@@B 000000018002ab90     libucrt:winapi_thunks.obj
 0002:00004bac       ?candidate_modules@?1??try_get_AppPolicyGetProcessTerminationMethod@@YAP6AJPEAXPEAW4AppPolicyProcessTerminationMethod@@@ZXZ@4QBW4module_id@?A0x391cf84c@@B 000000018002abac     libucrt:winapi_thunks.obj
 0002:00004bd8       ?candidate_modules@?1??try_get_SetThreadStackGuarantee@@YAP6AHPEAK@ZXZ@4QBW4module_id@?A0x391cf84c@@B 000000018002abd8     libucrt:winapi_thunks.obj
 0002:00004c00       ?strings@?1??fp_format_nan_or_infinity@@YAHW4__acrt_fp_class@@_NPEAD_K1@Z@4QAY03QEBDA 000000018002ac00     libucrt:cvt.obj
 0002:00004cd8       ?_mb_locale_names@@3QBQEB_WB 000000018002acd8     libucrt:mbctype.obj
 0002:00005350       ?LcidToLocaleNameTable@?A0x881e4c05@@3QBULcidToLocaleName@1@B 000000018002b350     libucrt:lcidtoname_downlevel.obj
 0002:00006da0       ?LocaleNameToIndexTable@?A0x881e4c05@@3QBULocaleNameIndex@1@B 000000018002cda0     libucrt:lcidtoname_downlevel.obj
 0002:00009030       $cppxdata$?write_double_translated_ansi_nolock@@YA?AUwrite_result@?A0x17268360@@HQEBDIAEAV__crt_cached_ptd_host@@@Z 000000018002f030     libucrt:write.obj
 0002:00009060       __real_ninf                000000018002f060     libucrt:log10.obj
 0002:00009070       __real_inf                 000000018002f070     libucrt:log10.obj
 0002:00009080       __real_neg_qnan            000000018002f080     libucrt:log10.obj
 0002:00009090       __real_qnanbit             000000018002f090     libucrt:log10.obj
 0002:000090a0       __int_1023                 000000018002f0a0     libucrt:log10.obj
 0002:000090b0       __mask_001                 000000018002f0b0     libucrt:log10.obj
 0002:000090c0       __mask_mant                000000018002f0c0     libucrt:log10.obj
 0002:000090d0       __mask_mant_top8           000000018002f0d0     libucrt:log10.obj
 0002:000090e0       __mask_mant9               000000018002f0e0     libucrt:log10.obj
 0002:000090f0       __real_log10_e             000000018002f0f0     libucrt:log10.obj
 0002:00009100       __real_log10_e_lead        000000018002f100     libucrt:log10.obj
 0002:00009110       __real_log10_e_tail        000000018002f110     libucrt:log10.obj
 0002:00009120       __real_log10_2_lead        000000018002f120     libucrt:log10.obj
 0002:00009130       __real_log10_2_tail        000000018002f130     libucrt:log10.obj
 0002:00009140       __real_two                 000000018002f140     libucrt:log10.obj
 0002:00009150       __real_one                 000000018002f150     libucrt:log10.obj
 0002:00009160       __real_half                000000018002f160     libucrt:log10.obj
 0002:00009170       __mask_100                 000000018002f170     libucrt:log10.obj
 0002:00009180       __real_1_over_512          000000018002f180     libucrt:log10.obj
 0002:00009190       __real_1_over_2            000000018002f190     libucrt:log10.obj
 0002:000091a0       __real_1_over_3            000000018002f1a0     libucrt:log10.obj
 0002:000091b0       __real_1_over_4            000000018002f1b0     libucrt:log10.obj
 0002:000091c0       __real_1_over_5            000000018002f1c0     libucrt:log10.obj
 0002:000091d0       __real_1_over_6            000000018002f1d0     libucrt:log10.obj
 0002:000091e0       __real_neg_1023            000000018002f1e0     libucrt:log10.obj
 0002:000091f0       __mask_2045                000000018002f1f0     libucrt:log10.obj
 0002:00009200       __real_threshold           000000018002f200     libucrt:log10.obj
 0002:00009210       __real_near_one_lt         000000018002f210     libucrt:log10.obj
 0002:00009220       __real_near_one_gt         000000018002f220     libucrt:log10.obj
 0002:00009230       __real_min_norm            000000018002f230     libucrt:log10.obj
 0002:00009240       __real_notsign             000000018002f240     libucrt:log10.obj
 0002:00009250       __real_ca1                 000000018002f250     libucrt:log10.obj
 0002:00009260       __real_ca2                 000000018002f260     libucrt:log10.obj
 0002:00009270       __real_ca3                 000000018002f270     libucrt:log10.obj
 0002:00009280       __real_ca4                 000000018002f280     libucrt:log10.obj
 0002:00009290       __mask_lower               000000018002f290     libucrt:log10.obj
 0002:000092a0       __flag_x_zero              000000018002f2a0     libucrt:log10.obj
 0002:000092a4       __flag_x_neg               000000018002f2a4     libucrt:log10.obj
 0002:000092a8       __flag_x_nan               000000018002f2a8     libucrt:log10.obj
 0002:0000ab00       __real@433fffffffffffff    0000000180030b00     libucrt:fpsr.obj
 0002:0000ab08       __real@c33fffffffffffff    0000000180030b08     libucrt:fpsr.obj
 0002:0000b448       $unwind$?cw_memcpy@@YAHPEA_WPEBDH@Z 0000000180031448     CWString.obj
 0002:0000b448       $unwind$_invalid_parameter_noinfo 0000000180031448     libucrt:invalid_parameter.obj
 0002:0000b448       $unwind$?state_case_size@?$output_processor@_WV?$string_output_adapter@_W@__crt_stdio_output@@V?$format_validation_base@_WV?$string_output_adapter@_W@__crt_stdio_output@@@2@@__crt_stdio_output@@AEAA_NXZ 0000000180031448     libucrt:output.obj
 0002:0000b448       $unwind$_log10_special     0000000180031448     libucrt:log_special.obj
 0002:0000b450       $unwind$?cw_strcpy@@YAHPEA_WPEBD@Z 0000000180031450     CWString.obj
 0002:0000b450       $unwind$??1OposDispParms@@QEAA@XZ 0000000180031450     OposVariant.obj
 0002:0000b450       $unwind$??__E_AtlComModule@ATL@@YAXXZ 0000000180031450     OposVariant.obj
 0002:0000b450       $unwind$??__E_AtlWinModule@ATL@@YAXXZ 0000000180031450     OposVariant.obj
 0002:0000b450       $unwind$??__F_AtlWinModule@ATL@@YAXXZ 0000000180031450     OposVariant.obj
 0002:0000b450       $unwind$?GetLONG@OposVariant@@QEAAJXZ 0000000180031450     OposVariant.obj
 0002:0000b450       $unwind$??__E?pConnMap@?$IConnectionPointContainerImpl@VCOPOSRFIDScanner@@@ATL@@0PEBU_ATL_CONNMAP_ENTRY@2@EB@@YAXXZ 0000000180031450     RFIDScanner.obj
 0002:0000b450       $unwind$?AddReplacement@CRegObject@ATL@@UEAAJPEB_W0@Z 0000000180031450     RFIDScanner.obj
 0002:0000b450       $unwind$?AtlHresultFromLastError@ATL@@YAJXZ 0000000180031450     RFIDScanner.obj
 0002:0000b450       $unwind$?AtlThrowImpl@ATL@@YAXJ@Z 0000000180031450     RFIDScanner.obj
 0002:0000b450       $unwind$?CreateInstance@CComClassFactory@ATL@@UEAAJPEAUIUnknown@@AEBU_GUID@@PEAPEAX@Z 0000000180031450     RFIDScanner.obj
 0002:0000b450       $unwind$?DefaultReflectionHandler@?$CWindowImplRoot@VCWindow@ATL@@@ATL@@SAHPEAUHWND__@@I_K_JAEA_J@Z 0000000180031450     RFIDScanner.obj
 0002:0000b450       $unwind$?EnumAdvise@?$IOleObjectImpl@VCOPOSRFIDScanner@@@ATL@@UEAAJPEAPEAUIEnumSTATDATA@@@Z 0000000180031450     RFIDScanner.obj
 0002:0000b450       $unwind$?FireViewChange@CComControlBase@ATL@@QEAAJXZ 0000000180031450     RFIDScanner.obj
 0002:0000b450       $unwind$?GetAdvise@?$IViewObjectExImpl@VCOPOSRFIDScanner@@@ATL@@UEAAJPEAK0PEAPEAUIAdviseSink@@@Z 0000000180031450     RFIDScanner.obj
 0002:0000b450       $unwind$?LockServer@CComClassFactory@ATL@@UEAAJH@Z 0000000180031450     RFIDScanner.obj
 0002:0000b450       $unwind$?OnDocWindowActivate@?$IOleInPlaceActiveObjectImpl@VCOPOSRFIDScanner@@@ATL@@UEAAJH@Z 0000000180031450     RFIDScanner.obj
 0002:0000b450       $unwind$?Unadvise@?$IOleObjectImpl@VCOPOSRFIDScanner@@@ATL@@UEAAJK@Z 0000000180031450     RFIDScanner.obj
 0002:0000b450       $unwind$?_LocCPQueryInterface@?$IConnectionPointImpl@VCOPOSRFIDScanner@@$1?DIID__IOPOSRFIDScannerEvents@@3U_GUID@@BVCComDynamicUnkArray@ATL@@@ATL@@UEAAJAEBU_GUID@@PEAPEAX@Z 0000000180031450     RFIDScanner.obj
 0002:0000b450       $unwind$?_LocCPQueryInterface@?$IConnectionPointImpl@VCOPOSRFIDScanner@@$1?IID_IPropertyNotifySink@@3U_GUID@@BVCComDynamicUnkArray@ATL@@@ATL@@UEAAJAEBU_GUID@@PEAPEAX@Z 0000000180031450     RFIDScanner.obj
 0002:0000b450       $unwind$?FinalConstruct@COPOSRFIDScanner@@QEAAJXZ 0000000180031450     RFIDScannerImpl.obj
 0002:0000b450       $unwind$?get_ResultCode@COPOSRFIDScanner@@UEAAJPEAJ@Z 0000000180031450     RFIDScannerImpl.obj
 0002:0000b450       $unwind$?get_State@COPOSRFIDScanner@@UEAAJPEAJ@Z 0000000180031450     RFIDScannerImpl.obj
 0002:0000b450       $unwind$__dcrt_terminate_console_output 0000000180031450     libucrt:initcon.obj
 0002:0000b450       $unwind$??$uninitialize_environment_internal@D@@YAXAEAPEAPEAD@Z 0000000180031450     libucrt:environment_initialization.obj
 0002:0000b450       $unwind$??$uninitialize_environment_internal@_W@@YAXAEAPEAPEA_W@Z 0000000180031450     libucrt:environment_initialization.obj
 0002:0000b450       $unwind$__acrt_initialize_heap 0000000180031450     libucrt:heap_handle.obj
 0002:0000b450       $unwind$_msize_base        0000000180031450     libucrt:msize.obj
 0002:0000b450       $unwind$?initialize_multibyte@@YAHXZ 0000000180031450     libucrt:multibyte_initializer.obj
 0002:0000b450       $unwind$__acrt_thread_attach 0000000180031450     libucrt:initialization.obj
 0002:0000b450       $unwind$__acrt_thread_detach 0000000180031450     libucrt:initialization.obj
 0002:0000b450       $unwind$__acrt_uninitialize 0000000180031450     libucrt:initialization.obj
 0002:0000b450       $unwind$__acrt_uninitialize_critical 0000000180031450     libucrt:initialization.obj
 0002:0000b450       $unwind$initialize_c       0000000180031450     libucrt:initialization.obj
 0002:0000b450       $unwind$uninitialize_allocated_io_buffers 0000000180031450     libucrt:initialization.obj
 0002:0000b450       $unwind$uninitialize_environment 0000000180031450     libucrt:initialization.obj
 0002:0000b450       $unwind$__acrt_initialize_ptd 0000000180031450     libucrt:per_thread_data.obj
 0002:0000b450       $unwind$__acrt_uninitialize_ptd 0000000180031450     libucrt:per_thread_data.obj
 0002:0000b450       $unwind$__acrt_AreFileApisANSI 0000000180031450     libucrt:winapi_thunks.obj
 0002:0000b450       $unwind$__acrt_release_locale_ref 0000000180031450     libucrt:locale_refcounting.obj
 0002:0000b450       $unwind$_isatty            0000000180031450     libucrt:isatty.obj
 0002:0000b450       $unwind$_get_osfhandle     0000000180031450     libucrt:osfinfo.obj
 0002:0000b450       $unwind$__acrt_initialize_multibyte 0000000180031450     libucrt:mbctype.obj
 0002:0000b450       $unwind$__acrt_update_thread_multibyte_data 0000000180031450     libucrt:mbctype.obj
 0002:0000b450       $unwind$__doserrno         0000000180031450     libucrt:errno.obj
 0002:0000b450       $unwind$_errno             0000000180031450     libucrt:errno.obj
 0002:0000b450       $unwind$_invoke_watson     0000000180031450     libucrt:invalid_parameter.obj
 0002:0000b450       $unwind$abort              0000000180031450     libucrt:abort.obj
 0002:0000b450       $unwind$__acrt_initialize_command_line 0000000180031450     libucrt:argv_data.obj
 0002:0000b450       $unwind$?should_call_terminate_process@@YA_NXZ 0000000180031450     libucrt:exit.obj
 0002:0000b450       $unwind$_fileno            0000000180031450     libucrt:fileno.obj
 0002:0000b450       $unwind$_statfp            0000000180031450     libucrt:fpctrl.obj
 0002:0000b450       $unwind$fegetround         0000000180031450     libucrt:fegetround.obj
 0002:0000b450       $unwind$_set_errno_from_matherr 0000000180031450     libucrt:fpexcept.obj
 0002:0000b450       $unwind$??__E_AtlBaseModule@ATL@@YAXXZ 0000000180031450     atls:atlbase.obj
 0002:0000b450       $unwind$__scrt_initialize_default_local_stdio_options 0000000180031450     LIBCMT:default_local_stdio_options.obj
 0002:0000b450       $unwind$?dllmain_crt_dispatch@@YAHQEAUHINSTANCE__@@KQEAX@Z 0000000180031450     LIBCMT:dll_dllmain.obj
 0002:0000b450       $unwind$__report_rangecheckfailure 0000000180031450     LIBCMT:gs_report.obj
 0002:0000b450       $unwind$__GSHandlerCheck   0000000180031450     LIBCMT:gshandler.obj
 0002:0000b450       $unwind$?__scrt_uninitialize_thread_safe_statics@@YAXXZ 0000000180031450     LIBCMT:thread_safe_statics.obj
 0002:0000b450       $unwind$_Init_thread_notify 0000000180031450     LIBCMT:thread_safe_statics.obj
 0002:0000b450       $unwind$__scrt_acquire_startup_lock 0000000180031450     LIBCMT:utility.obj
 0002:0000b450       $unwind$__scrt_dllmain_after_initialize_c 0000000180031450     LIBCMT:utility.obj
 0002:0000b450       $unwind$__scrt_dllmain_before_initialize_c 0000000180031450     LIBCMT:utility.obj
 0002:0000b450       $unwind$__scrt_dllmain_crt_thread_attach 0000000180031450     LIBCMT:utility.obj
 0002:0000b450       $unwind$__scrt_dllmain_crt_thread_detach 0000000180031450     LIBCMT:utility.obj
 0002:0000b450       $unwind$__scrt_dllmain_uninitialize_c 0000000180031450     LIBCMT:utility.obj
 0002:0000b450       $unwind$__scrt_dllmain_uninitialize_critical 0000000180031450     LIBCMT:utility.obj
 0002:0000b450       $unwind$atexit             0000000180031450     LIBCMT:utility.obj
 0002:0000b450       $unwind$__std_terminate    0000000180031450     libvcruntime:ehhelpers.obj
 0002:0000b450       $unwind$?GetCurrentState@__FrameHandler3@@SAHPEA_KPEAU_xDISPATCHER_CONTEXT@@PEBU_s_FuncInfo@@@Z 0000000180031450     libvcruntime:ehstate.obj
 0002:0000b450       $unwind$__vcrt_initialize  0000000180031450     libvcruntime:initialization.obj
 0002:0000b450       $unwind$__vcrt_thread_attach 0000000180031450     libvcruntime:initialization.obj
 0002:0000b450       $unwind$__vcrt_thread_detach 0000000180031450     libvcruntime:initialization.obj
 0002:0000b450       $unwind$__vcrt_uninitialize 0000000180031450     libvcruntime:initialization.obj
 0002:0000b450       $unwind$__vcrt_uninitialize_critical 0000000180031450     libvcruntime:initialization.obj
 0002:0000b450       $unwind$__vcrt_freefls     0000000180031450     libvcruntime:per_thread_data.obj
 0002:0000b450       $unwind$__vcrt_getptd      0000000180031450     libvcruntime:per_thread_data.obj
 0002:0000b450       $unwind$__vcrt_initialize_ptd 0000000180031450     libvcruntime:per_thread_data.obj
 0002:0000b450       $unwind$__vcrt_uninitialize_ptd 0000000180031450     libvcruntime:per_thread_data.obj
 0002:0000b450       $unwind$_purecall          0000000180031450     libvcruntime:purevirt.obj
 0002:0000b450       $unwind$?FrameUnwindToEmptyState@__FrameHandler4@@SAXPEA_KPEAU_xDISPATCHER_CONTEXT@@PEAUFuncInfo4@FH4@@@Z 0000000180031450     libvcruntime:risctrnsctrl.obj
 0002:0000b450       $unwind$_GetImageBase      0000000180031450     libvcruntime:risctrnsctrl.obj
 0002:0000b450       $unwind$_GetThrowImageBase 0000000180031450     libvcruntime:risctrnsctrl.obj
 0002:0000b458       $unwind$?cw_dup@@YAXPEBDAEAHAEAPEA_W1@Z 0000000180031458     CWString.obj
 0002:0000b458       $unwind$?DAdvise@?$IDataObjectImpl@VCOPOSRFIDScanner@@@ATL@@UEAAJPEAUtagFORMATETC@@KPEAUIAdviseSink@@PEAK@Z 0000000180031458     RFIDScanner.obj
 0002:0000b458       $unwind$??$create_environment@D@@YAQEAPEADQEAD@Z 0000000180031458     libucrt:environment_initialization.obj
 0002:0000b458       $unwind$_mbtowc_internal   0000000180031458     libucrt:mbtowc.obj
 0002:0000b458       $unwind$??$__acrt_convert_wcs_mbs_cp@D_WV<lambda_7c9dea7b4ca7285d2cdb541a38da6275>@@U__crt_win32_buffer_internal_dynamic_resizing@@@@YAHQEBDAEAV?$__crt_win32_buffer@_WU__crt_win32_buffer_internal_dynamic_resizing@@@@AEBV<lambda_7c9dea7b4ca7285d2cdb541a38da6275>@@I@Z 0000000180031458     libucrt:argv_wildcards.obj
 0002:0000b458       $unwind$?process@?$output_processor@_WV?$string_output_adapter@_W@__crt_stdio_output@@V?$format_validation_base@_WV?$string_output_adapter@_W@__crt_stdio_output@@@2@@__crt_stdio_output@@QEAAHXZ 0000000180031458     libucrt:output.obj
 0002:0000b470       $unwind$?DupWide@_CW@@AEAAXXZ 0000000180031470     CWString.obj
 0002:0000b470       $unwind$??0CAtlComModule@ATL@@QEAA@XZ 0000000180031470     OposVariant.obj
 0002:0000b470       $unwind$??0CAtlWinModule@ATL@@QEAA@XZ 0000000180031470     OposVariant.obj
 0002:0000b470       $unwind$??0?$CComObject@VCOPOSRFIDScanner@@@ATL@@QEAA@PEAX@Z 0000000180031470     RFIDScanner.obj
 0002:0000b470       $unwind$??0CAtlModule@ATL@@QEAA@XZ 0000000180031470     RFIDScanner.obj
 0002:0000b470       $unwind$??1?$CComObject@VCOPOSRFIDScanner@@@ATL@@UEAA@XZ 0000000180031470     RFIDScanner.obj
 0002:0000b470       $unwind$??__E_Module@@YAXXZ 0000000180031470     RFIDScanner.obj
 0002:0000b470       $unwind$?AddRef@?$CComObjectCached@VCComClassFactory@ATL@@@ATL@@UEAAKXZ 0000000180031470     RFIDScanner.obj
 0002:0000b470       $unwind$?AllocateHeap@?$CTempBuffer@E$0BAA@VCCRTAllocator@ATL@@@ATL@@AEAAX_K@Z 0000000180031470     RFIDScanner.obj
 0002:0000b470       $unwind$?AllocateHeap@?$CTempBuffer@_W$0BAA@VCCRTAllocator@ATL@@@ATL@@AEAAX_K@Z 0000000180031470     RFIDScanner.obj
 0002:0000b470       $unwind$?AllocateHeap@?$CTempBuffer@_W$0EAA@VCCRTAllocator@ATL@@@ATL@@AEAAX_K@Z 0000000180031470     RFIDScanner.obj
 0002:0000b470       $unwind$?GetClassInfoW@?$IProvideClassInfo2Impl@$1?CLSID_OPOSRFIDScanner@@3U_GUID@@B$1?DIID__IOPOSRFIDScannerEvents@@3U2@B$1?LIBID_OposRFIDScanner_CCO@@3U2@B$00$0A@VCComTypeInfoHolder@ATL@@@ATL@@UEAAJPEAPEAUITypeInfo@@@Z 0000000180031470     RFIDScanner.obj
 0002:0000b470       $unwind$?GetClientSite@?$IOleObjectImpl@VCOPOSRFIDScanner@@@ATL@@UEAAJPEAPEAUIOleClientSite@@@Z 0000000180031470     RFIDScanner.obj
 0002:0000b470       $unwind$?GetConnMap@COPOSRFIDScanner@@SAPEBU_ATL_CONNMAP_ENTRY@ATL@@PEAH@Z 0000000180031470     RFIDScanner.obj
 0002:0000b470       $unwind$?GetTypeInfo@?$IDispatchImpl@UIOPOSRFIDScanner@@$1?IID_IOPOSRFIDScanner@@3U_GUID@@B$1?LIBID_OposRFIDScanner_CCO@@3U3@B$00$0A@VCComTypeInfoHolder@ATL@@@ATL@@UEAAJIKPEAPEAUITypeInfo@@@Z 0000000180031470     RFIDScanner.obj
 0002:0000b470       $unwind$?IOleInPlaceObject_InPlaceDeactivate@CComControlBase@ATL@@QEAAJXZ 0000000180031470     RFIDScanner.obj
 0002:0000b470       $unwind$?IOleObject_SetExtent@CComControlBase@ATL@@QEAAJKPEAUtagSIZE@@@Z 0000000180031470     RFIDScanner.obj
 0002:0000b470       $unwind$?IsEqualObject@?$CComPtrBase@UIOleClientSite@@@ATL@@QEAA_NPEAUIUnknown@@@Z 0000000180031470     RFIDScanner.obj
 0002:0000b470       $unwind$?QueryHitPoint@?$IViewObjectExImpl@VCOPOSRFIDScanner@@@ATL@@UEAAJKPEBUtagRECT@@UtagPOINT@@JPEAK@Z 0000000180031470     RFIDScanner.obj
 0002:0000b470       $unwind$?QueryInterface@?$CComAggObject@VCOPOSRFIDScanner@@@ATL@@UEAAJAEBU_GUID@@PEAPEAX@Z 0000000180031470     RFIDScanner.obj
 0002:0000b470       $unwind$?Release@?$CComObjectCached@VCComClassFactory@ATL@@@ATL@@UEAAKXZ 0000000180031470     RFIDScanner.obj
 0002:0000b470       $unwind$?Unadvise@?$IConnectionPointImpl@VCOPOSRFIDScanner@@$1?DIID__IOPOSRFIDScannerEvents@@3U_GUID@@BVCComDynamicUnkArray@ATL@@@ATL@@UEAAJK@Z 0000000180031470     RFIDScanner.obj
 0002:0000b470       $unwind$?Unadvise@?$IConnectionPointImpl@VCOPOSRFIDScanner@@$1?IID_IPropertyNotifySink@@3U_GUID@@BVCComDynamicUnkArray@ATL@@@ATL@@UEAAJK@Z 0000000180031470     RFIDScanner.obj
 0002:0000b470       $unwind$??1CComControlBase@ATL@@UEAA@XZ 0000000180031470     RFIDScannerImpl.obj
 0002:0000b470       $unwind$??1COPOSRFIDScanner@@UEAA@XZ 0000000180031470     RFIDScannerImpl.obj
 0002:0000b470       $unwind$?EventUninit@COPOSRFIDScanner@@IEAAXXZ 0000000180031470     RFIDScannerImpl.obj
 0002:0000b470       $unwind$?FreezeEvents@COPOSRFIDScanner@@MEAAJH@Z 0000000180031470     RFIDScannerImpl.obj
 0002:0000b470       $unwind$?SOProcessID@COPOSRFIDScanner@@UEAAJPEAJ@Z 0000000180031470     RFIDScannerImpl.obj
 0002:0000b470       $unwind$?get_AutoDisable@COPOSRFIDScanner@@UEAAJPEAF@Z 0000000180031470     RFIDScannerImpl.obj
 0002:0000b470       $unwind$?get_CapCompareFirmwareVersion@COPOSRFIDScanner@@UEAAJPEAF@Z 0000000180031470     RFIDScannerImpl.obj
 0002:0000b470       $unwind$?get_CapContinuousRead@COPOSRFIDScanner@@UEAAJPEAF@Z 0000000180031470     RFIDScannerImpl.obj
 0002:0000b470       $unwind$?get_CapDisableTag@COPOSRFIDScanner@@UEAAJPEAF@Z 0000000180031470     RFIDScannerImpl.obj
 0002:0000b470       $unwind$?get_CapLockTag@COPOSRFIDScanner@@UEAAJPEAF@Z 0000000180031470     RFIDScannerImpl.obj
 0002:0000b470       $unwind$?get_CapReadTimer@COPOSRFIDScanner@@UEAAJPEAF@Z 0000000180031470     RFIDScannerImpl.obj
 0002:0000b470       $unwind$?get_CapStatisticsReporting@COPOSRFIDScanner@@UEAAJPEAF@Z 0000000180031470     RFIDScannerImpl.obj
 0002:0000b470       $unwind$?get_CapUpdateFirmware@COPOSRFIDScanner@@UEAAJPEAF@Z 0000000180031470     RFIDScannerImpl.obj
 0002:0000b470       $unwind$?get_CapUpdateStatistics@COPOSRFIDScanner@@UEAAJPEAF@Z 0000000180031470     RFIDScannerImpl.obj
 0002:0000b470       $unwind$?get_Claimed@COPOSRFIDScanner@@UEAAJPEAF@Z 0000000180031470     RFIDScannerImpl.obj
 0002:0000b470       $unwind$?get_ContinuousReadMode@COPOSRFIDScanner@@UEAAJPEAF@Z 0000000180031470     RFIDScannerImpl.obj
 0002:0000b470       $unwind$?get_DataEventEnabled@COPOSRFIDScanner@@UEAAJPEAF@Z 0000000180031470     RFIDScannerImpl.obj
 0002:0000b470       $unwind$?get_DeviceEnabled@COPOSRFIDScanner@@UEAAJPEAF@Z 0000000180031470     RFIDScannerImpl.obj
 0002:0000b470       $unwind$?get_FreezeEvents@COPOSRFIDScanner@@UEAAJPEAF@Z 0000000180031470     RFIDScannerImpl.obj
 0002:0000b470       $unwind$?put_FreezeEvents@COPOSRFIDScanner@@UEAAJF@Z 0000000180031470     RFIDScannerImpl.obj
 0002:0000b470       $unwind$_calloc_base       0000000180031470     libucrt:calloc_base.obj
 0002:0000b470       $unwind$_malloc_base       0000000180031470     libucrt:malloc_base.obj
 0002:0000b470       $unwind$_callnewh          0000000180031470     libucrt:new_handler.obj
 0002:0000b470       $unwind$initialize_pointers 0000000180031470     libucrt:initialization.obj
 0002:0000b470       $unwind$uninitialize_allocated_memory 0000000180031470     libucrt:initialization.obj
 0002:0000b470       $unwind$__acrt_initialize_locks 0000000180031470     libucrt:locks.obj
 0002:0000b470       $unwind$__acrt_uninitialize_locks 0000000180031470     libucrt:locks.obj
 0002:0000b470       $unwind$__acrt_freeptd     0000000180031470     libucrt:per_thread_data.obj
 0002:0000b470       $unwind$__acrt_getptd_head 0000000180031470     libucrt:per_thread_data.obj
 0002:0000b470       $unwind$__acrt_get_process_end_policy 0000000180031470     libucrt:win_policies.obj
 0002:0000b470       $unwind$__acrt_AppPolicyGetProcessTerminationMethodInternal 0000000180031470     libucrt:winapi_thunks.obj
 0002:0000b470       $unwind$__acrt_SetThreadStackGuarantee 0000000180031470     libucrt:winapi_thunks.obj
 0002:0000b470       $unwind$__acrt_uninitialize_winapi_thunks 0000000180031470     libucrt:winapi_thunks.obj
 0002:0000b470       $unwind$__acrt_update_locale_info 0000000180031470     libucrt:locale_update.obj
 0002:0000b470       $unwind$__acrt_update_locale_info_explicit 0000000180031470     libucrt:locale_update.obj
 0002:0000b470       $unwind$__acrt_update_multibyte_info 0000000180031470     libucrt:locale_update.obj
 0002:0000b470       $unwind$__acrt_update_multibyte_info_explicit 0000000180031470     libucrt:locale_update.obj
 0002:0000b470       $unwind$__acrt_errno_map_os_error 0000000180031470     libucrt:errno.obj
 0002:0000b470       $unwind$__acrt_errno_map_os_error_ptd 0000000180031470     libucrt:errno.obj
 0002:0000b470       $unwind$__acrt_allocate_buffer_for_argv 0000000180031470     libucrt:argv_parsing.obj
 0002:0000b470       $unwind$?exit_or_terminate_process@@YAXI@Z 0000000180031470     libucrt:exit.obj
 0002:0000b470       $unwind$__acrt_uninitialize_stdio 0000000180031470     libucrt:_file.obj
 0002:0000b470       $unwind$__acrt_stdio_free_buffer_nolock 0000000180031470     libucrt:_freebuf.obj
 0002:0000b470       $unwind$strcpy_s           0000000180031470     libucrt:strcpy_s.obj
 0002:0000b470       $unwind$wcscat_s           0000000180031470     libucrt:wcscat_s.obj
 0002:0000b470       $unwind$wcscpy_s           0000000180031470     libucrt:wcscpy_s.obj
 0002:0000b470       $unwind$_clrfp             0000000180031470     libucrt:fpctrl.obj
 0002:0000b470       $unwind$_set_statfp        0000000180031470     libucrt:fpctrl.obj
 0002:0000b470       $unwind$_clearfp           0000000180031470     libucrt:ieee.obj
 0002:0000b470       $unwind$_controlfp_s       0000000180031470     libucrt:contrlfp.obj
 0002:0000b470       $unwind$fegetenv           0000000180031470     libucrt:fegetenv.obj
 0002:0000b470       $unwind$feholdexcept       0000000180031470     libucrt:feholdexcept.obj
 0002:0000b470       $unwind$fesetenv           0000000180031470     libucrt:fesetenv.obj
 0002:0000b470       $unwind$??1CAtlBaseModule@ATL@@QEAA@XZ 0000000180031470     atls:atlbase.obj
 0002:0000b470       $unwind$AtlThunk_AllocateData 0000000180031470     atls:atlthunk.obj
 0002:0000b470       $unwind$__raise_securityfailure 0000000180031470     LIBCMT:gs_report.obj
 0002:0000b470       $unwind$??2@YAPEAX_K@Z     0000000180031470     LIBCMT:new_scalar.obj
 0002:0000b470       $unwind$??_Gtype_info@@UEAAPEAXI@Z 0000000180031470     LIBCMT:std_type_info_static.obj
 0002:0000b470       $unwind$_Init_thread_footer 0000000180031470     LIBCMT:thread_safe_statics.obj
 0002:0000b470       $unwind$_Init_thread_header 0000000180031470     LIBCMT:thread_safe_statics.obj
 0002:0000b470       $unwind$_Init_thread_wait  0000000180031470     LIBCMT:thread_safe_statics.obj
 0002:0000b470       $unwind$??0bad_alloc@std@@QEAA@AEBV01@@Z 0000000180031470     LIBCMT:throw_bad_alloc.obj
 0002:0000b470       $unwind$??0bad_array_new_length@std@@QEAA@AEBV01@@Z 0000000180031470     LIBCMT:throw_bad_alloc.obj
 0002:0000b470       $unwind$??0exception@std@@QEAA@AEBV01@@Z 0000000180031470     LIBCMT:throw_bad_alloc.obj
 0002:0000b470       $unwind$__scrt_initialize_crt 0000000180031470     LIBCMT:utility.obj
 0002:0000b470       $unwind$__scrt_initialize_onexit_tables 0000000180031470     LIBCMT:utility.obj
 0002:0000b470       $unwind$__scrt_release_startup_lock 0000000180031470     LIBCMT:utility.obj
 0002:0000b470       $unwind$__scrt_uninitialize_crt 0000000180031470     LIBCMT:utility.obj
 0002:0000b470       $unwind$_onexit            0000000180031470     LIBCMT:utility.obj
 0002:0000b470       $unwind$_IsExceptionObjectToBeDestroyed 0000000180031470     libvcruntime:ehhelpers.obj
 0002:0000b470       $unwind$?GetUnwindTryBlock@__FrameHandler3@@SAHPEA_KPEAU_xDISPATCHER_CONTEXT@@PEBU_s_FuncInfo@@@Z 0000000180031470     libvcruntime:ehstate.obj
 0002:0000b470       $unwind$?StateFromIp@__FrameHandler3@@SAHPEBU_s_FuncInfo@@PEAU_xDISPATCHER_CONTEXT@@_K@Z 0000000180031470     libvcruntime:ehstate.obj
 0002:0000b470       $unwind$??0HandlerMap4@FH4@@QEAA@PEBUTryBlockMapEntry4@1@_KH@Z 0000000180031470     libvcruntime:frame.obj
 0002:0000b470       $unwind$??0bad_exception@std@@QEAA@AEBV01@@Z 0000000180031470     libvcruntime:frame.obj
 0002:0000b470       $unwind$__vcrt_initialize_locks 0000000180031470     libvcruntime:locks.obj
 0002:0000b470       $unwind$__vcrt_uninitialize_locks 0000000180031470     libvcruntime:locks.obj
 0002:0000b470       $unwind$__vcrt_freeptd     0000000180031470     libvcruntime:per_thread_data.obj
 0002:0000b470       $unwind$?ExecutionInCatch@__FrameHandler3@@SA_NPEAU_xDISPATCHER_CONTEXT@@PEBU_s_FuncInfo@@@Z 0000000180031470     libvcruntime:risctrnsctrl.obj
 0002:0000b470       $unwind$_CreateFrameInfo   0000000180031470     libvcruntime:risctrnsctrl.obj
 0002:0000b470       $unwind$_SetImageBase      0000000180031470     libvcruntime:risctrnsctrl.obj
 0002:0000b470       $unwind$_SetThrowImageBase 0000000180031470     libvcruntime:risctrnsctrl.obj
 0002:0000b470       $unwind$__std_exception_destroy 0000000180031470     libvcruntime:std_exception.obj
 0002:0000b470       $unwind$__std_type_info_destroy_list 0000000180031470     libvcruntime:std_type_info.obj
 0002:0000b470       $unwind$__vcrt_FlsAlloc    0000000180031470     libvcruntime:winapi_downlevel.obj
 0002:0000b470       $unwind$__vcrt_FlsFree     0000000180031470     libvcruntime:winapi_downlevel.obj
 0002:0000b470       $unwind$__vcrt_FlsGetValue 0000000180031470     libvcruntime:winapi_downlevel.obj
 0002:0000b478       $unwind$?AtlWinModuleTerm@ATL@@YAJPEAU_ATL_WIN_MODULE70@1@PEAUHINSTANCE__@@@Z 0000000180031478     OposVariant.obj
 0002:0000b478       $unwind$?AtlWinModuleExtractCreateWndData@ATL@@YAPEAXPEAU_ATL_WIN_MODULE70@1@@Z 0000000180031478     RFIDScanner.obj
 0002:0000b478       $unwind$?CreateInstance@?$CComCreator@V?$CComObject@VCOPOSRFIDScanner@@@ATL@@@ATL@@SAJPEAXAEBU_GUID@@PEAPEAX@Z 0000000180031478     RFIDScanner.obj
 0002:0000b478       $unwind$?DoEvent@COPOSRFIDScanner@@IEAAXI_K_J@Z 0000000180031478     RFIDScanner.obj
 0002:0000b478       $unwind$?DoVerb@?$IOleObjectImpl@VCOPOSRFIDScanner@@@ATL@@UEAAJJPEAUtagMSG@@PEAUIOleClientSite@@JPEAUHWND__@@PEBUtagRECT@@@Z 0000000180031478     RFIDScanner.obj
 0002:0000b478       $unwind$?HKeyFromString@CRegParser@ATL@@KAPEAUHKEY__@@PEA_W@Z 0000000180031478     RFIDScanner.obj
 0002:0000b478       $unwind$?Next@?$CComEnumImpl@UIEnumConnectionPoints@@$1?_GUID_b196b285_bab4_101a_b69c_00aa00341d07@@3U__s_GUID@@BPEAUIConnectionPoint@@V?$_CopyInterface@UIConnectionPoint@@@ATL@@@ATL@@UEAAJKPEAPEAUIConnectionPoint@@PEAK@Z 0000000180031478     RFIDScanner.obj
 0002:0000b478       $unwind$?Next@?$CComEnumImpl@UIEnumConnections@@$1?_GUID_b196b287_bab4_101a_b69c_00aa00341d07@@3U__s_GUID@@BUtagCONNECTDATA@@V?$_Copy@UtagCONNECTDATA@@@ATL@@@ATL@@UEAAJKPEAUtagCONNECTDATA@@PEAK@Z 0000000180031478     RFIDScanner.obj
 0002:0000b478       $unwind$?SODirectIO@COPOSRFIDScanner@@MEAAJJPEAJPEAPEA_W@Z 0000000180031478     RFIDScanner.obj
 0002:0000b478       $unwind$?SetControlFocus@CComControlBase@ATL@@QEAAHH@Z 0000000180031478     RFIDScanner.obj
 0002:0000b478       $unwind$?ocscpy_s@@YA_NPEA_W_KPEB_W@Z 0000000180031478     RFIDScanner.obj
 0002:0000b478       $unwind$?s_EventWindowProc@COPOSRFIDScanner@@KA_JPEAUHWND__@@I_K_J@Z 0000000180031478     RFIDScannerImpl.obj
 0002:0000b478       $unwind$_recalloc_base     0000000180031478     libucrt:recalloc.obj
 0002:0000b478       $unwind$__acrt_free_locale 0000000180031478     libucrt:locale_refcounting.obj
 0002:0000b478       $unwind$__acrt_lowio_create_handle_array 0000000180031478     libucrt:osfinfo.obj
 0002:0000b478       $unwind$_seh_filter_exe    0000000180031478     libucrt:exception_filter.obj
 0002:0000b478       $unwind$__acrt_stdio_flush_nolock 0000000180031478     libucrt:fflush.obj
 0002:0000b478       $unwind$??$ensure_buffer_is_big_enough@D@formatting_buffer@__crt_stdio_output@@QEAA_N_KAEAV__crt_cached_ptd_host@@@Z 0000000180031478     libucrt:output.obj
 0002:0000b478       $unwind$??$ensure_buffer_is_big_enough@_W@formatting_buffer@__crt_stdio_output@@QEAA_N_KAEAV__crt_cached_ptd_host@@@Z 0000000180031478     libucrt:output.obj
 0002:0000b478       $unwind$__scrt_dllmain_exception_filter 0000000180031478     LIBCMT:utility.obj
 0002:0000b478       $unwind$?GetHandlerSearchState@__FrameHandler3@@SAHPEA_KPEAU_xDISPATCHER_CONTEXT@@PEBU_s_FuncInfo@@@Z 0000000180031478     libvcruntime:frame.obj
 0002:0000b478       $unwind$?Is_bad_exception_allowed@@YAEPEBU_s_ESTypeList@@@Z 0000000180031478     libvcruntime:frame.obj
 0002:0000b478       $unwind$?CatchTryBlock@__FrameHandler3@@SAPEBU_s_TryBlockMapEntry@@PEBU_s_FuncInfo@@H@Z 0000000180031478     libvcruntime:risctrnsctrl.obj
 0002:0000b48c       $unwind$??0OposDispParms@@QEAA@PEAVOposVariant@@H@Z 000000018003148c     OposVariant.obj
 0002:0000b48c       $unwind$?SetBSTR_Copy@OposVariant@@QEAAXPEA_WAEAJ@Z 000000018003148c     OposVariant.obj
 0002:0000b48c       $unwind$?SetBSTR_InOutPtr@OposVariant@@QEAA_NPEAPEA_WAEAJ@Z 000000018003148c     OposVariant.obj
 0002:0000b48c       $unwind$?SetDispatch_Ptr@OposVariant@@QEAAXPEAUIDispatch@@AEAJ@Z 000000018003148c     OposVariant.obj
 0002:0000b48c       $unwind$?SetLONG_Ptr@OposVariant@@QEAAXPEAJAEAJ@Z 000000018003148c     OposVariant.obj
 0002:0000b48c       $unwind$?SetString@OposVariant@@QEAAXPEB_WAEAJ@Z 000000018003148c     OposVariant.obj
 0002:0000b48c       $unwind$?Term@CAtlComModule@ATL@@QEAAXXZ 000000018003148c     OposVariant.obj
 0002:0000b48c       $unwind$??_GCRegObject@ATL@@UEAAPEAXI@Z 000000018003148c     RFIDScanner.obj
 0002:0000b48c       $unwind$?Add@?$CSimpleArray@GV?$CSimpleArrayEqualHelper@G@ATL@@@ATL@@QEAAHAEBG@Z 000000018003148c     RFIDScanner.obj
 0002:0000b48c       $unwind$?Add@?$CSimpleMap@PEA_WPEA_WVCExpansionVectorEqualHelper@ATL@@@ATL@@QEAAHAEBQEA_W0@Z 000000018003148c     RFIDScanner.obj
 0002:0000b48c       $unwind$?Add@CComDynamicUnkArray@ATL@@QEAAKPEAUIUnknown@@@Z 000000018003148c     RFIDScanner.obj
 0002:0000b48c       $unwind$?Advise@?$IOleObjectImpl@VCOPOSRFIDScanner@@@ATL@@UEAAJPEAUIAdviseSink@@PEAK@Z 000000018003148c     RFIDScanner.obj
 0002:0000b48c       $unwind$?ClearReplacements@CExpansionVector@ATL@@QEAAJXZ 000000018003148c     RFIDScanner.obj
 0002:0000b48c       $unwind$?CreateInstance@?$CComObject@V?$CComEnum@UIEnumConnectionPoints@@$1?_GUID_b196b285_bab4_101a_b69c_00aa00341d07@@3U__s_GUID@@BPEAUIConnectionPoint@@V?$_CopyInterface@UIConnectionPoint@@@ATL@@VCComSingleThreadModel@6@@ATL@@@ATL@@SAJPEAPEAV12@@Z 000000018003148c     RFIDScanner.obj
 0002:0000b48c       $unwind$?CreateInstance@?$CComObject@V?$CComEnum@UIEnumConnections@@$1?_GUID_b196b287_bab4_101a_b69c_00aa00341d07@@3U__s_GUID@@BUtagCONNECTDATA@@V?$_Copy@UtagCONNECTDATA@@@ATL@@VCComSingleThreadModel@6@@ATL@@@ATL@@SAJPEAPEAV12@@Z 000000018003148c     RFIDScanner.obj
 0002:0000b48c       $unwind$?RegisterServer@CComModule@ATL@@QEAAJHPEBU_GUID@@@Z 000000018003148c     RFIDScanner.obj
 0002:0000b48c       $unwind$?UnregisterServer@CComModule@ATL@@QEAAJHPEBU_GUID@@@Z 000000018003148c     RFIDScanner.obj
 0002:0000b48c       $unwind$?VTFromRegType@CRegParser@ATL@@KAHPEB_WAEAG@Z 000000018003148c     RFIDScanner.obj
 0002:0000b48c       $unwind$memcpy_s           000000018003148c     libucrt:cfout.obj
 0002:0000b48c       $unwind$__acrt_getptd      000000018003148c     libucrt:per_thread_data.obj
 0002:0000b48c       $unwind$__acrt_getptd_noexit 000000018003148c     libucrt:per_thread_data.obj
 0002:0000b48c       $unwind$__acrt_getptd_noexit_explicit 000000018003148c     libucrt:per_thread_data.obj
 0002:0000b48c       $unwind$__acrt_execute_initializers 000000018003148c     libucrt:shared_initialization.obj
 0002:0000b48c       $unwind$__acrt_InitializeCriticalSectionEx 000000018003148c     libucrt:winapi_thunks.obj
 0002:0000b48c       $unwind$_close_nolock_internal 000000018003148c     libucrt:close.obj
 0002:0000b48c       $unwind$?value@?$dual_state_global@P6AXPEB_W00I_K@Z@__crt_state_management@@QEAAAEAP6AXPEB_W00I_K@ZAEAV__crt_cached_ptd_host@@@Z 000000018003148c     libucrt:invalid_parameter.obj
 0002:0000b48c       $unwind$??0_LocaleUpdate@@QEAA@QEAU__crt_locale_pointers@@@Z 000000018003148c     libucrt:argv_wildcards.obj
 0002:0000b48c       $unwind$?type_case_Z@?$output_processor@_WV?$string_output_adapter@_W@__crt_stdio_output@@V?$format_validation_base@_WV?$string_output_adapter@_W@__crt_stdio_output@@@2@@__crt_stdio_output@@AEAA_NXZ 000000018003148c     libucrt:output.obj
 0002:0000b48c       $unwind$?type_case_s@?$output_processor@_WV?$string_output_adapter@_W@__crt_stdio_output@@V?$format_validation_base@_WV?$string_output_adapter@_W@__crt_stdio_output@@@2@@__crt_stdio_output@@AEAA_NXZ 000000018003148c     libucrt:output.obj
 0002:0000b48c       $unwind$?type_case_s_compute_narrow_string_length@?$output_processor@_WV?$string_output_adapter@_W@__crt_stdio_output@@V?$format_validation_base@_WV?$string_output_adapter@_W@__crt_stdio_output@@@2@@__crt_stdio_output@@AEAAHH_W@Z 000000018003148c     libucrt:output.obj
 0002:0000b48c       $unwind$?update_locale_slow@__crt_cached_ptd_host@@AEAAXXZ 000000018003148c     libucrt:output.obj
 0002:0000b48c       $unwind$strncpy_s          000000018003148c     libucrt:strncpy_s.obj
 0002:0000b48c       $unwind$wcsncpy_s          000000018003148c     libucrt:wcsncpy_s.obj
 0002:0000b48c       $unwind$_exception_enabled 000000018003148c     libucrt:libm_error.obj
 0002:0000b48c       $unwind$_DllMainCRTStartup 000000018003148c     LIBCMT:dll_dllmain.obj
 0002:0000b48c       $unwind$__vcrt_getptd_noexit 000000018003148c     libvcruntime:per_thread_data.obj
 0002:0000b48c       $unwind$?FrameUnwindToEmptyState@__FrameHandler3@@SAXPEA_KPEAU_xDISPATCHER_CONTEXT@@PEBU_s_FuncInfo@@@Z 000000018003148c     libvcruntime:risctrnsctrl.obj
 0002:0000b48c       $unwind$__vcrt_InitializeCriticalSectionEx 000000018003148c     libvcruntime:winapi_downlevel.obj
 0002:0000b49c       $unwind$??_Estringdispid@CComTypeInfoHolder@ATL@@QEAAPEAXI@Z 000000018003149c     OposVariant.obj
 0002:0000b49c       $unwind$?AddTermFunc@CAtlModule@ATL@@QEAAJP6AX_K@Z0@Z 000000018003149c     RFIDScanner.obj
 0002:0000b49c       $unwind$?AtlComModuleRegisterServer@ATL@@YAJPEAU_ATL_COM_MODULE70@1@HPEBU_GUID@@@Z 000000018003149c     RFIDScanner.obj
 0002:0000b49c       $unwind$?AtlComModuleUnregisterServer@ATL@@YAJPEAU_ATL_COM_MODULE70@1@HPEBU_GUID@@@Z 000000018003149c     RFIDScanner.obj
 0002:0000b49c       $unwind$?CreateInstance@?$CComCreator@V?$CComAggObject@VCOPOSRFIDScanner@@@ATL@@@ATL@@SAJPEAXAEBU_GUID@@PEAPEAX@Z 000000018003149c     RFIDScanner.obj
 0002:0000b49c       $unwind$?CreateInstance@?$CComCreator@V?$CComObjectCached@VCComClassFactory@ATL@@@ATL@@@ATL@@SAJPEAXAEBU_GUID@@PEAPEAX@Z 000000018003149c     RFIDScanner.obj
 0002:0000b49c       $unwind$?GetPagesHelper@?$ISpecifyPropertyPagesImpl@VCOPOSRFIDScanner@@@ATL@@IEAAJPEAUtagCAUUID@@PEBUATL_PROPMAP_ENTRY@2@@Z 000000018003149c     RFIDScanner.obj
 0002:0000b49c       $unwind$?Term@CAtlModule@ATL@@QEAAXXZ 000000018003149c     RFIDScanner.obj
 0002:0000b49c       $unwind$?initialize_stdio_handles_nolock@@YAXXZ 000000018003149c     libucrt:ioinit.obj
 0002:0000b49c       $unwind$__acrt_initialize_stdio 000000018003149c     libucrt:_file.obj
 0002:0000b49c       $unwind$__GSHandlerCheck_EH 000000018003149c     LIBCMT:gshandlereh.obj
 0002:0000b49c       $unwind$__GSHandlerCheck_SEH 000000018003149c     LIBCMT:gshandlerseh.obj
 0002:0000b49c       $unwind$??$TypeMatchHelper@V__FrameHandler3@@@@YAHPEBU_s_HandlerType@@PEBU_s_CatchableType@@PEBU_s_ThrowInfo@@@Z 000000018003149c     libvcruntime:frame.obj
 0002:0000b49c       $unwind$??$TypeMatchHelper@V__FrameHandler4@@@@YAHPEAUHandlerType4@FH4@@PEBU_s_CatchableType@@PEBU_s_ThrowInfo@@@Z 000000018003149c     libvcruntime:frame.obj
 0002:0000b4b4       $unwind$?SetBSTR@OposVariant@@QEAAXPEA_WAEAJ@Z 00000001800314b4     OposVariant.obj
 0002:0000b4b4       $unwind$?SetLONG@OposVariant@@QEAAXJ@Z 00000001800314b4     OposVariant.obj
 0002:0000b4b4       $unwind$?SetVARIANT_BOOL@OposVariant@@QEAAXF@Z 00000001800314b4     OposVariant.obj
 0002:0000b4b4       $unwind$??0?$CComContainedObject@VCOPOSRFIDScanner@@@ATL@@QEAA@PEAX@Z 00000001800314b4     RFIDScanner.obj
 0002:0000b4b4       $unwind$??1?$CComEnumImpl@UIEnumConnectionPoints@@$1?_GUID_b196b285_bab4_101a_b69c_00aa00341d07@@3U__s_GUID@@BPEAUIConnectionPoint@@V?$_CopyInterface@UIConnectionPoint@@@ATL@@@ATL@@UEAA@XZ 00000001800314b4     RFIDScanner.obj
 0002:0000b4b4       $unwind$??1?$CComEnumImpl@UIEnumConnections@@$1?_GUID_b196b287_bab4_101a_b69c_00aa00341d07@@3U__s_GUID@@BUtagCONNECTDATA@@V?$_Copy@UtagCONNECTDATA@@@ATL@@@ATL@@UEAA@XZ 00000001800314b4     RFIDScanner.obj
 0002:0000b4b4       $unwind$??_G?$CComAggObject@VCOPOSRFIDScanner@@@ATL@@UEAAPEAXI@Z 00000001800314b4     RFIDScanner.obj
 0002:0000b4b4       $unwind$??_G?$CComContainedObject@VCOPOSRFIDScanner@@@ATL@@UEAAPEAXI@Z 00000001800314b4     RFIDScanner.obj
 0002:0000b4b4       $unwind$??_G?$CComObject@V?$CComEnum@UIEnumConnectionPoints@@$1?_GUID_b196b285_bab4_101a_b69c_00aa00341d07@@3U__s_GUID@@BPEAUIConnectionPoint@@V?$_CopyInterface@UIConnectionPoint@@@ATL@@VCComSingleThreadModel@6@@ATL@@@ATL@@UEAAPEAXI@Z 00000001800314b4     RFIDScanner.obj
 0002:0000b4b4       $unwind$??_G?$CComObject@V?$CComEnum@UIEnumConnections@@$1?_GUID_b196b287_bab4_101a_b69c_00aa00341d07@@3U__s_GUID@@BUtagCONNECTDATA@@V?$_Copy@UtagCONNECTDATA@@@ATL@@VCComSingleThreadModel@6@@ATL@@@ATL@@UEAAPEAXI@Z 00000001800314b4     RFIDScanner.obj
 0002:0000b4b4       $unwind$??_G?$CComObject@VCOPOSRFIDScanner@@@ATL@@UEAAPEAXI@Z 00000001800314b4     RFIDScanner.obj
 0002:0000b4b4       $unwind$??_G?$CComObjectCached@VCComClassFactory@ATL@@@ATL@@UEAAPEAXI@Z 00000001800314b4     RFIDScanner.obj
 0002:0000b4b4       $unwind$??_GCComClassFactory@ATL@@UEAAPEAXI@Z 00000001800314b4     RFIDScanner.obj
 0002:0000b4b4       $unwind$??_GCComModule@ATL@@UEAAPEAXI@Z 00000001800314b4     RFIDScanner.obj
 0002:0000b4b4       $unwind$?DeleteSubKey@CRegKey@ATL@@QEAAJPEB_W@Z 00000001800314b4     RFIDScanner.obj
 0002:0000b4b4       $unwind$?IOleObject_SetClientSite@CComControlBase@ATL@@QEAAJPEAUIOleClientSite@@@Z 00000001800314b4     RFIDScanner.obj
 0002:0000b4b4       $unwind$?InitNew@?$IPersistStorageImpl@VCOPOSRFIDScanner@@@ATL@@UEAAJPEAUIStorage@@@Z 00000001800314b4     RFIDScanner.obj
 0002:0000b4b4       $unwind$?IsDirty@?$IPersistStorageImpl@VCOPOSRFIDScanner@@@ATL@@UEAAJXZ 00000001800314b4     RFIDScanner.obj
 0002:0000b4b4       $unwind$?Release@?$CComAggObject@VCOPOSRFIDScanner@@@ATL@@UEAAKXZ 00000001800314b4     RFIDScanner.obj
 0002:0000b4b4       $unwind$?Release@?$CComObject@V?$CComEnum@UIEnumConnectionPoints@@$1?_GUID_b196b285_bab4_101a_b69c_00aa00341d07@@3U__s_GUID@@BPEAUIConnectionPoint@@V?$_CopyInterface@UIConnectionPoint@@@ATL@@VCComSingleThreadModel@6@@ATL@@@ATL@@UEAAKXZ 00000001800314b4     RFIDScanner.obj
 0002:0000b4b4       $unwind$?Release@?$CComObject@V?$CComEnum@UIEnumConnections@@$1?_GUID_b196b287_bab4_101a_b69c_00aa00341d07@@3U__s_GUID@@BUtagCONNECTDATA@@V?$_Copy@UtagCONNECTDATA@@@ATL@@VCComSingleThreadModel@6@@ATL@@@ATL@@UEAAKXZ 00000001800314b4     RFIDScanner.obj
 0002:0000b4b4       $unwind$?Release@?$CComObject@VCOPOSRFIDScanner@@@ATL@@UEAAKXZ 00000001800314b4     RFIDScanner.obj
 0002:0000b4b4       $unwind$?SOData@COPOSRFIDScanner@@MEAAJJ@Z 00000001800314b4     RFIDScanner.obj
 0002:0000b4b4       $unwind$?SOOutputComplete@COPOSRFIDScanner@@MEAAJJ@Z 00000001800314b4     RFIDScanner.obj
 0002:0000b4b4       $unwind$?SOStatusUpdate@COPOSRFIDScanner@@MEAAJJ@Z 00000001800314b4     RFIDScanner.obj
 0002:0000b4b4       $unwind$?SetAdvise@?$IViewObjectExImpl@VCOPOSRFIDScanner@@@ATL@@UEAAJKKPEAUIAdviseSink@@@Z 00000001800314b4     RFIDScanner.obj
 0002:0000b4b4       $unwind$?Term@CComModule@ATL@@QEAAXXZ 00000001800314b4     RFIDScanner.obj
 0002:0000b4b4       $unwind$DllMain            00000001800314b4     RFIDScanner.obj
 0002:0000b4b4       $unwind$??1?$IConnectionPointImpl@VCOPOSRFIDScanner@@$1?DIID__IOPOSRFIDScannerEvents@@3U_GUID@@BVCComDynamicUnkArray@ATL@@@ATL@@QEAA@XZ 00000001800314b4     RFIDScannerImpl.obj
 0002:0000b4b4       $unwind$??1?$IConnectionPointImpl@VCOPOSRFIDScanner@@$1?IID_IPropertyNotifySink@@3U_GUID@@BVCComDynamicUnkArray@ATL@@@ATL@@QEAA@XZ 00000001800314b4     RFIDScannerImpl.obj
 0002:0000b4b4       $unwind$??$common_initialize_environment_nolock@D@@YAHXZ 00000001800314b4     libucrt:environment_initialization.obj
 0002:0000b4b4       $unwind$_realloc_base      00000001800314b4     libucrt:realloc_base.obj
 0002:0000b4b4       $unwind$?replace_current_thread_locale_nolock@@YAXQEAU__acrt_ptd@@QEAU__crt_locale_data@@@Z 00000001800314b4     libucrt:per_thread_data.obj
 0002:0000b4b4       $unwind$__acrt_execute_uninitializers 00000001800314b4     libucrt:shared_initialization.obj
 0002:0000b4b4       $unwind$__acrt_LocaleNameToLCID 00000001800314b4     libucrt:winapi_thunks.obj
 0002:0000b4b4       $unwind$?free_crt_array_internal@@YAXQEAPEBX_K@Z 00000001800314b4     libucrt:inittime.obj
 0002:0000b4b4       $unwind$_updatetlocinfoEx_nolock 00000001800314b4     libucrt:locale_refcounting.obj
 0002:0000b4b4       $unwind$__acrt_uninitialize_lowio 00000001800314b4     libucrt:ioinit.obj
 0002:0000b4b4       $unwind$?setSBCS@@YAXPEAU__crt_multibyte_data@@@Z 00000001800314b4     libucrt:mbctype.obj
 0002:0000b4b4       $unwind$_initterm_e        00000001800314b4     libucrt:initterm.obj
 0002:0000b4b4       $unwind$??0CAtlBaseModule@ATL@@QEAA@XZ 00000001800314b4     atls:atlbase.obj
 0002:0000b4b4       $unwind$??$GetProcAddressAll@P6AP6A_JPEAUHWND__@@I_K_J@ZPEAUAtlThunkData_t@@@Z@@YAP6AP6A_JPEAUHWND__@@I_K_J@ZPEAUAtlThunkData_t@@@ZPEAP6AP6A_J0I12@Z3@Z@Z 00000001800314b4     atls:atlthunk.obj
 0002:0000b4b4       $unwind$??$GetProcAddressAll@P6APEAUAtlThunkData_t@@XZ@@YAP6APEAUAtlThunkData_t@@XZPEAP6APEAU0@XZ@Z 00000001800314b4     atls:atlthunk.obj
 0002:0000b4b4       $unwind$??$GetProcAddressAll@P6AXPEAUAtlThunkData_t@@@Z@@YAP6AXPEAUAtlThunkData_t@@@ZPEAP6AX0@Z@Z 00000001800314b4     atls:atlthunk.obj
 0002:0000b4b4       $unwind$??$GetProcAddressAll@P6AXPEAUAtlThunkData_t@@PEAX_K@Z@@YAP6AXPEAUAtlThunkData_t@@PEAX_K@ZPEAP6AX012@Z@Z 00000001800314b4     atls:atlthunk.obj
 0002:0000b4b4       $unwind$?__AllocStdCallThunk_cmn@@YAPEAXXZ 00000001800314b4     atls:atlthunk.obj
 0002:0000b4b4       $unwind$?__InitializeThunkPool@@YAHXZ 00000001800314b4     atls:atlthunk.obj
 0002:0000b4b4       $unwind$AtlThunk_DataToCode 00000001800314b4     atls:atlthunk.obj
 0002:0000b4b4       $unwind$_RTC_Initialize    00000001800314b4     LIBCMT:initsect.obj
 0002:0000b4b4       $unwind$_RTC_Terminate     00000001800314b4     LIBCMT:initsect.obj
 0002:0000b4b4       $unwind$?__scrt_initialize_thread_safe_statics@@YAHXZ 00000001800314b4     LIBCMT:thread_safe_statics.obj
 0002:0000b4b4       $unwind$??_Gbad_alloc@std@@UEAAPEAXI@Z 00000001800314b4     LIBCMT:throw_bad_alloc.obj
 0002:0000b4b4       $unwind$??_Gbad_array_new_length@std@@UEAAPEAXI@Z 00000001800314b4     LIBCMT:throw_bad_alloc.obj
 0002:0000b4b4       $unwind$??_Gexception@std@@UEAAPEAXI@Z 00000001800314b4     LIBCMT:throw_bad_alloc.obj
 0002:0000b4b4       $unwind$__C_specific_handler_noexcept 00000001800314b4     libvcruntime:chandler_noexcept.obj
 0002:0000b4b4       $unwind$__FrameUnwindFilter 00000001800314b4     libvcruntime:ehhelpers.obj
 0002:0000b4b4       $unwind$?SetUnwindTryBlock@__FrameHandler3@@SAXPEA_KPEAU_xDISPATCHER_CONTEXT@@PEBU_s_FuncInfo@@H@Z 00000001800314b4     libvcruntime:ehstate.obj
 0002:0000b4b4       $unwind$??_Gbad_exception@std@@UEAAPEAXI@Z 00000001800314b4     libvcruntime:frame.obj
 0002:0000b4b4       $unwind$?ExFilterRethrow@@YAHPEAU_EXCEPTION_POINTERS@@PEAUEHExceptionRecord@@PEAH@Z 00000001800314b4     libvcruntime:frame.obj
 0002:0000b4b4       $unwind$?ExFilterRethrowFH4@@YAHPEAU_EXCEPTION_POINTERS@@PEAUEHExceptionRecord@@HPEAH@Z 00000001800314b4     libvcruntime:frame.obj
 0002:0000b4b4       $unwind$_FindAndUnlinkFrame 00000001800314b4     libvcruntime:risctrnsctrl.obj
 0002:0000b4b4       $unwind$__vcrt_FlsSetValue 00000001800314b4     libvcruntime:winapi_downlevel.obj
 0002:0000b4c0       $unwind$?ChangeBSTR@OposVariant@@QEAAXPEAPEA_WAEAJ@Z 00000001800314c0     OposVariant.obj
 0002:0000b4c0       $unwind$?ChangeLONG@OposVariant@@QEAAXPEAJAEAJ@Z 00000001800314c0     OposVariant.obj
 0002:0000b4c0       $unwind$?x_ismbbtype_l@@YAHPEAU__crt_locale_pointers@@IHH@Z 00000001800314c0     libucrt:ismbbyte.obj
 0002:0000b4d0       $unwind$swprintf_s         00000001800314d0     RFIDScanner.obj
 0002:0000b4e0       $unwind$?_AtlVerifyStackAvailable@_ATL_SAFE_ALLOCA_IMPL@ATL@@YA_N_K@Z 00000001800314e0     RFIDScanner.obj
 0002:0000b50c       $unwind$?filt$0@?0??_AtlVerifyStackAvailable@_ATL_SAFE_ALLOCA_IMPL@ATL@@YA_N_K@Z@4HA 000000018003150c     RFIDScanner.obj
 0002:0000b50c       $unwind$_query_new_handler$fin$0 000000018003150c     libucrt:new_handler.obj
 0002:0000b50c       $unwind$?fin$0@?0???$?RV<lambda_0ae27a3a962d80f24befdcbee591983d>@@AEAV<lambda_8d0ee55de4b1038c4002e0adecdf1839>@@V<lambda_dc504788e8f1664fe9b84e20bfb512f2>@@@?$__crt_seh_guarded_call@X@@QEAAX$$QEAV<lambda_0ae27a3a962d80f24befdcbee591983d>@@AEAV<lambda_8d0ee55de4b1038c4002e0adecdf1839>@@$$QEAV<lambda_dc504788e8f1664fe9b84e20bfb512f2>@@@Z@4HA 000000018003150c     libucrt:per_thread_data.obj
 0002:0000b50c       $unwind$?fin$0@?0???$?RV<lambda_2d41944a1d46af3157314b8a01080d33>@@AEAV<lambda_8f455de75cd7d7f24b4096f044d8b9e6>@@V<lambda_aa500f224e6afead328df44964fe2772>@@@?$__crt_seh_guarded_call@X@@QEAAX$$QEAV<lambda_2d41944a1d46af3157314b8a01080d33>@@AEAV<lambda_8f455de75cd7d7f24b4096f044d8b9e6>@@$$QEAV<lambda_aa500f224e6afead328df44964fe2772>@@@Z@4HA 000000018003150c     libucrt:per_thread_data.obj
 0002:0000b50c       $unwind$?fin$0@?0???$?RV<lambda_aa87e3671a710a21b5dc78c0bdf72e11>@@AEAV<lambda_92619d2358a28f41a33ba319515a20b9>@@V<lambda_6992ecaafeb10aed2b74cb1fae11a551>@@@?$__crt_seh_guarded_call@X@@QEAAX$$QEAV<lambda_aa87e3671a710a21b5dc78c0bdf72e11>@@AEAV<lambda_92619d2358a28f41a33ba319515a20b9>@@$$QEAV<lambda_6992ecaafeb10aed2b74cb1fae11a551>@@@Z@4HA 000000018003150c     libucrt:per_thread_data.obj
 0002:0000b50c       $unwind$?fin$0@?0???$?RV<lambda_f2e299630e499de9f9a165e60fcd3db5>@@AEAV<lambda_2ae9d31cdba2644fcbeaf08da7c24588>@@V<lambda_40d01ff24d0e7b3814fdbdcee8eab3c7>@@@?$__crt_seh_guarded_call@X@@QEAAX$$QEAV<lambda_f2e299630e499de9f9a165e60fcd3db5>@@AEAV<lambda_2ae9d31cdba2644fcbeaf08da7c24588>@@$$QEAV<lambda_40d01ff24d0e7b3814fdbdcee8eab3c7>@@@Z@4HA 000000018003150c     libucrt:per_thread_data.obj
 0002:0000b50c       $unwind$__acrt_update_thread_locale_data$fin$0 000000018003150c     libucrt:locale_refcounting.obj
 0002:0000b50c       $unwind$?fin$0@?0???$?RV<lambda_410d79af7f07d98d83a3f525b3859a53>@@AEAV<lambda_3e16ef9562a7dcce91392c22ab16ea36>@@V<lambda_38119f0e861e05405d8a144b9b982f0a>@@@?$__crt_seh_guarded_call@X@@QEAAX$$QEAV<lambda_410d79af7f07d98d83a3f525b3859a53>@@AEAV<lambda_3e16ef9562a7dcce91392c22ab16ea36>@@$$QEAV<lambda_38119f0e861e05405d8a144b9b982f0a>@@@Z@4HA 000000018003150c     libucrt:wsetlocale.obj
 0002:0000b50c       $unwind$?fin$0@?0???$?RV<lambda_ad8af0d99a0adf03d037d7dffe354bb5>@@AEAV<lambda_c9ba49e555ba839a7b07aa3fbecb7617>@@V<lambda_2f1ebd5d68526518146ae959c9e734c8>@@@?$__crt_seh_guarded_call@H@@QEAAH$$QEAV<lambda_ad8af0d99a0adf03d037d7dffe354bb5>@@AEAV<lambda_c9ba49e555ba839a7b07aa3fbecb7617>@@$$QEAV<lambda_2f1ebd5d68526518146ae959c9e734c8>@@@Z@4HA 000000018003150c     libucrt:close.obj
 0002:0000b50c       $unwind$?fin$0@?0???$?RV<lambda_a37b2b86f63e897a80ea819b0eb08c01>@@AEAV<lambda_38ce7e780aa69e748d6df282ebc68efe>@@V<lambda_99fb1378e971ab6e7edea83e3a7a83a2>@@@?$__crt_seh_guarded_call@H@@QEAAH$$QEAV<lambda_a37b2b86f63e897a80ea819b0eb08c01>@@AEAV<lambda_38ce7e780aa69e748d6df282ebc68efe>@@$$QEAV<lambda_99fb1378e971ab6e7edea83e3a7a83a2>@@@Z@4HA 000000018003150c     libucrt:commit.obj
 0002:0000b50c       $unwind$__acrt_initialize_lowio$fin$0 000000018003150c     libucrt:ioinit.obj
 0002:0000b50c       $unwind$__acrt_lowio_ensure_fh_exists$fin$0 000000018003150c     libucrt:osfinfo.obj
 0002:0000b50c       $unwind$?fin$0@?0???$?RV<lambda_efdfa57d1f175319df784efa44bb7b81>@@AEAV<lambda_5f0a4c1567f8adc6734073e5d1e1b35c>@@V<lambda_2e8a7d3640ea6ccb4c2413664c2db6fd>@@@?$__crt_seh_guarded_call@X@@QEAAX$$QEAV<lambda_efdfa57d1f175319df784efa44bb7b81>@@AEAV<lambda_5f0a4c1567f8adc6734073e5d1e1b35c>@@$$QEAV<lambda_2e8a7d3640ea6ccb4c2413664c2db6fd>@@@Z@4HA 000000018003150c     libucrt:mbctype.obj
 0002:0000b50c       $unwind$?fin$0@?0??update_thread_multibyte_data_internal@@YAPEAU__crt_multibyte_data@@QEAU__acrt_ptd@@QEAPEAU1@@Z@4HA 000000018003150c     libucrt:mbctype.obj
 0002:0000b50c       $unwind$?fin$0@?0???$?RV<lambda_450d765d439847d4c735a33c368b5fc0>@@AEAV<lambda_44731a7d0e6d81c3e6aa82d741081786>@@V<lambda_601a2a7da3b7a96e9554ac7215c4b07c>@@@?$__crt_seh_guarded_call@P6AXH@Z@@QEAAP6AXH@Z$$QEAV<lambda_450d765d439847d4c735a33c368b5fc0>@@AEAV<lambda_44731a7d0e6d81c3e6aa82d741081786>@@$$QEAV<lambda_601a2a7da3b7a96e9554ac7215c4b07c>@@@Z@4HA 000000018003150c     libucrt:signal.obj
 0002:0000b50c       $unwind$raise$fin$0        000000018003150c     libucrt:signal.obj
 0002:0000b50c       $unwind$?filt$0@?0???R<lambda_6e4b09c48022b2350581041d5f6b0c4c>@@QEBA@XZ@4HA 000000018003150c     libucrt:exit.obj
 0002:0000b50c       $unwind$?fin$0@?0???$?RV<lambda_d80eeec6fff315bfe5c115232f3240e3>@@AEAV<lambda_6e4b09c48022b2350581041d5f6b0c4c>@@V<lambda_2358e3775559c9db80273638284d5e45>@@@?$__crt_seh_guarded_call@X@@QEAAX$$QEAV<lambda_d80eeec6fff315bfe5c115232f3240e3>@@AEAV<lambda_6e4b09c48022b2350581041d5f6b0c4c>@@$$QEAV<lambda_2358e3775559c9db80273638284d5e45>@@@Z@4HA 000000018003150c     libucrt:exit.obj
 0002:0000b50c       $unwind$?fin$0@?0???$?RV<lambda_638799b9deba96c50f710eeac98168cd>@@AEAV<lambda_22ebabd17bc4fa466a2aca6d8deb888d>@@V<lambda_a6f7d7db0129f75315ebf26d50c089f1>@@@?$__crt_seh_guarded_call@H@@QEAAH$$QEAV<lambda_638799b9deba96c50f710eeac98168cd>@@AEAV<lambda_22ebabd17bc4fa466a2aca6d8deb888d>@@$$QEAV<lambda_a6f7d7db0129f75315ebf26d50c089f1>@@@Z@4HA 000000018003150c     libucrt:onexit.obj
 0002:0000b50c       $unwind$?fin$0@?0???$?RV<lambda_7777bce6b2f8c936911f934f8298dc43>@@AEAV<lambda_f03950bc5685219e0bcd2087efbe011e>@@V<lambda_3883c3dff614d5e0c5f61bb1ac94921c>@@@?$__crt_seh_guarded_call@H@@QEAAH$$QEAV<lambda_7777bce6b2f8c936911f934f8298dc43>@@AEAV<lambda_f03950bc5685219e0bcd2087efbe011e>@@$$QEAV<lambda_3883c3dff614d5e0c5f61bb1ac94921c>@@@Z@4HA 000000018003150c     libucrt:onexit.obj
 0002:0000b50c       $unwind$_fcloseall$fin$0   000000018003150c     libucrt:closeall.obj
 0002:0000b50c       $unwind$?fin$0@?0???$?RV<lambda_842d9ff0dc9ef11c61343bbaebe7f885>@@AEAV<lambda_c5860995281e5c4ce005b3de8f5874ee>@@V<lambda_d90129c13df834fdcbf8d2b88dafcf2d>@@@?$__crt_seh_guarded_call@X@@QEAAX$$QEAV<lambda_842d9ff0dc9ef11c61343bbaebe7f885>@@AEAV<lambda_c5860995281e5c4ce005b3de8f5874ee>@@$$QEAV<lambda_d90129c13df834fdcbf8d2b88dafcf2d>@@@Z@4HA 000000018003150c     libucrt:fflush.obj
 0002:0000b50c       $unwind$?fin$0@?0???$?RV<lambda_886d6c58226a84441f68b9f2b8217b83>@@AEAV<lambda_ab61a845afdef5b7c387490eaf3616ee>@@V<lambda_f7f22ab5edc0698d5f6905b0d3f44752>@@@?$__crt_seh_guarded_call@X@@QEAAX$$QEAV<lambda_886d6c58226a84441f68b9f2b8217b83>@@AEAV<lambda_ab61a845afdef5b7c387490eaf3616ee>@@$$QEAV<lambda_f7f22ab5edc0698d5f6905b0d3f44752>@@@Z@4HA 000000018003150c     libucrt:fflush.obj
 0002:0000b50c       $unwind$_ctrlfp$filt$0     000000018003150c     libucrt:fpctrl.obj
 0002:0000b50c       $unwind$common_control87$filt$0 000000018003150c     libucrt:ieee.obj
 0002:0000b50c       $unwind$?fin$0@?0??dllmain_crt_process_attach@@YAHQEAUHINSTANCE__@@QEAX@Z@4HA 000000018003150c     LIBCMT:dll_dllmain.obj
 0002:0000b50c       $unwind$?fin$0@?0??dllmain_crt_process_detach@@YAH_N@Z@4HA 000000018003150c     LIBCMT:dll_dllmain.obj
 0002:0000b50c       $unwind$?fin$1@?0??dllmain_crt_process_detach@@YAH_N@Z@4HA 000000018003150c     LIBCMT:dll_dllmain.obj
 0002:0000b50c       $unwind$_IsNonwritableInCurrentImage$filt$0 000000018003150c     LIBCMT:pesect.obj
 0002:0000b50c       $unwind$?filt$0@?0??CxxCallCatchBlock@__FrameHandler3@@SAPEAXPEAU_EXCEPTION_RECORD@@@Z@4HA 000000018003150c     libvcruntime:frame.obj
 0002:0000b50c       $unwind$?filt$0@?0??CxxCallCatchBlock@__FrameHandler4@@SAPEAXPEAU_EXCEPTION_RECORD@@@Z@4HA 000000018003150c     libvcruntime:frame.obj
 0002:0000b50c       $unwind$?filt$0@?0??FrameUnwindToState@__FrameHandler3@@SAXPEA_KPEAU_xDISPATCHER_CONTEXT@@PEBU_s_FuncInfo@@H@Z@4HA 000000018003150c     libvcruntime:frame.obj
 0002:0000b50c       $unwind$?fin$1@?0??FrameUnwindToState@__FrameHandler3@@SAXPEA_KPEAU_xDISPATCHER_CONTEXT@@PEBU_s_FuncInfo@@H@Z@4HA 000000018003150c     libvcruntime:frame.obj
 0002:0000b514       $unwind$?AtlInternalOleLoadFromStream@ATL@@YAJPEAUIStream@@AEBU_GUID@@PEAPEAXTClassesAllowedInStream@1@K@Z 0000000180031514     RFIDScanner.obj
 0002:0000b530       $unwind$?ReadFromStream@CComBSTR@ATL@@QEAAJPEAUIStream@@@Z 0000000180031530     RFIDScanner.obj
 0002:0000b530       $unwind$_configure_narrow_argv 0000000180031530     libucrt:argv_parsing.obj
 0002:0000b544       $unwind$?WriteToStream@CComVariant@ATL@@QEAAJPEAUIStream@@@Z 0000000180031544     RFIDScanner.obj
 0002:0000b558       $unwind$?RegOpenKeyExW@CAtlTransactionManager@ATL@@QEAAJPEAUHKEY__@@PEB_WKKPEAPEAU3@@Z 0000000180031558     RFIDScanner.obj
 0002:0000b558       $unwind$?WriteToStream@CComVariant@ATL@@QEAAJPEAUIStream@@G@Z 0000000180031558     RFIDScanner.obj
 0002:0000b558       $unwind$__dcrt_write_console 0000000180031558     libucrt:initcon.obj
 0002:0000b558       $unwind$??$__acrt_convert_wcs_mbs_cp@_WDV<lambda_f788ae46380686e8b737efdd8c720d07>@@U__crt_win32_buffer_no_resizing@@@@YAHQEB_WAEAV?$__crt_win32_buffer@DU__crt_win32_buffer_no_resizing@@@@AEBV<lambda_f788ae46380686e8b737efdd8c720d07>@@I@Z 0000000180031558     libucrt:getmodulefilenamea.obj
 0002:0000b56c       $unwind$?ReadFromStream@CComVariant@ATL@@QEAAJPEAUIStream@@GTClassesAllowedInStream@2@K@Z 000000018003156c     RFIDScanner.obj
 0002:0000b584       $unwind$?GetSizeMax@CComVariant@ATL@@QEBAJPEAT_ULARGE_INTEGER@@@Z 0000000180031584     RFIDScanner.obj
 0002:0000b598       $unwind$?RegCreateKeyExW@CAtlTransactionManager@ATL@@QEAAJPEAUHKEY__@@PEB_WKPEA_WKKQEAU_SECURITY_ATTRIBUTES@@PEAPEAU3@PEAK@Z 0000000180031598     RFIDScanner.obj
 0002:0000b5ac       $unwind$?GetGITPtr@CAtlModule@ATL@@UEAAJPEAPEAUIGlobalInterfaceTable@@@Z 00000001800315ac     RFIDScanner.obj
 0002:0000b5ac       $unwind$?RegDeleteKeyW@CAtlTransactionManager@ATL@@QEAAJPEAUHKEY__@@PEB_W@Z 00000001800315ac     RFIDScanner.obj
 0002:0000b5ac       $unwind$?getStateFromIterators@UWMap4@FH4@@SAHAEBViterator@12@H0H0@Z 00000001800315ac     libvcruntime:frame.obj
 0002:0000b5bc       $unwind$?AtlHiMetricToPixel@ATL@@YAXPEBUtagSIZE@@PEAU2@@Z 00000001800315bc     RFIDScanner.obj
 0002:0000b5bc       $unwind$?AtlInternalQueryInterface@ATL@@YAJPEAXPEBU_ATL_INTMAP_ENTRY@1@AEBU_GUID@@PEAPEAX@Z 00000001800315bc     RFIDScanner.obj
 0002:0000b5d4       $unwind$?Append@CParseBuffer@CRegParser@ATL@@QEAAHPEB_WH@Z 00000001800315d4     RFIDScanner.obj
 0002:0000b5d4       $unwind$?AtlComModuleGetClassObject@ATL@@YAJPEAU_ATL_COM_MODULE70@1@AEBU_GUID@@1PEAPEAX@Z 00000001800315d4     RFIDScanner.obj
 0002:0000b5d4       $unwind$?GetClassObject@CComModule@ATL@@QEAAJAEBU_GUID@@0PEAPEAX@Z 00000001800315d4     RFIDScanner.obj
 0002:0000b5d4       $unwind$?NextToken@CRegParser@ATL@@IEAAJPEA_W@Z 00000001800315d4     RFIDScanner.obj
 0002:0000b5d4       $unwind$?StartWindowProc@?$CWindowImplBaseT@VCWindow@ATL@@V?$CWinTraits@$0FGAAAAAA@$0A@@2@@ATL@@SA_JPEAUHWND__@@I_K_J@Z 00000001800315d4     RFIDScanner.obj
 0002:0000b5d4       $unwind$?fp_format_f_internal@@YAHQEAD_KHQEAU_strflt@@_NAEAV__crt_cached_ptd_host@@@Z 00000001800315d4     libucrt:cvt.obj
 0002:0000b5d4       $unwind$__acrt_DownlevelLocaleNameToLCID 00000001800315d4     libucrt:lcidtoname_downlevel.obj
 0002:0000b5d4       $unwind$??R<lambda_f03950bc5685219e0bcd2087efbe011e>@@QEBAHXZ 00000001800315d4     libucrt:onexit.obj
 0002:0000b5ec       $unwind$?AtlRegisterClassCategoriesHelper@ATL@@YAJAEBU_GUID@@PEBU_ATL_CATMAP_ENTRY@1@H@Z 00000001800315ec     RFIDScanner.obj
 0002:0000b610       $unwind$?AtlLoadTypeLib@ATL@@YAJPEAUHINSTANCE__@@PEB_WPEAPEA_WPEAPEAUITypeLib@@@Z 0000000180031610     RFIDScanner.obj
 0002:0000b630       $unwind$?AtlRegisterTypeLib@ATL@@YAJPEAUHINSTANCE__@@PEB_W@Z 0000000180031630     RFIDScanner.obj
 0002:0000b64c       $unwind$?AtlUnRegisterTypeLib@ATL@@YAJPEAUHINSTANCE__@@PEB_W@Z 000000018003164c     RFIDScanner.obj
 0002:0000b654       $unwind$?GetTI@CComTypeInfoHolder@ATL@@QEAAJK@Z 0000000180031654     RFIDScanner.obj
 0002:0000b654       $unwind$?RecurseDeleteKey@CRegKey@ATL@@QEAAJPEB_W@Z 0000000180031654     RFIDScanner.obj
 0002:0000b674       $unwind$?UpdateRegistryFromResource@CAtlModule@ATL@@QEAAJIHPEAU_ATL_REGMAP_ENTRY@2@@Z 0000000180031674     RFIDScanner.obj
 0002:0000b674       $unwind$?UpdateRegistryFromResource@CAtlModule@ATL@@QEAAJPEB_WHPEAU_ATL_REGMAP_ENTRY@2@@Z 0000000180031674     RFIDScanner.obj
 0002:0000b694       $unwind$?Lookup@?$CSimpleMap@PEA_WPEA_WVCExpansionVectorEqualHelper@ATL@@@ATL@@QEBAPEA_WAEBQEA_W@Z 0000000180031694     RFIDScanner.obj
 0002:0000b694       $unwind$_free_osfhnd       0000000180031694     libucrt:osfinfo.obj
 0002:0000b694       $unwind$__std_exception_copy 0000000180031694     libvcruntime:std_exception.obj
 0002:0000b6a8       $unwind$?Add@CExpansionVector@ATL@@QEAAHPEB_W0@Z 00000001800316a8     RFIDScanner.obj
 0002:0000b6c0       $unwind$?PreProcessBuffer@CRegParser@ATL@@QEAAJPEA_WPEAPEA_W@Z 00000001800316c0     RFIDScanner.obj
 0002:0000b6e4       $unwind$?RegisterBuffer@CRegParser@ATL@@QEAAJPEA_WH@Z 00000001800316e4     RFIDScanner.obj
 0002:0000b704       $unwind$?AddValue@CRegParser@ATL@@IEAAJAEAVCRegKey@2@PEB_WPEA_W@Z 0000000180031704     RFIDScanner.obj
 0002:0000b724       $unwind$?RegisterSubkeys@CRegParser@ATL@@IEAAJPEA_WPEAUHKEY__@@HH@Z 0000000180031724     RFIDScanner.obj
 0002:0000b744       $unwind$?SkipAssignment@CRegParser@ATL@@IEAAJPEA_W@Z 0000000180031744     RFIDScanner.obj
 0002:0000b760       $unwind$?RegisterFromResource@CRegObject@ATL@@IEAAJPEB_W00H@Z 0000000180031760     RFIDScanner.obj
 0002:0000b780       $unwind$?Cleanup@CComTypeInfoHolder@ATL@@SAX_K@Z 0000000180031780     RFIDScanner.obj
 0002:0000b780       $unwind$_free_base         0000000180031780     libucrt:free_base.obj
 0002:0000b780       $unwind$?destroy_fls@@YAXPEAX@Z 0000000180031780     libucrt:per_thread_data.obj
 0002:0000b780       $unwind$__acrt_locale_free_numeric 0000000180031780     libucrt:initnum.obj
 0002:0000b780       $unwind$__acrt_locale_free_lc_time_if_unreferenced 0000000180031780     libucrt:locale_refcounting.obj
 0002:0000b780       $unwind$AtlThunk_FreeData  0000000180031780     atls:atlthunk.obj
 0002:0000b788       $unwind$?GetIDsOfNames@CComTypeInfoHolder@ATL@@QEAAJAEBU_GUID@@PEAPEA_WIKPEAJ@Z 0000000180031788     RFIDScanner.obj
 0002:0000b7a4       $unwind$?LoadNameCache@CComTypeInfoHolder@ATL@@QEAAJPEAUITypeInfo@@@Z 00000001800317a4     RFIDScanner.obj
 0002:0000b7bc       $unwind$?WindowProc@?$CWindowImplBaseT@VCWindow@ATL@@V?$CWinTraits@$0FGAAAAAA@$0A@@2@@ATL@@SA_JPEAUHWND__@@I_K_J@Z 00000001800317bc     RFIDScanner.obj
 0002:0000b7d4       $unwind$?atlCreate@?$CWindowImplBaseT@VCWindow@ATL@@V?$CWinTraits@$0FGAAAAAA@$0A@@2@@ATL@@QEAAPEAUHWND__@@PEAU3@V_U_RECT@2@PEB_WKKV_U_MENUorID@2@GPEAX@Z 00000001800317d4     RFIDScanner.obj
 0002:0000b7ec       $unwind$??$AtlModuleRegisterWndClassInfoT@VAtlModuleRegisterWndClassInfoParamW@ATL@@@ATL@@YAGPEAU_ATL_BASE_MODULE70@0@PEAU_ATL_WIN_MODULE70@0@PEAU_ATL_WNDCLASSINFOW@0@PEAP6A_JPEAUHWND__@@I_K_J@ZVAtlModuleRegisterWndClassInfoParamW@0@@Z 00000001800317ec     RFIDScanner.obj
 0002:0000b80c       $unwind$?GetZoomInfo@CComControlBase@ATL@@QEAAXAEAUATL_DRAWINFO@@@Z 000000018003180c     RFIDScanner.obj
 0002:0000b80c       $unwind$?OnKillFocus@CComControlBase@ATL@@QEAA_JI_K_JAEAH@Z 000000018003180c     RFIDScanner.obj
 0002:0000b80c       $unwind$?get_raw_ptd@__crt_cached_ptd_host@@QEAAPEAU__acrt_ptd@@XZ 000000018003180c     libucrt:invalid_parameter.obj
 0002:0000b818       $unwind$?SendOnDataChange@CComControlBase@ATL@@QEAAJK@Z 0000000180031818     RFIDScanner.obj
 0002:0000b828       $unwind$?OnSetFocus@CComControlBase@ATL@@QEAA_JI_K_JAEAH@Z 0000000180031828     RFIDScanner.obj
 0002:0000b83c       $unwind$?OnMouseActivate@CComControlBase@ATL@@QEAA_JI_K_JAEAH@Z 000000018003183c     RFIDScanner.obj
 0002:0000b844       $unwind$?GetAmbientLocaleID@CComControlBase@ATL@@QEAAJAEAK@Z 0000000180031844     RFIDScanner.obj
 0002:0000b844       $unwind$?GetAmbientUserMode@CComControlBase@ATL@@QEAAJAEAH@Z 0000000180031844     RFIDScanner.obj
 0002:0000b854       $unwind$?IQuickActivate_QuickActivate@CComControlBase@ATL@@QEAAJPEAUtagQACONTAINER@@PEAUtagQACONTROL@@@Z 0000000180031854     RFIDScanner.obj
 0002:0000b86c       $unwind$?DoVerbProperties@CComControlBase@ATL@@QEAAJPEBUtagRECT@@PEAUHWND__@@@Z 000000018003186c     RFIDScanner.obj
 0002:0000b884       $unwind$?InPlaceActivate@CComControlBase@ATL@@QEAAJJPEBUtagRECT@@@Z 0000000180031884     RFIDScanner.obj
 0002:0000b8a4       $unwind$?IOleObject_Close@CComControlBase@ATL@@QEAAJK@Z 00000001800318a4     RFIDScanner.obj
 0002:0000b8a4       $unwind$?get_raw_ptd_noexit@__crt_cached_ptd_host@@QEAAPEAU__acrt_ptd@@XZ 00000001800318a4     libucrt:invalid_parameter.obj
 0002:0000b8a4       $unwind$?type_case_c_tchar@?$output_processor@_WV?$string_output_adapter@_W@__crt_stdio_output@@V?$format_validation_base@_WV?$string_output_adapter@_W@__crt_stdio_output@@@2@@__crt_stdio_output@@AEAA_N_W@Z 00000001800318a4     libucrt:output.obj
 0002:0000b8b4       $unwind$?IOleInPlaceObject_UIDeactivate@CComControlBase@ATL@@QEAAJXZ 00000001800318b4     RFIDScanner.obj
 0002:0000b8cc       $unwind$?IOleInPlaceObject_SetObjectRects@CComControlBase@ATL@@QEAAJPEBUtagRECT@@0@Z 00000001800318cc     RFIDScanner.obj
 0002:0000b8e0       $unwind$?IViewObject_Draw@CComControlBase@ATL@@QEAAJKJPEAXPEAUtagDVTARGETDEVICE@@PEAUHDC__@@2PEBU_RECTL@@3@Z 00000001800318e0     RFIDScanner.obj
 0002:0000b8fc       $unwind$?IDataObject_GetData@CComControlBase@ATL@@QEAAJPEAUtagFORMATETC@@PEAUtagSTGMEDIUM@@@Z 00000001800318fc     RFIDScanner.obj
 0002:0000b91c       $unwind$?OnPaint@CComControlBase@ATL@@QEAA_JI_K_JAEAH@Z 000000018003191c     RFIDScanner.obj
 0002:0000b938       $unwind$?OnDrawAdvanced@CComControlBase@ATL@@UEAAJAEAUATL_DRAWINFO@@@Z 0000000180031938     RFIDScanner.obj
 0002:0000b954       $unwind$?Invoke@?$IDispatchImpl@UIOPOSRFIDScanner@@$1?IID_IOPOSRFIDScanner@@3U_GUID@@B$1?LIBID_OposRFIDScanner_CCO@@3U3@B$00$0A@VCComTypeInfoHolder@ATL@@@ATL@@UEAAJJAEBU_GUID@@KGPEAUtagDISPPARAMS@@PEAUtagVARIANT@@PEAUtagEXCEPINFO@@PEAI@Z 0000000180031954     RFIDScanner.obj
 0002:0000b954       $unwind$?ReleaseDevice@COPOSRFIDScanner@@UEAAJPEAJ@Z 0000000180031954     RFIDScannerImpl.obj
 0002:0000b954       $unwind$_mbsdec_l          0000000180031954     libucrt:mbsdec.obj
 0002:0000b960       $unwind$?atlCreate@?$CWindowImpl@VCOPOSRFIDScanner@@VCWindow@ATL@@V?$CWinTraits@$0FGAAAAAA@$0A@@3@@ATL@@QEAAPEAUHWND__@@PEAU3@V_U_RECT@2@PEB_WKKV_U_MENUorID@2@PEAX@Z 0000000180031960     RFIDScanner.obj
 0002:0000b960       $unwind$?fp_format_f@@YAHQEBNQEAD_K12HW4__acrt_rounding_mode@@AEAV__crt_cached_ptd_host@@@Z 0000000180031960     libucrt:cvt.obj
 0002:0000b960       $unwind$__acrt_LCMapStringEx 0000000180031960     libucrt:winapi_thunks.obj
 0002:0000b974       $unwind$?CreateControlWindow@?$CComControl@VCOPOSRFIDScanner@@V?$CWindowImpl@VCOPOSRFIDScanner@@VCWindow@ATL@@V?$CWinTraits@$0FGAAAAAA@$0A@@3@@ATL@@@ATL@@UEAAPEAUHWND__@@PEAU3@AEAUtagRECT@@@Z 0000000180031974     RFIDScanner.obj
 0002:0000b974       $unwind$?ClearInput@COPOSRFIDScanner@@UEAAJPEAJ@Z 0000000180031974     RFIDScannerImpl.obj
 0002:0000b974       $unwind$?ClearInputProperties@COPOSRFIDScanner@@UEAAJPEAJ@Z 0000000180031974     RFIDScannerImpl.obj
 0002:0000b974       $unwind$?ClearOutput@COPOSRFIDScanner@@UEAAJPEAJ@Z 0000000180031974     RFIDScannerImpl.obj
 0002:0000b974       $unwind$?FirstTag@COPOSRFIDScanner@@UEAAJPEAJ@Z 0000000180031974     RFIDScannerImpl.obj
 0002:0000b974       $unwind$?NextTag@COPOSRFIDScanner@@UEAAJPEAJ@Z 0000000180031974     RFIDScannerImpl.obj
 0002:0000b974       $unwind$?PreviousTag@COPOSRFIDScanner@@UEAAJPEAJ@Z 0000000180031974     RFIDScannerImpl.obj
 0002:0000b974       $unwind$_raise_exc         0000000180031974     libucrt:fpexcept.obj
 0002:0000b974       $unwind$?__scrt_throw_std_bad_alloc@@YAXXZ 0000000180031974     LIBCMT:throw_bad_alloc.obj
 0002:0000b974       $unwind$?__scrt_throw_std_bad_array_new_length@@YAXXZ 0000000180031974     LIBCMT:throw_bad_alloc.obj
 0002:0000b97c       $unwind$?ProcessWindowMessage@?$CComControl@VCOPOSRFIDScanner@@V?$CWindowImpl@VCOPOSRFIDScanner@@VCWindow@ATL@@V?$CWinTraits@$0FGAAAAAA@$0A@@3@@ATL@@@ATL@@UEAAHPEAUHWND__@@I_K_JAEA_JK@Z 000000018003197c     RFIDScanner.obj
 0002:0000b984       $unwind$?GetSizeMax@?$IPersistStreamInitImpl@VCOPOSRFIDScanner@@@ATL@@UEAAJPEAT_ULARGE_INTEGER@@@Z 0000000180031984     RFIDScanner.obj
 0002:0000b99c       $unwind$?IPersistStreamInit_Load@?$IPersistStreamInitImpl@VCOPOSRFIDScanner@@@ATL@@QEAAJPEAUIStream@@PEBUATL_PROPMAP_ENTRY@2@@Z 000000018003199c     RFIDScanner.obj
 0002:0000b9b8       $unwind$?IPersistStreamInit_Save@?$IPersistStreamInitImpl@VCOPOSRFIDScanner@@@ATL@@QEAAJPEAUIStream@@HPEBUATL_PROPMAP_ENTRY@2@@Z 00000001800319b8     RFIDScanner.obj
 0002:0000b9d4       $unwind$?DoVerbPrimary@?$IOleObjectImpl@VCOPOSRFIDScanner@@@ATL@@QEAAJPEBUtagRECT@@PEAUHWND__@@@Z 00000001800319d4     RFIDScanner.obj
 0002:0000b9ec       $unwind$?TranslateAcceleratorW@?$IOleInPlaceActiveObjectImpl@VCOPOSRFIDScanner@@@ATL@@UEAAJPEAUtagMSG@@@Z 00000001800319ec     RFIDScanner.obj
 0002:0000b9f8       $unwind$?Draw@?$IViewObjectExImpl@VCOPOSRFIDScanner@@@ATL@@UEAAJKJPEAXPEAUtagDVTARGETDEVICE@@PEAUHDC__@@2PEBU_RECTL@@3P6AH_K@Z4@Z 00000001800319f8     RFIDScanner.obj
 0002:0000ba00       $unwind$?QueryHitRect@?$IViewObjectExImpl@VCOPOSRFIDScanner@@@ATL@@UEAAJKPEBUtagRECT@@0JPEAK@Z 0000000180031a00     RFIDScanner.obj
 0002:0000ba10       $unwind$?OnWindowMessage@?$IOleInPlaceObjectWindowlessImpl@VCOPOSRFIDScanner@@@ATL@@UEAAJI_K_JPEA_J@Z 0000000180031a10     RFIDScanner.obj
 0002:0000ba24       $unwind$?EnumConnectionPoints@?$IConnectionPointContainerImpl@VCOPOSRFIDScanner@@@ATL@@UEAAJPEAPEAUIEnumConnectionPoints@@@Z 0000000180031a24     RFIDScanner.obj
 0002:0000ba4c       $unwind$?FindConnectionPoint@?$IConnectionPointContainerImpl@VCOPOSRFIDScanner@@@ATL@@UEAAJAEBU_GUID@@PEAPEAUIConnectionPoint@@@Z 0000000180031a4c     RFIDScanner.obj
 0002:0000ba68       $unwind$?Load@?$IPersistStorageImpl@VCOPOSRFIDScanner@@@ATL@@UEAAJPEAUIStorage@@@Z 0000000180031a68     RFIDScanner.obj
 0002:0000ba78       $unwind$?Save@?$IPersistStorageImpl@VCOPOSRFIDScanner@@@ATL@@UEAAJPEAUIStorage@@H@Z 0000000180031a78     RFIDScanner.obj
 0002:0000ba8c       $unwind$?IPSI_GetIPersistStreamInit@?$IPersistStorageImpl@VCOPOSRFIDScanner@@@ATL@@AEAAPEAUIPersistStreamInit@@XZ 0000000180031a8c     RFIDScanner.obj
 0002:0000baa0       $unwind$?GetInterfaceSafetyOptions@?$IObjectSafetyImpl@VCOPOSRFIDScanner@@$02@ATL@@UEAAJAEBU_GUID@@PEAK1@Z 0000000180031aa0     RFIDScanner.obj
 0002:0000bab4       $unwind$?SetInterfaceSafetyOptions@?$IObjectSafetyImpl@VCOPOSRFIDScanner@@$02@ATL@@UEAAJAEBU_GUID@@KK@Z 0000000180031ab4     RFIDScanner.obj
 0002:0000bac8       $unwind$?Advise@?$IConnectionPointImpl@VCOPOSRFIDScanner@@$1?DIID__IOPOSRFIDScannerEvents@@3U_GUID@@BVCComDynamicUnkArray@ATL@@@ATL@@UEAAJPEAUIUnknown@@PEAK@Z 0000000180031ac8     RFIDScanner.obj
 0002:0000bac8       $unwind$?Advise@?$IConnectionPointImpl@VCOPOSRFIDScanner@@$1?IID_IPropertyNotifySink@@3U_GUID@@BVCComDynamicUnkArray@ATL@@@ATL@@UEAAJPEAUIUnknown@@PEAK@Z 0000000180031ac8     RFIDScanner.obj
 0002:0000badc       $unwind$?EnumConnections@?$IConnectionPointImpl@VCOPOSRFIDScanner@@$1?DIID__IOPOSRFIDScannerEvents@@3U_GUID@@BVCComDynamicUnkArray@ATL@@@ATL@@UEAAJPEAPEAUIEnumConnections@@@Z 0000000180031adc     RFIDScanner.obj
 0002:0000badc       $unwind$?EnumConnections@?$IConnectionPointImpl@VCOPOSRFIDScanner@@$1?IID_IPropertyNotifySink@@3U_GUID@@BVCComDynamicUnkArray@ATL@@@ATL@@UEAAJPEAPEAUIEnumConnections@@@Z 0000000180031adc     RFIDScanner.obj
 0002:0000baf4       $unwind$?Fire_DataEvent@?$CProxy_IOPOSEvents@VCOPOSRFIDScanner@@@@QEAAXJ@Z 0000000180031af4     RFIDScanner.obj
 0002:0000baf4       $unwind$?Fire_OutputCompleteEvent@?$CProxy_IOPOSEvents@VCOPOSRFIDScanner@@@@QEAAXJ@Z 0000000180031af4     RFIDScanner.obj
 0002:0000baf4       $unwind$?Fire_StatusUpdateEvent@?$CProxy_IOPOSEvents@VCOPOSRFIDScanner@@@@QEAAXJ@Z 0000000180031af4     RFIDScanner.obj
 0002:0000baf4       $unwind$?fp_format_e@@YAHQEBNQEAD_K12H_NIW4__acrt_rounding_mode@@AEAV__crt_cached_ptd_host@@@Z 0000000180031af4     libucrt:cvt.obj
 0002:0000baf4       $unwind$??$__InternalCxxFrameHandler@V__FrameHandler3@@@@YA?AW4_EXCEPTION_DISPOSITION@@PEAUEHExceptionRecord@@PEA_KPEAU_CONTEXT@@PEAU_xDISPATCHER_CONTEXT@@PEBU_s_FuncInfo@@H1E@Z 0000000180031af4     libvcruntime:frame.obj
 0002:0000bb0c       $unwind$?Fire_DirectIOEvent@?$CProxy_IOPOSEvents@VCOPOSRFIDScanner@@@@QEAAXJPEAJPEAPEA_W@Z 0000000180031b0c     RFIDScanner.obj
 0002:0000bb2c       $unwind$?Fire_ErrorEvent@?$CProxy_IOPOSEvents@VCOPOSRFIDScanner@@@@QEAAXJJJPEAJ@Z 0000000180031b2c     RFIDScanner.obj
 0002:0000bb4c       $unwind$?FireTheEvent@?$CProxy_IOPOSEvents@VCOPOSRFIDScanner@@@@IEAAXPEAVOposVariant@@IAEAJPEB_WJ@Z 0000000180031b4c     RFIDScanner.obj
 0002:0000bb5c       $unwind$?ProcessWindowMessage@COPOSRFIDScanner@@UEAAHPEAUHWND__@@I_K_JAEA_JK@Z 0000000180031b5c     RFIDScanner.obj
 0002:0000bb74       $unwind$?SOError@COPOSRFIDScanner@@MEAAJJJJPEAJ@Z 0000000180031b74     RFIDScanner.obj
 0002:0000bb74       $unwind$??$common_lseek_nolock@_J@@YA_JH_JHAEAV__crt_cached_ptd_host@@@Z 0000000180031b74     libucrt:lseek.obj
 0002:0000bb74       $unwind$_invalid_parameter_internal 0000000180031b74     libucrt:invalid_parameter.obj
 0002:0000bb74       $unwind$??$type_case_integer@$07@?$output_processor@_WV?$string_output_adapter@_W@__crt_stdio_output@@V?$format_validation_base@_WV?$string_output_adapter@_W@__crt_stdio_output@@@2@@__crt_stdio_output@@AEAA_N_N@Z 0000000180031b74     libucrt:output.obj
 0002:0000bb74       $unwind$??$type_case_integer@$09@?$output_processor@_WV?$string_output_adapter@_W@__crt_stdio_output@@V?$format_validation_base@_WV?$string_output_adapter@_W@__crt_stdio_output@@@2@@__crt_stdio_output@@AEAA_N_N@Z 0000000180031b74     libucrt:output.obj
 0002:0000bb74       $unwind$??$type_case_integer@$0BA@@?$output_processor@_WV?$string_output_adapter@_W@__crt_stdio_output@@V?$format_validation_base@_WV?$string_output_adapter@_W@__crt_stdio_output@@@2@@__crt_stdio_output@@AEAA_N_N@Z 0000000180031b74     libucrt:output.obj
 0002:0000bb88       $unwind$?Clone@?$CComEnumImpl@UIEnumConnectionPoints@@$1?_GUID_b196b285_bab4_101a_b69c_00aa00341d07@@3U__s_GUID@@BPEAUIConnectionPoint@@V?$_CopyInterface@UIConnectionPoint@@@ATL@@@ATL@@UEAAJPEAPEAUIEnumConnectionPoints@@@Z 0000000180031b88     RFIDScanner.obj
 0002:0000bb88       $unwind$?Clone@?$CComEnumImpl@UIEnumConnections@@$1?_GUID_b196b287_bab4_101a_b69c_00aa00341d07@@3U__s_GUID@@BUtagCONNECTDATA@@V?$_Copy@UtagCONNECTDATA@@@ATL@@@ATL@@UEAAJPEAPEAUIEnumConnections@@@Z 0000000180031b88     RFIDScanner.obj
 0002:0000bba0       $unwind$?Init@?$CComEnumImpl@UIEnumConnectionPoints@@$1?_GUID_b196b285_bab4_101a_b69c_00aa00341d07@@3U__s_GUID@@BPEAUIConnectionPoint@@V?$_CopyInterface@UIConnectionPoint@@@ATL@@@ATL@@QEAAJPEAPEAUIConnectionPoint@@0PEAUIUnknown@@W4CComEnumFlags@2@@Z 0000000180031ba0     RFIDScanner.obj
 0002:0000bba0       $unwind$?Init@?$CComEnumImpl@UIEnumConnections@@$1?_GUID_b196b287_bab4_101a_b69c_00aa00341d07@@3U__s_GUID@@BUtagCONNECTDATA@@V?$_Copy@UtagCONNECTDATA@@@ATL@@@ATL@@QEAAJPEAUtagCONNECTDATA@@0PEAUIUnknown@@W4CComEnumFlags@2@@Z 0000000180031ba0     RFIDScanner.obj
 0002:0000bba0       $unwind$?should_round_up@@YA_NQEBN_KFW4__acrt_rounding_mode@@@Z 0000000180031ba0     libucrt:cvt.obj
 0002:0000bba0       $unwind$??$parse_command_line@D@@YAXPEADPEAPEAD0PEA_K2@Z 0000000180031ba0     libucrt:argv_parsing.obj
 0002:0000bbbc       $unwind$?GetOposProp@COPOSRFIDScanner@@IEAAJJPEAJJ@Z 0000000180031bbc     RFIDScannerImpl.obj
 0002:0000bbbc       $unwind$?GetOposProp@COPOSRFIDScanner@@IEAAJJPEAPEA_WJ@Z 0000000180031bbc     RFIDScannerImpl.obj
 0002:0000bbd4       $unwind$?SetOposProp@COPOSRFIDScanner@@IEAAJJJJ@Z 0000000180031bd4     RFIDScannerImpl.obj
 0002:0000bbf4       $unwind$?DoInvoke@COPOSRFIDScanner@@IEAAJJPEAVOposVariant@@IHPEAJ_N@Z 0000000180031bf4     RFIDScannerImpl.obj
 0002:0000bc0c       $unwind$?SetCOFreezeEvents@COPOSRFIDScanner@@IEAAXF@Z 0000000180031c0c     RFIDScannerImpl.obj
 0002:0000bc20       $unwind$?OnDraw@COPOSRFIDScanner@@MEAAJAEAUATL_DRAWINFO@@@Z 0000000180031c20     RFIDScannerImpl.obj
 0002:0000bc38       $unwind$?EventInit@COPOSRFIDScanner@@IEAAJXZ 0000000180031c38     RFIDScannerImpl.obj
 0002:0000bc4c       $unwind$?EventWindowProc@COPOSRFIDScanner@@IEAA_JI_K_J@Z 0000000180031c4c     RFIDScannerImpl.obj
 0002:0000bc4c       $unwind$?type_case_n@?$output_processor@_WV?$string_output_adapter@_W@__crt_stdio_output@@V?$format_validation_base@_WV?$string_output_adapter@_W@__crt_stdio_output@@@2@@__crt_stdio_output@@AEAA_NXZ 0000000180031c4c     libucrt:output.obj
 0002:0000bc58       $unwind$?get_ControlObjectDescription@COPOSRFIDScanner@@UEAAJPEAPEA_W@Z 0000000180031c58     RFIDScannerImpl.obj
 0002:0000bc58       $unwind$__dcrt_lowio_ensure_console_output_initialized 0000000180031c58     libucrt:initcon.obj
 0002:0000bc58       $unwind$?__mbrtowc_utf8@__crt_mbstring@@YA_KPEA_WPEBD_KPEAU_Mbstatet@@AEAV__crt_cached_ptd_host@@@Z 0000000180031c58     libucrt:mbrtowc.obj
 0002:0000bc58       $unwind$?getSystemCP@@YAHH@Z 0000000180031c58     libucrt:mbctype.obj
 0002:0000bc60       $unwind$?CheckHealth@COPOSRFIDScanner@@UEAAJJPEAJ@Z 0000000180031c60     RFIDScannerImpl.obj
 0002:0000bc60       $unwind$?ResetStatistics@COPOSRFIDScanner@@UEAAJPEA_WPEAJ@Z 0000000180031c60     RFIDScannerImpl.obj
 0002:0000bc60       $unwind$?RetrieveStatistics@COPOSRFIDScanner@@UEAAJPEAPEA_WPEAJ@Z 0000000180031c60     RFIDScannerImpl.obj
 0002:0000bc60       $unwind$?StopReadTags@COPOSRFIDScanner@@UEAAJPEA_WPEAJ@Z 0000000180031c60     RFIDScannerImpl.obj
 0002:0000bc60       $unwind$?UpdateFirmware@COPOSRFIDScanner@@UEAAJPEA_WPEAJ@Z 0000000180031c60     RFIDScannerImpl.obj
 0002:0000bc60       $unwind$?UpdateStatistics@COPOSRFIDScanner@@UEAAJPEA_WPEAJ@Z 0000000180031c60     RFIDScannerImpl.obj
 0002:0000bc70       $unwind$?ClaimDevice@COPOSRFIDScanner@@UEAAJJPEAJ@Z 0000000180031c70     RFIDScannerImpl.obj
 0002:0000bc80       $unwind$?Close@COPOSRFIDScanner@@UEAAJPEAJ@Z 0000000180031c80     RFIDScannerImpl.obj
 0002:0000bc8c       $unwind$?DirectIO@COPOSRFIDScanner@@UEAAJJPEAJPEAPEA_W0@Z 0000000180031c8c     RFIDScannerImpl.obj
 0002:0000bc8c       $unwind$?DisableTag@COPOSRFIDScanner@@UEAAJPEA_WJ0PEAJ@Z 0000000180031c8c     RFIDScannerImpl.obj
 0002:0000bc8c       $unwind$?LockTag@COPOSRFIDScanner@@UEAAJPEA_WJ0PEAJ@Z 0000000180031c8c     RFIDScannerImpl.obj
 0002:0000bca8       $unwind$?Open@COPOSRFIDScanner@@UEAAJPEA_WPEAJ@Z 0000000180031ca8     RFIDScannerImpl.obj
 0002:0000bccc       $unwind$?CompareFirmwareVersion@COPOSRFIDScanner@@UEAAJPEA_WPEAJ1@Z 0000000180031ccc     RFIDScannerImpl.obj
 0002:0000bccc       $unwind$?initialize_inherited_file_handles_nolock@@YAXXZ 0000000180031ccc     libucrt:ioinit.obj
 0002:0000bce8       $unwind$?ReadTags@COPOSRFIDScanner@@UEAAJJPEA_W0JJJ0PEAJ@Z 0000000180031ce8     RFIDScannerImpl.obj
 0002:0000bd08       $unwind$?StartReadTags@COPOSRFIDScanner@@UEAAJJPEA_W0JJ0PEAJ@Z 0000000180031d08     RFIDScannerImpl.obj
 0002:0000bd08       $unwind$??$FindHandler@V__FrameHandler3@@@@YAXPEAUEHExceptionRecord@@PEA_KPEAU_CONTEXT@@PEAU_xDISPATCHER_CONTEXT@@PEBU_s_FuncInfo@@EH1@Z 0000000180031d08     libvcruntime:frame.obj
 0002:0000bd28       $unwind$?WriteTagData@COPOSRFIDScanner@@UEAAJPEA_W0JJ0PEAJ@Z 0000000180031d28     RFIDScannerImpl.obj
 0002:0000bd48       $unwind$?WriteTagID@COPOSRFIDScanner@@UEAAJPEA_W0J0PEAJ@Z 0000000180031d48     RFIDScannerImpl.obj
 0002:0000bd68       $unwind$__scrt_is_nonwritable_in_current_image 0000000180031d68     LIBCMT:utility.obj
 0002:0000bd88       $unwind$__scrt_is_nonwritable_in_current_image$filt$0 0000000180031d88     LIBCMT:utility.obj
 0002:0000bd90       $unwind$__report_securityfailure 0000000180031d90     LIBCMT:gs_report.obj
 0002:0000bd98       $unwind$__report_gsfailure 0000000180031d98     LIBCMT:gs_report.obj
 0002:0000bda0       $unwind$capture_current_context 0000000180031da0     LIBCMT:gs_report.obj
 0002:0000bdac       $unwind$capture_previous_context 0000000180031dac     LIBCMT:gs_report.obj
 0002:0000bdb8       $unwind$??2@YAPEAX_KAEBUnothrow_t@std@@@Z 0000000180031db8     LIBCMT:new_scalar_nothrow.obj
 0002:0000bdc8       $cppxdata$??2@YAPEAX_KAEBUnothrow_t@std@@@Z 0000000180031dc8     LIBCMT:new_scalar_nothrow.obj
 0002:0000bdd5       $stateUnwindMap$??2@YAPEAX_KAEBUnothrow_t@std@@@Z 0000000180031dd5     LIBCMT:new_scalar_nothrow.obj
 0002:0000bdd8       $tryMap$??2@YAPEAX_KAEBUnothrow_t@std@@@Z 0000000180031dd8     LIBCMT:new_scalar_nothrow.obj
 0002:0000bde0       $handlerMap$??2@YAPEAX_KAEBUnothrow_t@std@@@Z 0000000180031de0     LIBCMT:new_scalar_nothrow.obj
 0002:0000bde8       $ip2state$??2@YAPEAX_KAEBUnothrow_t@std@@@Z 0000000180031de8     LIBCMT:new_scalar_nothrow.obj
 0002:0000bdec       $unwind$?catch$0@?0???2@YAPEAX_KAEBUnothrow_t@std@@@Z@4HA 0000000180031dec     LIBCMT:new_scalar_nothrow.obj
 0002:0000bdfc       $cppxdata$?catch$0@?0???2@YAPEAX_KAEBUnothrow_t@std@@@Z@4HA 0000000180031dfc     LIBCMT:new_scalar_nothrow.obj
 0002:0000be06       $stateUnwindMap$?catch$0@?0???2@YAPEAX_KAEBUnothrow_t@std@@@Z@4HA 0000000180031e06     LIBCMT:new_scalar_nothrow.obj
 0002:0000be08       $ip2state$?catch$0@?0???2@YAPEAX_KAEBUnothrow_t@std@@@Z@4HA 0000000180031e08     LIBCMT:new_scalar_nothrow.obj
 0002:0000be0c       $unwind$__GSHandlerCheckCommon 0000000180031e0c     LIBCMT:gshandler.obj
 0002:0000be18       $xdatasym                  0000000180031e18     LIBCMT:chkstk.obj
 0002:0000be20       $xdatasym                  0000000180031e20     LIBCMT:amdsecgs.obj
 0002:0000be24       $unwind$?dllmain_crt_process_attach@@YAHQEAUHINSTANCE__@@QEAX@Z 0000000180031e24     LIBCMT:dll_dllmain.obj
 0002:0000be60       $unwind$?dllmain_crt_process_detach@@YAH_N@Z 0000000180031e60     LIBCMT:dll_dllmain.obj
 0002:0000beb4       $unwind$?dllmain_dispatch@@YAHQEAUHINSTANCE__@@KQEAX@Z 0000000180031eb4     LIBCMT:dll_dllmain.obj
 0002:0000bedc       $unwind$_write_internal$fin$0 0000000180031edc     libucrt:write.obj
 0002:0000bedc       $unwind$?fin$0@?0??_fclose_internal@@YAHQEAU_iobuf@@AEAV__crt_cached_ptd_host@@@Z@4HA 0000000180031edc     libucrt:fclose.obj
 0002:0000bedc       $unwind$?filt$0@?0??dllmain_dispatch@@YAHQEAUHINSTANCE__@@KQEAX@Z@4HA 0000000180031edc     LIBCMT:dll_dllmain.obj
 0002:0000bedc       $unwind$?filt$0@?0??FrameUnwindToState@__FrameHandler4@@SAXPEA_KPEAU_xDISPATCHER_CONTEXT@@PEAUFuncInfo4@FH4@@H@Z@4HA 0000000180031edc     libvcruntime:frame.obj
 0002:0000bedc       $unwind$?fin$1@?0??FrameUnwindToState@__FrameHandler4@@SAXPEA_KPEAU_xDISPATCHER_CONTEXT@@PEAUFuncInfo4@FH4@@H@Z@4HA 0000000180031edc     libvcruntime:frame.obj
 0002:0000bee4       $unwind$__isa_available_init 0000000180031ee4     LIBCMT:cpu_disp.obj
 0002:0000bef4       $unwind$__scrt_fastfail    0000000180031ef4     LIBCMT:utility_desktop.obj
 0002:0000bf04       $unwind$__security_init_cookie 0000000180031f04     LIBCMT:gs_support.obj
 0002:0000bf10       $xdatasym                  0000000180031f10     LIBCMT:guard_dispatch.obj
 0002:0000bf18       $xdatasym                  0000000180031f18     LIBCMT:guard_xfg_dispatch.obj
 0002:0000bf1c       $unwind$AtlThunk_InitData  0000000180031f1c     atls:atlthunk.obj
 0002:0000bf30       $unwind$wcsstr             0000000180031f30     libvcruntime:wcsstr.obj
 0002:0000bf48       $xdatasym                  0000000180031f48     libvcruntime:memcmp.obj
 0002:0000bf50       $xdatasym                  0000000180031f50     libvcruntime:memcpy.obj
 0002:0000bf60       $xdatasym                  0000000180031f60     libvcruntime:memset.obj
 0002:0000bf70       $unwind$__C_specific_handler 0000000180031f70     libvcruntime:riscchandler.obj
 0002:0000bf70       $unwind$?GetRangeOfTrysToCheck@__FrameHandler3@@SA?AU?$pair@Viterator@TryBlockMap@__FrameHandler3@@V123@@std@@AEAVTryBlockMap@1@HPEAU_xDISPATCHER_CONTEXT@@PEBU_s_FuncInfo@@H@Z 0000000180031f70     libvcruntime:risctrnsctrl.obj
 0002:0000bf8c       $unwind$?StateFromIp@__FrameHandler4@@SAHPEAUFuncInfo4@FH4@@PEAU_xDISPATCHER_CONTEXT@@_K@Z 0000000180031f8c     libvcruntime:ehstate.obj
 0002:0000bf8c       $unwind$?DecompFuncInfo@FH4@@YA_JPEAEAEAUFuncInfo4@1@_KH_N@Z 0000000180031f8c     libvcruntime:risctrnsctrl.obj
 0002:0000bfa4       $unwind$?GetEstablisherFrame@__FrameHandler3@@SAPEA_KPEA_KPEAU_xDISPATCHER_CONTEXT@@PEBU_s_FuncInfo@@0@Z 0000000180031fa4     libvcruntime:risctrnsctrl.obj
 0002:0000bfbc       $unwind$?UnwindNestedFrames@__FrameHandler3@@SAXPEA_KPEAUEHExceptionRecord@@PEAU_CONTEXT@@0PEAXPEBU_s_FuncInfo@@HHPEBU_s_HandlerType@@PEAU_xDISPATCHER_CONTEXT@@E@Z 0000000180031fbc     libvcruntime:risctrnsctrl.obj
 0002:0000bfbc       $unwind$?UnwindNestedFrames@__FrameHandler4@@SAXPEA_KPEAUEHExceptionRecord@@PEAU_CONTEXT@@0PEAXPEAUFuncInfo4@FH4@@HHPEAUHandlerType4@5@PEAU_xDISPATCHER_CONTEXT@@E@Z 0000000180031fbc     libvcruntime:risctrnsctrl.obj
 0002:0000bfd0       $unwind$?GetRangeOfTrysToCheck@__FrameHandler4@@SA?AU?$pair@Viterator@TryBlockMap4@FH4@@V123@@std@@AEAVTryBlockMap4@FH4@@HPEAU_xDISPATCHER_CONTEXT@@PEAUFuncInfo4@5@H@Z 0000000180031fd0     libvcruntime:risctrnsctrl.obj
 0002:0000bfec       $unwind$__CxxFrameHandler3 0000000180031fec     libvcruntime:risctrnsctrl.obj
 0002:0000c000       $unwind$__CxxFrameHandler4 0000000180032000     libvcruntime:risctrnsctrl.obj
 0002:0000c014       $unwind$??$_CallSETranslator@V__FrameHandler4@@@@YAHPEAUEHExceptionRecord@@PEA_KPEAU_CONTEXT@@PEAU_xDISPATCHER_CONTEXT@@PEAUFuncInfo4@FH4@@K1H@Z 0000000180032014     libvcruntime:risctrnsctrl.obj
 0002:0000c034       $unwind$?filt$0@?0???$_CallSETranslator@V__FrameHandler3@@@@YAHPEAUEHExceptionRecord@@PEA_KPEAU_CONTEXT@@PEAU_xDISPATCHER_CONTEXT@@PEBU_s_FuncInfo@@K1H@Z@4HA 0000000180032034     libvcruntime:risctrnsctrl.obj
 0002:0000c034       $unwind$?filt$0@?0???$_CallSETranslator@V__FrameHandler4@@@@YAHPEAUEHExceptionRecord@@PEA_KPEAU_CONTEXT@@PEAU_xDISPATCHER_CONTEXT@@PEAUFuncInfo4@FH4@@K1H@Z@4HA 0000000180032034     libvcruntime:risctrnsctrl.obj
 0002:0000c040       $unwind$??$_CallSETranslator@V__FrameHandler3@@@@YAHPEAUEHExceptionRecord@@PEA_KPEAU_CONTEXT@@PEAU_xDISPATCHER_CONTEXT@@PEBU_s_FuncInfo@@K1H@Z 0000000180032040     libvcruntime:risctrnsctrl.obj
 0002:0000c060       $unwind$__DestructExceptionObject 0000000180032060     libvcruntime:ehhelpers.obj
 0002:0000c080       $unwind$__DestructExceptionObject$filt$0 0000000180032080     libvcruntime:ehhelpers.obj
 0002:0000c080       $unwind$?fin$1@?0??CxxCallCatchBlock@__FrameHandler3@@SAPEAXPEAU_EXCEPTION_RECORD@@@Z@4HA 0000000180032080     libvcruntime:frame.obj
 0002:0000c080       $unwind$?fin$1@?0??CxxCallCatchBlock@__FrameHandler4@@SAPEAXPEAU_EXCEPTION_RECORD@@@Z@4HA 0000000180032080     libvcruntime:frame.obj
 0002:0000c08c       $unwind$_CxxThrowException 000000018003208c     libvcruntime:throw.obj
 0002:0000c0a0       $xdatasym                  00000001800320a0     libvcruntime:notify.obj
 0002:0000c0ac       $unwind$?getStartStop@UWMap4@FH4@@QEAAXHHAEAViterator@12@0@Z 00000001800320ac     libvcruntime:frame.obj
 0002:0000c0c4       $unwind$?FrameUnwindToState@__FrameHandler3@@SAXPEA_KPEAU_xDISPATCHER_CONTEXT@@PEBU_s_FuncInfo@@H@Z 00000001800320c4     libvcruntime:frame.obj
 0002:0000c110       $unwind$?CxxCallCatchBlock@__FrameHandler3@@SAPEAXPEAU_EXCEPTION_RECORD@@@Z 0000000180032110     libvcruntime:frame.obj
 0002:0000c14c       $unwind$?FrameUnwindToState@__FrameHandler4@@SAXPEA_KPEAU_xDISPATCHER_CONTEXT@@PEAUFuncInfo4@FH4@@H@Z 000000018003214c     libvcruntime:frame.obj
 0002:0000c194       $unwind$?CxxCallCatchBlock@__FrameHandler4@@SAPEAXPEAU_EXCEPTION_RECORD@@@Z 0000000180032194     libvcruntime:frame.obj
 0002:0000c1f0       $unwind$?IsInExceptionSpec@@YAEPEAUEHExceptionRecord@@PEBU_s_ESTypeList@@@Z 00000001800321f0     libvcruntime:frame.obj
 0002:0000c20c       $unwind$??$__InternalCxxFrameHandler@V__FrameHandler4@@@@YA?AW4_EXCEPTION_DISPOSITION@@PEAUEHExceptionRecord@@PEA_KPEAU_CONTEXT@@PEAU_xDISPATCHER_CONTEXT@@PEAUFuncInfo4@FH4@@H1E@Z 000000018003220c     libvcruntime:frame.obj
 0002:0000c224       $unwind$??$BuildCatchObjectHelperInternal@V__FrameHandler3@@@@YAHPEAUEHExceptionRecord@@PEAXPEBU_s_HandlerType@@PEBU_s_CatchableType@@@Z 0000000180032224     libvcruntime:frame.obj
 0002:0000c264       $unwind$??$BuildCatchObjectHelperInternal@V__FrameHandler4@@@@YAHPEAUEHExceptionRecord@@PEAXPEAUHandlerType4@FH4@@PEBU_s_CatchableType@@@Z 0000000180032264     libvcruntime:frame.obj
 0002:0000c2a4       $unwind$??$BuildCatchObjectInternal@V__FrameHandler3@@@@YAXPEAUEHExceptionRecord@@PEAXPEBU_s_HandlerType@@PEBU_s_CatchableType@@@Z 00000001800322a4     libvcruntime:frame.obj
 0002:0000c2d0       $unwind$??$BuildCatchObjectInternal@V__FrameHandler4@@@@YAXPEAUEHExceptionRecord@@PEAXPEAUHandlerType4@FH4@@PEBU_s_CatchableType@@@Z 00000001800322d0     libvcruntime:frame.obj
 0002:0000c2fc       $unwind$??$FindHandler@V__FrameHandler4@@@@YAXPEAUEHExceptionRecord@@PEA_KPEAU_CONTEXT@@PEAU_xDISPATCHER_CONTEXT@@PEAUFuncInfo4@FH4@@EH1@Z 00000001800322fc     libvcruntime:frame.obj
 0002:0000c31c       $unwind$??$CatchIt@V__FrameHandler3@@@@YAXPEAUEHExceptionRecord@@PEA_KPEAU_CONTEXT@@PEAU_xDISPATCHER_CONTEXT@@PEBU_s_FuncInfo@@PEBU_s_HandlerType@@PEBU_s_CatchableType@@PEBU_s_TryBlockMapEntry@@H1EE@Z 000000018003231c     libvcruntime:frame.obj
 0002:0000c31c       $unwind$??$CatchIt@V__FrameHandler4@@@@YAXPEAUEHExceptionRecord@@PEA_KPEAU_CONTEXT@@PEAU_xDISPATCHER_CONTEXT@@PEAUFuncInfo4@FH4@@PEAUHandlerType4@4@PEBU_s_CatchableType@@PEAUTryBlockMapEntry4@4@H1EE@Z 000000018003231c     libvcruntime:frame.obj
 0002:0000c334       $unwind$??$FindHandlerForForeignException@V__FrameHandler3@@@@YAXPEAUEHExceptionRecord@@PEA_KPEAU_CONTEXT@@PEAU_xDISPATCHER_CONTEXT@@PEBU_s_FuncInfo@@HH1@Z 0000000180032334     libvcruntime:frame.obj
 0002:0000c350       $unwind$??$FindHandlerForForeignException@V__FrameHandler4@@@@YAXPEAUEHExceptionRecord@@PEA_KPEAU_CONTEXT@@PEAU_xDISPATCHER_CONTEXT@@PEAUFuncInfo4@FH4@@HH1@Z 0000000180032350     libvcruntime:frame.obj
 0002:0000c370       $unwind$?try_get_function@@YAPEAXW4function_id@?A0x391cf84c@@QEBDQEBW4module_id@2@2@Z 0000000180032370     libucrt:winapi_thunks.obj
 0002:0000c370       $unwind$?try_get_function@@YAPEAXW4function_id@?A0xbc0cc709@@QEBDQEBW4module_id@2@2@Z 0000000180032370     libvcruntime:winapi_downlevel.obj
 0002:0000c390       $xdatasym                  0000000180032390     libvcruntime:handlers.obj
 0002:0000c3b0       $unwind$__acrt_call_reportfault 00000001800323b0     libucrt:invalid_parameter.obj
 0002:0000c3d0       $unwind$_invalid_parameter 00000001800323d0     libucrt:invalid_parameter.obj
 0002:0000c3dc       $unwind$_resetstkoflw      00000001800323dc     libucrt:resetstk.obj
 0002:0000c400       $unwind$__stdio_common_vswprintf_s 0000000180032400     libucrt:output.obj
 0002:0000c414       $unwind$?write_string@?$string_output_adapter@_W@__crt_stdio_output@@QEBAXQEB_WHQEAHAEAV__crt_cached_ptd_host@@@Z 0000000180032414     libucrt:output.obj
 0002:0000c42c       $unwind$??$common_vsprintf@Vformat_validation_base@__crt_stdio_output@@_W@@YAH_KQEA_W0QEB_WAEAV__crt_cached_ptd_host@@QEAD@Z 000000018003242c     libucrt:output.obj
 0002:0000c44c       $unwind$?parse_int_from_format_string@?$output_processor@_WV?$string_output_adapter@_W@__crt_stdio_output@@V?$format_validation_base@_WV?$string_output_adapter@_W@__crt_stdio_output@@@2@@__crt_stdio_output@@AEAA_NQEAH@Z 000000018003244c     libucrt:output.obj
 0002:0000c460       $unwind$?state_case_type@?$output_processor@_WV?$string_output_adapter@_W@__crt_stdio_output@@V?$format_validation_base@_WV?$string_output_adapter@_W@__crt_stdio_output@@@2@@__crt_stdio_output@@AEAA_NXZ 0000000180032460     libucrt:output.obj
 0002:0000c484       $unwind$?type_case_a@?$output_processor@_WV?$string_output_adapter@_W@__crt_stdio_output@@V?$format_validation_base@_WV?$string_output_adapter@_W@__crt_stdio_output@@@2@@__crt_stdio_output@@AEAA_NXZ 0000000180032484     libucrt:output.obj
 0002:0000c498       $unwind$??$parse_integer@KV?$c_string_character_source@_W@__crt_strtox@@$0A@@__crt_strtox@@YAKAEAV__crt_cached_ptd_host@@V?$c_string_character_source@_W@0@H_N@Z 0000000180032498     libucrt:output.obj
 0002:0000c4b4       $unwind$?try_cor_exit_process@@YAXI@Z 00000001800324b4     libucrt:exit.obj
 0002:0000c4c8       $ip2state$?try_cor_exit_process@@YAXI@Z 00000001800324c8     libucrt:exit.obj
 0002:0000c4d0       $unwind$?common_exit@@YAXHW4_crt_exit_cleanup_mode@@W4_crt_exit_return_mode@@@Z 00000001800324d0     libucrt:exit.obj
 0002:0000c4e4       $stateUnwindMap$__dcrt_uninitialize_environments_nolock 00000001800324e4     libucrt:environment_initialization.obj
 0002:0000c4e4       $stateUnwindMap$?common_exit@@YAXHW4_crt_exit_cleanup_mode@@W4_crt_exit_return_mode@@@Z 00000001800324e4     libucrt:exit.obj
 0002:0000c4e4       $stateUnwindMap$_execute_onexit_table 00000001800324e4     libucrt:onexit.obj
 0002:0000c4f0       $ip2state$?common_exit@@YAXHW4_crt_exit_cleanup_mode@@W4_crt_exit_return_mode@@@Z 00000001800324f0     libucrt:exit.obj
 0002:0000c4f8       $unwind$??R<lambda_6e4b09c48022b2350581041d5f6b0c4c>@@QEBA@XZ 00000001800324f8     libucrt:exit.obj
 0002:0000c518       $unwind$??$?RV<lambda_d80eeec6fff315bfe5c115232f3240e3>@@AEAV<lambda_6e4b09c48022b2350581041d5f6b0c4c>@@V<lambda_2358e3775559c9db80273638284d5e45>@@@?$__crt_seh_guarded_call@X@@QEAAX$$QEAV<lambda_d80eeec6fff315bfe5c115232f3240e3>@@AEAV<lambda_6e4b09c48022b2350581041d5f6b0c4c>@@$$QEAV<lambda_2358e3775559c9db80273638284d5e45>@@@Z 0000000180032518     libucrt:exit.obj
 0002:0000c53c       $unwind$__dcrt_uninitialize_environments_nolock 000000018003253c     libucrt:environment_initialization.obj
 0002:0000c54c       $unwind$??$free_environment@D@@YAXQEAPEAD@Z 000000018003254c     libucrt:environment_initialization.obj
 0002:0000c54c       $unwind$??$free_environment@_W@@YAXQEAPEA_W@Z 000000018003254c     libucrt:environment_initialization.obj
 0002:0000c54c       $unwind$_initterm          000000018003254c     libucrt:initterm.obj
 0002:0000c558       $unwind$_register_onexit_function 0000000180032558     libucrt:onexit.obj
 0002:0000c560       $unwind$_execute_onexit_table 0000000180032560     libucrt:onexit.obj
 0002:0000c570       $ip2state$_execute_onexit_table 0000000180032570     libucrt:onexit.obj
 0002:0000c578       $unwind$??R<lambda_22ebabd17bc4fa466a2aca6d8deb888d>@@QEBAHXZ 0000000180032578     libucrt:onexit.obj
 0002:0000c590       $unwind$??$?RV<lambda_638799b9deba96c50f710eeac98168cd>@@AEAV<lambda_22ebabd17bc4fa466a2aca6d8deb888d>@@V<lambda_a6f7d7db0129f75315ebf26d50c089f1>@@@?$__crt_seh_guarded_call@H@@QEAAH$$QEAV<lambda_638799b9deba96c50f710eeac98168cd>@@AEAV<lambda_22ebabd17bc4fa466a2aca6d8deb888d>@@$$QEAV<lambda_a6f7d7db0129f75315ebf26d50c089f1>@@@Z 0000000180032590     libucrt:onexit.obj
 0002:0000c5b4       $unwind$??$?RV<lambda_7777bce6b2f8c936911f934f8298dc43>@@AEAV<lambda_f03950bc5685219e0bcd2087efbe011e>@@V<lambda_3883c3dff614d5e0c5f61bb1ac94921c>@@@?$__crt_seh_guarded_call@H@@QEAAH$$QEAV<lambda_7777bce6b2f8c936911f934f8298dc43>@@AEAV<lambda_f03950bc5685219e0bcd2087efbe011e>@@$$QEAV<lambda_3883c3dff614d5e0c5f61bb1ac94921c>@@@Z 00000001800325b4     libucrt:onexit.obj
 0002:0000c5d8       $unwind$_query_new_handler 00000001800325d8     libucrt:new_handler.obj
 0002:0000c5f8       $unwind$terminate          00000001800325f8     libucrt:terminate.obj
 0002:0000c618       $xdatasym                  0000000180032618     libucrt:strncmp.obj
 0002:0000c61c       $unwind$?construct_ptd_array@@YAXQEAU__acrt_ptd@@@Z 000000018003261c     libucrt:per_thread_data.obj
 0002:0000c624       $unwind$?destroy_ptd_array@@YAXQEAU__acrt_ptd@@@Z 0000000180032624     libucrt:per_thread_data.obj
 0002:0000c62c       $unwind$??$?RV<lambda_0ae27a3a962d80f24befdcbee591983d>@@AEAV<lambda_8d0ee55de4b1038c4002e0adecdf1839>@@V<lambda_dc504788e8f1664fe9b84e20bfb512f2>@@@?$__crt_seh_guarded_call@X@@QEAAX$$QEAV<lambda_0ae27a3a962d80f24befdcbee591983d>@@AEAV<lambda_8d0ee55de4b1038c4002e0adecdf1839>@@$$QEAV<lambda_dc504788e8f1664fe9b84e20bfb512f2>@@@Z 000000018003262c     libucrt:per_thread_data.obj
 0002:0000c650       $unwind$??$?RV<lambda_aa87e3671a710a21b5dc78c0bdf72e11>@@AEAV<lambda_92619d2358a28f41a33ba319515a20b9>@@V<lambda_6992ecaafeb10aed2b74cb1fae11a551>@@@?$__crt_seh_guarded_call@X@@QEAAX$$QEAV<lambda_aa87e3671a710a21b5dc78c0bdf72e11>@@AEAV<lambda_92619d2358a28f41a33ba319515a20b9>@@$$QEAV<lambda_6992ecaafeb10aed2b74cb1fae11a551>@@@Z 0000000180032650     libucrt:per_thread_data.obj
 0002:0000c674       $unwind$??$?RV<lambda_f2e299630e499de9f9a165e60fcd3db5>@@AEAV<lambda_2ae9d31cdba2644fcbeaf08da7c24588>@@V<lambda_40d01ff24d0e7b3814fdbdcee8eab3c7>@@@?$__crt_seh_guarded_call@X@@QEAAX$$QEAV<lambda_f2e299630e499de9f9a165e60fcd3db5>@@AEAV<lambda_2ae9d31cdba2644fcbeaf08da7c24588>@@$$QEAV<lambda_40d01ff24d0e7b3814fdbdcee8eab3c7>@@@Z 0000000180032674     libucrt:per_thread_data.obj
 0002:0000c698       $unwind$??$?RV<lambda_2d41944a1d46af3157314b8a01080d33>@@AEAV<lambda_8f455de75cd7d7f24b4096f044d8b9e6>@@V<lambda_aa500f224e6afead328df44964fe2772>@@@?$__crt_seh_guarded_call@X@@QEAAX$$QEAV<lambda_2d41944a1d46af3157314b8a01080d33>@@AEAV<lambda_8f455de75cd7d7f24b4096f044d8b9e6>@@$$QEAV<lambda_aa500f224e6afead328df44964fe2772>@@@Z 0000000180032698     libucrt:per_thread_data.obj
 0002:0000c6bc       $unwind$__acrt_uninitialize_locale 00000001800326bc     libucrt:wsetlocale.obj
 0002:0000c6bc       $unwind$__acrt_get_sigabrt_handler 00000001800326bc     libucrt:signal.obj
 0002:0000c6c4       $unwind$??$?RV<lambda_410d79af7f07d98d83a3f525b3859a53>@@AEAV<lambda_3e16ef9562a7dcce91392c22ab16ea36>@@V<lambda_38119f0e861e05405d8a144b9b982f0a>@@@?$__crt_seh_guarded_call@X@@QEAAX$$QEAV<lambda_410d79af7f07d98d83a3f525b3859a53>@@AEAV<lambda_3e16ef9562a7dcce91392c22ab16ea36>@@$$QEAV<lambda_38119f0e861e05405d8a144b9b982f0a>@@@Z 00000001800326c4     libucrt:wsetlocale.obj
 0002:0000c6ec       $unwind$__acrt_initialize_winapi_thunks 00000001800326ec     libucrt:winapi_thunks.obj
 0002:0000c6ec       $unwind$__acrt_fenv_get_control 00000001800326ec     libucrt:_fenvutils.obj
 0002:0000c6f4       $unwind$__acrt_fp_format   00000001800326f4     libucrt:cvt.obj
 0002:0000c704       $unwind$?fp_format_e_internal@@YAHQEAD_KH_NIQEAU_strflt@@2AEAV__crt_cached_ptd_host@@@Z 0000000180032704     libucrt:cvt.obj
 0002:0000c720       $unwind$?fp_format_a@@YAHQEBNPEAD_KQEAD2H_NIW4__acrt_rounding_mode@@AEAV__crt_cached_ptd_host@@@Z 0000000180032720     libucrt:cvt.obj
 0002:0000c73c       $unwind$?fp_format_g@@YAHQEBNQEAD_K12H_NIW4__acrt_rounding_mode@@AEAV__crt_cached_ptd_host@@@Z 000000018003273c     libucrt:cvt.obj
 0002:0000c754       $unwind$__acrt_initialize_lowio 0000000180032754     libucrt:ioinit.obj
 0002:0000c774       $unwind$??$common_expand_argv_wildcards@D@@YAHQEAPEADQEAPEAPEAD@Z 0000000180032774     libucrt:argv_wildcards.obj
 0002:0000c78c       $unwind$__dcrt_get_narrow_environment_from_os 000000018003278c     libucrt:get_environment_from_os.obj
 0002:0000c78c       $unwind$??$__acrt_convert_wcs_mbs_cp@_WDV<lambda_d8593a27d1aa8c02be35c86a17d324c4>@@U__crt_win32_buffer_internal_dynamic_resizing@@@@YAHQEB_WAEAV?$__crt_win32_buffer@DU__crt_win32_buffer_internal_dynamic_resizing@@@@AEBV<lambda_d8593a27d1aa8c02be35c86a17d324c4>@@I@Z 000000018003278c     libucrt:argv_wildcards.obj
 0002:0000c7a4       $unwind$??$copy_and_add_argument_to_buffer@D@@YAHQEBD0_KAEAV?$argument_list@D@?A0x5f5c8891@@@Z 00000001800327a4     libucrt:argv_wildcards.obj
 0002:0000c7c0       $unwind$??$expand_argument_wildcards@D@@YAHQEAD0AEAV?$argument_list@D@?A0x5f5c8891@@@Z 00000001800327c0     libucrt:argv_wildcards.obj
 0002:0000c7e0       $unwind$__acrt_GetModuleFileNameA 00000001800327e0     libucrt:getmodulefilenamea.obj
 0002:0000c7fc       $unwind$_setmbcp_nolock    00000001800327fc     libucrt:mbctype.obj
 0002:0000c81c       $unwind$?update_thread_multibyte_data_internal@@YAPEAU__crt_multibyte_data@@QEAU__acrt_ptd@@QEAPEAU1@@Z 000000018003281c     libucrt:mbctype.obj
 0002:0000c844       $unwind$?setmbcp_internal@@YAHH_NQEAU__acrt_ptd@@QEAPEAU__crt_multibyte_data@@@Z 0000000180032844     libucrt:mbctype.obj
 0002:0000c85c       $unwind$?setSBUpLow@@YAXPEAU__crt_multibyte_data@@@Z 000000018003285c     libucrt:mbctype.obj
 0002:0000c878       $unwind$??$?RV<lambda_efdfa57d1f175319df784efa44bb7b81>@@AEAV<lambda_5f0a4c1567f8adc6734073e5d1e1b35c>@@V<lambda_2e8a7d3640ea6ccb4c2413664c2db6fd>@@@?$__crt_seh_guarded_call@X@@QEAAX$$QEAV<lambda_efdfa57d1f175319df784efa44bb7b81>@@AEAV<lambda_5f0a4c1567f8adc6734073e5d1e1b35c>@@$$QEAV<lambda_2e8a7d3640ea6ccb4c2413664c2db6fd>@@@Z 0000000180032878     libucrt:mbctype.obj
 0002:0000c89c       $unwind$__acrt_WideCharToMultiByte 000000018003289c     libucrt:widechartomultibyte.obj
 0002:0000c8a8       $unwind$raise              00000001800328a8     libucrt:signal.obj
 0002:0000c8e4       $unwind$??$?RV<lambda_450d765d439847d4c735a33c368b5fc0>@@AEAV<lambda_44731a7d0e6d81c3e6aa82d741081786>@@V<lambda_601a2a7da3b7a96e9554ac7215c4b07c>@@@?$__crt_seh_guarded_call@P6AXH@Z@@QEAAP6AXH@Z$$QEAV<lambda_450d765d439847d4c735a33c368b5fc0>@@AEAV<lambda_44731a7d0e6d81c3e6aa82d741081786>@@$$QEAV<lambda_601a2a7da3b7a96e9554ac7215c4b07c>@@@Z 00000001800328e4     libucrt:signal.obj
 0002:0000c908       $unwind$fclose             0000000180032908     libucrt:fclose.obj
 0002:0000c908       $unwind$_fflush_nolock     0000000180032908     libucrt:fflush.obj
 0002:0000c918       $unwind$?common_flush_all@@YAH_N@Z 0000000180032918     libucrt:fflush.obj
 0002:0000c920       $unwind$??$?RV<lambda_842d9ff0dc9ef11c61343bbaebe7f885>@@AEAV<lambda_c5860995281e5c4ce005b3de8f5874ee>@@V<lambda_d90129c13df834fdcbf8d2b88dafcf2d>@@@?$__crt_seh_guarded_call@X@@QEAAX$$QEAV<lambda_842d9ff0dc9ef11c61343bbaebe7f885>@@AEAV<lambda_c5860995281e5c4ce005b3de8f5874ee>@@$$QEAV<lambda_d90129c13df834fdcbf8d2b88dafcf2d>@@@Z 0000000180032920     libucrt:fflush.obj
 0002:0000c944       $unwind$??$?RV<lambda_886d6c58226a84441f68b9f2b8217b83>@@AEAV<lambda_ab61a845afdef5b7c387490eaf3616ee>@@V<lambda_f7f22ab5edc0698d5f6905b0d3f44752>@@@?$__crt_seh_guarded_call@X@@QEAAX$$QEAV<lambda_886d6c58226a84441f68b9f2b8217b83>@@AEAV<lambda_ab61a845afdef5b7c387490eaf3616ee>@@$$QEAV<lambda_f7f22ab5edc0698d5f6905b0d3f44752>@@@Z 0000000180032944     libucrt:fflush.obj
 0002:0000c96c       $unwind$__acrt_update_thread_locale_data 000000018003296c     libucrt:locale_refcounting.obj
 0002:0000c990       $unwind$__acrt_locale_free_monetary 0000000180032990     libucrt:initmon.obj
 0002:0000c998       $unwind$__acrt_locale_free_time 0000000180032998     libucrt:inittime.obj
 0002:0000c9a8       $unwind$__acrt_GetStringTypeA 00000001800329a8     libucrt:getstringtypea.obj
 0002:0000c9d0       $unwind$__acrt_fp_strflt_to_string 00000001800329d0     libucrt:_fptostr.obj
 0002:0000c9ec       $unwind$__acrt_fltout      00000001800329ec     libucrt:cfout.obj
 0002:0000ca0c       $unwind$?divide@__crt_strtox@@YA_KAEAUbig_integer@1@AEBU21@@Z 0000000180032a0c     libucrt:cfout.obj
 0002:0000ca24       $chain$0$?divide@__crt_strtox@@YA_KAEAUbig_integer@1@AEBU21@@Z 0000000180032a24     libucrt:cfout.obj
 0002:0000ca38       $chain$1$?divide@__crt_strtox@@YA_KAEAUbig_integer@1@AEBU21@@Z 0000000180032a38     libucrt:cfout.obj
 0002:0000ca48       $unwind$?__mbsrtowcs_utf8@__crt_mbstring@@YA_KPEA_WPEAPEBD_KPEAU_Mbstatet@@AEAV__crt_cached_ptd_host@@@Z 0000000180032a48     libucrt:mbrtowc.obj
 0002:0000ca60       $unwind$_fcloseall         0000000180032a60     libucrt:closeall.obj
 0002:0000ca84       $unwind$__acrt_lowio_destroy_handle_array 0000000180032a84     libucrt:osfinfo.obj
 0002:0000ca94       $unwind$__acrt_lowio_ensure_fh_exists 0000000180032a94     libucrt:osfinfo.obj
 0002:0000cac0       $unwind$qsort              0000000180032ac0     libucrt:qsort.obj
 0002:0000cad8       $chain$4$qsort             0000000180032ad8     libucrt:qsort.obj
 0002:0000cafc       $chain$5$qsort             0000000180032afc     libucrt:qsort.obj
 0002:0000cb0c       $unwind$strpbrk            0000000180032b0c     libucrt:strpbrk.obj
 0002:0000cb1c       $unwind$fallbackMethod     0000000180032b1c     libucrt:strpbrk.obj
 0002:0000cb2c       $unwind$__acrt_LCMapStringA 0000000180032b2c     libucrt:lcmapstringa.obj
 0002:0000cb3c       $unwind$?__acrt_LCMapStringA_stat@@YAHPEAU__crt_locale_pointers@@PEB_WKPEBDHPEADHHH@Z 0000000180032b3c     libucrt:lcmapstringa.obj
 0002:0000cb64       $unwind$_commit            0000000180032b64     libucrt:commit.obj
 0002:0000cb6c       $unwind$??$?RV<lambda_a37b2b86f63e897a80ea819b0eb08c01>@@AEAV<lambda_38ce7e780aa69e748d6df282ebc68efe>@@V<lambda_99fb1378e971ab6e7edea83e3a7a83a2>@@@?$__crt_seh_guarded_call@H@@QEAAH$$QEAV<lambda_a37b2b86f63e897a80ea819b0eb08c01>@@AEAV<lambda_38ce7e780aa69e748d6df282ebc68efe>@@$$QEAV<lambda_99fb1378e971ab6e7edea83e3a7a83a2>@@@Z 0000000180032b6c     libucrt:commit.obj
 0002:0000cb90       $unwind$_write_nolock      0000000180032b90     libucrt:write.obj
 0002:0000cba8       $unwind$_write_internal    0000000180032ba8     libucrt:write.obj
 0002:0000cbd8       $unwind$?write_double_translated_ansi_nolock@@YA?AUwrite_result@?A0x17268360@@HQEBDIAEAV__crt_cached_ptd_host@@@Z 0000000180032bd8     libucrt:write.obj
 0002:0000cc00       $ip2state$?write_double_translated_ansi_nolock@@YA?AUwrite_result@?A0x17268360@@HQEBDIAEAV__crt_cached_ptd_host@@@Z 0000000180032c00     libucrt:write.obj
 0002:0000cc08       $unwind$?write_text_ansi_nolock@@YA?AUwrite_result@?A0x17268360@@HQEBDI@Z 0000000180032c08     libucrt:write.obj
 0002:0000cc08       $unwind$?write_text_utf16le_nolock@@YA?AUwrite_result@?A0x17268360@@HQEBDI@Z 0000000180032c08     libucrt:write.obj
 0002:0000cc28       $unwind$?write_text_utf8_nolock@@YA?AUwrite_result@?A0x17268360@@HQEBDI@Z 0000000180032c28     libucrt:write.obj
 0002:0000cc50       $xdatasym                  0000000180032c50     libucrt:log10.obj
 0002:0000cc5c       $unwind$__acrt_fenv_set_control 0000000180032c5c     libucrt:_fenvutils.obj
 0002:0000cc6c       $unwind$?__mbrtoc32_utf8@__crt_mbstring@@YA_KPEA_UPEBD_KPEAU_Mbstatet@@AEAV__crt_cached_ptd_host@@@Z 0000000180032c6c     libucrt:mbrtoc32.obj
 0002:0000cc88       $unwind$?_fclose_nolock_internal@@YAHQEAU_iobuf@@AEAV__crt_cached_ptd_host@@@Z 0000000180032c88     libucrt:fclose.obj
 0002:0000cc98       $unwind$?_fclose_internal@@YAHQEAU_iobuf@@AEAV__crt_cached_ptd_host@@@Z 0000000180032c98     libucrt:fclose.obj
 0002:0000ccbc       $unwind$_putwch_nolock     0000000180032cbc     libucrt:putwch.obj
 0002:0000ccc4       $unwind$common_control87   0000000180032cc4     libucrt:ieee.obj
 0002:0000ccf0       $unwind$_call_matherr      0000000180032cf0     libucrt:libm_error.obj
 0002:0000ccf8       $unwind$_handle_error      0000000180032cf8     libucrt:libm_error.obj
 0002:0000cd18       $unwind$__acrt_initialize_fma3 0000000180032d18     libucrt:fma3_available.obj
 0002:0000cd20       $unwind$_log_special_common 0000000180032d20     libucrt:log_special.obj
 0002:0000cd2c       $unwind$_close_internal    0000000180032d2c     libucrt:close.obj
 0002:0000cd34       $unwind$??$?RV<lambda_ad8af0d99a0adf03d037d7dffe354bb5>@@AEAV<lambda_c9ba49e555ba839a7b07aa3fbecb7617>@@V<lambda_2f1ebd5d68526518146ae959c9e734c8>@@@?$__crt_seh_guarded_call@H@@QEAAH$$QEAV<lambda_ad8af0d99a0adf03d037d7dffe354bb5>@@AEAV<lambda_c9ba49e555ba839a7b07aa3fbecb7617>@@$$QEAV<lambda_2f1ebd5d68526518146ae959c9e734c8>@@@Z 0000000180032d34     libucrt:close.obj
 0002:0000cd58       $xdatasym                  0000000180032d58     libucrt:fpsr.obj
 0002:0000cd60       $unwind$_raise_exc_ex      0000000180032d60     libucrt:fpexcept.obj
 0002:0000cd74       $unwind$_ctrlfp            0000000180032d74     libucrt:fpctrl.obj
 0002:0000cd9c       $unwind$_IsNonwritableInCurrentImage 0000000180032d9c     LIBCMT:pesect.obj
 0002:0000cdc0       $unwind$strrchr            0000000180032dc0     libvcruntime:strrchr.obj
 0002:0000cf30       .edata                     0000000180032f30     OPOSRFIDScanner.exp
 0002:0000cf58       rgpv                       0000000180032f58     OPOSRFIDScanner.exp
 0002:0000cf68       rgszName                   0000000180032f68     OPOSRFIDScanner.exp
 0002:0000cf78       rgwOrd                     0000000180032f78     OPOSRFIDScanner.exp
 0002:0000cf80       szName                     0000000180032f80     OPOSRFIDScanner.exp
 0002:0000cf94       $N00001                    0000000180032f94     OPOSRFIDScanner.exp
 0002:0000cfa4       $N00002                    0000000180032fa4     OPOSRFIDScanner.exp
 0002:0000cfb6       $N00003                    0000000180032fb6     OPOSRFIDScanner.exp
 0002:0000cfc8       $N00004                    0000000180032fc8     OPOSRFIDScanner.exp
 0002:0000d912       .idata$6                   0000000180033912     kernel32:KERNEL32.dll
 0002:0000db2a       .idata$6                   0000000180033b2a     user32:USER32.dll
 0002:0000dc5e       .idata$6                   0000000180033c5e     gdi32:GDI32.dll
 0002:0000dd04       .idata$6                   0000000180033d04     advapi32:ADVAPI32.dll
 0002:0000de20       .idata$6                   0000000180033e20     ole32:ole32.dll
 0002:0000de2a       .idata$6                   0000000180033e2a     oleaut32:OLEAUT32.dll
 0003:000001c0       ?ObjectMap@@3PAU_ATL_OBJMAP_ENTRY30@ATL@@A 00000001800351c0     RFIDScanner.obj
 0003:000002d0       ?s_SOMethodNames@@3PAPEADA 00000001800352d0     RFIDScannerImpl.obj
 0003:000003c0       ?s_RequiredMethodsPerRelease@@3PAHA 00000001800353c0     RFIDScannerImpl.obj
 0003:00000400       ?__vcrt_flsindex@@3KA      0000000180035400     libvcruntime:per_thread_data.obj
 0003:00000410       ?errno_no_memory@@3HA      0000000180035410     libucrt:errno.obj
 0003:00000414       ?doserrno_no_memory@@3KA   0000000180035414     libucrt:errno.obj
 0003:00000420       ?__acrt_flsindex@@3KA      0000000180035420     libucrt:per_thread_data.obj
 0003:000008e0       _mbctypes                  00000001800358e0     libucrt:mbctype.obj
 0003:000009f0       _mbcasemaps                00000001800359f0     libucrt:mbctype.obj
 0003:00000af0       ?__rgctypeflag@@3PADA      0000000180035af0     libucrt:mbctype.obj
 0003:00000b00       ?__rgcode_page_info@@3PAUcode_page_info@@A 0000000180035b00     libucrt:mbctype.obj
 0003:00000da0       ?dazSupported@?1??common_control87@@9@9 0000000180035da0     libucrt:ieee.obj
 0003:00000db0       ?__dcrt_lowio_console_output_handle@@3PEAXEA 0000000180035db0     libucrt:initcon.obj
 0003:00000dc0       ?dazSupported@?1??_ctrlfp@@9@9 0000000180035dc0     libucrt:fpctrl.obj
 0003:00001010       ?is_initialized_as_dll@@3_NA 0000000180036010     LIBCMT:utility.obj
 0003:00001011       ?module_local_atexit_table_initialized@@3_NA 0000000180036011     LIBCMT:utility.obj
 0003:00001018       ?module_local_atexit_table@@3U_onexit_table_t@@A 0000000180036018     LIBCMT:utility.obj
 0003:00001030       ?module_local_at_quick_exit_table@@3U_onexit_table_t@@A 0000000180036030     LIBCMT:utility.obj
 0003:00001048       ?g_tss_cv@@3U_RTL_CONDITION_VARIABLE@@A 0000000180036048     LIBCMT:thread_safe_statics.obj
 0003:00001050       ?g_tss_event@@3PEAXEA      0000000180036050     LIBCMT:thread_safe_statics.obj
 0003:00001058       ?g_tss_mutex@@3U_RTL_CRITICAL_SECTION@@A 0000000180036058     LIBCMT:thread_safe_statics.obj
 0003:00001080       ?g_sleep_condition_variable_cs@@3P6AHPEAU_RTL_CONDITION_VARIABLE@@PEAU_RTL_CRITICAL_SECTION@@K@ZEA 0000000180036080     LIBCMT:thread_safe_statics.obj
 0003:00001088       ?g_wake_all_condition_variable@@3P6AXPEAU_RTL_CONDITION_VARIABLE@@@ZEA 0000000180036088     LIBCMT:thread_safe_statics.obj
 0003:00001090       GS_ExceptionRecord         0000000180036090     LIBCMT:gs_report.obj
 0003:00001130       GS_ContextRecord           0000000180036130     LIBCMT:gs_report.obj
 0003:00001604       ?__proc_attached@@3HA      0000000180036604     LIBCMT:dll_dllmain.obj
 0003:00001698       ?AllocateData@@3P6APEAUAtlThunkData_t@@XZEA 0000000180036698     atls:atlthunk.obj
 0003:000016a0       ?InitData@@3P6AXPEAUAtlThunkData_t@@PEAX_K@ZEA 00000001800366a0     atls:atlthunk.obj
 0003:000016a8       ?DataToCode@@3P6AP6A_JPEAUHWND__@@I_K_J@ZPEAUAtlThunkData_t@@@ZEA 00000001800366a8     atls:atlthunk.obj
 0003:000016b0       ?FreeData@@3P6AXPEAUAtlThunkData_t@@@ZEA 00000001800366b0     atls:atlthunk.obj
 0003:000016b8       ?Initialized@@3_NA         00000001800366b8     atls:atlthunk.obj
 0003:000016d0       ?__vcrt_startup_thread_ptd@@3U__vcrt_ptd@@A 00000001800366d0     libvcruntime:per_thread_data.obj
 0003:00001750       __vcrt_lock_table          0000000180036750     libvcruntime:locks.obj
 0003:00001778       __vcrt_locks_initialized   0000000180036778     libvcruntime:locks.obj
 0003:000017c0       ?heap@@3V_HeapManager@@A   00000001800367c0     libvcruntime:undname.obj
 0003:000017e8       ?module_handles@@3PAPEAUHINSTANCE__@@A 00000001800367e8     libvcruntime:winapi_downlevel.obj
 0003:00001800       ?function_pointers@@3PAPEAXA 0000000180036800     libvcruntime:winapi_downlevel.obj
 0003:00001828       ?__acrt_invalid_parameter_handler@@3V?$dual_state_global@P6AXPEB_W00I_K@Z@__crt_state_management@@A 0000000180036828     libucrt:invalid_parameter.obj
 0003:00001830       ?c_termination_complete@@3JA 0000000180036830     libucrt:exit.obj
 0003:00001838       ?thread_local_exit_callback_func@@3P6AXPEAXK0@ZEA 0000000180036838     libucrt:exit.obj
 0003:00001850       ?program_name@?1???$common_configure_argv@D@@YAHW4_crt_argv_mode@@@Z@4PADA 0000000180036850     libucrt:argv_parsing.obj
 0003:000019a8       ?__acrt_new_handler@@3V?$dual_state_global@P6AH_K@Z@__crt_state_management@@A 00000001800369a8     libucrt:new_handler.obj
 0003:000019c0       ?module_handles@@3PAPEAUHINSTANCE__@@A 00000001800369c0     libucrt:winapi_thunks.obj
 0003:00001a60       ?encoded_function_pointers@@3PAPEAXA 0000000180036a60     libucrt:winapi_thunks.obj
 0003:00001b50       ?internal_state@?1??_mbtowc_internal@@9@4U_Mbstatet@@A 0000000180036b50     libucrt:mbtowc.obj
 0003:00001b68       ?enable_percent_n@@3_KA    0000000180036b68     libucrt:printf_count_output.obj
 0003:00001f90       ?__acrt_lock_table@@3PAU_RTL_CRITICAL_SECTION@@A 0000000180036f90     libucrt:locks.obj
 0003:000021c0       ?__acrt_locks_initialized@@3IA 00000001800371c0     libucrt:locks.obj
 0003:000021e0       ?fSystemSet@@3HA           00000001800371e0     libucrt:mbctype.obj
 0003:000021e4       ?initialized@?1??__acrt_initialize_multibyte@@9@4_NA 00000001800371e4     libucrt:mbctype.obj
 0003:00002220       ?ctrlc_action@@3V?$dual_state_global@P6AXH@Z@__crt_state_management@@A 0000000180037220     libucrt:signal.obj
 0003:00002228       ?ctrlbreak_action@@3V?$dual_state_global@P6AXH@Z@__crt_state_management@@A 0000000180037228     libucrt:signal.obj
 0003:00002230       ?abort_action@@3V?$dual_state_global@P6AXH@Z@__crt_state_management@@A 0000000180037230     libucrt:signal.obj
 0003:00002238       ?term_action@@3V?$dual_state_global@P6AXH@Z@__crt_state_management@@A 0000000180037238     libucrt:signal.obj
 0003:00002240       ?user_matherr@@3V?$dual_state_global@P6AHPEAU_exception@@@Z@__crt_state_management@@A 0000000180037240     libucrt:matherr.obj
 0003:00002250       ?__acrt_global_new_mode@@3V?$dual_state_global@J@__crt_state_management@@A 0000000180037250     libucrt:new_mode.obj
 0003:00002258       ?internal_pst@?1??__mbrtoc32_utf8@__crt_mbstring@@YA_KPEA_UPEBD_KPEAU_Mbstatet@@AEAV__crt_cached_ptd_host@@@Z@4U3@A 0000000180037258     libucrt:mbrtoc32.obj
 0003:00002260       ?__acrt_app_type@@3W4_crt_app_type@@A 0000000180037260     libucrt:report_runtime_error.obj
 0005:00000000       MoveSmall                  000000018003b000     libvcruntime:memcpy.obj
 0005:00000040       MoveSmallYmm               000000018003b040     libvcruntime:memcpy.obj
 0005:00000064       MoveSmallYmmNT             000000018003b064     libvcruntime:memcpy.obj
 0005:00000088       MoveSmallXmm               000000018003b088     libvcruntime:memcpy.obj
 0005:000000b0       MsetTab                    000000018003b0b0     libvcruntime:memset.obj
 0006:00000220       $R000000                   000000018003c220     RFIDScanner.res
 0006:00000bc0       $R0009A0                   000000018003cbc0     RFIDScanner.res
 0006:00000ca8       $R000A88                   000000018003cca8     RFIDScanner.res
 0006:00000f10       $R000CF0                   000000018003cf10     RFIDScanner.res
 0006:00001420       $R001200                   000000018003d420     RFIDScanner.res
 0006:00004698       $R004478                   0000000180040698     RFIDScanner.res
 0006:000046d0       $R0044B0                   00000001800406d0     RFIDScanner.res
