 OPOSIndividualRecognition

 Timestamp is 600f7b8d (Tue Jan 26 11:16:45 2021)

 Preferred load address is 0000000180000000

 Start         Length     Name                   Class
 0001:00000000 000000c0H .text$di                CODE
 0001:000000c0 000210e0H .text$mn                CODE
 0001:000211a0 00000040H .text$mn$00             CODE
 0001:000211e0 000004b0H .text$x                 CODE
 0001:00021690 00000078H .text$yd                CODE
 0002:00000000 00000618H .idata$5                DATA
 0002:00000618 00000028H .00cfg                  DATA
 0002:00000640 00000008H .CRT$XCA                DATA
 0002:00000648 00000008H .CRT$XCL                DATA
 0002:00000650 00000020H .CRT$XCU                DATA
 0002:00000670 00000008H .CRT$XCZ                DATA
 0002:00000678 00000008H .CRT$XIA                DATA
 0002:00000680 00000020H .CRT$XIC                DATA
 0002:000006a0 00000008H .CRT$XIZ                DATA
 0002:000006a8 00000008H .CRT$XLA                DATA
 0002:000006b0 00000008H .CRT$XLZ                DATA
 0002:000006b8 00000008H .CRT$XPA                DATA
 0002:000006c0 00000010H .CRT$XPX                DATA
 0002:000006d0 00000008H .CRT$XPXA               DATA
 0002:000006d8 00000008H .CRT$XPZ                DATA
 0002:000006e0 00000008H .CRT$XTA                DATA
 0002:000006e8 00000008H .CRT$XTZ                DATA
 0002:000006f0 00000000H .gehcont$y              DATA
 0002:000006f0 00000000H .gfids$y                DATA
 0002:000006f0 0000a790H .rdata                  DATA
 0002:0000ae80 00000000H .rdata$CastGuardVftablesA DATA
 0002:0000ae80 00000000H .rdata$CastGuardVftablesC DATA
 0002:0000ae80 00000028H .rdata$T                DATA
 0002:0000aea8 00000274H .rdata$r                DATA
 0002:0000b11c 00000414H .rdata$zzzdbg           DATA
 0002:0000b530 00000008H .rtc$IAA                DATA
 0002:0000b538 00000008H .rtc$IZZ                DATA
 0002:0000b540 00000008H .rtc$TAA                DATA
 0002:0000b548 00000008H .rtc$TZZ                DATA
 0002:0000b550 00000004H .tls                    DATA
 0002:0000b554 00000004H .tls$                   DATA
 0002:0000b558 00000008H .tls$ZZZ                DATA
 0002:0000b560 000016c8H .xdata                  DATA
 0002:0000cc28 00000150H .xdata$x                DATA
 0002:0000cd78 00000008H ATL$__a                 DATA
 0002:0000cd80 00000010H ATL$__z                 DATA
 0002:0000cd90 000000b8H .edata                  DATA
 0002:0000ce48 00000078H .idata$2                DATA
 0002:0000cec0 00000018H .idata$3                DATA
 0002:0000ced8 00000618H .idata$4                DATA
 0002:0000d4f0 00000c2aH .idata$6                DATA
 0003:00000000 00000d78H .data                   DATA
 0003:00000d78 000000c8H .data$r                 DATA
 0003:00000e40 0000141cH .bss                    DATA
 0004:00000000 00001e3cH .pdata                  DATA
 0005:00000000 00000094H _RDATA                  DATA
 0006:00000000 00000220H .rsrc$01                DATA
 0006:00000220 00003a78H .rsrc$02                DATA

  Address         Publics by Value              Rva+Base               Lib:Object

 0000:00000000       ___safe_se_handler_table   0000000000000000     <absolute>
 0000:00000000       __guard_longjmp_table      0000000000000000     <absolute>
 0000:00000000       __x64_code_ranges_to_entry_points 0000000000000000     <absolute>
 0000:00000000       __arm64x_redirection_metadata 0000000000000000     <absolute>
 0000:00000000       __guard_iat_table          0000000000000000     <absolute>
 0000:00000000       __guard_fids_count         0000000000000000     <absolute>
 0000:00000000       __arm64x_extra_rfe_table   0000000000000000     <absolute>
 0000:00000000       __guard_iat_count          0000000000000000     <absolute>
 0000:00000000       __guard_longjmp_count      0000000000000000     <absolute>
 0000:00000000       __dynamic_value_reloc_table 0000000000000000     <absolute>
 0000:00000000       __x64_code_ranges_to_entry_points_count 0000000000000000     <absolute>
 0000:00000000       __hybrid_code_map          0000000000000000     <absolute>
 0000:00000000       __hybrid_auxiliary_iat     0000000000000000     <absolute>
 0000:00000000       __volatile_metadata        0000000000000000     <absolute>
 0000:00000000       __arm64x_extra_rfe_table_size 0000000000000000     <absolute>
 0000:00000000       ___safe_se_handler_count   0000000000000000     <absolute>
 0000:00000000       __AbsoluteZero             0000000000000000     <absolute>
 0000:00000000       __guard_eh_cont_count      0000000000000000     <absolute>
 0000:00000000       __guard_fids_table         0000000000000000     <absolute>
 0000:00000000       __arm64x_redirection_metadata_count 0000000000000000     <absolute>
 0000:00000000       __enclave_config           0000000000000000     <absolute>
 0000:00000000       __guard_eh_cont_table      0000000000000000     <absolute>
 0000:00000000       __arm64x_native_entrypoint 0000000000000000     <absolute>
 0000:00000000       __hybrid_code_map_count    0000000000000000     <absolute>
 0000:00000100       __guard_flags              0000000000000100     <absolute>
 0000:00000000       __ImageBase                0000000180000000     <linker-defined>
 0001:000000c0       ?DupWide@_CW@@AEAAXXZ      00000001800010c0 f   CWString.obj
 0001:000000e8       ?cw_dup@@YAXPEBDAEAHAEAPEA_W1@Z 00000001800010e8 f   CWString.obj
 0001:000001c8       ?cw_memcpy@@YAHPEA_WPEBDH@Z 00000001800011c8 f   CWString.obj
 0001:00000214       ?cw_strcpy@@YAHPEA_WPEBD@Z 0000000180001214 f   CWString.obj
 0001:00000228       ??0CAtlComModule@ATL@@QEAA@XZ 0000000180001228 f i OposVariant.obj
 0001:000002a8       ??0CAtlWinModule@ATL@@QEAA@XZ 00000001800012a8 f i OposVariant.obj
 0001:00000314       ??0OposDispParms@@QEAA@PEAVOposVariant@@H@Z 0000000180001314 f   OposVariant.obj
 0001:000003bc       ??1OposDispParms@@QEAA@XZ  00000001800013bc f   OposVariant.obj
 0001:000003d4       ??_Estringdispid@CComTypeInfoHolder@ATL@@QEAAPEAXI@Z 00000001800013d4 f i OposVariant.obj
 0001:00000478       ?AtlWinModuleTerm@ATL@@YAJPEAU_ATL_WIN_MODULE70@1@PEAUHINSTANCE__@@@Z 0000000180001478 f i OposVariant.obj
 0001:00000528       ?ChangeBSTR@OposVariant@@QEAAXPEAPEA_WAEAJ@Z 0000000180001528 f   OposVariant.obj
 0001:00000588       ?ChangeLONG@OposVariant@@QEAAXPEAJAEAJ@Z 0000000180001588 f   OposVariant.obj
 0001:000005e4       ?GetLONG@OposVariant@@QEAAJXZ 00000001800015e4 f   OposVariant.obj
 0001:00000608       ?SetBSTR@OposVariant@@QEAAXPEA_WAEAJ@Z 0000000180001608 f   OposVariant.obj
 0001:00000648       ?SetBSTR_Copy@OposVariant@@QEAAXPEA_WAEAJ@Z 0000000180001648 f   OposVariant.obj
 0001:000006b8       ?SetBSTR_InOutPtr@OposVariant@@QEAA_NPEAPEA_WAEAJ@Z 00000001800016b8 f   OposVariant.obj
 0001:00000708       ?SetDispatch_Ptr@OposVariant@@QEAAXPEAUIDispatch@@AEAJ@Z 0000000180001708 f   OposVariant.obj
 0001:00000760       ?SetLONG@OposVariant@@QEAAXJ@Z 0000000180001760 f   OposVariant.obj
 0001:00000790       ?SetLONG_Ptr@OposVariant@@QEAAXPEAJAEAJ@Z 0000000180001790 f   OposVariant.obj
 0001:000007dc       ?SetString@OposVariant@@QEAAXPEB_WAEAJ@Z 00000001800017dc f   OposVariant.obj
 0001:00000840       ?SetVARIANT_BOOL@OposVariant@@QEAAXF@Z 0000000180001840 f   OposVariant.obj
 0001:00000878       ?Term@CAtlComModule@ATL@@QEAAXXZ 0000000180001878 f i OposVariant.obj
 0001:000008e8       ?_AtlInitializeCriticalSectionEx@ATL@@YAHPEAU_RTL_CRITICAL_SECTION@@KK@Z 00000001800018e8 f i OposVariant.obj
 0001:000008f0       ?_AtlRaiseException@ATL@@YAXKK@Z 00000001800018f0 f i OposVariant.obj
 0001:00000900       ?GetWindowProc@?$CWindowImplBaseT@VCWindow@ATL@@V?$CWinTraits@$0FGAAAAAA@$0A@@2@@ATL@@UEAAP6A_JPEAUHWND__@@I_K_J@ZXZ 0000000180001900 f i IndividualRecognition.obj
 0001:00000908       ?StartWindowProc@?$CWindowImplBaseT@VCWindow@ATL@@V?$CWinTraits@$0FGAAAAAA@$0A@@2@@ATL@@SA_JPEAUHWND__@@I_K_J@Z 0000000180001908 f i IndividualRecognition.obj
 0001:000009cc       ?ObjectMain@CComObjectRootBase@ATL@@SAX_N@Z 00000001800019cc f i IndividualRecognition.obj
 0001:000009cc       _guard_check_icall_nop     00000001800019cc f i LIBCMT:guard_support.obj
 0001:000009cc       ?OnFinalMessage@?$CWindowImplBaseT@VCWindow@ATL@@V?$CWinTraits@$0FGAAAAAA@$0A@@2@@ATL@@UEAAXPEAUHWND__@@@Z 00000001800019cc f i IndividualRecognition.obj
 0001:000009d0       ?GetTypeInfoCount@?$IDispatchImpl@UIOPOSIndividualRecognition@@$1?IID_IOPOSIndividualRecognition@@3U_GUID@@B$1?LIBID_OposIndividualRecognition_CCO@@3U3@B$00$0A@VCComTypeInfoHolder@ATL@@@ATL@@UEAAJPEAI@Z 00000001800019d0 f i IndividualRecognition.obj
 0001:000009e4       ?GetTypeInfo@?$IDispatchImpl@UIOPOSIndividualRecognition@@$1?IID_IOPOSIndividualRecognition@@3U_GUID@@B$1?LIBID_OposIndividualRecognition_CCO@@3U3@B$00$0A@VCComTypeInfoHolder@ATL@@@ATL@@UEAAJIKPEAPEAUITypeInfo@@@Z 00000001800019e4 f i IndividualRecognition.obj
 0001:00000a48       ?GetIDsOfNames@?$IDispatchImpl@UIOPOSIndividualRecognition@@$1?IID_IOPOSIndividualRecognition@@3U_GUID@@B$1?LIBID_OposIndividualRecognition_CCO@@3U3@B$00$0A@VCComTypeInfoHolder@ATL@@@ATL@@UEAAJAEBU_GUID@@PEAPEA_WIKPEAJ@Z 0000000180001a48 f i IndividualRecognition.obj
 0001:00000a54       ?Invoke@?$IDispatchImpl@UIOPOSIndividualRecognition@@$1?IID_IOPOSIndividualRecognition@@3U_GUID@@B$1?LIBID_OposIndividualRecognition_CCO@@3U3@B$00$0A@VCComTypeInfoHolder@ATL@@@ATL@@UEAAJJAEBU_GUID@@KGPEAUtagDISPPARAMS@@PEAUtagVARIANT@@PEAUtagEXCEPINFO@@PEAI@Z 0000000180001a54 f i IndividualRecognition.obj
 0001:00000ae4       ?CreateControlWindow@?$CComControl@VCOPOSIndividualRecognition@@V?$CWindowImpl@VCOPOSIndividualRecognition@@VCWindow@ATL@@V?$CWinTraits@$0FGAAAAAA@$0A@@3@@ATL@@@ATL@@UEAAPEAUHWND__@@PEAU3@AEAUtagRECT@@@Z 0000000180001ae4 f i IndividualRecognition.obj
 0001:00000b1c       ?ControlQueryInterface@?$CComControl@VCOPOSIndividualRecognition@@V?$CWindowImpl@VCOPOSIndividualRecognition@@VCWindow@ATL@@V?$CWinTraits@$0FGAAAAAA@$0A@@3@@ATL@@@ATL@@UEAAJAEBU_GUID@@PEAPEAX@Z 0000000180001b1c f i IndividualRecognition.obj
 0001:00000b30       ?GetClassID@?$IPersistStreamInitImpl@VCOPOSIndividualRecognition@@@ATL@@UEAAJPEAU_GUID@@@Z 0000000180001b30 f i IndividualRecognition.obj
 0001:00000b30       ?GetUserClassID@?$IOleObjectImpl@VCOPOSIndividualRecognition@@@ATL@@UEAAJPEAU_GUID@@@Z 0000000180001b30 f i IndividualRecognition.obj
 0001:00000b30       ?GetClassID@?$IPersistStorageImpl@VCOPOSIndividualRecognition@@@ATL@@UEAAJPEAU_GUID@@@Z 0000000180001b30 f i IndividualRecognition.obj
 0001:00000b4c       ?IsDirty@?$IPersistStreamInitImpl@VCOPOSIndividualRecognition@@@ATL@@UEAAJXZ 0000000180001b4c f i IndividualRecognition.obj
 0001:00000b68       ?Load@?$IPersistStreamInitImpl@VCOPOSIndividualRecognition@@@ATL@@UEAAJPEAUIStream@@@Z 0000000180001b68 f i IndividualRecognition.obj
 0001:00000b80       ?Save@?$IPersistStreamInitImpl@VCOPOSIndividualRecognition@@@ATL@@UEAAJPEAUIStream@@H@Z 0000000180001b80 f i IndividualRecognition.obj
 0001:00000b98       ?GetSizeMax@?$IPersistStreamInitImpl@VCOPOSIndividualRecognition@@@ATL@@UEAAJPEAT_ULARGE_INTEGER@@@Z 0000000180001b98 f i IndividualRecognition.obj
 0001:00000dc4       ?InitNew@?$IPersistStreamInitImpl@VCOPOSIndividualRecognition@@@ATL@@UEAAJXZ 0000000180001dc4 f i IndividualRecognition.obj
 0001:00000ddc       ?GetClipboardData@?$IOleObjectImpl@VCOPOSIndividualRecognition@@@ATL@@UEAAJKPEAPEAUIDataObject@@@Z 0000000180001ddc f i IndividualRecognition.obj
 0001:00000ddc       ?EnumFormatEtc@?$IDataObjectImpl@VCOPOSIndividualRecognition@@@ATL@@UEAAJKPEAPEAUIEnumFORMATETC@@@Z 0000000180001ddc f i IndividualRecognition.obj
 0001:00000ddc       ?Freeze@?$IViewObjectExImpl@VCOPOSIndividualRecognition@@@ATL@@UEAAJKJPEAXPEAK@Z 0000000180001ddc f i IndividualRecognition.obj
 0001:00000ddc       ?SetColorScheme@?$IOleObjectImpl@VCOPOSIndividualRecognition@@@ATL@@UEAAJPEAUtagLOGPALETTE@@@Z 0000000180001ddc f i IndividualRecognition.obj
 0001:00000ddc       ?GetControlInfo@?$IOleControlImpl@VCOPOSIndividualRecognition@@@ATL@@UEAAJPEAUtagCONTROLINFO@@@Z 0000000180001ddc f i IndividualRecognition.obj
 0001:00000ddc       ?GetRect@?$IViewObjectExImpl@VCOPOSIndividualRecognition@@@ATL@@UEAAJKPEAU_RECTL@@@Z 0000000180001ddc f i IndividualRecognition.obj
 0001:00000ddc       ?SetMoniker@?$IOleObjectImpl@VCOPOSIndividualRecognition@@@ATL@@UEAAJKPEAUIMoniker@@@Z 0000000180001ddc f i IndividualRecognition.obj
 0001:00000ddc       ?OnMnemonic@?$IOleControlImpl@VCOPOSIndividualRecognition@@@ATL@@UEAAJPEAUtagMSG@@@Z 0000000180001ddc f i IndividualRecognition.obj
 0001:00000ddc       ?GetColorSet@?$IViewObjectExImpl@VCOPOSIndividualRecognition@@@ATL@@UEAAJKJPEAXPEAUtagDVTARGETDEVICE@@PEAUHDC__@@PEAPEAUtagLOGPALETTE@@@Z 0000000180001ddc f i IndividualRecognition.obj
 0001:00000ddc       ?GetMoniker@?$IOleObjectImpl@VCOPOSIndividualRecognition@@@ATL@@UEAAJKKPEAPEAUIMoniker@@@Z 0000000180001ddc f i IndividualRecognition.obj
 0001:00000ddc       ?Unfreeze@?$IViewObjectExImpl@VCOPOSIndividualRecognition@@@ATL@@UEAAJK@Z 0000000180001ddc f i IndividualRecognition.obj
 0001:00000ddc       ?ContextSensitiveHelp@?$IOleInPlaceActiveObjectImpl@VCOPOSIndividualRecognition@@@ATL@@UEAAJH@Z 0000000180001ddc f i IndividualRecognition.obj
 0001:00000ddc       ?QueryInterface@CRegObject@ATL@@UEAAJAEBU_GUID@@PEAPEAX@Z 0000000180001ddc f i IndividualRecognition.obj
 0001:00000ddc       ?SetData@?$IDataObjectImpl@VCOPOSIndividualRecognition@@@ATL@@UEAAJPEAUtagFORMATETC@@PEAUtagSTGMEDIUM@@H@Z 0000000180001ddc f i IndividualRecognition.obj
 0001:00000ddc       ?InitFromData@?$IOleObjectImpl@VCOPOSIndividualRecognition@@@ATL@@UEAAJPEAUIDataObject@@HK@Z 0000000180001ddc f i IndividualRecognition.obj
 0001:00000ddc       ?QueryGetData@?$IDataObjectImpl@VCOPOSIndividualRecognition@@@ATL@@UEAAJPEAUtagFORMATETC@@@Z 0000000180001ddc f i IndividualRecognition.obj
 0001:00000ddc       ?SOOutputCompleteDummy@COPOSIndividualRecognition@@MEAAJJ@Z 0000000180001ddc f i IndividualRecognition.obj
 0001:00000ddc       ?GetCanonicalFormatEtc@?$IDataObjectImpl@VCOPOSIndividualRecognition@@@ATL@@UEAAJPEAUtagFORMATETC@@0@Z 0000000180001ddc f i IndividualRecognition.obj
 0001:00000ddc       ?ReactivateAndUndo@?$IOleInPlaceObjectWindowlessImpl@VCOPOSIndividualRecognition@@@ATL@@UEAAJXZ 0000000180001ddc f i IndividualRecognition.obj
 0001:00000ddc       ?GetDataHere@?$IDataObjectImpl@VCOPOSIndividualRecognition@@@ATL@@UEAAJPEAUtagFORMATETC@@PEAUtagSTGMEDIUM@@@Z 0000000180001ddc f i IndividualRecognition.obj
 0001:00000ddc       ?ContextSensitiveHelp@?$IOleInPlaceObjectWindowlessImpl@VCOPOSIndividualRecognition@@@ATL@@UEAAJH@Z 0000000180001ddc f i IndividualRecognition.obj
 0001:00000ddc       ?GetDropTarget@?$IOleInPlaceObjectWindowlessImpl@VCOPOSIndividualRecognition@@@ATL@@UEAAJPEAPEAUIDropTarget@@@Z 0000000180001ddc f i IndividualRecognition.obj
 0001:00000de4       ?EnableModeless@?$IOleInPlaceActiveObjectImpl@VCOPOSIndividualRecognition@@@ATL@@UEAAJH@Z 0000000180001de4 f i IndividualRecognition.obj
 0001:00000de4       ?HandsOffStorage@?$IPersistStorageImpl@VCOPOSIndividualRecognition@@@ATL@@UEAAJXZ 0000000180001de4 f i IndividualRecognition.obj
 0001:00000de4       ?Release@CRegObject@ATL@@UEAAKXZ 0000000180001de4 f i IndividualRecognition.obj
 0001:00000de4       ?IsUpToDate@?$IOleObjectImpl@VCOPOSIndividualRecognition@@@ATL@@UEAAJXZ 0000000180001de4 f i IndividualRecognition.obj
 0001:00000de4       ?OnAmbientPropertyChange@?$IOleControlImpl@VCOPOSIndividualRecognition@@@ATL@@UEAAJJ@Z 0000000180001de4 f i IndividualRecognition.obj
 0001:00000de4       ?SaveCompleted@?$IPersistStorageImpl@VCOPOSIndividualRecognition@@@ATL@@UEAAJPEAUIStorage@@@Z 0000000180001de4 f i IndividualRecognition.obj
 0001:00000de4       ?GetCategoryMap@CComObjectRootBase@ATL@@SAPEBU_ATL_CATMAP_ENTRY@2@XZ 0000000180001de4 f i IndividualRecognition.obj
 0001:00000de4       ?ResizeBorder@?$IOleInPlaceActiveObjectImpl@VCOPOSIndividualRecognition@@@ATL@@UEAAJPEBUtagRECT@@PEAUIOleInPlaceUIWindow@@H@Z 0000000180001de4 f i IndividualRecognition.obj
 0001:00000de4       ?GetObjectDescription@?$CComCoClass@VCOPOSIndividualRecognition@@$1?CLSID_OPOSIndividualRecognition@@3U_GUID@@B@ATL@@SAPEB_WXZ 0000000180001de4 f i IndividualRecognition.obj
 0001:00000de4       ?SetHostNames@?$IOleObjectImpl@VCOPOSIndividualRecognition@@@ATL@@UEAAJPEB_W0@Z 0000000180001de4 f i IndividualRecognition.obj
 0001:00000de4       ?Update@?$IOleObjectImpl@VCOPOSIndividualRecognition@@@ATL@@UEAAJXZ 0000000180001de4 f i IndividualRecognition.obj
 0001:00000de4       ?OnFrameWindowActivate@?$IOleInPlaceActiveObjectImpl@VCOPOSIndividualRecognition@@@ATL@@UEAAJH@Z 0000000180001de4 f i IndividualRecognition.obj
 0001:00000de8       ?SetClientSite@?$IOleObjectImpl@VCOPOSIndividualRecognition@@@ATL@@UEAAJPEAUIOleClientSite@@@Z 0000000180001de8 f i IndividualRecognition.obj
 0001:00000e04       ?GetClientSite@?$IOleObjectImpl@VCOPOSIndividualRecognition@@@ATL@@UEAAJPEAPEAUIOleClientSite@@@Z 0000000180001e04 f i IndividualRecognition.obj
 0001:00000e4c       ?Close@?$IOleObjectImpl@VCOPOSIndividualRecognition@@@ATL@@UEAAJK@Z 0000000180001e4c f i IndividualRecognition.obj
 0001:00000e68       ?DoVerb@?$IOleObjectImpl@VCOPOSIndividualRecognition@@@ATL@@UEAAJJPEAUtagMSG@@PEAUIOleClientSite@@JPEAUHWND__@@PEBUtagRECT@@@Z 0000000180001e68 f i IndividualRecognition.obj
 0001:0000100c       ?EnumVerbs@?$IOleObjectImpl@VCOPOSIndividualRecognition@@@ATL@@UEAAJPEAPEAUIEnumOLEVERB@@@Z 000000018000200c f i IndividualRecognition.obj
 0001:00001028       ?GetUserType@?$IOleObjectImpl@VCOPOSIndividualRecognition@@@ATL@@UEAAJKPEAPEA_W@Z 0000000180002028 f i IndividualRecognition.obj
 0001:00001038       ?SetExtent@?$IOleObjectImpl@VCOPOSIndividualRecognition@@@ATL@@UEAAJKPEAUtagSIZE@@@Z 0000000180002038 f i IndividualRecognition.obj
 0001:00001054       ?GetExtent@?$IOleObjectImpl@VCOPOSIndividualRecognition@@@ATL@@UEAAJKPEAUtagSIZE@@@Z 0000000180002054 f i IndividualRecognition.obj
 0001:00001084       ?Advise@?$IOleObjectImpl@VCOPOSIndividualRecognition@@@ATL@@UEAAJPEAUIAdviseSink@@PEAK@Z 0000000180002084 f i IndividualRecognition.obj
 0001:000010e0       ?Unadvise@?$IOleObjectImpl@VCOPOSIndividualRecognition@@@ATL@@UEAAJK@Z 00000001800020e0 f i IndividualRecognition.obj
 0001:00001118       ?EnumAdvise@?$IOleObjectImpl@VCOPOSIndividualRecognition@@@ATL@@UEAAJPEAPEAUIEnumSTATDATA@@@Z 0000000180002118 f i IndividualRecognition.obj
 0001:00001160       ?GetMiscStatus@?$IOleObjectImpl@VCOPOSIndividualRecognition@@@ATL@@UEAAJKPEAK@Z 0000000180002160 f i IndividualRecognition.obj
 0001:00001170       ?GetWindow@?$IOleInPlaceActiveObjectImpl@VCOPOSIndividualRecognition@@@ATL@@UEAAJPEAPEAUHWND__@@@Z 0000000180002170 f i IndividualRecognition.obj
 0001:000011c4       ?TranslateAcceleratorW@?$IOleInPlaceActiveObjectImpl@VCOPOSIndividualRecognition@@@ATL@@UEAAJPEAUtagMSG@@@Z 00000001800021c4 f i IndividualRecognition.obj
 0001:000012b8       ?OnDocWindowActivate@?$IOleInPlaceActiveObjectImpl@VCOPOSIndividualRecognition@@@ATL@@UEAAJH@Z 00000001800022b8 f i IndividualRecognition.obj
 0001:000012e4       ?Draw@?$IViewObjectExImpl@VCOPOSIndividualRecognition@@@ATL@@UEAAJKJPEAXPEAUtagDVTARGETDEVICE@@PEAUHDC__@@2PEBU_RECTL@@3P6AH_K@Z4@Z 00000001800022e4 f i IndividualRecognition.obj
 0001:00001348       ?SetAdvise@?$IViewObjectExImpl@VCOPOSIndividualRecognition@@@ATL@@UEAAJKKPEAUIAdviseSink@@@Z 0000000180002348 f i IndividualRecognition.obj
 0001:0000139c       ?GetAdvise@?$IViewObjectExImpl@VCOPOSIndividualRecognition@@@ATL@@UEAAJPEAK0PEAPEAUIAdviseSink@@@Z 000000018000239c f i IndividualRecognition.obj
 0001:000013d8       ?GetExtent@?$IViewObjectExImpl@VCOPOSIndividualRecognition@@@ATL@@UEAAJKJPEAUtagDVTARGETDEVICE@@PEAUtagSIZE@@@Z 00000001800023d8 f i IndividualRecognition.obj
 0001:00001408       ?GetViewStatus@?$IViewObjectExImpl@VCOPOSIndividualRecognition@@@ATL@@UEAAJPEAK@Z 0000000180002408 f i IndividualRecognition.obj
 0001:0000141c       ?QueryHitPoint@?$IViewObjectExImpl@VCOPOSIndividualRecognition@@@ATL@@UEAAJKPEBUtagRECT@@UtagPOINT@@JPEAK@Z 000000018000241c f i IndividualRecognition.obj
 0001:00001460       ?QueryHitRect@?$IViewObjectExImpl@VCOPOSIndividualRecognition@@@ATL@@UEAAJKPEBUtagRECT@@0JPEAK@Z 0000000180002460 f i IndividualRecognition.obj
 0001:000014c8       ?GetNaturalExtent@?$IViewObjectExImpl@VCOPOSIndividualRecognition@@@ATL@@UEAAJKJPEAUtagDVTARGETDEVICE@@PEAUHDC__@@PEAUtagExtentInfo@@PEAUtagSIZE@@@Z 00000001800024c8 f i IndividualRecognition.obj
 0001:00001510       ?GetWindow@?$IOleInPlaceObjectWindowlessImpl@VCOPOSIndividualRecognition@@@ATL@@UEAAJPEAPEAUHWND__@@@Z 0000000180002510 f i IndividualRecognition.obj
 0001:00001564       ?InPlaceDeactivate@?$IOleInPlaceObjectWindowlessImpl@VCOPOSIndividualRecognition@@@ATL@@UEAAJXZ 0000000180002564 f i IndividualRecognition.obj
 0001:00001580       ?UIDeactivate@?$IOleInPlaceObjectWindowlessImpl@VCOPOSIndividualRecognition@@@ATL@@UEAAJXZ 0000000180002580 f i IndividualRecognition.obj
 0001:0000159c       ?SetObjectRects@?$IOleInPlaceObjectWindowlessImpl@VCOPOSIndividualRecognition@@@ATL@@UEAAJPEBUtagRECT@@0@Z 000000018000259c f i IndividualRecognition.obj
 0001:000015b8       ?OnWindowMessage@?$IOleInPlaceObjectWindowlessImpl@VCOPOSIndividualRecognition@@@ATL@@UEAAJI_K_JPEA_J@Z 00000001800025b8 f i IndividualRecognition.obj
 0001:00001680       ?EnumConnectionPoints@?$IConnectionPointContainerImpl@VCOPOSIndividualRecognition@@@ATL@@UEAAJPEAPEAUIEnumConnectionPoints@@@Z 0000000180002680 f i IndividualRecognition.obj
 0001:000018cc       ?FindConnectionPoint@?$IConnectionPointContainerImpl@VCOPOSIndividualRecognition@@@ATL@@UEAAJAEBU_GUID@@PEAPEAUIConnectionPoint@@@Z 00000001800028cc f i IndividualRecognition.obj
 0001:0000199c       ?IsDirty@?$IPersistStorageImpl@VCOPOSIndividualRecognition@@@ATL@@UEAAJXZ 000000018000299c f i IndividualRecognition.obj
 0001:000019dc       ?InitNew@?$IPersistStorageImpl@VCOPOSIndividualRecognition@@@ATL@@UEAAJPEAUIStorage@@@Z 00000001800029dc f i IndividualRecognition.obj
 0001:00001a1c       ?Load@?$IPersistStorageImpl@VCOPOSIndividualRecognition@@@ATL@@UEAAJPEAUIStorage@@@Z 0000000180002a1c f i IndividualRecognition.obj
 0001:00001abc       ?Save@?$IPersistStorageImpl@VCOPOSIndividualRecognition@@@ATL@@UEAAJPEAUIStorage@@H@Z 0000000180002abc f i IndividualRecognition.obj
 0001:00001b6c       ?GetPages@?$ISpecifyPropertyPagesImpl@VCOPOSIndividualRecognition@@@ATL@@UEAAJPEAUtagCAUUID@@@Z 0000000180002b6c f i IndividualRecognition.obj
 0001:00001b78       ?QuickActivate@?$IQuickActivateImpl@VCOPOSIndividualRecognition@@@ATL@@UEAAJPEAUtagQACONTAINER@@PEAUtagQACONTROL@@@Z 0000000180002b78 f i IndividualRecognition.obj
 0001:00001b94       ?SetContentExtent@?$IQuickActivateImpl@VCOPOSIndividualRecognition@@@ATL@@UEAAJPEAUtagSIZE@@@Z 0000000180002b94 f i IndividualRecognition.obj
 0001:00001bc8       ?GetContentExtent@?$IQuickActivateImpl@VCOPOSIndividualRecognition@@@ATL@@UEAAJPEAUtagSIZE@@@Z 0000000180002bc8 f i IndividualRecognition.obj
 0001:00001c00       ?GetData@?$IDataObjectImpl@VCOPOSIndividualRecognition@@@ATL@@UEAAJPEAUtagFORMATETC@@PEAUtagSTGMEDIUM@@@Z 0000000180002c00 f i IndividualRecognition.obj
 0001:00001c1c       ?DAdvise@?$IDataObjectImpl@VCOPOSIndividualRecognition@@@ATL@@UEAAJPEAUtagFORMATETC@@KPEAUIAdviseSink@@PEAK@Z 0000000180002c1c f i IndividualRecognition.obj
 0001:00001ca4       ?DUnadvise@?$IDataObjectImpl@VCOPOSIndividualRecognition@@@ATL@@UEAAJK@Z 0000000180002ca4 f i IndividualRecognition.obj
 0001:00001cd0       ?EnumDAdvise@?$IDataObjectImpl@VCOPOSIndividualRecognition@@@ATL@@UEAAJPEAPEAUIEnumSTATDATA@@@Z 0000000180002cd0 f i IndividualRecognition.obj
 0001:00001d0c       ?GetClassInfoW@?$IProvideClassInfo2Impl@$1?CLSID_OPOSIndividualRecognition@@3U_GUID@@B$1?DIID__IOPOSIndividualRecognitionEvents@@3U2@B$1?LIBID_OposIndividualRecognition_CCO@@3U2@B$00$0A@VCComTypeInfoHolder@ATL@@@ATL@@UEAAJPEAPEAUITypeInfo@@@Z 0000000180002d0c f i IndividualRecognition.obj
 0001:00001d64       ?GetGUID@?$IProvideClassInfo2Impl@$1?CLSID_OPOSIndividualRecognition@@3U_GUID@@B$1?DIID__IOPOSIndividualRecognitionEvents@@3U2@B$1?LIBID_OposIndividualRecognition_CCO@@3U2@B$00$0A@VCComTypeInfoHolder@ATL@@@ATL@@UEAAJKPEAU_GUID@@@Z 0000000180002d64 f i IndividualRecognition.obj
 0001:00001d98       _get_startup_argv_mode     0000000180002d98 f i LIBCMT:argv_mode.obj
 0001:00001d98       ?AddRef@CRegObject@ATL@@UEAAKXZ 0000000180002d98 f i IndividualRecognition.obj
 0001:00001d98       ?FAccessAllowed@?$IObjectSafetyImpl@VCOPOSIndividualRecognition@@$02@ATL@@MEAAHXZ 0000000180002d98 f i IndividualRecognition.obj
 0001:00001da0       ?GetInterfaceSafetyOptions@?$IObjectSafetyImpl@VCOPOSIndividualRecognition@@$02@ATL@@UEAAJAEBU_GUID@@PEAK1@Z 0000000180002da0 f i IndividualRecognition.obj
 0001:00001e34       ?SetInterfaceSafetyOptions@?$IObjectSafetyImpl@VCOPOSIndividualRecognition@@$02@ATL@@UEAAJAEBU_GUID@@KK@Z 0000000180002e34 f i IndividualRecognition.obj
 0001:00001ed8       ?_LocCPQueryInterface@?$IConnectionPointImpl@VCOPOSIndividualRecognition@@$1?DIID__IOPOSIndividualRecognitionEvents@@3U_GUID@@BVCComDynamicUnkArray@ATL@@@ATL@@UEAAJAEBU_GUID@@PEAPEAX@Z 0000000180002ed8 f i IndividualRecognition.obj
 0001:00001ed8       ?_LocCPQueryInterface@?$IConnectionPointImpl@VCOPOSIndividualRecognition@@$1?IID_IPropertyNotifySink@@3U_GUID@@BVCComDynamicUnkArray@ATL@@@ATL@@UEAAJAEBU_GUID@@PEAPEAX@Z 0000000180002ed8 f i IndividualRecognition.obj
 0001:00001f48       ?GetConnectionInterface@?$IConnectionPointImpl@VCOPOSIndividualRecognition@@$1?IID_IPropertyNotifySink@@3U_GUID@@BVCComDynamicUnkArray@ATL@@@ATL@@UEAAJPEAU_GUID@@@Z 0000000180002f48 f i IndividualRecognition.obj
 0001:00001f64       ?GetConnectionPointContainer@?$IConnectionPointImpl@VCOPOSIndividualRecognition@@$1?IID_IPropertyNotifySink@@3U_GUID@@BVCComDynamicUnkArray@ATL@@@ATL@@UEAAJPEAPEAUIConnectionPointContainer@@@Z 0000000180002f64 f i IndividualRecognition.obj
 0001:00001f84       ?Advise@?$IConnectionPointImpl@VCOPOSIndividualRecognition@@$1?DIID__IOPOSIndividualRecognitionEvents@@3U_GUID@@BVCComDynamicUnkArray@ATL@@@ATL@@UEAAJPEAUIUnknown@@PEAK@Z 0000000180002f84 f i IndividualRecognition.obj
 0001:00001f84       ?Advise@?$IConnectionPointImpl@VCOPOSIndividualRecognition@@$1?IID_IPropertyNotifySink@@3U_GUID@@BVCComDynamicUnkArray@ATL@@@ATL@@UEAAJPEAUIUnknown@@PEAK@Z 0000000180002f84 f i IndividualRecognition.obj
 0001:00002040       ?Unadvise@?$IConnectionPointImpl@VCOPOSIndividualRecognition@@$1?DIID__IOPOSIndividualRecognitionEvents@@3U_GUID@@BVCComDynamicUnkArray@ATL@@@ATL@@UEAAJK@Z 0000000180003040 f i IndividualRecognition.obj
 0001:00002040       ?Unadvise@?$IConnectionPointImpl@VCOPOSIndividualRecognition@@$1?IID_IPropertyNotifySink@@3U_GUID@@BVCComDynamicUnkArray@ATL@@@ATL@@UEAAJK@Z 0000000180003040 f i IndividualRecognition.obj
 0001:000020a8       ?EnumConnections@?$IConnectionPointImpl@VCOPOSIndividualRecognition@@$1?DIID__IOPOSIndividualRecognitionEvents@@3U_GUID@@BVCComDynamicUnkArray@ATL@@@ATL@@UEAAJPEAPEAUIEnumConnections@@@Z 00000001800030a8 f i IndividualRecognition.obj
 0001:000020a8       ?EnumConnections@?$IConnectionPointImpl@VCOPOSIndividualRecognition@@$1?IID_IPropertyNotifySink@@3U_GUID@@BVCComDynamicUnkArray@ATL@@@ATL@@UEAAJPEAPEAUIEnumConnections@@@Z 00000001800030a8 f i IndividualRecognition.obj
 0001:00002254       ?GetConnectionInterface@?$IConnectionPointImpl@VCOPOSIndividualRecognition@@$1?DIID__IOPOSIndividualRecognitionEvents@@3U_GUID@@BVCComDynamicUnkArray@ATL@@@ATL@@UEAAJPEAU_GUID@@@Z 0000000180003254 f i IndividualRecognition.obj
 0001:00002270       ?GetConnectionPointContainer@?$IConnectionPointImpl@VCOPOSIndividualRecognition@@$1?DIID__IOPOSIndividualRecognitionEvents@@3U_GUID@@BVCComDynamicUnkArray@ATL@@@ATL@@UEAAJPEAPEAUIConnectionPointContainer@@@Z 0000000180003270 f i IndividualRecognition.obj
 0001:00002290       ?UpdateRegistry@COPOSIndividualRecognition@@SAJH@Z 0000000180003290 f i IndividualRecognition.obj
 0001:000022a8       ?ProcessWindowMessage@COPOSIndividualRecognition@@UEAAHPEAUHWND__@@I_K_JAEA_JK@Z 00000001800032a8 f i IndividualRecognition.obj
 0001:00002330       ?SOData@COPOSIndividualRecognition@@MEAAJJ@Z 0000000180003330 f i IndividualRecognition.obj
 0001:00002380       ?SODirectIO@COPOSIndividualRecognition@@MEAAJJPEAJPEAPEA_W@Z 0000000180003380 f i IndividualRecognition.obj
 0001:000023f8       ?SOError@COPOSIndividualRecognition@@MEAAJJJJPEAJ@Z 00000001800033f8 f i IndividualRecognition.obj
 0001:00002480       ?SOStatusUpdate@COPOSIndividualRecognition@@MEAAJJ@Z 0000000180003480 f i IndividualRecognition.obj
 0001:000024d0       ?Lock@CAtlModule@ATL@@UEAAJXZ 00000001800034d0 f i IndividualRecognition.obj
 0001:000024e0       ?Unlock@CAtlModule@ATL@@UEAAJXZ 00000001800034e0 f i IndividualRecognition.obj
 0001:000024ec       ?GetLockCount@CAtlModule@ATL@@UEAAJXZ 00000001800034ec f i IndividualRecognition.obj
 0001:000024f0       ?GetGITPtr@CAtlModule@ATL@@UEAAJPEAPEAUIGlobalInterfaceTable@@@Z 00000001800034f0 f i IndividualRecognition.obj
 0001:00002560       ?CreateInstance@?$CComCreator@V?$CComObjectCached@VCComClassFactory@ATL@@@ATL@@@ATL@@SAJPEAXAEBU_GUID@@PEAPEAX@Z 0000000180003560 f i IndividualRecognition.obj
 0001:00002684       ?CreateInstance@?$CComCreator2@V?$CComCreator@V?$CComObject@VCOPOSIndividualRecognition@@@ATL@@@ATL@@V?$CComCreator@V?$CComAggObject@VCOPOSIndividualRecognition@@@ATL@@@2@@ATL@@SAJPEAXAEBU_GUID@@PEAPEAX@Z 0000000180003684 f i IndividualRecognition.obj
 0001:00002694       ?AddCommonRGSReplacements@?$CAtlModuleT@VCComModule@ATL@@@ATL@@UEAAJPEAUIRegistrarBase@@@Z 0000000180003694 f i IndividualRecognition.obj
 0001:000026ac       ?AddRef@?$CComObjectCached@VCComClassFactory@ATL@@@ATL@@UEAAKXZ 00000001800036ac f i IndividualRecognition.obj
 0001:000026d8       ?Release@?$CComObjectCached@VCComClassFactory@ATL@@@ATL@@UEAAKXZ 00000001800036d8 f i IndividualRecognition.obj
 0001:00002718       ?QueryInterface@?$CComObjectCached@VCComClassFactory@ATL@@@ATL@@UEAAJAEBU_GUID@@PEAPEAX@Z 0000000180003718 f i IndividualRecognition.obj
 0001:0000272c       ??_G?$CComObjectCached@VCComClassFactory@ATL@@@ATL@@UEAAPEAXI@Z 000000018000372c f i IndividualRecognition.obj
 0001:0000272c       ??_E?$CComObjectCached@VCComClassFactory@ATL@@@ATL@@UEAAPEAXI@Z 000000018000372c f i IndividualRecognition.obj
 0001:00002784       ?UpdateRegistryFromResourceD@CComModule@ATL@@UEAAJIHPEAU_ATL_REGMAP_ENTRY@2@@Z 0000000180003784 f i IndividualRecognition.obj
 0001:00002784       ?UpdateRegistryFromResourceD@CComModule@ATL@@UEAAJPEB_WHPEAU_ATL_REGMAP_ENTRY@2@@Z 0000000180003784 f i IndividualRecognition.obj
 0001:0000278c       ?UpdateRegistryFromResource@CComModule@ATL@@UEAAJPEB_WHPEAU_ATL_REGMAP_ENTRY@2@@Z 000000018000378c f i IndividualRecognition.obj
 0001:00002794       ?UpdateRegistryFromResource@CComModule@ATL@@UEAAJIHPEAU_ATL_REGMAP_ENTRY@2@@Z 0000000180003794 f i IndividualRecognition.obj
 0001:0000279c       ??_ECComModule@ATL@@UEAAPEAXI@Z 000000018000379c f i IndividualRecognition.obj
 0001:0000279c       ??_GCComModule@ATL@@UEAAPEAXI@Z 000000018000379c f i IndividualRecognition.obj
 0001:000027dc       ?Next@?$CComEnumImpl@UIEnumConnectionPoints@@$1?_GUID_b196b285_bab4_101a_b69c_00aa00341d07@@3U__s_GUID@@BPEAUIConnectionPoint@@V?$_CopyInterface@UIConnectionPoint@@@ATL@@@ATL@@UEAAJKPEAPEAUIConnectionPoint@@PEAK@Z 00000001800037dc f i IndividualRecognition.obj
 0001:000028a8       ?Skip@?$CComEnumImpl@UIEnumConnectionPoints@@$1?_GUID_b196b285_bab4_101a_b69c_00aa00341d07@@3U__s_GUID@@BPEAUIConnectionPoint@@V?$_CopyInterface@UIConnectionPoint@@@ATL@@@ATL@@UEAAJK@Z 00000001800038a8 f i IndividualRecognition.obj
 0001:000028d4       ?Reset@?$CComEnumImpl@UIEnumConnectionPoints@@$1?_GUID_b196b285_bab4_101a_b69c_00aa00341d07@@3U__s_GUID@@BPEAUIConnectionPoint@@V?$_CopyInterface@UIConnectionPoint@@@ATL@@@ATL@@UEAAJXZ 00000001800038d4 f i IndividualRecognition.obj
 0001:000028d4       ?Reset@?$CComEnumImpl@UIEnumConnections@@$1?_GUID_b196b287_bab4_101a_b69c_00aa00341d07@@3U__s_GUID@@BUtagCONNECTDATA@@V?$_Copy@UtagCONNECTDATA@@@ATL@@@ATL@@UEAAJXZ 00000001800038d4 f i IndividualRecognition.obj
 0001:000028e0       ?Clone@?$CComEnumImpl@UIEnumConnectionPoints@@$1?_GUID_b196b285_bab4_101a_b69c_00aa00341d07@@3U__s_GUID@@BPEAUIConnectionPoint@@V?$_CopyInterface@UIConnectionPoint@@@ATL@@@ATL@@UEAAJPEAPEAUIEnumConnectionPoints@@@Z 00000001800038e0 f i IndividualRecognition.obj
 0001:00002a0c       ?AddRef@?$CComObject@V?$CComEnum@UIEnumConnectionPoints@@$1?_GUID_b196b285_bab4_101a_b69c_00aa00341d07@@3U__s_GUID@@BPEAUIConnectionPoint@@V?$_CopyInterface@UIConnectionPoint@@@ATL@@VCComSingleThreadModel@6@@ATL@@@ATL@@UEAAKXZ 0000000180003a0c f i IndividualRecognition.obj
 0001:00002a0c       ?AddRef@?$CComObject@V?$CComEnum@UIEnumConnections@@$1?_GUID_b196b287_bab4_101a_b69c_00aa00341d07@@3U__s_GUID@@BUtagCONNECTDATA@@V?$_Copy@UtagCONNECTDATA@@@ATL@@VCComSingleThreadModel@6@@ATL@@@ATL@@UEAAKXZ 0000000180003a0c f i IndividualRecognition.obj
 0001:00002a18       ?Release@?$CComObject@V?$CComEnum@UIEnumConnections@@$1?_GUID_b196b287_bab4_101a_b69c_00aa00341d07@@3U__s_GUID@@BUtagCONNECTDATA@@V?$_Copy@UtagCONNECTDATA@@@ATL@@VCComSingleThreadModel@6@@ATL@@@ATL@@UEAAKXZ 0000000180003a18 f i IndividualRecognition.obj
 0001:00002a18       ?Release@?$CComObject@V?$CComEnum@UIEnumConnectionPoints@@$1?_GUID_b196b285_bab4_101a_b69c_00aa00341d07@@3U__s_GUID@@BPEAUIConnectionPoint@@V?$_CopyInterface@UIConnectionPoint@@@ATL@@VCComSingleThreadModel@6@@ATL@@@ATL@@UEAAKXZ 0000000180003a18 f i IndividualRecognition.obj
 0001:00002a6c       ?QueryInterface@?$CComObject@V?$CComEnum@UIEnumConnectionPoints@@$1?_GUID_b196b285_bab4_101a_b69c_00aa00341d07@@3U__s_GUID@@BPEAUIConnectionPoint@@V?$_CopyInterface@UIConnectionPoint@@@ATL@@VCComSingleThreadModel@6@@ATL@@@ATL@@UEAAJAEBU_GUID@@PEAPEAX@Z 0000000180003a6c f i IndividualRecognition.obj
 0001:00002a80       ??_E?$CComObject@V?$CComEnum@UIEnumConnectionPoints@@$1?_GUID_b196b285_bab4_101a_b69c_00aa00341d07@@3U__s_GUID@@BPEAUIConnectionPoint@@V?$_CopyInterface@UIConnectionPoint@@@ATL@@VCComSingleThreadModel@6@@ATL@@@ATL@@UEAAPEAXI@Z 0000000180003a80 f i IndividualRecognition.obj
 0001:00002a80       ??_G?$CComObject@V?$CComEnum@UIEnumConnectionPoints@@$1?_GUID_b196b285_bab4_101a_b69c_00aa00341d07@@3U__s_GUID@@BPEAUIConnectionPoint@@V?$_CopyInterface@UIConnectionPoint@@@ATL@@VCComSingleThreadModel@6@@ATL@@@ATL@@UEAAPEAXI@Z 0000000180003a80 f i IndividualRecognition.obj
 0001:00002ad8       ?AddReplacement@CRegObject@ATL@@UEAAJPEB_W0@Z 0000000180003ad8 f i IndividualRecognition.obj
 0001:00002b08       ?ClearReplacements@CRegObject@ATL@@UEAAJXZ 0000000180003b08 f i IndividualRecognition.obj
 0001:00002b14       ??_GCRegObject@ATL@@UEAAPEAXI@Z 0000000180003b14 f i IndividualRecognition.obj
 0001:00002b14       ??_ECRegObject@ATL@@UEAAPEAXI@Z 0000000180003b14 f i IndividualRecognition.obj
 0001:00002b94       ?AddRef@?$CComAggObject@VCOPOSIndividualRecognition@@@ATL@@UEAAKXZ 0000000180003b94 f i IndividualRecognition.obj
 0001:00002ba0       ?Release@?$CComAggObject@VCOPOSIndividualRecognition@@@ATL@@UEAAKXZ 0000000180003ba0 f i IndividualRecognition.obj
 0001:00002bf4       ?QueryInterface@?$CComAggObject@VCOPOSIndividualRecognition@@@ATL@@UEAAJAEBU_GUID@@PEAPEAX@Z 0000000180003bf4 f i IndividualRecognition.obj
 0001:00002c54       ?AddRef@?$CComContainedObject@VCOPOSIndividualRecognition@@@ATL@@UEAAKXZ 0000000180003c54 f i IndividualRecognition.obj
 0001:00002c64       ?Release@?$CComContainedObject@VCOPOSIndividualRecognition@@@ATL@@UEAAKXZ 0000000180003c64 f i IndividualRecognition.obj
 0001:00002c74       ?QueryInterface@?$CComContainedObject@VCOPOSIndividualRecognition@@@ATL@@UEAAJAEBU_GUID@@PEAPEAX@Z 0000000180003c74 f i IndividualRecognition.obj
 0001:00002c84       ??_G?$CComAggObject@VCOPOSIndividualRecognition@@@ATL@@UEAAPEAXI@Z 0000000180003c84 f i IndividualRecognition.obj
 0001:00002c84       ??_E?$CComAggObject@VCOPOSIndividualRecognition@@@ATL@@UEAAPEAXI@Z 0000000180003c84 f i IndividualRecognition.obj
 0001:00002cdc       ?AddRef@?$CComObject@VCOPOSIndividualRecognition@@@ATL@@UEAAKXZ 0000000180003cdc f i IndividualRecognition.obj
 0001:00002cec       ?Release@?$CComObject@VCOPOSIndividualRecognition@@@ATL@@UEAAKXZ 0000000180003cec f i IndividualRecognition.obj
 0001:00002d44       ?QueryInterface@?$CComObject@VCOPOSIndividualRecognition@@@ATL@@UEAAJAEBU_GUID@@PEAPEAX@Z 0000000180003d44 f i IndividualRecognition.obj
 0001:00002d58       ?OnDrawAdvanced@CComControlBase@ATL@@UEAAJAEAUATL_DRAWINFO@@@Z 0000000180003d58 f i IndividualRecognition.obj
 0001:00002ee4       ?Next@?$CComEnumImpl@UIEnumConnections@@$1?_GUID_b196b287_bab4_101a_b69c_00aa00341d07@@3U__s_GUID@@BUtagCONNECTDATA@@V?$_Copy@UtagCONNECTDATA@@@ATL@@@ATL@@UEAAJKPEAUtagCONNECTDATA@@PEAK@Z 0000000180003ee4 f i IndividualRecognition.obj
 0001:00002fb8       ?Skip@?$CComEnumImpl@UIEnumConnections@@$1?_GUID_b196b287_bab4_101a_b69c_00aa00341d07@@3U__s_GUID@@BUtagCONNECTDATA@@V?$_Copy@UtagCONNECTDATA@@@ATL@@@ATL@@UEAAJK@Z 0000000180003fb8 f i IndividualRecognition.obj
 0001:00002fe4       ?Clone@?$CComEnumImpl@UIEnumConnections@@$1?_GUID_b196b287_bab4_101a_b69c_00aa00341d07@@3U__s_GUID@@BUtagCONNECTDATA@@V?$_Copy@UtagCONNECTDATA@@@ATL@@@ATL@@UEAAJPEAPEAUIEnumConnections@@@Z 0000000180003fe4 f i IndividualRecognition.obj
 0001:00003110       ?QueryInterface@?$CComObject@V?$CComEnum@UIEnumConnections@@$1?_GUID_b196b287_bab4_101a_b69c_00aa00341d07@@3U__s_GUID@@BUtagCONNECTDATA@@V?$_Copy@UtagCONNECTDATA@@@ATL@@VCComSingleThreadModel@6@@ATL@@@ATL@@UEAAJAEBU_GUID@@PEAPEAX@Z 0000000180004110 f i IndividualRecognition.obj
 0001:00003124       ??_E?$CComObject@V?$CComEnum@UIEnumConnections@@$1?_GUID_b196b287_bab4_101a_b69c_00aa00341d07@@3U__s_GUID@@BUtagCONNECTDATA@@V?$_Copy@UtagCONNECTDATA@@@ATL@@VCComSingleThreadModel@6@@ATL@@@ATL@@UEAAPEAXI@Z 0000000180004124 f i IndividualRecognition.obj
 0001:00003124       ??_G?$CComObject@V?$CComEnum@UIEnumConnections@@$1?_GUID_b196b287_bab4_101a_b69c_00aa00341d07@@3U__s_GUID@@BUtagCONNECTDATA@@V?$_Copy@UtagCONNECTDATA@@@ATL@@VCComSingleThreadModel@6@@ATL@@@ATL@@UEAAPEAXI@Z 0000000180004124 f i IndividualRecognition.obj
 0001:0000317c       ??_E?$CComObject@VCOPOSIndividualRecognition@@@ATL@@W7EAAPEAXI@Z 000000018000417c f i IndividualRecognition.obj
 0001:00003188       ??_E?$CComObject@VCOPOSIndividualRecognition@@@ATL@@WHA@EAAPEAXI@Z 0000000180004188 f i IndividualRecognition.obj
 0001:00003194       ?QueryInterface@?$CComObject@VCOPOSIndividualRecognition@@@ATL@@WLI@EAAJAEBU_GUID@@PEAPEAX@Z 0000000180004194 f i IndividualRecognition.obj
 0001:000031a0       ?AddRef@?$CComObject@VCOPOSIndividualRecognition@@@ATL@@WLI@EAAKXZ 00000001800041a0 f i IndividualRecognition.obj
 0001:000031ac       ?Release@?$CComObject@VCOPOSIndividualRecognition@@@ATL@@WLI@EAAKXZ 00000001800041ac f i IndividualRecognition.obj
 0001:000031b8       ?QueryInterface@?$CComObject@VCOPOSIndividualRecognition@@@ATL@@WMA@EAAJAEBU_GUID@@PEAPEAX@Z 00000001800041b8 f i IndividualRecognition.obj
 0001:000031c4       ?AddRef@?$CComObject@VCOPOSIndividualRecognition@@@ATL@@WMA@EAAKXZ 00000001800041c4 f i IndividualRecognition.obj
 0001:000031d0       ?Release@?$CComObject@VCOPOSIndividualRecognition@@@ATL@@WMA@EAAKXZ 00000001800041d0 f i IndividualRecognition.obj
 0001:000031dc       ?QueryInterface@?$CComObject@VCOPOSIndividualRecognition@@@ATL@@WMI@EAAJAEBU_GUID@@PEAPEAX@Z 00000001800041dc f i IndividualRecognition.obj
 0001:000031e8       ?AddRef@?$CComObject@VCOPOSIndividualRecognition@@@ATL@@WMI@EAAKXZ 00000001800041e8 f i IndividualRecognition.obj
 0001:000031f4       ?Release@?$CComObject@VCOPOSIndividualRecognition@@@ATL@@WMI@EAAKXZ 00000001800041f4 f i IndividualRecognition.obj
 0001:00003200       ?QueryInterface@?$CComObject@VCOPOSIndividualRecognition@@@ATL@@WNA@EAAJAEBU_GUID@@PEAPEAX@Z 0000000180004200 f i IndividualRecognition.obj
 0001:0000320c       ?AddRef@?$CComObject@VCOPOSIndividualRecognition@@@ATL@@WNA@EAAKXZ 000000018000420c f i IndividualRecognition.obj
 0001:00003218       ?Release@?$CComObject@VCOPOSIndividualRecognition@@@ATL@@WNA@EAAKXZ 0000000180004218 f i IndividualRecognition.obj
 0001:00003224       ?QueryInterface@?$CComObject@VCOPOSIndividualRecognition@@@ATL@@WNI@EAAJAEBU_GUID@@PEAPEAX@Z 0000000180004224 f i IndividualRecognition.obj
 0001:00003230       ?AddRef@?$CComObject@VCOPOSIndividualRecognition@@@ATL@@WNI@EAAKXZ 0000000180004230 f i IndividualRecognition.obj
 0001:0000323c       ?Release@?$CComObject@VCOPOSIndividualRecognition@@@ATL@@WNI@EAAKXZ 000000018000423c f i IndividualRecognition.obj
 0001:00003248       ?QueryInterface@?$CComObject@VCOPOSIndividualRecognition@@@ATL@@WOA@EAAJAEBU_GUID@@PEAPEAX@Z 0000000180004248 f i IndividualRecognition.obj
 0001:00003254       ?AddRef@?$CComObject@VCOPOSIndividualRecognition@@@ATL@@WOA@EAAKXZ 0000000180004254 f i IndividualRecognition.obj
 0001:00003260       ?Release@?$CComObject@VCOPOSIndividualRecognition@@@ATL@@WOA@EAAKXZ 0000000180004260 f i IndividualRecognition.obj
 0001:0000326c       ?QueryInterface@?$CComObject@VCOPOSIndividualRecognition@@@ATL@@WOI@EAAJAEBU_GUID@@PEAPEAX@Z 000000018000426c f i IndividualRecognition.obj
 0001:00003278       ?AddRef@?$CComObject@VCOPOSIndividualRecognition@@@ATL@@WOI@EAAKXZ 0000000180004278 f i IndividualRecognition.obj
 0001:00003284       ?Release@?$CComObject@VCOPOSIndividualRecognition@@@ATL@@WOI@EAAKXZ 0000000180004284 f i IndividualRecognition.obj
 0001:00003290       ?QueryInterface@?$CComObject@VCOPOSIndividualRecognition@@@ATL@@WPA@EAAJAEBU_GUID@@PEAPEAX@Z 0000000180004290 f i IndividualRecognition.obj
 0001:0000329c       ?AddRef@?$CComObject@VCOPOSIndividualRecognition@@@ATL@@WPA@EAAKXZ 000000018000429c f i IndividualRecognition.obj
 0001:000032a8       ?Release@?$CComObject@VCOPOSIndividualRecognition@@@ATL@@WPA@EAAKXZ 00000001800042a8 f i IndividualRecognition.obj
 0001:000032b4       ?QueryInterface@?$CComObject@VCOPOSIndividualRecognition@@@ATL@@WPI@EAAJAEBU_GUID@@PEAPEAX@Z 00000001800042b4 f i IndividualRecognition.obj
 0001:000032c0       ?AddRef@?$CComObject@VCOPOSIndividualRecognition@@@ATL@@WPI@EAAKXZ 00000001800042c0 f i IndividualRecognition.obj
 0001:000032cc       ?Release@?$CComObject@VCOPOSIndividualRecognition@@@ATL@@WPI@EAAKXZ 00000001800042cc f i IndividualRecognition.obj
 0001:000032d8       ?QueryInterface@?$CComObject@VCOPOSIndividualRecognition@@@ATL@@WBAA@EAAJAEBU_GUID@@PEAPEAX@Z 00000001800042d8 f i IndividualRecognition.obj
 0001:000032e4       ?AddRef@?$CComObject@VCOPOSIndividualRecognition@@@ATL@@WBAA@EAAKXZ 00000001800042e4 f i IndividualRecognition.obj
 0001:000032f0       ?Release@?$CComObject@VCOPOSIndividualRecognition@@@ATL@@WBAA@EAAKXZ 00000001800042f0 f i IndividualRecognition.obj
 0001:000032fc       ?QueryInterface@?$CComObject@VCOPOSIndividualRecognition@@@ATL@@WBAI@EAAJAEBU_GUID@@PEAPEAX@Z 00000001800042fc f i IndividualRecognition.obj
 0001:00003308       ?AddRef@?$CComObject@VCOPOSIndividualRecognition@@@ATL@@WBAI@EAAKXZ 0000000180004308 f i IndividualRecognition.obj
 0001:00003314       ?Release@?$CComObject@VCOPOSIndividualRecognition@@@ATL@@WBAI@EAAKXZ 0000000180004314 f i IndividualRecognition.obj
 0001:00003320       ?QueryInterface@?$CComObject@VCOPOSIndividualRecognition@@@ATL@@WBBA@EAAJAEBU_GUID@@PEAPEAX@Z 0000000180004320 f i IndividualRecognition.obj
 0001:0000332c       ?AddRef@?$CComObject@VCOPOSIndividualRecognition@@@ATL@@WBBA@EAAKXZ 000000018000432c f i IndividualRecognition.obj
 0001:00003338       ?Release@?$CComObject@VCOPOSIndividualRecognition@@@ATL@@WBBA@EAAKXZ 0000000180004338 f i IndividualRecognition.obj
 0001:00003344       ?QueryInterface@?$CComObject@VCOPOSIndividualRecognition@@@ATL@@WBBI@EAAJAEBU_GUID@@PEAPEAX@Z 0000000180004344 f i IndividualRecognition.obj
 0001:00003350       ?AddRef@?$CComObject@VCOPOSIndividualRecognition@@@ATL@@WBBI@EAAKXZ 0000000180004350 f i IndividualRecognition.obj
 0001:0000335c       ?Release@?$CComObject@VCOPOSIndividualRecognition@@@ATL@@WBBI@EAAKXZ 000000018000435c f i IndividualRecognition.obj
 0001:00003368       ?AddRef@?$CComObject@VCOPOSIndividualRecognition@@@ATL@@WBCI@EAAKXZ 0000000180004368 f i IndividualRecognition.obj
 0001:00003374       ?Release@?$CComObject@VCOPOSIndividualRecognition@@@ATL@@WBCI@EAAKXZ 0000000180004374 f i IndividualRecognition.obj
 0001:00003380       ?AddRef@?$CComObject@VCOPOSIndividualRecognition@@@ATL@@WBEA@EAAKXZ 0000000180004380 f i IndividualRecognition.obj
 0001:0000338c       ?Release@?$CComObject@VCOPOSIndividualRecognition@@@ATL@@WBEA@EAAKXZ 000000018000438c f i IndividualRecognition.obj
 0001:00003398       ??_E?$CComContainedObject@VCOPOSIndividualRecognition@@@ATL@@W7EAAPEAXI@Z 0000000180004398 f i IndividualRecognition.obj
 0001:000033a4       ??_E?$CComContainedObject@VCOPOSIndividualRecognition@@@ATL@@WHA@EAAPEAXI@Z 00000001800043a4 f i IndividualRecognition.obj
 0001:000033b0       ?QueryInterface@?$CComContainedObject@VCOPOSIndividualRecognition@@@ATL@@WLI@EAAJAEBU_GUID@@PEAPEAX@Z 00000001800043b0 f i IndividualRecognition.obj
 0001:000033bc       ?AddRef@?$CComContainedObject@VCOPOSIndividualRecognition@@@ATL@@WLI@EAAKXZ 00000001800043bc f i IndividualRecognition.obj
 0001:000033c8       ?Release@?$CComContainedObject@VCOPOSIndividualRecognition@@@ATL@@WLI@EAAKXZ 00000001800043c8 f i IndividualRecognition.obj
 0001:000033d4       ?QueryInterface@?$CComContainedObject@VCOPOSIndividualRecognition@@@ATL@@WMA@EAAJAEBU_GUID@@PEAPEAX@Z 00000001800043d4 f i IndividualRecognition.obj
 0001:000033e0       ?AddRef@?$CComContainedObject@VCOPOSIndividualRecognition@@@ATL@@WMA@EAAKXZ 00000001800043e0 f i IndividualRecognition.obj
 0001:000033ec       ?Release@?$CComContainedObject@VCOPOSIndividualRecognition@@@ATL@@WMA@EAAKXZ 00000001800043ec f i IndividualRecognition.obj
 0001:000033f8       ?QueryInterface@?$CComContainedObject@VCOPOSIndividualRecognition@@@ATL@@WMI@EAAJAEBU_GUID@@PEAPEAX@Z 00000001800043f8 f i IndividualRecognition.obj
 0001:00003404       ?AddRef@?$CComContainedObject@VCOPOSIndividualRecognition@@@ATL@@WMI@EAAKXZ 0000000180004404 f i IndividualRecognition.obj
 0001:00003410       ?Release@?$CComContainedObject@VCOPOSIndividualRecognition@@@ATL@@WMI@EAAKXZ 0000000180004410 f i IndividualRecognition.obj
 0001:0000341c       ?QueryInterface@?$CComContainedObject@VCOPOSIndividualRecognition@@@ATL@@WNA@EAAJAEBU_GUID@@PEAPEAX@Z 000000018000441c f i IndividualRecognition.obj
 0001:00003428       ?AddRef@?$CComContainedObject@VCOPOSIndividualRecognition@@@ATL@@WNA@EAAKXZ 0000000180004428 f i IndividualRecognition.obj
 0001:00003434       ?Release@?$CComContainedObject@VCOPOSIndividualRecognition@@@ATL@@WNA@EAAKXZ 0000000180004434 f i IndividualRecognition.obj
 0001:00003440       ?QueryInterface@?$CComContainedObject@VCOPOSIndividualRecognition@@@ATL@@WNI@EAAJAEBU_GUID@@PEAPEAX@Z 0000000180004440 f i IndividualRecognition.obj
 0001:0000344c       ?AddRef@?$CComContainedObject@VCOPOSIndividualRecognition@@@ATL@@WNI@EAAKXZ 000000018000444c f i IndividualRecognition.obj
 0001:00003458       ?Release@?$CComContainedObject@VCOPOSIndividualRecognition@@@ATL@@WNI@EAAKXZ 0000000180004458 f i IndividualRecognition.obj
 0001:00003464       ?QueryInterface@?$CComContainedObject@VCOPOSIndividualRecognition@@@ATL@@WOA@EAAJAEBU_GUID@@PEAPEAX@Z 0000000180004464 f i IndividualRecognition.obj
 0001:00003470       ?AddRef@?$CComContainedObject@VCOPOSIndividualRecognition@@@ATL@@WOA@EAAKXZ 0000000180004470 f i IndividualRecognition.obj
 0001:0000347c       ?Release@?$CComContainedObject@VCOPOSIndividualRecognition@@@ATL@@WOA@EAAKXZ 000000018000447c f i IndividualRecognition.obj
 0001:00003488       ?QueryInterface@?$CComContainedObject@VCOPOSIndividualRecognition@@@ATL@@WOI@EAAJAEBU_GUID@@PEAPEAX@Z 0000000180004488 f i IndividualRecognition.obj
 0001:00003494       ?AddRef@?$CComContainedObject@VCOPOSIndividualRecognition@@@ATL@@WOI@EAAKXZ 0000000180004494 f i IndividualRecognition.obj
 0001:000034a0       ?Release@?$CComContainedObject@VCOPOSIndividualRecognition@@@ATL@@WOI@EAAKXZ 00000001800044a0 f i IndividualRecognition.obj
 0001:000034ac       ?QueryInterface@?$CComContainedObject@VCOPOSIndividualRecognition@@@ATL@@WPA@EAAJAEBU_GUID@@PEAPEAX@Z 00000001800044ac f i IndividualRecognition.obj
 0001:000034b8       ?AddRef@?$CComContainedObject@VCOPOSIndividualRecognition@@@ATL@@WPA@EAAKXZ 00000001800044b8 f i IndividualRecognition.obj
 0001:000034c4       ?Release@?$CComContainedObject@VCOPOSIndividualRecognition@@@ATL@@WPA@EAAKXZ 00000001800044c4 f i IndividualRecognition.obj
 0001:000034d0       ?QueryInterface@?$CComContainedObject@VCOPOSIndividualRecognition@@@ATL@@WPI@EAAJAEBU_GUID@@PEAPEAX@Z 00000001800044d0 f i IndividualRecognition.obj
 0001:000034dc       ?AddRef@?$CComContainedObject@VCOPOSIndividualRecognition@@@ATL@@WPI@EAAKXZ 00000001800044dc f i IndividualRecognition.obj
 0001:000034e8       ?Release@?$CComContainedObject@VCOPOSIndividualRecognition@@@ATL@@WPI@EAAKXZ 00000001800044e8 f i IndividualRecognition.obj
 0001:000034f4       ?QueryInterface@?$CComContainedObject@VCOPOSIndividualRecognition@@@ATL@@WBAA@EAAJAEBU_GUID@@PEAPEAX@Z 00000001800044f4 f i IndividualRecognition.obj
 0001:00003500       ?AddRef@?$CComContainedObject@VCOPOSIndividualRecognition@@@ATL@@WBAA@EAAKXZ 0000000180004500 f i IndividualRecognition.obj
 0001:0000350c       ?Release@?$CComContainedObject@VCOPOSIndividualRecognition@@@ATL@@WBAA@EAAKXZ 000000018000450c f i IndividualRecognition.obj
 0001:00003518       ?QueryInterface@?$CComContainedObject@VCOPOSIndividualRecognition@@@ATL@@WBAI@EAAJAEBU_GUID@@PEAPEAX@Z 0000000180004518 f i IndividualRecognition.obj
 0001:00003524       ?AddRef@?$CComContainedObject@VCOPOSIndividualRecognition@@@ATL@@WBAI@EAAKXZ 0000000180004524 f i IndividualRecognition.obj
 0001:00003530       ?Release@?$CComContainedObject@VCOPOSIndividualRecognition@@@ATL@@WBAI@EAAKXZ 0000000180004530 f i IndividualRecognition.obj
 0001:0000353c       ?QueryInterface@?$CComContainedObject@VCOPOSIndividualRecognition@@@ATL@@WBBA@EAAJAEBU_GUID@@PEAPEAX@Z 000000018000453c f i IndividualRecognition.obj
 0001:00003548       ?AddRef@?$CComContainedObject@VCOPOSIndividualRecognition@@@ATL@@WBBA@EAAKXZ 0000000180004548 f i IndividualRecognition.obj
 0001:00003554       ?Release@?$CComContainedObject@VCOPOSIndividualRecognition@@@ATL@@WBBA@EAAKXZ 0000000180004554 f i IndividualRecognition.obj
 0001:00003560       ?QueryInterface@?$CComContainedObject@VCOPOSIndividualRecognition@@@ATL@@WBBI@EAAJAEBU_GUID@@PEAPEAX@Z 0000000180004560 f i IndividualRecognition.obj
 0001:0000356c       ?AddRef@?$CComContainedObject@VCOPOSIndividualRecognition@@@ATL@@WBBI@EAAKXZ 000000018000456c f i IndividualRecognition.obj
 0001:00003578       ?Release@?$CComContainedObject@VCOPOSIndividualRecognition@@@ATL@@WBBI@EAAKXZ 0000000180004578 f i IndividualRecognition.obj
 0001:00003584       ?AddRef@?$CComContainedObject@VCOPOSIndividualRecognition@@@ATL@@WBCI@EAAKXZ 0000000180004584 f i IndividualRecognition.obj
 0001:00003590       ?Release@?$CComContainedObject@VCOPOSIndividualRecognition@@@ATL@@WBCI@EAAKXZ 0000000180004590 f i IndividualRecognition.obj
 0001:0000359c       ?AddRef@?$CComContainedObject@VCOPOSIndividualRecognition@@@ATL@@WBEA@EAAKXZ 000000018000459c f i IndividualRecognition.obj
 0001:000035a8       ?Release@?$CComContainedObject@VCOPOSIndividualRecognition@@@ATL@@WBEA@EAAKXZ 00000001800045a8 f i IndividualRecognition.obj
 0001:000035b4       ?CreateInstance@CComClassFactory@ATL@@UEAAJPEAUIUnknown@@AEBU_GUID@@PEAPEAX@Z 00000001800045b4 f i IndividualRecognition.obj
 0001:00003614       ?LockServer@CComClassFactory@ATL@@UEAAJH@Z 0000000180004614 f i IndividualRecognition.obj
 0001:00003638       ??_ECComClassFactory@ATL@@UEAAPEAXI@Z 0000000180004638 f i IndividualRecognition.obj
 0001:00003638       ??_GCComClassFactory@ATL@@UEAAPEAXI@Z 0000000180004638 f i IndividualRecognition.obj
 0001:00003688       ??$AtlModuleRegisterWndClassInfoT@VAtlModuleRegisterWndClassInfoParamW@ATL@@@ATL@@YAGPEAU_ATL_BASE_MODULE70@0@PEAU_ATL_WIN_MODULE70@0@PEAU_ATL_WNDCLASSINFOW@0@PEAP6A_JPEAUHWND__@@I_K_J@ZVAtlModuleRegisterWndClassInfoParamW@0@@Z 0000000180004688 f i IndividualRecognition.obj
 0001:00003888       ??0?$CComContainedObject@VCOPOSIndividualRecognition@@@ATL@@QEAA@PEAX@Z 0000000180004888 f i IndividualRecognition.obj
 0001:000039a4       ??0?$CComObject@VCOPOSIndividualRecognition@@@ATL@@QEAA@PEAX@Z 00000001800049a4 f i IndividualRecognition.obj
 0001:00003abc       ??0CAtlModule@ATL@@QEAA@XZ 0000000180004abc f i IndividualRecognition.obj
 0001:00003b30       ??1?$CComEnumImpl@UIEnumConnectionPoints@@$1?_GUID_b196b285_bab4_101a_b69c_00aa00341d07@@3U__s_GUID@@BPEAUIConnectionPoint@@V?$_CopyInterface@UIConnectionPoint@@@ATL@@@ATL@@UEAA@XZ 0000000180004b30 f i IndividualRecognition.obj
 0001:00003b8c       ??1?$CComEnumImpl@UIEnumConnections@@$1?_GUID_b196b287_bab4_101a_b69c_00aa00341d07@@3U__s_GUID@@BUtagCONNECTDATA@@V?$_Copy@UtagCONNECTDATA@@@ATL@@@ATL@@UEAA@XZ 0000000180004b8c f i IndividualRecognition.obj
 0001:00003be8       ??1?$CComObject@VCOPOSIndividualRecognition@@@ATL@@UEAA@XZ 0000000180004be8 f i IndividualRecognition.obj
 0001:00003d08       ??_E?$CComContainedObject@VCOPOSIndividualRecognition@@@ATL@@UEAAPEAXI@Z 0000000180004d08 f i IndividualRecognition.obj
 0001:00003d08       ??_G?$CComContainedObject@VCOPOSIndividualRecognition@@@ATL@@UEAAPEAXI@Z 0000000180004d08 f i IndividualRecognition.obj
 0001:00003d3c       ??_G?$CComObject@VCOPOSIndividualRecognition@@@ATL@@UEAAPEAXI@Z 0000000180004d3c f i IndividualRecognition.obj
 0001:00003d3c       ??_E?$CComObject@VCOPOSIndividualRecognition@@@ATL@@UEAAPEAXI@Z 0000000180004d3c f i IndividualRecognition.obj
 0001:00003d70       ?Add@?$CSimpleArray@GV?$CSimpleArrayEqualHelper@G@ATL@@@ATL@@QEAAHAEBG@Z 0000000180004d70 f i IndividualRecognition.obj
 0001:00003e24       ?Add@?$CSimpleMap@PEA_WPEA_WVCExpansionVectorEqualHelper@ATL@@@ATL@@QEAAHAEBQEA_W0@Z 0000000180004e24 f i IndividualRecognition.obj
 0001:00003ec4       ?Add@CComDynamicUnkArray@ATL@@QEAAKPEAUIUnknown@@@Z 0000000180004ec4 f i IndividualRecognition.obj
 0001:00003fb0       ?Add@CExpansionVector@ATL@@QEAAHPEB_W0@Z 0000000180004fb0 f i IndividualRecognition.obj
 0001:000040e4       ?AddTermFunc@CAtlModule@ATL@@QEAAJP6AX_K@Z0@Z 00000001800050e4 f i IndividualRecognition.obj
 0001:00004180       ?AddValue@CRegParser@ATL@@IEAAJAEAVCRegKey@2@PEB_WPEA_W@Z 0000000180005180 f i IndividualRecognition.obj
 0001:000045c8       ?AllocateHeap@?$CTempBuffer@E$0BAA@VCCRTAllocator@ATL@@@ATL@@AEAAX_K@Z 00000001800055c8 f i IndividualRecognition.obj
 0001:000045c8       ?AllocateHeap@?$CTempBuffer@_W$0EAA@VCCRTAllocator@ATL@@@ATL@@AEAAX_K@Z 00000001800055c8 f i IndividualRecognition.obj
 0001:000045c8       ?AllocateHeap@?$CTempBuffer@_W$0BAA@VCCRTAllocator@ATL@@@ATL@@AEAAX_K@Z 00000001800055c8 f i IndividualRecognition.obj
 0001:000045f4       ?Append@CParseBuffer@CRegParser@ATL@@QEAAHPEB_WH@Z 00000001800055f4 f i IndividualRecognition.obj
 0001:0000473c       ?AtlComModuleGetClassObject@ATL@@YAJPEAU_ATL_COM_MODULE70@1@AEBU_GUID@@1PEAPEAX@Z 000000018000573c f i IndividualRecognition.obj
 0001:0000487c       ?AtlComModuleRegisterServer@ATL@@YAJPEAU_ATL_COM_MODULE70@1@HPEBU_GUID@@@Z 000000018000587c f i IndividualRecognition.obj
 0001:0000493c       ?AtlComModuleUnregisterServer@ATL@@YAJPEAU_ATL_COM_MODULE70@1@HPEBU_GUID@@@Z 000000018000593c f i IndividualRecognition.obj
 0001:000049f8       ?AtlHiMetricToPixel@ATL@@YAXPEBUtagSIZE@@PEAU2@@Z 00000001800059f8 f i IndividualRecognition.obj
 0001:00004aa8       ?AtlHresultFromLastError@ATL@@YAJXZ 0000000180005aa8 f i IndividualRecognition.obj
 0001:00004ac8       ?AtlHresultFromWin32@ATL@@YAJK@Z 0000000180005ac8 f i IndividualRecognition.obj
 0001:00004ad8       ?AtlInternalOleLoadFromStream@ATL@@YAJPEAUIStream@@AEBU_GUID@@PEAPEAXTClassesAllowedInStream@1@K@Z 0000000180005ad8 f i IndividualRecognition.obj
 0001:00004c1c       ?AtlInternalQueryInterface@ATL@@YAJPEAXPEBU_ATL_INTMAP_ENTRY@1@AEBU_GUID@@PEAPEAX@Z 0000000180005c1c f i IndividualRecognition.obj
 0001:00004d24       ?AtlLoadTypeLib@ATL@@YAJPEAUHINSTANCE__@@PEB_WPEAPEA_WPEAPEAUITypeLib@@@Z 0000000180005d24 f i IndividualRecognition.obj
 0001:00004f80       ?AtlRegisterClassCategoriesHelper@ATL@@YAJAEBU_GUID@@PEBU_ATL_CATMAP_ENTRY@1@H@Z 0000000180005f80 f i IndividualRecognition.obj
 0001:00005404       ?AtlRegisterTypeLib@ATL@@YAJPEAUHINSTANCE__@@PEB_W@Z 0000000180006404 f i IndividualRecognition.obj
 0001:00005600       ?AtlThrowImpl@ATL@@YAXJ@Z  0000000180006600 f i IndividualRecognition.obj
 0001:00005624       ?AtlUnRegisterTypeLib@ATL@@YAJPEAUHINSTANCE__@@PEB_W@Z 0000000180006624 f i IndividualRecognition.obj
 0001:000056ec       ?AtlWinModuleExtractCreateWndData@ATL@@YAPEAXPEAU_ATL_WIN_MODULE70@1@@Z 00000001800066ec f i IndividualRecognition.obj
 0001:00005778       ?Cleanup@CComTypeInfoHolder@ATL@@SAX_K@Z 0000000180006778 f i IndividualRecognition.obj
 0001:000057b8       ?ClearReplacements@CExpansionVector@ATL@@QEAAJXZ 00000001800067b8 f i IndividualRecognition.obj
 0001:00005854       ?CreateInstance@?$CComCreator@V?$CComAggObject@VCOPOSIndividualRecognition@@@ATL@@@ATL@@SAJPEAXAEBU_GUID@@PEAPEAX@Z 0000000180006854 f i IndividualRecognition.obj
 0001:00005938       ?CreateInstance@?$CComCreator@V?$CComObject@VCOPOSIndividualRecognition@@@ATL@@@ATL@@SAJPEAXAEBU_GUID@@PEAPEAX@Z 0000000180006938 f i IndividualRecognition.obj
 0001:000059ec       ?CreateInstance@?$CComObject@V?$CComEnum@UIEnumConnectionPoints@@$1?_GUID_b196b285_bab4_101a_b69c_00aa00341d07@@3U__s_GUID@@BPEAUIConnectionPoint@@V?$_CopyInterface@UIConnectionPoint@@@ATL@@VCComSingleThreadModel@6@@ATL@@@ATL@@SAJPEAPEAV12@@Z 00000001800069ec f i IndividualRecognition.obj
 0001:00005a7c       ?CreateInstance@?$CComObject@V?$CComEnum@UIEnumConnections@@$1?_GUID_b196b287_bab4_101a_b69c_00aa00341d07@@3U__s_GUID@@BUtagCONNECTDATA@@V?$_Copy@UtagCONNECTDATA@@@ATL@@VCComSingleThreadModel@6@@ATL@@@ATL@@SAJPEAPEAV12@@Z 0000000180006a7c f i IndividualRecognition.obj
 0001:00005b0c       ?DefaultReflectionHandler@?$CWindowImplRoot@VCWindow@ATL@@@ATL@@SAHPEAUHWND__@@I_K_JAEA_J@Z 0000000180006b0c f i IndividualRecognition.obj
 0001:00005b70       ?DeleteSubKey@CRegKey@ATL@@QEAAJPEB_W@Z 0000000180006b70 f i IndividualRecognition.obj
 0001:00005c08       ?DoEvent@COPOSIndividualRecognition@@IEAAXI_K_J@Z 0000000180006c08 f i IndividualRecognition.obj
 0001:00005cbc       ?DoVerbPrimary@?$IOleObjectImpl@VCOPOSIndividualRecognition@@@ATL@@QEAAJPEBUtagRECT@@PEAUHWND__@@@Z 0000000180006cbc f i IndividualRecognition.obj
 0001:00005de8       ?DoVerbProperties@CComControlBase@ATL@@QEAAJPEBUtagRECT@@PEAUHWND__@@@Z 0000000180006de8 f i IndividualRecognition.obj
 0001:00006010       ?FireTheEvent@?$CProxy_IOPOSEvents@VCOPOSIndividualRecognition@@@@IEAAXPEAVOposVariant@@IAEAJPEB_WJ@Z 0000000180007010 f i IndividualRecognition.obj
 0001:000060fc       ?FireViewChange@CComControlBase@ATL@@QEAAJXZ 00000001800070fc f i IndividualRecognition.obj
 0001:00006160       ?Fire_DataEvent@?$CProxy_IOPOSEvents@VCOPOSIndividualRecognition@@@@QEAAXJ@Z 0000000180007160 f i IndividualRecognition.obj
 0001:0000624c       ?Fire_DirectIOEvent@?$CProxy_IOPOSEvents@VCOPOSIndividualRecognition@@@@QEAAXJPEAJPEAPEA_W@Z 000000018000724c f i IndividualRecognition.obj
 0001:000063ac       ?Fire_ErrorEvent@?$CProxy_IOPOSEvents@VCOPOSIndividualRecognition@@@@QEAAXJJJPEAJ@Z 00000001800073ac f i IndividualRecognition.obj
 0001:00006520       ?Fire_StatusUpdateEvent@?$CProxy_IOPOSEvents@VCOPOSIndividualRecognition@@@@QEAAXJ@Z 0000000180007520 f i IndividualRecognition.obj
 0001:0000660c       ?FreeHeap@?$CTempBuffer@_W$0BAA@VCCRTAllocator@ATL@@@ATL@@AEAAXXZ 000000018000760c f i IndividualRecognition.obj
 0001:0000660c       ?FreeHeap@?$CTempBuffer@_W$0EAA@VCCRTAllocator@ATL@@@ATL@@AEAAXXZ 000000018000760c f i IndividualRecognition.obj
 0001:0000660c       ?FreeHeap@?$CTempBuffer@E$0BAA@VCCRTAllocator@ATL@@@ATL@@AEAAXXZ 000000018000760c f i IndividualRecognition.obj
 0001:00006614       ?GetAmbientLocaleID@CComControlBase@ATL@@QEAAJAEAK@Z 0000000180007614 f i IndividualRecognition.obj
 0001:000066d4       ?GetAmbientUserMode@CComControlBase@ATL@@QEAAJAEAH@Z 00000001800076d4 f i IndividualRecognition.obj
 0001:000067a4       ?GetClassObject@CComModule@ATL@@QEAAJAEBU_GUID@@0PEAPEAX@Z 00000001800077a4 f i IndividualRecognition.obj
 0001:00006898       ?GetConnMap@COPOSIndividualRecognition@@SAPEBU_ATL_CONNMAP_ENTRY@ATL@@PEAH@Z 0000000180007898 f i IndividualRecognition.obj
 0001:00006920       ?GetIDsOfNames@CComTypeInfoHolder@ATL@@QEAAJAEBU_GUID@@PEAPEA_WIKPEAJ@Z 0000000180007920 f i IndividualRecognition.obj
 0001:00006a98       ?GetPagesHelper@?$ISpecifyPropertyPagesImpl@VCOPOSIndividualRecognition@@@ATL@@IEAAJPEAUtagCAUUID@@PEBUATL_PROPMAP_ENTRY@2@@Z 0000000180007a98 f i IndividualRecognition.obj
 0001:00006c38       ?GetSizeMax@CComVariant@ATL@@QEBAJPEAT_ULARGE_INTEGER@@@Z 0000000180007c38 f i IndividualRecognition.obj
 0001:00006e68       ?GetTI@CComTypeInfoHolder@ATL@@QEAAJK@Z 0000000180007e68 f i IndividualRecognition.obj
 0001:00007150       ?GetZoomInfo@CComControlBase@ATL@@QEAAXAEAUATL_DRAWINFO@@@Z 0000000180008150 f i IndividualRecognition.obj
 0001:000071f4       ?HKeyFromString@CRegParser@ATL@@KAPEAUHKEY__@@PEA_W@Z 00000001800081f4 f i IndividualRecognition.obj
 0001:00007258       ?IDataObject_GetData@CComControlBase@ATL@@QEAAJPEAUtagFORMATETC@@PEAUtagSTGMEDIUM@@@Z 0000000180008258 f i IndividualRecognition.obj
 0001:0000744c       ?IOleInPlaceObject_InPlaceDeactivate@CComControlBase@ATL@@QEAAJXZ 000000018000844c f i IndividualRecognition.obj
 0001:000074ec       ?IOleInPlaceObject_SetObjectRects@CComControlBase@ATL@@QEAAJPEBUtagRECT@@0@Z 00000001800084ec f i IndividualRecognition.obj
 0001:000075dc       ?IOleInPlaceObject_UIDeactivate@CComControlBase@ATL@@QEAAJXZ 00000001800085dc f i IndividualRecognition.obj
 0001:000076e8       ?IOleObject_Close@CComControlBase@ATL@@QEAAJK@Z 00000001800086e8 f i IndividualRecognition.obj
 0001:00007800       ?IOleObject_SetClientSite@CComControlBase@ATL@@QEAAJPEAUIOleClientSite@@@Z 0000000180008800 f i IndividualRecognition.obj
 0001:00007878       ?IOleObject_SetExtent@CComControlBase@ATL@@QEAAJKPEAUtagSIZE@@@Z 0000000180008878 f i IndividualRecognition.obj
 0001:00007910       ?IPSI_GetIPersistStreamInit@?$IPersistStorageImpl@VCOPOSIndividualRecognition@@@ATL@@AEAAPEAUIPersistStreamInit@@XZ 0000000180008910 f i IndividualRecognition.obj
 0001:000079f8       ?IPersistStreamInit_Load@?$IPersistStreamInitImpl@VCOPOSIndividualRecognition@@@ATL@@QEAAJPEAUIStream@@PEBUATL_PROPMAP_ENTRY@2@@Z 00000001800089f8 f i IndividualRecognition.obj
 0001:00007d24       ?IPersistStreamInit_Save@?$IPersistStreamInitImpl@VCOPOSIndividualRecognition@@@ATL@@QEAAJPEAUIStream@@HPEBUATL_PROPMAP_ENTRY@2@@Z 0000000180008d24 f i IndividualRecognition.obj
 0001:00007fc4       ?IQuickActivate_QuickActivate@CComControlBase@ATL@@QEAAJPEAUtagQACONTAINER@@PEAUtagQACONTROL@@@Z 0000000180008fc4 f i IndividualRecognition.obj
 0001:00008288       ?IViewObject_Draw@CComControlBase@ATL@@QEAAJKJPEAXPEAUtagDVTARGETDEVICE@@PEAUHDC__@@2PEBU_RECTL@@3@Z 0000000180009288 f i IndividualRecognition.obj
 0001:0000839c       ?InPlaceActivate@CComControlBase@ATL@@QEAAJJPEBUtagRECT@@@Z 000000018000939c f i IndividualRecognition.obj
 0001:000086d0       ?Init@?$CComEnumImpl@UIEnumConnectionPoints@@$1?_GUID_b196b285_bab4_101a_b69c_00aa00341d07@@3U__s_GUID@@BPEAUIConnectionPoint@@V?$_CopyInterface@UIConnectionPoint@@@ATL@@@ATL@@QEAAJPEAPEAUIConnectionPoint@@0PEAUIUnknown@@W4CComEnumFlags@2@@Z 00000001800096d0 f i IndividualRecognition.obj
 0001:000087f0       ?Init@?$CComEnumImpl@UIEnumConnections@@$1?_GUID_b196b287_bab4_101a_b69c_00aa00341d07@@3U__s_GUID@@BUtagCONNECTDATA@@V?$_Copy@UtagCONNECTDATA@@@ATL@@@ATL@@QEAAJPEAUtagCONNECTDATA@@0PEAUIUnknown@@W4CComEnumFlags@2@@Z 00000001800097f0 f i IndividualRecognition.obj
 0001:00008914       ?IsEqualObject@?$CComPtrBase@UIOleClientSite@@@ATL@@QEAA_NPEAUIUnknown@@@Z 0000000180009914 f i IndividualRecognition.obj
 0001:000089a0       ?LoadNameCache@CComTypeInfoHolder@ATL@@QEAAJPEAUITypeInfo@@@Z 00000001800099a0 f i IndividualRecognition.obj
 0001:00008b20       ?Lookup@?$CSimpleMap@PEA_WPEA_WVCExpansionVectorEqualHelper@ATL@@@ATL@@QEBAPEA_WAEBQEA_W@Z 0000000180009b20 f i IndividualRecognition.obj
 0001:00008ba8       ?NextToken@CRegParser@ATL@@IEAAJPEA_W@Z 0000000180009ba8 f i IndividualRecognition.obj
 0001:00008d60       ?OnKillFocus@CComControlBase@ATL@@QEAA_JI_K_JAEAH@Z 0000000180009d60 f i IndividualRecognition.obj
 0001:00008dfc       ?OnMouseActivate@CComControlBase@ATL@@QEAA_JI_K_JAEAH@Z 0000000180009dfc f i IndividualRecognition.obj
 0001:00008e9c       ?OnPaint@CComControlBase@ATL@@QEAA_JI_K_JAEAH@Z 0000000180009e9c f i IndividualRecognition.obj
 0001:00008f88       ?OnSetFocus@CComControlBase@ATL@@QEAA_JI_K_JAEAH@Z 0000000180009f88 f i IndividualRecognition.obj
 0001:00009084       ?PreProcessBuffer@CRegParser@ATL@@QEAAJPEA_WPEAPEA_W@Z 000000018000a084 f i IndividualRecognition.obj
 0001:00009410       ?ProcessWindowMessage@?$CComControl@VCOPOSIndividualRecognition@@V?$CWindowImpl@VCOPOSIndividualRecognition@@VCWindow@ATL@@V?$CWinTraits@$0FGAAAAAA@$0A@@3@@ATL@@@ATL@@UEAAHPEAUHWND__@@I_K_JAEA_JK@Z 000000018000a410 f i IndividualRecognition.obj
 0001:000094f4       ?ReadFromStream@CComBSTR@ATL@@QEAAJPEAUIStream@@@Z 000000018000a4f4 f i IndividualRecognition.obj
 0001:00009644       ?ReadFromStream@CComVariant@ATL@@QEAAJPEAUIStream@@GTClassesAllowedInStream@2@K@Z 000000018000a644 f i IndividualRecognition.obj
 0001:00009868       ?RecurseDeleteKey@CRegKey@ATL@@QEAAJPEB_W@Z 000000018000a868 f i IndividualRecognition.obj
 0001:000099c0       ?RegCreateKeyExW@CAtlTransactionManager@ATL@@QEAAJPEAUHKEY__@@PEB_WKPEA_WKKQEAU_SECURITY_ATTRIBUTES@@PEAPEAU3@PEAK@Z 000000018000a9c0 f i IndividualRecognition.obj
 0001:00009af4       ?RegDeleteKeyW@CAtlTransactionManager@ATL@@QEAAJPEAUHKEY__@@PEB_W@Z 000000018000aaf4 f i IndividualRecognition.obj
 0001:00009b80       ?RegOpenKeyExW@CAtlTransactionManager@ATL@@QEAAJPEAUHKEY__@@PEB_WKKPEAPEAU3@@Z 000000018000ab80 f i IndividualRecognition.obj
 0001:00009c38       ?RegisterBuffer@CRegParser@ATL@@QEAAJPEA_WH@Z 000000018000ac38 f i IndividualRecognition.obj
 0001:00009da0       ?RegisterFromResource@CRegObject@ATL@@IEAAJPEB_W00H@Z 000000018000ada0 f i IndividualRecognition.obj
 0001:00009f5c       ?RegisterServer@CComModule@ATL@@QEAAJHPEBU_GUID@@@Z 000000018000af5c f i IndividualRecognition.obj
 0001:0000a01c       ?RegisterSubkeys@CRegParser@ATL@@IEAAJPEA_WPEAUHKEY__@@HH@Z 000000018000b01c f i IndividualRecognition.obj
 0001:0000a888       ?SendOnDataChange@CComControlBase@ATL@@QEAAJK@Z 000000018000b888 f i IndividualRecognition.obj
 0001:0000a8f8       ?SetControlFocus@CComControlBase@ATL@@QEAAHH@Z 000000018000b8f8 f i IndividualRecognition.obj
 0001:0000a9d4       ?SkipAssignment@CRegParser@ATL@@IEAAJPEA_W@Z 000000018000b9d4 f i IndividualRecognition.obj
 0001:0000aa78       ?Term@CAtlModule@ATL@@QEAAXXZ 000000018000ba78 f i IndividualRecognition.obj
 0001:0000aaf8       ?Term@CComModule@ATL@@QEAAXXZ 000000018000baf8 f i IndividualRecognition.obj
 0001:0000ab74       ?UnregisterServer@CComModule@ATL@@QEAAJHPEBU_GUID@@@Z 000000018000bb74 f i IndividualRecognition.obj
 0001:0000ac24       ?UpdateRegistryFromResource@CAtlModule@ATL@@QEAAJIHPEAU_ATL_REGMAP_ENTRY@2@@Z 000000018000bc24 f i IndividualRecognition.obj
 0001:0000af30       ?UpdateRegistryFromResource@CAtlModule@ATL@@QEAAJPEB_WHPEAU_ATL_REGMAP_ENTRY@2@@Z 000000018000bf30 f i IndividualRecognition.obj
 0001:0000b254       ?VTFromRegType@CRegParser@ATL@@KAHPEB_WAEAG@Z 000000018000c254 f i IndividualRecognition.obj
 0001:0000b2f0       ?WindowProc@?$CWindowImplBaseT@VCWindow@ATL@@V?$CWinTraits@$0FGAAAAAA@$0A@@2@@ATL@@SA_JPEAUHWND__@@I_K_J@Z 000000018000c2f0 f i IndividualRecognition.obj
 0001:0000b45c       ?WriteToStream@CComVariant@ATL@@QEAAJPEAUIStream@@@Z 000000018000c45c f i IndividualRecognition.obj
 0001:0000b6d8       ?WriteToStream@CComVariant@ATL@@QEAAJPEAUIStream@@G@Z 000000018000c6d8 f i IndividualRecognition.obj
 0001:0000b770       ?_AtlVerifyStackAvailable@_ATL_SAFE_ALLOCA_IMPL@ATL@@YA_N_K@Z 000000018000c770 f i IndividualRecognition.obj
 0001:0000b7f4       ?atlCreate@?$CWindowImpl@VCOPOSIndividualRecognition@@VCWindow@ATL@@V?$CWinTraits@$0FGAAAAAA@$0A@@3@@ATL@@QEAAPEAUHWND__@@PEAU3@V_U_RECT@2@PEB_WKKV_U_MENUorID@2@PEAX@Z 000000018000c7f4 f i IndividualRecognition.obj
 0001:0000b8a8       ?atlCreate@?$CWindowImplBaseT@VCWindow@ATL@@V?$CWinTraits@$0FGAAAAAA@$0A@@2@@ATL@@QEAAPEAUHWND__@@PEAU3@V_U_RECT@2@PEB_WKKV_U_MENUorID@2@GPEAX@Z 000000018000c8a8 f i IndividualRecognition.obj
 0001:0000ba18       ?ocscpy_s@@YA_NPEA_W_KPEB_W@Z 000000018000ca18 f i IndividualRecognition.obj
 0001:0000bac8       DllCanUnloadNow            000000018000cac8 f   IndividualRecognition.obj
 0001:0000bad4       DllGetClassObject          000000018000cad4 f   IndividualRecognition.obj
 0001:0000baec       DllMain                    000000018000caec f   IndividualRecognition.obj
 0001:0000bb94       DllRegisterServer          000000018000cb94 f   IndividualRecognition.obj
 0001:0000bba8       DllUnregisterServer        000000018000cba8 f   IndividualRecognition.obj
 0001:0000bbbc       __local_stdio_printf_options 000000018000cbbc f i IndividualRecognition.obj
 0001:0000bbc4       swprintf_s                 000000018000cbc4 f i IndividualRecognition.obj
 0001:0000bc18       ??0COPOSIndividualRecognition@@QEAA@XZ 000000018000cc18 f   IndividualRecognitionImpl.obj
 0001:0000bce8       ??1?$IConnectionPointImpl@VCOPOSIndividualRecognition@@$1?DIID__IOPOSIndividualRecognitionEvents@@3U_GUID@@BVCComDynamicUnkArray@ATL@@@ATL@@QEAA@XZ 000000018000cce8 f i IndividualRecognitionImpl.obj
 0001:0000bce8       ??1?$IConnectionPointImpl@VCOPOSIndividualRecognition@@$1?IID_IPropertyNotifySink@@3U_GUID@@BVCComDynamicUnkArray@ATL@@@ATL@@QEAA@XZ 000000018000cce8 f i IndividualRecognitionImpl.obj
 0001:0000bd44       ??1CComControlBase@ATL@@UEAA@XZ 000000018000cd44 f i IndividualRecognitionImpl.obj
 0001:0000bdc0       ??1COPOSIndividualRecognition@@UEAA@XZ 000000018000cdc0 f   IndividualRecognitionImpl.obj
 0001:0000be24       ?CheckHealth@COPOSIndividualRecognition@@UEAAJJPEAJ@Z 000000018000ce24 f   IndividualRecognitionImpl.obj
 0001:0000bea0       ?ClaimDevice@COPOSIndividualRecognition@@UEAAJJPEAJ@Z 000000018000cea0 f   IndividualRecognitionImpl.obj
 0001:0000bf40       ?ClearInput@COPOSIndividualRecognition@@UEAAJPEAJ@Z 000000018000cf40 f   IndividualRecognitionImpl.obj
 0001:0000bf68       ?ClearInputProperties@COPOSIndividualRecognition@@UEAAJPEAJ@Z 000000018000cf68 f   IndividualRecognitionImpl.obj
 0001:0000bf90       ?Close@COPOSIndividualRecognition@@UEAAJPEAJ@Z 000000018000cf90 f   IndividualRecognitionImpl.obj
 0001:0000c048       ?CompareFirmwareVersion@COPOSIndividualRecognition@@UEAAJPEA_WPEAJ1@Z 000000018000d048 f   IndividualRecognitionImpl.obj
 0001:0000c124       ?DirectIO@COPOSIndividualRecognition@@UEAAJJPEAJPEAPEA_W0@Z 000000018000d124 f   IndividualRecognitionImpl.obj
 0001:0000c220       ?DoInvoke@COPOSIndividualRecognition@@IEAAJJPEAVOposVariant@@IHPEAJ_N@Z 000000018000d220 f   IndividualRecognitionImpl.obj
 0001:0000c354       ?EventInit@COPOSIndividualRecognition@@IEAAJXZ 000000018000d354 f i IndividualRecognitionImpl.obj
 0001:0000c49c       ?EventUninit@COPOSIndividualRecognition@@IEAAXXZ 000000018000d49c f i IndividualRecognitionImpl.obj
 0001:0000c500       ?EventWindowProc@COPOSIndividualRecognition@@IEAA_JI_K_J@Z 000000018000d500 f i IndividualRecognitionImpl.obj
 0001:0000c678       ?FinalConstruct@COPOSIndividualRecognition@@QEAAJXZ 000000018000d678 f   IndividualRecognitionImpl.obj
 0001:0000c6b4       ?FreezeEvents@COPOSIndividualRecognition@@MEAAJH@Z 000000018000d6b4 f   IndividualRecognitionImpl.obj
 0001:0000c728       ?GetOposProp@COPOSIndividualRecognition@@IEAAJJPEAJJ@Z 000000018000d728 f   IndividualRecognitionImpl.obj
 0001:0000c844       ?GetOposProp@COPOSIndividualRecognition@@IEAAJJPEAPEA_WJ@Z 000000018000d844 f   IndividualRecognitionImpl.obj
 0001:0000c970       ?OnDraw@COPOSIndividualRecognition@@MEAAJAEAUATL_DRAWINFO@@@Z 000000018000d970 f   IndividualRecognitionImpl.obj
 0001:0000ca5c       ?Open@COPOSIndividualRecognition@@UEAAJPEA_WPEAJ@Z 000000018000da5c f   IndividualRecognitionImpl.obj
 0001:0000d2e4       ?ReleaseDevice@COPOSIndividualRecognition@@UEAAJPEAJ@Z 000000018000e2e4 f   IndividualRecognitionImpl.obj
 0001:0000d350       ?ResetStatistics@COPOSIndividualRecognition@@UEAAJPEA_WPEAJ@Z 000000018000e350 f   IndividualRecognitionImpl.obj
 0001:0000d3d8       ?RetrieveStatistics@COPOSIndividualRecognition@@UEAAJPEAPEA_WPEAJ@Z 000000018000e3d8 f   IndividualRecognitionImpl.obj
 0001:0000d460       ?SOProcessID@COPOSIndividualRecognition@@UEAAJPEAJ@Z 000000018000e460 f   IndividualRecognitionImpl.obj
 0001:0000d47c       ?SetCOFreezeEvents@COPOSIndividualRecognition@@IEAAXF@Z 000000018000e47c f   IndividualRecognitionImpl.obj
 0001:0000d560       ?SetOposProp@COPOSIndividualRecognition@@IEAAJJJJ@Z 000000018000e560 f   IndividualRecognitionImpl.obj
 0001:0000d6c0       ?SetOposProp@COPOSIndividualRecognition@@IEAAJJPEA_WJ@Z 000000018000e6c0 f   IndividualRecognitionImpl.obj
 0001:0000d818       ?UpdateFirmware@COPOSIndividualRecognition@@UEAAJPEA_WPEAJ@Z 000000018000e818 f   IndividualRecognitionImpl.obj
 0001:0000d8a0       ?UpdateStatistics@COPOSIndividualRecognition@@UEAAJPEA_WPEAJ@Z 000000018000e8a0 f   IndividualRecognitionImpl.obj
 0001:0000d928       ?get_AutoDisable@COPOSIndividualRecognition@@UEAAJPEAF@Z 000000018000e928 f   IndividualRecognitionImpl.obj
 0001:0000d95c       ?get_BinaryConversion@COPOSIndividualRecognition@@UEAAJPEAJ@Z 000000018000e95c f   IndividualRecognitionImpl.obj
 0001:0000d970       ?get_CapCompareFirmwareVersion@COPOSIndividualRecognition@@UEAAJPEAF@Z 000000018000e970 f   IndividualRecognitionImpl.obj
 0001:0000d9a4       ?get_CapIndividualList@COPOSIndividualRecognition@@UEAAJPEAPEA_W@Z 000000018000e9a4 f   IndividualRecognitionImpl.obj
 0001:0000d9b8       ?get_CapPowerReporting@COPOSIndividualRecognition@@UEAAJPEAJ@Z 000000018000e9b8 f   IndividualRecognitionImpl.obj
 0001:0000d9cc       ?get_CapStatisticsReporting@COPOSIndividualRecognition@@UEAAJPEAF@Z 000000018000e9cc f   IndividualRecognitionImpl.obj
 0001:0000da00       ?get_CapUpdateFirmware@COPOSIndividualRecognition@@UEAAJPEAF@Z 000000018000ea00 f   IndividualRecognitionImpl.obj
 0001:0000da34       ?get_CapUpdateStatistics@COPOSIndividualRecognition@@UEAAJPEAF@Z 000000018000ea34 f   IndividualRecognitionImpl.obj
 0001:0000da68       ?get_CheckHealthText@COPOSIndividualRecognition@@UEAAJPEAPEA_W@Z 000000018000ea68 f   IndividualRecognitionImpl.obj
 0001:0000da7c       ?get_Claimed@COPOSIndividualRecognition@@UEAAJPEAF@Z 000000018000ea7c f   IndividualRecognitionImpl.obj
 0001:0000dab0       ?get_ControlObjectDescription@COPOSIndividualRecognition@@UEAAJPEAPEA_W@Z 000000018000eab0 f   IndividualRecognitionImpl.obj
 0001:0000db14       ?get_ControlObjectVersion@COPOSIndividualRecognition@@UEAAJPEAJ@Z 000000018000eb14 f   IndividualRecognitionImpl.obj
 0001:0000db20       ?get_DataCount@COPOSIndividualRecognition@@UEAAJPEAJ@Z 000000018000eb20 f   IndividualRecognitionImpl.obj
 0001:0000db34       ?get_DataEventEnabled@COPOSIndividualRecognition@@UEAAJPEAF@Z 000000018000eb34 f   IndividualRecognitionImpl.obj
 0001:0000db68       ?get_DeviceDescription@COPOSIndividualRecognition@@UEAAJPEAPEA_W@Z 000000018000eb68 f   IndividualRecognitionImpl.obj
 0001:0000db7c       ?get_DeviceEnabled@COPOSIndividualRecognition@@UEAAJPEAF@Z 000000018000eb7c f   IndividualRecognitionImpl.obj
 0001:0000dbb0       ?get_DeviceName@COPOSIndividualRecognition@@UEAAJPEAPEA_W@Z 000000018000ebb0 f   IndividualRecognitionImpl.obj
 0001:0000dbc4       ?get_FreezeEvents@COPOSIndividualRecognition@@UEAAJPEAF@Z 000000018000ebc4 f   IndividualRecognitionImpl.obj
 0001:0000dbf4       ?get_IndividualIDs@COPOSIndividualRecognition@@UEAAJPEAPEA_W@Z 000000018000ebf4 f   IndividualRecognitionImpl.obj
 0001:0000dc08       ?get_IndividualRecognitionFilter@COPOSIndividualRecognition@@UEAAJPEAPEA_W@Z 000000018000ec08 f   IndividualRecognitionImpl.obj
 0001:0000dc1c       ?get_IndividualRecognitionInformation@COPOSIndividualRecognition@@UEAAJPEAPEA_W@Z 000000018000ec1c f   IndividualRecognitionImpl.obj
 0001:0000dc30       ?get_OpenResult@COPOSIndividualRecognition@@UEAAJPEAJ@Z 000000018000ec30 f   IndividualRecognitionImpl.obj
 0001:0000dc3c       ?get_PowerNotify@COPOSIndividualRecognition@@UEAAJPEAJ@Z 000000018000ec3c f   IndividualRecognitionImpl.obj
 0001:0000dc50       ?get_PowerState@COPOSIndividualRecognition@@UEAAJPEAJ@Z 000000018000ec50 f   IndividualRecognitionImpl.obj
 0001:0000dc64       ?get_ResultCode@COPOSIndividualRecognition@@UEAAJPEAJ@Z 000000018000ec64 f   IndividualRecognitionImpl.obj
 0001:0000dca0       ?get_ResultCodeExtended@COPOSIndividualRecognition@@UEAAJPEAJ@Z 000000018000eca0 f   IndividualRecognitionImpl.obj
 0001:0000dcb4       ?get_ServiceObjectDescription@COPOSIndividualRecognition@@UEAAJPEAPEA_W@Z 000000018000ecb4 f   IndividualRecognitionImpl.obj
 0001:0000dcc8       ?get_ServiceObjectVersion@COPOSIndividualRecognition@@UEAAJPEAJ@Z 000000018000ecc8 f   IndividualRecognitionImpl.obj
 0001:0000dcdc       ?get_State@COPOSIndividualRecognition@@UEAAJPEAJ@Z 000000018000ecdc f   IndividualRecognitionImpl.obj
 0001:0000dd08       ?put_AutoDisable@COPOSIndividualRecognition@@UEAAJF@Z 000000018000ed08 f   IndividualRecognitionImpl.obj
 0001:0000dd20       ?put_BinaryConversion@COPOSIndividualRecognition@@UEAAJJ@Z 000000018000ed20 f   IndividualRecognitionImpl.obj
 0001:0000dd34       ?put_DataEventEnabled@COPOSIndividualRecognition@@UEAAJF@Z 000000018000ed34 f   IndividualRecognitionImpl.obj
 0001:0000dd4c       ?put_DeviceEnabled@COPOSIndividualRecognition@@UEAAJF@Z 000000018000ed4c f   IndividualRecognitionImpl.obj
 0001:0000dd64       ?put_FreezeEvents@COPOSIndividualRecognition@@UEAAJF@Z 000000018000ed64 f   IndividualRecognitionImpl.obj
 0001:0000ddb4       ?put_IndividualRecognitionFilter@COPOSIndividualRecognition@@UEAAJPEA_W@Z 000000018000edb4 f   IndividualRecognitionImpl.obj
 0001:0000ddc8       ?put_PowerNotify@COPOSIndividualRecognition@@UEAAJJ@Z 000000018000edc8 f   IndividualRecognitionImpl.obj
 0001:0000dddc       ?s_EventWindowProc@COPOSIndividualRecognition@@KA_JPEAUHWND__@@I_K_J@Z 000000018000eddc f i IndividualRecognitionImpl.obj
 0001:0000de58       ??_U@YAPEAX_K@Z            000000018000ee58 f   LIBCMT:new_array.obj
 0001:0000de60       ??3@YAXPEAX_K@Z            000000018000ee60 f   LIBCMT:delete_scalar_size.obj
 0001:0000de60       ??_V@YAXPEAX@Z             000000018000ee60 f   LIBCMT:delete_array.obj
 0001:0000de68       ??_V@YAXPEAX_K@Z           000000018000ee68 f   LIBCMT:delete_array_size.obj
 0001:0000de70       __scrt_acquire_startup_lock 000000018000ee70 f   LIBCMT:utility.obj
 0001:0000deac       __scrt_dllmain_after_initialize_c 000000018000eeac f   LIBCMT:utility.obj
 0001:0000dee0       __scrt_dllmain_before_initialize_c 000000018000eee0 f   LIBCMT:utility.obj
 0001:0000def8       __scrt_dllmain_crt_thread_attach 000000018000eef8 f   LIBCMT:utility.obj
 0001:0000df20       __scrt_dllmain_crt_thread_detach 000000018000ef20 f   LIBCMT:utility.obj
 0001:0000df38       __scrt_dllmain_exception_filter 000000018000ef38 f   LIBCMT:utility.obj
 0001:0000df98       __scrt_dllmain_uninitialize_c 000000018000ef98 f   LIBCMT:utility.obj
 0001:0000dfc8       __scrt_dllmain_uninitialize_critical 000000018000efc8 f   LIBCMT:utility.obj
 0001:0000dfdc       __scrt_initialize_crt      000000018000efdc f   LIBCMT:utility.obj
 0001:0000e028       __scrt_initialize_onexit_tables 000000018000f028 f   LIBCMT:utility.obj
 0001:0000e0b4       __scrt_is_nonwritable_in_current_image 000000018000f0b4 f   LIBCMT:utility.obj
 0001:0000e14c       __scrt_release_startup_lock 000000018000f14c f   LIBCMT:utility.obj
 0001:0000e170       __scrt_uninitialize_crt    000000018000f170 f   LIBCMT:utility.obj
 0001:0000e19c       _onexit                    000000018000f19c f   LIBCMT:utility.obj
 0001:0000e1d8       atexit                     000000018000f1d8 f   LIBCMT:utility.obj
 0001:0000e1f0       ??3@YAXPEAX@Z              000000018000f1f0 f   LIBCMT:delete_scalar.obj
 0001:0000e2f0       _Init_thread_footer        000000018000f2f0 f   LIBCMT:thread_safe_statics.obj
 0001:0000e350       _Init_thread_header        000000018000f350 f   LIBCMT:thread_safe_statics.obj
 0001:0000e3b8       _Init_thread_notify        000000018000f3b8 f   LIBCMT:thread_safe_statics.obj
 0001:0000e3fc       _Init_thread_wait          000000018000f3fc f   LIBCMT:thread_safe_statics.obj
 0001:0000e460       __raise_securityfailure    000000018000f460 f   LIBCMT:gs_report.obj
 0001:0000e494       __report_gsfailure         000000018000f494 f   LIBCMT:gs_report.obj
 0001:0000e568       __report_rangecheckfailure 000000018000f568 f   LIBCMT:gs_report.obj
 0001:0000e57c       __report_securityfailure   000000018000f57c f   LIBCMT:gs_report.obj
 0001:0000e6fc       ??2@YAPEAX_KAEBUnothrow_t@std@@@Z 000000018000f6fc f   LIBCMT:new_scalar_nothrow.obj
 0001:0000e710       ??_U@YAPEAX_KAEBUnothrow_t@std@@@Z 000000018000f710 f   LIBCMT:new_array_nothrow.obj
 0001:0000e718       __GSHandlerCheck           000000018000f718 f   LIBCMT:gshandler.obj
 0001:0000e738       __GSHandlerCheckCommon     000000018000f738 f   LIBCMT:gshandler.obj
 0001:0000e794       __GSHandlerCheck_SEH       000000018000f794 f   LIBCMT:gshandlerseh.obj
 0001:0000e830       _alloca_probe              000000018000f830 f   LIBCMT:chkstk.obj
 0001:0000e830       __chkstk                   000000018000f830 f   LIBCMT:chkstk.obj
 0001:0000e8a0       __security_check_cookie    000000018000f8a0 f   LIBCMT:amdsecgs.obj
 0001:0000ebe4       _DllMainCRTStartup         000000018000fbe4 f   LIBCMT:dll_dllmain.obj
 0001:0000ec24       ??2@YAPEAX_K@Z             000000018000fc24 f   LIBCMT:new_scalar.obj
 0001:0000ec60       __isa_available_init       000000018000fc60 f   LIBCMT:cpu_disp.obj
 0001:0000ee04       __scrt_is_ucrt_dll_in_use  000000018000fe04 f   LIBCMT:ucrt_detection.obj
 0001:0000ee10       __crt_debugger_hook        000000018000fe10 f   LIBCMT:utility_desktop.obj
 0001:0000ee18       __scrt_fastfail            000000018000fe18 f   LIBCMT:utility_desktop.obj
 0001:0000ef64       __security_init_cookie     000000018000ff64 f   LIBCMT:gs_support.obj
 0001:0000f010       ?__scrt_initialize_type_info@@YAXXZ 0000000180010010 f   LIBCMT:tncleanup.obj
 0001:0000f020       ?__scrt_uninitialize_type_info@@YAXXZ 0000000180010020 f   LIBCMT:tncleanup.obj
 0001:0000f02c       __local_stdio_scanf_options 000000018001002c f i LIBCMT:default_local_stdio_options.obj
 0001:0000f034       __scrt_initialize_default_local_stdio_options 0000000180010034 f   LIBCMT:default_local_stdio_options.obj
 0001:0000f050       __scrt_get_dyn_tls_init_callback 0000000180010050 f   LIBCMT:dyn_tls_init.obj
 0001:0000f058       _RTC_Initialize            0000000180010058 f   LIBCMT:initsect.obj
 0001:0000f094       _RTC_Terminate             0000000180010094 f   LIBCMT:initsect.obj
 0001:0000f0d0       ??0bad_alloc@std@@QEAA@AEBV01@@Z 00000001800100d0 f i LIBCMT:throw_bad_alloc.obj
 0001:0000f10c       ??0bad_alloc@std@@QEAA@XZ  000000018001010c f i LIBCMT:throw_bad_alloc.obj
 0001:0000f12c       ??0bad_array_new_length@std@@QEAA@AEBV01@@Z 000000018001012c f i LIBCMT:throw_bad_alloc.obj
 0001:0000f168       ??0bad_array_new_length@std@@QEAA@XZ 0000000180010168 f i LIBCMT:throw_bad_alloc.obj
 0001:0000f188       ??0exception@std@@QEAA@AEBV01@@Z 0000000180010188 f i LIBCMT:throw_bad_alloc.obj
 0001:0000f1bc       ??1bad_exception@std@@UEAA@XZ 00000001800101bc f i libvcruntime:frame.obj
 0001:0000f1bc       ??1bad_alloc@std@@UEAA@XZ  00000001800101bc f i LIBCMT:throw_bad_alloc.obj
 0001:0000f1bc       ??1bad_array_new_length@std@@UEAA@XZ 00000001800101bc f i LIBCMT:throw_bad_alloc.obj
 0001:0000f1d0       ??_Gbad_alloc@std@@UEAAPEAXI@Z 00000001800101d0 f i LIBCMT:throw_bad_alloc.obj
 0001:0000f1d0       ??_Gbad_exception@std@@UEAAPEAXI@Z 00000001800101d0 f i libvcruntime:frame.obj
 0001:0000f1d0       ??_Eexception@std@@UEAAPEAXI@Z 00000001800101d0 f i LIBCMT:throw_bad_alloc.obj
 0001:0000f1d0       ??_Ebad_alloc@std@@UEAAPEAXI@Z 00000001800101d0 f i LIBCMT:throw_bad_alloc.obj
 0001:0000f1d0       ??_Gexception@std@@UEAAPEAXI@Z 00000001800101d0 f i LIBCMT:throw_bad_alloc.obj
 0001:0000f1d0       ??_Gbad_array_new_length@std@@UEAAPEAXI@Z 00000001800101d0 f i LIBCMT:throw_bad_alloc.obj
 0001:0000f1d0       ??_Ebad_exception@std@@UEAAPEAXI@Z 00000001800101d0 f i libvcruntime:frame.obj
 0001:0000f1d0       ??_Ebad_array_new_length@std@@UEAAPEAXI@Z 00000001800101d0 f i LIBCMT:throw_bad_alloc.obj
 0001:0000f214       ?__scrt_throw_std_bad_alloc@@YAXXZ 0000000180010214 f   LIBCMT:throw_bad_alloc.obj
 0001:0000f234       ?__scrt_throw_std_bad_array_new_length@@YAXXZ 0000000180010234 f   LIBCMT:throw_bad_alloc.obj
 0001:0000f254       ?what@exception@std@@UEBAPEBDXZ 0000000180010254 f i LIBCMT:throw_bad_alloc.obj
 0001:0000f270       ??_Etype_info@@UEAAPEAXI@Z 0000000180010270 f i LIBCMT:std_type_info_static.obj
 0001:0000f270       ??_Gtype_info@@UEAAPEAXI@Z 0000000180010270 f i LIBCMT:std_type_info_static.obj
 0001:0000f29c       ??0CAtlBaseModule@ATL@@QEAA@XZ 000000018001029c f   atls:atlbase.obj
 0001:0000f344       ??1CAtlBaseModule@ATL@@QEAA@XZ 0000000180010344 f   atls:atlbase.obj
 0001:0000f478       ?__AllocStdCallThunk_cmn@@YAPEAXXZ 0000000180010478 f   atls:atlthunk.obj
 0001:0000f5d0       AtlThunk_AllocateData      00000001800105d0 f   atls:atlthunk.obj
 0001:0000f64c       AtlThunk_DataToCode        000000018001064c f   atls:atlthunk.obj
 0001:0000f6a0       AtlThunk_FreeData          00000001800106a0 f   atls:atlthunk.obj
 0001:0000f700       AtlThunk_InitData          0000000180010700 f   atls:atlthunk.obj
 0001:0000f7a8       _get_purecall_handler      00000001800107a8 f   libvcruntime:purevirt.obj
 0001:0000f7b0       _purecall                  00000001800107b0 f   libvcruntime:purevirt.obj
 0001:0000f7cc       wcsstr                     00000001800107cc f   libvcruntime:wcsstr.obj
 0001:0000fa00       memcmp                     0000000180010a00 f   libvcruntime:memcmp.obj
 0001:0000fae0       memcpy_repmovs             0000000180010ae0 f   libvcruntime:memcpy.obj
 0001:0000fb00       memmove                    0000000180010b00 f   libvcruntime:memcpy.obj
 0001:0000fb00       memcpy                     0000000180010b00 f   libvcruntime:memcpy.obj
 0001:0000fef0       memset_repmovs             0000000180010ef0 f   libvcruntime:memset.obj
 0001:0000ff10       memset                     0000000180010f10 f   libvcruntime:memset.obj
 0001:000100a0       __vcrt_initialize          00000001800110a0 f   libvcruntime:initialization.obj
 0001:000100c8       __vcrt_thread_attach       00000001800110c8 f   libvcruntime:initialization.obj
 0001:000100dc       __vcrt_thread_detach       00000001800110dc f   libvcruntime:initialization.obj
 0001:000100f0       __vcrt_uninitialize        00000001800110f0 f   libvcruntime:initialization.obj
 0001:0001010c       __vcrt_uninitialize_critical 000000018001110c f   libvcruntime:initialization.obj
 0001:0001011c       __C_specific_handler       000000018001111c f   libvcruntime:riscchandler.obj
 0001:00010328       ??$_CallSETranslator@V__FrameHandler4@@@@YAHPEAUEHExceptionRecord@@PEA_KPEAU_CONTEXT@@PEAU_xDISPATCHER_CONTEXT@@PEAUFuncInfo4@FH4@@K1H@Z 0000000180011328 f i libvcruntime:risctrnsctrl.obj
 0001:0001037c       ?DecompFuncInfo@FH4@@YA_JPEAEAEAUFuncInfo4@1@_KH_N@Z 000000018001137c f i libvcruntime:risctrnsctrl.obj
 0001:000104a0       ?ExecutionInCatch@__FrameHandler4@@SA_NPEAU_xDISPATCHER_CONTEXT@@PEAUFuncInfo4@FH4@@@Z 00000001800114a0 f   libvcruntime:risctrnsctrl.obj
 0001:000104a8       ?FrameUnwindToEmptyState@__FrameHandler4@@SAXPEA_KPEAU_xDISPATCHER_CONTEXT@@PEAUFuncInfo4@FH4@@@Z 00000001800114a8 f   libvcruntime:risctrnsctrl.obj
 0001:000104dc       ?GetEstablisherFrame@__FrameHandler4@@SAPEA_KPEA_KPEAU_xDISPATCHER_CONTEXT@@PEAUFuncInfo4@FH4@@0@Z 00000001800114dc f   libvcruntime:risctrnsctrl.obj
 0001:00010500       ?GetRangeOfTrysToCheck@__FrameHandler4@@SA?AU?$pair@Viterator@TryBlockMap4@FH4@@V123@@std@@AEAVTryBlockMap4@FH4@@HPEAU_xDISPATCHER_CONTEXT@@PEAUFuncInfo4@5@H@Z 0000000180011500 f   libvcruntime:risctrnsctrl.obj
 0001:00010668       ?UnwindNestedFrames@__FrameHandler4@@SAXPEA_KPEAUEHExceptionRecord@@PEAU_CONTEXT@@0PEAXPEAUFuncInfo4@FH4@@HHPEAUHandlerType4@5@PEAU_xDISPATCHER_CONTEXT@@E@Z 0000000180011668 f   libvcruntime:risctrnsctrl.obj
 0001:00010788       ?setBuffer@TryBlockMap4@FH4@@QEAAXViterator@12@@Z 0000000180011788 f i libvcruntime:risctrnsctrl.obj
 0001:00010948       _CreateFrameInfo           0000000180011948 f   libvcruntime:risctrnsctrl.obj
 0001:00010984       _FindAndUnlinkFrame        0000000180011984 f   libvcruntime:risctrnsctrl.obj
 0001:000109d8       _GetImageBase              00000001800119d8 f   libvcruntime:risctrnsctrl.obj
 0001:000109ec       _GetThrowImageBase         00000001800119ec f   libvcruntime:risctrnsctrl.obj
 0001:00010a00       _SetImageBase              0000000180011a00 f   libvcruntime:risctrnsctrl.obj
 0001:00010a18       _SetThrowImageBase         0000000180011a18 f   libvcruntime:risctrnsctrl.obj
 0001:00010a30       __CxxFrameHandler4         0000000180011a30 f   libvcruntime:risctrnsctrl.obj
 0001:00010af0       __DestructExceptionObject  0000000180011af0 f   libvcruntime:ehhelpers.obj
 0001:00010b60       ?_CallMemberFunction0@@YAXQEAX0@Z 0000000180011b60 f i libvcruntime:ehhelpers.obj
 0001:00010b64       _IsExceptionObjectToBeDestroyed 0000000180011b64 f   libvcruntime:ehhelpers.obj
 0001:00010b94       __AdjustPointer            0000000180011b94 f   libvcruntime:ehhelpers.obj
 0001:00010bb8       __FrameUnwindFilter        0000000180011bb8 f   libvcruntime:ehhelpers.obj
 0001:00010c20       __std_type_info_compare    0000000180011c20 f   libvcruntime:std_type_info.obj
 0001:00010c48       __std_type_info_destroy_list 0000000180011c48 f   libvcruntime:std_type_info.obj
 0001:00010c74       __std_exception_copy       0000000180011c74 f   libvcruntime:std_exception.obj
 0001:00010d04       __std_exception_destroy    0000000180011d04 f   libvcruntime:std_exception.obj
 0001:00010d2c       _CxxThrowException         0000000180011d2c f   libvcruntime:throw.obj
 0001:00010dcc       __vcrt_freefls             0000000180011dcc f   libvcruntime:per_thread_data.obj
 0001:00010dec       __vcrt_freeptd             0000000180011dec f   libvcruntime:per_thread_data.obj
 0001:00010e3c       __vcrt_getptd              0000000180011e3c f   libvcruntime:per_thread_data.obj
 0001:00010e58       __vcrt_getptd_noexit       0000000180011e58 f   libvcruntime:per_thread_data.obj
 0001:00010f18       __vcrt_initialize_ptd      0000000180011f18 f   libvcruntime:per_thread_data.obj
 0001:00010f60       __vcrt_uninitialize_ptd    0000000180011f60 f   libvcruntime:per_thread_data.obj
 0001:00010f84       __vcrt_initialize_locks    0000000180011f84 f   libvcruntime:locks.obj
 0001:00010fb8       __vcrt_uninitialize_locks  0000000180011fb8 f   libvcruntime:locks.obj
 0001:00011000       _NLG_Notify                0000000180012000 f   libvcruntime:notify.obj
 0001:00011020       __NLG_Dispatch2            0000000180012020 f   libvcruntime:notify.obj
 0001:00011030       __NLG_Return2              0000000180012030 f   libvcruntime:notify.obj
 0001:00011034       __except_validate_context_record 0000000180012034 f   libvcruntime:jbcxrval.obj
 0001:0001106c       ?StateFromControlPc@__FrameHandler4@@SAHPEAUFuncInfo4@FH4@@PEAU_xDISPATCHER_CONTEXT@@@Z 000000018001206c f   libvcruntime:ehstate.obj
 0001:00011074       ?StateFromIp@__FrameHandler4@@SAHPEAUFuncInfo4@FH4@@PEAU_xDISPATCHER_CONTEXT@@_K@Z 0000000180012074 f   libvcruntime:ehstate.obj
 0001:00011cf8       ??$TypeMatchHelper@V__FrameHandler3@@@@YAHPEBU_s_HandlerType@@PEBU_s_CatchableType@@PEBU_s_ThrowInfo@@@Z 0000000180012cf8 f i libvcruntime:frame.obj
 0001:00011e38       ??$TypeMatchHelper@V__FrameHandler4@@@@YAHPEAUHandlerType4@FH4@@PEBU_s_CatchableType@@PEBU_s_ThrowInfo@@@Z 0000000180012e38 f i libvcruntime:frame.obj
 0001:00011f7c       ??$__InternalCxxFrameHandler@V__FrameHandler4@@@@YA?AW4_EXCEPTION_DISPOSITION@@PEAUEHExceptionRecord@@PEA_KPEAU_CONTEXT@@PEAU_xDISPATCHER_CONTEXT@@PEAUFuncInfo4@FH4@@H1E@Z 0000000180012f7c f i libvcruntime:frame.obj
 0001:00012210       ??0HandlerMap4@FH4@@QEAA@PEBUTryBlockMapEntry4@1@_KH@Z 0000000180013210 f i libvcruntime:frame.obj
 0001:0001228c       ??0TryBlockMap4@FH4@@QEAA@PEBUFuncInfo4@1@_K@Z 000000018001328c f i libvcruntime:frame.obj
 0001:00012364       ??0bad_exception@std@@QEAA@AEBV01@@Z 0000000180013364 f i libvcruntime:frame.obj
 0001:000123a0       ??0bad_exception@std@@QEAA@XZ 00000001800133a0 f i libvcruntime:frame.obj
 0001:000123c0       ?CxxCallCatchBlock@__FrameHandler4@@SAPEAXPEAU_EXCEPTION_RECORD@@@Z 00000001800133c0 f   libvcruntime:frame.obj
 0001:00012610       ?DecompHandler@HandlerMap4@FH4@@AEAAXXZ 0000000180013610 f i libvcruntime:frame.obj
 0001:00012850       ?FrameUnwindToState@__FrameHandler4@@SAXPEA_KPEAU_xDISPATCHER_CONTEXT@@PEAUFuncInfo4@FH4@@H@Z 0000000180013850 f   libvcruntime:frame.obj
 0001:00012cb0       ?ReadEntry@UWMap4@FH4@@AEAAXPEAPEAE@Z 0000000180013cb0 f i libvcruntime:frame.obj
 0001:00012d50       ?_CallMemberFunction1@@YAXQEAX00@Z 0000000180013d50 f i libvcruntime:frame.obj
 0001:00012d5c       ?_CallMemberFunction2@@YAXQEAX00H@Z 0000000180013d5c f i libvcruntime:frame.obj
 0001:00012d6c       ?getStartStop@UWMap4@FH4@@QEAAXHHAEAViterator@12@0@Z 0000000180013d6c f i libvcruntime:frame.obj
 0001:00012e3c       ?getStateFromIterators@UWMap4@FH4@@SAHAEBViterator@12@H0H0@Z 0000000180013e3c f i libvcruntime:frame.obj
 0001:00013050       __vcrt_FlsAlloc            0000000180014050 f   libvcruntime:winapi_downlevel.obj
 0001:00013098       __vcrt_FlsFree             0000000180014098 f   libvcruntime:winapi_downlevel.obj
 0001:000130e0       __vcrt_FlsGetValue         00000001800140e0 f   libvcruntime:winapi_downlevel.obj
 0001:00013128       __vcrt_FlsSetValue         0000000180014128 f   libvcruntime:winapi_downlevel.obj
 0001:0001317c       __vcrt_InitializeCriticalSectionEx 000000018001417c f   libvcruntime:winapi_downlevel.obj
 0001:000131f0       _CallSettingFrame          00000001800141f0 f   libvcruntime:handlers.obj
 0001:00013240       _CallSettingFrame_LookupContinuationIndex 0000000180014240 f   libvcruntime:handlers.obj
 0001:00013270       _CallSettingFrame_NotifyContinuationAddr 0000000180014270 f   libvcruntime:handlers.obj
 0001:000132a0       _CallSettingFrameEncoded   00000001800142a0 f   libvcruntime:handlers.obj
 0001:000132e8       free                       00000001800142e8 f   libucrt:free.obj
 0001:000132fc       __acrt_call_reportfault    00000001800142fc f   libucrt:invalid_parameter.obj
 0001:00013458       __acrt_initialize_invalid_parameter_handler 0000000180014458 f   libucrt:invalid_parameter.obj
 0001:00013460       _invalid_parameter         0000000180014460 f   libucrt:invalid_parameter.obj
 0001:00013510       _invalid_parameter_noinfo  0000000180014510 f   libucrt:invalid_parameter.obj
 0001:00013530       _invoke_watson             0000000180014530 f   libucrt:invalid_parameter.obj
 0001:00013578       __acrt_errno_from_os_error 0000000180014578 f   libucrt:errno.obj
 0001:000135c0       __acrt_errno_map_os_error  00000001800145c0 f   libucrt:errno.obj
 0001:00013610       __doserrno                 0000000180014610 f   libucrt:errno.obj
 0001:00013630       _errno                     0000000180014630 f   libucrt:errno.obj
 0001:00013650       calloc                     0000000180014650 f   libucrt:calloc.obj
 0001:00013658       malloc                     0000000180014658 f   libucrt:malloc.obj
 0001:00013660       _recalloc                  0000000180014660 f   libucrt:recalloc.obj
 0001:00013668       _recalloc_base             0000000180014668 f   libucrt:recalloc.obj
 0001:00013700       _resetstkoflw              0000000180014700 f   libucrt:resetstk.obj
 0001:0001382c       wcscat_s                   000000018001482c f   libucrt:wcscat_s.obj
 0001:000138ac       wcscpy_s                   00000001800148ac f   libucrt:wcscpy_s.obj
 0001:00013914       wcsncpy_s                  0000000180014914 f   libucrt:wcsncpy_s.obj
 0001:00013bcc       ??$ensure_buffer_is_big_enough@D@formatting_buffer@__crt_stdio_output@@QEAA_N_K@Z 0000000180014bcc f i libucrt:output.obj
 0001:00013c74       ??$ensure_buffer_is_big_enough@_W@formatting_buffer@__crt_stdio_output@@QEAA_N_K@Z 0000000180014c74 f i libucrt:output.obj
 0001:00013d20       ??$is_wide_character_specifier@_W@__crt_stdio_output@@YA_N_K_WW4length_modifier@0@@Z 0000000180014d20 f i libucrt:output.obj
 0001:00013d60       ??$type_case_integer_parse_into_buffer@I@?$output_processor@_WV?$string_output_adapter@_W@__crt_stdio_output@@V?$format_validation_base@_WV?$string_output_adapter@_W@__crt_stdio_output@@@2@@__crt_stdio_output@@AEAAXII_N@Z 0000000180014d60 f i libucrt:output.obj
 0001:00013e04       ??$type_case_integer_parse_into_buffer@_K@?$output_processor@_WV?$string_output_adapter@_W@__crt_stdio_output@@V?$format_validation_base@_WV?$string_output_adapter@_W@__crt_stdio_output@@@2@@__crt_stdio_output@@AEAAX_KI_N@Z 0000000180014e04 f i libucrt:output.obj
 0001:00013ea8       ??$write_multiple_characters@V?$string_output_adapter@_W@__crt_stdio_output@@D@__crt_stdio_output@@YAXAEBV?$string_output_adapter@_W@0@DHQEAH@Z 0000000180014ea8 f i libucrt:output.obj
 0001:00013f20       ??0_LocaleUpdate@@QEAA@QEAU__crt_locale_pointers@@@Z 0000000180014f20 f i libucrt:output.obj
 0001:00013fc0       ?crop_zeroes@__crt_stdio_output@@YAXPEADQEAU__crt_locale_pointers@@@Z 0000000180014fc0 f i libucrt:output.obj
 0001:00014060       ?force_decimal_point@__crt_stdio_output@@YAXPEADQEAU__crt_locale_pointers@@@Z 0000000180015060 f i libucrt:output.obj
 0001:000140d8       ?parse_int_from_format_string@?$output_processor@_WV?$string_output_adapter@_W@__crt_stdio_output@@V?$format_validation_base@_WV?$string_output_adapter@_W@__crt_stdio_output@@@2@@__crt_stdio_output@@AEAA_NQEAH@Z 00000001800150d8 f i libucrt:output.obj
 0001:0001417c       ?process@?$output_processor@_WV?$string_output_adapter@_W@__crt_stdio_output@@V?$format_validation_base@_WV?$string_output_adapter@_W@__crt_stdio_output@@@2@@__crt_stdio_output@@QEAAHXZ 000000018001517c f i libucrt:output.obj
 0001:000143f4       ?state_case_size@?$output_processor@_WV?$string_output_adapter@_W@__crt_stdio_output@@V?$format_validation_base@_WV?$string_output_adapter@_W@__crt_stdio_output@@@2@@__crt_stdio_output@@AEAA_NXZ 00000001800153f4 f i libucrt:output.obj
 0001:00014588       ?state_case_type@?$output_processor@_WV?$string_output_adapter@_W@__crt_stdio_output@@V?$format_validation_base@_WV?$string_output_adapter@_W@__crt_stdio_output@@@2@@__crt_stdio_output@@AEAA_NXZ 0000000180015588 f i libucrt:output.obj
 0001:00014860       ?to_integer_size@__crt_stdio_output@@YA_KW4length_modifier@1@@Z 0000000180015860 f i libucrt:output.obj
 0001:000148c8       ?type_case_Z@?$output_processor@_WV?$string_output_adapter@_W@__crt_stdio_output@@V?$format_validation_base@_WV?$string_output_adapter@_W@__crt_stdio_output@@@2@@__crt_stdio_output@@AEAA_NXZ 00000001800158c8 f i libucrt:output.obj
 0001:00014944       ?type_case_a@?$output_processor@_WV?$string_output_adapter@_W@__crt_stdio_output@@V?$format_validation_base@_WV?$string_output_adapter@_W@__crt_stdio_output@@@2@@__crt_stdio_output@@AEAA_NXZ 0000000180015944 f i libucrt:output.obj
 0001:00014b24       ?type_case_c_tchar@?$output_processor@_WV?$string_output_adapter@_W@__crt_stdio_output@@V?$format_validation_base@_WV?$string_output_adapter@_W@__crt_stdio_output@@@2@@__crt_stdio_output@@AEAA_N_W@Z 0000000180015b24 f i libucrt:output.obj
 0001:00014bcc       ?type_case_integer@?$output_processor@_WV?$string_output_adapter@_W@__crt_stdio_output@@V?$format_validation_base@_WV?$string_output_adapter@_W@__crt_stdio_output@@@2@@__crt_stdio_output@@AEAA_NI_N@Z 0000000180015bcc f i libucrt:output.obj
 0001:00014d54       ?type_case_n@?$output_processor@_WV?$string_output_adapter@_W@__crt_stdio_output@@V?$format_validation_base@_WV?$string_output_adapter@_W@__crt_stdio_output@@@2@@__crt_stdio_output@@AEAA_NXZ 0000000180015d54 f i libucrt:output.obj
 0001:00014ddc       ?type_case_s@?$output_processor@_WV?$string_output_adapter@_W@__crt_stdio_output@@V?$format_validation_base@_WV?$string_output_adapter@_W@__crt_stdio_output@@@2@@__crt_stdio_output@@AEAA_NXZ 0000000180015ddc f i libucrt:output.obj
 0001:00014ea4       ?write_stored_string_tchar@?$output_processor@_WV?$string_output_adapter@_W@__crt_stdio_output@@V?$format_validation_base@_WV?$string_output_adapter@_W@__crt_stdio_output@@@2@@__crt_stdio_output@@AEAA_N_W@Z 0000000180015ea4 f i libucrt:output.obj
 0001:00014f8c       ?write_string@?$string_output_adapter@_W@__crt_stdio_output@@QEBAXQEB_WHQEAHAEAV__crt_deferred_errno_cache@@@Z 0000000180015f8c f i libucrt:output.obj
 0001:00015034       __stdio_common_vswprintf_s 0000000180016034 f   libucrt:output.obj
 0001:000150a4       _seh_filter_dll            00000001800160a4 f   libucrt:exception_filter.obj
 0001:000150b8       _seh_filter_exe            00000001800160b8 f   libucrt:exception_filter.obj
 0001:000154a8       __acrt_initialize_thread_local_exit_callback 00000001800164a8 f   libucrt:exit.obj
 0001:000154b0       _cexit                     00000001800164b0 f   libucrt:exit.obj
 0001:000154c0       _exit                      00000001800164c0 f   libucrt:exit.obj
 0001:000154cc       _is_c_termination_complete 00000001800164cc f   libucrt:exit.obj
 0001:00015694       __acrt_allocate_buffer_for_argv 0000000180016694 f   libucrt:argv_parsing.obj
 0001:000156f4       _configure_narrow_argv     00000001800166f4 f   libucrt:argv_parsing.obj
 0001:00015a6c       __dcrt_uninitialize_environments_nolock 0000000180016a6c f   libucrt:environment_initialization.obj
 0001:00015aa4       _initialize_narrow_environment 0000000180016aa4 f   libucrt:environment_initialization.obj
 0001:00015dec       _crt_atexit                0000000180016dec f   libucrt:onexit.obj
 0001:00015dfc       _execute_onexit_table      0000000180016dfc f   libucrt:onexit.obj
 0001:00015e38       _initialize_onexit_table   0000000180016e38 f   libucrt:onexit.obj
 0001:00015e60       _register_onexit_function  0000000180016e60 f   libucrt:onexit.obj
 0001:00015ee0       __acrt_uninitialize_command_line 0000000180016ee0 f   libucrt:argv_data.obj
 0001:00015fd8       __acrt_initialize          0000000180016fd8 f   libucrt:initialization.obj
 0001:00015fec       __acrt_thread_attach       0000000180016fec f   libucrt:initialization.obj
 0001:00016000       __acrt_thread_detach       0000000180017000 f   libucrt:initialization.obj
 0001:00016010       __acrt_uninitialize        0000000180017010 f   libucrt:initialization.obj
 0001:00016048       __acrt_uninitialize_critical 0000000180017048 f   libucrt:initialization.obj
 0001:00016058       _initterm                  0000000180017058 f   libucrt:initterm.obj
 0001:000160bc       _initterm_e                00000001800170bc f   libucrt:initterm.obj
 0001:000160fc       __acrt_initialize_new_handler 00000001800170fc f   libucrt:new_handler.obj
 0001:00016104       _callnewh                  0000000180017104 f   libucrt:new_handler.obj
 0001:00016134       _query_new_handler         0000000180017134 f   libucrt:new_handler.obj
 0001:00016168       terminate                  0000000180017168 f   libucrt:terminate.obj
 0001:00016188       abort                      0000000180017188 f   libucrt:abort.obj
 0001:000161e0       strcpy_s                   00000001800171e0 f   libucrt:strcpy_s.obj
 0001:00016240       ??$parse_integer@KV?$c_string_character_source@_W@__crt_strtox@@@__crt_strtox@@YAKQEAU__crt_locale_pointers@@V?$c_string_character_source@_W@0@H_N@Z 0000000180017240 f i libucrt:atox.obj
 0001:00016900       strncmp                    0000000180017900 f   libucrt:strncmp.obj
 0001:00016980       wcsncmp                    0000000180017980 f   libucrt:wcsncmp.obj
 0001:000169ac       _free_base                 00000001800179ac f   libucrt:free_base.obj
 0001:00016d64       __acrt_freeptd             0000000180017d64 f   libucrt:per_thread_data.obj
 0001:00016da8       __acrt_getptd              0000000180017da8 f   libucrt:per_thread_data.obj
 0001:00016e7c       __acrt_getptd_head         0000000180017e7c f   libucrt:per_thread_data.obj
 0001:00016f24       __acrt_getptd_noexit       0000000180017f24 f   libucrt:per_thread_data.obj
 0001:00016ff0       __acrt_initialize_ptd      0000000180017ff0 f   libucrt:per_thread_data.obj
 0001:0001702c       __acrt_uninitialize_ptd    000000018001802c f   libucrt:per_thread_data.obj
 0001:00017050       _calloc_base               0000000180018050 f   libucrt:calloc_base.obj
 0001:000170c8       _malloc_base               00000001800180c8 f   libucrt:malloc_base.obj
 0001:00017128       _msize_base                0000000180018128 f   libucrt:msize.obj
 0001:00017164       _realloc_base              0000000180018164 f   libucrt:realloc_base.obj
 0001:000173b8       __acrt_AppPolicyGetProcessTerminationMethodInternal 00000001800183b8 f   libucrt:winapi_thunks.obj
 0001:00017408       __acrt_AreFileApisANSI     0000000180018408 f   libucrt:winapi_thunks.obj
 0001:00017444       __acrt_FlsAlloc            0000000180018444 f   libucrt:winapi_thunks.obj
 0001:0001748c       __acrt_FlsFree             000000018001848c f   libucrt:winapi_thunks.obj
 0001:000174d4       __acrt_FlsGetValue         00000001800184d4 f   libucrt:winapi_thunks.obj
 0001:0001751c       __acrt_FlsSetValue         000000018001851c f   libucrt:winapi_thunks.obj
 0001:00017570       __acrt_InitializeCriticalSectionEx 0000000180018570 f   libucrt:winapi_thunks.obj
 0001:000175d4       __acrt_LCMapStringEx       00000001800185d4 f   libucrt:winapi_thunks.obj
 0001:000176b0       __acrt_LocaleNameToLCID    00000001800186b0 f   libucrt:winapi_thunks.obj
 0001:00017700       __acrt_SetThreadStackGuarantee 0000000180018700 f   libucrt:winapi_thunks.obj
 0001:00017744       __acrt_initialize_winapi_thunks 0000000180018744 f   libucrt:winapi_thunks.obj
 0001:00017778       __acrt_uninitialize_winapi_thunks 0000000180018778 f   libucrt:winapi_thunks.obj
 0001:000177bc       wcstol                     00000001800187bc f   libucrt:strtox.obj
 0001:000177e8       _mbtowc_l                  00000001800187e8 f   libucrt:mbtowc.obj
 0001:00017968       mbtowc                     0000000180018968 f   libucrt:mbtowc.obj
 0001:00017970       wcsnlen                    0000000180018970 f   libucrt:strnlen.obj
 0001:00017b48       __acrt_update_locale_info  0000000180018b48 f   libucrt:locale_update.obj
 0001:00017b7c       __acrt_update_multibyte_info 0000000180018b7c f   libucrt:locale_update.obj
 0001:000185b4       __acrt_fp_format           00000001800195b4 f   libucrt:cvt.obj
 0001:000188ec       _fileno                    00000001800198ec f   libucrt:fileno.obj
 0001:00018914       __acrt_initialize_stdio    0000000180019914 f   libucrt:_file.obj
 0001:00018a34       __acrt_uninitialize_stdio  0000000180019a34 f   libucrt:_file.obj
 0001:00018a90       _lock_file                 0000000180019a90 f   libucrt:_file.obj
 0001:00018a9c       _unlock_file               0000000180019a9c f   libucrt:_file.obj
 0001:00018aa8       _get_printf_count_output   0000000180019aa8 f   libucrt:printf_count_output.obj
 0001:00018b30       __acrt_set_locale_changed  0000000180019b30 f   libucrt:wsetlocale.obj
 0001:00018b3c       __acrt_uninitialize_locale 0000000180019b3c f   libucrt:wsetlocale.obj
 0001:00018d68       __acrt_initialize_lowio    0000000180019d68 f   libucrt:ioinit.obj
 0001:00018da4       __acrt_uninitialize_lowio  0000000180019da4 f   libucrt:ioinit.obj
 0001:00018de4       __acrt_initialize_locks    0000000180019de4 f   libucrt:locks.obj
 0001:00018e2c       __acrt_lock                0000000180019e2c f   libucrt:locks.obj
 0001:00018e48       __acrt_uninitialize_locks  0000000180019e48 f   libucrt:locks.obj
 0001:00018e80       __acrt_unlock              0000000180019e80 f   libucrt:locks.obj
 0001:00018e9c       __acrt_get_process_end_policy 0000000180019e9c f   libucrt:win_policies.obj
 0001:00018eec       ??$__acrt_mbs_to_wcs_cp@U__crt_win32_buffer_internal_dynamic_resizing@@@@YAHQEBDAEAV?$__crt_win32_buffer@_WU__crt_win32_buffer_internal_dynamic_resizing@@@@I@Z 0000000180019eec f i libucrt:argv_wildcards.obj
 0001:00019064       ??$__acrt_wcs_to_mbs_cp@U__crt_win32_buffer_internal_dynamic_resizing@@@@YAHQEB_WAEAV?$__crt_win32_buffer@DU__crt_win32_buffer_internal_dynamic_resizing@@@@I@Z 000000018001a064 f i libucrt:argv_wildcards.obj
 0001:00019894       __acrt_expand_narrow_argv_wildcards 000000018001a894 f   libucrt:argv_wildcards.obj
 0001:0001989c       ??$__acrt_wcs_to_mbs_cp@U__crt_win32_buffer_no_resizing@@@@YAHQEB_WAEAV?$__crt_win32_buffer@DU__crt_win32_buffer_no_resizing@@@@I@Z 000000018001a89c f i libucrt:getmodulefilenamea.obj
 0001:000199b0       __acrt_GetModuleFileNameA  000000018001a9b0 f   libucrt:getmodulefilenamea.obj
 0001:0001a1f8       __acrt_initialize_multibyte 000000018001b1f8 f   libucrt:mbctype.obj
 0001:0001a258       __acrt_update_thread_multibyte_data 000000018001b258 f   libucrt:mbctype.obj
 0001:0001a274       _setmbcp_nolock            000000018001b274 f   libucrt:mbctype.obj
 0001:0001a5a8       _ismbblead                 000000018001b5a8 f   libucrt:ismbbyte.obj
 0001:0001a5bc       __acrt_initialize_command_line 000000018001b5bc f   libucrt:argv_data.obj
 0001:0001a5e4       __acrt_MultiByteToWideChar 000000018001b5e4 f   libucrt:multibytetowidechar.obj
 0001:0001a640       __acrt_WideCharToMultiByte 000000018001b640 f   libucrt:widechartomultibyte.obj
 0001:0001a6f0       __dcrt_get_narrow_environment_from_os 000000018001b6f0 f   libucrt:get_environment_from_os.obj
 0001:0001a7f4       __acrt_initialize_heap     000000018001b7f4 f   libucrt:heap_handle.obj
 0001:0001a810       __acrt_uninitialize_heap   000000018001b810 f   libucrt:heap_handle.obj
 0001:0001a81c       __acrt_execute_initializers 000000018001b81c f   libucrt:shared_initialization.obj
 0001:0001a89c       __acrt_execute_uninitializers 000000018001b89c f   libucrt:shared_initialization.obj
 0001:0001a920       __acrt_get_sigabrt_handler 000000018001b920 f   libucrt:signal.obj
 0001:0001a950       __acrt_initialize_signal_handlers 000000018001b950 f   libucrt:signal.obj
 0001:0001a970       raise                      000000018001b970 f   libucrt:signal.obj
 0001:0001abdc       __acrt_has_user_matherr    000000018001bbdc f   libucrt:matherr.obj
 0001:0001abfc       __acrt_initialize_user_matherr 000000018001bbfc f   libucrt:matherr.obj
 0001:0001ac04       __acrt_invoke_user_matherr 000000018001bc04 f   libucrt:matherr.obj
 0001:0001ae10       __acrt_stdio_flush_nolock  000000018001be10 f   libucrt:fflush.obj
 0001:0001ae8c       _fflush_nolock             000000018001be8c f   libucrt:fflush.obj
 0001:0001aed8       _flushall                  000000018001bed8 f   libucrt:fflush.obj
 0001:0001aee0       __pctype_func              000000018001bee0 f   libucrt:ctype.obj
 0001:0001af10       iswctype                   000000018001bf10 f   libucrt:iswctype.obj
 0001:0001af7c       __acrt_add_locale_ref      000000018001bf7c f   libucrt:locale_refcounting.obj
 0001:0001b008       __acrt_free_locale         000000018001c008 f   libucrt:locale_refcounting.obj
 0001:0001b180       __acrt_locale_add_lc_time_reference 000000018001c180 f   libucrt:locale_refcounting.obj
 0001:0001b1a8       __acrt_locale_free_lc_time_if_unreferenced 000000018001c1a8 f   libucrt:locale_refcounting.obj
 0001:0001b1e0       __acrt_locale_release_lc_time_reference 000000018001c1e0 f   libucrt:locale_refcounting.obj
 0001:0001b208       __acrt_release_locale_ref  000000018001c208 f   libucrt:locale_refcounting.obj
 0001:0001b2b0       __acrt_update_thread_locale_data 000000018001c2b0 f   libucrt:locale_refcounting.obj
 0001:0001b320       _updatetlocinfoEx_nolock   000000018001c320 f   libucrt:locale_refcounting.obj
 0001:0001b388       _query_new_mode            000000018001c388 f   libucrt:new_mode.obj
 0001:0001b390       __acrt_DownlevelLocaleNameToLCID 000000018001c390 f   libucrt:lcidtoname_downlevel.obj
 0001:0001b440       _isleadbyte_l              000000018001c440 f i libucrt:_wctype.obj
 0001:0001b48c       ?__mbrtowc_utf8@__crt_mbstring@@YA_KPEA_WPEBD_KPEAU_Mbstatet@@@Z 000000018001c48c f   libucrt:mbrtowc.obj
 0001:0001b4c8       ?__mbsrtowcs_utf8@__crt_mbstring@@YA_KPEA_WPEAPEBD_KPEAU_Mbstatet@@@Z 000000018001c4c8 f   libucrt:mbrtowc.obj
 0001:0001b640       __acrt_fp_strflt_to_string 000000018001c640 f   libucrt:_fptostr.obj
 0001:0001b790       ?divide@__crt_strtox@@YA_KAEAUbig_integer@1@AEBU21@@Z 000000018001c790 f i libucrt:cfout.obj
 0001:0001bbbc       __acrt_fltout              000000018001cbbc f   libucrt:cfout.obj
 0001:0001ce88       fegetround                 000000018001de88 f   libucrt:fegetround.obj
 0001:0001ce9c       _fcloseall                 000000018001de9c f   libucrt:closeall.obj
 0001:0001cf50       __acrt_stdio_free_buffer_nolock 000000018001df50 f   libucrt:_freebuf.obj
 0001:0001cf90       _isatty                    000000018001df90 f   libucrt:isatty.obj
 0001:0001cff0       __acrt_locale_free_monetary 000000018001dff0 f   libucrt:initmon.obj
 0001:0001d0fc       __acrt_locale_free_numeric 000000018001e0fc f   libucrt:initnum.obj
 0001:0001d1c0       __acrt_locale_free_time    000000018001e1c0 f   libucrt:inittime.obj
 0001:0001d2c8       __acrt_GetStringTypeA      000000018001e2c8 f   libucrt:getstringtypea.obj
 0001:0001d458       __acrt_lowio_create_handle_array 000000018001e458 f   libucrt:osfinfo.obj
 0001:0001d500       __acrt_lowio_destroy_handle_array 000000018001e500 f   libucrt:osfinfo.obj
 0001:0001d550       __acrt_lowio_ensure_fh_exists 000000018001e550 f   libucrt:osfinfo.obj
 0001:0001d5f8       __acrt_lowio_lock_fh       000000018001e5f8 f   libucrt:osfinfo.obj
 0001:0001d620       __acrt_lowio_unlock_fh     000000018001e620 f   libucrt:osfinfo.obj
 0001:0001d648       _free_osfhnd               000000018001e648 f   libucrt:osfinfo.obj
 0001:0001d704       _get_osfhandle             000000018001e704 f   libucrt:osfinfo.obj
 0001:0001d780       qsort                      000000018001e780 f   libucrt:qsort.obj
 0001:0001db20       strncpy_s                  000000018001eb20 f   libucrt:strncpy_s.obj
 0001:0001dca0       strpbrk                    000000018001eca0 f   libucrt:strpbrk.obj
 0001:0001e068       _mbsdec                    000000018001f068 f   libucrt:mbsdec.obj
 0001:0001e070       _mbsdec_l                  000000018001f070 f   libucrt:mbsdec.obj
 0001:0001e41c       __acrt_LCMapStringA        000000018001f41c f   libucrt:lcmapstringa.obj
 0001:0001e558       _commit                    000000018001f558 f   libucrt:commit.obj
 0001:0001ee68       _write                     000000018001fe68 f   libucrt:write.obj
 0001:0001ef54       _write_nolock              000000018001ff54 f   libucrt:write.obj
 0001:0001f238       __acrt_GetStringTypeW      0000000180020238 f   libucrt:getstringtypew.obj
 0001:0001f240       __ascii_wcsnicmp           0000000180020240 f   libucrt:wcsnicmp.obj
 0001:0001f28c       ?__mbrtoc32_utf8@__crt_mbstring@@YA_KPEA_UPEBD_KPEAU_Mbstatet@@@Z 000000018002028c f   libucrt:mbrtoc32.obj
 0001:0001f464       _controlfp_s               0000000180020464 f   libucrt:contrlfp.obj
 0001:0001f4c8       fegetenv                   00000001800204c8 f   libucrt:fegetenv.obj
 0001:0001f4e8       fesetenv                   00000001800204e8 f   libucrt:fesetenv.obj
 0001:0001f534       feholdexcept               0000000180020534 f   libucrt:feholdexcept.obj
 0001:0001f584       ceil                       0000000180020584 f   libucrt:ceil.obj
 0001:0001f650       log10                      0000000180020650 f   libucrt:log10.obj
 0001:0001fbfc       __acrt_fenv_get_common_round_control 0000000180020bfc f   libucrt:_fenvutils.obj
 0001:0001fc08       __acrt_fenv_get_control    0000000180020c08 f   libucrt:_fenvutils.obj
 0001:0001fcfc       __acrt_fenv_get_status     0000000180020cfc f   libucrt:_fenvutils.obj
 0001:0001fd50       __acrt_fenv_set_control    0000000180020d50 f   libucrt:_fenvutils.obj
 0001:0001fe98       __acrt_fenv_set_status     0000000180020e98 f   libucrt:_fenvutils.obj
 0001:0001ffb8       _lseeki64_nolock           0000000180020fb8 f   libucrt:lseek.obj
 0001:0001ffc0       _fclose_nolock             0000000180020fc0 f   libucrt:fclose.obj
 0001:00020044       fclose                     0000000180021044 f   libucrt:fclose.obj
 0001:000200a8       _query_app_type            00000001800210a8 f   libucrt:report_runtime_error.obj
 0001:000200b0       __strncnt                  00000001800210b0 f   libucrt:strncnt.obj
 0001:000200c8       _putwch_nolock             00000001800210c8 f   libucrt:putwch.obj
 0001:00020104       _clearfp                   0000000180021104 f   libucrt:ieee.obj
 0001:00020174       _control87                 0000000180021174 f   libucrt:ieee.obj
 0001:00020560       _handle_error              0000000180021560 f   libucrt:libm_error.obj
 0001:00020688       _handle_nan                0000000180021688 f   libucrt:libm_error.obj
 0001:000206b0       __acrt_initialize_fma3     00000001800216b0 f   libucrt:fma3_available.obj
 0001:00020720       _log10_special             0000000180021720 f   libucrt:log_special.obj
 0001:0002084c       _close                     000000018002184c f   libucrt:close.obj
 0001:000208f0       _close_nolock              00000001800218f0 f   libucrt:close.obj
 0001:000209b0       ?__acrt_stdio_free_stream@@YAXV__crt_stdio_stream@@@Z 00000001800219b0 f   libucrt:stream.obj
 0001:000209cc       __dcrt_lowio_ensure_console_output_initialized 00000001800219cc f   libucrt:initcon.obj
 0001:00020a20       __dcrt_terminate_console_output 0000000180021a20 f   libucrt:initcon.obj
 0001:00020a3c       __dcrt_write_console       0000000180021a3c f   libucrt:initcon.obj
 0001:00020b10       _get_fpsr                  0000000180021b10 f   libucrt:fpsr.obj
 0001:00020b20       _set_fpsr                  0000000180021b20 f   libucrt:fpsr.obj
 0001:00020b2a       _fclrf                     0000000180021b2a f   libucrt:fpsr.obj
 0001:00020b3e       _frnd                      0000000180021b3e f   libucrt:fpsr.obj
 0001:00020b60       _raise_exc                 0000000180021b60 f   libucrt:fpexcept.obj
 0001:00020b88       _raise_exc_ex              0000000180021b88 f   libucrt:fpexcept.obj
 0001:00020e98       _set_errno_from_matherr    0000000180021e98 f   libucrt:fpexcept.obj
 0001:00020ec8       _clrfp                     0000000180021ec8 f   libucrt:fpctrl.obj
 0001:00020ee8       _ctrlfp                    0000000180021ee8 f   libucrt:fpctrl.obj
 0001:00020f64       _set_statfp                0000000180021f64 f   libucrt:fpctrl.obj
 0001:00020f84       _statfp                    0000000180021f84 f   libucrt:fpctrl.obj
 0001:00020f95       IsProcessorFeaturePresent  0000000180021f95 f   kernel32:KERNEL32.dll
 0001:00020fa0       _FindPESection             0000000180021fa0 f   LIBCMT:pesect.obj
 0001:00020ff0       _IsNonwritableInCurrentImage 0000000180021ff0 f   LIBCMT:pesect.obj
 0001:00021040       _ValidateImageBase         0000000180022040 f   LIBCMT:pesect.obj
 0001:00021070       strrchr                    0000000180022070 f   libvcruntime:strrchr.obj
 0001:000211b0       _guard_dispatch_icall_nop  00000001800221b0 f   LIBCMT:guard_dispatch.obj
 0001:000211d0       _guard_xfg_dispatch_icall_nop 00000001800221d0 f   LIBCMT:guard_xfg_dispatch.obj
 0002:00000000       __imp_RegQueryValueExW     0000000180023000     advapi32:ADVAPI32.dll
 0002:00000008       __imp_RegSetValueExW       0000000180023008     advapi32:ADVAPI32.dll
 0002:00000010       __imp_RegQueryInfoKeyW     0000000180023010     advapi32:ADVAPI32.dll
 0002:00000018       __imp_RegOpenKeyExW        0000000180023018     advapi32:ADVAPI32.dll
 0002:00000020       __imp_RegEnumKeyExW        0000000180023020     advapi32:ADVAPI32.dll
 0002:00000028       __imp_RegDeleteValueW      0000000180023028     advapi32:ADVAPI32.dll
 0002:00000030       __imp_RegDeleteKeyW        0000000180023030     advapi32:ADVAPI32.dll
 0002:00000038       __imp_RegCreateKeyExW      0000000180023038     advapi32:ADVAPI32.dll
 0002:00000040       __imp_RegCloseKey          0000000180023040     advapi32:ADVAPI32.dll
 0002:00000048       \177ADVAPI32_NULL_THUNK_DATA 0000000180023048     advapi32:ADVAPI32.dll
 0002:00000050       __imp_GetObjectW           0000000180023050     gdi32:GDI32.dll
 0002:00000058       __imp_SelectObject         0000000180023058     gdi32:GDI32.dll
 0002:00000060       __imp_DeleteObject         0000000180023060     gdi32:GDI32.dll
 0002:00000068       __imp_CreateCompatibleDC   0000000180023068     gdi32:GDI32.dll
 0002:00000070       __imp_BitBlt               0000000180023070     gdi32:GDI32.dll
 0002:00000078       __imp_SetWindowOrgEx       0000000180023078     gdi32:GDI32.dll
 0002:00000080       __imp_SetWindowExtEx       0000000180023080     gdi32:GDI32.dll
 0002:00000088       __imp_SetViewportOrgEx     0000000180023088     gdi32:GDI32.dll
 0002:00000090       __imp_LPtoDP               0000000180023090     gdi32:GDI32.dll
 0002:00000098       __imp_SetMapMode           0000000180023098     gdi32:GDI32.dll
 0002:000000a0       __imp_SaveDC               00000001800230a0     gdi32:GDI32.dll
 0002:000000a8       __imp_RestoreDC            00000001800230a8     gdi32:GDI32.dll
 0002:000000b0       __imp_GetDeviceCaps        00000001800230b0     gdi32:GDI32.dll
 0002:000000b8       __imp_DeleteMetaFile       00000001800230b8     gdi32:GDI32.dll
 0002:000000c0       __imp_DeleteDC             00000001800230c0     gdi32:GDI32.dll
 0002:000000c8       __imp_CreateRectRgnIndirect 00000001800230c8     gdi32:GDI32.dll
 0002:000000d0       __imp_CreateMetaFileW      00000001800230d0     gdi32:GDI32.dll
 0002:000000d8       __imp_CreateDCW            00000001800230d8     gdi32:GDI32.dll
 0002:000000e0       __imp_CloseMetaFile        00000001800230e0     gdi32:GDI32.dll
 0002:000000e8       \177GDI32_NULL_THUNK_DATA  00000001800230e8     gdi32:GDI32.dll
 0002:000000f0       __imp_CloseHandle          00000001800230f0     kernel32:KERNEL32.dll
 0002:000000f8       __imp_SetEvent             00000001800230f8     kernel32:KERNEL32.dll
 0002:00000100       __imp_CreateMutexW         0000000180023100     kernel32:KERNEL32.dll
 0002:00000108       __imp_CreateEventW         0000000180023108     kernel32:KERNEL32.dll
 0002:00000110       __imp_GetCurrentProcessId  0000000180023110     kernel32:KERNEL32.dll
 0002:00000118       __imp_WriteConsoleW        0000000180023118     kernel32:KERNEL32.dll
 0002:00000120       __imp_CreateFileW          0000000180023120     kernel32:KERNEL32.dll
 0002:00000128       __imp_GetConsoleMode       0000000180023128     kernel32:KERNEL32.dll
 0002:00000130       __imp_GetConsoleOutputCP   0000000180023130     kernel32:KERNEL32.dll
 0002:00000138       __imp_WriteFile            0000000180023138     kernel32:KERNEL32.dll
 0002:00000140       __imp_FlushFileBuffers     0000000180023140     kernel32:KERNEL32.dll
 0002:00000148       __imp_SetStdHandle         0000000180023148     kernel32:KERNEL32.dll
 0002:00000150       __imp_GetStringTypeW       0000000180023150     kernel32:KERNEL32.dll
 0002:00000158       __imp_SetFilePointerEx     0000000180023158     kernel32:KERNEL32.dll
 0002:00000160       __imp_FreeEnvironmentStringsW 0000000180023160     kernel32:KERNEL32.dll
 0002:00000168       __imp_lstrcmpiW            0000000180023168     kernel32:KERNEL32.dll
 0002:00000170       __imp_GetCommandLineW      0000000180023170     kernel32:KERNEL32.dll
 0002:00000178       __imp_GetCommandLineA      0000000180023178     kernel32:KERNEL32.dll
 0002:00000180       __imp_GetCPInfo            0000000180023180     kernel32:KERNEL32.dll
 0002:00000188       __imp_GetOEMCP             0000000180023188     kernel32:KERNEL32.dll
 0002:00000190       __imp_GetACP               0000000180023190     kernel32:KERNEL32.dll
 0002:00000198       __imp_IsValidCodePage      0000000180023198     kernel32:KERNEL32.dll
 0002:000001a0       __imp_FindNextFileW        00000001800231a0     kernel32:KERNEL32.dll
 0002:000001a8       __imp_FindFirstFileExW     00000001800231a8     kernel32:KERNEL32.dll
 0002:000001b0       __imp_FindClose            00000001800231b0     kernel32:KERNEL32.dll
 0002:000001b8       __imp_GetFileType          00000001800231b8     kernel32:KERNEL32.dll
 0002:000001c0       __imp_GetStdHandle         00000001800231c0     kernel32:KERNEL32.dll
 0002:000001c8       __imp_LCMapStringW         00000001800231c8     kernel32:KERNEL32.dll
 0002:000001d0       __imp_HeapReAlloc          00000001800231d0     kernel32:KERNEL32.dll
 0002:000001d8       __imp_HeapSize             00000001800231d8     kernel32:KERNEL32.dll
 0002:000001e0       __imp_MulDiv               00000001800231e0     kernel32:KERNEL32.dll
 0002:000001e8       __imp_GlobalLock           00000001800231e8     kernel32:KERNEL32.dll
 0002:000001f0       __imp_GlobalUnlock         00000001800231f0     kernel32:KERNEL32.dll
 0002:000001f8       __imp_GlobalAlloc          00000001800231f8     kernel32:KERNEL32.dll
 0002:00000200       __imp_FindResourceW        0000000180023200     kernel32:KERNEL32.dll
 0002:00000208       __imp_SizeofResource       0000000180023208     kernel32:KERNEL32.dll
 0002:00000210       __imp_LoadResource         0000000180023210     kernel32:KERNEL32.dll
 0002:00000218       __imp_LoadLibraryExW       0000000180023218     kernel32:KERNEL32.dll
 0002:00000220       __imp_GetProcAddress       0000000180023220     kernel32:KERNEL32.dll
 0002:00000228       __imp_GetModuleHandleW     0000000180023228     kernel32:KERNEL32.dll
 0002:00000230       __imp_GetModuleFileNameW   0000000180023230     kernel32:KERNEL32.dll
 0002:00000238       __imp_FreeLibrary          0000000180023238     kernel32:KERNEL32.dll
 0002:00000240       __imp_DisableThreadLibraryCalls 0000000180023240     kernel32:KERNEL32.dll
 0002:00000248       __imp_GetCurrentThreadId   0000000180023248     kernel32:KERNEL32.dll
 0002:00000250       __imp_Sleep                0000000180023250     kernel32:KERNEL32.dll
 0002:00000258       __imp_WaitForSingleObject  0000000180023258     kernel32:KERNEL32.dll
 0002:00000260       __imp_ReleaseMutex         0000000180023260     kernel32:KERNEL32.dll
 0002:00000268       __imp_ResetEvent           0000000180023268     kernel32:KERNEL32.dll
 0002:00000270       __imp_EnterCriticalSection 0000000180023270     kernel32:KERNEL32.dll
 0002:00000278       __imp_LeaveCriticalSection 0000000180023278     kernel32:KERNEL32.dll
 0002:00000280       __imp_SetLastError         0000000180023280     kernel32:KERNEL32.dll
 0002:00000288       __imp_EncodePointer        0000000180023288     kernel32:KERNEL32.dll
 0002:00000290       __imp_DeleteCriticalSection 0000000180023290     kernel32:KERNEL32.dll
 0002:00000298       __imp_InitializeCriticalSectionEx 0000000180023298     kernel32:KERNEL32.dll
 0002:000002a0       __imp_GetLastError         00000001800232a0     kernel32:KERNEL32.dll
 0002:000002a8       __imp_RaiseException       00000001800232a8     kernel32:KERNEL32.dll
 0002:000002b0       __imp_DecodePointer        00000001800232b0     kernel32:KERNEL32.dll
 0002:000002b8       __imp_WideCharToMultiByte  00000001800232b8     kernel32:KERNEL32.dll
 0002:000002c0       __imp_GetEnvironmentStringsW 00000001800232c0     kernel32:KERNEL32.dll
 0002:000002c8       __imp_MultiByteToWideChar  00000001800232c8     kernel32:KERNEL32.dll
 0002:000002d0       __imp_GetModuleHandleExW   00000001800232d0     kernel32:KERNEL32.dll
 0002:000002d8       __imp_ExitProcess          00000001800232d8     kernel32:KERNEL32.dll
 0002:000002e0       __imp_VirtualQuery         00000001800232e0     kernel32:KERNEL32.dll
 0002:000002e8       __imp_VirtualProtect       00000001800232e8     kernel32:KERNEL32.dll
 0002:000002f0       __imp_GetSystemInfo        00000001800232f0     kernel32:KERNEL32.dll
 0002:000002f8       __imp_TlsFree              00000001800232f8     kernel32:KERNEL32.dll
 0002:00000300       __imp_TlsSetValue          0000000180023300     kernel32:KERNEL32.dll
 0002:00000308       __imp_TlsGetValue          0000000180023308     kernel32:KERNEL32.dll
 0002:00000310       __imp_TlsAlloc             0000000180023310     kernel32:KERNEL32.dll
 0002:00000318       __imp_RtlPcToFileHeader    0000000180023318     kernel32:KERNEL32.dll
 0002:00000320       __imp_InterlockedFlushSList 0000000180023320     kernel32:KERNEL32.dll
 0002:00000328       __imp_RtlUnwindEx          0000000180023328     kernel32:KERNEL32.dll
 0002:00000330       __imp_LoadLibraryExA       0000000180023330     kernel32:KERNEL32.dll
 0002:00000338       __imp_VirtualFree          0000000180023338     kernel32:KERNEL32.dll
 0002:00000340       __imp_VirtualAlloc         0000000180023340     kernel32:KERNEL32.dll
 0002:00000348       __imp_FlushInstructionCache 0000000180023348     kernel32:KERNEL32.dll
 0002:00000350       __imp_InterlockedPushEntrySList 0000000180023350     kernel32:KERNEL32.dll
 0002:00000358       __imp_InterlockedPopEntrySList 0000000180023358     kernel32:KERNEL32.dll
 0002:00000360       __imp_GetProcessHeap       0000000180023360     kernel32:KERNEL32.dll
 0002:00000368       __imp_HeapFree             0000000180023368     kernel32:KERNEL32.dll
 0002:00000370       __imp_HeapAlloc            0000000180023370     kernel32:KERNEL32.dll
 0002:00000378       __imp_OutputDebugStringW   0000000180023378     kernel32:KERNEL32.dll
 0002:00000380       __imp_InitializeSListHead  0000000180023380     kernel32:KERNEL32.dll
 0002:00000388       __imp_GetSystemTimeAsFileTime 0000000180023388     kernel32:KERNEL32.dll
 0002:00000390       __imp_QueryPerformanceCounter 0000000180023390     kernel32:KERNEL32.dll
 0002:00000398       __imp_GetStartupInfoW      0000000180023398     kernel32:KERNEL32.dll
 0002:000003a0       __imp_IsDebuggerPresent    00000001800233a0     kernel32:KERNEL32.dll
 0002:000003a8       __imp_IsProcessorFeaturePresent 00000001800233a8     kernel32:KERNEL32.dll
 0002:000003b0       __imp_TerminateProcess     00000001800233b0     kernel32:KERNEL32.dll
 0002:000003b8       __imp_GetCurrentProcess    00000001800233b8     kernel32:KERNEL32.dll
 0002:000003c0       __imp_InitializeCriticalSectionAndSpinCount 00000001800233c0     kernel32:KERNEL32.dll
 0002:000003c8       __imp_WaitForSingleObjectEx 00000001800233c8     kernel32:KERNEL32.dll
 0002:000003d0       __imp_RtlCaptureContext    00000001800233d0     kernel32:KERNEL32.dll
 0002:000003d8       __imp_RtlLookupFunctionEntry 00000001800233d8     kernel32:KERNEL32.dll
 0002:000003e0       __imp_RtlVirtualUnwind     00000001800233e0     kernel32:KERNEL32.dll
 0002:000003e8       __imp_UnhandledExceptionFilter 00000001800233e8     kernel32:KERNEL32.dll
 0002:000003f0       __imp_SetUnhandledExceptionFilter 00000001800233f0     kernel32:KERNEL32.dll
 0002:000003f8       \177KERNEL32_NULL_THUNK_DATA 00000001800233f8     kernel32:KERNEL32.dll
 0002:00000400       __imp_OleCreatePropertyFrame 0000000180023400     oleaut32:OLEAUT32.dll
 0002:00000408       __imp_UnRegisterTypeLib    0000000180023408     oleaut32:OLEAUT32.dll
 0002:00000410       __imp_RegisterTypeLib      0000000180023410     oleaut32:OLEAUT32.dll
 0002:00000418       __imp_LoadRegTypeLib       0000000180023418     oleaut32:OLEAUT32.dll
 0002:00000420       __imp_LoadTypeLib          0000000180023420     oleaut32:OLEAUT32.dll
 0002:00000428       __imp_VarUI4FromStr        0000000180023428     oleaut32:OLEAUT32.dll
 0002:00000430       __imp_VariantInit          0000000180023430     oleaut32:OLEAUT32.dll
 0002:00000438       __imp_SysAllocStringByteLen 0000000180023438     oleaut32:OLEAUT32.dll
 0002:00000440       __imp_SysStringByteLen     0000000180023440     oleaut32:OLEAUT32.dll
 0002:00000448       __imp_VariantChangeType    0000000180023448     oleaut32:OLEAUT32.dll
 0002:00000450       __imp_VariantClear         0000000180023450     oleaut32:OLEAUT32.dll
 0002:00000458       __imp_SysStringLen         0000000180023458     oleaut32:OLEAUT32.dll
 0002:00000460       __imp_SysFreeString        0000000180023460     oleaut32:OLEAUT32.dll
 0002:00000468       __imp_SysAllocStringLen    0000000180023468     oleaut32:OLEAUT32.dll
 0002:00000470       __imp_SysAllocString       0000000180023470     oleaut32:OLEAUT32.dll
 0002:00000478       \177OLEAUT32_NULL_THUNK_DATA 0000000180023478     oleaut32:OLEAUT32.dll
 0002:00000480       __imp_UnregisterClassW     0000000180023480     user32:USER32.dll
 0002:00000488       __imp_PostMessageW         0000000180023488     user32:USER32.dll
 0002:00000490       __imp_DefWindowProcW       0000000180023490     user32:USER32.dll
 0002:00000498       __imp_CallWindowProcW      0000000180023498     user32:USER32.dll
 0002:000004a0       __imp_RegisterClassExW     00000001800234a0     user32:USER32.dll
 0002:000004a8       __imp_GetClassInfoExW      00000001800234a8     user32:USER32.dll
 0002:000004b0       __imp_CreateWindowExW      00000001800234b0     user32:USER32.dll
 0002:000004b8       __imp_IsWindow             00000001800234b8     user32:USER32.dll
 0002:000004c0       __imp_IsChild              00000001800234c0     user32:USER32.dll
 0002:000004c8       __imp_DestroyWindow        00000001800234c8     user32:USER32.dll
 0002:000004d0       __imp_ShowWindow           00000001800234d0     user32:USER32.dll
 0002:000004d8       __imp_SetWindowPos         00000001800234d8     user32:USER32.dll
 0002:000004e0       __imp_CharNextW            00000001800234e0     user32:USER32.dll
 0002:000004e8       __imp_SetFocus             00000001800234e8     user32:USER32.dll
 0002:000004f0       __imp_LoadBitmapW          00000001800234f0     user32:USER32.dll
 0002:000004f8       __imp_RegisterClassW       00000001800234f8     user32:USER32.dll
 0002:00000500       __imp_PeekMessageW         0000000180023500     user32:USER32.dll
 0002:00000508       __imp_LoadCursorW          0000000180023508     user32:USER32.dll
 0002:00000510       __imp_GetParent            0000000180023510     user32:USER32.dll
 0002:00000518       __imp_SetWindowLongPtrW    0000000180023518     user32:USER32.dll
 0002:00000520       __imp_GetWindowLongPtrW    0000000180023520     user32:USER32.dll
 0002:00000528       __imp_PtInRect             0000000180023528     user32:USER32.dll
 0002:00000530       __imp_EqualRect            0000000180023530     user32:USER32.dll
 0002:00000538       __imp_OffsetRect           0000000180023538     user32:USER32.dll
 0002:00000540       __imp_UnionRect            0000000180023540     user32:USER32.dll
 0002:00000548       __imp_IntersectRect        0000000180023548     user32:USER32.dll
 0002:00000550       __imp_GetClientRect        0000000180023550     user32:USER32.dll
 0002:00000558       __imp_InvalidateRect       0000000180023558     user32:USER32.dll
 0002:00000560       __imp_SetWindowRgn         0000000180023560     user32:USER32.dll
 0002:00000568       __imp_EndPaint             0000000180023568     user32:USER32.dll
 0002:00000570       __imp_BeginPaint           0000000180023570     user32:USER32.dll
 0002:00000578       __imp_ReleaseDC            0000000180023578     user32:USER32.dll
 0002:00000580       __imp_GetDC                0000000180023580     user32:USER32.dll
 0002:00000588       __imp_GetKeyState          0000000180023588     user32:USER32.dll
 0002:00000590       __imp_GetFocus             0000000180023590     user32:USER32.dll
 0002:00000598       \177USER32_NULL_THUNK_DATA 0000000180023598     user32:USER32.dll
 0002:000005a0       __imp_CoCreateInstance     00000001800235a0     ole32:ole32.dll
 0002:000005a8       __imp_StringFromGUID2      00000001800235a8     ole32:ole32.dll
 0002:000005b0       __imp_CoTaskMemAlloc       00000001800235b0     ole32:ole32.dll
 0002:000005b8       __imp_CoTaskMemFree        00000001800235b8     ole32:ole32.dll
 0002:000005c0       __imp_ReadClassStm         00000001800235c0     ole32:ole32.dll
 0002:000005c8       __imp_WriteClassStm        00000001800235c8     ole32:ole32.dll
 0002:000005d0       __imp_CreateDataAdviseHolder 00000001800235d0     ole32:ole32.dll
 0002:000005d8       __imp_OleSaveToStream      00000001800235d8     ole32:ole32.dll
 0002:000005e0       __imp_CreateOleAdviseHolder 00000001800235e0     ole32:ole32.dll
 0002:000005e8       __imp_OleRegGetUserType    00000001800235e8     ole32:ole32.dll
 0002:000005f0       __imp_OleRegGetMiscStatus  00000001800235f0     ole32:ole32.dll
 0002:000005f8       __imp_OleRegEnumVerbs      00000001800235f8     ole32:ole32.dll
 0002:00000600       __imp_CLSIDFromProgID      0000000180023600     ole32:ole32.dll
 0002:00000608       __imp_CoTaskMemRealloc     0000000180023608     ole32:ole32.dll
 0002:00000610       \177ole32_NULL_THUNK_DATA  0000000180023610     ole32:ole32.dll
 0002:00000618       __guard_check_icall_fptr   0000000180023618     LIBCMT:guard_support.obj
 0002:00000620       __guard_xfg_check_icall_fptr 0000000180023620     LIBCMT:guard_support.obj
 0002:00000628       __guard_dispatch_icall_fptr 0000000180023628     LIBCMT:guard_support.obj
 0002:00000630       __guard_xfg_dispatch_icall_fptr 0000000180023630     LIBCMT:guard_support.obj
 0002:00000638       __guard_xfg_table_dispatch_icall_fptr 0000000180023638     LIBCMT:guard_support.obj
 0002:00000640       __xc_a                     0000000180023640     LIBCMT:initializers.obj
 0002:00000670       __xc_z                     0000000180023670     LIBCMT:initializers.obj
 0002:00000678       __xi_a                     0000000180023678     LIBCMT:initializers.obj
 0002:00000688       __acrt_stdio_initializer   0000000180023688     libucrt:stdio_initializer.obj
 0002:00000690       __acrt_multibyte_initializer 0000000180023690     libucrt:multibyte_initializer.obj
 0002:00000698       __acrt_tran_fma3_initializer 0000000180023698     libucrt:fma3_initializer.obj
 0002:000006a0       __xi_z                     00000001800236a0     LIBCMT:initializers.obj
 0002:000006a8       __xl_a                     00000001800236a8     LIBCMT:tlssup.obj
 0002:000006b0       __xl_z                     00000001800236b0     LIBCMT:tlssup.obj
 0002:000006b8       __xp_a                     00000001800236b8     LIBCMT:initializers.obj
 0002:000006c0       __acrt_locale_terminator   00000001800236c0     libucrt:locale_initializer.obj
 0002:000006c8       __dcrt_console_output_terminator 00000001800236c8     libucrt:console_output_initializer.obj
 0002:000006d0       __acrt_stdio_terminator    00000001800236d0     libucrt:stdio_initializer.obj
 0002:000006d8       __xp_z                     00000001800236d8     LIBCMT:initializers.obj
 0002:000006e0       __xt_a                     00000001800236e0     LIBCMT:initializers.obj
 0002:000006e8       __xt_z                     00000001800236e8     LIBCMT:initializers.obj
 0002:000006f0       ??_C@_13HADIAKP@?$AAS@     00000001800236f0     OposVariant.obj
 0002:000006f4       ??_C@_13LHMFKAAD@?$AAM@    00000001800236f4     OposVariant.obj
 0002:000006f8       ??_C@_13MKMNOPIJ@?$AAD@    00000001800236f8     OposVariant.obj
 0002:000006fc       ??_C@_13OPKGLAFF@?$AAB@    00000001800236fc     OposVariant.obj
 0002:00000700       ??_C@_17LLMMEOJD@?$AAV?$AAa?$AAl@ 0000000180023700     OposVariant.obj
 0002:00000708       ??_C@_1BI@JFAIJMHL@?$AAF?$AAo?$AAr?$AAc?$AAe?$AAR?$AAe?$AAm?$AAo?$AAv?$AAe@ 0000000180023708     OposVariant.obj
 0002:00000720       ??_C@_1BC@GCKHIPE@?$AAN?$AAo?$AAR?$AAe?$AAm?$AAo?$AAv?$AAe@ 0000000180023720     OposVariant.obj
 0002:00000738       ??_C@_1O@JDLOHAN@?$AAD?$AAe?$AAl?$AAe?$AAt?$AAe@ 0000000180023738     OposVariant.obj
 0002:00000748       ??_C@_11LOCGONAA@@         0000000180023748     OposVariant.obj
 0002:00000750       IID_IOPOSIndividualRecognition_1_16 0000000180023750     IndividualRecognition.obj
 0002:00000760       IID_IOPOSIndividualRecognition 0000000180023760     IndividualRecognition.obj
 0002:00000770       LIBID_OposIndividualRecognition_CCO 0000000180023770     IndividualRecognition.obj
 0002:00000780       DIID__IOPOSIndividualRecognitionEvents 0000000180023780     IndividualRecognition.obj
 0002:00000790       CLSID_OPOSIndividualRecognition 0000000180023790     IndividualRecognition.obj
 0002:000007a0       _GUID_00000114_0000_0000_c000_000000000046 00000001800237a0     IndividualRecognition.obj
 0002:000007b0       ??_C@_1BK@BIGILECK@?$AAA?$AAd?$AAv?$AAa?$AAp?$AAi?$AA3?$AA2?$AA?4?$AAd?$AAl?$AAl@ 00000001800237b0     IndividualRecognition.obj
 0002:000007d0       ??_C@_0BI@MNCFCPFK@RegCreateKeyTransactedW@ 00000001800237d0     IndividualRecognition.obj
 0002:000007e8       _GUID_b196b287_bab4_101a_b69c_00aa00341d07 00000001800237e8     IndividualRecognition.obj
 0002:000007f8       _GUID_b196b285_bab4_101a_b69c_00aa00341d07 00000001800237f8     IndividualRecognition.obj
 0002:00000808       _GUID_a6bc3ac0_dbaa_11ce_9de3_00aa004bb851 0000000180023808     IndividualRecognition.obj
 0002:00000820       ?_entries@?1??_GetEntries@COPOSIndividualRecognition@@SAPEBU_ATL_INTMAP_ENTRY@ATL@@XZ@4QBU34@B 0000000180023820     IndividualRecognition.obj
 0002:00000a60       _GUID_0000010c_0000_0000_c000_000000000046 0000000180023a60     IndividualRecognition.obj
 0002:00000a70       _GUID_cf51ed10_62fe_11cf_bf86_00a0c9034836 0000000180023a70     IndividualRecognition.obj
 0002:00000a80       _GUID_0000010a_0000_0000_c000_000000000046 0000000180023a80     IndividualRecognition.obj
 0002:00000a90       _GUID_b196b283_bab4_101a_b69c_00aa00341d07 0000000180023a90     IndividualRecognition.obj
 0002:00000aa0       _GUID_cb5bdc81_93c1_11cf_8f20_00805f2cd064 0000000180023aa0     IndividualRecognition.obj
 0002:00000ab0       _GUID_00000146_0000_0000_c000_000000000046 0000000180023ab0     IndividualRecognition.obj
 0002:00000ac0       ?pPropMap@?1??GetPropertyMap@COPOSIndividualRecognition@@SAPEBUATL_PROPMAP_ENTRY@ATL@@XZ@4QBU34@B 0000000180023ac0     IndividualRecognition.obj
 0002:00000b68       ??_C@_17DGDADEHL@?$AA_?$AAc?$AAx@ 0000000180023b68     IndividualRecognition.obj
 0002:00000b70       ??_C@_17IOIMFDBO@?$AA_?$AAc?$AAy@ 0000000180023b70     IndividualRecognition.obj
 0002:00000b78       ??_7?$CComObjectCached@VCComClassFactory@ATL@@@ATL@@6B@ 0000000180023b78     IndividualRecognition.obj
 0002:00000ba8       _GUID_922eada0_3424_11cf_b670_00aa004cd6d8 0000000180023ba8     IndividualRecognition.obj
 0002:00000bb8       _GUID_9c2cad80_3424_11cf_b670_00aa004cd6d8 0000000180023bb8     IndividualRecognition.obj
 0002:00000bc8       _GUID_00000119_0000_0000_c000_000000000046 0000000180023bc8     IndividualRecognition.obj
 0002:00000bd8       _GUID_b196b289_bab4_101a_b69c_00aa00341d07 0000000180023bd8     IndividualRecognition.obj
 0002:00000be8       ??_C@_1CE@PGFMOFKI@?$AAS?$AAt?$AAa?$AAt?$AAu?$AAs?$AAU?$AAp?$AAd?$AAa?$AAt?$AAe?$AAE?$AAv?$AAe@ 0000000180023be8     IndividualRecognition.obj
 0002:00000c10       ??_C@_1BG@LODEBHDD@?$AAE?$AAr?$AAr?$AAo?$AAr?$AAE?$AAv?$AAe?$AAn?$AAt@ 0000000180023c10     IndividualRecognition.obj
 0002:00000c28       ??_C@_1BM@CBGEBBBJ@?$AAD?$AAi?$AAr?$AAe?$AAc?$AAt?$AAI?$AAO?$AAE?$AAv?$AAe?$AAn?$AAt@ 0000000180023c28     IndividualRecognition.obj
 0002:00000c48       ??_C@_1BE@IEBMACEM@?$AAD?$AAa?$AAt?$AAa?$AAE?$AAv?$AAe?$AAn?$AAt@ 0000000180023c48     IndividualRecognition.obj
 0002:00000c60       _GUID_b196b286_bab4_101a_b69c_00aa00341d07 0000000180023c60     IndividualRecognition.obj
 0002:00000c70       ??_7CComModule@ATL@@6B@    0000000180023c70     IndividualRecognition.obj
 0002:00000cc0       _GUID_00000117_0000_0000_c000_000000000046 0000000180023cc0     IndividualRecognition.obj
 0002:00000cd0       ??_C@_1BC@ENICKDH@?$AAC?$AAo?$AAn?$AAt?$AAe?$AAn?$AAt?$AAs@ 0000000180023cd0     IndividualRecognition.obj
 0002:00000ce8       _GUID_00000000_0000_0000_c000_000000000046 0000000180023ce8     IndividualRecognition.obj
 0002:00000cf8       _GUID_00020400_0000_0000_c000_000000000046 0000000180023cf8     IndividualRecognition.obj
 0002:00000d08       ??_7?$CComObject@V?$CComEnum@UIEnumConnectionPoints@@$1?_GUID_b196b285_bab4_101a_b69c_00aa00341d07@@3U__s_GUID@@BPEAUIConnectionPoint@@V?$_CopyInterface@UIConnectionPoint@@@ATL@@VCComSingleThreadModel@6@@ATL@@@ATL@@6B@ 0000000180023d08     IndividualRecognition.obj
 0002:00000d48       ??_C@_1M@KANJNLFF@?$AAC?$AAL?$AAS?$AAI?$AAD@ 0000000180023d48     IndividualRecognition.obj
 0002:00000d58       _GUID_0000010e_0000_0000_c000_000000000046 0000000180023d58     IndividualRecognition.obj
 0002:00000d68       _GUID_b196b288_bab4_101a_b69c_00aa00341d07 0000000180023d68     IndividualRecognition.obj
 0002:00000d78       ??_C@_1M@EJNEECMJ@?$AAA?$AAp?$AAp?$AAI?$AAD@ 0000000180023d78     IndividualRecognition.obj
 0002:00000d90       ?rgszNeverDelete@CRegParser@ATL@@1QBQEB_WB 0000000180023d90     IndividualRecognition.obj
 0002:00000df0       _GUID_00000113_0000_0000_c000_000000000046 0000000180023df0     IndividualRecognition.obj
 0002:00000e00       ??_7CRegObject@ATL@@6B@    0000000180023e00     IndividualRecognition.obj
 0002:00000e30       _GUID_1c2056cc_5ef4_101b_8bc8_00aa003e3b29 0000000180023e30     IndividualRecognition.obj
 0002:00000e40       ??_C@_1CK@OEKPKBNA@?$AAC?$AAo?$AAm?$AAp?$AAo?$AAn?$AAe?$AAn?$AAt?$AA?5?$AAC?$AAa?$AAt?$AAe?$AAg@ 0000000180023e40     IndividualRecognition.obj
 0002:00000e70       ??_C@_1BC@NKMMNMGL@?$AAF?$AAi?$AAl?$AAe?$AAT?$AAy?$AAp?$AAe@ 0000000180023e70     IndividualRecognition.obj
 0002:00000e88       ??_C@_1BE@EKPAFMCP@?$AAI?$AAn?$AAt?$AAe?$AAr?$AAf?$AAa?$AAc?$AAe@ 0000000180023e88     IndividualRecognition.obj
 0002:00000ea0       ??_C@_1BC@MAICEHGI@?$AAH?$AAa?$AAr?$AAd?$AAw?$AAa?$AAr?$AAe@ 0000000180023ea0     IndividualRecognition.obj
 0002:00000eb8       ??_C@_19HLLLM@?$AAM?$AAi?$AAm?$AAe@ 0000000180023eb8     IndividualRecognition.obj
 0002:00000ec8       ??_C@_17OMAOINJK@?$AAS?$AAA?$AAM@ 0000000180023ec8     IndividualRecognition.obj
 0002:00000ed0       ??_C@_1BC@IBECJAAI@?$AAS?$AAE?$AAC?$AAU?$AAR?$AAI?$AAT?$AAY@ 0000000180023ed0     IndividualRecognition.obj
 0002:00000ee8       ??_C@_1O@GBFINDKL@?$AAS?$AAY?$AAS?$AAT?$AAE?$AAM@ 0000000180023ee8     IndividualRecognition.obj
 0002:00000ef8       ??_C@_1BC@EAHCMADO@?$AAS?$AAo?$AAf?$AAt?$AAw?$AAa?$AAr?$AAe@ 0000000180023ef8     IndividualRecognition.obj
 0002:00000f10       ??_C@_1BA@JIHHIEDE@?$AAT?$AAy?$AAp?$AAe?$AAL?$AAi?$AAb@ 0000000180023f10     IndividualRecognition.obj
 0002:00000f20       _GUID_00000112_0000_0000_c000_000000000046 0000000180023f20     IndividualRecognition.obj
 0002:00000f30       ?map@?1??HKeyFromString@CRegParser@ATL@@KAPEAUHKEY__@@PEA_W@Z@4QBUkeymap@?1??123@KAPEAU4@0@Z@B 0000000180023f30     IndividualRecognition.obj
 0002:00001010       ??_C@_19NCHLBIN@?$AAH?$AAK?$AAC?$AAR@ 0000000180024010     IndividualRecognition.obj
 0002:00001020       ??_C@_19JAPAIJDE@?$AAH?$AAK?$AAC?$AAU@ 0000000180024020     IndividualRecognition.obj
 0002:00001030       ??_C@_19PEALEEJB@?$AAH?$AAK?$AAL?$AAM@ 0000000180024030     IndividualRecognition.obj
 0002:00001040       ??_C@_17PJOJPMPB@?$AAH?$AAK?$AAU@ 0000000180024040     IndividualRecognition.obj
 0002:00001048       ??_C@_19PNBHMJPL@?$AAH?$AAK?$AAP?$AAD@ 0000000180024048     IndividualRecognition.obj
 0002:00001058       ??_C@_19GFFAIJHG@?$AAH?$AAK?$AAD?$AAD@ 0000000180024058     IndividualRecognition.obj
 0002:00001068       ??_C@_19OFICIBHH@?$AAH?$AAK?$AAC?$AAC@ 0000000180024068     IndividualRecognition.obj
 0002:00001078       ??_C@_1CE@PACHPJFI@?$AAH?$AAK?$AAE?$AAY?$AA_?$AAC?$AAL?$AAA?$AAS?$AAS?$AAE?$AAS?$AA_?$AAR?$AAO@ 0000000180024078     IndividualRecognition.obj
 0002:000010a0       ??_C@_1CE@HLHNCBPM@?$AAH?$AAK?$AAE?$AAY?$AA_?$AAC?$AAU?$AAR?$AAR?$AAE?$AAN?$AAT?$AA_?$AAU?$AAS@ 00000001800240a0     IndividualRecognition.obj
 0002:000010c8       ??_C@_1CG@GFBEANJL@?$AAH?$AAK?$AAE?$AAY?$AA_?$AAL?$AAO?$AAC?$AAA?$AAL?$AA_?$AAM?$AAA?$AAC?$AAH@ 00000001800240c8     IndividualRecognition.obj
 0002:000010f0       ??_C@_1BG@BGODANIO@?$AAH?$AAK?$AAE?$AAY?$AA_?$AAU?$AAS?$AAE?$AAR?$AAS@ 00000001800240f0     IndividualRecognition.obj
 0002:00001108       ??_C@_1CM@KHNNAOIC@?$AAH?$AAK?$AAE?$AAY?$AA_?$AAP?$AAE?$AAR?$AAF?$AAO?$AAR?$AAM?$AAA?$AAN?$AAC@ 0000000180024108     IndividualRecognition.obj
 0002:00001138       _GUID_3af24292_0c96_11ce_a0cf_00aa00600ab8 0000000180024138     IndividualRecognition.obj
 0002:00001148       ??_C@_1BM@HAGMMHIA@?$AAH?$AAK?$AAE?$AAY?$AA_?$AAD?$AAY?$AAN?$AA_?$AAD?$AAA?$AAT?$AAA@ 0000000180024148     IndividualRecognition.obj
 0002:00001168       ??_C@_1CI@BBJOACGG@?$AAH?$AAK?$AAE?$AAY?$AA_?$AAC?$AAU?$AAR?$AAR?$AAE?$AAN?$AAT?$AA_?$AAC?$AAO@ 0000000180024168     IndividualRecognition.obj
 0002:00001190       _GUID_00000127_0000_0000_c000_000000000046 0000000180024190     IndividualRecognition.obj
 0002:000011a0       _GUID_0000010d_0000_0000_c000_000000000046 00000001800241a0     IndividualRecognition.obj
 0002:000011b0       _GUID_00000109_0000_0000_c000_000000000046 00000001800241b0     IndividualRecognition.obj
 0002:000011c0       _GUID_7fd52380_4e07_101b_ae2d_08002b2ec713 00000001800241c0     IndividualRecognition.obj
 0002:000011d0       ??_C@_1M@PPPPCDEP@?$AAA?$AAP?$AAP?$AAI?$AAD@ 00000001800241d0     IndividualRecognition.obj
 0002:000011e0       ??_C@_1EA@NHKLICFA@?$AAH?$AAK?$AAC?$AAU?$AA?$AN?$AA?6?$AA?$HL?$AA?7?$AAS?$AAo?$AAf?$AAt?$AAw?$AAa?$AAr@ 00000001800241e0     IndividualRecognition.obj
 0002:00001220       ??_C@_1BE@LJOLIMEM@?$AA?$AN?$AA?6?$AA?7?$AA?$HN?$AA?$AN?$AA?6?$AA?$HN?$AA?$AN?$AA?6@ 0000000180024220     IndividualRecognition.obj
 0002:00001238       ??_7?$CComContainedObject@VCOPOSIndividualRecognition@@@ATL@@6B?$IDispatchImpl@UIOPOSIndividualRecognition@@$1?IID_IOPOSIndividualRecognition@@3U_GUID@@B$1?LIBID_OposIndividualRecognition_CCO@@3U3@B$00$0A@VCComTypeInfoHolder@ATL@@@1@@ 0000000180024238     IndividualRecognition.obj
 0002:00001428       ??_7?$CComContainedObject@VCOPOSIndividualRecognition@@@ATL@@6BCComControlBase@1@@ 0000000180024428     IndividualRecognition.obj
 0002:00001450       ??_7?$CComContainedObject@VCOPOSIndividualRecognition@@@ATL@@6B?$CWindowImpl@VCOPOSIndividualRecognition@@VCWindow@ATL@@V?$CWinTraits@$0FGAAAAAA@$0A@@3@@1@@ 0000000180024450     IndividualRecognition.obj
 0002:00001470       ??_7?$CComContainedObject@VCOPOSIndividualRecognition@@@ATL@@6B?$IPersistStreamInitImpl@VCOPOSIndividualRecognition@@@1@@ 0000000180024470     IndividualRecognition.obj
 0002:000014b8       ??_7?$CComContainedObject@VCOPOSIndividualRecognition@@@ATL@@6B?$IOleControlImpl@VCOPOSIndividualRecognition@@@1@@ 00000001800244b8     IndividualRecognition.obj
 0002:000014f0       ??_7?$CComContainedObject@VCOPOSIndividualRecognition@@@ATL@@6B?$IOleObjectImpl@VCOPOSIndividualRecognition@@@1@@ 00000001800244f0     IndividualRecognition.obj
 0002:000015b0       ??_7?$CComContainedObject@VCOPOSIndividualRecognition@@@ATL@@6B?$IOleInPlaceActiveObjectImpl@VCOPOSIndividualRecognition@@@1@@ 00000001800245b0     IndividualRecognition.obj
 0002:00001600       ??_7?$CComContainedObject@VCOPOSIndividualRecognition@@@ATL@@6B?$IViewObjectExImpl@VCOPOSIndividualRecognition@@@1@@ 0000000180024600     IndividualRecognition.obj
 0002:00001678       ??_7?$CComContainedObject@VCOPOSIndividualRecognition@@@ATL@@6B?$IOleInPlaceObjectWindowlessImpl@VCOPOSIndividualRecognition@@@1@@ 0000000180024678     IndividualRecognition.obj
 0002:000016d0       ??_7?$CComContainedObject@VCOPOSIndividualRecognition@@@ATL@@6B?$IConnectionPointContainerImpl@VCOPOSIndividualRecognition@@@1@@ 00000001800246d0     IndividualRecognition.obj
 0002:000016f8       ??_7?$CComContainedObject@VCOPOSIndividualRecognition@@@ATL@@6B?$IPersistStorageImpl@VCOPOSIndividualRecognition@@@1@@ 00000001800246f8     IndividualRecognition.obj
 0002:00001748       ??_7?$CComContainedObject@VCOPOSIndividualRecognition@@@ATL@@6B?$ISpecifyPropertyPagesImpl@VCOPOSIndividualRecognition@@@1@@ 0000000180024748     IndividualRecognition.obj
 0002:00001768       ??_7?$CComContainedObject@VCOPOSIndividualRecognition@@@ATL@@6B?$IQuickActivateImpl@VCOPOSIndividualRecognition@@@1@@ 0000000180024768     IndividualRecognition.obj
 0002:00001798       ??_7?$CComContainedObject@VCOPOSIndividualRecognition@@@ATL@@6B?$IDataObjectImpl@VCOPOSIndividualRecognition@@@1@@ 0000000180024798     IndividualRecognition.obj
 0002:000017f8       ??_7?$CComContainedObject@VCOPOSIndividualRecognition@@@ATL@@6B?$IProvideClassInfo2Impl@$1?CLSID_OPOSIndividualRecognition@@3U_GUID@@B$1?DIID__IOPOSIndividualRecognitionEvents@@3U2@B$1?LIBID_OposIndividualRecognition_CCO@@3U2@B$00$0A@VCComTypeInfoHolder@ATL@@@1@@ 00000001800247f8     IndividualRecognition.obj
 0002:00001820       ??_7?$CComContainedObject@VCOPOSIndividualRecognition@@@ATL@@6B?$IObjectSafetyImpl@VCOPOSIndividualRecognition@@$02@1@@ 0000000180024820     IndividualRecognition.obj
 0002:00001850       ??_7?$CComContainedObject@VCOPOSIndividualRecognition@@@ATL@@6B?$IPropertyNotifySinkCP@VCOPOSIndividualRecognition@@VCComDynamicUnkArray@ATL@@@1@@ 0000000180024850     IndividualRecognition.obj
 0002:00001890       ??_7?$CComContainedObject@VCOPOSIndividualRecognition@@@ATL@@6B?$CProxy_IOPOSEvents@VCOPOSIndividualRecognition@@@@@ 0000000180024890     IndividualRecognition.obj
 0002:000018d0       ??_7?$CComAggObject@VCOPOSIndividualRecognition@@@ATL@@6B@ 00000001800248d0     IndividualRecognition.obj
 0002:000018f0       ??_C@_1O@MNLDABAF@?$AAM?$AAo?$AAd?$AAu?$AAl?$AAe@ 00000001800248f0     IndividualRecognition.obj
 0002:00001900       ??_C@_1BG@JBACFMF@?$AAM?$AAo?$AAd?$AAu?$AAl?$AAe?$AA_?$AAR?$AAa?$AAw@ 0000000180024900     IndividualRecognition.obj
 0002:00001918       ??_C@_1BC@KAILKFFG@?$AAR?$AAE?$AAG?$AAI?$AAS?$AAT?$AAR?$AAY@ 0000000180024918     IndividualRecognition.obj
 0002:00001930       ??_7?$CComObject@VCOPOSIndividualRecognition@@@ATL@@6B?$IDispatchImpl@UIOPOSIndividualRecognition@@$1?IID_IOPOSIndividualRecognition@@3U_GUID@@B$1?LIBID_OposIndividualRecognition_CCO@@3U3@B$00$0A@VCComTypeInfoHolder@ATL@@@1@@ 0000000180024930     IndividualRecognition.obj
 0002:00001b20       ??_7?$CComObject@VCOPOSIndividualRecognition@@@ATL@@6BCComControlBase@1@@ 0000000180024b20     IndividualRecognition.obj
 0002:00001b48       ??_7?$CComObject@VCOPOSIndividualRecognition@@@ATL@@6B?$CWindowImpl@VCOPOSIndividualRecognition@@VCWindow@ATL@@V?$CWinTraits@$0FGAAAAAA@$0A@@3@@1@@ 0000000180024b48     IndividualRecognition.obj
 0002:00001b68       ??_7?$CComObject@VCOPOSIndividualRecognition@@@ATL@@6B?$IPersistStreamInitImpl@VCOPOSIndividualRecognition@@@1@@ 0000000180024b68     IndividualRecognition.obj
 0002:00001bb0       ??_7?$CComObject@VCOPOSIndividualRecognition@@@ATL@@6B?$IOleControlImpl@VCOPOSIndividualRecognition@@@1@@ 0000000180024bb0     IndividualRecognition.obj
 0002:00001be8       ??_7?$CComObject@VCOPOSIndividualRecognition@@@ATL@@6B?$IOleObjectImpl@VCOPOSIndividualRecognition@@@1@@ 0000000180024be8     IndividualRecognition.obj
 0002:00001ca8       ??_7?$CComObject@VCOPOSIndividualRecognition@@@ATL@@6B?$IOleInPlaceActiveObjectImpl@VCOPOSIndividualRecognition@@@1@@ 0000000180024ca8     IndividualRecognition.obj
 0002:00001cf8       ??_7?$CComObject@VCOPOSIndividualRecognition@@@ATL@@6B?$IViewObjectExImpl@VCOPOSIndividualRecognition@@@1@@ 0000000180024cf8     IndividualRecognition.obj
 0002:00001d70       ??_7?$CComObject@VCOPOSIndividualRecognition@@@ATL@@6B?$IOleInPlaceObjectWindowlessImpl@VCOPOSIndividualRecognition@@@1@@ 0000000180024d70     IndividualRecognition.obj
 0002:00001dc8       ??_7?$CComObject@VCOPOSIndividualRecognition@@@ATL@@6B?$IConnectionPointContainerImpl@VCOPOSIndividualRecognition@@@1@@ 0000000180024dc8     IndividualRecognition.obj
 0002:00001df0       ??_7?$CComObject@VCOPOSIndividualRecognition@@@ATL@@6B?$IPersistStorageImpl@VCOPOSIndividualRecognition@@@1@@ 0000000180024df0     IndividualRecognition.obj
 0002:00001e40       ??_7?$CComObject@VCOPOSIndividualRecognition@@@ATL@@6B?$ISpecifyPropertyPagesImpl@VCOPOSIndividualRecognition@@@1@@ 0000000180024e40     IndividualRecognition.obj
 0002:00001e60       ??_7?$CComObject@VCOPOSIndividualRecognition@@@ATL@@6B?$IQuickActivateImpl@VCOPOSIndividualRecognition@@@1@@ 0000000180024e60     IndividualRecognition.obj
 0002:00001e90       ??_7?$CComObject@VCOPOSIndividualRecognition@@@ATL@@6B?$IDataObjectImpl@VCOPOSIndividualRecognition@@@1@@ 0000000180024e90     IndividualRecognition.obj
 0002:00001ef0       ??_7?$CComObject@VCOPOSIndividualRecognition@@@ATL@@6B?$IProvideClassInfo2Impl@$1?CLSID_OPOSIndividualRecognition@@3U_GUID@@B$1?DIID__IOPOSIndividualRecognitionEvents@@3U2@B$1?LIBID_OposIndividualRecognition_CCO@@3U2@B$00$0A@VCComTypeInfoHolder@ATL@@@1@@ 0000000180024ef0     IndividualRecognition.obj
 0002:00001f18       ??_7?$CComObject@VCOPOSIndividualRecognition@@@ATL@@6B?$IObjectSafetyImpl@VCOPOSIndividualRecognition@@$02@1@@ 0000000180024f18     IndividualRecognition.obj
 0002:00001f48       ??_7?$CComObject@VCOPOSIndividualRecognition@@@ATL@@6B?$IPropertyNotifySinkCP@VCOPOSIndividualRecognition@@VCComDynamicUnkArray@ATL@@@1@@ 0000000180024f48     IndividualRecognition.obj
 0002:00001f88       ??_7?$CComObject@VCOPOSIndividualRecognition@@@ATL@@6B?$CProxy_IOPOSEvents@VCOPOSIndividualRecognition@@@@@ 0000000180024f88     IndividualRecognition.obj
 0002:00001fc8       ??_C@_1O@GBFKGNEO@?$AAA?$AAT?$AAL?$AA?3?$AA?$CF?$AAp@ 0000000180024fc8     IndividualRecognition.obj
 0002:00001fd8       ??_C@_1BA@PICGEGJB@?$AAD?$AAI?$AAS?$AAP?$AAL?$AAA?$AAY@ 0000000180024fd8     IndividualRecognition.obj
 0002:00001fe8       _GUID_9bfbbc02_eff1_101a_84ed_00aa00341d07 0000000180024fe8     IndividualRecognition.obj
 0002:00001ff8       ?_entries@?1??_GetEntries@?$CComEnum@UIEnumConnectionPoints@@$1?_GUID_b196b285_bab4_101a_b69c_00aa00341d07@@3U__s_GUID@@BPEAUIConnectionPoint@@V?$_CopyInterface@UIConnectionPoint@@@ATL@@VCComSingleThreadModel@6@@ATL@@SAPEBU_ATL_INTMAP_ENTRY@3@XZ@4QBU43@B 0000000180024ff8     IndividualRecognition.obj
 0002:00002028       _GUID_b196b284_bab4_101a_b69c_00aa00341d07 0000000180025028     IndividualRecognition.obj
 0002:00002038       _GUID_00020412_0000_0000_c000_000000000046 0000000180025038     IndividualRecognition.obj
 0002:00002048       _GUID_00020401_0000_0000_c000_000000000046 0000000180025048     IndividualRecognition.obj
 0002:00002058       ??_7?$CComObject@V?$CComEnum@UIEnumConnections@@$1?_GUID_b196b287_bab4_101a_b69c_00aa00341d07@@3U__s_GUID@@BUtagCONNECTDATA@@V?$_Copy@UtagCONNECTDATA@@@ATL@@VCComSingleThreadModel@6@@ATL@@@ATL@@6B@ 0000000180025058     IndividualRecognition.obj
 0002:00002098       _GUID_55980ba0_35aa_11cf_b671_00aa004cd6d8 0000000180025098     IndividualRecognition.obj
 0002:000020a8       _GUID_b196b28b_bab4_101a_b69c_00aa00341d07 00000001800250a8     IndividualRecognition.obj
 0002:000020b8       ?_entries@?1??_GetEntries@?$CComEnum@UIEnumConnections@@$1?_GUID_b196b287_bab4_101a_b69c_00aa00341d07@@3U__s_GUID@@BUtagCONNECTDATA@@V?$_Copy@UtagCONNECTDATA@@@ATL@@VCComSingleThreadModel@6@@ATL@@SAPEBU_ATL_INTMAP_ENTRY@3@XZ@4QBU43@B 00000001800250b8     IndividualRecognition.obj
 0002:000020e8       ??_7CComClassFactory@ATL@@6B@ 00000001800250e8     IndividualRecognition.obj
 0002:00002118       ?_entries@?1??_GetEntries@CComClassFactory@ATL@@SAPEBU_ATL_INTMAP_ENTRY@3@XZ@4QBU43@B 0000000180025118     IndividualRecognition.obj
 0002:00002148       _GUID_00000001_0000_0000_c000_000000000046 0000000180025148     IndividualRecognition.obj
 0002:00002158       ??_C@_0BG@EKFFMJIO@RegOpenKeyTransactedW@ 0000000180025158     IndividualRecognition.obj
 0002:00002170       ??_C@_0BI@HAKLOOGP@RegDeleteKeyTransactedW@ 0000000180025170     IndividualRecognition.obj
 0002:00002188       ??_C@_0BA@LILAPHGE@RegDeleteKeyExW@ 0000000180025188     IndividualRecognition.obj
 0002:00002198       ??_C@_19ILOCMLCJ@?$AA?4?$AAt?$AAl?$AAb@ 0000000180025198     IndividualRecognition.obj
 0002:000021a8       _GUID_0002e012_0000_0000_c000_000000000046 00000001800251a8     IndividualRecognition.obj
 0002:000021b8       ??_C@_1O@FHBGLCIO@?$AAC?$AAL?$AAS?$AAI?$AAD?$AA?2@ 00000001800251b8     IndividualRecognition.obj
 0002:000021c8       ??_C@_1CK@IFBKBFAA@?$AA?2?$AAR?$AAe?$AAq?$AAu?$AAi?$AAr?$AAe?$AAd?$AA?5?$AAC?$AAa?$AAt?$AAe?$AAg@ 00000001800251c8     IndividualRecognition.obj
 0002:000021f8       ??_C@_1DA@BIHALFED@?$AA?2?$AAI?$AAm?$AAp?$AAl?$AAe?$AAm?$AAe?$AAn?$AAt?$AAe?$AAd?$AA?5?$AAC?$AAa@ 00000001800251f8     IndividualRecognition.obj
 0002:00002228       ??_C@_1BK@EDKOLFBJ@?$AAO?$AAL?$AAE?$AAA?$AAU?$AAT?$AA3?$AA2?$AA?4?$AAD?$AAL?$AAL@ 0000000180025228     IndividualRecognition.obj
 0002:00002248       ??_C@_0BJ@CNLFOMHB@UnRegisterTypeLibForUser@ 0000000180025248     IndividualRecognition.obj
 0002:00002268       ??_C@_0BH@LBOMMKPJ@RegisterTypeLibForUser@ 0000000180025268     IndividualRecognition.obj
 0002:00002280       ??_C@_0P@MMNMMLGK@COFreezeEvents@ 0000000180025280     IndividualRecognitionImpl.obj
 0002:00002290       ??_C@_0BC@OGCGGIMP@GetPropertyNumber@ 0000000180025290     IndividualRecognitionImpl.obj
 0002:000022a8       ??_C@_0BC@MDCNODNB@SetPropertyNumber@ 00000001800252a8     IndividualRecognitionImpl.obj
 0002:000022c0       ??_C@_0BC@CFCCMIMD@GetPropertyString@ 00000001800252c0     IndividualRecognitionImpl.obj
 0002:000022d8       ??_C@_0BC@CJEDNN@SetPropertyString@ 00000001800252d8     IndividualRecognitionImpl.obj
 0002:000022f0       ??_C@_0M@LNPKKKDA@OpenService@ 00000001800252f0     IndividualRecognitionImpl.obj
 0002:00002300       ??_C@_0M@PCMCHHMH@CheckHealth@ 0000000180025300     IndividualRecognitionImpl.obj
 0002:00002310       ??_C@_0M@JGMIDNEK@ClaimDevice@ 0000000180025310     IndividualRecognitionImpl.obj
 0002:00002320       ??_C@_0L@BNEIFEJC@ClearInput@ 0000000180025320     IndividualRecognitionImpl.obj
 0002:00002330       ??_C@_0N@DDFIIBMP@CloseService@ 0000000180025330     IndividualRecognitionImpl.obj
 0002:00002340       ??_C@_08EEIHICPC@DirectIO@ 0000000180025340     IndividualRecognitionImpl.obj
 0002:00002350       ??_C@_0O@BCPMENMJ@ReleaseDevice@ 0000000180025350     IndividualRecognitionImpl.obj
 0002:00002360       ??_C@_0BA@GFABKEEE@ResetStatistics@ 0000000180025360     IndividualRecognitionImpl.obj
 0002:00002370       ??_C@_0BD@DPALHJGC@RetrieveStatistics@ 0000000180025370     IndividualRecognitionImpl.obj
 0002:00002388       ??_C@_0BB@KOHIKNFC@UpdateStatistics@ 0000000180025388     IndividualRecognitionImpl.obj
 0002:000023a0       ??_C@_0BH@PBKBNMGB@CompareFirmwareVersion@ 00000001800253a0     IndividualRecognitionImpl.obj
 0002:000023b8       ??_C@_0P@FBPDPIPA@UpdateFirmware@ 00000001800253b8     IndividualRecognitionImpl.obj
 0002:000023c8       ??_C@_0BF@CMAPCJGM@ClearInputProperties@ 00000001800253c8     IndividualRecognitionImpl.obj
 0002:000023e0       ??_7?$CProxy_IOPOSEvents@VCOPOSIndividualRecognition@@@@6B@ 00000001800253e0     IndividualRecognitionImpl.obj
 0002:00002420       ??_C@_1BA@IFHENID@?$AA?$FL?$AAE?$AAr?$AAr?$AAo?$AAr?$AA?$FN@ 0000000180025420     IndividualRecognitionImpl.obj
 0002:00002430       ??_C@_0DI@BFKIGIJJ@SOFTWARE?2OLEforRetail?2ServiceOP@ 0000000180025430     IndividualRecognitionImpl.obj
 0002:00002468       ??_C@_1M@IAIJHCCH@?$AAC?$AAl?$AAo?$AAs?$AAe@ 0000000180025468     IndividualRecognitionImpl.obj
 0002:00002478       ??_C@_1M@PCPKGJAH@?$AAC?$AAl?$AAa?$AAi?$AAm@ 0000000180025478     IndividualRecognitionImpl.obj
 0002:00002488       ??_C@_1BA@NDFKIOCP@?$AAR?$AAe?$AAl?$AAe?$AAa?$AAs?$AAe@ 0000000180025488     IndividualRecognitionImpl.obj
 0002:00002498       ??_C@_0BG@ELFIPPDC@IndividualRecognition@ 0000000180025498     IndividualRecognitionImpl.obj
 0002:000024b0       ??_C@_1BM@IJMNMBPK@?$AAG?$AAe?$AAt?$AAO?$AAp?$AAe?$AAn?$AAR?$AAe?$AAs?$AAu?$AAl?$AAt@ 00000001800254b0     IndividualRecognitionImpl.obj
 0002:000024d0       IID_IDispatch              00000001800254d0     uuid:oaidl_i.obj
 0002:000024e0       IID_IPropertyNotifySink    00000001800254e0     uuid:ocidl_i.obj
 0002:000024f0       GUID_NULL                  00000001800254f0     uuid:cguid_i.obj
 0002:00002500       CLSID_StdGlobalInterfaceTable 0000000180025500     uuid:cguid_i.obj
 0002:00002510       CLSID_StdComponentCategoriesMgr 0000000180025510     uuid:ieguids.obj
 0002:00002520       IID_IUnknown               0000000180025520     uuid:unknwn_i.obj
 0002:00002530       __xmm@ffffffffffffffffffffffffffffffff 0000000180025530     LIBCMT:utility.obj
 0002:00002540       ??_C@_1EC@JIJBPKFM@?$AAa?$AAp?$AAi?$AA?9?$AAm?$AAs?$AA?9?$AAw?$AAi?$AAn?$AA?9?$AAc?$AAo?$AAr?$AAe@ 0000000180025540     LIBCMT:thread_safe_statics.obj
 0002:00002588       ??_C@_1BK@MGMFAEKH@?$AAk?$AAe?$AAr?$AAn?$AAe?$AAl?$AA3?$AA2?$AA?4?$AAd?$AAl?$AAl@ 0000000180025588     LIBCMT:thread_safe_statics.obj
 0002:000025a8       ??_C@_0BJ@JEBJOJFJ@SleepConditionVariableCS@ 00000001800255a8     LIBCMT:thread_safe_statics.obj
 0002:000025c8       ??_C@_0BJ@PGPPEPCC@WakeAllConditionVariable@ 00000001800255c8     LIBCMT:thread_safe_statics.obj
 0002:000025e1       ?nothrow@std@@3Unothrow_t@1@B 00000001800255e1     LIBCMT:std_nothrow.obj
 0002:000025f8       _pDefaultRawDllMain        00000001800255f8     LIBCMT:dll_dllmain.obj
 0002:000025f8       _pRawDllMain               00000001800255f8     LIBCMT:dll_dllmain.obj
 0002:00002608       ??_7exception@std@@6B@     0000000180025608     LIBCMT:throw_bad_alloc.obj
 0002:00002618       ??_C@_0BC@EOODALEL@Unknown?5exception@ 0000000180025618     LIBCMT:throw_bad_alloc.obj
 0002:00002638       ??_7bad_alloc@std@@6B@     0000000180025638     LIBCMT:throw_bad_alloc.obj
 0002:00002648       ??_C@_0P@GHFPNOJB@bad?5allocation@ 0000000180025648     LIBCMT:throw_bad_alloc.obj
 0002:00002660       ??_7bad_array_new_length@std@@6B@ 0000000180025660     LIBCMT:throw_bad_alloc.obj
 0002:00002670       ??_C@_0BF@KINCDENJ@bad?5array?5new?5length@ 0000000180025670     LIBCMT:throw_bad_alloc.obj
 0002:00002690       ??_7type_info@@6B@         0000000180025690     LIBCMT:std_type_info_static.obj
 0002:00002698       GUID_ATLVer110             0000000180025698     atls:atlbase.obj
 0002:000026b0       ??_C@_1IC@ONKHOIDK@?$AAE?$AAR?$AAR?$AAO?$AAR?$AA?5?$AA?3?$AA?5?$AAU?$AAn?$AAa?$AAb?$AAl?$AAe?$AA?5@ 00000001800256b0     atls:atlbase.obj
 0002:00002738       ??_C@_0N@FJEPLCIH@atlthunk?4dll@ 0000000180025738     atls:atlthunk.obj
 0002:00002748       ??_C@_0BG@GAKFHCBM@AtlThunk_AllocateData@ 0000000180025748     atls:atlthunk.obj
 0002:00002760       ??_C@_0BC@JKONFIAH@AtlThunk_InitData@ 0000000180025760     atls:atlthunk.obj
 0002:00002778       ??_C@_0BE@IAOEELAK@AtlThunk_DataToCode@ 0000000180025778     atls:atlthunk.obj
 0002:00002790       ??_C@_0BC@GBGKAIPI@AtlThunk_FreeData@ 0000000180025790     atls:atlthunk.obj
 0002:000027a8       ?s_negLengthTab@FH4@@3QBCB 00000001800257a8     libvcruntime:risctrnsctrl.obj
 0002:000027b8       ?s_shiftTab@FH4@@3QBEB     00000001800257b8     libvcruntime:risctrnsctrl.obj
 0002:00002868       _pDestructExceptionObject  0000000180025868     libvcruntime:ehhelpers.obj
 0002:00002878       ??_7bad_exception@std@@6B@ 0000000180025878     libvcruntime:frame.obj
 0002:00002888       ??_C@_0O@DPKOEFFH@bad?5exception@ 0000000180025888     libvcruntime:frame.obj
 0002:00002fa0       ??_C@_08EHJDFFNH@__based?$CI@ 0000000180025fa0     libvcruntime:undname.obj
 0002:00002fb0       ??_C@_07KOLFKCDI@__cdecl@  0000000180025fb0     libvcruntime:undname.obj
 0002:00002fb8       ??_C@_08GHMPAG@__pascal@   0000000180025fb8     libvcruntime:undname.obj
 0002:00002fc8       ??_C@_09IFJBGAPI@__stdcall@ 0000000180025fc8     libvcruntime:undname.obj
 0002:00002fd8       ??_C@_0L@NPHFGOKO@__thiscall@ 0000000180025fd8     libvcruntime:undname.obj
 0002:00002fe8       ??_C@_0L@JMKHOMEK@__fastcall@ 0000000180025fe8     libvcruntime:undname.obj
 0002:00002ff8       ??_C@_0N@BCKKPABJ@__vectorcall@ 0000000180025ff8     libvcruntime:undname.obj
 0002:00003008       ??_C@_09HIJEGCPM@__clrcall@ 0000000180026008     libvcruntime:undname.obj
 0002:00003014       ??_C@_06GHPCKEAG@__eabi@   0000000180026014     libvcruntime:undname.obj
 0002:00003020       ??_C@_09IOPIDJLG@__swift_1@ 0000000180026020     libvcruntime:undname.obj
 0002:00003030       ??_C@_09KFNFGKHF@__swift_2@ 0000000180026030     libvcruntime:undname.obj
 0002:00003040       ??_C@_07JOMMBBKO@__ptr64@  0000000180026040     libvcruntime:undname.obj
 0002:00003048       ??_C@_0L@PILCLIHE@__restrict@ 0000000180026048     libvcruntime:undname.obj
 0002:00003058       ??_C@_0M@GFIIJFMG@__unaligned@ 0000000180026058     libvcruntime:undname.obj
 0002:00003068       ??_C@_09DHDLOLLB@restrict?$CI@ 0000000180026068     libvcruntime:undname.obj
 0002:00003072       ??_C@_00CNPNBAHC@@         0000000180026072     libvcruntime:undname.obj
 0002:00003074       ??_C@_04NIHEBCM@?5new@     0000000180026074     libvcruntime:undname.obj
 0002:00003080       ??_C@_07FPCDHGMM@?5delete@ 0000000180026080     libvcruntime:undname.obj
 0002:00003088       ??_C@_01NEMOKFLO@?$DN@     0000000180026088     libvcruntime:undname.obj
 0002:0000308c       ??_C@_02GPIOPFAK@?$DO?$DO@ 000000018002608c     libvcruntime:undname.obj
 0002:00003090       ??_C@_02FODMEDOG@?$DM?$DM@ 0000000180026090     libvcruntime:undname.obj
 0002:00003094       ??_C@_01DCLJPIOD@?$CB@     0000000180026094     libvcruntime:undname.obj
 0002:00003098       ??_C@_02EGOFBIJA@?$DN?$DN@ 0000000180026098     libvcruntime:undname.obj
 0002:0000309c       ??_C@_02FDNJECIE@?$CB?$DN@ 000000018002609c     libvcruntime:undname.obj
 0002:000030a0       ??_C@_02GPECMEKF@?$FL?$FN@ 00000001800260a0     libvcruntime:undname.obj
 0002:000030a8       ??_C@_08LHJFAFGD@operator@ 00000001800260a8     libvcruntime:undname.obj
 0002:000030b4       ??_C@_02HBOOOICD@?9?$DO@   00000001800260b4     libvcruntime:undname.obj
 0002:000030b8       ??_C@_01NBENCBCI@?$CK@     00000001800260b8     libvcruntime:undname.obj
 0002:000030bc       ??_C@_02ECNGHCIF@?$CL?$CL@ 00000001800260bc     libvcruntime:undname.obj
 0002:000030c0       ??_C@_02BAABKJLB@?9?9@     00000001800260c0     libvcruntime:undname.obj
 0002:000030c4       ??_C@_01JOAMLHOP@?9@       00000001800260c4     libvcruntime:undname.obj
 0002:000030c8       ??_C@_01MIFGBAGJ@?$CL@     00000001800260c8     libvcruntime:undname.obj
 0002:000030cc       ??_C@_01HNPIGOCE@?$CG@     00000001800260cc     libvcruntime:undname.obj
 0002:000030d0       ??_C@_03MNHNFDLC@?9?$DO?$CK@ 00000001800260d0     libvcruntime:undname.obj
 0002:000030d4       ??_C@_01KMDKNFGN@?1@       00000001800260d4     libvcruntime:undname.obj
 0002:000030d8       ??_C@_01FGNFDNOH@?$CF@     00000001800260d8     libvcruntime:undname.obj
 0002:000030dc       ??_C@_01MNNFJEPP@?$DM@     00000001800260dc     libvcruntime:undname.obj
 0002:000030e0       ??_C@_02EHCHHCKH@?$DM?$DN@ 00000001800260e0     libvcruntime:undname.obj
 0002:000030e4       ??_C@_01PPODPGHN@?$DO@     00000001800260e4     libvcruntime:undname.obj
 0002:000030e8       ??_C@_02EEKDKGMJ@?$DO?$DN@ 00000001800260e8     libvcruntime:undname.obj
 0002:000030ec       ??_C@_01IHBHIGKO@?0@       00000001800260ec     libvcruntime:undname.obj
 0002:000030f0       ??_C@_02HCKGKOFO@?$CI?$CJ@ 00000001800260f0     libvcruntime:undname.obj
 0002:000030f4       ??_C@_01PJKLJHI@?$HO@      00000001800260f4     libvcruntime:undname.obj
 0002:000030f8       ??_C@_01JKBOJNNK@?$FO@     00000001800260f8     libvcruntime:undname.obj
 0002:000030fc       ??_C@_01DNKMNLPK@?$HM@     00000001800260fc     libvcruntime:undname.obj
 0002:00003100       ??_C@_02PPKAJPJL@?$CG?$CG@ 0000000180026100     libvcruntime:undname.obj
 0002:00003104       ??_C@_02NONPIBCD@?$HM?$HM@ 0000000180026104     libvcruntime:undname.obj
 0002:00003108       ??_C@_02FPIMKNGF@?$CK?$DN@ 0000000180026108     libvcruntime:undname.obj
 0002:0000310c       ??_C@_02FOEOMHFC@?$CL?$DN@ 000000018002610c     libvcruntime:undname.obj
 0002:00003110       ??_C@_02FKMDLLOA@?9?$DN@   0000000180026110     libvcruntime:undname.obj
 0002:00003114       ??_C@_02FJEHGPIO@?1?$DN@   0000000180026114     libvcruntime:undname.obj
 0002:00003118       ??_C@_02FENAOKFI@?$CF?$DN@ 0000000180026118     libvcruntime:undname.obj
 0002:0000311c       ??_C@_03IKFCCPFF@?$DO?$DO?$DN@ 000000018002611c     libvcruntime:undname.obj
 0002:00003120       ??_C@_03CDNPDDLA@?$DM?$DM?$DN@ 0000000180026120     libvcruntime:undname.obj
 0002:00003124       ??_C@_02FGJGFEAB@?$CG?$DN@ 0000000180026124     libvcruntime:undname.obj
 0002:00003128       ??_C@_02DHLNPPGH@?$HM?$DN@ 0000000180026128     libvcruntime:undname.obj
 0002:0000312c       ??_C@_02MHEGNOJ@?$FO?$DN@  000000018002612c     libvcruntime:undname.obj
 0002:00003130       ??_C@_09IFPLHPGF@?$GAvftable?8@ 0000000180026130     libvcruntime:undname.obj
 0002:00003140       ??_C@_09BLBHBJP@?$GAvbtable?8@ 0000000180026140     libvcruntime:undname.obj
 0002:00003150       ??_C@_07FEEIOKP@?$GAvcall?8@ 0000000180026150     libvcruntime:undname.obj
 0002:00003158       ??_C@_08LLFFHHDJ@?$GAtypeof?8@ 0000000180026158     libvcruntime:undname.obj
 0002:00003168       ??_C@_0BF@KDPPACIK@?$GAlocal?5static?5guard?8@ 0000000180026168     libvcruntime:undname.obj
 0002:00003180       ??_C@_08OBABFOLI@?$GAstring?8@ 0000000180026180     libvcruntime:undname.obj
 0002:00003190       ??_C@_0BD@JDLKDPAB@?$GAvbase?5destructor?8@ 0000000180026190     libvcruntime:undname.obj
 0002:000031a8       ??_C@_0BN@DEGPLNFK@?$GAvector?5deleting?5destructor?8@ 00000001800261a8     libvcruntime:undname.obj
 0002:000031c8       ??_C@_0BO@OBMKPJIG@?$GAdefault?5constructor?5closure?8@ 00000001800261c8     libvcruntime:undname.obj
 0002:000031e8       ??_C@_0BN@IMDCHIKM@?$GAscalar?5deleting?5destructor?8@ 00000001800261e8     libvcruntime:undname.obj
 0002:00003208       ??_C@_0BO@PFGOCPJJ@?$GAvector?5constructor?5iterator?8@ 0000000180026208     libvcruntime:undname.obj
 0002:00003228       ??_C@_0BN@LFPFMEDL@?$GAvector?5destructor?5iterator?8@ 0000000180026228     libvcruntime:undname.obj
 0002:00003248       ??_C@_0CE@IKBNEHA@?$GAvector?5vbase?5constructor?5itera@ 0000000180026248     libvcruntime:undname.obj
 0002:00003270       ??_C@_0BL@NILFHHPC@?$GAvirtual?5displacement?5map?8@ 0000000180026270     libvcruntime:undname.obj
 0002:00003290       ??_C@_0CB@JONCMFFK@?$GAeh?5vector?5constructor?5iterator@ 0000000180026290     libvcruntime:undname.obj
 0002:000032b8       ??_C@_0CA@GCEOPDGL@?$GAeh?5vector?5destructor?5iterator?8@ 00000001800262b8     libvcruntime:undname.obj
 0002:000032d8       ??_C@_0CH@OOJPLCPH@?$GAeh?5vector?5vbase?5constructor?5it@ 00000001800262d8     libvcruntime:undname.obj
 0002:00003300       ??_C@_0BL@LLKPOHJI@?$GAcopy?5constructor?5closure?8@ 0000000180026300     libvcruntime:undname.obj
 0002:00003320       ??_C@_0BA@KBCDOMBN@?$GAudt?5returning?8@ 0000000180026320     libvcruntime:undname.obj
 0002:00003330       ??_C@_03KLGMFNMG@?$GAEH@   0000000180026330     libvcruntime:undname.obj
 0002:00003334       ??_C@_05KHLCHHI@?$GARTTI@  0000000180026334     libvcruntime:undname.obj
 0002:00003340       ??_C@_0BA@KKLDJDLB@?$GAlocal?5vftable?8@ 0000000180026340     libvcruntime:undname.obj
 0002:00003350       ??_C@_0CE@IIHCMGGL@?$GAlocal?5vftable?5constructor?5clos@ 0000000180026350     libvcruntime:undname.obj
 0002:00003374       ??_C@_06FHBGPFGH@?5new?$FL?$FN@ 0000000180026374     libvcruntime:undname.obj
 0002:00003380       ??_C@_09LBNFPBCA@?5delete?$FL?$FN@ 0000000180026380     libvcruntime:undname.obj
 0002:00003390       ??_C@_0P@HJKNJFNN@?$GAomni?5callsig?8@ 0000000180026390     libvcruntime:undname.obj
 0002:000033a0       ??_C@_0BL@CNOONJFP@?$GAplacement?5delete?5closure?8@ 00000001800263a0     libvcruntime:undname.obj
 0002:000033c0       ??_C@_0BN@CKNJLHMB@?$GAplacement?5delete?$FL?$FN?5closure?8@ 00000001800263c0     libvcruntime:undname.obj
 0002:000033e0       ??_C@_0CG@CFDHKGGD@?$GAmanaged?5vector?5constructor?5ite@ 00000001800263e0     libvcruntime:undname.obj
 0002:00003408       ??_C@_0CF@IMGKMJNO@?$GAmanaged?5vector?5destructor?5iter@ 0000000180026408     libvcruntime:undname.obj
 0002:00003430       ??_C@_0CG@HLDDJMAG@?$GAeh?5vector?5copy?5constructor?5ite@ 0000000180026430     libvcruntime:undname.obj
 0002:00003458       ??_C@_0CM@FCBBDIGB@?$GAeh?5vector?5vbase?5copy?5construct@ 0000000180026458     libvcruntime:undname.obj
 0002:00003488       ??_C@_0BL@CLIPGLGB@?$GAdynamic?5initializer?5for?5?8@ 0000000180026488     libvcruntime:undname.obj
 0002:000034a8       ??_C@_0CB@PDBIFEP@?$GAdynamic?5atexit?5destructor?5for?5@ 00000001800264a8     libvcruntime:undname.obj
 0002:000034d0       ??_C@_0CD@CGAJBKEJ@?$GAvector?5copy?5constructor?5iterat@ 00000001800264d0     libvcruntime:undname.obj
 0002:000034f8       ??_C@_0CJ@GJELGAMM@?$GAvector?5vbase?5copy?5constructor?5@ 00000001800264f8     libvcruntime:undname.obj
 0002:00003528       ??_C@_0CL@FGIJHLCE@?$GAmanaged?5vector?5copy?5constructo@ 0000000180026528     libvcruntime:undname.obj
 0002:00003558       ??_C@_0BM@PMGGMLDN@?$GAlocal?5static?5thread?5guard?8@ 0000000180026558     libvcruntime:undname.obj
 0002:00003578       ??_C@_0N@BDNMDMOL@operator?5?$CC?$CC?5@ 0000000180026578     libvcruntime:undname.obj
 0002:00003588       ??_C@_0BC@GGEBGALA@operator?5co_await@ 0000000180026588     libvcruntime:undname.obj
 0002:000035a0       ??_C@_0M@GAAIMMOH@operator?$DM?$DN?$DO@ 00000001800265a0     libvcruntime:undname.obj
 0002:000035b0       ??_C@_0BC@DAFEJGAK@?5Type?5Descriptor?8@ 00000001800265b0     libvcruntime:undname.obj
 0002:000035c8       ??_C@_0BM@LDKODKLH@?5Base?5Class?5Descriptor?5at?5?$CI@ 00000001800265c8     libvcruntime:undname.obj
 0002:000035e8       ??_C@_0BD@LGICGFMM@?5Base?5Class?5Array?8@ 00000001800265e8     libvcruntime:undname.obj
 0002:00003600       ??_C@_0BN@MECKDCOJ@?5Class?5Hierarchy?5Descriptor?8@ 0000000180026600     libvcruntime:undname.obj
 0002:00003620       ??_C@_0BK@CFCOFLF@?5Complete?5Object?5Locator?8@ 0000000180026620     libvcruntime:undname.obj
 0002:00003640       ??_C@_0BG@JNJLAMPM@?$GAanonymous?5namespace?8@ 0000000180026640     libvcruntime:undname.obj
 0002:00003670       ??_C@_1DM@KHCHBNEB@?$AAa?$AAp?$AAi?$AA?9?$AAm?$AAs?$AA?9?$AAw?$AAi?$AAn?$AA?9?$AAc?$AAo?$AAr?$AAe@ 0000000180026670     libvcruntime:winapi_downlevel.obj
 0002:000036b0       ??_C@_1DK@LPPGFMPP@?$AAa?$AAp?$AAi?$AA?9?$AAm?$AAs?$AA?9?$AAw?$AAi?$AAn?$AA?9?$AAc?$AAo?$AAr?$AAe@ 00000001800266b0     libvcruntime:winapi_downlevel.obj
 0002:000036f0       ??_C@_1BC@GDMECMAK@?$AAk?$AAe?$AAr?$AAn?$AAe?$AAl?$AA3?$AA2@ 00000001800266f0     libvcruntime:winapi_downlevel.obj
 0002:00003708       ??_C@_1BA@PFFKHIOG@?$AAa?$AAp?$AAi?$AA?9?$AAm?$AAs?$AA?9@ 0000000180026708     libvcruntime:winapi_downlevel.obj
 0002:00003720       ??_C@_08KNHFBNJ@FlsAlloc@  0000000180026720     libvcruntime:winapi_downlevel.obj
 0002:00003738       ??_C@_07PEJMOBNF@FlsFree@  0000000180026738     libvcruntime:winapi_downlevel.obj
 0002:00003748       ??_C@_0M@GDNOONDI@FlsGetValue@ 0000000180026748     libvcruntime:winapi_downlevel.obj
 0002:00003760       ??_C@_0M@JCPCPOEF@FlsSetValue@ 0000000180026760     libvcruntime:winapi_downlevel.obj
 0002:00003778       ??_C@_0BM@HCFOFFN@InitializeCriticalSectionEx@ 0000000180026778     libvcruntime:winapi_downlevel.obj
 0002:00003910       ?format_validation_lookup_table_spectre@__crt_stdio_output@@3V?$spectre_mitigated_lookup_table@Ustate_transition_pair@__crt_stdio_output@@$0IA@@1@B 0000000180026910     libucrt:output.obj
 0002:00003d10       ??_C@_1O@CEDCILHN@?$AA?$CI?$AAn?$AAu?$AAl?$AAl?$AA?$CJ@ 0000000180026d10     libucrt:output.obj
 0002:00003d20       ??_C@_06OJHGLDPL@?$CInull?$CJ@ 0000000180026d20     libucrt:output.obj
 0002:00003d30       __acrt_exception_action_table 0000000180026d30     libucrt:exception_filter.obj
 0002:00003df0       __acrt_signal_action_table_count 0000000180026df0     libucrt:exception_filter.obj
 0002:00003df8       __acrt_signal_action_first_fpe_index 0000000180026df8     libucrt:exception_filter.obj
 0002:00003e00       __acrt_signal_action_fpe_count 0000000180026e00     libucrt:exception_filter.obj
 0002:00003e08       ??_C@_1BI@BGOHAHKC@?$AAm?$AAs?$AAc?$AAo?$AAr?$AAe?$AAe?$AA?4?$AAd?$AAl?$AAl@ 0000000180026e08     libucrt:exit.obj
 0002:00003e20       ??_C@_0P@MIGLKIOC@CorExitProcess@ 0000000180026e20     libucrt:exit.obj
 0002:00003fd0       ??_C@_1EA@JGEFHKEI@?$AAa?$AAp?$AAi?$AA?9?$AAm?$AAs?$AA?9?$AAw?$AAi?$AAn?$AA?9?$AAc?$AAo?$AAr?$AAe@ 0000000180026fd0     libucrt:winapi_thunks.obj
 0002:00004010       ??_C@_1DI@IJCEHOCB@?$AAa?$AAp?$AAi?$AA?9?$AAm?$AAs?$AA?9?$AAw?$AAi?$AAn?$AA?9?$AAc?$AAo?$AAr?$AAe@ 0000000180027010     libucrt:winapi_thunks.obj
 0002:00004050       ??_C@_1EI@MPIAOHOC@?$AAa?$AAp?$AAi?$AA?9?$AAm?$AAs?$AA?9?$AAw?$AAi?$AAn?$AA?9?$AAc?$AAo?$AAr?$AAe@ 0000000180027050     libucrt:winapi_thunks.obj
 0002:000040a0       ??_C@_1FK@FPHCKFIE@?$AAa?$AAp?$AAi?$AA?9?$AAm?$AAs?$AA?9?$AAw?$AAi?$AAn?$AA?9?$AAc?$AAo?$AAr?$AAe@ 00000001800270a0     libucrt:winapi_thunks.obj
 0002:00004100       ??_C@_1EM@DILCGIIO@?$AAa?$AAp?$AAi?$AA?9?$AAm?$AAs?$AA?9?$AAw?$AAi?$AAn?$AA?9?$AAc?$AAo?$AAr?$AAe@ 0000000180027100     libucrt:winapi_thunks.obj
 0002:00004150       ??_C@_1DM@LNCGDDPN@?$AAa?$AAp?$AAi?$AA?9?$AAm?$AAs?$AA?9?$AAw?$AAi?$AAn?$AA?9?$AAc?$AAo?$AAr?$AAe@ 0000000180027150     libucrt:winapi_thunks.obj
 0002:00004190       ??_C@_1DO@FPAPJEMD@?$AAa?$AAp?$AAi?$AA?9?$AAm?$AAs?$AA?9?$AAw?$AAi?$AAn?$AA?9?$AAc?$AAo?$AAr?$AAe@ 0000000180027190     libucrt:winapi_thunks.obj
 0002:000041d0       ??_C@_1DK@NDHNAHIO@?$AAa?$AAp?$AAi?$AA?9?$AAm?$AAs?$AA?9?$AAw?$AAi?$AAn?$AA?9?$AAc?$AAo?$AAr?$AAe@ 00000001800271d0     libucrt:winapi_thunks.obj
 0002:00004210       ??_C@_1DM@KGHDGBCM@?$AAa?$AAp?$AAi?$AA?9?$AAm?$AAs?$AA?9?$AAw?$AAi?$AAn?$AA?9?$AAc?$AAo?$AAr?$AAe@ 0000000180027210     libucrt:winapi_thunks.obj
 0002:00004250       ??_C@_1EO@IJIOEFOH@?$AAa?$AAp?$AAi?$AA?9?$AAm?$AAs?$AA?9?$AAw?$AAi?$AAn?$AA?9?$AAr?$AAt?$AAc?$AAo@ 0000000180027250     libucrt:winapi_thunks.obj
 0002:000042a0       ??_C@_1FG@HHGEKANL@?$AAa?$AAp?$AAi?$AA?9?$AAm?$AAs?$AA?9?$AAw?$AAi?$AAn?$AA?9?$AAs?$AAe?$AAc?$AAu@ 00000001800272a0     libucrt:winapi_thunks.obj
 0002:00004300       ??_C@_1EG@DBIOJECG@?$AAe?$AAx?$AAt?$AA?9?$AAm?$AAs?$AA?9?$AAw?$AAi?$AAn?$AA?9?$AAn?$AAt?$AAu?$AAs@ 0000000180027300     libucrt:winapi_thunks.obj
 0002:00004350       ??_C@_1EO@FIHMJCLF@?$AAe?$AAx?$AAt?$AA?9?$AAm?$AAs?$AA?9?$AAw?$AAi?$AAn?$AA?9?$AAn?$AAt?$AAu?$AAs@ 0000000180027350     libucrt:winapi_thunks.obj
 0002:000043a0       ??_C@_1BC@DNHGCMLG@?$AAa?$AAd?$AAv?$AAa?$AAp?$AAi?$AA3?$AA2@ 00000001800273a0     libucrt:winapi_thunks.obj
 0002:000043b8       ??_C@_1M@OAIMIKLP@?$AAn?$AAt?$AAd?$AAl?$AAl@ 00000001800273b8     libucrt:winapi_thunks.obj
 0002:000043d0       ??_C@_1EG@DPGNFKGC@?$AAa?$AAp?$AAi?$AA?9?$AAm?$AAs?$AA?9?$AAw?$AAi?$AAn?$AA?9?$AAa?$AAp?$AAp?$AAm@ 00000001800273d0     libucrt:winapi_thunks.obj
 0002:00004418       ??_C@_1O@BCCLBEOE@?$AAu?$AAs?$AAe?$AAr?$AA3?$AA2@ 0000000180027418     libucrt:winapi_thunks.obj
 0002:00004428       ??_C@_1BA@IAIFMGEF@?$AAe?$AAx?$AAt?$AA?9?$AAm?$AAs?$AA?9@ 0000000180027428     libucrt:winapi_thunks.obj
 0002:00004440       ??_C@_0BA@FHFNEAED@AreFileApisANSI@ 0000000180027440     libucrt:winapi_thunks.obj
 0002:00004480       ??_C@_0O@KKBNKAPF@LCMapStringEx@ 0000000180027480     libucrt:winapi_thunks.obj
 0002:00004498       ??_C@_0BB@HBDEELFH@LocaleNameToLCID@ 0000000180027498     libucrt:winapi_thunks.obj
 0002:000044b0       ??_C@_0CF@OJOFEIGO@AppPolicyGetProcessTerminationM@ 00000001800274b0     libucrt:winapi_thunks.obj
 0002:000044e0       ??_C@_0BI@BKLFFAPO@SetThreadStackGuarantee@ 00000001800274e0     libucrt:winapi_thunks.obj
 0002:00004580       ??_C@_03OEIAHPBN@INF@      0000000180027580     libucrt:cvt.obj
 0002:00004584       ??_C@_03OJHLLCGB@inf@      0000000180027584     libucrt:cvt.obj
 0002:00004588       ??_C@_03LKNCIKJB@NAN@      0000000180027588     libucrt:cvt.obj
 0002:0000458c       ??_C@_03LHCJEHON@nan@      000000018002758c     libucrt:cvt.obj
 0002:00004590       ??_C@_09OFJJIMPC@NAN?$CISNAN?$CJ@ 0000000180027590     libucrt:cvt.obj
 0002:000045a0       ??_C@_09IPFBKMDL@nan?$CIsnan?$CJ@ 00000001800275a0     libucrt:cvt.obj
 0002:000045b0       ??_C@_08IKHNHAJ@NAN?$CIIND?$CJ@ 00000001800275b0     libucrt:cvt.obj
 0002:000045c0       ??_C@_08OFCDMILK@nan?$CIind?$CJ@ 00000001800275c0     libucrt:cvt.obj
 0002:000045cc       ??_C@_05KLBDPFGC@e?$CL000@ 00000001800275cc     libucrt:cvt.obj
 0002:000045e0       __lc_time_c                00000001800275e0     libucrt:nlsdata.obj
 0002:000048a0       ??_C@_03KOEHGMDN@Sun@      00000001800278a0     libucrt:nlsdata.obj
 0002:000048a4       ??_C@_03PDAGKDH@Mon@       00000001800278a4     libucrt:nlsdata.obj
 0002:000048a8       ??_C@_03NAGEINEP@Tue@      00000001800278a8     libucrt:nlsdata.obj
 0002:000048ac       ??_C@_03MHOMLAJA@Wed@      00000001800278ac     libucrt:nlsdata.obj
 0002:000048b0       ??_C@_03IOFIKPDN@Thu@      00000001800278b0     libucrt:nlsdata.obj
 0002:000048b4       ??_C@_03IDIOELNC@Fri@      00000001800278b4     libucrt:nlsdata.obj
 0002:000048b8       ??_C@_03FEFJNEK@Sat@       00000001800278b8     libucrt:nlsdata.obj
 0002:000048bc       ??_C@_06OOPIFAJ@Sunday@    00000001800278bc     libucrt:nlsdata.obj
 0002:000048c4       ??_C@_06JLEDEDGH@Monday@   00000001800278c4     libucrt:nlsdata.obj
 0002:000048d0       ??_C@_07BAAGCFCM@Tuesday@  00000001800278d0     libucrt:nlsdata.obj
 0002:000048d8       ??_C@_09DLIGFAKA@Wednesday@ 00000001800278d8     libucrt:nlsdata.obj
 0002:000048e8       ??_C@_08HACCIKIA@Thursday@ 00000001800278e8     libucrt:nlsdata.obj
 0002:000048f4       ??_C@_06JECMNKMI@Friday@   00000001800278f4     libucrt:nlsdata.obj
 0002:00004900       ??_C@_08INBOOONO@Saturday@ 0000000180027900     libucrt:nlsdata.obj
 0002:0000490c       ??_C@_03JIHJHPIE@Jan@      000000018002790c     libucrt:nlsdata.obj
 0002:00004910       ??_C@_03HJBDCHOM@Feb@      0000000180027910     libucrt:nlsdata.obj
 0002:00004914       ??_C@_03ODNJBKGA@Mar@      0000000180027914     libucrt:nlsdata.obj
 0002:00004918       ??_C@_03LEOLGMJP@Apr@      0000000180027918     libucrt:nlsdata.obj
 0002:0000491c       ??_C@_03CNMDKL@May@        000000018002791c     libucrt:nlsdata.obj
 0002:00004920       ??_C@_03IDFGHECI@Jun@      0000000180027920     libucrt:nlsdata.obj
 0002:00004924       ??_C@_03LBGABGKK@Jul@      0000000180027924     libucrt:nlsdata.obj
 0002:00004928       ??_C@_03IFJFEIGA@Aug@      0000000180027928     libucrt:nlsdata.obj
 0002:0000492c       ??_C@_03GGCAPAJC@Sep@      000000018002792c     libucrt:nlsdata.obj
 0002:00004930       ??_C@_03BMAOKBAD@Oct@      0000000180027930     libucrt:nlsdata.obj
 0002:00004934       ??_C@_03JPJOFNIA@Nov@      0000000180027934     libucrt:nlsdata.obj
 0002:00004938       ??_C@_03MKABNOCG@Dec@      0000000180027938     libucrt:nlsdata.obj
 0002:00004940       ??_C@_07CGJPFGJA@January@  0000000180027940     libucrt:nlsdata.obj
 0002:00004948       ??_C@_08GNJGEPFN@February@ 0000000180027948     libucrt:nlsdata.obj
 0002:00004954       ??_C@_05HPCKOFNC@March@    0000000180027954     libucrt:nlsdata.obj
 0002:0000495c       ??_C@_05DMJDNLEJ@April@    000000018002795c     libucrt:nlsdata.obj
 0002:00004964       ??_C@_04CNLMGBGM@June@     0000000180027964     libucrt:nlsdata.obj
 0002:0000496c       ??_C@_04MIEPOIFP@July@     000000018002796c     libucrt:nlsdata.obj
 0002:00004974       ??_C@_06LBBHFDDG@August@   0000000180027974     libucrt:nlsdata.obj
 0002:00004980       ??_C@_09BHHEALKD@September@ 0000000180027980     libucrt:nlsdata.obj
 0002:00004990       ??_C@_07JJNFCEND@October@  0000000180027990     libucrt:nlsdata.obj
 0002:00004998       ??_C@_08HCHEGEOA@November@ 0000000180027998     libucrt:nlsdata.obj
 0002:000049a8       ??_C@_08EDHMEBNP@December@ 00000001800279a8     libucrt:nlsdata.obj
 0002:000049b4       ??_C@_02DEDBPAFC@AM@       00000001800279b4     libucrt:nlsdata.obj
 0002:000049b8       ??_C@_02CJNFDJBF@PM@       00000001800279b8     libucrt:nlsdata.obj
 0002:000049c0       ??_C@_08BPBNCDIB@MM?1dd?1yy@ 00000001800279c0     libucrt:nlsdata.obj
 0002:000049d0       ??_C@_0BE@CKGJFCPC@dddd?0?5MMMM?5dd?0?5yyyy@ 00000001800279d0     libucrt:nlsdata.obj
 0002:000049e8       ??_C@_08JCCMCCIL@HH?3mm?3ss@ 00000001800279e8     libucrt:nlsdata.obj
 0002:000049f8       ??_C@_17MBGCMIPB@?$AAS?$AAu?$AAn@ 00000001800279f8     libucrt:nlsdata.obj
 0002:00004a00       ??_C@_17KBOMKBF@?$AAM?$AAo?$AAn@ 0000000180027a00     libucrt:nlsdata.obj
 0002:00004a08       ??_C@_17BMKGEGOJ@?$AAT?$AAu?$AAe@ 0000000180027a08     libucrt:nlsdata.obj
 0002:00004a10       ??_C@_17CJEDCEPE@?$AAW?$AAe?$AAd@ 0000000180027a10     libucrt:nlsdata.obj
 0002:00004a18       ??_C@_17PDPHAADD@?$AAT?$AAh?$AAu@ 0000000180027a18     libucrt:nlsdata.obj
 0002:00004a20       ??_C@_17HFOLPPLP@?$AAF?$AAr?$AAi@ 0000000180027a20     libucrt:nlsdata.obj
 0002:00004a28       ??_C@_17GGIBDPIH@?$AAS?$AAa?$AAt@ 0000000180027a28     libucrt:nlsdata.obj
 0002:00004a30       ??_C@_1O@IHNHDHPB@?$AAS?$AAu?$AAn?$AAd?$AAa?$AAy@ 0000000180027a30     libucrt:nlsdata.obj
 0002:00004a40       ??_C@_1O@MMNBFLIA@?$AAM?$AAo?$AAn?$AAd?$AAa?$AAy@ 0000000180027a40     libucrt:nlsdata.obj
 0002:00004a50       ??_C@_1BA@ENFBFFEK@?$AAT?$AAu?$AAe?$AAs?$AAd?$AAa?$AAy@ 0000000180027a50     libucrt:nlsdata.obj
 0002:00004a60       ??_C@_1BE@EBOGMDOH@?$AAW?$AAe?$AAd?$AAn?$AAe?$AAs?$AAd?$AAa?$AAy@ 0000000180027a60     libucrt:nlsdata.obj
 0002:00004a78       ??_C@_1BC@HHMNLIHE@?$AAT?$AAh?$AAu?$AAr?$AAs?$AAd?$AAa?$AAy@ 0000000180027a78     libucrt:nlsdata.obj
 0002:00004a90       ??_C@_1O@PDICJHAG@?$AAF?$AAr?$AAi?$AAd?$AAa?$AAy@ 0000000180027a90     libucrt:nlsdata.obj
 0002:00004aa0       ??_C@_1BC@ENMNNPAJ@?$AAS?$AAa?$AAt?$AAu?$AAr?$AAd?$AAa?$AAy@ 0000000180027aa0     libucrt:nlsdata.obj
 0002:00004ab8       ??_C@_17DKNBKCHM@?$AAJ?$AAa?$AAn@ 0000000180027ab8     libucrt:nlsdata.obj
 0002:00004ac0       ??_C@_17LMDJEKJN@?$AAF?$AAe?$AAb@ 0000000180027ac0     libucrt:nlsdata.obj
 0002:00004ac8       ??_C@_17CKNLEDEC@?$AAM?$AAa?$AAr@ 0000000180027ac8     libucrt:nlsdata.obj
 0002:00004ad0       ??_C@_17LFPOIHDD@?$AAA?$AAp?$AAr@ 0000000180027ad0     libucrt:nlsdata.obj
 0002:00004ad8       ??_C@_17PNNKMEED@?$AAM?$AAa?$AAy@ 0000000180027ad8     libucrt:nlsdata.obj
 0002:00004ae0       ??_C@_17KCJGOCPB@?$AAJ?$AAu?$AAn@ 0000000180027ae0     libucrt:nlsdata.obj
 0002:00004ae8       ??_C@_17IJPCKHK@?$AAJ?$AAu?$AAl@ 0000000180027ae8     libucrt:nlsdata.obj
 0002:00004af0       ??_C@_17ICPELBCN@?$AAA?$AAu?$AAg@ 0000000180027af0     libucrt:nlsdata.obj
 0002:00004af8       ??_C@_17HCHCOKMG@?$AAS?$AAe?$AAp@ 0000000180027af8     libucrt:nlsdata.obj
 0002:00004b00       ??_C@_17FNLKOI@?$AAO?$AAc?$AAt@ 0000000180027b00     libucrt:nlsdata.obj
 0002:00004b08       ??_C@_17BBDMLCIG@?$AAN?$AAo?$AAv@ 0000000180027b08     libucrt:nlsdata.obj
 0002:00004b10       ??_C@_17EGKACKIF@?$AAD?$AAe?$AAc@ 0000000180027b10     libucrt:nlsdata.obj
 0002:00004b18       ??_C@_1BA@EFMEIEBA@?$AAJ?$AAa?$AAn?$AAu?$AAa?$AAr?$AAy@ 0000000180027b18     libucrt:nlsdata.obj
 0002:00004b28       ??_C@_1BC@JGDDFFAM@?$AAF?$AAe?$AAb?$AAr?$AAu?$AAa?$AAr?$AAy@ 0000000180027b28     libucrt:nlsdata.obj
 0002:00004b40       ??_C@_1M@IKEENEDF@?$AAM?$AAa?$AAr?$AAc?$AAh@ 0000000180027b40     libucrt:nlsdata.obj
 0002:00004b50       ??_C@_1M@GJNLMHFD@?$AAA?$AAp?$AAr?$AAi?$AAl@ 0000000180027b50     libucrt:nlsdata.obj
 0002:00004b60       ??_C@_19EPFLPGAP@?$AAJ?$AAu?$AAn?$AAe@ 0000000180027b60     libucrt:nlsdata.obj
 0002:00004b70       ??_C@_19BIFMLPCD@?$AAJ?$AAu?$AAl?$AAy@ 0000000180027b70     libucrt:nlsdata.obj
 0002:00004b80       ??_C@_1O@PAHLKOAC@?$AAA?$AAu?$AAg?$AAu?$AAs?$AAt@ 0000000180027b80     libucrt:nlsdata.obj
 0002:00004b90       ??_C@_1BE@DKAAMBJL@?$AAS?$AAe?$AAp?$AAt?$AAe?$AAm?$AAb?$AAe?$AAr@ 0000000180027b90     libucrt:nlsdata.obj
 0002:00004ba8       ??_C@_1BA@EPANDLNG@?$AAO?$AAc?$AAt?$AAo?$AAb?$AAe?$AAr@ 0000000180027ba8     libucrt:nlsdata.obj
 0002:00004bb8       ??_C@_1BC@BGLIFPF@?$AAN?$AAo?$AAv?$AAe?$AAm?$AAb?$AAe?$AAr@ 0000000180027bb8     libucrt:nlsdata.obj
 0002:00004bd0       ??_C@_1BC@FEMKIFH@?$AAD?$AAe?$AAc?$AAe?$AAm?$AAb?$AAe?$AAr@ 0000000180027bd0     libucrt:nlsdata.obj
 0002:00004be4       ??_C@_15ODEHAHHF@?$AAA?$AAM@ 0000000180027be4     libucrt:nlsdata.obj
 0002:00004bec       ??_C@_15CLMNNGEL@?$AAP?$AAM@ 0000000180027bec     libucrt:nlsdata.obj
 0002:00004bf8       ??_C@_1BC@IEBCMHCM@?$AAM?$AAM?$AA?1?$AAd?$AAd?$AA?1?$AAy?$AAy@ 0000000180027bf8     libucrt:nlsdata.obj
 0002:00004c10       ??_C@_1CI@KNAKOEBC@?$AAd?$AAd?$AAd?$AAd?$AA?0?$AA?5?$AAM?$AAM?$AAM?$AAM?$AA?5?$AAd?$AAd?$AA?0?$AA?5@ 0000000180027c10     libucrt:nlsdata.obj
 0002:00004c38       ??_C@_1BC@GDGBMEMK@?$AAH?$AAH?$AA?3?$AAm?$AAm?$AA?3?$AAs?$AAs@ 0000000180027c38     libucrt:nlsdata.obj
 0002:00004c50       ??_C@_1M@BMHNFIME@?$AAe?$AAn?$AA?9?$AAU?$AAS@ 0000000180027c50     libucrt:nlsdata.obj
 0002:00004c80       ??_C@_1M@HPNHIDJI@?$AAj?$AAa?$AA?9?$AAJ?$AAP@ 0000000180027c80     libucrt:mbctype.obj
 0002:00004c90       ??_C@_1M@BIBDDEMK@?$AAz?$AAh?$AA?9?$AAC?$AAN@ 0000000180027c90     libucrt:mbctype.obj
 0002:00004ca0       ??_C@_1M@JLOOOEGK@?$AAk?$AAo?$AA?9?$AAK?$AAR@ 0000000180027ca0     libucrt:mbctype.obj
 0002:00004cb0       ??_C@_1M@CLNBBOPM@?$AAz?$AAh?$AA?9?$AAT?$AAW@ 0000000180027cb0     libucrt:mbctype.obj
 0002:00004cc0       __newctype                 0000000180027cc0     libucrt:ctype.obj
 0002:00004fc0       __newclmap                 0000000180027fc0     libucrt:ctype.obj
 0002:00005140       __newcumap                 0000000180028140     libucrt:ctype.obj
 0002:000052c0       _wctype                    00000001800282c0     libucrt:ctype.obj
 0002:00006310       ??_C@_15EMKDOKLE@?$AAa?$AAr@ 0000000180029310     libucrt:lcidtoname_downlevel.obj
 0002:00006318       ??_C@_15KNPADPLH@?$AAb?$AAg@ 0000000180029318     libucrt:lcidtoname_downlevel.obj
 0002:00006320       ??_C@_15EDMHLDMO@?$AAc?$AAa@ 0000000180029320     libucrt:lcidtoname_downlevel.obj
 0002:00006328       ??_C@_1O@BPEAJADD@?$AAz?$AAh?$AA?9?$AAC?$AAH?$AAS@ 0000000180029328     libucrt:lcidtoname_downlevel.obj
 0002:00006338       ??_C@_15LJNHCMNK@?$AAc?$AAs@ 0000000180029338     libucrt:lcidtoname_downlevel.obj
 0002:00006340       ??_C@_15FOMCIDHG@?$AAd?$AAa@ 0000000180029340     libucrt:lcidtoname_downlevel.obj
 0002:00006348       ??_C@_15NBKABECB@?$AAd?$AAe@ 0000000180029348     libucrt:lcidtoname_downlevel.obj
 0002:00006350       ??_C@_15GHPEIIAO@?$AAe?$AAl@ 0000000180029350     libucrt:lcidtoname_downlevel.obj
 0002:00006358       ??_C@_15MNPNEAIF@?$AAe?$AAn@ 0000000180029358     libucrt:lcidtoname_downlevel.obj
 0002:00006360       ??_C@_15GPIOMPMH@?$AAe?$AAs@ 0000000180029360     libucrt:lcidtoname_downlevel.obj
 0002:00006368       ??_C@_15NGLOAKJC@?$AAf?$AAi@ 0000000180029368     libucrt:lcidtoname_downlevel.obj
 0002:00006370       ??_C@_15FBKGNKAM@?$AAf?$AAr@ 0000000180029370     libucrt:lcidtoname_downlevel.obj
 0002:00006378       ??_C@_15KGGCNEFK@?$AAh?$AAe@ 0000000180029378     libucrt:lcidtoname_downlevel.obj
 0002:00006380       ??_C@_15PGHLIDMF@?$AAh?$AAu@ 0000000180029380     libucrt:lcidtoname_downlevel.obj
 0002:00006388       ??_C@_15BIEMAPLM@?$AAi?$AAs@ 0000000180029388     libucrt:lcidtoname_downlevel.obj
 0002:00006390       ??_C@_15IFJLDHAF@?$AAi?$AAt@ 0000000180029390     libucrt:lcidtoname_downlevel.obj
 0002:00006398       ??_C@_15GEMIOCAG@?$AAj?$AAa@ 0000000180029398     libucrt:lcidtoname_downlevel.obj
 0002:000063a0       ??_C@_15EPELEGJA@?$AAk?$AAo@ 00000001800293a0     libucrt:lcidtoname_downlevel.obj
 0002:000063a8       ??_C@_15NDDHIMN@?$AAn?$AAl@ 00000001800293a8     libucrt:lcidtoname_downlevel.obj
 0002:000063b0       ??_C@_15BPIGNHCD@?$AAn?$AAo@ 00000001800293b0     libucrt:lcidtoname_downlevel.obj
 0002:000063b8       ??_C@_15DEOPBLCG@?$AAp?$AAl@ 00000001800293b8     libucrt:lcidtoname_downlevel.obj
 0002:000063c0       ??_C@_15KBECGEFG@?$AAp?$AAt@ 00000001800293c0     libucrt:lcidtoname_downlevel.obj
 0002:000063c8       ??_C@_15GLJCBFMD@?$AAr?$AAo@ 00000001800293c8     libucrt:lcidtoname_downlevel.obj
 0002:000063d0       ??_C@_15FEDGKCDI@?$AAr?$AAu@ 00000001800293d0     libucrt:lcidtoname_downlevel.obj
 0002:000063d8       ??_C@_15GLKMLLHM@?$AAh?$AAr@ 00000001800293d8     libucrt:lcidtoname_downlevel.obj
 0002:000063e0       ??_C@_15CPKMFBDB@?$AAs?$AAk@ 00000001800293e0     libucrt:lcidtoname_downlevel.obj
 0002:000063e8       ??_C@_15BAAIOGMK@?$AAs?$AAq@ 00000001800293e8     libucrt:lcidtoname_downlevel.obj
 0002:000063f0       ??_C@_15INNPNOHD@?$AAs?$AAv@ 00000001800293f0     libucrt:lcidtoname_downlevel.obj
 0002:000063f8       ??_C@_15CABMMOGH@?$AAt?$AAh@ 00000001800293f8     libucrt:lcidtoname_downlevel.obj
 0002:00006400       ??_C@_15BPLIHJJM@?$AAt?$AAr@ 0000000180029400     libucrt:lcidtoname_downlevel.obj
 0002:00006408       ??_C@_15NEOEKKDJ@?$AAu?$AAr@ 0000000180029408     libucrt:lcidtoname_downlevel.obj
 0002:00006410       ??_C@_15NFICGAJK@?$AAi?$AAd@ 0000000180029410     libucrt:lcidtoname_downlevel.obj
 0002:00006418       ??_C@_15PJPFLCCM@?$AAu?$AAk@ 0000000180029418     libucrt:lcidtoname_downlevel.obj
 0002:00006420       ??_C@_15HPJPHDM@?$AAb?$AAe@ 0000000180029420     libucrt:lcidtoname_downlevel.obj
 0002:00006428       ??_C@_15LCHLGJII@?$AAs?$AAl@ 0000000180029428     libucrt:lcidtoname_downlevel.obj
 0002:00006430       ??_C@_15PCFJPHHO@?$AAe?$AAt@ 0000000180029430     libucrt:lcidtoname_downlevel.obj
 0002:00006438       ??_C@_15HPFPGODN@?$AAl?$AAv@ 0000000180029438     libucrt:lcidtoname_downlevel.obj
 0002:00006440       ??_C@_15NFFGKGLG@?$AAl?$AAt@ 0000000180029440     libucrt:lcidtoname_downlevel.obj
 0002:00006448       ??_C@_15BDAKCCHN@?$AAf?$AAa@ 0000000180029448     libucrt:lcidtoname_downlevel.obj
 0002:00006450       ??_C@_15NFGIAIAJ@?$AAv?$AAi@ 0000000180029450     libucrt:lcidtoname_downlevel.obj
 0002:00006458       ??_C@_15LMKNDMHN@?$AAh?$AAy@ 0000000180029458     libucrt:lcidtoname_downlevel.obj
 0002:00006460       ??_C@_15IJBHMCFL@?$AAa?$AAz@ 0000000180029460     libucrt:lcidtoname_downlevel.obj
 0002:00006468       ??_C@_15EKOFJABL@?$AAe?$AAu@ 0000000180029468     libucrt:lcidtoname_downlevel.obj
 0002:00006470       ??_C@_15BGHADCNK@?$AAm?$AAk@ 0000000180029470     libucrt:lcidtoname_downlevel.obj
 0002:00006478       ??_C@_15JDNICKHM@?$AAa?$AAf@ 0000000180029478     libucrt:lcidtoname_downlevel.obj
 0002:00006480       ??_C@_15KPJEDBKD@?$AAk?$AAa@ 0000000180029480     libucrt:lcidtoname_downlevel.obj
 0002:00006488       ??_C@_15PDNFFFEO@?$AAf?$AAo@ 0000000180029488     libucrt:lcidtoname_downlevel.obj
 0002:00006490       ??_C@_15OMLEGLOC@?$AAh?$AAi@ 0000000180029490     libucrt:lcidtoname_downlevel.obj
 0002:00006498       ??_C@_15IDNNENKK@?$AAm?$AAs@ 0000000180029498     libucrt:lcidtoname_downlevel.obj
 0002:000064a0       ??_C@_15MACJNBMH@?$AAk?$AAk@ 00000001800294a0     libucrt:lcidtoname_downlevel.obj
 0002:000064a8       ??_C@_15DKDJEOND@?$AAk?$AAy@ 00000001800294a8     libucrt:lcidtoname_downlevel.obj
 0002:000064b0       ??_C@_15DFGDLJBG@?$AAs?$AAw@ 00000001800294b0     libucrt:lcidtoname_downlevel.obj
 0002:000064b8       ??_C@_15BBFAICNG@?$AAu?$AAz@ 00000001800294b8     libucrt:lcidtoname_downlevel.obj
 0002:000064c0       ??_C@_15DKNDCGEA@?$AAt?$AAt@ 00000001800294c0     libucrt:lcidtoname_downlevel.obj
 0002:000064c8       ??_C@_15MGIFMDPL@?$AAp?$AAa@ 00000001800294c8     libucrt:lcidtoname_downlevel.obj
 0002:000064d0       ??_C@_15HCNDBBA@?$AAg?$AAu@ 00000001800294d0     libucrt:lcidtoname_downlevel.obj
 0002:000064d8       ??_C@_15FNBEIBON@?$AAt?$AAa@ 00000001800294d8     libucrt:lcidtoname_downlevel.obj
 0002:000064e0       ??_C@_15NCHGBGLK@?$AAt?$AAe@ 00000001800294e0     libucrt:lcidtoname_downlevel.obj
 0002:000064e8       ??_C@_15PHPHCBPF@?$AAk?$AAn@ 00000001800294e8     libucrt:lcidtoname_downlevel.obj
 0002:000064f0       ??_C@_15DLGBCKMP@?$AAm?$AAr@ 00000001800294f0     libucrt:lcidtoname_downlevel.obj
 0002:000064f8       ??_C@_15EABBLBFF@?$AAs?$AAa@ 00000001800294f8     libucrt:lcidtoname_downlevel.obj
 0002:00006500       ??_C@_15CBKOMCOI@?$AAm?$AAn@ 0000000180029500     libucrt:lcidtoname_downlevel.obj
 0002:00006508       ??_C@_15CKDMCJAF@?$AAg?$AAl@ 0000000180029508     libucrt:lcidtoname_downlevel.obj
 0002:00006510       ??_C@_17CNJFBPG@?$AAk?$AAo?$AAk@ 0000000180029510     libucrt:lcidtoname_downlevel.obj
 0002:00006518       ??_C@_17FFBJICPL@?$AAs?$AAy?$AAr@ 0000000180029518     libucrt:lcidtoname_downlevel.obj
 0002:00006520       ??_C@_17KPNDCPAF@?$AAd?$AAi?$AAv@ 0000000180029520     libucrt:lcidtoname_downlevel.obj
 0002:00006528       ??_C@_1M@OKAHONE@?$AAa?$AAr?$AA?9?$AAS?$AAA@ 0000000180029528     libucrt:lcidtoname_downlevel.obj
 0002:00006538       ??_C@_1M@FFFIGIGK@?$AAb?$AAg?$AA?9?$AAB?$AAG@ 0000000180029538     libucrt:lcidtoname_downlevel.obj
 0002:00006548       ??_C@_1M@BJNKEDC@?$AAc?$AAa?$AA?9?$AAE?$AAS@ 0000000180029548     libucrt:lcidtoname_downlevel.obj
 0002:00006558       ??_C@_1M@IJJHFJHA@?$AAc?$AAs?$AA?9?$AAC?$AAZ@ 0000000180029558     libucrt:lcidtoname_downlevel.obj
 0002:00006568       ??_C@_1M@CLPEOBGI@?$AAd?$AAa?$AA?9?$AAD?$AAK@ 0000000180029568     libucrt:lcidtoname_downlevel.obj
 0002:00006578       ??_C@_1M@MCMADGCB@?$AAd?$AAe?$AA?9?$AAD?$AAE@ 0000000180029578     libucrt:lcidtoname_downlevel.obj
 0002:00006588       ??_C@_1M@OOCKEMAM@?$AAe?$AAl?$AA?9?$AAG?$AAR@ 0000000180029588     libucrt:lcidtoname_downlevel.obj
 0002:00006598       ??_C@_1M@DDNJFGID@?$AAf?$AAi?$AA?9?$AAF?$AAI@ 0000000180029598     libucrt:lcidtoname_downlevel.obj
 0002:000065a8       ??_C@_1M@GLIPPMAC@?$AAf?$AAr?$AA?9?$AAF?$AAR@ 00000001800295a8     libucrt:lcidtoname_downlevel.obj
 0002:000065b8       ??_C@_1M@GFMCHPE@?$AAh?$AAe?$AA?9?$AAI?$AAL@ 00000001800295b8     libucrt:lcidtoname_downlevel.obj
 0002:000065c8       ??_C@_1M@MHLPGNKM@?$AAh?$AAu?$AA?9?$AAH?$AAU@ 00000001800295c8     libucrt:lcidtoname_downlevel.obj
 0002:000065d8       ??_C@_1M@LPDDNNPN@?$AAi?$AAs?$AA?9?$AAI?$AAS@ 00000001800295d8     libucrt:lcidtoname_downlevel.obj
 0002:000065e8       ??_C@_1M@MADIPODN@?$AAi?$AAt?$AA?9?$AAI?$AAT@ 00000001800295e8     libucrt:lcidtoname_downlevel.obj
 0002:000065f8       ??_C@_1M@IHBJJGG@?$AAn?$AAl?$AA?9?$AAN?$AAL@ 00000001800295f8     libucrt:lcidtoname_downlevel.obj
 0002:00006608       ??_C@_1M@EANAGDL@?$AAn?$AAb?$AA?9?$AAN?$AAO@ 0000000180029608     libucrt:lcidtoname_downlevel.obj
 0002:00006618       ??_C@_1M@NEIEMEGP@?$AAp?$AAl?$AA?9?$AAP?$AAL@ 0000000180029618     libucrt:lcidtoname_downlevel.obj
 0002:00006628       ??_C@_1M@BOCFIGEP@?$AAp?$AAt?$AA?9?$AAB?$AAR@ 0000000180029628     libucrt:lcidtoname_downlevel.obj
 0002:00006638       ??_C@_1M@IMPFOPBG@?$AAr?$AAo?$AA?9?$AAR?$AAO@ 0000000180029638     libucrt:lcidtoname_downlevel.obj
 0002:00006648       ??_C@_1M@IDNNEJMM@?$AAr?$AAu?$AA?9?$AAR?$AAU@ 0000000180029648     libucrt:lcidtoname_downlevel.obj
 0002:00006658       ??_C@_1M@LILEEOGM@?$AAh?$AAr?$AA?9?$AAH?$AAR@ 0000000180029658     libucrt:lcidtoname_downlevel.obj
 0002:00006668       ??_C@_1M@FKIFEHPB@?$AAs?$AAk?$AA?9?$AAS?$AAK@ 0000000180029668     libucrt:lcidtoname_downlevel.obj
 0002:00006678       ??_C@_1M@LJMAMNPJ@?$AAs?$AAq?$AA?9?$AAA?$AAL@ 0000000180029678     libucrt:lcidtoname_downlevel.obj
 0002:00006688       ??_C@_1M@GIAKDKJK@?$AAs?$AAv?$AA?9?$AAS?$AAE@ 0000000180029688     libucrt:lcidtoname_downlevel.obj
 0002:00006698       ??_C@_1M@MKJKIKCL@?$AAt?$AAh?$AA?9?$AAT?$AAH@ 0000000180029698     libucrt:lcidtoname_downlevel.obj
 0002:000066a8       ??_C@_1M@MFLCCMPB@?$AAt?$AAr?$AA?9?$AAT?$AAR@ 00000001800296a8     libucrt:lcidtoname_downlevel.obj
 0002:000066b8       ??_C@_1M@OIJHDKJN@?$AAu?$AAr?$AA?9?$AAP?$AAK@ 00000001800296b8     libucrt:lcidtoname_downlevel.obj
 0002:000066c8       ??_C@_1M@LHIPCIEK@?$AAi?$AAd?$AA?9?$AAI?$AAD@ 00000001800296c8     libucrt:lcidtoname_downlevel.obj
 0002:000066d8       ??_C@_1M@MFMOBGI@?$AAu?$AAk?$AA?9?$AAU?$AAA@ 00000001800296d8     libucrt:lcidtoname_downlevel.obj
 0002:000066e8       ??_C@_1M@OBGLJIPL@?$AAb?$AAe?$AA?9?$AAB?$AAY@ 00000001800296e8     libucrt:lcidtoname_downlevel.obj
 0002:000066f8       ??_C@_1M@BCFAJEAD@?$AAs?$AAl?$AA?9?$AAS?$AAI@ 00000001800296f8     libucrt:lcidtoname_downlevel.obj
 0002:00006708       ??_C@_1M@FKFFEDDN@?$AAe?$AAt?$AA?9?$AAE?$AAE@ 0000000180029708     libucrt:lcidtoname_downlevel.obj
 0002:00006718       ??_C@_1M@KGKKAACI@?$AAl?$AAv?$AA?9?$AAL?$AAV@ 0000000180029718     libucrt:lcidtoname_downlevel.obj
 0002:00006728       ??_C@_1M@IFGBIJO@?$AAl?$AAt?$AA?9?$AAL?$AAT@ 0000000180029728     libucrt:lcidtoname_downlevel.obj
 0002:00006738       ??_C@_1M@FGEAHEDM@?$AAf?$AAa?$AA?9?$AAI?$AAR@ 0000000180029738     libucrt:lcidtoname_downlevel.obj
 0002:00006748       ??_C@_1M@KBMAIBFN@?$AAv?$AAi?$AA?9?$AAV?$AAN@ 0000000180029748     libucrt:lcidtoname_downlevel.obj
 0002:00006758       ??_C@_1M@GPCBKDJK@?$AAh?$AAy?$AA?9?$AAA?$AAM@ 0000000180029758     libucrt:lcidtoname_downlevel.obj
 0002:00006768       ??_C@_1BG@BECMDDJB@?$AAa?$AAz?$AA?9?$AAA?$AAZ?$AA?9?$AAL?$AAa?$AAt?$AAn@ 0000000180029768     libucrt:lcidtoname_downlevel.obj
 0002:00006780       ??_C@_1M@MAOFCAEA@?$AAe?$AAu?$AA?9?$AAE?$AAS@ 0000000180029780     libucrt:lcidtoname_downlevel.obj
 0002:00006790       ??_C@_1M@IGHABKPI@?$AAm?$AAk?$AA?9?$AAM?$AAK@ 0000000180029790     libucrt:lcidtoname_downlevel.obj
 0002:000067a0       ??_C@_1M@IAIGNEJG@?$AAt?$AAn?$AA?9?$AAZ?$AAA@ 00000001800297a0     libucrt:lcidtoname_downlevel.obj
 0002:000067b0       ??_C@_1M@IIJCOJFA@?$AAx?$AAh?$AA?9?$AAZ?$AAA@ 00000001800297b0     libucrt:lcidtoname_downlevel.obj
 0002:000067c0       ??_C@_1M@LGPJHNJH@?$AAz?$AAu?$AA?9?$AAZ?$AAA@ 00000001800297c0     libucrt:lcidtoname_downlevel.obj
 0002:000067d0       ??_C@_1M@HOKAOIO@?$AAa?$AAf?$AA?9?$AAZ?$AAA@ 00000001800297d0     libucrt:lcidtoname_downlevel.obj
 0002:000067e0       ??_C@_1M@DPCLHLIE@?$AAk?$AAa?$AA?9?$AAG?$AAE@ 00000001800297e0     libucrt:lcidtoname_downlevel.obj
 0002:000067f0       ??_C@_1M@BLKMHJBI@?$AAf?$AAo?$AA?9?$AAF?$AAO@ 00000001800297f0     libucrt:lcidtoname_downlevel.obj
 0002:00006800       ??_C@_1M@LGGJAPPB@?$AAh?$AAi?$AA?9?$AAI?$AAN@ 0000000180029800     libucrt:lcidtoname_downlevel.obj
 0002:00006810       ??_C@_1M@FIKPIHFE@?$AAm?$AAt?$AA?9?$AAM?$AAT@ 0000000180029810     libucrt:lcidtoname_downlevel.obj
 0002:00006820       ??_C@_1M@HEGGPBFA@?$AAs?$AAe?$AA?9?$AAN?$AAO@ 0000000180029820     libucrt:lcidtoname_downlevel.obj
 0002:00006830       ??_C@_1M@EIBJEEPA@?$AAm?$AAs?$AA?9?$AAM?$AAY@ 0000000180029830     libucrt:lcidtoname_downlevel.obj
 0002:00006840       ??_C@_1M@FHLBGMPP@?$AAk?$AAk?$AA?9?$AAK?$AAZ@ 0000000180029840     libucrt:lcidtoname_downlevel.obj
 0002:00006850       ??_C@_1M@NGJJLCGI@?$AAk?$AAy?$AA?9?$AAK?$AAG@ 0000000180029850     libucrt:lcidtoname_downlevel.obj
 0002:00006860       ??_C@_1M@GIENNBFC@?$AAs?$AAw?$AA?9?$AAK?$AAE@ 0000000180029860     libucrt:lcidtoname_downlevel.obj
 0002:00006870       ??_C@_1BG@NDGMJIMJ@?$AAu?$AAz?$AA?9?$AAU?$AAZ?$AA?9?$AAL?$AAa?$AAt?$AAn@ 0000000180029870     libucrt:lcidtoname_downlevel.obj
 0002:00006888       ??_C@_1M@IDCCIHBC@?$AAt?$AAt?$AA?9?$AAR?$AAU@ 0000000180029888     libucrt:lcidtoname_downlevel.obj
 0002:00006898       ??_C@_1M@LOICPMOJ@?$AAb?$AAn?$AA?9?$AAI?$AAN@ 0000000180029898     libucrt:lcidtoname_downlevel.obj
 0002:000068a8       ??_C@_1M@KPKKNEAH@?$AAp?$AAa?$AA?9?$AAI?$AAN@ 00000001800298a8     libucrt:lcidtoname_downlevel.obj
 0002:000068b8       ??_C@_1M@PJGPPBOG@?$AAg?$AAu?$AA?9?$AAI?$AAN@ 00000001800298b8     libucrt:lcidtoname_downlevel.obj
 0002:000068c8       ??_C@_1M@KMKMOPHI@?$AAt?$AAa?$AA?9?$AAI?$AAN@ 00000001800298c8     libucrt:lcidtoname_downlevel.obj
 0002:000068d8       ??_C@_1M@KFEHEPAC@?$AAt?$AAe?$AA?9?$AAI?$AAN@ 00000001800298d8     libucrt:lcidtoname_downlevel.obj
 0002:000068e8       ??_C@_1M@CDCLMGHI@?$AAk?$AAn?$AA?9?$AAI?$AAN@ 00000001800298e8     libucrt:lcidtoname_downlevel.obj
 0002:000068f8       ??_C@_1M@MIODLDKF@?$AAm?$AAl?$AA?9?$AAI?$AAN@ 00000001800298f8     libucrt:lcidtoname_downlevel.obj
 0002:00006908       ??_C@_1M@PBIEACPO@?$AAm?$AAr?$AA?9?$AAI?$AAN@ 0000000180029908     libucrt:lcidtoname_downlevel.obj
 0002:00006918       ??_C@_1M@NIDEAGPH@?$AAs?$AAa?$AA?9?$AAI?$AAN@ 0000000180029918     libucrt:lcidtoname_downlevel.obj
 0002:00006928       ??_C@_1M@FHIHCBIO@?$AAm?$AAn?$AA?9?$AAM?$AAN@ 0000000180029928     libucrt:lcidtoname_downlevel.obj
 0002:00006938       ??_C@_1M@JAIJPENP@?$AAc?$AAy?$AA?9?$AAG?$AAB@ 0000000180029938     libucrt:lcidtoname_downlevel.obj
 0002:00006948       ??_C@_1M@PHGFBEPN@?$AAg?$AAl?$AA?9?$AAE?$AAS@ 0000000180029948     libucrt:lcidtoname_downlevel.obj
 0002:00006958       ??_C@_1O@KPIPDNCP@?$AAk?$AAo?$AAk?$AA?9?$AAI?$AAN@ 0000000180029958     libucrt:lcidtoname_downlevel.obj
 0002:00006968       ??_C@_1O@KNHJLDJA@?$AAs?$AAy?$AAr?$AA?9?$AAS?$AAY@ 0000000180029968     libucrt:lcidtoname_downlevel.obj
 0002:00006978       ??_C@_1O@MKEKBLAH@?$AAd?$AAi?$AAv?$AA?9?$AAM?$AAV@ 0000000180029978     libucrt:lcidtoname_downlevel.obj
 0002:00006988       ??_C@_1O@OHDCKDDF@?$AAq?$AAu?$AAz?$AA?9?$AAB?$AAO@ 0000000180029988     libucrt:lcidtoname_downlevel.obj
 0002:00006998       ??_C@_1M@LEPJNLFD@?$AAn?$AAs?$AA?9?$AAZ?$AAA@ 0000000180029998     libucrt:lcidtoname_downlevel.obj
 0002:000069a8       ??_C@_1M@OMLEIIJB@?$AAm?$AAi?$AA?9?$AAN?$AAZ@ 00000001800299a8     libucrt:lcidtoname_downlevel.obj
 0002:000069b8       ??_C@_1M@PMPEAILG@?$AAa?$AAr?$AA?9?$AAI?$AAQ@ 00000001800299b8     libucrt:lcidtoname_downlevel.obj
 0002:000069c8       ??_C@_1M@CNKPNOEE@?$AAd?$AAe?$AA?9?$AAC?$AAH@ 00000001800299c8     libucrt:lcidtoname_downlevel.obj
 0002:000069d8       ??_C@_1M@LKMGMLKO@?$AAe?$AAn?$AA?9?$AAG?$AAB@ 00000001800299d8     libucrt:lcidtoname_downlevel.obj
 0002:000069e8       ??_C@_1M@PGKJFFGL@?$AAe?$AAs?$AA?9?$AAM?$AAX@ 00000001800299e8     libucrt:lcidtoname_downlevel.obj
 0002:000069f8       ??_C@_1M@DNNANBDC@?$AAf?$AAr?$AA?9?$AAB?$AAE@ 00000001800299f8     libucrt:lcidtoname_downlevel.obj
 0002:00006a08       ??_C@_1M@HLGMDFHM@?$AAi?$AAt?$AA?9?$AAC?$AAH@ 0000000180029a08     libucrt:lcidtoname_downlevel.obj
 0002:00006a18       ??_C@_1M@CLLBGJH@?$AAn?$AAl?$AA?9?$AAB?$AAE@ 0000000180029a18     libucrt:lcidtoname_downlevel.obj
 0002:00006a28       ??_C@_1M@BODBOGLF@?$AAn?$AAn?$AA?9?$AAN?$AAO@ 0000000180029a28     libucrt:lcidtoname_downlevel.obj
 0002:00006a38       ??_C@_1M@HFFAHKAD@?$AAp?$AAt?$AA?9?$AAP?$AAT@ 0000000180029a38     libucrt:lcidtoname_downlevel.obj
 0002:00006a48       ??_C@_1BG@LNOAKHIE@?$AAs?$AAr?$AA?9?$AAS?$AAP?$AA?9?$AAL?$AAa?$AAt?$AAn@ 0000000180029a48     libucrt:lcidtoname_downlevel.obj
 0002:00006a60       ??_C@_1M@HBMHBGAK@?$AAs?$AAv?$AA?9?$AAF?$AAI@ 0000000180029a60     libucrt:lcidtoname_downlevel.obj
 0002:00006a70       ??_C@_1BG@DGCJGJBE@?$AAa?$AAz?$AA?9?$AAA?$AAZ?$AA?9?$AAC?$AAy?$AAr?$AAl@ 0000000180029a70     libucrt:lcidtoname_downlevel.obj
 0002:00006a88       ??_C@_1M@KEJDAAHB@?$AAs?$AAe?$AA?9?$AAS?$AAE@ 0000000180029a88     libucrt:lcidtoname_downlevel.obj
 0002:00006a98       ??_C@_1M@HEIBJJAD@?$AAm?$AAs?$AA?9?$AAB?$AAN@ 0000000180029a98     libucrt:lcidtoname_downlevel.obj
 0002:00006aa8       ??_C@_1BG@PBGJMCEM@?$AAu?$AAz?$AA?9?$AAU?$AAZ?$AA?9?$AAC?$AAy?$AAr?$AAl@ 0000000180029aa8     libucrt:lcidtoname_downlevel.obj
 0002:00006ac0       ??_C@_1O@LAOBCMDF@?$AAq?$AAu?$AAz?$AA?9?$AAE?$AAC@ 0000000180029ac0     libucrt:lcidtoname_downlevel.obj
 0002:00006ad0       ??_C@_1M@POEEMAIO@?$AAa?$AAr?$AA?9?$AAE?$AAG@ 0000000180029ad0     libucrt:lcidtoname_downlevel.obj
 0002:00006ae0       ??_C@_1M@EFAKDEDL@?$AAz?$AAh?$AA?9?$AAH?$AAK@ 0000000180029ae0     libucrt:lcidtoname_downlevel.obj
 0002:00006af0       ??_C@_1M@HKKIJHGI@?$AAd?$AAe?$AA?9?$AAA?$AAT@ 0000000180029af0     libucrt:lcidtoname_downlevel.obj
 0002:00006b00       ??_C@_1M@KBFBEHJF@?$AAe?$AAn?$AA?9?$AAA?$AAU@ 0000000180029b00     libucrt:lcidtoname_downlevel.obj
 0002:00006b10       ??_C@_1M@MNPLFAAH@?$AAe?$AAs?$AA?9?$AAE?$AAS@ 0000000180029b10     libucrt:lcidtoname_downlevel.obj
 0002:00006b20       ??_C@_1M@HJOOJFMA@?$AAf?$AAr?$AA?9?$AAC?$AAA@ 0000000180029b20     libucrt:lcidtoname_downlevel.obj
 0002:00006b30       ??_C@_1BG@JPOFPNAB@?$AAs?$AAr?$AA?9?$AAS?$AAP?$AA?9?$AAC?$AAy?$AAr?$AAl@ 0000000180029b30     libucrt:lcidtoname_downlevel.obj
 0002:00006b48       ??_C@_1M@LNFOCMOB@?$AAs?$AAe?$AA?9?$AAF?$AAI@ 0000000180029b48     libucrt:lcidtoname_downlevel.obj
 0002:00006b58       ??_C@_1O@MGJBOAMB@?$AAq?$AAu?$AAz?$AA?9?$AAP?$AAE@ 0000000180029b58     libucrt:lcidtoname_downlevel.obj
 0002:00006b68       ??_C@_1M@GJINLBOK@?$AAa?$AAr?$AA?9?$AAL?$AAY@ 0000000180029b68     libucrt:lcidtoname_downlevel.obj
 0002:00006b78       ??_C@_1M@GGMNHJNL@?$AAz?$AAh?$AA?9?$AAS?$AAG@ 0000000180029b78     libucrt:lcidtoname_downlevel.obj
 0002:00006b88       ??_C@_1M@HOIKODND@?$AAd?$AAe?$AA?9?$AAL?$AAU@ 0000000180029b88     libucrt:lcidtoname_downlevel.obj
 0002:00006b98       ??_C@_1M@DDOCCGFG@?$AAe?$AAn?$AA?9?$AAC?$AAA@ 0000000180029b98     libucrt:lcidtoname_downlevel.obj
 0002:00006ba8       ??_C@_1M@BNOEMJLF@?$AAe?$AAs?$AA?9?$AAG?$AAT@ 0000000180029ba8     libucrt:lcidtoname_downlevel.obj
 0002:00006bb8       ??_C@_1M@EOGNKEK@?$AAf?$AAr?$AA?9?$AAC?$AAH@ 0000000180029bb8     libucrt:lcidtoname_downlevel.obj
 0002:00006bc8       ??_C@_1M@FLIDJFHL@?$AAh?$AAr?$AA?9?$AAB?$AAA@ 0000000180029bc8     libucrt:lcidtoname_downlevel.obj
 0002:00006bd8       ??_C@_1O@FMCELNAJ@?$AAs?$AAm?$AAj?$AA?9?$AAN?$AAO@ 0000000180029bd8     libucrt:lcidtoname_downlevel.obj
 0002:00006be8       ??_C@_1M@JHGLJMGJ@?$AAa?$AAr?$AA?9?$AAD?$AAZ@ 0000000180029be8     libucrt:lcidtoname_downlevel.obj
 0002:00006bf8       ??_C@_1M@JKKFDCNP@?$AAz?$AAh?$AA?9?$AAM?$AAO@ 0000000180029bf8     libucrt:lcidtoname_downlevel.obj
 0002:00006c08       ??_C@_1M@GEEFALPE@?$AAd?$AAe?$AA?9?$AAL?$AAI@ 0000000180029c08     libucrt:lcidtoname_downlevel.obj
 0002:00006c18       ??_C@_1M@IGEOFBG@?$AAe?$AAn?$AA?9?$AAN?$AAZ@ 0000000180029c18     libucrt:lcidtoname_downlevel.obj
 0002:00006c28       ??_C@_1M@KDBONEHP@?$AAe?$AAs?$AA?9?$AAC?$AAR@ 0000000180029c28     libucrt:lcidtoname_downlevel.obj
 0002:00006c38       ??_C@_1M@FHMDOHNN@?$AAf?$AAr?$AA?9?$AAL?$AAU@ 0000000180029c38     libucrt:lcidtoname_downlevel.obj
 0002:00006c48       ??_C@_1BG@NFKKMAFG@?$AAb?$AAs?$AA?9?$AAB?$AAA?$AA?9?$AAL?$AAa?$AAt?$AAn@ 0000000180029c48     libucrt:lcidtoname_downlevel.obj
 0002:00006c60       ??_C@_1O@IMNBEMCI@?$AAs?$AAm?$AAj?$AA?9?$AAS?$AAE@ 0000000180029c60     libucrt:lcidtoname_downlevel.obj
 0002:00006c70       ??_C@_1M@DHHMBNDP@?$AAa?$AAr?$AA?9?$AAM?$AAA@ 0000000180029c70     libucrt:lcidtoname_downlevel.obj
 0002:00006c80       ??_C@_1M@BNBLJCGH@?$AAe?$AAn?$AA?9?$AAI?$AAE@ 0000000180029c80     libucrt:lcidtoname_downlevel.obj
 0002:00006c90       ??_C@_1M@GEPAFMDL@?$AAe?$AAs?$AA?9?$AAP?$AAA@ 0000000180029c90     libucrt:lcidtoname_downlevel.obj
 0002:00006ca0       ??_C@_1M@OJONDMDL@?$AAf?$AAr?$AA?9?$AAM?$AAC@ 0000000180029ca0     libucrt:lcidtoname_downlevel.obj
 0002:00006cb0       ??_C@_1BG@OBCNFJB@?$AAs?$AAr?$AA?9?$AAB?$AAA?$AA?9?$AAL?$AAa?$AAt?$AAn@ 0000000180029cb0     libucrt:lcidtoname_downlevel.obj
 0002:00006cc8       ??_C@_1O@KEMEEGPO@?$AAs?$AAm?$AAa?$AA?9?$AAN?$AAO@ 0000000180029cc8     libucrt:lcidtoname_downlevel.obj
 0002:00006cd8       ??_C@_1M@ELMGFODK@?$AAa?$AAr?$AA?9?$AAT?$AAN@ 0000000180029cd8     libucrt:lcidtoname_downlevel.obj
 0002:00006ce8       ??_C@_1M@BHDLHFAF@?$AAe?$AAn?$AA?9?$AAZ?$AAA@ 0000000180029ce8     libucrt:lcidtoname_downlevel.obj
 0002:00006cf8       ??_C@_1M@BMGIGLIF@?$AAe?$AAs?$AA?9?$AAD?$AAO@ 0000000180029cf8     libucrt:lcidtoname_downlevel.obj
 0002:00006d08       ??_C@_1BG@CMBHIPBE@?$AAs?$AAr?$AA?9?$AAB?$AAA?$AA?9?$AAC?$AAy?$AAr?$AAl@ 0000000180029d08     libucrt:lcidtoname_downlevel.obj
 0002:00006d20       ??_C@_1O@HEDBLHNP@?$AAs?$AAm?$AAa?$AA?9?$AAS?$AAE@ 0000000180029d20     libucrt:lcidtoname_downlevel.obj
 0002:00006d30       ??_C@_1M@DAGCADIM@?$AAa?$AAr?$AA?9?$AAO?$AAM@ 0000000180029d30     libucrt:lcidtoname_downlevel.obj
 0002:00006d40       ??_C@_1M@FODLMICG@?$AAe?$AAn?$AA?9?$AAJ?$AAM@ 0000000180029d40     libucrt:lcidtoname_downlevel.obj
 0002:00006d50       ??_C@_1M@DNMLCIHB@?$AAe?$AAs?$AA?9?$AAV?$AAE@ 0000000180029d50     libucrt:lcidtoname_downlevel.obj
 0002:00006d60       ??_C@_1O@EOKHMKJK@?$AAs?$AAm?$AAs?$AA?9?$AAF?$AAI@ 0000000180029d60     libucrt:lcidtoname_downlevel.obj
 0002:00006d70       ??_C@_1M@CAFJMKOF@?$AAa?$AAr?$AA?9?$AAY?$AAE@ 0000000180029d70     libucrt:lcidtoname_downlevel.obj
 0002:00006d80       ??_C@_1M@CBFHIJLI@?$AAe?$AAn?$AA?9?$AAC?$AAB@ 0000000180029d80     libucrt:lcidtoname_downlevel.obj
 0002:00006d90       ??_C@_1M@BGNFLDN@?$AAe?$AAs?$AA?9?$AAC?$AAO@ 0000000180029d90     libucrt:lcidtoname_downlevel.obj
 0002:00006da0       ??_C@_1O@JMPHMAMC@?$AAs?$AAm?$AAn?$AA?9?$AAF?$AAI@ 0000000180029da0     libucrt:lcidtoname_downlevel.obj
 0002:00006db0       ??_C@_1M@JLANABKE@?$AAa?$AAr?$AA?9?$AAS?$AAY@ 0000000180029db0     libucrt:lcidtoname_downlevel.obj
 0002:00006dc0       ??_C@_1M@HPKGCFGN@?$AAe?$AAn?$AA?9?$AAB?$AAZ@ 0000000180029dc0     libucrt:lcidtoname_downlevel.obj
 0002:00006dd0       ??_C@_1M@OLJCMLGM@?$AAe?$AAs?$AA?9?$AAP?$AAE@ 0000000180029dd0     libucrt:lcidtoname_downlevel.obj
 0002:00006de0       ??_C@_1M@MKKGFKLE@?$AAa?$AAr?$AA?9?$AAJ?$AAO@ 0000000180029de0     libucrt:lcidtoname_downlevel.obj
 0002:00006df0       ??_C@_1M@EKPGLDNI@?$AAe?$AAn?$AA?9?$AAT?$AAT@ 0000000180029df0     libucrt:lcidtoname_downlevel.obj
 0002:00006e00       ??_C@_1M@OONGHFHE@?$AAe?$AAs?$AA?9?$AAA?$AAR@ 0000000180029e00     libucrt:lcidtoname_downlevel.obj
 0002:00006e10       ??_C@_1M@OOJFGBHE@?$AAa?$AAr?$AA?9?$AAL?$AAB@ 0000000180029e10     libucrt:lcidtoname_downlevel.obj
 0002:00006e20       ??_C@_1M@GCEJHNEG@?$AAe?$AAn?$AA?9?$AAZ?$AAW@ 0000000180029e20     libucrt:lcidtoname_downlevel.obj
 0002:00006e30       ??_C@_1M@JNOCAHJI@?$AAe?$AAs?$AA?9?$AAE?$AAC@ 0000000180029e30     libucrt:lcidtoname_downlevel.obj
 0002:00006e40       ??_C@_1M@JEFHPGGB@?$AAa?$AAr?$AA?9?$AAK?$AAW@ 0000000180029e40     libucrt:lcidtoname_downlevel.obj
 0002:00006e50       ??_C@_1M@MLKIBJOJ@?$AAe?$AAn?$AA?9?$AAP?$AAH@ 0000000180029e50     libucrt:lcidtoname_downlevel.obj
 0002:00006e60       ??_C@_1M@BDNIPEND@?$AAe?$AAs?$AA?9?$AAC?$AAL@ 0000000180029e60     libucrt:lcidtoname_downlevel.obj
 0002:00006e70       ??_C@_1M@MPNMEKBD@?$AAa?$AAr?$AA?9?$AAA?$AAE@ 0000000180029e70     libucrt:lcidtoname_downlevel.obj
 0002:00006e80       ??_C@_1M@KBJALCPI@?$AAe?$AAs?$AA?9?$AAU?$AAY@ 0000000180029e80     libucrt:lcidtoname_downlevel.obj
 0002:00006e90       ??_C@_1M@LLCCOAGA@?$AAa?$AAr?$AA?9?$AAB?$AAH@ 0000000180029e90     libucrt:lcidtoname_downlevel.obj
 0002:00006ea0       ??_C@_1M@PBFNCDEL@?$AAe?$AAs?$AA?9?$AAP?$AAY@ 0000000180029ea0     libucrt:lcidtoname_downlevel.obj
 0002:00006eb0       ??_C@_1M@EDGINPNP@?$AAa?$AAr?$AA?9?$AAQ?$AAA@ 0000000180029eb0     libucrt:lcidtoname_downlevel.obj
 0002:00006ec0       ??_C@_1M@MKDBIIJI@?$AAe?$AAs?$AA?9?$AAB?$AAO@ 0000000180029ec0     libucrt:lcidtoname_downlevel.obj
 0002:00006ed0       ??_C@_1M@CPKKEBLD@?$AAe?$AAs?$AA?9?$AAS?$AAV@ 0000000180029ed0     libucrt:lcidtoname_downlevel.obj
 0002:00006ee0       ??_C@_1M@NDBGMMJL@?$AAe?$AAs?$AA?9?$AAH?$AAN@ 0000000180029ee0     libucrt:lcidtoname_downlevel.obj
 0002:00006ef0       ??_C@_1M@JIJIBHDP@?$AAe?$AAs?$AA?9?$AAN?$AAI@ 0000000180029ef0     libucrt:lcidtoname_downlevel.obj
 0002:00006f00       ??_C@_1M@CGFMKEEK@?$AAe?$AAs?$AA?9?$AAP?$AAR@ 0000000180029f00     libucrt:lcidtoname_downlevel.obj
 0002:00006f10       ??_C@_1O@ICJHKIIK@?$AAz?$AAh?$AA?9?$AAC?$AAH?$AAT@ 0000000180029f10     libucrt:lcidtoname_downlevel.obj
 0002:00006f20       ??_C@_15CLNEJCE@?$AAs?$AAr@ 0000000180029f20     libucrt:lcidtoname_downlevel.obj
 0002:00007d70       ??_C@_1M@KAHEKEIG@?$AAa?$AAf?$AA?9?$AAz?$AAa@ 000000018002ad70     libucrt:lcidtoname_downlevel.obj
 0002:00007d80       ??_C@_1M@GIECOABL@?$AAa?$AAr?$AA?9?$AAa?$AAe@ 000000018002ad80     libucrt:lcidtoname_downlevel.obj
 0002:00007d90       ??_C@_1M@BMLMEKGI@?$AAa?$AAr?$AA?9?$AAb?$AAh@ 000000018002ad90     libucrt:lcidtoname_downlevel.obj
 0002:00007da0       ??_C@_1M@DAPFDGGB@?$AAa?$AAr?$AA?9?$AAd?$AAz@ 000000018002ada0     libucrt:lcidtoname_downlevel.obj
 0002:00007db0       ??_C@_1M@FJNKGKIG@?$AAa?$AAr?$AA?9?$AAe?$AAg@ 000000018002adb0     libucrt:lcidtoname_downlevel.obj
 0002:00007dc0       ??_C@_1M@FLGKKCLO@?$AAa?$AAr?$AA?9?$AAi?$AAq@ 000000018002adc0     libucrt:lcidtoname_downlevel.obj
 0002:00007dd0       ??_C@_1M@GNDIPALM@?$AAa?$AAr?$AA?9?$AAj?$AAo@ 000000018002add0     libucrt:lcidtoname_downlevel.obj
 0002:00007de0       ??_C@_1M@DDMJFMGJ@?$AAa?$AAr?$AA?9?$AAk?$AAw@ 000000018002ade0     libucrt:lcidtoname_downlevel.obj
 0002:00007df0       ??_C@_1M@EJALMLHM@?$AAa?$AAr?$AA?9?$AAl?$AAb@ 000000018002adf0     libucrt:lcidtoname_downlevel.obj
 0002:00007e00       ??_C@_1M@MOBDBLOC@?$AAa?$AAr?$AA?9?$AAl?$AAy@ 000000018002ae00     libucrt:lcidtoname_downlevel.obj
 0002:00007e10       ??_C@_1M@JAOCLHDH@?$AAa?$AAr?$AA?9?$AAm?$AAa@ 000000018002ae10     libucrt:lcidtoname_downlevel.obj
 0002:00007e20       ??_C@_1M@JHPMKJIE@?$AAa?$AAr?$AA?9?$AAo?$AAm@ 000000018002ae20     libucrt:lcidtoname_downlevel.obj
 0002:00007e30       ??_C@_1M@OEPGHFNH@?$AAa?$AAr?$AA?9?$AAq?$AAa@ 000000018002ae30     libucrt:lcidtoname_downlevel.obj
 0002:00007e40       ??_C@_1M@KJDONENM@?$AAa?$AAr?$AA?9?$AAs?$AAa@ 000000018002ae40     libucrt:lcidtoname_downlevel.obj
 0002:00007e50       ??_C@_1M@DMJDKLKM@?$AAa?$AAr?$AA?9?$AAs?$AAy@ 000000018002ae50     libucrt:lcidtoname_downlevel.obj
 0002:00007e60       ??_C@_1M@OMFIPEDC@?$AAa?$AAr?$AA?9?$AAt?$AAn@ 000000018002ae60     libucrt:lcidtoname_downlevel.obj
 0002:00007e70       ??_C@_1M@IHMHGAON@?$AAa?$AAr?$AA?9?$AAy?$AAe@ 000000018002ae70     libucrt:lcidtoname_downlevel.obj
 0002:00007e80       ??_C@_1BG@KDCPGJGB@?$AAa?$AAz?$AA?9?$AAa?$AAz?$AA?9?$AAc?$AAy?$AAr?$AAl@ 000000018002ae80     libucrt:lcidtoname_downlevel.obj
 0002:00007e98       ??_C@_1BG@IBCKDDOE@?$AAa?$AAz?$AA?9?$AAa?$AAz?$AA?9?$AAl?$AAa?$AAt?$AAn@ 000000018002ae98     libucrt:lcidtoname_downlevel.obj
 0002:00007eb0       ??_C@_1M@EGPFDCPD@?$AAb?$AAe?$AA?9?$AAb?$AAy@ 000000018002aeb0     libucrt:lcidtoname_downlevel.obj
 0002:00007ec0       ??_C@_1M@PCMGMCGC@?$AAb?$AAg?$AA?9?$AAb?$AAg@ 000000018002aec0     libucrt:lcidtoname_downlevel.obj
 0002:00007ed0       ??_C@_1M@BJBMFGOB@?$AAb?$AAn?$AA?9?$AAi?$AAn@ 000000018002aed0     libucrt:lcidtoname_downlevel.obj
 0002:00007ee0       ??_C@_1BG@EAKMMACD@?$AAb?$AAs?$AA?9?$AAb?$AAa?$AA?9?$AAl?$AAa?$AAt?$AAn@ 000000018002aee0     libucrt:lcidtoname_downlevel.obj
 0002:00007ef8       ??_C@_1M@KGADAODK@?$AAc?$AAa?$AA?9?$AAe?$AAs@ 000000018002aef8     libucrt:lcidtoname_downlevel.obj
 0002:00007f08       ??_C@_1M@COAJPDHI@?$AAc?$AAs?$AA?9?$AAc?$AAz@ 000000018002af08     libucrt:lcidtoname_downlevel.obj
 0002:00007f18       ??_C@_1M@DHBHFONH@?$AAc?$AAy?$AA?9?$AAg?$AAb@ 000000018002af18     libucrt:lcidtoname_downlevel.obj
 0002:00007f28       ??_C@_1M@IMGKELGA@?$AAd?$AAa?$AA?9?$AAd?$AAk@ 000000018002af28     libucrt:lcidtoname_downlevel.obj
 0002:00007f38       ??_C@_1M@NNDGDNGA@?$AAd?$AAe?$AA?9?$AAa?$AAt@ 000000018002af38     libucrt:lcidtoname_downlevel.obj
 0002:00007f48       ??_C@_1M@IKDBHEEM@?$AAd?$AAe?$AA?9?$AAc?$AAh@ 000000018002af48     libucrt:lcidtoname_downlevel.obj
 0002:00007f58       ??_C@_1M@GFFOJMCJ@?$AAd?$AAe?$AA?9?$AAd?$AAe@ 000000018002af58     libucrt:lcidtoname_downlevel.obj
 0002:00007f68       ??_C@_1M@MDNLKBPM@?$AAd?$AAe?$AA?9?$AAl?$AAi@ 000000018002af68     libucrt:lcidtoname_downlevel.obj
 0002:00007f78       ??_C@_1M@NJBEEJNL@?$AAd?$AAe?$AA?9?$AAl?$AAu@ 000000018002af78     libucrt:lcidtoname_downlevel.obj
 0002:00007f88       ??_C@_1O@GNNELBAP@?$AAd?$AAi?$AAv?$AA?9?$AAm?$AAv@ 000000018002af88     libucrt:lcidtoname_downlevel.obj
 0002:00007f98       ??_C@_1M@EJLEOGAE@?$AAe?$AAl?$AA?9?$AAg?$AAr@ 000000018002af98     libucrt:lcidtoname_downlevel.obj
 0002:00007fa8       ??_C@_1M@GMPONJN@?$AAe?$AAn?$AA?9?$AAa?$AAu@ 000000018002afa8     libucrt:lcidtoname_downlevel.obj
 0002:00007fb8       ??_C@_1M@NIDIIPGF@?$AAe?$AAn?$AA?9?$AAb?$AAz@ 000000018002afb8     libucrt:lcidtoname_downlevel.obj
 0002:00007fc8       ??_C@_1M@JEHMIMFO@?$AAe?$AAn?$AA?9?$AAc?$AAa@ 000000018002afc8     libucrt:lcidtoname_downlevel.obj
 0002:00007fd8       ??_C@_1M@IGMJCDLA@?$AAe?$AAn?$AA?9?$AAc?$AAb@ 000000018002afd8     libucrt:lcidtoname_downlevel.obj
 0002:00007fe8       ??_C@_1M@BNFIGBKG@?$AAe?$AAn?$AA?9?$AAg?$AAb@ 000000018002afe8     libucrt:lcidtoname_downlevel.obj
 0002:00007ff8       ??_C@_1M@LKIFDIGP@?$AAe?$AAn?$AA?9?$AAi?$AAe@ 000000018002aff8     libucrt:lcidtoname_downlevel.obj
 0002:00008008       ??_C@_1M@PJKFGCCO@?$AAe?$AAn?$AA?9?$AAj?$AAm@ 000000018002b008     libucrt:lcidtoname_downlevel.obj
 0002:00008018       ??_C@_1M@KPPKEPBO@?$AAe?$AAn?$AA?9?$AAn?$AAz@ 000000018002b018     libucrt:lcidtoname_downlevel.obj
 0002:00008028       ??_C@_1M@GMDGLDOB@?$AAe?$AAn?$AA?9?$AAp?$AAh@ 000000018002b028     libucrt:lcidtoname_downlevel.obj
 0002:00008038       ??_C@_1M@ONGIBJNA@?$AAe?$AAn?$AA?9?$AAt?$AAt@ 000000018002b038     libucrt:lcidtoname_downlevel.obj
 0002:00008048       ??_C@_1M@LLODPCMM@?$AAe?$AAn?$AA?9?$AAu?$AAs@ 000000018002b048     libucrt:lcidtoname_downlevel.obj
 0002:00008058       ??_C@_1M@LAKFNPAN@?$AAe?$AAn?$AA?9?$AAz?$AAa@ 000000018002b058     libucrt:lcidtoname_downlevel.obj
 0002:00008068       ??_C@_1M@MFNHNHEO@?$AAe?$AAn?$AA?9?$AAz?$AAw@ 000000018002b068     libucrt:lcidtoname_downlevel.obj
 0002:00008078       ??_C@_1M@EJEINPHM@?$AAe?$AAs?$AA?9?$AAa?$AAr@ 000000018002b078     libucrt:lcidtoname_downlevel.obj
 0002:00008088       ??_C@_1M@GNKPCCJA@?$AAe?$AAs?$AA?9?$AAb?$AAo@ 000000018002b088     libucrt:lcidtoname_downlevel.obj
 0002:00008098       ??_C@_1M@LEEGFONL@?$AAe?$AAs?$AA?9?$AAc?$AAl@ 000000018002b098     libucrt:lcidtoname_downlevel.obj
 0002:000080a8       ??_C@_1M@KGPDPBDF@?$AAe?$AAs?$AA?9?$AAc?$AAo@ 000000018002b0a8     libucrt:lcidtoname_downlevel.obj
 0002:000080b8       ??_C@_1M@EIAHOHH@?$AAe?$AAs?$AA?9?$AAc?$AAr@ 000000018002b0b8     libucrt:lcidtoname_downlevel.obj
 0002:000080c8       ??_C@_1M@LLPGMBIN@?$AAe?$AAs?$AA?9?$AAd?$AAo@ 000000018002b0c8     libucrt:lcidtoname_downlevel.obj
 0002:000080d8       ??_C@_1M@DKHMKNJA@?$AAe?$AAs?$AA?9?$AAe?$AAc@ 000000018002b0d8     libucrt:lcidtoname_downlevel.obj
 0002:000080e8       ??_C@_1M@GKGFPKAP@?$AAe?$AAs?$AA?9?$AAe?$AAs@ 000000018002b0e8     libucrt:lcidtoname_downlevel.obj
 0002:000080f8       ??_C@_1M@LKHKGDLN@?$AAe?$AAs?$AA?9?$AAg?$AAt@ 000000018002b0f8     libucrt:lcidtoname_downlevel.obj
 0002:00008108       ??_C@_1M@HEIIGGJD@?$AAe?$AAs?$AA?9?$AAh?$AAn@ 000000018002b108     libucrt:lcidtoname_downlevel.obj
 0002:00008118       ??_C@_1M@FBDHPPGD@?$AAe?$AAs?$AA?9?$AAm?$AAx@ 000000018002b118     libucrt:lcidtoname_downlevel.obj
 0002:00008128       ??_C@_1M@DPAGLNDH@?$AAe?$AAs?$AA?9?$AAn?$AAi@ 000000018002b128     libucrt:lcidtoname_downlevel.obj
 0002:00008138       ??_C@_1M@MDGOPGDD@?$AAe?$AAs?$AA?9?$AAp?$AAa@ 000000018002b138     libucrt:lcidtoname_downlevel.obj
 0002:00008148       ??_C@_1M@EMAMGBGE@?$AAe?$AAs?$AA?9?$AAp?$AAe@ 000000018002b148     libucrt:lcidtoname_downlevel.obj
 0002:00008158       ??_C@_1M@IBMCAOEC@?$AAe?$AAs?$AA?9?$AAp?$AAr@ 000000018002b158     libucrt:lcidtoname_downlevel.obj
 0002:00008168       ??_C@_1M@FGMDIJED@?$AAe?$AAs?$AA?9?$AAp?$AAy@ 000000018002b168     libucrt:lcidtoname_downlevel.obj
 0002:00008178       ??_C@_1M@IIDEOLLL@?$AAe?$AAs?$AA?9?$AAs?$AAv@ 000000018002b178     libucrt:lcidtoname_downlevel.obj
 0002:00008188       ??_C@_1M@GAOBIPA@?$AAe?$AAs?$AA?9?$AAu?$AAy@ 000000018002b188     libucrt:lcidtoname_downlevel.obj
 0002:00008198       ??_C@_1M@JKFFICHJ@?$AAe?$AAs?$AA?9?$AAv?$AAe@ 000000018002b198     libucrt:lcidtoname_downlevel.obj
 0002:000081a8       ??_C@_1M@PNMLOJDF@?$AAe?$AAt?$AA?9?$AAe?$AAe@ 000000018002b1a8     libucrt:lcidtoname_downlevel.obj
 0002:000081b8       ??_C@_1M@GHHLIKEI@?$AAe?$AAu?$AA?9?$AAe?$AAs@ 000000018002b1b8     libucrt:lcidtoname_downlevel.obj
 0002:000081c8       ??_C@_1M@PBNONODE@?$AAf?$AAa?$AA?9?$AAi?$AAr@ 000000018002b1c8     libucrt:lcidtoname_downlevel.obj
 0002:000081d8       ??_C@_1M@JEEHPMIL@?$AAf?$AAi?$AA?9?$AAf?$AAi@ 000000018002b1d8     libucrt:lcidtoname_downlevel.obj
 0002:000081e8       ??_C@_1M@LMDCNDBA@?$AAf?$AAo?$AA?9?$AAf?$AAo@ 000000018002b1e8     libucrt:lcidtoname_downlevel.obj
 0002:000081f8       ??_C@_1M@JKEOHLDK@?$AAf?$AAr?$AA?9?$AAb?$AAe@ 000000018002b1f8     libucrt:lcidtoname_downlevel.obj
 0002:00008208       ??_C@_1M@NOHADPMI@?$AAf?$AAr?$AA?9?$AAc?$AAa@ 000000018002b208     libucrt:lcidtoname_downlevel.obj
 0002:00008218       ??_C@_1M@KDHIHAEC@?$AAf?$AAr?$AA?9?$AAc?$AAh@ 000000018002b218     libucrt:lcidtoname_downlevel.obj
 0002:00008228       ??_C@_1M@MMBBFGAK@?$AAf?$AAr?$AA?9?$AAf?$AAr@ 000000018002b228     libucrt:lcidtoname_downlevel.obj
 0002:00008238       ??_C@_1M@PAFNENNF@?$AAf?$AAr?$AA?9?$AAl?$AAu@ 000000018002b238     libucrt:lcidtoname_downlevel.obj
 0002:00008248       ??_C@_1M@EOHDJGDD@?$AAf?$AAr?$AA?9?$AAm?$AAc@ 000000018002b248     libucrt:lcidtoname_downlevel.obj
 0002:00008258       ??_C@_1M@FAPLLOPF@?$AAg?$AAl?$AA?9?$AAe?$AAs@ 000000018002b258     libucrt:lcidtoname_downlevel.obj
 0002:00008268       ??_C@_1M@FOPBFLOO@?$AAg?$AAu?$AA?9?$AAi?$AAn@ 000000018002b268     libucrt:lcidtoname_downlevel.obj
 0002:00008278       ??_C@_1M@KBMCINPM@?$AAh?$AAe?$AA?9?$AAi?$AAl@ 000000018002b278     libucrt:lcidtoname_downlevel.obj
 0002:00008288       ??_C@_1M@BBPHKFPJ@?$AAh?$AAi?$AA?9?$AAi?$AAn@ 000000018002b288     libucrt:lcidtoname_downlevel.obj
 0002:00008298       ??_C@_1M@PMBNDPHD@?$AAh?$AAr?$AA?9?$AAb?$AAa@ 000000018002b298     libucrt:lcidtoname_downlevel.obj
 0002:000082a8       ??_C@_1M@BPCKOEGE@?$AAh?$AAr?$AA?9?$AAh?$AAr@ 000000018002b2a8     libucrt:lcidtoname_downlevel.obj
 0002:000082b8       ??_C@_1M@GACBMHKE@?$AAh?$AAu?$AA?9?$AAh?$AAu@ 000000018002b2b8     libucrt:lcidtoname_downlevel.obj
 0002:000082c8       ??_C@_1M@MILPAJJC@?$AAh?$AAy?$AA?9?$AAa?$AAm@ 000000018002b2c8     libucrt:lcidtoname_downlevel.obj
 0002:000082d8       ??_C@_1M@BABBICEC@?$AAi?$AAd?$AA?9?$AAi?$AAd@ 000000018002b2d8     libucrt:lcidtoname_downlevel.obj
 0002:000082e8       ??_C@_1M@BIKNHHPF@?$AAi?$AAs?$AA?9?$AAi?$AAs@ 000000018002b2e8     libucrt:lcidtoname_downlevel.obj
 0002:000082f8       ??_C@_1M@NMPCJPHE@?$AAi?$AAt?$AA?9?$AAc?$AAh@ 000000018002b2f8     libucrt:lcidtoname_downlevel.obj
 0002:00008308       ??_C@_1M@GHKGFEDF@?$AAi?$AAt?$AA?9?$AAi?$AAt@ 000000018002b308     libucrt:lcidtoname_downlevel.obj
 0002:00008318       ??_C@_1M@NIEJCJJA@?$AAj?$AAa?$AA?9?$AAj?$AAp@ 000000018002b318     libucrt:lcidtoname_downlevel.obj
 0002:00008328       ??_C@_1M@JILFNBIM@?$AAk?$AAa?$AA?9?$AAg?$AAe@ 000000018002b328     libucrt:lcidtoname_downlevel.obj
 0002:00008338       ??_C@_1M@PACPMGPH@?$AAk?$AAk?$AA?9?$AAk?$AAz@ 000000018002b338     libucrt:lcidtoname_downlevel.obj
 0002:00008348       ??_C@_1M@IELFGMHA@?$AAk?$AAn?$AA?9?$AAi?$AAn@ 000000018002b348     libucrt:lcidtoname_downlevel.obj
 0002:00008358       ??_C@_1O@IBBJHCH@?$AAk?$AAo?$AAk?$AA?9?$AAi?$AAn@ 000000018002b358     libucrt:lcidtoname_downlevel.obj
 0002:00008368       ??_C@_1M@DMHAEOGC@?$AAk?$AAo?$AA?9?$AAk?$AAr@ 000000018002b368     libucrt:lcidtoname_downlevel.obj
 0002:00008378       ??_C@_1M@HBAHBIGA@?$AAk?$AAy?$AA?9?$AAk?$AAg@ 000000018002b378     libucrt:lcidtoname_downlevel.obj
 0002:00008388       ??_C@_1M@KPMILCJG@?$AAl?$AAt?$AA?9?$AAl?$AAt@ 000000018002b388     libucrt:lcidtoname_downlevel.obj
 0002:00008398       ??_C@_1M@BDEKKCA@?$AAl?$AAv?$AA?9?$AAl?$AAv@ 000000018002b398     libucrt:lcidtoname_downlevel.obj
 0002:000083a8       ??_C@_1M@ELCKCCJJ@?$AAm?$AAi?$AA?9?$AAn?$AAz@ 000000018002b3a8     libucrt:lcidtoname_downlevel.obj
 0002:000083b8       ??_C@_1M@CBOOLAPA@?$AAm?$AAk?$AA?9?$AAm?$AAk@ 000000018002b3b8     libucrt:lcidtoname_downlevel.obj
 0002:000083c8       ??_C@_1M@GPHNBJKN@?$AAm?$AAl?$AA?9?$AAi?$AAn@ 000000018002b3c8     libucrt:lcidtoname_downlevel.obj
 0002:000083d8       ??_C@_1M@PABJILIG@?$AAm?$AAn?$AA?9?$AAm?$AAn@ 000000018002b3d8     libucrt:lcidtoname_downlevel.obj
 0002:000083e8       ??_C@_1M@FGBKKIPG@?$AAm?$AAr?$AA?9?$AAi?$AAn@ 000000018002b3e8     libucrt:lcidtoname_downlevel.obj
 0002:000083f8       ??_C@_1M@NDBPDDAL@?$AAm?$AAs?$AA?9?$AAb?$AAn@ 000000018002b3f8     libucrt:lcidtoname_downlevel.obj
 0002:00008408       ??_C@_1M@OPIHOOPI@?$AAm?$AAs?$AA?9?$AAm?$AAy@ 000000018002b408     libucrt:lcidtoname_downlevel.obj
 0002:00008418       ??_C@_1M@PPDBCNFM@?$AAm?$AAt?$AA?9?$AAm?$AAt@ 000000018002b418     libucrt:lcidtoname_downlevel.obj
 0002:00008428       ??_C@_1M@KDJDKMDD@?$AAn?$AAb?$AA?9?$AAn?$AAo@ 000000018002b428     libucrt:lcidtoname_downlevel.obj
 0002:00008438       ??_C@_1M@KFCFLMJP@?$AAn?$AAl?$AA?9?$AAb?$AAe@ 000000018002b438     libucrt:lcidtoname_downlevel.obj
 0002:00008448       ??_C@_1M@KPOPDDGO@?$AAn?$AAl?$AA?9?$AAn?$AAl@ 000000018002b448     libucrt:lcidtoname_downlevel.obj
 0002:00008458       ??_C@_1M@LJKPEMLN@?$AAn?$AAn?$AA?9?$AAn?$AAo@ 000000018002b458     libucrt:lcidtoname_downlevel.obj
 0002:00008468       ??_C@_1M@BDGHHBFL@?$AAn?$AAs?$AA?9?$AAz?$AAa@ 000000018002b468     libucrt:lcidtoname_downlevel.obj
 0002:00008478       ??_C@_1M@IDEHOAP@?$AAp?$AAa?$AA?9?$AAi?$AAn@ 000000018002b478     libucrt:lcidtoname_downlevel.obj
 0002:00008488       ??_C@_1M@HDBKGOGH@?$AAp?$AAl?$AA?9?$AAp?$AAl@ 000000018002b488     libucrt:lcidtoname_downlevel.obj
 0002:00008498       ??_C@_1M@LJLLCMEH@?$AAp?$AAt?$AA?9?$AAb?$AAr@ 000000018002b498     libucrt:lcidtoname_downlevel.obj
 0002:000084a8       ??_C@_1M@NCMONAAL@?$AAp?$AAt?$AA?9?$AAp?$AAt@ 000000018002b4a8     libucrt:lcidtoname_downlevel.obj
 0002:000084b8       ??_C@_1O@EAKMAJDN@?$AAq?$AAu?$AAz?$AA?9?$AAb?$AAo@ 000000018002b4b8     libucrt:lcidtoname_downlevel.obj
 0002:000084c8       ??_C@_1O@BHHPIGDN@?$AAq?$AAu?$AAz?$AA?9?$AAe?$AAc@ 000000018002b4c8     libucrt:lcidtoname_downlevel.obj
 0002:000084d8       ??_C@_1O@GBAPEKMJ@?$AAq?$AAu?$AAz?$AA?9?$AAp?$AAe@ 000000018002b4d8     libucrt:lcidtoname_downlevel.obj
 0002:000084e8       ??_C@_1M@CLGLEFBO@?$AAr?$AAo?$AA?9?$AAr?$AAo@ 000000018002b4e8     libucrt:lcidtoname_downlevel.obj
 0002:000084f8       ??_C@_1M@CEEDODME@?$AAr?$AAu?$AA?9?$AAr?$AAu@ 000000018002b4f8     libucrt:lcidtoname_downlevel.obj
 0002:00008508       ??_C@_1M@HPKKKMPP@?$AAs?$AAa?$AA?9?$AAi?$AAn@ 000000018002b508     libucrt:lcidtoname_downlevel.obj
 0002:00008518       ??_C@_1M@BKMAIGOJ@?$AAs?$AAe?$AA?9?$AAf?$AAi@ 000000018002b518     libucrt:lcidtoname_downlevel.obj
 0002:00008528       ??_C@_1M@NDPIFLFI@?$AAs?$AAe?$AA?9?$AAn?$AAo@ 000000018002b528     libucrt:lcidtoname_downlevel.obj
 0002:00008538       ??_C@_1M@DANKKHJ@?$AAs?$AAe?$AA?9?$AAs?$AAe@ 000000018002b538     libucrt:lcidtoname_downlevel.obj
 0002:00008548       ??_C@_1M@PNBLONPJ@?$AAs?$AAk?$AA?9?$AAs?$AAk@ 000000018002b548     libucrt:lcidtoname_downlevel.obj
 0002:00008558       ??_C@_1M@LFMODOAL@?$AAs?$AAl?$AA?9?$AAs?$AAi@ 000000018002b558     libucrt:lcidtoname_downlevel.obj
 0002:00008568       ??_C@_1O@DFKOMPG@?$AAs?$AAm?$AAa?$AA?9?$AAn?$AAo@ 000000018002b568     libucrt:lcidtoname_downlevel.obj
 0002:00008578       ??_C@_1O@NDKPBNNH@?$AAs?$AAm?$AAa?$AA?9?$AAs?$AAe@ 000000018002b578     libucrt:lcidtoname_downlevel.obj
 0002:00008588       ??_C@_1O@PLLKBHAB@?$AAs?$AAm?$AAj?$AA?9?$AAn?$AAo@ 000000018002b588     libucrt:lcidtoname_downlevel.obj
 0002:00008598       ??_C@_1O@CLEPOGCA@?$AAs?$AAm?$AAj?$AA?9?$AAs?$AAe@ 000000018002b598     libucrt:lcidtoname_downlevel.obj
 0002:000085a8       ??_C@_1O@DLGJGKMK@?$AAs?$AAm?$AAn?$AA?9?$AAf?$AAi@ 000000018002b5a8     libucrt:lcidtoname_downlevel.obj
 0002:000085b8       ??_C@_1O@OJDJGAJC@?$AAs?$AAm?$AAs?$AA?9?$AAf?$AAi@ 000000018002b5b8     libucrt:lcidtoname_downlevel.obj
 0002:000085c8       ??_C@_1M@BOFOGHPB@?$AAs?$AAq?$AA?9?$AAa?$AAl@ 000000018002b5c8     libucrt:lcidtoname_downlevel.obj
 0002:000085d8       ??_C@_1BG@LJBBIPGB@?$AAs?$AAr?$AA?9?$AAb?$AAa?$AA?9?$AAc?$AAy?$AAr?$AAl@ 000000018002b5d8     libucrt:lcidtoname_downlevel.obj
 0002:000085f0       ??_C@_1BG@JLBENFOE@?$AAs?$AAr?$AA?9?$AAb?$AAa?$AA?9?$AAl?$AAa?$AAt?$AAn@ 000000018002b5f0     libucrt:lcidtoname_downlevel.obj
 0002:00008608       ??_C@_1BG@KODPNHE@?$AAs?$AAr?$AA?9?$AAs?$AAp?$AA?9?$AAc?$AAy?$AAr?$AAl@ 000000018002b608     libucrt:lcidtoname_downlevel.obj
 0002:00008620       ??_C@_1BG@CIOGKHPB@?$AAs?$AAr?$AA?9?$AAs?$AAp?$AA?9?$AAl?$AAa?$AAt?$AAn@ 000000018002b620     libucrt:lcidtoname_downlevel.obj
 0002:00008638       ??_C@_1M@NGFJLMAC@?$AAs?$AAv?$AA?9?$AAf?$AAi@ 000000018002b638     libucrt:lcidtoname_downlevel.obj
 0002:00008648       ??_C@_1M@MPJEJAJC@?$AAs?$AAv?$AA?9?$AAs?$AAe@ 000000018002b648     libucrt:lcidtoname_downlevel.obj
 0002:00008658       ??_C@_1M@MPNDHLFK@?$AAs?$AAw?$AA?9?$AAk?$AAe@ 000000018002b658     libucrt:lcidtoname_downlevel.obj
 0002:00008668       ??_C@_1O@KOHBJJI@?$AAs?$AAy?$AAr?$AA?9?$AAs?$AAy@ 000000018002b668     libucrt:lcidtoname_downlevel.obj
 0002:00008678       ??_C@_1M@LDCEFHA@?$AAt?$AAa?$AA?9?$AAi?$AAn@ 000000018002b678     libucrt:lcidtoname_downlevel.obj
 0002:00008688       ??_C@_1M@CNJOFAK@?$AAt?$AAe?$AA?9?$AAi?$AAn@ 000000018002b688     libucrt:lcidtoname_downlevel.obj
 0002:00008698       ??_C@_1M@GNAECACD@?$AAt?$AAh?$AA?9?$AAt?$AAh@ 000000018002b698     libucrt:lcidtoname_downlevel.obj
 0002:000086a8       ??_C@_1M@CHBIHOJO@?$AAt?$AAn?$AA?9?$AAz?$AAa@ 000000018002b6a8     libucrt:lcidtoname_downlevel.obj
 0002:000086b8       ??_C@_1M@GCCMIGPJ@?$AAt?$AAr?$AA?9?$AAt?$AAr@ 000000018002b6b8     libucrt:lcidtoname_downlevel.obj
 0002:000086c8       ??_C@_1M@CELMCNBK@?$AAt?$AAt?$AA?9?$AAr?$AAu@ 000000018002b6c8     libucrt:lcidtoname_downlevel.obj
 0002:000086d8       ??_C@_1M@KLMCELGA@?$AAu?$AAk?$AA?9?$AAu?$AAa@ 000000018002b6d8     libucrt:lcidtoname_downlevel.obj
 0002:000086e8       ??_C@_1M@EPAJJAJF@?$AAu?$AAr?$AA?9?$AAp?$AAk@ 000000018002b6e8     libucrt:lcidtoname_downlevel.obj
 0002:000086f8       ??_C@_1BG@GEGPMCDJ@?$AAu?$AAz?$AA?9?$AAu?$AAz?$AA?9?$AAc?$AAy?$AAr?$AAl@ 000000018002b6f8     libucrt:lcidtoname_downlevel.obj
 0002:00008710       ??_C@_1BG@EGGKJILM@?$AAu?$AAz?$AA?9?$AAu?$AAz?$AA?9?$AAl?$AAa?$AAt?$AAn@ 000000018002b710     libucrt:lcidtoname_downlevel.obj
 0002:00008728       ??_C@_1M@GFOCLFF@?$AAv?$AAi?$AA?9?$AAv?$AAn@ 000000018002b728     libucrt:lcidtoname_downlevel.obj
 0002:00008738       ??_C@_1M@CPAMEDFI@?$AAx?$AAh?$AA?9?$AAz?$AAa@ 000000018002b738     libucrt:lcidtoname_downlevel.obj
 0002:00008748       ??_C@_1O@EBKIFIGN@?$AAz?$AAh?$AA?9?$AAc?$AAh?$AAs@ 000000018002b748     libucrt:lcidtoname_downlevel.obj
 0002:00008758       ??_C@_1O@NMHPGANE@?$AAz?$AAh?$AA?9?$AAc?$AAh?$AAt@ 000000018002b758     libucrt:lcidtoname_downlevel.obj
 0002:00008768       ??_C@_1M@LPINJOMC@?$AAz?$AAh?$AA?9?$AAc?$AAn@ 000000018002b768     libucrt:lcidtoname_downlevel.obj
 0002:00008778       ??_C@_1M@OCJEJODD@?$AAz?$AAh?$AA?9?$AAh?$AAk@ 000000018002b778     libucrt:lcidtoname_downlevel.obj
 0002:00008788       ??_C@_1M@DNDLJINH@?$AAz?$AAh?$AA?9?$AAm?$AAo@ 000000018002b788     libucrt:lcidtoname_downlevel.obj
 0002:00008798       ??_C@_1M@MBFDNDND@?$AAz?$AAh?$AA?9?$AAs?$AAg@ 000000018002b798     libucrt:lcidtoname_downlevel.obj
 0002:000087a8       ??_C@_1M@IMEPLEPE@?$AAz?$AAh?$AA?9?$AAt?$AAw@ 000000018002b7a8     libucrt:lcidtoname_downlevel.obj
 0002:000087b8       ??_C@_1M@BBGHNHJP@?$AAz?$AAu?$AA?9?$AAz?$AAa@ 000000018002b7b8     libucrt:lcidtoname_downlevel.obj
 0002:000087d0       ?large_power_data@?1??multiply_by_power_of_ten@__crt_strtox@@YA_NAEAUbig_integer@2@I@Z@4QBIB 000000018002b7d0     libucrt:cfout.obj
 0002:000090e0       ?large_power_indices@?1??multiply_by_power_of_ten@__crt_strtox@@YA_NAEAUbig_integer@2@I@Z@4QBUunpack_index@?1??12@YA_N0I@Z@B 000000018002c0e0     libucrt:cfout.obj
 0002:00009178       ?small_powers_of_ten@?1??multiply_by_power_of_ten@__crt_strtox@@YA_NAEAUbig_integer@2@I@Z@4QBIB 000000018002c178     libucrt:cfout.obj
 0002:0000919c       ??_C@_01GBGANLPD@0@        000000018002c19c     libucrt:cfout.obj
 0002:000091a0       ??_C@_05DNEBIAHO@1?$CDINF@ 000000018002c1a0     libucrt:cfout.obj
 0002:000091a8       ??_C@_06IMKFLFPG@1?$CDQNAN@ 000000018002c1a8     libucrt:cfout.obj
 0002:000091b0       ??_C@_06PGGFOGJG@1?$CDSNAN@ 000000018002c1b0     libucrt:cfout.obj
 0002:000091b8       ??_C@_05PHHOCPM@1?$CDIND@  000000018002c1b8     libucrt:cfout.obj
 0002:000091c0       __real@3ff0000000000000    000000018002c1c0     libucrt:ceil.obj
 0002:00009420       __log10_256_lead           000000018002c420     libucrt:log10_256_lead_tail_table.obj
 0002:00009c30       __log10_256_tail           000000018002cc30     libucrt:log10_256_lead_tail_table.obj
 0002:0000a440       __log_F_inv_qword          000000018002d440     libucrt:log_f_inv_qword_table.obj
 0002:0000ac50       ??_C@_05HGHHAHAP@log10@    000000018002dc50     libucrt:log_special.obj
 0002:0000ac58       ??_C@_1BA@BALFACEM@?$AAC?$AAO?$AAN?$AAO?$AAU?$AAT?$AA$@ 000000018002dc58     libucrt:initcon.obj
 0002:0000ace0       _load_config_used          000000018002dce0     LIBCMT:loadcfg.obj
 0002:0000ae80       _tls_used                  000000018002de80     LIBCMT:tlssup.obj
 0002:0000aea8       ??_R4exception@std@@6B@    000000018002dea8     LIBCMT:throw_bad_alloc.obj
 0002:0000aed0       ??_R3exception@std@@8      000000018002ded0     LIBCMT:throw_bad_alloc.obj
 0002:0000aee8       ??_R2exception@std@@8      000000018002dee8     LIBCMT:throw_bad_alloc.obj
 0002:0000aef8       ??_R1A@?0A@EA@exception@std@@8 000000018002def8     LIBCMT:throw_bad_alloc.obj
 0002:0000af20       ??_R4bad_alloc@std@@6B@    000000018002df20     LIBCMT:throw_bad_alloc.obj
 0002:0000af48       ??_R3bad_alloc@std@@8      000000018002df48     LIBCMT:throw_bad_alloc.obj
 0002:0000af60       ??_R2bad_alloc@std@@8      000000018002df60     LIBCMT:throw_bad_alloc.obj
 0002:0000af78       ??_R1A@?0A@EA@bad_alloc@std@@8 000000018002df78     LIBCMT:throw_bad_alloc.obj
 0002:0000afa0       ??_R4bad_array_new_length@std@@6B@ 000000018002dfa0     LIBCMT:throw_bad_alloc.obj
 0002:0000afc8       ??_R3bad_array_new_length@std@@8 000000018002dfc8     LIBCMT:throw_bad_alloc.obj
 0002:0000afe0       ??_R2bad_array_new_length@std@@8 000000018002dfe0     LIBCMT:throw_bad_alloc.obj
 0002:0000b000       ??_R1A@?0A@EA@bad_array_new_length@std@@8 000000018002e000     LIBCMT:throw_bad_alloc.obj
 0002:0000b028       ??_R4type_info@@6B@        000000018002e028     LIBCMT:std_type_info_static.obj
 0002:0000b050       ??_R3type_info@@8          000000018002e050     LIBCMT:std_type_info_static.obj
 0002:0000b068       ??_R2type_info@@8          000000018002e068     LIBCMT:std_type_info_static.obj
 0002:0000b078       ??_R1A@?0A@EA@type_info@@8 000000018002e078     LIBCMT:std_type_info_static.obj
 0002:0000b0a0       ??_R4bad_exception@std@@6B@ 000000018002e0a0     libvcruntime:frame.obj
 0002:0000b0c8       ??_R3bad_exception@std@@8  000000018002e0c8     libvcruntime:frame.obj
 0002:0000b0e0       ??_R2bad_exception@std@@8  000000018002e0e0     libvcruntime:frame.obj
 0002:0000b0f8       ??_R1A@?0A@EA@bad_exception@std@@8 000000018002e0f8     libvcruntime:frame.obj
 0002:0000b530       __rtc_iaa                  000000018002e530     LIBCMT:initsect.obj
 0002:0000b538       __rtc_izz                  000000018002e538     LIBCMT:initsect.obj
 0002:0000b540       __rtc_taa                  000000018002e540     LIBCMT:initsect.obj
 0002:0000b548       __rtc_tzz                  000000018002e548     LIBCMT:initsect.obj
 0002:0000b550       _tls_start                 000000018002e550     LIBCMT:tlssup.obj
 0002:0000b554       _Init_thread_epoch         000000018002e554     LIBCMT:thread_safe_statics.obj
 0002:0000b558       _tls_end                   000000018002e558     LIBCMT:tlssup.obj
 0002:0000cc28       _TI2?AVbad_alloc@std@@     000000018002fc28     LIBCMT:throw_bad_alloc.obj
 0002:0000cc48       _CTA2?AVbad_alloc@std@@    000000018002fc48     LIBCMT:throw_bad_alloc.obj
 0002:0000cc60       _CT??_R0?AVbad_alloc@std@@@8??0bad_alloc@std@@QEAA@AEBV01@@Z24 000000018002fc60     LIBCMT:throw_bad_alloc.obj
 0002:0000cc88       _CT??_R0?AVexception@std@@@8??0exception@std@@QEAA@AEBV01@@Z24 000000018002fc88     LIBCMT:throw_bad_alloc.obj
 0002:0000ccb0       _TI3?AVbad_array_new_length@std@@ 000000018002fcb0     LIBCMT:throw_bad_alloc.obj
 0002:0000ccd0       _CTA3?AVbad_array_new_length@std@@ 000000018002fcd0     LIBCMT:throw_bad_alloc.obj
 0002:0000ccf0       _CT??_R0?AVbad_array_new_length@std@@@8??0bad_array_new_length@std@@QEAA@AEBV01@@Z24 000000018002fcf0     LIBCMT:throw_bad_alloc.obj
 0002:0000cd18       _TI2?AVbad_exception@std@@ 000000018002fd18     libvcruntime:frame.obj
 0002:0000cd38       _CTA2?AVbad_exception@std@@ 000000018002fd38     libvcruntime:frame.obj
 0002:0000cd50       _CT??_R0?AVbad_exception@std@@@8??0bad_exception@std@@QEAA@AEBV01@@Z24 000000018002fd50     libvcruntime:frame.obj
 0002:0000cd78       __pobjMapEntryFirst        000000018002fd78     OposVariant.obj
 0002:0000cd80       __pobjMapEntryLast         000000018002fd80     OposVariant.obj
 0002:0000ce48       __IMPORT_DESCRIPTOR_KERNEL32 000000018002fe48     kernel32:KERNEL32.dll
 0002:0000ce5c       __IMPORT_DESCRIPTOR_USER32 000000018002fe5c     user32:USER32.dll
 0002:0000ce70       __IMPORT_DESCRIPTOR_GDI32  000000018002fe70     gdi32:GDI32.dll
 0002:0000ce84       __IMPORT_DESCRIPTOR_ADVAPI32 000000018002fe84     advapi32:ADVAPI32.dll
 0002:0000ce98       __IMPORT_DESCRIPTOR_ole32  000000018002fe98     ole32:ole32.dll
 0002:0000ceac       __IMPORT_DESCRIPTOR_OLEAUT32 000000018002feac     oleaut32:OLEAUT32.dll
 0002:0000cec0       __NULL_IMPORT_DESCRIPTOR   000000018002fec0     kernel32:KERNEL32.dll
 0003:00000000       ?s_Claim@?7??GetIDsOfNames@CComTypeInfoHolder@ATL@@QEAAJAEBU_GUID@@PEAPEA_WIKPEAJ@Z@4PA_WA 0000000180032000     IndividualRecognition.obj
 0003:00000018       ?s_Release@?7??GetIDsOfNames@CComTypeInfoHolder@ATL@@QEAAJAEBU_GUID@@PEAPEA_WIKPEAJ@Z@4PA_WA 0000000180032018     IndividualRecognition.obj
 0003:00000038       ?_tih@?$IDispatchImpl@UIOPOSIndividualRecognition@@$1?IID_IOPOSIndividualRecognition@@3U_GUID@@B$1?LIBID_OposIndividualRecognition_CCO@@3U3@B$00$0A@VCComTypeInfoHolder@ATL@@@ATL@@1VCComTypeInfoHolder@2@A 0000000180032038     IndividualRecognition.obj
 0003:00000070       ?_tih@?$IProvideClassInfo2Impl@$1?CLSID_OPOSIndividualRecognition@@3U_GUID@@B$1?DIID__IOPOSIndividualRecognitionEvents@@3U2@B$1?LIBID_OposIndividualRecognition_CCO@@3U2@B$00$0A@VCComTypeInfoHolder@ATL@@@ATL@@1VCComTypeInfoHolder@2@A 0000000180032070     IndividualRecognition.obj
 0003:000000a8       ?vszContents@?6??Save@?$IPersistStorageImpl@VCOPOSIndividualRecognition@@@ATL@@UEAAJPEAUIStorage@@H@Z@4PEB_WEB 00000001800320a8     IndividualRecognition.obj
 0003:000000b0       ?wc@?1??GetWndClassInfo@?$CWindowImpl@VCOPOSIndividualRecognition@@VCWindow@ATL@@V?$CWinTraits@$0FGAAAAAA@$0A@@3@@ATL@@SAAEAU_ATL_WNDCLASSINFOW@3@XZ@4U43@A 00000001800320b0     IndividualRecognition.obj
 0003:000001a8       ?rcDefault@CWindow@ATL@@2UtagRECT@@A 00000001800321a8     IndividualRecognition.obj
 0003:00000250       ?g_WindowName@@3PA_WA      0000000180032250     IndividualRecognitionImpl.obj
 0003:00000290       ?g_ControlDescription@@3PADA 0000000180032290     IndividualRecognitionImpl.obj
 0003:000002cc       ?g_ControlVersion@@3JA     00000001800322cc     IndividualRecognitionImpl.obj
 0003:0000036c       __scrt_native_dllmain_reason 000000018003236c     LIBCMT:utility.obj
 0003:00000370       _Init_global_epoch         0000000180032370     LIBCMT:thread_safe_statics.obj
 0003:00000380       __security_cookie_complement 0000000180032380     LIBCMT:gs_cookie.obj
 0003:00000388       __security_cookie          0000000180032388     LIBCMT:gs_cookie.obj
 0003:00000390       __isa_available            0000000180032390     LIBCMT:cpu_disp.obj
 0003:00000394       __isa_enabled              0000000180032394     LIBCMT:cpu_disp.obj
 0003:00000398       __memcpy_nt_iters          0000000180032398     LIBCMT:cpu_disp.obj
 0003:000003a0       __memset_nt_iters          00000001800323a0     LIBCMT:cpu_disp.obj
 0003:000003c8       __abort_behavior           00000001800323c8     libucrt:abort.obj
 0003:000003e0       _iob                       00000001800323e0     libucrt:_file.obj
 0003:000004f0       __acrt_initial_locale_data 00000001800324f0     libucrt:nlsdata.obj
 0003:00000648       __acrt_initial_locale_pointers 0000000180032648     libucrt:nlsdata.obj
 0003:00000658       __acrt_wide_c_locale_string 0000000180032658     libucrt:nlsdata.obj
 0003:00000660       __acrt_initial_multibyte_data 0000000180032660     libucrt:mbctype.obj
 0003:00000ba0       _pwctype                   0000000180032ba0     libucrt:ctype.obj
 0003:00000ba8       __globallocalestatus       0000000180032ba8     libucrt:glstatus.obj
 0003:00000bb0       __acrt_lconv_c             0000000180032bb0     libucrt:localeconv.obj
 0003:00000c48       __acrt_lconv_static_decimal 0000000180032c48     libucrt:localeconv.obj
 0003:00000c4c       __acrt_lconv_static_W_decimal 0000000180032c4c     libucrt:localeconv.obj
 0003:00000c50       _lookuptrailbytes          0000000180032c50     libucrt:read.obj
 0003:00000d74       _fltused                   0000000180032d74     LIBCMT:fltused.obj
 0003:00000d78       ??_R0?AVbad_alloc@std@@@8  0000000180032d78     LIBCMT:throw_bad_alloc.obj
 0003:00000da0       ??_R0?AVexception@std@@@8  0000000180032da0     LIBCMT:throw_bad_alloc.obj
 0003:00000dc8       ??_R0?AVbad_array_new_length@std@@@8 0000000180032dc8     LIBCMT:throw_bad_alloc.obj
 0003:00000df8       ??_R0?AVtype_info@@@8      0000000180032df8     LIBCMT:std_type_info_static.obj
 0003:00000e18       ??_R0?AVbad_exception@std@@@8 0000000180032e18     libvcruntime:frame.obj
 0003:00000e40       ?_pPerfRegFunc@ATL@@3P6AJPEAUHINSTANCE__@@@ZEA 0000000180032e40     OposVariant.obj
 0003:00000e48       ?_pPerfUnRegFunc@ATL@@3P6AJXZEA 0000000180032e48     OposVariant.obj
 0003:00000e50       ?_AtlRegisterPerUser@ATL@@3_NA 0000000180032e50     OposVariant.obj
 0003:00000e58       ?_pAtlModule@ATL@@3PEAVCAtlModule@1@EA 0000000180032e58     OposVariant.obj
 0003:00000e60       ?_pModule@ATL@@3PEAVCComModule@1@EA 0000000180032e60     OposVariant.obj
 0003:00000e68       ?m_bInitFailed@CAtlBaseModule@ATL@@2_NA 0000000180032e68     OposVariant.obj
 0003:00000e70       ?_AtlComModule@ATL@@3VCAtlComModule@1@A 0000000180032e70     OposVariant.obj
 0003:00000ec0       ?_AtlWinModule@ATL@@3VCAtlWinModule@1@A 0000000180032ec0     OposVariant.obj
 0003:00000f08       ?m_libid@CAtlModule@ATL@@2U_GUID@@A 0000000180032f08     IndividualRecognition.obj
 0003:00000f18       ?_entries@?1??GetConnMap@COPOSIndividualRecognition@@SAPEBU_ATL_CONNMAP_ENTRY@ATL@@PEAH@Z@4QBU34@B 0000000180032f18     IndividualRecognition.obj
 0003:00000f30       ?$TSS0@?1??GetConnMap@COPOSIndividualRecognition@@SAPEBU_ATL_CONNMAP_ENTRY@ATL@@PEAH@Z@4HA 0000000180032f30     IndividualRecognition.obj
 0003:00000f38       ?_OptionsStorage@?1??__local_stdio_printf_options@@9@4_KA 0000000180032f38     IndividualRecognition.obj
 0003:00000f40       ?pfnRegDeleteKeyEx@?1??DeleteSubKey@CRegKey@ATL@@QEAAJPEB_W@Z@4P6AJPEAUHKEY__@@0KK@ZEA 0000000180032f40     IndividualRecognition.obj
 0003:00000f48       ?bInitialized@?1??DeleteSubKey@CRegKey@ATL@@QEAAJPEB_W@Z@4_NA 0000000180032f48     IndividualRecognition.obj
 0003:00000f50       ?_Module@@3VCComModule@ATL@@A 0000000180032f50     IndividualRecognition.obj
 0003:00000fa0       ?pConnMap@?$IConnectionPointContainerImpl@VCOPOSIndividualRecognition@@@ATL@@0PEBU_ATL_CONNMAP_ENTRY@2@EB 0000000180032fa0     IndividualRecognition.obj
 0003:00000fa8       ?s_nInstances@COPOSIndividualRecognition@@1HA 0000000180032fa8     IndividualRecognitionImpl.obj
 0003:00000fb0       __scrt_current_native_startup_state 0000000180032fb0     LIBCMT:utility.obj
 0003:00000fb8       __scrt_native_startup_lock 0000000180032fb8     LIBCMT:utility.obj
 0003:000015b0       _tls_index                 00000001800335b0     LIBCMT:tlssup.obj
 0003:000015b8       __favor                    00000001800335b8     LIBCMT:cpu_disp.obj
 0003:000015bc       __scrt_debugger_hook_flag  00000001800335bc     LIBCMT:utility_desktop.obj
 0003:000015c0       __castguard_check_failure_os_handled_fptr 00000001800335c0     LIBCMT:guard_support.obj
 0003:000015d0       ?__type_info_root_node@@3U__type_info_node@@A 00000001800335d0     LIBCMT:tncleanup.obj
 0003:000015e0       ?_OptionsStorage@?1??__local_stdio_scanf_options@@9@4_KA 00000001800335e0     LIBCMT:default_local_stdio_options.obj
 0003:000015f0       ?_AtlBaseModule@ATL@@3VCAtlBaseModule@1@A 00000001800335f0     atls:atlbase.obj
 0003:00001650       ?__AtlThunkPool@@3PEAT_SLIST_HEADER@@EA 0000000180033650     atls:atlthunk.obj
 0003:0000167c       __@@_PchSym_@00@UztvmgUPdlipUGDUhUrmgvinvwrzgvUexgllohUzgohOmzgrevkilqPBACIAJCBDBUlyqiUznwGEUhgwzucOlyq@4B2008FD98C1DD4 000000018003367c     atls:stdafx.obj
 0003:00001680       ?__WinRTOutOfMemoryExceptionCallback@@3P6APEAXXZEA 0000000180033680     libvcruntime:ehhelpers.obj
 0003:00001688       __pPurecall                0000000180033688     libvcruntime:purevirt_data.obj
 0003:00001740       ?pArgList@UnDecorator@@0PEAVReplicator@@EA 0000000180033740     libvcruntime:undname.obj
 0003:00001748       ?pZNameList@UnDecorator@@0PEAVReplicator@@EA 0000000180033748     libvcruntime:undname.obj
 0003:00001750       ?pTemplateArgList@UnDecorator@@0PEAVReplicator@@EA 0000000180033750     libvcruntime:undname.obj
 0003:00001758       ?gName@UnDecorator@@0PEBDEB 0000000180033758     libvcruntime:undname.obj
 0003:00001760       ?name@UnDecorator@@0PEBDEB 0000000180033760     libvcruntime:undname.obj
 0003:00001768       ?disableFlags@UnDecorator@@0KA 0000000180033768     libvcruntime:undname.obj
 0003:0000176c       ?fExplicitTemplateParams@UnDecorator@@0_NA 000000018003376c     libvcruntime:undname.obj
 0003:0000176d       ?fGetTemplateArgumentList@UnDecorator@@0_NA 000000018003376d     libvcruntime:undname.obj
 0003:00001770       ?m_pGetParameter@UnDecorator@@0P6APEADJ@ZEA 0000000180033770     libvcruntime:undname.obj
 0003:00001778       ?m_CHPENameOffset@UnDecorator@@0KA 0000000180033778     libvcruntime:undname.obj
 0003:0000177c       ?m_recursionLevel@UnDecorator@@0KA 000000018003377c     libvcruntime:undname.obj
 0003:00001800       ?c_exit_complete@?1???R<lambda_6e4b09c48022b2350581041d5f6b0c4c>@@QEBA@XZ@4_NA 0000000180033800     libucrt:exit.obj
 0003:00001918       _environ_table             0000000180033918     libucrt:environment_initialization.obj
 0003:00001920       _wenviron_table            0000000180033920     libucrt:environment_initialization.obj
 0003:00001928       __dcrt_initial_wide_environment 0000000180033928     libucrt:environment_initialization.obj
 0003:00001930       __dcrt_initial_narrow_environment 0000000180033930     libucrt:environment_initialization.obj
 0003:00001938       __acrt_atexit_table        0000000180033938     libucrt:onexit.obj
 0003:00001950       __acrt_at_quick_exit_table 0000000180033950     libucrt:onexit.obj
 0003:00001b28       _nstream                   0000000180033b28     libucrt:_file.obj
 0003:00001b30       __piob                     0000000180033b30     libucrt:_file.obj
 0003:00001b40       __acrt_stdout_buffer       0000000180033b40     libucrt:_sftbuf.obj
 0003:00001b48       __acrt_stderr_buffer       0000000180033b48     libucrt:_sftbuf.obj
 0003:00001b50       __acrt_locale_changed_data 0000000180033b50     libucrt:wsetlocale.obj
 0003:00001b58       __acrt_current_locale_data 0000000180033b58     libucrt:nlsdata.obj
 0003:00001b60       __pioinfo                  0000000180033b60     libucrt:ioinit.obj
 0003:00001f60       _nhandle                   0000000180033f60     libucrt:ioinit.obj
 0003:000021a8       _mbctype                   00000001800341a8     libucrt:mbctype.obj
 0003:000021b0       _mbcasemap                 00000001800341b0     libucrt:mbctype.obj
 0003:000021b8       __acrt_current_multibyte_data 00000001800341b8     libucrt:mbctype.obj
 0003:000021c8       _pgmptr                    00000001800341c8     libucrt:argv_data.obj
 0003:000021d0       __argc                     00000001800341d0     libucrt:argv_data.obj
 0003:000021d8       __argv                     00000001800341d8     libucrt:argv_data.obj
 0003:000021e0       __wargv                    00000001800341e0     libucrt:argv_data.obj
 0003:000021e8       _acmdln                    00000001800341e8     libucrt:argv_data.obj
 0003:000021f0       _wcmdln                    00000001800341f0     libucrt:argv_data.obj
 0003:000021f8       __acrt_heap                00000001800341f8     libucrt:heap_handle.obj
 0003:0000222c       __acrt_lconv_static_null   000000018003422c     libucrt:localeconv.obj
 0003:00002230       __acrt_lconv_static_W_null 0000000180034230     libucrt:localeconv.obj
 0003:00002244       __fma3_is_available        0000000180034244     libucrt:fma3_available.obj
 0003:00002248       __use_fma3_lib             0000000180034248     libucrt:fma3_available.obj
 0003:00002250       __dyn_tls_init_callback    0000000180034250     <common>
 0003:00002258       __scrt_ucrt_dll_is_in_use  0000000180034258     <common>

 entry point at        0001:0000ebe4

 Static symbols

 0000:fffc3000       .debug$S                   0000000180000000     OPOSIndividualRecognition.exp
 0000:fffc3000       .debug$S                   0000000180000000     advapi32:ADVAPI32.dll
 0000:fffc3000       .debug$S                   0000000180000000     advapi32:ADVAPI32.dll
 0000:fffc3000       .debug$S                   0000000180000000     advapi32:ADVAPI32.dll
 0000:fffc3000       .debug$S                   0000000180000000     advapi32:ADVAPI32.dll
 0000:fffc3000       .debug$S                   0000000180000000     advapi32:ADVAPI32.dll
 0000:fffc3000       .debug$S                   0000000180000000     advapi32:ADVAPI32.dll
 0000:fffc3000       .debug$S                   0000000180000000     advapi32:ADVAPI32.dll
 0000:fffc3000       .debug$S                   0000000180000000     advapi32:ADVAPI32.dll
 0000:fffc3000       .debug$S                   0000000180000000     advapi32:ADVAPI32.dll
 0000:fffc3000       .debug$S                   0000000180000000     gdi32:GDI32.dll
 0000:fffc3000       .debug$S                   0000000180000000     gdi32:GDI32.dll
 0000:fffc3000       .debug$S                   0000000180000000     gdi32:GDI32.dll
 0000:fffc3000       .debug$S                   0000000180000000     gdi32:GDI32.dll
 0000:fffc3000       .debug$S                   0000000180000000     gdi32:GDI32.dll
 0000:fffc3000       .debug$S                   0000000180000000     gdi32:GDI32.dll
 0000:fffc3000       .debug$S                   0000000180000000     gdi32:GDI32.dll
 0000:fffc3000       .debug$S                   0000000180000000     gdi32:GDI32.dll
 0000:fffc3000       .debug$S                   0000000180000000     gdi32:GDI32.dll
 0000:fffc3000       .debug$S                   0000000180000000     gdi32:GDI32.dll
 0000:fffc3000       .debug$S                   0000000180000000     gdi32:GDI32.dll
 0000:fffc3000       .debug$S                   0000000180000000     gdi32:GDI32.dll
 0000:fffc3000       .debug$S                   0000000180000000     gdi32:GDI32.dll
 0000:fffc3000       .debug$S                   0000000180000000     gdi32:GDI32.dll
 0000:fffc3000       .debug$S                   0000000180000000     gdi32:GDI32.dll
 0000:fffc3000       .debug$S                   0000000180000000     gdi32:GDI32.dll
 0000:fffc3000       .debug$S                   0000000180000000     gdi32:GDI32.dll
 0000:fffc3000       .debug$S                   0000000180000000     gdi32:GDI32.dll
 0000:fffc3000       .debug$S                   0000000180000000     gdi32:GDI32.dll
 0000:fffc3000       .debug$S                   0000000180000000     kernel32:KERNEL32.dll
 0000:fffc3000       .debug$S                   0000000180000000     kernel32:KERNEL32.dll
 0000:fffc3000       .debug$S                   0000000180000000     kernel32:KERNEL32.dll
 0000:fffc3000       .debug$S                   0000000180000000     kernel32:KERNEL32.dll
 0000:fffc3000       .debug$S                   0000000180000000     kernel32:KERNEL32.dll
 0000:fffc3000       .debug$S                   0000000180000000     kernel32:KERNEL32.dll
 0000:fffc3000       .debug$S                   0000000180000000     kernel32:KERNEL32.dll
 0000:fffc3000       .debug$S                   0000000180000000     kernel32:KERNEL32.dll
 0000:fffc3000       .debug$S                   0000000180000000     kernel32:KERNEL32.dll
 0000:fffc3000       .debug$S                   0000000180000000     kernel32:KERNEL32.dll
 0000:fffc3000       .debug$S                   0000000180000000     kernel32:KERNEL32.dll
 0000:fffc3000       .debug$S                   0000000180000000     kernel32:KERNEL32.dll
 0000:fffc3000       .debug$S                   0000000180000000     kernel32:KERNEL32.dll
 0000:fffc3000       .debug$S                   0000000180000000     kernel32:KERNEL32.dll
 0000:fffc3000       .debug$S                   0000000180000000     kernel32:KERNEL32.dll
 0000:fffc3000       .debug$S                   0000000180000000     kernel32:KERNEL32.dll
 0000:fffc3000       .debug$S                   0000000180000000     kernel32:KERNEL32.dll
 0000:fffc3000       .debug$S                   0000000180000000     kernel32:KERNEL32.dll
 0000:fffc3000       .debug$S                   0000000180000000     kernel32:KERNEL32.dll
 0000:fffc3000       .debug$S                   0000000180000000     kernel32:KERNEL32.dll
 0000:fffc3000       .debug$S                   0000000180000000     kernel32:KERNEL32.dll
 0000:fffc3000       .debug$S                   0000000180000000     kernel32:KERNEL32.dll
 0000:fffc3000       .debug$S                   0000000180000000     kernel32:KERNEL32.dll
 0000:fffc3000       .debug$S                   0000000180000000     kernel32:KERNEL32.dll
 0000:fffc3000       .debug$S                   0000000180000000     kernel32:KERNEL32.dll
 0000:fffc3000       .debug$S                   0000000180000000     kernel32:KERNEL32.dll
 0000:fffc3000       .debug$S                   0000000180000000     kernel32:KERNEL32.dll
 0000:fffc3000       .debug$S                   0000000180000000     kernel32:KERNEL32.dll
 0000:fffc3000       .debug$S                   0000000180000000     kernel32:KERNEL32.dll
 0000:fffc3000       .debug$S                   0000000180000000     kernel32:KERNEL32.dll
 0000:fffc3000       .debug$S                   0000000180000000     kernel32:KERNEL32.dll
 0000:fffc3000       .debug$S                   0000000180000000     kernel32:KERNEL32.dll
 0000:fffc3000       .debug$S                   0000000180000000     kernel32:KERNEL32.dll
 0000:fffc3000       .debug$S                   0000000180000000     kernel32:KERNEL32.dll
 0000:fffc3000       .debug$S                   0000000180000000     kernel32:KERNEL32.dll
 0000:fffc3000       .debug$S                   0000000180000000     kernel32:KERNEL32.dll
 0000:fffc3000       .debug$S                   0000000180000000     kernel32:KERNEL32.dll
 0000:fffc3000       .debug$S                   0000000180000000     kernel32:KERNEL32.dll
 0000:fffc3000       .debug$S                   0000000180000000     kernel32:KERNEL32.dll
 0000:fffc3000       .debug$S                   0000000180000000     kernel32:KERNEL32.dll
 0000:fffc3000       .debug$S                   0000000180000000     kernel32:KERNEL32.dll
 0000:fffc3000       .debug$S                   0000000180000000     kernel32:KERNEL32.dll
 0000:fffc3000       .debug$S                   0000000180000000     kernel32:KERNEL32.dll
 0000:fffc3000       .debug$S                   0000000180000000     kernel32:KERNEL32.dll
 0000:fffc3000       .debug$S                   0000000180000000     kernel32:KERNEL32.dll
 0000:fffc3000       .debug$S                   0000000180000000     kernel32:KERNEL32.dll
 0000:fffc3000       .debug$S                   0000000180000000     kernel32:KERNEL32.dll
 0000:fffc3000       .debug$S                   0000000180000000     kernel32:KERNEL32.dll
 0000:fffc3000       .debug$S                   0000000180000000     kernel32:KERNEL32.dll
 0000:fffc3000       .debug$S                   0000000180000000     kernel32:KERNEL32.dll
 0000:fffc3000       .debug$S                   0000000180000000     kernel32:KERNEL32.dll
 0000:fffc3000       .debug$S                   0000000180000000     kernel32:KERNEL32.dll
 0000:fffc3000       .debug$S                   0000000180000000     kernel32:KERNEL32.dll
 0000:fffc3000       .debug$S                   0000000180000000     kernel32:KERNEL32.dll
 0000:fffc3000       .debug$S                   0000000180000000     kernel32:KERNEL32.dll
 0000:fffc3000       .debug$S                   0000000180000000     kernel32:KERNEL32.dll
 0000:fffc3000       .debug$S                   0000000180000000     kernel32:KERNEL32.dll
 0000:fffc3000       .debug$S                   0000000180000000     kernel32:KERNEL32.dll
 0000:fffc3000       .debug$S                   0000000180000000     kernel32:KERNEL32.dll
 0000:fffc3000       .debug$S                   0000000180000000     kernel32:KERNEL32.dll
 0000:fffc3000       .debug$S                   0000000180000000     kernel32:KERNEL32.dll
 0000:fffc3000       .debug$S                   0000000180000000     kernel32:KERNEL32.dll
 0000:fffc3000       .debug$S                   0000000180000000     kernel32:KERNEL32.dll
 0000:fffc3000       .debug$S                   0000000180000000     kernel32:KERNEL32.dll
 0000:fffc3000       .debug$S                   0000000180000000     kernel32:KERNEL32.dll
 0000:fffc3000       .debug$S                   0000000180000000     kernel32:KERNEL32.dll
 0000:fffc3000       .debug$S                   0000000180000000     kernel32:KERNEL32.dll
 0000:fffc3000       .debug$S                   0000000180000000     kernel32:KERNEL32.dll
 0000:fffc3000       .debug$S                   0000000180000000     kernel32:KERNEL32.dll
 0000:fffc3000       .debug$S                   0000000180000000     kernel32:KERNEL32.dll
 0000:fffc3000       .debug$S                   0000000180000000     kernel32:KERNEL32.dll
 0000:fffc3000       .debug$S                   0000000180000000     kernel32:KERNEL32.dll
 0000:fffc3000       .debug$S                   0000000180000000     kernel32:KERNEL32.dll
 0000:fffc3000       .debug$S                   0000000180000000     kernel32:KERNEL32.dll
 0000:fffc3000       .debug$S                   0000000180000000     kernel32:KERNEL32.dll
 0000:fffc3000       .debug$S                   0000000180000000     kernel32:KERNEL32.dll
 0000:fffc3000       .debug$S                   0000000180000000     kernel32:KERNEL32.dll
 0000:fffc3000       .debug$S                   0000000180000000     kernel32:KERNEL32.dll
 0000:fffc3000       .debug$S                   0000000180000000     kernel32:KERNEL32.dll
 0000:fffc3000       .debug$S                   0000000180000000     kernel32:KERNEL32.dll
 0000:fffc3000       .debug$S                   0000000180000000     kernel32:KERNEL32.dll
 0000:fffc3000       .debug$S                   0000000180000000     kernel32:KERNEL32.dll
 0000:fffc3000       .debug$S                   0000000180000000     kernel32:KERNEL32.dll
 0000:fffc3000       .debug$S                   0000000180000000     kernel32:KERNEL32.dll
 0000:fffc3000       .debug$S                   0000000180000000     kernel32:KERNEL32.dll
 0000:fffc3000       .debug$S                   0000000180000000     kernel32:KERNEL32.dll
 0000:fffc3000       .debug$S                   0000000180000000     kernel32:KERNEL32.dll
 0000:fffc3000       .debug$S                   0000000180000000     kernel32:KERNEL32.dll
 0000:fffc3000       .debug$S                   0000000180000000     kernel32:KERNEL32.dll
 0000:fffc3000       .debug$S                   0000000180000000     kernel32:KERNEL32.dll
 0000:fffc3000       .debug$S                   0000000180000000     kernel32:KERNEL32.dll
 0000:fffc3000       .debug$S                   0000000180000000     kernel32:KERNEL32.dll
 0000:fffc3000       .debug$S                   0000000180000000     kernel32:KERNEL32.dll
 0000:fffc3000       .debug$S                   0000000180000000     kernel32:KERNEL32.dll
 0000:fffc3000       .debug$S                   0000000180000000     kernel32:KERNEL32.dll
 0000:fffc3000       .debug$S                   0000000180000000     kernel32:KERNEL32.dll
 0000:fffc3000       .debug$S                   0000000180000000     kernel32:KERNEL32.dll
 0000:fffc3000       .debug$S                   0000000180000000     kernel32:KERNEL32.dll
 0000:fffc3000       .debug$S                   0000000180000000     kernel32:KERNEL32.dll
 0000:fffc3000       .debug$S                   0000000180000000     kernel32:KERNEL32.dll
 0000:fffc3000       .debug$S                   0000000180000000     kernel32:KERNEL32.dll
 0000:fffc3000       .debug$S                   0000000180000000     kernel32:KERNEL32.dll
 0000:fffc3000       .debug$S                   0000000180000000     kernel32:KERNEL32.dll
 0000:fffc3000       .debug$S                   0000000180000000     kernel32:KERNEL32.dll
 0000:fffc3000       .debug$S                   0000000180000000     kernel32:KERNEL32.dll
 0000:fffc3000       .debug$S                   0000000180000000     kernel32:KERNEL32.dll
 0000:fffc3000       .debug$S                   0000000180000000     kernel32:KERNEL32.dll
 0000:fffc3000       .debug$S                   0000000180000000     kernel32:KERNEL32.dll
 0000:fffc3000       .debug$S                   0000000180000000     kernel32:KERNEL32.dll
 0000:fffc3000       .debug$S                   0000000180000000     kernel32:KERNEL32.dll
 0000:fffc3000       .debug$S                   0000000180000000     kernel32:KERNEL32.dll
 0000:fffc3000       .debug$S                   0000000180000000     ole32:ole32.dll
 0000:fffc3000       .debug$S                   0000000180000000     ole32:ole32.dll
 0000:fffc3000       .debug$S                   0000000180000000     ole32:ole32.dll
 0000:fffc3000       .debug$S                   0000000180000000     ole32:ole32.dll
 0000:fffc3000       .debug$S                   0000000180000000     ole32:ole32.dll
 0000:fffc3000       .debug$S                   0000000180000000     ole32:ole32.dll
 0000:fffc3000       .debug$S                   0000000180000000     ole32:ole32.dll
 0000:fffc3000       .debug$S                   0000000180000000     ole32:ole32.dll
 0000:fffc3000       .debug$S                   0000000180000000     ole32:ole32.dll
 0000:fffc3000       .debug$S                   0000000180000000     ole32:ole32.dll
 0000:fffc3000       .debug$S                   0000000180000000     ole32:ole32.dll
 0000:fffc3000       .debug$S                   0000000180000000     ole32:ole32.dll
 0000:fffc3000       .debug$S                   0000000180000000     ole32:ole32.dll
 0000:fffc3000       .debug$S                   0000000180000000     ole32:ole32.dll
 0000:fffc3000       .debug$S                   0000000180000000     oleaut32:OLEAUT32.dll
 0000:fffc3000       .debug$S                   0000000180000000     oleaut32:OLEAUT32.dll
 0000:fffc3000       .debug$S                   0000000180000000     oleaut32:OLEAUT32.dll
 0000:fffc3000       .debug$S                   0000000180000000     oleaut32:OLEAUT32.dll
 0000:fffc3000       .debug$S                   0000000180000000     oleaut32:OLEAUT32.dll
 0000:fffc3000       .debug$S                   0000000180000000     oleaut32:OLEAUT32.dll
 0000:fffc3000       .debug$S                   0000000180000000     oleaut32:OLEAUT32.dll
 0000:fffc3000       .debug$S                   0000000180000000     oleaut32:OLEAUT32.dll
 0000:fffc3000       .debug$S                   0000000180000000     oleaut32:OLEAUT32.dll
 0000:fffc3000       .debug$S                   0000000180000000     oleaut32:OLEAUT32.dll
 0000:fffc3000       .debug$S                   0000000180000000     oleaut32:OLEAUT32.dll
 0000:fffc3000       .debug$S                   0000000180000000     oleaut32:OLEAUT32.dll
 0000:fffc3000       .debug$S                   0000000180000000     oleaut32:OLEAUT32.dll
 0000:fffc3000       .debug$S                   0000000180000000     oleaut32:OLEAUT32.dll
 0000:fffc3000       .debug$S                   0000000180000000     oleaut32:OLEAUT32.dll
 0000:fffc3000       .debug$S                   0000000180000000     oleaut32:OLEAUT32.dll
 0000:fffc3000       .debug$S                   0000000180000000     user32:USER32.dll
 0000:fffc3000       .debug$S                   0000000180000000     user32:USER32.dll
 0000:fffc3000       .debug$S                   0000000180000000     user32:USER32.dll
 0000:fffc3000       .debug$S                   0000000180000000     user32:USER32.dll
 0000:fffc3000       .debug$S                   0000000180000000     user32:USER32.dll
 0000:fffc3000       .debug$S                   0000000180000000     user32:USER32.dll
 0000:fffc3000       .debug$S                   0000000180000000     user32:USER32.dll
 0000:fffc3000       .debug$S                   0000000180000000     user32:USER32.dll
 0000:fffc3000       .debug$S                   0000000180000000     user32:USER32.dll
 0000:fffc3000       .debug$S                   0000000180000000     user32:USER32.dll
 0000:fffc3000       .debug$S                   0000000180000000     user32:USER32.dll
 0000:fffc3000       .debug$S                   0000000180000000     user32:USER32.dll
 0000:fffc3000       .debug$S                   0000000180000000     user32:USER32.dll
 0000:fffc3000       .debug$S                   0000000180000000     user32:USER32.dll
 0000:fffc3000       .debug$S                   0000000180000000     user32:USER32.dll
 0000:fffc3000       .debug$S                   0000000180000000     user32:USER32.dll
 0000:fffc3000       .debug$S                   0000000180000000     user32:USER32.dll
 0000:fffc3000       .debug$S                   0000000180000000     user32:USER32.dll
 0000:fffc3000       .debug$S                   0000000180000000     user32:USER32.dll
 0000:fffc3000       .debug$S                   0000000180000000     user32:USER32.dll
 0000:fffc3000       .debug$S                   0000000180000000     user32:USER32.dll
 0000:fffc3000       .debug$S                   0000000180000000     user32:USER32.dll
 0000:fffc3000       .debug$S                   0000000180000000     user32:USER32.dll
 0000:fffc3000       .debug$S                   0000000180000000     user32:USER32.dll
 0000:fffc3000       .debug$S                   0000000180000000     user32:USER32.dll
 0000:fffc3000       .debug$S                   0000000180000000     user32:USER32.dll
 0000:fffc3000       .debug$S                   0000000180000000     user32:USER32.dll
 0000:fffc3000       .debug$S                   0000000180000000     user32:USER32.dll
 0000:fffc3000       .debug$S                   0000000180000000     user32:USER32.dll
 0000:fffc3000       .debug$S                   0000000180000000     user32:USER32.dll
 0000:fffc3000       .debug$S                   0000000180000000     user32:USER32.dll
 0000:fffc3000       .debug$S                   0000000180000000     user32:USER32.dll
 0000:fffc3000       .debug$S                   0000000180000000     user32:USER32.dll
 0000:fffc3000       .debug$S                   0000000180000000     user32:USER32.dll
 0000:fffc3000       .debug$S                   0000000180000000     user32:USER32.dll
 0001:00000000       ??__E_AtlComModule@ATL@@YAXXZ 0000000180001000 f   OposVariant.obj
 0001:00000020       ??__E_AtlWinModule@ATL@@YAXXZ 0000000180001020 f   OposVariant.obj
 0001:00000040       ??__E?pConnMap@?$IConnectionPointContainerImpl@VCOPOSIndividualRecognition@@@ATL@@0PEBU_ATL_CONNMAP_ENTRY@2@EB@@YAXXZ 0000000180001040 f   IndividualRecognition.obj
 0001:00000058       ??__E_Module@@YAXXZ        0000000180001058 f   IndividualRecognition.obj
 0001:00000094       ??__E_AtlBaseModule@ATL@@YAXXZ 0000000180001094 f   atls:atlbase.obj
 0001:0000e1f8       ?__scrt_initialize_thread_safe_statics@@YAHXZ 000000018000f1f8 f   LIBCMT:thread_safe_statics.obj
 0001:0000e2c8       ?__scrt_uninitialize_thread_safe_statics@@YAXXZ 000000018000f2c8 f   LIBCMT:thread_safe_statics.obj
 0001:0000e618       capture_current_context    000000018000f618 f   LIBCMT:gs_report.obj
 0001:0000e688       capture_previous_context   000000018000f688 f   LIBCMT:gs_report.obj
 0001:0000e820       $$000000                   000000018000f820     LIBCMT:chkstk.obj
 0001:0000e890       $$000000                   000000018000f890     LIBCMT:amdsecgs.obj
 0001:0000e8c4       ?dllmain_crt_dispatch@@YAHQEAUHINSTANCE__@@KQEAX@Z 000000018000f8c4 f   LIBCMT:dll_dllmain.obj
 0001:0000e914       ?dllmain_crt_process_attach@@YAHQEAUHINSTANCE__@@QEAX@Z 000000018000f914 f   LIBCMT:dll_dllmain.obj
 0001:0000ea2c       ?dllmain_crt_process_detach@@YAH_N@Z 000000018000fa2c f   LIBCMT:dll_dllmain.obj
 0001:0000eab0       ?dllmain_dispatch@@YAHQEAUHINSTANCE__@@KQEAX@Z 000000018000fab0 f   LIBCMT:dll_dllmain.obj
 0001:0000f378       ??$GetProcAddressAll@P6AP6A_JPEAUHWND__@@I_K_J@ZPEAUAtlThunkData_t@@@Z@@YAP6AP6A_JPEAUHWND__@@I_K_J@ZPEAUAtlThunkData_t@@@ZPEAP6AP6A_J0I12@Z3@Z@Z 0000000180010378 f   atls:atlthunk.obj
 0001:0000f378       ??$GetProcAddressAll@P6APEAUAtlThunkData_t@@XZ@@YAP6APEAUAtlThunkData_t@@XZPEAP6APEAU0@XZ@Z 0000000180010378 f   atls:atlthunk.obj
 0001:0000f378       ??$GetProcAddressAll@P6AXPEAUAtlThunkData_t@@@Z@@YAP6AXPEAUAtlThunkData_t@@@ZPEAP6AX0@Z@Z 0000000180010378 f   atls:atlthunk.obj
 0001:0000f378       ??$GetProcAddressAll@P6AXPEAUAtlThunkData_t@@PEAX_K@Z@@YAP6AXPEAUAtlThunkData_t@@PEAX_K@ZPEAP6AX012@Z@Z 0000000180010378 f   atls:atlthunk.obj
 0001:0000f550       ?__InitializeThunkPool@@YAHXZ 0000000180010550 f   atls:atlthunk.obj
 0001:0000f9f0       $$000000                   00000001800109f0     libvcruntime:memcmp.obj
 0001:0000fad0       $$000000                   0000000180010ad0     libvcruntime:memcpy.obj
 0001:0000fee0       $$000000                   0000000180010ee0     libvcruntime:memset.obj
 0001:00010ff0       $$000000                   0000000180011ff0     libvcruntime:notify.obj
 0001:0001115c       ??$BuildCatchObjectHelperInternal@V__FrameHandler4@@@@YAHPEAUEHExceptionRecord@@PEAXPEAUHandlerType4@FH4@@PEBU_s_CatchableType@@@Z 000000018001215c f   libvcruntime:frame.obj
 0001:00011360       ??$BuildCatchObjectInternal@V__FrameHandler4@@@@YAXPEAUEHExceptionRecord@@PEAXPEAUHandlerType4@FH4@@PEBU_s_CatchableType@@@Z 0000000180012360 f   libvcruntime:frame.obj
 0001:00011424       ??$CatchIt@V__FrameHandler4@@@@YAXPEAUEHExceptionRecord@@PEA_KPEAU_CONTEXT@@PEAU_xDISPATCHER_CONTEXT@@PEAUFuncInfo4@FH4@@PEAUHandlerType4@4@PEBU_s_CatchableType@@PEAUTryBlockMapEntry4@4@H1EE@Z 0000000180012424 f   libvcruntime:frame.obj
 0001:000114f8       ??$FindHandler@V__FrameHandler4@@@@YAXPEAUEHExceptionRecord@@PEA_KPEAU_CONTEXT@@PEAU_xDISPATCHER_CONTEXT@@PEAUFuncInfo4@FH4@@EH1@Z 00000001800124f8 f   libvcruntime:frame.obj
 0001:00011a08       ??$FindHandlerForForeignException@V__FrameHandler4@@@@YAXPEAUEHExceptionRecord@@PEA_KPEAU_CONTEXT@@PEAU_xDISPATCHER_CONTEXT@@PEAUFuncInfo4@FH4@@HH1@Z 0000000180012a08 f   libvcruntime:frame.obj
 0001:00012798       ?ExFilterRethrow@@YAHPEAU_EXCEPTION_POINTERS@@PEAUEHExceptionRecord@@PEAH@Z 0000000180013798 f   libvcruntime:frame.obj
 0001:00012820       ?ExFilterRethrowFH4@@YAHPEAU_EXCEPTION_POINTERS@@PEAUEHExceptionRecord@@HPEAH@Z 0000000180013820 f   libvcruntime:frame.obj
 0001:00012b38       ?IsInExceptionSpec@@YAEPEAUEHExceptionRecord@@PEBU_s_ESTypeList@@@Z 0000000180013b38 f   libvcruntime:frame.obj
 0001:00012c28       ?Is_bad_exception_allowed@@YAEPEBU_s_ESTypeList@@@Z 0000000180013c28 f   libvcruntime:frame.obj
 0001:00012f04       ?try_get_function@@YAPEAXW4function_id@?A0x84e3c32f@@QEBDQEBW4module_id@2@2@Z 0000000180013f04 f   libvcruntime:winapi_downlevel.obj
 0001:000131e0       $$000000                   00000001800141e0     libvcruntime:handlers.obj
 0001:000139f8       ??$common_vsprintf@Vformat_validation_base@__crt_stdio_output@@_W@@YAH_KQEA_W0QEB_WQEAU__crt_locale_pointers@@QEAD@Z 00000001800149f8 f   libucrt:output.obj
 0001:00014898       $LN17                      0000000180015898     libucrt:output.obj
 0001:0001523c       ??$?RV<lambda_d80eeec6fff315bfe5c115232f3240e3>@@AEAV<lambda_6e4b09c48022b2350581041d5f6b0c4c>@@V<lambda_2358e3775559c9db80273638284d5e45>@@@?$__crt_seh_guarded_call@X@@QEAAX$$QEAV<lambda_d80eeec6fff315bfe5c115232f3240e3>@@AEAV<lambda_6e4b09c48022b2350581041d5f6b0c4c>@@$$QEAV<lambda_2358e3775559c9db80273638284d5e45>@@@Z 000000018001623c f   libucrt:exit.obj
 0001:00015274       ??R<lambda_6e4b09c48022b2350581041d5f6b0c4c>@@QEBA@XZ 0000000180016274 f   libucrt:exit.obj
 0001:00015338       ?atexit_exception_filter@@YAHK@Z 0000000180016338 f   libucrt:exit.obj
 0001:00015344       ?common_exit@@YAXHW4_crt_exit_cleanup_mode@@W4_crt_exit_return_mode@@@Z 0000000180016344 f   libucrt:exit.obj
 0001:00015400       ?exit_or_terminate_process@@YAXI@Z 0000000180016400 f   libucrt:exit.obj
 0001:0001544c       ?try_cor_exit_process@@YAXI@Z 000000018001644c f   libucrt:exit.obj
 0001:000154d4       ??$parse_command_line@D@@YAXPEADPEAPEAD0PEA_K2@Z 00000001800164d4 f   libucrt:argv_parsing.obj
 0001:0001587c       ??$common_initialize_environment_nolock@D@@YAHXZ 000000018001687c f   libucrt:environment_initialization.obj
 0001:000158e8       ??$create_environment@D@@YAQEAPEADQEAD@Z 00000001800168e8 f   libucrt:environment_initialization.obj
 0001:000159f0       ??$free_environment@D@@YAXQEAPEAD@Z 00000001800169f0 f   libucrt:environment_initialization.obj
 0001:000159f0       ??$free_environment@_W@@YAXQEAPEA_W@Z 00000001800169f0 f   libucrt:environment_initialization.obj
 0001:00015a34       ??$uninitialize_environment_internal@D@@YAXAEAPEAPEAD@Z 0000000180016a34 f   libucrt:environment_initialization.obj
 0001:00015a50       ??$uninitialize_environment_internal@_W@@YAXAEAPEAPEA_W@Z 0000000180016a50 f   libucrt:environment_initialization.obj
 0001:00015aac       ??$?RV<lambda_638799b9deba96c50f710eeac98168cd>@@AEAV<lambda_22ebabd17bc4fa466a2aca6d8deb888d>@@V<lambda_a6f7d7db0129f75315ebf26d50c089f1>@@@?$__crt_seh_guarded_call@H@@QEAAH$$QEAV<lambda_638799b9deba96c50f710eeac98168cd>@@AEAV<lambda_22ebabd17bc4fa466a2aca6d8deb888d>@@$$QEAV<lambda_a6f7d7db0129f75315ebf26d50c089f1>@@@Z 0000000180016aac f   libucrt:onexit.obj
 0001:00015ae8       ??$?RV<lambda_7777bce6b2f8c936911f934f8298dc43>@@AEAV<lambda_f03950bc5685219e0bcd2087efbe011e>@@V<lambda_3883c3dff614d5e0c5f61bb1ac94921c>@@@?$__crt_seh_guarded_call@H@@QEAAH$$QEAV<lambda_7777bce6b2f8c936911f934f8298dc43>@@AEAV<lambda_f03950bc5685219e0bcd2087efbe011e>@@$$QEAV<lambda_3883c3dff614d5e0c5f61bb1ac94921c>@@@Z 0000000180016ae8 f   libucrt:onexit.obj
 0001:00015b24       ??R<lambda_22ebabd17bc4fa466a2aca6d8deb888d>@@QEBAHXZ 0000000180016b24 f   libucrt:onexit.obj
 0001:00015cd4       ??R<lambda_f03950bc5685219e0bcd2087efbe011e>@@QEBAHXZ 0000000180016cd4 f   libucrt:onexit.obj
 0001:00015ea8       initialize_global_variables 0000000180016ea8 f   libucrt:initialization.obj
 0001:00015ebc       initialize_c               0000000180016ebc f   libucrt:initialization.obj
 0001:00015ee0       initialize_environment     0000000180016ee0 f   libucrt:initialization.obj
 0001:00015ee0       initialize_global_state_isolation 0000000180016ee0 f   libucrt:initialization.obj
 0001:00015ee0       report_memory_leaks        0000000180016ee0 f   libucrt:initialization.obj
 0001:00015ee0       uninitialize_c             0000000180016ee0 f   libucrt:initialization.obj
 0001:00015ee0       uninitialize_global_state_isolation 0000000180016ee0 f   libucrt:initialization.obj
 0001:00015ee4       uninitialize_environment   0000000180016ee4 f   libucrt:initialization.obj
 0001:00015ef4       initialize_pointers        0000000180016ef4 f   libucrt:initialization.obj
 0001:00015f34       uninitialize_vcruntime     0000000180016f34 f   libucrt:initialization.obj
 0001:00015f3c       uninitialize_allocated_memory 0000000180016f3c f   libucrt:initialization.obj
 0001:00015f7c       uninitialize_allocated_io_buffers 0000000180016f7c f   libucrt:initialization.obj
 0001:000168f0       $$000000                   00000001800178f0     libucrt:strncmp.obj
 0001:000169ec       ??$?RV<lambda_0ae27a3a962d80f24befdcbee591983d>@@AEAV<lambda_8d0ee55de4b1038c4002e0adecdf1839>@@V<lambda_dc504788e8f1664fe9b84e20bfb512f2>@@@?$__crt_seh_guarded_call@X@@QEAAX$$QEAV<lambda_0ae27a3a962d80f24befdcbee591983d>@@AEAV<lambda_8d0ee55de4b1038c4002e0adecdf1839>@@$$QEAV<lambda_dc504788e8f1664fe9b84e20bfb512f2>@@@Z 00000001800179ec f   libucrt:per_thread_data.obj
 0001:00016a2c       ??$?RV<lambda_2d41944a1d46af3157314b8a01080d33>@@AEAV<lambda_8f455de75cd7d7f24b4096f044d8b9e6>@@V<lambda_aa500f224e6afead328df44964fe2772>@@@?$__crt_seh_guarded_call@X@@QEAAX$$QEAV<lambda_2d41944a1d46af3157314b8a01080d33>@@AEAV<lambda_8f455de75cd7d7f24b4096f044d8b9e6>@@$$QEAV<lambda_aa500f224e6afead328df44964fe2772>@@@Z 0000000180017a2c f   libucrt:per_thread_data.obj
 0001:00016a6c       ??$?RV<lambda_aa87e3671a710a21b5dc78c0bdf72e11>@@AEAV<lambda_92619d2358a28f41a33ba319515a20b9>@@V<lambda_6992ecaafeb10aed2b74cb1fae11a551>@@@?$__crt_seh_guarded_call@X@@QEAAX$$QEAV<lambda_aa87e3671a710a21b5dc78c0bdf72e11>@@AEAV<lambda_92619d2358a28f41a33ba319515a20b9>@@$$QEAV<lambda_6992ecaafeb10aed2b74cb1fae11a551>@@@Z 0000000180017a6c f   libucrt:per_thread_data.obj
 0001:00016ab4       ??$?RV<lambda_f2e299630e499de9f9a165e60fcd3db5>@@AEAV<lambda_2ae9d31cdba2644fcbeaf08da7c24588>@@V<lambda_40d01ff24d0e7b3814fdbdcee8eab3c7>@@@?$__crt_seh_guarded_call@X@@QEAAX$$QEAV<lambda_f2e299630e499de9f9a165e60fcd3db5>@@AEAV<lambda_2ae9d31cdba2644fcbeaf08da7c24588>@@$$QEAV<lambda_40d01ff24d0e7b3814fdbdcee8eab3c7>@@@Z 0000000180017ab4 f   libucrt:per_thread_data.obj
 0001:00016b14       ?construct_ptd_array@@YAXQEAU__acrt_ptd@@@Z 0000000180017b14 f   libucrt:per_thread_data.obj
 0001:00016be4       ?destroy_fls@@YAXPEAX@Z    0000000180017be4 f   libucrt:per_thread_data.obj
 0001:00016c04       ?destroy_ptd_array@@YAXQEAU__acrt_ptd@@@Z 0000000180017c04 f   libucrt:per_thread_data.obj
 0001:00016cfc       ?replace_current_thread_locale_nolock@@YAXQEAU__acrt_ptd@@QEAU__crt_locale_data@@@Z 0000000180017cfc f   libucrt:per_thread_data.obj
 0001:000171e0       ?try_get_function@@YAPEAXW4function_id@?A0x391cf84c@@QEBDQEBW4module_id@2@2@Z 00000001800181e0 f   libucrt:winapi_thunks.obj
 0001:00017bb0       ?fp_format_a@@YAHQEBNPEAD_KQEAD2H_NIQEAU__crt_locale_pointers@@W4__acrt_rounding_mode@@@Z 0000000180018bb0 f   libucrt:cvt.obj
 0001:00017f30       ?fp_format_e@@YAHQEBNQEAD_K12H_NIQEAU__crt_locale_pointers@@W4__acrt_rounding_mode@@@Z 0000000180018f30 f   libucrt:cvt.obj
 0001:00018020       ?fp_format_e_internal@@YAHQEAD_KH_NIQEAU_strflt@@2QEAU__crt_locale_pointers@@@Z 0000000180019020 f   libucrt:cvt.obj
 0001:000181f4       ?fp_format_f_internal@@YAHQEAD_KHQEAU_strflt@@_NQEAU__crt_locale_pointers@@@Z 00000001800191f4 f   libucrt:cvt.obj
 0001:0001835c       ?fp_format_g@@YAHQEBNQEAD_K12H_NIQEAU__crt_locale_pointers@@@Z 000000018001935c f   libucrt:cvt.obj
 0001:0001849c       ?should_round_up@@YA_NQEBN_KFW4__acrt_rounding_mode@@@Z 000000018001949c f   libucrt:cvt.obj
 0001:00018ac0       ??$?RV<lambda_410d79af7f07d98d83a3f525b3859a53>@@AEAV<lambda_3e16ef9562a7dcce91392c22ab16ea36>@@V<lambda_38119f0e861e05405d8a144b9b982f0a>@@@?$__crt_seh_guarded_call@X@@QEAAX$$QEAV<lambda_410d79af7f07d98d83a3f525b3859a53>@@AEAV<lambda_3e16ef9562a7dcce91392c22ab16ea36>@@$$QEAV<lambda_38119f0e861e05405d8a144b9b982f0a>@@@Z 0000000180019ac0 f   libucrt:wsetlocale.obj
 0001:00018b6c       ?initialize_inherited_file_handles_nolock@@YAXXZ 0000000180019b6c f   libucrt:ioinit.obj
 0001:00018c5c       ?initialize_stdio_handles_nolock@@YAXXZ 0000000180019c5c f   libucrt:ioinit.obj
 0001:00018ed8       ?<lambda_invoker_cdecl>@<lambda_a1ce4c8ae42411fd470c77163914f50e>@@CAHPEBX0@Z 0000000180019ed8 f   libucrt:argv_wildcards.obj
 0001:000191f0       ??$common_expand_argv_wildcards@D@@YAHQEAPEADQEAPEAPEAD@Z 000000018001a1f0 f   libucrt:argv_wildcards.obj
 0001:000193fc       ??$copy_and_add_argument_to_buffer@D@@YAHQEBD0_KAEAV?$argument_list@D@?A0x5f5c8891@@@Z 000000018001a3fc f   libucrt:argv_wildcards.obj
 0001:00019584       ??$expand_argument_wildcards@D@@YAHQEAD0AEAV?$argument_list@D@?A0x5f5c8891@@@Z 000000018001a584 f   libucrt:argv_wildcards.obj
 0001:00019ad0       ??$?RV<lambda_efdfa57d1f175319df784efa44bb7b81>@@AEAV<lambda_5f0a4c1567f8adc6734073e5d1e1b35c>@@V<lambda_2e8a7d3640ea6ccb4c2413664c2db6fd>@@@?$__crt_seh_guarded_call@X@@QEAAX$$QEAV<lambda_efdfa57d1f175319df784efa44bb7b81>@@AEAV<lambda_5f0a4c1567f8adc6734073e5d1e1b35c>@@$$QEAV<lambda_2e8a7d3640ea6ccb4c2413664c2db6fd>@@@Z 000000018001aad0 f   libucrt:mbctype.obj
 0001:00019c8c       ?getSystemCP@@YAHH@Z       000000018001ac8c f   libucrt:mbctype.obj
 0001:00019d0c       ?setSBCS@@YAXPEAU__crt_multibyte_data@@@Z 000000018001ad0c f   libucrt:mbctype.obj
 0001:00019d9c       ?setSBUpLow@@YAXPEAU__crt_multibyte_data@@@Z 000000018001ad9c f   libucrt:mbctype.obj
 0001:00019f80       ?setmbcp_internal@@YAHH_NQEAU__acrt_ptd@@QEAPEAU__crt_multibyte_data@@@Z 000000018001af80 f   libucrt:mbctype.obj
 0001:0001a140       ?update_thread_multibyte_data_internal@@YAPEAU__crt_multibyte_data@@QEAU__acrt_ptd@@QEAPEAU1@@Z 000000018001b140 f   libucrt:mbctype.obj
 0001:0001a530       ?x_ismbbtype_l@@YAHPEAU__crt_locale_pointers@@IHH@Z 000000018001b530 f   libucrt:ismbbyte.obj
 0001:0001a8d8       ??$?RV<lambda_450d765d439847d4c735a33c368b5fc0>@@AEAV<lambda_44731a7d0e6d81c3e6aa82d741081786>@@V<lambda_601a2a7da3b7a96e9554ac7215c4b07c>@@@?$__crt_seh_guarded_call@P6AXH@Z@@QEAAP6AXH@Z$$QEAV<lambda_450d765d439847d4c735a33c368b5fc0>@@AEAV<lambda_44731a7d0e6d81c3e6aa82d741081786>@@$$QEAV<lambda_601a2a7da3b7a96e9554ac7215c4b07c>@@@Z 000000018001b8d8 f   libucrt:signal.obj
 0001:0001ac34       ??$?RV<lambda_842d9ff0dc9ef11c61343bbaebe7f885>@@AEAV<lambda_c5860995281e5c4ce005b3de8f5874ee>@@V<lambda_d90129c13df834fdcbf8d2b88dafcf2d>@@@?$__crt_seh_guarded_call@X@@QEAAX$$QEAV<lambda_842d9ff0dc9ef11c61343bbaebe7f885>@@AEAV<lambda_c5860995281e5c4ce005b3de8f5874ee>@@$$QEAV<lambda_d90129c13df834fdcbf8d2b88dafcf2d>@@@Z 000000018001bc34 f   libucrt:fflush.obj
 0001:0001acd0       ??$?RV<lambda_886d6c58226a84441f68b9f2b8217b83>@@AEAV<lambda_ab61a845afdef5b7c387490eaf3616ee>@@V<lambda_f7f22ab5edc0698d5f6905b0d3f44752>@@@?$__crt_seh_guarded_call@X@@QEAAX$$QEAV<lambda_886d6c58226a84441f68b9f2b8217b83>@@AEAV<lambda_ab61a845afdef5b7c387490eaf3616ee>@@$$QEAV<lambda_f7f22ab5edc0698d5f6905b0d3f44752>@@@Z 000000018001bcd0 f   libucrt:fflush.obj
 0001:0001adb0       ?common_flush_all@@YAH_N@Z 000000018001bdb0 f   libucrt:fflush.obj
 0001:0001ce00       memcpy_s                   000000018001de00 f   libucrt:cfout.obj
 0001:0001d168       ?free_crt_array_internal@@YAXQEAPEBX_K@Z 000000018001e168 f   libucrt:inittime.obj
 0001:0001dbf4       fallbackMethod             000000018001ebf4 f   libucrt:strpbrk.obj
 0001:0001dfac       $LN78                      000000018001efac     libucrt:strpbrk.obj
 0001:0001dfe8       $LN77                      000000018001efe8     libucrt:strpbrk.obj
 0001:0001e028       $LN76                      000000018001f028     libucrt:strpbrk.obj
 0001:0001e104       ?__acrt_LCMapStringA_stat@@YAHPEAU__crt_locale_pointers@@PEB_WKPEBDHPEADHHH@Z 000000018001f104 f   libucrt:lcmapstringa.obj
 0001:0001e4b4       ?initialize_multibyte@@YAHXZ 000000018001f4b4 f   libucrt:multibyte_initializer.obj
 0001:0001e4cc       ??$?RV<lambda_a37b2b86f63e897a80ea819b0eb08c01>@@AEAV<lambda_38ce7e780aa69e748d6df282ebc68efe>@@V<lambda_99fb1378e971ab6e7edea83e3a7a83a2>@@@?$__crt_seh_guarded_call@H@@QEAAH$$QEAV<lambda_a37b2b86f63e897a80ea819b0eb08c01>@@AEAV<lambda_38ce7e780aa69e748d6df282ebc68efe>@@$$QEAV<lambda_99fb1378e971ab6e7edea83e3a7a83a2>@@@Z 000000018001f4cc f   libucrt:commit.obj
 0001:0001e5ec       ?write_double_translated_ansi_nolock@@YA?AUwrite_result@?A0x17268360@@HQEBDI@Z 000000018001f5ec f   libucrt:write.obj
 0001:0001ead8       ?write_text_ansi_nolock@@YA?AUwrite_result@?A0x17268360@@HQEBDI@Z 000000018001fad8 f   libucrt:write.obj
 0001:0001ebdc       ?write_text_utf16le_nolock@@YA?AUwrite_result@?A0x17268360@@HQEBDI@Z 000000018001fbdc f   libucrt:write.obj
 0001:0001ecf8       ?write_text_utf8_nolock@@YA?AUwrite_result@?A0x17268360@@HQEBDI@Z 000000018001fcf8 f   libucrt:write.obj
 0001:0001f650       $$000000                   0000000180020650     libucrt:log10.obj
 0001:0001ff1c       ??$common_lseek_nolock@_J@@YA_JH_JH@Z 0000000180020f1c f   libucrt:lseek.obj
 0001:0002017c       common_control87           000000018002117c f   libucrt:ieee.obj
 0001:0002043c       _call_matherr              000000018002143c f   libucrt:libm_error.obj
 0001:000204a4       _exception_enabled         00000001800214a4 f   libucrt:libm_error.obj
 0001:00020740       _log_special_common        0000000180021740 f   libucrt:log_special.obj
 0001:000207d8       ??$?RV<lambda_751a882b2c74d4b022dec766aa51a29a>@@AEAV<lambda_628dfdc04ba53c8bfc02c9951375f3f5>@@V<lambda_f6c7be5f7998530c34de24c7437d6b54>@@@?$__crt_seh_guarded_call@H@@QEAAH$$QEAV<lambda_751a882b2c74d4b022dec766aa51a29a>@@AEAV<lambda_628dfdc04ba53c8bfc02c9951375f3f5>@@$$QEAV<lambda_f6c7be5f7998530c34de24c7437d6b54>@@@Z 00000001800217d8 f   libucrt:close.obj
 0001:00020b00       $$000000                   0000000180021b00     libucrt:fpsr.obj
 0001:000211a0       $$000000                   00000001800221a0     LIBCMT:guard_dispatch.obj
 0001:000211c0       $$000000                   00000001800221c0     LIBCMT:guard_xfg_dispatch.obj
 0001:000211e0       ?filt$0@?0??_AtlVerifyStackAvailable@_ATL_SAFE_ALLOCA_IMPL@ATL@@YA_N_K@Z@4HA 00000001800221e0 f   IndividualRecognition.obj
 0001:00021201       __scrt_is_nonwritable_in_current_image$filt$0 0000000180022201 f   LIBCMT:utility.obj
 0001:00021219       ?catch$0@?0???2@YAPEAX_KAEBUnothrow_t@std@@@Z@4HA 0000000180022219 f   LIBCMT:new_scalar_nothrow.obj
 0001:00021226       __catch$??2@YAPEAX_KAEBUnothrow_t@std@@@Z$0 0000000180022226 f   LIBCMT:new_scalar_nothrow.obj
 0001:00021237       ?fin$0@?0??dllmain_crt_process_attach@@YAHQEAUHINSTANCE__@@QEAX@Z@4HA 0000000180022237 f   LIBCMT:dll_dllmain.obj
 0001:0002124e       ?fin$0@?0??dllmain_crt_process_detach@@YAH_N@Z@4HA 000000018002224e f   LIBCMT:dll_dllmain.obj
 0001:00021267       ?fin$1@?0??dllmain_crt_process_detach@@YAH_N@Z@4HA 0000000180022267 f   LIBCMT:dll_dllmain.obj
 0001:0002127b       ?filt$0@?0??dllmain_dispatch@@YAHQEAUHINSTANCE__@@KQEAX@Z@4HA 000000018002227b f   LIBCMT:dll_dllmain.obj
 0001:000212b1       ?filt$0@?0???$_CallSETranslator@V__FrameHandler4@@@@YAHPEAUEHExceptionRecord@@PEA_KPEAU_CONTEXT@@PEAU_xDISPATCHER_CONTEXT@@PEAUFuncInfo4@FH4@@K1H@Z@4HA 00000001800222b1 f   libvcruntime:risctrnsctrl.obj
 0001:00021350       __DestructExceptionObject$filt$0 0000000180022350 f   libvcruntime:ehhelpers.obj
 0001:000213e6       ?filt$0@?0??CxxCallCatchBlock@__FrameHandler4@@SAPEAXPEAU_EXCEPTION_RECORD@@@Z@4HA 00000001800223e6 f   libvcruntime:frame.obj
 0001:00021415       ?fin$1@?0??CxxCallCatchBlock@__FrameHandler4@@SAPEAXPEAU_EXCEPTION_RECORD@@@Z@4HA 0000000180022415 f   libvcruntime:frame.obj
 0001:00021498       ?filt$0@?0??FrameUnwindToState@__FrameHandler4@@SAXPEA_KPEAU_xDISPATCHER_CONTEXT@@PEAUFuncInfo4@FH4@@H@Z@4HA 0000000180022498 f   libvcruntime:frame.obj
 0001:000214ae       ?fin$1@?0??FrameUnwindToState@__FrameHandler4@@SAXPEA_KPEAU_xDISPATCHER_CONTEXT@@PEAUFuncInfo4@FH4@@H@Z@4HA 00000001800224ae f   libvcruntime:frame.obj
 0001:000214d1       ?fin$0@?0???$?RV<lambda_0ae27a3a962d80f24befdcbee591983d>@@AEAV<lambda_8d0ee55de4b1038c4002e0adecdf1839>@@V<lambda_dc504788e8f1664fe9b84e20bfb512f2>@@@?$__crt_seh_guarded_call@X@@QEAAX$$QEAV<lambda_0ae27a3a962d80f24befdcbee591983d>@@AEAV<lambda_8d0ee55de4b1038c4002e0adecdf1839>@@$$QEAV<lambda_dc504788e8f1664fe9b84e20bfb512f2>@@@Z@4HA 00000001800224d1 f   libucrt:per_thread_data.obj
 0001:000214d1       ?fin$0@?0???$?RV<lambda_2d41944a1d46af3157314b8a01080d33>@@AEAV<lambda_8f455de75cd7d7f24b4096f044d8b9e6>@@V<lambda_aa500f224e6afead328df44964fe2772>@@@?$__crt_seh_guarded_call@X@@QEAAX$$QEAV<lambda_2d41944a1d46af3157314b8a01080d33>@@AEAV<lambda_8f455de75cd7d7f24b4096f044d8b9e6>@@$$QEAV<lambda_aa500f224e6afead328df44964fe2772>@@@Z@4HA 00000001800224d1 f   libucrt:per_thread_data.obj
 0001:000214d1       ?fin$0@?0???$?RV<lambda_aa87e3671a710a21b5dc78c0bdf72e11>@@AEAV<lambda_92619d2358a28f41a33ba319515a20b9>@@V<lambda_6992ecaafeb10aed2b74cb1fae11a551>@@@?$__crt_seh_guarded_call@X@@QEAAX$$QEAV<lambda_aa87e3671a710a21b5dc78c0bdf72e11>@@AEAV<lambda_92619d2358a28f41a33ba319515a20b9>@@$$QEAV<lambda_6992ecaafeb10aed2b74cb1fae11a551>@@@Z@4HA 00000001800224d1 f   libucrt:per_thread_data.obj
 0001:000214d1       ?fin$0@?0???$?RV<lambda_f2e299630e499de9f9a165e60fcd3db5>@@AEAV<lambda_2ae9d31cdba2644fcbeaf08da7c24588>@@V<lambda_40d01ff24d0e7b3814fdbdcee8eab3c7>@@@?$__crt_seh_guarded_call@X@@QEAAX$$QEAV<lambda_f2e299630e499de9f9a165e60fcd3db5>@@AEAV<lambda_2ae9d31cdba2644fcbeaf08da7c24588>@@$$QEAV<lambda_40d01ff24d0e7b3814fdbdcee8eab3c7>@@@Z@4HA 00000001800224d1 f   libucrt:per_thread_data.obj
 0001:000214d1       ?fin$0@?0???$?RV<lambda_efdfa57d1f175319df784efa44bb7b81>@@AEAV<lambda_5f0a4c1567f8adc6734073e5d1e1b35c>@@V<lambda_2e8a7d3640ea6ccb4c2413664c2db6fd>@@@?$__crt_seh_guarded_call@X@@QEAAX$$QEAV<lambda_efdfa57d1f175319df784efa44bb7b81>@@AEAV<lambda_5f0a4c1567f8adc6734073e5d1e1b35c>@@$$QEAV<lambda_2e8a7d3640ea6ccb4c2413664c2db6fd>@@@Z@4HA 00000001800224d1 f   libucrt:mbctype.obj
 0001:000214d1       ?fin$0@?0???$?RV<lambda_450d765d439847d4c735a33c368b5fc0>@@AEAV<lambda_44731a7d0e6d81c3e6aa82d741081786>@@V<lambda_601a2a7da3b7a96e9554ac7215c4b07c>@@@?$__crt_seh_guarded_call@P6AXH@Z@@QEAAP6AXH@Z$$QEAV<lambda_450d765d439847d4c735a33c368b5fc0>@@AEAV<lambda_44731a7d0e6d81c3e6aa82d741081786>@@$$QEAV<lambda_601a2a7da3b7a96e9554ac7215c4b07c>@@@Z@4HA 00000001800224d1 f   libucrt:signal.obj
 0001:000214d1       ?fin$0@?0???$?RV<lambda_d80eeec6fff315bfe5c115232f3240e3>@@AEAV<lambda_6e4b09c48022b2350581041d5f6b0c4c>@@V<lambda_2358e3775559c9db80273638284d5e45>@@@?$__crt_seh_guarded_call@X@@QEAAX$$QEAV<lambda_d80eeec6fff315bfe5c115232f3240e3>@@AEAV<lambda_6e4b09c48022b2350581041d5f6b0c4c>@@$$QEAV<lambda_2358e3775559c9db80273638284d5e45>@@@Z@4HA 00000001800224d1 f   libucrt:exit.obj
 0001:000214d1       ?fin$0@?0???$?RV<lambda_638799b9deba96c50f710eeac98168cd>@@AEAV<lambda_22ebabd17bc4fa466a2aca6d8deb888d>@@V<lambda_a6f7d7db0129f75315ebf26d50c089f1>@@@?$__crt_seh_guarded_call@H@@QEAAH$$QEAV<lambda_638799b9deba96c50f710eeac98168cd>@@AEAV<lambda_22ebabd17bc4fa466a2aca6d8deb888d>@@$$QEAV<lambda_a6f7d7db0129f75315ebf26d50c089f1>@@@Z@4HA 00000001800224d1 f   libucrt:onexit.obj
 0001:000214d1       ?fin$0@?0???$?RV<lambda_7777bce6b2f8c936911f934f8298dc43>@@AEAV<lambda_f03950bc5685219e0bcd2087efbe011e>@@V<lambda_3883c3dff614d5e0c5f61bb1ac94921c>@@@?$__crt_seh_guarded_call@H@@QEAAH$$QEAV<lambda_7777bce6b2f8c936911f934f8298dc43>@@AEAV<lambda_f03950bc5685219e0bcd2087efbe011e>@@$$QEAV<lambda_3883c3dff614d5e0c5f61bb1ac94921c>@@@Z@4HA 00000001800224d1 f   libucrt:onexit.obj
 0001:000214eb       ?filt$0@?0???R<lambda_6e4b09c48022b2350581041d5f6b0c4c>@@QEBA@XZ@4HA 00000001800224eb f   libucrt:exit.obj
 0001:00021506       _query_new_handler$fin$0   0000000180022506 f   libucrt:new_handler.obj
 0001:0002151c       ?fin$0@?0???$?RV<lambda_410d79af7f07d98d83a3f525b3859a53>@@AEAV<lambda_3e16ef9562a7dcce91392c22ab16ea36>@@V<lambda_38119f0e861e05405d8a144b9b982f0a>@@@?$__crt_seh_guarded_call@X@@QEAAX$$QEAV<lambda_410d79af7f07d98d83a3f525b3859a53>@@AEAV<lambda_3e16ef9562a7dcce91392c22ab16ea36>@@$$QEAV<lambda_38119f0e861e05405d8a144b9b982f0a>@@@Z@4HA 000000018002251c f   libucrt:wsetlocale.obj
 0001:00021536       __acrt_initialize_lowio$fin$0 0000000180022536 f   libucrt:ioinit.obj
 0001:00021536       __acrt_lowio_ensure_fh_exists$fin$0 0000000180022536 f   libucrt:osfinfo.obj
 0001:0002154f       ?fin$0@?0??update_thread_multibyte_data_internal@@YAPEAU__crt_multibyte_data@@QEAU__acrt_ptd@@QEAPEAU1@@Z@4HA 000000018002254f f   libucrt:mbctype.obj
 0001:00021568       raise$fin$0                0000000180022568 f   libucrt:signal.obj
 0001:00021589       ?fin$0@?0???$?RV<lambda_842d9ff0dc9ef11c61343bbaebe7f885>@@AEAV<lambda_c5860995281e5c4ce005b3de8f5874ee>@@V<lambda_d90129c13df834fdcbf8d2b88dafcf2d>@@@?$__crt_seh_guarded_call@X@@QEAAX$$QEAV<lambda_842d9ff0dc9ef11c61343bbaebe7f885>@@AEAV<lambda_c5860995281e5c4ce005b3de8f5874ee>@@$$QEAV<lambda_d90129c13df834fdcbf8d2b88dafcf2d>@@@Z@4HA 0000000180022589 f   libucrt:fflush.obj
 0001:000215a4       ?fin$0@?0???$?RV<lambda_886d6c58226a84441f68b9f2b8217b83>@@AEAV<lambda_ab61a845afdef5b7c387490eaf3616ee>@@V<lambda_f7f22ab5edc0698d5f6905b0d3f44752>@@@?$__crt_seh_guarded_call@X@@QEAAX$$QEAV<lambda_886d6c58226a84441f68b9f2b8217b83>@@AEAV<lambda_ab61a845afdef5b7c387490eaf3616ee>@@$$QEAV<lambda_f7f22ab5edc0698d5f6905b0d3f44752>@@@Z@4HA 00000001800225a4 f   libucrt:fflush.obj
 0001:000215c1       __acrt_update_thread_locale_data$fin$0 00000001800225c1 f   libucrt:locale_refcounting.obj
 0001:000215da       _fcloseall$fin$0           00000001800225da f   libucrt:closeall.obj
 0001:000215f3       ?fin$0@?0???$?RV<lambda_751a882b2c74d4b022dec766aa51a29a>@@AEAV<lambda_628dfdc04ba53c8bfc02c9951375f3f5>@@V<lambda_f6c7be5f7998530c34de24c7437d6b54>@@@?$__crt_seh_guarded_call@H@@QEAAH$$QEAV<lambda_751a882b2c74d4b022dec766aa51a29a>@@AEAV<lambda_628dfdc04ba53c8bfc02c9951375f3f5>@@$$QEAV<lambda_f6c7be5f7998530c34de24c7437d6b54>@@@Z@4HA 00000001800225f3 f   libucrt:close.obj
 0001:000215f3       ?fin$0@?0???$?RV<lambda_a37b2b86f63e897a80ea819b0eb08c01>@@AEAV<lambda_38ce7e780aa69e748d6df282ebc68efe>@@V<lambda_99fb1378e971ab6e7edea83e3a7a83a2>@@@?$__crt_seh_guarded_call@H@@QEAAH$$QEAV<lambda_a37b2b86f63e897a80ea819b0eb08c01>@@AEAV<lambda_38ce7e780aa69e748d6df282ebc68efe>@@$$QEAV<lambda_99fb1378e971ab6e7edea83e3a7a83a2>@@@Z@4HA 00000001800225f3 f   libucrt:commit.obj
 0001:0002160d       _write$fin$0               000000018002260d f   libucrt:write.obj
 0001:00021624       fclose$fin$0               0000000180022624 f   libucrt:fclose.obj
 0001:0002163c       _ctrlfp$filt$0             000000018002263c f   libucrt:fpctrl.obj
 0001:0002163c       common_control87$filt$0    000000018002263c f   libucrt:ieee.obj
 0001:00021670       _IsNonwritableInCurrentImage$filt$0 0000000180022670 f   LIBCMT:pesect.obj
 0001:00021690       ??__F_AtlComModule@ATL@@YAXXZ 0000000180022690 f   OposVariant.obj
 0001:0002169c       ??__F_AtlWinModule@ATL@@YAXXZ 000000018002269c f   OposVariant.obj
 0001:000216e0       ??__F_Module@@YAXXZ        00000001800226e0 f   IndividualRecognition.obj
 0001:000216fc       ??__F_AtlBaseModule@ATL@@YAXXZ 00000001800226fc f   atls:atlbase.obj
 0002:00000648       ?_AtlBaseModule$initializer$@ATL@@3P6AXXZEA 0000000180023648     atls:atlbase.obj
 0002:00000650       ?_AtlComModule$initializer$@ATL@@3P6AXXZEA 0000000180023650     OposVariant.obj
 0002:00000658       ?_AtlWinModule$initializer$@ATL@@3P6AXXZEA 0000000180023658     OposVariant.obj
 0002:00000660       ?_Module$initializer$@@3P6AXXZEA 0000000180023660     IndividualRecognition.obj
 0002:00000668       ??pConnMap$initializer$@?$IConnectionPointContainerImpl@VCOPOSIndividualRecognition@@@ATL@@0P6AXXZEA@@3P6AXXZEA 0000000180023668     IndividualRecognition.obj
 0002:00000680       ?__scrt_initialize_tss_var@@3P6AHXZEA 0000000180023680     LIBCMT:thread_safe_statics.obj
 0002:000025e8       GS_ExceptionPointers       00000001800255e8     LIBCMT:gs_report.obj
 0002:000027d0       ?ExceptionTemplate@?1??UnwindNestedFrames@__FrameHandler4@@SAXPEA_KPEAUEHExceptionRecord@@PEAU_CONTEXT@@0PEAXPEAUFuncInfo4@FH4@@HHPEAUHandlerType4@6@PEAU_xDISPATCHER_CONTEXT@@E@Z@4U_EXCEPTION_RECORD@@B 00000001800257d0     libvcruntime:risctrnsctrl.obj
 0002:000028a0       ?tokenTable@@3QBUStringLiteral@@B 00000001800258a0     libvcruntime:undname.obj
 0002:000029a0       ?nameTable@@3QBUStringLiteral@@B 00000001800259a0     libvcruntime:undname.obj
 0002:00002ed0       ?rttiTable@@3QBUStringLiteral@@B 0000000180025ed0     libvcruntime:undname.obj
 0002:00002f20       ?IndirectionName@@3QBUStringLiteral@@B 0000000180025f20     libvcruntime:undname.obj
 0002:00002f80       ?PrefixName@@3QBUStringLiteral@@B 0000000180025f80     libvcruntime:undname.obj
 0002:00003658       ?module_names@?A0x84e3c32f@@3QBQEB_WB 0000000180026658     libvcruntime:winapi_downlevel.obj
 0002:00003718       ?candidate_modules@?1??try_get_FlsAlloc@@YAP6AKP6AXPEAX@Z@ZXZ@4QBW4module_id@?A0x84e3c32f@@B 0000000180026718     libvcruntime:winapi_downlevel.obj
 0002:00003730       ?candidate_modules@?1??try_get_FlsFree@@YAP6AHK@ZXZ@4QBW4module_id@?A0x84e3c32f@@B 0000000180026730     libvcruntime:winapi_downlevel.obj
 0002:00003740       ?candidate_modules@?1??try_get_FlsGetValue@@YAP6APEAXK@ZXZ@4QBW4module_id@?A0x84e3c32f@@B 0000000180026740     libvcruntime:winapi_downlevel.obj
 0002:00003758       ?candidate_modules@?1??try_get_FlsSetValue@@YAP6AHKPEAX@ZXZ@4QBW4module_id@?A0x84e3c32f@@B 0000000180026758     libvcruntime:winapi_downlevel.obj
 0002:00003770       ?candidate_modules@?1??try_get_InitializeCriticalSectionEx@@YAP6AHPEAU_RTL_CRITICAL_SECTION@@KK@ZXZ@4QBW4module_id@?A0x84e3c32f@@B 0000000180026770     libvcruntime:winapi_downlevel.obj
 0002:000037a0       ?errtable@@3QBUerrentry@?A0x31fdb9ec@@B 00000001800267a0     libucrt:errno.obj
 0002:00003e30       __acrt_initializers        0000000180026e30     libucrt:initialization.obj
 0002:00003f30       ?module_names@?A0x391cf84c@@3QBQEB_WB 0000000180026f30     libucrt:winapi_thunks.obj
 0002:00004438       ?candidate_modules@?1??try_get_AreFileApisANSI@@YAP6AHXZXZ@4QBW4module_id@?A0x391cf84c@@B 0000000180027438     libucrt:winapi_thunks.obj
 0002:00004450       ?candidate_modules@?1??try_get_FlsAlloc@@YAP6AKP6AXPEAX@Z@ZXZ@4QBW4module_id@?A0x391cf84c@@B 0000000180027450     libucrt:winapi_thunks.obj
 0002:00004458       ?candidate_modules@?1??try_get_FlsFree@@YAP6AHK@ZXZ@4QBW4module_id@?A0x391cf84c@@B 0000000180027458     libucrt:winapi_thunks.obj
 0002:00004460       ?candidate_modules@?1??try_get_FlsGetValue@@YAP6APEAXK@ZXZ@4QBW4module_id@?A0x391cf84c@@B 0000000180027460     libucrt:winapi_thunks.obj
 0002:00004468       ?candidate_modules@?1??try_get_FlsSetValue@@YAP6AHKPEAX@ZXZ@4QBW4module_id@?A0x391cf84c@@B 0000000180027468     libucrt:winapi_thunks.obj
 0002:00004470       ?candidate_modules@?1??try_get_InitializeCriticalSectionEx@@YAP6AHPEAU_RTL_CRITICAL_SECTION@@KK@ZXZ@4QBW4module_id@?A0x391cf84c@@B 0000000180027470     libucrt:winapi_thunks.obj
 0002:00004478       ?candidate_modules@?1??try_get_LCMapStringEx@@YAP6AHPEB_WK0HPEA_WHPEAU_nlsversioninfo@@PEAX_J@ZXZ@4QBW4module_id@?A0x391cf84c@@B 0000000180027478     libucrt:winapi_thunks.obj
 0002:00004490       ?candidate_modules@?1??try_get_LocaleNameToLCID@@YAP6AKPEB_WK@ZXZ@4QBW4module_id@?A0x391cf84c@@B 0000000180027490     libucrt:winapi_thunks.obj
 0002:000044ac       ?candidate_modules@?1??try_get_AppPolicyGetProcessTerminationMethod@@YAP6AJPEAXPEAW4AppPolicyProcessTerminationMethod@@@ZXZ@4QBW4module_id@?A0x391cf84c@@B 00000001800274ac     libucrt:winapi_thunks.obj
 0002:000044d8       ?candidate_modules@?1??try_get_SetThreadStackGuarantee@@YAP6AHPEAK@ZXZ@4QBW4module_id@?A0x391cf84c@@B 00000001800274d8     libucrt:winapi_thunks.obj
 0002:00004500       ?strings@?1??fp_format_nan_or_infinity@@YAHW4__acrt_fp_class@@_NPEAD_K1@Z@4QAY03QEBDA 0000000180027500     libucrt:cvt.obj
 0002:00004c60       ?_mb_locale_names@@3QBQEB_WB 0000000180027c60     libucrt:mbctype.obj
 0002:000054d0       ?LcidToLocaleNameTable@?A0x881e4c05@@3QBULcidToLocaleName@1@B 00000001800284d0     libucrt:lcidtoname_downlevel.obj
 0002:00006f30       ?LocaleNameToIndexTable@?A0x881e4c05@@3QBULocaleNameIndex@1@B 0000000180029f30     libucrt:lcidtoname_downlevel.obj
 0002:000091d0       __real_ninf                000000018002c1d0     libucrt:log10.obj
 0002:000091e0       __real_inf                 000000018002c1e0     libucrt:log10.obj
 0002:000091f0       __real_neg_qnan            000000018002c1f0     libucrt:log10.obj
 0002:00009200       __real_qnanbit             000000018002c200     libucrt:log10.obj
 0002:00009210       __int_1023                 000000018002c210     libucrt:log10.obj
 0002:00009220       __mask_001                 000000018002c220     libucrt:log10.obj
 0002:00009230       __mask_mant                000000018002c230     libucrt:log10.obj
 0002:00009240       __mask_mant_top8           000000018002c240     libucrt:log10.obj
 0002:00009250       __mask_mant9               000000018002c250     libucrt:log10.obj
 0002:00009260       __real_log10_e             000000018002c260     libucrt:log10.obj
 0002:00009270       __real_log10_e_lead        000000018002c270     libucrt:log10.obj
 0002:00009280       __real_log10_e_tail        000000018002c280     libucrt:log10.obj
 0002:00009290       __real_log10_2_lead        000000018002c290     libucrt:log10.obj
 0002:000092a0       __real_log10_2_tail        000000018002c2a0     libucrt:log10.obj
 0002:000092b0       __real_two                 000000018002c2b0     libucrt:log10.obj
 0002:000092c0       __real_one                 000000018002c2c0     libucrt:log10.obj
 0002:000092d0       __real_half                000000018002c2d0     libucrt:log10.obj
 0002:000092e0       __mask_100                 000000018002c2e0     libucrt:log10.obj
 0002:000092f0       __real_1_over_512          000000018002c2f0     libucrt:log10.obj
 0002:00009300       __real_1_over_2            000000018002c300     libucrt:log10.obj
 0002:00009310       __real_1_over_3            000000018002c310     libucrt:log10.obj
 0002:00009320       __real_1_over_4            000000018002c320     libucrt:log10.obj
 0002:00009330       __real_1_over_5            000000018002c330     libucrt:log10.obj
 0002:00009340       __real_1_over_6            000000018002c340     libucrt:log10.obj
 0002:00009350       __real_neg_1023            000000018002c350     libucrt:log10.obj
 0002:00009360       __mask_2045                000000018002c360     libucrt:log10.obj
 0002:00009370       __real_threshold           000000018002c370     libucrt:log10.obj
 0002:00009380       __real_near_one_lt         000000018002c380     libucrt:log10.obj
 0002:00009390       __real_near_one_gt         000000018002c390     libucrt:log10.obj
 0002:000093a0       __real_min_norm            000000018002c3a0     libucrt:log10.obj
 0002:000093b0       __real_notsign             000000018002c3b0     libucrt:log10.obj
 0002:000093c0       __real_ca1                 000000018002c3c0     libucrt:log10.obj
 0002:000093d0       __real_ca2                 000000018002c3d0     libucrt:log10.obj
 0002:000093e0       __real_ca3                 000000018002c3e0     libucrt:log10.obj
 0002:000093f0       __real_ca4                 000000018002c3f0     libucrt:log10.obj
 0002:00009400       __mask_lower               000000018002c400     libucrt:log10.obj
 0002:00009410       __flag_x_zero              000000018002c410     libucrt:log10.obj
 0002:00009414       __flag_x_neg               000000018002c414     libucrt:log10.obj
 0002:00009418       __flag_x_nan               000000018002c418     libucrt:log10.obj
 0002:0000ac70       __real@433fffffffffffff    000000018002dc70     libucrt:fpsr.obj
 0002:0000ac78       __real@c33fffffffffffff    000000018002dc78     libucrt:fpsr.obj
 0002:0000b560       $unwind$?cw_memcpy@@YAHPEA_WPEBDH@Z 000000018002e560     CWString.obj
 0002:0000b560       $unwind$?ProcessWindowMessage@?$CComControl@VCOPOSIndividualRecognition@@V?$CWindowImpl@VCOPOSIndividualRecognition@@VCWindow@ATL@@V?$CWinTraits@$0FGAAAAAA@$0A@@3@@ATL@@@ATL@@UEAAHPEAUHWND__@@I_K_JAEA_JK@Z 000000018002e560     IndividualRecognition.obj
 0002:0000b560       $unwind$wcstol             000000018002e560     libucrt:strtox.obj
 0002:0000b560       $unwind$_invalid_parameter_noinfo 000000018002e560     libucrt:invalid_parameter.obj
 0002:0000b560       $unwind$_log10_special     000000018002e560     libucrt:log_special.obj
 0002:0000b568       $unwind$?cw_strcpy@@YAHPEA_WPEBD@Z 000000018002e568     CWString.obj
 0002:0000b568       $unwind$??__E?pConnMap@?$IConnectionPointContainerImpl@VCOPOSIndividualRecognition@@@ATL@@0PEBU_ATL_CONNMAP_ENTRY@2@EB@@YAXXZ 000000018002e568     IndividualRecognition.obj
 0002:0000b568       $unwind$?AddReplacement@CRegObject@ATL@@UEAAJPEB_W0@Z 000000018002e568     IndividualRecognition.obj
 0002:0000b568       $unwind$?AtlHresultFromLastError@ATL@@YAJXZ 000000018002e568     IndividualRecognition.obj
 0002:0000b568       $unwind$?AtlThrowImpl@ATL@@YAXJ@Z 000000018002e568     IndividualRecognition.obj
 0002:0000b568       $unwind$?CreateInstance@CComClassFactory@ATL@@UEAAJPEAUIUnknown@@AEBU_GUID@@PEAPEAX@Z 000000018002e568     IndividualRecognition.obj
 0002:0000b568       $unwind$?DefaultReflectionHandler@?$CWindowImplRoot@VCWindow@ATL@@@ATL@@SAHPEAUHWND__@@I_K_JAEA_J@Z 000000018002e568     IndividualRecognition.obj
 0002:0000b568       $unwind$?EnumAdvise@?$IOleObjectImpl@VCOPOSIndividualRecognition@@@ATL@@UEAAJPEAPEAUIEnumSTATDATA@@@Z 000000018002e568     IndividualRecognition.obj
 0002:0000b568       $unwind$?FireViewChange@CComControlBase@ATL@@QEAAJXZ 000000018002e568     IndividualRecognition.obj
 0002:0000b568       $unwind$?GetAdvise@?$IViewObjectExImpl@VCOPOSIndividualRecognition@@@ATL@@UEAAJPEAK0PEAPEAUIAdviseSink@@@Z 000000018002e568     IndividualRecognition.obj
 0002:0000b568       $unwind$?LockServer@CComClassFactory@ATL@@UEAAJH@Z 000000018002e568     IndividualRecognition.obj
 0002:0000b568       $unwind$?OnDocWindowActivate@?$IOleInPlaceActiveObjectImpl@VCOPOSIndividualRecognition@@@ATL@@UEAAJH@Z 000000018002e568     IndividualRecognition.obj
 0002:0000b568       $unwind$?Unadvise@?$IOleObjectImpl@VCOPOSIndividualRecognition@@@ATL@@UEAAJK@Z 000000018002e568     IndividualRecognition.obj
 0002:0000b568       $unwind$?_LocCPQueryInterface@?$IConnectionPointImpl@VCOPOSIndividualRecognition@@$1?DIID__IOPOSIndividualRecognitionEvents@@3U_GUID@@BVCComDynamicUnkArray@ATL@@@ATL@@UEAAJAEBU_GUID@@PEAPEAX@Z 000000018002e568     IndividualRecognition.obj
 0002:0000b568       $unwind$?_LocCPQueryInterface@?$IConnectionPointImpl@VCOPOSIndividualRecognition@@$1?IID_IPropertyNotifySink@@3U_GUID@@BVCComDynamicUnkArray@ATL@@@ATL@@UEAAJAEBU_GUID@@PEAPEAX@Z 000000018002e568     IndividualRecognition.obj
 0002:0000b568       $unwind$?FinalConstruct@COPOSIndividualRecognition@@QEAAJXZ 000000018002e568     IndividualRecognitionImpl.obj
 0002:0000b568       $unwind$?get_ResultCode@COPOSIndividualRecognition@@UEAAJPEAJ@Z 000000018002e568     IndividualRecognitionImpl.obj
 0002:0000b568       $unwind$?get_State@COPOSIndividualRecognition@@UEAAJPEAJ@Z 000000018002e568     IndividualRecognitionImpl.obj
 0002:0000b568       $unwind$??1OposDispParms@@QEAA@XZ 000000018002e568     OposVariant.obj
 0002:0000b568       $unwind$??__E_AtlComModule@ATL@@YAXXZ 000000018002e568     OposVariant.obj
 0002:0000b568       $unwind$??__E_AtlWinModule@ATL@@YAXXZ 000000018002e568     OposVariant.obj
 0002:0000b568       $unwind$??__F_AtlWinModule@ATL@@YAXXZ 000000018002e568     OposVariant.obj
 0002:0000b568       $unwind$?GetLONG@OposVariant@@QEAAJXZ 000000018002e568     OposVariant.obj
 0002:0000b568       $unwind$??__E_AtlBaseModule@ATL@@YAXXZ 000000018002e568     atls:atlbase.obj
 0002:0000b568       $unwind$__scrt_initialize_default_local_stdio_options 000000018002e568     LIBCMT:default_local_stdio_options.obj
 0002:0000b568       $unwind$?dllmain_crt_dispatch@@YAHQEAUHINSTANCE__@@KQEAX@Z 000000018002e568     LIBCMT:dll_dllmain.obj
 0002:0000b568       $unwind$__report_rangecheckfailure 000000018002e568     LIBCMT:gs_report.obj
 0002:0000b568       $unwind$__GSHandlerCheck   000000018002e568     LIBCMT:gshandler.obj
 0002:0000b568       $unwind$?__scrt_uninitialize_thread_safe_statics@@YAXXZ 000000018002e568     LIBCMT:thread_safe_statics.obj
 0002:0000b568       $unwind$_Init_thread_notify 000000018002e568     LIBCMT:thread_safe_statics.obj
 0002:0000b568       $unwind$__scrt_acquire_startup_lock 000000018002e568     LIBCMT:utility.obj
 0002:0000b568       $unwind$__scrt_dllmain_after_initialize_c 000000018002e568     LIBCMT:utility.obj
 0002:0000b568       $unwind$__scrt_dllmain_before_initialize_c 000000018002e568     LIBCMT:utility.obj
 0002:0000b568       $unwind$__scrt_dllmain_crt_thread_attach 000000018002e568     LIBCMT:utility.obj
 0002:0000b568       $unwind$__scrt_dllmain_crt_thread_detach 000000018002e568     LIBCMT:utility.obj
 0002:0000b568       $unwind$__scrt_dllmain_uninitialize_c 000000018002e568     LIBCMT:utility.obj
 0002:0000b568       $unwind$__scrt_dllmain_uninitialize_critical 000000018002e568     LIBCMT:utility.obj
 0002:0000b568       $unwind$atexit             000000018002e568     LIBCMT:utility.obj
 0002:0000b568       $unwind$__vcrt_initialize  000000018002e568     libvcruntime:initialization.obj
 0002:0000b568       $unwind$__vcrt_thread_attach 000000018002e568     libvcruntime:initialization.obj
 0002:0000b568       $unwind$__vcrt_thread_detach 000000018002e568     libvcruntime:initialization.obj
 0002:0000b568       $unwind$__vcrt_uninitialize 000000018002e568     libvcruntime:initialization.obj
 0002:0000b568       $unwind$__vcrt_uninitialize_critical 000000018002e568     libvcruntime:initialization.obj
 0002:0000b568       $unwind$__vcrt_initialize_locks 000000018002e568     libvcruntime:locks.obj
 0002:0000b568       $unwind$__vcrt_freefls     000000018002e568     libvcruntime:per_thread_data.obj
 0002:0000b568       $unwind$__vcrt_getptd      000000018002e568     libvcruntime:per_thread_data.obj
 0002:0000b568       $unwind$__vcrt_initialize_ptd 000000018002e568     libvcruntime:per_thread_data.obj
 0002:0000b568       $unwind$__vcrt_uninitialize_ptd 000000018002e568     libvcruntime:per_thread_data.obj
 0002:0000b568       $unwind$_purecall          000000018002e568     libvcruntime:purevirt.obj
 0002:0000b568       $unwind$?FrameUnwindToEmptyState@__FrameHandler4@@SAXPEA_KPEAU_xDISPATCHER_CONTEXT@@PEAUFuncInfo4@FH4@@@Z 000000018002e568     libvcruntime:risctrnsctrl.obj
 0002:0000b568       $unwind$_GetImageBase      000000018002e568     libvcruntime:risctrnsctrl.obj
 0002:0000b568       $unwind$_GetThrowImageBase 000000018002e568     libvcruntime:risctrnsctrl.obj
 0002:0000b568       $unwind$__dcrt_terminate_console_output 000000018002e568     libucrt:initcon.obj
 0002:0000b568       $unwind$??$uninitialize_environment_internal@D@@YAXAEAPEAPEAD@Z 000000018002e568     libucrt:environment_initialization.obj
 0002:0000b568       $unwind$??$uninitialize_environment_internal@_W@@YAXAEAPEAPEA_W@Z 000000018002e568     libucrt:environment_initialization.obj
 0002:0000b568       $unwind$__dcrt_uninitialize_environments_nolock 000000018002e568     libucrt:environment_initialization.obj
 0002:0000b568       $unwind$__acrt_initialize_heap 000000018002e568     libucrt:heap_handle.obj
 0002:0000b568       $unwind$_msize_base        000000018002e568     libucrt:msize.obj
 0002:0000b568       $unwind$?initialize_multibyte@@YAHXZ 000000018002e568     libucrt:multibyte_initializer.obj
 0002:0000b568       $unwind$__acrt_thread_attach 000000018002e568     libucrt:initialization.obj
 0002:0000b568       $unwind$__acrt_thread_detach 000000018002e568     libucrt:initialization.obj
 0002:0000b568       $unwind$__acrt_uninitialize 000000018002e568     libucrt:initialization.obj
 0002:0000b568       $unwind$__acrt_uninitialize_critical 000000018002e568     libucrt:initialization.obj
 0002:0000b568       $unwind$initialize_c       000000018002e568     libucrt:initialization.obj
 0002:0000b568       $unwind$uninitialize_allocated_io_buffers 000000018002e568     libucrt:initialization.obj
 0002:0000b568       $unwind$uninitialize_environment 000000018002e568     libucrt:initialization.obj
 0002:0000b568       $unwind$__acrt_initialize_ptd 000000018002e568     libucrt:per_thread_data.obj
 0002:0000b568       $unwind$__acrt_uninitialize_ptd 000000018002e568     libucrt:per_thread_data.obj
 0002:0000b568       $unwind$__acrt_AreFileApisANSI 000000018002e568     libucrt:winapi_thunks.obj
 0002:0000b568       $unwind$__pctype_func      000000018002e568     libucrt:ctype.obj
 0002:0000b568       $unwind$__acrt_release_locale_ref 000000018002e568     libucrt:locale_refcounting.obj
 0002:0000b568       $unwind$_isatty            000000018002e568     libucrt:isatty.obj
 0002:0000b568       $unwind$_get_osfhandle     000000018002e568     libucrt:osfinfo.obj
 0002:0000b568       $unwind$__acrt_initialize_multibyte 000000018002e568     libucrt:mbctype.obj
 0002:0000b568       $unwind$__acrt_update_thread_multibyte_data 000000018002e568     libucrt:mbctype.obj
 0002:0000b568       $unwind$__doserrno         000000018002e568     libucrt:errno.obj
 0002:0000b568       $unwind$_errno             000000018002e568     libucrt:errno.obj
 0002:0000b568       $unwind$_invoke_watson     000000018002e568     libucrt:invalid_parameter.obj
 0002:0000b568       $unwind$abort              000000018002e568     libucrt:abort.obj
 0002:0000b568       $unwind$__acrt_initialize_command_line 000000018002e568     libucrt:argv_data.obj
 0002:0000b568       $unwind$_fileno            000000018002e568     libucrt:fileno.obj
 0002:0000b568       $unwind$?state_case_size@?$output_processor@_WV?$string_output_adapter@_W@__crt_stdio_output@@V?$format_validation_base@_WV?$string_output_adapter@_W@__crt_stdio_output@@@2@@__crt_stdio_output@@AEAA_NXZ 000000018002e568     libucrt:output.obj
 0002:0000b568       $unwind$_statfp            000000018002e568     libucrt:fpctrl.obj
 0002:0000b568       $unwind$fegetround         000000018002e568     libucrt:fegetround.obj
 0002:0000b568       $unwind$_set_errno_from_matherr 000000018002e568     libucrt:fpexcept.obj
 0002:0000b570       $unwind$?cw_dup@@YAXPEBDAEAHAEAPEA_W1@Z 000000018002e570     CWString.obj
 0002:0000b570       $unwind$?DAdvise@?$IDataObjectImpl@VCOPOSIndividualRecognition@@@ATL@@UEAAJPEAUtagFORMATETC@@KPEAUIAdviseSink@@PEAK@Z 000000018002e570     IndividualRecognition.obj
 0002:0000b570       $unwind$??$__acrt_mbs_to_wcs_cp@U__crt_win32_buffer_internal_dynamic_resizing@@@@YAHQEBDAEAV?$__crt_win32_buffer@_WU__crt_win32_buffer_internal_dynamic_resizing@@@@I@Z 000000018002e570     libucrt:argv_wildcards.obj
 0002:0000b588       $unwind$?DupWide@_CW@@AEAAXXZ 000000018002e588     CWString.obj
 0002:0000b588       $unwind$??0?$CComObject@VCOPOSIndividualRecognition@@@ATL@@QEAA@PEAX@Z 000000018002e588     IndividualRecognition.obj
 0002:0000b588       $unwind$??0CAtlModule@ATL@@QEAA@XZ 000000018002e588     IndividualRecognition.obj
 0002:0000b588       $unwind$??1?$CComObject@VCOPOSIndividualRecognition@@@ATL@@UEAA@XZ 000000018002e588     IndividualRecognition.obj
 0002:0000b588       $unwind$??__E_Module@@YAXXZ 000000018002e588     IndividualRecognition.obj
 0002:0000b588       $unwind$?AddRef@?$CComObjectCached@VCComClassFactory@ATL@@@ATL@@UEAAKXZ 000000018002e588     IndividualRecognition.obj
 0002:0000b588       $unwind$?AllocateHeap@?$CTempBuffer@E$0BAA@VCCRTAllocator@ATL@@@ATL@@AEAAX_K@Z 000000018002e588     IndividualRecognition.obj
 0002:0000b588       $unwind$?AllocateHeap@?$CTempBuffer@_W$0BAA@VCCRTAllocator@ATL@@@ATL@@AEAAX_K@Z 000000018002e588     IndividualRecognition.obj
 0002:0000b588       $unwind$?AllocateHeap@?$CTempBuffer@_W$0EAA@VCCRTAllocator@ATL@@@ATL@@AEAAX_K@Z 000000018002e588     IndividualRecognition.obj
 0002:0000b588       $unwind$?GetClassInfoW@?$IProvideClassInfo2Impl@$1?CLSID_OPOSIndividualRecognition@@3U_GUID@@B$1?DIID__IOPOSIndividualRecognitionEvents@@3U2@B$1?LIBID_OposIndividualRecognition_CCO@@3U2@B$00$0A@VCComTypeInfoHolder@ATL@@@ATL@@UEAAJPEAPEAUITypeInfo@@@Z 000000018002e588     IndividualRecognition.obj
 0002:0000b588       $unwind$?GetClientSite@?$IOleObjectImpl@VCOPOSIndividualRecognition@@@ATL@@UEAAJPEAPEAUIOleClientSite@@@Z 000000018002e588     IndividualRecognition.obj
 0002:0000b588       $unwind$?GetConnMap@COPOSIndividualRecognition@@SAPEBU_ATL_CONNMAP_ENTRY@ATL@@PEAH@Z 000000018002e588     IndividualRecognition.obj
 0002:0000b588       $unwind$?GetTypeInfo@?$IDispatchImpl@UIOPOSIndividualRecognition@@$1?IID_IOPOSIndividualRecognition@@3U_GUID@@B$1?LIBID_OposIndividualRecognition_CCO@@3U3@B$00$0A@VCComTypeInfoHolder@ATL@@@ATL@@UEAAJIKPEAPEAUITypeInfo@@@Z 000000018002e588     IndividualRecognition.obj
 0002:0000b588       $unwind$?IOleInPlaceObject_InPlaceDeactivate@CComControlBase@ATL@@QEAAJXZ 000000018002e588     IndividualRecognition.obj
 0002:0000b588       $unwind$?IOleObject_SetExtent@CComControlBase@ATL@@QEAAJKPEAUtagSIZE@@@Z 000000018002e588     IndividualRecognition.obj
 0002:0000b588       $unwind$?IsEqualObject@?$CComPtrBase@UIOleClientSite@@@ATL@@QEAA_NPEAUIUnknown@@@Z 000000018002e588     IndividualRecognition.obj
 0002:0000b588       $unwind$?QueryHitPoint@?$IViewObjectExImpl@VCOPOSIndividualRecognition@@@ATL@@UEAAJKPEBUtagRECT@@UtagPOINT@@JPEAK@Z 000000018002e588     IndividualRecognition.obj
 0002:0000b588       $unwind$?QueryInterface@?$CComAggObject@VCOPOSIndividualRecognition@@@ATL@@UEAAJAEBU_GUID@@PEAPEAX@Z 000000018002e588     IndividualRecognition.obj
 0002:0000b588       $unwind$?Release@?$CComObjectCached@VCComClassFactory@ATL@@@ATL@@UEAAKXZ 000000018002e588     IndividualRecognition.obj
 0002:0000b588       $unwind$?Unadvise@?$IConnectionPointImpl@VCOPOSIndividualRecognition@@$1?DIID__IOPOSIndividualRecognitionEvents@@3U_GUID@@BVCComDynamicUnkArray@ATL@@@ATL@@UEAAJK@Z 000000018002e588     IndividualRecognition.obj
 0002:0000b588       $unwind$?Unadvise@?$IConnectionPointImpl@VCOPOSIndividualRecognition@@$1?IID_IPropertyNotifySink@@3U_GUID@@BVCComDynamicUnkArray@ATL@@@ATL@@UEAAJK@Z 000000018002e588     IndividualRecognition.obj
 0002:0000b588       $unwind$??1CComControlBase@ATL@@UEAA@XZ 000000018002e588     IndividualRecognitionImpl.obj
 0002:0000b588       $unwind$??1COPOSIndividualRecognition@@UEAA@XZ 000000018002e588     IndividualRecognitionImpl.obj
 0002:0000b588       $unwind$?EventUninit@COPOSIndividualRecognition@@IEAAXXZ 000000018002e588     IndividualRecognitionImpl.obj
 0002:0000b588       $unwind$?FreezeEvents@COPOSIndividualRecognition@@MEAAJH@Z 000000018002e588     IndividualRecognitionImpl.obj
 0002:0000b588       $unwind$?SOProcessID@COPOSIndividualRecognition@@UEAAJPEAJ@Z 000000018002e588     IndividualRecognitionImpl.obj
 0002:0000b588       $unwind$?get_AutoDisable@COPOSIndividualRecognition@@UEAAJPEAF@Z 000000018002e588     IndividualRecognitionImpl.obj
 0002:0000b588       $unwind$?get_CapCompareFirmwareVersion@COPOSIndividualRecognition@@UEAAJPEAF@Z 000000018002e588     IndividualRecognitionImpl.obj
 0002:0000b588       $unwind$?get_CapStatisticsReporting@COPOSIndividualRecognition@@UEAAJPEAF@Z 000000018002e588     IndividualRecognitionImpl.obj
 0002:0000b588       $unwind$?get_CapUpdateFirmware@COPOSIndividualRecognition@@UEAAJPEAF@Z 000000018002e588     IndividualRecognitionImpl.obj
 0002:0000b588       $unwind$?get_CapUpdateStatistics@COPOSIndividualRecognition@@UEAAJPEAF@Z 000000018002e588     IndividualRecognitionImpl.obj
 0002:0000b588       $unwind$?get_Claimed@COPOSIndividualRecognition@@UEAAJPEAF@Z 000000018002e588     IndividualRecognitionImpl.obj
 0002:0000b588       $unwind$?get_DataEventEnabled@COPOSIndividualRecognition@@UEAAJPEAF@Z 000000018002e588     IndividualRecognitionImpl.obj
 0002:0000b588       $unwind$?get_DeviceEnabled@COPOSIndividualRecognition@@UEAAJPEAF@Z 000000018002e588     IndividualRecognitionImpl.obj
 0002:0000b588       $unwind$?get_FreezeEvents@COPOSIndividualRecognition@@UEAAJPEAF@Z 000000018002e588     IndividualRecognitionImpl.obj
 0002:0000b588       $unwind$?put_FreezeEvents@COPOSIndividualRecognition@@UEAAJF@Z 000000018002e588     IndividualRecognitionImpl.obj
 0002:0000b588       $unwind$??0CAtlComModule@ATL@@QEAA@XZ 000000018002e588     OposVariant.obj
 0002:0000b588       $unwind$??0CAtlWinModule@ATL@@QEAA@XZ 000000018002e588     OposVariant.obj
 0002:0000b588       $unwind$??1CAtlBaseModule@ATL@@QEAA@XZ 000000018002e588     atls:atlbase.obj
 0002:0000b588       $unwind$AtlThunk_AllocateData 000000018002e588     atls:atlthunk.obj
 0002:0000b588       $unwind$__raise_securityfailure 000000018002e588     LIBCMT:gs_report.obj
 0002:0000b588       $unwind$??2@YAPEAX_K@Z     000000018002e588     LIBCMT:new_scalar.obj
 0002:0000b588       $unwind$??_Gtype_info@@UEAAPEAXI@Z 000000018002e588     LIBCMT:std_type_info_static.obj
 0002:0000b588       $unwind$_Init_thread_footer 000000018002e588     LIBCMT:thread_safe_statics.obj
 0002:0000b588       $unwind$_Init_thread_header 000000018002e588     LIBCMT:thread_safe_statics.obj
 0002:0000b588       $unwind$_Init_thread_wait  000000018002e588     LIBCMT:thread_safe_statics.obj
 0002:0000b588       $unwind$??0bad_alloc@std@@QEAA@AEBV01@@Z 000000018002e588     LIBCMT:throw_bad_alloc.obj
 0002:0000b588       $unwind$??0bad_array_new_length@std@@QEAA@AEBV01@@Z 000000018002e588     LIBCMT:throw_bad_alloc.obj
 0002:0000b588       $unwind$??0exception@std@@QEAA@AEBV01@@Z 000000018002e588     LIBCMT:throw_bad_alloc.obj
 0002:0000b588       $unwind$__scrt_initialize_crt 000000018002e588     LIBCMT:utility.obj
 0002:0000b588       $unwind$__scrt_initialize_onexit_tables 000000018002e588     LIBCMT:utility.obj
 0002:0000b588       $unwind$__scrt_release_startup_lock 000000018002e588     LIBCMT:utility.obj
 0002:0000b588       $unwind$__scrt_uninitialize_crt 000000018002e588     LIBCMT:utility.obj
 0002:0000b588       $unwind$_onexit            000000018002e588     LIBCMT:utility.obj
 0002:0000b588       $unwind$_IsExceptionObjectToBeDestroyed 000000018002e588     libvcruntime:ehhelpers.obj
 0002:0000b588       $unwind$??0HandlerMap4@FH4@@QEAA@PEBUTryBlockMapEntry4@1@_KH@Z 000000018002e588     libvcruntime:frame.obj
 0002:0000b588       $unwind$??0bad_exception@std@@QEAA@AEBV01@@Z 000000018002e588     libvcruntime:frame.obj
 0002:0000b588       $unwind$?ExFilterRethrow@@YAHPEAU_EXCEPTION_POINTERS@@PEAUEHExceptionRecord@@PEAH@Z 000000018002e588     libvcruntime:frame.obj
 0002:0000b588       $unwind$__vcrt_uninitialize_locks 000000018002e588     libvcruntime:locks.obj
 0002:0000b588       $unwind$__vcrt_freeptd     000000018002e588     libvcruntime:per_thread_data.obj
 0002:0000b588       $unwind$_CreateFrameInfo   000000018002e588     libvcruntime:risctrnsctrl.obj
 0002:0000b588       $unwind$_SetImageBase      000000018002e588     libvcruntime:risctrnsctrl.obj
 0002:0000b588       $unwind$_SetThrowImageBase 000000018002e588     libvcruntime:risctrnsctrl.obj
 0002:0000b588       $unwind$__std_exception_destroy 000000018002e588     libvcruntime:std_exception.obj
 0002:0000b588       $unwind$__std_type_info_destroy_list 000000018002e588     libvcruntime:std_type_info.obj
 0002:0000b588       $unwind$__vcrt_FlsAlloc    000000018002e588     libvcruntime:winapi_downlevel.obj
 0002:0000b588       $unwind$__vcrt_FlsFree     000000018002e588     libvcruntime:winapi_downlevel.obj
 0002:0000b588       $unwind$__vcrt_FlsGetValue 000000018002e588     libvcruntime:winapi_downlevel.obj
 0002:0000b588       $unwind$_calloc_base       000000018002e588     libucrt:calloc_base.obj
 0002:0000b588       $unwind$_malloc_base       000000018002e588     libucrt:malloc_base.obj
 0002:0000b588       $unwind$_callnewh          000000018002e588     libucrt:new_handler.obj
 0002:0000b588       $unwind$initialize_pointers 000000018002e588     libucrt:initialization.obj
 0002:0000b588       $unwind$uninitialize_allocated_memory 000000018002e588     libucrt:initialization.obj
 0002:0000b588       $unwind$__acrt_initialize_locks 000000018002e588     libucrt:locks.obj
 0002:0000b588       $unwind$__acrt_uninitialize_locks 000000018002e588     libucrt:locks.obj
 0002:0000b588       $unwind$__acrt_freeptd     000000018002e588     libucrt:per_thread_data.obj
 0002:0000b588       $unwind$__acrt_getptd_head 000000018002e588     libucrt:per_thread_data.obj
 0002:0000b588       $unwind$__acrt_get_process_end_policy 000000018002e588     libucrt:win_policies.obj
 0002:0000b588       $unwind$__acrt_AppPolicyGetProcessTerminationMethodInternal 000000018002e588     libucrt:winapi_thunks.obj
 0002:0000b588       $unwind$__acrt_FlsAlloc    000000018002e588     libucrt:winapi_thunks.obj
 0002:0000b588       $unwind$__acrt_FlsFree     000000018002e588     libucrt:winapi_thunks.obj
 0002:0000b588       $unwind$__acrt_FlsGetValue 000000018002e588     libucrt:winapi_thunks.obj
 0002:0000b588       $unwind$__acrt_SetThreadStackGuarantee 000000018002e588     libucrt:winapi_thunks.obj
 0002:0000b588       $unwind$__acrt_uninitialize_winapi_thunks 000000018002e588     libucrt:winapi_thunks.obj
 0002:0000b588       $unwind$__acrt_update_locale_info 000000018002e588     libucrt:locale_update.obj
 0002:0000b588       $unwind$__acrt_update_multibyte_info 000000018002e588     libucrt:locale_update.obj
 0002:0000b588       $unwind$__acrt_allocate_buffer_for_argv 000000018002e588     libucrt:argv_parsing.obj
 0002:0000b588       $unwind$?exit_or_terminate_process@@YAXI@Z 000000018002e588     libucrt:exit.obj
 0002:0000b588       $unwind$?try_cor_exit_process@@YAXI@Z 000000018002e588     libucrt:exit.obj
 0002:0000b588       $unwind$__acrt_uninitialize_stdio 000000018002e588     libucrt:_file.obj
 0002:0000b588       $unwind$__acrt_stdio_free_buffer_nolock 000000018002e588     libucrt:_freebuf.obj
 0002:0000b588       $unwind$_fflush_nolock     000000018002e588     libucrt:fflush.obj
 0002:0000b588       $unwind$strcpy_s           000000018002e588     libucrt:strcpy_s.obj
 0002:0000b588       $unwind$wcscat_s           000000018002e588     libucrt:wcscat_s.obj
 0002:0000b588       $unwind$wcscpy_s           000000018002e588     libucrt:wcscpy_s.obj
 0002:0000b588       $unwind$_clrfp             000000018002e588     libucrt:fpctrl.obj
 0002:0000b588       $unwind$_set_statfp        000000018002e588     libucrt:fpctrl.obj
 0002:0000b588       $unwind$_clearfp           000000018002e588     libucrt:ieee.obj
 0002:0000b588       $unwind$_controlfp_s       000000018002e588     libucrt:contrlfp.obj
 0002:0000b588       $unwind$fegetenv           000000018002e588     libucrt:fegetenv.obj
 0002:0000b588       $unwind$feholdexcept       000000018002e588     libucrt:feholdexcept.obj
 0002:0000b588       $unwind$fesetenv           000000018002e588     libucrt:fesetenv.obj
 0002:0000b590       $unwind$?AtlWinModuleExtractCreateWndData@ATL@@YAPEAXPEAU_ATL_WIN_MODULE70@1@@Z 000000018002e590     IndividualRecognition.obj
 0002:0000b590       $unwind$?CreateInstance@?$CComCreator@V?$CComObject@VCOPOSIndividualRecognition@@@ATL@@@ATL@@SAJPEAXAEBU_GUID@@PEAPEAX@Z 000000018002e590     IndividualRecognition.obj
 0002:0000b590       $unwind$?DoEvent@COPOSIndividualRecognition@@IEAAXI_K_J@Z 000000018002e590     IndividualRecognition.obj
 0002:0000b590       $unwind$?DoVerb@?$IOleObjectImpl@VCOPOSIndividualRecognition@@@ATL@@UEAAJJPEAUtagMSG@@PEAUIOleClientSite@@JPEAUHWND__@@PEBUtagRECT@@@Z 000000018002e590     IndividualRecognition.obj
 0002:0000b590       $unwind$?HKeyFromString@CRegParser@ATL@@KAPEAUHKEY__@@PEA_W@Z 000000018002e590     IndividualRecognition.obj
 0002:0000b590       $unwind$?Next@?$CComEnumImpl@UIEnumConnectionPoints@@$1?_GUID_b196b285_bab4_101a_b69c_00aa00341d07@@3U__s_GUID@@BPEAUIConnectionPoint@@V?$_CopyInterface@UIConnectionPoint@@@ATL@@@ATL@@UEAAJKPEAPEAUIConnectionPoint@@PEAK@Z 000000018002e590     IndividualRecognition.obj
 0002:0000b590       $unwind$?Next@?$CComEnumImpl@UIEnumConnections@@$1?_GUID_b196b287_bab4_101a_b69c_00aa00341d07@@3U__s_GUID@@BUtagCONNECTDATA@@V?$_Copy@UtagCONNECTDATA@@@ATL@@@ATL@@UEAAJKPEAUtagCONNECTDATA@@PEAK@Z 000000018002e590     IndividualRecognition.obj
 0002:0000b590       $unwind$?SODirectIO@COPOSIndividualRecognition@@MEAAJJPEAJPEAPEA_W@Z 000000018002e590     IndividualRecognition.obj
 0002:0000b590       $unwind$?SetControlFocus@CComControlBase@ATL@@QEAAHH@Z 000000018002e590     IndividualRecognition.obj
 0002:0000b590       $unwind$?ocscpy_s@@YA_NPEA_W_KPEB_W@Z 000000018002e590     IndividualRecognition.obj
 0002:0000b590       $unwind$?s_EventWindowProc@COPOSIndividualRecognition@@KA_JPEAUHWND__@@I_K_J@Z 000000018002e590     IndividualRecognitionImpl.obj
 0002:0000b590       $unwind$?AtlWinModuleTerm@ATL@@YAJPEAU_ATL_WIN_MODULE70@1@PEAUHINSTANCE__@@@Z 000000018002e590     OposVariant.obj
 0002:0000b590       $unwind$__scrt_dllmain_exception_filter 000000018002e590     LIBCMT:utility.obj
 0002:0000b590       $unwind$?Is_bad_exception_allowed@@YAEPEBU_s_ESTypeList@@@Z 000000018002e590     libvcruntime:frame.obj
 0002:0000b590       $unwind$_recalloc_base     000000018002e590     libucrt:recalloc.obj
 0002:0000b590       $unwind$__acrt_free_locale 000000018002e590     libucrt:locale_refcounting.obj
 0002:0000b590       $unwind$__acrt_lowio_create_handle_array 000000018002e590     libucrt:osfinfo.obj
 0002:0000b590       $unwind$?setSBCS@@YAXPEAU__crt_multibyte_data@@@Z 000000018002e590     libucrt:mbctype.obj
 0002:0000b590       $unwind$_seh_filter_exe    000000018002e590     libucrt:exception_filter.obj
 0002:0000b590       $unwind$_initterm          000000018002e590     libucrt:initterm.obj
 0002:0000b590       $unwind$??$ensure_buffer_is_big_enough@D@formatting_buffer@__crt_stdio_output@@QEAA_N_K@Z 000000018002e590     libucrt:output.obj
 0002:0000b590       $unwind$??$ensure_buffer_is_big_enough@_W@formatting_buffer@__crt_stdio_output@@QEAA_N_K@Z 000000018002e590     libucrt:output.obj
 0002:0000b5a4       $unwind$??_GCRegObject@ATL@@UEAAPEAXI@Z 000000018002e5a4     IndividualRecognition.obj
 0002:0000b5a4       $unwind$?Add@?$CSimpleArray@GV?$CSimpleArrayEqualHelper@G@ATL@@@ATL@@QEAAHAEBG@Z 000000018002e5a4     IndividualRecognition.obj
 0002:0000b5a4       $unwind$?Add@?$CSimpleMap@PEA_WPEA_WVCExpansionVectorEqualHelper@ATL@@@ATL@@QEAAHAEBQEA_W0@Z 000000018002e5a4     IndividualRecognition.obj
 0002:0000b5a4       $unwind$?Add@CComDynamicUnkArray@ATL@@QEAAKPEAUIUnknown@@@Z 000000018002e5a4     IndividualRecognition.obj
 0002:0000b5a4       $unwind$?Advise@?$IOleObjectImpl@VCOPOSIndividualRecognition@@@ATL@@UEAAJPEAUIAdviseSink@@PEAK@Z 000000018002e5a4     IndividualRecognition.obj
 0002:0000b5a4       $unwind$?ClearReplacements@CExpansionVector@ATL@@QEAAJXZ 000000018002e5a4     IndividualRecognition.obj
 0002:0000b5a4       $unwind$?CreateInstance@?$CComObject@V?$CComEnum@UIEnumConnectionPoints@@$1?_GUID_b196b285_bab4_101a_b69c_00aa00341d07@@3U__s_GUID@@BPEAUIConnectionPoint@@V?$_CopyInterface@UIConnectionPoint@@@ATL@@VCComSingleThreadModel@6@@ATL@@@ATL@@SAJPEAPEAV12@@Z 000000018002e5a4     IndividualRecognition.obj
 0002:0000b5a4       $unwind$?CreateInstance@?$CComObject@V?$CComEnum@UIEnumConnections@@$1?_GUID_b196b287_bab4_101a_b69c_00aa00341d07@@3U__s_GUID@@BUtagCONNECTDATA@@V?$_Copy@UtagCONNECTDATA@@@ATL@@VCComSingleThreadModel@6@@ATL@@@ATL@@SAJPEAPEAV12@@Z 000000018002e5a4     IndividualRecognition.obj
 0002:0000b5a4       $unwind$?RegisterServer@CComModule@ATL@@QEAAJHPEBU_GUID@@@Z 000000018002e5a4     IndividualRecognition.obj
 0002:0000b5a4       $unwind$?Term@CAtlModule@ATL@@QEAAXXZ 000000018002e5a4     IndividualRecognition.obj
 0002:0000b5a4       $unwind$?UnregisterServer@CComModule@ATL@@QEAAJHPEBU_GUID@@@Z 000000018002e5a4     IndividualRecognition.obj
 0002:0000b5a4       $unwind$?VTFromRegType@CRegParser@ATL@@KAHPEB_WAEAG@Z 000000018002e5a4     IndividualRecognition.obj
 0002:0000b5a4       $unwind$??0OposDispParms@@QEAA@PEAVOposVariant@@H@Z 000000018002e5a4     OposVariant.obj
 0002:0000b5a4       $unwind$?SetBSTR_Copy@OposVariant@@QEAAXPEA_WAEAJ@Z 000000018002e5a4     OposVariant.obj
 0002:0000b5a4       $unwind$?SetBSTR_InOutPtr@OposVariant@@QEAA_NPEAPEA_WAEAJ@Z 000000018002e5a4     OposVariant.obj
 0002:0000b5a4       $unwind$?SetDispatch_Ptr@OposVariant@@QEAAXPEAUIDispatch@@AEAJ@Z 000000018002e5a4     OposVariant.obj
 0002:0000b5a4       $unwind$?SetLONG_Ptr@OposVariant@@QEAAXPEAJAEAJ@Z 000000018002e5a4     OposVariant.obj
 0002:0000b5a4       $unwind$?SetString@OposVariant@@QEAAXPEB_WAEAJ@Z 000000018002e5a4     OposVariant.obj
 0002:0000b5a4       $unwind$?Term@CAtlComModule@ATL@@QEAAXXZ 000000018002e5a4     OposVariant.obj
 0002:0000b5a4       $unwind$_DllMainCRTStartup 000000018002e5a4     LIBCMT:dll_dllmain.obj
 0002:0000b5a4       $unwind$__vcrt_getptd_noexit 000000018002e5a4     libvcruntime:per_thread_data.obj
 0002:0000b5a4       $unwind$__vcrt_InitializeCriticalSectionEx 000000018002e5a4     libvcruntime:winapi_downlevel.obj
 0002:0000b5a4       $unwind$memcpy_s           000000018002e5a4     libucrt:cfout.obj
 0002:0000b5a4       $unwind$__acrt_getptd      000000018002e5a4     libucrt:per_thread_data.obj
 0002:0000b5a4       $unwind$__acrt_getptd_noexit 000000018002e5a4     libucrt:per_thread_data.obj
 0002:0000b5a4       $unwind$__acrt_execute_initializers 000000018002e5a4     libucrt:shared_initialization.obj
 0002:0000b5a4       $unwind$__acrt_InitializeCriticalSectionEx 000000018002e5a4     libucrt:winapi_thunks.obj
 0002:0000b5a4       $unwind$?free_crt_array_internal@@YAXQEAPEBX_K@Z 000000018002e5a4     libucrt:inittime.obj
 0002:0000b5a4       $unwind$??$common_lseek_nolock@_J@@YA_JH_JH@Z 000000018002e5a4     libucrt:lseek.obj
 0002:0000b5a4       $unwind$__acrt_stdio_flush_nolock 000000018002e5a4     libucrt:fflush.obj
 0002:0000b5a4       $unwind$??0_LocaleUpdate@@QEAA@QEAU__crt_locale_pointers@@@Z 000000018002e5a4     libucrt:output.obj
 0002:0000b5a4       $unwind$?type_case_Z@?$output_processor@_WV?$string_output_adapter@_W@__crt_stdio_output@@V?$format_validation_base@_WV?$string_output_adapter@_W@__crt_stdio_output@@@2@@__crt_stdio_output@@AEAA_NXZ 000000018002e5a4     libucrt:output.obj
 0002:0000b5a4       $unwind$?type_case_s@?$output_processor@_WV?$string_output_adapter@_W@__crt_stdio_output@@V?$format_validation_base@_WV?$string_output_adapter@_W@__crt_stdio_output@@@2@@__crt_stdio_output@@AEAA_NXZ 000000018002e5a4     libucrt:output.obj
 0002:0000b5a4       $unwind$_exception_enabled 000000018002e5a4     libucrt:libm_error.obj
 0002:0000b5b4       $unwind$?AddTermFunc@CAtlModule@ATL@@QEAAJP6AX_K@Z0@Z 000000018002e5b4     IndividualRecognition.obj
 0002:0000b5b4       $unwind$?AtlComModuleRegisterServer@ATL@@YAJPEAU_ATL_COM_MODULE70@1@HPEBU_GUID@@@Z 000000018002e5b4     IndividualRecognition.obj
 0002:0000b5b4       $unwind$?AtlComModuleUnregisterServer@ATL@@YAJPEAU_ATL_COM_MODULE70@1@HPEBU_GUID@@@Z 000000018002e5b4     IndividualRecognition.obj
 0002:0000b5b4       $unwind$?CreateInstance@?$CComCreator@V?$CComAggObject@VCOPOSIndividualRecognition@@@ATL@@@ATL@@SAJPEAXAEBU_GUID@@PEAPEAX@Z 000000018002e5b4     IndividualRecognition.obj
 0002:0000b5b4       $unwind$?CreateInstance@?$CComCreator@V?$CComObjectCached@VCComClassFactory@ATL@@@ATL@@@ATL@@SAJPEAXAEBU_GUID@@PEAPEAX@Z 000000018002e5b4     IndividualRecognition.obj
 0002:0000b5b4       $unwind$?GetPagesHelper@?$ISpecifyPropertyPagesImpl@VCOPOSIndividualRecognition@@@ATL@@IEAAJPEAUtagCAUUID@@PEBUATL_PROPMAP_ENTRY@2@@Z 000000018002e5b4     IndividualRecognition.obj
 0002:0000b5b4       $unwind$??_Estringdispid@CComTypeInfoHolder@ATL@@QEAAPEAXI@Z 000000018002e5b4     OposVariant.obj
 0002:0000b5b4       $unwind$__GSHandlerCheck_SEH 000000018002e5b4     LIBCMT:gshandlerseh.obj
 0002:0000b5b4       $unwind$??$TypeMatchHelper@V__FrameHandler3@@@@YAHPEBU_s_HandlerType@@PEBU_s_CatchableType@@PEBU_s_ThrowInfo@@@Z 000000018002e5b4     libvcruntime:frame.obj
 0002:0000b5b4       $unwind$??$TypeMatchHelper@V__FrameHandler4@@@@YAHPEAUHandlerType4@FH4@@PEBU_s_CatchableType@@PEBU_s_ThrowInfo@@@Z 000000018002e5b4     libvcruntime:frame.obj
 0002:0000b5b4       $unwind$?initialize_stdio_handles_nolock@@YAXXZ 000000018002e5b4     libucrt:ioinit.obj
 0002:0000b5b4       $unwind$__acrt_initialize_stdio 000000018002e5b4     libucrt:_file.obj
 0002:0000b5b4       $unwind$?process@?$output_processor@_WV?$string_output_adapter@_W@__crt_stdio_output@@V?$format_validation_base@_WV?$string_output_adapter@_W@__crt_stdio_output@@@2@@__crt_stdio_output@@QEAAHXZ 000000018002e5b4     libucrt:output.obj
 0002:0000b5b4       $unwind$?type_case_integer@?$output_processor@_WV?$string_output_adapter@_W@__crt_stdio_output@@V?$format_validation_base@_WV?$string_output_adapter@_W@__crt_stdio_output@@@2@@__crt_stdio_output@@AEAA_NI_N@Z 000000018002e5b4     libucrt:output.obj
 0002:0000b5cc       $unwind$??0?$CComContainedObject@VCOPOSIndividualRecognition@@@ATL@@QEAA@PEAX@Z 000000018002e5cc     IndividualRecognition.obj
 0002:0000b5cc       $unwind$??1?$CComEnumImpl@UIEnumConnectionPoints@@$1?_GUID_b196b285_bab4_101a_b69c_00aa00341d07@@3U__s_GUID@@BPEAUIConnectionPoint@@V?$_CopyInterface@UIConnectionPoint@@@ATL@@@ATL@@UEAA@XZ 000000018002e5cc     IndividualRecognition.obj
 0002:0000b5cc       $unwind$??1?$CComEnumImpl@UIEnumConnections@@$1?_GUID_b196b287_bab4_101a_b69c_00aa00341d07@@3U__s_GUID@@BUtagCONNECTDATA@@V?$_Copy@UtagCONNECTDATA@@@ATL@@@ATL@@UEAA@XZ 000000018002e5cc     IndividualRecognition.obj
 0002:0000b5cc       $unwind$??_G?$CComAggObject@VCOPOSIndividualRecognition@@@ATL@@UEAAPEAXI@Z 000000018002e5cc     IndividualRecognition.obj
 0002:0000b5cc       $unwind$??_G?$CComContainedObject@VCOPOSIndividualRecognition@@@ATL@@UEAAPEAXI@Z 000000018002e5cc     IndividualRecognition.obj
 0002:0000b5cc       $unwind$??_G?$CComObject@V?$CComEnum@UIEnumConnectionPoints@@$1?_GUID_b196b285_bab4_101a_b69c_00aa00341d07@@3U__s_GUID@@BPEAUIConnectionPoint@@V?$_CopyInterface@UIConnectionPoint@@@ATL@@VCComSingleThreadModel@6@@ATL@@@ATL@@UEAAPEAXI@Z 000000018002e5cc     IndividualRecognition.obj
 0002:0000b5cc       $unwind$??_G?$CComObject@V?$CComEnum@UIEnumConnections@@$1?_GUID_b196b287_bab4_101a_b69c_00aa00341d07@@3U__s_GUID@@BUtagCONNECTDATA@@V?$_Copy@UtagCONNECTDATA@@@ATL@@VCComSingleThreadModel@6@@ATL@@@ATL@@UEAAPEAXI@Z 000000018002e5cc     IndividualRecognition.obj
 0002:0000b5cc       $unwind$??_G?$CComObject@VCOPOSIndividualRecognition@@@ATL@@UEAAPEAXI@Z 000000018002e5cc     IndividualRecognition.obj
 0002:0000b5cc       $unwind$??_G?$CComObjectCached@VCComClassFactory@ATL@@@ATL@@UEAAPEAXI@Z 000000018002e5cc     IndividualRecognition.obj
 0002:0000b5cc       $unwind$??_GCComClassFactory@ATL@@UEAAPEAXI@Z 000000018002e5cc     IndividualRecognition.obj
 0002:0000b5cc       $unwind$??_GCComModule@ATL@@UEAAPEAXI@Z 000000018002e5cc     IndividualRecognition.obj
 0002:0000b5cc       $unwind$?DeleteSubKey@CRegKey@ATL@@QEAAJPEB_W@Z 000000018002e5cc     IndividualRecognition.obj
 0002:0000b5cc       $unwind$?IOleObject_SetClientSite@CComControlBase@ATL@@QEAAJPEAUIOleClientSite@@@Z 000000018002e5cc     IndividualRecognition.obj
 0002:0000b5cc       $unwind$?InitNew@?$IPersistStorageImpl@VCOPOSIndividualRecognition@@@ATL@@UEAAJPEAUIStorage@@@Z 000000018002e5cc     IndividualRecognition.obj
 0002:0000b5cc       $unwind$?IsDirty@?$IPersistStorageImpl@VCOPOSIndividualRecognition@@@ATL@@UEAAJXZ 000000018002e5cc     IndividualRecognition.obj
 0002:0000b5cc       $unwind$?Release@?$CComAggObject@VCOPOSIndividualRecognition@@@ATL@@UEAAKXZ 000000018002e5cc     IndividualRecognition.obj
 0002:0000b5cc       $unwind$?Release@?$CComObject@V?$CComEnum@UIEnumConnectionPoints@@$1?_GUID_b196b285_bab4_101a_b69c_00aa00341d07@@3U__s_GUID@@BPEAUIConnectionPoint@@V?$_CopyInterface@UIConnectionPoint@@@ATL@@VCComSingleThreadModel@6@@ATL@@@ATL@@UEAAKXZ 000000018002e5cc     IndividualRecognition.obj
 0002:0000b5cc       $unwind$?Release@?$CComObject@V?$CComEnum@UIEnumConnections@@$1?_GUID_b196b287_bab4_101a_b69c_00aa00341d07@@3U__s_GUID@@BUtagCONNECTDATA@@V?$_Copy@UtagCONNECTDATA@@@ATL@@VCComSingleThreadModel@6@@ATL@@@ATL@@UEAAKXZ 000000018002e5cc     IndividualRecognition.obj
 0002:0000b5cc       $unwind$?Release@?$CComObject@VCOPOSIndividualRecognition@@@ATL@@UEAAKXZ 000000018002e5cc     IndividualRecognition.obj
 0002:0000b5cc       $unwind$?SOData@COPOSIndividualRecognition@@MEAAJJ@Z 000000018002e5cc     IndividualRecognition.obj
 0002:0000b5cc       $unwind$?SOStatusUpdate@COPOSIndividualRecognition@@MEAAJJ@Z 000000018002e5cc     IndividualRecognition.obj
 0002:0000b5cc       $unwind$?SetAdvise@?$IViewObjectExImpl@VCOPOSIndividualRecognition@@@ATL@@UEAAJKKPEAUIAdviseSink@@@Z 000000018002e5cc     IndividualRecognition.obj
 0002:0000b5cc       $unwind$?Term@CComModule@ATL@@QEAAXXZ 000000018002e5cc     IndividualRecognition.obj
 0002:0000b5cc       $unwind$DllMain            000000018002e5cc     IndividualRecognition.obj
 0002:0000b5cc       $unwind$??1?$IConnectionPointImpl@VCOPOSIndividualRecognition@@$1?DIID__IOPOSIndividualRecognitionEvents@@3U_GUID@@BVCComDynamicUnkArray@ATL@@@ATL@@QEAA@XZ 000000018002e5cc     IndividualRecognitionImpl.obj
 0002:0000b5cc       $unwind$??1?$IConnectionPointImpl@VCOPOSIndividualRecognition@@$1?IID_IPropertyNotifySink@@3U_GUID@@BVCComDynamicUnkArray@ATL@@@ATL@@QEAA@XZ 000000018002e5cc     IndividualRecognitionImpl.obj
 0002:0000b5cc       $unwind$?SetBSTR@OposVariant@@QEAAXPEA_WAEAJ@Z 000000018002e5cc     OposVariant.obj
 0002:0000b5cc       $unwind$?SetLONG@OposVariant@@QEAAXJ@Z 000000018002e5cc     OposVariant.obj
 0002:0000b5cc       $unwind$?SetVARIANT_BOOL@OposVariant@@QEAAXF@Z 000000018002e5cc     OposVariant.obj
 0002:0000b5cc       $unwind$??0CAtlBaseModule@ATL@@QEAA@XZ 000000018002e5cc     atls:atlbase.obj
 0002:0000b5cc       $unwind$??$GetProcAddressAll@P6AP6A_JPEAUHWND__@@I_K_J@ZPEAUAtlThunkData_t@@@Z@@YAP6AP6A_JPEAUHWND__@@I_K_J@ZPEAUAtlThunkData_t@@@ZPEAP6AP6A_J0I12@Z3@Z@Z 000000018002e5cc     atls:atlthunk.obj
 0002:0000b5cc       $unwind$??$GetProcAddressAll@P6APEAUAtlThunkData_t@@XZ@@YAP6APEAUAtlThunkData_t@@XZPEAP6APEAU0@XZ@Z 000000018002e5cc     atls:atlthunk.obj
 0002:0000b5cc       $unwind$??$GetProcAddressAll@P6AXPEAUAtlThunkData_t@@@Z@@YAP6AXPEAUAtlThunkData_t@@@ZPEAP6AX0@Z@Z 000000018002e5cc     atls:atlthunk.obj
 0002:0000b5cc       $unwind$??$GetProcAddressAll@P6AXPEAUAtlThunkData_t@@PEAX_K@Z@@YAP6AXPEAUAtlThunkData_t@@PEAX_K@ZPEAP6AX012@Z@Z 000000018002e5cc     atls:atlthunk.obj
 0002:0000b5cc       $unwind$?__AllocStdCallThunk_cmn@@YAPEAXXZ 000000018002e5cc     atls:atlthunk.obj
 0002:0000b5cc       $unwind$?__InitializeThunkPool@@YAHXZ 000000018002e5cc     atls:atlthunk.obj
 0002:0000b5cc       $unwind$AtlThunk_DataToCode 000000018002e5cc     atls:atlthunk.obj
 0002:0000b5cc       $unwind$_RTC_Initialize    000000018002e5cc     LIBCMT:initsect.obj
 0002:0000b5cc       $unwind$_RTC_Terminate     000000018002e5cc     LIBCMT:initsect.obj
 0002:0000b5cc       $unwind$?__scrt_initialize_thread_safe_statics@@YAHXZ 000000018002e5cc     LIBCMT:thread_safe_statics.obj
 0002:0000b5cc       $unwind$??_Gbad_alloc@std@@UEAAPEAXI@Z 000000018002e5cc     LIBCMT:throw_bad_alloc.obj
 0002:0000b5cc       $unwind$??_Gbad_array_new_length@std@@UEAAPEAXI@Z 000000018002e5cc     LIBCMT:throw_bad_alloc.obj
 0002:0000b5cc       $unwind$??_Gexception@std@@UEAAPEAXI@Z 000000018002e5cc     LIBCMT:throw_bad_alloc.obj
 0002:0000b5cc       $unwind$__FrameUnwindFilter 000000018002e5cc     libvcruntime:ehhelpers.obj
 0002:0000b5cc       $unwind$??_Gbad_exception@std@@UEAAPEAXI@Z 000000018002e5cc     libvcruntime:frame.obj
 0002:0000b5cc       $unwind$?ExFilterRethrowFH4@@YAHPEAU_EXCEPTION_POINTERS@@PEAUEHExceptionRecord@@HPEAH@Z 000000018002e5cc     libvcruntime:frame.obj
 0002:0000b5cc       $unwind$_FindAndUnlinkFrame 000000018002e5cc     libvcruntime:risctrnsctrl.obj
 0002:0000b5cc       $unwind$__vcrt_FlsSetValue 000000018002e5cc     libvcruntime:winapi_downlevel.obj
 0002:0000b5cc       $unwind$??$common_initialize_environment_nolock@D@@YAHXZ 000000018002e5cc     libucrt:environment_initialization.obj
 0002:0000b5cc       $unwind$_realloc_base      000000018002e5cc     libucrt:realloc_base.obj
 0002:0000b5cc       $unwind$?replace_current_thread_locale_nolock@@YAXQEAU__acrt_ptd@@QEAU__crt_locale_data@@@Z 000000018002e5cc     libucrt:per_thread_data.obj
 0002:0000b5cc       $unwind$__acrt_execute_uninitializers 000000018002e5cc     libucrt:shared_initialization.obj
 0002:0000b5cc       $unwind$__acrt_FlsSetValue 000000018002e5cc     libucrt:winapi_thunks.obj
 0002:0000b5cc       $unwind$__acrt_LocaleNameToLCID 000000018002e5cc     libucrt:winapi_thunks.obj
 0002:0000b5cc       $unwind$_updatetlocinfoEx_nolock 000000018002e5cc     libucrt:locale_refcounting.obj
 0002:0000b5cc       $unwind$_close_nolock      000000018002e5cc     libucrt:close.obj
 0002:0000b5cc       $unwind$__acrt_uninitialize_lowio 000000018002e5cc     libucrt:ioinit.obj
 0002:0000b5cc       $unwind$__acrt_errno_map_os_error 000000018002e5cc     libucrt:errno.obj
 0002:0000b5cc       $unwind$_initterm_e        000000018002e5cc     libucrt:initterm.obj
 0002:0000b5cc       $unwind$_fclose_nolock     000000018002e5cc     libucrt:fclose.obj
 0002:0000b5cc       $unwind$?type_case_n@?$output_processor@_WV?$string_output_adapter@_W@__crt_stdio_output@@V?$format_validation_base@_WV?$string_output_adapter@_W@__crt_stdio_output@@@2@@__crt_stdio_output@@AEAA_NXZ 000000018002e5cc     libucrt:output.obj
 0002:0000b5cc       $unwind$strncpy_s          000000018002e5cc     libucrt:strncpy_s.obj
 0002:0000b5cc       $unwind$wcsncpy_s          000000018002e5cc     libucrt:wcsncpy_s.obj
 0002:0000b5d8       $unwind$?ChangeBSTR@OposVariant@@QEAAXPEAPEA_WAEAJ@Z 000000018002e5d8     OposVariant.obj
 0002:0000b5d8       $unwind$?ChangeLONG@OposVariant@@QEAAXPEAJAEAJ@Z 000000018002e5d8     OposVariant.obj
 0002:0000b5d8       $unwind$?x_ismbbtype_l@@YAHPEAU__crt_locale_pointers@@IHH@Z 000000018002e5d8     libucrt:ismbbyte.obj
 0002:0000b5e8       $unwind$swprintf_s         000000018002e5e8     IndividualRecognition.obj
 0002:0000b5f8       $unwind$?_AtlVerifyStackAvailable@_ATL_SAFE_ALLOCA_IMPL@ATL@@YA_N_K@Z 000000018002e5f8     IndividualRecognition.obj
 0002:0000b624       $unwind$?filt$0@?0??_AtlVerifyStackAvailable@_ATL_SAFE_ALLOCA_IMPL@ATL@@YA_N_K@Z@4HA 000000018002e624     IndividualRecognition.obj
 0002:0000b624       $unwind$?fin$0@?0??dllmain_crt_process_attach@@YAHQEAUHINSTANCE__@@QEAX@Z@4HA 000000018002e624     LIBCMT:dll_dllmain.obj
 0002:0000b624       $unwind$?fin$0@?0??dllmain_crt_process_detach@@YAH_N@Z@4HA 000000018002e624     LIBCMT:dll_dllmain.obj
 0002:0000b624       $unwind$?fin$1@?0??dllmain_crt_process_detach@@YAH_N@Z@4HA 000000018002e624     LIBCMT:dll_dllmain.obj
 0002:0000b624       $unwind$_IsNonwritableInCurrentImage$filt$0 000000018002e624     LIBCMT:pesect.obj
 0002:0000b624       $unwind$?filt$0@?0??CxxCallCatchBlock@__FrameHandler4@@SAPEAXPEAU_EXCEPTION_RECORD@@@Z@4HA 000000018002e624     libvcruntime:frame.obj
 0002:0000b624       $unwind$_query_new_handler$fin$0 000000018002e624     libucrt:new_handler.obj
 0002:0000b624       $unwind$?fin$0@?0???$?RV<lambda_0ae27a3a962d80f24befdcbee591983d>@@AEAV<lambda_8d0ee55de4b1038c4002e0adecdf1839>@@V<lambda_dc504788e8f1664fe9b84e20bfb512f2>@@@?$__crt_seh_guarded_call@X@@QEAAX$$QEAV<lambda_0ae27a3a962d80f24befdcbee591983d>@@AEAV<lambda_8d0ee55de4b1038c4002e0adecdf1839>@@$$QEAV<lambda_dc504788e8f1664fe9b84e20bfb512f2>@@@Z@4HA 000000018002e624     libucrt:per_thread_data.obj
 0002:0000b624       $unwind$?fin$0@?0???$?RV<lambda_2d41944a1d46af3157314b8a01080d33>@@AEAV<lambda_8f455de75cd7d7f24b4096f044d8b9e6>@@V<lambda_aa500f224e6afead328df44964fe2772>@@@?$__crt_seh_guarded_call@X@@QEAAX$$QEAV<lambda_2d41944a1d46af3157314b8a01080d33>@@AEAV<lambda_8f455de75cd7d7f24b4096f044d8b9e6>@@$$QEAV<lambda_aa500f224e6afead328df44964fe2772>@@@Z@4HA 000000018002e624     libucrt:per_thread_data.obj
 0002:0000b624       $unwind$?fin$0@?0???$?RV<lambda_aa87e3671a710a21b5dc78c0bdf72e11>@@AEAV<lambda_92619d2358a28f41a33ba319515a20b9>@@V<lambda_6992ecaafeb10aed2b74cb1fae11a551>@@@?$__crt_seh_guarded_call@X@@QEAAX$$QEAV<lambda_aa87e3671a710a21b5dc78c0bdf72e11>@@AEAV<lambda_92619d2358a28f41a33ba319515a20b9>@@$$QEAV<lambda_6992ecaafeb10aed2b74cb1fae11a551>@@@Z@4HA 000000018002e624     libucrt:per_thread_data.obj
 0002:0000b624       $unwind$?fin$0@?0???$?RV<lambda_f2e299630e499de9f9a165e60fcd3db5>@@AEAV<lambda_2ae9d31cdba2644fcbeaf08da7c24588>@@V<lambda_40d01ff24d0e7b3814fdbdcee8eab3c7>@@@?$__crt_seh_guarded_call@X@@QEAAX$$QEAV<lambda_f2e299630e499de9f9a165e60fcd3db5>@@AEAV<lambda_2ae9d31cdba2644fcbeaf08da7c24588>@@$$QEAV<lambda_40d01ff24d0e7b3814fdbdcee8eab3c7>@@@Z@4HA 000000018002e624     libucrt:per_thread_data.obj
 0002:0000b624       $unwind$__acrt_update_thread_locale_data$fin$0 000000018002e624     libucrt:locale_refcounting.obj
 0002:0000b624       $unwind$?fin$0@?0???$?RV<lambda_410d79af7f07d98d83a3f525b3859a53>@@AEAV<lambda_3e16ef9562a7dcce91392c22ab16ea36>@@V<lambda_38119f0e861e05405d8a144b9b982f0a>@@@?$__crt_seh_guarded_call@X@@QEAAX$$QEAV<lambda_410d79af7f07d98d83a3f525b3859a53>@@AEAV<lambda_3e16ef9562a7dcce91392c22ab16ea36>@@$$QEAV<lambda_38119f0e861e05405d8a144b9b982f0a>@@@Z@4HA 000000018002e624     libucrt:wsetlocale.obj
 0002:0000b624       $unwind$?fin$0@?0???$?RV<lambda_751a882b2c74d4b022dec766aa51a29a>@@AEAV<lambda_628dfdc04ba53c8bfc02c9951375f3f5>@@V<lambda_f6c7be5f7998530c34de24c7437d6b54>@@@?$__crt_seh_guarded_call@H@@QEAAH$$QEAV<lambda_751a882b2c74d4b022dec766aa51a29a>@@AEAV<lambda_628dfdc04ba53c8bfc02c9951375f3f5>@@$$QEAV<lambda_f6c7be5f7998530c34de24c7437d6b54>@@@Z@4HA 000000018002e624     libucrt:close.obj
 0002:0000b624       $unwind$?fin$0@?0???$?RV<lambda_a37b2b86f63e897a80ea819b0eb08c01>@@AEAV<lambda_38ce7e780aa69e748d6df282ebc68efe>@@V<lambda_99fb1378e971ab6e7edea83e3a7a83a2>@@@?$__crt_seh_guarded_call@H@@QEAAH$$QEAV<lambda_a37b2b86f63e897a80ea819b0eb08c01>@@AEAV<lambda_38ce7e780aa69e748d6df282ebc68efe>@@$$QEAV<lambda_99fb1378e971ab6e7edea83e3a7a83a2>@@@Z@4HA 000000018002e624     libucrt:commit.obj
 0002:0000b624       $unwind$__acrt_initialize_lowio$fin$0 000000018002e624     libucrt:ioinit.obj
 0002:0000b624       $unwind$__acrt_lowio_ensure_fh_exists$fin$0 000000018002e624     libucrt:osfinfo.obj
 0002:0000b624       $unwind$_write$fin$0       000000018002e624     libucrt:write.obj
 0002:0000b624       $unwind$?fin$0@?0???$?RV<lambda_efdfa57d1f175319df784efa44bb7b81>@@AEAV<lambda_5f0a4c1567f8adc6734073e5d1e1b35c>@@V<lambda_2e8a7d3640ea6ccb4c2413664c2db6fd>@@@?$__crt_seh_guarded_call@X@@QEAAX$$QEAV<lambda_efdfa57d1f175319df784efa44bb7b81>@@AEAV<lambda_5f0a4c1567f8adc6734073e5d1e1b35c>@@$$QEAV<lambda_2e8a7d3640ea6ccb4c2413664c2db6fd>@@@Z@4HA 000000018002e624     libucrt:mbctype.obj
 0002:0000b624       $unwind$?fin$0@?0??update_thread_multibyte_data_internal@@YAPEAU__crt_multibyte_data@@QEAU__acrt_ptd@@QEAPEAU1@@Z@4HA 000000018002e624     libucrt:mbctype.obj
 0002:0000b624       $unwind$?fin$0@?0???$?RV<lambda_450d765d439847d4c735a33c368b5fc0>@@AEAV<lambda_44731a7d0e6d81c3e6aa82d741081786>@@V<lambda_601a2a7da3b7a96e9554ac7215c4b07c>@@@?$__crt_seh_guarded_call@P6AXH@Z@@QEAAP6AXH@Z$$QEAV<lambda_450d765d439847d4c735a33c368b5fc0>@@AEAV<lambda_44731a7d0e6d81c3e6aa82d741081786>@@$$QEAV<lambda_601a2a7da3b7a96e9554ac7215c4b07c>@@@Z@4HA 000000018002e624     libucrt:signal.obj
 0002:0000b624       $unwind$raise$fin$0        000000018002e624     libucrt:signal.obj
 0002:0000b624       $unwind$?filt$0@?0???R<lambda_6e4b09c48022b2350581041d5f6b0c4c>@@QEBA@XZ@4HA 000000018002e624     libucrt:exit.obj
 0002:0000b624       $unwind$?fin$0@?0???$?RV<lambda_d80eeec6fff315bfe5c115232f3240e3>@@AEAV<lambda_6e4b09c48022b2350581041d5f6b0c4c>@@V<lambda_2358e3775559c9db80273638284d5e45>@@@?$__crt_seh_guarded_call@X@@QEAAX$$QEAV<lambda_d80eeec6fff315bfe5c115232f3240e3>@@AEAV<lambda_6e4b09c48022b2350581041d5f6b0c4c>@@$$QEAV<lambda_2358e3775559c9db80273638284d5e45>@@@Z@4HA 000000018002e624     libucrt:exit.obj
 0002:0000b624       $unwind$?fin$0@?0???$?RV<lambda_638799b9deba96c50f710eeac98168cd>@@AEAV<lambda_22ebabd17bc4fa466a2aca6d8deb888d>@@V<lambda_a6f7d7db0129f75315ebf26d50c089f1>@@@?$__crt_seh_guarded_call@H@@QEAAH$$QEAV<lambda_638799b9deba96c50f710eeac98168cd>@@AEAV<lambda_22ebabd17bc4fa466a2aca6d8deb888d>@@$$QEAV<lambda_a6f7d7db0129f75315ebf26d50c089f1>@@@Z@4HA 000000018002e624     libucrt:onexit.obj
 0002:0000b624       $unwind$?fin$0@?0???$?RV<lambda_7777bce6b2f8c936911f934f8298dc43>@@AEAV<lambda_f03950bc5685219e0bcd2087efbe011e>@@V<lambda_3883c3dff614d5e0c5f61bb1ac94921c>@@@?$__crt_seh_guarded_call@H@@QEAAH$$QEAV<lambda_7777bce6b2f8c936911f934f8298dc43>@@AEAV<lambda_f03950bc5685219e0bcd2087efbe011e>@@$$QEAV<lambda_3883c3dff614d5e0c5f61bb1ac94921c>@@@Z@4HA 000000018002e624     libucrt:onexit.obj
 0002:0000b624       $unwind$_fcloseall$fin$0   000000018002e624     libucrt:closeall.obj
 0002:0000b624       $unwind$fclose$fin$0       000000018002e624     libucrt:fclose.obj
 0002:0000b624       $unwind$?fin$0@?0???$?RV<lambda_842d9ff0dc9ef11c61343bbaebe7f885>@@AEAV<lambda_c5860995281e5c4ce005b3de8f5874ee>@@V<lambda_d90129c13df834fdcbf8d2b88dafcf2d>@@@?$__crt_seh_guarded_call@X@@QEAAX$$QEAV<lambda_842d9ff0dc9ef11c61343bbaebe7f885>@@AEAV<lambda_c5860995281e5c4ce005b3de8f5874ee>@@$$QEAV<lambda_d90129c13df834fdcbf8d2b88dafcf2d>@@@Z@4HA 000000018002e624     libucrt:fflush.obj
 0002:0000b624       $unwind$?fin$0@?0???$?RV<lambda_886d6c58226a84441f68b9f2b8217b83>@@AEAV<lambda_ab61a845afdef5b7c387490eaf3616ee>@@V<lambda_f7f22ab5edc0698d5f6905b0d3f44752>@@@?$__crt_seh_guarded_call@X@@QEAAX$$QEAV<lambda_886d6c58226a84441f68b9f2b8217b83>@@AEAV<lambda_ab61a845afdef5b7c387490eaf3616ee>@@$$QEAV<lambda_f7f22ab5edc0698d5f6905b0d3f44752>@@@Z@4HA 000000018002e624     libucrt:fflush.obj
 0002:0000b624       $unwind$_ctrlfp$filt$0     000000018002e624     libucrt:fpctrl.obj
 0002:0000b624       $unwind$common_control87$filt$0 000000018002e624     libucrt:ieee.obj
 0002:0000b62c       $unwind$?AtlInternalOleLoadFromStream@ATL@@YAJPEAUIStream@@AEBU_GUID@@PEAPEAXTClassesAllowedInStream@1@K@Z 000000018002e62c     IndividualRecognition.obj
 0002:0000b648       $unwind$?ReadFromStream@CComBSTR@ATL@@QEAAJPEAUIStream@@@Z 000000018002e648     IndividualRecognition.obj
 0002:0000b648       $unwind$_configure_narrow_argv 000000018002e648     libucrt:argv_parsing.obj
 0002:0000b65c       $unwind$?WriteToStream@CComVariant@ATL@@QEAAJPEAUIStream@@@Z 000000018002e65c     IndividualRecognition.obj
 0002:0000b670       $unwind$?RegOpenKeyExW@CAtlTransactionManager@ATL@@QEAAJPEAUHKEY__@@PEB_WKKPEAPEAU3@@Z 000000018002e670     IndividualRecognition.obj
 0002:0000b670       $unwind$?WriteToStream@CComVariant@ATL@@QEAAJPEAUIStream@@G@Z 000000018002e670     IndividualRecognition.obj
 0002:0000b670       $unwind$__dcrt_write_console 000000018002e670     libucrt:initcon.obj
 0002:0000b670       $unwind$??$__acrt_wcs_to_mbs_cp@U__crt_win32_buffer_no_resizing@@@@YAHQEB_WAEAV?$__crt_win32_buffer@DU__crt_win32_buffer_no_resizing@@@@I@Z 000000018002e670     libucrt:getmodulefilenamea.obj
 0002:0000b684       $unwind$?ReadFromStream@CComVariant@ATL@@QEAAJPEAUIStream@@GTClassesAllowedInStream@2@K@Z 000000018002e684     IndividualRecognition.obj
 0002:0000b69c       $unwind$?GetSizeMax@CComVariant@ATL@@QEBAJPEAT_ULARGE_INTEGER@@@Z 000000018002e69c     IndividualRecognition.obj
 0002:0000b6b4       $unwind$?RegCreateKeyExW@CAtlTransactionManager@ATL@@QEAAJPEAUHKEY__@@PEB_WKPEA_WKKQEAU_SECURITY_ATTRIBUTES@@PEAPEAU3@PEAK@Z 000000018002e6b4     IndividualRecognition.obj
 0002:0000b6c8       $unwind$?GetGITPtr@CAtlModule@ATL@@UEAAJPEAPEAUIGlobalInterfaceTable@@@Z 000000018002e6c8     IndividualRecognition.obj
 0002:0000b6c8       $unwind$?RegDeleteKeyW@CAtlTransactionManager@ATL@@QEAAJPEAUHKEY__@@PEB_W@Z 000000018002e6c8     IndividualRecognition.obj
 0002:0000b6c8       $unwind$?getStateFromIterators@UWMap4@FH4@@SAHAEBViterator@12@H0H0@Z 000000018002e6c8     libvcruntime:frame.obj
 0002:0000b6d8       $unwind$?AtlHiMetricToPixel@ATL@@YAXPEBUtagSIZE@@PEAU2@@Z 000000018002e6d8     IndividualRecognition.obj
 0002:0000b6d8       $unwind$?AtlInternalQueryInterface@ATL@@YAJPEAXPEBU_ATL_INTMAP_ENTRY@1@AEBU_GUID@@PEAPEAX@Z 000000018002e6d8     IndividualRecognition.obj
 0002:0000b6f0       $unwind$?Append@CParseBuffer@CRegParser@ATL@@QEAAHPEB_WH@Z 000000018002e6f0     IndividualRecognition.obj
 0002:0000b6f0       $unwind$?AtlComModuleGetClassObject@ATL@@YAJPEAU_ATL_COM_MODULE70@1@AEBU_GUID@@1PEAPEAX@Z 000000018002e6f0     IndividualRecognition.obj
 0002:0000b6f0       $unwind$?EnumConnections@?$IConnectionPointImpl@VCOPOSIndividualRecognition@@$1?DIID__IOPOSIndividualRecognitionEvents@@3U_GUID@@BVCComDynamicUnkArray@ATL@@@ATL@@UEAAJPEAPEAUIEnumConnections@@@Z 000000018002e6f0     IndividualRecognition.obj
 0002:0000b6f0       $unwind$?EnumConnections@?$IConnectionPointImpl@VCOPOSIndividualRecognition@@$1?IID_IPropertyNotifySink@@3U_GUID@@BVCComDynamicUnkArray@ATL@@@ATL@@UEAAJPEAPEAUIEnumConnections@@@Z 000000018002e6f0     IndividualRecognition.obj
 0002:0000b6f0       $unwind$?GetClassObject@CComModule@ATL@@QEAAJAEBU_GUID@@0PEAPEAX@Z 000000018002e6f0     IndividualRecognition.obj
 0002:0000b6f0       $unwind$?Init@?$CComEnumImpl@UIEnumConnectionPoints@@$1?_GUID_b196b285_bab4_101a_b69c_00aa00341d07@@3U__s_GUID@@BPEAUIConnectionPoint@@V?$_CopyInterface@UIConnectionPoint@@@ATL@@@ATL@@QEAAJPEAPEAUIConnectionPoint@@0PEAUIUnknown@@W4CComEnumFlags@2@@Z 000000018002e6f0     IndividualRecognition.obj
 0002:0000b6f0       $unwind$?Init@?$CComEnumImpl@UIEnumConnections@@$1?_GUID_b196b287_bab4_101a_b69c_00aa00341d07@@3U__s_GUID@@BUtagCONNECTDATA@@V?$_Copy@UtagCONNECTDATA@@@ATL@@@ATL@@QEAAJPEAUtagCONNECTDATA@@0PEAUIUnknown@@W4CComEnumFlags@2@@Z 000000018002e6f0     IndividualRecognition.obj
 0002:0000b6f0       $unwind$?NextToken@CRegParser@ATL@@IEAAJPEA_W@Z 000000018002e6f0     IndividualRecognition.obj
 0002:0000b6f0       $unwind$__acrt_fp_strflt_to_string 000000018002e6f0     libucrt:_fptostr.obj
 0002:0000b6f0       $unwind$__acrt_DownlevelLocaleNameToLCID 000000018002e6f0     libucrt:lcidtoname_downlevel.obj
 0002:0000b6f0       $unwind$??R<lambda_f03950bc5685219e0bcd2087efbe011e>@@QEBAHXZ 000000018002e6f0     libucrt:onexit.obj
 0002:0000b708       $unwind$?AtlRegisterClassCategoriesHelper@ATL@@YAJAEBU_GUID@@PEBU_ATL_CATMAP_ENTRY@1@H@Z 000000018002e708     IndividualRecognition.obj
 0002:0000b72c       $unwind$?AtlLoadTypeLib@ATL@@YAJPEAUHINSTANCE__@@PEB_WPEAPEA_WPEAPEAUITypeLib@@@Z 000000018002e72c     IndividualRecognition.obj
 0002:0000b74c       $unwind$?AtlRegisterTypeLib@ATL@@YAJPEAUHINSTANCE__@@PEB_W@Z 000000018002e74c     IndividualRecognition.obj
 0002:0000b768       $unwind$?AtlUnRegisterTypeLib@ATL@@YAJPEAUHINSTANCE__@@PEB_W@Z 000000018002e768     IndividualRecognition.obj
 0002:0000b770       $unwind$?GetTI@CComTypeInfoHolder@ATL@@QEAAJK@Z 000000018002e770     IndividualRecognition.obj
 0002:0000b770       $unwind$?RecurseDeleteKey@CRegKey@ATL@@QEAAJPEB_W@Z 000000018002e770     IndividualRecognition.obj
 0002:0000b790       $unwind$?UpdateRegistryFromResource@CAtlModule@ATL@@QEAAJIHPEAU_ATL_REGMAP_ENTRY@2@@Z 000000018002e790     IndividualRecognition.obj
 0002:0000b790       $unwind$?UpdateRegistryFromResource@CAtlModule@ATL@@QEAAJPEB_WHPEAU_ATL_REGMAP_ENTRY@2@@Z 000000018002e790     IndividualRecognition.obj
 0002:0000b7b0       $unwind$?Lookup@?$CSimpleMap@PEA_WPEA_WVCExpansionVectorEqualHelper@ATL@@@ATL@@QEBAPEA_WAEBQEA_W@Z 000000018002e7b0     IndividualRecognition.obj
 0002:0000b7b0       $unwind$__std_exception_copy 000000018002e7b0     libvcruntime:std_exception.obj
 0002:0000b7b0       $unwind$_free_osfhnd       000000018002e7b0     libucrt:osfinfo.obj
 0002:0000b7c4       $unwind$?Add@CExpansionVector@ATL@@QEAAHPEB_W0@Z 000000018002e7c4     IndividualRecognition.obj
 0002:0000b7dc       $unwind$?PreProcessBuffer@CRegParser@ATL@@QEAAJPEA_WPEAPEA_W@Z 000000018002e7dc     IndividualRecognition.obj
 0002:0000b800       $unwind$?RegisterBuffer@CRegParser@ATL@@QEAAJPEA_WH@Z 000000018002e800     IndividualRecognition.obj
 0002:0000b820       $unwind$?AddValue@CRegParser@ATL@@IEAAJAEAVCRegKey@2@PEB_WPEA_W@Z 000000018002e820     IndividualRecognition.obj
 0002:0000b840       $unwind$?RegisterSubkeys@CRegParser@ATL@@IEAAJPEA_WPEAUHKEY__@@HH@Z 000000018002e840     IndividualRecognition.obj
 0002:0000b860       $unwind$?SkipAssignment@CRegParser@ATL@@IEAAJPEA_W@Z 000000018002e860     IndividualRecognition.obj
 0002:0000b878       $unwind$?RegisterFromResource@CRegObject@ATL@@IEAAJPEB_W00H@Z 000000018002e878     IndividualRecognition.obj
 0002:0000b898       $unwind$?Cleanup@CComTypeInfoHolder@ATL@@SAX_K@Z 000000018002e898     IndividualRecognition.obj
 0002:0000b898       $unwind$AtlThunk_FreeData  000000018002e898     atls:atlthunk.obj
 0002:0000b898       $unwind$_free_base         000000018002e898     libucrt:free_base.obj
 0002:0000b898       $unwind$?destroy_fls@@YAXPEAX@Z 000000018002e898     libucrt:per_thread_data.obj
 0002:0000b898       $unwind$__acrt_locale_free_numeric 000000018002e898     libucrt:initnum.obj
 0002:0000b898       $unwind$__acrt_locale_free_lc_time_if_unreferenced 000000018002e898     libucrt:locale_refcounting.obj
 0002:0000b8a0       $unwind$?GetIDsOfNames@CComTypeInfoHolder@ATL@@QEAAJAEBU_GUID@@PEAPEA_WIKPEAJ@Z 000000018002e8a0     IndividualRecognition.obj
 0002:0000b8bc       $unwind$?LoadNameCache@CComTypeInfoHolder@ATL@@QEAAJPEAUITypeInfo@@@Z 000000018002e8bc     IndividualRecognition.obj
 0002:0000b8d0       $unwind$?StartWindowProc@?$CWindowImplBaseT@VCWindow@ATL@@V?$CWinTraits@$0FGAAAAAA@$0A@@2@@ATL@@SA_JPEAUHWND__@@I_K_J@Z 000000018002e8d0     IndividualRecognition.obj
 0002:0000b8d0       $unwind$?should_round_up@@YA_NQEBN_KFW4__acrt_rounding_mode@@@Z 000000018002e8d0     libucrt:cvt.obj
 0002:0000b8d0       $unwind$??$parse_command_line@D@@YAXPEADPEAPEAD0PEA_K2@Z 000000018002e8d0     libucrt:argv_parsing.obj
 0002:0000b8ec       $unwind$?WindowProc@?$CWindowImplBaseT@VCWindow@ATL@@V?$CWinTraits@$0FGAAAAAA@$0A@@2@@ATL@@SA_JPEAUHWND__@@I_K_J@Z 000000018002e8ec     IndividualRecognition.obj
 0002:0000b904       $unwind$?atlCreate@?$CWindowImplBaseT@VCWindow@ATL@@V?$CWinTraits@$0FGAAAAAA@$0A@@2@@ATL@@QEAAPEAUHWND__@@PEAU3@V_U_RECT@2@PEB_WKKV_U_MENUorID@2@GPEAX@Z 000000018002e904     IndividualRecognition.obj
 0002:0000b91c       $unwind$??$AtlModuleRegisterWndClassInfoT@VAtlModuleRegisterWndClassInfoParamW@ATL@@@ATL@@YAGPEAU_ATL_BASE_MODULE70@0@PEAU_ATL_WIN_MODULE70@0@PEAU_ATL_WNDCLASSINFOW@0@PEAP6A_JPEAUHWND__@@I_K_J@ZVAtlModuleRegisterWndClassInfoParamW@0@@Z 000000018002e91c     IndividualRecognition.obj
 0002:0000b93c       $unwind$?GetZoomInfo@CComControlBase@ATL@@QEAAXAEAUATL_DRAWINFO@@@Z 000000018002e93c     IndividualRecognition.obj
 0002:0000b93c       $unwind$?OnKillFocus@CComControlBase@ATL@@QEAA_JI_K_JAEAH@Z 000000018002e93c     IndividualRecognition.obj
 0002:0000b93c       $unwind$iswctype           000000018002e93c     libucrt:iswctype.obj
 0002:0000b948       $unwind$?SendOnDataChange@CComControlBase@ATL@@QEAAJK@Z 000000018002e948     IndividualRecognition.obj
 0002:0000b958       $unwind$?OnSetFocus@CComControlBase@ATL@@QEAA_JI_K_JAEAH@Z 000000018002e958     IndividualRecognition.obj
 0002:0000b968       $unwind$?OnMouseActivate@CComControlBase@ATL@@QEAA_JI_K_JAEAH@Z 000000018002e968     IndividualRecognition.obj
 0002:0000b970       $unwind$?GetAmbientLocaleID@CComControlBase@ATL@@QEAAJAEAK@Z 000000018002e970     IndividualRecognition.obj
 0002:0000b970       $unwind$?GetAmbientUserMode@CComControlBase@ATL@@QEAAJAEAH@Z 000000018002e970     IndividualRecognition.obj
 0002:0000b980       $unwind$?IQuickActivate_QuickActivate@CComControlBase@ATL@@QEAAJPEAUtagQACONTAINER@@PEAUtagQACONTROL@@@Z 000000018002e980     IndividualRecognition.obj
 0002:0000b998       $unwind$?DoVerbProperties@CComControlBase@ATL@@QEAAJPEBUtagRECT@@PEAUHWND__@@@Z 000000018002e998     IndividualRecognition.obj
 0002:0000b9b0       $unwind$?InPlaceActivate@CComControlBase@ATL@@QEAAJJPEBUtagRECT@@@Z 000000018002e9b0     IndividualRecognition.obj
 0002:0000b9d0       $unwind$?IOleObject_Close@CComControlBase@ATL@@QEAAJK@Z 000000018002e9d0     IndividualRecognition.obj
 0002:0000b9d0       $unwind$?type_case_c_tchar@?$output_processor@_WV?$string_output_adapter@_W@__crt_stdio_output@@V?$format_validation_base@_WV?$string_output_adapter@_W@__crt_stdio_output@@@2@@__crt_stdio_output@@AEAA_N_W@Z 000000018002e9d0     libucrt:output.obj
 0002:0000b9e0       $unwind$?IOleInPlaceObject_UIDeactivate@CComControlBase@ATL@@QEAAJXZ 000000018002e9e0     IndividualRecognition.obj
 0002:0000b9f8       $unwind$?IOleInPlaceObject_SetObjectRects@CComControlBase@ATL@@QEAAJPEBUtagRECT@@0@Z 000000018002e9f8     IndividualRecognition.obj
 0002:0000ba0c       $unwind$?IViewObject_Draw@CComControlBase@ATL@@QEAAJKJPEAXPEAUtagDVTARGETDEVICE@@PEAUHDC__@@2PEBU_RECTL@@3@Z 000000018002ea0c     IndividualRecognition.obj
 0002:0000ba28       $unwind$?IDataObject_GetData@CComControlBase@ATL@@QEAAJPEAUtagFORMATETC@@PEAUtagSTGMEDIUM@@@Z 000000018002ea28     IndividualRecognition.obj
 0002:0000ba48       $unwind$?OnPaint@CComControlBase@ATL@@QEAA_JI_K_JAEAH@Z 000000018002ea48     IndividualRecognition.obj
 0002:0000ba64       $unwind$?OnDrawAdvanced@CComControlBase@ATL@@UEAAJAEAUATL_DRAWINFO@@@Z 000000018002ea64     IndividualRecognition.obj
 0002:0000ba80       $unwind$?Invoke@?$IDispatchImpl@UIOPOSIndividualRecognition@@$1?IID_IOPOSIndividualRecognition@@3U_GUID@@B$1?LIBID_OposIndividualRecognition_CCO@@3U3@B$00$0A@VCComTypeInfoHolder@ATL@@@ATL@@UEAAJJAEBU_GUID@@KGPEAUtagDISPPARAMS@@PEAUtagVARIANT@@PEAUtagEXCEPINFO@@PEAI@Z 000000018002ea80     IndividualRecognition.obj
 0002:0000ba80       $unwind$?ReleaseDevice@COPOSIndividualRecognition@@UEAAJPEAJ@Z 000000018002ea80     IndividualRecognitionImpl.obj
 0002:0000ba80       $unwind$_mbsdec_l          000000018002ea80     libucrt:mbsdec.obj
 0002:0000ba8c       $unwind$?atlCreate@?$CWindowImpl@VCOPOSIndividualRecognition@@VCWindow@ATL@@V?$CWinTraits@$0FGAAAAAA@$0A@@3@@ATL@@QEAAPEAUHWND__@@PEAU3@V_U_RECT@2@PEB_WKKV_U_MENUorID@2@PEAX@Z 000000018002ea8c     IndividualRecognition.obj
 0002:0000ba8c       $unwind$?fp_format_e@@YAHQEBNQEAD_K12H_NIQEAU__crt_locale_pointers@@W4__acrt_rounding_mode@@@Z 000000018002ea8c     libucrt:cvt.obj
 0002:0000ba8c       $unwind$_mbtowc_l          000000018002ea8c     libucrt:mbtowc.obj
 0002:0000ba8c       $unwind$__acrt_LCMapStringEx 000000018002ea8c     libucrt:winapi_thunks.obj
 0002:0000baa0       $unwind$?CreateControlWindow@?$CComControl@VCOPOSIndividualRecognition@@V?$CWindowImpl@VCOPOSIndividualRecognition@@VCWindow@ATL@@V?$CWinTraits@$0FGAAAAAA@$0A@@3@@ATL@@@ATL@@UEAAPEAUHWND__@@PEAU3@AEAUtagRECT@@@Z 000000018002eaa0     IndividualRecognition.obj
 0002:0000baa0       $unwind$?ClearInput@COPOSIndividualRecognition@@UEAAJPEAJ@Z 000000018002eaa0     IndividualRecognitionImpl.obj
 0002:0000baa0       $unwind$?ClearInputProperties@COPOSIndividualRecognition@@UEAAJPEAJ@Z 000000018002eaa0     IndividualRecognitionImpl.obj
 0002:0000baa0       $unwind$?__scrt_throw_std_bad_alloc@@YAXXZ 000000018002eaa0     LIBCMT:throw_bad_alloc.obj
 0002:0000baa0       $unwind$?__scrt_throw_std_bad_array_new_length@@YAXXZ 000000018002eaa0     LIBCMT:throw_bad_alloc.obj
 0002:0000baa0       $unwind$_raise_exc         000000018002eaa0     libucrt:fpexcept.obj
 0002:0000baa8       $unwind$?GetSizeMax@?$IPersistStreamInitImpl@VCOPOSIndividualRecognition@@@ATL@@UEAAJPEAT_ULARGE_INTEGER@@@Z 000000018002eaa8     IndividualRecognition.obj
 0002:0000bac0       $unwind$?IPersistStreamInit_Load@?$IPersistStreamInitImpl@VCOPOSIndividualRecognition@@@ATL@@QEAAJPEAUIStream@@PEBUATL_PROPMAP_ENTRY@2@@Z 000000018002eac0     IndividualRecognition.obj
 0002:0000badc       $unwind$?IPersistStreamInit_Save@?$IPersistStreamInitImpl@VCOPOSIndividualRecognition@@@ATL@@QEAAJPEAUIStream@@HPEBUATL_PROPMAP_ENTRY@2@@Z 000000018002eadc     IndividualRecognition.obj
 0002:0000baf8       $unwind$?DoVerbPrimary@?$IOleObjectImpl@VCOPOSIndividualRecognition@@@ATL@@QEAAJPEBUtagRECT@@PEAUHWND__@@@Z 000000018002eaf8     IndividualRecognition.obj
 0002:0000bb10       $unwind$?TranslateAcceleratorW@?$IOleInPlaceActiveObjectImpl@VCOPOSIndividualRecognition@@@ATL@@UEAAJPEAUtagMSG@@@Z 000000018002eb10     IndividualRecognition.obj
 0002:0000bb1c       $unwind$?Draw@?$IViewObjectExImpl@VCOPOSIndividualRecognition@@@ATL@@UEAAJKJPEAXPEAUtagDVTARGETDEVICE@@PEAUHDC__@@2PEBU_RECTL@@3P6AH_K@Z4@Z 000000018002eb1c     IndividualRecognition.obj
 0002:0000bb24       $unwind$?QueryHitRect@?$IViewObjectExImpl@VCOPOSIndividualRecognition@@@ATL@@UEAAJKPEBUtagRECT@@0JPEAK@Z 000000018002eb24     IndividualRecognition.obj
 0002:0000bb34       $unwind$?OnWindowMessage@?$IOleInPlaceObjectWindowlessImpl@VCOPOSIndividualRecognition@@@ATL@@UEAAJI_K_JPEA_J@Z 000000018002eb34     IndividualRecognition.obj
 0002:0000bb48       $unwind$?EnumConnectionPoints@?$IConnectionPointContainerImpl@VCOPOSIndividualRecognition@@@ATL@@UEAAJPEAPEAUIEnumConnectionPoints@@@Z 000000018002eb48     IndividualRecognition.obj
 0002:0000bb70       $unwind$?FindConnectionPoint@?$IConnectionPointContainerImpl@VCOPOSIndividualRecognition@@@ATL@@UEAAJAEBU_GUID@@PEAPEAUIConnectionPoint@@@Z 000000018002eb70     IndividualRecognition.obj
 0002:0000bb70       $unwind$?__mbrtoc32_utf8@__crt_mbstring@@YA_KPEA_UPEBD_KPEAU_Mbstatet@@@Z 000000018002eb70     libucrt:mbrtoc32.obj
 0002:0000bb8c       $unwind$?Load@?$IPersistStorageImpl@VCOPOSIndividualRecognition@@@ATL@@UEAAJPEAUIStorage@@@Z 000000018002eb8c     IndividualRecognition.obj
 0002:0000bb9c       $unwind$?Save@?$IPersistStorageImpl@VCOPOSIndividualRecognition@@@ATL@@UEAAJPEAUIStorage@@H@Z 000000018002eb9c     IndividualRecognition.obj
 0002:0000bbb0       $unwind$?IPSI_GetIPersistStreamInit@?$IPersistStorageImpl@VCOPOSIndividualRecognition@@@ATL@@AEAAPEAUIPersistStreamInit@@XZ 000000018002ebb0     IndividualRecognition.obj
 0002:0000bbb0       $unwind$?parse_int_from_format_string@?$output_processor@_WV?$string_output_adapter@_W@__crt_stdio_output@@V?$format_validation_base@_WV?$string_output_adapter@_W@__crt_stdio_output@@@2@@__crt_stdio_output@@AEAA_NQEAH@Z 000000018002ebb0     libucrt:output.obj
 0002:0000bbc4       $unwind$?GetInterfaceSafetyOptions@?$IObjectSafetyImpl@VCOPOSIndividualRecognition@@$02@ATL@@UEAAJAEBU_GUID@@PEAK1@Z 000000018002ebc4     IndividualRecognition.obj
 0002:0000bbd8       $unwind$?SetInterfaceSafetyOptions@?$IObjectSafetyImpl@VCOPOSIndividualRecognition@@$02@ATL@@UEAAJAEBU_GUID@@KK@Z 000000018002ebd8     IndividualRecognition.obj
 0002:0000bbec       $unwind$?Advise@?$IConnectionPointImpl@VCOPOSIndividualRecognition@@$1?DIID__IOPOSIndividualRecognitionEvents@@3U_GUID@@BVCComDynamicUnkArray@ATL@@@ATL@@UEAAJPEAUIUnknown@@PEAK@Z 000000018002ebec     IndividualRecognition.obj
 0002:0000bbec       $unwind$?Advise@?$IConnectionPointImpl@VCOPOSIndividualRecognition@@$1?IID_IPropertyNotifySink@@3U_GUID@@BVCComDynamicUnkArray@ATL@@@ATL@@UEAAJPEAUIUnknown@@PEAK@Z 000000018002ebec     IndividualRecognition.obj
 0002:0000bc00       $unwind$?Fire_DataEvent@?$CProxy_IOPOSEvents@VCOPOSIndividualRecognition@@@@QEAAXJ@Z 000000018002ec00     IndividualRecognition.obj
 0002:0000bc00       $unwind$?Fire_StatusUpdateEvent@?$CProxy_IOPOSEvents@VCOPOSIndividualRecognition@@@@QEAAXJ@Z 000000018002ec00     IndividualRecognition.obj
 0002:0000bc18       $unwind$?Fire_DirectIOEvent@?$CProxy_IOPOSEvents@VCOPOSIndividualRecognition@@@@QEAAXJPEAJPEAPEA_W@Z 000000018002ec18     IndividualRecognition.obj
 0002:0000bc38       $unwind$?Fire_ErrorEvent@?$CProxy_IOPOSEvents@VCOPOSIndividualRecognition@@@@QEAAXJJJPEAJ@Z 000000018002ec38     IndividualRecognition.obj
 0002:0000bc58       $unwind$?FireTheEvent@?$CProxy_IOPOSEvents@VCOPOSIndividualRecognition@@@@IEAAXPEAVOposVariant@@IAEAJPEB_WJ@Z 000000018002ec58     IndividualRecognition.obj
 0002:0000bc68       $unwind$?ProcessWindowMessage@COPOSIndividualRecognition@@UEAAHPEAUHWND__@@I_K_JAEA_JK@Z 000000018002ec68     IndividualRecognition.obj
 0002:0000bc68       $unwind$__dcrt_get_narrow_environment_from_os 000000018002ec68     libucrt:get_environment_from_os.obj
 0002:0000bc68       $unwind$?fp_format_f_internal@@YAHQEAD_KHQEAU_strflt@@_NQEAU__crt_locale_pointers@@@Z 000000018002ec68     libucrt:cvt.obj
 0002:0000bc68       $unwind$??$__acrt_wcs_to_mbs_cp@U__crt_win32_buffer_internal_dynamic_resizing@@@@YAHQEB_WAEAV?$__crt_win32_buffer@DU__crt_win32_buffer_internal_dynamic_resizing@@@@I@Z 000000018002ec68     libucrt:argv_wildcards.obj
 0002:0000bc80       $unwind$?SOError@COPOSIndividualRecognition@@MEAAJJJJPEAJ@Z 000000018002ec80     IndividualRecognition.obj
 0002:0000bc80       $unwind$_invalid_parameter 000000018002ec80     libucrt:invalid_parameter.obj
 0002:0000bc94       $unwind$?Clone@?$CComEnumImpl@UIEnumConnectionPoints@@$1?_GUID_b196b285_bab4_101a_b69c_00aa00341d07@@3U__s_GUID@@BPEAUIConnectionPoint@@V?$_CopyInterface@UIConnectionPoint@@@ATL@@@ATL@@UEAAJPEAPEAUIEnumConnectionPoints@@@Z 000000018002ec94     IndividualRecognition.obj
 0002:0000bc94       $unwind$?Clone@?$CComEnumImpl@UIEnumConnections@@$1?_GUID_b196b287_bab4_101a_b69c_00aa00341d07@@3U__s_GUID@@BUtagCONNECTDATA@@V?$_Copy@UtagCONNECTDATA@@@ATL@@@ATL@@UEAAJPEAPEAUIEnumConnections@@@Z 000000018002ec94     IndividualRecognition.obj
 0002:0000bcac       $unwind$?GetOposProp@COPOSIndividualRecognition@@IEAAJJPEAJJ@Z 000000018002ecac     IndividualRecognitionImpl.obj
 0002:0000bcac       $unwind$?GetOposProp@COPOSIndividualRecognition@@IEAAJJPEAPEA_WJ@Z 000000018002ecac     IndividualRecognitionImpl.obj
 0002:0000bcc4       $unwind$?SetOposProp@COPOSIndividualRecognition@@IEAAJJJJ@Z 000000018002ecc4     IndividualRecognitionImpl.obj
 0002:0000bce4       $unwind$?SetOposProp@COPOSIndividualRecognition@@IEAAJJPEA_WJ@Z 000000018002ece4     IndividualRecognitionImpl.obj
 0002:0000bd00       $unwind$?DoInvoke@COPOSIndividualRecognition@@IEAAJJPEAVOposVariant@@IHPEAJ_N@Z 000000018002ed00     IndividualRecognitionImpl.obj
 0002:0000bd18       $unwind$?SetCOFreezeEvents@COPOSIndividualRecognition@@IEAAXF@Z 000000018002ed18     IndividualRecognitionImpl.obj
 0002:0000bd2c       $unwind$?OnDraw@COPOSIndividualRecognition@@MEAAJAEAUATL_DRAWINFO@@@Z 000000018002ed2c     IndividualRecognitionImpl.obj
 0002:0000bd44       $unwind$?EventInit@COPOSIndividualRecognition@@IEAAJXZ 000000018002ed44     IndividualRecognitionImpl.obj
 0002:0000bd58       $unwind$?EventWindowProc@COPOSIndividualRecognition@@IEAA_JI_K_J@Z 000000018002ed58     IndividualRecognitionImpl.obj
 0002:0000bd58       $unwind$__stdio_common_vswprintf_s 000000018002ed58     libucrt:output.obj
 0002:0000bd64       $unwind$?get_ControlObjectDescription@COPOSIndividualRecognition@@UEAAJPEAPEA_W@Z 000000018002ed64     IndividualRecognitionImpl.obj
 0002:0000bd64       $unwind$__dcrt_lowio_ensure_console_output_initialized 000000018002ed64     libucrt:initcon.obj
 0002:0000bd64       $unwind$_isleadbyte_l      000000018002ed64     libucrt:_wctype.obj
 0002:0000bd64       $unwind$?getSystemCP@@YAHH@Z 000000018002ed64     libucrt:mbctype.obj
 0002:0000bd6c       $unwind$?CheckHealth@COPOSIndividualRecognition@@UEAAJJPEAJ@Z 000000018002ed6c     IndividualRecognitionImpl.obj
 0002:0000bd6c       $unwind$?ResetStatistics@COPOSIndividualRecognition@@UEAAJPEA_WPEAJ@Z 000000018002ed6c     IndividualRecognitionImpl.obj
 0002:0000bd6c       $unwind$?RetrieveStatistics@COPOSIndividualRecognition@@UEAAJPEAPEA_WPEAJ@Z 000000018002ed6c     IndividualRecognitionImpl.obj
 0002:0000bd6c       $unwind$?UpdateFirmware@COPOSIndividualRecognition@@UEAAJPEA_WPEAJ@Z 000000018002ed6c     IndividualRecognitionImpl.obj
 0002:0000bd6c       $unwind$?UpdateStatistics@COPOSIndividualRecognition@@UEAAJPEA_WPEAJ@Z 000000018002ed6c     IndividualRecognitionImpl.obj
 0002:0000bd7c       $unwind$?ClaimDevice@COPOSIndividualRecognition@@UEAAJJPEAJ@Z 000000018002ed7c     IndividualRecognitionImpl.obj
 0002:0000bd8c       $unwind$?Close@COPOSIndividualRecognition@@UEAAJPEAJ@Z 000000018002ed8c     IndividualRecognitionImpl.obj
 0002:0000bd98       $unwind$?DirectIO@COPOSIndividualRecognition@@UEAAJJPEAJPEAPEA_W0@Z 000000018002ed98     IndividualRecognitionImpl.obj
 0002:0000bdb4       $unwind$?Open@COPOSIndividualRecognition@@UEAAJPEA_WPEAJ@Z 000000018002edb4     IndividualRecognitionImpl.obj
 0002:0000bdd8       $unwind$?CompareFirmwareVersion@COPOSIndividualRecognition@@UEAAJPEA_WPEAJ1@Z 000000018002edd8     IndividualRecognitionImpl.obj
 0002:0000bdd8       $unwind$?initialize_inherited_file_handles_nolock@@YAXXZ 000000018002edd8     libucrt:ioinit.obj
 0002:0000bdf4       $unwind$__scrt_is_nonwritable_in_current_image 000000018002edf4     LIBCMT:utility.obj
 0002:0000be14       $unwind$__scrt_is_nonwritable_in_current_image$filt$0 000000018002ee14     LIBCMT:utility.obj
 0002:0000be1c       $unwind$__report_securityfailure 000000018002ee1c     LIBCMT:gs_report.obj
 0002:0000be24       $unwind$__report_gsfailure 000000018002ee24     LIBCMT:gs_report.obj
 0002:0000be2c       $unwind$capture_current_context 000000018002ee2c     LIBCMT:gs_report.obj
 0002:0000be38       $unwind$capture_previous_context 000000018002ee38     LIBCMT:gs_report.obj
 0002:0000be44       $unwind$??2@YAPEAX_KAEBUnothrow_t@std@@@Z 000000018002ee44     LIBCMT:new_scalar_nothrow.obj
 0002:0000be54       $cppxdata$??2@YAPEAX_KAEBUnothrow_t@std@@@Z 000000018002ee54     LIBCMT:new_scalar_nothrow.obj
 0002:0000be61       $stateUnwindMap$??2@YAPEAX_KAEBUnothrow_t@std@@@Z 000000018002ee61     LIBCMT:new_scalar_nothrow.obj
 0002:0000be64       $tryMap$??2@YAPEAX_KAEBUnothrow_t@std@@@Z 000000018002ee64     LIBCMT:new_scalar_nothrow.obj
 0002:0000be6c       $handlerMap$??2@YAPEAX_KAEBUnothrow_t@std@@@Z 000000018002ee6c     LIBCMT:new_scalar_nothrow.obj
 0002:0000be74       $ip2state$??2@YAPEAX_KAEBUnothrow_t@std@@@Z 000000018002ee74     LIBCMT:new_scalar_nothrow.obj
 0002:0000be78       $unwind$?catch$0@?0???2@YAPEAX_KAEBUnothrow_t@std@@@Z@4HA 000000018002ee78     LIBCMT:new_scalar_nothrow.obj
 0002:0000be88       $cppxdata$?catch$0@?0???2@YAPEAX_KAEBUnothrow_t@std@@@Z@4HA 000000018002ee88     LIBCMT:new_scalar_nothrow.obj
 0002:0000be92       $stateUnwindMap$?catch$0@?0???2@YAPEAX_KAEBUnothrow_t@std@@@Z@4HA 000000018002ee92     LIBCMT:new_scalar_nothrow.obj
 0002:0000be94       $ip2state$?catch$0@?0???2@YAPEAX_KAEBUnothrow_t@std@@@Z@4HA 000000018002ee94     LIBCMT:new_scalar_nothrow.obj
 0002:0000be98       $unwind$__GSHandlerCheckCommon 000000018002ee98     LIBCMT:gshandler.obj
 0002:0000bea0       $xdatasym                  000000018002eea0     LIBCMT:chkstk.obj
 0002:0000bea8       $xdatasym                  000000018002eea8     LIBCMT:amdsecgs.obj
 0002:0000beac       $unwind$?dllmain_crt_process_attach@@YAHQEAUHINSTANCE__@@QEAX@Z 000000018002eeac     LIBCMT:dll_dllmain.obj
 0002:0000bee8       $unwind$?dllmain_crt_process_detach@@YAH_N@Z 000000018002eee8     LIBCMT:dll_dllmain.obj
 0002:0000bf3c       $unwind$?dllmain_dispatch@@YAHQEAUHINSTANCE__@@KQEAX@Z 000000018002ef3c     LIBCMT:dll_dllmain.obj
 0002:0000bf64       $unwind$?filt$0@?0??dllmain_dispatch@@YAHQEAUHINSTANCE__@@KQEAX@Z@4HA 000000018002ef64     LIBCMT:dll_dllmain.obj
 0002:0000bf64       $unwind$?filt$0@?0??FrameUnwindToState@__FrameHandler4@@SAXPEA_KPEAU_xDISPATCHER_CONTEXT@@PEAUFuncInfo4@FH4@@H@Z@4HA 000000018002ef64     libvcruntime:frame.obj
 0002:0000bf64       $unwind$?fin$1@?0??FrameUnwindToState@__FrameHandler4@@SAXPEA_KPEAU_xDISPATCHER_CONTEXT@@PEAUFuncInfo4@FH4@@H@Z@4HA 000000018002ef64     libvcruntime:frame.obj
 0002:0000bf6c       $unwind$__isa_available_init 000000018002ef6c     LIBCMT:cpu_disp.obj
 0002:0000bf7c       $unwind$__scrt_fastfail    000000018002ef7c     LIBCMT:utility_desktop.obj
 0002:0000bf8c       $unwind$__security_init_cookie 000000018002ef8c     LIBCMT:gs_support.obj
 0002:0000bf98       $xdatasym                  000000018002ef98     LIBCMT:guard_dispatch.obj
 0002:0000bfa0       $xdatasym                  000000018002efa0     LIBCMT:guard_xfg_dispatch.obj
 0002:0000bfa4       $unwind$AtlThunk_InitData  000000018002efa4     atls:atlthunk.obj
 0002:0000bfb8       $unwind$wcsstr             000000018002efb8     libvcruntime:wcsstr.obj
 0002:0000bfd0       $xdatasym                  000000018002efd0     libvcruntime:memcmp.obj
 0002:0000bfd8       $xdatasym                  000000018002efd8     libvcruntime:memcpy.obj
 0002:0000bfe8       $xdatasym                  000000018002efe8     libvcruntime:memset.obj
 0002:0000bff8       $unwind$__C_specific_handler 000000018002eff8     libvcruntime:riscchandler.obj
 0002:0000c014       $unwind$?DecompFuncInfo@FH4@@YA_JPEAEAEAUFuncInfo4@1@_KH_N@Z 000000018002f014     libvcruntime:risctrnsctrl.obj
 0002:0000c02c       $unwind$?UnwindNestedFrames@__FrameHandler4@@SAXPEA_KPEAUEHExceptionRecord@@PEAU_CONTEXT@@0PEAXPEAUFuncInfo4@FH4@@HHPEAUHandlerType4@5@PEAU_xDISPATCHER_CONTEXT@@E@Z 000000018002f02c     libvcruntime:risctrnsctrl.obj
 0002:0000c040       $unwind$?GetRangeOfTrysToCheck@__FrameHandler4@@SA?AU?$pair@Viterator@TryBlockMap4@FH4@@V123@@std@@AEAVTryBlockMap4@FH4@@HPEAU_xDISPATCHER_CONTEXT@@PEAUFuncInfo4@5@H@Z 000000018002f040     libvcruntime:risctrnsctrl.obj
 0002:0000c05c       $unwind$__CxxFrameHandler4 000000018002f05c     libvcruntime:risctrnsctrl.obj
 0002:0000c070       $unwind$??$_CallSETranslator@V__FrameHandler4@@@@YAHPEAUEHExceptionRecord@@PEA_KPEAU_CONTEXT@@PEAU_xDISPATCHER_CONTEXT@@PEAUFuncInfo4@FH4@@K1H@Z 000000018002f070     libvcruntime:risctrnsctrl.obj
 0002:0000c090       $unwind$?filt$0@?0???$_CallSETranslator@V__FrameHandler4@@@@YAHPEAUEHExceptionRecord@@PEA_KPEAU_CONTEXT@@PEAU_xDISPATCHER_CONTEXT@@PEAUFuncInfo4@FH4@@K1H@Z@4HA 000000018002f090     libvcruntime:risctrnsctrl.obj
 0002:0000c09c       $unwind$__DestructExceptionObject 000000018002f09c     libvcruntime:ehhelpers.obj
 0002:0000c0bc       $unwind$__DestructExceptionObject$filt$0 000000018002f0bc     libvcruntime:ehhelpers.obj
 0002:0000c0bc       $unwind$?fin$1@?0??CxxCallCatchBlock@__FrameHandler4@@SAPEAXPEAU_EXCEPTION_RECORD@@@Z@4HA 000000018002f0bc     libvcruntime:frame.obj
 0002:0000c0c8       $unwind$_CxxThrowException 000000018002f0c8     libvcruntime:throw.obj
 0002:0000c0d8       $xdatasym                  000000018002f0d8     libvcruntime:notify.obj
 0002:0000c0e4       $unwind$?StateFromIp@__FrameHandler4@@SAHPEAUFuncInfo4@FH4@@PEAU_xDISPATCHER_CONTEXT@@_K@Z 000000018002f0e4     libvcruntime:ehstate.obj
 0002:0000c0f8       $unwind$?getStartStop@UWMap4@FH4@@QEAAXHHAEAViterator@12@0@Z 000000018002f0f8     libvcruntime:frame.obj
 0002:0000c110       $unwind$?FrameUnwindToState@__FrameHandler4@@SAXPEA_KPEAU_xDISPATCHER_CONTEXT@@PEAUFuncInfo4@FH4@@H@Z 000000018002f110     libvcruntime:frame.obj
 0002:0000c158       $unwind$?CxxCallCatchBlock@__FrameHandler4@@SAPEAXPEAU_EXCEPTION_RECORD@@@Z 000000018002f158     libvcruntime:frame.obj
 0002:0000c1b4       $unwind$?IsInExceptionSpec@@YAEPEAUEHExceptionRecord@@PEBU_s_ESTypeList@@@Z 000000018002f1b4     libvcruntime:frame.obj
 0002:0000c1d0       $unwind$??$__InternalCxxFrameHandler@V__FrameHandler4@@@@YA?AW4_EXCEPTION_DISPOSITION@@PEAUEHExceptionRecord@@PEA_KPEAU_CONTEXT@@PEAU_xDISPATCHER_CONTEXT@@PEAUFuncInfo4@FH4@@H1E@Z 000000018002f1d0     libvcruntime:frame.obj
 0002:0000c1e8       $unwind$??$BuildCatchObjectHelperInternal@V__FrameHandler4@@@@YAHPEAUEHExceptionRecord@@PEAXPEAUHandlerType4@FH4@@PEBU_s_CatchableType@@@Z 000000018002f1e8     libvcruntime:frame.obj
 0002:0000c228       $unwind$??$BuildCatchObjectInternal@V__FrameHandler4@@@@YAXPEAUEHExceptionRecord@@PEAXPEAUHandlerType4@FH4@@PEBU_s_CatchableType@@@Z 000000018002f228     libvcruntime:frame.obj
 0002:0000c254       $unwind$??$FindHandler@V__FrameHandler4@@@@YAXPEAUEHExceptionRecord@@PEA_KPEAU_CONTEXT@@PEAU_xDISPATCHER_CONTEXT@@PEAUFuncInfo4@FH4@@EH1@Z 000000018002f254     libvcruntime:frame.obj
 0002:0000c274       $unwind$??$CatchIt@V__FrameHandler4@@@@YAXPEAUEHExceptionRecord@@PEA_KPEAU_CONTEXT@@PEAU_xDISPATCHER_CONTEXT@@PEAUFuncInfo4@FH4@@PEAUHandlerType4@4@PEBU_s_CatchableType@@PEAUTryBlockMapEntry4@4@H1EE@Z 000000018002f274     libvcruntime:frame.obj
 0002:0000c28c       $unwind$??$FindHandlerForForeignException@V__FrameHandler4@@@@YAXPEAUEHExceptionRecord@@PEA_KPEAU_CONTEXT@@PEAU_xDISPATCHER_CONTEXT@@PEAUFuncInfo4@FH4@@HH1@Z 000000018002f28c     libvcruntime:frame.obj
 0002:0000c2ac       $unwind$?try_get_function@@YAPEAXW4function_id@?A0x84e3c32f@@QEBDQEBW4module_id@2@2@Z 000000018002f2ac     libvcruntime:winapi_downlevel.obj
 0002:0000c2ac       $unwind$?try_get_function@@YAPEAXW4function_id@?A0x391cf84c@@QEBDQEBW4module_id@2@2@Z 000000018002f2ac     libucrt:winapi_thunks.obj
 0002:0000c2c8       $xdatasym                  000000018002f2c8     libvcruntime:handlers.obj
 0002:0000c2e8       $unwind$__acrt_call_reportfault 000000018002f2e8     libucrt:invalid_parameter.obj
 0002:0000c308       $unwind$_resetstkoflw      000000018002f308     libucrt:resetstk.obj
 0002:0000c32c       $unwind$?write_string@?$string_output_adapter@_W@__crt_stdio_output@@QEBAXQEB_WHQEAHAEAV__crt_deferred_errno_cache@@@Z 000000018002f32c     libucrt:output.obj
 0002:0000c344       $unwind$??$common_vsprintf@Vformat_validation_base@__crt_stdio_output@@_W@@YAH_KQEA_W0QEB_WQEAU__crt_locale_pointers@@QEAD@Z 000000018002f344     libucrt:output.obj
 0002:0000c364       $unwind$??$write_multiple_characters@V?$string_output_adapter@_W@__crt_stdio_output@@D@__crt_stdio_output@@YAXAEBV?$string_output_adapter@_W@0@DHQEAH@Z 000000018002f364     libucrt:output.obj
 0002:0000c370       $unwind$?state_case_type@?$output_processor@_WV?$string_output_adapter@_W@__crt_stdio_output@@V?$format_validation_base@_WV?$string_output_adapter@_W@__crt_stdio_output@@@2@@__crt_stdio_output@@AEAA_NXZ 000000018002f370     libucrt:output.obj
 0002:0000c394       $unwind$?type_case_a@?$output_processor@_WV?$string_output_adapter@_W@__crt_stdio_output@@V?$format_validation_base@_WV?$string_output_adapter@_W@__crt_stdio_output@@@2@@__crt_stdio_output@@AEAA_NXZ 000000018002f394     libucrt:output.obj
 0002:0000c3a4       $unwind$?write_stored_string_tchar@?$output_processor@_WV?$string_output_adapter@_W@__crt_stdio_output@@V?$format_validation_base@_WV?$string_output_adapter@_W@__crt_stdio_output@@@2@@__crt_stdio_output@@AEAA_N_W@Z 000000018002f3a4     libucrt:output.obj
 0002:0000c3b8       $unwind$??$type_case_integer_parse_into_buffer@I@?$output_processor@_WV?$string_output_adapter@_W@__crt_stdio_output@@V?$format_validation_base@_WV?$string_output_adapter@_W@__crt_stdio_output@@@2@@__crt_stdio_output@@AEAAXII_N@Z 000000018002f3b8     libucrt:output.obj
 0002:0000c3b8       $unwind$??$type_case_integer_parse_into_buffer@_K@?$output_processor@_WV?$string_output_adapter@_W@__crt_stdio_output@@V?$format_validation_base@_WV?$string_output_adapter@_W@__crt_stdio_output@@@2@@__crt_stdio_output@@AEAAX_KI_N@Z 000000018002f3b8     libucrt:output.obj
 0002:0000c3c0       $unwind$?common_exit@@YAXHW4_crt_exit_cleanup_mode@@W4_crt_exit_return_mode@@@Z 000000018002f3c0     libucrt:exit.obj
 0002:0000c3cc       $unwind$??R<lambda_6e4b09c48022b2350581041d5f6b0c4c>@@QEBA@XZ 000000018002f3cc     libucrt:exit.obj
 0002:0000c3ec       $unwind$??$?RV<lambda_d80eeec6fff315bfe5c115232f3240e3>@@AEAV<lambda_6e4b09c48022b2350581041d5f6b0c4c>@@V<lambda_2358e3775559c9db80273638284d5e45>@@@?$__crt_seh_guarded_call@X@@QEAAX$$QEAV<lambda_d80eeec6fff315bfe5c115232f3240e3>@@AEAV<lambda_6e4b09c48022b2350581041d5f6b0c4c>@@$$QEAV<lambda_2358e3775559c9db80273638284d5e45>@@@Z 000000018002f3ec     libucrt:exit.obj
 0002:0000c410       $unwind$??$free_environment@D@@YAXQEAPEAD@Z 000000018002f410     libucrt:environment_initialization.obj
 0002:0000c410       $unwind$??$free_environment@_W@@YAXQEAPEA_W@Z 000000018002f410     libucrt:environment_initialization.obj
 0002:0000c41c       $unwind$??$create_environment@D@@YAQEAPEADQEAD@Z 000000018002f41c     libucrt:environment_initialization.obj
 0002:0000c434       $unwind$_register_onexit_function 000000018002f434     libucrt:onexit.obj
 0002:0000c43c       $unwind$_execute_onexit_table 000000018002f43c     libucrt:onexit.obj
 0002:0000c444       $unwind$??R<lambda_22ebabd17bc4fa466a2aca6d8deb888d>@@QEBAHXZ 000000018002f444     libucrt:onexit.obj
 0002:0000c45c       $unwind$??$?RV<lambda_638799b9deba96c50f710eeac98168cd>@@AEAV<lambda_22ebabd17bc4fa466a2aca6d8deb888d>@@V<lambda_a6f7d7db0129f75315ebf26d50c089f1>@@@?$__crt_seh_guarded_call@H@@QEAAH$$QEAV<lambda_638799b9deba96c50f710eeac98168cd>@@AEAV<lambda_22ebabd17bc4fa466a2aca6d8deb888d>@@$$QEAV<lambda_a6f7d7db0129f75315ebf26d50c089f1>@@@Z 000000018002f45c     libucrt:onexit.obj
 0002:0000c480       $unwind$??$?RV<lambda_7777bce6b2f8c936911f934f8298dc43>@@AEAV<lambda_f03950bc5685219e0bcd2087efbe011e>@@V<lambda_3883c3dff614d5e0c5f61bb1ac94921c>@@@?$__crt_seh_guarded_call@H@@QEAAH$$QEAV<lambda_7777bce6b2f8c936911f934f8298dc43>@@AEAV<lambda_f03950bc5685219e0bcd2087efbe011e>@@$$QEAV<lambda_3883c3dff614d5e0c5f61bb1ac94921c>@@@Z 000000018002f480     libucrt:onexit.obj
 0002:0000c4a4       $unwind$_query_new_handler 000000018002f4a4     libucrt:new_handler.obj
 0002:0000c4c4       $unwind$terminate          000000018002f4c4     libucrt:terminate.obj
 0002:0000c4e4       $unwind$??$parse_integer@KV?$c_string_character_source@_W@__crt_strtox@@@__crt_strtox@@YAKQEAU__crt_locale_pointers@@V?$c_string_character_source@_W@0@H_N@Z 000000018002f4e4     libucrt:atox.obj
 0002:0000c500       $xdatasym                  000000018002f500     libucrt:strncmp.obj
 0002:0000c504       $unwind$?construct_ptd_array@@YAXQEAU__acrt_ptd@@@Z 000000018002f504     libucrt:per_thread_data.obj
 0002:0000c50c       $unwind$?destroy_ptd_array@@YAXQEAU__acrt_ptd@@@Z 000000018002f50c     libucrt:per_thread_data.obj
 0002:0000c514       $unwind$??$?RV<lambda_0ae27a3a962d80f24befdcbee591983d>@@AEAV<lambda_8d0ee55de4b1038c4002e0adecdf1839>@@V<lambda_dc504788e8f1664fe9b84e20bfb512f2>@@@?$__crt_seh_guarded_call@X@@QEAAX$$QEAV<lambda_0ae27a3a962d80f24befdcbee591983d>@@AEAV<lambda_8d0ee55de4b1038c4002e0adecdf1839>@@$$QEAV<lambda_dc504788e8f1664fe9b84e20bfb512f2>@@@Z 000000018002f514     libucrt:per_thread_data.obj
 0002:0000c538       $unwind$??$?RV<lambda_aa87e3671a710a21b5dc78c0bdf72e11>@@AEAV<lambda_92619d2358a28f41a33ba319515a20b9>@@V<lambda_6992ecaafeb10aed2b74cb1fae11a551>@@@?$__crt_seh_guarded_call@X@@QEAAX$$QEAV<lambda_aa87e3671a710a21b5dc78c0bdf72e11>@@AEAV<lambda_92619d2358a28f41a33ba319515a20b9>@@$$QEAV<lambda_6992ecaafeb10aed2b74cb1fae11a551>@@@Z 000000018002f538     libucrt:per_thread_data.obj
 0002:0000c55c       $unwind$??$?RV<lambda_f2e299630e499de9f9a165e60fcd3db5>@@AEAV<lambda_2ae9d31cdba2644fcbeaf08da7c24588>@@V<lambda_40d01ff24d0e7b3814fdbdcee8eab3c7>@@@?$__crt_seh_guarded_call@X@@QEAAX$$QEAV<lambda_f2e299630e499de9f9a165e60fcd3db5>@@AEAV<lambda_2ae9d31cdba2644fcbeaf08da7c24588>@@$$QEAV<lambda_40d01ff24d0e7b3814fdbdcee8eab3c7>@@@Z 000000018002f55c     libucrt:per_thread_data.obj
 0002:0000c580       $unwind$??$?RV<lambda_2d41944a1d46af3157314b8a01080d33>@@AEAV<lambda_8f455de75cd7d7f24b4096f044d8b9e6>@@V<lambda_aa500f224e6afead328df44964fe2772>@@@?$__crt_seh_guarded_call@X@@QEAAX$$QEAV<lambda_2d41944a1d46af3157314b8a01080d33>@@AEAV<lambda_8f455de75cd7d7f24b4096f044d8b9e6>@@$$QEAV<lambda_aa500f224e6afead328df44964fe2772>@@@Z 000000018002f580     libucrt:per_thread_data.obj
 0002:0000c5a4       $unwind$__acrt_initialize_winapi_thunks 000000018002f5a4     libucrt:winapi_thunks.obj
 0002:0000c5ac       $unwind$__acrt_fp_format   000000018002f5ac     libucrt:cvt.obj
 0002:0000c5c4       $unwind$?fp_format_e_internal@@YAHQEAD_KH_NIQEAU_strflt@@2QEAU__crt_locale_pointers@@@Z 000000018002f5c4     libucrt:cvt.obj
 0002:0000c5dc       $unwind$?fp_format_a@@YAHQEBNPEAD_KQEAD2H_NIQEAU__crt_locale_pointers@@W4__acrt_rounding_mode@@@Z 000000018002f5dc     libucrt:cvt.obj
 0002:0000c5f8       $unwind$?fp_format_g@@YAHQEBNQEAD_K12H_NIQEAU__crt_locale_pointers@@@Z 000000018002f5f8     libucrt:cvt.obj
 0002:0000c60c       $unwind$__acrt_uninitialize_locale 000000018002f60c     libucrt:wsetlocale.obj
 0002:0000c60c       $unwind$__acrt_get_sigabrt_handler 000000018002f60c     libucrt:signal.obj
 0002:0000c614       $unwind$??$?RV<lambda_410d79af7f07d98d83a3f525b3859a53>@@AEAV<lambda_3e16ef9562a7dcce91392c22ab16ea36>@@V<lambda_38119f0e861e05405d8a144b9b982f0a>@@@?$__crt_seh_guarded_call@X@@QEAAX$$QEAV<lambda_410d79af7f07d98d83a3f525b3859a53>@@AEAV<lambda_3e16ef9562a7dcce91392c22ab16ea36>@@$$QEAV<lambda_38119f0e861e05405d8a144b9b982f0a>@@@Z 000000018002f614     libucrt:wsetlocale.obj
 0002:0000c63c       $unwind$__acrt_initialize_lowio 000000018002f63c     libucrt:ioinit.obj
 0002:0000c65c       $unwind$??$common_expand_argv_wildcards@D@@YAHQEAPEADQEAPEAPEAD@Z 000000018002f65c     libucrt:argv_wildcards.obj
 0002:0000c674       $unwind$??$copy_and_add_argument_to_buffer@D@@YAHQEBD0_KAEAV?$argument_list@D@?A0x5f5c8891@@@Z 000000018002f674     libucrt:argv_wildcards.obj
 0002:0000c690       $unwind$??$expand_argument_wildcards@D@@YAHQEAD0AEAV?$argument_list@D@?A0x5f5c8891@@@Z 000000018002f690     libucrt:argv_wildcards.obj
 0002:0000c6b4       $unwind$__acrt_GetModuleFileNameA 000000018002f6b4     libucrt:getmodulefilenamea.obj
 0002:0000c6d0       $unwind$_setmbcp_nolock    000000018002f6d0     libucrt:mbctype.obj
 0002:0000c6f0       $unwind$?update_thread_multibyte_data_internal@@YAPEAU__crt_multibyte_data@@QEAU__acrt_ptd@@QEAPEAU1@@Z 000000018002f6f0     libucrt:mbctype.obj
 0002:0000c718       $unwind$?setmbcp_internal@@YAHH_NQEAU__acrt_ptd@@QEAPEAU__crt_multibyte_data@@@Z 000000018002f718     libucrt:mbctype.obj
 0002:0000c728       $unwind$?setSBUpLow@@YAXPEAU__crt_multibyte_data@@@Z 000000018002f728     libucrt:mbctype.obj
 0002:0000c744       $unwind$??$?RV<lambda_efdfa57d1f175319df784efa44bb7b81>@@AEAV<lambda_5f0a4c1567f8adc6734073e5d1e1b35c>@@V<lambda_2e8a7d3640ea6ccb4c2413664c2db6fd>@@@?$__crt_seh_guarded_call@X@@QEAAX$$QEAV<lambda_efdfa57d1f175319df784efa44bb7b81>@@AEAV<lambda_5f0a4c1567f8adc6734073e5d1e1b35c>@@$$QEAV<lambda_2e8a7d3640ea6ccb4c2413664c2db6fd>@@@Z 000000018002f744     libucrt:mbctype.obj
 0002:0000c768       $unwind$__acrt_WideCharToMultiByte 000000018002f768     libucrt:widechartomultibyte.obj
 0002:0000c774       $unwind$raise              000000018002f774     libucrt:signal.obj
 0002:0000c7b0       $unwind$??$?RV<lambda_450d765d439847d4c735a33c368b5fc0>@@AEAV<lambda_44731a7d0e6d81c3e6aa82d741081786>@@V<lambda_601a2a7da3b7a96e9554ac7215c4b07c>@@@?$__crt_seh_guarded_call@P6AXH@Z@@QEAAP6AXH@Z$$QEAV<lambda_450d765d439847d4c735a33c368b5fc0>@@AEAV<lambda_44731a7d0e6d81c3e6aa82d741081786>@@$$QEAV<lambda_601a2a7da3b7a96e9554ac7215c4b07c>@@@Z 000000018002f7b0     libucrt:signal.obj
 0002:0000c7d4       $unwind$?common_flush_all@@YAH_N@Z 000000018002f7d4     libucrt:fflush.obj
 0002:0000c7dc       $unwind$??$?RV<lambda_842d9ff0dc9ef11c61343bbaebe7f885>@@AEAV<lambda_c5860995281e5c4ce005b3de8f5874ee>@@V<lambda_d90129c13df834fdcbf8d2b88dafcf2d>@@@?$__crt_seh_guarded_call@X@@QEAAX$$QEAV<lambda_842d9ff0dc9ef11c61343bbaebe7f885>@@AEAV<lambda_c5860995281e5c4ce005b3de8f5874ee>@@$$QEAV<lambda_d90129c13df834fdcbf8d2b88dafcf2d>@@@Z 000000018002f7dc     libucrt:fflush.obj
 0002:0000c800       $unwind$??$?RV<lambda_886d6c58226a84441f68b9f2b8217b83>@@AEAV<lambda_ab61a845afdef5b7c387490eaf3616ee>@@V<lambda_f7f22ab5edc0698d5f6905b0d3f44752>@@@?$__crt_seh_guarded_call@X@@QEAAX$$QEAV<lambda_886d6c58226a84441f68b9f2b8217b83>@@AEAV<lambda_ab61a845afdef5b7c387490eaf3616ee>@@$$QEAV<lambda_f7f22ab5edc0698d5f6905b0d3f44752>@@@Z 000000018002f800     libucrt:fflush.obj
 0002:0000c828       $unwind$__acrt_update_thread_locale_data 000000018002f828     libucrt:locale_refcounting.obj
 0002:0000c84c       $unwind$?__mbrtowc_utf8@__crt_mbstring@@YA_KPEA_WPEBD_KPEAU_Mbstatet@@@Z 000000018002f84c     libucrt:mbrtowc.obj
 0002:0000c854       $unwind$?__mbsrtowcs_utf8@__crt_mbstring@@YA_KPEA_WPEAPEBD_KPEAU_Mbstatet@@@Z 000000018002f854     libucrt:mbrtowc.obj
 0002:0000c86c       $unwind$__acrt_fltout      000000018002f86c     libucrt:cfout.obj
 0002:0000c88c       $unwind$?divide@__crt_strtox@@YA_KAEAUbig_integer@1@AEBU21@@Z 000000018002f88c     libucrt:cfout.obj
 0002:0000c8a4       $chain$0$?divide@__crt_strtox@@YA_KAEAUbig_integer@1@AEBU21@@Z 000000018002f8a4     libucrt:cfout.obj
 0002:0000c8b8       $chain$1$?divide@__crt_strtox@@YA_KAEAUbig_integer@1@AEBU21@@Z 000000018002f8b8     libucrt:cfout.obj
 0002:0000c8c8       $unwind$_fcloseall         000000018002f8c8     libucrt:closeall.obj
 0002:0000c8ec       $unwind$__acrt_locale_free_monetary 000000018002f8ec     libucrt:initmon.obj
 0002:0000c8f4       $unwind$__acrt_locale_free_time 000000018002f8f4     libucrt:inittime.obj
 0002:0000c904       $unwind$__acrt_GetStringTypeA 000000018002f904     libucrt:getstringtypea.obj
 0002:0000c92c       $unwind$__acrt_lowio_destroy_handle_array 000000018002f92c     libucrt:osfinfo.obj
 0002:0000c93c       $unwind$__acrt_lowio_ensure_fh_exists 000000018002f93c     libucrt:osfinfo.obj
 0002:0000c968       $unwind$qsort              000000018002f968     libucrt:qsort.obj
 0002:0000c980       $chain$4$qsort             000000018002f980     libucrt:qsort.obj
 0002:0000c9a4       $chain$5$qsort             000000018002f9a4     libucrt:qsort.obj
 0002:0000c9b4       $unwind$strpbrk            000000018002f9b4     libucrt:strpbrk.obj
 0002:0000c9c4       $unwind$fallbackMethod     000000018002f9c4     libucrt:strpbrk.obj
 0002:0000c9d4       $unwind$__acrt_LCMapStringA 000000018002f9d4     libucrt:lcmapstringa.obj
 0002:0000c9e4       $unwind$?__acrt_LCMapStringA_stat@@YAHPEAU__crt_locale_pointers@@PEB_WKPEBDHPEADHHH@Z 000000018002f9e4     libucrt:lcmapstringa.obj
 0002:0000ca0c       $unwind$_close             000000018002fa0c     libucrt:close.obj
 0002:0000ca0c       $unwind$_commit            000000018002fa0c     libucrt:commit.obj
 0002:0000ca14       $unwind$??$?RV<lambda_a37b2b86f63e897a80ea819b0eb08c01>@@AEAV<lambda_38ce7e780aa69e748d6df282ebc68efe>@@V<lambda_99fb1378e971ab6e7edea83e3a7a83a2>@@@?$__crt_seh_guarded_call@H@@QEAAH$$QEAV<lambda_a37b2b86f63e897a80ea819b0eb08c01>@@AEAV<lambda_38ce7e780aa69e748d6df282ebc68efe>@@$$QEAV<lambda_99fb1378e971ab6e7edea83e3a7a83a2>@@@Z 000000018002fa14     libucrt:commit.obj
 0002:0000ca38       $unwind$_write             000000018002fa38     libucrt:write.obj
 0002:0000ca68       $unwind$_write_nolock      000000018002fa68     libucrt:write.obj
 0002:0000ca80       $unwind$?write_double_translated_ansi_nolock@@YA?AUwrite_result@?A0x17268360@@HQEBDI@Z 000000018002fa80     libucrt:write.obj
 0002:0000caa4       $unwind$?write_text_ansi_nolock@@YA?AUwrite_result@?A0x17268360@@HQEBDI@Z 000000018002faa4     libucrt:write.obj
 0002:0000caa4       $unwind$?write_text_utf16le_nolock@@YA?AUwrite_result@?A0x17268360@@HQEBDI@Z 000000018002faa4     libucrt:write.obj
 0002:0000cac4       $unwind$?write_text_utf8_nolock@@YA?AUwrite_result@?A0x17268360@@HQEBDI@Z 000000018002fac4     libucrt:write.obj
 0002:0000cae8       $xdatasym                  000000018002fae8     libucrt:log10.obj
 0002:0000caf4       $unwind$__acrt_fenv_set_control 000000018002faf4     libucrt:_fenvutils.obj
 0002:0000cb04       $unwind$fclose             000000018002fb04     libucrt:fclose.obj
 0002:0000cb28       $unwind$_putwch_nolock     000000018002fb28     libucrt:putwch.obj
 0002:0000cb30       $unwind$common_control87   000000018002fb30     libucrt:ieee.obj
 0002:0000cb5c       $unwind$_call_matherr      000000018002fb5c     libucrt:libm_error.obj
 0002:0000cb64       $unwind$_handle_error      000000018002fb64     libucrt:libm_error.obj
 0002:0000cb84       $unwind$__acrt_initialize_fma3 000000018002fb84     libucrt:fma3_available.obj
 0002:0000cb8c       $unwind$_log_special_common 000000018002fb8c     libucrt:log_special.obj
 0002:0000cb98       $unwind$??$?RV<lambda_751a882b2c74d4b022dec766aa51a29a>@@AEAV<lambda_628dfdc04ba53c8bfc02c9951375f3f5>@@V<lambda_f6c7be5f7998530c34de24c7437d6b54>@@@?$__crt_seh_guarded_call@H@@QEAAH$$QEAV<lambda_751a882b2c74d4b022dec766aa51a29a>@@AEAV<lambda_628dfdc04ba53c8bfc02c9951375f3f5>@@$$QEAV<lambda_f6c7be5f7998530c34de24c7437d6b54>@@@Z 000000018002fb98     libucrt:close.obj
 0002:0000cbc0       $xdatasym                  000000018002fbc0     libucrt:fpsr.obj
 0002:0000cbc8       $unwind$_raise_exc_ex      000000018002fbc8     libucrt:fpexcept.obj
 0002:0000cbdc       $unwind$_ctrlfp            000000018002fbdc     libucrt:fpctrl.obj
 0002:0000cc04       $unwind$_IsNonwritableInCurrentImage 000000018002fc04     LIBCMT:pesect.obj
 0002:0000cd90       .edata                     000000018002fd90     OPOSIndividualRecognition.exp
 0002:0000cdb8       rgpv                       000000018002fdb8     OPOSIndividualRecognition.exp
 0002:0000cdc8       rgszName                   000000018002fdc8     OPOSIndividualRecognition.exp
 0002:0000cdd8       rgwOrd                     000000018002fdd8     OPOSIndividualRecognition.exp
 0002:0000cde0       szName                     000000018002fde0     OPOSIndividualRecognition.exp
 0002:0000cdfe       $N00001                    000000018002fdfe     OPOSIndividualRecognition.exp
 0002:0000ce0e       $N00002                    000000018002fe0e     OPOSIndividualRecognition.exp
 0002:0000ce20       $N00003                    000000018002fe20     OPOSIndividualRecognition.exp
 0002:0000ce32       $N00004                    000000018002fe32     OPOSIndividualRecognition.exp
 0002:0000d762       .idata$6                   0000000180030762     kernel32:KERNEL32.dll
 0002:0000d97a       .idata$6                   000000018003097a     user32:USER32.dll
 0002:0000daae       .idata$6                   0000000180030aae     gdi32:GDI32.dll
 0002:0000db54       .idata$6                   0000000180030b54     advapi32:ADVAPI32.dll
 0002:0000dc70       .idata$6                   0000000180030c70     ole32:ole32.dll
 0002:0000dc7a       .idata$6                   0000000180030c7a     oleaut32:OLEAUT32.dll
 0003:000001c0       ?ObjectMap@@3PAU_ATL_OBJMAP_ENTRY30@ATL@@A 00000001800321c0     IndividualRecognition.obj
 0003:000002d0       ?s_SOMethodNames@@3PAPEADA 00000001800322d0     IndividualRecognitionImpl.obj
 0003:00000368       ?s_RequiredMethodsPerRelease@@3PAHA 0000000180032368     IndividualRecognitionImpl.obj
 0003:000003b0       ?__vcrt_flsindex@@3KA      00000001800323b0     libvcruntime:per_thread_data.obj
 0003:000003c0       ?errno_no_memory@@3HA      00000001800323c0     libucrt:errno.obj
 0003:000003c4       ?doserrno_no_memory@@3KA   00000001800323c4     libucrt:errno.obj
 0003:000003d0       ?__acrt_flsindex@@3KA      00000001800323d0     libucrt:per_thread_data.obj
 0003:00000890       _mbctypes                  0000000180032890     libucrt:mbctype.obj
 0003:000009a0       _mbcasemaps                00000001800329a0     libucrt:mbctype.obj
 0003:00000aa0       ?__rgctypeflag@@3PADA      0000000180032aa0     libucrt:mbctype.obj
 0003:00000ab0       ?__rgcode_page_info@@3PAUcode_page_info@@A 0000000180032ab0     libucrt:mbctype.obj
 0003:00000d50       ?dazSupported@?1??common_control87@@9@9 0000000180032d50     libucrt:ieee.obj
 0003:00000d60       ?__dcrt_lowio_console_output_handle@@3PEAXEA 0000000180032d60     libucrt:initcon.obj
 0003:00000d70       ?dazSupported@?1??_ctrlfp@@9@9 0000000180032d70     libucrt:fpctrl.obj
 0003:00000fc0       ?is_initialized_as_dll@@3_NA 0000000180032fc0     LIBCMT:utility.obj
 0003:00000fc1       ?module_local_atexit_table_initialized@@3_NA 0000000180032fc1     LIBCMT:utility.obj
 0003:00000fc8       ?module_local_atexit_table@@3U_onexit_table_t@@A 0000000180032fc8     LIBCMT:utility.obj
 0003:00000fe0       ?module_local_at_quick_exit_table@@3U_onexit_table_t@@A 0000000180032fe0     LIBCMT:utility.obj
 0003:00000ff8       ?g_tss_cv@@3U_RTL_CONDITION_VARIABLE@@A 0000000180032ff8     LIBCMT:thread_safe_statics.obj
 0003:00001000       ?g_tss_event@@3PEAXEA      0000000180033000     LIBCMT:thread_safe_statics.obj
 0003:00001008       ?g_tss_mutex@@3U_RTL_CRITICAL_SECTION@@A 0000000180033008     LIBCMT:thread_safe_statics.obj
 0003:00001030       ?g_sleep_condition_variable_cs@@3P6AHPEAU_RTL_CONDITION_VARIABLE@@PEAU_RTL_CRITICAL_SECTION@@K@ZEA 0000000180033030     LIBCMT:thread_safe_statics.obj
 0003:00001038       ?g_wake_all_condition_variable@@3P6AXPEAU_RTL_CONDITION_VARIABLE@@@ZEA 0000000180033038     LIBCMT:thread_safe_statics.obj
 0003:00001040       GS_ExceptionRecord         0000000180033040     LIBCMT:gs_report.obj
 0003:000010e0       GS_ContextRecord           00000001800330e0     LIBCMT:gs_report.obj
 0003:000015b4       ?__proc_attached@@3HA      00000001800335b4     LIBCMT:dll_dllmain.obj
 0003:00001658       ?AllocateData@@3P6APEAUAtlThunkData_t@@XZEA 0000000180033658     atls:atlthunk.obj
 0003:00001660       ?InitData@@3P6AXPEAUAtlThunkData_t@@PEAX_K@ZEA 0000000180033660     atls:atlthunk.obj
 0003:00001668       ?DataToCode@@3P6AP6A_JPEAUHWND__@@I_K_J@ZPEAUAtlThunkData_t@@@ZEA 0000000180033668     atls:atlthunk.obj
 0003:00001670       ?FreeData@@3P6AXPEAUAtlThunkData_t@@@ZEA 0000000180033670     atls:atlthunk.obj
 0003:00001678       ?Initialized@@3_NA         0000000180033678     atls:atlthunk.obj
 0003:00001690       ?__vcrt_startup_thread_ptd@@3U__vcrt_ptd@@A 0000000180033690     libvcruntime:per_thread_data.obj
 0003:00001710       __vcrt_lock_table          0000000180033710     libvcruntime:locks.obj
 0003:00001738       __vcrt_locks_initialized   0000000180033738     libvcruntime:locks.obj
 0003:00001780       ?heap@@3V_HeapManager@@A   0000000180033780     libvcruntime:undname.obj
 0003:000017a8       ?module_handles@@3PAPEAUHINSTANCE__@@A 00000001800337a8     libvcruntime:winapi_downlevel.obj
 0003:000017c0       ?function_pointers@@3PAPEAXA 00000001800337c0     libvcruntime:winapi_downlevel.obj
 0003:000017e8       ?__acrt_invalid_parameter_handler@@3V?$dual_state_global@P6AXPEB_W00I_K@Z@__crt_state_management@@A 00000001800337e8     libucrt:invalid_parameter.obj
 0003:000017f0       ?c_termination_complete@@3JA 00000001800337f0     libucrt:exit.obj
 0003:000017f8       ?thread_local_exit_callback_func@@3P6AXPEAXK0@ZEA 00000001800337f8     libucrt:exit.obj
 0003:00001810       ?program_name@?1???$common_configure_argv@D@@YAHW4_crt_argv_mode@@@Z@4PADA 0000000180033810     libucrt:argv_parsing.obj
 0003:00001968       ?__acrt_new_handler@@3V?$dual_state_global@P6AH_K@Z@__crt_state_management@@A 0000000180033968     libucrt:new_handler.obj
 0003:00001970       ?module_handles@@3PAPEAUHINSTANCE__@@A 0000000180033970     libucrt:winapi_thunks.obj
 0003:00001a10       ?encoded_function_pointers@@3PAPEAXA 0000000180033a10     libucrt:winapi_thunks.obj
 0003:00001b20       ?internal_state@?1??_mbtowc_l@@9@4U_Mbstatet@@A 0000000180033b20     libucrt:mbtowc.obj
 0003:00001b38       ?enable_percent_n@@3_KA    0000000180033b38     libucrt:printf_count_output.obj
 0003:00001f70       ?__acrt_lock_table@@3PAU_RTL_CRITICAL_SECTION@@A 0000000180033f70     libucrt:locks.obj
 0003:000021a0       ?__acrt_locks_initialized@@3IA 00000001800341a0     libucrt:locks.obj
 0003:000021c0       ?fSystemSet@@3HA           00000001800341c0     libucrt:mbctype.obj
 0003:000021c4       ?initialized@?1??__acrt_initialize_multibyte@@9@4_NA 00000001800341c4     libucrt:mbctype.obj
 0003:00002200       ?ctrlc_action@@3V?$dual_state_global@P6AXH@Z@__crt_state_management@@A 0000000180034200     libucrt:signal.obj
 0003:00002208       ?ctrlbreak_action@@3V?$dual_state_global@P6AXH@Z@__crt_state_management@@A 0000000180034208     libucrt:signal.obj
 0003:00002210       ?abort_action@@3V?$dual_state_global@P6AXH@Z@__crt_state_management@@A 0000000180034210     libucrt:signal.obj
 0003:00002218       ?term_action@@3V?$dual_state_global@P6AXH@Z@__crt_state_management@@A 0000000180034218     libucrt:signal.obj
 0003:00002220       ?user_matherr@@3V?$dual_state_global@P6AHPEAU_exception@@@Z@__crt_state_management@@A 0000000180034220     libucrt:matherr.obj
 0003:00002228       ?__acrt_global_new_mode@@3V?$dual_state_global@J@__crt_state_management@@A 0000000180034228     libucrt:new_mode.obj
 0003:00002238       ?internal_pst@?1??__mbrtoc32_utf8@__crt_mbstring@@YA_KPEA_UPEBD_KPEAU_Mbstatet@@@Z@4U3@A 0000000180034238     libucrt:mbrtoc32.obj
 0003:00002240       ?__acrt_app_type@@3W4_crt_app_type@@A 0000000180034240     libucrt:report_runtime_error.obj
 0005:00000000       MoveSmall                  0000000180037000     libvcruntime:memcpy.obj
 0005:00000050       MsetTab                    0000000180037050     libvcruntime:memset.obj
 0006:00000220       $R000000                   0000000180038220     IndividualRecognition.res
 0006:00000b98       $R000978                   0000000180038b98     IndividualRecognition.res
 0006:00000c80       $R000A60                   0000000180038c80     IndividualRecognition.res
 0006:00000ee8       $R000CC8                   0000000180038ee8     IndividualRecognition.res
 0006:00001400       $R0011E0                   0000000180039400     IndividualRecognition.res
 0006:00003ac8       $R0038A8                   000000018003bac8     IndividualRecognition.res
 0006:00003b18       $R0038F8                   000000018003bb18     IndividualRecognition.res
