 OPOSGate

 Timestamp is 61a7588a (Wed Dec  1 20:12:10 2021)

 Preferred load address is 0000000180000000

 Start         Length     Name                   Class
 0001:00000000 000000c0H .text$di                CODE
 0001:000000c0 00023580H .text$mn                CODE
 0001:00023640 00000040H .text$mn$00             CODE
 0001:00023680 00000660H .text$x                 CODE
 0001:00023ce0 00000078H .text$yd                CODE
 0002:00000000 00000638H .idata$5                DATA
 0002:00000638 00000030H .00cfg                  DATA
 0002:00000668 00000008H .CRT$XCA                DATA
 0002:00000670 00000008H .CRT$XCL                DATA
 0002:00000678 00000020H .CRT$XCU                DATA
 0002:00000698 00000008H .CRT$XCZ                DATA
 0002:000006a0 00000008H .CRT$XIA                DATA
 0002:000006a8 00000020H .CRT$XIC                DATA
 0002:000006c8 00000008H .CRT$XIZ                DATA
 0002:000006d0 00000008H .CRT$XLA                DATA
 0002:000006d8 00000008H .CRT$XLZ                DATA
 0002:000006e0 00000008H .CRT$XPA                DATA
 0002:000006e8 00000010H .CRT$XPX                DATA
 0002:000006f8 00000008H .CRT$XPXA               DATA
 0002:00000700 00000008H .CRT$XPZ                DATA
 0002:00000708 00000008H .CRT$XTA                DATA
 0002:00000710 00000010H .CRT$XTZ                DATA
 0002:00000718 00000000H .gehcont$y              DATA
 0002:00000718 00000000H .gfids$y                DATA
 0002:00000720 0000a2e0H .rdata                  DATA
 0002:0000aa00 00000000H .rdata$CastGuardVftablesA DATA
 0002:0000aa00 00000000H .rdata$CastGuardVftablesC DATA
 0002:0000aa00 00000028H .rdata$T                DATA
 0002:0000aa28 00000274H .rdata$r                DATA
 0002:0000ac9c 00000048H .rdata$voltmd           DATA
 0002:0000ace4 00000434H .rdata$zzzdbg           DATA
 0002:0000b118 00000008H .rtc$IAA                DATA
 0002:0000b120 00000008H .rtc$IZZ                DATA
 0002:0000b128 00000008H .rtc$TAA                DATA
 0002:0000b130 00000008H .rtc$TZZ                DATA
 0002:0000b138 00000004H .tls                    DATA
 0002:0000b13c 00000004H .tls$                   DATA
 0002:0000b140 00000008H .tls$ZZZ                DATA
 0002:0000b148 00001900H .xdata                  DATA
 0002:0000ca48 00000150H .xdata$x                DATA
 0002:0000cb98 00000008H ATL$__a                 DATA
 0002:0000cba0 00000010H ATL$__z                 DATA
 0002:0000cbb0 000000a8H .edata                  DATA
 0002:0000cc58 00000078H .idata$2                DATA
 0002:0000ccd0 00000018H .idata$3                DATA
 0002:0000cce8 00000638H .idata$4                DATA
 0002:0000d320 00000c5cH .idata$6                DATA
 0003:00000000 00000d58H .data                   DATA
 0003:00000d58 000000a8H .data$r                 DATA
 0003:00000e00 00000020H .data$rs                DATA
 0003:00000e20 000013ecH .bss                    DATA
 0004:00000000 00001f98H .pdata                  DATA
 0005:00000000 000000f4H _RDATA                  DATA
 0006:00000000 00000220H .rsrc$01                DATA
 0006:00000220 000034f8H .rsrc$02                DATA

  Address         Publics by Value              Rva+Base               Lib:Object

 0000:00000000       ___safe_se_handler_table   0000000000000000     <absolute>
 0000:00000000       __guard_longjmp_table      0000000000000000     <absolute>
 0000:00000000       __x64_code_ranges_to_entry_points 0000000000000000     <absolute>
 0000:00000000       __arm64x_redirection_metadata 0000000000000000     <absolute>
 0000:00000000       __guard_iat_table          0000000000000000     <absolute>
 0000:00000000       __guard_fids_count         0000000000000000     <absolute>
 0000:00000000       __arm64x_extra_rfe_table   0000000000000000     <absolute>
 0000:00000000       __guard_iat_count          0000000000000000     <absolute>
 0000:00000000       __guard_longjmp_count      0000000000000000     <absolute>
 0000:00000000       __dynamic_value_reloc_table 0000000000000000     <absolute>
 0000:00000000       __x64_code_ranges_to_entry_points_count 0000000000000000     <absolute>
 0000:00000000       __hybrid_code_map          0000000000000000     <absolute>
 0000:00000000       __hybrid_auxiliary_iat     0000000000000000     <absolute>
 0000:00000000       __hybrid_auxiliary_iat_copy 0000000000000000     <absolute>
 0000:00000000       __arm64x_extra_rfe_table_size 0000000000000000     <absolute>
 0000:00000000       ___safe_se_handler_count   0000000000000000     <absolute>
 0000:00000000       __AbsoluteZero             0000000000000000     <absolute>
 0000:00000000       __guard_check_icall_a64n_fptr 0000000000000000     <absolute>
 0000:00000000       __guard_eh_cont_count      0000000000000000     <absolute>
 0000:00000000       __guard_fids_table         0000000000000000     <absolute>
 0000:00000000       __arm64x_redirection_metadata_count 0000000000000000     <absolute>
 0000:00000000       __enclave_config           0000000000000000     <absolute>
 0000:00000000       __guard_eh_cont_table      0000000000000000     <absolute>
 0000:00000000       __arm64x_native_entrypoint 0000000000000000     <absolute>
 0000:00000000       __hybrid_code_map_count    0000000000000000     <absolute>
 0000:00000100       __guard_flags              0000000000000100     <absolute>
 0000:00000000       __ImageBase                0000000180000000     <linker-defined>
 0001:000000c0       ?DupWide@_CW@@AEAAXXZ      00000001800010c0 f   CWString.obj
 0001:000000e8       ?cw_dup@@YAXPEBDAEAHAEAPEA_W1@Z 00000001800010e8 f   CWString.obj
 0001:000001c8       ?cw_memcpy@@YAHPEA_WPEBDH@Z 00000001800011c8 f   CWString.obj
 0001:00000214       ?cw_strcpy@@YAHPEA_WPEBD@Z 0000000180001214 f   CWString.obj
 0001:00000228       ??0CAtlComModule@ATL@@QEAA@XZ 0000000180001228 f i OposVariant.obj
 0001:000002a8       ??0CAtlWinModule@ATL@@QEAA@XZ 00000001800012a8 f i OposVariant.obj
 0001:00000314       ??0OposDispParms@@QEAA@PEAVOposVariant@@H@Z 0000000180001314 f   OposVariant.obj
 0001:000003bc       ??1OposDispParms@@QEAA@XZ  00000001800013bc f   OposVariant.obj
 0001:000003d4       ??_Estringdispid@CComTypeInfoHolder@ATL@@QEAAPEAXI@Z 00000001800013d4 f i OposVariant.obj
 0001:00000478       ?AtlWinModuleTerm@ATL@@YAJPEAU_ATL_WIN_MODULE70@1@PEAUHINSTANCE__@@@Z 0000000180001478 f i OposVariant.obj
 0001:00000528       ?ChangeBSTR@OposVariant@@QEAAXPEAPEA_WAEAJ@Z 0000000180001528 f   OposVariant.obj
 0001:00000588       ?ChangeLONG@OposVariant@@QEAAXPEAJAEAJ@Z 0000000180001588 f   OposVariant.obj
 0001:000005e4       ?GetLONG@OposVariant@@QEAAJXZ 00000001800015e4 f   OposVariant.obj
 0001:00000608       ?SetBSTR@OposVariant@@QEAAXPEA_WAEAJ@Z 0000000180001608 f   OposVariant.obj
 0001:00000648       ?SetBSTR_Copy@OposVariant@@QEAAXPEA_WAEAJ@Z 0000000180001648 f   OposVariant.obj
 0001:000006b8       ?SetBSTR_InOutPtr@OposVariant@@QEAA_NPEAPEA_WAEAJ@Z 00000001800016b8 f   OposVariant.obj
 0001:00000708       ?SetDispatch_Ptr@OposVariant@@QEAAXPEAUIDispatch@@AEAJ@Z 0000000180001708 f   OposVariant.obj
 0001:00000760       ?SetLONG@OposVariant@@QEAAXJ@Z 0000000180001760 f   OposVariant.obj
 0001:00000790       ?SetLONG_Ptr@OposVariant@@QEAAXPEAJAEAJ@Z 0000000180001790 f   OposVariant.obj
 0001:000007dc       ?SetString@OposVariant@@QEAAXPEB_WAEAJ@Z 00000001800017dc f   OposVariant.obj
 0001:00000840       ?SetVARIANT_BOOL@OposVariant@@QEAAXF@Z 0000000180001840 f   OposVariant.obj
 0001:00000878       ?Term@CAtlComModule@ATL@@QEAAXXZ 0000000180001878 f i OposVariant.obj
 0001:000008e8       ?_AtlInitializeCriticalSectionEx@ATL@@YAHPEAU_RTL_CRITICAL_SECTION@@KK@Z 00000001800018e8 f i OposVariant.obj
 0001:000008f0       ?_AtlRaiseException@ATL@@YAXKK@Z 00000001800018f0 f i OposVariant.obj
 0001:00000900       ?Next@?$CComEnumImpl@UIEnumConnections@@$1?_GUID_b196b287_bab4_101a_b69c_00aa00341d07@@3U__s_GUID@@BUtagCONNECTDATA@@V?$_Copy@UtagCONNECTDATA@@@ATL@@@ATL@@UEAAJKPEAUtagCONNECTDATA@@PEAK@Z 0000000180001900 f i Gate.obj
 0001:000009c8       ?Skip@?$CComEnumImpl@UIEnumConnections@@$1?_GUID_b196b287_bab4_101a_b69c_00aa00341d07@@3U__s_GUID@@BUtagCONNECTDATA@@V?$_Copy@UtagCONNECTDATA@@@ATL@@@ATL@@UEAAJK@Z 00000001800019c8 f i Gate.obj
 0001:000009f4       ?Reset@?$CComEnumImpl@UIEnumConnections@@$1?_GUID_b196b287_bab4_101a_b69c_00aa00341d07@@3U__s_GUID@@BUtagCONNECTDATA@@V?$_Copy@UtagCONNECTDATA@@@ATL@@@ATL@@UEAAJXZ 00000001800019f4 f i Gate.obj
 0001:000009f4       ?Reset@?$CComEnumImpl@UIEnumConnectionPoints@@$1?_GUID_b196b285_bab4_101a_b69c_00aa00341d07@@3U__s_GUID@@BPEAUIConnectionPoint@@V?$_CopyInterface@UIConnectionPoint@@@ATL@@@ATL@@UEAAJXZ 00000001800019f4 f i Gate.obj
 0001:00000a00       ?Clone@?$CComEnumImpl@UIEnumConnections@@$1?_GUID_b196b287_bab4_101a_b69c_00aa00341d07@@3U__s_GUID@@BUtagCONNECTDATA@@V?$_Copy@UtagCONNECTDATA@@@ATL@@@ATL@@UEAAJPEAPEAUIEnumConnections@@@Z 0000000180001a00 f i Gate.obj
 0001:00000b2c       ?AddRef@?$CComObject@V?$CComEnum@UIEnumConnections@@$1?_GUID_b196b287_bab4_101a_b69c_00aa00341d07@@3U__s_GUID@@BUtagCONNECTDATA@@V?$_Copy@UtagCONNECTDATA@@@ATL@@VCComSingleThreadModel@6@@ATL@@@ATL@@UEAAKXZ 0000000180001b2c f i Gate.obj
 0001:00000b2c       ?AddRef@?$CComObject@V?$CComEnum@UIEnumConnectionPoints@@$1?_GUID_b196b285_bab4_101a_b69c_00aa00341d07@@3U__s_GUID@@BPEAUIConnectionPoint@@V?$_CopyInterface@UIConnectionPoint@@@ATL@@VCComSingleThreadModel@6@@ATL@@@ATL@@UEAAKXZ 0000000180001b2c f i Gate.obj
 0001:00000b38       ?Release@?$CComObject@V?$CComEnum@UIEnumConnections@@$1?_GUID_b196b287_bab4_101a_b69c_00aa00341d07@@3U__s_GUID@@BUtagCONNECTDATA@@V?$_Copy@UtagCONNECTDATA@@@ATL@@VCComSingleThreadModel@6@@ATL@@@ATL@@UEAAKXZ 0000000180001b38 f i Gate.obj
 0001:00000b38       ?Release@?$CComObject@V?$CComEnum@UIEnumConnectionPoints@@$1?_GUID_b196b285_bab4_101a_b69c_00aa00341d07@@3U__s_GUID@@BPEAUIConnectionPoint@@V?$_CopyInterface@UIConnectionPoint@@@ATL@@VCComSingleThreadModel@6@@ATL@@@ATL@@UEAAKXZ 0000000180001b38 f i Gate.obj
 0001:00000b8c       ?QueryInterface@?$CComObject@V?$CComEnum@UIEnumConnections@@$1?_GUID_b196b287_bab4_101a_b69c_00aa00341d07@@3U__s_GUID@@BUtagCONNECTDATA@@V?$_Copy@UtagCONNECTDATA@@@ATL@@VCComSingleThreadModel@6@@ATL@@@ATL@@UEAAJAEBU_GUID@@PEAPEAX@Z 0000000180001b8c f i Gate.obj
 0001:00000ba0       ??_E?$CComObject@V?$CComEnum@UIEnumConnections@@$1?_GUID_b196b287_bab4_101a_b69c_00aa00341d07@@3U__s_GUID@@BUtagCONNECTDATA@@V?$_Copy@UtagCONNECTDATA@@@ATL@@VCComSingleThreadModel@6@@ATL@@@ATL@@UEAAPEAXI@Z 0000000180001ba0 f i Gate.obj
 0001:00000ba0       ??_G?$CComObject@V?$CComEnum@UIEnumConnections@@$1?_GUID_b196b287_bab4_101a_b69c_00aa00341d07@@3U__s_GUID@@BUtagCONNECTDATA@@V?$_Copy@UtagCONNECTDATA@@@ATL@@VCComSingleThreadModel@6@@ATL@@@ATL@@UEAAPEAXI@Z 0000000180001ba0 f i Gate.obj
 0001:00000bf8       _guard_check_icall_nop     0000000180001bf8 f i LIBCMT:guard_support.obj
 0001:00000bf8       ?ObjectMain@CComObjectRootBase@ATL@@SAX_N@Z 0000000180001bf8 f i Gate.obj
 0001:00000bf8       ?OnFinalMessage@?$CWindowImplBaseT@VCWindow@ATL@@V?$CWinTraits@$0FGAAAAAA@$0A@@2@@ATL@@UEAAXPEAUHWND__@@@Z 0000000180001bf8 f i Gate.obj
 0001:00000bfc       ?Release@CRegObject@ATL@@UEAAKXZ 0000000180001bfc f i Gate.obj
 0001:00000bfc       ?ResizeBorder@?$IOleInPlaceActiveObjectImpl@VCOPOSGate@@@ATL@@UEAAJPEBUtagRECT@@PEAUIOleInPlaceUIWindow@@H@Z 0000000180001bfc f i Gate.obj
 0001:00000bfc       ?EnableModeless@?$IOleInPlaceActiveObjectImpl@VCOPOSGate@@@ATL@@UEAAJH@Z 0000000180001bfc f i Gate.obj
 0001:00000bfc       ?SaveCompleted@?$IPersistStorageImpl@VCOPOSGate@@@ATL@@UEAAJPEAUIStorage@@@Z 0000000180001bfc f i Gate.obj
 0001:00000bfc       ?HandsOffStorage@?$IPersistStorageImpl@VCOPOSGate@@@ATL@@UEAAJXZ 0000000180001bfc f i Gate.obj
 0001:00000bfc       ?GetCategoryMap@CComObjectRootBase@ATL@@SAPEBU_ATL_CATMAP_ENTRY@2@XZ 0000000180001bfc f i Gate.obj
 0001:00000bfc       ?OnFrameWindowActivate@?$IOleInPlaceActiveObjectImpl@VCOPOSGate@@@ATL@@UEAAJH@Z 0000000180001bfc f i Gate.obj
 0001:00000bfc       ?OnAmbientPropertyChange@?$IOleControlImpl@VCOPOSGate@@@ATL@@UEAAJJ@Z 0000000180001bfc f i Gate.obj
 0001:00000bfc       ?Update@?$IOleObjectImpl@VCOPOSGate@@@ATL@@UEAAJXZ 0000000180001bfc f i Gate.obj
 0001:00000bfc       ?SetHostNames@?$IOleObjectImpl@VCOPOSGate@@@ATL@@UEAAJPEB_W0@Z 0000000180001bfc f i Gate.obj
 0001:00000bfc       ?GetObjectDescription@?$CComCoClass@VCOPOSGate@@$1?CLSID_OPOSGate@@3U_GUID@@B@ATL@@SAPEB_WXZ 0000000180001bfc f i Gate.obj
 0001:00000bfc       ?IsUpToDate@?$IOleObjectImpl@VCOPOSGate@@@ATL@@UEAAJXZ 0000000180001bfc f i Gate.obj
 0001:00000c00       ??_E?$CComObject@VCOPOSGate@@@ATL@@W7EAAPEAXI@Z 0000000180001c00 f i Gate.obj
 0001:00000c0c       ??_E?$CComObject@VCOPOSGate@@@ATL@@WHA@EAAPEAXI@Z 0000000180001c0c f i Gate.obj
 0001:00000c18       ?QueryInterface@?$CComObject@VCOPOSGate@@@ATL@@WLI@EAAJAEBU_GUID@@PEAPEAX@Z 0000000180001c18 f i Gate.obj
 0001:00000c24       ?AddRef@?$CComObject@VCOPOSGate@@@ATL@@WLI@EAAKXZ 0000000180001c24 f i Gate.obj
 0001:00000c30       ?Release@?$CComObject@VCOPOSGate@@@ATL@@WLI@EAAKXZ 0000000180001c30 f i Gate.obj
 0001:00000c3c       ?QueryInterface@?$CComObject@VCOPOSGate@@@ATL@@WMA@EAAJAEBU_GUID@@PEAPEAX@Z 0000000180001c3c f i Gate.obj
 0001:00000c48       ?AddRef@?$CComObject@VCOPOSGate@@@ATL@@WMA@EAAKXZ 0000000180001c48 f i Gate.obj
 0001:00000c54       ?Release@?$CComObject@VCOPOSGate@@@ATL@@WMA@EAAKXZ 0000000180001c54 f i Gate.obj
 0001:00000c60       ?QueryInterface@?$CComObject@VCOPOSGate@@@ATL@@WMI@EAAJAEBU_GUID@@PEAPEAX@Z 0000000180001c60 f i Gate.obj
 0001:00000c6c       ?AddRef@?$CComObject@VCOPOSGate@@@ATL@@WMI@EAAKXZ 0000000180001c6c f i Gate.obj
 0001:00000c78       ?Release@?$CComObject@VCOPOSGate@@@ATL@@WMI@EAAKXZ 0000000180001c78 f i Gate.obj
 0001:00000c84       ?QueryInterface@?$CComObject@VCOPOSGate@@@ATL@@WNA@EAAJAEBU_GUID@@PEAPEAX@Z 0000000180001c84 f i Gate.obj
 0001:00000c90       ?AddRef@?$CComObject@VCOPOSGate@@@ATL@@WNA@EAAKXZ 0000000180001c90 f i Gate.obj
 0001:00000c9c       ?Release@?$CComObject@VCOPOSGate@@@ATL@@WNA@EAAKXZ 0000000180001c9c f i Gate.obj
 0001:00000ca8       ?QueryInterface@?$CComObject@VCOPOSGate@@@ATL@@WNI@EAAJAEBU_GUID@@PEAPEAX@Z 0000000180001ca8 f i Gate.obj
 0001:00000cb4       ?AddRef@?$CComObject@VCOPOSGate@@@ATL@@WNI@EAAKXZ 0000000180001cb4 f i Gate.obj
 0001:00000cc0       ?Release@?$CComObject@VCOPOSGate@@@ATL@@WNI@EAAKXZ 0000000180001cc0 f i Gate.obj
 0001:00000ccc       ?QueryInterface@?$CComObject@VCOPOSGate@@@ATL@@WOA@EAAJAEBU_GUID@@PEAPEAX@Z 0000000180001ccc f i Gate.obj
 0001:00000cd8       ?AddRef@?$CComObject@VCOPOSGate@@@ATL@@WOA@EAAKXZ 0000000180001cd8 f i Gate.obj
 0001:00000ce4       ?Release@?$CComObject@VCOPOSGate@@@ATL@@WOA@EAAKXZ 0000000180001ce4 f i Gate.obj
 0001:00000cf0       ?QueryInterface@?$CComObject@VCOPOSGate@@@ATL@@WOI@EAAJAEBU_GUID@@PEAPEAX@Z 0000000180001cf0 f i Gate.obj
 0001:00000cfc       ?AddRef@?$CComObject@VCOPOSGate@@@ATL@@WOI@EAAKXZ 0000000180001cfc f i Gate.obj
 0001:00000d08       ?Release@?$CComObject@VCOPOSGate@@@ATL@@WOI@EAAKXZ 0000000180001d08 f i Gate.obj
 0001:00000d14       ?QueryInterface@?$CComObject@VCOPOSGate@@@ATL@@WPA@EAAJAEBU_GUID@@PEAPEAX@Z 0000000180001d14 f i Gate.obj
 0001:00000d20       ?AddRef@?$CComObject@VCOPOSGate@@@ATL@@WPA@EAAKXZ 0000000180001d20 f i Gate.obj
 0001:00000d2c       ?Release@?$CComObject@VCOPOSGate@@@ATL@@WPA@EAAKXZ 0000000180001d2c f i Gate.obj
 0001:00000d38       ?QueryInterface@?$CComObject@VCOPOSGate@@@ATL@@WPI@EAAJAEBU_GUID@@PEAPEAX@Z 0000000180001d38 f i Gate.obj
 0001:00000d44       ?AddRef@?$CComObject@VCOPOSGate@@@ATL@@WPI@EAAKXZ 0000000180001d44 f i Gate.obj
 0001:00000d50       ?Release@?$CComObject@VCOPOSGate@@@ATL@@WPI@EAAKXZ 0000000180001d50 f i Gate.obj
 0001:00000d5c       ?QueryInterface@?$CComObject@VCOPOSGate@@@ATL@@WBAA@EAAJAEBU_GUID@@PEAPEAX@Z 0000000180001d5c f i Gate.obj
 0001:00000d68       ?AddRef@?$CComObject@VCOPOSGate@@@ATL@@WBAA@EAAKXZ 0000000180001d68 f i Gate.obj
 0001:00000d74       ?Release@?$CComObject@VCOPOSGate@@@ATL@@WBAA@EAAKXZ 0000000180001d74 f i Gate.obj
 0001:00000d80       ?QueryInterface@?$CComObject@VCOPOSGate@@@ATL@@WBAI@EAAJAEBU_GUID@@PEAPEAX@Z 0000000180001d80 f i Gate.obj
 0001:00000d8c       ?AddRef@?$CComObject@VCOPOSGate@@@ATL@@WBAI@EAAKXZ 0000000180001d8c f i Gate.obj
 0001:00000d98       ?Release@?$CComObject@VCOPOSGate@@@ATL@@WBAI@EAAKXZ 0000000180001d98 f i Gate.obj
 0001:00000da4       ?QueryInterface@?$CComObject@VCOPOSGate@@@ATL@@WBBA@EAAJAEBU_GUID@@PEAPEAX@Z 0000000180001da4 f i Gate.obj
 0001:00000db0       ?AddRef@?$CComObject@VCOPOSGate@@@ATL@@WBBA@EAAKXZ 0000000180001db0 f i Gate.obj
 0001:00000dbc       ?Release@?$CComObject@VCOPOSGate@@@ATL@@WBBA@EAAKXZ 0000000180001dbc f i Gate.obj
 0001:00000dc8       ?QueryInterface@?$CComObject@VCOPOSGate@@@ATL@@WBBI@EAAJAEBU_GUID@@PEAPEAX@Z 0000000180001dc8 f i Gate.obj
 0001:00000dd4       ?AddRef@?$CComObject@VCOPOSGate@@@ATL@@WBBI@EAAKXZ 0000000180001dd4 f i Gate.obj
 0001:00000de0       ?Release@?$CComObject@VCOPOSGate@@@ATL@@WBBI@EAAKXZ 0000000180001de0 f i Gate.obj
 0001:00000dec       ?AddRef@?$CComObject@VCOPOSGate@@@ATL@@WBCI@EAAKXZ 0000000180001dec f i Gate.obj
 0001:00000df8       ?Release@?$CComObject@VCOPOSGate@@@ATL@@WBCI@EAAKXZ 0000000180001df8 f i Gate.obj
 0001:00000e04       ?AddRef@?$CComObject@VCOPOSGate@@@ATL@@WBEA@EAAKXZ 0000000180001e04 f i Gate.obj
 0001:00000e10       ?Release@?$CComObject@VCOPOSGate@@@ATL@@WBEA@EAAKXZ 0000000180001e10 f i Gate.obj
 0001:00000e1c       ??_E?$CComContainedObject@VCOPOSGate@@@ATL@@W7EAAPEAXI@Z 0000000180001e1c f i Gate.obj
 0001:00000e28       ??_E?$CComContainedObject@VCOPOSGate@@@ATL@@WHA@EAAPEAXI@Z 0000000180001e28 f i Gate.obj
 0001:00000e34       ?QueryInterface@?$CComContainedObject@VCOPOSGate@@@ATL@@WLI@EAAJAEBU_GUID@@PEAPEAX@Z 0000000180001e34 f i Gate.obj
 0001:00000e40       ?AddRef@?$CComContainedObject@VCOPOSGate@@@ATL@@WLI@EAAKXZ 0000000180001e40 f i Gate.obj
 0001:00000e4c       ?Release@?$CComContainedObject@VCOPOSGate@@@ATL@@WLI@EAAKXZ 0000000180001e4c f i Gate.obj
 0001:00000e58       ?QueryInterface@?$CComContainedObject@VCOPOSGate@@@ATL@@WMA@EAAJAEBU_GUID@@PEAPEAX@Z 0000000180001e58 f i Gate.obj
 0001:00000e64       ?AddRef@?$CComContainedObject@VCOPOSGate@@@ATL@@WMA@EAAKXZ 0000000180001e64 f i Gate.obj
 0001:00000e70       ?Release@?$CComContainedObject@VCOPOSGate@@@ATL@@WMA@EAAKXZ 0000000180001e70 f i Gate.obj
 0001:00000e7c       ?QueryInterface@?$CComContainedObject@VCOPOSGate@@@ATL@@WMI@EAAJAEBU_GUID@@PEAPEAX@Z 0000000180001e7c f i Gate.obj
 0001:00000e88       ?AddRef@?$CComContainedObject@VCOPOSGate@@@ATL@@WMI@EAAKXZ 0000000180001e88 f i Gate.obj
 0001:00000e94       ?Release@?$CComContainedObject@VCOPOSGate@@@ATL@@WMI@EAAKXZ 0000000180001e94 f i Gate.obj
 0001:00000ea0       ?QueryInterface@?$CComContainedObject@VCOPOSGate@@@ATL@@WNA@EAAJAEBU_GUID@@PEAPEAX@Z 0000000180001ea0 f i Gate.obj
 0001:00000eac       ?AddRef@?$CComContainedObject@VCOPOSGate@@@ATL@@WNA@EAAKXZ 0000000180001eac f i Gate.obj
 0001:00000eb8       ?Release@?$CComContainedObject@VCOPOSGate@@@ATL@@WNA@EAAKXZ 0000000180001eb8 f i Gate.obj
 0001:00000ec4       ?QueryInterface@?$CComContainedObject@VCOPOSGate@@@ATL@@WNI@EAAJAEBU_GUID@@PEAPEAX@Z 0000000180001ec4 f i Gate.obj
 0001:00000ed0       ?AddRef@?$CComContainedObject@VCOPOSGate@@@ATL@@WNI@EAAKXZ 0000000180001ed0 f i Gate.obj
 0001:00000edc       ?Release@?$CComContainedObject@VCOPOSGate@@@ATL@@WNI@EAAKXZ 0000000180001edc f i Gate.obj
 0001:00000ee8       ?QueryInterface@?$CComContainedObject@VCOPOSGate@@@ATL@@WOA@EAAJAEBU_GUID@@PEAPEAX@Z 0000000180001ee8 f i Gate.obj
 0001:00000ef4       ?AddRef@?$CComContainedObject@VCOPOSGate@@@ATL@@WOA@EAAKXZ 0000000180001ef4 f i Gate.obj
 0001:00000f00       ?Release@?$CComContainedObject@VCOPOSGate@@@ATL@@WOA@EAAKXZ 0000000180001f00 f i Gate.obj
 0001:00000f0c       ?QueryInterface@?$CComContainedObject@VCOPOSGate@@@ATL@@WOI@EAAJAEBU_GUID@@PEAPEAX@Z 0000000180001f0c f i Gate.obj
 0001:00000f18       ?AddRef@?$CComContainedObject@VCOPOSGate@@@ATL@@WOI@EAAKXZ 0000000180001f18 f i Gate.obj
 0001:00000f24       ?Release@?$CComContainedObject@VCOPOSGate@@@ATL@@WOI@EAAKXZ 0000000180001f24 f i Gate.obj
 0001:00000f30       ?QueryInterface@?$CComContainedObject@VCOPOSGate@@@ATL@@WPA@EAAJAEBU_GUID@@PEAPEAX@Z 0000000180001f30 f i Gate.obj
 0001:00000f3c       ?AddRef@?$CComContainedObject@VCOPOSGate@@@ATL@@WPA@EAAKXZ 0000000180001f3c f i Gate.obj
 0001:00000f48       ?Release@?$CComContainedObject@VCOPOSGate@@@ATL@@WPA@EAAKXZ 0000000180001f48 f i Gate.obj
 0001:00000f54       ?QueryInterface@?$CComContainedObject@VCOPOSGate@@@ATL@@WPI@EAAJAEBU_GUID@@PEAPEAX@Z 0000000180001f54 f i Gate.obj
 0001:00000f60       ?AddRef@?$CComContainedObject@VCOPOSGate@@@ATL@@WPI@EAAKXZ 0000000180001f60 f i Gate.obj
 0001:00000f6c       ?Release@?$CComContainedObject@VCOPOSGate@@@ATL@@WPI@EAAKXZ 0000000180001f6c f i Gate.obj
 0001:00000f78       ?QueryInterface@?$CComContainedObject@VCOPOSGate@@@ATL@@WBAA@EAAJAEBU_GUID@@PEAPEAX@Z 0000000180001f78 f i Gate.obj
 0001:00000f84       ?AddRef@?$CComContainedObject@VCOPOSGate@@@ATL@@WBAA@EAAKXZ 0000000180001f84 f i Gate.obj
 0001:00000f90       ?Release@?$CComContainedObject@VCOPOSGate@@@ATL@@WBAA@EAAKXZ 0000000180001f90 f i Gate.obj
 0001:00000f9c       ?QueryInterface@?$CComContainedObject@VCOPOSGate@@@ATL@@WBAI@EAAJAEBU_GUID@@PEAPEAX@Z 0000000180001f9c f i Gate.obj
 0001:00000fa8       ?AddRef@?$CComContainedObject@VCOPOSGate@@@ATL@@WBAI@EAAKXZ 0000000180001fa8 f i Gate.obj
 0001:00000fb4       ?Release@?$CComContainedObject@VCOPOSGate@@@ATL@@WBAI@EAAKXZ 0000000180001fb4 f i Gate.obj
 0001:00000fc0       ?QueryInterface@?$CComContainedObject@VCOPOSGate@@@ATL@@WBBA@EAAJAEBU_GUID@@PEAPEAX@Z 0000000180001fc0 f i Gate.obj
 0001:00000fcc       ?AddRef@?$CComContainedObject@VCOPOSGate@@@ATL@@WBBA@EAAKXZ 0000000180001fcc f i Gate.obj
 0001:00000fd8       ?Release@?$CComContainedObject@VCOPOSGate@@@ATL@@WBBA@EAAKXZ 0000000180001fd8 f i Gate.obj
 0001:00000fe4       ?QueryInterface@?$CComContainedObject@VCOPOSGate@@@ATL@@WBBI@EAAJAEBU_GUID@@PEAPEAX@Z 0000000180001fe4 f i Gate.obj
 0001:00000ff0       ?AddRef@?$CComContainedObject@VCOPOSGate@@@ATL@@WBBI@EAAKXZ 0000000180001ff0 f i Gate.obj
 0001:00000ffc       ?Release@?$CComContainedObject@VCOPOSGate@@@ATL@@WBBI@EAAKXZ 0000000180001ffc f i Gate.obj
 0001:00001008       ?AddRef@?$CComContainedObject@VCOPOSGate@@@ATL@@WBCI@EAAKXZ 0000000180002008 f i Gate.obj
 0001:00001014       ?Release@?$CComContainedObject@VCOPOSGate@@@ATL@@WBCI@EAAKXZ 0000000180002014 f i Gate.obj
 0001:00001020       ?AddRef@?$CComContainedObject@VCOPOSGate@@@ATL@@WBEA@EAAKXZ 0000000180002020 f i Gate.obj
 0001:0000102c       ?Release@?$CComContainedObject@VCOPOSGate@@@ATL@@WBEA@EAAKXZ 000000018000202c f i Gate.obj
 0001:00001038       ?CreateInstance@CComClassFactory@ATL@@UEAAJPEAUIUnknown@@AEBU_GUID@@PEAPEAX@Z 0000000180002038 f i Gate.obj
 0001:00001098       ?LockServer@CComClassFactory@ATL@@UEAAJH@Z 0000000180002098 f i Gate.obj
 0001:000010bc       ??_GCComClassFactory@ATL@@UEAAPEAXI@Z 00000001800020bc f i Gate.obj
 0001:000010bc       ??_ECComClassFactory@ATL@@UEAAPEAXI@Z 00000001800020bc f i Gate.obj
 0001:0000110c       ?GetWindowProc@?$CWindowImplBaseT@VCWindow@ATL@@V?$CWinTraits@$0FGAAAAAA@$0A@@2@@ATL@@UEAAP6A_JPEAUHWND__@@I_K_J@ZXZ 000000018000210c f i Gate.obj
 0001:00001114       ?StartWindowProc@?$CWindowImplBaseT@VCWindow@ATL@@V?$CWinTraits@$0FGAAAAAA@$0A@@2@@ATL@@SA_JPEAUHWND__@@I_K_J@Z 0000000180002114 f i Gate.obj
 0001:000011c8       ?GetTypeInfoCount@?$IDispatchImpl@UIOPOSGate@@$1?IID_IOPOSGate@@3U_GUID@@B$1?LIBID_OposGate_CCO@@3U3@B$00$0A@VCComTypeInfoHolder@ATL@@@ATL@@UEAAJPEAI@Z 00000001800021c8 f i Gate.obj
 0001:000011dc       ?GetTypeInfo@?$IDispatchImpl@UIOPOSGate@@$1?IID_IOPOSGate@@3U_GUID@@B$1?LIBID_OposGate_CCO@@3U3@B$00$0A@VCComTypeInfoHolder@ATL@@@ATL@@UEAAJIKPEAPEAUITypeInfo@@@Z 00000001800021dc f i Gate.obj
 0001:00001240       ?GetIDsOfNames@?$IDispatchImpl@UIOPOSGate@@$1?IID_IOPOSGate@@3U_GUID@@B$1?LIBID_OposGate_CCO@@3U3@B$00$0A@VCComTypeInfoHolder@ATL@@@ATL@@UEAAJAEBU_GUID@@PEAPEA_WIKPEAJ@Z 0000000180002240 f i Gate.obj
 0001:0000124c       ?Invoke@?$IDispatchImpl@UIOPOSGate@@$1?IID_IOPOSGate@@3U_GUID@@B$1?LIBID_OposGate_CCO@@3U3@B$00$0A@VCComTypeInfoHolder@ATL@@@ATL@@UEAAJJAEBU_GUID@@KGPEAUtagDISPPARAMS@@PEAUtagVARIANT@@PEAUtagEXCEPINFO@@PEAI@Z 000000018000224c f i Gate.obj
 0001:000012dc       ?CreateControlWindow@?$CComControl@VCOPOSGate@@V?$CWindowImpl@VCOPOSGate@@VCWindow@ATL@@V?$CWinTraits@$0FGAAAAAA@$0A@@3@@ATL@@@ATL@@UEAAPEAUHWND__@@PEAU3@AEAUtagRECT@@@Z 00000001800022dc f i Gate.obj
 0001:00001314       ?ControlQueryInterface@?$CComControl@VCOPOSGate@@V?$CWindowImpl@VCOPOSGate@@VCWindow@ATL@@V?$CWinTraits@$0FGAAAAAA@$0A@@3@@ATL@@@ATL@@UEAAJAEBU_GUID@@PEAPEAX@Z 0000000180002314 f i Gate.obj
 0001:00001328       ?GetUserClassID@?$IOleObjectImpl@VCOPOSGate@@@ATL@@UEAAJPEAU_GUID@@@Z 0000000180002328 f i Gate.obj
 0001:00001328       ?GetClassID@?$IPersistStreamInitImpl@VCOPOSGate@@@ATL@@UEAAJPEAU_GUID@@@Z 0000000180002328 f i Gate.obj
 0001:00001328       ?GetClassID@?$IPersistStorageImpl@VCOPOSGate@@@ATL@@UEAAJPEAU_GUID@@@Z 0000000180002328 f i Gate.obj
 0001:00001344       ?IsDirty@?$IPersistStreamInitImpl@VCOPOSGate@@@ATL@@UEAAJXZ 0000000180002344 f i Gate.obj
 0001:00001360       ?Load@?$IPersistStreamInitImpl@VCOPOSGate@@@ATL@@UEAAJPEAUIStream@@@Z 0000000180002360 f i Gate.obj
 0001:00001378       ?Save@?$IPersistStreamInitImpl@VCOPOSGate@@@ATL@@UEAAJPEAUIStream@@H@Z 0000000180002378 f i Gate.obj
 0001:00001390       ?GetSizeMax@?$IPersistStreamInitImpl@VCOPOSGate@@@ATL@@UEAAJPEAT_ULARGE_INTEGER@@@Z 0000000180002390 f i Gate.obj
 0001:000015b4       ?InitNew@?$IPersistStreamInitImpl@VCOPOSGate@@@ATL@@UEAAJXZ 00000001800025b4 f i Gate.obj
 0001:000015cc       ?SetMoniker@?$IOleObjectImpl@VCOPOSGate@@@ATL@@UEAAJKPEAUIMoniker@@@Z 00000001800025cc f i Gate.obj
 0001:000015cc       ?QueryGetData@?$IDataObjectImpl@VCOPOSGate@@@ATL@@UEAAJPEAUtagFORMATETC@@@Z 00000001800025cc f i Gate.obj
 0001:000015cc       ?ContextSensitiveHelp@?$IOleInPlaceActiveObjectImpl@VCOPOSGate@@@ATL@@UEAAJH@Z 00000001800025cc f i Gate.obj
 0001:000015cc       ?InitFromData@?$IOleObjectImpl@VCOPOSGate@@@ATL@@UEAAJPEAUIDataObject@@HK@Z 00000001800025cc f i Gate.obj
 0001:000015cc       ?Freeze@?$IViewObjectExImpl@VCOPOSGate@@@ATL@@UEAAJKJPEAXPEAK@Z 00000001800025cc f i Gate.obj
 0001:000015cc       ?GetDataHere@?$IDataObjectImpl@VCOPOSGate@@@ATL@@UEAAJPEAUtagFORMATETC@@PEAUtagSTGMEDIUM@@@Z 00000001800025cc f i Gate.obj
 0001:000015cc       ?OnMnemonic@?$IOleControlImpl@VCOPOSGate@@@ATL@@UEAAJPEAUtagMSG@@@Z 00000001800025cc f i Gate.obj
 0001:000015cc       ?SODataDummy@COPOSGate@@MEAAJJ@Z 00000001800025cc f i Gate.obj
 0001:000015cc       ?GetDropTarget@?$IOleInPlaceObjectWindowlessImpl@VCOPOSGate@@@ATL@@UEAAJPEAPEAUIDropTarget@@@Z 00000001800025cc f i Gate.obj
 0001:000015cc       ?ReactivateAndUndo@?$IOleInPlaceObjectWindowlessImpl@VCOPOSGate@@@ATL@@UEAAJXZ 00000001800025cc f i Gate.obj
 0001:000015cc       ?EnumFormatEtc@?$IDataObjectImpl@VCOPOSGate@@@ATL@@UEAAJKPEAPEAUIEnumFORMATETC@@@Z 00000001800025cc f i Gate.obj
 0001:000015cc       ?GetClipboardData@?$IOleObjectImpl@VCOPOSGate@@@ATL@@UEAAJKPEAPEAUIDataObject@@@Z 00000001800025cc f i Gate.obj
 0001:000015cc       ?ContextSensitiveHelp@?$IOleInPlaceObjectWindowlessImpl@VCOPOSGate@@@ATL@@UEAAJH@Z 00000001800025cc f i Gate.obj
 0001:000015cc       ?GetCanonicalFormatEtc@?$IDataObjectImpl@VCOPOSGate@@@ATL@@UEAAJPEAUtagFORMATETC@@0@Z 00000001800025cc f i Gate.obj
 0001:000015cc       ?SOOutputCompleteDummy@COPOSGate@@MEAAJJ@Z 00000001800025cc f i Gate.obj
 0001:000015cc       ?SetData@?$IDataObjectImpl@VCOPOSGate@@@ATL@@UEAAJPEAUtagFORMATETC@@PEAUtagSTGMEDIUM@@H@Z 00000001800025cc f i Gate.obj
 0001:000015cc       ?QueryInterface@CRegObject@ATL@@UEAAJAEBU_GUID@@PEAPEAX@Z 00000001800025cc f i Gate.obj
 0001:000015cc       ?Unfreeze@?$IViewObjectExImpl@VCOPOSGate@@@ATL@@UEAAJK@Z 00000001800025cc f i Gate.obj
 0001:000015cc       ?SOErrorDummy@COPOSGate@@MEAAJJJJPEAJ@Z 00000001800025cc f i Gate.obj
 0001:000015cc       ?GetColorSet@?$IViewObjectExImpl@VCOPOSGate@@@ATL@@UEAAJKJPEAXPEAUtagDVTARGETDEVICE@@PEAUHDC__@@PEAPEAUtagLOGPALETTE@@@Z 00000001800025cc f i Gate.obj
 0001:000015cc       ?GetControlInfo@?$IOleControlImpl@VCOPOSGate@@@ATL@@UEAAJPEAUtagCONTROLINFO@@@Z 00000001800025cc f i Gate.obj
 0001:000015cc       ?SetColorScheme@?$IOleObjectImpl@VCOPOSGate@@@ATL@@UEAAJPEAUtagLOGPALETTE@@@Z 00000001800025cc f i Gate.obj
 0001:000015cc       ?GetRect@?$IViewObjectExImpl@VCOPOSGate@@@ATL@@UEAAJKPEAU_RECTL@@@Z 00000001800025cc f i Gate.obj
 0001:000015cc       ?GetMoniker@?$IOleObjectImpl@VCOPOSGate@@@ATL@@UEAAJKKPEAPEAUIMoniker@@@Z 00000001800025cc f i Gate.obj
 0001:000015d4       ?SetClientSite@?$IOleObjectImpl@VCOPOSGate@@@ATL@@UEAAJPEAUIOleClientSite@@@Z 00000001800025d4 f i Gate.obj
 0001:000015f0       ?GetClientSite@?$IOleObjectImpl@VCOPOSGate@@@ATL@@UEAAJPEAPEAUIOleClientSite@@@Z 00000001800025f0 f i Gate.obj
 0001:00001638       ?Close@?$IOleObjectImpl@VCOPOSGate@@@ATL@@UEAAJK@Z 0000000180002638 f i Gate.obj
 0001:00001654       ?DoVerb@?$IOleObjectImpl@VCOPOSGate@@@ATL@@UEAAJJPEAUtagMSG@@PEAUIOleClientSite@@JPEAUHWND__@@PEBUtagRECT@@@Z 0000000180002654 f i Gate.obj
 0001:000017f8       ?EnumVerbs@?$IOleObjectImpl@VCOPOSGate@@@ATL@@UEAAJPEAPEAUIEnumOLEVERB@@@Z 00000001800027f8 f i Gate.obj
 0001:00001814       ?GetUserType@?$IOleObjectImpl@VCOPOSGate@@@ATL@@UEAAJKPEAPEA_W@Z 0000000180002814 f i Gate.obj
 0001:00001824       ?SetExtent@?$IOleObjectImpl@VCOPOSGate@@@ATL@@UEAAJKPEAUtagSIZE@@@Z 0000000180002824 f i Gate.obj
 0001:00001840       ?GetExtent@?$IOleObjectImpl@VCOPOSGate@@@ATL@@UEAAJKPEAUtagSIZE@@@Z 0000000180002840 f i Gate.obj
 0001:00001870       ?Advise@?$IOleObjectImpl@VCOPOSGate@@@ATL@@UEAAJPEAUIAdviseSink@@PEAK@Z 0000000180002870 f i Gate.obj
 0001:000018cc       ?Unadvise@?$IOleObjectImpl@VCOPOSGate@@@ATL@@UEAAJK@Z 00000001800028cc f i Gate.obj
 0001:00001904       ?EnumAdvise@?$IOleObjectImpl@VCOPOSGate@@@ATL@@UEAAJPEAPEAUIEnumSTATDATA@@@Z 0000000180002904 f i Gate.obj
 0001:0000194c       ?GetMiscStatus@?$IOleObjectImpl@VCOPOSGate@@@ATL@@UEAAJKPEAK@Z 000000018000294c f i Gate.obj
 0001:0000195c       ?GetWindow@?$IOleInPlaceActiveObjectImpl@VCOPOSGate@@@ATL@@UEAAJPEAPEAUHWND__@@@Z 000000018000295c f i Gate.obj
 0001:000019b0       ?TranslateAcceleratorW@?$IOleInPlaceActiveObjectImpl@VCOPOSGate@@@ATL@@UEAAJPEAUtagMSG@@@Z 00000001800029b0 f i Gate.obj
 0001:00001aa4       ?OnDocWindowActivate@?$IOleInPlaceActiveObjectImpl@VCOPOSGate@@@ATL@@UEAAJH@Z 0000000180002aa4 f i Gate.obj
 0001:00001ad0       ?Draw@?$IViewObjectExImpl@VCOPOSGate@@@ATL@@UEAAJKJPEAXPEAUtagDVTARGETDEVICE@@PEAUHDC__@@2PEBU_RECTL@@3P6AH_K@Z4@Z 0000000180002ad0 f i Gate.obj
 0001:00001b34       ?SetAdvise@?$IViewObjectExImpl@VCOPOSGate@@@ATL@@UEAAJKKPEAUIAdviseSink@@@Z 0000000180002b34 f i Gate.obj
 0001:00001b88       ?GetAdvise@?$IViewObjectExImpl@VCOPOSGate@@@ATL@@UEAAJPEAK0PEAPEAUIAdviseSink@@@Z 0000000180002b88 f i Gate.obj
 0001:00001bc4       ?GetExtent@?$IViewObjectExImpl@VCOPOSGate@@@ATL@@UEAAJKJPEAUtagDVTARGETDEVICE@@PEAUtagSIZE@@@Z 0000000180002bc4 f i Gate.obj
 0001:00001bf4       ?GetViewStatus@?$IViewObjectExImpl@VCOPOSGate@@@ATL@@UEAAJPEAK@Z 0000000180002bf4 f i Gate.obj
 0001:00001c08       ?QueryHitPoint@?$IViewObjectExImpl@VCOPOSGate@@@ATL@@UEAAJKPEBUtagRECT@@UtagPOINT@@JPEAK@Z 0000000180002c08 f i Gate.obj
 0001:00001c4c       ?QueryHitRect@?$IViewObjectExImpl@VCOPOSGate@@@ATL@@UEAAJKPEBUtagRECT@@0JPEAK@Z 0000000180002c4c f i Gate.obj
 0001:00001cb4       ?GetNaturalExtent@?$IViewObjectExImpl@VCOPOSGate@@@ATL@@UEAAJKJPEAUtagDVTARGETDEVICE@@PEAUHDC__@@PEAUtagExtentInfo@@PEAUtagSIZE@@@Z 0000000180002cb4 f i Gate.obj
 0001:00001cfc       ?GetWindow@?$IOleInPlaceObjectWindowlessImpl@VCOPOSGate@@@ATL@@UEAAJPEAPEAUHWND__@@@Z 0000000180002cfc f i Gate.obj
 0001:00001d50       ?InPlaceDeactivate@?$IOleInPlaceObjectWindowlessImpl@VCOPOSGate@@@ATL@@UEAAJXZ 0000000180002d50 f i Gate.obj
 0001:00001d6c       ?UIDeactivate@?$IOleInPlaceObjectWindowlessImpl@VCOPOSGate@@@ATL@@UEAAJXZ 0000000180002d6c f i Gate.obj
 0001:00001d88       ?SetObjectRects@?$IOleInPlaceObjectWindowlessImpl@VCOPOSGate@@@ATL@@UEAAJPEBUtagRECT@@0@Z 0000000180002d88 f i Gate.obj
 0001:00001da4       ?OnWindowMessage@?$IOleInPlaceObjectWindowlessImpl@VCOPOSGate@@@ATL@@UEAAJI_K_JPEA_J@Z 0000000180002da4 f i Gate.obj
 0001:00001e6c       ?EnumConnectionPoints@?$IConnectionPointContainerImpl@VCOPOSGate@@@ATL@@UEAAJPEAPEAUIEnumConnectionPoints@@@Z 0000000180002e6c f i Gate.obj
 0001:000020b4       ?FindConnectionPoint@?$IConnectionPointContainerImpl@VCOPOSGate@@@ATL@@UEAAJAEBU_GUID@@PEAPEAUIConnectionPoint@@@Z 00000001800030b4 f i Gate.obj
 0001:00002184       ?IsDirty@?$IPersistStorageImpl@VCOPOSGate@@@ATL@@UEAAJXZ 0000000180003184 f i Gate.obj
 0001:000021c4       ?InitNew@?$IPersistStorageImpl@VCOPOSGate@@@ATL@@UEAAJPEAUIStorage@@@Z 00000001800031c4 f i Gate.obj
 0001:00002204       ?Load@?$IPersistStorageImpl@VCOPOSGate@@@ATL@@UEAAJPEAUIStorage@@@Z 0000000180003204 f i Gate.obj
 0001:000022a4       ?Save@?$IPersistStorageImpl@VCOPOSGate@@@ATL@@UEAAJPEAUIStorage@@H@Z 00000001800032a4 f i Gate.obj
 0001:00002354       ?GetPages@?$ISpecifyPropertyPagesImpl@VCOPOSGate@@@ATL@@UEAAJPEAUtagCAUUID@@@Z 0000000180003354 f i Gate.obj
 0001:00002360       ?QuickActivate@?$IQuickActivateImpl@VCOPOSGate@@@ATL@@UEAAJPEAUtagQACONTAINER@@PEAUtagQACONTROL@@@Z 0000000180003360 f i Gate.obj
 0001:0000237c       ?SetContentExtent@?$IQuickActivateImpl@VCOPOSGate@@@ATL@@UEAAJPEAUtagSIZE@@@Z 000000018000337c f i Gate.obj
 0001:000023b0       ?GetContentExtent@?$IQuickActivateImpl@VCOPOSGate@@@ATL@@UEAAJPEAUtagSIZE@@@Z 00000001800033b0 f i Gate.obj
 0001:000023e8       ?GetData@?$IDataObjectImpl@VCOPOSGate@@@ATL@@UEAAJPEAUtagFORMATETC@@PEAUtagSTGMEDIUM@@@Z 00000001800033e8 f i Gate.obj
 0001:00002404       ?DAdvise@?$IDataObjectImpl@VCOPOSGate@@@ATL@@UEAAJPEAUtagFORMATETC@@KPEAUIAdviseSink@@PEAK@Z 0000000180003404 f i Gate.obj
 0001:0000248c       ?DUnadvise@?$IDataObjectImpl@VCOPOSGate@@@ATL@@UEAAJK@Z 000000018000348c f i Gate.obj
 0001:000024b8       ?EnumDAdvise@?$IDataObjectImpl@VCOPOSGate@@@ATL@@UEAAJPEAPEAUIEnumSTATDATA@@@Z 00000001800034b8 f i Gate.obj
 0001:000024f4       ?GetClassInfoW@?$IProvideClassInfo2Impl@$1?CLSID_OPOSGate@@3U_GUID@@B$1?DIID__IOPOSGateEvents@@3U2@B$1?LIBID_OposGate_CCO@@3U2@B$00$0A@VCComTypeInfoHolder@ATL@@@ATL@@UEAAJPEAPEAUITypeInfo@@@Z 00000001800034f4 f i Gate.obj
 0001:0000254c       ?GetGUID@?$IProvideClassInfo2Impl@$1?CLSID_OPOSGate@@3U_GUID@@B$1?DIID__IOPOSGateEvents@@3U2@B$1?LIBID_OposGate_CCO@@3U2@B$00$0A@VCComTypeInfoHolder@ATL@@@ATL@@UEAAJKPEAU_GUID@@@Z 000000018000354c f i Gate.obj
 0001:00002580       _get_startup_argv_mode     0000000180003580 f i LIBCMT:argv_mode.obj
 0001:00002580       ?AddRef@CRegObject@ATL@@UEAAKXZ 0000000180003580 f i Gate.obj
 0001:00002580       ?FAccessAllowed@?$IObjectSafetyImpl@VCOPOSGate@@$02@ATL@@MEAAHXZ 0000000180003580 f i Gate.obj
 0001:00002588       ?GetInterfaceSafetyOptions@?$IObjectSafetyImpl@VCOPOSGate@@$02@ATL@@UEAAJAEBU_GUID@@PEAK1@Z 0000000180003588 f i Gate.obj
 0001:0000261c       ?SetInterfaceSafetyOptions@?$IObjectSafetyImpl@VCOPOSGate@@$02@ATL@@UEAAJAEBU_GUID@@KK@Z 000000018000361c f i Gate.obj
 0001:000026c0       ?_LocCPQueryInterface@?$IConnectionPointImpl@VCOPOSGate@@$1?IID_IPropertyNotifySink@@3U_GUID@@BVCComDynamicUnkArray@ATL@@@ATL@@UEAAJAEBU_GUID@@PEAPEAX@Z 00000001800036c0 f i Gate.obj
 0001:000026c0       ?_LocCPQueryInterface@?$IConnectionPointImpl@VCOPOSGate@@$1?DIID__IOPOSGateEvents@@3U_GUID@@BVCComDynamicUnkArray@ATL@@@ATL@@UEAAJAEBU_GUID@@PEAPEAX@Z 00000001800036c0 f i Gate.obj
 0001:00002734       ?GetConnectionInterface@?$IConnectionPointImpl@VCOPOSGate@@$1?IID_IPropertyNotifySink@@3U_GUID@@BVCComDynamicUnkArray@ATL@@@ATL@@UEAAJPEAU_GUID@@@Z 0000000180003734 f i Gate.obj
 0001:00002750       ?GetConnectionPointContainer@?$IConnectionPointImpl@VCOPOSGate@@$1?IID_IPropertyNotifySink@@3U_GUID@@BVCComDynamicUnkArray@ATL@@@ATL@@UEAAJPEAPEAUIConnectionPointContainer@@@Z 0000000180003750 f i Gate.obj
 0001:00002770       ?Advise@?$IConnectionPointImpl@VCOPOSGate@@$1?DIID__IOPOSGateEvents@@3U_GUID@@BVCComDynamicUnkArray@ATL@@@ATL@@UEAAJPEAUIUnknown@@PEAK@Z 0000000180003770 f i Gate.obj
 0001:00002770       ?Advise@?$IConnectionPointImpl@VCOPOSGate@@$1?IID_IPropertyNotifySink@@3U_GUID@@BVCComDynamicUnkArray@ATL@@@ATL@@UEAAJPEAUIUnknown@@PEAK@Z 0000000180003770 f i Gate.obj
 0001:0000282c       ?Unadvise@?$IConnectionPointImpl@VCOPOSGate@@$1?IID_IPropertyNotifySink@@3U_GUID@@BVCComDynamicUnkArray@ATL@@@ATL@@UEAAJK@Z 000000018000382c f i Gate.obj
 0001:0000282c       ?Unadvise@?$IConnectionPointImpl@VCOPOSGate@@$1?DIID__IOPOSGateEvents@@3U_GUID@@BVCComDynamicUnkArray@ATL@@@ATL@@UEAAJK@Z 000000018000382c f i Gate.obj
 0001:00002894       ?EnumConnections@?$IConnectionPointImpl@VCOPOSGate@@$1?DIID__IOPOSGateEvents@@3U_GUID@@BVCComDynamicUnkArray@ATL@@@ATL@@UEAAJPEAPEAUIEnumConnections@@@Z 0000000180003894 f i Gate.obj
 0001:00002894       ?EnumConnections@?$IConnectionPointImpl@VCOPOSGate@@$1?IID_IPropertyNotifySink@@3U_GUID@@BVCComDynamicUnkArray@ATL@@@ATL@@UEAAJPEAPEAUIEnumConnections@@@Z 0000000180003894 f i Gate.obj
 0001:00002a28       ?GetConnectionInterface@?$IConnectionPointImpl@VCOPOSGate@@$1?DIID__IOPOSGateEvents@@3U_GUID@@BVCComDynamicUnkArray@ATL@@@ATL@@UEAAJPEAU_GUID@@@Z 0000000180003a28 f i Gate.obj
 0001:00002a44       ?GetConnectionPointContainer@?$IConnectionPointImpl@VCOPOSGate@@$1?DIID__IOPOSGateEvents@@3U_GUID@@BVCComDynamicUnkArray@ATL@@@ATL@@UEAAJPEAPEAUIConnectionPointContainer@@@Z 0000000180003a44 f i Gate.obj
 0001:00002a64       ?UpdateRegistry@COPOSGate@@SAJH@Z 0000000180003a64 f i Gate.obj
 0001:00002a7c       ?Lock@CAtlModule@ATL@@UEAAJXZ 0000000180003a7c f i Gate.obj
 0001:00002a8c       ?Unlock@CAtlModule@ATL@@UEAAJXZ 0000000180003a8c f i Gate.obj
 0001:00002a98       ?GetLockCount@CAtlModule@ATL@@UEAAJXZ 0000000180003a98 f i Gate.obj
 0001:00002a9c       ?GetGITPtr@CAtlModule@ATL@@UEAAJPEAPEAUIGlobalInterfaceTable@@@Z 0000000180003a9c f i Gate.obj
 0001:00002b0c       ?ProcessWindowMessage@COPOSGate@@UEAAHPEAUHWND__@@I_K_JAEA_JK@Z 0000000180003b0c f i Gate.obj
 0001:00002b9c       ?SODirectIO@COPOSGate@@MEAAJJPEAJPEAPEA_W@Z 0000000180003b9c f i Gate.obj
 0001:00002c14       ?SOStatusUpdate@COPOSGate@@MEAAJJ@Z 0000000180003c14 f i Gate.obj
 0001:00002c64       ?AddCommonRGSReplacements@?$CAtlModuleT@VCComModule@ATL@@@ATL@@UEAAJPEAUIRegistrarBase@@@Z 0000000180003c64 f i Gate.obj
 0001:00002c7c       ?UpdateRegistryFromResourceD@CComModule@ATL@@UEAAJIHPEAU_ATL_REGMAP_ENTRY@2@@Z 0000000180003c7c f i Gate.obj
 0001:00002c7c       ?UpdateRegistryFromResourceD@CComModule@ATL@@UEAAJPEB_WHPEAU_ATL_REGMAP_ENTRY@2@@Z 0000000180003c7c f i Gate.obj
 0001:00002c84       ?UpdateRegistryFromResource@CComModule@ATL@@UEAAJPEB_WHPEAU_ATL_REGMAP_ENTRY@2@@Z 0000000180003c84 f i Gate.obj
 0001:00002c8c       ?UpdateRegistryFromResource@CComModule@ATL@@UEAAJIHPEAU_ATL_REGMAP_ENTRY@2@@Z 0000000180003c8c f i Gate.obj
 0001:00002c94       ??_GCComModule@ATL@@UEAAPEAXI@Z 0000000180003c94 f i Gate.obj
 0001:00002c94       ??_ECComModule@ATL@@UEAAPEAXI@Z 0000000180003c94 f i Gate.obj
 0001:00002cd4       ?CreateInstance@?$CComCreator@V?$CComObjectCached@VCComClassFactory@ATL@@@ATL@@@ATL@@SAJPEAXAEBU_GUID@@PEAPEAX@Z 0000000180003cd4 f i Gate.obj
 0001:00002df8       ?CreateInstance@?$CComCreator2@V?$CComCreator@V?$CComObject@VCOPOSGate@@@ATL@@@ATL@@V?$CComCreator@V?$CComAggObject@VCOPOSGate@@@ATL@@@2@@ATL@@SAJPEAXAEBU_GUID@@PEAPEAX@Z 0000000180003df8 f i Gate.obj
 0001:00002e08       ?AddRef@?$CComObjectCached@VCComClassFactory@ATL@@@ATL@@UEAAKXZ 0000000180003e08 f i Gate.obj
 0001:00002e34       ?Release@?$CComObjectCached@VCComClassFactory@ATL@@@ATL@@UEAAKXZ 0000000180003e34 f i Gate.obj
 0001:00002e74       ?QueryInterface@?$CComObjectCached@VCComClassFactory@ATL@@@ATL@@UEAAJAEBU_GUID@@PEAPEAX@Z 0000000180003e74 f i Gate.obj
 0001:00002e88       ??_E?$CComObjectCached@VCComClassFactory@ATL@@@ATL@@UEAAPEAXI@Z 0000000180003e88 f i Gate.obj
 0001:00002e88       ??_G?$CComObjectCached@VCComClassFactory@ATL@@@ATL@@UEAAPEAXI@Z 0000000180003e88 f i Gate.obj
 0001:00002ee0       ?Next@?$CComEnumImpl@UIEnumConnectionPoints@@$1?_GUID_b196b285_bab4_101a_b69c_00aa00341d07@@3U__s_GUID@@BPEAUIConnectionPoint@@V?$_CopyInterface@UIConnectionPoint@@@ATL@@@ATL@@UEAAJKPEAPEAUIConnectionPoint@@PEAK@Z 0000000180003ee0 f i Gate.obj
 0001:00002fa4       ?Skip@?$CComEnumImpl@UIEnumConnectionPoints@@$1?_GUID_b196b285_bab4_101a_b69c_00aa00341d07@@3U__s_GUID@@BPEAUIConnectionPoint@@V?$_CopyInterface@UIConnectionPoint@@@ATL@@@ATL@@UEAAJK@Z 0000000180003fa4 f i Gate.obj
 0001:00002fd0       ?Clone@?$CComEnumImpl@UIEnumConnectionPoints@@$1?_GUID_b196b285_bab4_101a_b69c_00aa00341d07@@3U__s_GUID@@BPEAUIConnectionPoint@@V?$_CopyInterface@UIConnectionPoint@@@ATL@@@ATL@@UEAAJPEAPEAUIEnumConnectionPoints@@@Z 0000000180003fd0 f i Gate.obj
 0001:000030fc       ?QueryInterface@?$CComObject@V?$CComEnum@UIEnumConnectionPoints@@$1?_GUID_b196b285_bab4_101a_b69c_00aa00341d07@@3U__s_GUID@@BPEAUIConnectionPoint@@V?$_CopyInterface@UIConnectionPoint@@@ATL@@VCComSingleThreadModel@6@@ATL@@@ATL@@UEAAJAEBU_GUID@@PEAPEAX@Z 00000001800040fc f i Gate.obj
 0001:00003110       ??_E?$CComObject@V?$CComEnum@UIEnumConnectionPoints@@$1?_GUID_b196b285_bab4_101a_b69c_00aa00341d07@@3U__s_GUID@@BPEAUIConnectionPoint@@V?$_CopyInterface@UIConnectionPoint@@@ATL@@VCComSingleThreadModel@6@@ATL@@@ATL@@UEAAPEAXI@Z 0000000180004110 f i Gate.obj
 0001:00003110       ??_G?$CComObject@V?$CComEnum@UIEnumConnectionPoints@@$1?_GUID_b196b285_bab4_101a_b69c_00aa00341d07@@3U__s_GUID@@BPEAUIConnectionPoint@@V?$_CopyInterface@UIConnectionPoint@@@ATL@@VCComSingleThreadModel@6@@ATL@@@ATL@@UEAAPEAXI@Z 0000000180004110 f i Gate.obj
 0001:00003168       ?AddReplacement@CRegObject@ATL@@UEAAJPEB_W0@Z 0000000180004168 f i Gate.obj
 0001:00003198       ?ClearReplacements@CRegObject@ATL@@UEAAJXZ 0000000180004198 f i Gate.obj
 0001:000031a4       ??_GCRegObject@ATL@@UEAAPEAXI@Z 00000001800041a4 f i Gate.obj
 0001:000031a4       ??_ECRegObject@ATL@@UEAAPEAXI@Z 00000001800041a4 f i Gate.obj
 0001:00003224       ?AddRef@?$CComAggObject@VCOPOSGate@@@ATL@@UEAAKXZ 0000000180004224 f i Gate.obj
 0001:00003230       ?Release@?$CComAggObject@VCOPOSGate@@@ATL@@UEAAKXZ 0000000180004230 f i Gate.obj
 0001:00003284       ?QueryInterface@?$CComAggObject@VCOPOSGate@@@ATL@@UEAAJAEBU_GUID@@PEAPEAX@Z 0000000180004284 f i Gate.obj
 0001:000032e4       ?AddRef@?$CComContainedObject@VCOPOSGate@@@ATL@@UEAAKXZ 00000001800042e4 f i Gate.obj
 0001:000032f4       ?Release@?$CComContainedObject@VCOPOSGate@@@ATL@@UEAAKXZ 00000001800042f4 f i Gate.obj
 0001:00003304       ?QueryInterface@?$CComContainedObject@VCOPOSGate@@@ATL@@UEAAJAEBU_GUID@@PEAPEAX@Z 0000000180004304 f i Gate.obj
 0001:00003314       ??_E?$CComAggObject@VCOPOSGate@@@ATL@@UEAAPEAXI@Z 0000000180004314 f i Gate.obj
 0001:00003314       ??_G?$CComAggObject@VCOPOSGate@@@ATL@@UEAAPEAXI@Z 0000000180004314 f i Gate.obj
 0001:0000336c       ?AddRef@?$CComObject@VCOPOSGate@@@ATL@@UEAAKXZ 000000018000436c f i Gate.obj
 0001:0000337c       ?Release@?$CComObject@VCOPOSGate@@@ATL@@UEAAKXZ 000000018000437c f i Gate.obj
 0001:000033d4       ?QueryInterface@?$CComObject@VCOPOSGate@@@ATL@@UEAAJAEBU_GUID@@PEAPEAX@Z 00000001800043d4 f i Gate.obj
 0001:000033e8       ?OnDrawAdvanced@CComControlBase@ATL@@UEAAJAEAUATL_DRAWINFO@@@Z 00000001800043e8 f i Gate.obj
 0001:00003574       ??$AtlModuleRegisterWndClassInfoT@VAtlModuleRegisterWndClassInfoParamW@ATL@@@ATL@@YAGPEAU_ATL_BASE_MODULE70@0@PEAU_ATL_WIN_MODULE70@0@PEAU_ATL_WNDCLASSINFOW@0@PEAP6A_JPEAUHWND__@@I_K_J@ZVAtlModuleRegisterWndClassInfoParamW@0@@Z 0000000180004574 f i Gate.obj
 0001:00003774       ??0?$CComContainedObject@VCOPOSGate@@@ATL@@QEAA@PEAX@Z 0000000180004774 f i Gate.obj
 0001:00003890       ??0?$CComObject@VCOPOSGate@@@ATL@@QEAA@PEAX@Z 0000000180004890 f i Gate.obj
 0001:000039a8       ??0CAtlModule@ATL@@QEAA@XZ 00000001800049a8 f i Gate.obj
 0001:00003a1c       ??1?$CComEnumImpl@UIEnumConnectionPoints@@$1?_GUID_b196b285_bab4_101a_b69c_00aa00341d07@@3U__s_GUID@@BPEAUIConnectionPoint@@V?$_CopyInterface@UIConnectionPoint@@@ATL@@@ATL@@UEAA@XZ 0000000180004a1c f i Gate.obj
 0001:00003a74       ??1?$CComEnumImpl@UIEnumConnections@@$1?_GUID_b196b287_bab4_101a_b69c_00aa00341d07@@3U__s_GUID@@BUtagCONNECTDATA@@V?$_Copy@UtagCONNECTDATA@@@ATL@@@ATL@@UEAA@XZ 0000000180004a74 f i Gate.obj
 0001:00003acc       ??1?$CComObject@VCOPOSGate@@@ATL@@UEAA@XZ 0000000180004acc f i Gate.obj
 0001:00003bec       ??_G?$CComContainedObject@VCOPOSGate@@@ATL@@UEAAPEAXI@Z 0000000180004bec f i Gate.obj
 0001:00003bec       ??_E?$CComContainedObject@VCOPOSGate@@@ATL@@UEAAPEAXI@Z 0000000180004bec f i Gate.obj
 0001:00003c20       ??_G?$CComObject@VCOPOSGate@@@ATL@@UEAAPEAXI@Z 0000000180004c20 f i Gate.obj
 0001:00003c20       ??_E?$CComObject@VCOPOSGate@@@ATL@@UEAAPEAXI@Z 0000000180004c20 f i Gate.obj
 0001:00003c54       ?Add@?$CSimpleArray@GV?$CSimpleArrayEqualHelper@G@ATL@@@ATL@@QEAAHAEBG@Z 0000000180004c54 f i Gate.obj
 0001:00003cf4       ?Add@?$CSimpleMap@PEA_WPEA_WVCExpansionVectorEqualHelper@ATL@@@ATL@@QEAAHAEBQEA_W0@Z 0000000180004cf4 f i Gate.obj
 0001:00003d90       ?Add@CComDynamicUnkArray@ATL@@QEAAKPEAUIUnknown@@@Z 0000000180004d90 f i Gate.obj
 0001:00003e74       ?Add@CExpansionVector@ATL@@QEAAHPEB_W0@Z 0000000180004e74 f i Gate.obj
 0001:00003fa8       ?AddTermFunc@CAtlModule@ATL@@QEAAJP6AX_K@Z0@Z 0000000180004fa8 f i Gate.obj
 0001:00004044       ?AddValue@CRegParser@ATL@@IEAAJAEAVCRegKey@2@PEB_WPEA_W@Z 0000000180005044 f i Gate.obj
 0001:00004454       ?AllocateHeap@?$CTempBuffer@_W$0BAA@VCCRTAllocator@ATL@@@ATL@@AEAAX_K@Z 0000000180005454 f i Gate.obj
 0001:00004454       ?AllocateHeap@?$CTempBuffer@E$0BAA@VCCRTAllocator@ATL@@@ATL@@AEAAX_K@Z 0000000180005454 f i Gate.obj
 0001:00004454       ?AllocateHeap@?$CTempBuffer@_W$0EAA@VCCRTAllocator@ATL@@@ATL@@AEAAX_K@Z 0000000180005454 f i Gate.obj
 0001:00004480       ?Append@CParseBuffer@CRegParser@ATL@@QEAAHPEB_WH@Z 0000000180005480 f i Gate.obj
 0001:000045b4       ?AtlComModuleGetClassObject@ATL@@YAJPEAU_ATL_COM_MODULE70@1@AEBU_GUID@@1PEAPEAX@Z 00000001800055b4 f i Gate.obj
 0001:000046f0       ?AtlComModuleRegisterServer@ATL@@YAJPEAU_ATL_COM_MODULE70@1@HPEBU_GUID@@@Z 00000001800056f0 f i Gate.obj
 0001:000047b0       ?AtlComModuleUnregisterServer@ATL@@YAJPEAU_ATL_COM_MODULE70@1@HPEBU_GUID@@@Z 00000001800057b0 f i Gate.obj
 0001:0000486c       ?AtlHiMetricToPixel@ATL@@YAXPEBUtagSIZE@@PEAU2@@Z 000000018000586c f i Gate.obj
 0001:0000491c       ?AtlHresultFromLastError@ATL@@YAJXZ 000000018000591c f i Gate.obj
 0001:0000493c       ?AtlHresultFromWin32@ATL@@YAJK@Z 000000018000593c f i Gate.obj
 0001:0000494c       ?AtlInternalOleLoadFromStream@ATL@@YAJPEAUIStream@@AEBU_GUID@@PEAPEAXTClassesAllowedInStream@1@K@Z 000000018000594c f i Gate.obj
 0001:00004a9c       ?AtlInternalQueryInterface@ATL@@YAJPEAXPEBU_ATL_INTMAP_ENTRY@1@AEBU_GUID@@PEAPEAX@Z 0000000180005a9c f i Gate.obj
 0001:00004ba4       ?AtlLoadTypeLib@ATL@@YAJPEAUHINSTANCE__@@PEB_WPEAPEA_WPEAPEAUITypeLib@@@Z 0000000180005ba4 f i Gate.obj
 0001:00004e00       ?AtlRegisterClassCategoriesHelper@ATL@@YAJAEBU_GUID@@PEBU_ATL_CATMAP_ENTRY@1@H@Z 0000000180005e00 f i Gate.obj
 0001:00005284       ?AtlRegisterTypeLib@ATL@@YAJPEAUHINSTANCE__@@PEB_W@Z 0000000180006284 f i Gate.obj
 0001:00005480       ?AtlThrowImpl@ATL@@YAXJ@Z  0000000180006480 f i Gate.obj
 0001:000054a4       ?AtlUnRegisterTypeLib@ATL@@YAJPEAUHINSTANCE__@@PEB_W@Z 00000001800064a4 f i Gate.obj
 0001:0000556c       ?AtlWinModuleExtractCreateWndData@ATL@@YAPEAXPEAU_ATL_WIN_MODULE70@1@@Z 000000018000656c f i Gate.obj
 0001:000055f8       ?ChToByte@CRegParser@ATL@@KAE_W@Z 00000001800065f8 f i Gate.obj
 0001:00005684       ?Cleanup@CComTypeInfoHolder@ATL@@SAX_K@Z 0000000180006684 f i Gate.obj
 0001:000056c4       ?ClearReplacements@CExpansionVector@ATL@@QEAAJXZ 00000001800066c4 f i Gate.obj
 0001:00005760       ?CreateInstance@?$CComCreator@V?$CComAggObject@VCOPOSGate@@@ATL@@@ATL@@SAJPEAXAEBU_GUID@@PEAPEAX@Z 0000000180006760 f i Gate.obj
 0001:00005844       ?CreateInstance@?$CComCreator@V?$CComObject@VCOPOSGate@@@ATL@@@ATL@@SAJPEAXAEBU_GUID@@PEAPEAX@Z 0000000180006844 f i Gate.obj
 0001:00005904       ?CreateInstance@?$CComObject@V?$CComEnum@UIEnumConnectionPoints@@$1?_GUID_b196b285_bab4_101a_b69c_00aa00341d07@@3U__s_GUID@@BPEAUIConnectionPoint@@V?$_CopyInterface@UIConnectionPoint@@@ATL@@VCComSingleThreadModel@6@@ATL@@@ATL@@SAJPEAPEAV12@@Z 0000000180006904 f i Gate.obj
 0001:00005994       ?CreateInstance@?$CComObject@V?$CComEnum@UIEnumConnections@@$1?_GUID_b196b287_bab4_101a_b69c_00aa00341d07@@3U__s_GUID@@BUtagCONNECTDATA@@V?$_Copy@UtagCONNECTDATA@@@ATL@@VCComSingleThreadModel@6@@ATL@@@ATL@@SAJPEAPEAV12@@Z 0000000180006994 f i Gate.obj
 0001:00005a24       ?DefaultReflectionHandler@?$CWindowImplRoot@VCWindow@ATL@@@ATL@@SAHPEAUHWND__@@I_K_JAEA_J@Z 0000000180006a24 f i Gate.obj
 0001:00005ab8       ?DeleteSubKey@CRegKey@ATL@@QEAAJPEB_W@Z 0000000180006ab8 f i Gate.obj
 0001:00005b50       ?DoEvent@COPOSGate@@IEAAXI_K_J@Z 0000000180006b50 f i Gate.obj
 0001:00005c04       ?DoVerbPrimary@?$IOleObjectImpl@VCOPOSGate@@@ATL@@QEAAJPEBUtagRECT@@PEAUHWND__@@@Z 0000000180006c04 f i Gate.obj
 0001:00005d30       ?DoVerbProperties@CComControlBase@ATL@@QEAAJPEBUtagRECT@@PEAUHWND__@@@Z 0000000180006d30 f i Gate.obj
 0001:00005f58       ?FireTheEvent@?$CProxy_IOPOSEvents@VCOPOSGate@@@@IEAAXPEAVOposVariant@@IAEAJPEB_WJ@Z 0000000180006f58 f i Gate.obj
 0001:00006044       ?FireViewChange@CComControlBase@ATL@@QEAAJXZ 0000000180007044 f i Gate.obj
 0001:000060a8       ?Fire_DirectIOEvent@?$CProxy_IOPOSEvents@VCOPOSGate@@@@QEAAXJPEAJPEAPEA_W@Z 00000001800070a8 f i Gate.obj
 0001:00006208       ?Fire_StatusUpdateEvent@?$CProxy_IOPOSEvents@VCOPOSGate@@@@QEAAXJ@Z 0000000180007208 f i Gate.obj
 0001:000062f4       ?FreeHeap@?$CTempBuffer@_W$0BAA@VCCRTAllocator@ATL@@@ATL@@AEAAXXZ 00000001800072f4 f i Gate.obj
 0001:000062f4       ?FreeHeap@?$CTempBuffer@E$0BAA@VCCRTAllocator@ATL@@@ATL@@AEAAXXZ 00000001800072f4 f i Gate.obj
 0001:000062f4       ?FreeHeap@?$CTempBuffer@_W$0EAA@VCCRTAllocator@ATL@@@ATL@@AEAAXXZ 00000001800072f4 f i Gate.obj
 0001:000062fc       ?GetAmbientLocaleID@CComControlBase@ATL@@QEAAJAEAK@Z 00000001800072fc f i Gate.obj
 0001:000063bc       ?GetAmbientUserMode@CComControlBase@ATL@@QEAAJAEAH@Z 00000001800073bc f i Gate.obj
 0001:0000648c       ?GetClassObject@CComModule@ATL@@QEAAJAEBU_GUID@@0PEAPEAX@Z 000000018000748c f i Gate.obj
 0001:00006580       ?GetConnMap@COPOSGate@@SAPEBU_ATL_CONNMAP_ENTRY@ATL@@PEAH@Z 0000000180007580 f i Gate.obj
 0001:00006608       ?GetIDsOfNames@CComTypeInfoHolder@ATL@@QEAAJAEBU_GUID@@PEAPEA_WIKPEAJ@Z 0000000180007608 f i Gate.obj
 0001:00006778       ?GetPagesHelper@?$ISpecifyPropertyPagesImpl@VCOPOSGate@@@ATL@@IEAAJPEAUtagCAUUID@@PEBUATL_PROPMAP_ENTRY@2@@Z 0000000180007778 f i Gate.obj
 0001:00006918       ?GetSizeMax@CComVariant@ATL@@QEBAJPEAT_ULARGE_INTEGER@@@Z 0000000180007918 f i Gate.obj
 0001:00006b48       ?GetTI@CComTypeInfoHolder@ATL@@QEAAJK@Z 0000000180007b48 f i Gate.obj
 0001:00006e2c       ?GetZoomInfo@CComControlBase@ATL@@QEAAXAEAUATL_DRAWINFO@@@Z 0000000180007e2c f i Gate.obj
 0001:00006ed0       ?HKeyFromString@CRegParser@ATL@@KAPEAUHKEY__@@PEA_W@Z 0000000180007ed0 f i Gate.obj
 0001:00006f34       ?IDataObject_GetData@CComControlBase@ATL@@QEAAJPEAUtagFORMATETC@@PEAUtagSTGMEDIUM@@@Z 0000000180007f34 f i Gate.obj
 0001:00007128       ?IOleInPlaceObject_InPlaceDeactivate@CComControlBase@ATL@@QEAAJXZ 0000000180008128 f i Gate.obj
 0001:000071c8       ?IOleInPlaceObject_SetObjectRects@CComControlBase@ATL@@QEAAJPEBUtagRECT@@0@Z 00000001800081c8 f i Gate.obj
 0001:000072b8       ?IOleInPlaceObject_UIDeactivate@CComControlBase@ATL@@QEAAJXZ 00000001800082b8 f i Gate.obj
 0001:000073c4       ?IOleObject_Close@CComControlBase@ATL@@QEAAJK@Z 00000001800083c4 f i Gate.obj
 0001:000074dc       ?IOleObject_SetClientSite@CComControlBase@ATL@@QEAAJPEAUIOleClientSite@@@Z 00000001800084dc f i Gate.obj
 0001:00007550       ?IOleObject_SetExtent@CComControlBase@ATL@@QEAAJKPEAUtagSIZE@@@Z 0000000180008550 f i Gate.obj
 0001:000075e8       ?IPSI_GetIPersistStreamInit@?$IPersistStorageImpl@VCOPOSGate@@@ATL@@AEAAPEAUIPersistStreamInit@@XZ 00000001800085e8 f i Gate.obj
 0001:000076d0       ?IPersistStreamInit_Load@?$IPersistStreamInitImpl@VCOPOSGate@@@ATL@@QEAAJPEAUIStream@@PEBUATL_PROPMAP_ENTRY@2@@Z 00000001800086d0 f i Gate.obj
 0001:000079f8       ?IPersistStreamInit_Save@?$IPersistStreamInitImpl@VCOPOSGate@@@ATL@@QEAAJPEAUIStream@@HPEBUATL_PROPMAP_ENTRY@2@@Z 00000001800089f8 f i Gate.obj
 0001:00007c94       ?IQuickActivate_QuickActivate@CComControlBase@ATL@@QEAAJPEAUtagQACONTAINER@@PEAUtagQACONTROL@@@Z 0000000180008c94 f i Gate.obj
 0001:00007f58       ?IViewObject_Draw@CComControlBase@ATL@@QEAAJKJPEAXPEAUtagDVTARGETDEVICE@@PEAUHDC__@@2PEBU_RECTL@@3@Z 0000000180008f58 f i Gate.obj
 0001:0000806c       ?InPlaceActivate@CComControlBase@ATL@@QEAAJJPEBUtagRECT@@@Z 000000018000906c f i Gate.obj
 0001:0000839c       ?Init@?$CComEnumImpl@UIEnumConnectionPoints@@$1?_GUID_b196b285_bab4_101a_b69c_00aa00341d07@@3U__s_GUID@@BPEAUIConnectionPoint@@V?$_CopyInterface@UIConnectionPoint@@@ATL@@@ATL@@QEAAJPEAPEAUIConnectionPoint@@0PEAUIUnknown@@W4CComEnumFlags@2@@Z 000000018000939c f i Gate.obj
 0001:000084b8       ?Init@?$CComEnumImpl@UIEnumConnections@@$1?_GUID_b196b287_bab4_101a_b69c_00aa00341d07@@3U__s_GUID@@BUtagCONNECTDATA@@V?$_Copy@UtagCONNECTDATA@@@ATL@@@ATL@@QEAAJPEAUtagCONNECTDATA@@0PEAUIUnknown@@W4CComEnumFlags@2@@Z 00000001800094b8 f i Gate.obj
 0001:000085d8       ?IsEqualObject@?$CComPtrBase@UIOleClientSite@@@ATL@@QEAA_NPEAUIUnknown@@@Z 00000001800095d8 f i Gate.obj
 0001:00008664       ?LoadNameCache@CComTypeInfoHolder@ATL@@QEAAJPEAUITypeInfo@@@Z 0000000180009664 f i Gate.obj
 0001:000087f4       ?Lookup@?$CSimpleMap@PEA_WPEA_WVCExpansionVectorEqualHelper@ATL@@@ATL@@QEBAPEA_WAEBQEA_W@Z 00000001800097f4 f i Gate.obj
 0001:0000887c       ?NextToken@CRegParser@ATL@@IEAAJPEA_W@Z 000000018000987c f i Gate.obj
 0001:00008a18       ?OnKillFocus@CComControlBase@ATL@@QEAA_JI_K_JAEAH@Z 0000000180009a18 f i Gate.obj
 0001:00008ab4       ?OnMouseActivate@CComControlBase@ATL@@QEAA_JI_K_JAEAH@Z 0000000180009ab4 f i Gate.obj
 0001:00008b54       ?OnPaint@CComControlBase@ATL@@QEAA_JI_K_JAEAH@Z 0000000180009b54 f i Gate.obj
 0001:00008c40       ?OnSetFocus@CComControlBase@ATL@@QEAA_JI_K_JAEAH@Z 0000000180009c40 f i Gate.obj
 0001:00008d48       ?PreProcessBuffer@CRegParser@ATL@@QEAAJPEA_WPEAPEA_W@Z 0000000180009d48 f i Gate.obj
 0001:000090d0       ?ProcessWindowMessage@?$CComControl@VCOPOSGate@@V?$CWindowImpl@VCOPOSGate@@VCWindow@ATL@@V?$CWinTraits@$0FGAAAAAA@$0A@@3@@ATL@@@ATL@@UEAAHPEAUHWND__@@I_K_JAEA_JK@Z 000000018000a0d0 f i Gate.obj
 0001:000091bc       ?ReadFromStream@CComBSTR@ATL@@QEAAJPEAUIStream@@@Z 000000018000a1bc f i Gate.obj
 0001:0000930c       ?ReadFromStream@CComVariant@ATL@@QEAAJPEAUIStream@@GTClassesAllowedInStream@2@K@Z 000000018000a30c f i Gate.obj
 0001:00009550       ?RecurseDeleteKey@CRegKey@ATL@@QEAAJPEB_W@Z 000000018000a550 f i Gate.obj
 0001:000096a8       ?RegCreateKeyExW@CAtlTransactionManager@ATL@@QEAAJPEAUHKEY__@@PEB_WKPEA_WKKQEAU_SECURITY_ATTRIBUTES@@PEAPEAU3@PEAK@Z 000000018000a6a8 f i Gate.obj
 0001:000097dc       ?RegDeleteKeyW@CAtlTransactionManager@ATL@@QEAAJPEAUHKEY__@@PEB_W@Z 000000018000a7dc f i Gate.obj
 0001:00009868       ?RegOpenKeyExW@CAtlTransactionManager@ATL@@QEAAJPEAUHKEY__@@PEB_WKKPEAPEAU3@@Z 000000018000a868 f i Gate.obj
 0001:00009920       ?RegisterBuffer@CRegParser@ATL@@QEAAJPEA_WH@Z 000000018000a920 f i Gate.obj
 0001:00009a8c       ?RegisterFromResource@CRegObject@ATL@@IEAAJPEB_W00H@Z 000000018000aa8c f i Gate.obj
 0001:00009c48       ?RegisterServer@CComModule@ATL@@QEAAJHPEBU_GUID@@@Z 000000018000ac48 f i Gate.obj
 0001:00009d04       ?RegisterSubkeys@CRegParser@ATL@@IEAAJPEA_WPEAUHKEY__@@HH@Z 000000018000ad04 f i Gate.obj
 0001:0000a584       ?SendOnDataChange@CComControlBase@ATL@@QEAAJK@Z 000000018000b584 f i Gate.obj
 0001:0000a5f4       ?SetControlFocus@CComControlBase@ATL@@QEAAHH@Z 000000018000b5f4 f i Gate.obj
 0001:0000a6c4       ?SkipAssignment@CRegParser@ATL@@IEAAJPEA_W@Z 000000018000b6c4 f i Gate.obj
 0001:0000a77c       ?Term@CAtlModule@ATL@@QEAAXXZ 000000018000b77c f i Gate.obj
 0001:0000a834       ?Term@CComModule@ATL@@QEAAXXZ 000000018000b834 f i Gate.obj
 0001:0000a8b0       ?UnregisterServer@CComModule@ATL@@QEAAJHPEBU_GUID@@@Z 000000018000b8b0 f i Gate.obj
 0001:0000a960       ?UpdateRegistryFromResource@CAtlModule@ATL@@QEAAJIHPEAU_ATL_REGMAP_ENTRY@2@@Z 000000018000b960 f i Gate.obj
 0001:0000ac6c       ?UpdateRegistryFromResource@CAtlModule@ATL@@QEAAJPEB_WHPEAU_ATL_REGMAP_ENTRY@2@@Z 000000018000bc6c f i Gate.obj
 0001:0000af90       ?VTFromRegType@CRegParser@ATL@@KAHPEB_WAEAG@Z 000000018000bf90 f i Gate.obj
 0001:0000b02c       ?WindowProc@?$CWindowImplBaseT@VCWindow@ATL@@V?$CWinTraits@$0FGAAAAAA@$0A@@2@@ATL@@SA_JPEAUHWND__@@I_K_J@Z 000000018000c02c f i Gate.obj
 0001:0000b198       ?WriteToStream@CComVariant@ATL@@QEAAJPEAUIStream@@@Z 000000018000c198 f i Gate.obj
 0001:0000b404       ?WriteToStream@CComVariant@ATL@@QEAAJPEAUIStream@@G@Z 000000018000c404 f i Gate.obj
 0001:0000b49c       ?_AtlVerifyStackAvailable@_ATL_SAFE_ALLOCA_IMPL@ATL@@YA_N_K@Z 000000018000c49c f i Gate.obj
 0001:0000b520       ?atlCreate@?$CWindowImpl@VCOPOSGate@@VCWindow@ATL@@V?$CWinTraits@$0FGAAAAAA@$0A@@3@@ATL@@QEAAPEAUHWND__@@PEAU3@V_U_RECT@2@PEB_WKKV_U_MENUorID@2@PEAX@Z 000000018000c520 f i Gate.obj
 0001:0000b5dc       ?atlCreate@?$CWindowImplBaseT@VCWindow@ATL@@V?$CWinTraits@$0FGAAAAAA@$0A@@2@@ATL@@QEAAPEAUHWND__@@PEAU3@V_U_RECT@2@PEB_WKKV_U_MENUorID@2@GPEAX@Z 000000018000c5dc f i Gate.obj
 0001:0000b74c       ?ocscpy_s@@YA_NPEA_W_KPEB_W@Z 000000018000c74c f i Gate.obj
 0001:0000b7fc       DllCanUnloadNow            000000018000c7fc f   Gate.obj
 0001:0000b808       DllGetClassObject          000000018000c808 f   Gate.obj
 0001:0000b820       DllMain                    000000018000c820 f   Gate.obj
 0001:0000b8c8       DllRegisterServer          000000018000c8c8 f   Gate.obj
 0001:0000b8dc       DllUnregisterServer        000000018000c8dc f   Gate.obj
 0001:0000b8f0       __local_stdio_printf_options 000000018000c8f0 f i Gate.obj
 0001:0000b8f8       swprintf_s                 000000018000c8f8 f i Gate.obj
 0001:0000b94c       ??0COPOSGate@@QEAA@XZ      000000018000c94c f   GateImpl.obj
 0001:0000ba08       ??1?$IConnectionPointImpl@VCOPOSGate@@$1?DIID__IOPOSGateEvents@@3U_GUID@@BVCComDynamicUnkArray@ATL@@@ATL@@QEAA@XZ 000000018000ca08 f i GateImpl.obj
 0001:0000ba08       ??1?$IConnectionPointImpl@VCOPOSGate@@$1?IID_IPropertyNotifySink@@3U_GUID@@BVCComDynamicUnkArray@ATL@@@ATL@@QEAA@XZ 000000018000ca08 f i GateImpl.obj
 0001:0000ba64       ??1CComControlBase@ATL@@UEAA@XZ 000000018000ca64 f i GateImpl.obj
 0001:0000bae0       ??1COPOSGate@@UEAA@XZ      000000018000cae0 f   GateImpl.obj
 0001:0000bb44       ?CheckHealth@COPOSGate@@UEAAJJPEAJ@Z 000000018000cb44 f   GateImpl.obj
 0001:0000bbc0       ?ClaimDevice@COPOSGate@@UEAAJJPEAJ@Z 000000018000cbc0 f   GateImpl.obj
 0001:0000bc58       ?Close@COPOSGate@@UEAAJPEAJ@Z 000000018000cc58 f   GateImpl.obj
 0001:0000bd10       ?CompareFirmwareVersion@COPOSGate@@UEAAJPEA_WPEAJ1@Z 000000018000cd10 f   GateImpl.obj
 0001:0000bdec       ?DirectIO@COPOSGate@@UEAAJJPEAJPEAPEA_W0@Z 000000018000cdec f   GateImpl.obj
 0001:0000bee8       ?DoInvoke@COPOSGate@@IEAAJJPEAVOposVariant@@IHPEAJ_N@Z 000000018000cee8 f   GateImpl.obj
 0001:0000c01c       ?EventInit@COPOSGate@@IEAAJXZ 000000018000d01c f i GateImpl.obj
 0001:0000c16c       ?EventUninit@COPOSGate@@IEAAXXZ 000000018000d16c f i GateImpl.obj
 0001:0000c1d0       ?EventWindowProc@COPOSGate@@IEAA_JI_K_J@Z 000000018000d1d0 f i GateImpl.obj
 0001:0000c294       ?FinalConstruct@COPOSGate@@QEAAJXZ 000000018000d294 f   GateImpl.obj
 0001:0000c2d0       ?FreezeEvents@COPOSGate@@MEAAJH@Z 000000018000d2d0 f   GateImpl.obj
 0001:0000c33c       ?GetOposProp@COPOSGate@@IEAAJJPEAJJ@Z 000000018000d33c f   GateImpl.obj
 0001:0000c458       ?GetOposProp@COPOSGate@@IEAAJJPEAPEA_WJ@Z 000000018000d458 f   GateImpl.obj
 0001:0000c584       ?OnDraw@COPOSGate@@MEAAJAEAUATL_DRAWINFO@@@Z 000000018000d584 f   GateImpl.obj
 0001:0000c670       ?Open@COPOSGate@@UEAAJPEA_WPEAJ@Z 000000018000d670 f   GateImpl.obj
 0001:0000cee0       ?OpenGate@COPOSGate@@UEAAJPEAJ@Z 000000018000dee0 f   GateImpl.obj
 0001:0000cf08       ?ReleaseDevice@COPOSGate@@UEAAJPEAJ@Z 000000018000df08 f   GateImpl.obj
 0001:0000cf4c       ?ResetStatistics@COPOSGate@@UEAAJPEA_WPEAJ@Z 000000018000df4c f   GateImpl.obj
 0001:0000cfd4       ?RetrieveStatistics@COPOSGate@@UEAAJPEAPEA_WPEAJ@Z 000000018000dfd4 f   GateImpl.obj
 0001:0000d05c       ?SOProcessID@COPOSGate@@UEAAJPEAJ@Z 000000018000e05c f   GateImpl.obj
 0001:0000d078       ?SetCOFreezeEvents@COPOSGate@@IEAAXF@Z 000000018000e078 f   GateImpl.obj
 0001:0000d15c       ?SetOposProp@COPOSGate@@IEAAJJJJ@Z 000000018000e15c f   GateImpl.obj
 0001:0000d2bc       ?UpdateFirmware@COPOSGate@@UEAAJPEA_WPEAJ@Z 000000018000e2bc f   GateImpl.obj
 0001:0000d344       ?UpdateStatistics@COPOSGate@@UEAAJPEA_WPEAJ@Z 000000018000e344 f   GateImpl.obj
 0001:0000d3cc       ?WaitForGateClose@COPOSGate@@UEAAJJPEAJ@Z 000000018000e3cc f   GateImpl.obj
 0001:0000d448       ?get_BinaryConversion@COPOSGate@@UEAAJPEAJ@Z 000000018000e448 f   GateImpl.obj
 0001:0000d45c       ?get_CapCompareFirmwareVersion@COPOSGate@@UEAAJPEAF@Z 000000018000e45c f   GateImpl.obj
 0001:0000d490       ?get_CapGateStatus@COPOSGate@@UEAAJPEAF@Z 000000018000e490 f   GateImpl.obj
 0001:0000d4c4       ?get_CapPowerReporting@COPOSGate@@UEAAJPEAJ@Z 000000018000e4c4 f   GateImpl.obj
 0001:0000d4d8       ?get_CapStatisticsReporting@COPOSGate@@UEAAJPEAF@Z 000000018000e4d8 f   GateImpl.obj
 0001:0000d50c       ?get_CapUpdateFirmware@COPOSGate@@UEAAJPEAF@Z 000000018000e50c f   GateImpl.obj
 0001:0000d540       ?get_CapUpdateStatistics@COPOSGate@@UEAAJPEAF@Z 000000018000e540 f   GateImpl.obj
 0001:0000d574       ?get_CheckHealthText@COPOSGate@@UEAAJPEAPEA_W@Z 000000018000e574 f   GateImpl.obj
 0001:0000d588       ?get_Claimed@COPOSGate@@UEAAJPEAF@Z 000000018000e588 f   GateImpl.obj
 0001:0000d5bc       ?get_ControlObjectDescription@COPOSGate@@UEAAJPEAPEA_W@Z 000000018000e5bc f   GateImpl.obj
 0001:0000d620       ?get_ControlObjectVersion@COPOSGate@@UEAAJPEAJ@Z 000000018000e620 f   GateImpl.obj
 0001:0000d62c       ?get_DeviceDescription@COPOSGate@@UEAAJPEAPEA_W@Z 000000018000e62c f   GateImpl.obj
 0001:0000d640       ?get_DeviceEnabled@COPOSGate@@UEAAJPEAF@Z 000000018000e640 f   GateImpl.obj
 0001:0000d674       ?get_DeviceName@COPOSGate@@UEAAJPEAPEA_W@Z 000000018000e674 f   GateImpl.obj
 0001:0000d688       ?get_FreezeEvents@COPOSGate@@UEAAJPEAF@Z 000000018000e688 f   GateImpl.obj
 0001:0000d6b8       ?get_GateStatus@COPOSGate@@UEAAJPEAJ@Z 000000018000e6b8 f   GateImpl.obj
 0001:0000d6cc       ?get_OpenResult@COPOSGate@@UEAAJPEAJ@Z 000000018000e6cc f   GateImpl.obj
 0001:0000d6d8       ?get_PowerNotify@COPOSGate@@UEAAJPEAJ@Z 000000018000e6d8 f   GateImpl.obj
 0001:0000d6ec       ?get_PowerState@COPOSGate@@UEAAJPEAJ@Z 000000018000e6ec f   GateImpl.obj
 0001:0000d700       ?get_ResultCode@COPOSGate@@UEAAJPEAJ@Z 000000018000e700 f   GateImpl.obj
 0001:0000d73c       ?get_ResultCodeExtended@COPOSGate@@UEAAJPEAJ@Z 000000018000e73c f   GateImpl.obj
 0001:0000d750       ?get_ServiceObjectDescription@COPOSGate@@UEAAJPEAPEA_W@Z 000000018000e750 f   GateImpl.obj
 0001:0000d764       ?get_ServiceObjectVersion@COPOSGate@@UEAAJPEAJ@Z 000000018000e764 f   GateImpl.obj
 0001:0000d778       ?get_State@COPOSGate@@UEAAJPEAJ@Z 000000018000e778 f   GateImpl.obj
 0001:0000d7a4       ?put_BinaryConversion@COPOSGate@@UEAAJJ@Z 000000018000e7a4 f   GateImpl.obj
 0001:0000d7b8       ?put_DeviceEnabled@COPOSGate@@UEAAJF@Z 000000018000e7b8 f   GateImpl.obj
 0001:0000d7d0       ?put_FreezeEvents@COPOSGate@@UEAAJF@Z 000000018000e7d0 f   GateImpl.obj
 0001:0000d820       ?put_PowerNotify@COPOSGate@@UEAAJJ@Z 000000018000e820 f   GateImpl.obj
 0001:0000d834       ?s_EventWindowProc@COPOSGate@@KA_JPEAUHWND__@@I_K_J@Z 000000018000e834 f i GateImpl.obj
 0001:0000d8b0       ??_U@YAPEAX_K@Z            000000018000e8b0 f   LIBCMT:new_array.obj
 0001:0000d8b8       ??3@YAXPEAX_K@Z            000000018000e8b8 f   LIBCMT:delete_scalar_size.obj
 0001:0000d8b8       ??_V@YAXPEAX@Z             000000018000e8b8 f   LIBCMT:delete_array.obj
 0001:0000d8c0       ??_V@YAXPEAX_K@Z           000000018000e8c0 f   LIBCMT:delete_array_size.obj
 0001:0000d8c8       __scrt_acquire_startup_lock 000000018000e8c8 f   LIBCMT:utility.obj
 0001:0000d904       __scrt_dllmain_after_initialize_c 000000018000e904 f   LIBCMT:utility.obj
 0001:0000d938       __scrt_dllmain_before_initialize_c 000000018000e938 f   LIBCMT:utility.obj
 0001:0000d950       __scrt_dllmain_crt_thread_attach 000000018000e950 f   LIBCMT:utility.obj
 0001:0000d978       __scrt_dllmain_crt_thread_detach 000000018000e978 f   LIBCMT:utility.obj
 0001:0000d990       __scrt_dllmain_exception_filter 000000018000e990 f   LIBCMT:utility.obj
 0001:0000d9f0       __scrt_dllmain_uninitialize_c 000000018000e9f0 f   LIBCMT:utility.obj
 0001:0000da20       __scrt_dllmain_uninitialize_critical 000000018000ea20 f   LIBCMT:utility.obj
 0001:0000da34       __scrt_initialize_crt      000000018000ea34 f   LIBCMT:utility.obj
 0001:0000da80       __scrt_initialize_onexit_tables 000000018000ea80 f   LIBCMT:utility.obj
 0001:0000db0c       __scrt_is_nonwritable_in_current_image 000000018000eb0c f   LIBCMT:utility.obj
 0001:0000dba4       __scrt_release_startup_lock 000000018000eba4 f   LIBCMT:utility.obj
 0001:0000dbc8       __scrt_uninitialize_crt    000000018000ebc8 f   LIBCMT:utility.obj
 0001:0000dbf4       _onexit                    000000018000ebf4 f   LIBCMT:utility.obj
 0001:0000dc30       atexit                     000000018000ec30 f   LIBCMT:utility.obj
 0001:0000dc48       ??3@YAXPEAX@Z              000000018000ec48 f   LIBCMT:delete_scalar.obj
 0001:0000dd48       _Init_thread_footer        000000018000ed48 f   LIBCMT:thread_safe_statics.obj
 0001:0000dda8       _Init_thread_header        000000018000eda8 f   LIBCMT:thread_safe_statics.obj
 0001:0000de10       _Init_thread_notify        000000018000ee10 f   LIBCMT:thread_safe_statics.obj
 0001:0000de54       _Init_thread_wait          000000018000ee54 f   LIBCMT:thread_safe_statics.obj
 0001:0000deb8       __raise_securityfailure    000000018000eeb8 f   LIBCMT:gs_report.obj
 0001:0000deec       __report_gsfailure         000000018000eeec f   LIBCMT:gs_report.obj
 0001:0000dfc0       __report_rangecheckfailure 000000018000efc0 f   LIBCMT:gs_report.obj
 0001:0000dfd4       __report_securityfailure   000000018000efd4 f   LIBCMT:gs_report.obj
 0001:0000e154       ??2@YAPEAX_KAEBUnothrow_t@std@@@Z 000000018000f154 f   LIBCMT:new_scalar_nothrow.obj
 0001:0000e168       ??_U@YAPEAX_KAEBUnothrow_t@std@@@Z 000000018000f168 f   LIBCMT:new_array_nothrow.obj
 0001:0000e170       __GSHandlerCheck           000000018000f170 f   LIBCMT:gshandler.obj
 0001:0000e190       __GSHandlerCheckCommon     000000018000f190 f   LIBCMT:gshandler.obj
 0001:0000e1ec       __GSHandlerCheck_SEH       000000018000f1ec f   LIBCMT:gshandlerseh.obj
 0001:0000e290       __chkstk                   000000018000f290 f   LIBCMT:chkstk.obj
 0001:0000e290       _alloca_probe              000000018000f290 f   LIBCMT:chkstk.obj
 0001:0000e2f0       __security_check_cookie    000000018000f2f0 f   LIBCMT:amdsecgs.obj
 0001:0000e630       _DllMainCRTStartup         000000018000f630 f   LIBCMT:dll_dllmain.obj
 0001:0000e670       ??2@YAPEAX_K@Z             000000018000f670 f   LIBCMT:new_scalar.obj
 0001:0000e6ac       __isa_available_init       000000018000f6ac f   LIBCMT:cpu_disp.obj
 0001:0000e850       __scrt_is_ucrt_dll_in_use  000000018000f850 f   LIBCMT:ucrt_detection.obj
 0001:0000e85c       __crt_debugger_hook        000000018000f85c f   LIBCMT:utility_desktop.obj
 0001:0000e864       __scrt_fastfail            000000018000f864 f   LIBCMT:utility_desktop.obj
 0001:0000e9b0       __security_init_cookie     000000018000f9b0 f   LIBCMT:gs_support.obj
 0001:0000ea5c       ?__scrt_initialize_type_info@@YAXXZ 000000018000fa5c f   LIBCMT:tncleanup.obj
 0001:0000ea6c       ?__scrt_uninitialize_type_info@@YAXXZ 000000018000fa6c f   LIBCMT:tncleanup.obj
 0001:0000ea78       __local_stdio_scanf_options 000000018000fa78 f i LIBCMT:default_local_stdio_options.obj
 0001:0000ea80       __scrt_initialize_default_local_stdio_options 000000018000fa80 f   LIBCMT:default_local_stdio_options.obj
 0001:0000ea9c       __scrt_get_dyn_tls_init_callback 000000018000fa9c f   LIBCMT:dyn_tls_init.obj
 0001:0000eaa4       _RTC_Initialize            000000018000faa4 f   LIBCMT:initsect.obj
 0001:0000eae0       _RTC_Terminate             000000018000fae0 f   LIBCMT:initsect.obj
 0001:0000eb1c       ??0bad_alloc@std@@QEAA@AEBV01@@Z 000000018000fb1c f i LIBCMT:throw_bad_alloc.obj
 0001:0000eb58       ??0bad_alloc@std@@QEAA@XZ  000000018000fb58 f i LIBCMT:throw_bad_alloc.obj
 0001:0000eb78       ??0bad_array_new_length@std@@QEAA@AEBV01@@Z 000000018000fb78 f i LIBCMT:throw_bad_alloc.obj
 0001:0000ebb4       ??0bad_array_new_length@std@@QEAA@XZ 000000018000fbb4 f i LIBCMT:throw_bad_alloc.obj
 0001:0000ebd4       ??0exception@std@@QEAA@AEBV01@@Z 000000018000fbd4 f i LIBCMT:throw_bad_alloc.obj
 0001:0000ec08       ??1bad_exception@std@@UEAA@XZ 000000018000fc08 f i libvcruntime:frame.obj
 0001:0000ec08       ??1bad_alloc@std@@UEAA@XZ  000000018000fc08 f i LIBCMT:throw_bad_alloc.obj
 0001:0000ec08       ??1bad_array_new_length@std@@UEAA@XZ 000000018000fc08 f i LIBCMT:throw_bad_alloc.obj
 0001:0000ec1c       ??_Gbad_array_new_length@std@@UEAAPEAXI@Z 000000018000fc1c f i LIBCMT:throw_bad_alloc.obj
 0001:0000ec1c       ??_Gexception@std@@UEAAPEAXI@Z 000000018000fc1c f i LIBCMT:throw_bad_alloc.obj
 0001:0000ec1c       ??_Eexception@std@@UEAAPEAXI@Z 000000018000fc1c f i LIBCMT:throw_bad_alloc.obj
 0001:0000ec1c       ??_Ebad_array_new_length@std@@UEAAPEAXI@Z 000000018000fc1c f i LIBCMT:throw_bad_alloc.obj
 0001:0000ec1c       ??_Gbad_exception@std@@UEAAPEAXI@Z 000000018000fc1c f i libvcruntime:frame.obj
 0001:0000ec1c       ??_Gbad_alloc@std@@UEAAPEAXI@Z 000000018000fc1c f i LIBCMT:throw_bad_alloc.obj
 0001:0000ec1c       ??_Ebad_exception@std@@UEAAPEAXI@Z 000000018000fc1c f i libvcruntime:frame.obj
 0001:0000ec1c       ??_Ebad_alloc@std@@UEAAPEAXI@Z 000000018000fc1c f i LIBCMT:throw_bad_alloc.obj
 0001:0000ec60       ?__scrt_throw_std_bad_alloc@@YAXXZ 000000018000fc60 f   LIBCMT:throw_bad_alloc.obj
 0001:0000ec80       ?__scrt_throw_std_bad_array_new_length@@YAXXZ 000000018000fc80 f   LIBCMT:throw_bad_alloc.obj
 0001:0000eca0       ?what@exception@std@@UEBAPEBDXZ 000000018000fca0 f i LIBCMT:throw_bad_alloc.obj
 0001:0000ecc0       ??_Gtype_info@@UEAAPEAXI@Z 000000018000fcc0 f i LIBCMT:std_type_info_static.obj
 0001:0000ecc0       ??_Etype_info@@UEAAPEAXI@Z 000000018000fcc0 f i LIBCMT:std_type_info_static.obj
 0001:0000ecec       ??0CAtlBaseModule@ATL@@QEAA@XZ 000000018000fcec f   atls:atlbase.obj
 0001:0000ed94       ??1CAtlBaseModule@ATL@@QEAA@XZ 000000018000fd94 f   atls:atlbase.obj
 0001:0000eec8       ?__AllocStdCallThunk_cmn@@YAPEAXXZ 000000018000fec8 f   atls:atlthunk.obj
 0001:0000f020       AtlThunk_AllocateData      0000000180010020 f   atls:atlthunk.obj
 0001:0000f09c       AtlThunk_DataToCode        000000018001009c f   atls:atlthunk.obj
 0001:0000f0f0       AtlThunk_FreeData          00000001800100f0 f   atls:atlthunk.obj
 0001:0000f150       AtlThunk_InitData          0000000180010150 f   atls:atlthunk.obj
 0001:0000f1f8       _get_purecall_handler      00000001800101f8 f   libvcruntime:purevirt.obj
 0001:0000f204       _purecall                  0000000180010204 f   libvcruntime:purevirt.obj
 0001:0000f220       wcsstr                     0000000180010220 f   libvcruntime:wcsstr.obj
 0001:0000f450       memcmp                     0000000180010450 f   libvcruntime:memcmp.obj
 0001:0000f530       memcpy_repmovs             0000000180010530 f   libvcruntime:memcpy.obj
 0001:0000f550       memcpy                     0000000180010550 f   libvcruntime:memcpy.obj
 0001:0000f550       memmove                    0000000180010550 f   libvcruntime:memcpy.obj
 0001:0000fbe0       memset_repmovs             0000000180010be0 f   libvcruntime:memset.obj
 0001:0000fc00       memset                     0000000180010c00 f   libvcruntime:memset.obj
 0001:0000fd90       __vcrt_initialize          0000000180010d90 f   libvcruntime:initialization.obj
 0001:0000fdb8       __vcrt_thread_attach       0000000180010db8 f   libvcruntime:initialization.obj
 0001:0000fdcc       __vcrt_thread_detach       0000000180010dcc f   libvcruntime:initialization.obj
 0001:0000fde0       __vcrt_uninitialize        0000000180010de0 f   libvcruntime:initialization.obj
 0001:0000fdfc       __vcrt_uninitialize_critical 0000000180010dfc f   libvcruntime:initialization.obj
 0001:0000fe0c       __C_specific_handler       0000000180010e0c f   libvcruntime:riscchandler.obj
 0001:00010004       ??$_CallSETranslator@V__FrameHandler3@@@@YAHPEAUEHExceptionRecord@@PEA_KPEAU_CONTEXT@@PEAU_xDISPATCHER_CONTEXT@@PEBU_s_FuncInfo@@K1H@Z 0000000180011004 f i libvcruntime:risctrnsctrl.obj
 0001:00010058       ??$_CallSETranslator@V__FrameHandler4@@@@YAHPEAUEHExceptionRecord@@PEA_KPEAU_CONTEXT@@PEAU_xDISPATCHER_CONTEXT@@PEAUFuncInfo4@FH4@@K1H@Z 0000000180011058 f i libvcruntime:risctrnsctrl.obj
 0001:000100ac       ?CatchTryBlock@__FrameHandler3@@SAPEBU_s_TryBlockMapEntry@@PEBU_s_FuncInfo@@H@Z 00000001800110ac f   libvcruntime:risctrnsctrl.obj
 0001:00010110       ?DecompFuncInfo@FH4@@YA_JPEAEAEAUFuncInfo4@1@_KH_N@Z 0000000180011110 f i libvcruntime:risctrnsctrl.obj
 0001:00010234       ?ExecutionInCatch@__FrameHandler3@@SA_NPEAU_xDISPATCHER_CONTEXT@@PEBU_s_FuncInfo@@@Z 0000000180011234 f   libvcruntime:risctrnsctrl.obj
 0001:00010260       ?ExecutionInCatch@__FrameHandler4@@SA_NPEAU_xDISPATCHER_CONTEXT@@PEAUFuncInfo4@FH4@@@Z 0000000180011260 f   libvcruntime:risctrnsctrl.obj
 0001:00010268       ?FrameUnwindToEmptyState@__FrameHandler3@@SAXPEA_KPEAU_xDISPATCHER_CONTEXT@@PEBU_s_FuncInfo@@@Z 0000000180011268 f   libvcruntime:risctrnsctrl.obj
 0001:000102cc       ?FrameUnwindToEmptyState@__FrameHandler4@@SAXPEA_KPEAU_xDISPATCHER_CONTEXT@@PEAUFuncInfo4@FH4@@@Z 00000001800112cc f   libvcruntime:risctrnsctrl.obj
 0001:00010300       ?GetEstablisherFrame@__FrameHandler3@@SAPEA_KPEA_KPEAU_xDISPATCHER_CONTEXT@@PEBU_s_FuncInfo@@0@Z 0000000180011300 f   libvcruntime:risctrnsctrl.obj
 0001:000103cc       ?GetEstablisherFrame@__FrameHandler4@@SAPEA_KPEA_KPEAU_xDISPATCHER_CONTEXT@@PEAUFuncInfo4@FH4@@0@Z 00000001800113cc f   libvcruntime:risctrnsctrl.obj
 0001:000103f0       ?GetRangeOfTrysToCheck@__FrameHandler3@@SA?AU?$pair@Viterator@TryBlockMap@__FrameHandler3@@V123@@std@@AEAVTryBlockMap@1@HPEAU_xDISPATCHER_CONTEXT@@PEBU_s_FuncInfo@@H@Z 00000001800113f0 f   libvcruntime:risctrnsctrl.obj
 0001:00010530       ?GetRangeOfTrysToCheck@__FrameHandler4@@SA?AU?$pair@Viterator@TryBlockMap4@FH4@@V123@@std@@AEAVTryBlockMap4@FH4@@HPEAU_xDISPATCHER_CONTEXT@@PEAUFuncInfo4@5@H@Z 0000000180011530 f   libvcruntime:risctrnsctrl.obj
 0001:0001069c       ?UnwindNestedFrames@__FrameHandler3@@SAXPEA_KPEAUEHExceptionRecord@@PEAU_CONTEXT@@0PEAXPEBU_s_FuncInfo@@HHPEBU_s_HandlerType@@PEAU_xDISPATCHER_CONTEXT@@E@Z 000000018001169c f   libvcruntime:risctrnsctrl.obj
 0001:000107a0       ?UnwindNestedFrames@__FrameHandler4@@SAXPEA_KPEAUEHExceptionRecord@@PEAU_CONTEXT@@0PEAXPEAUFuncInfo4@FH4@@HHPEAUHandlerType4@5@PEAU_xDISPATCHER_CONTEXT@@E@Z 00000001800117a0 f   libvcruntime:risctrnsctrl.obj
 0001:000108c0       ?setBuffer@TryBlockMap4@FH4@@QEAAXViterator@12@@Z 00000001800118c0 f i libvcruntime:risctrnsctrl.obj
 0001:00010a84       _CreateFrameInfo           0000000180011a84 f   libvcruntime:risctrnsctrl.obj
 0001:00010ac0       _FindAndUnlinkFrame        0000000180011ac0 f   libvcruntime:risctrnsctrl.obj
 0001:00010b14       _GetImageBase              0000000180011b14 f   libvcruntime:risctrnsctrl.obj
 0001:00010b28       _GetThrowImageBase         0000000180011b28 f   libvcruntime:risctrnsctrl.obj
 0001:00010b3c       _SetImageBase              0000000180011b3c f   libvcruntime:risctrnsctrl.obj
 0001:00010b54       _SetThrowImageBase         0000000180011b54 f   libvcruntime:risctrnsctrl.obj
 0001:00010b6c       __CxxFrameHandler3         0000000180011b6c f   libvcruntime:risctrnsctrl.obj
 0001:00010bf4       __CxxFrameHandler4         0000000180011bf4 f   libvcruntime:risctrnsctrl.obj
 0001:00010cb4       __DestructExceptionObject  0000000180011cb4 f   libvcruntime:ehhelpers.obj
 0001:00010d24       ?_CallMemberFunction0@@YAXQEAX0@Z 0000000180011d24 f i libvcruntime:ehhelpers.obj
 0001:00010d28       _IsExceptionObjectToBeDestroyed 0000000180011d28 f   libvcruntime:ehhelpers.obj
 0001:00010d58       __AdjustPointer            0000000180011d58 f   libvcruntime:ehhelpers.obj
 0001:00010d7c       __FrameUnwindFilter        0000000180011d7c f   libvcruntime:ehhelpers.obj
 0001:00010de4       __std_terminate            0000000180011de4 f   libvcruntime:ehhelpers.obj
 0001:00010df0       __std_type_info_compare    0000000180011df0 f   libvcruntime:std_type_info.obj
 0001:00010e18       __std_type_info_destroy_list 0000000180011e18 f   libvcruntime:std_type_info.obj
 0001:00010e44       __std_exception_copy       0000000180011e44 f   libvcruntime:std_exception.obj
 0001:00010ed4       __std_exception_destroy    0000000180011ed4 f   libvcruntime:std_exception.obj
 0001:00010efc       _CxxThrowException         0000000180011efc f   libvcruntime:throw.obj
 0001:00010f9c       __vcrt_freefls             0000000180011f9c f   libvcruntime:per_thread_data.obj
 0001:00010fbc       __vcrt_freeptd             0000000180011fbc f   libvcruntime:per_thread_data.obj
 0001:0001100c       __vcrt_getptd              000000018001200c f   libvcruntime:per_thread_data.obj
 0001:00011028       __vcrt_getptd_noexit       0000000180012028 f   libvcruntime:per_thread_data.obj
 0001:000110e8       __vcrt_initialize_ptd      00000001800120e8 f   libvcruntime:per_thread_data.obj
 0001:00011130       __vcrt_uninitialize_ptd    0000000180012130 f   libvcruntime:per_thread_data.obj
 0001:00011154       __vcrt_initialize_locks    0000000180012154 f   libvcruntime:locks.obj
 0001:0001119c       __vcrt_uninitialize_locks  000000018001219c f   libvcruntime:locks.obj
 0001:000111f0       _NLG_Notify                00000001800121f0 f   libvcruntime:notify.obj
 0001:00011210       __NLG_Dispatch2            0000000180012210 f   libvcruntime:notify.obj
 0001:00011220       __NLG_Return2              0000000180012220 f   libvcruntime:notify.obj
 0001:00011224       __except_validate_context_record 0000000180012224 f   libvcruntime:jbcxrval.obj
 0001:0001125c       ?GetCurrentState@__FrameHandler3@@SAHPEA_KPEAU_xDISPATCHER_CONTEXT@@PEBU_s_FuncInfo@@@Z 000000018001225c f   libvcruntime:ehstate.obj
 0001:00011284       ?GetUnwindTryBlock@__FrameHandler3@@SAHPEA_KPEAU_xDISPATCHER_CONTEXT@@PEBU_s_FuncInfo@@@Z 0000000180012284 f   libvcruntime:ehstate.obj
 0001:000112b0       ?SetState@__FrameHandler3@@SAXPEA_KPEBU_s_FuncInfo@@H@Z 00000001800122b0 f   libvcruntime:ehstate.obj
 0001:000112bc       ?SetUnwindTryBlock@__FrameHandler3@@SAXPEA_KPEAU_xDISPATCHER_CONTEXT@@PEBU_s_FuncInfo@@H@Z 00000001800122bc f   libvcruntime:ehstate.obj
 0001:000112f8       ?StateFromControlPc@__FrameHandler3@@SAHPEBU_s_FuncInfo@@PEAU_xDISPATCHER_CONTEXT@@@Z 00000001800122f8 f   libvcruntime:ehstate.obj
 0001:00011300       ?StateFromControlPc@__FrameHandler4@@SAHPEAUFuncInfo4@FH4@@PEAU_xDISPATCHER_CONTEXT@@@Z 0000000180012300 f   libvcruntime:ehstate.obj
 0001:00011308       ?StateFromIp@__FrameHandler3@@SAHPEBU_s_FuncInfo@@PEAU_xDISPATCHER_CONTEXT@@_K@Z 0000000180012308 f   libvcruntime:ehstate.obj
 0001:00011370       ?StateFromIp@__FrameHandler4@@SAHPEAUFuncInfo4@FH4@@PEAU_xDISPATCHER_CONTEXT@@_K@Z 0000000180012370 f   libvcruntime:ehstate.obj
 0001:00012a70       ??$TypeMatchHelper@V__FrameHandler3@@@@YAHPEBU_s_HandlerType@@PEBU_s_CatchableType@@PEBU_s_ThrowInfo@@@Z 0000000180013a70 f i libvcruntime:frame.obj
 0001:00012bb0       ??$TypeMatchHelper@V__FrameHandler4@@@@YAHPEAUHandlerType4@FH4@@PEBU_s_CatchableType@@PEBU_s_ThrowInfo@@@Z 0000000180013bb0 f i libvcruntime:frame.obj
 0001:00012cf4       ??$__InternalCxxFrameHandler@V__FrameHandler3@@@@YA?AW4_EXCEPTION_DISPOSITION@@PEAUEHExceptionRecord@@PEA_KPEAU_CONTEXT@@PEAU_xDISPATCHER_CONTEXT@@PEBU_s_FuncInfo@@H1E@Z 0000000180013cf4 f i libvcruntime:frame.obj
 0001:00012f2c       ??$__InternalCxxFrameHandler@V__FrameHandler4@@@@YA?AW4_EXCEPTION_DISPOSITION@@PEAUEHExceptionRecord@@PEA_KPEAU_CONTEXT@@PEAU_xDISPATCHER_CONTEXT@@PEAUFuncInfo4@FH4@@H1E@Z 0000000180013f2c f i libvcruntime:frame.obj
 0001:000131c0       ??0HandlerMap4@FH4@@QEAA@PEBUTryBlockMapEntry4@1@_KH@Z 00000001800141c0 f i libvcruntime:frame.obj
 0001:0001323c       ??0TryBlockMap4@FH4@@QEAA@PEBUFuncInfo4@1@_K@Z 000000018001423c f i libvcruntime:frame.obj
 0001:00013314       ??0bad_exception@std@@QEAA@AEBV01@@Z 0000000180014314 f i libvcruntime:frame.obj
 0001:00013350       ??0bad_exception@std@@QEAA@XZ 0000000180014350 f i libvcruntime:frame.obj
 0001:00013370       ?CxxCallCatchBlock@__FrameHandler3@@SAPEAXPEAU_EXCEPTION_RECORD@@@Z 0000000180014370 f   libvcruntime:frame.obj
 0001:0001355c       ?CxxCallCatchBlock@__FrameHandler4@@SAPEAXPEAU_EXCEPTION_RECORD@@@Z 000000018001455c f   libvcruntime:frame.obj
 0001:000137ac       ?DecompHandler@HandlerMap4@FH4@@AEAAXXZ 00000001800147ac f i libvcruntime:frame.obj
 0001:000139f8       ?FrameUnwindToState@__FrameHandler3@@SAXPEA_KPEAU_xDISPATCHER_CONTEXT@@PEBU_s_FuncInfo@@H@Z 00000001800149f8 f   libvcruntime:frame.obj
 0001:00013b84       ?FrameUnwindToState@__FrameHandler4@@SAXPEA_KPEAU_xDISPATCHER_CONTEXT@@PEAUFuncInfo4@FH4@@H@Z 0000000180014b84 f   libvcruntime:frame.obj
 0001:00013e80       ?GetHandlerSearchState@__FrameHandler3@@SAHPEA_KPEAU_xDISPATCHER_CONTEXT@@PEBU_s_FuncInfo@@@Z 0000000180014e80 f i libvcruntime:frame.obj
 0001:00014090       ?ReadEntry@UWMap4@FH4@@AEAAXPEAPEAE@Z 0000000180015090 f i libvcruntime:frame.obj
 0001:0001412c       ?_CallMemberFunction1@@YAXQEAX00@Z 000000018001512c f i libvcruntime:frame.obj
 0001:00014138       ?_CallMemberFunction2@@YAXQEAX00H@Z 0000000180015138 f i libvcruntime:frame.obj
 0001:00014148       ?getStartStop@UWMap4@FH4@@QEAAXHHAEAViterator@12@0@Z 0000000180015148 f i libvcruntime:frame.obj
 0001:00014218       ?getStateFromIterators@UWMap4@FH4@@SAHAEBViterator@12@H0H0@Z 0000000180015218 f i libvcruntime:frame.obj
 0001:00014434       __vcrt_FlsAlloc            0000000180015434 f   libvcruntime:winapi_downlevel.obj
 0001:0001447c       __vcrt_FlsFree             000000018001547c f   libvcruntime:winapi_downlevel.obj
 0001:000144c4       __vcrt_FlsGetValue         00000001800154c4 f   libvcruntime:winapi_downlevel.obj
 0001:0001450c       __vcrt_FlsSetValue         000000018001550c f   libvcruntime:winapi_downlevel.obj
 0001:00014560       __vcrt_InitializeCriticalSectionEx 0000000180015560 f   libvcruntime:winapi_downlevel.obj
 0001:000145e0       _CallSettingFrame          00000001800155e0 f   libvcruntime:handlers.obj
 0001:00014630       _CallSettingFrame_LookupContinuationIndex 0000000180015630 f   libvcruntime:handlers.obj
 0001:00014660       _CallSettingFrame_NotifyContinuationAddr 0000000180015660 f   libvcruntime:handlers.obj
 0001:00014690       _CallSettingFrameEncoded   0000000180015690 f   libvcruntime:handlers.obj
 0001:000146d8       free                       00000001800156d8 f   libucrt:free.obj
 0001:000146ec       ?get_raw_ptd@__crt_cached_ptd_host@@QEAAPEAU__acrt_ptd@@XZ 00000001800156ec f i libucrt:invalid_parameter.obj
 0001:00014754       ?get_raw_ptd_noexit@__crt_cached_ptd_host@@QEAAPEAU__acrt_ptd@@XZ 0000000180015754 f i libucrt:invalid_parameter.obj
 0001:000147c0       ?value@?$dual_state_global@P6AXPEB_W00I_K@Z@__crt_state_management@@QEAAAEAP6AXPEB_W00I_K@ZAEAV__crt_cached_ptd_host@@@Z 00000001800157c0 f i libucrt:invalid_parameter.obj
 0001:0001480c       __acrt_call_reportfault    000000018001580c f   libucrt:invalid_parameter.obj
 0001:00014968       __acrt_initialize_invalid_parameter_handler 0000000180015968 f   libucrt:invalid_parameter.obj
 0001:00014970       _invalid_parameter         0000000180015970 f   libucrt:invalid_parameter.obj
 0001:00014a0c       _invalid_parameter_internal 0000000180015a0c f   libucrt:invalid_parameter.obj
 0001:00014adc       _invalid_parameter_noinfo  0000000180015adc f   libucrt:invalid_parameter.obj
 0001:00014afc       _invoke_watson             0000000180015afc f   libucrt:invalid_parameter.obj
 0001:00014b44       __acrt_errno_from_os_error 0000000180015b44 f   libucrt:errno.obj
 0001:00014b8c       __acrt_errno_map_os_error  0000000180015b8c f   libucrt:errno.obj
 0001:00014bd4       __acrt_errno_map_os_error_ptd 0000000180015bd4 f   libucrt:errno.obj
 0001:00014bf8       __doserrno                 0000000180015bf8 f   libucrt:errno.obj
 0001:00014c18       _errno                     0000000180015c18 f   libucrt:errno.obj
 0001:00014c38       calloc                     0000000180015c38 f   libucrt:calloc.obj
 0001:00014c40       malloc                     0000000180015c40 f   libucrt:malloc.obj
 0001:00014c48       _recalloc                  0000000180015c48 f   libucrt:recalloc.obj
 0001:00014c50       _recalloc_base             0000000180015c50 f   libucrt:recalloc.obj
 0001:00014ce8       _resetstkoflw              0000000180015ce8 f   libucrt:resetstk.obj
 0001:00014e14       wcscat_s                   0000000180015e14 f   libucrt:wcscat_s.obj
 0001:00014e98       wcscpy_s                   0000000180015e98 f   libucrt:wcscpy_s.obj
 0001:00014f00       wcsncpy_s                  0000000180015f00 f   libucrt:wcsncpy_s.obj
 0001:000151b4       ??$ensure_buffer_is_big_enough@D@formatting_buffer@__crt_stdio_output@@QEAA_N_KAEAV__crt_cached_ptd_host@@@Z 00000001800161b4 f i libucrt:output.obj
 0001:0001525c       ??$ensure_buffer_is_big_enough@_W@formatting_buffer@__crt_stdio_output@@QEAA_N_KAEAV__crt_cached_ptd_host@@@Z 000000018001625c f i libucrt:output.obj
 0001:00015308       ??$is_wide_character_specifier@_W@__crt_stdio_output@@YA_N_K_WW4length_modifier@0@@Z 0000000180016308 f i libucrt:output.obj
 0001:00015348       ??$parse_integer@KV?$c_string_character_source@_W@__crt_strtox@@$0A@@__crt_strtox@@YAKAEAV__crt_cached_ptd_host@@V?$c_string_character_source@_W@0@H_N@Z 0000000180016348 f i libucrt:output.obj
 0001:00015aa0       ??$type_case_integer@$07@?$output_processor@_WV?$string_output_adapter@_W@__crt_stdio_output@@V?$format_validation_base@_WV?$string_output_adapter@_W@__crt_stdio_output@@@2@@__crt_stdio_output@@AEAA_N_N@Z 0000000180016aa0 f i libucrt:output.obj
 0001:00015c8c       ??$type_case_integer@$09@?$output_processor@_WV?$string_output_adapter@_W@__crt_stdio_output@@V?$format_validation_base@_WV?$string_output_adapter@_W@__crt_stdio_output@@@2@@__crt_stdio_output@@AEAA_N_N@Z 0000000180016c8c f i libucrt:output.obj
 0001:00015e78       ??$type_case_integer@$0BA@@?$output_processor@_WV?$string_output_adapter@_W@__crt_stdio_output@@V?$format_validation_base@_WV?$string_output_adapter@_W@__crt_stdio_output@@@2@@__crt_stdio_output@@AEAA_N_N@Z 0000000180016e78 f i libucrt:output.obj
 0001:00016064       ??$type_case_integer_parse_into_buffer@I$07@?$output_processor@_WV?$string_output_adapter@_W@__crt_stdio_output@@V?$format_validation_base@_WV?$string_output_adapter@_W@__crt_stdio_output@@@2@@__crt_stdio_output@@AEAAXI_N@Z 0000000180017064 f i libucrt:output.obj
 0001:000160ec       ??$type_case_integer_parse_into_buffer@I$09@?$output_processor@_WV?$string_output_adapter@_W@__crt_stdio_output@@V?$format_validation_base@_WV?$string_output_adapter@_W@__crt_stdio_output@@@2@@__crt_stdio_output@@AEAAXI_N@Z 00000001800170ec f i libucrt:output.obj
 0001:000161a4       ??$type_case_integer_parse_into_buffer@I$0BA@@?$output_processor@_WV?$string_output_adapter@_W@__crt_stdio_output@@V?$format_validation_base@_WV?$string_output_adapter@_W@__crt_stdio_output@@@2@@__crt_stdio_output@@AEAAXI_N@Z 00000001800171a4 f i libucrt:output.obj
 0001:00016248       ??$type_case_integer_parse_into_buffer@_K$07@?$output_processor@_WV?$string_output_adapter@_W@__crt_stdio_output@@V?$format_validation_base@_WV?$string_output_adapter@_W@__crt_stdio_output@@@2@@__crt_stdio_output@@AEAAX_K_N@Z 0000000180017248 f i libucrt:output.obj
 0001:000162d0       ??$type_case_integer_parse_into_buffer@_K$09@?$output_processor@_WV?$string_output_adapter@_W@__crt_stdio_output@@V?$format_validation_base@_WV?$string_output_adapter@_W@__crt_stdio_output@@@2@@__crt_stdio_output@@AEAAX_K_N@Z 00000001800172d0 f i libucrt:output.obj
 0001:00016390       ??$type_case_integer_parse_into_buffer@_K$0BA@@?$output_processor@_WV?$string_output_adapter@_W@__crt_stdio_output@@V?$format_validation_base@_WV?$string_output_adapter@_W@__crt_stdio_output@@@2@@__crt_stdio_output@@AEAAX_K_N@Z 0000000180017390 f i libucrt:output.obj
 0001:00016434       ?crop_zeroes@__crt_stdio_output@@YAXPEADQEAU__crt_locale_pointers@@@Z 0000000180017434 f i libucrt:output.obj
 0001:000164a0       ?parse_int_from_format_string@?$output_processor@_WV?$string_output_adapter@_W@__crt_stdio_output@@V?$format_validation_base@_WV?$string_output_adapter@_W@__crt_stdio_output@@@2@@__crt_stdio_output@@AEAA_NQEAH@Z 00000001800174a0 f i libucrt:output.obj
 0001:00016530       ?process@?$output_processor@_WV?$string_output_adapter@_W@__crt_stdio_output@@V?$format_validation_base@_WV?$string_output_adapter@_W@__crt_stdio_output@@@2@@__crt_stdio_output@@QEAAHXZ 0000000180017530 f i libucrt:output.obj
 0001:0001680c       ?state_case_size@?$output_processor@_WV?$string_output_adapter@_W@__crt_stdio_output@@V?$format_validation_base@_WV?$string_output_adapter@_W@__crt_stdio_output@@@2@@__crt_stdio_output@@AEAA_NXZ 000000018001780c f i libucrt:output.obj
 0001:000169b8       ?state_case_type@?$output_processor@_WV?$string_output_adapter@_W@__crt_stdio_output@@V?$format_validation_base@_WV?$string_output_adapter@_W@__crt_stdio_output@@@2@@__crt_stdio_output@@AEAA_NXZ 00000001800179b8 f i libucrt:output.obj
 0001:00016e14       ?type_case_Z@?$output_processor@_WV?$string_output_adapter@_W@__crt_stdio_output@@V?$format_validation_base@_WV?$string_output_adapter@_W@__crt_stdio_output@@@2@@__crt_stdio_output@@AEAA_NXZ 0000000180017e14 f i libucrt:output.obj
 0001:00016e90       ?type_case_a@?$output_processor@_WV?$string_output_adapter@_W@__crt_stdio_output@@V?$format_validation_base@_WV?$string_output_adapter@_W@__crt_stdio_output@@@2@@__crt_stdio_output@@AEAA_NXZ 0000000180017e90 f i libucrt:output.obj
 0001:000170f0       ?type_case_c_tchar@?$output_processor@_WV?$string_output_adapter@_W@__crt_stdio_output@@V?$format_validation_base@_WV?$string_output_adapter@_W@__crt_stdio_output@@@2@@__crt_stdio_output@@AEAA_N_W@Z 00000001800180f0 f i libucrt:output.obj
 0001:000171b4       ?type_case_n@?$output_processor@_WV?$string_output_adapter@_W@__crt_stdio_output@@V?$format_validation_base@_WV?$string_output_adapter@_W@__crt_stdio_output@@@2@@__crt_stdio_output@@AEAA_NXZ 00000001800181b4 f i libucrt:output.obj
 0001:00017268       ?type_case_s@?$output_processor@_WV?$string_output_adapter@_W@__crt_stdio_output@@V?$format_validation_base@_WV?$string_output_adapter@_W@__crt_stdio_output@@@2@@__crt_stdio_output@@AEAA_NXZ 0000000180018268 f i libucrt:output.obj
 0001:00017300       ?type_case_s_compute_narrow_string_length@?$output_processor@_WV?$string_output_adapter@_W@__crt_stdio_output@@V?$format_validation_base@_WV?$string_output_adapter@_W@__crt_stdio_output@@@2@@__crt_stdio_output@@AEAAHH_W@Z 0000000180018300 f i libucrt:output.obj
 0001:00017380       ?update_locale_slow@__crt_cached_ptd_host@@AEAAXXZ 0000000180018380 f i libucrt:output.obj
 0001:000173f8       ?write_string@?$string_output_adapter@_W@__crt_stdio_output@@QEBAXQEB_WHQEAHAEAV__crt_cached_ptd_host@@@Z 00000001800183f8 f i libucrt:output.obj
 0001:000174a0       __stdio_common_vswprintf_s 00000001800184a0 f   libucrt:output.obj
 0001:000175b4       _seh_filter_dll            00000001800185b4 f   libucrt:exception_filter.obj
 0001:000175c8       _seh_filter_exe            00000001800185c8 f   libucrt:exception_filter.obj
 0001:000179ec       __acrt_initialize_thread_local_exit_callback 00000001800189ec f   libucrt:exit.obj
 0001:000179f4       _cexit                     00000001800189f4 f   libucrt:exit.obj
 0001:00017a04       _exit                      0000000180018a04 f   libucrt:exit.obj
 0001:00017a10       _is_c_termination_complete 0000000180018a10 f   libucrt:exit.obj
 0001:00017bd8       __acrt_allocate_buffer_for_argv 0000000180018bd8 f   libucrt:argv_parsing.obj
 0001:00017c38       _configure_narrow_argv     0000000180018c38 f   libucrt:argv_parsing.obj
 0001:00017fc0       __dcrt_uninitialize_environments_nolock 0000000180018fc0 f   libucrt:environment_initialization.obj
 0001:00018004       _initialize_narrow_environment 0000000180019004 f   libucrt:environment_initialization.obj
 0001:00018354       _crt_atexit                0000000180019354 f   libucrt:onexit.obj
 0001:00018364       _execute_onexit_table      0000000180019364 f   libucrt:onexit.obj
 0001:000183a8       _initialize_onexit_table   00000001800193a8 f   libucrt:onexit.obj
 0001:000183d0       _register_onexit_function  00000001800193d0 f   libucrt:onexit.obj
 0001:00018450       __acrt_uninitialize_command_line 0000000180019450 f   libucrt:argv_data.obj
 0001:00018548       __acrt_initialize          0000000180019548 f   libucrt:initialization.obj
 0001:0001855c       __acrt_thread_attach       000000018001955c f   libucrt:initialization.obj
 0001:00018570       __acrt_thread_detach       0000000180019570 f   libucrt:initialization.obj
 0001:00018580       __acrt_uninitialize        0000000180019580 f   libucrt:initialization.obj
 0001:000185b8       __acrt_uninitialize_critical 00000001800195b8 f   libucrt:initialization.obj
 0001:000185c8       _initterm                  00000001800195c8 f   libucrt:initterm.obj
 0001:0001860c       _initterm_e                000000018001960c f   libucrt:initterm.obj
 0001:00018654       __acrt_initialize_new_handler 0000000180019654 f   libucrt:new_handler.obj
 0001:0001865c       _callnewh                  000000018001965c f   libucrt:new_handler.obj
 0001:00018698       _query_new_handler         0000000180019698 f   libucrt:new_handler.obj
 0001:000186cc       terminate                  00000001800196cc f   libucrt:terminate.obj
 0001:000186f8       abort                      00000001800196f8 f   libucrt:abort.obj
 0001:00018750       strcpy_s                   0000000180019750 f   libucrt:strcpy_s.obj
 0001:000187c0       strncmp                    00000001800197c0 f   libucrt:strncmp.obj
 0001:00018840       wcsncmp                    0000000180019840 f   libucrt:wcsncmp.obj
 0001:0001886c       _free_base                 000000018001986c f   libucrt:free_base.obj
 0001:00018c20       __acrt_freeptd             0000000180019c20 f   libucrt:per_thread_data.obj
 0001:00018c64       __acrt_getptd              0000000180019c64 f   libucrt:per_thread_data.obj
 0001:00018d38       __acrt_getptd_head         0000000180019d38 f   libucrt:per_thread_data.obj
 0001:00018ddc       __acrt_getptd_noexit       0000000180019ddc f   libucrt:per_thread_data.obj
 0001:00018ea4       __acrt_getptd_noexit_explicit 0000000180019ea4 f   libucrt:per_thread_data.obj
 0001:00018f64       __acrt_initialize_ptd      0000000180019f64 f   libucrt:per_thread_data.obj
 0001:00018fa0       __acrt_uninitialize_ptd    0000000180019fa0 f   libucrt:per_thread_data.obj
 0001:00019034       __acrt_set_locale_changed  000000018001a034 f   libucrt:wsetlocale.obj
 0001:00019040       __acrt_uninitialize_locale 000000018001a040 f   libucrt:wsetlocale.obj
 0001:00019070       _calloc_base               000000018001a070 f   libucrt:calloc_base.obj
 0001:000190e8       _malloc_base               000000018001a0e8 f   libucrt:malloc_base.obj
 0001:00019148       _msize_base                000000018001a148 f   libucrt:msize.obj
 0001:00019184       _realloc_base              000000018001a184 f   libucrt:realloc_base.obj
 0001:000193c0       __acrt_AppPolicyGetProcessTerminationMethodInternal 000000018001a3c0 f   libucrt:winapi_thunks.obj
 0001:00019418       __acrt_AreFileApisANSI     000000018001a418 f   libucrt:winapi_thunks.obj
 0001:0001945c       __acrt_FlsAlloc            000000018001a45c f   libucrt:winapi_thunks.obj
 0001:00019464       __acrt_FlsFree             000000018001a464 f   libucrt:winapi_thunks.obj
 0001:0001946c       __acrt_FlsGetValue         000000018001a46c f   libucrt:winapi_thunks.obj
 0001:00019474       __acrt_FlsSetValue         000000018001a474 f   libucrt:winapi_thunks.obj
 0001:0001947c       __acrt_InitializeCriticalSectionEx 000000018001a47c f   libucrt:winapi_thunks.obj
 0001:000194ec       __acrt_LCMapStringEx       000000018001a4ec f   libucrt:winapi_thunks.obj
 0001:000195d8       __acrt_LocaleNameToLCID    000000018001a5d8 f   libucrt:winapi_thunks.obj
 0001:00019638       __acrt_SetThreadStackGuarantee 000000018001a638 f   libucrt:winapi_thunks.obj
 0001:00019684       __acrt_initialize_winapi_thunks 000000018001a684 f   libucrt:winapi_thunks.obj
 0001:000196a8       __acrt_uninitialize_winapi_thunks 000000018001a6a8 f   libucrt:winapi_thunks.obj
 0001:000196ec       wcsnlen                    000000018001a6ec f   libucrt:strnlen.obj
 0001:000198c4       __acrt_update_locale_info  000000018001a8c4 f   libucrt:locale_update.obj
 0001:000198f8       __acrt_update_locale_info_explicit 000000018001a8f8 f   libucrt:locale_update.obj
 0001:00019930       __acrt_update_multibyte_info 000000018001a930 f   libucrt:locale_update.obj
 0001:00019964       __acrt_update_multibyte_info_explicit 000000018001a964 f   libucrt:locale_update.obj
 0001:0001a4cc       __acrt_fp_format           000000018001b4cc f   libucrt:cvt.obj
 0001:0001a7b4       _mbtowc_internal           000000018001b7b4 f   libucrt:mbtowc.obj
 0001:0001a92c       _fileno                    000000018001b92c f   libucrt:fileno.obj
 0001:0001a954       __acrt_initialize_stdio    000000018001b954 f   libucrt:_file.obj
 0001:0001aa74       __acrt_uninitialize_stdio  000000018001ba74 f   libucrt:_file.obj
 0001:0001aad0       _lock_file                 000000018001bad0 f   libucrt:_file.obj
 0001:0001aadc       _unlock_file               000000018001badc f   libucrt:_file.obj
 0001:0001aae8       _get_printf_count_output   000000018001bae8 f   libucrt:printf_count_output.obj
 0001:0001acf8       __acrt_initialize_lowio    000000018001bcf8 f   libucrt:ioinit.obj
 0001:0001ad34       __acrt_uninitialize_lowio  000000018001bd34 f   libucrt:ioinit.obj
 0001:0001ad74       __acrt_initialize_locks    000000018001bd74 f   libucrt:locks.obj
 0001:0001adbc       __acrt_lock                000000018001bdbc f   libucrt:locks.obj
 0001:0001add8       __acrt_uninitialize_locks  000000018001bdd8 f   libucrt:locks.obj
 0001:0001ae10       __acrt_unlock              000000018001be10 f   libucrt:locks.obj
 0001:0001ae2c       __acrt_get_process_end_policy 000000018001be2c f   libucrt:win_policies.obj
 0001:0001ae7c       ??$__acrt_convert_wcs_mbs_cp@D_WV<lambda_7c9dea7b4ca7285d2cdb541a38da6275>@@U__crt_win32_buffer_internal_dynamic_resizing@@@@YAHQEBDAEAV?$__crt_win32_buffer@_WU__crt_win32_buffer_internal_dynamic_resizing@@@@AEBV<lambda_7c9dea7b4ca7285d2cdb541a38da6275>@@I@Z 000000018001be7c f i libucrt:argv_wildcards.obj
 0001:0001aff8       ??$__acrt_convert_wcs_mbs_cp@_WDV<lambda_d8593a27d1aa8c02be35c86a17d324c4>@@U__crt_win32_buffer_internal_dynamic_resizing@@@@YAHQEB_WAEAV?$__crt_win32_buffer@DU__crt_win32_buffer_internal_dynamic_resizing@@@@AEBV<lambda_d8593a27d1aa8c02be35c86a17d324c4>@@I@Z 000000018001bff8 f i libucrt:argv_wildcards.obj
 0001:0001b8a0       ??0_LocaleUpdate@@QEAA@QEAU__crt_locale_pointers@@@Z 000000018001c8a0 f i libucrt:argv_wildcards.obj
 0001:0001b93c       __acrt_expand_narrow_argv_wildcards 000000018001c93c f   libucrt:argv_wildcards.obj
 0001:0001b944       ??$__acrt_convert_wcs_mbs_cp@_WDV<lambda_f788ae46380686e8b737efdd8c720d07>@@U__crt_win32_buffer_no_resizing@@@@YAHQEB_WAEAV?$__crt_win32_buffer@DU__crt_win32_buffer_no_resizing@@@@AEBV<lambda_f788ae46380686e8b737efdd8c720d07>@@I@Z 000000018001c944 f i libucrt:getmodulefilenamea.obj
 0001:0001ba60       __acrt_GetModuleFileNameA  000000018001ca60 f   libucrt:getmodulefilenamea.obj
 0001:0001c37c       __acrt_initialize_multibyte 000000018001d37c f   libucrt:mbctype.obj
 0001:0001c3dc       __acrt_update_thread_multibyte_data 000000018001d3dc f   libucrt:mbctype.obj
 0001:0001c3f8       _setmbcp_nolock            000000018001d3f8 f   libucrt:mbctype.obj
 0001:0001c72c       _ismbblead                 000000018001d72c f   libucrt:ismbbyte.obj
 0001:0001c740       __acrt_initialize_command_line 000000018001d740 f   libucrt:argv_data.obj
 0001:0001c768       __acrt_MultiByteToWideChar 000000018001d768 f   libucrt:multibytetowidechar.obj
 0001:0001c7c4       __acrt_WideCharToMultiByte 000000018001d7c4 f   libucrt:widechartomultibyte.obj
 0001:0001c874       __dcrt_get_narrow_environment_from_os 000000018001d874 f   libucrt:get_environment_from_os.obj
 0001:0001c984       __acrt_initialize_heap     000000018001d984 f   libucrt:heap_handle.obj
 0001:0001c9a0       __acrt_uninitialize_heap   000000018001d9a0 f   libucrt:heap_handle.obj
 0001:0001c9ac       __acrt_execute_initializers 000000018001d9ac f   libucrt:shared_initialization.obj
 0001:0001ca40       __acrt_execute_uninitializers 000000018001da40 f   libucrt:shared_initialization.obj
 0001:0001cad0       __acrt_get_sigabrt_handler 000000018001dad0 f   libucrt:signal.obj
 0001:0001cb00       __acrt_initialize_signal_handlers 000000018001db00 f   libucrt:signal.obj
 0001:0001cb20       raise                      000000018001db20 f   libucrt:signal.obj
 0001:0001cda0       __acrt_has_user_matherr    000000018001dda0 f   libucrt:matherr.obj
 0001:0001cdc0       __acrt_initialize_user_matherr 000000018001ddc0 f   libucrt:matherr.obj
 0001:0001cdc8       __acrt_invoke_user_matherr 000000018001ddc8 f   libucrt:matherr.obj
 0001:0001cfdc       __acrt_stdio_flush_nolock  000000018001dfdc f   libucrt:fflush.obj
 0001:0001d068       _fflush_nolock             000000018001e068 f   libucrt:fflush.obj
 0001:0001d13c       _flushall                  000000018001e13c f   libucrt:fflush.obj
 0001:0001d144       __acrt_add_locale_ref      000000018001e144 f   libucrt:locale_refcounting.obj
 0001:0001d1d0       __acrt_free_locale         000000018001e1d0 f   libucrt:locale_refcounting.obj
 0001:0001d348       __acrt_locale_add_lc_time_reference 000000018001e348 f   libucrt:locale_refcounting.obj
 0001:0001d370       __acrt_locale_free_lc_time_if_unreferenced 000000018001e370 f   libucrt:locale_refcounting.obj
 0001:0001d3a8       __acrt_locale_release_lc_time_reference 000000018001e3a8 f   libucrt:locale_refcounting.obj
 0001:0001d3d0       __acrt_release_locale_ref  000000018001e3d0 f   libucrt:locale_refcounting.obj
 0001:0001d478       __acrt_update_thread_locale_data 000000018001e478 f   libucrt:locale_refcounting.obj
 0001:0001d4e8       _updatetlocinfoEx_nolock   000000018001e4e8 f   libucrt:locale_refcounting.obj
 0001:0001d550       __acrt_locale_free_monetary 000000018001e550 f   libucrt:initmon.obj
 0001:0001d65c       __acrt_locale_free_numeric 000000018001e65c f   libucrt:initnum.obj
 0001:0001d6fc       __acrt_locale_free_time    000000018001e6fc f   libucrt:inittime.obj
 0001:0001d804       __acrt_GetStringTypeA      000000018001e804 f   libucrt:getstringtypea.obj
 0001:0001d9a0       _query_new_mode            000000018001e9a0 f   libucrt:new_mode.obj
 0001:0001d9a8       __acrt_DownlevelLocaleNameToLCID 000000018001e9a8 f   libucrt:lcidtoname_downlevel.obj
 0001:0001da50       __acrt_fp_strflt_to_string 000000018001ea50 f   libucrt:_fptostr.obj
 0001:0001dbe0       ?divide@__crt_strtox@@YA_KAEAUbig_integer@1@AEBU21@@Z 000000018001ebe0 f i libucrt:cfout.obj
 0001:0001e06c       __acrt_fltout              000000018001f06c f   libucrt:cfout.obj
 0001:0001f334       fegetround                 0000000180020334 f   libucrt:fegetround.obj
 0001:0001f348       ?__mbrtowc_utf8@__crt_mbstring@@YA_KPEA_WPEBD_KPEAU_Mbstatet@@AEAV__crt_cached_ptd_host@@@Z 0000000180020348 f   libucrt:mbrtowc.obj
 0001:0001f38c       ?__mbsrtowcs_utf8@__crt_mbstring@@YA_KPEA_WPEAPEBD_KPEAU_Mbstatet@@AEAV__crt_cached_ptd_host@@@Z 000000018002038c f   libucrt:mbrtowc.obj
 0001:0001f530       _fcloseall                 0000000180020530 f   libucrt:closeall.obj
 0001:0001f5e4       __acrt_stdio_free_buffer_nolock 00000001800205e4 f   libucrt:_freebuf.obj
 0001:0001f624       _isatty                    0000000180020624 f   libucrt:isatty.obj
 0001:0001f684       __acrt_lowio_create_handle_array 0000000180020684 f   libucrt:osfinfo.obj
 0001:0001f72c       __acrt_lowio_destroy_handle_array 000000018002072c f   libucrt:osfinfo.obj
 0001:0001f77c       __acrt_lowio_ensure_fh_exists 000000018002077c f   libucrt:osfinfo.obj
 0001:0001f824       __acrt_lowio_lock_fh       0000000180020824 f   libucrt:osfinfo.obj
 0001:0001f84c       __acrt_lowio_unlock_fh     000000018002084c f   libucrt:osfinfo.obj
 0001:0001f874       _free_osfhnd               0000000180020874 f   libucrt:osfinfo.obj
 0001:0001f930       _get_osfhandle             0000000180020930 f   libucrt:osfinfo.obj
 0001:0001f9b0       qsort                      00000001800209b0 f   libucrt:qsort.obj
 0001:0001fdc0       strncpy_s                  0000000180020dc0 f   libucrt:strncpy_s.obj
 0001:0001ff50       strpbrk                    0000000180020f50 f   libucrt:strpbrk.obj
 0001:00020318       _mbsdec                    0000000180021318 f   libucrt:mbsdec.obj
 0001:00020320       _mbsdec_l                  0000000180021320 f   libucrt:mbsdec.obj
 0001:000206d4       __acrt_LCMapStringA        00000001800216d4 f   libucrt:lcmapstringa.obj
 0001:00020810       _commit                    0000000180021810 f   libucrt:commit.obj
 0001:000210c0       _write_internal            00000001800220c0 f   libucrt:write.obj
 0001:000211e8       _write_nolock              00000001800221e8 f   libucrt:write.obj
 0001:000214f8       __ascii_wcsnicmp           00000001800224f8 f   libucrt:wcsnicmp.obj
 0001:00021544       _controlfp_s               0000000180022544 f   libucrt:contrlfp.obj
 0001:000215a8       fegetenv                   00000001800225a8 f   libucrt:fegetenv.obj
 0001:000215c8       fesetenv                   00000001800225c8 f   libucrt:fesetenv.obj
 0001:00021614       feholdexcept               0000000180022614 f   libucrt:feholdexcept.obj
 0001:00021664       ceil                       0000000180022664 f   libucrt:ceil.obj
 0001:00021730       log10                      0000000180022730 f   libucrt:log10.obj
 0001:00021cdc       __acrt_fenv_get_common_round_control 0000000180022cdc f   libucrt:_fenvutils.obj
 0001:00021ce8       __acrt_fenv_get_control    0000000180022ce8 f   libucrt:_fenvutils.obj
 0001:00021dcc       __acrt_fenv_get_status     0000000180022dcc f   libucrt:_fenvutils.obj
 0001:00021e24       __acrt_fenv_set_control    0000000180022e24 f   libucrt:_fenvutils.obj
 0001:00021f60       __acrt_fenv_set_status     0000000180022f60 f   libucrt:_fenvutils.obj
 0001:00021fd4       ?reset_and_return@__crt_mbstring@@YA_K_KPEAU_Mbstatet@@@Z 0000000180022fd4 f   libucrt:common_utf8.obj
 0001:00021fdc       ?return_illegal_sequence@__crt_mbstring@@YA_KPEAU_Mbstatet@@AEAV__crt_cached_ptd_host@@@Z 0000000180022fdc f   libucrt:common_utf8.obj
 0001:00021ff0       ?__mbrtoc32_utf8@__crt_mbstring@@YA_KPEA_UPEBD_KPEAU_Mbstatet@@AEAV__crt_cached_ptd_host@@@Z 0000000180022ff0 f   libucrt:mbrtoc32.obj
 0001:000222ec       fclose                     00000001800232ec f   libucrt:fclose.obj
 0001:00022430       _lseeki64_nolock_internal  0000000180023430 f   libucrt:lseek.obj
 0001:00022438       _query_app_type            0000000180023438 f   libucrt:report_runtime_error.obj
 0001:00022440       __strncnt                  0000000180023440 f   libucrt:strncnt.obj
 0001:00022458       _putwch_nolock             0000000180023458 f   libucrt:putwch.obj
 0001:00022494       _clearfp                   0000000180023494 f   libucrt:ieee.obj
 0001:00022504       _control87                 0000000180023504 f   libucrt:ieee.obj
 0001:000228f0       _handle_error              00000001800238f0 f   libucrt:libm_error.obj
 0001:00022a18       _handle_nan                0000000180023a18 f   libucrt:libm_error.obj
 0001:00022a40       __acrt_initialize_fma3     0000000180023a40 f   libucrt:fma3_available.obj
 0001:00022ab0       _log10_special             0000000180023ab0 f   libucrt:log_special.obj
 0001:00022be0       _close_internal            0000000180023be0 f   libucrt:close.obj
 0001:00022ca4       _close_nolock_internal     0000000180023ca4 f   libucrt:close.obj
 0001:00022d74       ?__acrt_stdio_free_stream@@YAXV__crt_stdio_stream@@@Z 0000000180023d74 f   libucrt:stream.obj
 0001:00022d90       __dcrt_lowio_ensure_console_output_initialized 0000000180023d90 f   libucrt:initcon.obj
 0001:00022de4       __dcrt_terminate_console_output 0000000180023de4 f   libucrt:initcon.obj
 0001:00022e00       __dcrt_write_console       0000000180023e00 f   libucrt:initcon.obj
 0001:00022ed0       _get_fpsr                  0000000180023ed0 f   libucrt:fpsr.obj
 0001:00022ee0       _set_fpsr                  0000000180023ee0 f   libucrt:fpsr.obj
 0001:00022eea       _fclrf                     0000000180023eea f   libucrt:fpsr.obj
 0001:00022efe       _frnd                      0000000180023efe f   libucrt:fpsr.obj
 0001:00022f20       _raise_exc                 0000000180023f20 f   libucrt:fpexcept.obj
 0001:00022f48       _raise_exc_ex              0000000180023f48 f   libucrt:fpexcept.obj
 0001:00023258       _set_errno_from_matherr    0000000180024258 f   libucrt:fpexcept.obj
 0001:00023288       _clrfp                     0000000180024288 f   libucrt:fpctrl.obj
 0001:000232a8       _ctrlfp                    00000001800242a8 f   libucrt:fpctrl.obj
 0001:00023324       _set_statfp                0000000180024324 f   libucrt:fpctrl.obj
 0001:00023344       _statfp                    0000000180024344 f   libucrt:fpctrl.obj
 0001:00023360       _FindPESection             0000000180024360 f   LIBCMT:pesect.obj
 0001:000233b0       _IsNonwritableInCurrentImage 00000001800243b0 f   LIBCMT:pesect.obj
 0001:00023400       _ValidateImageBase         0000000180024400 f   LIBCMT:pesect.obj
 0001:0002342c       __GSHandlerCheck_EH        000000018002442c f   LIBCMT:gshandlereh.obj
 0001:000234ac       __C_specific_handler_noexcept 00000001800244ac f   libvcruntime:chandler_noexcept.obj
 0001:000234f8       strrchr                    00000001800244f8 f   libvcruntime:strrchr.obj
 0001:00023650       _guard_dispatch_icall_nop  0000000180024650 f   LIBCMT:guard_dispatch.obj
 0001:00023670       _guard_xfg_dispatch_icall_nop 0000000180024670 f   LIBCMT:guard_xfg_dispatch.obj
 0002:00000000       __imp_RegQueryValueExW     0000000180025000     advapi32:ADVAPI32.dll
 0002:00000008       __imp_RegSetValueExW       0000000180025008     advapi32:ADVAPI32.dll
 0002:00000010       __imp_RegQueryInfoKeyW     0000000180025010     advapi32:ADVAPI32.dll
 0002:00000018       __imp_RegOpenKeyExW        0000000180025018     advapi32:ADVAPI32.dll
 0002:00000020       __imp_RegEnumKeyExW        0000000180025020     advapi32:ADVAPI32.dll
 0002:00000028       __imp_RegDeleteValueW      0000000180025028     advapi32:ADVAPI32.dll
 0002:00000030       __imp_RegDeleteKeyW        0000000180025030     advapi32:ADVAPI32.dll
 0002:00000038       __imp_RegCreateKeyExW      0000000180025038     advapi32:ADVAPI32.dll
 0002:00000040       __imp_RegCloseKey          0000000180025040     advapi32:ADVAPI32.dll
 0002:00000048       \177ADVAPI32_NULL_THUNK_DATA 0000000180025048     advapi32:ADVAPI32.dll
 0002:00000050       __imp_GetObjectW           0000000180025050     gdi32:GDI32.dll
 0002:00000058       __imp_SelectObject         0000000180025058     gdi32:GDI32.dll
 0002:00000060       __imp_DeleteObject         0000000180025060     gdi32:GDI32.dll
 0002:00000068       __imp_CreateCompatibleDC   0000000180025068     gdi32:GDI32.dll
 0002:00000070       __imp_BitBlt               0000000180025070     gdi32:GDI32.dll
 0002:00000078       __imp_SetWindowOrgEx       0000000180025078     gdi32:GDI32.dll
 0002:00000080       __imp_SetWindowExtEx       0000000180025080     gdi32:GDI32.dll
 0002:00000088       __imp_SetViewportOrgEx     0000000180025088     gdi32:GDI32.dll
 0002:00000090       __imp_LPtoDP               0000000180025090     gdi32:GDI32.dll
 0002:00000098       __imp_SetMapMode           0000000180025098     gdi32:GDI32.dll
 0002:000000a0       __imp_SaveDC               00000001800250a0     gdi32:GDI32.dll
 0002:000000a8       __imp_RestoreDC            00000001800250a8     gdi32:GDI32.dll
 0002:000000b0       __imp_GetDeviceCaps        00000001800250b0     gdi32:GDI32.dll
 0002:000000b8       __imp_DeleteMetaFile       00000001800250b8     gdi32:GDI32.dll
 0002:000000c0       __imp_DeleteDC             00000001800250c0     gdi32:GDI32.dll
 0002:000000c8       __imp_CreateRectRgnIndirect 00000001800250c8     gdi32:GDI32.dll
 0002:000000d0       __imp_CreateMetaFileW      00000001800250d0     gdi32:GDI32.dll
 0002:000000d8       __imp_CreateDCW            00000001800250d8     gdi32:GDI32.dll
 0002:000000e0       __imp_CloseMetaFile        00000001800250e0     gdi32:GDI32.dll
 0002:000000e8       \177GDI32_NULL_THUNK_DATA  00000001800250e8     gdi32:GDI32.dll
 0002:000000f0       __imp_CloseHandle          00000001800250f0     kernel32:KERNEL32.dll
 0002:000000f8       __imp_SetEvent             00000001800250f8     kernel32:KERNEL32.dll
 0002:00000100       __imp_CreateMutexW         0000000180025100     kernel32:KERNEL32.dll
 0002:00000108       __imp_CreateEventW         0000000180025108     kernel32:KERNEL32.dll
 0002:00000110       __imp_GetCurrentProcessId  0000000180025110     kernel32:KERNEL32.dll
 0002:00000118       __imp_WriteConsoleW        0000000180025118     kernel32:KERNEL32.dll
 0002:00000120       __imp_CreateFileW          0000000180025120     kernel32:KERNEL32.dll
 0002:00000128       __imp_GetConsoleMode       0000000180025128     kernel32:KERNEL32.dll
 0002:00000130       __imp_GetConsoleOutputCP   0000000180025130     kernel32:KERNEL32.dll
 0002:00000138       __imp_WriteFile            0000000180025138     kernel32:KERNEL32.dll
 0002:00000140       __imp_FlushFileBuffers     0000000180025140     kernel32:KERNEL32.dll
 0002:00000148       __imp_SetStdHandle         0000000180025148     kernel32:KERNEL32.dll
 0002:00000150       __imp_SetFilePointerEx     0000000180025150     kernel32:KERNEL32.dll
 0002:00000158       __imp_GetStringTypeW       0000000180025158     kernel32:KERNEL32.dll
 0002:00000160       __imp_FreeEnvironmentStringsW 0000000180025160     kernel32:KERNEL32.dll
 0002:00000168       __imp_lstrcmpiW            0000000180025168     kernel32:KERNEL32.dll
 0002:00000170       __imp_GetCommandLineW      0000000180025170     kernel32:KERNEL32.dll
 0002:00000178       __imp_GetCommandLineA      0000000180025178     kernel32:KERNEL32.dll
 0002:00000180       __imp_GetCPInfo            0000000180025180     kernel32:KERNEL32.dll
 0002:00000188       __imp_GetOEMCP             0000000180025188     kernel32:KERNEL32.dll
 0002:00000190       __imp_GetACP               0000000180025190     kernel32:KERNEL32.dll
 0002:00000198       __imp_IsValidCodePage      0000000180025198     kernel32:KERNEL32.dll
 0002:000001a0       __imp_FindNextFileW        00000001800251a0     kernel32:KERNEL32.dll
 0002:000001a8       __imp_FindFirstFileExW     00000001800251a8     kernel32:KERNEL32.dll
 0002:000001b0       __imp_FindClose            00000001800251b0     kernel32:KERNEL32.dll
 0002:000001b8       __imp_GetFileType          00000001800251b8     kernel32:KERNEL32.dll
 0002:000001c0       __imp_GetStdHandle         00000001800251c0     kernel32:KERNEL32.dll
 0002:000001c8       __imp_LCMapStringW         00000001800251c8     kernel32:KERNEL32.dll
 0002:000001d0       __imp_FlsFree              00000001800251d0     kernel32:KERNEL32.dll
 0002:000001d8       __imp_FlsSetValue          00000001800251d8     kernel32:KERNEL32.dll
 0002:000001e0       __imp_MulDiv               00000001800251e0     kernel32:KERNEL32.dll
 0002:000001e8       __imp_GlobalLock           00000001800251e8     kernel32:KERNEL32.dll
 0002:000001f0       __imp_GlobalUnlock         00000001800251f0     kernel32:KERNEL32.dll
 0002:000001f8       __imp_GlobalAlloc          00000001800251f8     kernel32:KERNEL32.dll
 0002:00000200       __imp_FindResourceW        0000000180025200     kernel32:KERNEL32.dll
 0002:00000208       __imp_SizeofResource       0000000180025208     kernel32:KERNEL32.dll
 0002:00000210       __imp_LoadResource         0000000180025210     kernel32:KERNEL32.dll
 0002:00000218       __imp_LoadLibraryExW       0000000180025218     kernel32:KERNEL32.dll
 0002:00000220       __imp_GetProcAddress       0000000180025220     kernel32:KERNEL32.dll
 0002:00000228       __imp_GetModuleHandleW     0000000180025228     kernel32:KERNEL32.dll
 0002:00000230       __imp_GetModuleFileNameW   0000000180025230     kernel32:KERNEL32.dll
 0002:00000238       __imp_FreeLibrary          0000000180025238     kernel32:KERNEL32.dll
 0002:00000240       __imp_DisableThreadLibraryCalls 0000000180025240     kernel32:KERNEL32.dll
 0002:00000248       __imp_GetCurrentThreadId   0000000180025248     kernel32:KERNEL32.dll
 0002:00000250       __imp_Sleep                0000000180025250     kernel32:KERNEL32.dll
 0002:00000258       __imp_WaitForSingleObject  0000000180025258     kernel32:KERNEL32.dll
 0002:00000260       __imp_ReleaseMutex         0000000180025260     kernel32:KERNEL32.dll
 0002:00000268       __imp_ResetEvent           0000000180025268     kernel32:KERNEL32.dll
 0002:00000270       __imp_EnterCriticalSection 0000000180025270     kernel32:KERNEL32.dll
 0002:00000278       __imp_LeaveCriticalSection 0000000180025278     kernel32:KERNEL32.dll
 0002:00000280       __imp_SetLastError         0000000180025280     kernel32:KERNEL32.dll
 0002:00000288       __imp_EncodePointer        0000000180025288     kernel32:KERNEL32.dll
 0002:00000290       __imp_DeleteCriticalSection 0000000180025290     kernel32:KERNEL32.dll
 0002:00000298       __imp_InitializeCriticalSectionEx 0000000180025298     kernel32:KERNEL32.dll
 0002:000002a0       __imp_GetLastError         00000001800252a0     kernel32:KERNEL32.dll
 0002:000002a8       __imp_RaiseException       00000001800252a8     kernel32:KERNEL32.dll
 0002:000002b0       __imp_DecodePointer        00000001800252b0     kernel32:KERNEL32.dll
 0002:000002b8       __imp_WideCharToMultiByte  00000001800252b8     kernel32:KERNEL32.dll
 0002:000002c0       __imp_GetEnvironmentStringsW 00000001800252c0     kernel32:KERNEL32.dll
 0002:000002c8       __imp_MultiByteToWideChar  00000001800252c8     kernel32:KERNEL32.dll
 0002:000002d0       __imp_FlsGetValue          00000001800252d0     kernel32:KERNEL32.dll
 0002:000002d8       __imp_FlsAlloc             00000001800252d8     kernel32:KERNEL32.dll
 0002:000002e0       __imp_HeapReAlloc          00000001800252e0     kernel32:KERNEL32.dll
 0002:000002e8       __imp_HeapSize             00000001800252e8     kernel32:KERNEL32.dll
 0002:000002f0       __imp_GetModuleHandleExW   00000001800252f0     kernel32:KERNEL32.dll
 0002:000002f8       __imp_ExitProcess          00000001800252f8     kernel32:KERNEL32.dll
 0002:00000300       __imp_VirtualQuery         0000000180025300     kernel32:KERNEL32.dll
 0002:00000308       __imp_VirtualProtect       0000000180025308     kernel32:KERNEL32.dll
 0002:00000310       __imp_GetSystemInfo        0000000180025310     kernel32:KERNEL32.dll
 0002:00000318       __imp_TlsFree              0000000180025318     kernel32:KERNEL32.dll
 0002:00000320       __imp_TlsSetValue          0000000180025320     kernel32:KERNEL32.dll
 0002:00000328       __imp_TlsGetValue          0000000180025328     kernel32:KERNEL32.dll
 0002:00000330       __imp_TlsAlloc             0000000180025330     kernel32:KERNEL32.dll
 0002:00000338       __imp_RtlPcToFileHeader    0000000180025338     kernel32:KERNEL32.dll
 0002:00000340       __imp_InterlockedFlushSList 0000000180025340     kernel32:KERNEL32.dll
 0002:00000348       __imp_RtlUnwindEx          0000000180025348     kernel32:KERNEL32.dll
 0002:00000350       __imp_LoadLibraryExA       0000000180025350     kernel32:KERNEL32.dll
 0002:00000358       __imp_VirtualFree          0000000180025358     kernel32:KERNEL32.dll
 0002:00000360       __imp_VirtualAlloc         0000000180025360     kernel32:KERNEL32.dll
 0002:00000368       __imp_FlushInstructionCache 0000000180025368     kernel32:KERNEL32.dll
 0002:00000370       __imp_InterlockedPushEntrySList 0000000180025370     kernel32:KERNEL32.dll
 0002:00000378       __imp_InterlockedPopEntrySList 0000000180025378     kernel32:KERNEL32.dll
 0002:00000380       __imp_GetProcessHeap       0000000180025380     kernel32:KERNEL32.dll
 0002:00000388       __imp_HeapFree             0000000180025388     kernel32:KERNEL32.dll
 0002:00000390       __imp_HeapAlloc            0000000180025390     kernel32:KERNEL32.dll
 0002:00000398       __imp_OutputDebugStringW   0000000180025398     kernel32:KERNEL32.dll
 0002:000003a0       __imp_InitializeSListHead  00000001800253a0     kernel32:KERNEL32.dll
 0002:000003a8       __imp_GetSystemTimeAsFileTime 00000001800253a8     kernel32:KERNEL32.dll
 0002:000003b0       __imp_QueryPerformanceCounter 00000001800253b0     kernel32:KERNEL32.dll
 0002:000003b8       __imp_GetStartupInfoW      00000001800253b8     kernel32:KERNEL32.dll
 0002:000003c0       __imp_InitializeCriticalSectionAndSpinCount 00000001800253c0     kernel32:KERNEL32.dll
 0002:000003c8       __imp_WaitForSingleObjectEx 00000001800253c8     kernel32:KERNEL32.dll
 0002:000003d0       __imp_RtlCaptureContext    00000001800253d0     kernel32:KERNEL32.dll
 0002:000003d8       __imp_RtlLookupFunctionEntry 00000001800253d8     kernel32:KERNEL32.dll
 0002:000003e0       __imp_RtlVirtualUnwind     00000001800253e0     kernel32:KERNEL32.dll
 0002:000003e8       __imp_UnhandledExceptionFilter 00000001800253e8     kernel32:KERNEL32.dll
 0002:000003f0       __imp_SetUnhandledExceptionFilter 00000001800253f0     kernel32:KERNEL32.dll
 0002:000003f8       __imp_GetCurrentProcess    00000001800253f8     kernel32:KERNEL32.dll
 0002:00000400       __imp_TerminateProcess     0000000180025400     kernel32:KERNEL32.dll
 0002:00000408       __imp_IsProcessorFeaturePresent 0000000180025408     kernel32:KERNEL32.dll
 0002:00000410       __imp_IsDebuggerPresent    0000000180025410     kernel32:KERNEL32.dll
 0002:00000418       \177KERNEL32_NULL_THUNK_DATA 0000000180025418     kernel32:KERNEL32.dll
 0002:00000420       __imp_OleCreatePropertyFrame 0000000180025420     oleaut32:OLEAUT32.dll
 0002:00000428       __imp_UnRegisterTypeLib    0000000180025428     oleaut32:OLEAUT32.dll
 0002:00000430       __imp_RegisterTypeLib      0000000180025430     oleaut32:OLEAUT32.dll
 0002:00000438       __imp_LoadRegTypeLib       0000000180025438     oleaut32:OLEAUT32.dll
 0002:00000440       __imp_LoadTypeLib          0000000180025440     oleaut32:OLEAUT32.dll
 0002:00000448       __imp_VarUI4FromStr        0000000180025448     oleaut32:OLEAUT32.dll
 0002:00000450       __imp_VariantInit          0000000180025450     oleaut32:OLEAUT32.dll
 0002:00000458       __imp_SysAllocStringByteLen 0000000180025458     oleaut32:OLEAUT32.dll
 0002:00000460       __imp_SysStringByteLen     0000000180025460     oleaut32:OLEAUT32.dll
 0002:00000468       __imp_VariantChangeType    0000000180025468     oleaut32:OLEAUT32.dll
 0002:00000470       __imp_VariantClear         0000000180025470     oleaut32:OLEAUT32.dll
 0002:00000478       __imp_SysStringLen         0000000180025478     oleaut32:OLEAUT32.dll
 0002:00000480       __imp_SysFreeString        0000000180025480     oleaut32:OLEAUT32.dll
 0002:00000488       __imp_SysAllocStringLen    0000000180025488     oleaut32:OLEAUT32.dll
 0002:00000490       __imp_SysAllocString       0000000180025490     oleaut32:OLEAUT32.dll
 0002:00000498       \177OLEAUT32_NULL_THUNK_DATA 0000000180025498     oleaut32:OLEAUT32.dll
 0002:000004a0       __imp_UnregisterClassW     00000001800254a0     user32:USER32.dll
 0002:000004a8       __imp_PostMessageW         00000001800254a8     user32:USER32.dll
 0002:000004b0       __imp_DefWindowProcW       00000001800254b0     user32:USER32.dll
 0002:000004b8       __imp_CallWindowProcW      00000001800254b8     user32:USER32.dll
 0002:000004c0       __imp_RegisterClassExW     00000001800254c0     user32:USER32.dll
 0002:000004c8       __imp_GetClassInfoExW      00000001800254c8     user32:USER32.dll
 0002:000004d0       __imp_CreateWindowExW      00000001800254d0     user32:USER32.dll
 0002:000004d8       __imp_IsWindow             00000001800254d8     user32:USER32.dll
 0002:000004e0       __imp_IsChild              00000001800254e0     user32:USER32.dll
 0002:000004e8       __imp_DestroyWindow        00000001800254e8     user32:USER32.dll
 0002:000004f0       __imp_ShowWindow           00000001800254f0     user32:USER32.dll
 0002:000004f8       __imp_SetWindowPos         00000001800254f8     user32:USER32.dll
 0002:00000500       __imp_CharNextW            0000000180025500     user32:USER32.dll
 0002:00000508       __imp_SetFocus             0000000180025508     user32:USER32.dll
 0002:00000510       __imp_LoadBitmapW          0000000180025510     user32:USER32.dll
 0002:00000518       __imp_RegisterClassW       0000000180025518     user32:USER32.dll
 0002:00000520       __imp_PeekMessageW         0000000180025520     user32:USER32.dll
 0002:00000528       __imp_LoadCursorW          0000000180025528     user32:USER32.dll
 0002:00000530       __imp_GetParent            0000000180025530     user32:USER32.dll
 0002:00000538       __imp_SetWindowLongPtrW    0000000180025538     user32:USER32.dll
 0002:00000540       __imp_GetWindowLongPtrW    0000000180025540     user32:USER32.dll
 0002:00000548       __imp_PtInRect             0000000180025548     user32:USER32.dll
 0002:00000550       __imp_EqualRect            0000000180025550     user32:USER32.dll
 0002:00000558       __imp_OffsetRect           0000000180025558     user32:USER32.dll
 0002:00000560       __imp_UnionRect            0000000180025560     user32:USER32.dll
 0002:00000568       __imp_IntersectRect        0000000180025568     user32:USER32.dll
 0002:00000570       __imp_GetClientRect        0000000180025570     user32:USER32.dll
 0002:00000578       __imp_InvalidateRect       0000000180025578     user32:USER32.dll
 0002:00000580       __imp_SetWindowRgn         0000000180025580     user32:USER32.dll
 0002:00000588       __imp_EndPaint             0000000180025588     user32:USER32.dll
 0002:00000590       __imp_BeginPaint           0000000180025590     user32:USER32.dll
 0002:00000598       __imp_ReleaseDC            0000000180025598     user32:USER32.dll
 0002:000005a0       __imp_GetDC                00000001800255a0     user32:USER32.dll
 0002:000005a8       __imp_GetKeyState          00000001800255a8     user32:USER32.dll
 0002:000005b0       __imp_GetFocus             00000001800255b0     user32:USER32.dll
 0002:000005b8       \177USER32_NULL_THUNK_DATA 00000001800255b8     user32:USER32.dll
 0002:000005c0       __imp_CoCreateInstance     00000001800255c0     ole32:ole32.dll
 0002:000005c8       __imp_StringFromGUID2      00000001800255c8     ole32:ole32.dll
 0002:000005d0       __imp_CoTaskMemAlloc       00000001800255d0     ole32:ole32.dll
 0002:000005d8       __imp_CoTaskMemRealloc     00000001800255d8     ole32:ole32.dll
 0002:000005e0       __imp_CoTaskMemFree        00000001800255e0     ole32:ole32.dll
 0002:000005e8       __imp_WriteClassStm        00000001800255e8     ole32:ole32.dll
 0002:000005f0       __imp_CreateDataAdviseHolder 00000001800255f0     ole32:ole32.dll
 0002:000005f8       __imp_OleSaveToStream      00000001800255f8     ole32:ole32.dll
 0002:00000600       __imp_CreateOleAdviseHolder 0000000180025600     ole32:ole32.dll
 0002:00000608       __imp_OleRegGetUserType    0000000180025608     ole32:ole32.dll
 0002:00000610       __imp_OleRegGetMiscStatus  0000000180025610     ole32:ole32.dll
 0002:00000618       __imp_OleRegEnumVerbs      0000000180025618     ole32:ole32.dll
 0002:00000620       __imp_CLSIDFromProgID      0000000180025620     ole32:ole32.dll
 0002:00000628       __imp_ReadClassStm         0000000180025628     ole32:ole32.dll
 0002:00000630       \177ole32_NULL_THUNK_DATA  0000000180025630     ole32:ole32.dll
 0002:00000638       __guard_check_icall_fptr   0000000180025638     LIBCMT:guard_support.obj
 0002:00000640       __guard_xfg_check_icall_fptr 0000000180025640     LIBCMT:guard_support.obj
 0002:00000648       __guard_dispatch_icall_fptr 0000000180025648     LIBCMT:guard_support.obj
 0002:00000650       __guard_xfg_dispatch_icall_fptr 0000000180025650     LIBCMT:guard_support.obj
 0002:00000658       __guard_xfg_table_dispatch_icall_fptr 0000000180025658     LIBCMT:guard_support.obj
 0002:00000660       __castguard_check_failure_os_handled_fptr 0000000180025660     LIBCMT:guard_support.obj
 0002:00000668       __xc_a                     0000000180025668     LIBCMT:initializers.obj
 0002:00000698       __xc_z                     0000000180025698     LIBCMT:initializers.obj
 0002:000006a0       __xi_a                     00000001800256a0     LIBCMT:initializers.obj
 0002:000006b0       __acrt_stdio_initializer   00000001800256b0     libucrt:stdio_initializer.obj
 0002:000006b8       __acrt_multibyte_initializer 00000001800256b8     libucrt:multibyte_initializer.obj
 0002:000006c0       __acrt_tran_fma3_initializer 00000001800256c0     libucrt:fma3_initializer.obj
 0002:000006c8       __xi_z                     00000001800256c8     LIBCMT:initializers.obj
 0002:000006d0       __xl_a                     00000001800256d0     LIBCMT:tlssup.obj
 0002:000006d8       __xl_z                     00000001800256d8     LIBCMT:tlssup.obj
 0002:000006e0       __xp_a                     00000001800256e0     LIBCMT:initializers.obj
 0002:000006e8       __acrt_locale_terminator   00000001800256e8     libucrt:locale_initializer.obj
 0002:000006f0       __dcrt_console_output_terminator 00000001800256f0     libucrt:console_output_initializer.obj
 0002:000006f8       __acrt_stdio_terminator    00000001800256f8     libucrt:stdio_initializer.obj
 0002:00000700       __xp_z                     0000000180025700     LIBCMT:initializers.obj
 0002:00000708       __xt_a                     0000000180025708     LIBCMT:initializers.obj
 0002:00000710       __xt_z                     0000000180025710     LIBCMT:initializers.obj
 0002:00000720       ??_C@_13HADIAKP@?$AAS@     0000000180025720     OposVariant.obj
 0002:00000724       ??_C@_13LHMFKAAD@?$AAM@    0000000180025724     OposVariant.obj
 0002:00000728       ??_C@_13MKMNOPIJ@?$AAD@    0000000180025728     OposVariant.obj
 0002:0000072c       ??_C@_13OPKGLAFF@?$AAB@    000000018002572c     OposVariant.obj
 0002:00000730       ??_C@_17LLMMEOJD@?$AAV?$AAa?$AAl@ 0000000180025730     OposVariant.obj
 0002:00000738       ??_C@_1BI@JFAIJMHL@?$AAF?$AAo?$AAr?$AAc?$AAe?$AAR?$AAe?$AAm?$AAo?$AAv?$AAe@ 0000000180025738     OposVariant.obj
 0002:00000750       ??_C@_1BC@GCKHIPE@?$AAN?$AAo?$AAR?$AAe?$AAm?$AAo?$AAv?$AAe@ 0000000180025750     OposVariant.obj
 0002:00000768       ??_C@_1O@JDLOHAN@?$AAD?$AAe?$AAl?$AAe?$AAt?$AAe@ 0000000180025768     OposVariant.obj
 0002:00000778       ??_C@_11LOCGONAA@@         0000000180025778     OposVariant.obj
 0002:00000780       ??_7?$CComObject@V?$CComEnum@UIEnumConnections@@$1?_GUID_b196b287_bab4_101a_b69c_00aa00341d07@@3U__s_GUID@@BUtagCONNECTDATA@@V?$_Copy@UtagCONNECTDATA@@@ATL@@VCComSingleThreadModel@6@@ATL@@@ATL@@6B@ 0000000180025780     Gate.obj
 0002:000007c0       _GUID_55980ba0_35aa_11cf_b671_00aa004cd6d8 00000001800257c0     Gate.obj
 0002:000007d0       _GUID_b196b28b_bab4_101a_b69c_00aa00341d07 00000001800257d0     Gate.obj
 0002:000007e0       ?_entries@?1??_GetEntries@?$CComEnum@UIEnumConnections@@$1?_GUID_b196b287_bab4_101a_b69c_00aa00341d07@@3U__s_GUID@@BUtagCONNECTDATA@@V?$_Copy@UtagCONNECTDATA@@@ATL@@VCComSingleThreadModel@6@@ATL@@SAPEBU_ATL_INTMAP_ENTRY@3@XZ@4QBU43@B 00000001800257e0     Gate.obj
 0002:00000810       ??_7CComClassFactory@ATL@@6B@ 0000000180025810     Gate.obj
 0002:00000840       ?_entries@?1??_GetEntries@CComClassFactory@ATL@@SAPEBU_ATL_INTMAP_ENTRY@3@XZ@4QBU43@B 0000000180025840     Gate.obj
 0002:00000870       _GUID_00000001_0000_0000_c000_000000000046 0000000180025870     Gate.obj
 0002:00000880       IID_IOPOSGate_1_12         0000000180025880     Gate.obj
 0002:00000890       IID_IOPOSGate              0000000180025890     Gate.obj
 0002:000008a0       LIBID_OposGate_CCO         00000001800258a0     Gate.obj
 0002:000008b0       DIID__IOPOSGateEvents      00000001800258b0     Gate.obj
 0002:000008c0       CLSID_OPOSGate             00000001800258c0     Gate.obj
 0002:000008d0       ??_C@_1BK@BIGILECK@?$AAA?$AAd?$AAv?$AAa?$AAp?$AAi?$AA3?$AA2?$AA?4?$AAd?$AAl?$AAl@ 00000001800258d0     Gate.obj
 0002:000008f0       ??_C@_0BI@MNCFCPFK@RegCreateKeyTransactedW@ 00000001800258f0     Gate.obj
 0002:00000908       _GUID_00000114_0000_0000_c000_000000000046 0000000180025908     Gate.obj
 0002:00000918       _GUID_b196b287_bab4_101a_b69c_00aa00341d07 0000000180025918     Gate.obj
 0002:00000928       _GUID_b196b285_bab4_101a_b69c_00aa00341d07 0000000180025928     Gate.obj
 0002:00000938       _GUID_a6bc3ac0_dbaa_11ce_9de3_00aa004bb851 0000000180025938     Gate.obj
 0002:00000948       _GUID_0000010c_0000_0000_c000_000000000046 0000000180025948     Gate.obj
 0002:00000958       _GUID_00000146_0000_0000_c000_000000000046 0000000180025958     Gate.obj
 0002:00000970       ?_entries@?1??_GetEntries@COPOSGate@@SAPEBU_ATL_INTMAP_ENTRY@ATL@@XZ@4QBU34@B 0000000180025970     Gate.obj
 0002:00000bb0       _GUID_cf51ed10_62fe_11cf_bf86_00a0c9034836 0000000180025bb0     Gate.obj
 0002:00000bc0       _GUID_0000010a_0000_0000_c000_000000000046 0000000180025bc0     Gate.obj
 0002:00000bd0       _GUID_b196b283_bab4_101a_b69c_00aa00341d07 0000000180025bd0     Gate.obj
 0002:00000be0       _GUID_cb5bdc81_93c1_11cf_8f20_00805f2cd064 0000000180025be0     Gate.obj
 0002:00000bf0       ?pPropMap@?1??GetPropertyMap@COPOSGate@@SAPEBUATL_PROPMAP_ENTRY@ATL@@XZ@4QBU34@B 0000000180025bf0     Gate.obj
 0002:00000c98       ??_C@_17DGDADEHL@?$AA_?$AAc?$AAx@ 0000000180025c98     Gate.obj
 0002:00000ca0       ??_C@_17IOIMFDBO@?$AA_?$AAc?$AAy@ 0000000180025ca0     Gate.obj
 0002:00000ca8       ??_7CComModule@ATL@@6B@    0000000180025ca8     Gate.obj
 0002:00000cf8       _GUID_00000000_0000_0000_c000_000000000046 0000000180025cf8     Gate.obj
 0002:00000d08       _GUID_00020400_0000_0000_c000_000000000046 0000000180025d08     Gate.obj
 0002:00000d18       ??_7?$CComObjectCached@VCComClassFactory@ATL@@@ATL@@6B@ 0000000180025d18     Gate.obj
 0002:00000d48       ??_C@_1CE@PGFMOFKI@?$AAS?$AAt?$AAa?$AAt?$AAu?$AAs?$AAU?$AAp?$AAd?$AAa?$AAt?$AAe?$AAE?$AAv?$AAe@ 0000000180025d48     Gate.obj
 0002:00000d70       ??_C@_1BM@CBGEBBBJ@?$AAD?$AAi?$AAr?$AAe?$AAc?$AAt?$AAI?$AAO?$AAE?$AAv?$AAe?$AAn?$AAt@ 0000000180025d70     Gate.obj
 0002:00000d90       _GUID_922eada0_3424_11cf_b670_00aa004cd6d8 0000000180025d90     Gate.obj
 0002:00000da0       _GUID_b196b286_bab4_101a_b69c_00aa00341d07 0000000180025da0     Gate.obj
 0002:00000db0       _GUID_9c2cad80_3424_11cf_b670_00aa004cd6d8 0000000180025db0     Gate.obj
 0002:00000dc0       _GUID_00000119_0000_0000_c000_000000000046 0000000180025dc0     Gate.obj
 0002:00000dd0       _GUID_b196b289_bab4_101a_b69c_00aa00341d07 0000000180025dd0     Gate.obj
 0002:00000de0       ??_C@_1BC@ENICKDH@?$AAC?$AAo?$AAn?$AAt?$AAe?$AAn?$AAt?$AAs@ 0000000180025de0     Gate.obj
 0002:00000df8       _GUID_00000117_0000_0000_c000_000000000046 0000000180025df8     Gate.obj
 0002:00000e08       ??_7?$CComObject@V?$CComEnum@UIEnumConnectionPoints@@$1?_GUID_b196b285_bab4_101a_b69c_00aa00341d07@@3U__s_GUID@@BPEAUIConnectionPoint@@V?$_CopyInterface@UIConnectionPoint@@@ATL@@VCComSingleThreadModel@6@@ATL@@@ATL@@6B@ 0000000180025e08     Gate.obj
 0002:00000e48       ??_C@_1M@KANJNLFF@?$AAC?$AAL?$AAS?$AAI?$AAD@ 0000000180025e48     Gate.obj
 0002:00000e58       ??_C@_1M@EJNEECMJ@?$AAA?$AAp?$AAp?$AAI?$AAD@ 0000000180025e58     Gate.obj
 0002:00000e68       _GUID_0000010e_0000_0000_c000_000000000046 0000000180025e68     Gate.obj
 0002:00000e80       ?rgszNeverDelete@CRegParser@ATL@@1QBQEB_WB 0000000180025e80     Gate.obj
 0002:00000ee0       _GUID_b196b288_bab4_101a_b69c_00aa00341d07 0000000180025ee0     Gate.obj
 0002:00000ef0       ??_7CRegObject@ATL@@6B@    0000000180025ef0     Gate.obj
 0002:00000f20       _GUID_00000113_0000_0000_c000_000000000046 0000000180025f20     Gate.obj
 0002:00000f30       ??_C@_1CK@OEKPKBNA@?$AAC?$AAo?$AAm?$AAp?$AAo?$AAn?$AAe?$AAn?$AAt?$AA?5?$AAC?$AAa?$AAt?$AAe?$AAg@ 0000000180025f30     Gate.obj
 0002:00000f60       ??_C@_1BC@NKMMNMGL@?$AAF?$AAi?$AAl?$AAe?$AAT?$AAy?$AAp?$AAe@ 0000000180025f60     Gate.obj
 0002:00000f78       ??_C@_1BE@EKPAFMCP@?$AAI?$AAn?$AAt?$AAe?$AAr?$AAf?$AAa?$AAc?$AAe@ 0000000180025f78     Gate.obj
 0002:00000f90       ??_C@_1BC@MAICEHGI@?$AAH?$AAa?$AAr?$AAd?$AAw?$AAa?$AAr?$AAe@ 0000000180025f90     Gate.obj
 0002:00000fa8       ??_C@_19HLLLM@?$AAM?$AAi?$AAm?$AAe@ 0000000180025fa8     Gate.obj
 0002:00000fb8       ??_C@_17OMAOINJK@?$AAS?$AAA?$AAM@ 0000000180025fb8     Gate.obj
 0002:00000fc0       ??_C@_1BC@IBECJAAI@?$AAS?$AAE?$AAC?$AAU?$AAR?$AAI?$AAT?$AAY@ 0000000180025fc0     Gate.obj
 0002:00000fd8       ??_C@_1O@GBFINDKL@?$AAS?$AAY?$AAS?$AAT?$AAE?$AAM@ 0000000180025fd8     Gate.obj
 0002:00000fe8       ??_C@_1BC@EAHCMADO@?$AAS?$AAo?$AAf?$AAt?$AAw?$AAa?$AAr?$AAe@ 0000000180025fe8     Gate.obj
 0002:00001000       ??_C@_1BA@JIHHIEDE@?$AAT?$AAy?$AAp?$AAe?$AAL?$AAi?$AAb@ 0000000180026000     Gate.obj
 0002:00001010       _GUID_1c2056cc_5ef4_101b_8bc8_00aa003e3b29 0000000180026010     Gate.obj
 0002:00001020       ?map@?1??HKeyFromString@CRegParser@ATL@@KAPEAUHKEY__@@PEA_W@Z@4QBUkeymap@?1??123@KAPEAU4@0@Z@B 0000000180026020     Gate.obj
 0002:00001100       ??_C@_19NCHLBIN@?$AAH?$AAK?$AAC?$AAR@ 0000000180026100     Gate.obj
 0002:00001110       ??_C@_19JAPAIJDE@?$AAH?$AAK?$AAC?$AAU@ 0000000180026110     Gate.obj
 0002:00001120       ??_C@_19PEALEEJB@?$AAH?$AAK?$AAL?$AAM@ 0000000180026120     Gate.obj
 0002:00001130       ??_C@_17PJOJPMPB@?$AAH?$AAK?$AAU@ 0000000180026130     Gate.obj
 0002:00001138       ??_C@_19PNBHMJPL@?$AAH?$AAK?$AAP?$AAD@ 0000000180026138     Gate.obj
 0002:00001148       ??_C@_19GFFAIJHG@?$AAH?$AAK?$AAD?$AAD@ 0000000180026148     Gate.obj
 0002:00001158       ??_C@_19OFICIBHH@?$AAH?$AAK?$AAC?$AAC@ 0000000180026158     Gate.obj
 0002:00001168       ??_C@_1CE@PACHPJFI@?$AAH?$AAK?$AAE?$AAY?$AA_?$AAC?$AAL?$AAA?$AAS?$AAS?$AAE?$AAS?$AA_?$AAR?$AAO@ 0000000180026168     Gate.obj
 0002:00001190       ??_C@_1CE@HLHNCBPM@?$AAH?$AAK?$AAE?$AAY?$AA_?$AAC?$AAU?$AAR?$AAR?$AAE?$AAN?$AAT?$AA_?$AAU?$AAS@ 0000000180026190     Gate.obj
 0002:000011b8       ??_C@_1CG@GFBEANJL@?$AAH?$AAK?$AAE?$AAY?$AA_?$AAL?$AAO?$AAC?$AAA?$AAL?$AA_?$AAM?$AAA?$AAC?$AAH@ 00000001800261b8     Gate.obj
 0002:000011e0       ??_C@_1BG@BGODANIO@?$AAH?$AAK?$AAE?$AAY?$AA_?$AAU?$AAS?$AAE?$AAR?$AAS@ 00000001800261e0     Gate.obj
 0002:000011f8       ??_C@_1CM@KHNNAOIC@?$AAH?$AAK?$AAE?$AAY?$AA_?$AAP?$AAE?$AAR?$AAF?$AAO?$AAR?$AAM?$AAA?$AAN?$AAC@ 00000001800261f8     Gate.obj
 0002:00001228       ??_C@_1BM@HAGMMHIA@?$AAH?$AAK?$AAE?$AAY?$AA_?$AAD?$AAY?$AAN?$AA_?$AAD?$AAA?$AAT?$AAA@ 0000000180026228     Gate.obj
 0002:00001248       ??_C@_1CI@BBJOACGG@?$AAH?$AAK?$AAE?$AAY?$AA_?$AAC?$AAU?$AAR?$AAR?$AAE?$AAN?$AAT?$AA_?$AAC?$AAO@ 0000000180026248     Gate.obj
 0002:00001270       _GUID_00000109_0000_0000_c000_000000000046 0000000180026270     Gate.obj
 0002:00001280       _GUID_7fd52380_4e07_101b_ae2d_08002b2ec713 0000000180026280     Gate.obj
 0002:00001290       _GUID_00000112_0000_0000_c000_000000000046 0000000180026290     Gate.obj
 0002:000012a0       ??_C@_1EA@NHKLICFA@?$AAH?$AAK?$AAC?$AAU?$AA?$AN?$AA?6?$AA?$HL?$AA?7?$AAS?$AAo?$AAf?$AAt?$AAw?$AAa?$AAr@ 00000001800262a0     Gate.obj
 0002:000012e0       ??_C@_1BE@LJOLIMEM@?$AA?$AN?$AA?6?$AA?7?$AA?$HN?$AA?$AN?$AA?6?$AA?$HN?$AA?$AN?$AA?6@ 00000001800262e0     Gate.obj
 0002:000012f8       _GUID_3af24292_0c96_11ce_a0cf_00aa00600ab8 00000001800262f8     Gate.obj
 0002:00001308       _GUID_00000127_0000_0000_c000_000000000046 0000000180026308     Gate.obj
 0002:00001318       _GUID_0000010d_0000_0000_c000_000000000046 0000000180026318     Gate.obj
 0002:00001328       ??_C@_1M@PPPPCDEP@?$AAA?$AAP?$AAP?$AAI?$AAD@ 0000000180026328     Gate.obj
 0002:00001338       ??_C@_1O@MNLDABAF@?$AAM?$AAo?$AAd?$AAu?$AAl?$AAe@ 0000000180026338     Gate.obj
 0002:00001348       ??_C@_1BG@JBACFMF@?$AAM?$AAo?$AAd?$AAu?$AAl?$AAe?$AA_?$AAR?$AAa?$AAw@ 0000000180026348     Gate.obj
 0002:00001360       ??_C@_1BC@KAILKFFG@?$AAR?$AAE?$AAG?$AAI?$AAS?$AAT?$AAR?$AAY@ 0000000180026360     Gate.obj
 0002:00001378       ??_7?$CComContainedObject@VCOPOSGate@@@ATL@@6B?$IDispatchImpl@UIOPOSGate@@$1?IID_IOPOSGate@@3U_GUID@@B$1?LIBID_OposGate_CCO@@3U3@B$00$0A@VCComTypeInfoHolder@ATL@@@1@@ 0000000180026378     Gate.obj
 0002:00001528       ??_7?$CComContainedObject@VCOPOSGate@@@ATL@@6BCComControlBase@1@@ 0000000180026528     Gate.obj
 0002:00001550       ??_7?$CComContainedObject@VCOPOSGate@@@ATL@@6B?$CWindowImpl@VCOPOSGate@@VCWindow@ATL@@V?$CWinTraits@$0FGAAAAAA@$0A@@3@@1@@ 0000000180026550     Gate.obj
 0002:00001570       ??_7?$CComContainedObject@VCOPOSGate@@@ATL@@6B?$IPersistStreamInitImpl@VCOPOSGate@@@1@@ 0000000180026570     Gate.obj
 0002:000015b8       ??_7?$CComContainedObject@VCOPOSGate@@@ATL@@6B?$IOleControlImpl@VCOPOSGate@@@1@@ 00000001800265b8     Gate.obj
 0002:000015f0       ??_7?$CComContainedObject@VCOPOSGate@@@ATL@@6B?$IOleObjectImpl@VCOPOSGate@@@1@@ 00000001800265f0     Gate.obj
 0002:000016b0       ??_7?$CComContainedObject@VCOPOSGate@@@ATL@@6B?$IOleInPlaceActiveObjectImpl@VCOPOSGate@@@1@@ 00000001800266b0     Gate.obj
 0002:00001700       ??_7?$CComContainedObject@VCOPOSGate@@@ATL@@6B?$IViewObjectExImpl@VCOPOSGate@@@1@@ 0000000180026700     Gate.obj
 0002:00001778       ??_7?$CComContainedObject@VCOPOSGate@@@ATL@@6B?$IOleInPlaceObjectWindowlessImpl@VCOPOSGate@@@1@@ 0000000180026778     Gate.obj
 0002:000017d0       ??_7?$CComContainedObject@VCOPOSGate@@@ATL@@6B?$IConnectionPointContainerImpl@VCOPOSGate@@@1@@ 00000001800267d0     Gate.obj
 0002:000017f8       ??_7?$CComContainedObject@VCOPOSGate@@@ATL@@6B?$IPersistStorageImpl@VCOPOSGate@@@1@@ 00000001800267f8     Gate.obj
 0002:00001848       ??_7?$CComContainedObject@VCOPOSGate@@@ATL@@6B?$ISpecifyPropertyPagesImpl@VCOPOSGate@@@1@@ 0000000180026848     Gate.obj
 0002:00001868       ??_7?$CComContainedObject@VCOPOSGate@@@ATL@@6B?$IQuickActivateImpl@VCOPOSGate@@@1@@ 0000000180026868     Gate.obj
 0002:00001898       ??_7?$CComContainedObject@VCOPOSGate@@@ATL@@6B?$IDataObjectImpl@VCOPOSGate@@@1@@ 0000000180026898     Gate.obj
 0002:000018f8       ??_7?$CComContainedObject@VCOPOSGate@@@ATL@@6B?$IProvideClassInfo2Impl@$1?CLSID_OPOSGate@@3U_GUID@@B$1?DIID__IOPOSGateEvents@@3U2@B$1?LIBID_OposGate_CCO@@3U2@B$00$0A@VCComTypeInfoHolder@ATL@@@1@@ 00000001800268f8     Gate.obj
 0002:00001920       ??_7?$CComContainedObject@VCOPOSGate@@@ATL@@6B?$IObjectSafetyImpl@VCOPOSGate@@$02@1@@ 0000000180026920     Gate.obj
 0002:00001950       ??_7?$CComContainedObject@VCOPOSGate@@@ATL@@6B?$IPropertyNotifySinkCP@VCOPOSGate@@VCComDynamicUnkArray@ATL@@@1@@ 0000000180026950     Gate.obj
 0002:00001990       ??_7?$CComContainedObject@VCOPOSGate@@@ATL@@6B?$CProxy_IOPOSEvents@VCOPOSGate@@@@@ 0000000180026990     Gate.obj
 0002:000019d0       ??_7?$CComAggObject@VCOPOSGate@@@ATL@@6B@ 00000001800269d0     Gate.obj
 0002:000019f0       ??_7?$CComObject@VCOPOSGate@@@ATL@@6B?$IDispatchImpl@UIOPOSGate@@$1?IID_IOPOSGate@@3U_GUID@@B$1?LIBID_OposGate_CCO@@3U3@B$00$0A@VCComTypeInfoHolder@ATL@@@1@@ 00000001800269f0     Gate.obj
 0002:00001ba0       ??_7?$CComObject@VCOPOSGate@@@ATL@@6BCComControlBase@1@@ 0000000180026ba0     Gate.obj
 0002:00001bc8       ??_7?$CComObject@VCOPOSGate@@@ATL@@6B?$CWindowImpl@VCOPOSGate@@VCWindow@ATL@@V?$CWinTraits@$0FGAAAAAA@$0A@@3@@1@@ 0000000180026bc8     Gate.obj
 0002:00001be8       ??_7?$CComObject@VCOPOSGate@@@ATL@@6B?$IPersistStreamInitImpl@VCOPOSGate@@@1@@ 0000000180026be8     Gate.obj
 0002:00001c30       ??_7?$CComObject@VCOPOSGate@@@ATL@@6B?$IOleControlImpl@VCOPOSGate@@@1@@ 0000000180026c30     Gate.obj
 0002:00001c68       ??_7?$CComObject@VCOPOSGate@@@ATL@@6B?$IOleObjectImpl@VCOPOSGate@@@1@@ 0000000180026c68     Gate.obj
 0002:00001d28       ??_7?$CComObject@VCOPOSGate@@@ATL@@6B?$IOleInPlaceActiveObjectImpl@VCOPOSGate@@@1@@ 0000000180026d28     Gate.obj
 0002:00001d78       ??_7?$CComObject@VCOPOSGate@@@ATL@@6B?$IViewObjectExImpl@VCOPOSGate@@@1@@ 0000000180026d78     Gate.obj
 0002:00001df0       ??_7?$CComObject@VCOPOSGate@@@ATL@@6B?$IOleInPlaceObjectWindowlessImpl@VCOPOSGate@@@1@@ 0000000180026df0     Gate.obj
 0002:00001e48       ??_7?$CComObject@VCOPOSGate@@@ATL@@6B?$IConnectionPointContainerImpl@VCOPOSGate@@@1@@ 0000000180026e48     Gate.obj
 0002:00001e70       ??_7?$CComObject@VCOPOSGate@@@ATL@@6B?$IPersistStorageImpl@VCOPOSGate@@@1@@ 0000000180026e70     Gate.obj
 0002:00001ec0       ??_7?$CComObject@VCOPOSGate@@@ATL@@6B?$ISpecifyPropertyPagesImpl@VCOPOSGate@@@1@@ 0000000180026ec0     Gate.obj
 0002:00001ee0       ??_7?$CComObject@VCOPOSGate@@@ATL@@6B?$IQuickActivateImpl@VCOPOSGate@@@1@@ 0000000180026ee0     Gate.obj
 0002:00001f10       ??_7?$CComObject@VCOPOSGate@@@ATL@@6B?$IDataObjectImpl@VCOPOSGate@@@1@@ 0000000180026f10     Gate.obj
 0002:00001f70       ??_7?$CComObject@VCOPOSGate@@@ATL@@6B?$IProvideClassInfo2Impl@$1?CLSID_OPOSGate@@3U_GUID@@B$1?DIID__IOPOSGateEvents@@3U2@B$1?LIBID_OposGate_CCO@@3U2@B$00$0A@VCComTypeInfoHolder@ATL@@@1@@ 0000000180026f70     Gate.obj
 0002:00001f98       ??_7?$CComObject@VCOPOSGate@@@ATL@@6B?$IObjectSafetyImpl@VCOPOSGate@@$02@1@@ 0000000180026f98     Gate.obj
 0002:00001fc8       ??_7?$CComObject@VCOPOSGate@@@ATL@@6B?$IPropertyNotifySinkCP@VCOPOSGate@@VCComDynamicUnkArray@ATL@@@1@@ 0000000180026fc8     Gate.obj
 0002:00002008       ??_7?$CComObject@VCOPOSGate@@@ATL@@6B?$CProxy_IOPOSEvents@VCOPOSGate@@@@@ 0000000180027008     Gate.obj
 0002:00002048       ??_C@_1O@GBFKGNEO@?$AAA?$AAT?$AAL?$AA?3?$AA?$CF?$AAp@ 0000000180027048     Gate.obj
 0002:00002058       ??_C@_1BA@PICGEGJB@?$AAD?$AAI?$AAS?$AAP?$AAL?$AAA?$AAY@ 0000000180027058     Gate.obj
 0002:00002068       _GUID_b196b284_bab4_101a_b69c_00aa00341d07 0000000180027068     Gate.obj
 0002:00002078       _GUID_9bfbbc02_eff1_101a_84ed_00aa00341d07 0000000180027078     Gate.obj
 0002:00002088       ?_entries@?1??_GetEntries@?$CComEnum@UIEnumConnectionPoints@@$1?_GUID_b196b285_bab4_101a_b69c_00aa00341d07@@3U__s_GUID@@BPEAUIConnectionPoint@@V?$_CopyInterface@UIConnectionPoint@@@ATL@@VCComSingleThreadModel@6@@ATL@@SAPEBU_ATL_INTMAP_ENTRY@3@XZ@4QBU43@B 0000000180027088     Gate.obj
 0002:000020b8       _GUID_00020412_0000_0000_c000_000000000046 00000001800270b8     Gate.obj
 0002:000020c8       _GUID_00020401_0000_0000_c000_000000000046 00000001800270c8     Gate.obj
 0002:000020d8       ??_C@_0BG@EKFFMJIO@RegOpenKeyTransactedW@ 00000001800270d8     Gate.obj
 0002:000020f0       ??_C@_0BI@HAKLOOGP@RegDeleteKeyTransactedW@ 00000001800270f0     Gate.obj
 0002:00002108       ??_C@_0BA@LILAPHGE@RegDeleteKeyExW@ 0000000180027108     Gate.obj
 0002:00002118       ??_C@_19ILOCMLCJ@?$AA?4?$AAt?$AAl?$AAb@ 0000000180027118     Gate.obj
 0002:00002128       _GUID_0002e012_0000_0000_c000_000000000046 0000000180027128     Gate.obj
 0002:00002138       ??_C@_1O@FHBGLCIO@?$AAC?$AAL?$AAS?$AAI?$AAD?$AA?2@ 0000000180027138     Gate.obj
 0002:00002148       ??_C@_1CK@IFBKBFAA@?$AA?2?$AAR?$AAe?$AAq?$AAu?$AAi?$AAr?$AAe?$AAd?$AA?5?$AAC?$AAa?$AAt?$AAe?$AAg@ 0000000180027148     Gate.obj
 0002:00002178       ??_C@_1DA@BIHALFED@?$AA?2?$AAI?$AAm?$AAp?$AAl?$AAe?$AAm?$AAe?$AAn?$AAt?$AAe?$AAd?$AA?5?$AAC?$AAa@ 0000000180027178     Gate.obj
 0002:000021a8       ??_C@_1BK@EDKOLFBJ@?$AAO?$AAL?$AAE?$AAA?$AAU?$AAT?$AA3?$AA2?$AA?4?$AAD?$AAL?$AAL@ 00000001800271a8     Gate.obj
 0002:000021c8       ??_C@_0BJ@CNLFOMHB@UnRegisterTypeLibForUser@ 00000001800271c8     Gate.obj
 0002:000021e8       ??_C@_0BH@LBOMMKPJ@RegisterTypeLibForUser@ 00000001800271e8     Gate.obj
 0002:00002200       ??_C@_0P@MMNMMLGK@COFreezeEvents@ 0000000180027200     GateImpl.obj
 0002:00002210       ??_C@_0BC@OGCGGIMP@GetPropertyNumber@ 0000000180027210     GateImpl.obj
 0002:00002228       ??_C@_0BC@MDCNODNB@SetPropertyNumber@ 0000000180027228     GateImpl.obj
 0002:00002240       ??_C@_0BC@CFCCMIMD@GetPropertyString@ 0000000180027240     GateImpl.obj
 0002:00002258       ??_C@_0BC@CJEDNN@SetPropertyString@ 0000000180027258     GateImpl.obj
 0002:00002270       ??_C@_0M@LNPKKKDA@OpenService@ 0000000180027270     GateImpl.obj
 0002:00002280       ??_C@_0M@PCMCHHMH@CheckHealth@ 0000000180027280     GateImpl.obj
 0002:00002290       ??_C@_0M@JGMIDNEK@ClaimDevice@ 0000000180027290     GateImpl.obj
 0002:000022a0       ??_C@_0N@DDFIIBMP@CloseService@ 00000001800272a0     GateImpl.obj
 0002:000022b0       ??_C@_08EEIHICPC@DirectIO@ 00000001800272b0     GateImpl.obj
 0002:000022c0       ??_C@_0O@BCPMENMJ@ReleaseDevice@ 00000001800272c0     GateImpl.obj
 0002:000022d0       ??_C@_0BA@GFABKEEE@ResetStatistics@ 00000001800272d0     GateImpl.obj
 0002:000022e0       ??_C@_0BD@DPALHJGC@RetrieveStatistics@ 00000001800272e0     GateImpl.obj
 0002:000022f8       ??_C@_0BB@KOHIKNFC@UpdateStatistics@ 00000001800272f8     GateImpl.obj
 0002:00002310       ??_C@_0BH@PBKBNMGB@CompareFirmwareVersion@ 0000000180027310     GateImpl.obj
 0002:00002328       ??_C@_0P@FBPDPIPA@UpdateFirmware@ 0000000180027328     GateImpl.obj
 0002:00002338       ??_C@_08HNMGPACO@OpenGate@ 0000000180027338     GateImpl.obj
 0002:00002348       ??_C@_0BB@NDEPJDFP@WaitForGateClose@ 0000000180027348     GateImpl.obj
 0002:00002360       ??_7?$CProxy_IOPOSEvents@VCOPOSGate@@@@6B@ 0000000180027360     GateImpl.obj
 0002:000023a0       ??_C@_1BA@IFHENID@?$AA?$FL?$AAE?$AAr?$AAr?$AAo?$AAr?$AA?$FN@ 00000001800273a0     GateImpl.obj
 0002:000023b0       ??_C@_0CH@ICEPBEKC@SOFTWARE?2OLEforRetail?2ServiceOP@ 00000001800273b0     GateImpl.obj
 0002:000023d8       ??_C@_1M@IAIJHCCH@?$AAC?$AAl?$AAo?$AAs?$AAe@ 00000001800273d8     GateImpl.obj
 0002:000023e8       ??_C@_1M@PCPKGJAH@?$AAC?$AAl?$AAa?$AAi?$AAm@ 00000001800273e8     GateImpl.obj
 0002:000023f8       ??_C@_1BA@NDFKIOCP@?$AAR?$AAe?$AAl?$AAe?$AAa?$AAs?$AAe@ 00000001800273f8     GateImpl.obj
 0002:00002408       ??_C@_04BLOGEDLD@Gate@     0000000180027408     GateImpl.obj
 0002:00002410       ??_C@_1BM@IJMNMBPK@?$AAG?$AAe?$AAt?$AAO?$AAp?$AAe?$AAn?$AAR?$AAe?$AAs?$AAu?$AAl?$AAt@ 0000000180027410     GateImpl.obj
 0002:00002430       IID_IDispatch              0000000180027430     uuid:oaidl_i.obj
 0002:00002440       IID_IPropertyNotifySink    0000000180027440     uuid:ocidl_i.obj
 0002:00002450       GUID_NULL                  0000000180027450     uuid:cguid_i.obj
 0002:00002460       CLSID_StdGlobalInterfaceTable 0000000180027460     uuid:cguid_i.obj
 0002:00002470       CLSID_StdComponentCategoriesMgr 0000000180027470     uuid:ieguids.obj
 0002:00002480       IID_IUnknown               0000000180027480     uuid:unknwn_i.obj
 0002:00002490       __xmm@ffffffffffffffffffffffffffffffff 0000000180027490     LIBCMT:utility.obj
 0002:000024a0       ??_C@_1EC@JIJBPKFM@?$AAa?$AAp?$AAi?$AA?9?$AAm?$AAs?$AA?9?$AAw?$AAi?$AAn?$AA?9?$AAc?$AAo?$AAr?$AAe@ 00000001800274a0     LIBCMT:thread_safe_statics.obj
 0002:000024e8       ??_C@_1BK@MGMFAEKH@?$AAk?$AAe?$AAr?$AAn?$AAe?$AAl?$AA3?$AA2?$AA?4?$AAd?$AAl?$AAl@ 00000001800274e8     LIBCMT:thread_safe_statics.obj
 0002:00002508       ??_C@_0BJ@JEBJOJFJ@SleepConditionVariableCS@ 0000000180027508     LIBCMT:thread_safe_statics.obj
 0002:00002528       ??_C@_0BJ@PGPPEPCC@WakeAllConditionVariable@ 0000000180027528     LIBCMT:thread_safe_statics.obj
 0002:00002541       ?nothrow@std@@3Unothrow_t@1@B 0000000180027541     LIBCMT:std_nothrow.obj
 0002:00002558       _pRawDllMain               0000000180027558     LIBCMT:dll_dllmain.obj
 0002:00002558       _pDefaultRawDllMain        0000000180027558     LIBCMT:dll_dllmain.obj
 0002:00002568       ??_7exception@std@@6B@     0000000180027568     LIBCMT:throw_bad_alloc.obj
 0002:00002578       ??_C@_0BC@EOODALEL@Unknown?5exception@ 0000000180027578     LIBCMT:throw_bad_alloc.obj
 0002:00002598       ??_7bad_alloc@std@@6B@     0000000180027598     LIBCMT:throw_bad_alloc.obj
 0002:000025a8       ??_C@_0P@GHFPNOJB@bad?5allocation@ 00000001800275a8     LIBCMT:throw_bad_alloc.obj
 0002:000025c0       ??_7bad_array_new_length@std@@6B@ 00000001800275c0     LIBCMT:throw_bad_alloc.obj
 0002:000025d0       ??_C@_0BF@KINCDENJ@bad?5array?5new?5length@ 00000001800275d0     LIBCMT:throw_bad_alloc.obj
 0002:000025f0       ??_7type_info@@6B@         00000001800275f0     LIBCMT:std_type_info_static.obj
 0002:000025f8       GUID_ATLVer110             00000001800275f8     atls:atlbase.obj
 0002:00002610       ??_C@_1IC@ONKHOIDK@?$AAE?$AAR?$AAR?$AAO?$AAR?$AA?5?$AA?3?$AA?5?$AAU?$AAn?$AAa?$AAb?$AAl?$AAe?$AA?5@ 0000000180027610     atls:atlbase.obj
 0002:00002698       ??_C@_0N@FJEPLCIH@atlthunk?4dll@ 0000000180027698     atls:atlthunk.obj
 0002:000026a8       ??_C@_0BG@GAKFHCBM@AtlThunk_AllocateData@ 00000001800276a8     atls:atlthunk.obj
 0002:000026c0       ??_C@_0BC@JKONFIAH@AtlThunk_InitData@ 00000001800276c0     atls:atlthunk.obj
 0002:000026d8       ??_C@_0BE@IAOEELAK@AtlThunk_DataToCode@ 00000001800276d8     atls:atlthunk.obj
 0002:000026f0       ??_C@_0BC@GBGKAIPI@AtlThunk_FreeData@ 00000001800276f0     atls:atlthunk.obj
 0002:00002708       ?s_negLengthTab@FH4@@3QBCB 0000000180027708     libvcruntime:risctrnsctrl.obj
 0002:00002718       ?s_shiftTab@FH4@@3QBEB     0000000180027718     libvcruntime:risctrnsctrl.obj
 0002:00002868       _pDestructExceptionObject  0000000180027868     libvcruntime:ehhelpers.obj
 0002:00002878       ??_7bad_exception@std@@6B@ 0000000180027878     libvcruntime:frame.obj
 0002:00002888       ??_C@_0O@DPKOEFFH@bad?5exception@ 0000000180027888     libvcruntime:frame.obj
 0002:00002fb0       ??_C@_08EHJDFFNH@__based?$CI@ 0000000180027fb0     libvcruntime:undname.obj
 0002:00002fc0       ??_C@_07KOLFKCDI@__cdecl@  0000000180027fc0     libvcruntime:undname.obj
 0002:00002fc8       ??_C@_08GHMPAG@__pascal@   0000000180027fc8     libvcruntime:undname.obj
 0002:00002fd8       ??_C@_09IFJBGAPI@__stdcall@ 0000000180027fd8     libvcruntime:undname.obj
 0002:00002fe8       ??_C@_0L@NPHFGOKO@__thiscall@ 0000000180027fe8     libvcruntime:undname.obj
 0002:00002ff8       ??_C@_0L@JMKHOMEK@__fastcall@ 0000000180027ff8     libvcruntime:undname.obj
 0002:00003008       ??_C@_0N@BCKKPABJ@__vectorcall@ 0000000180028008     libvcruntime:undname.obj
 0002:00003018       ??_C@_09HIJEGCPM@__clrcall@ 0000000180028018     libvcruntime:undname.obj
 0002:00003024       ??_C@_06GHPCKEAG@__eabi@   0000000180028024     libvcruntime:undname.obj
 0002:00003030       ??_C@_09IOPIDJLG@__swift_1@ 0000000180028030     libvcruntime:undname.obj
 0002:00003040       ??_C@_09KFNFGKHF@__swift_2@ 0000000180028040     libvcruntime:undname.obj
 0002:00003050       ??_C@_09LMMOFLDE@__swift_3@ 0000000180028050     libvcruntime:undname.obj
 0002:00003060       ??_C@_07JOMMBBKO@__ptr64@  0000000180028060     libvcruntime:undname.obj
 0002:00003068       ??_C@_0L@PILCLIHE@__restrict@ 0000000180028068     libvcruntime:undname.obj
 0002:00003078       ??_C@_0M@GFIIJFMG@__unaligned@ 0000000180028078     libvcruntime:undname.obj
 0002:00003088       ??_C@_09DHDLOLLB@restrict?$CI@ 0000000180028088     libvcruntime:undname.obj
 0002:00003092       ??_C@_00CNPNBAHC@@         0000000180028092     libvcruntime:undname.obj
 0002:00003094       ??_C@_04NIHEBCM@?5new@     0000000180028094     libvcruntime:undname.obj
 0002:000030a0       ??_C@_07FPCDHGMM@?5delete@ 00000001800280a0     libvcruntime:undname.obj
 0002:000030a8       ??_C@_01NEMOKFLO@?$DN@     00000001800280a8     libvcruntime:undname.obj
 0002:000030ac       ??_C@_02GPIOPFAK@?$DO?$DO@ 00000001800280ac     libvcruntime:undname.obj
 0002:000030b0       ??_C@_02FODMEDOG@?$DM?$DM@ 00000001800280b0     libvcruntime:undname.obj
 0002:000030b4       ??_C@_01DCLJPIOD@?$CB@     00000001800280b4     libvcruntime:undname.obj
 0002:000030b8       ??_C@_02EGOFBIJA@?$DN?$DN@ 00000001800280b8     libvcruntime:undname.obj
 0002:000030bc       ??_C@_02FDNJECIE@?$CB?$DN@ 00000001800280bc     libvcruntime:undname.obj
 0002:000030c0       ??_C@_02GPECMEKF@?$FL?$FN@ 00000001800280c0     libvcruntime:undname.obj
 0002:000030c8       ??_C@_08LHJFAFGD@operator@ 00000001800280c8     libvcruntime:undname.obj
 0002:000030d4       ??_C@_02HBOOOICD@?9?$DO@   00000001800280d4     libvcruntime:undname.obj
 0002:000030d8       ??_C@_01NBENCBCI@?$CK@     00000001800280d8     libvcruntime:undname.obj
 0002:000030dc       ??_C@_02ECNGHCIF@?$CL?$CL@ 00000001800280dc     libvcruntime:undname.obj
 0002:000030e0       ??_C@_02BAABKJLB@?9?9@     00000001800280e0     libvcruntime:undname.obj
 0002:000030e4       ??_C@_01JOAMLHOP@?9@       00000001800280e4     libvcruntime:undname.obj
 0002:000030e8       ??_C@_01MIFGBAGJ@?$CL@     00000001800280e8     libvcruntime:undname.obj
 0002:000030ec       ??_C@_01HNPIGOCE@?$CG@     00000001800280ec     libvcruntime:undname.obj
 0002:000030f0       ??_C@_03MNHNFDLC@?9?$DO?$CK@ 00000001800280f0     libvcruntime:undname.obj
 0002:000030f4       ??_C@_01KMDKNFGN@?1@       00000001800280f4     libvcruntime:undname.obj
 0002:000030f8       ??_C@_01FGNFDNOH@?$CF@     00000001800280f8     libvcruntime:undname.obj
 0002:000030fc       ??_C@_01MNNFJEPP@?$DM@     00000001800280fc     libvcruntime:undname.obj
 0002:00003100       ??_C@_02EHCHHCKH@?$DM?$DN@ 0000000180028100     libvcruntime:undname.obj
 0002:00003104       ??_C@_01PPODPGHN@?$DO@     0000000180028104     libvcruntime:undname.obj
 0002:00003108       ??_C@_02EEKDKGMJ@?$DO?$DN@ 0000000180028108     libvcruntime:undname.obj
 0002:0000310c       ??_C@_01IHBHIGKO@?0@       000000018002810c     libvcruntime:undname.obj
 0002:00003110       ??_C@_02HCKGKOFO@?$CI?$CJ@ 0000000180028110     libvcruntime:undname.obj
 0002:00003114       ??_C@_01PJKLJHI@?$HO@      0000000180028114     libvcruntime:undname.obj
 0002:00003118       ??_C@_01JKBOJNNK@?$FO@     0000000180028118     libvcruntime:undname.obj
 0002:0000311c       ??_C@_01DNKMNLPK@?$HM@     000000018002811c     libvcruntime:undname.obj
 0002:00003120       ??_C@_02PPKAJPJL@?$CG?$CG@ 0000000180028120     libvcruntime:undname.obj
 0002:00003124       ??_C@_02NONPIBCD@?$HM?$HM@ 0000000180028124     libvcruntime:undname.obj
 0002:00003128       ??_C@_02FPIMKNGF@?$CK?$DN@ 0000000180028128     libvcruntime:undname.obj
 0002:0000312c       ??_C@_02FOEOMHFC@?$CL?$DN@ 000000018002812c     libvcruntime:undname.obj
 0002:00003130       ??_C@_02FKMDLLOA@?9?$DN@   0000000180028130     libvcruntime:undname.obj
 0002:00003134       ??_C@_02FJEHGPIO@?1?$DN@   0000000180028134     libvcruntime:undname.obj
 0002:00003138       ??_C@_02FENAOKFI@?$CF?$DN@ 0000000180028138     libvcruntime:undname.obj
 0002:0000313c       ??_C@_03IKFCCPFF@?$DO?$DO?$DN@ 000000018002813c     libvcruntime:undname.obj
 0002:00003140       ??_C@_03CDNPDDLA@?$DM?$DM?$DN@ 0000000180028140     libvcruntime:undname.obj
 0002:00003144       ??_C@_02FGJGFEAB@?$CG?$DN@ 0000000180028144     libvcruntime:undname.obj
 0002:00003148       ??_C@_02DHLNPPGH@?$HM?$DN@ 0000000180028148     libvcruntime:undname.obj
 0002:0000314c       ??_C@_02MHEGNOJ@?$FO?$DN@  000000018002814c     libvcruntime:undname.obj
 0002:00003150       ??_C@_09IFPLHPGF@?$GAvftable?8@ 0000000180028150     libvcruntime:undname.obj
 0002:00003160       ??_C@_09BLBHBJP@?$GAvbtable?8@ 0000000180028160     libvcruntime:undname.obj
 0002:00003170       ??_C@_07FEEIOKP@?$GAvcall?8@ 0000000180028170     libvcruntime:undname.obj
 0002:00003178       ??_C@_08LLFFHHDJ@?$GAtypeof?8@ 0000000180028178     libvcruntime:undname.obj
 0002:00003188       ??_C@_0BF@KDPPACIK@?$GAlocal?5static?5guard?8@ 0000000180028188     libvcruntime:undname.obj
 0002:000031a0       ??_C@_08OBABFOLI@?$GAstring?8@ 00000001800281a0     libvcruntime:undname.obj
 0002:000031b0       ??_C@_0BD@JDLKDPAB@?$GAvbase?5destructor?8@ 00000001800281b0     libvcruntime:undname.obj
 0002:000031c8       ??_C@_0BN@DEGPLNFK@?$GAvector?5deleting?5destructor?8@ 00000001800281c8     libvcruntime:undname.obj
 0002:000031e8       ??_C@_0BO@OBMKPJIG@?$GAdefault?5constructor?5closure?8@ 00000001800281e8     libvcruntime:undname.obj
 0002:00003208       ??_C@_0BN@IMDCHIKM@?$GAscalar?5deleting?5destructor?8@ 0000000180028208     libvcruntime:undname.obj
 0002:00003228       ??_C@_0BO@PFGOCPJJ@?$GAvector?5constructor?5iterator?8@ 0000000180028228     libvcruntime:undname.obj
 0002:00003248       ??_C@_0BN@LFPFMEDL@?$GAvector?5destructor?5iterator?8@ 0000000180028248     libvcruntime:undname.obj
 0002:00003268       ??_C@_0CE@IKBNEHA@?$GAvector?5vbase?5constructor?5itera@ 0000000180028268     libvcruntime:undname.obj
 0002:00003290       ??_C@_0BL@NILFHHPC@?$GAvirtual?5displacement?5map?8@ 0000000180028290     libvcruntime:undname.obj
 0002:000032b0       ??_C@_0CB@JONCMFFK@?$GAeh?5vector?5constructor?5iterator@ 00000001800282b0     libvcruntime:undname.obj
 0002:000032d8       ??_C@_0CA@GCEOPDGL@?$GAeh?5vector?5destructor?5iterator?8@ 00000001800282d8     libvcruntime:undname.obj
 0002:000032f8       ??_C@_0CH@OOJPLCPH@?$GAeh?5vector?5vbase?5constructor?5it@ 00000001800282f8     libvcruntime:undname.obj
 0002:00003320       ??_C@_0BL@LLKPOHJI@?$GAcopy?5constructor?5closure?8@ 0000000180028320     libvcruntime:undname.obj
 0002:00003340       ??_C@_0BA@KBCDOMBN@?$GAudt?5returning?8@ 0000000180028340     libvcruntime:undname.obj
 0002:00003350       ??_C@_03KLGMFNMG@?$GAEH@   0000000180028350     libvcruntime:undname.obj
 0002:00003354       ??_C@_05KHLCHHI@?$GARTTI@  0000000180028354     libvcruntime:undname.obj
 0002:00003360       ??_C@_0BA@KKLDJDLB@?$GAlocal?5vftable?8@ 0000000180028360     libvcruntime:undname.obj
 0002:00003370       ??_C@_0CE@IIHCMGGL@?$GAlocal?5vftable?5constructor?5clos@ 0000000180028370     libvcruntime:undname.obj
 0002:00003394       ??_C@_06FHBGPFGH@?5new?$FL?$FN@ 0000000180028394     libvcruntime:undname.obj
 0002:000033a0       ??_C@_09LBNFPBCA@?5delete?$FL?$FN@ 00000001800283a0     libvcruntime:undname.obj
 0002:000033b0       ??_C@_0P@HJKNJFNN@?$GAomni?5callsig?8@ 00000001800283b0     libvcruntime:undname.obj
 0002:000033c0       ??_C@_0BL@CNOONJFP@?$GAplacement?5delete?5closure?8@ 00000001800283c0     libvcruntime:undname.obj
 0002:000033e0       ??_C@_0BN@CKNJLHMB@?$GAplacement?5delete?$FL?$FN?5closure?8@ 00000001800283e0     libvcruntime:undname.obj
 0002:00003400       ??_C@_0CG@CFDHKGGD@?$GAmanaged?5vector?5constructor?5ite@ 0000000180028400     libvcruntime:undname.obj
 0002:00003428       ??_C@_0CF@IMGKMJNO@?$GAmanaged?5vector?5destructor?5iter@ 0000000180028428     libvcruntime:undname.obj
 0002:00003450       ??_C@_0CG@HLDDJMAG@?$GAeh?5vector?5copy?5constructor?5ite@ 0000000180028450     libvcruntime:undname.obj
 0002:00003478       ??_C@_0CM@FCBBDIGB@?$GAeh?5vector?5vbase?5copy?5construct@ 0000000180028478     libvcruntime:undname.obj
 0002:000034a8       ??_C@_0BL@CLIPGLGB@?$GAdynamic?5initializer?5for?5?8@ 00000001800284a8     libvcruntime:undname.obj
 0002:000034c8       ??_C@_0CB@PDBIFEP@?$GAdynamic?5atexit?5destructor?5for?5@ 00000001800284c8     libvcruntime:undname.obj
 0002:000034f0       ??_C@_0CD@CGAJBKEJ@?$GAvector?5copy?5constructor?5iterat@ 00000001800284f0     libvcruntime:undname.obj
 0002:00003518       ??_C@_0CJ@GJELGAMM@?$GAvector?5vbase?5copy?5constructor?5@ 0000000180028518     libvcruntime:undname.obj
 0002:00003548       ??_C@_0CL@FGIJHLCE@?$GAmanaged?5vector?5copy?5constructo@ 0000000180028548     libvcruntime:undname.obj
 0002:00003578       ??_C@_0BM@PMGGMLDN@?$GAlocal?5static?5thread?5guard?8@ 0000000180028578     libvcruntime:undname.obj
 0002:00003598       ??_C@_0N@BDNMDMOL@operator?5?$CC?$CC?5@ 0000000180028598     libvcruntime:undname.obj
 0002:000035a8       ??_C@_0BC@GGEBGALA@operator?5co_await@ 00000001800285a8     libvcruntime:undname.obj
 0002:000035c0       ??_C@_0M@GAAIMMOH@operator?$DM?$DN?$DO@ 00000001800285c0     libvcruntime:undname.obj
 0002:000035d0       ??_C@_0BC@DAFEJGAK@?5Type?5Descriptor?8@ 00000001800285d0     libvcruntime:undname.obj
 0002:000035e8       ??_C@_0BM@LDKODKLH@?5Base?5Class?5Descriptor?5at?5?$CI@ 00000001800285e8     libvcruntime:undname.obj
 0002:00003608       ??_C@_0BD@LGICGFMM@?5Base?5Class?5Array?8@ 0000000180028608     libvcruntime:undname.obj
 0002:00003620       ??_C@_0BN@MECKDCOJ@?5Class?5Hierarchy?5Descriptor?8@ 0000000180028620     libvcruntime:undname.obj
 0002:00003640       ??_C@_0BK@CFCOFLF@?5Complete?5Object?5Locator?8@ 0000000180028640     libvcruntime:undname.obj
 0002:00003660       ??_C@_0BG@JNJLAMPM@?$GAanonymous?5namespace?8@ 0000000180028660     libvcruntime:undname.obj
 0002:00003690       ??_C@_1DM@KHCHBNEB@?$AAa?$AAp?$AAi?$AA?9?$AAm?$AAs?$AA?9?$AAw?$AAi?$AAn?$AA?9?$AAc?$AAo?$AAr?$AAe@ 0000000180028690     libvcruntime:winapi_downlevel.obj
 0002:000036d0       ??_C@_1DK@LPPGFMPP@?$AAa?$AAp?$AAi?$AA?9?$AAm?$AAs?$AA?9?$AAw?$AAi?$AAn?$AA?9?$AAc?$AAo?$AAr?$AAe@ 00000001800286d0     libvcruntime:winapi_downlevel.obj
 0002:00003710       ??_C@_1BC@GDMECMAK@?$AAk?$AAe?$AAr?$AAn?$AAe?$AAl?$AA3?$AA2@ 0000000180028710     libvcruntime:winapi_downlevel.obj
 0002:00003728       ??_C@_1BA@PFFKHIOG@?$AAa?$AAp?$AAi?$AA?9?$AAm?$AAs?$AA?9@ 0000000180028728     libvcruntime:winapi_downlevel.obj
 0002:00003740       ??_C@_08KNHFBNJ@FlsAlloc@  0000000180028740     libvcruntime:winapi_downlevel.obj
 0002:00003758       ??_C@_07PEJMOBNF@FlsFree@  0000000180028758     libvcruntime:winapi_downlevel.obj
 0002:00003768       ??_C@_0M@GDNOONDI@FlsGetValue@ 0000000180028768     libvcruntime:winapi_downlevel.obj
 0002:00003780       ??_C@_0M@JCPCPOEF@FlsSetValue@ 0000000180028780     libvcruntime:winapi_downlevel.obj
 0002:00003798       ??_C@_0BM@HCFOFFN@InitializeCriticalSectionEx@ 0000000180028798     libvcruntime:winapi_downlevel.obj
 0002:00003930       ?format_validation_lookup_table_spectre@__crt_stdio_output@@3V?$spectre_mitigated_lookup_table@Ustate_transition_pair@__crt_stdio_output@@$0IA@@1@B 0000000180028930     libucrt:output.obj
 0002:00003a30       ??_C@_1O@CEDCILHN@?$AA?$CI?$AAn?$AAu?$AAl?$AAl?$AA?$CJ@ 0000000180028a30     libucrt:output.obj
 0002:00003a40       ??_C@_06OJHGLDPL@?$CInull?$CJ@ 0000000180028a40     libucrt:output.obj
 0002:00003a50       __acrt_exception_action_table 0000000180028a50     libucrt:exception_filter.obj
 0002:00003b10       __acrt_signal_action_table_count 0000000180028b10     libucrt:exception_filter.obj
 0002:00003b18       __acrt_signal_action_first_fpe_index 0000000180028b18     libucrt:exception_filter.obj
 0002:00003b20       __acrt_signal_action_fpe_count 0000000180028b20     libucrt:exception_filter.obj
 0002:00003b78       ??_C@_1BI@BGOHAHKC@?$AAm?$AAs?$AAc?$AAo?$AAr?$AAe?$AAe?$AA?4?$AAd?$AAl?$AAl@ 0000000180028b78     libucrt:exit.obj
 0002:00003b90       ??_C@_0P@MIGLKIOC@CorExitProcess@ 0000000180028b90     libucrt:exit.obj
 0002:00003cf0       __lc_time_c                0000000180028cf0     libucrt:nlsdata.obj
 0002:00003fb0       ??_C@_03KOEHGMDN@Sun@      0000000180028fb0     libucrt:nlsdata.obj
 0002:00003fb4       ??_C@_03PDAGKDH@Mon@       0000000180028fb4     libucrt:nlsdata.obj
 0002:00003fb8       ??_C@_03NAGEINEP@Tue@      0000000180028fb8     libucrt:nlsdata.obj
 0002:00003fbc       ??_C@_03MHOMLAJA@Wed@      0000000180028fbc     libucrt:nlsdata.obj
 0002:00003fc0       ??_C@_03IOFIKPDN@Thu@      0000000180028fc0     libucrt:nlsdata.obj
 0002:00003fc4       ??_C@_03IDIOELNC@Fri@      0000000180028fc4     libucrt:nlsdata.obj
 0002:00003fc8       ??_C@_03FEFJNEK@Sat@       0000000180028fc8     libucrt:nlsdata.obj
 0002:00003fcc       ??_C@_06OOPIFAJ@Sunday@    0000000180028fcc     libucrt:nlsdata.obj
 0002:00003fd4       ??_C@_06JLEDEDGH@Monday@   0000000180028fd4     libucrt:nlsdata.obj
 0002:00003fe0       ??_C@_07BAAGCFCM@Tuesday@  0000000180028fe0     libucrt:nlsdata.obj
 0002:00003fe8       ??_C@_09DLIGFAKA@Wednesday@ 0000000180028fe8     libucrt:nlsdata.obj
 0002:00003ff8       ??_C@_08HACCIKIA@Thursday@ 0000000180028ff8     libucrt:nlsdata.obj
 0002:00004004       ??_C@_06JECMNKMI@Friday@   0000000180029004     libucrt:nlsdata.obj
 0002:00004010       ??_C@_08INBOOONO@Saturday@ 0000000180029010     libucrt:nlsdata.obj
 0002:0000401c       ??_C@_03JIHJHPIE@Jan@      000000018002901c     libucrt:nlsdata.obj
 0002:00004020       ??_C@_03HJBDCHOM@Feb@      0000000180029020     libucrt:nlsdata.obj
 0002:00004024       ??_C@_03ODNJBKGA@Mar@      0000000180029024     libucrt:nlsdata.obj
 0002:00004028       ??_C@_03LEOLGMJP@Apr@      0000000180029028     libucrt:nlsdata.obj
 0002:0000402c       ??_C@_03CNMDKL@May@        000000018002902c     libucrt:nlsdata.obj
 0002:00004030       ??_C@_03IDFGHECI@Jun@      0000000180029030     libucrt:nlsdata.obj
 0002:00004034       ??_C@_03LBGABGKK@Jul@      0000000180029034     libucrt:nlsdata.obj
 0002:00004038       ??_C@_03IFJFEIGA@Aug@      0000000180029038     libucrt:nlsdata.obj
 0002:0000403c       ??_C@_03GGCAPAJC@Sep@      000000018002903c     libucrt:nlsdata.obj
 0002:00004040       ??_C@_03BMAOKBAD@Oct@      0000000180029040     libucrt:nlsdata.obj
 0002:00004044       ??_C@_03JPJOFNIA@Nov@      0000000180029044     libucrt:nlsdata.obj
 0002:00004048       ??_C@_03MKABNOCG@Dec@      0000000180029048     libucrt:nlsdata.obj
 0002:00004050       ??_C@_07CGJPFGJA@January@  0000000180029050     libucrt:nlsdata.obj
 0002:00004058       ??_C@_08GNJGEPFN@February@ 0000000180029058     libucrt:nlsdata.obj
 0002:00004064       ??_C@_05HPCKOFNC@March@    0000000180029064     libucrt:nlsdata.obj
 0002:0000406c       ??_C@_05DMJDNLEJ@April@    000000018002906c     libucrt:nlsdata.obj
 0002:00004074       ??_C@_04CNLMGBGM@June@     0000000180029074     libucrt:nlsdata.obj
 0002:0000407c       ??_C@_04MIEPOIFP@July@     000000018002907c     libucrt:nlsdata.obj
 0002:00004084       ??_C@_06LBBHFDDG@August@   0000000180029084     libucrt:nlsdata.obj
 0002:00004090       ??_C@_09BHHEALKD@September@ 0000000180029090     libucrt:nlsdata.obj
 0002:000040a0       ??_C@_07JJNFCEND@October@  00000001800290a0     libucrt:nlsdata.obj
 0002:000040a8       ??_C@_08HCHEGEOA@November@ 00000001800290a8     libucrt:nlsdata.obj
 0002:000040b8       ??_C@_08EDHMEBNP@December@ 00000001800290b8     libucrt:nlsdata.obj
 0002:000040c4       ??_C@_02DEDBPAFC@AM@       00000001800290c4     libucrt:nlsdata.obj
 0002:000040c8       ??_C@_02CJNFDJBF@PM@       00000001800290c8     libucrt:nlsdata.obj
 0002:000040d0       ??_C@_08BPBNCDIB@MM?1dd?1yy@ 00000001800290d0     libucrt:nlsdata.obj
 0002:000040e0       ??_C@_0BE@CKGJFCPC@dddd?0?5MMMM?5dd?0?5yyyy@ 00000001800290e0     libucrt:nlsdata.obj
 0002:000040f8       ??_C@_08JCCMCCIL@HH?3mm?3ss@ 00000001800290f8     libucrt:nlsdata.obj
 0002:00004108       ??_C@_17MBGCMIPB@?$AAS?$AAu?$AAn@ 0000000180029108     libucrt:nlsdata.obj
 0002:00004110       ??_C@_17KBOMKBF@?$AAM?$AAo?$AAn@ 0000000180029110     libucrt:nlsdata.obj
 0002:00004118       ??_C@_17BMKGEGOJ@?$AAT?$AAu?$AAe@ 0000000180029118     libucrt:nlsdata.obj
 0002:00004120       ??_C@_17CJEDCEPE@?$AAW?$AAe?$AAd@ 0000000180029120     libucrt:nlsdata.obj
 0002:00004128       ??_C@_17PDPHAADD@?$AAT?$AAh?$AAu@ 0000000180029128     libucrt:nlsdata.obj
 0002:00004130       ??_C@_17HFOLPPLP@?$AAF?$AAr?$AAi@ 0000000180029130     libucrt:nlsdata.obj
 0002:00004138       ??_C@_17GGIBDPIH@?$AAS?$AAa?$AAt@ 0000000180029138     libucrt:nlsdata.obj
 0002:00004140       ??_C@_1O@IHNHDHPB@?$AAS?$AAu?$AAn?$AAd?$AAa?$AAy@ 0000000180029140     libucrt:nlsdata.obj
 0002:00004150       ??_C@_1O@MMNBFLIA@?$AAM?$AAo?$AAn?$AAd?$AAa?$AAy@ 0000000180029150     libucrt:nlsdata.obj
 0002:00004160       ??_C@_1BA@ENFBFFEK@?$AAT?$AAu?$AAe?$AAs?$AAd?$AAa?$AAy@ 0000000180029160     libucrt:nlsdata.obj
 0002:00004170       ??_C@_1BE@EBOGMDOH@?$AAW?$AAe?$AAd?$AAn?$AAe?$AAs?$AAd?$AAa?$AAy@ 0000000180029170     libucrt:nlsdata.obj
 0002:00004188       ??_C@_1BC@HHMNLIHE@?$AAT?$AAh?$AAu?$AAr?$AAs?$AAd?$AAa?$AAy@ 0000000180029188     libucrt:nlsdata.obj
 0002:000041a0       ??_C@_1O@PDICJHAG@?$AAF?$AAr?$AAi?$AAd?$AAa?$AAy@ 00000001800291a0     libucrt:nlsdata.obj
 0002:000041b0       ??_C@_1BC@ENMNNPAJ@?$AAS?$AAa?$AAt?$AAu?$AAr?$AAd?$AAa?$AAy@ 00000001800291b0     libucrt:nlsdata.obj
 0002:000041c8       ??_C@_17DKNBKCHM@?$AAJ?$AAa?$AAn@ 00000001800291c8     libucrt:nlsdata.obj
 0002:000041d0       ??_C@_17LMDJEKJN@?$AAF?$AAe?$AAb@ 00000001800291d0     libucrt:nlsdata.obj
 0002:000041d8       ??_C@_17CKNLEDEC@?$AAM?$AAa?$AAr@ 00000001800291d8     libucrt:nlsdata.obj
 0002:000041e0       ??_C@_17LFPOIHDD@?$AAA?$AAp?$AAr@ 00000001800291e0     libucrt:nlsdata.obj
 0002:000041e8       ??_C@_17PNNKMEED@?$AAM?$AAa?$AAy@ 00000001800291e8     libucrt:nlsdata.obj
 0002:000041f0       ??_C@_17KCJGOCPB@?$AAJ?$AAu?$AAn@ 00000001800291f0     libucrt:nlsdata.obj
 0002:000041f8       ??_C@_17IJPCKHK@?$AAJ?$AAu?$AAl@ 00000001800291f8     libucrt:nlsdata.obj
 0002:00004200       ??_C@_17ICPELBCN@?$AAA?$AAu?$AAg@ 0000000180029200     libucrt:nlsdata.obj
 0002:00004208       ??_C@_17HCHCOKMG@?$AAS?$AAe?$AAp@ 0000000180029208     libucrt:nlsdata.obj
 0002:00004210       ??_C@_17FNLKOI@?$AAO?$AAc?$AAt@ 0000000180029210     libucrt:nlsdata.obj
 0002:00004218       ??_C@_17BBDMLCIG@?$AAN?$AAo?$AAv@ 0000000180029218     libucrt:nlsdata.obj
 0002:00004220       ??_C@_17EGKACKIF@?$AAD?$AAe?$AAc@ 0000000180029220     libucrt:nlsdata.obj
 0002:00004228       ??_C@_1BA@EFMEIEBA@?$AAJ?$AAa?$AAn?$AAu?$AAa?$AAr?$AAy@ 0000000180029228     libucrt:nlsdata.obj
 0002:00004238       ??_C@_1BC@JGDDFFAM@?$AAF?$AAe?$AAb?$AAr?$AAu?$AAa?$AAr?$AAy@ 0000000180029238     libucrt:nlsdata.obj
 0002:00004250       ??_C@_1M@IKEENEDF@?$AAM?$AAa?$AAr?$AAc?$AAh@ 0000000180029250     libucrt:nlsdata.obj
 0002:00004260       ??_C@_1M@GJNLMHFD@?$AAA?$AAp?$AAr?$AAi?$AAl@ 0000000180029260     libucrt:nlsdata.obj
 0002:00004270       ??_C@_19EPFLPGAP@?$AAJ?$AAu?$AAn?$AAe@ 0000000180029270     libucrt:nlsdata.obj
 0002:00004280       ??_C@_19BIFMLPCD@?$AAJ?$AAu?$AAl?$AAy@ 0000000180029280     libucrt:nlsdata.obj
 0002:00004290       ??_C@_1O@PAHLKOAC@?$AAA?$AAu?$AAg?$AAu?$AAs?$AAt@ 0000000180029290     libucrt:nlsdata.obj
 0002:000042a0       ??_C@_1BE@DKAAMBJL@?$AAS?$AAe?$AAp?$AAt?$AAe?$AAm?$AAb?$AAe?$AAr@ 00000001800292a0     libucrt:nlsdata.obj
 0002:000042b8       ??_C@_1BA@EPANDLNG@?$AAO?$AAc?$AAt?$AAo?$AAb?$AAe?$AAr@ 00000001800292b8     libucrt:nlsdata.obj
 0002:000042c8       ??_C@_1BC@BGLIFPF@?$AAN?$AAo?$AAv?$AAe?$AAm?$AAb?$AAe?$AAr@ 00000001800292c8     libucrt:nlsdata.obj
 0002:000042e0       ??_C@_1BC@FEMKIFH@?$AAD?$AAe?$AAc?$AAe?$AAm?$AAb?$AAe?$AAr@ 00000001800292e0     libucrt:nlsdata.obj
 0002:000042f4       ??_C@_15ODEHAHHF@?$AAA?$AAM@ 00000001800292f4     libucrt:nlsdata.obj
 0002:000042fc       ??_C@_15CLMNNGEL@?$AAP?$AAM@ 00000001800292fc     libucrt:nlsdata.obj
 0002:00004308       ??_C@_1BC@IEBCMHCM@?$AAM?$AAM?$AA?1?$AAd?$AAd?$AA?1?$AAy?$AAy@ 0000000180029308     libucrt:nlsdata.obj
 0002:00004320       ??_C@_1CI@KNAKOEBC@?$AAd?$AAd?$AAd?$AAd?$AA?0?$AA?5?$AAM?$AAM?$AAM?$AAM?$AA?5?$AAd?$AAd?$AA?0?$AA?5@ 0000000180029320     libucrt:nlsdata.obj
 0002:00004348       ??_C@_1BC@GDGBMEMK@?$AAH?$AAH?$AA?3?$AAm?$AAm?$AA?3?$AAs?$AAs@ 0000000180029348     libucrt:nlsdata.obj
 0002:00004360       ??_C@_1M@BMHNFIME@?$AAe?$AAn?$AA?9?$AAU?$AAS@ 0000000180029360     libucrt:nlsdata.obj
 0002:00004410       ??_C@_1EA@JGEFHKEI@?$AAa?$AAp?$AAi?$AA?9?$AAm?$AAs?$AA?9?$AAw?$AAi?$AAn?$AA?9?$AAc?$AAo?$AAr?$AAe@ 0000000180029410     libucrt:winapi_thunks.obj
 0002:00004450       ??_C@_1DI@IJCEHOCB@?$AAa?$AAp?$AAi?$AA?9?$AAm?$AAs?$AA?9?$AAw?$AAi?$AAn?$AA?9?$AAc?$AAo?$AAr?$AAe@ 0000000180029450     libucrt:winapi_thunks.obj
 0002:00004490       ??_C@_1EI@MPIAOHOC@?$AAa?$AAp?$AAi?$AA?9?$AAm?$AAs?$AA?9?$AAw?$AAi?$AAn?$AA?9?$AAc?$AAo?$AAr?$AAe@ 0000000180029490     libucrt:winapi_thunks.obj
 0002:000044e0       ??_C@_1FK@FPHCKFIE@?$AAa?$AAp?$AAi?$AA?9?$AAm?$AAs?$AA?9?$AAw?$AAi?$AAn?$AA?9?$AAc?$AAo?$AAr?$AAe@ 00000001800294e0     libucrt:winapi_thunks.obj
 0002:00004540       ??_C@_1EM@DILCGIIO@?$AAa?$AAp?$AAi?$AA?9?$AAm?$AAs?$AA?9?$AAw?$AAi?$AAn?$AA?9?$AAc?$AAo?$AAr?$AAe@ 0000000180029540     libucrt:winapi_thunks.obj
 0002:00004590       ??_C@_1DM@LNCGDDPN@?$AAa?$AAp?$AAi?$AA?9?$AAm?$AAs?$AA?9?$AAw?$AAi?$AAn?$AA?9?$AAc?$AAo?$AAr?$AAe@ 0000000180029590     libucrt:winapi_thunks.obj
 0002:000045d0       ??_C@_1DO@FPAPJEMD@?$AAa?$AAp?$AAi?$AA?9?$AAm?$AAs?$AA?9?$AAw?$AAi?$AAn?$AA?9?$AAc?$AAo?$AAr?$AAe@ 00000001800295d0     libucrt:winapi_thunks.obj
 0002:00004610       ??_C@_1DK@NDHNAHIO@?$AAa?$AAp?$AAi?$AA?9?$AAm?$AAs?$AA?9?$AAw?$AAi?$AAn?$AA?9?$AAc?$AAo?$AAr?$AAe@ 0000000180029610     libucrt:winapi_thunks.obj
 0002:00004650       ??_C@_1DM@KGHDGBCM@?$AAa?$AAp?$AAi?$AA?9?$AAm?$AAs?$AA?9?$AAw?$AAi?$AAn?$AA?9?$AAc?$AAo?$AAr?$AAe@ 0000000180029650     libucrt:winapi_thunks.obj
 0002:00004690       ??_C@_1EO@IJIOEFOH@?$AAa?$AAp?$AAi?$AA?9?$AAm?$AAs?$AA?9?$AAw?$AAi?$AAn?$AA?9?$AAr?$AAt?$AAc?$AAo@ 0000000180029690     libucrt:winapi_thunks.obj
 0002:000046e0       ??_C@_1FG@HHGEKANL@?$AAa?$AAp?$AAi?$AA?9?$AAm?$AAs?$AA?9?$AAw?$AAi?$AAn?$AA?9?$AAs?$AAe?$AAc?$AAu@ 00000001800296e0     libucrt:winapi_thunks.obj
 0002:00004740       ??_C@_1EG@DBIOJECG@?$AAe?$AAx?$AAt?$AA?9?$AAm?$AAs?$AA?9?$AAw?$AAi?$AAn?$AA?9?$AAn?$AAt?$AAu?$AAs@ 0000000180029740     libucrt:winapi_thunks.obj
 0002:00004790       ??_C@_1EO@FIHMJCLF@?$AAe?$AAx?$AAt?$AA?9?$AAm?$AAs?$AA?9?$AAw?$AAi?$AAn?$AA?9?$AAn?$AAt?$AAu?$AAs@ 0000000180029790     libucrt:winapi_thunks.obj
 0002:000047e0       ??_C@_1BC@DNHGCMLG@?$AAa?$AAd?$AAv?$AAa?$AAp?$AAi?$AA3?$AA2@ 00000001800297e0     libucrt:winapi_thunks.obj
 0002:000047f8       ??_C@_1M@OAIMIKLP@?$AAn?$AAt?$AAd?$AAl?$AAl@ 00000001800297f8     libucrt:winapi_thunks.obj
 0002:00004810       ??_C@_1EG@DPGNFKGC@?$AAa?$AAp?$AAi?$AA?9?$AAm?$AAs?$AA?9?$AAw?$AAi?$AAn?$AA?9?$AAa?$AAp?$AAp?$AAm@ 0000000180029810     libucrt:winapi_thunks.obj
 0002:00004858       ??_C@_1O@BCCLBEOE@?$AAu?$AAs?$AAe?$AAr?$AA3?$AA2@ 0000000180029858     libucrt:winapi_thunks.obj
 0002:00004868       ??_C@_1BA@IAIFMGEF@?$AAe?$AAx?$AAt?$AA?9?$AAm?$AAs?$AA?9@ 0000000180029868     libucrt:winapi_thunks.obj
 0002:00004880       ??_C@_0BA@FHFNEAED@AreFileApisANSI@ 0000000180029880     libucrt:winapi_thunks.obj
 0002:000048a0       ??_C@_0O@KKBNKAPF@LCMapStringEx@ 00000001800298a0     libucrt:winapi_thunks.obj
 0002:000048b8       ??_C@_0BB@HBDEELFH@LocaleNameToLCID@ 00000001800298b8     libucrt:winapi_thunks.obj
 0002:000048d0       ??_C@_0CF@OJOFEIGO@AppPolicyGetProcessTerminationM@ 00000001800298d0     libucrt:winapi_thunks.obj
 0002:00004900       ??_C@_0BI@BKLFFAPO@SetThreadStackGuarantee@ 0000000180029900     libucrt:winapi_thunks.obj
 0002:000049a0       ??_C@_03OEIAHPBN@INF@      00000001800299a0     libucrt:cvt.obj
 0002:000049a4       ??_C@_03OJHLLCGB@inf@      00000001800299a4     libucrt:cvt.obj
 0002:000049a8       ??_C@_03LKNCIKJB@NAN@      00000001800299a8     libucrt:cvt.obj
 0002:000049ac       ??_C@_03LHCJEHON@nan@      00000001800299ac     libucrt:cvt.obj
 0002:000049b0       ??_C@_09OFJJIMPC@NAN?$CISNAN?$CJ@ 00000001800299b0     libucrt:cvt.obj
 0002:000049c0       ??_C@_09IPFBKMDL@nan?$CIsnan?$CJ@ 00000001800299c0     libucrt:cvt.obj
 0002:000049d0       ??_C@_08IKHNHAJ@NAN?$CIIND?$CJ@ 00000001800299d0     libucrt:cvt.obj
 0002:000049e0       ??_C@_08OFCDMILK@nan?$CIind?$CJ@ 00000001800299e0     libucrt:cvt.obj
 0002:000049ec       ??_C@_05KLBDPFGC@e?$CL000@ 00000001800299ec     libucrt:cvt.obj
 0002:00004a18       ??_C@_1M@HPNHIDJI@?$AAj?$AAa?$AA?9?$AAJ?$AAP@ 0000000180029a18     libucrt:mbctype.obj
 0002:00004a28       ??_C@_1M@BIBDDEMK@?$AAz?$AAh?$AA?9?$AAC?$AAN@ 0000000180029a28     libucrt:mbctype.obj
 0002:00004a38       ??_C@_1M@JLOOOEGK@?$AAk?$AAo?$AA?9?$AAK?$AAR@ 0000000180029a38     libucrt:mbctype.obj
 0002:00004a48       ??_C@_1M@CLNBBOPM@?$AAz?$AAh?$AA?9?$AAT?$AAW@ 0000000180029a48     libucrt:mbctype.obj
 0002:00004a60       __newctype                 0000000180029a60     libucrt:ctype.obj
 0002:00004d60       __newclmap                 0000000180029d60     libucrt:ctype.obj
 0002:00004ee0       __newcumap                 0000000180029ee0     libucrt:ctype.obj
 0002:00005060       ??_C@_15PJPFLCCM@?$AAu?$AAk@ 000000018002a060     libucrt:get_qualified_locale.obj
 0002:00005eb0       ??_C@_15EMKDOKLE@?$AAa?$AAr@ 000000018002aeb0     libucrt:lcidtoname_downlevel.obj
 0002:00005eb8       ??_C@_15KNPADPLH@?$AAb?$AAg@ 000000018002aeb8     libucrt:lcidtoname_downlevel.obj
 0002:00005ec0       ??_C@_15EDMHLDMO@?$AAc?$AAa@ 000000018002aec0     libucrt:lcidtoname_downlevel.obj
 0002:00005ec8       ??_C@_1O@BPEAJADD@?$AAz?$AAh?$AA?9?$AAC?$AAH?$AAS@ 000000018002aec8     libucrt:lcidtoname_downlevel.obj
 0002:00005ed8       ??_C@_15LJNHCMNK@?$AAc?$AAs@ 000000018002aed8     libucrt:lcidtoname_downlevel.obj
 0002:00005ee0       ??_C@_15FOMCIDHG@?$AAd?$AAa@ 000000018002aee0     libucrt:lcidtoname_downlevel.obj
 0002:00005ee8       ??_C@_15NBKABECB@?$AAd?$AAe@ 000000018002aee8     libucrt:lcidtoname_downlevel.obj
 0002:00005ef0       ??_C@_15GHPEIIAO@?$AAe?$AAl@ 000000018002aef0     libucrt:lcidtoname_downlevel.obj
 0002:00005ef8       ??_C@_15MNPNEAIF@?$AAe?$AAn@ 000000018002aef8     libucrt:lcidtoname_downlevel.obj
 0002:00005f00       ??_C@_15GPIOMPMH@?$AAe?$AAs@ 000000018002af00     libucrt:lcidtoname_downlevel.obj
 0002:00005f08       ??_C@_15NGLOAKJC@?$AAf?$AAi@ 000000018002af08     libucrt:lcidtoname_downlevel.obj
 0002:00005f10       ??_C@_15FBKGNKAM@?$AAf?$AAr@ 000000018002af10     libucrt:lcidtoname_downlevel.obj
 0002:00005f18       ??_C@_15KGGCNEFK@?$AAh?$AAe@ 000000018002af18     libucrt:lcidtoname_downlevel.obj
 0002:00005f20       ??_C@_15PGHLIDMF@?$AAh?$AAu@ 000000018002af20     libucrt:lcidtoname_downlevel.obj
 0002:00005f28       ??_C@_15BIEMAPLM@?$AAi?$AAs@ 000000018002af28     libucrt:lcidtoname_downlevel.obj
 0002:00005f30       ??_C@_15IFJLDHAF@?$AAi?$AAt@ 000000018002af30     libucrt:lcidtoname_downlevel.obj
 0002:00005f38       ??_C@_15GEMIOCAG@?$AAj?$AAa@ 000000018002af38     libucrt:lcidtoname_downlevel.obj
 0002:00005f40       ??_C@_15EPELEGJA@?$AAk?$AAo@ 000000018002af40     libucrt:lcidtoname_downlevel.obj
 0002:00005f48       ??_C@_15NDDHIMN@?$AAn?$AAl@ 000000018002af48     libucrt:lcidtoname_downlevel.obj
 0002:00005f50       ??_C@_15BPIGNHCD@?$AAn?$AAo@ 000000018002af50     libucrt:lcidtoname_downlevel.obj
 0002:00005f58       ??_C@_15DEOPBLCG@?$AAp?$AAl@ 000000018002af58     libucrt:lcidtoname_downlevel.obj
 0002:00005f60       ??_C@_15KBECGEFG@?$AAp?$AAt@ 000000018002af60     libucrt:lcidtoname_downlevel.obj
 0002:00005f68       ??_C@_15GLJCBFMD@?$AAr?$AAo@ 000000018002af68     libucrt:lcidtoname_downlevel.obj
 0002:00005f70       ??_C@_15FEDGKCDI@?$AAr?$AAu@ 000000018002af70     libucrt:lcidtoname_downlevel.obj
 0002:00005f78       ??_C@_15GLKMLLHM@?$AAh?$AAr@ 000000018002af78     libucrt:lcidtoname_downlevel.obj
 0002:00005f80       ??_C@_15CPKMFBDB@?$AAs?$AAk@ 000000018002af80     libucrt:lcidtoname_downlevel.obj
 0002:00005f88       ??_C@_15BAAIOGMK@?$AAs?$AAq@ 000000018002af88     libucrt:lcidtoname_downlevel.obj
 0002:00005f90       ??_C@_15INNPNOHD@?$AAs?$AAv@ 000000018002af90     libucrt:lcidtoname_downlevel.obj
 0002:00005f98       ??_C@_15CABMMOGH@?$AAt?$AAh@ 000000018002af98     libucrt:lcidtoname_downlevel.obj
 0002:00005fa0       ??_C@_15BPLIHJJM@?$AAt?$AAr@ 000000018002afa0     libucrt:lcidtoname_downlevel.obj
 0002:00005fa8       ??_C@_15NEOEKKDJ@?$AAu?$AAr@ 000000018002afa8     libucrt:lcidtoname_downlevel.obj
 0002:00005fb0       ??_C@_15NFICGAJK@?$AAi?$AAd@ 000000018002afb0     libucrt:lcidtoname_downlevel.obj
 0002:00005fb8       ??_C@_15HPJPHDM@?$AAb?$AAe@ 000000018002afb8     libucrt:lcidtoname_downlevel.obj
 0002:00005fc0       ??_C@_15LCHLGJII@?$AAs?$AAl@ 000000018002afc0     libucrt:lcidtoname_downlevel.obj
 0002:00005fc8       ??_C@_15PCFJPHHO@?$AAe?$AAt@ 000000018002afc8     libucrt:lcidtoname_downlevel.obj
 0002:00005fd0       ??_C@_15HPFPGODN@?$AAl?$AAv@ 000000018002afd0     libucrt:lcidtoname_downlevel.obj
 0002:00005fd8       ??_C@_15NFFGKGLG@?$AAl?$AAt@ 000000018002afd8     libucrt:lcidtoname_downlevel.obj
 0002:00005fe0       ??_C@_15BDAKCCHN@?$AAf?$AAa@ 000000018002afe0     libucrt:lcidtoname_downlevel.obj
 0002:00005fe8       ??_C@_15NFGIAIAJ@?$AAv?$AAi@ 000000018002afe8     libucrt:lcidtoname_downlevel.obj
 0002:00005ff0       ??_C@_15LMKNDMHN@?$AAh?$AAy@ 000000018002aff0     libucrt:lcidtoname_downlevel.obj
 0002:00005ff8       ??_C@_15IJBHMCFL@?$AAa?$AAz@ 000000018002aff8     libucrt:lcidtoname_downlevel.obj
 0002:00006000       ??_C@_15EKOFJABL@?$AAe?$AAu@ 000000018002b000     libucrt:lcidtoname_downlevel.obj
 0002:00006008       ??_C@_15BGHADCNK@?$AAm?$AAk@ 000000018002b008     libucrt:lcidtoname_downlevel.obj
 0002:00006010       ??_C@_15JDNICKHM@?$AAa?$AAf@ 000000018002b010     libucrt:lcidtoname_downlevel.obj
 0002:00006018       ??_C@_15KPJEDBKD@?$AAk?$AAa@ 000000018002b018     libucrt:lcidtoname_downlevel.obj
 0002:00006020       ??_C@_15PDNFFFEO@?$AAf?$AAo@ 000000018002b020     libucrt:lcidtoname_downlevel.obj
 0002:00006028       ??_C@_15OMLEGLOC@?$AAh?$AAi@ 000000018002b028     libucrt:lcidtoname_downlevel.obj
 0002:00006030       ??_C@_15IDNNENKK@?$AAm?$AAs@ 000000018002b030     libucrt:lcidtoname_downlevel.obj
 0002:00006038       ??_C@_15MACJNBMH@?$AAk?$AAk@ 000000018002b038     libucrt:lcidtoname_downlevel.obj
 0002:00006040       ??_C@_15DKDJEOND@?$AAk?$AAy@ 000000018002b040     libucrt:lcidtoname_downlevel.obj
 0002:00006048       ??_C@_15DFGDLJBG@?$AAs?$AAw@ 000000018002b048     libucrt:lcidtoname_downlevel.obj
 0002:00006050       ??_C@_15BBFAICNG@?$AAu?$AAz@ 000000018002b050     libucrt:lcidtoname_downlevel.obj
 0002:00006058       ??_C@_15DKNDCGEA@?$AAt?$AAt@ 000000018002b058     libucrt:lcidtoname_downlevel.obj
 0002:00006060       ??_C@_15MGIFMDPL@?$AAp?$AAa@ 000000018002b060     libucrt:lcidtoname_downlevel.obj
 0002:00006068       ??_C@_15HCNDBBA@?$AAg?$AAu@ 000000018002b068     libucrt:lcidtoname_downlevel.obj
 0002:00006070       ??_C@_15FNBEIBON@?$AAt?$AAa@ 000000018002b070     libucrt:lcidtoname_downlevel.obj
 0002:00006078       ??_C@_15NCHGBGLK@?$AAt?$AAe@ 000000018002b078     libucrt:lcidtoname_downlevel.obj
 0002:00006080       ??_C@_15PHPHCBPF@?$AAk?$AAn@ 000000018002b080     libucrt:lcidtoname_downlevel.obj
 0002:00006088       ??_C@_15DLGBCKMP@?$AAm?$AAr@ 000000018002b088     libucrt:lcidtoname_downlevel.obj
 0002:00006090       ??_C@_15EABBLBFF@?$AAs?$AAa@ 000000018002b090     libucrt:lcidtoname_downlevel.obj
 0002:00006098       ??_C@_15CBKOMCOI@?$AAm?$AAn@ 000000018002b098     libucrt:lcidtoname_downlevel.obj
 0002:000060a0       ??_C@_15CKDMCJAF@?$AAg?$AAl@ 000000018002b0a0     libucrt:lcidtoname_downlevel.obj
 0002:000060a8       ??_C@_17CNJFBPG@?$AAk?$AAo?$AAk@ 000000018002b0a8     libucrt:lcidtoname_downlevel.obj
 0002:000060b0       ??_C@_17FFBJICPL@?$AAs?$AAy?$AAr@ 000000018002b0b0     libucrt:lcidtoname_downlevel.obj
 0002:000060b8       ??_C@_17KPNDCPAF@?$AAd?$AAi?$AAv@ 000000018002b0b8     libucrt:lcidtoname_downlevel.obj
 0002:000060c0       ??_C@_1M@OKAHONE@?$AAa?$AAr?$AA?9?$AAS?$AAA@ 000000018002b0c0     libucrt:lcidtoname_downlevel.obj
 0002:000060d0       ??_C@_1M@FFFIGIGK@?$AAb?$AAg?$AA?9?$AAB?$AAG@ 000000018002b0d0     libucrt:lcidtoname_downlevel.obj
 0002:000060e0       ??_C@_1M@BJNKEDC@?$AAc?$AAa?$AA?9?$AAE?$AAS@ 000000018002b0e0     libucrt:lcidtoname_downlevel.obj
 0002:000060f0       ??_C@_1M@IJJHFJHA@?$AAc?$AAs?$AA?9?$AAC?$AAZ@ 000000018002b0f0     libucrt:lcidtoname_downlevel.obj
 0002:00006100       ??_C@_1M@CLPEOBGI@?$AAd?$AAa?$AA?9?$AAD?$AAK@ 000000018002b100     libucrt:lcidtoname_downlevel.obj
 0002:00006110       ??_C@_1M@MCMADGCB@?$AAd?$AAe?$AA?9?$AAD?$AAE@ 000000018002b110     libucrt:lcidtoname_downlevel.obj
 0002:00006120       ??_C@_1M@OOCKEMAM@?$AAe?$AAl?$AA?9?$AAG?$AAR@ 000000018002b120     libucrt:lcidtoname_downlevel.obj
 0002:00006130       ??_C@_1M@DDNJFGID@?$AAf?$AAi?$AA?9?$AAF?$AAI@ 000000018002b130     libucrt:lcidtoname_downlevel.obj
 0002:00006140       ??_C@_1M@GLIPPMAC@?$AAf?$AAr?$AA?9?$AAF?$AAR@ 000000018002b140     libucrt:lcidtoname_downlevel.obj
 0002:00006150       ??_C@_1M@GFMCHPE@?$AAh?$AAe?$AA?9?$AAI?$AAL@ 000000018002b150     libucrt:lcidtoname_downlevel.obj
 0002:00006160       ??_C@_1M@MHLPGNKM@?$AAh?$AAu?$AA?9?$AAH?$AAU@ 000000018002b160     libucrt:lcidtoname_downlevel.obj
 0002:00006170       ??_C@_1M@LPDDNNPN@?$AAi?$AAs?$AA?9?$AAI?$AAS@ 000000018002b170     libucrt:lcidtoname_downlevel.obj
 0002:00006180       ??_C@_1M@MADIPODN@?$AAi?$AAt?$AA?9?$AAI?$AAT@ 000000018002b180     libucrt:lcidtoname_downlevel.obj
 0002:00006190       ??_C@_1M@IHBJJGG@?$AAn?$AAl?$AA?9?$AAN?$AAL@ 000000018002b190     libucrt:lcidtoname_downlevel.obj
 0002:000061a0       ??_C@_1M@EANAGDL@?$AAn?$AAb?$AA?9?$AAN?$AAO@ 000000018002b1a0     libucrt:lcidtoname_downlevel.obj
 0002:000061b0       ??_C@_1M@NEIEMEGP@?$AAp?$AAl?$AA?9?$AAP?$AAL@ 000000018002b1b0     libucrt:lcidtoname_downlevel.obj
 0002:000061c0       ??_C@_1M@BOCFIGEP@?$AAp?$AAt?$AA?9?$AAB?$AAR@ 000000018002b1c0     libucrt:lcidtoname_downlevel.obj
 0002:000061d0       ??_C@_1M@IMPFOPBG@?$AAr?$AAo?$AA?9?$AAR?$AAO@ 000000018002b1d0     libucrt:lcidtoname_downlevel.obj
 0002:000061e0       ??_C@_1M@IDNNEJMM@?$AAr?$AAu?$AA?9?$AAR?$AAU@ 000000018002b1e0     libucrt:lcidtoname_downlevel.obj
 0002:000061f0       ??_C@_1M@LILEEOGM@?$AAh?$AAr?$AA?9?$AAH?$AAR@ 000000018002b1f0     libucrt:lcidtoname_downlevel.obj
 0002:00006200       ??_C@_1M@FKIFEHPB@?$AAs?$AAk?$AA?9?$AAS?$AAK@ 000000018002b200     libucrt:lcidtoname_downlevel.obj
 0002:00006210       ??_C@_1M@LJMAMNPJ@?$AAs?$AAq?$AA?9?$AAA?$AAL@ 000000018002b210     libucrt:lcidtoname_downlevel.obj
 0002:00006220       ??_C@_1M@GIAKDKJK@?$AAs?$AAv?$AA?9?$AAS?$AAE@ 000000018002b220     libucrt:lcidtoname_downlevel.obj
 0002:00006230       ??_C@_1M@MKJKIKCL@?$AAt?$AAh?$AA?9?$AAT?$AAH@ 000000018002b230     libucrt:lcidtoname_downlevel.obj
 0002:00006240       ??_C@_1M@MFLCCMPB@?$AAt?$AAr?$AA?9?$AAT?$AAR@ 000000018002b240     libucrt:lcidtoname_downlevel.obj
 0002:00006250       ??_C@_1M@OIJHDKJN@?$AAu?$AAr?$AA?9?$AAP?$AAK@ 000000018002b250     libucrt:lcidtoname_downlevel.obj
 0002:00006260       ??_C@_1M@LHIPCIEK@?$AAi?$AAd?$AA?9?$AAI?$AAD@ 000000018002b260     libucrt:lcidtoname_downlevel.obj
 0002:00006270       ??_C@_1M@MFMOBGI@?$AAu?$AAk?$AA?9?$AAU?$AAA@ 000000018002b270     libucrt:lcidtoname_downlevel.obj
 0002:00006280       ??_C@_1M@OBGLJIPL@?$AAb?$AAe?$AA?9?$AAB?$AAY@ 000000018002b280     libucrt:lcidtoname_downlevel.obj
 0002:00006290       ??_C@_1M@BCFAJEAD@?$AAs?$AAl?$AA?9?$AAS?$AAI@ 000000018002b290     libucrt:lcidtoname_downlevel.obj
 0002:000062a0       ??_C@_1M@FKFFEDDN@?$AAe?$AAt?$AA?9?$AAE?$AAE@ 000000018002b2a0     libucrt:lcidtoname_downlevel.obj
 0002:000062b0       ??_C@_1M@KGKKAACI@?$AAl?$AAv?$AA?9?$AAL?$AAV@ 000000018002b2b0     libucrt:lcidtoname_downlevel.obj
 0002:000062c0       ??_C@_1M@IFGBIJO@?$AAl?$AAt?$AA?9?$AAL?$AAT@ 000000018002b2c0     libucrt:lcidtoname_downlevel.obj
 0002:000062d0       ??_C@_1M@FGEAHEDM@?$AAf?$AAa?$AA?9?$AAI?$AAR@ 000000018002b2d0     libucrt:lcidtoname_downlevel.obj
 0002:000062e0       ??_C@_1M@KBMAIBFN@?$AAv?$AAi?$AA?9?$AAV?$AAN@ 000000018002b2e0     libucrt:lcidtoname_downlevel.obj
 0002:000062f0       ??_C@_1M@GPCBKDJK@?$AAh?$AAy?$AA?9?$AAA?$AAM@ 000000018002b2f0     libucrt:lcidtoname_downlevel.obj
 0002:00006300       ??_C@_1BG@BECMDDJB@?$AAa?$AAz?$AA?9?$AAA?$AAZ?$AA?9?$AAL?$AAa?$AAt?$AAn@ 000000018002b300     libucrt:lcidtoname_downlevel.obj
 0002:00006318       ??_C@_1M@MAOFCAEA@?$AAe?$AAu?$AA?9?$AAE?$AAS@ 000000018002b318     libucrt:lcidtoname_downlevel.obj
 0002:00006328       ??_C@_1M@IGHABKPI@?$AAm?$AAk?$AA?9?$AAM?$AAK@ 000000018002b328     libucrt:lcidtoname_downlevel.obj
 0002:00006338       ??_C@_1M@IAIGNEJG@?$AAt?$AAn?$AA?9?$AAZ?$AAA@ 000000018002b338     libucrt:lcidtoname_downlevel.obj
 0002:00006348       ??_C@_1M@IIJCOJFA@?$AAx?$AAh?$AA?9?$AAZ?$AAA@ 000000018002b348     libucrt:lcidtoname_downlevel.obj
 0002:00006358       ??_C@_1M@LGPJHNJH@?$AAz?$AAu?$AA?9?$AAZ?$AAA@ 000000018002b358     libucrt:lcidtoname_downlevel.obj
 0002:00006368       ??_C@_1M@HOKAOIO@?$AAa?$AAf?$AA?9?$AAZ?$AAA@ 000000018002b368     libucrt:lcidtoname_downlevel.obj
 0002:00006378       ??_C@_1M@DPCLHLIE@?$AAk?$AAa?$AA?9?$AAG?$AAE@ 000000018002b378     libucrt:lcidtoname_downlevel.obj
 0002:00006388       ??_C@_1M@BLKMHJBI@?$AAf?$AAo?$AA?9?$AAF?$AAO@ 000000018002b388     libucrt:lcidtoname_downlevel.obj
 0002:00006398       ??_C@_1M@LGGJAPPB@?$AAh?$AAi?$AA?9?$AAI?$AAN@ 000000018002b398     libucrt:lcidtoname_downlevel.obj
 0002:000063a8       ??_C@_1M@FIKPIHFE@?$AAm?$AAt?$AA?9?$AAM?$AAT@ 000000018002b3a8     libucrt:lcidtoname_downlevel.obj
 0002:000063b8       ??_C@_1M@HEGGPBFA@?$AAs?$AAe?$AA?9?$AAN?$AAO@ 000000018002b3b8     libucrt:lcidtoname_downlevel.obj
 0002:000063c8       ??_C@_1M@EIBJEEPA@?$AAm?$AAs?$AA?9?$AAM?$AAY@ 000000018002b3c8     libucrt:lcidtoname_downlevel.obj
 0002:000063d8       ??_C@_1M@FHLBGMPP@?$AAk?$AAk?$AA?9?$AAK?$AAZ@ 000000018002b3d8     libucrt:lcidtoname_downlevel.obj
 0002:000063e8       ??_C@_1M@NGJJLCGI@?$AAk?$AAy?$AA?9?$AAK?$AAG@ 000000018002b3e8     libucrt:lcidtoname_downlevel.obj
 0002:000063f8       ??_C@_1M@GIENNBFC@?$AAs?$AAw?$AA?9?$AAK?$AAE@ 000000018002b3f8     libucrt:lcidtoname_downlevel.obj
 0002:00006408       ??_C@_1BG@NDGMJIMJ@?$AAu?$AAz?$AA?9?$AAU?$AAZ?$AA?9?$AAL?$AAa?$AAt?$AAn@ 000000018002b408     libucrt:lcidtoname_downlevel.obj
 0002:00006420       ??_C@_1M@IDCCIHBC@?$AAt?$AAt?$AA?9?$AAR?$AAU@ 000000018002b420     libucrt:lcidtoname_downlevel.obj
 0002:00006430       ??_C@_1M@LOICPMOJ@?$AAb?$AAn?$AA?9?$AAI?$AAN@ 000000018002b430     libucrt:lcidtoname_downlevel.obj
 0002:00006440       ??_C@_1M@KPKKNEAH@?$AAp?$AAa?$AA?9?$AAI?$AAN@ 000000018002b440     libucrt:lcidtoname_downlevel.obj
 0002:00006450       ??_C@_1M@PJGPPBOG@?$AAg?$AAu?$AA?9?$AAI?$AAN@ 000000018002b450     libucrt:lcidtoname_downlevel.obj
 0002:00006460       ??_C@_1M@KMKMOPHI@?$AAt?$AAa?$AA?9?$AAI?$AAN@ 000000018002b460     libucrt:lcidtoname_downlevel.obj
 0002:00006470       ??_C@_1M@KFEHEPAC@?$AAt?$AAe?$AA?9?$AAI?$AAN@ 000000018002b470     libucrt:lcidtoname_downlevel.obj
 0002:00006480       ??_C@_1M@CDCLMGHI@?$AAk?$AAn?$AA?9?$AAI?$AAN@ 000000018002b480     libucrt:lcidtoname_downlevel.obj
 0002:00006490       ??_C@_1M@MIODLDKF@?$AAm?$AAl?$AA?9?$AAI?$AAN@ 000000018002b490     libucrt:lcidtoname_downlevel.obj
 0002:000064a0       ??_C@_1M@PBIEACPO@?$AAm?$AAr?$AA?9?$AAI?$AAN@ 000000018002b4a0     libucrt:lcidtoname_downlevel.obj
 0002:000064b0       ??_C@_1M@NIDEAGPH@?$AAs?$AAa?$AA?9?$AAI?$AAN@ 000000018002b4b0     libucrt:lcidtoname_downlevel.obj
 0002:000064c0       ??_C@_1M@FHIHCBIO@?$AAm?$AAn?$AA?9?$AAM?$AAN@ 000000018002b4c0     libucrt:lcidtoname_downlevel.obj
 0002:000064d0       ??_C@_1M@JAIJPENP@?$AAc?$AAy?$AA?9?$AAG?$AAB@ 000000018002b4d0     libucrt:lcidtoname_downlevel.obj
 0002:000064e0       ??_C@_1M@PHGFBEPN@?$AAg?$AAl?$AA?9?$AAE?$AAS@ 000000018002b4e0     libucrt:lcidtoname_downlevel.obj
 0002:000064f0       ??_C@_1O@KPIPDNCP@?$AAk?$AAo?$AAk?$AA?9?$AAI?$AAN@ 000000018002b4f0     libucrt:lcidtoname_downlevel.obj
 0002:00006500       ??_C@_1O@KNHJLDJA@?$AAs?$AAy?$AAr?$AA?9?$AAS?$AAY@ 000000018002b500     libucrt:lcidtoname_downlevel.obj
 0002:00006510       ??_C@_1O@MKEKBLAH@?$AAd?$AAi?$AAv?$AA?9?$AAM?$AAV@ 000000018002b510     libucrt:lcidtoname_downlevel.obj
 0002:00006520       ??_C@_1O@OHDCKDDF@?$AAq?$AAu?$AAz?$AA?9?$AAB?$AAO@ 000000018002b520     libucrt:lcidtoname_downlevel.obj
 0002:00006530       ??_C@_1M@LEPJNLFD@?$AAn?$AAs?$AA?9?$AAZ?$AAA@ 000000018002b530     libucrt:lcidtoname_downlevel.obj
 0002:00006540       ??_C@_1M@OMLEIIJB@?$AAm?$AAi?$AA?9?$AAN?$AAZ@ 000000018002b540     libucrt:lcidtoname_downlevel.obj
 0002:00006550       ??_C@_1M@PMPEAILG@?$AAa?$AAr?$AA?9?$AAI?$AAQ@ 000000018002b550     libucrt:lcidtoname_downlevel.obj
 0002:00006560       ??_C@_1M@CNKPNOEE@?$AAd?$AAe?$AA?9?$AAC?$AAH@ 000000018002b560     libucrt:lcidtoname_downlevel.obj
 0002:00006570       ??_C@_1M@LKMGMLKO@?$AAe?$AAn?$AA?9?$AAG?$AAB@ 000000018002b570     libucrt:lcidtoname_downlevel.obj
 0002:00006580       ??_C@_1M@PGKJFFGL@?$AAe?$AAs?$AA?9?$AAM?$AAX@ 000000018002b580     libucrt:lcidtoname_downlevel.obj
 0002:00006590       ??_C@_1M@DNNANBDC@?$AAf?$AAr?$AA?9?$AAB?$AAE@ 000000018002b590     libucrt:lcidtoname_downlevel.obj
 0002:000065a0       ??_C@_1M@HLGMDFHM@?$AAi?$AAt?$AA?9?$AAC?$AAH@ 000000018002b5a0     libucrt:lcidtoname_downlevel.obj
 0002:000065b0       ??_C@_1M@CLLBGJH@?$AAn?$AAl?$AA?9?$AAB?$AAE@ 000000018002b5b0     libucrt:lcidtoname_downlevel.obj
 0002:000065c0       ??_C@_1M@BODBOGLF@?$AAn?$AAn?$AA?9?$AAN?$AAO@ 000000018002b5c0     libucrt:lcidtoname_downlevel.obj
 0002:000065d0       ??_C@_1M@HFFAHKAD@?$AAp?$AAt?$AA?9?$AAP?$AAT@ 000000018002b5d0     libucrt:lcidtoname_downlevel.obj
 0002:000065e0       ??_C@_1BG@LNOAKHIE@?$AAs?$AAr?$AA?9?$AAS?$AAP?$AA?9?$AAL?$AAa?$AAt?$AAn@ 000000018002b5e0     libucrt:lcidtoname_downlevel.obj
 0002:000065f8       ??_C@_1M@HBMHBGAK@?$AAs?$AAv?$AA?9?$AAF?$AAI@ 000000018002b5f8     libucrt:lcidtoname_downlevel.obj
 0002:00006608       ??_C@_1BG@DGCJGJBE@?$AAa?$AAz?$AA?9?$AAA?$AAZ?$AA?9?$AAC?$AAy?$AAr?$AAl@ 000000018002b608     libucrt:lcidtoname_downlevel.obj
 0002:00006620       ??_C@_1M@KEJDAAHB@?$AAs?$AAe?$AA?9?$AAS?$AAE@ 000000018002b620     libucrt:lcidtoname_downlevel.obj
 0002:00006630       ??_C@_1M@HEIBJJAD@?$AAm?$AAs?$AA?9?$AAB?$AAN@ 000000018002b630     libucrt:lcidtoname_downlevel.obj
 0002:00006640       ??_C@_1BG@PBGJMCEM@?$AAu?$AAz?$AA?9?$AAU?$AAZ?$AA?9?$AAC?$AAy?$AAr?$AAl@ 000000018002b640     libucrt:lcidtoname_downlevel.obj
 0002:00006658       ??_C@_1O@LAOBCMDF@?$AAq?$AAu?$AAz?$AA?9?$AAE?$AAC@ 000000018002b658     libucrt:lcidtoname_downlevel.obj
 0002:00006668       ??_C@_1M@POEEMAIO@?$AAa?$AAr?$AA?9?$AAE?$AAG@ 000000018002b668     libucrt:lcidtoname_downlevel.obj
 0002:00006678       ??_C@_1M@EFAKDEDL@?$AAz?$AAh?$AA?9?$AAH?$AAK@ 000000018002b678     libucrt:lcidtoname_downlevel.obj
 0002:00006688       ??_C@_1M@HKKIJHGI@?$AAd?$AAe?$AA?9?$AAA?$AAT@ 000000018002b688     libucrt:lcidtoname_downlevel.obj
 0002:00006698       ??_C@_1M@KBFBEHJF@?$AAe?$AAn?$AA?9?$AAA?$AAU@ 000000018002b698     libucrt:lcidtoname_downlevel.obj
 0002:000066a8       ??_C@_1M@MNPLFAAH@?$AAe?$AAs?$AA?9?$AAE?$AAS@ 000000018002b6a8     libucrt:lcidtoname_downlevel.obj
 0002:000066b8       ??_C@_1M@HJOOJFMA@?$AAf?$AAr?$AA?9?$AAC?$AAA@ 000000018002b6b8     libucrt:lcidtoname_downlevel.obj
 0002:000066c8       ??_C@_1BG@JPOFPNAB@?$AAs?$AAr?$AA?9?$AAS?$AAP?$AA?9?$AAC?$AAy?$AAr?$AAl@ 000000018002b6c8     libucrt:lcidtoname_downlevel.obj
 0002:000066e0       ??_C@_1M@LNFOCMOB@?$AAs?$AAe?$AA?9?$AAF?$AAI@ 000000018002b6e0     libucrt:lcidtoname_downlevel.obj
 0002:000066f0       ??_C@_1O@MGJBOAMB@?$AAq?$AAu?$AAz?$AA?9?$AAP?$AAE@ 000000018002b6f0     libucrt:lcidtoname_downlevel.obj
 0002:00006700       ??_C@_1M@GJINLBOK@?$AAa?$AAr?$AA?9?$AAL?$AAY@ 000000018002b700     libucrt:lcidtoname_downlevel.obj
 0002:00006710       ??_C@_1M@GGMNHJNL@?$AAz?$AAh?$AA?9?$AAS?$AAG@ 000000018002b710     libucrt:lcidtoname_downlevel.obj
 0002:00006720       ??_C@_1M@HOIKODND@?$AAd?$AAe?$AA?9?$AAL?$AAU@ 000000018002b720     libucrt:lcidtoname_downlevel.obj
 0002:00006730       ??_C@_1M@DDOCCGFG@?$AAe?$AAn?$AA?9?$AAC?$AAA@ 000000018002b730     libucrt:lcidtoname_downlevel.obj
 0002:00006740       ??_C@_1M@BNOEMJLF@?$AAe?$AAs?$AA?9?$AAG?$AAT@ 000000018002b740     libucrt:lcidtoname_downlevel.obj
 0002:00006750       ??_C@_1M@EOGNKEK@?$AAf?$AAr?$AA?9?$AAC?$AAH@ 000000018002b750     libucrt:lcidtoname_downlevel.obj
 0002:00006760       ??_C@_1M@FLIDJFHL@?$AAh?$AAr?$AA?9?$AAB?$AAA@ 000000018002b760     libucrt:lcidtoname_downlevel.obj
 0002:00006770       ??_C@_1O@FMCELNAJ@?$AAs?$AAm?$AAj?$AA?9?$AAN?$AAO@ 000000018002b770     libucrt:lcidtoname_downlevel.obj
 0002:00006780       ??_C@_1M@JHGLJMGJ@?$AAa?$AAr?$AA?9?$AAD?$AAZ@ 000000018002b780     libucrt:lcidtoname_downlevel.obj
 0002:00006790       ??_C@_1M@JKKFDCNP@?$AAz?$AAh?$AA?9?$AAM?$AAO@ 000000018002b790     libucrt:lcidtoname_downlevel.obj
 0002:000067a0       ??_C@_1M@GEEFALPE@?$AAd?$AAe?$AA?9?$AAL?$AAI@ 000000018002b7a0     libucrt:lcidtoname_downlevel.obj
 0002:000067b0       ??_C@_1M@IGEOFBG@?$AAe?$AAn?$AA?9?$AAN?$AAZ@ 000000018002b7b0     libucrt:lcidtoname_downlevel.obj
 0002:000067c0       ??_C@_1M@KDBONEHP@?$AAe?$AAs?$AA?9?$AAC?$AAR@ 000000018002b7c0     libucrt:lcidtoname_downlevel.obj
 0002:000067d0       ??_C@_1M@FHMDOHNN@?$AAf?$AAr?$AA?9?$AAL?$AAU@ 000000018002b7d0     libucrt:lcidtoname_downlevel.obj
 0002:000067e0       ??_C@_1BG@NFKKMAFG@?$AAb?$AAs?$AA?9?$AAB?$AAA?$AA?9?$AAL?$AAa?$AAt?$AAn@ 000000018002b7e0     libucrt:lcidtoname_downlevel.obj
 0002:000067f8       ??_C@_1O@IMNBEMCI@?$AAs?$AAm?$AAj?$AA?9?$AAS?$AAE@ 000000018002b7f8     libucrt:lcidtoname_downlevel.obj
 0002:00006808       ??_C@_1M@DHHMBNDP@?$AAa?$AAr?$AA?9?$AAM?$AAA@ 000000018002b808     libucrt:lcidtoname_downlevel.obj
 0002:00006818       ??_C@_1M@BNBLJCGH@?$AAe?$AAn?$AA?9?$AAI?$AAE@ 000000018002b818     libucrt:lcidtoname_downlevel.obj
 0002:00006828       ??_C@_1M@GEPAFMDL@?$AAe?$AAs?$AA?9?$AAP?$AAA@ 000000018002b828     libucrt:lcidtoname_downlevel.obj
 0002:00006838       ??_C@_1M@OJONDMDL@?$AAf?$AAr?$AA?9?$AAM?$AAC@ 000000018002b838     libucrt:lcidtoname_downlevel.obj
 0002:00006848       ??_C@_1BG@OBCNFJB@?$AAs?$AAr?$AA?9?$AAB?$AAA?$AA?9?$AAL?$AAa?$AAt?$AAn@ 000000018002b848     libucrt:lcidtoname_downlevel.obj
 0002:00006860       ??_C@_1O@KEMEEGPO@?$AAs?$AAm?$AAa?$AA?9?$AAN?$AAO@ 000000018002b860     libucrt:lcidtoname_downlevel.obj
 0002:00006870       ??_C@_1M@ELMGFODK@?$AAa?$AAr?$AA?9?$AAT?$AAN@ 000000018002b870     libucrt:lcidtoname_downlevel.obj
 0002:00006880       ??_C@_1M@BHDLHFAF@?$AAe?$AAn?$AA?9?$AAZ?$AAA@ 000000018002b880     libucrt:lcidtoname_downlevel.obj
 0002:00006890       ??_C@_1M@BMGIGLIF@?$AAe?$AAs?$AA?9?$AAD?$AAO@ 000000018002b890     libucrt:lcidtoname_downlevel.obj
 0002:000068a0       ??_C@_1BG@CMBHIPBE@?$AAs?$AAr?$AA?9?$AAB?$AAA?$AA?9?$AAC?$AAy?$AAr?$AAl@ 000000018002b8a0     libucrt:lcidtoname_downlevel.obj
 0002:000068b8       ??_C@_1O@HEDBLHNP@?$AAs?$AAm?$AAa?$AA?9?$AAS?$AAE@ 000000018002b8b8     libucrt:lcidtoname_downlevel.obj
 0002:000068c8       ??_C@_1M@DAGCADIM@?$AAa?$AAr?$AA?9?$AAO?$AAM@ 000000018002b8c8     libucrt:lcidtoname_downlevel.obj
 0002:000068d8       ??_C@_1M@FODLMICG@?$AAe?$AAn?$AA?9?$AAJ?$AAM@ 000000018002b8d8     libucrt:lcidtoname_downlevel.obj
 0002:000068e8       ??_C@_1M@DNMLCIHB@?$AAe?$AAs?$AA?9?$AAV?$AAE@ 000000018002b8e8     libucrt:lcidtoname_downlevel.obj
 0002:000068f8       ??_C@_1O@EOKHMKJK@?$AAs?$AAm?$AAs?$AA?9?$AAF?$AAI@ 000000018002b8f8     libucrt:lcidtoname_downlevel.obj
 0002:00006908       ??_C@_1M@CAFJMKOF@?$AAa?$AAr?$AA?9?$AAY?$AAE@ 000000018002b908     libucrt:lcidtoname_downlevel.obj
 0002:00006918       ??_C@_1M@CBFHIJLI@?$AAe?$AAn?$AA?9?$AAC?$AAB@ 000000018002b918     libucrt:lcidtoname_downlevel.obj
 0002:00006928       ??_C@_1M@BGNFLDN@?$AAe?$AAs?$AA?9?$AAC?$AAO@ 000000018002b928     libucrt:lcidtoname_downlevel.obj
 0002:00006938       ??_C@_1O@JMPHMAMC@?$AAs?$AAm?$AAn?$AA?9?$AAF?$AAI@ 000000018002b938     libucrt:lcidtoname_downlevel.obj
 0002:00006948       ??_C@_1M@JLANABKE@?$AAa?$AAr?$AA?9?$AAS?$AAY@ 000000018002b948     libucrt:lcidtoname_downlevel.obj
 0002:00006958       ??_C@_1M@HPKGCFGN@?$AAe?$AAn?$AA?9?$AAB?$AAZ@ 000000018002b958     libucrt:lcidtoname_downlevel.obj
 0002:00006968       ??_C@_1M@OLJCMLGM@?$AAe?$AAs?$AA?9?$AAP?$AAE@ 000000018002b968     libucrt:lcidtoname_downlevel.obj
 0002:00006978       ??_C@_1M@MKKGFKLE@?$AAa?$AAr?$AA?9?$AAJ?$AAO@ 000000018002b978     libucrt:lcidtoname_downlevel.obj
 0002:00006988       ??_C@_1M@EKPGLDNI@?$AAe?$AAn?$AA?9?$AAT?$AAT@ 000000018002b988     libucrt:lcidtoname_downlevel.obj
 0002:00006998       ??_C@_1M@OONGHFHE@?$AAe?$AAs?$AA?9?$AAA?$AAR@ 000000018002b998     libucrt:lcidtoname_downlevel.obj
 0002:000069a8       ??_C@_1M@OOJFGBHE@?$AAa?$AAr?$AA?9?$AAL?$AAB@ 000000018002b9a8     libucrt:lcidtoname_downlevel.obj
 0002:000069b8       ??_C@_1M@GCEJHNEG@?$AAe?$AAn?$AA?9?$AAZ?$AAW@ 000000018002b9b8     libucrt:lcidtoname_downlevel.obj
 0002:000069c8       ??_C@_1M@JNOCAHJI@?$AAe?$AAs?$AA?9?$AAE?$AAC@ 000000018002b9c8     libucrt:lcidtoname_downlevel.obj
 0002:000069d8       ??_C@_1M@JEFHPGGB@?$AAa?$AAr?$AA?9?$AAK?$AAW@ 000000018002b9d8     libucrt:lcidtoname_downlevel.obj
 0002:000069e8       ??_C@_1M@MLKIBJOJ@?$AAe?$AAn?$AA?9?$AAP?$AAH@ 000000018002b9e8     libucrt:lcidtoname_downlevel.obj
 0002:000069f8       ??_C@_1M@BDNIPEND@?$AAe?$AAs?$AA?9?$AAC?$AAL@ 000000018002b9f8     libucrt:lcidtoname_downlevel.obj
 0002:00006a08       ??_C@_1M@MPNMEKBD@?$AAa?$AAr?$AA?9?$AAA?$AAE@ 000000018002ba08     libucrt:lcidtoname_downlevel.obj
 0002:00006a18       ??_C@_1M@KBJALCPI@?$AAe?$AAs?$AA?9?$AAU?$AAY@ 000000018002ba18     libucrt:lcidtoname_downlevel.obj
 0002:00006a28       ??_C@_1M@LLCCOAGA@?$AAa?$AAr?$AA?9?$AAB?$AAH@ 000000018002ba28     libucrt:lcidtoname_downlevel.obj
 0002:00006a38       ??_C@_1M@PBFNCDEL@?$AAe?$AAs?$AA?9?$AAP?$AAY@ 000000018002ba38     libucrt:lcidtoname_downlevel.obj
 0002:00006a48       ??_C@_1M@EDGINPNP@?$AAa?$AAr?$AA?9?$AAQ?$AAA@ 000000018002ba48     libucrt:lcidtoname_downlevel.obj
 0002:00006a58       ??_C@_1M@MKDBIIJI@?$AAe?$AAs?$AA?9?$AAB?$AAO@ 000000018002ba58     libucrt:lcidtoname_downlevel.obj
 0002:00006a68       ??_C@_1M@CPKKEBLD@?$AAe?$AAs?$AA?9?$AAS?$AAV@ 000000018002ba68     libucrt:lcidtoname_downlevel.obj
 0002:00006a78       ??_C@_1M@NDBGMMJL@?$AAe?$AAs?$AA?9?$AAH?$AAN@ 000000018002ba78     libucrt:lcidtoname_downlevel.obj
 0002:00006a88       ??_C@_1M@JIJIBHDP@?$AAe?$AAs?$AA?9?$AAN?$AAI@ 000000018002ba88     libucrt:lcidtoname_downlevel.obj
 0002:00006a98       ??_C@_1M@CGFMKEEK@?$AAe?$AAs?$AA?9?$AAP?$AAR@ 000000018002ba98     libucrt:lcidtoname_downlevel.obj
 0002:00006aa8       ??_C@_1O@ICJHKIIK@?$AAz?$AAh?$AA?9?$AAC?$AAH?$AAT@ 000000018002baa8     libucrt:lcidtoname_downlevel.obj
 0002:00006ab8       ??_C@_15CLNEJCE@?$AAs?$AAr@ 000000018002bab8     libucrt:lcidtoname_downlevel.obj
 0002:00007900       ??_C@_1M@KAHEKEIG@?$AAa?$AAf?$AA?9?$AAz?$AAa@ 000000018002c900     libucrt:lcidtoname_downlevel.obj
 0002:00007910       ??_C@_1M@GIECOABL@?$AAa?$AAr?$AA?9?$AAa?$AAe@ 000000018002c910     libucrt:lcidtoname_downlevel.obj
 0002:00007920       ??_C@_1M@BMLMEKGI@?$AAa?$AAr?$AA?9?$AAb?$AAh@ 000000018002c920     libucrt:lcidtoname_downlevel.obj
 0002:00007930       ??_C@_1M@DAPFDGGB@?$AAa?$AAr?$AA?9?$AAd?$AAz@ 000000018002c930     libucrt:lcidtoname_downlevel.obj
 0002:00007940       ??_C@_1M@FJNKGKIG@?$AAa?$AAr?$AA?9?$AAe?$AAg@ 000000018002c940     libucrt:lcidtoname_downlevel.obj
 0002:00007950       ??_C@_1M@FLGKKCLO@?$AAa?$AAr?$AA?9?$AAi?$AAq@ 000000018002c950     libucrt:lcidtoname_downlevel.obj
 0002:00007960       ??_C@_1M@GNDIPALM@?$AAa?$AAr?$AA?9?$AAj?$AAo@ 000000018002c960     libucrt:lcidtoname_downlevel.obj
 0002:00007970       ??_C@_1M@DDMJFMGJ@?$AAa?$AAr?$AA?9?$AAk?$AAw@ 000000018002c970     libucrt:lcidtoname_downlevel.obj
 0002:00007980       ??_C@_1M@EJALMLHM@?$AAa?$AAr?$AA?9?$AAl?$AAb@ 000000018002c980     libucrt:lcidtoname_downlevel.obj
 0002:00007990       ??_C@_1M@MOBDBLOC@?$AAa?$AAr?$AA?9?$AAl?$AAy@ 000000018002c990     libucrt:lcidtoname_downlevel.obj
 0002:000079a0       ??_C@_1M@JAOCLHDH@?$AAa?$AAr?$AA?9?$AAm?$AAa@ 000000018002c9a0     libucrt:lcidtoname_downlevel.obj
 0002:000079b0       ??_C@_1M@JHPMKJIE@?$AAa?$AAr?$AA?9?$AAo?$AAm@ 000000018002c9b0     libucrt:lcidtoname_downlevel.obj
 0002:000079c0       ??_C@_1M@OEPGHFNH@?$AAa?$AAr?$AA?9?$AAq?$AAa@ 000000018002c9c0     libucrt:lcidtoname_downlevel.obj
 0002:000079d0       ??_C@_1M@KJDONENM@?$AAa?$AAr?$AA?9?$AAs?$AAa@ 000000018002c9d0     libucrt:lcidtoname_downlevel.obj
 0002:000079e0       ??_C@_1M@DMJDKLKM@?$AAa?$AAr?$AA?9?$AAs?$AAy@ 000000018002c9e0     libucrt:lcidtoname_downlevel.obj
 0002:000079f0       ??_C@_1M@OMFIPEDC@?$AAa?$AAr?$AA?9?$AAt?$AAn@ 000000018002c9f0     libucrt:lcidtoname_downlevel.obj
 0002:00007a00       ??_C@_1M@IHMHGAON@?$AAa?$AAr?$AA?9?$AAy?$AAe@ 000000018002ca00     libucrt:lcidtoname_downlevel.obj
 0002:00007a10       ??_C@_1BG@KDCPGJGB@?$AAa?$AAz?$AA?9?$AAa?$AAz?$AA?9?$AAc?$AAy?$AAr?$AAl@ 000000018002ca10     libucrt:lcidtoname_downlevel.obj
 0002:00007a28       ??_C@_1BG@IBCKDDOE@?$AAa?$AAz?$AA?9?$AAa?$AAz?$AA?9?$AAl?$AAa?$AAt?$AAn@ 000000018002ca28     libucrt:lcidtoname_downlevel.obj
 0002:00007a40       ??_C@_1M@EGPFDCPD@?$AAb?$AAe?$AA?9?$AAb?$AAy@ 000000018002ca40     libucrt:lcidtoname_downlevel.obj
 0002:00007a50       ??_C@_1M@PCMGMCGC@?$AAb?$AAg?$AA?9?$AAb?$AAg@ 000000018002ca50     libucrt:lcidtoname_downlevel.obj
 0002:00007a60       ??_C@_1M@BJBMFGOB@?$AAb?$AAn?$AA?9?$AAi?$AAn@ 000000018002ca60     libucrt:lcidtoname_downlevel.obj
 0002:00007a70       ??_C@_1BG@EAKMMACD@?$AAb?$AAs?$AA?9?$AAb?$AAa?$AA?9?$AAl?$AAa?$AAt?$AAn@ 000000018002ca70     libucrt:lcidtoname_downlevel.obj
 0002:00007a88       ??_C@_1M@KGADAODK@?$AAc?$AAa?$AA?9?$AAe?$AAs@ 000000018002ca88     libucrt:lcidtoname_downlevel.obj
 0002:00007a98       ??_C@_1M@COAJPDHI@?$AAc?$AAs?$AA?9?$AAc?$AAz@ 000000018002ca98     libucrt:lcidtoname_downlevel.obj
 0002:00007aa8       ??_C@_1M@DHBHFONH@?$AAc?$AAy?$AA?9?$AAg?$AAb@ 000000018002caa8     libucrt:lcidtoname_downlevel.obj
 0002:00007ab8       ??_C@_1M@IMGKELGA@?$AAd?$AAa?$AA?9?$AAd?$AAk@ 000000018002cab8     libucrt:lcidtoname_downlevel.obj
 0002:00007ac8       ??_C@_1M@NNDGDNGA@?$AAd?$AAe?$AA?9?$AAa?$AAt@ 000000018002cac8     libucrt:lcidtoname_downlevel.obj
 0002:00007ad8       ??_C@_1M@IKDBHEEM@?$AAd?$AAe?$AA?9?$AAc?$AAh@ 000000018002cad8     libucrt:lcidtoname_downlevel.obj
 0002:00007ae8       ??_C@_1M@GFFOJMCJ@?$AAd?$AAe?$AA?9?$AAd?$AAe@ 000000018002cae8     libucrt:lcidtoname_downlevel.obj
 0002:00007af8       ??_C@_1M@MDNLKBPM@?$AAd?$AAe?$AA?9?$AAl?$AAi@ 000000018002caf8     libucrt:lcidtoname_downlevel.obj
 0002:00007b08       ??_C@_1M@NJBEEJNL@?$AAd?$AAe?$AA?9?$AAl?$AAu@ 000000018002cb08     libucrt:lcidtoname_downlevel.obj
 0002:00007b18       ??_C@_1O@GNNELBAP@?$AAd?$AAi?$AAv?$AA?9?$AAm?$AAv@ 000000018002cb18     libucrt:lcidtoname_downlevel.obj
 0002:00007b28       ??_C@_1M@EJLEOGAE@?$AAe?$AAl?$AA?9?$AAg?$AAr@ 000000018002cb28     libucrt:lcidtoname_downlevel.obj
 0002:00007b38       ??_C@_1M@GMPONJN@?$AAe?$AAn?$AA?9?$AAa?$AAu@ 000000018002cb38     libucrt:lcidtoname_downlevel.obj
 0002:00007b48       ??_C@_1M@NIDIIPGF@?$AAe?$AAn?$AA?9?$AAb?$AAz@ 000000018002cb48     libucrt:lcidtoname_downlevel.obj
 0002:00007b58       ??_C@_1M@JEHMIMFO@?$AAe?$AAn?$AA?9?$AAc?$AAa@ 000000018002cb58     libucrt:lcidtoname_downlevel.obj
 0002:00007b68       ??_C@_1M@IGMJCDLA@?$AAe?$AAn?$AA?9?$AAc?$AAb@ 000000018002cb68     libucrt:lcidtoname_downlevel.obj
 0002:00007b78       ??_C@_1M@BNFIGBKG@?$AAe?$AAn?$AA?9?$AAg?$AAb@ 000000018002cb78     libucrt:lcidtoname_downlevel.obj
 0002:00007b88       ??_C@_1M@LKIFDIGP@?$AAe?$AAn?$AA?9?$AAi?$AAe@ 000000018002cb88     libucrt:lcidtoname_downlevel.obj
 0002:00007b98       ??_C@_1M@PJKFGCCO@?$AAe?$AAn?$AA?9?$AAj?$AAm@ 000000018002cb98     libucrt:lcidtoname_downlevel.obj
 0002:00007ba8       ??_C@_1M@KPPKEPBO@?$AAe?$AAn?$AA?9?$AAn?$AAz@ 000000018002cba8     libucrt:lcidtoname_downlevel.obj
 0002:00007bb8       ??_C@_1M@GMDGLDOB@?$AAe?$AAn?$AA?9?$AAp?$AAh@ 000000018002cbb8     libucrt:lcidtoname_downlevel.obj
 0002:00007bc8       ??_C@_1M@ONGIBJNA@?$AAe?$AAn?$AA?9?$AAt?$AAt@ 000000018002cbc8     libucrt:lcidtoname_downlevel.obj
 0002:00007bd8       ??_C@_1M@LLODPCMM@?$AAe?$AAn?$AA?9?$AAu?$AAs@ 000000018002cbd8     libucrt:lcidtoname_downlevel.obj
 0002:00007be8       ??_C@_1M@LAKFNPAN@?$AAe?$AAn?$AA?9?$AAz?$AAa@ 000000018002cbe8     libucrt:lcidtoname_downlevel.obj
 0002:00007bf8       ??_C@_1M@MFNHNHEO@?$AAe?$AAn?$AA?9?$AAz?$AAw@ 000000018002cbf8     libucrt:lcidtoname_downlevel.obj
 0002:00007c08       ??_C@_1M@EJEINPHM@?$AAe?$AAs?$AA?9?$AAa?$AAr@ 000000018002cc08     libucrt:lcidtoname_downlevel.obj
 0002:00007c18       ??_C@_1M@GNKPCCJA@?$AAe?$AAs?$AA?9?$AAb?$AAo@ 000000018002cc18     libucrt:lcidtoname_downlevel.obj
 0002:00007c28       ??_C@_1M@LEEGFONL@?$AAe?$AAs?$AA?9?$AAc?$AAl@ 000000018002cc28     libucrt:lcidtoname_downlevel.obj
 0002:00007c38       ??_C@_1M@KGPDPBDF@?$AAe?$AAs?$AA?9?$AAc?$AAo@ 000000018002cc38     libucrt:lcidtoname_downlevel.obj
 0002:00007c48       ??_C@_1M@EIAHOHH@?$AAe?$AAs?$AA?9?$AAc?$AAr@ 000000018002cc48     libucrt:lcidtoname_downlevel.obj
 0002:00007c58       ??_C@_1M@LLPGMBIN@?$AAe?$AAs?$AA?9?$AAd?$AAo@ 000000018002cc58     libucrt:lcidtoname_downlevel.obj
 0002:00007c68       ??_C@_1M@DKHMKNJA@?$AAe?$AAs?$AA?9?$AAe?$AAc@ 000000018002cc68     libucrt:lcidtoname_downlevel.obj
 0002:00007c78       ??_C@_1M@GKGFPKAP@?$AAe?$AAs?$AA?9?$AAe?$AAs@ 000000018002cc78     libucrt:lcidtoname_downlevel.obj
 0002:00007c88       ??_C@_1M@LKHKGDLN@?$AAe?$AAs?$AA?9?$AAg?$AAt@ 000000018002cc88     libucrt:lcidtoname_downlevel.obj
 0002:00007c98       ??_C@_1M@HEIIGGJD@?$AAe?$AAs?$AA?9?$AAh?$AAn@ 000000018002cc98     libucrt:lcidtoname_downlevel.obj
 0002:00007ca8       ??_C@_1M@FBDHPPGD@?$AAe?$AAs?$AA?9?$AAm?$AAx@ 000000018002cca8     libucrt:lcidtoname_downlevel.obj
 0002:00007cb8       ??_C@_1M@DPAGLNDH@?$AAe?$AAs?$AA?9?$AAn?$AAi@ 000000018002ccb8     libucrt:lcidtoname_downlevel.obj
 0002:00007cc8       ??_C@_1M@MDGOPGDD@?$AAe?$AAs?$AA?9?$AAp?$AAa@ 000000018002ccc8     libucrt:lcidtoname_downlevel.obj
 0002:00007cd8       ??_C@_1M@EMAMGBGE@?$AAe?$AAs?$AA?9?$AAp?$AAe@ 000000018002ccd8     libucrt:lcidtoname_downlevel.obj
 0002:00007ce8       ??_C@_1M@IBMCAOEC@?$AAe?$AAs?$AA?9?$AAp?$AAr@ 000000018002cce8     libucrt:lcidtoname_downlevel.obj
 0002:00007cf8       ??_C@_1M@FGMDIJED@?$AAe?$AAs?$AA?9?$AAp?$AAy@ 000000018002ccf8     libucrt:lcidtoname_downlevel.obj
 0002:00007d08       ??_C@_1M@IIDEOLLL@?$AAe?$AAs?$AA?9?$AAs?$AAv@ 000000018002cd08     libucrt:lcidtoname_downlevel.obj
 0002:00007d18       ??_C@_1M@GAOBIPA@?$AAe?$AAs?$AA?9?$AAu?$AAy@ 000000018002cd18     libucrt:lcidtoname_downlevel.obj
 0002:00007d28       ??_C@_1M@JKFFICHJ@?$AAe?$AAs?$AA?9?$AAv?$AAe@ 000000018002cd28     libucrt:lcidtoname_downlevel.obj
 0002:00007d38       ??_C@_1M@PNMLOJDF@?$AAe?$AAt?$AA?9?$AAe?$AAe@ 000000018002cd38     libucrt:lcidtoname_downlevel.obj
 0002:00007d48       ??_C@_1M@GHHLIKEI@?$AAe?$AAu?$AA?9?$AAe?$AAs@ 000000018002cd48     libucrt:lcidtoname_downlevel.obj
 0002:00007d58       ??_C@_1M@PBNONODE@?$AAf?$AAa?$AA?9?$AAi?$AAr@ 000000018002cd58     libucrt:lcidtoname_downlevel.obj
 0002:00007d68       ??_C@_1M@JEEHPMIL@?$AAf?$AAi?$AA?9?$AAf?$AAi@ 000000018002cd68     libucrt:lcidtoname_downlevel.obj
 0002:00007d78       ??_C@_1M@LMDCNDBA@?$AAf?$AAo?$AA?9?$AAf?$AAo@ 000000018002cd78     libucrt:lcidtoname_downlevel.obj
 0002:00007d88       ??_C@_1M@JKEOHLDK@?$AAf?$AAr?$AA?9?$AAb?$AAe@ 000000018002cd88     libucrt:lcidtoname_downlevel.obj
 0002:00007d98       ??_C@_1M@NOHADPMI@?$AAf?$AAr?$AA?9?$AAc?$AAa@ 000000018002cd98     libucrt:lcidtoname_downlevel.obj
 0002:00007da8       ??_C@_1M@KDHIHAEC@?$AAf?$AAr?$AA?9?$AAc?$AAh@ 000000018002cda8     libucrt:lcidtoname_downlevel.obj
 0002:00007db8       ??_C@_1M@MMBBFGAK@?$AAf?$AAr?$AA?9?$AAf?$AAr@ 000000018002cdb8     libucrt:lcidtoname_downlevel.obj
 0002:00007dc8       ??_C@_1M@PAFNENNF@?$AAf?$AAr?$AA?9?$AAl?$AAu@ 000000018002cdc8     libucrt:lcidtoname_downlevel.obj
 0002:00007dd8       ??_C@_1M@EOHDJGDD@?$AAf?$AAr?$AA?9?$AAm?$AAc@ 000000018002cdd8     libucrt:lcidtoname_downlevel.obj
 0002:00007de8       ??_C@_1M@FAPLLOPF@?$AAg?$AAl?$AA?9?$AAe?$AAs@ 000000018002cde8     libucrt:lcidtoname_downlevel.obj
 0002:00007df8       ??_C@_1M@FOPBFLOO@?$AAg?$AAu?$AA?9?$AAi?$AAn@ 000000018002cdf8     libucrt:lcidtoname_downlevel.obj
 0002:00007e08       ??_C@_1M@KBMCINPM@?$AAh?$AAe?$AA?9?$AAi?$AAl@ 000000018002ce08     libucrt:lcidtoname_downlevel.obj
 0002:00007e18       ??_C@_1M@BBPHKFPJ@?$AAh?$AAi?$AA?9?$AAi?$AAn@ 000000018002ce18     libucrt:lcidtoname_downlevel.obj
 0002:00007e28       ??_C@_1M@PMBNDPHD@?$AAh?$AAr?$AA?9?$AAb?$AAa@ 000000018002ce28     libucrt:lcidtoname_downlevel.obj
 0002:00007e38       ??_C@_1M@BPCKOEGE@?$AAh?$AAr?$AA?9?$AAh?$AAr@ 000000018002ce38     libucrt:lcidtoname_downlevel.obj
 0002:00007e48       ??_C@_1M@GACBMHKE@?$AAh?$AAu?$AA?9?$AAh?$AAu@ 000000018002ce48     libucrt:lcidtoname_downlevel.obj
 0002:00007e58       ??_C@_1M@MILPAJJC@?$AAh?$AAy?$AA?9?$AAa?$AAm@ 000000018002ce58     libucrt:lcidtoname_downlevel.obj
 0002:00007e68       ??_C@_1M@BABBICEC@?$AAi?$AAd?$AA?9?$AAi?$AAd@ 000000018002ce68     libucrt:lcidtoname_downlevel.obj
 0002:00007e78       ??_C@_1M@BIKNHHPF@?$AAi?$AAs?$AA?9?$AAi?$AAs@ 000000018002ce78     libucrt:lcidtoname_downlevel.obj
 0002:00007e88       ??_C@_1M@NMPCJPHE@?$AAi?$AAt?$AA?9?$AAc?$AAh@ 000000018002ce88     libucrt:lcidtoname_downlevel.obj
 0002:00007e98       ??_C@_1M@GHKGFEDF@?$AAi?$AAt?$AA?9?$AAi?$AAt@ 000000018002ce98     libucrt:lcidtoname_downlevel.obj
 0002:00007ea8       ??_C@_1M@NIEJCJJA@?$AAj?$AAa?$AA?9?$AAj?$AAp@ 000000018002cea8     libucrt:lcidtoname_downlevel.obj
 0002:00007eb8       ??_C@_1M@JILFNBIM@?$AAk?$AAa?$AA?9?$AAg?$AAe@ 000000018002ceb8     libucrt:lcidtoname_downlevel.obj
 0002:00007ec8       ??_C@_1M@PACPMGPH@?$AAk?$AAk?$AA?9?$AAk?$AAz@ 000000018002cec8     libucrt:lcidtoname_downlevel.obj
 0002:00007ed8       ??_C@_1M@IELFGMHA@?$AAk?$AAn?$AA?9?$AAi?$AAn@ 000000018002ced8     libucrt:lcidtoname_downlevel.obj
 0002:00007ee8       ??_C@_1O@IBBJHCH@?$AAk?$AAo?$AAk?$AA?9?$AAi?$AAn@ 000000018002cee8     libucrt:lcidtoname_downlevel.obj
 0002:00007ef8       ??_C@_1M@DMHAEOGC@?$AAk?$AAo?$AA?9?$AAk?$AAr@ 000000018002cef8     libucrt:lcidtoname_downlevel.obj
 0002:00007f08       ??_C@_1M@HBAHBIGA@?$AAk?$AAy?$AA?9?$AAk?$AAg@ 000000018002cf08     libucrt:lcidtoname_downlevel.obj
 0002:00007f18       ??_C@_1M@KPMILCJG@?$AAl?$AAt?$AA?9?$AAl?$AAt@ 000000018002cf18     libucrt:lcidtoname_downlevel.obj
 0002:00007f28       ??_C@_1M@BDEKKCA@?$AAl?$AAv?$AA?9?$AAl?$AAv@ 000000018002cf28     libucrt:lcidtoname_downlevel.obj
 0002:00007f38       ??_C@_1M@ELCKCCJJ@?$AAm?$AAi?$AA?9?$AAn?$AAz@ 000000018002cf38     libucrt:lcidtoname_downlevel.obj
 0002:00007f48       ??_C@_1M@CBOOLAPA@?$AAm?$AAk?$AA?9?$AAm?$AAk@ 000000018002cf48     libucrt:lcidtoname_downlevel.obj
 0002:00007f58       ??_C@_1M@GPHNBJKN@?$AAm?$AAl?$AA?9?$AAi?$AAn@ 000000018002cf58     libucrt:lcidtoname_downlevel.obj
 0002:00007f68       ??_C@_1M@PABJILIG@?$AAm?$AAn?$AA?9?$AAm?$AAn@ 000000018002cf68     libucrt:lcidtoname_downlevel.obj
 0002:00007f78       ??_C@_1M@FGBKKIPG@?$AAm?$AAr?$AA?9?$AAi?$AAn@ 000000018002cf78     libucrt:lcidtoname_downlevel.obj
 0002:00007f88       ??_C@_1M@NDBPDDAL@?$AAm?$AAs?$AA?9?$AAb?$AAn@ 000000018002cf88     libucrt:lcidtoname_downlevel.obj
 0002:00007f98       ??_C@_1M@OPIHOOPI@?$AAm?$AAs?$AA?9?$AAm?$AAy@ 000000018002cf98     libucrt:lcidtoname_downlevel.obj
 0002:00007fa8       ??_C@_1M@PPDBCNFM@?$AAm?$AAt?$AA?9?$AAm?$AAt@ 000000018002cfa8     libucrt:lcidtoname_downlevel.obj
 0002:00007fb8       ??_C@_1M@KDJDKMDD@?$AAn?$AAb?$AA?9?$AAn?$AAo@ 000000018002cfb8     libucrt:lcidtoname_downlevel.obj
 0002:00007fc8       ??_C@_1M@KFCFLMJP@?$AAn?$AAl?$AA?9?$AAb?$AAe@ 000000018002cfc8     libucrt:lcidtoname_downlevel.obj
 0002:00007fd8       ??_C@_1M@KPOPDDGO@?$AAn?$AAl?$AA?9?$AAn?$AAl@ 000000018002cfd8     libucrt:lcidtoname_downlevel.obj
 0002:00007fe8       ??_C@_1M@LJKPEMLN@?$AAn?$AAn?$AA?9?$AAn?$AAo@ 000000018002cfe8     libucrt:lcidtoname_downlevel.obj
 0002:00007ff8       ??_C@_1M@BDGHHBFL@?$AAn?$AAs?$AA?9?$AAz?$AAa@ 000000018002cff8     libucrt:lcidtoname_downlevel.obj
 0002:00008008       ??_C@_1M@IDEHOAP@?$AAp?$AAa?$AA?9?$AAi?$AAn@ 000000018002d008     libucrt:lcidtoname_downlevel.obj
 0002:00008018       ??_C@_1M@HDBKGOGH@?$AAp?$AAl?$AA?9?$AAp?$AAl@ 000000018002d018     libucrt:lcidtoname_downlevel.obj
 0002:00008028       ??_C@_1M@LJLLCMEH@?$AAp?$AAt?$AA?9?$AAb?$AAr@ 000000018002d028     libucrt:lcidtoname_downlevel.obj
 0002:00008038       ??_C@_1M@NCMONAAL@?$AAp?$AAt?$AA?9?$AAp?$AAt@ 000000018002d038     libucrt:lcidtoname_downlevel.obj
 0002:00008048       ??_C@_1O@EAKMAJDN@?$AAq?$AAu?$AAz?$AA?9?$AAb?$AAo@ 000000018002d048     libucrt:lcidtoname_downlevel.obj
 0002:00008058       ??_C@_1O@BHHPIGDN@?$AAq?$AAu?$AAz?$AA?9?$AAe?$AAc@ 000000018002d058     libucrt:lcidtoname_downlevel.obj
 0002:00008068       ??_C@_1O@GBAPEKMJ@?$AAq?$AAu?$AAz?$AA?9?$AAp?$AAe@ 000000018002d068     libucrt:lcidtoname_downlevel.obj
 0002:00008078       ??_C@_1M@CLGLEFBO@?$AAr?$AAo?$AA?9?$AAr?$AAo@ 000000018002d078     libucrt:lcidtoname_downlevel.obj
 0002:00008088       ??_C@_1M@CEEDODME@?$AAr?$AAu?$AA?9?$AAr?$AAu@ 000000018002d088     libucrt:lcidtoname_downlevel.obj
 0002:00008098       ??_C@_1M@HPKKKMPP@?$AAs?$AAa?$AA?9?$AAi?$AAn@ 000000018002d098     libucrt:lcidtoname_downlevel.obj
 0002:000080a8       ??_C@_1M@BKMAIGOJ@?$AAs?$AAe?$AA?9?$AAf?$AAi@ 000000018002d0a8     libucrt:lcidtoname_downlevel.obj
 0002:000080b8       ??_C@_1M@NDPIFLFI@?$AAs?$AAe?$AA?9?$AAn?$AAo@ 000000018002d0b8     libucrt:lcidtoname_downlevel.obj
 0002:000080c8       ??_C@_1M@DANKKHJ@?$AAs?$AAe?$AA?9?$AAs?$AAe@ 000000018002d0c8     libucrt:lcidtoname_downlevel.obj
 0002:000080d8       ??_C@_1M@PNBLONPJ@?$AAs?$AAk?$AA?9?$AAs?$AAk@ 000000018002d0d8     libucrt:lcidtoname_downlevel.obj
 0002:000080e8       ??_C@_1M@LFMODOAL@?$AAs?$AAl?$AA?9?$AAs?$AAi@ 000000018002d0e8     libucrt:lcidtoname_downlevel.obj
 0002:000080f8       ??_C@_1O@DFKOMPG@?$AAs?$AAm?$AAa?$AA?9?$AAn?$AAo@ 000000018002d0f8     libucrt:lcidtoname_downlevel.obj
 0002:00008108       ??_C@_1O@NDKPBNNH@?$AAs?$AAm?$AAa?$AA?9?$AAs?$AAe@ 000000018002d108     libucrt:lcidtoname_downlevel.obj
 0002:00008118       ??_C@_1O@PLLKBHAB@?$AAs?$AAm?$AAj?$AA?9?$AAn?$AAo@ 000000018002d118     libucrt:lcidtoname_downlevel.obj
 0002:00008128       ??_C@_1O@CLEPOGCA@?$AAs?$AAm?$AAj?$AA?9?$AAs?$AAe@ 000000018002d128     libucrt:lcidtoname_downlevel.obj
 0002:00008138       ??_C@_1O@DLGJGKMK@?$AAs?$AAm?$AAn?$AA?9?$AAf?$AAi@ 000000018002d138     libucrt:lcidtoname_downlevel.obj
 0002:00008148       ??_C@_1O@OJDJGAJC@?$AAs?$AAm?$AAs?$AA?9?$AAf?$AAi@ 000000018002d148     libucrt:lcidtoname_downlevel.obj
 0002:00008158       ??_C@_1M@BOFOGHPB@?$AAs?$AAq?$AA?9?$AAa?$AAl@ 000000018002d158     libucrt:lcidtoname_downlevel.obj
 0002:00008168       ??_C@_1BG@LJBBIPGB@?$AAs?$AAr?$AA?9?$AAb?$AAa?$AA?9?$AAc?$AAy?$AAr?$AAl@ 000000018002d168     libucrt:lcidtoname_downlevel.obj
 0002:00008180       ??_C@_1BG@JLBENFOE@?$AAs?$AAr?$AA?9?$AAb?$AAa?$AA?9?$AAl?$AAa?$AAt?$AAn@ 000000018002d180     libucrt:lcidtoname_downlevel.obj
 0002:00008198       ??_C@_1BG@KODPNHE@?$AAs?$AAr?$AA?9?$AAs?$AAp?$AA?9?$AAc?$AAy?$AAr?$AAl@ 000000018002d198     libucrt:lcidtoname_downlevel.obj
 0002:000081b0       ??_C@_1BG@CIOGKHPB@?$AAs?$AAr?$AA?9?$AAs?$AAp?$AA?9?$AAl?$AAa?$AAt?$AAn@ 000000018002d1b0     libucrt:lcidtoname_downlevel.obj
 0002:000081c8       ??_C@_1M@NGFJLMAC@?$AAs?$AAv?$AA?9?$AAf?$AAi@ 000000018002d1c8     libucrt:lcidtoname_downlevel.obj
 0002:000081d8       ??_C@_1M@MPJEJAJC@?$AAs?$AAv?$AA?9?$AAs?$AAe@ 000000018002d1d8     libucrt:lcidtoname_downlevel.obj
 0002:000081e8       ??_C@_1M@MPNDHLFK@?$AAs?$AAw?$AA?9?$AAk?$AAe@ 000000018002d1e8     libucrt:lcidtoname_downlevel.obj
 0002:000081f8       ??_C@_1O@KOHBJJI@?$AAs?$AAy?$AAr?$AA?9?$AAs?$AAy@ 000000018002d1f8     libucrt:lcidtoname_downlevel.obj
 0002:00008208       ??_C@_1M@LDCEFHA@?$AAt?$AAa?$AA?9?$AAi?$AAn@ 000000018002d208     libucrt:lcidtoname_downlevel.obj
 0002:00008218       ??_C@_1M@CNJOFAK@?$AAt?$AAe?$AA?9?$AAi?$AAn@ 000000018002d218     libucrt:lcidtoname_downlevel.obj
 0002:00008228       ??_C@_1M@GNAECACD@?$AAt?$AAh?$AA?9?$AAt?$AAh@ 000000018002d228     libucrt:lcidtoname_downlevel.obj
 0002:00008238       ??_C@_1M@CHBIHOJO@?$AAt?$AAn?$AA?9?$AAz?$AAa@ 000000018002d238     libucrt:lcidtoname_downlevel.obj
 0002:00008248       ??_C@_1M@GCCMIGPJ@?$AAt?$AAr?$AA?9?$AAt?$AAr@ 000000018002d248     libucrt:lcidtoname_downlevel.obj
 0002:00008258       ??_C@_1M@CELMCNBK@?$AAt?$AAt?$AA?9?$AAr?$AAu@ 000000018002d258     libucrt:lcidtoname_downlevel.obj
 0002:00008268       ??_C@_1M@KLMCELGA@?$AAu?$AAk?$AA?9?$AAu?$AAa@ 000000018002d268     libucrt:lcidtoname_downlevel.obj
 0002:00008278       ??_C@_1M@EPAJJAJF@?$AAu?$AAr?$AA?9?$AAp?$AAk@ 000000018002d278     libucrt:lcidtoname_downlevel.obj
 0002:00008288       ??_C@_1BG@GEGPMCDJ@?$AAu?$AAz?$AA?9?$AAu?$AAz?$AA?9?$AAc?$AAy?$AAr?$AAl@ 000000018002d288     libucrt:lcidtoname_downlevel.obj
 0002:000082a0       ??_C@_1BG@EGGKJILM@?$AAu?$AAz?$AA?9?$AAu?$AAz?$AA?9?$AAl?$AAa?$AAt?$AAn@ 000000018002d2a0     libucrt:lcidtoname_downlevel.obj
 0002:000082b8       ??_C@_1M@GFOCLFF@?$AAv?$AAi?$AA?9?$AAv?$AAn@ 000000018002d2b8     libucrt:lcidtoname_downlevel.obj
 0002:000082c8       ??_C@_1M@CPAMEDFI@?$AAx?$AAh?$AA?9?$AAz?$AAa@ 000000018002d2c8     libucrt:lcidtoname_downlevel.obj
 0002:000082d8       ??_C@_1O@EBKIFIGN@?$AAz?$AAh?$AA?9?$AAc?$AAh?$AAs@ 000000018002d2d8     libucrt:lcidtoname_downlevel.obj
 0002:000082e8       ??_C@_1O@NMHPGANE@?$AAz?$AAh?$AA?9?$AAc?$AAh?$AAt@ 000000018002d2e8     libucrt:lcidtoname_downlevel.obj
 0002:000082f8       ??_C@_1M@LPINJOMC@?$AAz?$AAh?$AA?9?$AAc?$AAn@ 000000018002d2f8     libucrt:lcidtoname_downlevel.obj
 0002:00008308       ??_C@_1M@OCJEJODD@?$AAz?$AAh?$AA?9?$AAh?$AAk@ 000000018002d308     libucrt:lcidtoname_downlevel.obj
 0002:00008318       ??_C@_1M@DNDLJINH@?$AAz?$AAh?$AA?9?$AAm?$AAo@ 000000018002d318     libucrt:lcidtoname_downlevel.obj
 0002:00008328       ??_C@_1M@MBFDNDND@?$AAz?$AAh?$AA?9?$AAs?$AAg@ 000000018002d328     libucrt:lcidtoname_downlevel.obj
 0002:00008338       ??_C@_1M@IMEPLEPE@?$AAz?$AAh?$AA?9?$AAt?$AAw@ 000000018002d338     libucrt:lcidtoname_downlevel.obj
 0002:00008348       ??_C@_1M@BBGHNHJP@?$AAz?$AAu?$AA?9?$AAz?$AAa@ 000000018002d348     libucrt:lcidtoname_downlevel.obj
 0002:00008360       ?large_power_data@?1??multiply_by_power_of_ten@__crt_strtox@@YA_NAEAUbig_integer@2@I@Z@4QBIB 000000018002d360     libucrt:cfout.obj
 0002:00008c70       ?large_power_indices@?1??multiply_by_power_of_ten@__crt_strtox@@YA_NAEAUbig_integer@2@I@Z@4QBUunpack_index@?1??12@YA_N0I@Z@B 000000018002dc70     libucrt:cfout.obj
 0002:00008d08       ?small_powers_of_ten@?1??multiply_by_power_of_ten@__crt_strtox@@YA_NAEAUbig_integer@2@I@Z@4QBIB 000000018002dd08     libucrt:cfout.obj
 0002:00008d2c       ??_C@_01GBGANLPD@0@        000000018002dd2c     libucrt:cfout.obj
 0002:00008d30       ??_C@_05DNEBIAHO@1?$CDINF@ 000000018002dd30     libucrt:cfout.obj
 0002:00008d38       ??_C@_06IMKFLFPG@1?$CDQNAN@ 000000018002dd38     libucrt:cfout.obj
 0002:00008d40       ??_C@_06PGGFOGJG@1?$CDSNAN@ 000000018002dd40     libucrt:cfout.obj
 0002:00008d48       ??_C@_05PHHOCPM@1?$CDIND@  000000018002dd48     libucrt:cfout.obj
 0002:00008d78       __real@3ff0000000000000    000000018002dd78     libucrt:ceil.obj
 0002:00008fd0       __log10_256_lead           000000018002dfd0     libucrt:log10_256_lead_tail_table.obj
 0002:000097e0       __log10_256_tail           000000018002e7e0     libucrt:log10_256_lead_tail_table.obj
 0002:00009ff0       __log_F_inv_qword          000000018002eff0     libucrt:log_f_inv_qword_table.obj
 0002:0000a800       ??_C@_05HGHHAHAP@log10@    000000018002f800     libucrt:log_special.obj
 0002:0000a808       ??_C@_1BA@BALFACEM@?$AAC?$AAO?$AAN?$AAO?$AAU?$AAT?$AA$@ 000000018002f808     libucrt:initcon.obj
 0002:0000a890       _load_config_used          000000018002f890     LIBCMT:loadcfg.obj
 0002:0000aa00       _tls_used                  000000018002fa00     LIBCMT:tlssup.obj
 0002:0000aa28       ??_R4exception@std@@6B@    000000018002fa28     LIBCMT:throw_bad_alloc.obj
 0002:0000aa50       ??_R3exception@std@@8      000000018002fa50     LIBCMT:throw_bad_alloc.obj
 0002:0000aa68       ??_R2exception@std@@8      000000018002fa68     LIBCMT:throw_bad_alloc.obj
 0002:0000aa78       ??_R1A@?0A@EA@exception@std@@8 000000018002fa78     LIBCMT:throw_bad_alloc.obj
 0002:0000aaa0       ??_R4bad_alloc@std@@6B@    000000018002faa0     LIBCMT:throw_bad_alloc.obj
 0002:0000aac8       ??_R3bad_alloc@std@@8      000000018002fac8     LIBCMT:throw_bad_alloc.obj
 0002:0000aae0       ??_R2bad_alloc@std@@8      000000018002fae0     LIBCMT:throw_bad_alloc.obj
 0002:0000aaf8       ??_R1A@?0A@EA@bad_alloc@std@@8 000000018002faf8     LIBCMT:throw_bad_alloc.obj
 0002:0000ab20       ??_R4bad_array_new_length@std@@6B@ 000000018002fb20     LIBCMT:throw_bad_alloc.obj
 0002:0000ab48       ??_R3bad_array_new_length@std@@8 000000018002fb48     LIBCMT:throw_bad_alloc.obj
 0002:0000ab60       ??_R2bad_array_new_length@std@@8 000000018002fb60     LIBCMT:throw_bad_alloc.obj
 0002:0000ab80       ??_R1A@?0A@EA@bad_array_new_length@std@@8 000000018002fb80     LIBCMT:throw_bad_alloc.obj
 0002:0000aba8       ??_R4type_info@@6B@        000000018002fba8     LIBCMT:std_type_info_static.obj
 0002:0000abd0       ??_R3type_info@@8          000000018002fbd0     LIBCMT:std_type_info_static.obj
 0002:0000abe8       ??_R2type_info@@8          000000018002fbe8     LIBCMT:std_type_info_static.obj
 0002:0000abf8       ??_R1A@?0A@EA@type_info@@8 000000018002fbf8     LIBCMT:std_type_info_static.obj
 0002:0000ac20       ??_R4bad_exception@std@@6B@ 000000018002fc20     libvcruntime:frame.obj
 0002:0000ac48       ??_R3bad_exception@std@@8  000000018002fc48     libvcruntime:frame.obj
 0002:0000ac60       ??_R2bad_exception@std@@8  000000018002fc60     libvcruntime:frame.obj
 0002:0000ac78       ??_R1A@?0A@EA@bad_exception@std@@8 000000018002fc78     libvcruntime:frame.obj
 0002:0000ac9c       __volatile_metadata        000000018002fc9c     <linker-defined>
 0002:0000b118       __rtc_iaa                  0000000180030118     LIBCMT:initsect.obj
 0002:0000b120       __rtc_izz                  0000000180030120     LIBCMT:initsect.obj
 0002:0000b128       __rtc_taa                  0000000180030128     LIBCMT:initsect.obj
 0002:0000b130       __rtc_tzz                  0000000180030130     LIBCMT:initsect.obj
 0002:0000b138       _tls_start                 0000000180030138     LIBCMT:tlssup.obj
 0002:0000b13c       _Init_thread_epoch         000000018003013c     LIBCMT:thread_safe_statics.obj
 0002:0000b140       _tls_end                   0000000180030140     LIBCMT:tlssup.obj
 0002:0000ca48       _TI2?AVbad_alloc@std@@     0000000180031a48     LIBCMT:throw_bad_alloc.obj
 0002:0000ca68       _CTA2?AVbad_alloc@std@@    0000000180031a68     LIBCMT:throw_bad_alloc.obj
 0002:0000ca80       _CT??_R0?AVbad_alloc@std@@@8??0bad_alloc@std@@QEAA@AEBV01@@Z24 0000000180031a80     LIBCMT:throw_bad_alloc.obj
 0002:0000caa8       _CT??_R0?AVexception@std@@@8??0exception@std@@QEAA@AEBV01@@Z24 0000000180031aa8     LIBCMT:throw_bad_alloc.obj
 0002:0000cad0       _TI3?AVbad_array_new_length@std@@ 0000000180031ad0     LIBCMT:throw_bad_alloc.obj
 0002:0000caf0       _CTA3?AVbad_array_new_length@std@@ 0000000180031af0     LIBCMT:throw_bad_alloc.obj
 0002:0000cb10       _CT??_R0?AVbad_array_new_length@std@@@8??0bad_array_new_length@std@@QEAA@AEBV01@@Z24 0000000180031b10     LIBCMT:throw_bad_alloc.obj
 0002:0000cb38       _TI2?AVbad_exception@std@@ 0000000180031b38     libvcruntime:frame.obj
 0002:0000cb58       _CTA2?AVbad_exception@std@@ 0000000180031b58     libvcruntime:frame.obj
 0002:0000cb70       _CT??_R0?AVbad_exception@std@@@8??0bad_exception@std@@QEAA@AEBV01@@Z24 0000000180031b70     libvcruntime:frame.obj
 0002:0000cb98       __pobjMapEntryFirst        0000000180031b98     OposVariant.obj
 0002:0000cba0       __pobjMapEntryLast         0000000180031ba0     OposVariant.obj
 0002:0000cc58       __IMPORT_DESCRIPTOR_KERNEL32 0000000180031c58     kernel32:KERNEL32.dll
 0002:0000cc6c       __IMPORT_DESCRIPTOR_USER32 0000000180031c6c     user32:USER32.dll
 0002:0000cc80       __IMPORT_DESCRIPTOR_GDI32  0000000180031c80     gdi32:GDI32.dll
 0002:0000cc94       __IMPORT_DESCRIPTOR_ADVAPI32 0000000180031c94     advapi32:ADVAPI32.dll
 0002:0000cca8       __IMPORT_DESCRIPTOR_ole32  0000000180031ca8     ole32:ole32.dll
 0002:0000ccbc       __IMPORT_DESCRIPTOR_OLEAUT32 0000000180031cbc     oleaut32:OLEAUT32.dll
 0002:0000ccd0       __NULL_IMPORT_DESCRIPTOR   0000000180031cd0     kernel32:KERNEL32.dll
 0003:00000000       ?rcDefault@CWindow@ATL@@2UtagRECT@@A 0000000180033000     Gate.obj
 0003:00000010       ?s_Claim@?7??GetIDsOfNames@CComTypeInfoHolder@ATL@@QEAAJAEBU_GUID@@PEAPEA_WIKPEAJ@Z@4PA_WA 0000000180033010     Gate.obj
 0003:00000028       ?s_Release@?7??GetIDsOfNames@CComTypeInfoHolder@ATL@@QEAAJAEBU_GUID@@PEAPEA_WIKPEAJ@Z@4PA_WA 0000000180033028     Gate.obj
 0003:00000048       ?_tih@?$IDispatchImpl@UIOPOSGate@@$1?IID_IOPOSGate@@3U_GUID@@B$1?LIBID_OposGate_CCO@@3U3@B$00$0A@VCComTypeInfoHolder@ATL@@@ATL@@1VCComTypeInfoHolder@2@A 0000000180033048     Gate.obj
 0003:00000080       ?_tih@?$IProvideClassInfo2Impl@$1?CLSID_OPOSGate@@3U_GUID@@B$1?DIID__IOPOSGateEvents@@3U2@B$1?LIBID_OposGate_CCO@@3U2@B$00$0A@VCComTypeInfoHolder@ATL@@@ATL@@1VCComTypeInfoHolder@2@A 0000000180033080     Gate.obj
 0003:000000b8       ?vszContents@?6??Save@?$IPersistStorageImpl@VCOPOSGate@@@ATL@@UEAAJPEAUIStorage@@H@Z@4PEB_WEB 00000001800330b8     Gate.obj
 0003:000000c0       ?wc@?1??GetWndClassInfo@?$CWindowImpl@VCOPOSGate@@VCWindow@ATL@@V?$CWinTraits@$0FGAAAAAA@$0A@@3@@ATL@@SAAEAU_ATL_WNDCLASSINFOW@3@XZ@4U43@A 00000001800330c0     Gate.obj
 0003:00000250       ?g_WindowName@@3PA_WA      0000000180033250     GateImpl.obj
 0003:00000268       ?g_ControlVersion@@3JA     0000000180033268     GateImpl.obj
 0003:00000270       ?g_ControlDescription@@3PADA 0000000180033270     GateImpl.obj
 0003:00000358       __scrt_native_dllmain_reason 0000000180033358     LIBCMT:utility.obj
 0003:0000035c       _Init_global_epoch         000000018003335c     LIBCMT:thread_safe_statics.obj
 0003:00000360       __security_cookie          0000000180033360     LIBCMT:gs_cookie.obj
 0003:00000368       __security_cookie_complement 0000000180033368     LIBCMT:gs_cookie.obj
 0003:00000370       __isa_available            0000000180033370     LIBCMT:cpu_disp.obj
 0003:00000374       __isa_enabled              0000000180033374     LIBCMT:cpu_disp.obj
 0003:00000378       __memcpy_nt_iters          0000000180033378     LIBCMT:cpu_disp.obj
 0003:00000380       __memset_nt_iters          0000000180033380     LIBCMT:cpu_disp.obj
 0003:000003a8       __abort_behavior           00000001800333a8     libucrt:abort.obj
 0003:000003c0       __acrt_initial_locale_data 00000001800333c0     libucrt:nlsdata.obj
 0003:00000518       __acrt_initial_locale_pointers 0000000180033518     libucrt:nlsdata.obj
 0003:00000528       __acrt_wide_c_locale_string 0000000180033528     libucrt:nlsdata.obj
 0003:00000530       _iob                       0000000180033530     libucrt:_file.obj
 0003:00000640       __acrt_initial_multibyte_data 0000000180033640     libucrt:mbctype.obj
 0003:00000b80       __acrt_lconv_c             0000000180033b80     libucrt:localeconv.obj
 0003:00000c18       __acrt_lconv_static_decimal 0000000180033c18     libucrt:localeconv.obj
 0003:00000c1c       __acrt_lconv_static_W_decimal 0000000180033c1c     libucrt:localeconv.obj
 0003:00000c20       __globallocalestatus       0000000180033c20     libucrt:glstatus.obj
 0003:00000c30       _lookuptrailbytes          0000000180033c30     libucrt:read.obj
 0003:00000d54       _fltused                   0000000180033d54     LIBCMT:fltused.obj
 0003:00000d58       ??_R0?AVbad_alloc@std@@@8  0000000180033d58     LIBCMT:throw_bad_alloc.obj
 0003:00000d80       ??_R0?AVexception@std@@@8  0000000180033d80     LIBCMT:throw_bad_alloc.obj
 0003:00000da8       ??_R0?AVbad_array_new_length@std@@@8 0000000180033da8     LIBCMT:throw_bad_alloc.obj
 0003:00000dd8       ??_R0?AVbad_exception@std@@@8 0000000180033dd8     libvcruntime:frame.obj
 0003:00000e00       ??_R0?AVtype_info@@@8      0000000180033e00     LIBCMT:std_type_info_static.obj
 0003:00000e20       ?m_bInitFailed@CAtlBaseModule@ATL@@2_NA 0000000180033e20     OposVariant.obj
 0003:00000e28       ?_pPerfRegFunc@ATL@@3P6AJPEAUHINSTANCE__@@@ZEA 0000000180033e28     OposVariant.obj
 0003:00000e30       ?_pPerfUnRegFunc@ATL@@3P6AJXZEA 0000000180033e30     OposVariant.obj
 0003:00000e38       ?_AtlRegisterPerUser@ATL@@3_NA 0000000180033e38     OposVariant.obj
 0003:00000e40       ?_pAtlModule@ATL@@3PEAVCAtlModule@1@EA 0000000180033e40     OposVariant.obj
 0003:00000e48       ?_pModule@ATL@@3PEAVCComModule@1@EA 0000000180033e48     OposVariant.obj
 0003:00000e50       ?_AtlComModule@ATL@@3VCAtlComModule@1@A 0000000180033e50     OposVariant.obj
 0003:00000ea0       ?_AtlWinModule@ATL@@3VCAtlWinModule@1@A 0000000180033ea0     OposVariant.obj
 0003:00000ee8       ?m_libid@CAtlModule@ATL@@2U_GUID@@A 0000000180033ee8     Gate.obj
 0003:00000ef8       ?_entries@?1??GetConnMap@COPOSGate@@SAPEBU_ATL_CONNMAP_ENTRY@ATL@@PEAH@Z@4QBU34@B 0000000180033ef8     Gate.obj
 0003:00000f10       ?$TSS0@?1??GetConnMap@COPOSGate@@SAPEBU_ATL_CONNMAP_ENTRY@ATL@@PEAH@Z@4HA 0000000180033f10     Gate.obj
 0003:00000f18       ?_OptionsStorage@?1??__local_stdio_printf_options@@9@4_KA 0000000180033f18     Gate.obj
 0003:00000f20       ?pfnRegDeleteKeyEx@?1??DeleteSubKey@CRegKey@ATL@@QEAAJPEB_W@Z@4P6AJPEAUHKEY__@@0KK@ZEA 0000000180033f20     Gate.obj
 0003:00000f28       ?bInitialized@?1??DeleteSubKey@CRegKey@ATL@@QEAAJPEB_W@Z@4_NA 0000000180033f28     Gate.obj
 0003:00000f30       ?_Module@@3VCComModule@ATL@@A 0000000180033f30     Gate.obj
 0003:00000f80       ?pConnMap@?$IConnectionPointContainerImpl@VCOPOSGate@@@ATL@@0PEBU_ATL_CONNMAP_ENTRY@2@EB 0000000180033f80     Gate.obj
 0003:00000f88       ?s_nInstances@COPOSGate@@1HA 0000000180033f88     GateImpl.obj
 0003:00000f90       __scrt_current_native_startup_state 0000000180033f90     LIBCMT:utility.obj
 0003:00000f98       __scrt_native_startup_lock 0000000180033f98     LIBCMT:utility.obj
 0003:00001590       _tls_index                 0000000180034590     LIBCMT:tlssup.obj
 0003:00001598       __favor                    0000000180034598     LIBCMT:cpu_disp.obj
 0003:0000159c       __scrt_debugger_hook_flag  000000018003459c     LIBCMT:utility_desktop.obj
 0003:000015a0       ?__type_info_root_node@@3U__type_info_node@@A 00000001800345a0     LIBCMT:tncleanup.obj
 0003:000015b0       ?_OptionsStorage@?1??__local_stdio_scanf_options@@9@4_KA 00000001800345b0     LIBCMT:default_local_stdio_options.obj
 0003:000015c0       ?_AtlBaseModule@ATL@@3VCAtlBaseModule@1@A 00000001800345c0     atls:atlbase.obj
 0003:00001620       ?__AtlThunkPool@@3PEAT_SLIST_HEADER@@EA 0000000180034620     atls:atlthunk.obj
 0003:0000164c       __@@_PchSym_@00@UzABUPdlipUCAUhUrmgvinvwrzgvUexgllohUzgohOmzgrevkilqPBACIAJCBDBUlyqiUznwGEUhgwzucOlyq@4B2008FD98C1DD4 000000018003464c     atls:stdafx.obj
 0003:00001650       ?__WinRTOutOfMemoryExceptionCallback@@3P6APEAXXZEA 0000000180034650     libvcruntime:ehhelpers.obj
 0003:00001658       __pPurecall                0000000180034658     libvcruntime:purevirt_data.obj
 0003:00001710       ?pArgList@UnDecorator@@0PEAVReplicator@@EA 0000000180034710     libvcruntime:undname.obj
 0003:00001718       ?pZNameList@UnDecorator@@0PEAVReplicator@@EA 0000000180034718     libvcruntime:undname.obj
 0003:00001720       ?pTemplateArgList@UnDecorator@@0PEAVReplicator@@EA 0000000180034720     libvcruntime:undname.obj
 0003:00001728       ?gName@UnDecorator@@0PEBDEB 0000000180034728     libvcruntime:undname.obj
 0003:00001730       ?name@UnDecorator@@0PEBDEB 0000000180034730     libvcruntime:undname.obj
 0003:00001738       ?disableFlags@UnDecorator@@0KA 0000000180034738     libvcruntime:undname.obj
 0003:0000173c       ?fExplicitTemplateParams@UnDecorator@@0_NA 000000018003473c     libvcruntime:undname.obj
 0003:0000173d       ?fGetTemplateArgumentList@UnDecorator@@0_NA 000000018003473d     libvcruntime:undname.obj
 0003:00001740       ?m_pGetParameter@UnDecorator@@0P6APEADJ@ZEA 0000000180034740     libvcruntime:undname.obj
 0003:00001748       ?m_CHPENameOffset@UnDecorator@@0KA 0000000180034748     libvcruntime:undname.obj
 0003:0000174c       ?m_recursionLevel@UnDecorator@@0KA 000000018003474c     libvcruntime:undname.obj
 0003:000017d0       ?c_exit_complete@?1???R<lambda_6e4b09c48022b2350581041d5f6b0c4c>@@QEBA@XZ@4_NA 00000001800347d0     libucrt:exit.obj
 0003:000018e8       _environ_table             00000001800348e8     libucrt:environment_initialization.obj
 0003:000018f0       _wenviron_table            00000001800348f0     libucrt:environment_initialization.obj
 0003:000018f8       __dcrt_initial_wide_environment 00000001800348f8     libucrt:environment_initialization.obj
 0003:00001900       __dcrt_initial_narrow_environment 0000000180034900     libucrt:environment_initialization.obj
 0003:00001908       __acrt_atexit_table        0000000180034908     libucrt:onexit.obj
 0003:00001920       __acrt_at_quick_exit_table 0000000180034920     libucrt:onexit.obj
 0003:00001940       __acrt_locale_changed_data 0000000180034940     libucrt:wsetlocale.obj
 0003:00001948       __acrt_current_locale_data 0000000180034948     libucrt:nlsdata.obj
 0003:00001ae8       _nstream                   0000000180034ae8     libucrt:_file.obj
 0003:00001af0       __piob                     0000000180034af0     libucrt:_file.obj
 0003:00001b00       __acrt_stdout_buffer       0000000180034b00     libucrt:_sftbuf.obj
 0003:00001b08       __acrt_stderr_buffer       0000000180034b08     libucrt:_sftbuf.obj
 0003:00001b10       __pioinfo                  0000000180034b10     libucrt:ioinit.obj
 0003:00001f10       _nhandle                   0000000180034f10     libucrt:ioinit.obj
 0003:00002158       _mbctype                   0000000180035158     libucrt:mbctype.obj
 0003:00002160       _mbcasemap                 0000000180035160     libucrt:mbctype.obj
 0003:00002168       __acrt_current_multibyte_data 0000000180035168     libucrt:mbctype.obj
 0003:00002178       _pgmptr                    0000000180035178     libucrt:argv_data.obj
 0003:00002180       __argc                     0000000180035180     libucrt:argv_data.obj
 0003:00002188       __argv                     0000000180035188     libucrt:argv_data.obj
 0003:00002190       __wargv                    0000000180035190     libucrt:argv_data.obj
 0003:00002198       _acmdln                    0000000180035198     libucrt:argv_data.obj
 0003:000021a0       _wcmdln                    00000001800351a0     libucrt:argv_data.obj
 0003:000021a8       __acrt_heap                00000001800351a8     libucrt:heap_handle.obj
 0003:000021d8       __acrt_lconv_static_null   00000001800351d8     libucrt:localeconv.obj
 0003:000021dc       __acrt_lconv_static_W_null 00000001800351dc     libucrt:localeconv.obj
 0003:000021f4       __fma3_is_available        00000001800351f4     libucrt:fma3_available.obj
 0003:000021f8       __use_fma3_lib             00000001800351f8     libucrt:fma3_available.obj
 0003:00002200       __dyn_tls_init_callback    0000000180035200     <common>
 0003:00002208       __scrt_ucrt_dll_is_in_use  0000000180035208     <common>

 entry point at        0001:0000e630

 Static symbols

 0000:fffc2000       .debug$S                   0000000180000000     OPOSGate.exp
 0000:fffc2000       .debug$S                   0000000180000000     advapi32:ADVAPI32.dll
 0000:fffc2000       .debug$S                   0000000180000000     advapi32:ADVAPI32.dll
 0000:fffc2000       .debug$S                   0000000180000000     advapi32:ADVAPI32.dll
 0000:fffc2000       .debug$S                   0000000180000000     advapi32:ADVAPI32.dll
 0000:fffc2000       .debug$S                   0000000180000000     advapi32:ADVAPI32.dll
 0000:fffc2000       .debug$S                   0000000180000000     advapi32:ADVAPI32.dll
 0000:fffc2000       .debug$S                   0000000180000000     advapi32:ADVAPI32.dll
 0000:fffc2000       .debug$S                   0000000180000000     advapi32:ADVAPI32.dll
 0000:fffc2000       .debug$S                   0000000180000000     advapi32:ADVAPI32.dll
 0000:fffc2000       .debug$S                   0000000180000000     gdi32:GDI32.dll
 0000:fffc2000       .debug$S                   0000000180000000     gdi32:GDI32.dll
 0000:fffc2000       .debug$S                   0000000180000000     gdi32:GDI32.dll
 0000:fffc2000       .debug$S                   0000000180000000     gdi32:GDI32.dll
 0000:fffc2000       .debug$S                   0000000180000000     gdi32:GDI32.dll
 0000:fffc2000       .debug$S                   0000000180000000     gdi32:GDI32.dll
 0000:fffc2000       .debug$S                   0000000180000000     gdi32:GDI32.dll
 0000:fffc2000       .debug$S                   0000000180000000     gdi32:GDI32.dll
 0000:fffc2000       .debug$S                   0000000180000000     gdi32:GDI32.dll
 0000:fffc2000       .debug$S                   0000000180000000     gdi32:GDI32.dll
 0000:fffc2000       .debug$S                   0000000180000000     gdi32:GDI32.dll
 0000:fffc2000       .debug$S                   0000000180000000     gdi32:GDI32.dll
 0000:fffc2000       .debug$S                   0000000180000000     gdi32:GDI32.dll
 0000:fffc2000       .debug$S                   0000000180000000     gdi32:GDI32.dll
 0000:fffc2000       .debug$S                   0000000180000000     gdi32:GDI32.dll
 0000:fffc2000       .debug$S                   0000000180000000     gdi32:GDI32.dll
 0000:fffc2000       .debug$S                   0000000180000000     gdi32:GDI32.dll
 0000:fffc2000       .debug$S                   0000000180000000     gdi32:GDI32.dll
 0000:fffc2000       .debug$S                   0000000180000000     gdi32:GDI32.dll
 0000:fffc2000       .debug$S                   0000000180000000     kernel32:KERNEL32.dll
 0000:fffc2000       .debug$S                   0000000180000000     kernel32:KERNEL32.dll
 0000:fffc2000       .debug$S                   0000000180000000     kernel32:KERNEL32.dll
 0000:fffc2000       .debug$S                   0000000180000000     kernel32:KERNEL32.dll
 0000:fffc2000       .debug$S                   0000000180000000     kernel32:KERNEL32.dll
 0000:fffc2000       .debug$S                   0000000180000000     kernel32:KERNEL32.dll
 0000:fffc2000       .debug$S                   0000000180000000     kernel32:KERNEL32.dll
 0000:fffc2000       .debug$S                   0000000180000000     kernel32:KERNEL32.dll
 0000:fffc2000       .debug$S                   0000000180000000     kernel32:KERNEL32.dll
 0000:fffc2000       .debug$S                   0000000180000000     kernel32:KERNEL32.dll
 0000:fffc2000       .debug$S                   0000000180000000     kernel32:KERNEL32.dll
 0000:fffc2000       .debug$S                   0000000180000000     kernel32:KERNEL32.dll
 0000:fffc2000       .debug$S                   0000000180000000     kernel32:KERNEL32.dll
 0000:fffc2000       .debug$S                   0000000180000000     kernel32:KERNEL32.dll
 0000:fffc2000       .debug$S                   0000000180000000     kernel32:KERNEL32.dll
 0000:fffc2000       .debug$S                   0000000180000000     kernel32:KERNEL32.dll
 0000:fffc2000       .debug$S                   0000000180000000     kernel32:KERNEL32.dll
 0000:fffc2000       .debug$S                   0000000180000000     kernel32:KERNEL32.dll
 0000:fffc2000       .debug$S                   0000000180000000     kernel32:KERNEL32.dll
 0000:fffc2000       .debug$S                   0000000180000000     kernel32:KERNEL32.dll
 0000:fffc2000       .debug$S                   0000000180000000     kernel32:KERNEL32.dll
 0000:fffc2000       .debug$S                   0000000180000000     kernel32:KERNEL32.dll
 0000:fffc2000       .debug$S                   0000000180000000     kernel32:KERNEL32.dll
 0000:fffc2000       .debug$S                   0000000180000000     kernel32:KERNEL32.dll
 0000:fffc2000       .debug$S                   0000000180000000     kernel32:KERNEL32.dll
 0000:fffc2000       .debug$S                   0000000180000000     kernel32:KERNEL32.dll
 0000:fffc2000       .debug$S                   0000000180000000     kernel32:KERNEL32.dll
 0000:fffc2000       .debug$S                   0000000180000000     kernel32:KERNEL32.dll
 0000:fffc2000       .debug$S                   0000000180000000     kernel32:KERNEL32.dll
 0000:fffc2000       .debug$S                   0000000180000000     kernel32:KERNEL32.dll
 0000:fffc2000       .debug$S                   0000000180000000     kernel32:KERNEL32.dll
 0000:fffc2000       .debug$S                   0000000180000000     kernel32:KERNEL32.dll
 0000:fffc2000       .debug$S                   0000000180000000     kernel32:KERNEL32.dll
 0000:fffc2000       .debug$S                   0000000180000000     kernel32:KERNEL32.dll
 0000:fffc2000       .debug$S                   0000000180000000     kernel32:KERNEL32.dll
 0000:fffc2000       .debug$S                   0000000180000000     kernel32:KERNEL32.dll
 0000:fffc2000       .debug$S                   0000000180000000     kernel32:KERNEL32.dll
 0000:fffc2000       .debug$S                   0000000180000000     kernel32:KERNEL32.dll
 0000:fffc2000       .debug$S                   0000000180000000     kernel32:KERNEL32.dll
 0000:fffc2000       .debug$S                   0000000180000000     kernel32:KERNEL32.dll
 0000:fffc2000       .debug$S                   0000000180000000     kernel32:KERNEL32.dll
 0000:fffc2000       .debug$S                   0000000180000000     kernel32:KERNEL32.dll
 0000:fffc2000       .debug$S                   0000000180000000     kernel32:KERNEL32.dll
 0000:fffc2000       .debug$S                   0000000180000000     kernel32:KERNEL32.dll
 0000:fffc2000       .debug$S                   0000000180000000     kernel32:KERNEL32.dll
 0000:fffc2000       .debug$S                   0000000180000000     kernel32:KERNEL32.dll
 0000:fffc2000       .debug$S                   0000000180000000     kernel32:KERNEL32.dll
 0000:fffc2000       .debug$S                   0000000180000000     kernel32:KERNEL32.dll
 0000:fffc2000       .debug$S                   0000000180000000     kernel32:KERNEL32.dll
 0000:fffc2000       .debug$S                   0000000180000000     kernel32:KERNEL32.dll
 0000:fffc2000       .debug$S                   0000000180000000     kernel32:KERNEL32.dll
 0000:fffc2000       .debug$S                   0000000180000000     kernel32:KERNEL32.dll
 0000:fffc2000       .debug$S                   0000000180000000     kernel32:KERNEL32.dll
 0000:fffc2000       .debug$S                   0000000180000000     kernel32:KERNEL32.dll
 0000:fffc2000       .debug$S                   0000000180000000     kernel32:KERNEL32.dll
 0000:fffc2000       .debug$S                   0000000180000000     kernel32:KERNEL32.dll
 0000:fffc2000       .debug$S                   0000000180000000     kernel32:KERNEL32.dll
 0000:fffc2000       .debug$S                   0000000180000000     kernel32:KERNEL32.dll
 0000:fffc2000       .debug$S                   0000000180000000     kernel32:KERNEL32.dll
 0000:fffc2000       .debug$S                   0000000180000000     kernel32:KERNEL32.dll
 0000:fffc2000       .debug$S                   0000000180000000     kernel32:KERNEL32.dll
 0000:fffc2000       .debug$S                   0000000180000000     kernel32:KERNEL32.dll
 0000:fffc2000       .debug$S                   0000000180000000     kernel32:KERNEL32.dll
 0000:fffc2000       .debug$S                   0000000180000000     kernel32:KERNEL32.dll
 0000:fffc2000       .debug$S                   0000000180000000     kernel32:KERNEL32.dll
 0000:fffc2000       .debug$S                   0000000180000000     kernel32:KERNEL32.dll
 0000:fffc2000       .debug$S                   0000000180000000     kernel32:KERNEL32.dll
 0000:fffc2000       .debug$S                   0000000180000000     kernel32:KERNEL32.dll
 0000:fffc2000       .debug$S                   0000000180000000     kernel32:KERNEL32.dll
 0000:fffc2000       .debug$S                   0000000180000000     kernel32:KERNEL32.dll
 0000:fffc2000       .debug$S                   0000000180000000     kernel32:KERNEL32.dll
 0000:fffc2000       .debug$S                   0000000180000000     kernel32:KERNEL32.dll
 0000:fffc2000       .debug$S                   0000000180000000     kernel32:KERNEL32.dll
 0000:fffc2000       .debug$S                   0000000180000000     kernel32:KERNEL32.dll
 0000:fffc2000       .debug$S                   0000000180000000     kernel32:KERNEL32.dll
 0000:fffc2000       .debug$S                   0000000180000000     kernel32:KERNEL32.dll
 0000:fffc2000       .debug$S                   0000000180000000     kernel32:KERNEL32.dll
 0000:fffc2000       .debug$S                   0000000180000000     kernel32:KERNEL32.dll
 0000:fffc2000       .debug$S                   0000000180000000     kernel32:KERNEL32.dll
 0000:fffc2000       .debug$S                   0000000180000000     kernel32:KERNEL32.dll
 0000:fffc2000       .debug$S                   0000000180000000     kernel32:KERNEL32.dll
 0000:fffc2000       .debug$S                   0000000180000000     kernel32:KERNEL32.dll
 0000:fffc2000       .debug$S                   0000000180000000     kernel32:KERNEL32.dll
 0000:fffc2000       .debug$S                   0000000180000000     kernel32:KERNEL32.dll
 0000:fffc2000       .debug$S                   0000000180000000     kernel32:KERNEL32.dll
 0000:fffc2000       .debug$S                   0000000180000000     kernel32:KERNEL32.dll
 0000:fffc2000       .debug$S                   0000000180000000     kernel32:KERNEL32.dll
 0000:fffc2000       .debug$S                   0000000180000000     kernel32:KERNEL32.dll
 0000:fffc2000       .debug$S                   0000000180000000     kernel32:KERNEL32.dll
 0000:fffc2000       .debug$S                   0000000180000000     kernel32:KERNEL32.dll
 0000:fffc2000       .debug$S                   0000000180000000     kernel32:KERNEL32.dll
 0000:fffc2000       .debug$S                   0000000180000000     kernel32:KERNEL32.dll
 0000:fffc2000       .debug$S                   0000000180000000     kernel32:KERNEL32.dll
 0000:fffc2000       .debug$S                   0000000180000000     kernel32:KERNEL32.dll
 0000:fffc2000       .debug$S                   0000000180000000     kernel32:KERNEL32.dll
 0000:fffc2000       .debug$S                   0000000180000000     kernel32:KERNEL32.dll
 0000:fffc2000       .debug$S                   0000000180000000     kernel32:KERNEL32.dll
 0000:fffc2000       .debug$S                   0000000180000000     kernel32:KERNEL32.dll
 0000:fffc2000       .debug$S                   0000000180000000     kernel32:KERNEL32.dll
 0000:fffc2000       .debug$S                   0000000180000000     kernel32:KERNEL32.dll
 0000:fffc2000       .debug$S                   0000000180000000     kernel32:KERNEL32.dll
 0000:fffc2000       .debug$S                   0000000180000000     kernel32:KERNEL32.dll
 0000:fffc2000       .debug$S                   0000000180000000     kernel32:KERNEL32.dll
 0000:fffc2000       .debug$S                   0000000180000000     kernel32:KERNEL32.dll
 0000:fffc2000       .debug$S                   0000000180000000     kernel32:KERNEL32.dll
 0000:fffc2000       .debug$S                   0000000180000000     kernel32:KERNEL32.dll
 0000:fffc2000       .debug$S                   0000000180000000     kernel32:KERNEL32.dll
 0000:fffc2000       .debug$S                   0000000180000000     kernel32:KERNEL32.dll
 0000:fffc2000       .debug$S                   0000000180000000     kernel32:KERNEL32.dll
 0000:fffc2000       .debug$S                   0000000180000000     kernel32:KERNEL32.dll
 0000:fffc2000       .debug$S                   0000000180000000     kernel32:KERNEL32.dll
 0000:fffc2000       .debug$S                   0000000180000000     kernel32:KERNEL32.dll
 0000:fffc2000       .debug$S                   0000000180000000     kernel32:KERNEL32.dll
 0000:fffc2000       .debug$S                   0000000180000000     kernel32:KERNEL32.dll
 0000:fffc2000       .debug$S                   0000000180000000     kernel32:KERNEL32.dll
 0000:fffc2000       .debug$S                   0000000180000000     ole32:ole32.dll
 0000:fffc2000       .debug$S                   0000000180000000     ole32:ole32.dll
 0000:fffc2000       .debug$S                   0000000180000000     ole32:ole32.dll
 0000:fffc2000       .debug$S                   0000000180000000     ole32:ole32.dll
 0000:fffc2000       .debug$S                   0000000180000000     ole32:ole32.dll
 0000:fffc2000       .debug$S                   0000000180000000     ole32:ole32.dll
 0000:fffc2000       .debug$S                   0000000180000000     ole32:ole32.dll
 0000:fffc2000       .debug$S                   0000000180000000     ole32:ole32.dll
 0000:fffc2000       .debug$S                   0000000180000000     ole32:ole32.dll
 0000:fffc2000       .debug$S                   0000000180000000     ole32:ole32.dll
 0000:fffc2000       .debug$S                   0000000180000000     ole32:ole32.dll
 0000:fffc2000       .debug$S                   0000000180000000     ole32:ole32.dll
 0000:fffc2000       .debug$S                   0000000180000000     ole32:ole32.dll
 0000:fffc2000       .debug$S                   0000000180000000     ole32:ole32.dll
 0000:fffc2000       .debug$S                   0000000180000000     oleaut32:OLEAUT32.dll
 0000:fffc2000       .debug$S                   0000000180000000     oleaut32:OLEAUT32.dll
 0000:fffc2000       .debug$S                   0000000180000000     oleaut32:OLEAUT32.dll
 0000:fffc2000       .debug$S                   0000000180000000     oleaut32:OLEAUT32.dll
 0000:fffc2000       .debug$S                   0000000180000000     oleaut32:OLEAUT32.dll
 0000:fffc2000       .debug$S                   0000000180000000     oleaut32:OLEAUT32.dll
 0000:fffc2000       .debug$S                   0000000180000000     oleaut32:OLEAUT32.dll
 0000:fffc2000       .debug$S                   0000000180000000     oleaut32:OLEAUT32.dll
 0000:fffc2000       .debug$S                   0000000180000000     oleaut32:OLEAUT32.dll
 0000:fffc2000       .debug$S                   0000000180000000     oleaut32:OLEAUT32.dll
 0000:fffc2000       .debug$S                   0000000180000000     oleaut32:OLEAUT32.dll
 0000:fffc2000       .debug$S                   0000000180000000     oleaut32:OLEAUT32.dll
 0000:fffc2000       .debug$S                   0000000180000000     oleaut32:OLEAUT32.dll
 0000:fffc2000       .debug$S                   0000000180000000     oleaut32:OLEAUT32.dll
 0000:fffc2000       .debug$S                   0000000180000000     oleaut32:OLEAUT32.dll
 0000:fffc2000       .debug$S                   0000000180000000     oleaut32:OLEAUT32.dll
 0000:fffc2000       .debug$S                   0000000180000000     user32:USER32.dll
 0000:fffc2000       .debug$S                   0000000180000000     user32:USER32.dll
 0000:fffc2000       .debug$S                   0000000180000000     user32:USER32.dll
 0000:fffc2000       .debug$S                   0000000180000000     user32:USER32.dll
 0000:fffc2000       .debug$S                   0000000180000000     user32:USER32.dll
 0000:fffc2000       .debug$S                   0000000180000000     user32:USER32.dll
 0000:fffc2000       .debug$S                   0000000180000000     user32:USER32.dll
 0000:fffc2000       .debug$S                   0000000180000000     user32:USER32.dll
 0000:fffc2000       .debug$S                   0000000180000000     user32:USER32.dll
 0000:fffc2000       .debug$S                   0000000180000000     user32:USER32.dll
 0000:fffc2000       .debug$S                   0000000180000000     user32:USER32.dll
 0000:fffc2000       .debug$S                   0000000180000000     user32:USER32.dll
 0000:fffc2000       .debug$S                   0000000180000000     user32:USER32.dll
 0000:fffc2000       .debug$S                   0000000180000000     user32:USER32.dll
 0000:fffc2000       .debug$S                   0000000180000000     user32:USER32.dll
 0000:fffc2000       .debug$S                   0000000180000000     user32:USER32.dll
 0000:fffc2000       .debug$S                   0000000180000000     user32:USER32.dll
 0000:fffc2000       .debug$S                   0000000180000000     user32:USER32.dll
 0000:fffc2000       .debug$S                   0000000180000000     user32:USER32.dll
 0000:fffc2000       .debug$S                   0000000180000000     user32:USER32.dll
 0000:fffc2000       .debug$S                   0000000180000000     user32:USER32.dll
 0000:fffc2000       .debug$S                   0000000180000000     user32:USER32.dll
 0000:fffc2000       .debug$S                   0000000180000000     user32:USER32.dll
 0000:fffc2000       .debug$S                   0000000180000000     user32:USER32.dll
 0000:fffc2000       .debug$S                   0000000180000000     user32:USER32.dll
 0000:fffc2000       .debug$S                   0000000180000000     user32:USER32.dll
 0000:fffc2000       .debug$S                   0000000180000000     user32:USER32.dll
 0000:fffc2000       .debug$S                   0000000180000000     user32:USER32.dll
 0000:fffc2000       .debug$S                   0000000180000000     user32:USER32.dll
 0000:fffc2000       .debug$S                   0000000180000000     user32:USER32.dll
 0000:fffc2000       .debug$S                   0000000180000000     user32:USER32.dll
 0000:fffc2000       .debug$S                   0000000180000000     user32:USER32.dll
 0000:fffc2000       .debug$S                   0000000180000000     user32:USER32.dll
 0000:fffc2000       .debug$S                   0000000180000000     user32:USER32.dll
 0000:fffc2000       .debug$S                   0000000180000000     user32:USER32.dll
 0001:00000000       ??__E_AtlComModule@ATL@@YAXXZ 0000000180001000 f   OposVariant.obj
 0001:00000020       ??__E_AtlWinModule@ATL@@YAXXZ 0000000180001020 f   OposVariant.obj
 0001:00000040       ??__E?pConnMap@?$IConnectionPointContainerImpl@VCOPOSGate@@@ATL@@0PEBU_ATL_CONNMAP_ENTRY@2@EB@@YAXXZ 0000000180001040 f   Gate.obj
 0001:00000058       ??__E_Module@@YAXXZ        0000000180001058 f   Gate.obj
 0001:00000094       ??__E_AtlBaseModule@ATL@@YAXXZ 0000000180001094 f   atls:atlbase.obj
 0001:0000dc50       ?__scrt_initialize_thread_safe_statics@@YAHXZ 000000018000ec50 f   LIBCMT:thread_safe_statics.obj
 0001:0000dd20       ?__scrt_uninitialize_thread_safe_statics@@YAXXZ 000000018000ed20 f   LIBCMT:thread_safe_statics.obj
 0001:0000e070       capture_current_context    000000018000f070 f   LIBCMT:gs_report.obj
 0001:0000e0e0       capture_previous_context   000000018000f0e0 f   LIBCMT:gs_report.obj
 0001:0000e280       $$000000                   000000018000f280     LIBCMT:chkstk.obj
 0001:0000e2e0       $$000000                   000000018000f2e0     LIBCMT:amdsecgs.obj
 0001:0000e310       ?dllmain_crt_dispatch@@YAHQEAUHINSTANCE__@@KQEAX@Z 000000018000f310 f   LIBCMT:dll_dllmain.obj
 0001:0000e360       ?dllmain_crt_process_attach@@YAHQEAUHINSTANCE__@@QEAX@Z 000000018000f360 f   LIBCMT:dll_dllmain.obj
 0001:0000e478       ?dllmain_crt_process_detach@@YAH_N@Z 000000018000f478 f   LIBCMT:dll_dllmain.obj
 0001:0000e4fc       ?dllmain_dispatch@@YAHQEAUHINSTANCE__@@KQEAX@Z 000000018000f4fc f   LIBCMT:dll_dllmain.obj
 0001:0000edc8       ??$GetProcAddressAll@P6AP6A_JPEAUHWND__@@I_K_J@ZPEAUAtlThunkData_t@@@Z@@YAP6AP6A_JPEAUHWND__@@I_K_J@ZPEAUAtlThunkData_t@@@ZPEAP6AP6A_J0I12@Z3@Z@Z 000000018000fdc8 f   atls:atlthunk.obj
 0001:0000edc8       ??$GetProcAddressAll@P6APEAUAtlThunkData_t@@XZ@@YAP6APEAUAtlThunkData_t@@XZPEAP6APEAU0@XZ@Z 000000018000fdc8 f   atls:atlthunk.obj
 0001:0000edc8       ??$GetProcAddressAll@P6AXPEAUAtlThunkData_t@@@Z@@YAP6AXPEAUAtlThunkData_t@@@ZPEAP6AX0@Z@Z 000000018000fdc8 f   atls:atlthunk.obj
 0001:0000edc8       ??$GetProcAddressAll@P6AXPEAUAtlThunkData_t@@PEAX_K@Z@@YAP6AXPEAUAtlThunkData_t@@PEAX_K@ZPEAP6AX012@Z@Z 000000018000fdc8 f   atls:atlthunk.obj
 0001:0000efa0       ?__InitializeThunkPool@@YAHXZ 000000018000ffa0 f   atls:atlthunk.obj
 0001:0000f440       $$000000                   0000000180010440     libvcruntime:memcmp.obj
 0001:0000f520       $$000000                   0000000180010520     libvcruntime:memcpy.obj
 0001:0000fbd0       $$000000                   0000000180010bd0     libvcruntime:memset.obj
 0001:000111e0       $$000000                   00000001800121e0     libvcruntime:notify.obj
 0001:00011460       ??$BuildCatchObjectHelperInternal@V__FrameHandler3@@@@YAHPEAUEHExceptionRecord@@PEAXPEBU_s_HandlerType@@PEBU_s_CatchableType@@@Z 0000000180012460 f   libvcruntime:frame.obj
 0001:00011660       ??$BuildCatchObjectHelperInternal@V__FrameHandler4@@@@YAHPEAUEHExceptionRecord@@PEAXPEAUHandlerType4@FH4@@PEBU_s_CatchableType@@@Z 0000000180012660 f   libvcruntime:frame.obj
 0001:00011864       ??$BuildCatchObjectInternal@V__FrameHandler3@@@@YAXPEAUEHExceptionRecord@@PEAXPEBU_s_HandlerType@@PEBU_s_CatchableType@@@Z 0000000180012864 f   libvcruntime:frame.obj
 0001:00011924       ??$BuildCatchObjectInternal@V__FrameHandler4@@@@YAXPEAUEHExceptionRecord@@PEAXPEAUHandlerType4@FH4@@PEBU_s_CatchableType@@@Z 0000000180012924 f   libvcruntime:frame.obj
 0001:000119e8       ??$CatchIt@V__FrameHandler3@@@@YAXPEAUEHExceptionRecord@@PEA_KPEAU_CONTEXT@@PEAU_xDISPATCHER_CONTEXT@@PEBU_s_FuncInfo@@PEBU_s_HandlerType@@PEBU_s_CatchableType@@PEBU_s_TryBlockMapEntry@@H1EE@Z 00000001800129e8 f   libvcruntime:frame.obj
 0001:00011abc       ??$CatchIt@V__FrameHandler4@@@@YAXPEAUEHExceptionRecord@@PEA_KPEAU_CONTEXT@@PEAU_xDISPATCHER_CONTEXT@@PEAUFuncInfo4@FH4@@PEAUHandlerType4@4@PEBU_s_CatchableType@@PEAUTryBlockMapEntry4@4@H1EE@Z 0000000180012abc f   libvcruntime:frame.obj
 0001:00011b90       ??$FindHandler@V__FrameHandler3@@@@YAXPEAUEHExceptionRecord@@PEA_KPEAU_CONTEXT@@PEAU_xDISPATCHER_CONTEXT@@PEBU_s_FuncInfo@@EH1@Z 0000000180012b90 f   libvcruntime:frame.obj
 0001:00012068       ??$FindHandler@V__FrameHandler4@@@@YAXPEAUEHExceptionRecord@@PEA_KPEAU_CONTEXT@@PEAU_xDISPATCHER_CONTEXT@@PEAUFuncInfo4@FH4@@EH1@Z 0000000180013068 f   libvcruntime:frame.obj
 0001:00012564       ??$FindHandlerForForeignException@V__FrameHandler3@@@@YAXPEAUEHExceptionRecord@@PEA_KPEAU_CONTEXT@@PEAU_xDISPATCHER_CONTEXT@@PEBU_s_FuncInfo@@HH1@Z 0000000180013564 f   libvcruntime:frame.obj
 0001:00012780       ??$FindHandlerForForeignException@V__FrameHandler4@@@@YAXPEAUEHExceptionRecord@@PEA_KPEAU_CONTEXT@@PEAU_xDISPATCHER_CONTEXT@@PEAUFuncInfo4@FH4@@HH1@Z 0000000180013780 f   libvcruntime:frame.obj
 0001:00013940       ?ExFilterRethrow@@YAHPEAU_EXCEPTION_POINTERS@@PEAUEHExceptionRecord@@PEAH@Z 0000000180014940 f   libvcruntime:frame.obj
 0001:000139c8       ?ExFilterRethrowFH4@@YAHPEAU_EXCEPTION_POINTERS@@PEAUEHExceptionRecord@@HPEAH@Z 00000001800149c8 f   libvcruntime:frame.obj
 0001:00013f18       ?IsInExceptionSpec@@YAEPEAUEHExceptionRecord@@PEBU_s_ESTypeList@@@Z 0000000180014f18 f   libvcruntime:frame.obj
 0001:00014008       ?Is_bad_exception_allowed@@YAEPEBU_s_ESTypeList@@@Z 0000000180015008 f   libvcruntime:frame.obj
 0001:000142e4       ?try_get_function@@YAPEAXW4function_id@?A0xbc0cc709@@QEBDQEBW4module_id@2@2@Z 00000001800152e4 f   libvcruntime:winapi_downlevel.obj
 0001:000145d0       $$000000                   00000001800155d0     libvcruntime:handlers.obj
 0001:00014ffc       ??$common_vsprintf@Vformat_validation_base@__crt_stdio_output@@_W@@YAH_KQEA_W0QEB_WAEAV__crt_cached_ptd_host@@QEAD@Z 0000000180015ffc f   libucrt:output.obj
 0001:0001774c       ??$?RV<lambda_d80eeec6fff315bfe5c115232f3240e3>@@AEAV<lambda_6e4b09c48022b2350581041d5f6b0c4c>@@V<lambda_2358e3775559c9db80273638284d5e45>@@@?$__crt_seh_guarded_call@X@@QEAAX$$QEAV<lambda_d80eeec6fff315bfe5c115232f3240e3>@@AEAV<lambda_6e4b09c48022b2350581041d5f6b0c4c>@@$$QEAV<lambda_2358e3775559c9db80273638284d5e45>@@@Z 000000018001874c f   libucrt:exit.obj
 0001:00017784       ??R<lambda_6e4b09c48022b2350581041d5f6b0c4c>@@QEBA@XZ 0000000180018784 f   libucrt:exit.obj
 0001:00017850       ?common_exit@@YAXHW4_crt_exit_cleanup_mode@@W4_crt_exit_return_mode@@@Z 0000000180018850 f   libucrt:exit.obj
 0001:00017918       ?exit_or_terminate_process@@YAXI@Z 0000000180018918 f   libucrt:exit.obj
 0001:0001794c       ?should_call_terminate_process@@YA_NXZ 000000018001894c f   libucrt:exit.obj
 0001:0001797c       ?try_cor_exit_process@@YAXI@Z 000000018001897c f   libucrt:exit.obj
 0001:00017a18       ??$parse_command_line@D@@YAXPEADPEAPEAD0PEA_K2@Z 0000000180018a18 f   libucrt:argv_parsing.obj
 0001:00017dc0       ??$common_initialize_environment_nolock@D@@YAHXZ 0000000180018dc0 f   libucrt:environment_initialization.obj
 0001:00017e34       ??$create_environment@D@@YAQEAPEADQEAD@Z 0000000180018e34 f   libucrt:environment_initialization.obj
 0001:00017f44       ??$free_environment@D@@YAXQEAPEAD@Z 0000000180018f44 f   libucrt:environment_initialization.obj
 0001:00017f44       ??$free_environment@_W@@YAXQEAPEA_W@Z 0000000180018f44 f   libucrt:environment_initialization.obj
 0001:00017f88       ??$uninitialize_environment_internal@D@@YAXAEAPEAPEAD@Z 0000000180018f88 f   libucrt:environment_initialization.obj
 0001:00017fa4       ??$uninitialize_environment_internal@_W@@YAXAEAPEAPEA_W@Z 0000000180018fa4 f   libucrt:environment_initialization.obj
 0001:0001800c       ??$?RV<lambda_638799b9deba96c50f710eeac98168cd>@@AEAV<lambda_22ebabd17bc4fa466a2aca6d8deb888d>@@V<lambda_a6f7d7db0129f75315ebf26d50c089f1>@@@?$__crt_seh_guarded_call@H@@QEAAH$$QEAV<lambda_638799b9deba96c50f710eeac98168cd>@@AEAV<lambda_22ebabd17bc4fa466a2aca6d8deb888d>@@$$QEAV<lambda_a6f7d7db0129f75315ebf26d50c089f1>@@@Z 000000018001900c f   libucrt:onexit.obj
 0001:00018048       ??$?RV<lambda_7777bce6b2f8c936911f934f8298dc43>@@AEAV<lambda_f03950bc5685219e0bcd2087efbe011e>@@V<lambda_3883c3dff614d5e0c5f61bb1ac94921c>@@@?$__crt_seh_guarded_call@H@@QEAAH$$QEAV<lambda_7777bce6b2f8c936911f934f8298dc43>@@AEAV<lambda_f03950bc5685219e0bcd2087efbe011e>@@$$QEAV<lambda_3883c3dff614d5e0c5f61bb1ac94921c>@@@Z 0000000180019048 f   libucrt:onexit.obj
 0001:00018084       ??R<lambda_22ebabd17bc4fa466a2aca6d8deb888d>@@QEBAHXZ 0000000180019084 f   libucrt:onexit.obj
 0001:00018234       ??R<lambda_f03950bc5685219e0bcd2087efbe011e>@@QEBAHXZ 0000000180019234 f   libucrt:onexit.obj
 0001:00018418       initialize_global_variables 0000000180019418 f   libucrt:initialization.obj
 0001:0001842c       initialize_c               000000018001942c f   libucrt:initialization.obj
 0001:00018450       initialize_environment     0000000180019450 f   libucrt:initialization.obj
 0001:00018450       initialize_global_state_isolation 0000000180019450 f   libucrt:initialization.obj
 0001:00018450       report_memory_leaks        0000000180019450 f   libucrt:initialization.obj
 0001:00018450       uninitialize_c             0000000180019450 f   libucrt:initialization.obj
 0001:00018450       uninitialize_global_state_isolation 0000000180019450 f   libucrt:initialization.obj
 0001:00018454       uninitialize_environment   0000000180019454 f   libucrt:initialization.obj
 0001:00018464       initialize_pointers        0000000180019464 f   libucrt:initialization.obj
 0001:000184a4       uninitialize_vcruntime     00000001800194a4 f   libucrt:initialization.obj
 0001:000184ac       uninitialize_allocated_memory 00000001800194ac f   libucrt:initialization.obj
 0001:000184ec       uninitialize_allocated_io_buffers 00000001800194ec f   libucrt:initialization.obj
 0001:000187b0       $$000000                   00000001800197b0     libucrt:strncmp.obj
 0001:000188a8       ??$?RV<lambda_0ae27a3a962d80f24befdcbee591983d>@@AEAV<lambda_8d0ee55de4b1038c4002e0adecdf1839>@@V<lambda_dc504788e8f1664fe9b84e20bfb512f2>@@@?$__crt_seh_guarded_call@X@@QEAAX$$QEAV<lambda_0ae27a3a962d80f24befdcbee591983d>@@AEAV<lambda_8d0ee55de4b1038c4002e0adecdf1839>@@$$QEAV<lambda_dc504788e8f1664fe9b84e20bfb512f2>@@@Z 00000001800198a8 f   libucrt:per_thread_data.obj
 0001:000188e8       ??$?RV<lambda_2d41944a1d46af3157314b8a01080d33>@@AEAV<lambda_8f455de75cd7d7f24b4096f044d8b9e6>@@V<lambda_aa500f224e6afead328df44964fe2772>@@@?$__crt_seh_guarded_call@X@@QEAAX$$QEAV<lambda_2d41944a1d46af3157314b8a01080d33>@@AEAV<lambda_8f455de75cd7d7f24b4096f044d8b9e6>@@$$QEAV<lambda_aa500f224e6afead328df44964fe2772>@@@Z 00000001800198e8 f   libucrt:per_thread_data.obj
 0001:00018928       ??$?RV<lambda_aa87e3671a710a21b5dc78c0bdf72e11>@@AEAV<lambda_92619d2358a28f41a33ba319515a20b9>@@V<lambda_6992ecaafeb10aed2b74cb1fae11a551>@@@?$__crt_seh_guarded_call@X@@QEAAX$$QEAV<lambda_aa87e3671a710a21b5dc78c0bdf72e11>@@AEAV<lambda_92619d2358a28f41a33ba319515a20b9>@@$$QEAV<lambda_6992ecaafeb10aed2b74cb1fae11a551>@@@Z 0000000180019928 f   libucrt:per_thread_data.obj
 0001:00018970       ??$?RV<lambda_f2e299630e499de9f9a165e60fcd3db5>@@AEAV<lambda_2ae9d31cdba2644fcbeaf08da7c24588>@@V<lambda_40d01ff24d0e7b3814fdbdcee8eab3c7>@@@?$__crt_seh_guarded_call@X@@QEAAX$$QEAV<lambda_f2e299630e499de9f9a165e60fcd3db5>@@AEAV<lambda_2ae9d31cdba2644fcbeaf08da7c24588>@@$$QEAV<lambda_40d01ff24d0e7b3814fdbdcee8eab3c7>@@@Z 0000000180019970 f   libucrt:per_thread_data.obj
 0001:000189d0       ?construct_ptd_array@@YAXQEAU__acrt_ptd@@@Z 00000001800199d0 f   libucrt:per_thread_data.obj
 0001:00018aa0       ?destroy_fls@@YAXPEAX@Z    0000000180019aa0 f   libucrt:per_thread_data.obj
 0001:00018ac0       ?destroy_ptd_array@@YAXQEAU__acrt_ptd@@@Z 0000000180019ac0 f   libucrt:per_thread_data.obj
 0001:00018bb8       ?replace_current_thread_locale_nolock@@YAXQEAU__acrt_ptd@@QEAU__crt_locale_data@@@Z 0000000180019bb8 f   libucrt:per_thread_data.obj
 0001:00018fc4       ??$?RV<lambda_410d79af7f07d98d83a3f525b3859a53>@@AEAV<lambda_3e16ef9562a7dcce91392c22ab16ea36>@@V<lambda_38119f0e861e05405d8a144b9b982f0a>@@@?$__crt_seh_guarded_call@X@@QEAAX$$QEAV<lambda_410d79af7f07d98d83a3f525b3859a53>@@AEAV<lambda_3e16ef9562a7dcce91392c22ab16ea36>@@$$QEAV<lambda_38119f0e861e05405d8a144b9b982f0a>@@@Z 0000000180019fc4 f   libucrt:wsetlocale.obj
 0001:00019200       ?try_get_function@@YAPEAXW4function_id@?A0x391cf84c@@QEBDQEBW4module_id@2@2@Z 000000018001a200 f   libucrt:winapi_thunks.obj
 0001:0001999c       ?fp_format_a@@YAHQEBNPEAD_KQEAD2H_NIW4__acrt_rounding_mode@@AEAV__crt_cached_ptd_host@@@Z 000000018001a99c f   libucrt:cvt.obj
 0001:00019d50       ?fp_format_e@@YAHQEBNQEAD_K12H_NIW4__acrt_rounding_mode@@AEAV__crt_cached_ptd_host@@@Z 000000018001ad50 f   libucrt:cvt.obj
 0001:00019e4c       ?fp_format_e_internal@@YAHQEAD_KH_NIQEAU_strflt@@2AEAV__crt_cached_ptd_host@@@Z 000000018001ae4c f   libucrt:cvt.obj
 0001:0001a030       ?fp_format_f@@YAHQEBNQEAD_K12HW4__acrt_rounding_mode@@AEAV__crt_cached_ptd_host@@@Z 000000018001b030 f   libucrt:cvt.obj
 0001:0001a108       ?fp_format_f_internal@@YAHQEAD_KHQEAU_strflt@@_NAEAV__crt_cached_ptd_host@@@Z 000000018001b108 f   libucrt:cvt.obj
 0001:0001a260       ?fp_format_g@@YAHQEBNQEAD_K12H_NIW4__acrt_rounding_mode@@AEAV__crt_cached_ptd_host@@@Z 000000018001b260 f   libucrt:cvt.obj
 0001:0001a3b4       ?should_round_up@@YA_NQEBN_KFW4__acrt_rounding_mode@@@Z 000000018001b3b4 f   libucrt:cvt.obj
 0001:0001ab00       ?initialize_inherited_file_handles_nolock@@YAXXZ 000000018001bb00 f   libucrt:ioinit.obj
 0001:0001abf0       ?initialize_stdio_handles_nolock@@YAXXZ 000000018001bbf0 f   libucrt:ioinit.obj
 0001:0001ae68       ?<lambda_invoker_cdecl>@<lambda_a1ce4c8ae42411fd470c77163914f50e>@@CAHPEBX0@Z 000000018001be68 f   libucrt:argv_wildcards.obj
 0001:0001b184       ??$common_expand_argv_wildcards@D@@YAHQEAPEADQEAPEAPEAD@Z 000000018001c184 f   libucrt:argv_wildcards.obj
 0001:0001b3c8       ??$copy_and_add_argument_to_buffer@D@@YAHQEBD0_KAEAV?$argument_list@D@?A0x5f5c8891@@@Z 000000018001c3c8 f   libucrt:argv_wildcards.obj
 0001:0001b550       ??$expand_argument_wildcards@D@@YAHQEAD0AEAV?$argument_list@D@?A0x5f5c8891@@@Z 000000018001c550 f   libucrt:argv_wildcards.obj
 0001:0001bb84       ??$?RV<lambda_efdfa57d1f175319df784efa44bb7b81>@@AEAV<lambda_5f0a4c1567f8adc6734073e5d1e1b35c>@@V<lambda_2e8a7d3640ea6ccb4c2413664c2db6fd>@@@?$__crt_seh_guarded_call@X@@QEAAX$$QEAV<lambda_efdfa57d1f175319df784efa44bb7b81>@@AEAV<lambda_5f0a4c1567f8adc6734073e5d1e1b35c>@@$$QEAV<lambda_2e8a7d3640ea6ccb4c2413664c2db6fd>@@@Z 000000018001cb84 f   libucrt:mbctype.obj
 0001:0001bd54       ?getSystemCP@@YAHH@Z       000000018001cd54 f   libucrt:mbctype.obj
 0001:0001bdd4       ?setSBCS@@YAXPEAU__crt_multibyte_data@@@Z 000000018001cdd4 f   libucrt:mbctype.obj
 0001:0001be6c       ?setSBUpLow@@YAXPEAU__crt_multibyte_data@@@Z 000000018001ce6c f   libucrt:mbctype.obj
 0001:0001c054       ?setmbcp_internal@@YAHH_NQEAU__acrt_ptd@@QEAPEAU__crt_multibyte_data@@@Z 000000018001d054 f   libucrt:mbctype.obj
 0001:0001c2c4       ?update_thread_multibyte_data_internal@@YAPEAU__crt_multibyte_data@@QEAU__acrt_ptd@@QEAPEAU1@@Z 000000018001d2c4 f   libucrt:mbctype.obj
 0001:0001c6b8       ?x_ismbbtype_l@@YAHPEAU__crt_locale_pointers@@IHH@Z 000000018001d6b8 f   libucrt:ismbbyte.obj
 0001:0001ca88       ??$?RV<lambda_450d765d439847d4c735a33c368b5fc0>@@AEAV<lambda_44731a7d0e6d81c3e6aa82d741081786>@@V<lambda_601a2a7da3b7a96e9554ac7215c4b07c>@@@?$__crt_seh_guarded_call@P6AXH@Z@@QEAAP6AXH@Z$$QEAV<lambda_450d765d439847d4c735a33c368b5fc0>@@AEAV<lambda_44731a7d0e6d81c3e6aa82d741081786>@@$$QEAV<lambda_601a2a7da3b7a96e9554ac7215c4b07c>@@@Z 000000018001da88 f   libucrt:signal.obj
 0001:0001ce00       ??$?RV<lambda_842d9ff0dc9ef11c61343bbaebe7f885>@@AEAV<lambda_c5860995281e5c4ce005b3de8f5874ee>@@V<lambda_d90129c13df834fdcbf8d2b88dafcf2d>@@@?$__crt_seh_guarded_call@X@@QEAAX$$QEAV<lambda_842d9ff0dc9ef11c61343bbaebe7f885>@@AEAV<lambda_c5860995281e5c4ce005b3de8f5874ee>@@$$QEAV<lambda_d90129c13df834fdcbf8d2b88dafcf2d>@@@Z 000000018001de00 f   libucrt:fflush.obj
 0001:0001ce9c       ??$?RV<lambda_886d6c58226a84441f68b9f2b8217b83>@@AEAV<lambda_ab61a845afdef5b7c387490eaf3616ee>@@V<lambda_f7f22ab5edc0698d5f6905b0d3f44752>@@@?$__crt_seh_guarded_call@X@@QEAAX$$QEAV<lambda_886d6c58226a84441f68b9f2b8217b83>@@AEAV<lambda_ab61a845afdef5b7c387490eaf3616ee>@@$$QEAV<lambda_f7f22ab5edc0698d5f6905b0d3f44752>@@@Z 000000018001de9c f   libucrt:fflush.obj
 0001:0001cf7c       ?common_flush_all@@YAH_N@Z 000000018001df7c f   libucrt:fflush.obj
 0001:0001d6c8       ?free_crt_array_internal@@YAXQEAPEBX_K@Z 000000018001e6c8 f   libucrt:inittime.obj
 0001:0001f2ac       memcpy_s                   00000001800202ac f   libucrt:cfout.obj
 0001:0001feb0       fallbackMethod             0000000180020eb0 f   libucrt:strpbrk.obj
 0001:0002025c       $LN78                      000000018002125c     libucrt:strpbrk.obj
 0001:00020298       $LN77                      0000000180021298     libucrt:strpbrk.obj
 0001:000202d8       $LN76                      00000001800212d8     libucrt:strpbrk.obj
 0001:000203b4       ?__acrt_LCMapStringA_stat@@YAHPEAU__crt_locale_pointers@@PEB_WKPEBDHPEADHHH@Z 00000001800213b4 f   libucrt:lcmapstringa.obj
 0001:0002076c       ?initialize_multibyte@@YAHXZ 000000018002176c f   libucrt:multibyte_initializer.obj
 0001:00020784       ??$?RV<lambda_a37b2b86f63e897a80ea819b0eb08c01>@@AEAV<lambda_38ce7e780aa69e748d6df282ebc68efe>@@V<lambda_99fb1378e971ab6e7edea83e3a7a83a2>@@@?$__crt_seh_guarded_call@H@@QEAAH$$QEAV<lambda_a37b2b86f63e897a80ea819b0eb08c01>@@AEAV<lambda_38ce7e780aa69e748d6df282ebc68efe>@@$$QEAV<lambda_99fb1378e971ab6e7edea83e3a7a83a2>@@@Z 0000000180021784 f   libucrt:commit.obj
 0001:000208a4       ?write_double_translated_ansi_nolock@@YA?AUwrite_result@?A0x17268360@@HQEBDIAEAV__crt_cached_ptd_host@@@Z 00000001800218a4 f   libucrt:write.obj
 0001:00020d30       ?write_text_ansi_nolock@@YA?AUwrite_result@?A0x17268360@@HQEBDI@Z 0000000180021d30 f   libucrt:write.obj
 0001:00020e34       ?write_text_utf16le_nolock@@YA?AUwrite_result@?A0x17268360@@HQEBDI@Z 0000000180021e34 f   libucrt:write.obj
 0001:00020f50       ?write_text_utf8_nolock@@YA?AUwrite_result@?A0x17268360@@HQEBDI@Z 0000000180021f50 f   libucrt:write.obj
 0001:00021730       $$000000                   0000000180022730     libucrt:log10.obj
 0001:000221cc       ?_fclose_internal@@YAHQEAU_iobuf@@AEAV__crt_cached_ptd_host@@@Z 00000001800231cc f   libucrt:fclose.obj
 0001:00022248       ?_fclose_nolock_internal@@YAHQEAU_iobuf@@AEAV__crt_cached_ptd_host@@@Z 0000000180023248 f   libucrt:fclose.obj
 0001:00022384       ??$common_lseek_nolock@_J@@YA_JH_JHAEAV__crt_cached_ptd_host@@@Z 0000000180023384 f   libucrt:lseek.obj
 0001:0002250c       common_control87           000000018002350c f   libucrt:ieee.obj
 0001:000227cc       _call_matherr              00000001800237cc f   libucrt:libm_error.obj
 0001:00022834       _exception_enabled         0000000180023834 f   libucrt:libm_error.obj
 0001:00022ad0       _log_special_common        0000000180023ad0 f   libucrt:log_special.obj
 0001:00022b68       ??$?RV<lambda_ad8af0d99a0adf03d037d7dffe354bb5>@@AEAV<lambda_c9ba49e555ba839a7b07aa3fbecb7617>@@V<lambda_2f1ebd5d68526518146ae959c9e734c8>@@@?$__crt_seh_guarded_call@H@@QEAAH$$QEAV<lambda_ad8af0d99a0adf03d037d7dffe354bb5>@@AEAV<lambda_c9ba49e555ba839a7b07aa3fbecb7617>@@$$QEAV<lambda_2f1ebd5d68526518146ae959c9e734c8>@@@Z 0000000180023b68 f   libucrt:close.obj
 0001:00022ec0       $$000000                   0000000180023ec0     libucrt:fpsr.obj
 0001:00023640       $$000000                   0000000180024640     LIBCMT:guard_dispatch.obj
 0001:00023660       $$000000                   0000000180024660     LIBCMT:guard_xfg_dispatch.obj
 0001:00023680       ?filt$0@?0??_AtlVerifyStackAvailable@_ATL_SAFE_ALLOCA_IMPL@ATL@@YA_N_K@Z@4HA 0000000180024680 f   Gate.obj
 0001:000236a1       __scrt_is_nonwritable_in_current_image$filt$0 00000001800246a1 f   LIBCMT:utility.obj
 0001:000236b9       ?catch$0@?0???2@YAPEAX_KAEBUnothrow_t@std@@@Z@4HA 00000001800246b9 f   LIBCMT:new_scalar_nothrow.obj
 0001:000236c6       __catch$??2@YAPEAX_KAEBUnothrow_t@std@@@Z$0 00000001800246c6 f   LIBCMT:new_scalar_nothrow.obj
 0001:000236d7       ?fin$0@?0??dllmain_crt_process_attach@@YAHQEAUHINSTANCE__@@QEAX@Z@4HA 00000001800246d7 f   LIBCMT:dll_dllmain.obj
 0001:000236ee       ?fin$0@?0??dllmain_crt_process_detach@@YAH_N@Z@4HA 00000001800246ee f   LIBCMT:dll_dllmain.obj
 0001:00023707       ?fin$1@?0??dllmain_crt_process_detach@@YAH_N@Z@4HA 0000000180024707 f   LIBCMT:dll_dllmain.obj
 0001:0002371b       ?filt$0@?0??dllmain_dispatch@@YAHQEAUHINSTANCE__@@KQEAX@Z@4HA 000000018002471b f   LIBCMT:dll_dllmain.obj
 0001:00023751       ?filt$0@?0???$_CallSETranslator@V__FrameHandler3@@@@YAHPEAUEHExceptionRecord@@PEA_KPEAU_CONTEXT@@PEAU_xDISPATCHER_CONTEXT@@PEBU_s_FuncInfo@@K1H@Z@4HA 0000000180024751 f   libvcruntime:risctrnsctrl.obj
 0001:000237e2       ?filt$0@?0???$_CallSETranslator@V__FrameHandler4@@@@YAHPEAUEHExceptionRecord@@PEA_KPEAU_CONTEXT@@PEAU_xDISPATCHER_CONTEXT@@PEAUFuncInfo4@FH4@@K1H@Z@4HA 00000001800247e2 f   libvcruntime:risctrnsctrl.obj
 0001:00023881       __DestructExceptionObject$filt$0 0000000180024881 f   libvcruntime:ehhelpers.obj
 0001:00023917       ?filt$0@?0??CxxCallCatchBlock@__FrameHandler3@@SAPEAXPEAU_EXCEPTION_RECORD@@@Z@4HA 0000000180024917 f   libvcruntime:frame.obj
 0001:0002393c       ?fin$1@?0??CxxCallCatchBlock@__FrameHandler3@@SAPEAXPEAU_EXCEPTION_RECORD@@@Z@4HA 000000018002493c f   libvcruntime:frame.obj
 0001:000239c2       ?filt$0@?0??CxxCallCatchBlock@__FrameHandler4@@SAPEAXPEAU_EXCEPTION_RECORD@@@Z@4HA 00000001800249c2 f   libvcruntime:frame.obj
 0001:000239f1       ?fin$1@?0??CxxCallCatchBlock@__FrameHandler4@@SAPEAXPEAU_EXCEPTION_RECORD@@@Z@4HA 00000001800249f1 f   libvcruntime:frame.obj
 0001:00023a82       ?filt$0@?0??FrameUnwindToState@__FrameHandler3@@SAXPEA_KPEAU_xDISPATCHER_CONTEXT@@PEBU_s_FuncInfo@@H@Z@4HA 0000000180024a82 f   libvcruntime:frame.obj
 0001:00023a98       ?fin$1@?0??FrameUnwindToState@__FrameHandler3@@SAXPEA_KPEAU_xDISPATCHER_CONTEXT@@PEBU_s_FuncInfo@@H@Z@4HA 0000000180024a98 f   libvcruntime:frame.obj
 0001:00023abb       ?filt$0@?0??FrameUnwindToState@__FrameHandler4@@SAXPEA_KPEAU_xDISPATCHER_CONTEXT@@PEAUFuncInfo4@FH4@@H@Z@4HA 0000000180024abb f   libvcruntime:frame.obj
 0001:00023ad1       ?fin$1@?0??FrameUnwindToState@__FrameHandler4@@SAXPEA_KPEAU_xDISPATCHER_CONTEXT@@PEAUFuncInfo4@FH4@@H@Z@4HA 0000000180024ad1 f   libvcruntime:frame.obj
 0001:00023af4       ?fin$0@?0???$?RV<lambda_0ae27a3a962d80f24befdcbee591983d>@@AEAV<lambda_8d0ee55de4b1038c4002e0adecdf1839>@@V<lambda_dc504788e8f1664fe9b84e20bfb512f2>@@@?$__crt_seh_guarded_call@X@@QEAAX$$QEAV<lambda_0ae27a3a962d80f24befdcbee591983d>@@AEAV<lambda_8d0ee55de4b1038c4002e0adecdf1839>@@$$QEAV<lambda_dc504788e8f1664fe9b84e20bfb512f2>@@@Z@4HA 0000000180024af4 f   libucrt:per_thread_data.obj
 0001:00023af4       ?fin$0@?0???$?RV<lambda_2d41944a1d46af3157314b8a01080d33>@@AEAV<lambda_8f455de75cd7d7f24b4096f044d8b9e6>@@V<lambda_aa500f224e6afead328df44964fe2772>@@@?$__crt_seh_guarded_call@X@@QEAAX$$QEAV<lambda_2d41944a1d46af3157314b8a01080d33>@@AEAV<lambda_8f455de75cd7d7f24b4096f044d8b9e6>@@$$QEAV<lambda_aa500f224e6afead328df44964fe2772>@@@Z@4HA 0000000180024af4 f   libucrt:per_thread_data.obj
 0001:00023af4       ?fin$0@?0???$?RV<lambda_aa87e3671a710a21b5dc78c0bdf72e11>@@AEAV<lambda_92619d2358a28f41a33ba319515a20b9>@@V<lambda_6992ecaafeb10aed2b74cb1fae11a551>@@@?$__crt_seh_guarded_call@X@@QEAAX$$QEAV<lambda_aa87e3671a710a21b5dc78c0bdf72e11>@@AEAV<lambda_92619d2358a28f41a33ba319515a20b9>@@$$QEAV<lambda_6992ecaafeb10aed2b74cb1fae11a551>@@@Z@4HA 0000000180024af4 f   libucrt:per_thread_data.obj
 0001:00023af4       ?fin$0@?0???$?RV<lambda_f2e299630e499de9f9a165e60fcd3db5>@@AEAV<lambda_2ae9d31cdba2644fcbeaf08da7c24588>@@V<lambda_40d01ff24d0e7b3814fdbdcee8eab3c7>@@@?$__crt_seh_guarded_call@X@@QEAAX$$QEAV<lambda_f2e299630e499de9f9a165e60fcd3db5>@@AEAV<lambda_2ae9d31cdba2644fcbeaf08da7c24588>@@$$QEAV<lambda_40d01ff24d0e7b3814fdbdcee8eab3c7>@@@Z@4HA 0000000180024af4 f   libucrt:per_thread_data.obj
 0001:00023af4       ?fin$0@?0???$?RV<lambda_450d765d439847d4c735a33c368b5fc0>@@AEAV<lambda_44731a7d0e6d81c3e6aa82d741081786>@@V<lambda_601a2a7da3b7a96e9554ac7215c4b07c>@@@?$__crt_seh_guarded_call@P6AXH@Z@@QEAAP6AXH@Z$$QEAV<lambda_450d765d439847d4c735a33c368b5fc0>@@AEAV<lambda_44731a7d0e6d81c3e6aa82d741081786>@@$$QEAV<lambda_601a2a7da3b7a96e9554ac7215c4b07c>@@@Z@4HA 0000000180024af4 f   libucrt:signal.obj
 0001:00023af4       ?fin$0@?0???$?RV<lambda_d80eeec6fff315bfe5c115232f3240e3>@@AEAV<lambda_6e4b09c48022b2350581041d5f6b0c4c>@@V<lambda_2358e3775559c9db80273638284d5e45>@@@?$__crt_seh_guarded_call@X@@QEAAX$$QEAV<lambda_d80eeec6fff315bfe5c115232f3240e3>@@AEAV<lambda_6e4b09c48022b2350581041d5f6b0c4c>@@$$QEAV<lambda_2358e3775559c9db80273638284d5e45>@@@Z@4HA 0000000180024af4 f   libucrt:exit.obj
 0001:00023af4       ?fin$0@?0???$?RV<lambda_638799b9deba96c50f710eeac98168cd>@@AEAV<lambda_22ebabd17bc4fa466a2aca6d8deb888d>@@V<lambda_a6f7d7db0129f75315ebf26d50c089f1>@@@?$__crt_seh_guarded_call@H@@QEAAH$$QEAV<lambda_638799b9deba96c50f710eeac98168cd>@@AEAV<lambda_22ebabd17bc4fa466a2aca6d8deb888d>@@$$QEAV<lambda_a6f7d7db0129f75315ebf26d50c089f1>@@@Z@4HA 0000000180024af4 f   libucrt:onexit.obj
 0001:00023af4       ?fin$0@?0???$?RV<lambda_7777bce6b2f8c936911f934f8298dc43>@@AEAV<lambda_f03950bc5685219e0bcd2087efbe011e>@@V<lambda_3883c3dff614d5e0c5f61bb1ac94921c>@@@?$__crt_seh_guarded_call@H@@QEAAH$$QEAV<lambda_7777bce6b2f8c936911f934f8298dc43>@@AEAV<lambda_f03950bc5685219e0bcd2087efbe011e>@@$$QEAV<lambda_3883c3dff614d5e0c5f61bb1ac94921c>@@@Z@4HA 0000000180024af4 f   libucrt:onexit.obj
 0001:00023b0e       ?filt$0@?0???R<lambda_6e4b09c48022b2350581041d5f6b0c4c>@@QEBA@XZ@4HA 0000000180024b0e f   libucrt:exit.obj
 0001:00023b3b       _query_new_handler$fin$0   0000000180024b3b f   libucrt:new_handler.obj
 0001:00023b51       ?fin$0@?0???$?RV<lambda_410d79af7f07d98d83a3f525b3859a53>@@AEAV<lambda_3e16ef9562a7dcce91392c22ab16ea36>@@V<lambda_38119f0e861e05405d8a144b9b982f0a>@@@?$__crt_seh_guarded_call@X@@QEAAX$$QEAV<lambda_410d79af7f07d98d83a3f525b3859a53>@@AEAV<lambda_3e16ef9562a7dcce91392c22ab16ea36>@@$$QEAV<lambda_38119f0e861e05405d8a144b9b982f0a>@@@Z@4HA 0000000180024b51 f   libucrt:wsetlocale.obj
 0001:00023b6b       __acrt_initialize_lowio$fin$0 0000000180024b6b f   libucrt:ioinit.obj
 0001:00023b6b       __acrt_lowio_ensure_fh_exists$fin$0 0000000180024b6b f   libucrt:osfinfo.obj
 0001:00023b84       ?fin$0@?0???$?RV<lambda_efdfa57d1f175319df784efa44bb7b81>@@AEAV<lambda_5f0a4c1567f8adc6734073e5d1e1b35c>@@V<lambda_2e8a7d3640ea6ccb4c2413664c2db6fd>@@@?$__crt_seh_guarded_call@X@@QEAAX$$QEAV<lambda_efdfa57d1f175319df784efa44bb7b81>@@AEAV<lambda_5f0a4c1567f8adc6734073e5d1e1b35c>@@$$QEAV<lambda_2e8a7d3640ea6ccb4c2413664c2db6fd>@@@Z@4HA 0000000180024b84 f   libucrt:mbctype.obj
 0001:00023b9e       ?fin$0@?0??update_thread_multibyte_data_internal@@YAPEAU__crt_multibyte_data@@QEAU__acrt_ptd@@QEAPEAU1@@Z@4HA 0000000180024b9e f   libucrt:mbctype.obj
 0001:00023bb7       raise$fin$0                0000000180024bb7 f   libucrt:signal.obj
 0001:00023bd8       ?fin$0@?0???$?RV<lambda_842d9ff0dc9ef11c61343bbaebe7f885>@@AEAV<lambda_c5860995281e5c4ce005b3de8f5874ee>@@V<lambda_d90129c13df834fdcbf8d2b88dafcf2d>@@@?$__crt_seh_guarded_call@X@@QEAAX$$QEAV<lambda_842d9ff0dc9ef11c61343bbaebe7f885>@@AEAV<lambda_c5860995281e5c4ce005b3de8f5874ee>@@$$QEAV<lambda_d90129c13df834fdcbf8d2b88dafcf2d>@@@Z@4HA 0000000180024bd8 f   libucrt:fflush.obj
 0001:00023bf3       ?fin$0@?0???$?RV<lambda_886d6c58226a84441f68b9f2b8217b83>@@AEAV<lambda_ab61a845afdef5b7c387490eaf3616ee>@@V<lambda_f7f22ab5edc0698d5f6905b0d3f44752>@@@?$__crt_seh_guarded_call@X@@QEAAX$$QEAV<lambda_886d6c58226a84441f68b9f2b8217b83>@@AEAV<lambda_ab61a845afdef5b7c387490eaf3616ee>@@$$QEAV<lambda_f7f22ab5edc0698d5f6905b0d3f44752>@@@Z@4HA 0000000180024bf3 f   libucrt:fflush.obj
 0001:00023c10       __acrt_update_thread_locale_data$fin$0 0000000180024c10 f   libucrt:locale_refcounting.obj
 0001:00023c29       _fcloseall$fin$0           0000000180024c29 f   libucrt:closeall.obj
 0001:00023c42       ?fin$0@?0???$?RV<lambda_ad8af0d99a0adf03d037d7dffe354bb5>@@AEAV<lambda_c9ba49e555ba839a7b07aa3fbecb7617>@@V<lambda_2f1ebd5d68526518146ae959c9e734c8>@@@?$__crt_seh_guarded_call@H@@QEAAH$$QEAV<lambda_ad8af0d99a0adf03d037d7dffe354bb5>@@AEAV<lambda_c9ba49e555ba839a7b07aa3fbecb7617>@@$$QEAV<lambda_2f1ebd5d68526518146ae959c9e734c8>@@@Z@4HA 0000000180024c42 f   libucrt:close.obj
 0001:00023c42       ?fin$0@?0???$?RV<lambda_a37b2b86f63e897a80ea819b0eb08c01>@@AEAV<lambda_38ce7e780aa69e748d6df282ebc68efe>@@V<lambda_99fb1378e971ab6e7edea83e3a7a83a2>@@@?$__crt_seh_guarded_call@H@@QEAAH$$QEAV<lambda_a37b2b86f63e897a80ea819b0eb08c01>@@AEAV<lambda_38ce7e780aa69e748d6df282ebc68efe>@@$$QEAV<lambda_99fb1378e971ab6e7edea83e3a7a83a2>@@@Z@4HA 0000000180024c42 f   libucrt:commit.obj
 0001:00023c5c       _write_internal$fin$0      0000000180024c5c f   libucrt:write.obj
 0001:00023c73       ?fin$0@?0??_fclose_internal@@YAHQEAU_iobuf@@AEAV__crt_cached_ptd_host@@@Z@4HA 0000000180024c73 f   libucrt:fclose.obj
 0001:00023c8b       _ctrlfp$filt$0             0000000180024c8b f   libucrt:fpctrl.obj
 0001:00023c8b       common_control87$filt$0    0000000180024c8b f   libucrt:ieee.obj
 0001:00023cc0       _IsNonwritableInCurrentImage$filt$0 0000000180024cc0 f   LIBCMT:pesect.obj
 0001:00023ce0       ??__F_AtlComModule@ATL@@YAXXZ 0000000180024ce0 f   OposVariant.obj
 0001:00023cec       ??__F_AtlWinModule@ATL@@YAXXZ 0000000180024cec f   OposVariant.obj
 0001:00023d30       ??__F_Module@@YAXXZ        0000000180024d30 f   Gate.obj
 0001:00023d4c       ??__F_AtlBaseModule@ATL@@YAXXZ 0000000180024d4c f   atls:atlbase.obj
 0002:00000670       ?_AtlBaseModule$initializer$@ATL@@3P6AXXZEA 0000000180025670     atls:atlbase.obj
 0002:00000678       ?_AtlComModule$initializer$@ATL@@3P6AXXZEA 0000000180025678     OposVariant.obj
 0002:00000680       ?_AtlWinModule$initializer$@ATL@@3P6AXXZEA 0000000180025680     OposVariant.obj
 0002:00000688       ?_Module$initializer$@@3P6AXXZEA 0000000180025688     Gate.obj
 0002:00000690       ??pConnMap$initializer$@?$IConnectionPointContainerImpl@VCOPOSGate@@@ATL@@0P6AXXZEA@@3P6AXXZEA 0000000180025690     Gate.obj
 0002:000006a8       ?__scrt_initialize_tss_var@@3P6AHXZEA 00000001800256a8     LIBCMT:thread_safe_statics.obj
 0002:00002548       GS_ExceptionPointers       0000000180027548     LIBCMT:gs_report.obj
 0002:00002730       ?ExceptionTemplate@?1??UnwindNestedFrames@__FrameHandler4@@SAXPEA_KPEAUEHExceptionRecord@@PEAU_CONTEXT@@0PEAXPEAUFuncInfo4@FH4@@HHPEAUHandlerType4@6@PEAU_xDISPATCHER_CONTEXT@@E@Z@4U_EXCEPTION_RECORD@@B 0000000180027730     libvcruntime:risctrnsctrl.obj
 0002:000027d0       ?ExceptionTemplate@?1??UnwindNestedFrames@__FrameHandler3@@SAXPEA_KPEAUEHExceptionRecord@@PEAU_CONTEXT@@0PEAXPEBU_s_FuncInfo@@HHPEBU_s_HandlerType@@PEAU_xDISPATCHER_CONTEXT@@E@Z@4U_EXCEPTION_RECORD@@B 00000001800277d0     libvcruntime:risctrnsctrl.obj
 0002:000028a0       ?tokenTable@@3QBUStringLiteral@@B 00000001800278a0     libvcruntime:undname.obj
 0002:000029b0       ?nameTable@@3QBUStringLiteral@@B 00000001800279b0     libvcruntime:undname.obj
 0002:00002ee0       ?rttiTable@@3QBUStringLiteral@@B 0000000180027ee0     libvcruntime:undname.obj
 0002:00002f30       ?IndirectionName@@3QBUStringLiteral@@B 0000000180027f30     libvcruntime:undname.obj
 0002:00002f90       ?PrefixName@@3QBUStringLiteral@@B 0000000180027f90     libvcruntime:undname.obj
 0002:00003678       ?module_names@?A0xbc0cc709@@3QBQEB_WB 0000000180028678     libvcruntime:winapi_downlevel.obj
 0002:00003738       ?candidate_modules@?1??try_get_FlsAlloc@@YAP6AKP6AXPEAX@Z@ZXZ@4QBW4module_id@?A0xbc0cc709@@B 0000000180028738     libvcruntime:winapi_downlevel.obj
 0002:00003750       ?candidate_modules@?1??try_get_FlsFree@@YAP6AHK@ZXZ@4QBW4module_id@?A0xbc0cc709@@B 0000000180028750     libvcruntime:winapi_downlevel.obj
 0002:00003760       ?candidate_modules@?1??try_get_FlsGetValue@@YAP6APEAXK@ZXZ@4QBW4module_id@?A0xbc0cc709@@B 0000000180028760     libvcruntime:winapi_downlevel.obj
 0002:00003778       ?candidate_modules@?1??try_get_FlsSetValue@@YAP6AHKPEAX@ZXZ@4QBW4module_id@?A0xbc0cc709@@B 0000000180028778     libvcruntime:winapi_downlevel.obj
 0002:00003790       ?candidate_modules@?1??try_get_InitializeCriticalSectionEx@@YAP6AHPEAU_RTL_CRITICAL_SECTION@@KK@ZXZ@4QBW4module_id@?A0xbc0cc709@@B 0000000180028790     libvcruntime:winapi_downlevel.obj
 0002:000037c0       ?errtable@@3QBUerrentry@?A0x31fdb9ec@@B 00000001800287c0     libucrt:errno.obj
 0002:00003b28       $cppxdata$?try_cor_exit_process@@YAXI@Z 0000000180028b28     libucrt:exit.obj
 0002:00003b50       $cppxdata$?common_exit@@YAXHW4_crt_exit_cleanup_mode@@W4_crt_exit_return_mode@@@Z 0000000180028b50     libucrt:exit.obj
 0002:00003ba0       $cppxdata$__dcrt_uninitialize_environments_nolock 0000000180028ba0     libucrt:environment_initialization.obj
 0002:00003bc8       $cppxdata$_execute_onexit_table 0000000180028bc8     libucrt:onexit.obj
 0002:00003bf0       __acrt_initializers        0000000180028bf0     libucrt:initialization.obj
 0002:00004370       ?module_names@?A0x391cf84c@@3QBQEB_WB 0000000180029370     libucrt:winapi_thunks.obj
 0002:00004878       ?candidate_modules@?1??try_get_AreFileApisANSI@@YAP6AHXZXZ@4QBW4module_id@?A0x391cf84c@@B 0000000180029878     libucrt:winapi_thunks.obj
 0002:00004890       ?candidate_modules@?1??try_get_InitializeCriticalSectionEx@@YAP6AHPEAU_RTL_CRITICAL_SECTION@@KK@ZXZ@4QBW4module_id@?A0x391cf84c@@B 0000000180029890     libucrt:winapi_thunks.obj
 0002:00004898       ?candidate_modules@?1??try_get_LCMapStringEx@@YAP6AHPEB_WK0HPEA_WHPEAU_nlsversioninfo@@PEAX_J@ZXZ@4QBW4module_id@?A0x391cf84c@@B 0000000180029898     libucrt:winapi_thunks.obj
 0002:000048b0       ?candidate_modules@?1??try_get_LocaleNameToLCID@@YAP6AKPEB_WK@ZXZ@4QBW4module_id@?A0x391cf84c@@B 00000001800298b0     libucrt:winapi_thunks.obj
 0002:000048cc       ?candidate_modules@?1??try_get_AppPolicyGetProcessTerminationMethod@@YAP6AJPEAXPEAW4AppPolicyProcessTerminationMethod@@@ZXZ@4QBW4module_id@?A0x391cf84c@@B 00000001800298cc     libucrt:winapi_thunks.obj
 0002:000048f8       ?candidate_modules@?1??try_get_SetThreadStackGuarantee@@YAP6AHPEAK@ZXZ@4QBW4module_id@?A0x391cf84c@@B 00000001800298f8     libucrt:winapi_thunks.obj
 0002:00004920       ?strings@?1??fp_format_nan_or_infinity@@YAHW4__acrt_fp_class@@_NPEAD_K1@Z@4QAY03QEBDA 0000000180029920     libucrt:cvt.obj
 0002:000049f8       ?_mb_locale_names@@3QBQEB_WB 00000001800299f8     libucrt:mbctype.obj
 0002:00005070       ?LcidToLocaleNameTable@?A0x881e4c05@@3QBULcidToLocaleName@1@B 000000018002a070     libucrt:lcidtoname_downlevel.obj
 0002:00006ac0       ?LocaleNameToIndexTable@?A0x881e4c05@@3QBULocaleNameIndex@1@B 000000018002bac0     libucrt:lcidtoname_downlevel.obj
 0002:00008d50       $cppxdata$?write_double_translated_ansi_nolock@@YA?AUwrite_result@?A0x17268360@@HQEBDIAEAV__crt_cached_ptd_host@@@Z 000000018002dd50     libucrt:write.obj
 0002:00008d80       __real_ninf                000000018002dd80     libucrt:log10.obj
 0002:00008d90       __real_inf                 000000018002dd90     libucrt:log10.obj
 0002:00008da0       __real_neg_qnan            000000018002dda0     libucrt:log10.obj
 0002:00008db0       __real_qnanbit             000000018002ddb0     libucrt:log10.obj
 0002:00008dc0       __int_1023                 000000018002ddc0     libucrt:log10.obj
 0002:00008dd0       __mask_001                 000000018002ddd0     libucrt:log10.obj
 0002:00008de0       __mask_mant                000000018002dde0     libucrt:log10.obj
 0002:00008df0       __mask_mant_top8           000000018002ddf0     libucrt:log10.obj
 0002:00008e00       __mask_mant9               000000018002de00     libucrt:log10.obj
 0002:00008e10       __real_log10_e             000000018002de10     libucrt:log10.obj
 0002:00008e20       __real_log10_e_lead        000000018002de20     libucrt:log10.obj
 0002:00008e30       __real_log10_e_tail        000000018002de30     libucrt:log10.obj
 0002:00008e40       __real_log10_2_lead        000000018002de40     libucrt:log10.obj
 0002:00008e50       __real_log10_2_tail        000000018002de50     libucrt:log10.obj
 0002:00008e60       __real_two                 000000018002de60     libucrt:log10.obj
 0002:00008e70       __real_one                 000000018002de70     libucrt:log10.obj
 0002:00008e80       __real_half                000000018002de80     libucrt:log10.obj
 0002:00008e90       __mask_100                 000000018002de90     libucrt:log10.obj
 0002:00008ea0       __real_1_over_512          000000018002dea0     libucrt:log10.obj
 0002:00008eb0       __real_1_over_2            000000018002deb0     libucrt:log10.obj
 0002:00008ec0       __real_1_over_3            000000018002dec0     libucrt:log10.obj
 0002:00008ed0       __real_1_over_4            000000018002ded0     libucrt:log10.obj
 0002:00008ee0       __real_1_over_5            000000018002dee0     libucrt:log10.obj
 0002:00008ef0       __real_1_over_6            000000018002def0     libucrt:log10.obj
 0002:00008f00       __real_neg_1023            000000018002df00     libucrt:log10.obj
 0002:00008f10       __mask_2045                000000018002df10     libucrt:log10.obj
 0002:00008f20       __real_threshold           000000018002df20     libucrt:log10.obj
 0002:00008f30       __real_near_one_lt         000000018002df30     libucrt:log10.obj
 0002:00008f40       __real_near_one_gt         000000018002df40     libucrt:log10.obj
 0002:00008f50       __real_min_norm            000000018002df50     libucrt:log10.obj
 0002:00008f60       __real_notsign             000000018002df60     libucrt:log10.obj
 0002:00008f70       __real_ca1                 000000018002df70     libucrt:log10.obj
 0002:00008f80       __real_ca2                 000000018002df80     libucrt:log10.obj
 0002:00008f90       __real_ca3                 000000018002df90     libucrt:log10.obj
 0002:00008fa0       __real_ca4                 000000018002dfa0     libucrt:log10.obj
 0002:00008fb0       __mask_lower               000000018002dfb0     libucrt:log10.obj
 0002:00008fc0       __flag_x_zero              000000018002dfc0     libucrt:log10.obj
 0002:00008fc4       __flag_x_neg               000000018002dfc4     libucrt:log10.obj
 0002:00008fc8       __flag_x_nan               000000018002dfc8     libucrt:log10.obj
 0002:0000a820       __real@433fffffffffffff    000000018002f820     libucrt:fpsr.obj
 0002:0000a828       __real@c33fffffffffffff    000000018002f828     libucrt:fpsr.obj
 0002:0000b148       $unwind$?cw_memcpy@@YAHPEA_WPEBDH@Z 0000000180030148     CWString.obj
 0002:0000b148       $unwind$_invalid_parameter_noinfo 0000000180030148     libucrt:invalid_parameter.obj
 0002:0000b148       $unwind$?state_case_size@?$output_processor@_WV?$string_output_adapter@_W@__crt_stdio_output@@V?$format_validation_base@_WV?$string_output_adapter@_W@__crt_stdio_output@@@2@@__crt_stdio_output@@AEAA_NXZ 0000000180030148     libucrt:output.obj
 0002:0000b148       $unwind$_log10_special     0000000180030148     libucrt:log_special.obj
 0002:0000b150       $unwind$?cw_strcpy@@YAHPEA_WPEBD@Z 0000000180030150     CWString.obj
 0002:0000b150       $unwind$??__E?pConnMap@?$IConnectionPointContainerImpl@VCOPOSGate@@@ATL@@0PEBU_ATL_CONNMAP_ENTRY@2@EB@@YAXXZ 0000000180030150     Gate.obj
 0002:0000b150       $unwind$?AddReplacement@CRegObject@ATL@@UEAAJPEB_W0@Z 0000000180030150     Gate.obj
 0002:0000b150       $unwind$?AtlHresultFromLastError@ATL@@YAJXZ 0000000180030150     Gate.obj
 0002:0000b150       $unwind$?AtlThrowImpl@ATL@@YAXJ@Z 0000000180030150     Gate.obj
 0002:0000b150       $unwind$?CreateInstance@CComClassFactory@ATL@@UEAAJPEAUIUnknown@@AEBU_GUID@@PEAPEAX@Z 0000000180030150     Gate.obj
 0002:0000b150       $unwind$?DefaultReflectionHandler@?$CWindowImplRoot@VCWindow@ATL@@@ATL@@SAHPEAUHWND__@@I_K_JAEA_J@Z 0000000180030150     Gate.obj
 0002:0000b150       $unwind$?EnumAdvise@?$IOleObjectImpl@VCOPOSGate@@@ATL@@UEAAJPEAPEAUIEnumSTATDATA@@@Z 0000000180030150     Gate.obj
 0002:0000b150       $unwind$?FireViewChange@CComControlBase@ATL@@QEAAJXZ 0000000180030150     Gate.obj
 0002:0000b150       $unwind$?GetAdvise@?$IViewObjectExImpl@VCOPOSGate@@@ATL@@UEAAJPEAK0PEAPEAUIAdviseSink@@@Z 0000000180030150     Gate.obj
 0002:0000b150       $unwind$?LockServer@CComClassFactory@ATL@@UEAAJH@Z 0000000180030150     Gate.obj
 0002:0000b150       $unwind$?OnDocWindowActivate@?$IOleInPlaceActiveObjectImpl@VCOPOSGate@@@ATL@@UEAAJH@Z 0000000180030150     Gate.obj
 0002:0000b150       $unwind$?Unadvise@?$IOleObjectImpl@VCOPOSGate@@@ATL@@UEAAJK@Z 0000000180030150     Gate.obj
 0002:0000b150       $unwind$?_LocCPQueryInterface@?$IConnectionPointImpl@VCOPOSGate@@$1?DIID__IOPOSGateEvents@@3U_GUID@@BVCComDynamicUnkArray@ATL@@@ATL@@UEAAJAEBU_GUID@@PEAPEAX@Z 0000000180030150     Gate.obj
 0002:0000b150       $unwind$?_LocCPQueryInterface@?$IConnectionPointImpl@VCOPOSGate@@$1?IID_IPropertyNotifySink@@3U_GUID@@BVCComDynamicUnkArray@ATL@@@ATL@@UEAAJAEBU_GUID@@PEAPEAX@Z 0000000180030150     Gate.obj
 0002:0000b150       $unwind$?FinalConstruct@COPOSGate@@QEAAJXZ 0000000180030150     GateImpl.obj
 0002:0000b150       $unwind$?get_ResultCode@COPOSGate@@UEAAJPEAJ@Z 0000000180030150     GateImpl.obj
 0002:0000b150       $unwind$?get_State@COPOSGate@@UEAAJPEAJ@Z 0000000180030150     GateImpl.obj
 0002:0000b150       $unwind$??1OposDispParms@@QEAA@XZ 0000000180030150     OposVariant.obj
 0002:0000b150       $unwind$??__E_AtlComModule@ATL@@YAXXZ 0000000180030150     OposVariant.obj
 0002:0000b150       $unwind$??__E_AtlWinModule@ATL@@YAXXZ 0000000180030150     OposVariant.obj
 0002:0000b150       $unwind$??__F_AtlWinModule@ATL@@YAXXZ 0000000180030150     OposVariant.obj
 0002:0000b150       $unwind$?GetLONG@OposVariant@@QEAAJXZ 0000000180030150     OposVariant.obj
 0002:0000b150       $unwind$__dcrt_terminate_console_output 0000000180030150     libucrt:initcon.obj
 0002:0000b150       $unwind$??$uninitialize_environment_internal@D@@YAXAEAPEAPEAD@Z 0000000180030150     libucrt:environment_initialization.obj
 0002:0000b150       $unwind$??$uninitialize_environment_internal@_W@@YAXAEAPEAPEA_W@Z 0000000180030150     libucrt:environment_initialization.obj
 0002:0000b150       $unwind$__acrt_initialize_heap 0000000180030150     libucrt:heap_handle.obj
 0002:0000b150       $unwind$_msize_base        0000000180030150     libucrt:msize.obj
 0002:0000b150       $unwind$?initialize_multibyte@@YAHXZ 0000000180030150     libucrt:multibyte_initializer.obj
 0002:0000b150       $unwind$__acrt_thread_attach 0000000180030150     libucrt:initialization.obj
 0002:0000b150       $unwind$__acrt_thread_detach 0000000180030150     libucrt:initialization.obj
 0002:0000b150       $unwind$__acrt_uninitialize 0000000180030150     libucrt:initialization.obj
 0002:0000b150       $unwind$__acrt_uninitialize_critical 0000000180030150     libucrt:initialization.obj
 0002:0000b150       $unwind$initialize_c       0000000180030150     libucrt:initialization.obj
 0002:0000b150       $unwind$uninitialize_allocated_io_buffers 0000000180030150     libucrt:initialization.obj
 0002:0000b150       $unwind$uninitialize_environment 0000000180030150     libucrt:initialization.obj
 0002:0000b150       $unwind$__acrt_initialize_ptd 0000000180030150     libucrt:per_thread_data.obj
 0002:0000b150       $unwind$__acrt_uninitialize_ptd 0000000180030150     libucrt:per_thread_data.obj
 0002:0000b150       $unwind$__acrt_AreFileApisANSI 0000000180030150     libucrt:winapi_thunks.obj
 0002:0000b150       $unwind$__acrt_release_locale_ref 0000000180030150     libucrt:locale_refcounting.obj
 0002:0000b150       $unwind$_isatty            0000000180030150     libucrt:isatty.obj
 0002:0000b150       $unwind$_get_osfhandle     0000000180030150     libucrt:osfinfo.obj
 0002:0000b150       $unwind$__acrt_initialize_multibyte 0000000180030150     libucrt:mbctype.obj
 0002:0000b150       $unwind$__acrt_update_thread_multibyte_data 0000000180030150     libucrt:mbctype.obj
 0002:0000b150       $unwind$__doserrno         0000000180030150     libucrt:errno.obj
 0002:0000b150       $unwind$_errno             0000000180030150     libucrt:errno.obj
 0002:0000b150       $unwind$_invoke_watson     0000000180030150     libucrt:invalid_parameter.obj
 0002:0000b150       $unwind$abort              0000000180030150     libucrt:abort.obj
 0002:0000b150       $unwind$__acrt_initialize_command_line 0000000180030150     libucrt:argv_data.obj
 0002:0000b150       $unwind$?should_call_terminate_process@@YA_NXZ 0000000180030150     libucrt:exit.obj
 0002:0000b150       $unwind$_fileno            0000000180030150     libucrt:fileno.obj
 0002:0000b150       $unwind$_statfp            0000000180030150     libucrt:fpctrl.obj
 0002:0000b150       $unwind$fegetround         0000000180030150     libucrt:fegetround.obj
 0002:0000b150       $unwind$_set_errno_from_matherr 0000000180030150     libucrt:fpexcept.obj
 0002:0000b150       $unwind$??__E_AtlBaseModule@ATL@@YAXXZ 0000000180030150     atls:atlbase.obj
 0002:0000b150       $unwind$__scrt_initialize_default_local_stdio_options 0000000180030150     LIBCMT:default_local_stdio_options.obj
 0002:0000b150       $unwind$?dllmain_crt_dispatch@@YAHQEAUHINSTANCE__@@KQEAX@Z 0000000180030150     LIBCMT:dll_dllmain.obj
 0002:0000b150       $unwind$__report_rangecheckfailure 0000000180030150     LIBCMT:gs_report.obj
 0002:0000b150       $unwind$__GSHandlerCheck   0000000180030150     LIBCMT:gshandler.obj
 0002:0000b150       $unwind$?__scrt_uninitialize_thread_safe_statics@@YAXXZ 0000000180030150     LIBCMT:thread_safe_statics.obj
 0002:0000b150       $unwind$_Init_thread_notify 0000000180030150     LIBCMT:thread_safe_statics.obj
 0002:0000b150       $unwind$__scrt_acquire_startup_lock 0000000180030150     LIBCMT:utility.obj
 0002:0000b150       $unwind$__scrt_dllmain_after_initialize_c 0000000180030150     LIBCMT:utility.obj
 0002:0000b150       $unwind$__scrt_dllmain_before_initialize_c 0000000180030150     LIBCMT:utility.obj
 0002:0000b150       $unwind$__scrt_dllmain_crt_thread_attach 0000000180030150     LIBCMT:utility.obj
 0002:0000b150       $unwind$__scrt_dllmain_crt_thread_detach 0000000180030150     LIBCMT:utility.obj
 0002:0000b150       $unwind$__scrt_dllmain_uninitialize_c 0000000180030150     LIBCMT:utility.obj
 0002:0000b150       $unwind$__scrt_dllmain_uninitialize_critical 0000000180030150     LIBCMT:utility.obj
 0002:0000b150       $unwind$atexit             0000000180030150     LIBCMT:utility.obj
 0002:0000b150       $unwind$__std_terminate    0000000180030150     libvcruntime:ehhelpers.obj
 0002:0000b150       $unwind$?GetCurrentState@__FrameHandler3@@SAHPEA_KPEAU_xDISPATCHER_CONTEXT@@PEBU_s_FuncInfo@@@Z 0000000180030150     libvcruntime:ehstate.obj
 0002:0000b150       $unwind$__vcrt_initialize  0000000180030150     libvcruntime:initialization.obj
 0002:0000b150       $unwind$__vcrt_thread_attach 0000000180030150     libvcruntime:initialization.obj
 0002:0000b150       $unwind$__vcrt_thread_detach 0000000180030150     libvcruntime:initialization.obj
 0002:0000b150       $unwind$__vcrt_uninitialize 0000000180030150     libvcruntime:initialization.obj
 0002:0000b150       $unwind$__vcrt_uninitialize_critical 0000000180030150     libvcruntime:initialization.obj
 0002:0000b150       $unwind$__vcrt_freefls     0000000180030150     libvcruntime:per_thread_data.obj
 0002:0000b150       $unwind$__vcrt_getptd      0000000180030150     libvcruntime:per_thread_data.obj
 0002:0000b150       $unwind$__vcrt_initialize_ptd 0000000180030150     libvcruntime:per_thread_data.obj
 0002:0000b150       $unwind$__vcrt_uninitialize_ptd 0000000180030150     libvcruntime:per_thread_data.obj
 0002:0000b150       $unwind$_purecall          0000000180030150     libvcruntime:purevirt.obj
 0002:0000b150       $unwind$?FrameUnwindToEmptyState@__FrameHandler4@@SAXPEA_KPEAU_xDISPATCHER_CONTEXT@@PEAUFuncInfo4@FH4@@@Z 0000000180030150     libvcruntime:risctrnsctrl.obj
 0002:0000b150       $unwind$_GetImageBase      0000000180030150     libvcruntime:risctrnsctrl.obj
 0002:0000b150       $unwind$_GetThrowImageBase 0000000180030150     libvcruntime:risctrnsctrl.obj
 0002:0000b158       $unwind$?cw_dup@@YAXPEBDAEAHAEAPEA_W1@Z 0000000180030158     CWString.obj
 0002:0000b158       $unwind$?DAdvise@?$IDataObjectImpl@VCOPOSGate@@@ATL@@UEAAJPEAUtagFORMATETC@@KPEAUIAdviseSink@@PEAK@Z 0000000180030158     Gate.obj
 0002:0000b158       $unwind$??$create_environment@D@@YAQEAPEADQEAD@Z 0000000180030158     libucrt:environment_initialization.obj
 0002:0000b158       $unwind$_mbtowc_internal   0000000180030158     libucrt:mbtowc.obj
 0002:0000b158       $unwind$??$__acrt_convert_wcs_mbs_cp@D_WV<lambda_7c9dea7b4ca7285d2cdb541a38da6275>@@U__crt_win32_buffer_internal_dynamic_resizing@@@@YAHQEBDAEAV?$__crt_win32_buffer@_WU__crt_win32_buffer_internal_dynamic_resizing@@@@AEBV<lambda_7c9dea7b4ca7285d2cdb541a38da6275>@@I@Z 0000000180030158     libucrt:argv_wildcards.obj
 0002:0000b158       $unwind$?process@?$output_processor@_WV?$string_output_adapter@_W@__crt_stdio_output@@V?$format_validation_base@_WV?$string_output_adapter@_W@__crt_stdio_output@@@2@@__crt_stdio_output@@QEAAHXZ 0000000180030158     libucrt:output.obj
 0002:0000b170       $unwind$?DupWide@_CW@@AEAAXXZ 0000000180030170     CWString.obj
 0002:0000b170       $unwind$??0?$CComObject@VCOPOSGate@@@ATL@@QEAA@PEAX@Z 0000000180030170     Gate.obj
 0002:0000b170       $unwind$??0CAtlModule@ATL@@QEAA@XZ 0000000180030170     Gate.obj
 0002:0000b170       $unwind$??1?$CComObject@VCOPOSGate@@@ATL@@UEAA@XZ 0000000180030170     Gate.obj
 0002:0000b170       $unwind$??__E_Module@@YAXXZ 0000000180030170     Gate.obj
 0002:0000b170       $unwind$?AddRef@?$CComObjectCached@VCComClassFactory@ATL@@@ATL@@UEAAKXZ 0000000180030170     Gate.obj
 0002:0000b170       $unwind$?AllocateHeap@?$CTempBuffer@E$0BAA@VCCRTAllocator@ATL@@@ATL@@AEAAX_K@Z 0000000180030170     Gate.obj
 0002:0000b170       $unwind$?AllocateHeap@?$CTempBuffer@_W$0BAA@VCCRTAllocator@ATL@@@ATL@@AEAAX_K@Z 0000000180030170     Gate.obj
 0002:0000b170       $unwind$?AllocateHeap@?$CTempBuffer@_W$0EAA@VCCRTAllocator@ATL@@@ATL@@AEAAX_K@Z 0000000180030170     Gate.obj
 0002:0000b170       $unwind$?GetClassInfoW@?$IProvideClassInfo2Impl@$1?CLSID_OPOSGate@@3U_GUID@@B$1?DIID__IOPOSGateEvents@@3U2@B$1?LIBID_OposGate_CCO@@3U2@B$00$0A@VCComTypeInfoHolder@ATL@@@ATL@@UEAAJPEAPEAUITypeInfo@@@Z 0000000180030170     Gate.obj
 0002:0000b170       $unwind$?GetClientSite@?$IOleObjectImpl@VCOPOSGate@@@ATL@@UEAAJPEAPEAUIOleClientSite@@@Z 0000000180030170     Gate.obj
 0002:0000b170       $unwind$?GetConnMap@COPOSGate@@SAPEBU_ATL_CONNMAP_ENTRY@ATL@@PEAH@Z 0000000180030170     Gate.obj
 0002:0000b170       $unwind$?GetTypeInfo@?$IDispatchImpl@UIOPOSGate@@$1?IID_IOPOSGate@@3U_GUID@@B$1?LIBID_OposGate_CCO@@3U3@B$00$0A@VCComTypeInfoHolder@ATL@@@ATL@@UEAAJIKPEAPEAUITypeInfo@@@Z 0000000180030170     Gate.obj
 0002:0000b170       $unwind$?IOleInPlaceObject_InPlaceDeactivate@CComControlBase@ATL@@QEAAJXZ 0000000180030170     Gate.obj
 0002:0000b170       $unwind$?IOleObject_SetExtent@CComControlBase@ATL@@QEAAJKPEAUtagSIZE@@@Z 0000000180030170     Gate.obj
 0002:0000b170       $unwind$?IsEqualObject@?$CComPtrBase@UIOleClientSite@@@ATL@@QEAA_NPEAUIUnknown@@@Z 0000000180030170     Gate.obj
 0002:0000b170       $unwind$?QueryHitPoint@?$IViewObjectExImpl@VCOPOSGate@@@ATL@@UEAAJKPEBUtagRECT@@UtagPOINT@@JPEAK@Z 0000000180030170     Gate.obj
 0002:0000b170       $unwind$?QueryInterface@?$CComAggObject@VCOPOSGate@@@ATL@@UEAAJAEBU_GUID@@PEAPEAX@Z 0000000180030170     Gate.obj
 0002:0000b170       $unwind$?Release@?$CComObjectCached@VCComClassFactory@ATL@@@ATL@@UEAAKXZ 0000000180030170     Gate.obj
 0002:0000b170       $unwind$?Unadvise@?$IConnectionPointImpl@VCOPOSGate@@$1?DIID__IOPOSGateEvents@@3U_GUID@@BVCComDynamicUnkArray@ATL@@@ATL@@UEAAJK@Z 0000000180030170     Gate.obj
 0002:0000b170       $unwind$?Unadvise@?$IConnectionPointImpl@VCOPOSGate@@$1?IID_IPropertyNotifySink@@3U_GUID@@BVCComDynamicUnkArray@ATL@@@ATL@@UEAAJK@Z 0000000180030170     Gate.obj
 0002:0000b170       $unwind$??1CComControlBase@ATL@@UEAA@XZ 0000000180030170     GateImpl.obj
 0002:0000b170       $unwind$??1COPOSGate@@UEAA@XZ 0000000180030170     GateImpl.obj
 0002:0000b170       $unwind$?EventUninit@COPOSGate@@IEAAXXZ 0000000180030170     GateImpl.obj
 0002:0000b170       $unwind$?FreezeEvents@COPOSGate@@MEAAJH@Z 0000000180030170     GateImpl.obj
 0002:0000b170       $unwind$?SOProcessID@COPOSGate@@UEAAJPEAJ@Z 0000000180030170     GateImpl.obj
 0002:0000b170       $unwind$?get_CapCompareFirmwareVersion@COPOSGate@@UEAAJPEAF@Z 0000000180030170     GateImpl.obj
 0002:0000b170       $unwind$?get_CapGateStatus@COPOSGate@@UEAAJPEAF@Z 0000000180030170     GateImpl.obj
 0002:0000b170       $unwind$?get_CapStatisticsReporting@COPOSGate@@UEAAJPEAF@Z 0000000180030170     GateImpl.obj
 0002:0000b170       $unwind$?get_CapUpdateFirmware@COPOSGate@@UEAAJPEAF@Z 0000000180030170     GateImpl.obj
 0002:0000b170       $unwind$?get_CapUpdateStatistics@COPOSGate@@UEAAJPEAF@Z 0000000180030170     GateImpl.obj
 0002:0000b170       $unwind$?get_Claimed@COPOSGate@@UEAAJPEAF@Z 0000000180030170     GateImpl.obj
 0002:0000b170       $unwind$?get_DeviceEnabled@COPOSGate@@UEAAJPEAF@Z 0000000180030170     GateImpl.obj
 0002:0000b170       $unwind$?get_FreezeEvents@COPOSGate@@UEAAJPEAF@Z 0000000180030170     GateImpl.obj
 0002:0000b170       $unwind$?put_FreezeEvents@COPOSGate@@UEAAJF@Z 0000000180030170     GateImpl.obj
 0002:0000b170       $unwind$??0CAtlComModule@ATL@@QEAA@XZ 0000000180030170     OposVariant.obj
 0002:0000b170       $unwind$??0CAtlWinModule@ATL@@QEAA@XZ 0000000180030170     OposVariant.obj
 0002:0000b170       $unwind$_calloc_base       0000000180030170     libucrt:calloc_base.obj
 0002:0000b170       $unwind$_malloc_base       0000000180030170     libucrt:malloc_base.obj
 0002:0000b170       $unwind$_callnewh          0000000180030170     libucrt:new_handler.obj
 0002:0000b170       $unwind$initialize_pointers 0000000180030170     libucrt:initialization.obj
 0002:0000b170       $unwind$uninitialize_allocated_memory 0000000180030170     libucrt:initialization.obj
 0002:0000b170       $unwind$__acrt_initialize_locks 0000000180030170     libucrt:locks.obj
 0002:0000b170       $unwind$__acrt_uninitialize_locks 0000000180030170     libucrt:locks.obj
 0002:0000b170       $unwind$__acrt_freeptd     0000000180030170     libucrt:per_thread_data.obj
 0002:0000b170       $unwind$__acrt_getptd_head 0000000180030170     libucrt:per_thread_data.obj
 0002:0000b170       $unwind$__acrt_get_process_end_policy 0000000180030170     libucrt:win_policies.obj
 0002:0000b170       $unwind$__acrt_AppPolicyGetProcessTerminationMethodInternal 0000000180030170     libucrt:winapi_thunks.obj
 0002:0000b170       $unwind$__acrt_SetThreadStackGuarantee 0000000180030170     libucrt:winapi_thunks.obj
 0002:0000b170       $unwind$__acrt_uninitialize_winapi_thunks 0000000180030170     libucrt:winapi_thunks.obj
 0002:0000b170       $unwind$__acrt_update_locale_info 0000000180030170     libucrt:locale_update.obj
 0002:0000b170       $unwind$__acrt_update_locale_info_explicit 0000000180030170     libucrt:locale_update.obj
 0002:0000b170       $unwind$__acrt_update_multibyte_info 0000000180030170     libucrt:locale_update.obj
 0002:0000b170       $unwind$__acrt_update_multibyte_info_explicit 0000000180030170     libucrt:locale_update.obj
 0002:0000b170       $unwind$__acrt_errno_map_os_error 0000000180030170     libucrt:errno.obj
 0002:0000b170       $unwind$__acrt_errno_map_os_error_ptd 0000000180030170     libucrt:errno.obj
 0002:0000b170       $unwind$__acrt_allocate_buffer_for_argv 0000000180030170     libucrt:argv_parsing.obj
 0002:0000b170       $unwind$?exit_or_terminate_process@@YAXI@Z 0000000180030170     libucrt:exit.obj
 0002:0000b170       $unwind$__acrt_uninitialize_stdio 0000000180030170     libucrt:_file.obj
 0002:0000b170       $unwind$__acrt_stdio_free_buffer_nolock 0000000180030170     libucrt:_freebuf.obj
 0002:0000b170       $unwind$strcpy_s           0000000180030170     libucrt:strcpy_s.obj
 0002:0000b170       $unwind$wcscat_s           0000000180030170     libucrt:wcscat_s.obj
 0002:0000b170       $unwind$wcscpy_s           0000000180030170     libucrt:wcscpy_s.obj
 0002:0000b170       $unwind$_clrfp             0000000180030170     libucrt:fpctrl.obj
 0002:0000b170       $unwind$_set_statfp        0000000180030170     libucrt:fpctrl.obj
 0002:0000b170       $unwind$_clearfp           0000000180030170     libucrt:ieee.obj
 0002:0000b170       $unwind$_controlfp_s       0000000180030170     libucrt:contrlfp.obj
 0002:0000b170       $unwind$fegetenv           0000000180030170     libucrt:fegetenv.obj
 0002:0000b170       $unwind$feholdexcept       0000000180030170     libucrt:feholdexcept.obj
 0002:0000b170       $unwind$fesetenv           0000000180030170     libucrt:fesetenv.obj
 0002:0000b170       $unwind$??1CAtlBaseModule@ATL@@QEAA@XZ 0000000180030170     atls:atlbase.obj
 0002:0000b170       $unwind$AtlThunk_AllocateData 0000000180030170     atls:atlthunk.obj
 0002:0000b170       $unwind$__raise_securityfailure 0000000180030170     LIBCMT:gs_report.obj
 0002:0000b170       $unwind$??2@YAPEAX_K@Z     0000000180030170     LIBCMT:new_scalar.obj
 0002:0000b170       $unwind$??_Gtype_info@@UEAAPEAXI@Z 0000000180030170     LIBCMT:std_type_info_static.obj
 0002:0000b170       $unwind$_Init_thread_footer 0000000180030170     LIBCMT:thread_safe_statics.obj
 0002:0000b170       $unwind$_Init_thread_header 0000000180030170     LIBCMT:thread_safe_statics.obj
 0002:0000b170       $unwind$_Init_thread_wait  0000000180030170     LIBCMT:thread_safe_statics.obj
 0002:0000b170       $unwind$??0bad_alloc@std@@QEAA@AEBV01@@Z 0000000180030170     LIBCMT:throw_bad_alloc.obj
 0002:0000b170       $unwind$??0bad_array_new_length@std@@QEAA@AEBV01@@Z 0000000180030170     LIBCMT:throw_bad_alloc.obj
 0002:0000b170       $unwind$??0exception@std@@QEAA@AEBV01@@Z 0000000180030170     LIBCMT:throw_bad_alloc.obj
 0002:0000b170       $unwind$__scrt_initialize_crt 0000000180030170     LIBCMT:utility.obj
 0002:0000b170       $unwind$__scrt_initialize_onexit_tables 0000000180030170     LIBCMT:utility.obj
 0002:0000b170       $unwind$__scrt_release_startup_lock 0000000180030170     LIBCMT:utility.obj
 0002:0000b170       $unwind$__scrt_uninitialize_crt 0000000180030170     LIBCMT:utility.obj
 0002:0000b170       $unwind$_onexit            0000000180030170     LIBCMT:utility.obj
 0002:0000b170       $unwind$_IsExceptionObjectToBeDestroyed 0000000180030170     libvcruntime:ehhelpers.obj
 0002:0000b170       $unwind$?GetUnwindTryBlock@__FrameHandler3@@SAHPEA_KPEAU_xDISPATCHER_CONTEXT@@PEBU_s_FuncInfo@@@Z 0000000180030170     libvcruntime:ehstate.obj
 0002:0000b170       $unwind$?StateFromIp@__FrameHandler3@@SAHPEBU_s_FuncInfo@@PEAU_xDISPATCHER_CONTEXT@@_K@Z 0000000180030170     libvcruntime:ehstate.obj
 0002:0000b170       $unwind$??0HandlerMap4@FH4@@QEAA@PEBUTryBlockMapEntry4@1@_KH@Z 0000000180030170     libvcruntime:frame.obj
 0002:0000b170       $unwind$??0bad_exception@std@@QEAA@AEBV01@@Z 0000000180030170     libvcruntime:frame.obj
 0002:0000b170       $unwind$__vcrt_initialize_locks 0000000180030170     libvcruntime:locks.obj
 0002:0000b170       $unwind$__vcrt_uninitialize_locks 0000000180030170     libvcruntime:locks.obj
 0002:0000b170       $unwind$__vcrt_freeptd     0000000180030170     libvcruntime:per_thread_data.obj
 0002:0000b170       $unwind$?ExecutionInCatch@__FrameHandler3@@SA_NPEAU_xDISPATCHER_CONTEXT@@PEBU_s_FuncInfo@@@Z 0000000180030170     libvcruntime:risctrnsctrl.obj
 0002:0000b170       $unwind$_CreateFrameInfo   0000000180030170     libvcruntime:risctrnsctrl.obj
 0002:0000b170       $unwind$_SetImageBase      0000000180030170     libvcruntime:risctrnsctrl.obj
 0002:0000b170       $unwind$_SetThrowImageBase 0000000180030170     libvcruntime:risctrnsctrl.obj
 0002:0000b170       $unwind$__std_exception_destroy 0000000180030170     libvcruntime:std_exception.obj
 0002:0000b170       $unwind$__std_type_info_destroy_list 0000000180030170     libvcruntime:std_type_info.obj
 0002:0000b170       $unwind$__vcrt_FlsAlloc    0000000180030170     libvcruntime:winapi_downlevel.obj
 0002:0000b170       $unwind$__vcrt_FlsFree     0000000180030170     libvcruntime:winapi_downlevel.obj
 0002:0000b170       $unwind$__vcrt_FlsGetValue 0000000180030170     libvcruntime:winapi_downlevel.obj
 0002:0000b178       $unwind$?AtlWinModuleExtractCreateWndData@ATL@@YAPEAXPEAU_ATL_WIN_MODULE70@1@@Z 0000000180030178     Gate.obj
 0002:0000b178       $unwind$?CreateInstance@?$CComCreator@V?$CComObject@VCOPOSGate@@@ATL@@@ATL@@SAJPEAXAEBU_GUID@@PEAPEAX@Z 0000000180030178     Gate.obj
 0002:0000b178       $unwind$?DoEvent@COPOSGate@@IEAAXI_K_J@Z 0000000180030178     Gate.obj
 0002:0000b178       $unwind$?DoVerb@?$IOleObjectImpl@VCOPOSGate@@@ATL@@UEAAJJPEAUtagMSG@@PEAUIOleClientSite@@JPEAUHWND__@@PEBUtagRECT@@@Z 0000000180030178     Gate.obj
 0002:0000b178       $unwind$?HKeyFromString@CRegParser@ATL@@KAPEAUHKEY__@@PEA_W@Z 0000000180030178     Gate.obj
 0002:0000b178       $unwind$?Next@?$CComEnumImpl@UIEnumConnectionPoints@@$1?_GUID_b196b285_bab4_101a_b69c_00aa00341d07@@3U__s_GUID@@BPEAUIConnectionPoint@@V?$_CopyInterface@UIConnectionPoint@@@ATL@@@ATL@@UEAAJKPEAPEAUIConnectionPoint@@PEAK@Z 0000000180030178     Gate.obj
 0002:0000b178       $unwind$?Next@?$CComEnumImpl@UIEnumConnections@@$1?_GUID_b196b287_bab4_101a_b69c_00aa00341d07@@3U__s_GUID@@BUtagCONNECTDATA@@V?$_Copy@UtagCONNECTDATA@@@ATL@@@ATL@@UEAAJKPEAUtagCONNECTDATA@@PEAK@Z 0000000180030178     Gate.obj
 0002:0000b178       $unwind$?SODirectIO@COPOSGate@@MEAAJJPEAJPEAPEA_W@Z 0000000180030178     Gate.obj
 0002:0000b178       $unwind$?SetControlFocus@CComControlBase@ATL@@QEAAHH@Z 0000000180030178     Gate.obj
 0002:0000b178       $unwind$?ocscpy_s@@YA_NPEA_W_KPEB_W@Z 0000000180030178     Gate.obj
 0002:0000b178       $unwind$?s_EventWindowProc@COPOSGate@@KA_JPEAUHWND__@@I_K_J@Z 0000000180030178     GateImpl.obj
 0002:0000b178       $unwind$?AtlWinModuleTerm@ATL@@YAJPEAU_ATL_WIN_MODULE70@1@PEAUHINSTANCE__@@@Z 0000000180030178     OposVariant.obj
 0002:0000b178       $unwind$_recalloc_base     0000000180030178     libucrt:recalloc.obj
 0002:0000b178       $unwind$__acrt_free_locale 0000000180030178     libucrt:locale_refcounting.obj
 0002:0000b178       $unwind$__acrt_lowio_create_handle_array 0000000180030178     libucrt:osfinfo.obj
 0002:0000b178       $unwind$_seh_filter_exe    0000000180030178     libucrt:exception_filter.obj
 0002:0000b178       $unwind$__acrt_stdio_flush_nolock 0000000180030178     libucrt:fflush.obj
 0002:0000b178       $unwind$??$ensure_buffer_is_big_enough@D@formatting_buffer@__crt_stdio_output@@QEAA_N_KAEAV__crt_cached_ptd_host@@@Z 0000000180030178     libucrt:output.obj
 0002:0000b178       $unwind$??$ensure_buffer_is_big_enough@_W@formatting_buffer@__crt_stdio_output@@QEAA_N_KAEAV__crt_cached_ptd_host@@@Z 0000000180030178     libucrt:output.obj
 0002:0000b178       $unwind$__scrt_dllmain_exception_filter 0000000180030178     LIBCMT:utility.obj
 0002:0000b178       $unwind$?GetHandlerSearchState@__FrameHandler3@@SAHPEA_KPEAU_xDISPATCHER_CONTEXT@@PEBU_s_FuncInfo@@@Z 0000000180030178     libvcruntime:frame.obj
 0002:0000b178       $unwind$?Is_bad_exception_allowed@@YAEPEBU_s_ESTypeList@@@Z 0000000180030178     libvcruntime:frame.obj
 0002:0000b178       $unwind$?CatchTryBlock@__FrameHandler3@@SAPEBU_s_TryBlockMapEntry@@PEBU_s_FuncInfo@@H@Z 0000000180030178     libvcruntime:risctrnsctrl.obj
 0002:0000b18c       $unwind$??_GCRegObject@ATL@@UEAAPEAXI@Z 000000018003018c     Gate.obj
 0002:0000b18c       $unwind$?Add@?$CSimpleArray@GV?$CSimpleArrayEqualHelper@G@ATL@@@ATL@@QEAAHAEBG@Z 000000018003018c     Gate.obj
 0002:0000b18c       $unwind$?Add@?$CSimpleMap@PEA_WPEA_WVCExpansionVectorEqualHelper@ATL@@@ATL@@QEAAHAEBQEA_W0@Z 000000018003018c     Gate.obj
 0002:0000b18c       $unwind$?Add@CComDynamicUnkArray@ATL@@QEAAKPEAUIUnknown@@@Z 000000018003018c     Gate.obj
 0002:0000b18c       $unwind$?Advise@?$IOleObjectImpl@VCOPOSGate@@@ATL@@UEAAJPEAUIAdviseSink@@PEAK@Z 000000018003018c     Gate.obj
 0002:0000b18c       $unwind$?ClearReplacements@CExpansionVector@ATL@@QEAAJXZ 000000018003018c     Gate.obj
 0002:0000b18c       $unwind$?CreateInstance@?$CComObject@V?$CComEnum@UIEnumConnectionPoints@@$1?_GUID_b196b285_bab4_101a_b69c_00aa00341d07@@3U__s_GUID@@BPEAUIConnectionPoint@@V?$_CopyInterface@UIConnectionPoint@@@ATL@@VCComSingleThreadModel@6@@ATL@@@ATL@@SAJPEAPEAV12@@Z 000000018003018c     Gate.obj
 0002:0000b18c       $unwind$?CreateInstance@?$CComObject@V?$CComEnum@UIEnumConnections@@$1?_GUID_b196b287_bab4_101a_b69c_00aa00341d07@@3U__s_GUID@@BUtagCONNECTDATA@@V?$_Copy@UtagCONNECTDATA@@@ATL@@VCComSingleThreadModel@6@@ATL@@@ATL@@SAJPEAPEAV12@@Z 000000018003018c     Gate.obj
 0002:0000b18c       $unwind$?RegisterServer@CComModule@ATL@@QEAAJHPEBU_GUID@@@Z 000000018003018c     Gate.obj
 0002:0000b18c       $unwind$?UnregisterServer@CComModule@ATL@@QEAAJHPEBU_GUID@@@Z 000000018003018c     Gate.obj
 0002:0000b18c       $unwind$?VTFromRegType@CRegParser@ATL@@KAHPEB_WAEAG@Z 000000018003018c     Gate.obj
 0002:0000b18c       $unwind$??0OposDispParms@@QEAA@PEAVOposVariant@@H@Z 000000018003018c     OposVariant.obj
 0002:0000b18c       $unwind$?SetBSTR_Copy@OposVariant@@QEAAXPEA_WAEAJ@Z 000000018003018c     OposVariant.obj
 0002:0000b18c       $unwind$?SetBSTR_InOutPtr@OposVariant@@QEAA_NPEAPEA_WAEAJ@Z 000000018003018c     OposVariant.obj
 0002:0000b18c       $unwind$?SetDispatch_Ptr@OposVariant@@QEAAXPEAUIDispatch@@AEAJ@Z 000000018003018c     OposVariant.obj
 0002:0000b18c       $unwind$?SetLONG_Ptr@OposVariant@@QEAAXPEAJAEAJ@Z 000000018003018c     OposVariant.obj
 0002:0000b18c       $unwind$?SetString@OposVariant@@QEAAXPEB_WAEAJ@Z 000000018003018c     OposVariant.obj
 0002:0000b18c       $unwind$?Term@CAtlComModule@ATL@@QEAAXXZ 000000018003018c     OposVariant.obj
 0002:0000b18c       $unwind$memcpy_s           000000018003018c     libucrt:cfout.obj
 0002:0000b18c       $unwind$__acrt_getptd      000000018003018c     libucrt:per_thread_data.obj
 0002:0000b18c       $unwind$__acrt_getptd_noexit 000000018003018c     libucrt:per_thread_data.obj
 0002:0000b18c       $unwind$__acrt_getptd_noexit_explicit 000000018003018c     libucrt:per_thread_data.obj
 0002:0000b18c       $unwind$__acrt_execute_initializers 000000018003018c     libucrt:shared_initialization.obj
 0002:0000b18c       $unwind$__acrt_InitializeCriticalSectionEx 000000018003018c     libucrt:winapi_thunks.obj
 0002:0000b18c       $unwind$_close_nolock_internal 000000018003018c     libucrt:close.obj
 0002:0000b18c       $unwind$?value@?$dual_state_global@P6AXPEB_W00I_K@Z@__crt_state_management@@QEAAAEAP6AXPEB_W00I_K@ZAEAV__crt_cached_ptd_host@@@Z 000000018003018c     libucrt:invalid_parameter.obj
 0002:0000b18c       $unwind$??0_LocaleUpdate@@QEAA@QEAU__crt_locale_pointers@@@Z 000000018003018c     libucrt:argv_wildcards.obj
 0002:0000b18c       $unwind$?type_case_Z@?$output_processor@_WV?$string_output_adapter@_W@__crt_stdio_output@@V?$format_validation_base@_WV?$string_output_adapter@_W@__crt_stdio_output@@@2@@__crt_stdio_output@@AEAA_NXZ 000000018003018c     libucrt:output.obj
 0002:0000b18c       $unwind$?type_case_s@?$output_processor@_WV?$string_output_adapter@_W@__crt_stdio_output@@V?$format_validation_base@_WV?$string_output_adapter@_W@__crt_stdio_output@@@2@@__crt_stdio_output@@AEAA_NXZ 000000018003018c     libucrt:output.obj
 0002:0000b18c       $unwind$?type_case_s_compute_narrow_string_length@?$output_processor@_WV?$string_output_adapter@_W@__crt_stdio_output@@V?$format_validation_base@_WV?$string_output_adapter@_W@__crt_stdio_output@@@2@@__crt_stdio_output@@AEAAHH_W@Z 000000018003018c     libucrt:output.obj
 0002:0000b18c       $unwind$?update_locale_slow@__crt_cached_ptd_host@@AEAAXXZ 000000018003018c     libucrt:output.obj
 0002:0000b18c       $unwind$strncpy_s          000000018003018c     libucrt:strncpy_s.obj
 0002:0000b18c       $unwind$wcsncpy_s          000000018003018c     libucrt:wcsncpy_s.obj
 0002:0000b18c       $unwind$_exception_enabled 000000018003018c     libucrt:libm_error.obj
 0002:0000b18c       $unwind$_DllMainCRTStartup 000000018003018c     LIBCMT:dll_dllmain.obj
 0002:0000b18c       $unwind$__vcrt_getptd_noexit 000000018003018c     libvcruntime:per_thread_data.obj
 0002:0000b18c       $unwind$?FrameUnwindToEmptyState@__FrameHandler3@@SAXPEA_KPEAU_xDISPATCHER_CONTEXT@@PEBU_s_FuncInfo@@@Z 000000018003018c     libvcruntime:risctrnsctrl.obj
 0002:0000b18c       $unwind$__vcrt_InitializeCriticalSectionEx 000000018003018c     libvcruntime:winapi_downlevel.obj
 0002:0000b19c       $unwind$?AddTermFunc@CAtlModule@ATL@@QEAAJP6AX_K@Z0@Z 000000018003019c     Gate.obj
 0002:0000b19c       $unwind$?AtlComModuleRegisterServer@ATL@@YAJPEAU_ATL_COM_MODULE70@1@HPEBU_GUID@@@Z 000000018003019c     Gate.obj
 0002:0000b19c       $unwind$?AtlComModuleUnregisterServer@ATL@@YAJPEAU_ATL_COM_MODULE70@1@HPEBU_GUID@@@Z 000000018003019c     Gate.obj
 0002:0000b19c       $unwind$?CreateInstance@?$CComCreator@V?$CComAggObject@VCOPOSGate@@@ATL@@@ATL@@SAJPEAXAEBU_GUID@@PEAPEAX@Z 000000018003019c     Gate.obj
 0002:0000b19c       $unwind$?CreateInstance@?$CComCreator@V?$CComObjectCached@VCComClassFactory@ATL@@@ATL@@@ATL@@SAJPEAXAEBU_GUID@@PEAPEAX@Z 000000018003019c     Gate.obj
 0002:0000b19c       $unwind$?GetPagesHelper@?$ISpecifyPropertyPagesImpl@VCOPOSGate@@@ATL@@IEAAJPEAUtagCAUUID@@PEBUATL_PROPMAP_ENTRY@2@@Z 000000018003019c     Gate.obj
 0002:0000b19c       $unwind$?Term@CAtlModule@ATL@@QEAAXXZ 000000018003019c     Gate.obj
 0002:0000b19c       $unwind$??_Estringdispid@CComTypeInfoHolder@ATL@@QEAAPEAXI@Z 000000018003019c     OposVariant.obj
 0002:0000b19c       $unwind$?initialize_stdio_handles_nolock@@YAXXZ 000000018003019c     libucrt:ioinit.obj
 0002:0000b19c       $unwind$__acrt_initialize_stdio 000000018003019c     libucrt:_file.obj
 0002:0000b19c       $unwind$__GSHandlerCheck_EH 000000018003019c     LIBCMT:gshandlereh.obj
 0002:0000b19c       $unwind$__GSHandlerCheck_SEH 000000018003019c     LIBCMT:gshandlerseh.obj
 0002:0000b19c       $unwind$??$TypeMatchHelper@V__FrameHandler3@@@@YAHPEBU_s_HandlerType@@PEBU_s_CatchableType@@PEBU_s_ThrowInfo@@@Z 000000018003019c     libvcruntime:frame.obj
 0002:0000b19c       $unwind$??$TypeMatchHelper@V__FrameHandler4@@@@YAHPEAUHandlerType4@FH4@@PEBU_s_CatchableType@@PEBU_s_ThrowInfo@@@Z 000000018003019c     libvcruntime:frame.obj
 0002:0000b1b4       $unwind$??0?$CComContainedObject@VCOPOSGate@@@ATL@@QEAA@PEAX@Z 00000001800301b4     Gate.obj
 0002:0000b1b4       $unwind$??1?$CComEnumImpl@UIEnumConnectionPoints@@$1?_GUID_b196b285_bab4_101a_b69c_00aa00341d07@@3U__s_GUID@@BPEAUIConnectionPoint@@V?$_CopyInterface@UIConnectionPoint@@@ATL@@@ATL@@UEAA@XZ 00000001800301b4     Gate.obj
 0002:0000b1b4       $unwind$??1?$CComEnumImpl@UIEnumConnections@@$1?_GUID_b196b287_bab4_101a_b69c_00aa00341d07@@3U__s_GUID@@BUtagCONNECTDATA@@V?$_Copy@UtagCONNECTDATA@@@ATL@@@ATL@@UEAA@XZ 00000001800301b4     Gate.obj
 0002:0000b1b4       $unwind$??_G?$CComAggObject@VCOPOSGate@@@ATL@@UEAAPEAXI@Z 00000001800301b4     Gate.obj
 0002:0000b1b4       $unwind$??_G?$CComContainedObject@VCOPOSGate@@@ATL@@UEAAPEAXI@Z 00000001800301b4     Gate.obj
 0002:0000b1b4       $unwind$??_G?$CComObject@V?$CComEnum@UIEnumConnectionPoints@@$1?_GUID_b196b285_bab4_101a_b69c_00aa00341d07@@3U__s_GUID@@BPEAUIConnectionPoint@@V?$_CopyInterface@UIConnectionPoint@@@ATL@@VCComSingleThreadModel@6@@ATL@@@ATL@@UEAAPEAXI@Z 00000001800301b4     Gate.obj
 0002:0000b1b4       $unwind$??_G?$CComObject@V?$CComEnum@UIEnumConnections@@$1?_GUID_b196b287_bab4_101a_b69c_00aa00341d07@@3U__s_GUID@@BUtagCONNECTDATA@@V?$_Copy@UtagCONNECTDATA@@@ATL@@VCComSingleThreadModel@6@@ATL@@@ATL@@UEAAPEAXI@Z 00000001800301b4     Gate.obj
 0002:0000b1b4       $unwind$??_G?$CComObject@VCOPOSGate@@@ATL@@UEAAPEAXI@Z 00000001800301b4     Gate.obj
 0002:0000b1b4       $unwind$??_G?$CComObjectCached@VCComClassFactory@ATL@@@ATL@@UEAAPEAXI@Z 00000001800301b4     Gate.obj
 0002:0000b1b4       $unwind$??_GCComClassFactory@ATL@@UEAAPEAXI@Z 00000001800301b4     Gate.obj
 0002:0000b1b4       $unwind$??_GCComModule@ATL@@UEAAPEAXI@Z 00000001800301b4     Gate.obj
 0002:0000b1b4       $unwind$?DeleteSubKey@CRegKey@ATL@@QEAAJPEB_W@Z 00000001800301b4     Gate.obj
 0002:0000b1b4       $unwind$?IOleObject_SetClientSite@CComControlBase@ATL@@QEAAJPEAUIOleClientSite@@@Z 00000001800301b4     Gate.obj
 0002:0000b1b4       $unwind$?InitNew@?$IPersistStorageImpl@VCOPOSGate@@@ATL@@UEAAJPEAUIStorage@@@Z 00000001800301b4     Gate.obj
 0002:0000b1b4       $unwind$?IsDirty@?$IPersistStorageImpl@VCOPOSGate@@@ATL@@UEAAJXZ 00000001800301b4     Gate.obj
 0002:0000b1b4       $unwind$?Release@?$CComAggObject@VCOPOSGate@@@ATL@@UEAAKXZ 00000001800301b4     Gate.obj
 0002:0000b1b4       $unwind$?Release@?$CComObject@V?$CComEnum@UIEnumConnectionPoints@@$1?_GUID_b196b285_bab4_101a_b69c_00aa00341d07@@3U__s_GUID@@BPEAUIConnectionPoint@@V?$_CopyInterface@UIConnectionPoint@@@ATL@@VCComSingleThreadModel@6@@ATL@@@ATL@@UEAAKXZ 00000001800301b4     Gate.obj
 0002:0000b1b4       $unwind$?Release@?$CComObject@V?$CComEnum@UIEnumConnections@@$1?_GUID_b196b287_bab4_101a_b69c_00aa00341d07@@3U__s_GUID@@BUtagCONNECTDATA@@V?$_Copy@UtagCONNECTDATA@@@ATL@@VCComSingleThreadModel@6@@ATL@@@ATL@@UEAAKXZ 00000001800301b4     Gate.obj
 0002:0000b1b4       $unwind$?Release@?$CComObject@VCOPOSGate@@@ATL@@UEAAKXZ 00000001800301b4     Gate.obj
 0002:0000b1b4       $unwind$?SOStatusUpdate@COPOSGate@@MEAAJJ@Z 00000001800301b4     Gate.obj
 0002:0000b1b4       $unwind$?SetAdvise@?$IViewObjectExImpl@VCOPOSGate@@@ATL@@UEAAJKKPEAUIAdviseSink@@@Z 00000001800301b4     Gate.obj
 0002:0000b1b4       $unwind$?Term@CComModule@ATL@@QEAAXXZ 00000001800301b4     Gate.obj
 0002:0000b1b4       $unwind$DllMain            00000001800301b4     Gate.obj
 0002:0000b1b4       $unwind$??1?$IConnectionPointImpl@VCOPOSGate@@$1?DIID__IOPOSGateEvents@@3U_GUID@@BVCComDynamicUnkArray@ATL@@@ATL@@QEAA@XZ 00000001800301b4     GateImpl.obj
 0002:0000b1b4       $unwind$??1?$IConnectionPointImpl@VCOPOSGate@@$1?IID_IPropertyNotifySink@@3U_GUID@@BVCComDynamicUnkArray@ATL@@@ATL@@QEAA@XZ 00000001800301b4     GateImpl.obj
 0002:0000b1b4       $unwind$?EventWindowProc@COPOSGate@@IEAA_JI_K_J@Z 00000001800301b4     GateImpl.obj
 0002:0000b1b4       $unwind$?SetBSTR@OposVariant@@QEAAXPEA_WAEAJ@Z 00000001800301b4     OposVariant.obj
 0002:0000b1b4       $unwind$?SetLONG@OposVariant@@QEAAXJ@Z 00000001800301b4     OposVariant.obj
 0002:0000b1b4       $unwind$?SetVARIANT_BOOL@OposVariant@@QEAAXF@Z 00000001800301b4     OposVariant.obj
 0002:0000b1b4       $unwind$??$common_initialize_environment_nolock@D@@YAHXZ 00000001800301b4     libucrt:environment_initialization.obj
 0002:0000b1b4       $unwind$_realloc_base      00000001800301b4     libucrt:realloc_base.obj
 0002:0000b1b4       $unwind$?replace_current_thread_locale_nolock@@YAXQEAU__acrt_ptd@@QEAU__crt_locale_data@@@Z 00000001800301b4     libucrt:per_thread_data.obj
 0002:0000b1b4       $unwind$__acrt_execute_uninitializers 00000001800301b4     libucrt:shared_initialization.obj
 0002:0000b1b4       $unwind$__acrt_LocaleNameToLCID 00000001800301b4     libucrt:winapi_thunks.obj
 0002:0000b1b4       $unwind$?free_crt_array_internal@@YAXQEAPEBX_K@Z 00000001800301b4     libucrt:inittime.obj
 0002:0000b1b4       $unwind$_updatetlocinfoEx_nolock 00000001800301b4     libucrt:locale_refcounting.obj
 0002:0000b1b4       $unwind$__acrt_uninitialize_lowio 00000001800301b4     libucrt:ioinit.obj
 0002:0000b1b4       $unwind$?setSBCS@@YAXPEAU__crt_multibyte_data@@@Z 00000001800301b4     libucrt:mbctype.obj
 0002:0000b1b4       $unwind$_initterm_e        00000001800301b4     libucrt:initterm.obj
 0002:0000b1b4       $unwind$??0CAtlBaseModule@ATL@@QEAA@XZ 00000001800301b4     atls:atlbase.obj
 0002:0000b1b4       $unwind$??$GetProcAddressAll@P6AP6A_JPEAUHWND__@@I_K_J@ZPEAUAtlThunkData_t@@@Z@@YAP6AP6A_JPEAUHWND__@@I_K_J@ZPEAUAtlThunkData_t@@@ZPEAP6AP6A_J0I12@Z3@Z@Z 00000001800301b4     atls:atlthunk.obj
 0002:0000b1b4       $unwind$??$GetProcAddressAll@P6APEAUAtlThunkData_t@@XZ@@YAP6APEAUAtlThunkData_t@@XZPEAP6APEAU0@XZ@Z 00000001800301b4     atls:atlthunk.obj
 0002:0000b1b4       $unwind$??$GetProcAddressAll@P6AXPEAUAtlThunkData_t@@@Z@@YAP6AXPEAUAtlThunkData_t@@@ZPEAP6AX0@Z@Z 00000001800301b4     atls:atlthunk.obj
 0002:0000b1b4       $unwind$??$GetProcAddressAll@P6AXPEAUAtlThunkData_t@@PEAX_K@Z@@YAP6AXPEAUAtlThunkData_t@@PEAX_K@ZPEAP6AX012@Z@Z 00000001800301b4     atls:atlthunk.obj
 0002:0000b1b4       $unwind$?__AllocStdCallThunk_cmn@@YAPEAXXZ 00000001800301b4     atls:atlthunk.obj
 0002:0000b1b4       $unwind$?__InitializeThunkPool@@YAHXZ 00000001800301b4     atls:atlthunk.obj
 0002:0000b1b4       $unwind$AtlThunk_DataToCode 00000001800301b4     atls:atlthunk.obj
 0002:0000b1b4       $unwind$_RTC_Initialize    00000001800301b4     LIBCMT:initsect.obj
 0002:0000b1b4       $unwind$_RTC_Terminate     00000001800301b4     LIBCMT:initsect.obj
 0002:0000b1b4       $unwind$?__scrt_initialize_thread_safe_statics@@YAHXZ 00000001800301b4     LIBCMT:thread_safe_statics.obj
 0002:0000b1b4       $unwind$??_Gbad_alloc@std@@UEAAPEAXI@Z 00000001800301b4     LIBCMT:throw_bad_alloc.obj
 0002:0000b1b4       $unwind$??_Gbad_array_new_length@std@@UEAAPEAXI@Z 00000001800301b4     LIBCMT:throw_bad_alloc.obj
 0002:0000b1b4       $unwind$??_Gexception@std@@UEAAPEAXI@Z 00000001800301b4     LIBCMT:throw_bad_alloc.obj
 0002:0000b1b4       $unwind$__C_specific_handler_noexcept 00000001800301b4     libvcruntime:chandler_noexcept.obj
 0002:0000b1b4       $unwind$__FrameUnwindFilter 00000001800301b4     libvcruntime:ehhelpers.obj
 0002:0000b1b4       $unwind$?SetUnwindTryBlock@__FrameHandler3@@SAXPEA_KPEAU_xDISPATCHER_CONTEXT@@PEBU_s_FuncInfo@@H@Z 00000001800301b4     libvcruntime:ehstate.obj
 0002:0000b1b4       $unwind$??_Gbad_exception@std@@UEAAPEAXI@Z 00000001800301b4     libvcruntime:frame.obj
 0002:0000b1b4       $unwind$?ExFilterRethrow@@YAHPEAU_EXCEPTION_POINTERS@@PEAUEHExceptionRecord@@PEAH@Z 00000001800301b4     libvcruntime:frame.obj
 0002:0000b1b4       $unwind$?ExFilterRethrowFH4@@YAHPEAU_EXCEPTION_POINTERS@@PEAUEHExceptionRecord@@HPEAH@Z 00000001800301b4     libvcruntime:frame.obj
 0002:0000b1b4       $unwind$_FindAndUnlinkFrame 00000001800301b4     libvcruntime:risctrnsctrl.obj
 0002:0000b1b4       $unwind$__vcrt_FlsSetValue 00000001800301b4     libvcruntime:winapi_downlevel.obj
 0002:0000b1c0       $unwind$?ChangeBSTR@OposVariant@@QEAAXPEAPEA_WAEAJ@Z 00000001800301c0     OposVariant.obj
 0002:0000b1c0       $unwind$?ChangeLONG@OposVariant@@QEAAXPEAJAEAJ@Z 00000001800301c0     OposVariant.obj
 0002:0000b1c0       $unwind$?x_ismbbtype_l@@YAHPEAU__crt_locale_pointers@@IHH@Z 00000001800301c0     libucrt:ismbbyte.obj
 0002:0000b1d0       $unwind$swprintf_s         00000001800301d0     Gate.obj
 0002:0000b1e0       $unwind$?_AtlVerifyStackAvailable@_ATL_SAFE_ALLOCA_IMPL@ATL@@YA_N_K@Z 00000001800301e0     Gate.obj
 0002:0000b20c       $unwind$?filt$0@?0??_AtlVerifyStackAvailable@_ATL_SAFE_ALLOCA_IMPL@ATL@@YA_N_K@Z@4HA 000000018003020c     Gate.obj
 0002:0000b20c       $unwind$_query_new_handler$fin$0 000000018003020c     libucrt:new_handler.obj
 0002:0000b20c       $unwind$?fin$0@?0???$?RV<lambda_0ae27a3a962d80f24befdcbee591983d>@@AEAV<lambda_8d0ee55de4b1038c4002e0adecdf1839>@@V<lambda_dc504788e8f1664fe9b84e20bfb512f2>@@@?$__crt_seh_guarded_call@X@@QEAAX$$QEAV<lambda_0ae27a3a962d80f24befdcbee591983d>@@AEAV<lambda_8d0ee55de4b1038c4002e0adecdf1839>@@$$QEAV<lambda_dc504788e8f1664fe9b84e20bfb512f2>@@@Z@4HA 000000018003020c     libucrt:per_thread_data.obj
 0002:0000b20c       $unwind$?fin$0@?0???$?RV<lambda_2d41944a1d46af3157314b8a01080d33>@@AEAV<lambda_8f455de75cd7d7f24b4096f044d8b9e6>@@V<lambda_aa500f224e6afead328df44964fe2772>@@@?$__crt_seh_guarded_call@X@@QEAAX$$QEAV<lambda_2d41944a1d46af3157314b8a01080d33>@@AEAV<lambda_8f455de75cd7d7f24b4096f044d8b9e6>@@$$QEAV<lambda_aa500f224e6afead328df44964fe2772>@@@Z@4HA 000000018003020c     libucrt:per_thread_data.obj
 0002:0000b20c       $unwind$?fin$0@?0???$?RV<lambda_aa87e3671a710a21b5dc78c0bdf72e11>@@AEAV<lambda_92619d2358a28f41a33ba319515a20b9>@@V<lambda_6992ecaafeb10aed2b74cb1fae11a551>@@@?$__crt_seh_guarded_call@X@@QEAAX$$QEAV<lambda_aa87e3671a710a21b5dc78c0bdf72e11>@@AEAV<lambda_92619d2358a28f41a33ba319515a20b9>@@$$QEAV<lambda_6992ecaafeb10aed2b74cb1fae11a551>@@@Z@4HA 000000018003020c     libucrt:per_thread_data.obj
 0002:0000b20c       $unwind$?fin$0@?0???$?RV<lambda_f2e299630e499de9f9a165e60fcd3db5>@@AEAV<lambda_2ae9d31cdba2644fcbeaf08da7c24588>@@V<lambda_40d01ff24d0e7b3814fdbdcee8eab3c7>@@@?$__crt_seh_guarded_call@X@@QEAAX$$QEAV<lambda_f2e299630e499de9f9a165e60fcd3db5>@@AEAV<lambda_2ae9d31cdba2644fcbeaf08da7c24588>@@$$QEAV<lambda_40d01ff24d0e7b3814fdbdcee8eab3c7>@@@Z@4HA 000000018003020c     libucrt:per_thread_data.obj
 0002:0000b20c       $unwind$__acrt_update_thread_locale_data$fin$0 000000018003020c     libucrt:locale_refcounting.obj
 0002:0000b20c       $unwind$?fin$0@?0???$?RV<lambda_410d79af7f07d98d83a3f525b3859a53>@@AEAV<lambda_3e16ef9562a7dcce91392c22ab16ea36>@@V<lambda_38119f0e861e05405d8a144b9b982f0a>@@@?$__crt_seh_guarded_call@X@@QEAAX$$QEAV<lambda_410d79af7f07d98d83a3f525b3859a53>@@AEAV<lambda_3e16ef9562a7dcce91392c22ab16ea36>@@$$QEAV<lambda_38119f0e861e05405d8a144b9b982f0a>@@@Z@4HA 000000018003020c     libucrt:wsetlocale.obj
 0002:0000b20c       $unwind$?fin$0@?0???$?RV<lambda_ad8af0d99a0adf03d037d7dffe354bb5>@@AEAV<lambda_c9ba49e555ba839a7b07aa3fbecb7617>@@V<lambda_2f1ebd5d68526518146ae959c9e734c8>@@@?$__crt_seh_guarded_call@H@@QEAAH$$QEAV<lambda_ad8af0d99a0adf03d037d7dffe354bb5>@@AEAV<lambda_c9ba49e555ba839a7b07aa3fbecb7617>@@$$QEAV<lambda_2f1ebd5d68526518146ae959c9e734c8>@@@Z@4HA 000000018003020c     libucrt:close.obj
 0002:0000b20c       $unwind$?fin$0@?0???$?RV<lambda_a37b2b86f63e897a80ea819b0eb08c01>@@AEAV<lambda_38ce7e780aa69e748d6df282ebc68efe>@@V<lambda_99fb1378e971ab6e7edea83e3a7a83a2>@@@?$__crt_seh_guarded_call@H@@QEAAH$$QEAV<lambda_a37b2b86f63e897a80ea819b0eb08c01>@@AEAV<lambda_38ce7e780aa69e748d6df282ebc68efe>@@$$QEAV<lambda_99fb1378e971ab6e7edea83e3a7a83a2>@@@Z@4HA 000000018003020c     libucrt:commit.obj
 0002:0000b20c       $unwind$__acrt_initialize_lowio$fin$0 000000018003020c     libucrt:ioinit.obj
 0002:0000b20c       $unwind$__acrt_lowio_ensure_fh_exists$fin$0 000000018003020c     libucrt:osfinfo.obj
 0002:0000b20c       $unwind$?fin$0@?0???$?RV<lambda_efdfa57d1f175319df784efa44bb7b81>@@AEAV<lambda_5f0a4c1567f8adc6734073e5d1e1b35c>@@V<lambda_2e8a7d3640ea6ccb4c2413664c2db6fd>@@@?$__crt_seh_guarded_call@X@@QEAAX$$QEAV<lambda_efdfa57d1f175319df784efa44bb7b81>@@AEAV<lambda_5f0a4c1567f8adc6734073e5d1e1b35c>@@$$QEAV<lambda_2e8a7d3640ea6ccb4c2413664c2db6fd>@@@Z@4HA 000000018003020c     libucrt:mbctype.obj
 0002:0000b20c       $unwind$?fin$0@?0??update_thread_multibyte_data_internal@@YAPEAU__crt_multibyte_data@@QEAU__acrt_ptd@@QEAPEAU1@@Z@4HA 000000018003020c     libucrt:mbctype.obj
 0002:0000b20c       $unwind$?fin$0@?0???$?RV<lambda_450d765d439847d4c735a33c368b5fc0>@@AEAV<lambda_44731a7d0e6d81c3e6aa82d741081786>@@V<lambda_601a2a7da3b7a96e9554ac7215c4b07c>@@@?$__crt_seh_guarded_call@P6AXH@Z@@QEAAP6AXH@Z$$QEAV<lambda_450d765d439847d4c735a33c368b5fc0>@@AEAV<lambda_44731a7d0e6d81c3e6aa82d741081786>@@$$QEAV<lambda_601a2a7da3b7a96e9554ac7215c4b07c>@@@Z@4HA 000000018003020c     libucrt:signal.obj
 0002:0000b20c       $unwind$raise$fin$0        000000018003020c     libucrt:signal.obj
 0002:0000b20c       $unwind$?filt$0@?0???R<lambda_6e4b09c48022b2350581041d5f6b0c4c>@@QEBA@XZ@4HA 000000018003020c     libucrt:exit.obj
 0002:0000b20c       $unwind$?fin$0@?0???$?RV<lambda_d80eeec6fff315bfe5c115232f3240e3>@@AEAV<lambda_6e4b09c48022b2350581041d5f6b0c4c>@@V<lambda_2358e3775559c9db80273638284d5e45>@@@?$__crt_seh_guarded_call@X@@QEAAX$$QEAV<lambda_d80eeec6fff315bfe5c115232f3240e3>@@AEAV<lambda_6e4b09c48022b2350581041d5f6b0c4c>@@$$QEAV<lambda_2358e3775559c9db80273638284d5e45>@@@Z@4HA 000000018003020c     libucrt:exit.obj
 0002:0000b20c       $unwind$?fin$0@?0???$?RV<lambda_638799b9deba96c50f710eeac98168cd>@@AEAV<lambda_22ebabd17bc4fa466a2aca6d8deb888d>@@V<lambda_a6f7d7db0129f75315ebf26d50c089f1>@@@?$__crt_seh_guarded_call@H@@QEAAH$$QEAV<lambda_638799b9deba96c50f710eeac98168cd>@@AEAV<lambda_22ebabd17bc4fa466a2aca6d8deb888d>@@$$QEAV<lambda_a6f7d7db0129f75315ebf26d50c089f1>@@@Z@4HA 000000018003020c     libucrt:onexit.obj
 0002:0000b20c       $unwind$?fin$0@?0???$?RV<lambda_7777bce6b2f8c936911f934f8298dc43>@@AEAV<lambda_f03950bc5685219e0bcd2087efbe011e>@@V<lambda_3883c3dff614d5e0c5f61bb1ac94921c>@@@?$__crt_seh_guarded_call@H@@QEAAH$$QEAV<lambda_7777bce6b2f8c936911f934f8298dc43>@@AEAV<lambda_f03950bc5685219e0bcd2087efbe011e>@@$$QEAV<lambda_3883c3dff614d5e0c5f61bb1ac94921c>@@@Z@4HA 000000018003020c     libucrt:onexit.obj
 0002:0000b20c       $unwind$_fcloseall$fin$0   000000018003020c     libucrt:closeall.obj
 0002:0000b20c       $unwind$?fin$0@?0???$?RV<lambda_842d9ff0dc9ef11c61343bbaebe7f885>@@AEAV<lambda_c5860995281e5c4ce005b3de8f5874ee>@@V<lambda_d90129c13df834fdcbf8d2b88dafcf2d>@@@?$__crt_seh_guarded_call@X@@QEAAX$$QEAV<lambda_842d9ff0dc9ef11c61343bbaebe7f885>@@AEAV<lambda_c5860995281e5c4ce005b3de8f5874ee>@@$$QEAV<lambda_d90129c13df834fdcbf8d2b88dafcf2d>@@@Z@4HA 000000018003020c     libucrt:fflush.obj
 0002:0000b20c       $unwind$?fin$0@?0???$?RV<lambda_886d6c58226a84441f68b9f2b8217b83>@@AEAV<lambda_ab61a845afdef5b7c387490eaf3616ee>@@V<lambda_f7f22ab5edc0698d5f6905b0d3f44752>@@@?$__crt_seh_guarded_call@X@@QEAAX$$QEAV<lambda_886d6c58226a84441f68b9f2b8217b83>@@AEAV<lambda_ab61a845afdef5b7c387490eaf3616ee>@@$$QEAV<lambda_f7f22ab5edc0698d5f6905b0d3f44752>@@@Z@4HA 000000018003020c     libucrt:fflush.obj
 0002:0000b20c       $unwind$_ctrlfp$filt$0     000000018003020c     libucrt:fpctrl.obj
 0002:0000b20c       $unwind$common_control87$filt$0 000000018003020c     libucrt:ieee.obj
 0002:0000b20c       $unwind$?fin$0@?0??dllmain_crt_process_attach@@YAHQEAUHINSTANCE__@@QEAX@Z@4HA 000000018003020c     LIBCMT:dll_dllmain.obj
 0002:0000b20c       $unwind$?fin$0@?0??dllmain_crt_process_detach@@YAH_N@Z@4HA 000000018003020c     LIBCMT:dll_dllmain.obj
 0002:0000b20c       $unwind$?fin$1@?0??dllmain_crt_process_detach@@YAH_N@Z@4HA 000000018003020c     LIBCMT:dll_dllmain.obj
 0002:0000b20c       $unwind$_IsNonwritableInCurrentImage$filt$0 000000018003020c     LIBCMT:pesect.obj
 0002:0000b20c       $unwind$?filt$0@?0??CxxCallCatchBlock@__FrameHandler3@@SAPEAXPEAU_EXCEPTION_RECORD@@@Z@4HA 000000018003020c     libvcruntime:frame.obj
 0002:0000b20c       $unwind$?filt$0@?0??CxxCallCatchBlock@__FrameHandler4@@SAPEAXPEAU_EXCEPTION_RECORD@@@Z@4HA 000000018003020c     libvcruntime:frame.obj
 0002:0000b20c       $unwind$?filt$0@?0??FrameUnwindToState@__FrameHandler3@@SAXPEA_KPEAU_xDISPATCHER_CONTEXT@@PEBU_s_FuncInfo@@H@Z@4HA 000000018003020c     libvcruntime:frame.obj
 0002:0000b20c       $unwind$?fin$1@?0??FrameUnwindToState@__FrameHandler3@@SAXPEA_KPEAU_xDISPATCHER_CONTEXT@@PEBU_s_FuncInfo@@H@Z@4HA 000000018003020c     libvcruntime:frame.obj
 0002:0000b214       $unwind$?AtlInternalOleLoadFromStream@ATL@@YAJPEAUIStream@@AEBU_GUID@@PEAPEAXTClassesAllowedInStream@1@K@Z 0000000180030214     Gate.obj
 0002:0000b230       $unwind$?ReadFromStream@CComBSTR@ATL@@QEAAJPEAUIStream@@@Z 0000000180030230     Gate.obj
 0002:0000b230       $unwind$_configure_narrow_argv 0000000180030230     libucrt:argv_parsing.obj
 0002:0000b244       $unwind$?WriteToStream@CComVariant@ATL@@QEAAJPEAUIStream@@@Z 0000000180030244     Gate.obj
 0002:0000b258       $unwind$?RegOpenKeyExW@CAtlTransactionManager@ATL@@QEAAJPEAUHKEY__@@PEB_WKKPEAPEAU3@@Z 0000000180030258     Gate.obj
 0002:0000b258       $unwind$?WriteToStream@CComVariant@ATL@@QEAAJPEAUIStream@@G@Z 0000000180030258     Gate.obj
 0002:0000b258       $unwind$__dcrt_write_console 0000000180030258     libucrt:initcon.obj
 0002:0000b258       $unwind$??$__acrt_convert_wcs_mbs_cp@_WDV<lambda_f788ae46380686e8b737efdd8c720d07>@@U__crt_win32_buffer_no_resizing@@@@YAHQEB_WAEAV?$__crt_win32_buffer@DU__crt_win32_buffer_no_resizing@@@@AEBV<lambda_f788ae46380686e8b737efdd8c720d07>@@I@Z 0000000180030258     libucrt:getmodulefilenamea.obj
 0002:0000b26c       $unwind$?ReadFromStream@CComVariant@ATL@@QEAAJPEAUIStream@@GTClassesAllowedInStream@2@K@Z 000000018003026c     Gate.obj
 0002:0000b284       $unwind$?GetSizeMax@CComVariant@ATL@@QEBAJPEAT_ULARGE_INTEGER@@@Z 0000000180030284     Gate.obj
 0002:0000b298       $unwind$?RegCreateKeyExW@CAtlTransactionManager@ATL@@QEAAJPEAUHKEY__@@PEB_WKPEA_WKKQEAU_SECURITY_ATTRIBUTES@@PEAPEAU3@PEAK@Z 0000000180030298     Gate.obj
 0002:0000b2ac       $unwind$?GetGITPtr@CAtlModule@ATL@@UEAAJPEAPEAUIGlobalInterfaceTable@@@Z 00000001800302ac     Gate.obj
 0002:0000b2ac       $unwind$?RegDeleteKeyW@CAtlTransactionManager@ATL@@QEAAJPEAUHKEY__@@PEB_W@Z 00000001800302ac     Gate.obj
 0002:0000b2ac       $unwind$?getStateFromIterators@UWMap4@FH4@@SAHAEBViterator@12@H0H0@Z 00000001800302ac     libvcruntime:frame.obj
 0002:0000b2bc       $unwind$?AtlHiMetricToPixel@ATL@@YAXPEBUtagSIZE@@PEAU2@@Z 00000001800302bc     Gate.obj
 0002:0000b2bc       $unwind$?AtlInternalQueryInterface@ATL@@YAJPEAXPEBU_ATL_INTMAP_ENTRY@1@AEBU_GUID@@PEAPEAX@Z 00000001800302bc     Gate.obj
 0002:0000b2d4       $unwind$?Append@CParseBuffer@CRegParser@ATL@@QEAAHPEB_WH@Z 00000001800302d4     Gate.obj
 0002:0000b2d4       $unwind$?AtlComModuleGetClassObject@ATL@@YAJPEAU_ATL_COM_MODULE70@1@AEBU_GUID@@1PEAPEAX@Z 00000001800302d4     Gate.obj
 0002:0000b2d4       $unwind$?GetClassObject@CComModule@ATL@@QEAAJAEBU_GUID@@0PEAPEAX@Z 00000001800302d4     Gate.obj
 0002:0000b2d4       $unwind$?NextToken@CRegParser@ATL@@IEAAJPEA_W@Z 00000001800302d4     Gate.obj
 0002:0000b2d4       $unwind$?StartWindowProc@?$CWindowImplBaseT@VCWindow@ATL@@V?$CWinTraits@$0FGAAAAAA@$0A@@2@@ATL@@SA_JPEAUHWND__@@I_K_J@Z 00000001800302d4     Gate.obj
 0002:0000b2d4       $unwind$?fp_format_f_internal@@YAHQEAD_KHQEAU_strflt@@_NAEAV__crt_cached_ptd_host@@@Z 00000001800302d4     libucrt:cvt.obj
 0002:0000b2d4       $unwind$__acrt_DownlevelLocaleNameToLCID 00000001800302d4     libucrt:lcidtoname_downlevel.obj
 0002:0000b2d4       $unwind$??R<lambda_f03950bc5685219e0bcd2087efbe011e>@@QEBAHXZ 00000001800302d4     libucrt:onexit.obj
 0002:0000b2ec       $unwind$?AtlRegisterClassCategoriesHelper@ATL@@YAJAEBU_GUID@@PEBU_ATL_CATMAP_ENTRY@1@H@Z 00000001800302ec     Gate.obj
 0002:0000b310       $unwind$?AtlLoadTypeLib@ATL@@YAJPEAUHINSTANCE__@@PEB_WPEAPEA_WPEAPEAUITypeLib@@@Z 0000000180030310     Gate.obj
 0002:0000b330       $unwind$?AtlRegisterTypeLib@ATL@@YAJPEAUHINSTANCE__@@PEB_W@Z 0000000180030330     Gate.obj
 0002:0000b34c       $unwind$?AtlUnRegisterTypeLib@ATL@@YAJPEAUHINSTANCE__@@PEB_W@Z 000000018003034c     Gate.obj
 0002:0000b354       $unwind$?GetTI@CComTypeInfoHolder@ATL@@QEAAJK@Z 0000000180030354     Gate.obj
 0002:0000b354       $unwind$?RecurseDeleteKey@CRegKey@ATL@@QEAAJPEB_W@Z 0000000180030354     Gate.obj
 0002:0000b374       $unwind$?UpdateRegistryFromResource@CAtlModule@ATL@@QEAAJIHPEAU_ATL_REGMAP_ENTRY@2@@Z 0000000180030374     Gate.obj
 0002:0000b374       $unwind$?UpdateRegistryFromResource@CAtlModule@ATL@@QEAAJPEB_WHPEAU_ATL_REGMAP_ENTRY@2@@Z 0000000180030374     Gate.obj
 0002:0000b394       $unwind$?Lookup@?$CSimpleMap@PEA_WPEA_WVCExpansionVectorEqualHelper@ATL@@@ATL@@QEBAPEA_WAEBQEA_W@Z 0000000180030394     Gate.obj
 0002:0000b394       $unwind$_free_osfhnd       0000000180030394     libucrt:osfinfo.obj
 0002:0000b394       $unwind$__std_exception_copy 0000000180030394     libvcruntime:std_exception.obj
 0002:0000b3a8       $unwind$?Add@CExpansionVector@ATL@@QEAAHPEB_W0@Z 00000001800303a8     Gate.obj
 0002:0000b3c0       $unwind$?PreProcessBuffer@CRegParser@ATL@@QEAAJPEA_WPEAPEA_W@Z 00000001800303c0     Gate.obj
 0002:0000b3e4       $unwind$?RegisterBuffer@CRegParser@ATL@@QEAAJPEA_WH@Z 00000001800303e4     Gate.obj
 0002:0000b404       $unwind$?AddValue@CRegParser@ATL@@IEAAJAEAVCRegKey@2@PEB_WPEA_W@Z 0000000180030404     Gate.obj
 0002:0000b424       $unwind$?RegisterSubkeys@CRegParser@ATL@@IEAAJPEA_WPEAUHKEY__@@HH@Z 0000000180030424     Gate.obj
 0002:0000b444       $unwind$?SkipAssignment@CRegParser@ATL@@IEAAJPEA_W@Z 0000000180030444     Gate.obj
 0002:0000b460       $unwind$?RegisterFromResource@CRegObject@ATL@@IEAAJPEB_W00H@Z 0000000180030460     Gate.obj
 0002:0000b480       $unwind$?Cleanup@CComTypeInfoHolder@ATL@@SAX_K@Z 0000000180030480     Gate.obj
 0002:0000b480       $unwind$_free_base         0000000180030480     libucrt:free_base.obj
 0002:0000b480       $unwind$?destroy_fls@@YAXPEAX@Z 0000000180030480     libucrt:per_thread_data.obj
 0002:0000b480       $unwind$__acrt_locale_free_numeric 0000000180030480     libucrt:initnum.obj
 0002:0000b480       $unwind$__acrt_locale_free_lc_time_if_unreferenced 0000000180030480     libucrt:locale_refcounting.obj
 0002:0000b480       $unwind$AtlThunk_FreeData  0000000180030480     atls:atlthunk.obj
 0002:0000b488       $unwind$?GetIDsOfNames@CComTypeInfoHolder@ATL@@QEAAJAEBU_GUID@@PEAPEA_WIKPEAJ@Z 0000000180030488     Gate.obj
 0002:0000b4a4       $unwind$?LoadNameCache@CComTypeInfoHolder@ATL@@QEAAJPEAUITypeInfo@@@Z 00000001800304a4     Gate.obj
 0002:0000b4bc       $unwind$?WindowProc@?$CWindowImplBaseT@VCWindow@ATL@@V?$CWinTraits@$0FGAAAAAA@$0A@@2@@ATL@@SA_JPEAUHWND__@@I_K_J@Z 00000001800304bc     Gate.obj
 0002:0000b4d4       $unwind$?atlCreate@?$CWindowImplBaseT@VCWindow@ATL@@V?$CWinTraits@$0FGAAAAAA@$0A@@2@@ATL@@QEAAPEAUHWND__@@PEAU3@V_U_RECT@2@PEB_WKKV_U_MENUorID@2@GPEAX@Z 00000001800304d4     Gate.obj
 0002:0000b4ec       $unwind$??$AtlModuleRegisterWndClassInfoT@VAtlModuleRegisterWndClassInfoParamW@ATL@@@ATL@@YAGPEAU_ATL_BASE_MODULE70@0@PEAU_ATL_WIN_MODULE70@0@PEAU_ATL_WNDCLASSINFOW@0@PEAP6A_JPEAUHWND__@@I_K_J@ZVAtlModuleRegisterWndClassInfoParamW@0@@Z 00000001800304ec     Gate.obj
 0002:0000b50c       $unwind$?GetZoomInfo@CComControlBase@ATL@@QEAAXAEAUATL_DRAWINFO@@@Z 000000018003050c     Gate.obj
 0002:0000b50c       $unwind$?OnKillFocus@CComControlBase@ATL@@QEAA_JI_K_JAEAH@Z 000000018003050c     Gate.obj
 0002:0000b50c       $unwind$?get_raw_ptd@__crt_cached_ptd_host@@QEAAPEAU__acrt_ptd@@XZ 000000018003050c     libucrt:invalid_parameter.obj
 0002:0000b518       $unwind$?SendOnDataChange@CComControlBase@ATL@@QEAAJK@Z 0000000180030518     Gate.obj
 0002:0000b528       $unwind$?OnSetFocus@CComControlBase@ATL@@QEAA_JI_K_JAEAH@Z 0000000180030528     Gate.obj
 0002:0000b53c       $unwind$?OnMouseActivate@CComControlBase@ATL@@QEAA_JI_K_JAEAH@Z 000000018003053c     Gate.obj
 0002:0000b544       $unwind$?GetAmbientLocaleID@CComControlBase@ATL@@QEAAJAEAK@Z 0000000180030544     Gate.obj
 0002:0000b544       $unwind$?GetAmbientUserMode@CComControlBase@ATL@@QEAAJAEAH@Z 0000000180030544     Gate.obj
 0002:0000b554       $unwind$?IQuickActivate_QuickActivate@CComControlBase@ATL@@QEAAJPEAUtagQACONTAINER@@PEAUtagQACONTROL@@@Z 0000000180030554     Gate.obj
 0002:0000b56c       $unwind$?DoVerbProperties@CComControlBase@ATL@@QEAAJPEBUtagRECT@@PEAUHWND__@@@Z 000000018003056c     Gate.obj
 0002:0000b584       $unwind$?InPlaceActivate@CComControlBase@ATL@@QEAAJJPEBUtagRECT@@@Z 0000000180030584     Gate.obj
 0002:0000b5a4       $unwind$?IOleObject_Close@CComControlBase@ATL@@QEAAJK@Z 00000001800305a4     Gate.obj
 0002:0000b5a4       $unwind$?get_raw_ptd_noexit@__crt_cached_ptd_host@@QEAAPEAU__acrt_ptd@@XZ 00000001800305a4     libucrt:invalid_parameter.obj
 0002:0000b5a4       $unwind$?type_case_c_tchar@?$output_processor@_WV?$string_output_adapter@_W@__crt_stdio_output@@V?$format_validation_base@_WV?$string_output_adapter@_W@__crt_stdio_output@@@2@@__crt_stdio_output@@AEAA_N_W@Z 00000001800305a4     libucrt:output.obj
 0002:0000b5b4       $unwind$?IOleInPlaceObject_UIDeactivate@CComControlBase@ATL@@QEAAJXZ 00000001800305b4     Gate.obj
 0002:0000b5cc       $unwind$?IOleInPlaceObject_SetObjectRects@CComControlBase@ATL@@QEAAJPEBUtagRECT@@0@Z 00000001800305cc     Gate.obj
 0002:0000b5e0       $unwind$?IViewObject_Draw@CComControlBase@ATL@@QEAAJKJPEAXPEAUtagDVTARGETDEVICE@@PEAUHDC__@@2PEBU_RECTL@@3@Z 00000001800305e0     Gate.obj
 0002:0000b5fc       $unwind$?IDataObject_GetData@CComControlBase@ATL@@QEAAJPEAUtagFORMATETC@@PEAUtagSTGMEDIUM@@@Z 00000001800305fc     Gate.obj
 0002:0000b61c       $unwind$?OnPaint@CComControlBase@ATL@@QEAA_JI_K_JAEAH@Z 000000018003061c     Gate.obj
 0002:0000b638       $unwind$?OnDrawAdvanced@CComControlBase@ATL@@UEAAJAEAUATL_DRAWINFO@@@Z 0000000180030638     Gate.obj
 0002:0000b654       $unwind$?Invoke@?$IDispatchImpl@UIOPOSGate@@$1?IID_IOPOSGate@@3U_GUID@@B$1?LIBID_OposGate_CCO@@3U3@B$00$0A@VCComTypeInfoHolder@ATL@@@ATL@@UEAAJJAEBU_GUID@@KGPEAUtagDISPPARAMS@@PEAUtagVARIANT@@PEAUtagEXCEPINFO@@PEAI@Z 0000000180030654     Gate.obj
 0002:0000b654       $unwind$_mbsdec_l          0000000180030654     libucrt:mbsdec.obj
 0002:0000b660       $unwind$?atlCreate@?$CWindowImpl@VCOPOSGate@@VCWindow@ATL@@V?$CWinTraits@$0FGAAAAAA@$0A@@3@@ATL@@QEAAPEAUHWND__@@PEAU3@V_U_RECT@2@PEB_WKKV_U_MENUorID@2@PEAX@Z 0000000180030660     Gate.obj
 0002:0000b660       $unwind$?fp_format_f@@YAHQEBNQEAD_K12HW4__acrt_rounding_mode@@AEAV__crt_cached_ptd_host@@@Z 0000000180030660     libucrt:cvt.obj
 0002:0000b660       $unwind$__acrt_LCMapStringEx 0000000180030660     libucrt:winapi_thunks.obj
 0002:0000b674       $unwind$?CreateControlWindow@?$CComControl@VCOPOSGate@@V?$CWindowImpl@VCOPOSGate@@VCWindow@ATL@@V?$CWinTraits@$0FGAAAAAA@$0A@@3@@ATL@@@ATL@@UEAAPEAUHWND__@@PEAU3@AEAUtagRECT@@@Z 0000000180030674     Gate.obj
 0002:0000b674       $unwind$?OpenGate@COPOSGate@@UEAAJPEAJ@Z 0000000180030674     GateImpl.obj
 0002:0000b674       $unwind$?ReleaseDevice@COPOSGate@@UEAAJPEAJ@Z 0000000180030674     GateImpl.obj
 0002:0000b674       $unwind$_raise_exc         0000000180030674     libucrt:fpexcept.obj
 0002:0000b674       $unwind$?__scrt_throw_std_bad_alloc@@YAXXZ 0000000180030674     LIBCMT:throw_bad_alloc.obj
 0002:0000b674       $unwind$?__scrt_throw_std_bad_array_new_length@@YAXXZ 0000000180030674     LIBCMT:throw_bad_alloc.obj
 0002:0000b67c       $unwind$?ProcessWindowMessage@?$CComControl@VCOPOSGate@@V?$CWindowImpl@VCOPOSGate@@VCWindow@ATL@@V?$CWinTraits@$0FGAAAAAA@$0A@@3@@ATL@@@ATL@@UEAAHPEAUHWND__@@I_K_JAEA_JK@Z 000000018003067c     Gate.obj
 0002:0000b684       $unwind$?GetSizeMax@?$IPersistStreamInitImpl@VCOPOSGate@@@ATL@@UEAAJPEAT_ULARGE_INTEGER@@@Z 0000000180030684     Gate.obj
 0002:0000b69c       $unwind$?IPersistStreamInit_Load@?$IPersistStreamInitImpl@VCOPOSGate@@@ATL@@QEAAJPEAUIStream@@PEBUATL_PROPMAP_ENTRY@2@@Z 000000018003069c     Gate.obj
 0002:0000b6b8       $unwind$?IPersistStreamInit_Save@?$IPersistStreamInitImpl@VCOPOSGate@@@ATL@@QEAAJPEAUIStream@@HPEBUATL_PROPMAP_ENTRY@2@@Z 00000001800306b8     Gate.obj
 0002:0000b6d4       $unwind$?DoVerbPrimary@?$IOleObjectImpl@VCOPOSGate@@@ATL@@QEAAJPEBUtagRECT@@PEAUHWND__@@@Z 00000001800306d4     Gate.obj
 0002:0000b6ec       $unwind$?TranslateAcceleratorW@?$IOleInPlaceActiveObjectImpl@VCOPOSGate@@@ATL@@UEAAJPEAUtagMSG@@@Z 00000001800306ec     Gate.obj
 0002:0000b6f8       $unwind$?Draw@?$IViewObjectExImpl@VCOPOSGate@@@ATL@@UEAAJKJPEAXPEAUtagDVTARGETDEVICE@@PEAUHDC__@@2PEBU_RECTL@@3P6AH_K@Z4@Z 00000001800306f8     Gate.obj
 0002:0000b700       $unwind$?QueryHitRect@?$IViewObjectExImpl@VCOPOSGate@@@ATL@@UEAAJKPEBUtagRECT@@0JPEAK@Z 0000000180030700     Gate.obj
 0002:0000b710       $unwind$?OnWindowMessage@?$IOleInPlaceObjectWindowlessImpl@VCOPOSGate@@@ATL@@UEAAJI_K_JPEA_J@Z 0000000180030710     Gate.obj
 0002:0000b724       $unwind$?EnumConnectionPoints@?$IConnectionPointContainerImpl@VCOPOSGate@@@ATL@@UEAAJPEAPEAUIEnumConnectionPoints@@@Z 0000000180030724     Gate.obj
 0002:0000b74c       $unwind$?FindConnectionPoint@?$IConnectionPointContainerImpl@VCOPOSGate@@@ATL@@UEAAJAEBU_GUID@@PEAPEAUIConnectionPoint@@@Z 000000018003074c     Gate.obj
 0002:0000b768       $unwind$?Load@?$IPersistStorageImpl@VCOPOSGate@@@ATL@@UEAAJPEAUIStorage@@@Z 0000000180030768     Gate.obj
 0002:0000b778       $unwind$?Save@?$IPersistStorageImpl@VCOPOSGate@@@ATL@@UEAAJPEAUIStorage@@H@Z 0000000180030778     Gate.obj
 0002:0000b78c       $unwind$?IPSI_GetIPersistStreamInit@?$IPersistStorageImpl@VCOPOSGate@@@ATL@@AEAAPEAUIPersistStreamInit@@XZ 000000018003078c     Gate.obj
 0002:0000b7a0       $unwind$?GetInterfaceSafetyOptions@?$IObjectSafetyImpl@VCOPOSGate@@$02@ATL@@UEAAJAEBU_GUID@@PEAK1@Z 00000001800307a0     Gate.obj
 0002:0000b7b4       $unwind$?SetInterfaceSafetyOptions@?$IObjectSafetyImpl@VCOPOSGate@@$02@ATL@@UEAAJAEBU_GUID@@KK@Z 00000001800307b4     Gate.obj
 0002:0000b7c8       $unwind$?Advise@?$IConnectionPointImpl@VCOPOSGate@@$1?DIID__IOPOSGateEvents@@3U_GUID@@BVCComDynamicUnkArray@ATL@@@ATL@@UEAAJPEAUIUnknown@@PEAK@Z 00000001800307c8     Gate.obj
 0002:0000b7c8       $unwind$?Advise@?$IConnectionPointImpl@VCOPOSGate@@$1?IID_IPropertyNotifySink@@3U_GUID@@BVCComDynamicUnkArray@ATL@@@ATL@@UEAAJPEAUIUnknown@@PEAK@Z 00000001800307c8     Gate.obj
 0002:0000b7dc       $unwind$?EnumConnections@?$IConnectionPointImpl@VCOPOSGate@@$1?DIID__IOPOSGateEvents@@3U_GUID@@BVCComDynamicUnkArray@ATL@@@ATL@@UEAAJPEAPEAUIEnumConnections@@@Z 00000001800307dc     Gate.obj
 0002:0000b7dc       $unwind$?EnumConnections@?$IConnectionPointImpl@VCOPOSGate@@$1?IID_IPropertyNotifySink@@3U_GUID@@BVCComDynamicUnkArray@ATL@@@ATL@@UEAAJPEAPEAUIEnumConnections@@@Z 00000001800307dc     Gate.obj
 0002:0000b7f4       $unwind$?Fire_DirectIOEvent@?$CProxy_IOPOSEvents@VCOPOSGate@@@@QEAAXJPEAJPEAPEA_W@Z 00000001800307f4     Gate.obj
 0002:0000b814       $unwind$?Fire_StatusUpdateEvent@?$CProxy_IOPOSEvents@VCOPOSGate@@@@QEAAXJ@Z 0000000180030814     Gate.obj
 0002:0000b814       $unwind$?fp_format_e@@YAHQEBNQEAD_K12H_NIW4__acrt_rounding_mode@@AEAV__crt_cached_ptd_host@@@Z 0000000180030814     libucrt:cvt.obj
 0002:0000b814       $unwind$??$__InternalCxxFrameHandler@V__FrameHandler3@@@@YA?AW4_EXCEPTION_DISPOSITION@@PEAUEHExceptionRecord@@PEA_KPEAU_CONTEXT@@PEAU_xDISPATCHER_CONTEXT@@PEBU_s_FuncInfo@@H1E@Z 0000000180030814     libvcruntime:frame.obj
 0002:0000b82c       $unwind$?FireTheEvent@?$CProxy_IOPOSEvents@VCOPOSGate@@@@IEAAXPEAVOposVariant@@IAEAJPEB_WJ@Z 000000018003082c     Gate.obj
 0002:0000b83c       $unwind$?ProcessWindowMessage@COPOSGate@@UEAAHPEAUHWND__@@I_K_JAEA_JK@Z 000000018003083c     Gate.obj
 0002:0000b854       $unwind$?Clone@?$CComEnumImpl@UIEnumConnectionPoints@@$1?_GUID_b196b285_bab4_101a_b69c_00aa00341d07@@3U__s_GUID@@BPEAUIConnectionPoint@@V?$_CopyInterface@UIConnectionPoint@@@ATL@@@ATL@@UEAAJPEAPEAUIEnumConnectionPoints@@@Z 0000000180030854     Gate.obj
 0002:0000b854       $unwind$?Clone@?$CComEnumImpl@UIEnumConnections@@$1?_GUID_b196b287_bab4_101a_b69c_00aa00341d07@@3U__s_GUID@@BUtagCONNECTDATA@@V?$_Copy@UtagCONNECTDATA@@@ATL@@@ATL@@UEAAJPEAPEAUIEnumConnections@@@Z 0000000180030854     Gate.obj
 0002:0000b86c       $unwind$?Init@?$CComEnumImpl@UIEnumConnectionPoints@@$1?_GUID_b196b285_bab4_101a_b69c_00aa00341d07@@3U__s_GUID@@BPEAUIConnectionPoint@@V?$_CopyInterface@UIConnectionPoint@@@ATL@@@ATL@@QEAAJPEAPEAUIConnectionPoint@@0PEAUIUnknown@@W4CComEnumFlags@2@@Z 000000018003086c     Gate.obj
 0002:0000b86c       $unwind$?Init@?$CComEnumImpl@UIEnumConnections@@$1?_GUID_b196b287_bab4_101a_b69c_00aa00341d07@@3U__s_GUID@@BUtagCONNECTDATA@@V?$_Copy@UtagCONNECTDATA@@@ATL@@@ATL@@QEAAJPEAUtagCONNECTDATA@@0PEAUIUnknown@@W4CComEnumFlags@2@@Z 000000018003086c     Gate.obj
 0002:0000b86c       $unwind$?should_round_up@@YA_NQEBN_KFW4__acrt_rounding_mode@@@Z 000000018003086c     libucrt:cvt.obj
 0002:0000b86c       $unwind$??$parse_command_line@D@@YAXPEADPEAPEAD0PEA_K2@Z 000000018003086c     libucrt:argv_parsing.obj
 0002:0000b888       $unwind$?GetOposProp@COPOSGate@@IEAAJJPEAJJ@Z 0000000180030888     GateImpl.obj
 0002:0000b888       $unwind$?GetOposProp@COPOSGate@@IEAAJJPEAPEA_WJ@Z 0000000180030888     GateImpl.obj
 0002:0000b8a0       $unwind$?SetOposProp@COPOSGate@@IEAAJJJJ@Z 00000001800308a0     GateImpl.obj
 0002:0000b8c0       $unwind$?DoInvoke@COPOSGate@@IEAAJJPEAVOposVariant@@IHPEAJ_N@Z 00000001800308c0     GateImpl.obj
 0002:0000b8d8       $unwind$?SetCOFreezeEvents@COPOSGate@@IEAAXF@Z 00000001800308d8     GateImpl.obj
 0002:0000b8ec       $unwind$?OnDraw@COPOSGate@@MEAAJAEAUATL_DRAWINFO@@@Z 00000001800308ec     GateImpl.obj
 0002:0000b904       $unwind$?EventInit@COPOSGate@@IEAAJXZ 0000000180030904     GateImpl.obj
 0002:0000b918       $unwind$?get_ControlObjectDescription@COPOSGate@@UEAAJPEAPEA_W@Z 0000000180030918     GateImpl.obj
 0002:0000b918       $unwind$__dcrt_lowio_ensure_console_output_initialized 0000000180030918     libucrt:initcon.obj
 0002:0000b918       $unwind$?__mbrtowc_utf8@__crt_mbstring@@YA_KPEA_WPEBD_KPEAU_Mbstatet@@AEAV__crt_cached_ptd_host@@@Z 0000000180030918     libucrt:mbrtowc.obj
 0002:0000b918       $unwind$?getSystemCP@@YAHH@Z 0000000180030918     libucrt:mbctype.obj
 0002:0000b920       $unwind$?CheckHealth@COPOSGate@@UEAAJJPEAJ@Z 0000000180030920     GateImpl.obj
 0002:0000b920       $unwind$?ResetStatistics@COPOSGate@@UEAAJPEA_WPEAJ@Z 0000000180030920     GateImpl.obj
 0002:0000b920       $unwind$?RetrieveStatistics@COPOSGate@@UEAAJPEAPEA_WPEAJ@Z 0000000180030920     GateImpl.obj
 0002:0000b920       $unwind$?UpdateFirmware@COPOSGate@@UEAAJPEA_WPEAJ@Z 0000000180030920     GateImpl.obj
 0002:0000b920       $unwind$?UpdateStatistics@COPOSGate@@UEAAJPEA_WPEAJ@Z 0000000180030920     GateImpl.obj
 0002:0000b920       $unwind$?WaitForGateClose@COPOSGate@@UEAAJJPEAJ@Z 0000000180030920     GateImpl.obj
 0002:0000b930       $unwind$?ClaimDevice@COPOSGate@@UEAAJJPEAJ@Z 0000000180030930     GateImpl.obj
 0002:0000b940       $unwind$?Close@COPOSGate@@UEAAJPEAJ@Z 0000000180030940     GateImpl.obj
 0002:0000b94c       $unwind$?DirectIO@COPOSGate@@UEAAJJPEAJPEAPEA_W0@Z 000000018003094c     GateImpl.obj
 0002:0000b968       $unwind$?Open@COPOSGate@@UEAAJPEA_WPEAJ@Z 0000000180030968     GateImpl.obj
 0002:0000b98c       $unwind$?CompareFirmwareVersion@COPOSGate@@UEAAJPEA_WPEAJ1@Z 000000018003098c     GateImpl.obj
 0002:0000b98c       $unwind$?initialize_inherited_file_handles_nolock@@YAXXZ 000000018003098c     libucrt:ioinit.obj
 0002:0000b9a8       $unwind$__scrt_is_nonwritable_in_current_image 00000001800309a8     LIBCMT:utility.obj
 0002:0000b9c8       $unwind$__scrt_is_nonwritable_in_current_image$filt$0 00000001800309c8     LIBCMT:utility.obj
 0002:0000b9d0       $unwind$__report_securityfailure 00000001800309d0     LIBCMT:gs_report.obj
 0002:0000b9d8       $unwind$__report_gsfailure 00000001800309d8     LIBCMT:gs_report.obj
 0002:0000b9e0       $unwind$capture_current_context 00000001800309e0     LIBCMT:gs_report.obj
 0002:0000b9ec       $unwind$capture_previous_context 00000001800309ec     LIBCMT:gs_report.obj
 0002:0000b9f8       $unwind$??2@YAPEAX_KAEBUnothrow_t@std@@@Z 00000001800309f8     LIBCMT:new_scalar_nothrow.obj
 0002:0000ba08       $cppxdata$??2@YAPEAX_KAEBUnothrow_t@std@@@Z 0000000180030a08     LIBCMT:new_scalar_nothrow.obj
 0002:0000ba15       $stateUnwindMap$??2@YAPEAX_KAEBUnothrow_t@std@@@Z 0000000180030a15     LIBCMT:new_scalar_nothrow.obj
 0002:0000ba18       $tryMap$??2@YAPEAX_KAEBUnothrow_t@std@@@Z 0000000180030a18     LIBCMT:new_scalar_nothrow.obj
 0002:0000ba20       $handlerMap$??2@YAPEAX_KAEBUnothrow_t@std@@@Z 0000000180030a20     LIBCMT:new_scalar_nothrow.obj
 0002:0000ba28       $ip2state$??2@YAPEAX_KAEBUnothrow_t@std@@@Z 0000000180030a28     LIBCMT:new_scalar_nothrow.obj
 0002:0000ba2c       $unwind$?catch$0@?0???2@YAPEAX_KAEBUnothrow_t@std@@@Z@4HA 0000000180030a2c     LIBCMT:new_scalar_nothrow.obj
 0002:0000ba3c       $cppxdata$?catch$0@?0???2@YAPEAX_KAEBUnothrow_t@std@@@Z@4HA 0000000180030a3c     LIBCMT:new_scalar_nothrow.obj
 0002:0000ba46       $stateUnwindMap$?catch$0@?0???2@YAPEAX_KAEBUnothrow_t@std@@@Z@4HA 0000000180030a46     LIBCMT:new_scalar_nothrow.obj
 0002:0000ba48       $ip2state$?catch$0@?0???2@YAPEAX_KAEBUnothrow_t@std@@@Z@4HA 0000000180030a48     LIBCMT:new_scalar_nothrow.obj
 0002:0000ba4c       $unwind$__GSHandlerCheckCommon 0000000180030a4c     LIBCMT:gshandler.obj
 0002:0000ba58       $xdatasym                  0000000180030a58     LIBCMT:chkstk.obj
 0002:0000ba60       $xdatasym                  0000000180030a60     LIBCMT:amdsecgs.obj
 0002:0000ba64       $unwind$?dllmain_crt_process_attach@@YAHQEAUHINSTANCE__@@QEAX@Z 0000000180030a64     LIBCMT:dll_dllmain.obj
 0002:0000baa0       $unwind$?dllmain_crt_process_detach@@YAH_N@Z 0000000180030aa0     LIBCMT:dll_dllmain.obj
 0002:0000baf4       $unwind$?dllmain_dispatch@@YAHQEAUHINSTANCE__@@KQEAX@Z 0000000180030af4     LIBCMT:dll_dllmain.obj
 0002:0000bb1c       $unwind$_write_internal$fin$0 0000000180030b1c     libucrt:write.obj
 0002:0000bb1c       $unwind$?fin$0@?0??_fclose_internal@@YAHQEAU_iobuf@@AEAV__crt_cached_ptd_host@@@Z@4HA 0000000180030b1c     libucrt:fclose.obj
 0002:0000bb1c       $unwind$?filt$0@?0??dllmain_dispatch@@YAHQEAUHINSTANCE__@@KQEAX@Z@4HA 0000000180030b1c     LIBCMT:dll_dllmain.obj
 0002:0000bb1c       $unwind$?filt$0@?0??FrameUnwindToState@__FrameHandler4@@SAXPEA_KPEAU_xDISPATCHER_CONTEXT@@PEAUFuncInfo4@FH4@@H@Z@4HA 0000000180030b1c     libvcruntime:frame.obj
 0002:0000bb1c       $unwind$?fin$1@?0??FrameUnwindToState@__FrameHandler4@@SAXPEA_KPEAU_xDISPATCHER_CONTEXT@@PEAUFuncInfo4@FH4@@H@Z@4HA 0000000180030b1c     libvcruntime:frame.obj
 0002:0000bb24       $unwind$__isa_available_init 0000000180030b24     LIBCMT:cpu_disp.obj
 0002:0000bb34       $unwind$__scrt_fastfail    0000000180030b34     LIBCMT:utility_desktop.obj
 0002:0000bb44       $unwind$__security_init_cookie 0000000180030b44     LIBCMT:gs_support.obj
 0002:0000bb50       $xdatasym                  0000000180030b50     LIBCMT:guard_dispatch.obj
 0002:0000bb58       $xdatasym                  0000000180030b58     LIBCMT:guard_xfg_dispatch.obj
 0002:0000bb5c       $unwind$AtlThunk_InitData  0000000180030b5c     atls:atlthunk.obj
 0002:0000bb70       $unwind$wcsstr             0000000180030b70     libvcruntime:wcsstr.obj
 0002:0000bb88       $xdatasym                  0000000180030b88     libvcruntime:memcmp.obj
 0002:0000bb90       $xdatasym                  0000000180030b90     libvcruntime:memcpy.obj
 0002:0000bba0       $xdatasym                  0000000180030ba0     libvcruntime:memset.obj
 0002:0000bbb0       $unwind$__C_specific_handler 0000000180030bb0     libvcruntime:riscchandler.obj
 0002:0000bbb0       $unwind$?GetRangeOfTrysToCheck@__FrameHandler3@@SA?AU?$pair@Viterator@TryBlockMap@__FrameHandler3@@V123@@std@@AEAVTryBlockMap@1@HPEAU_xDISPATCHER_CONTEXT@@PEBU_s_FuncInfo@@H@Z 0000000180030bb0     libvcruntime:risctrnsctrl.obj
 0002:0000bbcc       $unwind$?StateFromIp@__FrameHandler4@@SAHPEAUFuncInfo4@FH4@@PEAU_xDISPATCHER_CONTEXT@@_K@Z 0000000180030bcc     libvcruntime:ehstate.obj
 0002:0000bbcc       $unwind$?DecompFuncInfo@FH4@@YA_JPEAEAEAUFuncInfo4@1@_KH_N@Z 0000000180030bcc     libvcruntime:risctrnsctrl.obj
 0002:0000bbe4       $unwind$?GetEstablisherFrame@__FrameHandler3@@SAPEA_KPEA_KPEAU_xDISPATCHER_CONTEXT@@PEBU_s_FuncInfo@@0@Z 0000000180030be4     libvcruntime:risctrnsctrl.obj
 0002:0000bbfc       $unwind$?UnwindNestedFrames@__FrameHandler3@@SAXPEA_KPEAUEHExceptionRecord@@PEAU_CONTEXT@@0PEAXPEBU_s_FuncInfo@@HHPEBU_s_HandlerType@@PEAU_xDISPATCHER_CONTEXT@@E@Z 0000000180030bfc     libvcruntime:risctrnsctrl.obj
 0002:0000bbfc       $unwind$?UnwindNestedFrames@__FrameHandler4@@SAXPEA_KPEAUEHExceptionRecord@@PEAU_CONTEXT@@0PEAXPEAUFuncInfo4@FH4@@HHPEAUHandlerType4@5@PEAU_xDISPATCHER_CONTEXT@@E@Z 0000000180030bfc     libvcruntime:risctrnsctrl.obj
 0002:0000bc10       $unwind$?GetRangeOfTrysToCheck@__FrameHandler4@@SA?AU?$pair@Viterator@TryBlockMap4@FH4@@V123@@std@@AEAVTryBlockMap4@FH4@@HPEAU_xDISPATCHER_CONTEXT@@PEAUFuncInfo4@5@H@Z 0000000180030c10     libvcruntime:risctrnsctrl.obj
 0002:0000bc2c       $unwind$__CxxFrameHandler3 0000000180030c2c     libvcruntime:risctrnsctrl.obj
 0002:0000bc40       $unwind$__CxxFrameHandler4 0000000180030c40     libvcruntime:risctrnsctrl.obj
 0002:0000bc54       $unwind$??$_CallSETranslator@V__FrameHandler4@@@@YAHPEAUEHExceptionRecord@@PEA_KPEAU_CONTEXT@@PEAU_xDISPATCHER_CONTEXT@@PEAUFuncInfo4@FH4@@K1H@Z 0000000180030c54     libvcruntime:risctrnsctrl.obj
 0002:0000bc74       $unwind$?filt$0@?0???$_CallSETranslator@V__FrameHandler3@@@@YAHPEAUEHExceptionRecord@@PEA_KPEAU_CONTEXT@@PEAU_xDISPATCHER_CONTEXT@@PEBU_s_FuncInfo@@K1H@Z@4HA 0000000180030c74     libvcruntime:risctrnsctrl.obj
 0002:0000bc74       $unwind$?filt$0@?0???$_CallSETranslator@V__FrameHandler4@@@@YAHPEAUEHExceptionRecord@@PEA_KPEAU_CONTEXT@@PEAU_xDISPATCHER_CONTEXT@@PEAUFuncInfo4@FH4@@K1H@Z@4HA 0000000180030c74     libvcruntime:risctrnsctrl.obj
 0002:0000bc80       $unwind$??$_CallSETranslator@V__FrameHandler3@@@@YAHPEAUEHExceptionRecord@@PEA_KPEAU_CONTEXT@@PEAU_xDISPATCHER_CONTEXT@@PEBU_s_FuncInfo@@K1H@Z 0000000180030c80     libvcruntime:risctrnsctrl.obj
 0002:0000bca0       $unwind$__DestructExceptionObject 0000000180030ca0     libvcruntime:ehhelpers.obj
 0002:0000bcc0       $unwind$__DestructExceptionObject$filt$0 0000000180030cc0     libvcruntime:ehhelpers.obj
 0002:0000bcc0       $unwind$?fin$1@?0??CxxCallCatchBlock@__FrameHandler3@@SAPEAXPEAU_EXCEPTION_RECORD@@@Z@4HA 0000000180030cc0     libvcruntime:frame.obj
 0002:0000bcc0       $unwind$?fin$1@?0??CxxCallCatchBlock@__FrameHandler4@@SAPEAXPEAU_EXCEPTION_RECORD@@@Z@4HA 0000000180030cc0     libvcruntime:frame.obj
 0002:0000bccc       $unwind$_CxxThrowException 0000000180030ccc     libvcruntime:throw.obj
 0002:0000bce0       $xdatasym                  0000000180030ce0     libvcruntime:notify.obj
 0002:0000bcec       $unwind$?getStartStop@UWMap4@FH4@@QEAAXHHAEAViterator@12@0@Z 0000000180030cec     libvcruntime:frame.obj
 0002:0000bd04       $unwind$?FrameUnwindToState@__FrameHandler3@@SAXPEA_KPEAU_xDISPATCHER_CONTEXT@@PEBU_s_FuncInfo@@H@Z 0000000180030d04     libvcruntime:frame.obj
 0002:0000bd50       $unwind$?CxxCallCatchBlock@__FrameHandler3@@SAPEAXPEAU_EXCEPTION_RECORD@@@Z 0000000180030d50     libvcruntime:frame.obj
 0002:0000bd8c       $unwind$?FrameUnwindToState@__FrameHandler4@@SAXPEA_KPEAU_xDISPATCHER_CONTEXT@@PEAUFuncInfo4@FH4@@H@Z 0000000180030d8c     libvcruntime:frame.obj
 0002:0000bdd4       $unwind$?CxxCallCatchBlock@__FrameHandler4@@SAPEAXPEAU_EXCEPTION_RECORD@@@Z 0000000180030dd4     libvcruntime:frame.obj
 0002:0000be30       $unwind$?IsInExceptionSpec@@YAEPEAUEHExceptionRecord@@PEBU_s_ESTypeList@@@Z 0000000180030e30     libvcruntime:frame.obj
 0002:0000be4c       $unwind$??$__InternalCxxFrameHandler@V__FrameHandler4@@@@YA?AW4_EXCEPTION_DISPOSITION@@PEAUEHExceptionRecord@@PEA_KPEAU_CONTEXT@@PEAU_xDISPATCHER_CONTEXT@@PEAUFuncInfo4@FH4@@H1E@Z 0000000180030e4c     libvcruntime:frame.obj
 0002:0000be64       $unwind$??$BuildCatchObjectHelperInternal@V__FrameHandler3@@@@YAHPEAUEHExceptionRecord@@PEAXPEBU_s_HandlerType@@PEBU_s_CatchableType@@@Z 0000000180030e64     libvcruntime:frame.obj
 0002:0000bea4       $unwind$??$BuildCatchObjectHelperInternal@V__FrameHandler4@@@@YAHPEAUEHExceptionRecord@@PEAXPEAUHandlerType4@FH4@@PEBU_s_CatchableType@@@Z 0000000180030ea4     libvcruntime:frame.obj
 0002:0000bee4       $unwind$??$BuildCatchObjectInternal@V__FrameHandler3@@@@YAXPEAUEHExceptionRecord@@PEAXPEBU_s_HandlerType@@PEBU_s_CatchableType@@@Z 0000000180030ee4     libvcruntime:frame.obj
 0002:0000bf10       $unwind$??$BuildCatchObjectInternal@V__FrameHandler4@@@@YAXPEAUEHExceptionRecord@@PEAXPEAUHandlerType4@FH4@@PEBU_s_CatchableType@@@Z 0000000180030f10     libvcruntime:frame.obj
 0002:0000bf3c       $unwind$??$FindHandler@V__FrameHandler3@@@@YAXPEAUEHExceptionRecord@@PEA_KPEAU_CONTEXT@@PEAU_xDISPATCHER_CONTEXT@@PEBU_s_FuncInfo@@EH1@Z 0000000180030f3c     libvcruntime:frame.obj
 0002:0000bf5c       $unwind$??$FindHandler@V__FrameHandler4@@@@YAXPEAUEHExceptionRecord@@PEA_KPEAU_CONTEXT@@PEAU_xDISPATCHER_CONTEXT@@PEAUFuncInfo4@FH4@@EH1@Z 0000000180030f5c     libvcruntime:frame.obj
 0002:0000bf7c       $unwind$??$CatchIt@V__FrameHandler3@@@@YAXPEAUEHExceptionRecord@@PEA_KPEAU_CONTEXT@@PEAU_xDISPATCHER_CONTEXT@@PEBU_s_FuncInfo@@PEBU_s_HandlerType@@PEBU_s_CatchableType@@PEBU_s_TryBlockMapEntry@@H1EE@Z 0000000180030f7c     libvcruntime:frame.obj
 0002:0000bf7c       $unwind$??$CatchIt@V__FrameHandler4@@@@YAXPEAUEHExceptionRecord@@PEA_KPEAU_CONTEXT@@PEAU_xDISPATCHER_CONTEXT@@PEAUFuncInfo4@FH4@@PEAUHandlerType4@4@PEBU_s_CatchableType@@PEAUTryBlockMapEntry4@4@H1EE@Z 0000000180030f7c     libvcruntime:frame.obj
 0002:0000bf94       $unwind$??$FindHandlerForForeignException@V__FrameHandler3@@@@YAXPEAUEHExceptionRecord@@PEA_KPEAU_CONTEXT@@PEAU_xDISPATCHER_CONTEXT@@PEBU_s_FuncInfo@@HH1@Z 0000000180030f94     libvcruntime:frame.obj
 0002:0000bfb0       $unwind$??$FindHandlerForForeignException@V__FrameHandler4@@@@YAXPEAUEHExceptionRecord@@PEA_KPEAU_CONTEXT@@PEAU_xDISPATCHER_CONTEXT@@PEAUFuncInfo4@FH4@@HH1@Z 0000000180030fb0     libvcruntime:frame.obj
 0002:0000bfd0       $unwind$?try_get_function@@YAPEAXW4function_id@?A0x391cf84c@@QEBDQEBW4module_id@2@2@Z 0000000180030fd0     libucrt:winapi_thunks.obj
 0002:0000bfd0       $unwind$?try_get_function@@YAPEAXW4function_id@?A0xbc0cc709@@QEBDQEBW4module_id@2@2@Z 0000000180030fd0     libvcruntime:winapi_downlevel.obj
 0002:0000bff0       $xdatasym                  0000000180030ff0     libvcruntime:handlers.obj
 0002:0000c010       $unwind$__acrt_call_reportfault 0000000180031010     libucrt:invalid_parameter.obj
 0002:0000c030       $unwind$??$common_lseek_nolock@_J@@YA_JH_JHAEAV__crt_cached_ptd_host@@@Z 0000000180031030     libucrt:lseek.obj
 0002:0000c030       $unwind$_invalid_parameter_internal 0000000180031030     libucrt:invalid_parameter.obj
 0002:0000c030       $unwind$??$type_case_integer@$07@?$output_processor@_WV?$string_output_adapter@_W@__crt_stdio_output@@V?$format_validation_base@_WV?$string_output_adapter@_W@__crt_stdio_output@@@2@@__crt_stdio_output@@AEAA_N_N@Z 0000000180031030     libucrt:output.obj
 0002:0000c030       $unwind$??$type_case_integer@$09@?$output_processor@_WV?$string_output_adapter@_W@__crt_stdio_output@@V?$format_validation_base@_WV?$string_output_adapter@_W@__crt_stdio_output@@@2@@__crt_stdio_output@@AEAA_N_N@Z 0000000180031030     libucrt:output.obj
 0002:0000c030       $unwind$??$type_case_integer@$0BA@@?$output_processor@_WV?$string_output_adapter@_W@__crt_stdio_output@@V?$format_validation_base@_WV?$string_output_adapter@_W@__crt_stdio_output@@@2@@__crt_stdio_output@@AEAA_N_N@Z 0000000180031030     libucrt:output.obj
 0002:0000c044       $unwind$_invalid_parameter 0000000180031044     libucrt:invalid_parameter.obj
 0002:0000c050       $unwind$_resetstkoflw      0000000180031050     libucrt:resetstk.obj
 0002:0000c074       $unwind$__stdio_common_vswprintf_s 0000000180031074     libucrt:output.obj
 0002:0000c088       $unwind$?write_string@?$string_output_adapter@_W@__crt_stdio_output@@QEBAXQEB_WHQEAHAEAV__crt_cached_ptd_host@@@Z 0000000180031088     libucrt:output.obj
 0002:0000c0a0       $unwind$??$common_vsprintf@Vformat_validation_base@__crt_stdio_output@@_W@@YAH_KQEA_W0QEB_WAEAV__crt_cached_ptd_host@@QEAD@Z 00000001800310a0     libucrt:output.obj
 0002:0000c0c0       $unwind$?parse_int_from_format_string@?$output_processor@_WV?$string_output_adapter@_W@__crt_stdio_output@@V?$format_validation_base@_WV?$string_output_adapter@_W@__crt_stdio_output@@@2@@__crt_stdio_output@@AEAA_NQEAH@Z 00000001800310c0     libucrt:output.obj
 0002:0000c0d4       $unwind$?state_case_type@?$output_processor@_WV?$string_output_adapter@_W@__crt_stdio_output@@V?$format_validation_base@_WV?$string_output_adapter@_W@__crt_stdio_output@@@2@@__crt_stdio_output@@AEAA_NXZ 00000001800310d4     libucrt:output.obj
 0002:0000c0f8       $unwind$?type_case_a@?$output_processor@_WV?$string_output_adapter@_W@__crt_stdio_output@@V?$format_validation_base@_WV?$string_output_adapter@_W@__crt_stdio_output@@@2@@__crt_stdio_output@@AEAA_NXZ 00000001800310f8     libucrt:output.obj
 0002:0000c10c       $unwind$?type_case_n@?$output_processor@_WV?$string_output_adapter@_W@__crt_stdio_output@@V?$format_validation_base@_WV?$string_output_adapter@_W@__crt_stdio_output@@@2@@__crt_stdio_output@@AEAA_NXZ 000000018003110c     libucrt:output.obj
 0002:0000c118       $unwind$??$parse_integer@KV?$c_string_character_source@_W@__crt_strtox@@$0A@@__crt_strtox@@YAKAEAV__crt_cached_ptd_host@@V?$c_string_character_source@_W@0@H_N@Z 0000000180031118     libucrt:output.obj
 0002:0000c134       $unwind$?try_cor_exit_process@@YAXI@Z 0000000180031134     libucrt:exit.obj
 0002:0000c148       $ip2state$?try_cor_exit_process@@YAXI@Z 0000000180031148     libucrt:exit.obj
 0002:0000c150       $unwind$?common_exit@@YAXHW4_crt_exit_cleanup_mode@@W4_crt_exit_return_mode@@@Z 0000000180031150     libucrt:exit.obj
 0002:0000c164       $stateUnwindMap$__dcrt_uninitialize_environments_nolock 0000000180031164     libucrt:environment_initialization.obj
 0002:0000c164       $stateUnwindMap$?common_exit@@YAXHW4_crt_exit_cleanup_mode@@W4_crt_exit_return_mode@@@Z 0000000180031164     libucrt:exit.obj
 0002:0000c164       $stateUnwindMap$_execute_onexit_table 0000000180031164     libucrt:onexit.obj
 0002:0000c170       $ip2state$?common_exit@@YAXHW4_crt_exit_cleanup_mode@@W4_crt_exit_return_mode@@@Z 0000000180031170     libucrt:exit.obj
 0002:0000c178       $unwind$??R<lambda_6e4b09c48022b2350581041d5f6b0c4c>@@QEBA@XZ 0000000180031178     libucrt:exit.obj
 0002:0000c198       $unwind$??$?RV<lambda_d80eeec6fff315bfe5c115232f3240e3>@@AEAV<lambda_6e4b09c48022b2350581041d5f6b0c4c>@@V<lambda_2358e3775559c9db80273638284d5e45>@@@?$__crt_seh_guarded_call@X@@QEAAX$$QEAV<lambda_d80eeec6fff315bfe5c115232f3240e3>@@AEAV<lambda_6e4b09c48022b2350581041d5f6b0c4c>@@$$QEAV<lambda_2358e3775559c9db80273638284d5e45>@@@Z 0000000180031198     libucrt:exit.obj
 0002:0000c1bc       $unwind$__dcrt_uninitialize_environments_nolock 00000001800311bc     libucrt:environment_initialization.obj
 0002:0000c1cc       $unwind$??$free_environment@D@@YAXQEAPEAD@Z 00000001800311cc     libucrt:environment_initialization.obj
 0002:0000c1cc       $unwind$??$free_environment@_W@@YAXQEAPEA_W@Z 00000001800311cc     libucrt:environment_initialization.obj
 0002:0000c1cc       $unwind$_initterm          00000001800311cc     libucrt:initterm.obj
 0002:0000c1d8       $unwind$_register_onexit_function 00000001800311d8     libucrt:onexit.obj
 0002:0000c1e0       $unwind$_execute_onexit_table 00000001800311e0     libucrt:onexit.obj
 0002:0000c1f0       $ip2state$_execute_onexit_table 00000001800311f0     libucrt:onexit.obj
 0002:0000c1f8       $unwind$??R<lambda_22ebabd17bc4fa466a2aca6d8deb888d>@@QEBAHXZ 00000001800311f8     libucrt:onexit.obj
 0002:0000c210       $unwind$??$?RV<lambda_638799b9deba96c50f710eeac98168cd>@@AEAV<lambda_22ebabd17bc4fa466a2aca6d8deb888d>@@V<lambda_a6f7d7db0129f75315ebf26d50c089f1>@@@?$__crt_seh_guarded_call@H@@QEAAH$$QEAV<lambda_638799b9deba96c50f710eeac98168cd>@@AEAV<lambda_22ebabd17bc4fa466a2aca6d8deb888d>@@$$QEAV<lambda_a6f7d7db0129f75315ebf26d50c089f1>@@@Z 0000000180031210     libucrt:onexit.obj
 0002:0000c234       $unwind$??$?RV<lambda_7777bce6b2f8c936911f934f8298dc43>@@AEAV<lambda_f03950bc5685219e0bcd2087efbe011e>@@V<lambda_3883c3dff614d5e0c5f61bb1ac94921c>@@@?$__crt_seh_guarded_call@H@@QEAAH$$QEAV<lambda_7777bce6b2f8c936911f934f8298dc43>@@AEAV<lambda_f03950bc5685219e0bcd2087efbe011e>@@$$QEAV<lambda_3883c3dff614d5e0c5f61bb1ac94921c>@@@Z 0000000180031234     libucrt:onexit.obj
 0002:0000c258       $unwind$_query_new_handler 0000000180031258     libucrt:new_handler.obj
 0002:0000c278       $unwind$terminate          0000000180031278     libucrt:terminate.obj
 0002:0000c298       $xdatasym                  0000000180031298     libucrt:strncmp.obj
 0002:0000c29c       $unwind$?construct_ptd_array@@YAXQEAU__acrt_ptd@@@Z 000000018003129c     libucrt:per_thread_data.obj
 0002:0000c2a4       $unwind$?destroy_ptd_array@@YAXQEAU__acrt_ptd@@@Z 00000001800312a4     libucrt:per_thread_data.obj
 0002:0000c2ac       $unwind$??$?RV<lambda_0ae27a3a962d80f24befdcbee591983d>@@AEAV<lambda_8d0ee55de4b1038c4002e0adecdf1839>@@V<lambda_dc504788e8f1664fe9b84e20bfb512f2>@@@?$__crt_seh_guarded_call@X@@QEAAX$$QEAV<lambda_0ae27a3a962d80f24befdcbee591983d>@@AEAV<lambda_8d0ee55de4b1038c4002e0adecdf1839>@@$$QEAV<lambda_dc504788e8f1664fe9b84e20bfb512f2>@@@Z 00000001800312ac     libucrt:per_thread_data.obj
 0002:0000c2d0       $unwind$??$?RV<lambda_aa87e3671a710a21b5dc78c0bdf72e11>@@AEAV<lambda_92619d2358a28f41a33ba319515a20b9>@@V<lambda_6992ecaafeb10aed2b74cb1fae11a551>@@@?$__crt_seh_guarded_call@X@@QEAAX$$QEAV<lambda_aa87e3671a710a21b5dc78c0bdf72e11>@@AEAV<lambda_92619d2358a28f41a33ba319515a20b9>@@$$QEAV<lambda_6992ecaafeb10aed2b74cb1fae11a551>@@@Z 00000001800312d0     libucrt:per_thread_data.obj
 0002:0000c2f4       $unwind$??$?RV<lambda_f2e299630e499de9f9a165e60fcd3db5>@@AEAV<lambda_2ae9d31cdba2644fcbeaf08da7c24588>@@V<lambda_40d01ff24d0e7b3814fdbdcee8eab3c7>@@@?$__crt_seh_guarded_call@X@@QEAAX$$QEAV<lambda_f2e299630e499de9f9a165e60fcd3db5>@@AEAV<lambda_2ae9d31cdba2644fcbeaf08da7c24588>@@$$QEAV<lambda_40d01ff24d0e7b3814fdbdcee8eab3c7>@@@Z 00000001800312f4     libucrt:per_thread_data.obj
 0002:0000c318       $unwind$??$?RV<lambda_2d41944a1d46af3157314b8a01080d33>@@AEAV<lambda_8f455de75cd7d7f24b4096f044d8b9e6>@@V<lambda_aa500f224e6afead328df44964fe2772>@@@?$__crt_seh_guarded_call@X@@QEAAX$$QEAV<lambda_2d41944a1d46af3157314b8a01080d33>@@AEAV<lambda_8f455de75cd7d7f24b4096f044d8b9e6>@@$$QEAV<lambda_aa500f224e6afead328df44964fe2772>@@@Z 0000000180031318     libucrt:per_thread_data.obj
 0002:0000c33c       $unwind$__acrt_uninitialize_locale 000000018003133c     libucrt:wsetlocale.obj
 0002:0000c33c       $unwind$__acrt_get_sigabrt_handler 000000018003133c     libucrt:signal.obj
 0002:0000c344       $unwind$??$?RV<lambda_410d79af7f07d98d83a3f525b3859a53>@@AEAV<lambda_3e16ef9562a7dcce91392c22ab16ea36>@@V<lambda_38119f0e861e05405d8a144b9b982f0a>@@@?$__crt_seh_guarded_call@X@@QEAAX$$QEAV<lambda_410d79af7f07d98d83a3f525b3859a53>@@AEAV<lambda_3e16ef9562a7dcce91392c22ab16ea36>@@$$QEAV<lambda_38119f0e861e05405d8a144b9b982f0a>@@@Z 0000000180031344     libucrt:wsetlocale.obj
 0002:0000c36c       $unwind$__acrt_initialize_winapi_thunks 000000018003136c     libucrt:winapi_thunks.obj
 0002:0000c36c       $unwind$__acrt_fenv_get_control 000000018003136c     libucrt:_fenvutils.obj
 0002:0000c374       $unwind$__acrt_fp_format   0000000180031374     libucrt:cvt.obj
 0002:0000c384       $unwind$?fp_format_e_internal@@YAHQEAD_KH_NIQEAU_strflt@@2AEAV__crt_cached_ptd_host@@@Z 0000000180031384     libucrt:cvt.obj
 0002:0000c3a0       $unwind$?fp_format_a@@YAHQEBNPEAD_KQEAD2H_NIW4__acrt_rounding_mode@@AEAV__crt_cached_ptd_host@@@Z 00000001800313a0     libucrt:cvt.obj
 0002:0000c3bc       $unwind$?fp_format_g@@YAHQEBNQEAD_K12H_NIW4__acrt_rounding_mode@@AEAV__crt_cached_ptd_host@@@Z 00000001800313bc     libucrt:cvt.obj
 0002:0000c3d4       $unwind$__acrt_initialize_lowio 00000001800313d4     libucrt:ioinit.obj
 0002:0000c3f4       $unwind$??$common_expand_argv_wildcards@D@@YAHQEAPEADQEAPEAPEAD@Z 00000001800313f4     libucrt:argv_wildcards.obj
 0002:0000c40c       $unwind$__dcrt_get_narrow_environment_from_os 000000018003140c     libucrt:get_environment_from_os.obj
 0002:0000c40c       $unwind$??$__acrt_convert_wcs_mbs_cp@_WDV<lambda_d8593a27d1aa8c02be35c86a17d324c4>@@U__crt_win32_buffer_internal_dynamic_resizing@@@@YAHQEB_WAEAV?$__crt_win32_buffer@DU__crt_win32_buffer_internal_dynamic_resizing@@@@AEBV<lambda_d8593a27d1aa8c02be35c86a17d324c4>@@I@Z 000000018003140c     libucrt:argv_wildcards.obj
 0002:0000c424       $unwind$??$copy_and_add_argument_to_buffer@D@@YAHQEBD0_KAEAV?$argument_list@D@?A0x5f5c8891@@@Z 0000000180031424     libucrt:argv_wildcards.obj
 0002:0000c440       $unwind$??$expand_argument_wildcards@D@@YAHQEAD0AEAV?$argument_list@D@?A0x5f5c8891@@@Z 0000000180031440     libucrt:argv_wildcards.obj
 0002:0000c460       $unwind$__acrt_GetModuleFileNameA 0000000180031460     libucrt:getmodulefilenamea.obj
 0002:0000c47c       $unwind$_setmbcp_nolock    000000018003147c     libucrt:mbctype.obj
 0002:0000c49c       $unwind$?update_thread_multibyte_data_internal@@YAPEAU__crt_multibyte_data@@QEAU__acrt_ptd@@QEAPEAU1@@Z 000000018003149c     libucrt:mbctype.obj
 0002:0000c4c4       $unwind$?setmbcp_internal@@YAHH_NQEAU__acrt_ptd@@QEAPEAU__crt_multibyte_data@@@Z 00000001800314c4     libucrt:mbctype.obj
 0002:0000c4dc       $unwind$?setSBUpLow@@YAXPEAU__crt_multibyte_data@@@Z 00000001800314dc     libucrt:mbctype.obj
 0002:0000c4f8       $unwind$??$?RV<lambda_efdfa57d1f175319df784efa44bb7b81>@@AEAV<lambda_5f0a4c1567f8adc6734073e5d1e1b35c>@@V<lambda_2e8a7d3640ea6ccb4c2413664c2db6fd>@@@?$__crt_seh_guarded_call@X@@QEAAX$$QEAV<lambda_efdfa57d1f175319df784efa44bb7b81>@@AEAV<lambda_5f0a4c1567f8adc6734073e5d1e1b35c>@@$$QEAV<lambda_2e8a7d3640ea6ccb4c2413664c2db6fd>@@@Z 00000001800314f8     libucrt:mbctype.obj
 0002:0000c51c       $unwind$__acrt_WideCharToMultiByte 000000018003151c     libucrt:widechartomultibyte.obj
 0002:0000c528       $unwind$raise              0000000180031528     libucrt:signal.obj
 0002:0000c564       $unwind$??$?RV<lambda_450d765d439847d4c735a33c368b5fc0>@@AEAV<lambda_44731a7d0e6d81c3e6aa82d741081786>@@V<lambda_601a2a7da3b7a96e9554ac7215c4b07c>@@@?$__crt_seh_guarded_call@P6AXH@Z@@QEAAP6AXH@Z$$QEAV<lambda_450d765d439847d4c735a33c368b5fc0>@@AEAV<lambda_44731a7d0e6d81c3e6aa82d741081786>@@$$QEAV<lambda_601a2a7da3b7a96e9554ac7215c4b07c>@@@Z 0000000180031564     libucrt:signal.obj
 0002:0000c588       $unwind$fclose             0000000180031588     libucrt:fclose.obj
 0002:0000c588       $unwind$_fflush_nolock     0000000180031588     libucrt:fflush.obj
 0002:0000c598       $unwind$?common_flush_all@@YAH_N@Z 0000000180031598     libucrt:fflush.obj
 0002:0000c5a0       $unwind$??$?RV<lambda_842d9ff0dc9ef11c61343bbaebe7f885>@@AEAV<lambda_c5860995281e5c4ce005b3de8f5874ee>@@V<lambda_d90129c13df834fdcbf8d2b88dafcf2d>@@@?$__crt_seh_guarded_call@X@@QEAAX$$QEAV<lambda_842d9ff0dc9ef11c61343bbaebe7f885>@@AEAV<lambda_c5860995281e5c4ce005b3de8f5874ee>@@$$QEAV<lambda_d90129c13df834fdcbf8d2b88dafcf2d>@@@Z 00000001800315a0     libucrt:fflush.obj
 0002:0000c5c4       $unwind$??$?RV<lambda_886d6c58226a84441f68b9f2b8217b83>@@AEAV<lambda_ab61a845afdef5b7c387490eaf3616ee>@@V<lambda_f7f22ab5edc0698d5f6905b0d3f44752>@@@?$__crt_seh_guarded_call@X@@QEAAX$$QEAV<lambda_886d6c58226a84441f68b9f2b8217b83>@@AEAV<lambda_ab61a845afdef5b7c387490eaf3616ee>@@$$QEAV<lambda_f7f22ab5edc0698d5f6905b0d3f44752>@@@Z 00000001800315c4     libucrt:fflush.obj
 0002:0000c5ec       $unwind$__acrt_update_thread_locale_data 00000001800315ec     libucrt:locale_refcounting.obj
 0002:0000c610       $unwind$__acrt_locale_free_monetary 0000000180031610     libucrt:initmon.obj
 0002:0000c618       $unwind$__acrt_locale_free_time 0000000180031618     libucrt:inittime.obj
 0002:0000c628       $unwind$__acrt_GetStringTypeA 0000000180031628     libucrt:getstringtypea.obj
 0002:0000c650       $unwind$__acrt_fp_strflt_to_string 0000000180031650     libucrt:_fptostr.obj
 0002:0000c66c       $unwind$__acrt_fltout      000000018003166c     libucrt:cfout.obj
 0002:0000c68c       $unwind$?divide@__crt_strtox@@YA_KAEAUbig_integer@1@AEBU21@@Z 000000018003168c     libucrt:cfout.obj
 0002:0000c6a4       $chain$0$?divide@__crt_strtox@@YA_KAEAUbig_integer@1@AEBU21@@Z 00000001800316a4     libucrt:cfout.obj
 0002:0000c6b8       $chain$1$?divide@__crt_strtox@@YA_KAEAUbig_integer@1@AEBU21@@Z 00000001800316b8     libucrt:cfout.obj
 0002:0000c6c8       $unwind$?__mbsrtowcs_utf8@__crt_mbstring@@YA_KPEA_WPEAPEBD_KPEAU_Mbstatet@@AEAV__crt_cached_ptd_host@@@Z 00000001800316c8     libucrt:mbrtowc.obj
 0002:0000c6e0       $unwind$_fcloseall         00000001800316e0     libucrt:closeall.obj
 0002:0000c704       $unwind$__acrt_lowio_destroy_handle_array 0000000180031704     libucrt:osfinfo.obj
 0002:0000c714       $unwind$__acrt_lowio_ensure_fh_exists 0000000180031714     libucrt:osfinfo.obj
 0002:0000c740       $unwind$qsort              0000000180031740     libucrt:qsort.obj
 0002:0000c758       $chain$4$qsort             0000000180031758     libucrt:qsort.obj
 0002:0000c77c       $chain$5$qsort             000000018003177c     libucrt:qsort.obj
 0002:0000c78c       $unwind$strpbrk            000000018003178c     libucrt:strpbrk.obj
 0002:0000c79c       $unwind$fallbackMethod     000000018003179c     libucrt:strpbrk.obj
 0002:0000c7ac       $unwind$__acrt_LCMapStringA 00000001800317ac     libucrt:lcmapstringa.obj
 0002:0000c7bc       $unwind$?__acrt_LCMapStringA_stat@@YAHPEAU__crt_locale_pointers@@PEB_WKPEBDHPEADHHH@Z 00000001800317bc     libucrt:lcmapstringa.obj
 0002:0000c7e4       $unwind$_commit            00000001800317e4     libucrt:commit.obj
 0002:0000c7ec       $unwind$??$?RV<lambda_a37b2b86f63e897a80ea819b0eb08c01>@@AEAV<lambda_38ce7e780aa69e748d6df282ebc68efe>@@V<lambda_99fb1378e971ab6e7edea83e3a7a83a2>@@@?$__crt_seh_guarded_call@H@@QEAAH$$QEAV<lambda_a37b2b86f63e897a80ea819b0eb08c01>@@AEAV<lambda_38ce7e780aa69e748d6df282ebc68efe>@@$$QEAV<lambda_99fb1378e971ab6e7edea83e3a7a83a2>@@@Z 00000001800317ec     libucrt:commit.obj
 0002:0000c810       $unwind$_write_nolock      0000000180031810     libucrt:write.obj
 0002:0000c828       $unwind$_write_internal    0000000180031828     libucrt:write.obj
 0002:0000c858       $unwind$?write_double_translated_ansi_nolock@@YA?AUwrite_result@?A0x17268360@@HQEBDIAEAV__crt_cached_ptd_host@@@Z 0000000180031858     libucrt:write.obj
 0002:0000c880       $ip2state$?write_double_translated_ansi_nolock@@YA?AUwrite_result@?A0x17268360@@HQEBDIAEAV__crt_cached_ptd_host@@@Z 0000000180031880     libucrt:write.obj
 0002:0000c888       $unwind$?write_text_ansi_nolock@@YA?AUwrite_result@?A0x17268360@@HQEBDI@Z 0000000180031888     libucrt:write.obj
 0002:0000c888       $unwind$?write_text_utf16le_nolock@@YA?AUwrite_result@?A0x17268360@@HQEBDI@Z 0000000180031888     libucrt:write.obj
 0002:0000c8a8       $unwind$?write_text_utf8_nolock@@YA?AUwrite_result@?A0x17268360@@HQEBDI@Z 00000001800318a8     libucrt:write.obj
 0002:0000c8d0       $xdatasym                  00000001800318d0     libucrt:log10.obj
 0002:0000c8dc       $unwind$__acrt_fenv_set_control 00000001800318dc     libucrt:_fenvutils.obj
 0002:0000c8ec       $unwind$?__mbrtoc32_utf8@__crt_mbstring@@YA_KPEA_UPEBD_KPEAU_Mbstatet@@AEAV__crt_cached_ptd_host@@@Z 00000001800318ec     libucrt:mbrtoc32.obj
 0002:0000c908       $unwind$?_fclose_nolock_internal@@YAHQEAU_iobuf@@AEAV__crt_cached_ptd_host@@@Z 0000000180031908     libucrt:fclose.obj
 0002:0000c918       $unwind$?_fclose_internal@@YAHQEAU_iobuf@@AEAV__crt_cached_ptd_host@@@Z 0000000180031918     libucrt:fclose.obj
 0002:0000c93c       $unwind$_putwch_nolock     000000018003193c     libucrt:putwch.obj
 0002:0000c944       $unwind$common_control87   0000000180031944     libucrt:ieee.obj
 0002:0000c970       $unwind$_call_matherr      0000000180031970     libucrt:libm_error.obj
 0002:0000c978       $unwind$_handle_error      0000000180031978     libucrt:libm_error.obj
 0002:0000c998       $unwind$__acrt_initialize_fma3 0000000180031998     libucrt:fma3_available.obj
 0002:0000c9a0       $unwind$_log_special_common 00000001800319a0     libucrt:log_special.obj
 0002:0000c9ac       $unwind$_close_internal    00000001800319ac     libucrt:close.obj
 0002:0000c9b4       $unwind$??$?RV<lambda_ad8af0d99a0adf03d037d7dffe354bb5>@@AEAV<lambda_c9ba49e555ba839a7b07aa3fbecb7617>@@V<lambda_2f1ebd5d68526518146ae959c9e734c8>@@@?$__crt_seh_guarded_call@H@@QEAAH$$QEAV<lambda_ad8af0d99a0adf03d037d7dffe354bb5>@@AEAV<lambda_c9ba49e555ba839a7b07aa3fbecb7617>@@$$QEAV<lambda_2f1ebd5d68526518146ae959c9e734c8>@@@Z 00000001800319b4     libucrt:close.obj
 0002:0000c9d8       $xdatasym                  00000001800319d8     libucrt:fpsr.obj
 0002:0000c9e0       $unwind$_raise_exc_ex      00000001800319e0     libucrt:fpexcept.obj
 0002:0000c9f4       $unwind$_ctrlfp            00000001800319f4     libucrt:fpctrl.obj
 0002:0000ca1c       $unwind$_IsNonwritableInCurrentImage 0000000180031a1c     LIBCMT:pesect.obj
 0002:0000ca40       $unwind$strrchr            0000000180031a40     libvcruntime:strrchr.obj
 0002:0000cbb0       .edata                     0000000180031bb0     OPOSGate.exp
 0002:0000cbd8       rgpv                       0000000180031bd8     OPOSGate.exp
 0002:0000cbe8       rgszName                   0000000180031be8     OPOSGate.exp
 0002:0000cbf8       rgwOrd                     0000000180031bf8     OPOSGate.exp
 0002:0000cc00       szName                     0000000180031c00     OPOSGate.exp
 0002:0000cc0d       $N00001                    0000000180031c0d     OPOSGate.exp
 0002:0000cc1d       $N00002                    0000000180031c1d     OPOSGate.exp
 0002:0000cc2f       $N00003                    0000000180031c2f     OPOSGate.exp
 0002:0000cc41       $N00004                    0000000180031c41     OPOSGate.exp
 0002:0000d592       .idata$6                   0000000180032592     kernel32:KERNEL32.dll
 0002:0000d7aa       .idata$6                   00000001800327aa     user32:USER32.dll
 0002:0000d8de       .idata$6                   00000001800328de     gdi32:GDI32.dll
 0002:0000d984       .idata$6                   0000000180032984     advapi32:ADVAPI32.dll
 0002:0000daa0       .idata$6                   0000000180032aa0     ole32:ole32.dll
 0002:0000daaa       .idata$6                   0000000180032aaa     oleaut32:OLEAUT32.dll
 0003:000001c0       ?ObjectMap@@3PAU_ATL_OBJMAP_ENTRY30@ATL@@A 00000001800331c0     Gate.obj
 0003:000002b4       ?s_RequiredMethodsPerRelease@@3PAHA 00000001800332b4     GateImpl.obj
 0003:000002c0       ?s_SOMethodNames@@3PAPEADA 00000001800332c0     GateImpl.obj
 0003:00000390       ?__vcrt_flsindex@@3KA      0000000180033390     libvcruntime:per_thread_data.obj
 0003:000003a0       ?errno_no_memory@@3HA      00000001800333a0     libucrt:errno.obj
 0003:000003a4       ?doserrno_no_memory@@3KA   00000001800333a4     libucrt:errno.obj
 0003:000003b0       ?__acrt_flsindex@@3KA      00000001800333b0     libucrt:per_thread_data.obj
 0003:00000870       _mbctypes                  0000000180033870     libucrt:mbctype.obj
 0003:00000980       _mbcasemaps                0000000180033980     libucrt:mbctype.obj
 0003:00000a80       ?__rgctypeflag@@3PADA      0000000180033a80     libucrt:mbctype.obj
 0003:00000a90       ?__rgcode_page_info@@3PAUcode_page_info@@A 0000000180033a90     libucrt:mbctype.obj
 0003:00000d30       ?dazSupported@?1??common_control87@@9@9 0000000180033d30     libucrt:ieee.obj
 0003:00000d40       ?__dcrt_lowio_console_output_handle@@3PEAXEA 0000000180033d40     libucrt:initcon.obj
 0003:00000d50       ?dazSupported@?1??_ctrlfp@@9@9 0000000180033d50     libucrt:fpctrl.obj
 0003:00000fa0       ?is_initialized_as_dll@@3_NA 0000000180033fa0     LIBCMT:utility.obj
 0003:00000fa1       ?module_local_atexit_table_initialized@@3_NA 0000000180033fa1     LIBCMT:utility.obj
 0003:00000fa8       ?module_local_atexit_table@@3U_onexit_table_t@@A 0000000180033fa8     LIBCMT:utility.obj
 0003:00000fc0       ?module_local_at_quick_exit_table@@3U_onexit_table_t@@A 0000000180033fc0     LIBCMT:utility.obj
 0003:00000fd8       ?g_tss_cv@@3U_RTL_CONDITION_VARIABLE@@A 0000000180033fd8     LIBCMT:thread_safe_statics.obj
 0003:00000fe0       ?g_tss_event@@3PEAXEA      0000000180033fe0     LIBCMT:thread_safe_statics.obj
 0003:00000fe8       ?g_tss_mutex@@3U_RTL_CRITICAL_SECTION@@A 0000000180033fe8     LIBCMT:thread_safe_statics.obj
 0003:00001010       ?g_sleep_condition_variable_cs@@3P6AHPEAU_RTL_CONDITION_VARIABLE@@PEAU_RTL_CRITICAL_SECTION@@K@ZEA 0000000180034010     LIBCMT:thread_safe_statics.obj
 0003:00001018       ?g_wake_all_condition_variable@@3P6AXPEAU_RTL_CONDITION_VARIABLE@@@ZEA 0000000180034018     LIBCMT:thread_safe_statics.obj
 0003:00001020       GS_ExceptionRecord         0000000180034020     LIBCMT:gs_report.obj
 0003:000010c0       GS_ContextRecord           00000001800340c0     LIBCMT:gs_report.obj
 0003:00001594       ?__proc_attached@@3HA      0000000180034594     LIBCMT:dll_dllmain.obj
 0003:00001628       ?AllocateData@@3P6APEAUAtlThunkData_t@@XZEA 0000000180034628     atls:atlthunk.obj
 0003:00001630       ?InitData@@3P6AXPEAUAtlThunkData_t@@PEAX_K@ZEA 0000000180034630     atls:atlthunk.obj
 0003:00001638       ?DataToCode@@3P6AP6A_JPEAUHWND__@@I_K_J@ZPEAUAtlThunkData_t@@@ZEA 0000000180034638     atls:atlthunk.obj
 0003:00001640       ?FreeData@@3P6AXPEAUAtlThunkData_t@@@ZEA 0000000180034640     atls:atlthunk.obj
 0003:00001648       ?Initialized@@3_NA         0000000180034648     atls:atlthunk.obj
 0003:00001660       ?__vcrt_startup_thread_ptd@@3U__vcrt_ptd@@A 0000000180034660     libvcruntime:per_thread_data.obj
 0003:000016e0       __vcrt_lock_table          00000001800346e0     libvcruntime:locks.obj
 0003:00001708       __vcrt_locks_initialized   0000000180034708     libvcruntime:locks.obj
 0003:00001750       ?heap@@3V_HeapManager@@A   0000000180034750     libvcruntime:undname.obj
 0003:00001778       ?module_handles@@3PAPEAUHINSTANCE__@@A 0000000180034778     libvcruntime:winapi_downlevel.obj
 0003:00001790       ?function_pointers@@3PAPEAXA 0000000180034790     libvcruntime:winapi_downlevel.obj
 0003:000017b8       ?__acrt_invalid_parameter_handler@@3V?$dual_state_global@P6AXPEB_W00I_K@Z@__crt_state_management@@A 00000001800347b8     libucrt:invalid_parameter.obj
 0003:000017c0       ?c_termination_complete@@3JA 00000001800347c0     libucrt:exit.obj
 0003:000017c8       ?thread_local_exit_callback_func@@3P6AXPEAXK0@ZEA 00000001800347c8     libucrt:exit.obj
 0003:000017e0       ?program_name@?1???$common_configure_argv@D@@YAHW4_crt_argv_mode@@@Z@4PADA 00000001800347e0     libucrt:argv_parsing.obj
 0003:00001938       ?__acrt_new_handler@@3V?$dual_state_global@P6AH_K@Z@__crt_state_management@@A 0000000180034938     libucrt:new_handler.obj
 0003:00001950       ?module_handles@@3PAPEAUHINSTANCE__@@A 0000000180034950     libucrt:winapi_thunks.obj
 0003:000019f0       ?encoded_function_pointers@@3PAPEAXA 00000001800349f0     libucrt:winapi_thunks.obj
 0003:00001ae0       ?internal_state@?1??_mbtowc_internal@@9@4U_Mbstatet@@A 0000000180034ae0     libucrt:mbtowc.obj
 0003:00001af8       ?enable_percent_n@@3_KA    0000000180034af8     libucrt:printf_count_output.obj
 0003:00001f20       ?__acrt_lock_table@@3PAU_RTL_CRITICAL_SECTION@@A 0000000180034f20     libucrt:locks.obj
 0003:00002150       ?__acrt_locks_initialized@@3IA 0000000180035150     libucrt:locks.obj
 0003:00002170       ?fSystemSet@@3HA           0000000180035170     libucrt:mbctype.obj
 0003:00002174       ?initialized@?1??__acrt_initialize_multibyte@@9@4_NA 0000000180035174     libucrt:mbctype.obj
 0003:000021b0       ?ctrlc_action@@3V?$dual_state_global@P6AXH@Z@__crt_state_management@@A 00000001800351b0     libucrt:signal.obj
 0003:000021b8       ?ctrlbreak_action@@3V?$dual_state_global@P6AXH@Z@__crt_state_management@@A 00000001800351b8     libucrt:signal.obj
 0003:000021c0       ?abort_action@@3V?$dual_state_global@P6AXH@Z@__crt_state_management@@A 00000001800351c0     libucrt:signal.obj
 0003:000021c8       ?term_action@@3V?$dual_state_global@P6AXH@Z@__crt_state_management@@A 00000001800351c8     libucrt:signal.obj
 0003:000021d0       ?user_matherr@@3V?$dual_state_global@P6AHPEAU_exception@@@Z@__crt_state_management@@A 00000001800351d0     libucrt:matherr.obj
 0003:000021e0       ?__acrt_global_new_mode@@3V?$dual_state_global@J@__crt_state_management@@A 00000001800351e0     libucrt:new_mode.obj
 0003:000021e8       ?internal_pst@?1??__mbrtoc32_utf8@__crt_mbstring@@YA_KPEA_UPEBD_KPEAU_Mbstatet@@AEAV__crt_cached_ptd_host@@@Z@4U3@A 00000001800351e8     libucrt:mbrtoc32.obj
 0003:000021f0       ?__acrt_app_type@@3W4_crt_app_type@@A 00000001800351f0     libucrt:report_runtime_error.obj
 0005:00000000       MoveSmall                  0000000180038000     libvcruntime:memcpy.obj
 0005:00000040       MoveSmallYmm               0000000180038040     libvcruntime:memcpy.obj
 0005:00000064       MoveSmallYmmNT             0000000180038064     libvcruntime:memcpy.obj
 0005:00000088       MoveSmallXmm               0000000180038088     libvcruntime:memcpy.obj
 0005:000000b0       MsetTab                    00000001800380b0     libvcruntime:memset.obj
 0006:00000220       $R000000                   0000000180039220     Gate.res
 0006:00000b98       $R000978                   0000000180039b98     Gate.res
 0006:00000c80       $R000A60                   0000000180039c80     Gate.res
 0006:00000ee8       $R000CC8                   0000000180039ee8     Gate.res
 0006:000013c0       $R0011A0                   000000018003a3c0     Gate.res
 0006:00003570       $R003350                   000000018003c570     Gate.res
 0006:00003598       $R003378                   000000018003c598     Gate.res
