 OPOSSmartCardRW

 Timestamp is 5c443a31 (Sun Jan 20 18:06:57 2019)

 Preferred load address is 10000000

 Start         Length     Name                   Class
 0001:00000000 00000080H .text$di                CODE
 0001:00000080 0001cf2bH .text$mn                CODE
 0001:0001cfab 00000051H .text$x                 CODE
 0001:0001cffc 00000042H .text$yd                CODE
 0002:00000000 00000300H .idata$5                DATA
 0002:00000300 00000004H .00cfg                  DATA
 0002:00000304 00000004H .CRT$XCA                DATA
 0002:00000308 00000004H .CRT$XCL                DATA
 0002:0000030c 00000010H .CRT$XCU                DATA
 0002:0000031c 00000004H .CRT$XCZ                DATA
 0002:00000320 00000004H .CRT$XIA                DATA
 0002:00000324 00000010H .CRT$XIC                DATA
 0002:00000334 00000004H .CRT$XIZ                DATA
 0002:00000338 00000004H .CRT$XLA                DATA
 0002:0000033c 00000004H .CRT$XLZ                DATA
 0002:00000340 00000004H .CRT$XPA                DATA
 0002:00000344 00000008H .CRT$XPX                DATA
 0002:0000034c 00000004H .CRT$XPXA               DATA
 0002:00000350 00000004H .CRT$XPZ                DATA
 0002:00000354 00000004H .CRT$XTA                DATA
 0002:00000358 00000008H .CRT$XTZ                DATA
 0002:0000035c 00000000H .gfids$x                DATA
 0002:0000035c 00000000H .gfids$y                DATA
 0002:00000360 00006e88H .rdata                  DATA
 0002:000071e8 00000018H .rdata$T                DATA
 0002:00007200 00000180H .rdata$r                DATA
 0002:00007380 00000020H .rdata$sxdata           DATA
 0002:000073a0 000003e0H .rdata$zzzdbg           DATA
 0002:00007780 00000004H .rtc$IAA                DATA
 0002:00007784 00000004H .rtc$IZZ                DATA
 0002:00007788 00000004H .rtc$TAA                DATA
 0002:0000778c 00000004H .rtc$TZZ                DATA
 0002:00007790 00000004H .tls                    DATA
 0002:00007794 00000004H .tls$                   DATA
 0002:00007798 00000008H .tls$ZZZ                DATA
 0002:000077a0 000005f4H .xdata$x                DATA
 0002:00007d94 00000004H ATL$__a                 DATA
 0002:00007d98 00000008H ATL$__z                 DATA
 0002:00007da0 000000acH .edata                  DATA
 0002:00007e4c 00000078H .idata$2                DATA
 0002:00007ec4 00000014H .idata$3                DATA
 0002:00007ed8 00000300H .idata$4                DATA
 0002:000081d8 00000bdeH .idata$6                DATA
 0003:00000000 000009a0H .data                   DATA
 0003:000009a0 00000098H .data$r                 DATA
 0003:00000a38 00000b5cH .bss                    DATA
 0004:00000000 00000220H .rsrc$01                DATA
 0004:00000220 00004380H .rsrc$02                DATA

  Address         Publics by Value              Rva+Base       Lib:Object

 0000:00000000       ___guard_fids_count        00000000     <absolute>
 0000:00000000       ___hybrid_code_map_count   00000000     <absolute>
 0000:00000000       ___guard_iat_count         00000000     <absolute>
 0000:00000000       ___dynamic_value_reloc_table 00000000     <absolute>
 0000:00000000       ___guard_longjmp_count     00000000     <absolute>
 0000:00000000       __except_list              00000000     <absolute>
 0000:00000000       ___guard_fids_table        00000000     <absolute>
 0000:00000000       ___guard_longjmp_table     00000000     <absolute>
 0000:00000000       ___hybrid_auxiliary_iat    00000000     <absolute>
 0000:00000000       ___guard_iat_table         00000000     <absolute>
 0000:00000000       ___volatile_metadata       00000000     <absolute>
 0000:00000000       ___enclave_config          00000000     <absolute>
 0000:00000000       ___hybrid_code_map         00000000     <absolute>
 0000:00000008       ___safe_se_handler_count   00000008     <absolute>
 0000:0000002c       __tls_array                0000002c     <absolute>
 0000:00000100       ___guard_flags             00000100     <absolute>
 0000:00000000       ___ImageBase               10000000     <linker-defined>
 0001:00000080       ?DupWide@_CW@@AAEXXZ       10001080 f   CWString.obj
 0001:0000009c       ?cw_dup@@YGXPBDAAHAAPA_W1@Z 1000109c f   CWString.obj
 0001:0000010b       ?cw_memcpy@@YGHPA_WPBDH@Z  1000110b f   CWString.obj
 0001:00000137       ?cw_strcpy@@YAHPA_WPBD@Z   10001137 f   CWString.obj
 0001:0000014a       ?cw_strlen@@YAHPBD@Z       1000114a f   CWString.obj
 0001:00000163       ??0CAtlComModule@ATL@@QAE@XZ 10001163 f i OposVariant.obj
 0001:000001a8       ??0CAtlWinModule@ATL@@QAE@XZ 100011a8 f i OposVariant.obj
 0001:000001df       ??0OposDispParms@@QAE@PAVOposVariant@@H@Z 100011df f   OposVariant.obj
 0001:00000250       ??1OposDispParms@@QAE@XZ   10001250 f   OposVariant.obj
 0001:0000025e       ??A?$CSimpleArray@GV?$CSimpleArrayEqualHelper@G@ATL@@@ATL@@QAEAAGH@Z 1000125e f i OposVariant.obj
 0001:00000283       ??_Estringdispid@CComTypeInfoHolder@ATL@@QAEPAXI@Z 10001283 f i OposVariant.obj
 0001:000002ef       ?AtlWinModuleInit@ATL@@YGJPAU_ATL_WIN_MODULE70@1@@Z 100012ef f i OposVariant.obj
 0001:00000315       ?AtlWinModuleTerm@ATL@@YGJPAU_ATL_WIN_MODULE70@1@PAUHINSTANCE__@@@Z 10001315 f i OposVariant.obj
 0001:00000378       ?ChangeBSTR@OposVariant@@QAEXPAPA_WAAJ@Z 10001378 f   OposVariant.obj
 0001:000003b9       ?ChangeLONG@OposVariant@@QAEXPAJAAJ@Z 100013b9 f   OposVariant.obj
 0001:000003fa       ?GetLONG@OposVariant@@QAEJXZ 100013fa f   OposVariant.obj
 0001:00000415       ?Init@CComCriticalSection@ATL@@QAEJXZ 10001415 f i OposVariant.obj
 0001:0000043d       ?RemoveAll@?$CSimpleArray@PAUHINSTANCE__@@V?$CSimpleArrayEqualHelper@PAUHINSTANCE__@@@ATL@@@ATL@@QAEXXZ 1000143d f i atls:atlbase.obj
 0001:0000043d       ?RemoveAll@?$CSimpleArray@GV?$CSimpleArrayEqualHelper@G@ATL@@@ATL@@QAEXXZ 1000143d f i OposVariant.obj
 0001:0000045a       ?SetBSTR@OposVariant@@QAEXPA_WAAJ@Z 1000145a f   OposVariant.obj
 0001:0000048e       ?SetBSTR_Copy@OposVariant@@QAEXPA_WAAJ@Z 1000148e f   OposVariant.obj
 0001:000004de       ?SetBSTR_InOutPtr@OposVariant@@QAE_NPAPA_WAAJ@Z 100014de f   OposVariant.obj
 0001:00000515       ?SetDispatch_Ptr@OposVariant@@QAEXPAUIDispatch@@AAJ@Z 10001515 f   OposVariant.obj
 0001:00000550       ?SetLONG@OposVariant@@QAEXJ@Z 10001550 f   OposVariant.obj
 0001:00000572       ?SetLONG_Ptr@OposVariant@@QAEXPAJAAJ@Z 10001572 f   OposVariant.obj
 0001:000005a5       ?SetString@OposVariant@@QAEXPB_WAAJ@Z 100015a5 f   OposVariant.obj
 0001:000005eb       ?SetVARIANT_BOOL@OposVariant@@QAEXF@Z 100015eb f   OposVariant.obj
 0001:00000615       ?Term@CAtlComModule@ATL@@QAEXXZ 10001615 f i OposVariant.obj
 0001:0000065f       ?_AtlRaiseException@ATL@@YAXKK@Z 1000165f f i OposVariant.obj
 0001:00000674       ?AddRef@?$CComObjectCached@VCComClassFactory@ATL@@@ATL@@UAGKXZ 10001674 f i SmartCardRW.obj
 0001:0000069b       ?Release@?$CComObjectCached@VCComClassFactory@ATL@@@ATL@@UAGKXZ 1000169b f i SmartCardRW.obj
 0001:000006d1       ?QueryInterface@?$CComObjectCached@VCComClassFactory@ATL@@@ATL@@UAGJABU_GUID@@PAPAX@Z 100016d1 f i SmartCardRW.obj
 0001:000006eb       ??_E?$CComObjectCached@VCComClassFactory@ATL@@@ATL@@UAEPAXI@Z 100016eb f i SmartCardRW.obj
 0001:000006eb       ??_G?$CComObjectCached@VCComClassFactory@ATL@@@ATL@@UAEPAXI@Z 100016eb f i SmartCardRW.obj
 0001:0000070d       ?AddRef@?$CComAggObject@VCOPOSSmartCardRW@@@ATL@@UAGKXZ 1000170d f i SmartCardRW.obj
 0001:0000071e       ?Release@?$CComAggObject@VCOPOSSmartCardRW@@@ATL@@UAGKXZ 1000171e f i SmartCardRW.obj
 0001:0000075a       ?QueryInterface@?$CComAggObject@VCOPOSSmartCardRW@@@ATL@@UAGJABU_GUID@@PAPAX@Z 1000175a f i SmartCardRW.obj
 0001:000007a9       ?AddRef@?$CComContainedObject@VCOPOSSmartCardRW@@@ATL@@UAGKXZ 100017a9 f i SmartCardRW.obj
 0001:000007bf       ?Release@?$CComContainedObject@VCOPOSSmartCardRW@@@ATL@@UAGKXZ 100017bf f i SmartCardRW.obj
 0001:000007d5       ?QueryInterface@?$CComContainedObject@VCOPOSSmartCardRW@@@ATL@@UAGJABU_GUID@@PAPAX@Z 100017d5 f i SmartCardRW.obj
 0001:000007f0       ??_E?$CComAggObject@VCOPOSSmartCardRW@@@ATL@@UAEPAXI@Z 100017f0 f i SmartCardRW.obj
 0001:000007f0       ??_G?$CComAggObject@VCOPOSSmartCardRW@@@ATL@@UAEPAXI@Z 100017f0 f i SmartCardRW.obj
 0001:00000815       ?AddRef@?$CComObject@VCOPOSSmartCardRW@@@ATL@@UAGKXZ 10001815 f i SmartCardRW.obj
 0001:0000082c       ?Release@?$CComObject@VCOPOSSmartCardRW@@@ATL@@UAGKXZ 1000182c f i SmartCardRW.obj
 0001:0000086e       ?QueryInterface@?$CComObject@VCOPOSSmartCardRW@@@ATL@@UAGJABU_GUID@@PAPAX@Z 1000186e f i SmartCardRW.obj
 0001:00000888       ?OnFinalMessage@?$CWindowImplBaseT@VCWindow@ATL@@V?$CWinTraits@$0FGAAAAAA@$0A@@2@@ATL@@UAEXPAUHWND__@@@Z 10001888 f i SmartCardRW.obj
 0001:00000888       ?ObjectMain@CComObjectRootBase@ATL@@SGX_N@Z 10001888 f i SmartCardRW.obj
 0001:0000088b       ?GetCategoryMap@CComObjectRootBase@ATL@@SAPBU_ATL_CATMAP_ENTRY@2@XZ 1000188b f i SmartCardRW.obj
 0001:0000088b       ?GetObjectDescription@?$CComCoClass@VCOPOSSmartCardRW@@$1?CLSID_OPOSSmartCardRW@@3U_GUID@@B@ATL@@SGPB_WXZ 1000188b f i SmartCardRW.obj
 0001:0000088e       ?CreateInstance@CComClassFactory@ATL@@UAGJPAUIUnknown@@ABU_GUID@@PAPAX@Z 1000188e f i SmartCardRW.obj
 0001:000008cc       ?LockServer@CComClassFactory@ATL@@UAGJH@Z 100018cc f i SmartCardRW.obj
 0001:000008eb       ??_ECComClassFactory@ATL@@UAEPAXI@Z 100018eb f i SmartCardRW.obj
 0001:000008eb       ??_GCComClassFactory@ATL@@UAEPAXI@Z 100018eb f i SmartCardRW.obj
 0001:00000916       ?OnDrawAdvanced@CComControlBase@ATL@@UAEJAAUATL_DRAWINFO@@@Z 10001916 f i SmartCardRW.obj
 0001:00000a05       ?Next@?$CComEnumImpl@UIEnumConnections@@$1?_GUID_b196b287_bab4_101a_b69c_00aa00341d07@@3U__s_GUID@@BUtagCONNECTDATA@@V?$_Copy@UtagCONNECTDATA@@@ATL@@@ATL@@UAGJKPAUtagCONNECTDATA@@PAK@Z 10001a05 f i SmartCardRW.obj
 0001:00000adc       ?Skip@?$CComEnumImpl@UIEnumConnections@@$1?_GUID_b196b287_bab4_101a_b69c_00aa00341d07@@3U__s_GUID@@BUtagCONNECTDATA@@V?$_Copy@UtagCONNECTDATA@@@ATL@@@ATL@@UAGJK@Z 10001adc f i SmartCardRW.obj
 0001:00000b09       ?Reset@?$CComEnumImpl@UIEnumConnections@@$1?_GUID_b196b287_bab4_101a_b69c_00aa00341d07@@3U__s_GUID@@BUtagCONNECTDATA@@V?$_Copy@UtagCONNECTDATA@@@ATL@@@ATL@@UAGJXZ 10001b09 f i SmartCardRW.obj
 0001:00000b09       ?Reset@?$CComEnumImpl@UIEnumConnectionPoints@@$1?_GUID_b196b285_bab4_101a_b69c_00aa00341d07@@3U__s_GUID@@BPAUIConnectionPoint@@V?$_CopyInterface@UIConnectionPoint@@@ATL@@@ATL@@UAGJXZ 10001b09 f i SmartCardRW.obj
 0001:00000b1b       ?Clone@?$CComEnumImpl@UIEnumConnections@@$1?_GUID_b196b287_bab4_101a_b69c_00aa00341d07@@3U__s_GUID@@BUtagCONNECTDATA@@V?$_Copy@UtagCONNECTDATA@@@ATL@@@ATL@@UAGJPAPAUIEnumConnections@@@Z 10001b1b f i SmartCardRW.obj
 0001:00000bfa       ?AddRef@?$CComObject@V?$CComEnum@UIEnumConnectionPoints@@$1?_GUID_b196b285_bab4_101a_b69c_00aa00341d07@@3U__s_GUID@@BPAUIConnectionPoint@@V?$_CopyInterface@UIConnectionPoint@@@ATL@@VCComSingleThreadModel@6@@ATL@@@ATL@@UAGKXZ 10001bfa f i SmartCardRW.obj
 0001:00000bfa       ?AddRef@?$CComObject@V?$CComEnum@UIEnumConnections@@$1?_GUID_b196b287_bab4_101a_b69c_00aa00341d07@@3U__s_GUID@@BUtagCONNECTDATA@@V?$_Copy@UtagCONNECTDATA@@@ATL@@VCComSingleThreadModel@6@@ATL@@@ATL@@UAGKXZ 10001bfa f i SmartCardRW.obj
 0001:00000c0b       ?Release@?$CComObject@V?$CComEnum@UIEnumConnections@@$1?_GUID_b196b287_bab4_101a_b69c_00aa00341d07@@3U__s_GUID@@BUtagCONNECTDATA@@V?$_Copy@UtagCONNECTDATA@@@ATL@@VCComSingleThreadModel@6@@ATL@@@ATL@@UAGKXZ 10001c0b f i SmartCardRW.obj
 0001:00000c0b       ?Release@?$CComObject@V?$CComEnum@UIEnumConnectionPoints@@$1?_GUID_b196b285_bab4_101a_b69c_00aa00341d07@@3U__s_GUID@@BPAUIConnectionPoint@@V?$_CopyInterface@UIConnectionPoint@@@ATL@@VCComSingleThreadModel@6@@ATL@@@ATL@@UAGKXZ 10001c0b f i SmartCardRW.obj
 0001:00000c47       ?QueryInterface@?$CComObject@V?$CComEnum@UIEnumConnections@@$1?_GUID_b196b287_bab4_101a_b69c_00aa00341d07@@3U__s_GUID@@BUtagCONNECTDATA@@V?$_Copy@UtagCONNECTDATA@@@ATL@@VCComSingleThreadModel@6@@ATL@@@ATL@@UAGJABU_GUID@@PAPAX@Z 10001c47 f i SmartCardRW.obj
 0001:00000c61       ??_E?$CComObject@V?$CComEnum@UIEnumConnections@@$1?_GUID_b196b287_bab4_101a_b69c_00aa00341d07@@3U__s_GUID@@BUtagCONNECTDATA@@V?$_Copy@UtagCONNECTDATA@@@ATL@@VCComSingleThreadModel@6@@ATL@@@ATL@@UAEPAXI@Z 10001c61 f i SmartCardRW.obj
 0001:00000c61       ??_G?$CComObject@V?$CComEnum@UIEnumConnections@@$1?_GUID_b196b287_bab4_101a_b69c_00aa00341d07@@3U__s_GUID@@BUtagCONNECTDATA@@V?$_Copy@UtagCONNECTDATA@@@ATL@@VCComSingleThreadModel@6@@ATL@@@ATL@@UAEPAXI@Z 10001c61 f i SmartCardRW.obj
 0001:00000c83       ??_E?$CComObject@VCOPOSSmartCardRW@@@ATL@@W3AEPAXI@Z 10001c83 f i SmartCardRW.obj
 0001:00000c8b       ??_E?$CComObject@VCOPOSSmartCardRW@@@ATL@@WEM@AEPAXI@Z 10001c8b f i SmartCardRW.obj
 0001:00000c93       ?QueryInterface@?$CComObject@VCOPOSSmartCardRW@@@ATL@@WHA@AGJABU_GUID@@PAPAX@Z 10001c93 f i SmartCardRW.obj
 0001:00000c9d       ?AddRef@?$CComObject@VCOPOSSmartCardRW@@@ATL@@WHA@AGKXZ 10001c9d f i SmartCardRW.obj
 0001:00000ca7       ?Release@?$CComObject@VCOPOSSmartCardRW@@@ATL@@WHA@AGKXZ 10001ca7 f i SmartCardRW.obj
 0001:00000cb1       ?QueryInterface@?$CComObject@VCOPOSSmartCardRW@@@ATL@@WHE@AGJABU_GUID@@PAPAX@Z 10001cb1 f i SmartCardRW.obj
 0001:00000cbb       ?AddRef@?$CComObject@VCOPOSSmartCardRW@@@ATL@@WHE@AGKXZ 10001cbb f i SmartCardRW.obj
 0001:00000cc5       ?Release@?$CComObject@VCOPOSSmartCardRW@@@ATL@@WHE@AGKXZ 10001cc5 f i SmartCardRW.obj
 0001:00000ccf       ?QueryInterface@?$CComObject@VCOPOSSmartCardRW@@@ATL@@WHI@AGJABU_GUID@@PAPAX@Z 10001ccf f i SmartCardRW.obj
 0001:00000cd9       ?AddRef@?$CComObject@VCOPOSSmartCardRW@@@ATL@@WHI@AGKXZ 10001cd9 f i SmartCardRW.obj
 0001:00000ce3       ?Release@?$CComObject@VCOPOSSmartCardRW@@@ATL@@WHI@AGKXZ 10001ce3 f i SmartCardRW.obj
 0001:00000ced       ?QueryInterface@?$CComObject@VCOPOSSmartCardRW@@@ATL@@WHM@AGJABU_GUID@@PAPAX@Z 10001ced f i SmartCardRW.obj
 0001:00000cf7       ?AddRef@?$CComObject@VCOPOSSmartCardRW@@@ATL@@WHM@AGKXZ 10001cf7 f i SmartCardRW.obj
 0001:00000d01       ?Release@?$CComObject@VCOPOSSmartCardRW@@@ATL@@WHM@AGKXZ 10001d01 f i SmartCardRW.obj
 0001:00000d0b       ?QueryInterface@?$CComObject@VCOPOSSmartCardRW@@@ATL@@WIA@AGJABU_GUID@@PAPAX@Z 10001d0b f i SmartCardRW.obj
 0001:00000d18       ?AddRef@?$CComObject@VCOPOSSmartCardRW@@@ATL@@WIA@AGKXZ 10001d18 f i SmartCardRW.obj
 0001:00000d25       ?Release@?$CComObject@VCOPOSSmartCardRW@@@ATL@@WIA@AGKXZ 10001d25 f i SmartCardRW.obj
 0001:00000d32       ?QueryInterface@?$CComObject@VCOPOSSmartCardRW@@@ATL@@WIE@AGJABU_GUID@@PAPAX@Z 10001d32 f i SmartCardRW.obj
 0001:00000d3f       ?AddRef@?$CComObject@VCOPOSSmartCardRW@@@ATL@@WIE@AGKXZ 10001d3f f i SmartCardRW.obj
 0001:00000d4c       ?Release@?$CComObject@VCOPOSSmartCardRW@@@ATL@@WIE@AGKXZ 10001d4c f i SmartCardRW.obj
 0001:00000d59       ?QueryInterface@?$CComObject@VCOPOSSmartCardRW@@@ATL@@WII@AGJABU_GUID@@PAPAX@Z 10001d59 f i SmartCardRW.obj
 0001:00000d66       ?AddRef@?$CComObject@VCOPOSSmartCardRW@@@ATL@@WII@AGKXZ 10001d66 f i SmartCardRW.obj
 0001:00000d73       ?Release@?$CComObject@VCOPOSSmartCardRW@@@ATL@@WII@AGKXZ 10001d73 f i SmartCardRW.obj
 0001:00000d80       ?QueryInterface@?$CComObject@VCOPOSSmartCardRW@@@ATL@@WIM@AGJABU_GUID@@PAPAX@Z 10001d80 f i SmartCardRW.obj
 0001:00000d8d       ?AddRef@?$CComObject@VCOPOSSmartCardRW@@@ATL@@WIM@AGKXZ 10001d8d f i SmartCardRW.obj
 0001:00000d9a       ?Release@?$CComObject@VCOPOSSmartCardRW@@@ATL@@WIM@AGKXZ 10001d9a f i SmartCardRW.obj
 0001:00000da7       ?QueryInterface@?$CComObject@VCOPOSSmartCardRW@@@ATL@@WJA@AGJABU_GUID@@PAPAX@Z 10001da7 f i SmartCardRW.obj
 0001:00000db4       ?AddRef@?$CComObject@VCOPOSSmartCardRW@@@ATL@@WJA@AGKXZ 10001db4 f i SmartCardRW.obj
 0001:00000dc1       ?Release@?$CComObject@VCOPOSSmartCardRW@@@ATL@@WJA@AGKXZ 10001dc1 f i SmartCardRW.obj
 0001:00000dce       ?QueryInterface@?$CComObject@VCOPOSSmartCardRW@@@ATL@@WJE@AGJABU_GUID@@PAPAX@Z 10001dce f i SmartCardRW.obj
 0001:00000ddb       ?AddRef@?$CComObject@VCOPOSSmartCardRW@@@ATL@@WJE@AGKXZ 10001ddb f i SmartCardRW.obj
 0001:00000de8       ?Release@?$CComObject@VCOPOSSmartCardRW@@@ATL@@WJE@AGKXZ 10001de8 f i SmartCardRW.obj
 0001:00000df5       ?QueryInterface@?$CComObject@VCOPOSSmartCardRW@@@ATL@@WJI@AGJABU_GUID@@PAPAX@Z 10001df5 f i SmartCardRW.obj
 0001:00000e02       ?AddRef@?$CComObject@VCOPOSSmartCardRW@@@ATL@@WJI@AGKXZ 10001e02 f i SmartCardRW.obj
 0001:00000e0f       ?Release@?$CComObject@VCOPOSSmartCardRW@@@ATL@@WJI@AGKXZ 10001e0f f i SmartCardRW.obj
 0001:00000e1c       ?QueryInterface@?$CComObject@VCOPOSSmartCardRW@@@ATL@@WJM@AGJABU_GUID@@PAPAX@Z 10001e1c f i SmartCardRW.obj
 0001:00000e29       ?AddRef@?$CComObject@VCOPOSSmartCardRW@@@ATL@@WJM@AGKXZ 10001e29 f i SmartCardRW.obj
 0001:00000e36       ?Release@?$CComObject@VCOPOSSmartCardRW@@@ATL@@WJM@AGKXZ 10001e36 f i SmartCardRW.obj
 0001:00000e43       ?QueryInterface@?$CComObject@VCOPOSSmartCardRW@@@ATL@@WKA@AGJABU_GUID@@PAPAX@Z 10001e43 f i SmartCardRW.obj
 0001:00000e50       ?AddRef@?$CComObject@VCOPOSSmartCardRW@@@ATL@@WKA@AGKXZ 10001e50 f i SmartCardRW.obj
 0001:00000e5d       ?Release@?$CComObject@VCOPOSSmartCardRW@@@ATL@@WKA@AGKXZ 10001e5d f i SmartCardRW.obj
 0001:00000e6a       ?AddRef@?$CComObject@VCOPOSSmartCardRW@@@ATL@@WKI@AGKXZ 10001e6a f i SmartCardRW.obj
 0001:00000e77       ?Release@?$CComObject@VCOPOSSmartCardRW@@@ATL@@WKI@AGKXZ 10001e77 f i SmartCardRW.obj
 0001:00000e84       ?AddRef@?$CComObject@VCOPOSSmartCardRW@@@ATL@@WLE@AGKXZ 10001e84 f i SmartCardRW.obj
 0001:00000e91       ?Release@?$CComObject@VCOPOSSmartCardRW@@@ATL@@WLE@AGKXZ 10001e91 f i SmartCardRW.obj
 0001:00000e9e       ??_E?$CComContainedObject@VCOPOSSmartCardRW@@@ATL@@W3AEPAXI@Z 10001e9e f i SmartCardRW.obj
 0001:00000ea6       ??_E?$CComContainedObject@VCOPOSSmartCardRW@@@ATL@@WEM@AEPAXI@Z 10001ea6 f i SmartCardRW.obj
 0001:00000eae       ?QueryInterface@?$CComContainedObject@VCOPOSSmartCardRW@@@ATL@@WHA@AGJABU_GUID@@PAPAX@Z 10001eae f i SmartCardRW.obj
 0001:00000eb8       ?AddRef@?$CComContainedObject@VCOPOSSmartCardRW@@@ATL@@WHA@AGKXZ 10001eb8 f i SmartCardRW.obj
 0001:00000ec2       ?Release@?$CComContainedObject@VCOPOSSmartCardRW@@@ATL@@WHA@AGKXZ 10001ec2 f i SmartCardRW.obj
 0001:00000ecc       ?QueryInterface@?$CComContainedObject@VCOPOSSmartCardRW@@@ATL@@WHE@AGJABU_GUID@@PAPAX@Z 10001ecc f i SmartCardRW.obj
 0001:00000ed6       ?AddRef@?$CComContainedObject@VCOPOSSmartCardRW@@@ATL@@WHE@AGKXZ 10001ed6 f i SmartCardRW.obj
 0001:00000ee0       ?Release@?$CComContainedObject@VCOPOSSmartCardRW@@@ATL@@WHE@AGKXZ 10001ee0 f i SmartCardRW.obj
 0001:00000eea       ?QueryInterface@?$CComContainedObject@VCOPOSSmartCardRW@@@ATL@@WHI@AGJABU_GUID@@PAPAX@Z 10001eea f i SmartCardRW.obj
 0001:00000ef4       ?AddRef@?$CComContainedObject@VCOPOSSmartCardRW@@@ATL@@WHI@AGKXZ 10001ef4 f i SmartCardRW.obj
 0001:00000efe       ?Release@?$CComContainedObject@VCOPOSSmartCardRW@@@ATL@@WHI@AGKXZ 10001efe f i SmartCardRW.obj
 0001:00000f08       ?QueryInterface@?$CComContainedObject@VCOPOSSmartCardRW@@@ATL@@WHM@AGJABU_GUID@@PAPAX@Z 10001f08 f i SmartCardRW.obj
 0001:00000f12       ?AddRef@?$CComContainedObject@VCOPOSSmartCardRW@@@ATL@@WHM@AGKXZ 10001f12 f i SmartCardRW.obj
 0001:00000f1c       ?Release@?$CComContainedObject@VCOPOSSmartCardRW@@@ATL@@WHM@AGKXZ 10001f1c f i SmartCardRW.obj
 0001:00000f26       ?QueryInterface@?$CComContainedObject@VCOPOSSmartCardRW@@@ATL@@WIA@AGJABU_GUID@@PAPAX@Z 10001f26 f i SmartCardRW.obj
 0001:00000f33       ?AddRef@?$CComContainedObject@VCOPOSSmartCardRW@@@ATL@@WIA@AGKXZ 10001f33 f i SmartCardRW.obj
 0001:00000f40       ?Release@?$CComContainedObject@VCOPOSSmartCardRW@@@ATL@@WIA@AGKXZ 10001f40 f i SmartCardRW.obj
 0001:00000f4d       ?QueryInterface@?$CComContainedObject@VCOPOSSmartCardRW@@@ATL@@WIE@AGJABU_GUID@@PAPAX@Z 10001f4d f i SmartCardRW.obj
 0001:00000f5a       ?AddRef@?$CComContainedObject@VCOPOSSmartCardRW@@@ATL@@WIE@AGKXZ 10001f5a f i SmartCardRW.obj
 0001:00000f67       ?Release@?$CComContainedObject@VCOPOSSmartCardRW@@@ATL@@WIE@AGKXZ 10001f67 f i SmartCardRW.obj
 0001:00000f74       ?QueryInterface@?$CComContainedObject@VCOPOSSmartCardRW@@@ATL@@WII@AGJABU_GUID@@PAPAX@Z 10001f74 f i SmartCardRW.obj
 0001:00000f81       ?AddRef@?$CComContainedObject@VCOPOSSmartCardRW@@@ATL@@WII@AGKXZ 10001f81 f i SmartCardRW.obj
 0001:00000f8e       ?Release@?$CComContainedObject@VCOPOSSmartCardRW@@@ATL@@WII@AGKXZ 10001f8e f i SmartCardRW.obj
 0001:00000f9b       ?QueryInterface@?$CComContainedObject@VCOPOSSmartCardRW@@@ATL@@WIM@AGJABU_GUID@@PAPAX@Z 10001f9b f i SmartCardRW.obj
 0001:00000fa8       ?AddRef@?$CComContainedObject@VCOPOSSmartCardRW@@@ATL@@WIM@AGKXZ 10001fa8 f i SmartCardRW.obj
 0001:00000fb5       ?Release@?$CComContainedObject@VCOPOSSmartCardRW@@@ATL@@WIM@AGKXZ 10001fb5 f i SmartCardRW.obj
 0001:00000fc2       ?QueryInterface@?$CComContainedObject@VCOPOSSmartCardRW@@@ATL@@WJA@AGJABU_GUID@@PAPAX@Z 10001fc2 f i SmartCardRW.obj
 0001:00000fcf       ?AddRef@?$CComContainedObject@VCOPOSSmartCardRW@@@ATL@@WJA@AGKXZ 10001fcf f i SmartCardRW.obj
 0001:00000fdc       ?Release@?$CComContainedObject@VCOPOSSmartCardRW@@@ATL@@WJA@AGKXZ 10001fdc f i SmartCardRW.obj
 0001:00000fe9       ?QueryInterface@?$CComContainedObject@VCOPOSSmartCardRW@@@ATL@@WJE@AGJABU_GUID@@PAPAX@Z 10001fe9 f i SmartCardRW.obj
 0001:00000ff6       ?AddRef@?$CComContainedObject@VCOPOSSmartCardRW@@@ATL@@WJE@AGKXZ 10001ff6 f i SmartCardRW.obj
 0001:00001003       ?Release@?$CComContainedObject@VCOPOSSmartCardRW@@@ATL@@WJE@AGKXZ 10002003 f i SmartCardRW.obj
 0001:00001010       ?QueryInterface@?$CComContainedObject@VCOPOSSmartCardRW@@@ATL@@WJI@AGJABU_GUID@@PAPAX@Z 10002010 f i SmartCardRW.obj
 0001:0000101d       ?AddRef@?$CComContainedObject@VCOPOSSmartCardRW@@@ATL@@WJI@AGKXZ 1000201d f i SmartCardRW.obj
 0001:0000102a       ?Release@?$CComContainedObject@VCOPOSSmartCardRW@@@ATL@@WJI@AGKXZ 1000202a f i SmartCardRW.obj
 0001:00001037       ?QueryInterface@?$CComContainedObject@VCOPOSSmartCardRW@@@ATL@@WJM@AGJABU_GUID@@PAPAX@Z 10002037 f i SmartCardRW.obj
 0001:00001044       ?AddRef@?$CComContainedObject@VCOPOSSmartCardRW@@@ATL@@WJM@AGKXZ 10002044 f i SmartCardRW.obj
 0001:00001051       ?Release@?$CComContainedObject@VCOPOSSmartCardRW@@@ATL@@WJM@AGKXZ 10002051 f i SmartCardRW.obj
 0001:0000105e       ?QueryInterface@?$CComContainedObject@VCOPOSSmartCardRW@@@ATL@@WKA@AGJABU_GUID@@PAPAX@Z 1000205e f i SmartCardRW.obj
 0001:0000106b       ?AddRef@?$CComContainedObject@VCOPOSSmartCardRW@@@ATL@@WKA@AGKXZ 1000206b f i SmartCardRW.obj
 0001:00001078       ?Release@?$CComContainedObject@VCOPOSSmartCardRW@@@ATL@@WKA@AGKXZ 10002078 f i SmartCardRW.obj
 0001:00001085       ?AddRef@?$CComContainedObject@VCOPOSSmartCardRW@@@ATL@@WKI@AGKXZ 10002085 f i SmartCardRW.obj
 0001:00001092       ?Release@?$CComContainedObject@VCOPOSSmartCardRW@@@ATL@@WKI@AGKXZ 10002092 f i SmartCardRW.obj
 0001:0000109f       ?AddRef@?$CComContainedObject@VCOPOSSmartCardRW@@@ATL@@WLE@AGKXZ 1000209f f i SmartCardRW.obj
 0001:000010ac       ?Release@?$CComContainedObject@VCOPOSSmartCardRW@@@ATL@@WLE@AGKXZ 100020ac f i SmartCardRW.obj
 0001:000010b9       ?Lock@CAtlModule@ATL@@UAEJXZ 100020b9 f i SmartCardRW.obj
 0001:000010c3       ?Unlock@CAtlModule@ATL@@UAEJXZ 100020c3 f i SmartCardRW.obj
 0001:000010cd       ?GetLockCount@CAtlModule@ATL@@UAEJXZ 100020cd f i SmartCardRW.obj
 0001:000010d1       ?GetGITPtr@CAtlModule@ATL@@UAEJPAPAUIGlobalInterfaceTable@@@Z 100020d1 f i SmartCardRW.obj
 0001:0000111d       ?AddCommonRGSReplacements@?$CAtlModuleT@VCComModule@ATL@@@ATL@@UAEJPAUIRegistrarBase@@@Z 1000211d f i SmartCardRW.obj
 0001:00001137       ?UpdateRegistryFromResourceD@CComModule@ATL@@UAGJIHPAU_ATL_REGMAP_ENTRY@2@@Z 10002137 f i SmartCardRW.obj
 0001:00001137       ?UpdateRegistryFromResourceD@CComModule@ATL@@UAGJPB_WHPAU_ATL_REGMAP_ENTRY@2@@Z 10002137 f i SmartCardRW.obj
 0001:0000113f       ?UpdateRegistryFromResource@CComModule@ATL@@UAGJPB_WHPAU_ATL_REGMAP_ENTRY@2@@Z 1000213f f i SmartCardRW.obj
 0001:00001148       ?UpdateRegistryFromResource@CComModule@ATL@@UAGJIHPAU_ATL_REGMAP_ENTRY@2@@Z 10002148 f i SmartCardRW.obj
 0001:00001151       ??_ECComModule@ATL@@UAEPAXI@Z 10002151 f i SmartCardRW.obj
 0001:00001151       ??_GCComModule@ATL@@UAEPAXI@Z 10002151 f i SmartCardRW.obj
 0001:00001179       ?GetWindowProc@?$CWindowImplBaseT@VCWindow@ATL@@V?$CWinTraits@$0FGAAAAAA@$0A@@2@@ATL@@UAEP6GJPAUHWND__@@IIJ@ZXZ 10002179 f i SmartCardRW.obj
 0001:0000117f       ?StartWindowProc@?$CWindowImplBaseT@VCWindow@ATL@@V?$CWinTraits@$0FGAAAAAA@$0A@@2@@ATL@@SGJPAUHWND__@@IIJ@Z 1000217f f i SmartCardRW.obj
 0001:000011d3       ?GetTypeInfoCount@?$IDispatchImpl@UIOPOSSmartCardRW@@$1?IID_IOPOSSmartCardRW@@3U_GUID@@B$1?LIBID_OposSmartCardRW_CCO@@3U3@B$00$0A@VCComTypeInfoHolder@ATL@@@ATL@@UAGJPAI@Z 100021d3 f i SmartCardRW.obj
 0001:000011f0       ?GetTypeInfo@?$IDispatchImpl@UIOPOSSmartCardRW@@$1?IID_IOPOSSmartCardRW@@3U_GUID@@B$1?LIBID_OposSmartCardRW_CCO@@3U3@B$00$0A@VCComTypeInfoHolder@ATL@@@ATL@@UAGJIKPAPAUITypeInfo@@@Z 100021f0 f i SmartCardRW.obj
 0001:00001214       ?GetIDsOfNames@?$IDispatchImpl@UIOPOSSmartCardRW@@$1?IID_IOPOSSmartCardRW@@3U_GUID@@B$1?LIBID_OposSmartCardRW_CCO@@3U3@B$00$0A@VCComTypeInfoHolder@ATL@@@ATL@@UAGJABU_GUID@@PAPA_WIKPAJ@Z 10002214 f i SmartCardRW.obj
 0001:00001234       ?Invoke@?$IDispatchImpl@UIOPOSSmartCardRW@@$1?IID_IOPOSSmartCardRW@@3U_GUID@@B$1?LIBID_OposSmartCardRW_CCO@@3U3@B$00$0A@VCComTypeInfoHolder@ATL@@@ATL@@UAGJJABU_GUID@@KGPAUtagDISPPARAMS@@PAUtagVARIANT@@PAUtagEXCEPINFO@@PAI@Z 10002234 f i SmartCardRW.obj
 0001:00001242       ?CreateControlWindow@?$CComControl@VCOPOSSmartCardRW@@V?$CWindowImpl@VCOPOSSmartCardRW@@VCWindow@ATL@@V?$CWinTraits@$0FGAAAAAA@$0A@@3@@ATL@@@ATL@@UAEPAUHWND__@@PAU3@AAUtagRECT@@@Z 10002242 f i SmartCardRW.obj
 0001:00001271       ?ControlQueryInterface@?$CComControl@VCOPOSSmartCardRW@@V?$CWindowImpl@VCOPOSSmartCardRW@@VCWindow@ATL@@V?$CWinTraits@$0FGAAAAAA@$0A@@3@@ATL@@@ATL@@UAEJABU_GUID@@PAPAX@Z 10002271 f i SmartCardRW.obj
 0001:0000128c       ?GetUserClassID@?$IOleObjectImpl@VCOPOSSmartCardRW@@@ATL@@UAGJPAU_GUID@@@Z 1000228c f i SmartCardRW.obj
 0001:0000128c       ?GetClassID@?$IPersistStorageImpl@VCOPOSSmartCardRW@@@ATL@@UAGJPAU_GUID@@@Z 1000228c f i SmartCardRW.obj
 0001:0000128c       ?GetClassID@?$IPersistStreamInitImpl@VCOPOSSmartCardRW@@@ATL@@UAGJPAU_GUID@@@Z 1000228c f i SmartCardRW.obj
 0001:000012b0       ?IsDirty@?$IPersistStreamInitImpl@VCOPOSSmartCardRW@@@ATL@@UAGJXZ 100022b0 f i SmartCardRW.obj
 0001:000012cf       ?Load@?$IPersistStreamInitImpl@VCOPOSSmartCardRW@@@ATL@@UAGJPAUIStream@@@Z 100022cf f i SmartCardRW.obj
 0001:000012ee       ?Save@?$IPersistStreamInitImpl@VCOPOSSmartCardRW@@@ATL@@UAGJPAUIStream@@H@Z 100022ee f i SmartCardRW.obj
 0001:00001310       ?GetSizeMax@?$IPersistStreamInitImpl@VCOPOSSmartCardRW@@@ATL@@UAGJPAT_ULARGE_INTEGER@@@Z 10002310 f i SmartCardRW.obj
 0001:000014c5       ?InitNew@?$IPersistStreamInitImpl@VCOPOSSmartCardRW@@@ATL@@UAGJXZ 100024c5 f i SmartCardRW.obj
 0001:000014e2       ?Unfreeze@?$IViewObjectExImpl@VCOPOSSmartCardRW@@@ATL@@UAGJK@Z 100024e2 f i SmartCardRW.obj
 0001:000014e2       ?QueryGetData@?$IDataObjectImpl@VCOPOSSmartCardRW@@@ATL@@UAGJPAUtagFORMATETC@@@Z 100024e2 f i SmartCardRW.obj
 0001:000014e2       ?OnMnemonic@?$IOleControlImpl@VCOPOSSmartCardRW@@@ATL@@UAGJPAUtagMSG@@@Z 100024e2 f i SmartCardRW.obj
 0001:000014e2       ?ContextSensitiveHelp@?$IOleInPlaceActiveObjectImpl@VCOPOSSmartCardRW@@@ATL@@UAGJH@Z 100024e2 f i SmartCardRW.obj
 0001:000014e2       ?GetControlInfo@?$IOleControlImpl@VCOPOSSmartCardRW@@@ATL@@UAGJPAUtagCONTROLINFO@@@Z 100024e2 f i SmartCardRW.obj
 0001:000014e2       ?GetDropTarget@?$IOleInPlaceObjectWindowlessImpl@VCOPOSSmartCardRW@@@ATL@@UAGJPAPAUIDropTarget@@@Z 100024e2 f i SmartCardRW.obj
 0001:000014e2       ?SetColorScheme@?$IOleObjectImpl@VCOPOSSmartCardRW@@@ATL@@UAGJPAUtagLOGPALETTE@@@Z 100024e2 f i SmartCardRW.obj
 0001:000014e2       ?ContextSensitiveHelp@?$IOleInPlaceObjectWindowlessImpl@VCOPOSSmartCardRW@@@ATL@@UAGJH@Z 100024e2 f i SmartCardRW.obj
 0001:000014ea       ?SaveCompleted@?$IPersistStorageImpl@VCOPOSSmartCardRW@@@ATL@@UAGJPAUIStorage@@@Z 100024ea f i SmartCardRW.obj
 0001:000014ea       ?OnFrameWindowActivate@?$IOleInPlaceActiveObjectImpl@VCOPOSSmartCardRW@@@ATL@@UAGJH@Z 100024ea f i SmartCardRW.obj
 0001:000014ea       ?EnableModeless@?$IOleInPlaceActiveObjectImpl@VCOPOSSmartCardRW@@@ATL@@UAGJH@Z 100024ea f i SmartCardRW.obj
 0001:000014ea       ?OnAmbientPropertyChange@?$IOleControlImpl@VCOPOSSmartCardRW@@@ATL@@UAGJJ@Z 100024ea f i SmartCardRW.obj
 0001:000014ef       ?SetClientSite@?$IOleObjectImpl@VCOPOSSmartCardRW@@@ATL@@UAGJPAUIOleClientSite@@@Z 100024ef f i SmartCardRW.obj
 0001:0000150c       ?GetClientSite@?$IOleObjectImpl@VCOPOSSmartCardRW@@@ATL@@UAGJPAPAUIOleClientSite@@@Z 1000250c f i SmartCardRW.obj
 0001:00001529       ?SetHostNames@?$IOleObjectImpl@VCOPOSSmartCardRW@@@ATL@@UAGJPB_W0@Z 10002529 f i SmartCardRW.obj
 0001:0000152e       ?Close@?$IOleObjectImpl@VCOPOSSmartCardRW@@@ATL@@UAGJK@Z 1000252e f i SmartCardRW.obj
 0001:0000154b       ?GetClipboardData@?$IOleObjectImpl@VCOPOSSmartCardRW@@@ATL@@UAGJKPAPAUIDataObject@@@Z 1000254b f i SmartCardRW.obj
 0001:0000154b       ?GetDataHere@?$IDataObjectImpl@VCOPOSSmartCardRW@@@ATL@@UAGJPAUtagFORMATETC@@PAUtagSTGMEDIUM@@@Z 1000254b f i SmartCardRW.obj
 0001:0000154b       ?EnumFormatEtc@?$IDataObjectImpl@VCOPOSSmartCardRW@@@ATL@@UAGJKPAPAUIEnumFORMATETC@@@Z 1000254b f i SmartCardRW.obj
 0001:0000154b       ?GetCanonicalFormatEtc@?$IDataObjectImpl@VCOPOSSmartCardRW@@@ATL@@UAGJPAUtagFORMATETC@@0@Z 1000254b f i SmartCardRW.obj
 0001:0000154b       ?SetMoniker@?$IOleObjectImpl@VCOPOSSmartCardRW@@@ATL@@UAGJKPAUIMoniker@@@Z 1000254b f i SmartCardRW.obj
 0001:0000154b       ?QueryInterface@CRegObject@ATL@@UAGJABU_GUID@@PAPAX@Z 1000254b f i SmartCardRW.obj
 0001:0000154b       ?GetRect@?$IViewObjectExImpl@VCOPOSSmartCardRW@@@ATL@@UAGJKPAU_RECTL@@@Z 1000254b f i SmartCardRW.obj
 0001:00001553       ?InitFromData@?$IOleObjectImpl@VCOPOSSmartCardRW@@@ATL@@UAGJPAUIDataObject@@HK@Z 10002553 f i SmartCardRW.obj
 0001:00001553       ?GetMoniker@?$IOleObjectImpl@VCOPOSSmartCardRW@@@ATL@@UAGJKKPAPAUIMoniker@@@Z 10002553 f i SmartCardRW.obj
 0001:00001553       ?SetData@?$IDataObjectImpl@VCOPOSSmartCardRW@@@ATL@@UAGJPAUtagFORMATETC@@PAUtagSTGMEDIUM@@H@Z 10002553 f i SmartCardRW.obj
 0001:0000155b       ?DoVerb@?$IOleObjectImpl@VCOPOSSmartCardRW@@@ATL@@UAGJJPAUtagMSG@@PAUIOleClientSite@@JPAUHWND__@@PBUtagRECT@@@Z 1000255b f i SmartCardRW.obj
 0001:00001673       ?EnumVerbs@?$IOleObjectImpl@VCOPOSSmartCardRW@@@ATL@@UAGJPAPAUIEnumOLEVERB@@@Z 10002673 f i SmartCardRW.obj
 0001:00001695       ?IsUpToDate@?$IOleObjectImpl@VCOPOSSmartCardRW@@@ATL@@UAGJXZ 10002695 f i SmartCardRW.obj
 0001:00001695       ?Release@CRegObject@ATL@@UAGKXZ 10002695 f i SmartCardRW.obj
 0001:00001695       ?Update@?$IOleObjectImpl@VCOPOSSmartCardRW@@@ATL@@UAGJXZ 10002695 f i SmartCardRW.obj
 0001:00001695       ?HandsOffStorage@?$IPersistStorageImpl@VCOPOSSmartCardRW@@@ATL@@UAGJXZ 10002695 f i SmartCardRW.obj
 0001:0000169a       ?GetUserType@?$IOleObjectImpl@VCOPOSSmartCardRW@@@ATL@@UAGJKPAPA_W@Z 1000269a f i SmartCardRW.obj
 0001:000016b2       ?SetExtent@?$IOleObjectImpl@VCOPOSSmartCardRW@@@ATL@@UAGJKPAUtagSIZE@@@Z 100026b2 f i SmartCardRW.obj
 0001:000016d2       ?GetExtent@?$IOleObjectImpl@VCOPOSSmartCardRW@@@ATL@@UAGJKPAUtagSIZE@@@Z 100026d2 f i SmartCardRW.obj
 0001:00001710       ?Advise@?$IOleObjectImpl@VCOPOSSmartCardRW@@@ATL@@UAGJPAUIAdviseSink@@PAK@Z 10002710 f i SmartCardRW.obj
 0001:00001730       ?Unadvise@?$IOleObjectImpl@VCOPOSSmartCardRW@@@ATL@@UAGJK@Z 10002730 f i SmartCardRW.obj
 0001:0000175f       ?EnumAdvise@?$IOleObjectImpl@VCOPOSSmartCardRW@@@ATL@@UAGJPAPAUIEnumSTATDATA@@@Z 1000275f f i SmartCardRW.obj
 0001:0000179f       ?GetMiscStatus@?$IOleObjectImpl@VCOPOSSmartCardRW@@@ATL@@UAGJKPAK@Z 1000279f f i SmartCardRW.obj
 0001:000017b7       ?GetWindow@?$IOleInPlaceActiveObjectImpl@VCOPOSSmartCardRW@@@ATL@@UAGJPAPAUHWND__@@@Z 100027b7 f i SmartCardRW.obj
 0001:00001804       ?TranslateAcceleratorW@?$IOleInPlaceActiveObjectImpl@VCOPOSSmartCardRW@@@ATL@@UAGJPAUtagMSG@@@Z 10002804 f i SmartCardRW.obj
 0001:000018a2       ?OnDocWindowActivate@?$IOleInPlaceActiveObjectImpl@VCOPOSSmartCardRW@@@ATL@@UAGJH@Z 100028a2 f i SmartCardRW.obj
 0001:000018c4       ?ResizeBorder@?$IOleInPlaceActiveObjectImpl@VCOPOSSmartCardRW@@@ATL@@UAGJPBUtagRECT@@PAUIOleInPlaceUIWindow@@H@Z 100028c4 f i SmartCardRW.obj
 0001:000018c9       ?Draw@?$IViewObjectExImpl@VCOPOSSmartCardRW@@@ATL@@UAGJKJPAXPAUtagDVTARGETDEVICE@@PAUHDC__@@2PBU_RECTL@@3P6GHK@ZK@Z 100028c9 f i SmartCardRW.obj
 0001:000018fb       ?GetColorSet@?$IViewObjectExImpl@VCOPOSSmartCardRW@@@ATL@@UAGJKJPAXPAUtagDVTARGETDEVICE@@PAUHDC__@@PAPAUtagLOGPALETTE@@@Z 100028fb f i SmartCardRW.obj
 0001:00001903       ?Freeze@?$IViewObjectExImpl@VCOPOSSmartCardRW@@@ATL@@UAGJKJPAXPAK@Z 10002903 f i SmartCardRW.obj
 0001:0000190b       ?SetAdvise@?$IViewObjectExImpl@VCOPOSSmartCardRW@@@ATL@@UAGJKKPAUIAdviseSink@@@Z 1000290b f i SmartCardRW.obj
 0001:0000192a       ?GetAdvise@?$IViewObjectExImpl@VCOPOSSmartCardRW@@@ATL@@UAGJPAK0PAPAUIAdviseSink@@@Z 1000292a f i SmartCardRW.obj
 0001:0000195f       ?GetExtent@?$IViewObjectExImpl@VCOPOSSmartCardRW@@@ATL@@UAGJKJPAUtagDVTARGETDEVICE@@PAUtagSIZE@@@Z 1000295f f i SmartCardRW.obj
 0001:00001990       ?GetViewStatus@?$IViewObjectExImpl@VCOPOSSmartCardRW@@@ATL@@UAGJPAK@Z 10002990 f i SmartCardRW.obj
 0001:000019ad       ?QueryHitPoint@?$IViewObjectExImpl@VCOPOSSmartCardRW@@@ATL@@UAGJKPBUtagRECT@@UtagPOINT@@JPAK@Z 100029ad f i SmartCardRW.obj
 0001:000019ee       ?QueryHitRect@?$IViewObjectExImpl@VCOPOSSmartCardRW@@@ATL@@UAGJKPBUtagRECT@@0JPAK@Z 100029ee f i SmartCardRW.obj
 0001:00001a49       ?GetNaturalExtent@?$IViewObjectExImpl@VCOPOSSmartCardRW@@@ATL@@UAGJKJPAUtagDVTARGETDEVICE@@PAUHDC__@@PAUtagExtentInfo@@PAUtagSIZE@@@Z 10002a49 f i SmartCardRW.obj
 0001:00001a94       ?GetWindow@?$IOleInPlaceObjectWindowlessImpl@VCOPOSSmartCardRW@@@ATL@@UAGJPAPAUHWND__@@@Z 10002a94 f i SmartCardRW.obj
 0001:00001ae1       ?InPlaceDeactivate@?$IOleInPlaceObjectWindowlessImpl@VCOPOSSmartCardRW@@@ATL@@UAGJXZ 10002ae1 f i SmartCardRW.obj
 0001:00001afb       ?UIDeactivate@?$IOleInPlaceObjectWindowlessImpl@VCOPOSSmartCardRW@@@ATL@@UAGJXZ 10002afb f i SmartCardRW.obj
 0001:00001b15       ?SetObjectRects@?$IOleInPlaceObjectWindowlessImpl@VCOPOSSmartCardRW@@@ATL@@UAGJPBUtagRECT@@0@Z 10002b15 f i SmartCardRW.obj
 0001:00001b35       ?ReactivateAndUndo@?$IOleInPlaceObjectWindowlessImpl@VCOPOSSmartCardRW@@@ATL@@UAGJXZ 10002b35 f i SmartCardRW.obj
 0001:00001b3d       ?OnWindowMessage@?$IOleInPlaceObjectWindowlessImpl@VCOPOSSmartCardRW@@@ATL@@UAGJIIJPAJ@Z 10002b3d f i SmartCardRW.obj
 0001:00001bad       ?EnumConnectionPoints@?$IConnectionPointContainerImpl@VCOPOSSmartCardRW@@@ATL@@UAGJPAPAUIEnumConnectionPoints@@@Z 10002bad f i SmartCardRW.obj
 0001:00001d27       ?FindConnectionPoint@?$IConnectionPointContainerImpl@VCOPOSSmartCardRW@@@ATL@@UAGJABU_GUID@@PAPAUIConnectionPoint@@@Z 10002d27 f i SmartCardRW.obj
 0001:00001dca       ?IsDirty@?$IPersistStorageImpl@VCOPOSSmartCardRW@@@ATL@@UAGJXZ 10002dca f i SmartCardRW.obj
 0001:00001dfe       ?InitNew@?$IPersistStorageImpl@VCOPOSSmartCardRW@@@ATL@@UAGJPAUIStorage@@@Z 10002dfe f i SmartCardRW.obj
 0001:00001e32       ?Load@?$IPersistStorageImpl@VCOPOSSmartCardRW@@@ATL@@UAGJPAUIStorage@@@Z 10002e32 f i SmartCardRW.obj
 0001:00001e9e       ?Save@?$IPersistStorageImpl@VCOPOSSmartCardRW@@@ATL@@UAGJPAUIStorage@@H@Z 10002e9e f i SmartCardRW.obj
 0001:00001f11       ?GetPages@?$ISpecifyPropertyPagesImpl@VCOPOSSmartCardRW@@@ATL@@UAGJPAUtagCAUUID@@@Z 10002f11 f i SmartCardRW.obj
 0001:00001f28       ?QuickActivate@?$IQuickActivateImpl@VCOPOSSmartCardRW@@@ATL@@UAGJPAUtagQACONTAINER@@PAUtagQACONTROL@@@Z 10002f28 f i SmartCardRW.obj
 0001:00001f4b       ?SetContentExtent@?$IQuickActivateImpl@VCOPOSSmartCardRW@@@ATL@@UAGJPAUtagSIZE@@@Z 10002f4b f i SmartCardRW.obj
 0001:00001f77       ?GetContentExtent@?$IQuickActivateImpl@VCOPOSSmartCardRW@@@ATL@@UAGJPAUtagSIZE@@@Z 10002f77 f i SmartCardRW.obj
 0001:00001f97       ?GetData@?$IDataObjectImpl@VCOPOSSmartCardRW@@@ATL@@UAGJPAUtagFORMATETC@@PAUtagSTGMEDIUM@@@Z 10002f97 f i SmartCardRW.obj
 0001:00001fba       ?DAdvise@?$IDataObjectImpl@VCOPOSSmartCardRW@@@ATL@@UAGJPAUtagFORMATETC@@KPAUIAdviseSink@@PAK@Z 10002fba f i SmartCardRW.obj
 0001:00001ffb       ?DUnadvise@?$IDataObjectImpl@VCOPOSSmartCardRW@@@ATL@@UAGJK@Z 10002ffb f i SmartCardRW.obj
 0001:00002029       ?EnumDAdvise@?$IDataObjectImpl@VCOPOSSmartCardRW@@@ATL@@UAGJPAPAUIEnumSTATDATA@@@Z 10003029 f i SmartCardRW.obj
 0001:00002068       ?GetClassInfoW@?$IProvideClassInfo2Impl@$1?CLSID_OPOSSmartCardRW@@3U_GUID@@B$1?DIID__IOPOSSmartCardRWEvents@@3U2@B$1?LIBID_OposSmartCardRW_CCO@@3U2@B$00$0A@VCComTypeInfoHolder@ATL@@@ATL@@UAGJPAPAUITypeInfo@@@Z 10003068 f i SmartCardRW.obj
 0001:0000207e       ?GetGUID@?$IProvideClassInfo2Impl@$1?CLSID_OPOSSmartCardRW@@3U_GUID@@B$1?DIID__IOPOSSmartCardRWEvents@@3U2@B$1?LIBID_OposSmartCardRW_CCO@@3U2@B$00$0A@VCComTypeInfoHolder@ATL@@@ATL@@UAGJKPAU_GUID@@@Z 1000307e f i SmartCardRW.obj
 0001:000020bc       ?FAccessAllowed@?$IObjectSafetyImpl@VCOPOSSmartCardRW@@$02@ATL@@MAEHXZ 100030bc f i SmartCardRW.obj
 0001:000020bc       __get_startup_argv_mode    100030bc f i LIBCMT:argv_mode.obj
 0001:000020c0       ?GetInterfaceSafetyOptions@?$IObjectSafetyImpl@VCOPOSSmartCardRW@@$02@ATL@@UAGJABU_GUID@@PAK1@Z 100030c0 f i SmartCardRW.obj
 0001:00002134       ?SetInterfaceSafetyOptions@?$IObjectSafetyImpl@VCOPOSSmartCardRW@@$02@ATL@@UAGJABU_GUID@@KK@Z 10003134 f i SmartCardRW.obj
 0001:000021ae       ?_LocCPQueryInterface@?$IConnectionPointImpl@VCOPOSSmartCardRW@@$1?DIID__IOPOSSmartCardRWEvents@@3U_GUID@@BVCComDynamicUnkArray@ATL@@@ATL@@UAGJABU_GUID@@PAPAX@Z 100031ae f i SmartCardRW.obj
 0001:000021ae       ?_LocCPQueryInterface@?$IConnectionPointImpl@VCOPOSSmartCardRW@@$1?IID_IPropertyNotifySink@@3U_GUID@@BVCComDynamicUnkArray@ATL@@@ATL@@UAGJABU_GUID@@PAPAX@Z 100031ae f i SmartCardRW.obj
 0001:000021fb       ?GetConnectionInterface@?$IConnectionPointImpl@VCOPOSSmartCardRW@@$1?IID_IPropertyNotifySink@@3U_GUID@@BVCComDynamicUnkArray@ATL@@@ATL@@UAGJPAU_GUID@@@Z 100031fb f i SmartCardRW.obj
 0001:0000221f       ?GetConnectionPointContainer@?$IConnectionPointImpl@VCOPOSSmartCardRW@@$1?IID_IPropertyNotifySink@@3U_GUID@@BVCComDynamicUnkArray@ATL@@@ATL@@UAGJPAPAUIConnectionPointContainer@@@Z 1000321f f i SmartCardRW.obj
 0001:00002242       ?Advise@?$IConnectionPointImpl@VCOPOSSmartCardRW@@$1?DIID__IOPOSSmartCardRWEvents@@3U_GUID@@BVCComDynamicUnkArray@ATL@@@ATL@@UAGJPAUIUnknown@@PAK@Z 10003242 f i SmartCardRW.obj
 0001:00002242       ?Advise@?$IConnectionPointImpl@VCOPOSSmartCardRW@@$1?IID_IPropertyNotifySink@@3U_GUID@@BVCComDynamicUnkArray@ATL@@@ATL@@UAGJPAUIUnknown@@PAK@Z 10003242 f i SmartCardRW.obj
 0001:000022e3       ?Unadvise@?$IConnectionPointImpl@VCOPOSSmartCardRW@@$1?DIID__IOPOSSmartCardRWEvents@@3U_GUID@@BVCComDynamicUnkArray@ATL@@@ATL@@UAGJK@Z 100032e3 f i SmartCardRW.obj
 0001:000022e3       ?Unadvise@?$IConnectionPointImpl@VCOPOSSmartCardRW@@$1?IID_IPropertyNotifySink@@3U_GUID@@BVCComDynamicUnkArray@ATL@@@ATL@@UAGJK@Z 100032e3 f i SmartCardRW.obj
 0001:00002323       ?EnumConnections@?$IConnectionPointImpl@VCOPOSSmartCardRW@@$1?IID_IPropertyNotifySink@@3U_GUID@@BVCComDynamicUnkArray@ATL@@@ATL@@UAGJPAPAUIEnumConnections@@@Z 10003323 f i SmartCardRW.obj
 0001:00002323       ?EnumConnections@?$IConnectionPointImpl@VCOPOSSmartCardRW@@$1?DIID__IOPOSSmartCardRWEvents@@3U_GUID@@BVCComDynamicUnkArray@ATL@@@ATL@@UAGJPAPAUIEnumConnections@@@Z 10003323 f i SmartCardRW.obj
 0001:00002429       ?GetConnectionInterface@?$IConnectionPointImpl@VCOPOSSmartCardRW@@$1?DIID__IOPOSSmartCardRWEvents@@3U_GUID@@BVCComDynamicUnkArray@ATL@@@ATL@@UAGJPAU_GUID@@@Z 10003429 f i SmartCardRW.obj
 0001:0000244d       ?GetConnectionPointContainer@?$IConnectionPointImpl@VCOPOSSmartCardRW@@$1?DIID__IOPOSSmartCardRWEvents@@3U_GUID@@BVCComDynamicUnkArray@ATL@@@ATL@@UAGJPAPAUIConnectionPointContainer@@@Z 1000344d f i SmartCardRW.obj
 0001:00002470       ?AddRef@CRegObject@ATL@@UAGKXZ 10003470 f i SmartCardRW.obj
 0001:00002476       ?AddReplacement@CRegObject@ATL@@UAGJPB_W0@Z 10003476 f i SmartCardRW.obj
 0001:000024af       ?ClearReplacements@CRegObject@ATL@@UAGJXZ 100034af f i SmartCardRW.obj
 0001:000024c1       ??_ECRegObject@ATL@@UAEPAXI@Z 100034c1 f i SmartCardRW.obj
 0001:000024c1       ??_GCRegObject@ATL@@UAEPAXI@Z 100034c1 f i SmartCardRW.obj
 0001:000024e3       ?UpdateRegistry@COPOSSmartCardRW@@SGJH@Z 100034e3 f i SmartCardRW.obj
 0001:000024fb       ?ProcessWindowMessage@COPOSSmartCardRW@@UAEHPAUHWND__@@IIJAAJK@Z 100034fb f i SmartCardRW.obj
 0001:00002544       ?SOData@COPOSSmartCardRW@@MAGJJ@Z 10003544 f i SmartCardRW.obj
 0001:0000257d       ?SODirectIO@COPOSSmartCardRW@@MAGJJPAJPAPA_W@Z 1000357d f i SmartCardRW.obj
 0001:000025c6       ?SOError@COPOSSmartCardRW@@MAGJJJJPAJ@Z 100035c6 f i SmartCardRW.obj
 0001:0000261b       ?SOOutputComplete@COPOSSmartCardRW@@MAGJJ@Z 1000361b f i SmartCardRW.obj
 0001:00002654       ?SOStatusUpdate@COPOSSmartCardRW@@MAGJJ@Z 10003654 f i SmartCardRW.obj
 0001:0000268d       ?CreateInstance@?$CComCreator@V?$CComObjectCached@VCComClassFactory@ATL@@@ATL@@@ATL@@SGJPAXABU_GUID@@PAPAX@Z 1000368d f i SmartCardRW.obj
 0001:00002720       ?CreateInstance@?$CComCreator2@V?$CComCreator@V?$CComObject@VCOPOSSmartCardRW@@@ATL@@@ATL@@V?$CComCreator@V?$CComAggObject@VCOPOSSmartCardRW@@@ATL@@@2@@ATL@@SGJPAXABU_GUID@@PAPAX@Z 10003720 f i SmartCardRW.obj
 0001:00002740       ?Next@?$CComEnumImpl@UIEnumConnectionPoints@@$1?_GUID_b196b285_bab4_101a_b69c_00aa00341d07@@3U__s_GUID@@BPAUIConnectionPoint@@V?$_CopyInterface@UIConnectionPoint@@@ATL@@@ATL@@UAGJKPAPAUIConnectionPoint@@PAK@Z 10003740 f i SmartCardRW.obj
 0001:00002817       ?Skip@?$CComEnumImpl@UIEnumConnectionPoints@@$1?_GUID_b196b285_bab4_101a_b69c_00aa00341d07@@3U__s_GUID@@BPAUIConnectionPoint@@V?$_CopyInterface@UIConnectionPoint@@@ATL@@@ATL@@UAGJK@Z 10003817 f i SmartCardRW.obj
 0001:00002844       ?Clone@?$CComEnumImpl@UIEnumConnectionPoints@@$1?_GUID_b196b285_bab4_101a_b69c_00aa00341d07@@3U__s_GUID@@BPAUIConnectionPoint@@V?$_CopyInterface@UIConnectionPoint@@@ATL@@@ATL@@UAGJPAPAUIEnumConnectionPoints@@@Z 10003844 f i SmartCardRW.obj
 0001:00002923       ?QueryInterface@?$CComObject@V?$CComEnum@UIEnumConnectionPoints@@$1?_GUID_b196b285_bab4_101a_b69c_00aa00341d07@@3U__s_GUID@@BPAUIConnectionPoint@@V?$_CopyInterface@UIConnectionPoint@@@ATL@@VCComSingleThreadModel@6@@ATL@@@ATL@@UAGJABU_GUID@@PAPAX@Z 10003923 f i SmartCardRW.obj
 0001:0000293d       ??_E?$CComObject@V?$CComEnum@UIEnumConnectionPoints@@$1?_GUID_b196b285_bab4_101a_b69c_00aa00341d07@@3U__s_GUID@@BPAUIConnectionPoint@@V?$_CopyInterface@UIConnectionPoint@@@ATL@@VCComSingleThreadModel@6@@ATL@@@ATL@@UAEPAXI@Z 1000393d f i SmartCardRW.obj
 0001:0000293d       ??_G?$CComObject@V?$CComEnum@UIEnumConnectionPoints@@$1?_GUID_b196b285_bab4_101a_b69c_00aa00341d07@@3U__s_GUID@@BPAUIConnectionPoint@@V?$_CopyInterface@UIConnectionPoint@@@ATL@@VCComSingleThreadModel@6@@ATL@@@ATL@@UAEPAXI@Z 1000393d f i SmartCardRW.obj
 0001:0000295f       ??$?4UITypeInfo2@@@?$CComPtr@UITypeInfo@@@ATL@@QAEPAUITypeInfo@@ABV?$CComPtr@UITypeInfo2@@@1@@Z 1000395f f i SmartCardRW.obj
 0001:0000298c       ??$AtlAdd@K@ATL@@YAJPAKKK@Z 1000398c f i SmartCardRW.obj
 0001:000029af       ??$AtlAdd@_K@ATL@@YAJPA_K_K1@Z 100039af f i SmartCardRW.obj
 0001:000029e7       ??$AtlAddThrow@K@ATL@@YAKKK@Z 100039e7 f i SmartCardRW.obj
 0001:00002a0d       ??$AtlModuleRegisterWndClassInfoT@VAtlModuleRegisterWndClassInfoParamW@ATL@@@ATL@@YAGPAU_ATL_BASE_MODULE70@0@PAU_ATL_WIN_MODULE70@0@PAU_ATL_WNDCLASSINFOW@0@PAP6GJPAUHWND__@@IIJ@ZVAtlModuleRegisterWndClassInfoParamW@0@@Z 10003a0d f i SmartCardRW.obj
 0001:00002b5b       ??$AtlMultiply@H@ATL@@YAJPAHHH@Z 10003b5b f i SmartCardRW.obj
 0001:00002b93       ??$AtlMultiply@K@ATL@@YAJPAKKK@Z 10003b93 f i SmartCardRW.obj
 0001:00002b93       ??$AtlMultiply@I@ATL@@YAJPAIII@Z 10003b93 f i SmartCardRW.obj
 0001:00002bb5       ??$AtlMultiplyThrow@I@ATL@@YAIII@Z 10003bb5 f i SmartCardRW.obj
 0001:00002bdb       ??0?$CComAggObject@VCOPOSSmartCardRW@@@ATL@@QAE@PAX@Z 10003bdb f i SmartCardRW.obj
 0001:00002c08       ??0?$CComContainedObject@VCOPOSSmartCardRW@@@ATL@@QAE@PAX@Z 10003c08 f i SmartCardRW.obj
 0001:00002cc1       ??0?$CComObject@V?$CComEnum@UIEnumConnectionPoints@@$1?_GUID_b196b285_bab4_101a_b69c_00aa00341d07@@3U__s_GUID@@BPAUIConnectionPoint@@V?$_CopyInterface@UIConnectionPoint@@@ATL@@VCComSingleThreadModel@6@@ATL@@@ATL@@QAE@PAX@Z 10003cc1 f i SmartCardRW.obj
 0001:00002cef       ??0?$CComObject@V?$CComEnum@UIEnumConnections@@$1?_GUID_b196b287_bab4_101a_b69c_00aa00341d07@@3U__s_GUID@@BUtagCONNECTDATA@@V?$_Copy@UtagCONNECTDATA@@@ATL@@VCComSingleThreadModel@6@@ATL@@@ATL@@QAE@PAX@Z 10003cef f i SmartCardRW.obj
 0001:00002d1d       ??0?$CComObject@VCOPOSSmartCardRW@@@ATL@@QAE@PAX@Z 10003d1d f i SmartCardRW.obj
 0001:00002dd4       ??0?$CComQIPtr@UIOleControlSite@@$1?_GUID_b196b289_bab4_101a_b69c_00aa00341d07@@3U__s_GUID@@B@ATL@@QAE@PAUIUnknown@@@Z 10003dd4 f i SmartCardRW.obj
 0001:00002dfd       ??0CAtlModule@ATL@@QAE@XZ  10003dfd f i SmartCardRW.obj
 0001:00002e3e       ??0CParseBuffer@CRegParser@ATL@@QAE@H@Z 10003e3e f i SmartCardRW.obj
 0001:00002e74       ??0_ATL_MSG@ATL@@QAE@PAUHWND__@@IIJH@Z 10003e74 f i SmartCardRW.obj
 0001:00002eac       ??1?$CComAggObject@VCOPOSSmartCardRW@@@ATL@@UAE@XZ 10003eac f i SmartCardRW.obj
 0001:00002ed0       ??1?$CComEnumImpl@UIEnumConnectionPoints@@$1?_GUID_b196b285_bab4_101a_b69c_00aa00341d07@@3U__s_GUID@@BPAUIConnectionPoint@@V?$_CopyInterface@UIConnectionPoint@@@ATL@@@ATL@@UAE@XZ 10003ed0 f i SmartCardRW.obj
 0001:00002f10       ??1?$CComEnumImpl@UIEnumConnections@@$1?_GUID_b196b287_bab4_101a_b69c_00aa00341d07@@3U__s_GUID@@BUtagCONNECTDATA@@V?$_Copy@UtagCONNECTDATA@@@ATL@@@ATL@@UAE@XZ 10003f10 f i SmartCardRW.obj
 0001:00002f50       ??1?$CComObject@V?$CComEnum@UIEnumConnectionPoints@@$1?_GUID_b196b285_bab4_101a_b69c_00aa00341d07@@3U__s_GUID@@BPAUIConnectionPoint@@V?$_CopyInterface@UIConnectionPoint@@@ATL@@VCComSingleThreadModel@6@@ATL@@@ATL@@UAE@XZ 10003f50 f i SmartCardRW.obj
 0001:00002f73       ??1?$CComObject@V?$CComEnum@UIEnumConnections@@$1?_GUID_b196b287_bab4_101a_b69c_00aa00341d07@@3U__s_GUID@@BUtagCONNECTDATA@@V?$_Copy@UtagCONNECTDATA@@@ATL@@VCComSingleThreadModel@6@@ATL@@@ATL@@UAE@XZ 10003f73 f i SmartCardRW.obj
 0001:00002f96       ??1?$CComObject@VCOPOSSmartCardRW@@@ATL@@UAE@XZ 10003f96 f i SmartCardRW.obj
 0001:00003054       ??1?$CComObjectCached@VCComClassFactory@ATL@@@ATL@@UAE@XZ 10004054 f i SmartCardRW.obj
 0001:0000306a       ??1?$CComObjectRootEx@VCComMultiThreadModel@ATL@@@ATL@@QAE@XZ 1000406a f i SmartCardRW.obj
 0001:0000307f       ??1CRegObject@ATL@@UAE@XZ  1000407f f i SmartCardRW.obj
 0001:0000309f       ??4?$CComPtr@UIAdviseSink@@@ATL@@QAEPAUIAdviseSink@@PAU2@@Z 1000409f f i SmartCardRW.obj
 0001:0000309f       ??4?$CComPtr@UIOleClientSite@@@ATL@@QAEPAUIOleClientSite@@PAU2@@Z 1000409f f i SmartCardRW.obj
 0001:0000309f       ??4?$CComPtr@UIUnknown@@@ATL@@QAEPAUIUnknown@@PAU2@@Z 1000409f f i SmartCardRW.obj
 0001:000030d3       ??4?$CComQIPtr@UIOleObject@@$1?_GUID_00000112_0000_0000_c000_000000000046@@3U__s_GUID@@B@ATL@@QAEPAUIOleObject@@PAUIUnknown@@@Z 100040d3 f i SmartCardRW.obj
 0001:000030f8       ??4?$CComQIPtr@UISpecifyPropertyPages@@$1?_GUID_b196b28b_bab4_101a_b69c_00aa00341d07@@3U__s_GUID@@B@ATL@@QAEPAUISpecifyPropertyPages@@PAUIUnknown@@@Z 100040f8 f i SmartCardRW.obj
 0001:0000311d       ??_G?$CComContainedObject@VCOPOSSmartCardRW@@@ATL@@UAEPAXI@Z 1000411d f i SmartCardRW.obj
 0001:0000311d       ??_E?$CComContainedObject@VCOPOSSmartCardRW@@@ATL@@UAEPAXI@Z 1000411d f i SmartCardRW.obj
 0001:00003142       ??_G?$CComObject@VCOPOSSmartCardRW@@@ATL@@UAEPAXI@Z 10004142 f i SmartCardRW.obj
 0001:00003142       ??_E?$CComObject@VCOPOSSmartCardRW@@@ATL@@UAEPAXI@Z 10004142 f i SmartCardRW.obj
 0001:00003167       ?Add@?$CSimpleArray@GV?$CSimpleArrayEqualHelper@G@ATL@@@ATL@@QAEHABG@Z 10004167 f i SmartCardRW.obj
 0001:000031eb       ?Add@?$CSimpleMap@PA_WPA_WVCExpansionVectorEqualHelper@ATL@@@ATL@@QAEHABQA_W0@Z 100041eb f i SmartCardRW.obj
 0001:00003240       ?Add@CComDynamicUnkArray@ATL@@QAEKPAUIUnknown@@@Z 10004240 f i SmartCardRW.obj
 0001:000032fb       ?Add@CExpansionVector@ATL@@QAEHPB_W0@Z 100042fb f i SmartCardRW.obj
 0001:000033ff       ?AddString@CParseBuffer@CRegParser@ATL@@QAEHPB_W@Z 100043ff f i SmartCardRW.obj
 0001:00003434       ?AddValue@CRegParser@ATL@@IAEJAAVCRegKey@2@PB_WPA_W@Z 10004434 f i SmartCardRW.obj
 0001:00003755       ?Allocate@?$CAtlSafeAllocBufferManager@VCCRTAllocator@ATL@@@_ATL_SAFE_ALLOCA_IMPL@ATL@@QAEPAXK@Z 10004755 f i SmartCardRW.obj
 0001:00003782       ?Allocate@?$CTempBuffer@E$0BAA@VCCRTAllocator@ATL@@@ATL@@QAEPAEI@Z 10004782 f i SmartCardRW.obj
 0001:000037b1       ?Allocate@?$CTempBuffer@_W$0BAA@VCCRTAllocator@ATL@@@ATL@@QAEPA_WI@Z 100047b1 f i SmartCardRW.obj
 0001:000037e0       ?Allocate@?$CTempBuffer@_W$0EAA@VCCRTAllocator@ATL@@@ATL@@QAEPA_WI@Z 100047e0 f i SmartCardRW.obj
 0001:0000380f       ?AllocateHeap@?$CTempBuffer@_W$0EAA@VCCRTAllocator@ATL@@@ATL@@AAEXI@Z 1000480f f i SmartCardRW.obj
 0001:0000380f       ?AllocateHeap@?$CTempBuffer@E$0BAA@VCCRTAllocator@ATL@@@ATL@@AAEXI@Z 1000480f f i SmartCardRW.obj
 0001:0000380f       ?AllocateHeap@?$CTempBuffer@_W$0BAA@VCCRTAllocator@ATL@@@ATL@@AAEXI@Z 1000480f f i SmartCardRW.obj
 0001:00003834       ?Append@CParseBuffer@CRegParser@ATL@@QAEHPB_WH@Z 10004834 f i SmartCardRW.obj
 0001:000038c2       ?AtlCallTermFunc@ATL@@YGXPAU_ATL_MODULE70@1@@Z 100048c2 f i SmartCardRW.obj
 0001:00003906       ?AtlCoTaskMemCAlloc@ATL@@YAPAXKK@Z 10004906 f i SmartCardRW.obj
 0001:00003933       ?AtlCoTaskMemRecalloc@ATL@@YAPAXPAXKK@Z 10004933 f i SmartCardRW.obj
 0001:00003963       ?AtlComModuleGetClassObject@ATL@@YGJPAU_ATL_COM_MODULE70@1@ABU_GUID@@1PAPAX@Z 10004963 f i SmartCardRW.obj
 0001:00003a56       ?AtlComModuleRegisterServer@ATL@@YGJPAU_ATL_COM_MODULE70@1@HPBU_GUID@@@Z 10004a56 f i SmartCardRW.obj
 0001:00003ade       ?AtlComModuleUnregisterServer@ATL@@YGJPAU_ATL_COM_MODULE70@1@HPBU_GUID@@@Z 10004ade f i SmartCardRW.obj
 0001:00003b66       ?AtlComQIPtrAssign2@ATL@@YAXPAPAUIUnknown@@PAU2@ABU_GUID@@@Z 10004b66 f i SmartCardRW.obj
 0001:00003b95       ?AtlCreateTargetDC@ATL@@YGPAUHDC__@@PAU2@PAUtagDVTARGETDEVICE@@@Z 10004b95 f i SmartCardRW.obj
 0001:00003bfe       ?AtlCrtErrorCheck@ATL@@YAHH@Z 10004bfe f i SmartCardRW.obj
 0001:00003c39       ?AtlHiMetricToPixel@ATL@@YGXPBUtagSIZE@@PAU2@@Z 10004c39 f i SmartCardRW.obj
 0001:00003cae       ?AtlHresultFromLastError@ATL@@YAJXZ 10004cae f i SmartCardRW.obj
 0001:00003cc5       ?AtlHresultFromWin32@ATL@@YAJK@Z 10004cc5 f i SmartCardRW.obj
 0001:00003cda       ?AtlIPersistStreamInit_Load@ATL@@YGJPAUIStream@@PBUATL_PROPMAP_ENTRY@1@PAXPAUIUnknown@@@Z 10004cda f i SmartCardRW.obj
 0001:00003eba       ?AtlIPersistStreamInit_Save@ATL@@YGJPAUIStream@@HPBUATL_PROPMAP_ENTRY@1@PAXPAUIUnknown@@@Z 10004eba f i SmartCardRW.obj
 0001:00004052       ?AtlInternalOleLoadFromStream@ATL@@YAJPAUIStream@@ABU_GUID@@PAPAXTClassesAllowedInStream@1@K@Z 10005052 f i SmartCardRW.obj
 0001:00004178       ?AtlInternalQueryInterface@ATL@@YGJPAXPBU_ATL_INTMAP_ENTRY@1@ABU_GUID@@PAPAX@Z 10005178 f i SmartCardRW.obj
 0001:0000421b       ?AtlLoadTypeLib@ATL@@YGJPAUHINSTANCE__@@PB_WPAPA_WPAPAUITypeLib@@@Z 1000521b f i SmartCardRW.obj
 0001:000043f9       ?AtlModuleAddTermFunc@ATL@@YGJPAU_ATL_MODULE70@1@P6GXK@ZK@Z 100053f9 f i SmartCardRW.obj
 0001:00004456       ?AtlRegisterClassCategoriesHelper@ATL@@YGJABU_GUID@@PBU_ATL_CATMAP_ENTRY@1@H@Z 10005456 f i SmartCardRW.obj
 0001:00004736       ?AtlRegisterTypeLib@ATL@@YGJPAUHINSTANCE__@@PB_W@Z 10005736 f i SmartCardRW.obj
 0001:000048be       ?AtlThrowImpl@ATL@@YGXJ@Z  100058be f i SmartCardRW.obj
 0001:000048dc       ?AtlUnRegisterTypeLib@ATL@@YGJPAUHINSTANCE__@@PB_W@Z 100058dc f i SmartCardRW.obj
 0001:00004987       ?AtlWinModuleAddCreateWndData@ATL@@YGXPAU_ATL_WIN_MODULE70@1@PAU_AtlCreateWndData@1@PAX@Z 10005987 f i SmartCardRW.obj
 0001:000049db       ?AtlWinModuleExtractCreateWndData@ATL@@YGPAXPAU_ATL_WIN_MODULE70@1@@Z 100059db f i SmartCardRW.obj
 0001:00004a3e       ?AtlWinModuleRegisterClassExW@ATL@@YGGPAU_ATL_WIN_MODULE70@1@PBUtagWNDCLASSEXW@@@Z 10005a3e f i SmartCardRW.obj
 0001:00004a7d       ?CanForceRemoveKey@CRegParser@ATL@@IAEHPB_W@Z 10005a7d f i SmartCardRW.obj
 0001:00004aac       ?ChToByte@CRegParser@ATL@@KAE_W@Z 10005aac f i SmartCardRW.obj
 0001:00004adf       ?Cleanup@CComTypeInfoHolder@ATL@@SGXK@Z 10005adf f i SmartCardRW.obj
 0001:00004b12       ?ClearReplacements@CExpansionVector@ATL@@QAEJXZ 10005b12 f i SmartCardRW.obj
 0001:00004b4f       ?Close@CRegKey@ATL@@QAEJXZ 10005b4f f i SmartCardRW.obj
 0001:00004b69       ?CreateInstance@?$CComCreator@V?$CComAggObject@VCOPOSSmartCardRW@@@ATL@@@ATL@@SGJPAXABU_GUID@@PAPAX@Z 10005b69 f i SmartCardRW.obj
 0001:00004bdf       ?CreateInstance@?$CComCreator@V?$CComObject@VCOPOSSmartCardRW@@@ATL@@@ATL@@SGJPAXABU_GUID@@PAPAX@Z 10005bdf f i SmartCardRW.obj
 0001:00004c60       ?CreateInstance@?$CComObject@V?$CComEnum@UIEnumConnectionPoints@@$1?_GUID_b196b285_bab4_101a_b69c_00aa00341d07@@3U__s_GUID@@BPAUIConnectionPoint@@V?$_CopyInterface@UIConnectionPoint@@@ATL@@VCComSingleThreadModel@6@@ATL@@@ATL@@SGJPAPAV12@@Z 10005c60 f i SmartCardRW.obj
 0001:00004ca7       ?CreateInstance@?$CComObject@V?$CComEnum@UIEnumConnections@@$1?_GUID_b196b287_bab4_101a_b69c_00aa00341d07@@3U__s_GUID@@BUtagCONNECTDATA@@V?$_Copy@UtagCONNECTDATA@@@ATL@@VCComSingleThreadModel@6@@ATL@@@ATL@@SGJPAPAV12@@Z 10005ca7 f i SmartCardRW.obj
 0001:00004cee       ?DefaultReflectionHandler@?$CWindowImplRoot@VCWindow@ATL@@@ATL@@SAHPAUHWND__@@IIJAAJ@Z 10005cee f i SmartCardRW.obj
 0001:00004d61       ?DeleteSubKey@CRegKey@ATL@@QAEJPB_W@Z 10005d61 f i SmartCardRW.obj
 0001:00004dda       ?DoEvent@COPOSSmartCardRW@@IAEXIIJ@Z 10005dda f i SmartCardRW.obj
 0001:00004e5a       ?DoVerbHide@?$IOleObjectImpl@VCOPOSSmartCardRW@@@ATL@@QAEJPBUtagRECT@@PAUHWND__@@@Z 10005e5a f i SmartCardRW.obj
 0001:00004e90       ?DoVerbInPlaceActivate@?$IOleObjectImpl@VCOPOSSmartCardRW@@@ATL@@QAEJPBUtagRECT@@PAUHWND__@@@Z 10005e90 f i SmartCardRW.obj
 0001:00004ec3       ?DoVerbPrimary@?$IOleObjectImpl@VCOPOSSmartCardRW@@@ATL@@QAEJPBUtagRECT@@PAUHWND__@@@Z 10005ec3 f i SmartCardRW.obj
 0001:00004f4f       ?DoVerbProperties@CComControlBase@ATL@@QAEJPBUtagRECT@@PAUHWND__@@@Z 10005f4f f i SmartCardRW.obj
 0001:00005076       ?DoVerbShow@?$IOleObjectImpl@VCOPOSSmartCardRW@@@ATL@@QAEJPBUtagRECT@@PAUHWND__@@@Z 10006076 f i SmartCardRW.obj
 0001:0000509b       ?DoVerbUIActivate@?$IOleObjectImpl@VCOPOSSmartCardRW@@@ATL@@QAEJPBUtagRECT@@PAUHWND__@@@Z 1000609b f i SmartCardRW.obj
 0001:000050d8       ?DoesVerbActivate@CComControlBase@ATL@@QAEHJ@Z 100060d8 f i SmartCardRW.obj
 0001:000050f9       ?DoesVerbUIActivate@CComControlBase@ATL@@QAEHJ@Z 100060f9 f i SmartCardRW.obj
 0001:0000512e       ?EndOfVar@CRegParser@ATL@@IAEHXZ 1000612e f i SmartCardRW.obj
 0001:0000514e       ?EscapeSingleQuote@CAtlModule@ATL@@SAXPA_WIPB_W@Z 1000614e f i SmartCardRW.obj
 0001:0000519d       ?FindKey@?$CSimpleMap@PA_WPA_WVCExpansionVectorEqualHelper@ATL@@@ATL@@QBEHABQA_W@Z 1000619d f i SmartCardRW.obj
 0001:000051d4       ?FireTheEvent@?$CProxy_IOPOSEvents@VCOPOSSmartCardRW@@@@IAEXPAVOposVariant@@IAAJPB_WJ@Z 100061d4 f i SmartCardRW.obj
 0001:00005266       ?FireViewChange@CComControlBase@ATL@@QAEJXZ 10006266 f i SmartCardRW.obj
 0001:000052af       ?Fire_DataEvent@?$CProxy_IOPOSEvents@VCOPOSSmartCardRW@@@@QAEXJ@Z 100062af f i SmartCardRW.obj
 0001:0000533b       ?Fire_DirectIOEvent@?$CProxy_IOPOSEvents@VCOPOSSmartCardRW@@@@QAEXJPAJPAPA_W@Z 1000633b f i SmartCardRW.obj
 0001:00005421       ?Fire_ErrorEvent@?$CProxy_IOPOSEvents@VCOPOSSmartCardRW@@@@QAEXJJJPAJ@Z 10006421 f i SmartCardRW.obj
 0001:00005508       ?Fire_OutputCompleteEvent@?$CProxy_IOPOSEvents@VCOPOSSmartCardRW@@@@QAEXJ@Z 10006508 f i SmartCardRW.obj
 0001:00005594       ?Fire_StatusUpdateEvent@?$CProxy_IOPOSEvents@VCOPOSSmartCardRW@@@@QAEXJ@Z 10006594 f i SmartCardRW.obj
 0001:00005620       ?FreeHeap@?$CTempBuffer@_W$0BAA@VCCRTAllocator@ATL@@@ATL@@AAEXXZ 10006620 f i SmartCardRW.obj
 0001:00005620       ?FreeHeap@?$CTempBuffer@E$0BAA@VCCRTAllocator@ATL@@@ATL@@AAEXXZ 10006620 f i SmartCardRW.obj
 0001:00005620       ?FreeHeap@?$CTempBuffer@_W$0EAA@VCCRTAllocator@ATL@@@ATL@@AAEXXZ 10006620 f i SmartCardRW.obj
 0001:00005629       ?GetAmbientLocaleID@CComControlBase@ATL@@QAEJAAK@Z 10006629 f i SmartCardRW.obj
 0001:00005685       ?GetAmbientUserMode@CComControlBase@ATL@@QAEJAAH@Z 10006685 f i SmartCardRW.obj
 0001:000056f5       ?GetAt@CComDynamicUnkArray@ATL@@QAEPAUIUnknown@@H@Z 100066f5 f i SmartCardRW.obj
 0001:00005711       ?GetClassObject@CComModule@ATL@@QAEJABU_GUID@@0PAPAX@Z 10006711 f i SmartCardRW.obj
 0001:000057b3       ?GetConnMap@COPOSSmartCardRW@@SAPBU_ATL_CONNMAP_ENTRY@ATL@@PAH@Z 100067b3 f i SmartCardRW.obj
 0001:00005823       ?GetCookie@CComDynamicUnkArray@ATL@@QAGKPAPAUIUnknown@@@Z 10006823 f i SmartCardRW.obj
 0001:0000585b       ?GetIDsOfNames@CComTypeInfoHolder@ATL@@QAEJABU_GUID@@PAPA_WIKPAJ@Z 1000685b f i SmartCardRW.obj
 0001:00005969       ?GetKeyAt@?$CSimpleMap@PA_WPA_WVCExpansionVectorEqualHelper@ATL@@@ATL@@QBEAAPA_WH@Z 10006969 f i SmartCardRW.obj
 0001:0000598e       ?GetPagesHelper@?$ISpecifyPropertyPagesImpl@VCOPOSSmartCardRW@@@ATL@@IAEJPAUtagCAUUID@@PBUATL_PROPMAP_ENTRY@2@@Z 1000698e f i SmartCardRW.obj
 0001:00005ab5       ?GetProperty@?$CComPtr@UIDispatch@@@ATL@@SAJPAUIDispatch@@JPAUtagVARIANT@@@Z 10006ab5 f i SmartCardRW.obj
 0001:00005b04       ?GetSizeMax@CComVariant@ATL@@QBEJPAT_ULARGE_INTEGER@@@Z 10006b04 f i SmartCardRW.obj
 0001:00005cbe       ?GetStreamSize@CComBSTR@ATL@@SAKPA_W@Z 10006cbe f i SmartCardRW.obj
 0001:00005cd8       ?GetTI@CComTypeInfoHolder@ATL@@QAEJK@Z 10006cd8 f i SmartCardRW.obj
 0001:00005ec1       ?GetTI@CComTypeInfoHolder@ATL@@QAEJKPAPAUITypeInfo@@@Z 10006ec1 f i SmartCardRW.obj
 0001:00005f03       ?GetUnknown@CComDynamicUnkArray@ATL@@QAGPAUIUnknown@@K@Z 10006f03 f i SmartCardRW.obj
 0001:00005f24       ?GetValueAt@?$CSimpleMap@PA_WPA_WVCExpansionVectorEqualHelper@ATL@@@ATL@@QBEAAPA_WH@Z 10006f24 f i SmartCardRW.obj
 0001:00005f4a       ?GetZoomInfo@CComControlBase@ATL@@QAEXAAUATL_DRAWINFO@@@Z 10006f4a f i SmartCardRW.obj
 0001:00005fdd       ?HKeyFromString@CRegParser@ATL@@KAPAUHKEY__@@PA_W@Z 10006fdd f i SmartCardRW.obj
 0001:0000600b       ?HasSubKeys@CRegParser@ATL@@IAEHPAUHKEY__@@@Z 1000700b f i SmartCardRW.obj
 0001:00006040       ?IDataObject_GetData@CComControlBase@ATL@@QAEJPAUtagFORMATETC@@PAUtagSTGMEDIUM@@@Z 10007040 f i SmartCardRW.obj
 0001:000061e6       ?IOleInPlaceObject_InPlaceDeactivate@CComControlBase@ATL@@QAEJXZ 100071e6 f i SmartCardRW.obj
 0001:0000626d       ?IOleInPlaceObject_SetObjectRects@CComControlBase@ATL@@QAEJPBUtagRECT@@0@Z 1000726d f i SmartCardRW.obj
 0001:0000633a       ?IOleInPlaceObject_UIDeactivate@CComControlBase@ATL@@QAEJXZ 1000733a f i SmartCardRW.obj
 0001:000063fc       ?IOleObject_Advise@CComControlBase@ATL@@QAEJPAUIAdviseSink@@PAK@Z 100073fc f i SmartCardRW.obj
 0001:00006426       ?IOleObject_Close@CComControlBase@ATL@@QAEJK@Z 10007426 f i SmartCardRW.obj
 0001:0000650a       ?IOleObject_GetClientSite@CComControlBase@ATL@@QAEJPAPAUIOleClientSite@@@Z 1000750a f i SmartCardRW.obj
 0001:00006533       ?IOleObject_SetClientSite@CComControlBase@ATL@@QAEJPAUIOleClientSite@@@Z 10007533 f i SmartCardRW.obj
 0001:00006572       ?IOleObject_SetExtent@CComControlBase@ATL@@QAEJKPAUtagSIZE@@@Z 10007572 f i SmartCardRW.obj
 0001:00006626       ?IPSI_GetIPersistStreamInit@?$IPersistStorageImpl@VCOPOSSmartCardRW@@@ATL@@AAEPAUIPersistStreamInit@@XZ 10007626 f i SmartCardRW.obj
 0001:00006668       ?IPersistStreamInit_Load@?$IPersistStreamInitImpl@VCOPOSSmartCardRW@@@ATL@@QAEJPAUIStream@@PBUATL_PROPMAP_ENTRY@2@@Z 10007668 f i SmartCardRW.obj
 0001:00006694       ?IPersistStreamInit_Save@?$IPersistStreamInitImpl@VCOPOSSmartCardRW@@@ATL@@QAEJPAUIStream@@HPBUATL_PROPMAP_ENTRY@2@@Z 10007694 f i SmartCardRW.obj
 0001:000066c9       ?IQuickActivate_QuickActivate@CComControlBase@ATL@@QAEJPAUtagQACONTAINER@@PAUtagQACONTROL@@@Z 100076c9 f i SmartCardRW.obj
 0001:0000690b       ?IViewObject_Draw@CComControlBase@ATL@@QAEJKJPAXPAUtagDVTARGETDEVICE@@PAUHDC__@@2PBU_RECTL@@3@Z 1000790b f i SmartCardRW.obj
 0001:000069b3       ?InPlaceActivate@CComControlBase@ATL@@QAEJJPBUtagRECT@@@Z 100079b3 f i SmartCardRW.obj
 0001:00006c24       ?Init@?$CComEnumImpl@UIEnumConnectionPoints@@$1?_GUID_b196b285_bab4_101a_b69c_00aa00341d07@@3U__s_GUID@@BPAUIConnectionPoint@@V?$_CopyInterface@UIConnectionPoint@@@ATL@@@ATL@@QAEJPAPAUIConnectionPoint@@0PAUIUnknown@@W4CComEnumFlags@2@@Z 10007c24 f i SmartCardRW.obj
 0001:00006d03       ?Init@?$CComEnumImpl@UIEnumConnections@@$1?_GUID_b196b287_bab4_101a_b69c_00aa00341d07@@3U__s_GUID@@BUtagCONNECTDATA@@V?$_Copy@UtagCONNECTDATA@@@ATL@@@ATL@@QAEJPAUtagCONNECTDATA@@0PAUIUnknown@@W4CComEnumFlags@2@@Z 10007d03 f i SmartCardRW.obj
 0001:00006de2       ?Init@CComModule@ATL@@QAEJPAU_ATL_OBJMAP_ENTRY30@2@PAUHINSTANCE__@@PBU_GUID@@@Z 10007de2 f i SmartCardRW.obj
 0001:00006e41       ?Init@CDynamicStdCallThunk2@ATL@@QAEHKPAX@Z 10007e41 f i SmartCardRW.obj
 0001:00006e6c       ?InlineIsEqualUnknown@ATL@@YGHABU_GUID@@@Z 10007e6c f i SmartCardRW.obj
 0001:00006e94       ?InternalGetSite@CComControlBase@ATL@@QAEJABU_GUID@@PAPAX@Z 10007e94 f i SmartCardRW.obj
 0001:00006ec2       ?InternalSetAtIndex@?$CSimpleMap@PA_WPA_WVCExpansionVectorEqualHelper@ATL@@@ATL@@QAEXHABQA_W0@Z 10007ec2 f i SmartCardRW.obj
 0001:00006eec       ?Invoke@CComTypeInfoHolder@ATL@@QAEJPAUIDispatch@@JABU_GUID@@KGPAUtagDISPPARAMS@@PAUtagVARIANT@@PAUtagEXCEPINFO@@PAI@Z 10007eec f i SmartCardRW.obj
 0001:00006f2f       ?IsEqualObject@?$CComPtrBase@UITypeInfo@@@ATL@@QAE_NPAUIUnknown@@@Z 10007f2f f i SmartCardRW.obj
 0001:00006f2f       ?IsEqualObject@?$CComPtrBase@UIOleClientSite@@@ATL@@QAE_NPAUIUnknown@@@Z 10007f2f f i SmartCardRW.obj
 0001:00006f9c       ?IsSpace@CRegParser@ATL@@IAEH_W@Z 10007f9c f i SmartCardRW.obj
 0001:00006fc6       ?LoadNameCache@CComTypeInfoHolder@ATL@@QAEJPAUITypeInfo@@@Z 10007fc6 f i SmartCardRW.obj
 0001:00007114       ?Lookup@?$CSimpleMap@PA_WPA_WVCExpansionVectorEqualHelper@ATL@@@ATL@@QBEPA_WABQA_W@Z 10008114 f i SmartCardRW.obj
 0001:0000713a       ?NextToken@CRegParser@ATL@@IAEJPA_W@Z 1000813a f i SmartCardRW.obj
 0001:00007272       ?OnKillFocus@CComControlBase@ATL@@QAEJIIJAAH@Z 10008272 f i SmartCardRW.obj
 0001:000072cd       ?OnMouseActivate@CComControlBase@ATL@@QAEJIIJAAH@Z 100082cd f i SmartCardRW.obj
 0001:0000733b       ?OnPaint@CComControlBase@ATL@@QAEJIIJAAH@Z 1000833b f i SmartCardRW.obj
 0001:000073ed       ?OnSetFocus@CComControlBase@ATL@@QAEJIIJAAH@Z 100083ed f i SmartCardRW.obj
 0001:00007476       ?Open@CRegKey@ATL@@QAEJPAUHKEY__@@PB_WK@Z 10008476 f i SmartCardRW.obj
 0001:000074cb       ?PreProcessBuffer@CRegParser@ATL@@QAEJPA_WPAPA_W@Z 100084cb f i SmartCardRW.obj
 0001:00007735       ?ProcessWindowMessage@?$CComControl@VCOPOSSmartCardRW@@V?$CWindowImpl@VCOPOSSmartCardRW@@VCWindow@ATL@@V?$CWinTraits@$0FGAAAAAA@$0A@@3@@ATL@@@ATL@@UAEHPAUHWND__@@IIJAAJK@Z 10008735 f i SmartCardRW.obj
 0001:000077d4       ?PutProperty@?$CComPtr@UIDispatch@@@ATL@@SAJPAUIDispatch@@JPAUtagVARIANT@@@Z 100087d4 f i SmartCardRW.obj
 0001:00007866       ?ReadFromStream@CComBSTR@ATL@@QAEJPAUIStream@@@Z 10008866 f i SmartCardRW.obj
 0001:00007994       ?ReadFromStream@CComVariant@ATL@@QAEJPAUIStream@@GTClassesAllowedInStream@2@K@Z 10008994 f i SmartCardRW.obj
 0001:00007b1a       ?RecurseDeleteKey@CRegKey@ATL@@QAEJPB_W@Z 10008b1a f i SmartCardRW.obj
 0001:00007bdc       ?RegCreateKeyExW@CAtlTransactionManager@ATL@@QAEJPAUHKEY__@@PB_WKPA_WKKQAU_SECURITY_ATTRIBUTES@@PAPAU3@PAK@Z 10008bdc f i SmartCardRW.obj
 0001:00007c3f       ?RegDeleteKeyW@CAtlTransactionManager@ATL@@QAEJPAUHKEY__@@PB_W@Z 10008c3f f i SmartCardRW.obj
 0001:00007c91       ?RegOpenKeyExW@CAtlTransactionManager@ATL@@QAEJPAUHKEY__@@PB_WKKPAPAU3@@Z 10008c91 f i SmartCardRW.obj
 0001:00007ce8       ?Register@_ATL_WNDCLASSINFOW@ATL@@QAEGPAP6GJPAUHWND__@@IIJ@Z@Z 10008ce8 f i SmartCardRW.obj
 0001:00007d08       ?RegisterBuffer@CRegParser@ATL@@QAEJPA_WH@Z 10008d08 f i SmartCardRW.obj
 0001:00007e41       ?RegisterFromResource@CRegObject@ATL@@IAEJPB_W00H@Z 10008e41 f i SmartCardRW.obj
 0001:00007f77       ?RegisterServer@?$CAtlModuleT@VCComModule@ATL@@@ATL@@QAEJHPBU_GUID@@@Z 10008f77 f i SmartCardRW.obj
 0001:00007fa5       ?RegisterServer@CComModule@ATL@@QAEJHPBU_GUID@@@Z 10008fa5 f i SmartCardRW.obj
 0001:0000801b       ?RegisterSubkeys@CRegParser@ATL@@IAEJPA_WPAUHKEY__@@HH@Z 1000901b f i SmartCardRW.obj
 0001:000085ea       ?Remove@CComDynamicUnkArray@ATL@@QAEHK@Z 100095ea f i SmartCardRW.obj
 0001:00008613       ?RemoveAll@?$CSimpleMap@PA_WPA_WVCExpansionVectorEqualHelper@ATL@@@ATL@@QAEXXZ 10009613 f i SmartCardRW.obj
 0001:0000863f       ?ResourceRegisterSz@CRegObject@ATL@@QAGJPB_W00@Z 1000963f f i SmartCardRW.obj
 0001:0000866c       ?ResourceUnregisterSz@CRegObject@ATL@@QAGJPB_W00@Z 1000966c f i SmartCardRW.obj
 0001:00008699       ?SendOnDataChange@CComControlBase@ATL@@QAEJK@Z 10009699 f i SmartCardRW.obj
 0001:000086e6       ?SetControlFocus@CComControlBase@ATL@@QAEHH@Z 100096e6 f i SmartCardRW.obj
 0001:00008783       ?SetMultiStringValue@CRegKey@ATL@@QAEJPB_W0@Z 10009783 f i SmartCardRW.obj
 0001:000087df       ?SetStringValue@CRegKey@ATL@@QAEJPB_W0K@Z 100097df f i SmartCardRW.obj
 0001:00008828       ?SkipAssignment@CRegParser@ATL@@IAEJPA_W@Z 10009828 f i SmartCardRW.obj
 0001:0000888d       ?SkipWhiteSpace@CRegParser@ATL@@IAEXXZ 1000988d f i SmartCardRW.obj
 0001:000088af       ?StrChrW@CRegParser@ATL@@KAPA_WPA_W_W@Z 100098af f i SmartCardRW.obj
 0001:000088ec       ?Term@CAtlModule@ATL@@QAEXXZ 100098ec f i SmartCardRW.obj
 0001:00008925       ?Term@CComModule@ATL@@QAEXXZ 10009925 f i SmartCardRW.obj
 0001:0000897d       ?UnregisterServer@?$CAtlModuleT@VCComModule@ATL@@@ATL@@QAEJHPBU_GUID@@@Z 1000997d f i SmartCardRW.obj
 0001:000089a3       ?UnregisterServer@CComModule@ATL@@QAEJHPBU_GUID@@@Z 100099a3 f i SmartCardRW.obj
 0001:00008a19       ?UpdateRegistryFromResource@CAtlModule@ATL@@QAGJIHPAU_ATL_REGMAP_ENTRY@2@@Z 10009a19 f i SmartCardRW.obj
 0001:00008be4       ?UpdateRegistryFromResource@CAtlModule@ATL@@QAGJPB_WHPAU_ATL_REGMAP_ENTRY@2@@Z 10009be4 f i SmartCardRW.obj
 0001:00008db5       ?VTFromRegType@CRegParser@ATL@@KAHPB_WAAG@Z 10009db5 f i SmartCardRW.obj
 0001:00008e22       ?WindowProc@?$CWindowImplBaseT@VCWindow@ATL@@V?$CWinTraits@$0FGAAAAAA@$0A@@2@@ATL@@SGJPAUHWND__@@IIJ@Z 10009e22 f i SmartCardRW.obj
 0001:00008f14       ?WriteToStream@CComBSTR@ATL@@QAEJPAUIStream@@@Z 10009f14 f i SmartCardRW.obj
 0001:00008f6b       ?WriteToStream@CComVariant@ATL@@QAEJPAUIStream@@@Z 10009f6b f i SmartCardRW.obj
 0001:000090e5       ?WriteToStream@CComVariant@ATL@@QAEJPAUIStream@@G@Z 1000a0e5 f i SmartCardRW.obj
 0001:0000914e       ?_AtlInitialConstruct@?$CComObjectRootEx@VCComMultiThreadModel@ATL@@@ATL@@QAEJXZ 1000a14e f i SmartCardRW.obj
 0001:00009163       ?_AtlVerifyStackAvailable@_ATL_SAFE_ALLOCA_IMPL@ATL@@YA_NK@Z 1000a163 f i SmartCardRW.obj
 0001:000091e1       ?atlCreate@?$CWindowImpl@VCOPOSSmartCardRW@@VCWindow@ATL@@V?$CWinTraits@$0FGAAAAAA@$0A@@3@@ATL@@QAEPAUHWND__@@PAU3@V_U_RECT@2@PB_WKKV_U_MENUorID@2@PAX@Z 1000a1e1 f i SmartCardRW.obj
 0001:00009225       ?atlCreate@?$CWindowImplBaseT@VCWindow@ATL@@V?$CWinTraits@$0FGAAAAAA@$0A@@2@@ATL@@QAEPAUHWND__@@PAU3@V_U_RECT@2@PB_WKKV_U_MENUorID@2@GPAX@Z 1000a225 f i SmartCardRW.obj
 0001:000092c1       ?atlCreate@CRegKey@ATL@@QAEJPAUHKEY__@@PB_WPA_WKKPAU_SECURITY_ATTRIBUTES@@PAK@Z 1000a2c1 f i SmartCardRW.obj
 0001:00009330       ?copy@?$_Copy@UtagCONNECTDATA@@@ATL@@SAJPAUtagCONNECTDATA@@PBU3@@Z 1000a330 f i SmartCardRW.obj
 0001:00009366       ?copy@?$_CopyInterface@UIConnectionPoint@@@ATL@@SAJPAPAUIConnectionPoint@@PBQAU3@@Z 1000a366 f i SmartCardRW.obj
 0001:00009394       ?memcpy_s@Checked@ATL@@YAXPAXIPBXI@Z 1000a394 f i SmartCardRW.obj
 0001:000093b3       ?ocscpy_s@@YA_NPA_WIPB_W@Z 1000a3b3 f i SmartCardRW.obj
 0001:000093e2       ?ocslen@@YAHPB_W@Z         1000a3e2 f i SmartCardRW.obj
 0001:00009402       ?wcscpy_s@Checked@ATL@@YAXPA_WIPB_W@Z 1000a402 f i SmartCardRW.obj
 0001:0000941e       _DllCanUnloadNow@0         1000a41e f   SmartCardRW.obj
 0001:0000942a       _DllGetClassObject@12      1000a42a f   SmartCardRW.obj
 0001:00009438       _DllMain@12                1000a438 f   SmartCardRW.obj
 0001:0000947a       _DllRegisterServer@0       1000a47a f   SmartCardRW.obj
 0001:00009489       _DllUnregisterServer@0     1000a489 f   SmartCardRW.obj
 0001:00009498       _InlineIsEqualGUID         1000a498 f i SmartCardRW.obj
 0001:000094c8       ___local_stdio_printf_options 1000a4c8 f i SmartCardRW.obj
 0001:000094ce       __vswprintf_s_l            1000a4ce f i SmartCardRW.obj
 0001:0000957b       _swprintf_s                1000a57b f i SmartCardRW.obj
 0001:00009597       ??0?$CComControl@VCOPOSSmartCardRW@@V?$CWindowImpl@VCOPOSSmartCardRW@@VCWindow@ATL@@V?$CWinTraits@$0FGAAAAAA@$0A@@3@@ATL@@@ATL@@QAE@XZ 1000a597 f i SmartCardRWImpl.obj
 0001:000095be       ??0?$CProxy_IOPOSEvents@VCOPOSSmartCardRW@@@@QAE@XZ 1000a5be f i SmartCardRWImpl.obj
 0001:000095e1       ??0CComControlBase@ATL@@QAE@AAPAUHWND__@@@Z 1000a5e1 f i SmartCardRWImpl.obj
 0001:0000962b       ??0COPOSSmartCardRW@@QAE@XZ 1000a62b f   SmartCardRWImpl.obj
 0001:00009661       ??1?$CComControl@VCOPOSSmartCardRW@@V?$CWindowImpl@VCOPOSSmartCardRW@@VCWindow@ATL@@V?$CWinTraits@$0FGAAAAAA@$0A@@3@@ATL@@@ATL@@UAE@XZ 1000a661 f i SmartCardRWImpl.obj
 0001:0000967a       ??1?$IConnectionPointImpl@VCOPOSSmartCardRW@@$1?IID_IPropertyNotifySink@@3U_GUID@@BVCComDynamicUnkArray@ATL@@@ATL@@QAE@XZ 1000a67a f i SmartCardRWImpl.obj
 0001:0000967a       ??1?$IConnectionPointImpl@VCOPOSSmartCardRW@@$1?DIID__IOPOSSmartCardRWEvents@@3U_GUID@@BVCComDynamicUnkArray@ATL@@@ATL@@QAE@XZ 1000a67a f i SmartCardRWImpl.obj
 0001:000096b7       ??1CComControlBase@ATL@@UAE@XZ 1000a6b7 f i SmartCardRWImpl.obj
 0001:0000971a       ??1COPOSSmartCardRW@@UAE@XZ 1000a71a f   SmartCardRWImpl.obj
 0001:00009762       ??1OposVariantResult@@QAE@XZ 1000a762 f i SmartCardRWImpl.obj
 0001:00009783       ??1_CW@@QAE@XZ             1000a783 f i SmartCardRWImpl.obj
 0001:0000979c       ?BeginInsertion@COPOSSmartCardRW@@UAGJJPAJ@Z 1000a79c f   SmartCardRWImpl.obj
 0001:000097eb       ?BeginRemoval@COPOSSmartCardRW@@UAGJJPAJ@Z 1000a7eb f   SmartCardRWImpl.obj
 0001:0000983a       ?CheckHealth@COPOSSmartCardRW@@UAGJJPAJ@Z 1000a83a f   SmartCardRWImpl.obj
 0001:00009889       ?ClaimDevice@COPOSSmartCardRW@@UAGJJPAJ@Z 1000a889 f   SmartCardRWImpl.obj
 0001:000098fe       ?ClearInput@COPOSSmartCardRW@@UAGJPAJ@Z 1000a8fe f   SmartCardRWImpl.obj
 0001:00009919       ?ClearInputProperties@COPOSSmartCardRW@@UAGJPAJ@Z 1000a919 f   SmartCardRWImpl.obj
 0001:00009934       ?ClearOutput@COPOSSmartCardRW@@UAGJPAJ@Z 1000a934 f   SmartCardRWImpl.obj
 0001:0000994f       ?Close@COPOSSmartCardRW@@UAGJPAJ@Z 1000a94f f   SmartCardRWImpl.obj
 0001:000099bd       ?CompareFirmwareVersion@COPOSSmartCardRW@@UAGJPA_WPAJ1@Z 1000a9bd f   SmartCardRWImpl.obj
 0001:00009a3d       ?DirectIO@COPOSSmartCardRW@@UAGJJPAJPAPA_W0@Z 1000aa3d f   SmartCardRWImpl.obj
 0001:00009aeb       ?DoInvoke@COPOSSmartCardRW@@IAEJJPAVOposVariant@@IHPAJ_N@Z 1000aaeb f   SmartCardRWImpl.obj
 0001:00009bad       ?EndInsertion@COPOSSmartCardRW@@UAGJPAJ@Z 1000abad f   SmartCardRWImpl.obj
 0001:00009bc8       ?EndRemoval@COPOSSmartCardRW@@UAGJPAJ@Z 1000abc8 f   SmartCardRWImpl.obj
 0001:00009be3       ?EventClose@COPOSSmartCardRW@@IAEXXZ 1000abe3 f i SmartCardRWImpl.obj
 0001:00009c16       ?EventInit@COPOSSmartCardRW@@IAEJXZ 1000ac16 f i SmartCardRWImpl.obj
 0001:00009ce2       ?EventUninit@COPOSSmartCardRW@@IAEXXZ 1000ace2 f i SmartCardRWImpl.obj
 0001:00009d34       ?EventWindowProc@COPOSSmartCardRW@@IAGJIIJ@Z 1000ad34 f i SmartCardRWImpl.obj
 0001:00009e32       ?FinalConstruct@COPOSSmartCardRW@@QAEJXZ 1000ae32 f   SmartCardRWImpl.obj
 0001:00009e6b       ?FireEventCleanup@COPOSSmartCardRW@@IAEXXZ 1000ae6b f i SmartCardRWImpl.obj
 0001:00009e81       ?FireEventSetup@COPOSSmartCardRW@@IAE_NXZ 1000ae81 f i SmartCardRWImpl.obj
 0001:00009eb5       ?FreezeEvents@COPOSSmartCardRW@@MAGJH@Z 1000aeb5 f   SmartCardRWImpl.obj
 0001:00009f15       ?GetOposProp@COPOSSmartCardRW@@IAEJJPAFJ@Z 1000af15 f   SmartCardRWImpl.obj
 0001:00009f38       ?GetOposProp@COPOSSmartCardRW@@IAEJJPAJJ@Z 1000af38 f   SmartCardRWImpl.obj
 0001:00009ff6       ?GetOposProp@COPOSSmartCardRW@@IAEJJPAPA_WJ@Z 1000aff6 f   SmartCardRWImpl.obj
 0001:0000a0c1       ?OnDraw@COPOSSmartCardRW@@MAEJAAUATL_DRAWINFO@@@Z 1000b0c1 f   SmartCardRWImpl.obj
 0001:0000a161       ?Open@COPOSSmartCardRW@@UAGJPA_WPAJ@Z 1000b161 f   SmartCardRWImpl.obj
 0001:0000a8ff       ?ReadData@COPOSSmartCardRW@@UAGJJPAJPAPA_W0@Z 1000b8ff f   SmartCardRWImpl.obj
 0001:0000a9ad       ?ReleaseDevice@COPOSSmartCardRW@@UAGJPAJ@Z 1000b9ad f   SmartCardRWImpl.obj
 0001:0000a9fc       ?ResetStatistics@COPOSSmartCardRW@@UAGJPA_WPAJ@Z 1000b9fc f   SmartCardRWImpl.obj
 0001:0000aa53       ?RetrieveStatistics@COPOSSmartCardRW@@UAGJPAPA_WPAJ@Z 1000ba53 f   SmartCardRWImpl.obj
 0001:0000aaaa       ?SOProcessID@COPOSSmartCardRW@@UAGJPAJ@Z 1000baaa f   SmartCardRWImpl.obj
 0001:0000aabe       ?SetCOFreezeEvents@COPOSSmartCardRW@@IAEXF@Z 1000babe f   SmartCardRWImpl.obj
 0001:0000ab49       ?SetOposProp@COPOSSmartCardRW@@IAEJJJJ@Z 1000bb49 f   SmartCardRWImpl.obj
 0001:0000ac27       ?UpdateFirmware@COPOSSmartCardRW@@UAGJPA_WPAJ@Z 1000bc27 f   SmartCardRWImpl.obj
 0001:0000ac7e       ?UpdateStatistics@COPOSSmartCardRW@@UAGJPA_WPAJ@Z 1000bc7e f   SmartCardRWImpl.obj
 0001:0000acd5       ?WriteData@COPOSSmartCardRW@@UAGJJJPA_WPAJ@Z 1000bcd5 f   SmartCardRWImpl.obj
 0001:0000ad79       ?get_BinaryConversion@COPOSSmartCardRW@@UAGJPAJ@Z 1000bd79 f   SmartCardRWImpl.obj
 0001:0000ad8f       ?get_CapCardErrorDetection@COPOSSmartCardRW@@UAGJPAF@Z 1000bd8f f   SmartCardRWImpl.obj
 0001:0000ada8       ?get_CapCompareFirmwareVersion@COPOSSmartCardRW@@UAGJPAF@Z 1000bda8 f   SmartCardRWImpl.obj
 0001:0000adc1       ?get_CapInterfaceMode@COPOSSmartCardRW@@UAGJPAJ@Z 1000bdc1 f   SmartCardRWImpl.obj
 0001:0000adda       ?get_CapIsoEmvMode@COPOSSmartCardRW@@UAGJPAJ@Z 1000bdda f   SmartCardRWImpl.obj
 0001:0000adf3       ?get_CapPowerReporting@COPOSSmartCardRW@@UAGJPAJ@Z 1000bdf3 f   SmartCardRWImpl.obj
 0001:0000ae0c       ?get_CapSCPresentSensor@COPOSSmartCardRW@@UAGJPAJ@Z 1000be0c f   SmartCardRWImpl.obj
 0001:0000ae25       ?get_CapSCSlots@COPOSSmartCardRW@@UAGJPAJ@Z 1000be25 f   SmartCardRWImpl.obj
 0001:0000ae3e       ?get_CapStatisticsReporting@COPOSSmartCardRW@@UAGJPAF@Z 1000be3e f   SmartCardRWImpl.obj
 0001:0000ae57       ?get_CapTransmissionProtocol@COPOSSmartCardRW@@UAGJPAJ@Z 1000be57 f   SmartCardRWImpl.obj
 0001:0000ae70       ?get_CapUpdateFirmware@COPOSSmartCardRW@@UAGJPAF@Z 1000be70 f   SmartCardRWImpl.obj
 0001:0000ae89       ?get_CapUpdateStatistics@COPOSSmartCardRW@@UAGJPAF@Z 1000be89 f   SmartCardRWImpl.obj
 0001:0000aea2       ?get_CheckHealthText@COPOSSmartCardRW@@UAGJPAPA_W@Z 1000bea2 f   SmartCardRWImpl.obj
 0001:0000aebb       ?get_Claimed@COPOSSmartCardRW@@UAGJPAF@Z 1000bebb f   SmartCardRWImpl.obj
 0001:0000aed1       ?get_ControlObjectDescription@COPOSSmartCardRW@@UAGJPAPA_W@Z 1000bed1 f   SmartCardRWImpl.obj
 0001:0000af0e       ?get_ControlObjectVersion@COPOSSmartCardRW@@UAGJPAJ@Z 1000bf0e f   SmartCardRWImpl.obj
 0001:0000af21       ?get_DataCount@COPOSSmartCardRW@@UAGJPAJ@Z 1000bf21 f   SmartCardRWImpl.obj
 0001:0000af37       ?get_DataEventEnabled@COPOSSmartCardRW@@UAGJPAF@Z 1000bf37 f   SmartCardRWImpl.obj
 0001:0000af4d       ?get_DeviceDescription@COPOSSmartCardRW@@UAGJPAPA_W@Z 1000bf4d f   SmartCardRWImpl.obj
 0001:0000af66       ?get_DeviceEnabled@COPOSSmartCardRW@@UAGJPAF@Z 1000bf66 f   SmartCardRWImpl.obj
 0001:0000af7c       ?get_DeviceName@COPOSSmartCardRW@@UAGJPAPA_W@Z 1000bf7c f   SmartCardRWImpl.obj
 0001:0000af95       ?get_FreezeEvents@COPOSSmartCardRW@@UAGJPAF@Z 1000bf95 f   SmartCardRWImpl.obj
 0001:0000afab       ?get_InterfaceMode@COPOSSmartCardRW@@UAGJPAJ@Z 1000bfab f   SmartCardRWImpl.obj
 0001:0000afc4       ?get_IsoEmvMode@COPOSSmartCardRW@@UAGJPAJ@Z 1000bfc4 f   SmartCardRWImpl.obj
 0001:0000afdd       ?get_OpenResult@COPOSSmartCardRW@@UAGJPAJ@Z 1000bfdd f   SmartCardRWImpl.obj
 0001:0000aff4       ?get_OutputID@COPOSSmartCardRW@@UAGJPAJ@Z 1000bff4 f   SmartCardRWImpl.obj
 0001:0000b00a       ?get_PowerNotify@COPOSSmartCardRW@@UAGJPAJ@Z 1000c00a f   SmartCardRWImpl.obj
 0001:0000b020       ?get_PowerState@COPOSSmartCardRW@@UAGJPAJ@Z 1000c020 f   SmartCardRWImpl.obj
 0001:0000b036       ?get_ResultCode@COPOSSmartCardRW@@UAGJPAJ@Z 1000c036 f   SmartCardRWImpl.obj
 0001:0000b074       ?get_ResultCodeExtended@COPOSSmartCardRW@@UAGJPAJ@Z 1000c074 f   SmartCardRWImpl.obj
 0001:0000b08a       ?get_SCPresentSensor@COPOSSmartCardRW@@UAGJPAJ@Z 1000c08a f   SmartCardRWImpl.obj
 0001:0000b0a3       ?get_SCSlot@COPOSSmartCardRW@@UAGJPAJ@Z 1000c0a3 f   SmartCardRWImpl.obj
 0001:0000b0bc       ?get_ServiceObjectDescription@COPOSSmartCardRW@@UAGJPAPA_W@Z 1000c0bc f   SmartCardRWImpl.obj
 0001:0000b0d5       ?get_ServiceObjectVersion@COPOSSmartCardRW@@UAGJPAJ@Z 1000c0d5 f   SmartCardRWImpl.obj
 0001:0000b0eb       ?get_State@COPOSSmartCardRW@@UAGJPAJ@Z 1000c0eb f   SmartCardRWImpl.obj
 0001:0000b117       ?get_TransactionInProgress@COPOSSmartCardRW@@UAGJPAF@Z 1000c117 f   SmartCardRWImpl.obj
 0001:0000b130       ?get_TransmissionProtocol@COPOSSmartCardRW@@UAGJPAJ@Z 1000c130 f   SmartCardRWImpl.obj
 0001:0000b149       ?put_BinaryConversion@COPOSSmartCardRW@@UAGJJ@Z 1000c149 f   SmartCardRWImpl.obj
 0001:0000b15f       ?put_DataEventEnabled@COPOSSmartCardRW@@UAGJF@Z 1000c15f f   SmartCardRWImpl.obj
 0001:0000b17c       ?put_DeviceEnabled@COPOSSmartCardRW@@UAGJF@Z 1000c17c f   SmartCardRWImpl.obj
 0001:0000b199       ?put_FreezeEvents@COPOSSmartCardRW@@UAGJF@Z 1000c199 f   SmartCardRWImpl.obj
 0001:0000b1e5       ?put_InterfaceMode@COPOSSmartCardRW@@UAGJJ@Z 1000c1e5 f   SmartCardRWImpl.obj
 0001:0000b1fe       ?put_IsoEmvMode@COPOSSmartCardRW@@UAGJJ@Z 1000c1fe f   SmartCardRWImpl.obj
 0001:0000b217       ?put_PowerNotify@COPOSSmartCardRW@@UAGJJ@Z 1000c217 f   SmartCardRWImpl.obj
 0001:0000b22d       ?put_SCSlot@COPOSSmartCardRW@@UAGJJ@Z 1000c22d f   SmartCardRWImpl.obj
 0001:0000b246       ?s_EventWindowProc@COPOSSmartCardRW@@KGJPAUHWND__@@IIJ@Z 1000c246 f i SmartCardRWImpl.obj
 0001:0000b298       ??_U@YAPAXI@Z              1000c298 f   LIBCMT:new_array.obj
 0001:0000b2a1       ??3@YAXPAXI@Z              1000c2a1 f   LIBCMT:delete_scalar_size.obj
 0001:0000b2af       ??_V@YAXPAX@Z              1000c2af f   LIBCMT:delete_array.obj
 0001:0000b2b4       ??_V@YAXPAXI@Z             1000c2b4 f   LIBCMT:delete_array_size.obj
 0001:0000b2c2       ??$__crt_fast_encode_pointer@PAP6AXXZ@@YAPAP6AXXZQAP6AXXZ@Z 1000c2c2 f i LIBCMT:utility.obj
 0001:0000b2c2       ??$__crt_fast_encode_pointer@P6GHPAU_RTL_CONDITION_VARIABLE@@PAU_RTL_CRITICAL_SECTION@@K@Z@@YAP6GHPAU_RTL_CONDITION_VARIABLE@@PAU_RTL_CRITICAL_SECTION@@K@ZQ6GH01K@Z@Z 1000c2c2 f i LIBCMT:thread_safe_statics.obj
 0001:0000b2c2       ??$__crt_fast_encode_pointer@P6GXPAU_RTL_CONDITION_VARIABLE@@@Z@@YAP6GXPAU_RTL_CONDITION_VARIABLE@@@ZQ6GX0@Z@Z 1000c2c2 f i LIBCMT:thread_safe_statics.obj
 0001:0000b2c2       ??$__crt_fast_encode_pointer@PAX@@YAPAXQAX@Z 1000c2c2 f i libvcruntime:winapi_downlevel.obj
 0001:0000b323       ___scrt_acquire_startup_lock 1000c323 f   LIBCMT:utility.obj
 0001:0000b355       ___scrt_dllmain_after_initialize_c 1000c355 f   LIBCMT:utility.obj
 0001:0000b380       ___scrt_dllmain_before_initialize_c 1000c380 f   LIBCMT:utility.obj
 0001:0000b38e       ___scrt_dllmain_crt_thread_attach 1000c38e f   LIBCMT:utility.obj
 0001:0000b3ad       ___scrt_dllmain_crt_thread_detach 1000c3ad f   LIBCMT:utility.obj
 0001:0000b3ba       ___scrt_dllmain_exception_filter 1000c3ba f   LIBCMT:utility.obj
 0001:0000b3ee       ___scrt_dllmain_uninitialize_c 1000c3ee f   LIBCMT:utility.obj
 0001:0000b411       ___scrt_dllmain_uninitialize_critical 1000c411 f   LIBCMT:utility.obj
 0001:0000b41e       ___scrt_initialize_crt     1000c41e f   LIBCMT:utility.obj
 0001:0000b457       ___scrt_initialize_onexit_tables 1000c457 f   LIBCMT:utility.obj
 0001:0000b4fc       ___scrt_is_nonwritable_in_current_image 1000c4fc f   LIBCMT:utility.obj
 0001:0000b590       ___scrt_release_startup_lock 1000c590 f   LIBCMT:utility.obj
 0001:0000b5ad       ___scrt_uninitialize_crt   1000c5ad f   LIBCMT:utility.obj
 0001:0000b5d5       __onexit                   1000c5d5 f   LIBCMT:utility.obj
 0001:0000b610       _atexit                    1000c610 f   LIBCMT:utility.obj
 0001:0000b625       ??3@YAXPAX@Z               1000c625 f   LIBCMT:delete_scalar.obj
 0001:0000b75c       __Init_thread_footer       1000c75c f   LIBCMT:thread_safe_statics.obj
 0001:0000b7a6       __Init_thread_header       1000c7a6 f   LIBCMT:thread_safe_statics.obj
 0001:0000b7f8       __Init_thread_notify       1000c7f8 f   LIBCMT:thread_safe_statics.obj
 0001:0000b83a       __Init_thread_wait         1000c83a f   LIBCMT:thread_safe_statics.obj
 0001:0000b89a       ___raise_securityfailure   1000c89a f   LIBCMT:gs_report.obj
 0001:0000b8c2       ___report_gsfailure        1000c8c2 f   LIBCMT:gs_report.obj
 0001:0000b9bb       ___report_rangecheckfailure 1000c9bb f   LIBCMT:gs_report.obj
 0001:0000b9c7       ___report_securityfailure  1000c9c7 f   LIBCMT:gs_report.obj
 0001:0000ba95       ??2@YAPAXIABUnothrow_t@std@@@Z 1000ca95 f   LIBCMT:new_scalar_nothrow.obj
 0001:0000bae5       ??_U@YAPAXIABUnothrow_t@std@@@Z 1000cae5 f   LIBCMT:new_array_nothrow.obj
 0001:0000baee       @__security_check_cookie@4 1000caee f   LIBCMT:secchk.obj
 0001:0000bb00       __SEH_prolog4_GS           1000cb00 f   LIBCMT:sehprolg4gs.obj
 0001:0000bb49       __SEH_epilog4_GS           1000cb49 f   LIBCMT:sehprolg4gs.obj
 0001:0000bb60       __alloca_probe_16          1000cb60 f   LIBCMT:alloca16.obj
 0001:0000bb76       __alloca_probe_8           1000cb76     LIBCMT:alloca16.obj
 0001:0000bb90       __chkstk                   1000cb90 f   LIBCMT:chkstk.obj
 0001:0000bb90       __alloca_probe             1000cb90 f   LIBCMT:chkstk.obj
 0001:0000bedd       __DllMainCRTStartup@12     1000cedd f   LIBCMT:dll_dllmain.obj
 0001:0000bf00       ??2@YAPAXI@Z               1000cf00 f   LIBCMT:new_scalar.obj
 0001:0000bf30       ___isa_available_init      1000cf30 f   LIBCMT:cpu_disp.obj
 0001:0000c0c7       ___scrt_is_ucrt_dll_in_use 1000d0c7 f   LIBCMT:ucrt_detection.obj
 0001:0000c0d3       ___scrt_fastfail           1000d0d3 f   LIBCMT:utility_desktop.obj
 0001:0000c1ed       __crt_debugger_hook        1000d1ed f   LIBCMT:utility_desktop.obj
 0001:0000c200       __SEH_prolog4              1000d200 f   LIBCMT:sehprolg4.obj
 0001:0000c246       __SEH_epilog4              1000d246 f   LIBCMT:sehprolg4.obj
 0001:0000c25b       @_guard_check_icall_nop@4  1000d25b f i LIBCMT:guard_support.obj
 0001:0000c2a9       ___security_init_cookie    1000d2a9 f   LIBCMT:gs_support.obj
 0001:0000c2f4       ?__scrt_initialize_type_info@@YAXXZ 1000d2f4 f   LIBCMT:tncleanup.obj
 0001:0000c300       ?__scrt_uninitialize_type_info@@YAXXZ 1000d300 f   LIBCMT:tncleanup.obj
 0001:0000c30c       ___local_stdio_scanf_options 1000d30c f i LIBCMT:default_local_stdio_options.obj
 0001:0000c312       ___scrt_initialize_default_local_stdio_options 1000d312 f   LIBCMT:default_local_stdio_options.obj
 0001:0000c32f       ___scrt_get_dyn_tls_init_callback 1000d32f f   LIBCMT:dyn_tls_init.obj
 0001:0000c335       __RTC_Initialize           1000d335 f   LIBCMT:initsect.obj
 0001:0000c361       __RTC_Terminate            1000d361 f   LIBCMT:initsect.obj
 0001:0000c38d       ??0bad_alloc@std@@QAE@ABV01@@Z 1000d38d f i LIBCMT:throw_bad_alloc.obj
 0001:0000c3a8       ??0bad_alloc@std@@QAE@XZ   1000d3a8 f i LIBCMT:throw_bad_alloc.obj
 0001:0000c3c0       ??0bad_array_new_length@std@@QAE@ABV01@@Z 1000d3c0 f i LIBCMT:throw_bad_alloc.obj
 0001:0000c3db       ??0bad_array_new_length@std@@QAE@XZ 1000d3db f i LIBCMT:throw_bad_alloc.obj
 0001:0000c3f3       ??0exception@std@@QAE@ABV01@@Z 1000d3f3 f i LIBCMT:throw_bad_alloc.obj
 0001:0000c41f       ??1bad_array_new_length@std@@UAE@XZ 1000d41f f i LIBCMT:throw_bad_alloc.obj
 0001:0000c41f       ??1bad_exception@std@@UAE@XZ 1000d41f f i libvcruntime:frame.obj
 0001:0000c41f       ??1bad_alloc@std@@UAE@XZ   1000d41f f i LIBCMT:throw_bad_alloc.obj
 0001:0000c430       ??_Gbad_array_new_length@std@@UAEPAXI@Z 1000d430 f i LIBCMT:throw_bad_alloc.obj
 0001:0000c430       ??_Ebad_exception@std@@UAEPAXI@Z 1000d430 f i libvcruntime:frame.obj
 0001:0000c430       ??_Ebad_alloc@std@@UAEPAXI@Z 1000d430 f i LIBCMT:throw_bad_alloc.obj
 0001:0000c430       ??_Gexception@std@@UAEPAXI@Z 1000d430 f i LIBCMT:throw_bad_alloc.obj
 0001:0000c430       ??_Gbad_exception@std@@UAEPAXI@Z 1000d430 f i libvcruntime:frame.obj
 0001:0000c430       ??_Eexception@std@@UAEPAXI@Z 1000d430 f i LIBCMT:throw_bad_alloc.obj
 0001:0000c430       ??_Gbad_alloc@std@@UAEPAXI@Z 1000d430 f i LIBCMT:throw_bad_alloc.obj
 0001:0000c430       ??_Ebad_array_new_length@std@@UAEPAXI@Z 1000d430 f i LIBCMT:throw_bad_alloc.obj
 0001:0000c45d       ?__scrt_throw_std_bad_alloc@@YAXXZ 1000d45d f   LIBCMT:throw_bad_alloc.obj
 0001:0000c47a       ?__scrt_throw_std_bad_array_new_length@@YAXXZ 1000d47a f   LIBCMT:throw_bad_alloc.obj
 0001:0000c497       ?what@exception@std@@UBEPBDXZ 1000d497 f i LIBCMT:throw_bad_alloc.obj
 0001:0000c4a4       ??_Etype_info@@UAEPAXI@Z   1000d4a4 f i LIBCMT:std_type_info_static.obj
 0001:0000c4a4       ??_Gtype_info@@UAEPAXI@Z   1000d4a4 f i LIBCMT:std_type_info_static.obj
 0001:0000c4c7       ??0CAtlBaseModule@ATL@@QAE@XZ 1000d4c7 f   atls:atlbase.obj
 0001:0000c51a       ??0_ATL_BASE_MODULE70@ATL@@QAE@XZ 1000d51a f i atls:atlbase.obj
 0001:0000c53d       ??1CAtlBaseModule@ATL@@QAE@XZ 1000d53d f   atls:atlbase.obj
 0001:0000c62a       ?Init@_stdcallthunk@ATL@@QAEHKPAX@Z 1000d62a f i atls:atlthunk.obj
 0001:0000c65f       ?__AllocStdCallThunk_cmn@@YAPAXXZ 1000d65f f   atls:atlthunk.obj
 0001:0000c725       ?__FreeStdCallThunk_cmn@@YAXPAX@Z 1000d725 f   atls:atlthunk.obj
 0001:0000c7c0       _AtlThunk_AllocateData@0   1000d7c0 f   atls:atlthunk.obj
 0001:0000c825       _AtlThunk_DataToCode@4     1000d825 f   atls:atlthunk.obj
 0001:0000c86c       _AtlThunk_FreeData@4       1000d86c f   atls:atlthunk.obj
 0001:0000c8c2       _AtlThunk_InitData@12      1000d8c2 f   atls:atlthunk.obj
 0001:0000c911       __get_purecall_handler     1000d911 f   libvcruntime:purevirt.obj
 0001:0000c926       __purecall                 1000d926 f   libvcruntime:purevirt.obj
 0001:0000c942       _wcsstr                    1000d942 f   libvcruntime:wcsstr.obj
 0001:0000cc00       __except_handler4          1000dc00 f   libvcruntime:chandler4.obj
 0001:0000cd57       _memcmp                    1000dd57 f   libvcruntime:memcmp.obj
 0001:0000dd00       _memcpy                    1000ed00 f   libvcruntime:memcpy.obj
 0001:0000e280       _memset                    1000f280 f   libvcruntime:memset.obj
 0001:0000e3da       ___vcrt_initialize         1000f3da f   libvcruntime:initialization.obj
 0001:0000e403       ___vcrt_thread_attach      1000f403 f   libvcruntime:initialization.obj
 0001:0000e40e       ___vcrt_thread_detach      1000f40e f   libvcruntime:initialization.obj
 0001:0000e419       ___vcrt_uninitialize       1000f419 f   libvcruntime:initialization.obj
 0001:0000e438       ___vcrt_uninitialize_critical 1000f438 f   libvcruntime:initialization.obj
 0001:0000e440       ?GetRangeOfTrysToCheck@__FrameHandler3@@SA?AU?$pair@Viterator@TryBlockMap@__FrameHandler3@@V123@@std@@AAVTryBlockMap@1@HH@Z 1000f440 f   libvcruntime:trnsctrl.obj
 0001:0000e4c2       ?_CallCatchBlock2@@YAPAXPAUEHRegistrationNode@@PBU_s_FuncInfo@@PAXHK@Z 1000f4c2 f   libvcruntime:trnsctrl.obj
 0001:0000e520       ?_CallSETranslator@@YAHPAUEHExceptionRecord@@PAUEHRegistrationNode@@PAX2PBU_s_FuncInfo@@H1@Z 1000f520 f   libvcruntime:trnsctrl.obj
 0001:0000e5fb       ?_JumpToContinuation@@YGXPAXPAUEHRegistrationNode@@@Z 1000f5fb f   libvcruntime:trnsctrl.obj
 0001:0000e62b       ?_UnwindNestedFrames@@YGXPAUEHRegistrationNode@@PAUEHExceptionRecord@@@Z 1000f62b f   libvcruntime:trnsctrl.obj
 0001:0000e67e       __CatchGuardHandler        1000f67e f   libvcruntime:trnsctrl.obj
 0001:0000e6af       __CreateFrameInfo          1000f6af f   libvcruntime:trnsctrl.obj
 0001:0000e6d3       __FindAndUnlinkFrame       1000f6d3 f   libvcruntime:trnsctrl.obj
 0001:0000e718       __TranslatorGuardHandler   1000f718 f   libvcruntime:trnsctrl.obj
 0001:0000e7b5       ___CxxFrameHandler3        1000f7b5 f   libvcruntime:trnsctrl.obj
 0001:0000e7eb       ___std_type_info_compare   1000f7eb f   libvcruntime:std_type_info.obj
 0001:0000e827       ___std_type_info_destroy_list 1000f827 f   libvcruntime:std_type_info.obj
 0001:0000e84a       ___std_exception_copy      1000f84a f   libvcruntime:std_exception.obj
 0001:0000e8ad       ___std_exception_destroy   1000f8ad f   libvcruntime:std_exception.obj
 0001:0000e8cc       __CxxThrowException@8      1000f8cc f   libvcruntime:throw.obj
 0001:0000e940       _memmove                   1000f940 f   libvcruntime:memmove.obj
 0001:0000eeb4       ___vcrt_initialize_pure_virtual_call_handler 1000feb4 f   libvcruntime:purevirt_data.obj
 0001:0000eec0       __local_unwind4            1000fec0 f   libvcruntime:exsup4.obj
 0001:0000ef98       __seh_longjmp_unwind4@4    1000ff98 f   libvcruntime:exsup4.obj
 0001:0000efc0       @_EH4_CallFilterFunc@8     1000ffc0 f   libvcruntime:exsup4.obj
 0001:0000efd8       @_EH4_TransferToHandler@8  1000ffd8 f   libvcruntime:exsup4.obj
 0001:0000eff4       @_EH4_GlobalUnwind2@8      1000fff4 f   libvcruntime:exsup4.obj
 0001:0000f010       @_EH4_LocalUnwind@16       10010010 f   libvcruntime:exsup4.obj
 0001:0000f027       ___except_validate_context_record 10010027 f   libvcruntime:jbcxrval.obj
 0001:0000f057       ___except_validate_jump_buffer 10010057 f   libvcruntime:jbcxrval.obj
 0001:0000f084       ___vcrt_freefls@4          10010084 f   libvcruntime:per_thread_data.obj
 0001:0000f0a0       ___vcrt_freeptd            100100a0 f   libvcruntime:per_thread_data.obj
 0001:0000f0d6       ___vcrt_getptd             100100d6 f   libvcruntime:per_thread_data.obj
 0001:0000f0e4       ___vcrt_getptd_noexit      100100e4 f   libvcruntime:per_thread_data.obj
 0001:0000f176       ___vcrt_initialize_ptd     10010176 f   libvcruntime:per_thread_data.obj
 0001:0000f1a9       ___vcrt_uninitialize_ptd   100101a9 f   libvcruntime:per_thread_data.obj
 0001:0000f1c4       ___vcrt_initialize_locks   100101c4 f   libvcruntime:locks.obj
 0001:0000f200       ___vcrt_uninitialize_locks 10010200 f   libvcruntime:locks.obj
 0001:0000f362       ___vcrt_FlsAlloc           10010362 f   libvcruntime:winapi_downlevel.obj
 0001:0000f39d       ___vcrt_FlsFree            1001039d f   libvcruntime:winapi_downlevel.obj
 0001:0000f3d8       ___vcrt_FlsGetValue        100103d8 f   libvcruntime:winapi_downlevel.obj
 0001:0000f413       ___vcrt_FlsSetValue        10010413 f   libvcruntime:winapi_downlevel.obj
 0001:0000f451       ___vcrt_InitializeCriticalSectionEx 10010451 f   libvcruntime:winapi_downlevel.obj
 0001:0000f498       ___vcrt_initialize_winapi_thunks 10010498 f   libvcruntime:winapi_downlevel.obj
 0001:0000f4c1       ___vcrt_uninitialize_winapi_thunks 100104c1 f   libvcruntime:winapi_downlevel.obj
 0001:0000fbea       ??$TypeMatchHelper@V__FrameHandler3@@@@YAHPBU_s_HandlerType@@PBU_s_CatchableType@@PBU_s_ThrowInfo@@@Z 10010bea f i libvcruntime:frame.obj
 0001:0000fc78       ??$__InternalCxxFrameHandler@V__FrameHandler3@@@@YA?AW4_EXCEPTION_DISPOSITION@@PAUEHExceptionRecord@@PAUEHRegistrationNode@@PAU_CONTEXT@@PAXPBU_s_FuncInfo@@H1E@Z 10010c78 f i libvcruntime:frame.obj
 0001:0000fd7a       ??0bad_exception@std@@QAE@ABV01@@Z 10010d7a f i libvcruntime:frame.obj
 0001:0000fd95       ??0bad_exception@std@@QAE@XZ 10010d95 f i libvcruntime:frame.obj
 0001:0000fdad       ??8type_info@@QBE_NABV0@@Z 10010dad f i libvcruntime:frame.obj
 0001:00010014       ?FrameUnwindToEmptyState@__FrameHandler3@@SAXPAUEHRegistrationNode@@PAXPBU_s_FuncInfo@@@Z 10011014 f   libvcruntime:frame.obj
 0001:0001002c       ?FrameUnwindToState@__FrameHandler3@@SAXPAUEHRegistrationNode@@PAXPBU_s_FuncInfo@@H@Z 1001102c f   libvcruntime:frame.obj
 0001:000101ae       ?_CallMemberFunction1@@YGXQAX00@Z 100111ae f i libvcruntime:frame.obj
 0001:000101be       ?_CallMemberFunction2@@YGXQAX00H@Z 100111be f i libvcruntime:frame.obj
 0001:000101d1       ?getESTypes@__FrameHandler3@@SAPBU_s_ESTypeList@@PBU_s_FuncInfo@@@Z 100111d1 f i libvcruntime:frame.obj
 0001:000101e0       __CallSettingFrame@12      100111e0 f   libvcruntime:lowhelpr.obj
 0001:00010207       __NLG_Return               10011207     libvcruntime:lowhelpr.obj
 0001:00010230       __global_unwind2           10011230 f   libvcruntime:exsup.obj
 0001:00010296       __local_unwind2            10011296 f   libvcruntime:exsup.obj
 0001:0001031a       __abnormal_termination     1001131a f   libvcruntime:exsup.obj
 0001:00010340       __NLG_Notify1              10011340 f   libvcruntime:exsup.obj
 0001:0001034c       __NLG_Notify               1001134c f   libvcruntime:exsup.obj
 0001:00010363       __NLG_Dispatch             10011363     libvcruntime:exsup.obj
 0001:00010363       __NLG_Dispatch2            10011363     libvcruntime:exsup.obj
 0001:0001036b       __NLG_Call                 1001136b f   libvcruntime:exsup.obj
 0001:0001036d       __NLG_Return2              1001136d     libvcruntime:exsup.obj
 0001:0001036e       _unexpected                1001136e f   libvcruntime:unexpected.obj
 0001:0001038b       ?GetCurrentState@__FrameHandler3@@SAHPAUEHRegistrationNode@@PAXPBU_s_FuncInfo@@@Z 1001138b f   libvcruntime:ehstate.obj
 0001:000103a8       ?SetState@__FrameHandler3@@SAXPAUEHRegistrationNode@@PBU_s_FuncInfo@@H@Z 100113a8 f   libvcruntime:ehstate.obj
 0001:000103b6       ___DestructExceptionObject 100113b6 f   libvcruntime:ehhelpers.obj
 0001:00010456       ?_CallMemberFunction0@@YGXQAX0@Z 10011456 f i libvcruntime:ehhelpers.obj
 0001:00010463       __IsExceptionObjectToBeDestroyed 10011463 f   libvcruntime:ehhelpers.obj
 0001:00010489       ___AdjustPointer           10011489 f   libvcruntime:ehhelpers.obj
 0001:000104ae       ___FrameUnwindFilter       100114ae f   libvcruntime:ehhelpers.obj
 0001:000104f3       _free                      100114f3 f   libucrt:free.obj
 0001:000104f8       ?initialize@?$dual_state_global@P6AHPAU_exception@@@Z@__crt_state_management@@QAEXQ6AHPAU_exception@@@Z@Z 100114f8 f i libucrt:matherr.obj
 0001:000104f8       ?initialize@?$dual_state_global@PAU__crt_locale_data@@@__crt_state_management@@QAEXQAU__crt_locale_data@@@Z 100114f8 f i libucrt:initialization.obj
 0001:000104f8       ?initialize@?$dual_state_global@P6AHI@Z@__crt_state_management@@QAEXQ6AHI@Z@Z 100114f8 f i libucrt:new_handler.obj
 0001:000104f8       ?initialize@?$dual_state_global@P6AXH@Z@__crt_state_management@@QAEXQ6AXH@Z@Z 100114f8 f i libucrt:signal.obj
 0001:000104f8       ?initialize@?$dual_state_global@P6AXPB_W00II@Z@__crt_state_management@@QAEXQ6AXPB_W00II@Z@Z 100114f8 f i libucrt:invalid_parameter.obj
 0001:000104f8       ?initialize@?$dual_state_global@PAPAD@__crt_state_management@@QAEXQAPAD@Z 100114f8 f i libucrt:environment_initialization.obj
 0001:00010529       ___acrt_call_reportfault   10011529 f   libucrt:invalid_parameter.obj
 0001:00010664       ___acrt_initialize_invalid_parameter_handler 10011664 f   libucrt:invalid_parameter.obj
 0001:00010678       __invalid_parameter        10011678 f   libucrt:invalid_parameter.obj
 0001:000106f3       __invalid_parameter_noinfo 100116f3 f   libucrt:invalid_parameter.obj
 0001:00010703       __invoke_watson            10011703 f   libucrt:invalid_parameter.obj
 0001:00010736       ___acrt_errno_from_os_error 10011736 f   libucrt:errno.obj
 0001:00010779       ___acrt_errno_map_os_error 10011779 f   libucrt:errno.obj
 0001:0001079c       ___doserrno                1001179c f   libucrt:errno.obj
 0001:000107af       __errno                    100117af f   libucrt:errno.obj
 0001:000107c2       _calloc                    100117c2 f   libucrt:calloc.obj
 0001:000107cd       _malloc                    100117cd f   libucrt:malloc.obj
 0001:000107d8       __recalloc                 100117d8 f   libucrt:recalloc.obj
 0001:000107e3       __recalloc_base            100117e3 f   libucrt:recalloc.obj
 0001:00010850       __resetstkoflw             10011850 f   libucrt:resetstk.obj
 0001:00010921       _wcscat_s                  10011921 f   libucrt:wcscat_s.obj
 0001:00010996       _wcscpy_s                  10011996 f   libucrt:wcscpy_s.obj
 0001:00010ac7       _wcsncpy_s                 10011ac7 f   libucrt:wcsncpy_s.obj
 0001:00010cd1       ??$count@D@formatting_buffer@__crt_stdio_output@@QBEIXZ 10011cd1 f i libucrt:output.obj
 0001:00010ce9       ??$ensure_buffer_is_big_enough@D@formatting_buffer@__crt_stdio_output@@QAE_NI@Z 10011ce9 f i libucrt:output.obj
 0001:00010d6f       ??$is_wide_character_specifier@_W@__crt_stdio_output@@YA_N_K_WW4length_modifier@0@@Z 10011d6f f i libucrt:output.obj
 0001:00010dbe       ??$scratch_data@D@formatting_buffer@__crt_stdio_output@@QAEPADXZ 10011dbe f i libucrt:output.obj
 0001:00010ddc       ??$type_case_integer_parse_into_buffer@I@?$output_processor@_WV?$string_output_adapter@_W@__crt_stdio_output@@V?$format_validation_base@_WV?$string_output_adapter@_W@__crt_stdio_output@@@2@@__crt_stdio_output@@AAEXII_N@Z 10011ddc f i libucrt:output.obj
 0001:00010e51       ??$type_case_integer_parse_into_buffer@_K@?$output_processor@_WV?$string_output_adapter@_W@__crt_stdio_output@@V?$format_validation_base@_WV?$string_output_adapter@_W@__crt_stdio_output@@@2@@__crt_stdio_output@@AAEX_KI_N@Z 10011e51 f i libucrt:output.obj
 0001:00010ed9       ??$write_multiple_characters@V?$string_output_adapter@_W@__crt_stdio_output@@D@__crt_stdio_output@@YAXABV?$string_output_adapter@_W@0@DHQAH@Z 10011ed9 f i libucrt:output.obj
 0001:00010f0a       ??0?$common_data@_W@__crt_stdio_output@@IAE@XZ 10011f0a f i libucrt:output.obj
 0001:00010f56       ??0?$output_adapter_data@_WV?$string_output_adapter@_W@__crt_stdio_output@@@__crt_stdio_output@@IAE@ABV?$string_output_adapter@_W@1@_KQB_WQAU__crt_locale_pointers@@QAD@Z 10011f56 f i libucrt:output.obj
 0001:00010f92       ??0?$output_processor@_WV?$string_output_adapter@_W@__crt_stdio_output@@V?$format_validation_base@_WV?$string_output_adapter@_W@__crt_stdio_output@@@2@@__crt_stdio_output@@QAE@ABV?$string_output_adapter@_W@1@_KQB_WQAU__crt_locale_pointers@@QAD@Z 10011f92 f i libucrt:output.obj
 0001:00010fc7       ??0_LocaleUpdate@@QAE@QAU__crt_locale_pointers@@@Z 10011fc7 f i libucrt:output.obj
 0001:0001104a       ??1formatting_buffer@__crt_stdio_output@@QAE@XZ 1001204a f i libucrt:output.obj
 0001:00011064       ??4?$__crt_unique_heap_ptr@DU__crt_internal_free_policy@@@@QAEAAV0@$$QAV0@@Z 10012064 f i libucrt:output.obj
 0001:00011088       ?crop_zeroes@__crt_stdio_output@@YAXPADQAU__crt_locale_pointers@@@Z 10012088 f i libucrt:output.obj
 0001:000110df       ?find_next_state@?$output_processor@_WV?$string_output_adapter@_W@__crt_stdio_output@@V?$format_validation_base@_WV?$string_output_adapter@_W@__crt_stdio_output@@@2@@__crt_stdio_output@@ABE?AW4state@2@_WW432@@Z 100120df f i libucrt:output.obj
 0001:00011116       ?force_decimal_point@__crt_stdio_output@@YAXPADQAU__crt_locale_pointers@@@Z 10012116 f i libucrt:output.obj
 0001:00011172       ?parse_int_from_format_string@?$output_processor@_WV?$string_output_adapter@_W@__crt_stdio_output@@V?$format_validation_base@_WV?$string_output_adapter@_W@__crt_stdio_output@@@2@@__crt_stdio_output@@AAE_NQAH@Z 10012172 f i libucrt:output.obj
 0001:000111d0       ?process@?$output_processor@_WV?$string_output_adapter@_W@__crt_stdio_output@@V?$format_validation_base@_WV?$string_output_adapter@_W@__crt_stdio_output@@@2@@__crt_stdio_output@@QAEHXZ 100121d0 f i libucrt:output.obj
 0001:00011300       ?state_case_flag@?$output_processor@_WV?$string_output_adapter@_W@__crt_stdio_output@@V?$format_validation_base@_WV?$string_output_adapter@_W@__crt_stdio_output@@@2@@__crt_stdio_output@@AAE_NXZ 10012300 f i libucrt:output.obj
 0001:0001133d       ?state_case_normal@?$output_processor@_WV?$string_output_adapter@_W@__crt_stdio_output@@V?$format_validation_base@_WV?$string_output_adapter@_W@__crt_stdio_output@@@2@@__crt_stdio_output@@AAE_NXZ 1001233d f i libucrt:output.obj
 0001:0001135c       ?state_case_normal_common@?$output_processor@_WV?$string_output_adapter@_W@__crt_stdio_output@@V?$format_validation_base@_WV?$string_output_adapter@_W@__crt_stdio_output@@@2@@__crt_stdio_output@@AAE_NXZ 1001235c f i libucrt:output.obj
 0001:00011377       ?state_case_precision@?$output_processor@_WV?$string_output_adapter@_W@__crt_stdio_output@@V?$format_validation_base@_WV?$string_output_adapter@_W@__crt_stdio_output@@@2@@__crt_stdio_output@@AAE_NXZ 10012377 f i libucrt:output.obj
 0001:000113a0       ?state_case_size@?$output_processor@_WV?$string_output_adapter@_W@__crt_stdio_output@@V?$format_validation_base@_WV?$string_output_adapter@_W@__crt_stdio_output@@@2@@__crt_stdio_output@@AAE_NXZ 100123a0 f i libucrt:output.obj
 0001:0001151c       ?state_case_type@?$output_processor@_WV?$string_output_adapter@_W@__crt_stdio_output@@V?$format_validation_base@_WV?$string_output_adapter@_W@__crt_stdio_output@@@2@@__crt_stdio_output@@AAE_NXZ 1001251c f i libucrt:output.obj
 0001:00011779       ?state_case_width@?$output_processor@_WV?$string_output_adapter@_W@__crt_stdio_output@@V?$format_validation_base@_WV?$string_output_adapter@_W@__crt_stdio_output@@@2@@__crt_stdio_output@@AAE_NXZ 10012779 f i libucrt:output.obj
 0001:000117a5       ?to_integer_size@__crt_stdio_output@@YAIW4length_modifier@1@@Z 100127a5 f i libucrt:output.obj
 0001:00011801       ?type_case_Z@?$output_processor@_WV?$string_output_adapter@_W@__crt_stdio_output@@V?$format_validation_base@_WV?$string_output_adapter@_W@__crt_stdio_output@@@2@@__crt_stdio_output@@AAE_NXZ 10012801 f i libucrt:output.obj
 0001:00011864       ?type_case_a@?$output_processor@_WV?$string_output_adapter@_W@__crt_stdio_output@@V?$format_validation_base@_WV?$string_output_adapter@_W@__crt_stdio_output@@@2@@__crt_stdio_output@@AAE_NXZ 10012864 f i libucrt:output.obj
 0001:000119d6       ?type_case_c_tchar@?$output_processor@_WV?$string_output_adapter@_W@__crt_stdio_output@@V?$format_validation_base@_WV?$string_output_adapter@_W@__crt_stdio_output@@@2@@__crt_stdio_output@@AAE_N_W@Z 100129d6 f i libucrt:output.obj
 0001:00011a6e       ?type_case_integer@?$output_processor@_WV?$string_output_adapter@_W@__crt_stdio_output@@V?$format_validation_base@_WV?$string_output_adapter@_W@__crt_stdio_output@@@2@@__crt_stdio_output@@AAE_NI_N@Z 10012a6e f i libucrt:output.obj
 0001:00011bb8       ?type_case_n@?$output_processor@_WV?$string_output_adapter@_W@__crt_stdio_output@@V?$format_validation_base@_WV?$string_output_adapter@_W@__crt_stdio_output@@@2@@__crt_stdio_output@@AAE_NXZ 10012bb8 f i libucrt:output.obj
 0001:00011c2c       ?type_case_o@?$output_processor@_WV?$string_output_adapter@_W@__crt_stdio_output@@V?$format_validation_base@_WV?$string_output_adapter@_W@__crt_stdio_output@@@2@@__crt_stdio_output@@AAE_NXZ 10012c2c f i libucrt:output.obj
 0001:00011c4b       ?type_case_p@?$output_processor@_WV?$string_output_adapter@_W@__crt_stdio_output@@V?$format_validation_base@_WV?$string_output_adapter@_W@__crt_stdio_output@@@2@@__crt_stdio_output@@AAE_NXZ 10012c4b f i libucrt:output.obj
 0001:00011c63       ?type_case_s@?$output_processor@_WV?$string_output_adapter@_W@__crt_stdio_output@@V?$format_validation_base@_WV?$string_output_adapter@_W@__crt_stdio_output@@@2@@__crt_stdio_output@@AAE_NXZ 10012c63 f i libucrt:output.obj
 0001:00011cd7       ?type_case_s_compute_narrow_string_length@?$output_processor@_WV?$string_output_adapter@_W@__crt_stdio_output@@V?$format_validation_base@_WV?$string_output_adapter@_W@__crt_stdio_output@@@2@@__crt_stdio_output@@ABEHH_W@Z 10012cd7 f i libucrt:output.obj
 0001:00011d17       ?validate@?$string_output_adapter@_W@__crt_stdio_output@@QBE_NXZ 10012d17 f i libucrt:output.obj
 0001:00011d17       ?validate@?$c_string_character_source@_W@__crt_strtox@@QBE_NXZ 10012d17 f i libucrt:atox.obj
 0001:00011d32       ?validate_and_update_state_at_end_of_format_string@?$format_validation_base@_WV?$string_output_adapter@_W@__crt_stdio_output@@@__crt_stdio_output@@IBE_NXZ 10012d32 f i libucrt:output.obj
 0001:00011d54       ?write_character@?$string_output_adapter@_W@__crt_stdio_output@@QBE_N_WQAH@Z 10012d54 f i libucrt:output.obj
 0001:00011d99       ?write_stored_string_tchar@?$output_processor@_WV?$string_output_adapter@_W@__crt_stdio_output@@V?$format_validation_base@_WV?$string_output_adapter@_W@__crt_stdio_output@@@2@@__crt_stdio_output@@AAE_N_W@Z 10012d99 f i libucrt:output.obj
 0001:00011e24       ?write_string@?$string_output_adapter@_W@__crt_stdio_output@@QBEXQB_WHQAH1@Z 10012e24 f i libucrt:output.obj
 0001:00011ebe       ___stdio_common_vswprintf_s 10012ebe f   libucrt:output.obj
 0001:00011ee2       __seh_filter_dll           10012ee2 f   libucrt:exception_filter.obj
 0001:00011f02       __seh_filter_exe           10012f02 f   libucrt:exception_filter.obj
 0001:00012290       ___acrt_initialize_thread_local_exit_callback 10013290 f   libucrt:exit.obj
 0001:0001229f       __cexit                    1001329f f   libucrt:exit.obj
 0001:000122ae       __exit                     100132ae f   libucrt:exit.obj
 0001:000122c4       __is_c_termination_complete 100132c4 f   libucrt:exit.obj
 0001:00012563       ___acrt_allocate_buffer_for_argv 10013563 f   libucrt:argv_parsing.obj
 0001:000125b8       __configure_narrow_argv    100135b8 f   libucrt:argv_parsing.obj
 0001:0001271c       ??$uninitialize@A6AXAAPAPAD@Z@?$dual_state_global@PAPAD@__crt_state_management@@QAEXA6AXAAPAPAD@Z@Z 1001371c f i libucrt:environment_initialization.obj
 0001:0001271c       ??$uninitialize@A6AXAAPAPA_W@Z@?$dual_state_global@PAPA_W@__crt_state_management@@QAEXA6AXAAPAPA_W@Z@Z 1001371c f i libucrt:environment_initialization.obj
 0001:00012792       ___dcrt_uninitialize_environments_nolock 10013792 f   libucrt:environment_initialization.obj
 0001:000127c9       __initialize_narrow_environment 100137c9 f   libucrt:environment_initialization.obj
 0001:000127ce       ??$?RV<lambda_800076c951b434888f4765a74a194fcc>@@AAV<lambda_4e60a939b0d047cfe11ddc22648dfba9>@@V<lambda_6dbb1268764f43b569ce7b67e331d33a>@@@?$__crt_seh_guarded_call@H@@QAEH$$QAV<lambda_800076c951b434888f4765a74a194fcc>@@AAV<lambda_4e60a939b0d047cfe11ddc22648dfba9>@@$$QAV<lambda_6dbb1268764f43b569ce7b67e331d33a>@@@Z 100137ce f i libucrt:onexit.obj
 0001:0001281f       ??$?RV<lambda_995298e7d72eb4c2aab26c0585b3abe5>@@AAV<lambda_275893d493268fdec8709772e3fcec0e>@@V<lambda_293819299cbf9a7022e18b56a874bb5c>@@@?$__crt_seh_guarded_call@H@@QAEH$$QAV<lambda_995298e7d72eb4c2aab26c0585b3abe5>@@AAV<lambda_275893d493268fdec8709772e3fcec0e>@@$$QAV<lambda_293819299cbf9a7022e18b56a874bb5c>@@@Z 1001381f f i libucrt:onexit.obj
 0001:00012870       ??$__acrt_lock_and_call@V<lambda_275893d493268fdec8709772e3fcec0e>@@@@YAHW4__acrt_lock_id@@$$QAV<lambda_275893d493268fdec8709772e3fcec0e>@@@Z 10013870 f i libucrt:onexit.obj
 0001:00012898       ??$__acrt_lock_and_call@V<lambda_4e60a939b0d047cfe11ddc22648dfba9>@@@@YAHW4__acrt_lock_id@@$$QAV<lambda_4e60a939b0d047cfe11ddc22648dfba9>@@@Z 10013898 f i libucrt:onexit.obj
 0001:000128c0       ??$__crt_fast_encode_pointer@P6AHXZ@@YAP6AHXZQ6AHXZ@Z 100138c0 f i libucrt:onexit.obj
 0001:00012b40       __crt_atexit               10013b40 f   libucrt:onexit.obj
 0001:00012b56       __execute_onexit_table     10013b56 f   libucrt:onexit.obj
 0001:00012b73       __initialize_onexit_table  10013b73 f   libucrt:onexit.obj
 0001:00012bb0       __register_onexit_function 10013bb0 f   libucrt:onexit.obj
 0001:00012c00       ___acrt_uninitialize_command_line 10013c00 f   libucrt:argv_data.obj
 0001:00012cc8       ___acrt_initialize         10013cc8 f   libucrt:initialization.obj
 0001:00012cda       ___acrt_thread_attach      10013cda f   libucrt:initialization.obj
 0001:00012ce5       ___acrt_thread_detach      10013ce5 f   libucrt:initialization.obj
 0001:00012ced       ___acrt_uninitialize       10013ced f   libucrt:initialization.obj
 0001:00012cff       ___acrt_uninitialize_critical 10013cff f   libucrt:initialization.obj
 0001:00012d11       __initterm                 10013d11 f   libucrt:initterm.obj
 0001:00012d6d       __initterm_e               10013d6d f   libucrt:initterm.obj
 0001:00012db2       ___acrt_initialize_new_handler 10013db2 f   libucrt:new_handler.obj
 0001:00012dc6       __callnewh                 10013dc6 f   libucrt:new_handler.obj
 0001:00012e0a       __query_new_handler        10013e0a f   libucrt:new_handler.obj
 0001:00012e5c       _terminate                 10013e5c f   libucrt:terminate.obj
 0001:00012e98       _abort                     10013e98 f   libucrt:abort.obj
 0001:00012edb       _strcpy_s                  10013edb f   libucrt:strcpy_s.obj
 0001:00012f35       _wcsncmp                   10013f35 f   libucrt:wcsncmp.obj
 0001:00012f6f       ??$is_overflow_condition@K@__crt_strtox@@YA_NIK@Z 10013f6f f i libucrt:atox.obj
 0001:00012fa2       ??$parse_integer@KV?$c_string_character_source@_W@__crt_strtox@@@__crt_strtox@@YAKQAU__crt_locale_pointers@@V?$c_string_character_source@_W@0@H_N@Z 10013fa2 f i libucrt:atox.obj
 0001:00013687       ?unget@?$c_string_character_source@_W@__crt_strtox@@QAEX_W@Z 10014687 f i libucrt:atox.obj
 0001:000136b3       __chvalidchk_l             100146b3 f i libucrt:atox.obj
 0001:000136dd       __ischartype_l             100146dd f i libucrt:atox.obj
 0001:00013710       _strncmp                   10014710 f   libucrt:strncmp.obj
 0001:00013788       __free_base                10014788 f   libucrt:free_base.obj
 0001:000137c2       ??$?RV<lambda_3518db117f0e7cdb002338c5d3c47b6c>@@AAV<lambda_b2ea41f6bbb362cd97d94c6828d90b61>@@V<lambda_abdedf541bb04549bc734292b4a045d4>@@@?$__crt_seh_guarded_call@X@@QAEX$$QAV<lambda_3518db117f0e7cdb002338c5d3c47b6c>@@AAV<lambda_b2ea41f6bbb362cd97d94c6828d90b61>@@$$QAV<lambda_abdedf541bb04549bc734292b4a045d4>@@@Z 100147c2 f i libucrt:per_thread_data.obj
 0001:00013812       ??$?RV<lambda_51b6e8b1eb166f2a3faf91f424b38130>@@AAV<lambda_6250bd4b2a391816dd638c3bf72b0bcb>@@V<lambda_0b5a4a3e68152e1d9b943535f5f47bed>@@@?$__crt_seh_guarded_call@X@@QAEX$$QAV<lambda_51b6e8b1eb166f2a3faf91f424b38130>@@AAV<lambda_6250bd4b2a391816dd638c3bf72b0bcb>@@$$QAV<lambda_0b5a4a3e68152e1d9b943535f5f47bed>@@@Z 10014812 f i libucrt:per_thread_data.obj
 0001:00013873       ??$?RV<lambda_5b71d36f03204c0beab531769a5b5694>@@AAV<lambda_be2b3da3f62db62e9dad5dc70221a656>@@V<lambda_8f9ce462984622f9bf76b59e2aaaf805>@@@?$__crt_seh_guarded_call@X@@QAEX$$QAV<lambda_5b71d36f03204c0beab531769a5b5694>@@AAV<lambda_be2b3da3f62db62e9dad5dc70221a656>@@$$QAV<lambda_8f9ce462984622f9bf76b59e2aaaf805>@@@Z 10014873 f i libucrt:per_thread_data.obj
 0001:000138be       ??$?RV<lambda_9df27f884b057bc3edfc946cb5b7cf47>@@AAV<lambda_e69574bed617af4e071282c136b37893>@@V<lambda_cc0d902bcbbeb830f749456577db4721>@@@?$__crt_seh_guarded_call@X@@QAEX$$QAV<lambda_9df27f884b057bc3edfc946cb5b7cf47>@@AAV<lambda_e69574bed617af4e071282c136b37893>@@$$QAV<lambda_cc0d902bcbbeb830f749456577db4721>@@@Z 100148be f i libucrt:per_thread_data.obj
 0001:00013906       ??$__acrt_lock_and_call@V<lambda_6250bd4b2a391816dd638c3bf72b0bcb>@@@@YAXW4__acrt_lock_id@@$$QAV<lambda_6250bd4b2a391816dd638c3bf72b0bcb>@@@Z 10014906 f i libucrt:per_thread_data.obj
 0001:0001392e       ??$__acrt_lock_and_call@V<lambda_b2ea41f6bbb362cd97d94c6828d90b61>@@@@YAXW4__acrt_lock_id@@$$QAV<lambda_b2ea41f6bbb362cd97d94c6828d90b61>@@@Z 1001492e f i libucrt:per_thread_data.obj
 0001:00013956       ??$__acrt_lock_and_call@V<lambda_be2b3da3f62db62e9dad5dc70221a656>@@@@YAXW4__acrt_lock_id@@$$QAV<lambda_be2b3da3f62db62e9dad5dc70221a656>@@@Z 10014956 f i libucrt:per_thread_data.obj
 0001:0001397e       ??$__acrt_lock_and_call@V<lambda_e69574bed617af4e071282c136b37893>@@@@YAXW4__acrt_lock_id@@$$QAV<lambda_e69574bed617af4e071282c136b37893>@@@Z 1001497e f i libucrt:per_thread_data.obj
 0001:00013b34       ___acrt_freeptd            10014b34 f   libucrt:per_thread_data.obj
 0001:00013b60       ___acrt_getptd             10014b60 f   libucrt:per_thread_data.obj
 0001:00013be4       ___acrt_getptd_noexit      10014be4 f   libucrt:per_thread_data.obj
 0001:00013c69       ___acrt_initialize_ptd     10014c69 f   libucrt:per_thread_data.obj
 0001:00013c95       ___acrt_uninitialize_ptd   10014c95 f   libucrt:per_thread_data.obj
 0001:00013caf       __calloc_base              10014caf f   libucrt:calloc_base.obj
 0001:00013d0c       __malloc_base              10014d0c f   libucrt:malloc_base.obj
 0001:00013d5a       __msize                    10014d5a f   libucrt:msize.obj
 0001:00013d8d       __realloc_base             10014d8d f   libucrt:realloc_base.obj
 0001:00013f0d       ___acrt_FlsAlloc@4         10014f0d f   libucrt:winapi_thunks.obj
 0001:00013f63       ___acrt_FlsFree@4          10014f63 f   libucrt:winapi_thunks.obj
 0001:00013fb9       ___acrt_FlsGetValue@4      10014fb9 f   libucrt:winapi_thunks.obj
 0001:0001400f       ___acrt_FlsSetValue@8      1001500f f   libucrt:winapi_thunks.obj
 0001:00014068       ___acrt_InitializeCriticalSectionEx@12 10015068 f   libucrt:winapi_thunks.obj
 0001:000140ca       ___acrt_LCMapStringEx@36   100150ca f   libucrt:winapi_thunks.obj
 0001:00014152       ___acrt_LocaleNameToLCID@8 10015152 f   libucrt:winapi_thunks.obj
 0001:000141ae       ___acrt_SetThreadStackGuarantee@4 100151ae f   libucrt:winapi_thunks.obj
 0001:00014200       ___acrt_initialize_winapi_thunks 10015200 f   libucrt:winapi_thunks.obj
 0001:00014226       ___acrt_is_packaged_app    10015226 f   libucrt:winapi_thunks.obj
 0001:000142ad       ___acrt_uninitialize_winapi_thunks 100152ad f   libucrt:winapi_thunks.obj
 0001:000142e3       __isdigit_l                100152e3 f i libucrt:_ctype.obj
 0001:0001431b       _isdigit                   1001531b f i libucrt:_ctype.obj
 0001:000144af       __tolower_l                100154af f   libucrt:tolower_toupper.obj
 0001:000144c9       _tolower                   100154c9 f   libucrt:tolower_toupper.obj
 0001:000144f9       ??$make_c_string_character_source@_WPAPA_W@__crt_strtox@@YA?AV?$c_string_character_source@_W@0@QB_WQAPA_W@Z 100154f9 f i libucrt:strtox.obj
 0001:00014514       _wcstol                    10015514 f   libucrt:strtox.obj
 0001:00014540       __mbtowc_l                 10015540 f   libucrt:mbtowc.obj
 0001:0001463a       _mbtowc                    1001563a f   libucrt:mbtowc.obj
 0001:00014654       _wcsnlen                   10015654 f   libucrt:strnlen.obj
 0001:0001480b       ___acrt_update_locale_info 1001580b f   libucrt:locale_update.obj
 0001:00014838       ___acrt_update_multibyte_info 10015838 f   libucrt:locale_update.obj
 0001:00014865       ?__acrt_fp_classify@@YA?AW4__acrt_fp_class@@ABN@Z 10015865 f i libucrt:cvt.obj
 0001:000148d1       ?__acrt_fp_is_negative@@YA_NABN@Z 100158d1 f i libucrt:cvt.obj
 0001:00015130       ___acrt_fp_format          10016130 f   libucrt:cvt.obj
 0001:0001527a       __fileno                   1001627a f   libucrt:fileno.obj
 0001:000152a0       ___acrt_initialize_stdio   100162a0 f   libucrt:_file.obj
 0001:00015368       ___acrt_uninitialize_stdio 10016368 f   libucrt:_file.obj
 0001:000153b4       __lock_file                100163b4 f   libucrt:_file.obj
 0001:000153c8       __unlock_file              100163c8 f   libucrt:_file.obj
 0001:000153dc       __get_printf_count_output  100163dc f   libucrt:printf_count_output.obj
 0001:000153f1       ___acrt_set_locale_changed 100163f1 f   libucrt:wsetlocale.obj
 0001:000153fc       ___acrt_uninitialize_locale 100163fc f   libucrt:wsetlocale.obj
 0001:000155ba       ___acrt_initialize_lowio   100165ba f   libucrt:ioinit.obj
 0001:00015610       ___acrt_uninitialize_lowio 10016610 f   libucrt:ioinit.obj
 0001:0001563c       ___acrt_initialize_locks   1001663c f   libucrt:locks.obj
 0001:0001567d       ___acrt_lock               1001667d f   libucrt:locks.obj
 0001:00015694       ___acrt_uninitialize_locks 10016694 f   libucrt:locks.obj
 0001:000156c5       ___acrt_unlock             100166c5 f   libucrt:locks.obj
 0001:00015a9e       ??1?$argument_list@D@?A0xb0e4b824@@QAE@XZ 10016a9e f i libucrt:argv_wildcards.obj
 0001:00015ac3       ?append@?$argument_list@D@?A0xb0e4b824@@QAEHQAD@Z 10016ac3 f i libucrt:argv_wildcards.obj
 0001:00015af8       ?expand_if_necessary@?$argument_list@D@?A0xb0e4b824@@AAEHXZ 10016af8 f i libucrt:argv_wildcards.obj
 0001:00015b7f       ___acrt_expand_narrow_argv_wildcards 10016b7f f   libucrt:argv_wildcards.obj
 0001:00015b8a       ??$?RV<lambda_978dc153c237d78434369da87b74ff60>@@AAV<lambda_ad1ced32f4ac17aa236e5ef05d6b3b7c>@@V<lambda_4a8533e2866a575feecb8298ce776b0d>@@@?$__crt_seh_guarded_call@X@@QAEX$$QAV<lambda_978dc153c237d78434369da87b74ff60>@@AAV<lambda_ad1ced32f4ac17aa236e5ef05d6b3b7c>@@$$QAV<lambda_4a8533e2866a575feecb8298ce776b0d>@@@Z 10016b8a f i libucrt:mbctype.obj
 0001:00015bcd       ??$__acrt_lock_and_call@V<lambda_ad1ced32f4ac17aa236e5ef05d6b3b7c>@@@@YAXW4__acrt_lock_id@@$$QAV<lambda_ad1ced32f4ac17aa236e5ef05d6b3b7c>@@@Z 10016bcd f i libucrt:mbctype.obj
 0001:00016064       ___acrt_initialize_multibyte 10017064 f   libucrt:mbctype.obj
 0001:00016082       ___acrt_update_thread_multibyte_data 10017082 f   libucrt:mbctype.obj
 0001:00016124       __setmbcp_nolock           10017124 f   libucrt:mbctype.obj
 0001:000163ef       __ismbblead                100173ef f   libucrt:ismbbyte.obj
 0001:00016407       ___acrt_initialize_command_line 10017407 f   libucrt:argv_data.obj
 0001:00016457       ___dcrt_get_narrow_environment_from_os 10017457 f   libucrt:get_environment_from_os.obj
 0001:000164da       ___acrt_initialize_heap    100174da f   libucrt:heap_handle.obj
 0001:000164eb       ___acrt_uninitialize_heap  100174eb f   libucrt:heap_handle.obj
 0001:000164f5       ___acrt_execute_initializers 100174f5 f   libucrt:shared_initialization.obj
 0001:00016578       ___acrt_execute_uninitializers 10017578 f   libucrt:shared_initialization.obj
 0001:000165c5       ??$?RV<lambda_a048d3beccc847880fc8490e18b82769>@@AAV<lambda_ec61778202f4f5fc7e7711acc23c3bca>@@V<lambda_f7496a158712204296dd6628a163878e>@@@?$__crt_seh_guarded_call@P6AXH@Z@@QAEP6AXH@Z$$QAV<lambda_a048d3beccc847880fc8490e18b82769>@@AAV<lambda_ec61778202f4f5fc7e7711acc23c3bca>@@$$QAV<lambda_f7496a158712204296dd6628a163878e>@@@Z 100175c5 f i libucrt:signal.obj
 0001:0001661f       ??$__acrt_lock_and_call@V<lambda_ec61778202f4f5fc7e7711acc23c3bca>@@@@YAP6AXH@ZW4__acrt_lock_id@@$$QAV<lambda_ec61778202f4f5fc7e7711acc23c3bca>@@@Z 1001761f f i libucrt:signal.obj
 0001:000166b1       ___acrt_get_sigabrt_handler 100176b1 f   libucrt:signal.obj
 0001:000166c8       ___acrt_initialize_signal_handlers 100176c8 f   libucrt:signal.obj
 0001:00016703       ___fpecode                 10017703 f   libucrt:signal.obj
 0001:0001670c       _raise                     1001770c f   libucrt:signal.obj
 0001:00016914       ___acrt_has_user_matherr   10017914 f   libucrt:matherr.obj
 0001:0001692d       ___acrt_initialize_user_matherr 1001792d f   libucrt:matherr.obj
 0001:00016941       ___acrt_invoke_user_matherr 10017941 f   libucrt:matherr.obj
 0001:0001698a       ___pctype_func             1001798a f   libucrt:ctype.obj
 0001:000169b0       _iswctype                  100179b0 f   libucrt:iswctype.obj
 0001:00016a0f       __isctype_l                10017a0f f   libucrt:isctype.obj
 0001:00016ae1       ___acrt_add_locale_ref     10017ae1 f   libucrt:locale_refcounting.obj
 0001:00016b5e       ___acrt_free_locale        10017b5e f   libucrt:locale_refcounting.obj
 0001:00016ca8       ___acrt_locale_add_lc_time_reference 10017ca8 f   libucrt:locale_refcounting.obj
 0001:00016cd1       ___acrt_locale_free_lc_time_if_unreferenced 10017cd1 f   libucrt:locale_refcounting.obj
 0001:00016d01       ___acrt_locale_release_lc_time_reference 10017d01 f   libucrt:locale_refcounting.obj
 0001:00016d2a       ___acrt_release_locale_ref 10017d2a f   libucrt:locale_refcounting.obj
 0001:00016dab       ___acrt_update_thread_locale_data 10017dab f   libucrt:locale_refcounting.obj
 0001:00016e22       __updatetlocinfoEx_nolock  10017e22 f   libucrt:locale_refcounting.obj
 0001:00016e72       __query_new_mode           10017e72 f   libucrt:new_mode.obj
 0001:00016f34       ___acrt_DownlevelLocaleNameToLCID 10017f34 f   libucrt:lcidtoname_downlevel.obj
 0001:00016f60       __isleadbyte_l             10017f60 f i libucrt:_wctype.obj
 0001:000171b6       ___acrt_LCMapStringA       100181b6 f   libucrt:lcmapstringa.obj
 0001:00017201       __freea_crt                10018201 f i libucrt:lcmapstringa.obj
 0001:00017221       ___acrt_fp_strflt_to_string 10018221 f   libucrt:_fptostr.obj
 0001:000172dd       ??0scoped_fp_state_reset@?A0x48fbfdd4@@QAE@XZ 100182dd f i libucrt:cfout.obj
 0001:00017310       ?divide@__crt_strtox@@YA_KAAUbig_integer@1@ABU21@@Z 10018310 f i libucrt:cfout.obj
 0001:000177be       ___acrt_fltout             100187be f   libucrt:cfout.obj
 0001:00018b5a       __fcloseall                10019b5a f   libucrt:closeall.obj
 0001:00018bfa       ___acrt_stdio_flush_nolock 10019bfa f   libucrt:fflush.obj
 0001:00018c60       __fflush_nolock            10019c60 f   libucrt:fflush.obj
 0001:00018ca7       __flushall                 10019ca7 f   libucrt:fflush.obj
 0001:00018d88       ___acrt_stdio_free_buffer_nolock 10019d88 f   libucrt:_freebuf.obj
 0001:00018dc6       __isatty                   10019dc6 f   libucrt:isatty.obj
 0001:00018e1c       ___acrt_locale_free_monetary 10019e1c f   libucrt:initmon.obj
 0001:00018f1a       ___acrt_locale_free_numeric 10019f1a f   libucrt:initnum.obj
 0001:00018fbf       ___acrt_locale_free_time   10019fbf f   libucrt:inittime.obj
 0001:000190a3       ___acrt_GetStringTypeA     1001a0a3 f   libucrt:getstringtypea.obj
 0001:000191c0       ___acrt_lowio_create_handle_array 1001a1c0 f   libucrt:osfinfo.obj
 0001:0001923a       ___acrt_lowio_destroy_handle_array 1001a23a f   libucrt:osfinfo.obj
 0001:0001926f       ___acrt_lowio_ensure_fh_exists 1001a26f f   libucrt:osfinfo.obj
 0001:00019307       ___acrt_lowio_lock_fh      1001a307 f   libucrt:osfinfo.obj
 0001:0001932a       ___acrt_lowio_unlock_fh    1001a32a f   libucrt:osfinfo.obj
 0001:0001934d       __free_osfhnd              1001a34d f   libucrt:osfinfo.obj
 0001:000193de       __get_osfhandle            1001a3de f   libucrt:osfinfo.obj
 0001:00019530       _qsort                     1001a530 f   libucrt:qsort.obj
 0001:0001997b       _strncpy_s                 1001a97b f   libucrt:strncpy_s.obj
 0001:00019990       _strpbrk                   1001a990 f   libucrt:strpbrk.obj
 0001:000199d0       __mbsdec                   1001a9d0 f   libucrt:mbsdec.obj
 0001:000199e7       __mbsdec_l                 1001a9e7 f   libucrt:mbsdec.obj
 0001:00019a83       ___strncnt                 1001aa83 f   libucrt:strncnt.obj
 0001:00019a9f       _fegetenv                  1001aa9f f   libucrt:fegetenv.obj
 0001:00019abc       _fesetenv                  1001aabc f   libucrt:fesetenv.obj
 0001:00019b05       _feholdexcept              1001ab05 f   libucrt:feholdexcept.obj
 0001:00019b60       _log10                     1001ab60 f   libucrt:log10.obj
 0001:00019ba0       __CIlog10                  1001aba0 f   libucrt:log10.obj
 0001:00019bdb       __CIlog10_default          1001abdb f   libucrt:log10.obj
 0001:00019bef       __log10_default            1001abef     libucrt:log10.obj
 0001:00019cb0       _ceil                      1001acb0 f   libucrt:ceil_pentium4.obj
 0001:00019cf0       __ceil_pentium4            1001acf0 f   libucrt:ceil_pentium4.obj
 0001:0001a35d       __write                    1001b35d f   libucrt:write.obj
 0001:0001a448       __write_nolock             1001b448 f   libucrt:write.obj
 0001:0001a6d2       __lseeki64_nolock          1001b6d2 f   libucrt:lseek.obj
 0001:0001a6ed       __fclose_nolock            1001b6ed f   libucrt:fclose.obj
 0001:0001a763       _fclose                    1001b763 f   libucrt:fclose.obj
 0001:0001a7e3       ??$?RV<lambda_61cee617f5178ae960314fd4d05640a0>@@AAV<lambda_6978c1fb23f02e42e1d9e99668cc68aa>@@V<lambda_9cd88cf8ad10232537feb2133f08c833>@@@?$__crt_seh_guarded_call@H@@QAEH$$QAV<lambda_61cee617f5178ae960314fd4d05640a0>@@AAV<lambda_6978c1fb23f02e42e1d9e99668cc68aa>@@$$QAV<lambda_9cd88cf8ad10232537feb2133f08c833>@@@Z 1001b7e3 f i libucrt:commit.obj
 0001:0001a87b       ??$__acrt_lowio_lock_fh_and_call@V<lambda_6978c1fb23f02e42e1d9e99668cc68aa>@@@@YAHH$$QAV<lambda_6978c1fb23f02e42e1d9e99668cc68aa>@@@Z 1001b87b f i libucrt:commit.obj
 0001:0001a8a3       __commit                   1001b8a3 f   libucrt:commit.obj
 0001:0001a912       __query_app_type           1001b912 f   libucrt:report_runtime_error.obj
 0001:0001abbb       __getfpcontrolword         1001bbbb f   libucrt:_fenvutils.obj
 0001:0001abfe       __getfpstatusword          1001bbfe f   libucrt:_fenvutils.obj
 0001:0001aca6       __setfpcontrolword         1001bca6 f   libucrt:_fenvutils.obj
 0001:0001ad26       __setfpstatusword          1001bd26 f   libucrt:_fenvutils.obj
 0001:0001ada6       __clearfp                  1001bda6 f   libucrt:ieee87.obj
 0001:0001ae84       ___acrt_initialize_sse2    1001be84 f   libucrt:mathfcns.obj
 0001:0001aea0       __CIlog10_pentium4         1001bea0 f   libucrt:log10_pentium4.obj
 0001:0001aeb8       __log10_pentium4           1001beb8     libucrt:log10_pentium4.obj
 0001:0001b141       __fFEXP                    1001c141     libucrt:87tran.obj
 0001:0001b198       __rtinfpopse               1001c198     libucrt:87tran.obj
 0001:0001b19a       __rtinfnpopse              1001c19a     libucrt:87tran.obj
 0001:0001b1aa       __fFLN                     1001c1aa     libucrt:87tran.obj
 0001:0001b25f       __rtinfpop                 1001c25f     libucrt:87tran.obj
 0001:0001b261       __rtinfnpop                1001c261     libucrt:87tran.obj
 0001:0001b27e       __ffexpm1                  1001c27e     libucrt:87tran.obj
 0001:0001b330       __trandisp1                1001c330 f   libucrt:87disp.obj
 0001:0001b397       __trandisp2                1001c397 f   libucrt:87disp.obj
 0001:0001b423       __rttospopde               1001c423     libucrt:87disp.obj
 0001:0001b428       __rttospop                 1001c428     libucrt:87disp.obj
 0001:0001b42a       __rtnospop                 1001c42a     libucrt:87disp.obj
 0001:0001b42c       __rttosnpop                1001c42c     libucrt:87disp.obj
 0001:0001b42d       __rtnospopde               1001c42d     libucrt:87disp.obj
 0001:0001b434       __rtzeropop                1001c434     libucrt:87disp.obj
 0001:0001b436       __rtzeronpop               1001c436     libucrt:87disp.obj
 0001:0001b43b       __rtzerospop               1001c43b     libucrt:87disp.obj
 0001:0001b448       __rtonepop                 1001c448     libucrt:87disp.obj
 0001:0001b44a       __rtonenpop                1001c44a     libucrt:87disp.obj
 0001:0001b44f       __tosnan1                  1001c44f     libucrt:87disp.obj
 0001:0001b47a       __nosnan2                  1001c47a     libucrt:87disp.obj
 0001:0001b47c       __tosnan2                  1001c47c     libucrt:87disp.obj
 0001:0001b4a4       __nan2                     1001c4a4     libucrt:87disp.obj
 0001:0001b4e3       __rtindfpop                1001c4e3     libucrt:87disp.obj
 0001:0001b4e5       __rtindfnpop               1001c4e5     libucrt:87disp.obj
 0001:0001b4f6       __rttosnpopde              1001c4f6     libucrt:87disp.obj
 0001:0001b500       __rtatan2inf               1001c500     libucrt:87disp.obj
 0001:0001b51d       __rtchsifneg               1001c51d     libucrt:87disp.obj
 0001:0001b530       __twoToTOS                 1001c530 f   libucrt:common.obj
 0001:0001b545       __load_CW                  1001c545 f   libucrt:common.obj
 0001:0001b55c       __convertTOStoQNaN         1001c55c f   libucrt:common.obj
 0001:0001b575       __fload_withFB             1001c575 f   libucrt:common.obj
 0001:0001b5b8       __checkTOS_withFB          1001c5b8 f   libucrt:common.obj
 0001:0001b5ce       __fast_exit                1001c5ce f   libucrt:common.obj
 0001:0001b5db       __math_exit                1001c5db f   libucrt:common.obj
 0001:0001b605       __check_overflow_exit      1001c605 f   libucrt:common.obj
 0001:0001b619       __check_range_exit         1001c619 f   libucrt:common.obj
 0001:0001b6c0       __startTwoArgErrorHandling 1001c6c0 f   libucrt:genexcep.obj
 0001:0001b6d7       __startOneArgErrorHandling 1001c6d7 f   libucrt:genexcep.obj
 0001:0001b713       ___libm_error_support      1001c713 f   libucrt:libm_error.obj
 0001:0001b92b       __ceil_default             1001c92b f   libucrt:ceil.obj
 0001:0001b9e4       __putwch_nolock            1001c9e4 f   libucrt:putwch.obj
 0001:0001ba29       ??$?RV<lambda_123407a5e2ac06da108355a851863b7a>@@AAV<lambda_2fe9b910cf3cbf4a0ab98a02ba45b3ec>@@V<lambda_ae55bdf541ad94d75914d381c370e64d>@@@?$__crt_seh_guarded_call@H@@QAEH$$QAV<lambda_123407a5e2ac06da108355a851863b7a>@@AAV<lambda_2fe9b910cf3cbf4a0ab98a02ba45b3ec>@@$$QAV<lambda_ae55bdf541ad94d75914d381c370e64d>@@@Z 1001ca29 f i libucrt:close.obj
 0001:0001baab       ??$__acrt_lowio_lock_fh_and_call@V<lambda_2fe9b910cf3cbf4a0ab98a02ba45b3ec>@@@@YAHH$$QAV<lambda_2fe9b910cf3cbf4a0ab98a02ba45b3ec>@@@Z 1001caab f i libucrt:close.obj
 0001:0001bad3       __close                    1001cad3 f   libucrt:close.obj
 0001:0001bb52       __close_nolock             1001cb52 f   libucrt:close.obj
 0001:0001bbee       ?__acrt_stdio_free_stream@@YAXV__crt_stdio_stream@@@Z 1001cbee f   libucrt:stream.obj
 0001:0001bc30       ___ascii_strnicmp          1001cc30 f   libucrt:_strnicm.obj
 0001:0001bc91       __clrfp                    1001cc91 f   libucrt:fpctrl.obj
 0001:0001bca4       __ctrlfp                   1001cca4 f   libucrt:fpctrl.obj
 0001:0001bcd0       __set_statfp               1001ccd0 f   libucrt:fpctrl.obj
 0001:0001bd2b       __statfp                   1001cd2b f   libucrt:fpctrl.obj
 0001:0001bd3d       __d_inttype                1001cd3d f   libucrt:powhlp.obj
 0001:0001bda7       __powhlp                   1001cda7 f   libucrt:powhlp.obj
 0001:0001bed2       __87except                 1001ced2 f   libucrt:87except.obj
 0001:0001bfdd       __frnd                     1001cfdd f   libucrt:frnd.obj
 0001:0001bff3       __errcode                  1001cff3 f   libucrt:fpexcept.obj
 0001:0001c027       __except1                  1001d027 f   libucrt:fpexcept.obj
 0001:0001c0f5       __handle_exc               1001d0f5 f   libucrt:fpexcept.obj
 0001:0001c2d5       __raise_exc                1001d2d5 f   libucrt:fpexcept.obj
 0001:0001c2f8       __raise_exc_ex             1001d2f8 f   libucrt:fpexcept.obj
 0001:0001c5e9       __set_errno_from_matherr   1001d5e9 f   libucrt:fpexcept.obj
 0001:0001c618       __umatherr                 1001d618 f   libucrt:fpexcept.obj
 0001:0001c6ba       __decomp                   1001d6ba f   libucrt:util.obj
 0001:0001c78e       __set_exp                  1001d78e f   libucrt:util.obj
 0001:0001c7bd       __sptype                   1001d7bd f   libucrt:util.obj
 0001:0001c81b       ___dcrt_lowio_initialize_console_output 1001d81b f   libucrt:initcon.obj
 0001:0001c83a       ___dcrt_terminate_console_output 1001d83a f   libucrt:initcon.obj
 0001:0001c851       __fpclass                  1001d851 f   libucrt:ieeemisc.obj
 0001:0001c8f5       _IsProcessorFeaturePresent@4 1001d8f5 f   kernel32:KERNEL32.dll
 0001:0001c900       __FindPESection            1001d900 f   LIBCMT:pesect.obj
 0001:0001c950       __IsNonwritableInCurrentImage 1001d950 f   LIBCMT:pesect.obj
 0001:0001ca10       __ValidateImageBase        1001da10 f   LIBCMT:pesect.obj
 0001:0001ca43       __EH_prolog3_catch         1001da43 f   LIBCMT:ehprolg3.obj
 0001:0001ca80       __aulldvrm                 1001da80 f   LIBCMT:ulldvrm.obj
 0001:0001cb20       __allmul                   1001db20 f   LIBCMT:llmul.obj
 0001:0001cb60       __alldvrm                  1001db60 f   LIBCMT:lldvrm.obj
 0001:0001cc40       __aullshr                  1001dc40 f   LIBCMT:ullshr.obj
 0001:0001cc60       __allshl                   1001dc60 f   LIBCMT:llshl.obj
 0001:0001cc80       __ftol2_sse                1001dc80 f   LIBCMT:ftol2.obj
 0001:0001cc89       __ftol2_pentium4           1001dc89 f   LIBCMT:ftol2.obj
 0001:0001cc9c       __ftol2_sse_excpt          1001dc9c f   LIBCMT:ftol2.obj
 0001:0001ccc0       __ftol2                    1001dcc0 f   LIBCMT:ftol2.obj
 0001:0001cd40       _strrchr                   1001dd40 f   libvcruntime:strrchr.obj
 0001:0001ce80       _strchr                    1001de80 f   libvcruntime:strchr.obj
 0001:0001ceee       ___from_strstr_to_strchr   1001deee     libvcruntime:strchr.obj
 0002:00000000       __imp__RegQueryValueExW@24 1001f000     advapi32:ADVAPI32.dll
 0002:00000004       __imp__RegSetValueExW@24   1001f004     advapi32:ADVAPI32.dll
 0002:00000008       __imp__RegQueryInfoKeyW@48 1001f008     advapi32:ADVAPI32.dll
 0002:0000000c       __imp__RegOpenKeyExW@20    1001f00c     advapi32:ADVAPI32.dll
 0002:00000010       __imp__RegEnumKeyExW@32    1001f010     advapi32:ADVAPI32.dll
 0002:00000014       __imp__RegDeleteValueW@8   1001f014     advapi32:ADVAPI32.dll
 0002:00000018       __imp__RegDeleteKeyW@8     1001f018     advapi32:ADVAPI32.dll
 0002:0000001c       __imp__RegCreateKeyExW@36  1001f01c     advapi32:ADVAPI32.dll
 0002:00000020       __imp__RegCloseKey@4       1001f020     advapi32:ADVAPI32.dll
 0002:00000024       \177ADVAPI32_NULL_THUNK_DATA 1001f024     advapi32:ADVAPI32.dll
 0002:00000028       __imp__GetObjectW@12       1001f028     gdi32:GDI32.dll
 0002:0000002c       __imp__SelectObject@8      1001f02c     gdi32:GDI32.dll
 0002:00000030       __imp__DeleteObject@4      1001f030     gdi32:GDI32.dll
 0002:00000034       __imp__CreateCompatibleDC@4 1001f034     gdi32:GDI32.dll
 0002:00000038       __imp__BitBlt@36           1001f038     gdi32:GDI32.dll
 0002:0000003c       __imp__SetWindowOrgEx@16   1001f03c     gdi32:GDI32.dll
 0002:00000040       __imp__SetWindowExtEx@16   1001f040     gdi32:GDI32.dll
 0002:00000044       __imp__SetViewportOrgEx@16 1001f044     gdi32:GDI32.dll
 0002:00000048       __imp__LPtoDP@12           1001f048     gdi32:GDI32.dll
 0002:0000004c       __imp__SetMapMode@8        1001f04c     gdi32:GDI32.dll
 0002:00000050       __imp__SaveDC@4            1001f050     gdi32:GDI32.dll
 0002:00000054       __imp__RestoreDC@8         1001f054     gdi32:GDI32.dll
 0002:00000058       __imp__GetDeviceCaps@8     1001f058     gdi32:GDI32.dll
 0002:0000005c       __imp__DeleteMetaFile@4    1001f05c     gdi32:GDI32.dll
 0002:00000060       __imp__DeleteDC@4          1001f060     gdi32:GDI32.dll
 0002:00000064       __imp__CreateRectRgnIndirect@4 1001f064     gdi32:GDI32.dll
 0002:00000068       __imp__CreateMetaFileW@4   1001f068     gdi32:GDI32.dll
 0002:0000006c       __imp__CreateDCW@16        1001f06c     gdi32:GDI32.dll
 0002:00000070       __imp__CloseMetaFile@4     1001f070     gdi32:GDI32.dll
 0002:00000074       \177GDI32_NULL_THUNK_DATA  1001f074     gdi32:GDI32.dll
 0002:00000078       __imp__CloseHandle@4       1001f078     kernel32:KERNEL32.dll
 0002:0000007c       __imp__SetEvent@4          1001f07c     kernel32:KERNEL32.dll
 0002:00000080       __imp__CreateMutexW@12     1001f080     kernel32:KERNEL32.dll
 0002:00000084       __imp__CreateEventW@16     1001f084     kernel32:KERNEL32.dll
 0002:00000088       __imp__GetCurrentProcessId@0 1001f088     kernel32:KERNEL32.dll
 0002:0000008c       __imp__WriteConsoleW@20    1001f08c     kernel32:KERNEL32.dll
 0002:00000090       __imp__FlushFileBuffers@4  1001f090     kernel32:KERNEL32.dll
 0002:00000094       __imp__SetFilePointerEx@20 1001f094     kernel32:KERNEL32.dll
 0002:00000098       __imp__GetConsoleMode@8    1001f098     kernel32:KERNEL32.dll
 0002:0000009c       __imp__GetConsoleCP@0      1001f09c     kernel32:KERNEL32.dll
 0002:000000a0       __imp__WriteFile@20        1001f0a0     kernel32:KERNEL32.dll
 0002:000000a4       __imp__SetStdHandle@8      1001f0a4     kernel32:KERNEL32.dll
 0002:000000a8       __imp__GetStringTypeW@16   1001f0a8     kernel32:KERNEL32.dll
 0002:000000ac       __imp__FreeEnvironmentStringsW@4 1001f0ac     kernel32:KERNEL32.dll
 0002:000000b0       __imp__GetEnvironmentStringsW@0 1001f0b0     kernel32:KERNEL32.dll
 0002:000000b4       __imp__FindResourceW@12    1001f0b4     kernel32:KERNEL32.dll
 0002:000000b8       __imp__GetCommandLineA@0   1001f0b8     kernel32:KERNEL32.dll
 0002:000000bc       __imp__GetCPInfo@8         1001f0bc     kernel32:KERNEL32.dll
 0002:000000c0       __imp__GetOEMCP@0          1001f0c0     kernel32:KERNEL32.dll
 0002:000000c4       __imp__IsValidCodePage@4   1001f0c4     kernel32:KERNEL32.dll
 0002:000000c8       __imp__FindNextFileA@8     1001f0c8     kernel32:KERNEL32.dll
 0002:000000cc       __imp__FindFirstFileExA@24 1001f0cc     kernel32:KERNEL32.dll
 0002:000000d0       __imp__FindClose@4         1001f0d0     kernel32:KERNEL32.dll
 0002:000000d4       __imp__GetFileType@4       1001f0d4     kernel32:KERNEL32.dll
 0002:000000d8       __imp__GetStdHandle@4      1001f0d8     kernel32:KERNEL32.dll
 0002:000000dc       __imp__GetACP@0            1001f0dc     kernel32:KERNEL32.dll
 0002:000000e0       __imp__LCMapStringW@24     1001f0e0     kernel32:KERNEL32.dll
 0002:000000e4       __imp__HeapReAlloc@16      1001f0e4     kernel32:KERNEL32.dll
 0002:000000e8       __imp__lstrcmpiW@8         1001f0e8     kernel32:KERNEL32.dll
 0002:000000ec       __imp__MulDiv@12           1001f0ec     kernel32:KERNEL32.dll
 0002:000000f0       __imp__GlobalUnlock@4      1001f0f0     kernel32:KERNEL32.dll
 0002:000000f4       __imp__GlobalLock@4        1001f0f4     kernel32:KERNEL32.dll
 0002:000000f8       __imp__GlobalAlloc@8       1001f0f8     kernel32:KERNEL32.dll
 0002:000000fc       __imp__SizeofResource@8    1001f0fc     kernel32:KERNEL32.dll
 0002:00000100       __imp__LoadResource@8      1001f100     kernel32:KERNEL32.dll
 0002:00000104       __imp__LoadLibraryExW@12   1001f104     kernel32:KERNEL32.dll
 0002:00000108       __imp__GetProcAddress@8    1001f108     kernel32:KERNEL32.dll
 0002:0000010c       __imp__GetModuleHandleW@4  1001f10c     kernel32:KERNEL32.dll
 0002:00000110       __imp__GetModuleFileNameW@12 1001f110     kernel32:KERNEL32.dll
 0002:00000114       __imp__FreeLibrary@4       1001f114     kernel32:KERNEL32.dll
 0002:00000118       __imp__DisableThreadLibraryCalls@4 1001f118     kernel32:KERNEL32.dll
 0002:0000011c       __imp__GetCurrentThreadId@0 1001f11c     kernel32:KERNEL32.dll
 0002:00000120       __imp__Sleep@4             1001f120     kernel32:KERNEL32.dll
 0002:00000124       __imp__WaitForSingleObject@8 1001f124     kernel32:KERNEL32.dll
 0002:00000128       __imp__ReleaseMutex@4      1001f128     kernel32:KERNEL32.dll
 0002:0000012c       __imp__ResetEvent@4        1001f12c     kernel32:KERNEL32.dll
 0002:00000130       __imp__EnterCriticalSection@4 1001f130     kernel32:KERNEL32.dll
 0002:00000134       __imp__LeaveCriticalSection@4 1001f134     kernel32:KERNEL32.dll
 0002:00000138       __imp__SetLastError@4      1001f138     kernel32:KERNEL32.dll
 0002:0000013c       __imp__EncodePointer@4     1001f13c     kernel32:KERNEL32.dll
 0002:00000140       __imp__DeleteCriticalSection@4 1001f140     kernel32:KERNEL32.dll
 0002:00000144       __imp__InitializeCriticalSectionEx@12 1001f144     kernel32:KERNEL32.dll
 0002:00000148       __imp__GetLastError@0      1001f148     kernel32:KERNEL32.dll
 0002:0000014c       __imp__RaiseException@16   1001f14c     kernel32:KERNEL32.dll
 0002:00000150       __imp__DecodePointer@4     1001f150     kernel32:KERNEL32.dll
 0002:00000154       __imp__WideCharToMultiByte@32 1001f154     kernel32:KERNEL32.dll
 0002:00000158       __imp__GetCommandLineW@0   1001f158     kernel32:KERNEL32.dll
 0002:0000015c       __imp__MultiByteToWideChar@24 1001f15c     kernel32:KERNEL32.dll
 0002:00000160       __imp__HeapSize@12         1001f160     kernel32:KERNEL32.dll
 0002:00000164       __imp__CreateFileW@28      1001f164     kernel32:KERNEL32.dll
 0002:00000168       __imp__GetModuleFileNameA@12 1001f168     kernel32:KERNEL32.dll
 0002:0000016c       __imp__GetModuleHandleExW@12 1001f16c     kernel32:KERNEL32.dll
 0002:00000170       __imp__ExitProcess@4       1001f170     kernel32:KERNEL32.dll
 0002:00000174       __imp__VirtualQuery@12     1001f174     kernel32:KERNEL32.dll
 0002:00000178       __imp__VirtualProtect@16   1001f178     kernel32:KERNEL32.dll
 0002:0000017c       __imp__GetSystemInfo@4     1001f17c     kernel32:KERNEL32.dll
 0002:00000180       __imp__TlsFree@4           1001f180     kernel32:KERNEL32.dll
 0002:00000184       __imp__TlsSetValue@8       1001f184     kernel32:KERNEL32.dll
 0002:00000188       __imp__TlsGetValue@4       1001f188     kernel32:KERNEL32.dll
 0002:0000018c       __imp__TlsAlloc@0          1001f18c     kernel32:KERNEL32.dll
 0002:00000190       __imp__InterlockedFlushSList@4 1001f190     kernel32:KERNEL32.dll
 0002:00000194       __imp__RtlUnwind@16        1001f194     kernel32:KERNEL32.dll
 0002:00000198       __imp__LoadLibraryExA@12   1001f198     kernel32:KERNEL32.dll
 0002:0000019c       __imp__VirtualFree@12      1001f19c     kernel32:KERNEL32.dll
 0002:000001a0       __imp__VirtualAlloc@16     1001f1a0     kernel32:KERNEL32.dll
 0002:000001a4       __imp__FlushInstructionCache@12 1001f1a4     kernel32:KERNEL32.dll
 0002:000001a8       __imp__InterlockedPushEntrySList@8 1001f1a8     kernel32:KERNEL32.dll
 0002:000001ac       __imp__InterlockedPopEntrySList@4 1001f1ac     kernel32:KERNEL32.dll
 0002:000001b0       __imp__GetProcessHeap@0    1001f1b0     kernel32:KERNEL32.dll
 0002:000001b4       __imp__HeapFree@12         1001f1b4     kernel32:KERNEL32.dll
 0002:000001b8       __imp__HeapAlloc@12        1001f1b8     kernel32:KERNEL32.dll
 0002:000001bc       __imp__OutputDebugStringW@4 1001f1bc     kernel32:KERNEL32.dll
 0002:000001c0       __imp__InitializeSListHead@4 1001f1c0     kernel32:KERNEL32.dll
 0002:000001c4       __imp__GetSystemTimeAsFileTime@4 1001f1c4     kernel32:KERNEL32.dll
 0002:000001c8       __imp__QueryPerformanceCounter@4 1001f1c8     kernel32:KERNEL32.dll
 0002:000001cc       __imp__GetStartupInfoW@4   1001f1cc     kernel32:KERNEL32.dll
 0002:000001d0       __imp__IsDebuggerPresent@0 1001f1d0     kernel32:KERNEL32.dll
 0002:000001d4       __imp__IsProcessorFeaturePresent@4 1001f1d4     kernel32:KERNEL32.dll
 0002:000001d8       __imp__TerminateProcess@8  1001f1d8     kernel32:KERNEL32.dll
 0002:000001dc       __imp__InitializeCriticalSectionAndSpinCount@8 1001f1dc     kernel32:KERNEL32.dll
 0002:000001e0       __imp__WaitForSingleObjectEx@12 1001f1e0     kernel32:KERNEL32.dll
 0002:000001e4       __imp__UnhandledExceptionFilter@4 1001f1e4     kernel32:KERNEL32.dll
 0002:000001e8       __imp__SetUnhandledExceptionFilter@4 1001f1e8     kernel32:KERNEL32.dll
 0002:000001ec       __imp__GetCurrentProcess@0 1001f1ec     kernel32:KERNEL32.dll
 0002:000001f0       \177KERNEL32_NULL_THUNK_DATA 1001f1f0     kernel32:KERNEL32.dll
 0002:000001f4       __imp__OleCreatePropertyFrame@44 1001f1f4     oleaut32:OLEAUT32.dll
 0002:000001f8       __imp__UnRegisterTypeLib@20 1001f1f8     oleaut32:OLEAUT32.dll
 0002:000001fc       __imp__RegisterTypeLib@12  1001f1fc     oleaut32:OLEAUT32.dll
 0002:00000200       __imp__LoadRegTypeLib@20   1001f200     oleaut32:OLEAUT32.dll
 0002:00000204       __imp__LoadTypeLib@8       1001f204     oleaut32:OLEAUT32.dll
 0002:00000208       __imp__VarUI4FromStr@16    1001f208     oleaut32:OLEAUT32.dll
 0002:0000020c       __imp__VariantInit@4       1001f20c     oleaut32:OLEAUT32.dll
 0002:00000210       __imp__SysAllocStringByteLen@8 1001f210     oleaut32:OLEAUT32.dll
 0002:00000214       __imp__SysStringByteLen@4  1001f214     oleaut32:OLEAUT32.dll
 0002:00000218       __imp__VariantChangeType@16 1001f218     oleaut32:OLEAUT32.dll
 0002:0000021c       __imp__VariantClear@4      1001f21c     oleaut32:OLEAUT32.dll
 0002:00000220       __imp__SysStringLen@4      1001f220     oleaut32:OLEAUT32.dll
 0002:00000224       __imp__SysFreeString@4     1001f224     oleaut32:OLEAUT32.dll
 0002:00000228       __imp__SysAllocStringLen@8 1001f228     oleaut32:OLEAUT32.dll
 0002:0000022c       __imp__SysAllocString@4    1001f22c     oleaut32:OLEAUT32.dll
 0002:00000230       \177OLEAUT32_NULL_THUNK_DATA 1001f230     oleaut32:OLEAUT32.dll
 0002:00000234       __imp__UnregisterClassW@8  1001f234     user32:USER32.dll
 0002:00000238       __imp__PostMessageW@16     1001f238     user32:USER32.dll
 0002:0000023c       __imp__DefWindowProcW@16   1001f23c     user32:USER32.dll
 0002:00000240       __imp__CallWindowProcW@20  1001f240     user32:USER32.dll
 0002:00000244       __imp__RegisterClassExW@4  1001f244     user32:USER32.dll
 0002:00000248       __imp__GetClassInfoExW@12  1001f248     user32:USER32.dll
 0002:0000024c       __imp__CreateWindowExW@48  1001f24c     user32:USER32.dll
 0002:00000250       __imp__IsWindow@4          1001f250     user32:USER32.dll
 0002:00000254       __imp__IsChild@8           1001f254     user32:USER32.dll
 0002:00000258       __imp__DestroyWindow@4     1001f258     user32:USER32.dll
 0002:0000025c       __imp__ShowWindow@8        1001f25c     user32:USER32.dll
 0002:00000260       __imp__SetWindowPos@28     1001f260     user32:USER32.dll
 0002:00000264       __imp__CharNextW@4         1001f264     user32:USER32.dll
 0002:00000268       __imp__SetFocus@4          1001f268     user32:USER32.dll
 0002:0000026c       __imp__LoadBitmapW@8       1001f26c     user32:USER32.dll
 0002:00000270       __imp__RegisterClassW@4    1001f270     user32:USER32.dll
 0002:00000274       __imp__PeekMessageW@20     1001f274     user32:USER32.dll
 0002:00000278       __imp__LoadCursorW@8       1001f278     user32:USER32.dll
 0002:0000027c       __imp__GetParent@4         1001f27c     user32:USER32.dll
 0002:00000280       __imp__SetWindowLongW@12   1001f280     user32:USER32.dll
 0002:00000284       __imp__GetWindowLongW@8    1001f284     user32:USER32.dll
 0002:00000288       __imp__PtInRect@12         1001f288     user32:USER32.dll
 0002:0000028c       __imp__EqualRect@8         1001f28c     user32:USER32.dll
 0002:00000290       __imp__OffsetRect@12       1001f290     user32:USER32.dll
 0002:00000294       __imp__UnionRect@12        1001f294     user32:USER32.dll
 0002:00000298       __imp__IntersectRect@12    1001f298     user32:USER32.dll
 0002:0000029c       __imp__GetClientRect@8     1001f29c     user32:USER32.dll
 0002:000002a0       __imp__InvalidateRect@12   1001f2a0     user32:USER32.dll
 0002:000002a4       __imp__SetWindowRgn@12     1001f2a4     user32:USER32.dll
 0002:000002a8       __imp__EndPaint@8          1001f2a8     user32:USER32.dll
 0002:000002ac       __imp__BeginPaint@8        1001f2ac     user32:USER32.dll
 0002:000002b0       __imp__ReleaseDC@8         1001f2b0     user32:USER32.dll
 0002:000002b4       __imp__GetDC@4             1001f2b4     user32:USER32.dll
 0002:000002b8       __imp__GetKeyState@4       1001f2b8     user32:USER32.dll
 0002:000002bc       __imp__GetFocus@0          1001f2bc     user32:USER32.dll
 0002:000002c0       \177USER32_NULL_THUNK_DATA 1001f2c0     user32:USER32.dll
 0002:000002c4       __imp__CoCreateInstance@20 1001f2c4     ole32:ole32.dll
 0002:000002c8       __imp__StringFromGUID2@12  1001f2c8     ole32:ole32.dll
 0002:000002cc       __imp__CoTaskMemRealloc@8  1001f2cc     ole32:ole32.dll
 0002:000002d0       __imp__CoTaskMemFree@4     1001f2d0     ole32:ole32.dll
 0002:000002d4       __imp__CreateDataAdviseHolder@4 1001f2d4     ole32:ole32.dll
 0002:000002d8       __imp__ReadClassStm@8      1001f2d8     ole32:ole32.dll
 0002:000002dc       __imp__WriteClassStm@8     1001f2dc     ole32:ole32.dll
 0002:000002e0       __imp__OleSaveToStream@8   1001f2e0     ole32:ole32.dll
 0002:000002e4       __imp__CreateOleAdviseHolder@4 1001f2e4     ole32:ole32.dll
 0002:000002e8       __imp__OleRegGetUserType@12 1001f2e8     ole32:ole32.dll
 0002:000002ec       __imp__OleRegGetMiscStatus@12 1001f2ec     ole32:ole32.dll
 0002:000002f0       __imp__OleRegEnumVerbs@8   1001f2f0     ole32:ole32.dll
 0002:000002f4       __imp__CLSIDFromProgID@8   1001f2f4     ole32:ole32.dll
 0002:000002f8       __imp__CoTaskMemAlloc@4    1001f2f8     ole32:ole32.dll
 0002:000002fc       \177ole32_NULL_THUNK_DATA  1001f2fc     ole32:ole32.dll
 0002:00000300       ___guard_check_icall_fptr  1001f300     LIBCMT:guard_support.obj
 0002:00000304       ___xc_a                    1001f304     LIBCMT:initializers.obj
 0002:0000031c       ___xc_z                    1001f31c     LIBCMT:initializers.obj
 0002:00000320       ___xi_a                    1001f320     LIBCMT:initializers.obj
 0002:00000328       ___acrt_stdio_initializer  1001f328     libucrt:stdio_initializer.obj
 0002:0000032c       ___acrt_multibyte_initializer 1001f32c     libucrt:multibyte_initializer.obj
 0002:00000330       ___acrt_tran_sse2_initializer 1001f330     libucrt:sse2_initializer.obj
 0002:00000334       ___xi_z                    1001f334     LIBCMT:initializers.obj
 0002:00000338       ___xl_a                    1001f338     LIBCMT:tlssup.obj
 0002:0000033c       ___xl_z                    1001f33c     LIBCMT:tlssup.obj
 0002:00000340       ___xp_a                    1001f340     LIBCMT:initializers.obj
 0002:00000344       ___acrt_locale_terminator  1001f344     libucrt:locale_initializer.obj
 0002:00000348       ___dcrt_console_output_terminator 1001f348     libucrt:console_output_initializer.obj
 0002:0000034c       ___acrt_stdio_terminator   1001f34c     libucrt:stdio_initializer.obj
 0002:00000350       ___xp_z                    1001f350     LIBCMT:initializers.obj
 0002:00000354       ___xt_a                    1001f354     LIBCMT:initializers.obj
 0002:00000358       ___xt_z                    1001f358     LIBCMT:initializers.obj
 0002:00000360       ??_C@_13HADIAKP@?$AAS@     1001f360     OposVariant.obj
 0002:00000364       ??_C@_13LHMFKAAD@?$AAM@    1001f364     OposVariant.obj
 0002:00000368       ??_C@_13MKMNOPIJ@?$AAD@    1001f368     OposVariant.obj
 0002:0000036c       ??_C@_13OPKGLAFF@?$AAB@    1001f36c     OposVariant.obj
 0002:00000370       ??_C@_17LLMMEOJD@?$AAV?$AAa?$AAl@ 1001f370     OposVariant.obj
 0002:00000378       ??_C@_1BI@JFAIJMHL@?$AAF?$AAo?$AAr?$AAc?$AAe?$AAR?$AAe?$AAm?$AAo?$AAv?$AAe@ 1001f378     OposVariant.obj
 0002:00000390       ??_C@_1BC@GCKHIPE@?$AAN?$AAo?$AAR?$AAe?$AAm?$AAo?$AAv?$AAe@ 1001f390     OposVariant.obj
 0002:000003a4       ??_C@_1O@JDLOHAN@?$AAD?$AAe?$AAl?$AAe?$AAt?$AAe@ 1001f3a4     OposVariant.obj
 0002:000003b4       ??_C@_11LOCGONAA@@         1001f3b4     OposVariant.obj
 0002:000003b8       __GUID_b196b284_bab4_101a_b69c_00aa00341d07 1001f3b8     SmartCardRW.obj
 0002:000003c8       __GUID_00000113_0000_0000_c000_000000000046 1001f3c8     SmartCardRW.obj
 0002:000003d8       __GUID_1c2056cc_5ef4_101b_8bc8_00aa003e3b29 1001f3d8     SmartCardRW.obj
 0002:000003e8       __GUID_00000112_0000_0000_c000_000000000046 1001f3e8     SmartCardRW.obj
 0002:000003f8       ??_7?$CComObjectCached@VCComClassFactory@ATL@@@ATL@@6B@ 1001f3f8     SmartCardRW.obj
 0002:00000410       __GUID_3af24292_0c96_11ce_a0cf_00aa00600ab8 1001f410     SmartCardRW.obj
 0002:00000420       __GUID_00000127_0000_0000_c000_000000000046 1001f420     SmartCardRW.obj
 0002:00000430       __GUID_0000010d_0000_0000_c000_000000000046 1001f430     SmartCardRW.obj
 0002:00000440       ??_C@_1M@PPPPCDEP@?$AAA?$AAP?$AAP?$AAI?$AAD@ 1001f440     SmartCardRW.obj
 0002:0000044c       ??_7?$CComContainedObject@VCOPOSSmartCardRW@@@ATL@@6B?$IDispatchImpl@UIOPOSSmartCardRW@@$1?IID_IOPOSSmartCardRW@@3U_GUID@@B$1?LIBID_OposSmartCardRW_CCO@@3U3@B$00$0A@VCComTypeInfoHolder@ATL@@@1@@ 1001f44c     SmartCardRW.obj
 0002:00000584       ??_7?$CComContainedObject@VCOPOSSmartCardRW@@@ATL@@6BCComControlBase@1@@ 1001f584     SmartCardRW.obj
 0002:00000598       ??_7?$CComContainedObject@VCOPOSSmartCardRW@@@ATL@@6B?$CWindowImpl@VCOPOSSmartCardRW@@VCWindow@ATL@@V?$CWinTraits@$0FGAAAAAA@$0A@@3@@1@@ 1001f598     SmartCardRW.obj
 0002:000005a8       ??_7?$CComContainedObject@VCOPOSSmartCardRW@@@ATL@@6B?$IPersistStreamInitImpl@VCOPOSSmartCardRW@@@1@@ 1001f5a8     SmartCardRW.obj
 0002:000005cc       ??_7?$CComContainedObject@VCOPOSSmartCardRW@@@ATL@@6B?$IOleControlImpl@VCOPOSSmartCardRW@@@1@@ 1001f5cc     SmartCardRW.obj
 0002:000005e8       ??_7?$CComContainedObject@VCOPOSSmartCardRW@@@ATL@@6B?$IOleObjectImpl@VCOPOSSmartCardRW@@@1@@ 1001f5e8     SmartCardRW.obj
 0002:00000648       ??_7?$CComContainedObject@VCOPOSSmartCardRW@@@ATL@@6B?$IOleInPlaceActiveObjectImpl@VCOPOSSmartCardRW@@@1@@ 1001f648     SmartCardRW.obj
 0002:00000670       ??_7?$CComContainedObject@VCOPOSSmartCardRW@@@ATL@@6B?$IViewObjectExImpl@VCOPOSSmartCardRW@@@1@@ 1001f670     SmartCardRW.obj
 0002:000006ac       ??_7?$CComContainedObject@VCOPOSSmartCardRW@@@ATL@@6B?$IOleInPlaceObjectWindowlessImpl@VCOPOSSmartCardRW@@@1@@ 1001f6ac     SmartCardRW.obj
 0002:000006d8       ??_7?$CComContainedObject@VCOPOSSmartCardRW@@@ATL@@6B?$IConnectionPointContainerImpl@VCOPOSSmartCardRW@@@1@@ 1001f6d8     SmartCardRW.obj
 0002:000006ec       ??_7?$CComContainedObject@VCOPOSSmartCardRW@@@ATL@@6B?$IPersistStorageImpl@VCOPOSSmartCardRW@@@1@@ 1001f6ec     SmartCardRW.obj
 0002:00000714       ??_7?$CComContainedObject@VCOPOSSmartCardRW@@@ATL@@6B?$ISpecifyPropertyPagesImpl@VCOPOSSmartCardRW@@@1@@ 1001f714     SmartCardRW.obj
 0002:00000724       ??_7?$CComContainedObject@VCOPOSSmartCardRW@@@ATL@@6B?$IQuickActivateImpl@VCOPOSSmartCardRW@@@1@@ 1001f724     SmartCardRW.obj
 0002:0000073c       ??_7?$CComContainedObject@VCOPOSSmartCardRW@@@ATL@@6B?$IDataObjectImpl@VCOPOSSmartCardRW@@@1@@ 1001f73c     SmartCardRW.obj
 0002:0000076c       ??_7?$CComContainedObject@VCOPOSSmartCardRW@@@ATL@@6B?$IProvideClassInfo2Impl@$1?CLSID_OPOSSmartCardRW@@3U_GUID@@B$1?DIID__IOPOSSmartCardRWEvents@@3U2@B$1?LIBID_OposSmartCardRW_CCO@@3U2@B$00$0A@VCComTypeInfoHolder@ATL@@@1@@ 1001f76c     SmartCardRW.obj
 0002:00000780       ??_7?$CComContainedObject@VCOPOSSmartCardRW@@@ATL@@6B?$IObjectSafetyImpl@VCOPOSSmartCardRW@@$02@1@@ 1001f780     SmartCardRW.obj
 0002:00000798       ??_7?$CComContainedObject@VCOPOSSmartCardRW@@@ATL@@6B?$IPropertyNotifySinkCP@VCOPOSSmartCardRW@@VCComDynamicUnkArray@ATL@@@1@@ 1001f798     SmartCardRW.obj
 0002:000007b8       ??_7?$CComContainedObject@VCOPOSSmartCardRW@@@ATL@@6B?$CProxy_IOPOSEvents@VCOPOSSmartCardRW@@@@@ 1001f7b8     SmartCardRW.obj
 0002:000007d8       ??_7?$CComAggObject@VCOPOSSmartCardRW@@@ATL@@6B@ 1001f7d8     SmartCardRW.obj
 0002:000007e8       ??_7?$CComObject@VCOPOSSmartCardRW@@@ATL@@6B?$IDispatchImpl@UIOPOSSmartCardRW@@$1?IID_IOPOSSmartCardRW@@3U_GUID@@B$1?LIBID_OposSmartCardRW_CCO@@3U3@B$00$0A@VCComTypeInfoHolder@ATL@@@1@@ 1001f7e8     SmartCardRW.obj
 0002:00000920       ??_7?$CComObject@VCOPOSSmartCardRW@@@ATL@@6BCComControlBase@1@@ 1001f920     SmartCardRW.obj
 0002:00000934       ??_7?$CComObject@VCOPOSSmartCardRW@@@ATL@@6B?$CWindowImpl@VCOPOSSmartCardRW@@VCWindow@ATL@@V?$CWinTraits@$0FGAAAAAA@$0A@@3@@1@@ 1001f934     SmartCardRW.obj
 0002:00000944       ??_7?$CComObject@VCOPOSSmartCardRW@@@ATL@@6B?$IPersistStreamInitImpl@VCOPOSSmartCardRW@@@1@@ 1001f944     SmartCardRW.obj
 0002:00000968       ??_7?$CComObject@VCOPOSSmartCardRW@@@ATL@@6B?$IOleControlImpl@VCOPOSSmartCardRW@@@1@@ 1001f968     SmartCardRW.obj
 0002:00000984       ??_7?$CComObject@VCOPOSSmartCardRW@@@ATL@@6B?$IOleObjectImpl@VCOPOSSmartCardRW@@@1@@ 1001f984     SmartCardRW.obj
 0002:000009e4       ??_7?$CComObject@VCOPOSSmartCardRW@@@ATL@@6B?$IOleInPlaceActiveObjectImpl@VCOPOSSmartCardRW@@@1@@ 1001f9e4     SmartCardRW.obj
 0002:00000a0c       ??_7?$CComObject@VCOPOSSmartCardRW@@@ATL@@6B?$IViewObjectExImpl@VCOPOSSmartCardRW@@@1@@ 1001fa0c     SmartCardRW.obj
 0002:00000a48       ??_7?$CComObject@VCOPOSSmartCardRW@@@ATL@@6B?$IOleInPlaceObjectWindowlessImpl@VCOPOSSmartCardRW@@@1@@ 1001fa48     SmartCardRW.obj
 0002:00000a74       ??_7?$CComObject@VCOPOSSmartCardRW@@@ATL@@6B?$IConnectionPointContainerImpl@VCOPOSSmartCardRW@@@1@@ 1001fa74     SmartCardRW.obj
 0002:00000a88       ??_7?$CComObject@VCOPOSSmartCardRW@@@ATL@@6B?$IPersistStorageImpl@VCOPOSSmartCardRW@@@1@@ 1001fa88     SmartCardRW.obj
 0002:00000ab0       ??_7?$CComObject@VCOPOSSmartCardRW@@@ATL@@6B?$ISpecifyPropertyPagesImpl@VCOPOSSmartCardRW@@@1@@ 1001fab0     SmartCardRW.obj
 0002:00000ac0       ??_7?$CComObject@VCOPOSSmartCardRW@@@ATL@@6B?$IQuickActivateImpl@VCOPOSSmartCardRW@@@1@@ 1001fac0     SmartCardRW.obj
 0002:00000ad8       ??_7?$CComObject@VCOPOSSmartCardRW@@@ATL@@6B?$IDataObjectImpl@VCOPOSSmartCardRW@@@1@@ 1001fad8     SmartCardRW.obj
 0002:00000b08       ??_7?$CComObject@VCOPOSSmartCardRW@@@ATL@@6B?$IProvideClassInfo2Impl@$1?CLSID_OPOSSmartCardRW@@3U_GUID@@B$1?DIID__IOPOSSmartCardRWEvents@@3U2@B$1?LIBID_OposSmartCardRW_CCO@@3U2@B$00$0A@VCComTypeInfoHolder@ATL@@@1@@ 1001fb08     SmartCardRW.obj
 0002:00000b1c       ??_7?$CComObject@VCOPOSSmartCardRW@@@ATL@@6B?$IObjectSafetyImpl@VCOPOSSmartCardRW@@$02@1@@ 1001fb1c     SmartCardRW.obj
 0002:00000b34       ??_7?$CComObject@VCOPOSSmartCardRW@@@ATL@@6B?$IPropertyNotifySinkCP@VCOPOSSmartCardRW@@VCComDynamicUnkArray@ATL@@@1@@ 1001fb34     SmartCardRW.obj
 0002:00000b54       ??_7?$CComObject@VCOPOSSmartCardRW@@@ATL@@6B?$CProxy_IOPOSEvents@VCOPOSSmartCardRW@@@@@ 1001fb54     SmartCardRW.obj
 0002:00000b74       ??_C@_1O@GBFKGNEO@?$AAA?$AAT?$AAL?$AA?3?$AA?$CF?$AAp@ 1001fb74     SmartCardRW.obj
 0002:00000b84       ??_C@_1BA@PICGEGJB@?$AAD?$AAI?$AAS?$AAP?$AAL?$AAA?$AAY@ 1001fb84     SmartCardRW.obj
 0002:00000b94       __GUID_9bfbbc02_eff1_101a_84ed_00aa00341d07 1001fb94     SmartCardRW.obj
 0002:00000ba4       ??_7CComClassFactory@ATL@@6B@ 1001fba4     SmartCardRW.obj
 0002:00000bbc       ?_entries@?1??_GetEntries@CComClassFactory@ATL@@SGPBU_ATL_INTMAP_ENTRY@3@XZ@4QBU43@B 1001fbbc     SmartCardRW.obj
 0002:00000bd4       __GUID_00000001_0000_0000_c000_000000000046 1001fbd4     SmartCardRW.obj
 0002:00000be4       ?_entries@?1??_GetEntries@?$CComEnum@UIEnumConnectionPoints@@$1?_GUID_b196b285_bab4_101a_b69c_00aa00341d07@@3U__s_GUID@@BPAUIConnectionPoint@@V?$_CopyInterface@UIConnectionPoint@@@ATL@@VCComSingleThreadModel@6@@ATL@@SGPBU_ATL_INTMAP_ENTRY@3@XZ@4QBU43@B 1001fbe4     SmartCardRW.obj
 0002:00000bfc       __GUID_00020412_0000_0000_c000_000000000046 1001fbfc     SmartCardRW.obj
 0002:00000c0c       __GUID_00020401_0000_0000_c000_000000000046 1001fc0c     SmartCardRW.obj
 0002:00000c1c       __GUID_55980ba0_35aa_11cf_b671_00aa004cd6d8 1001fc1c     SmartCardRW.obj
 0002:00000c2c       ??_7?$CComObject@V?$CComEnum@UIEnumConnections@@$1?_GUID_b196b287_bab4_101a_b69c_00aa00341d07@@3U__s_GUID@@BUtagCONNECTDATA@@V?$_Copy@UtagCONNECTDATA@@@ATL@@VCComSingleThreadModel@6@@ATL@@@ATL@@6B@ 1001fc2c     SmartCardRW.obj
 0002:00000c4c       __GUID_b196b28b_bab4_101a_b69c_00aa00341d07 1001fc4c     SmartCardRW.obj
 0002:00000c5c       ??_C@_1BK@BIGILECK@?$AAA?$AAd?$AAv?$AAa?$AAp?$AAi?$AA3?$AA2?$AA?4?$AAd?$AAl?$AAl@ 1001fc5c     SmartCardRW.obj
 0002:00000c78       ??_C@_0BI@MNCFCPFK@RegCreateKeyTransactedW@ 1001fc78     SmartCardRW.obj
 0002:00000c90       __GUID_b196b287_bab4_101a_b69c_00aa00341d07 1001fc90     SmartCardRW.obj
 0002:00000ca0       __GUID_b196b285_bab4_101a_b69c_00aa00341d07 1001fca0     SmartCardRW.obj
 0002:00000cb0       ?_entries@?1??_GetEntries@?$CComEnum@UIEnumConnections@@$1?_GUID_b196b287_bab4_101a_b69c_00aa00341d07@@3U__s_GUID@@BUtagCONNECTDATA@@V?$_Copy@UtagCONNECTDATA@@@ATL@@VCComSingleThreadModel@6@@ATL@@SGPBU_ATL_INTMAP_ENTRY@3@XZ@4QBU43@B 1001fcb0     SmartCardRW.obj
 0002:00000cc8       __GUID_a6bc3ac0_dbaa_11ce_9de3_00aa004bb851 1001fcc8     SmartCardRW.obj
 0002:00000cd8       __GUID_0000010c_0000_0000_c000_000000000046 1001fcd8     SmartCardRW.obj
 0002:00000ce8       __GUID_00000146_0000_0000_c000_000000000046 1001fce8     SmartCardRW.obj
 0002:00000cf8       ??_7CComModule@ATL@@6B@    1001fcf8     SmartCardRW.obj
 0002:00000d20       _IID_IOPOSSmartCardRW_1_8  1001fd20     SmartCardRW.obj
 0002:00000d30       _IID_IOPOSSmartCardRW_1_9  1001fd30     SmartCardRW.obj
 0002:00000d40       _IID_IOPOSSmartCardRW_1_10 1001fd40     SmartCardRW.obj
 0002:00000d50       _IID_IOPOSSmartCardRW      1001fd50     SmartCardRW.obj
 0002:00000d60       _LIBID_OposSmartCardRW_CCO 1001fd60     SmartCardRW.obj
 0002:00000d70       _DIID__IOPOSSmartCardRWEvents 1001fd70     SmartCardRW.obj
 0002:00000d80       _CLSID_OPOSSmartCardRW     1001fd80     SmartCardRW.obj
 0002:00000d90       __GUID_00000000_0000_0000_c000_000000000046 1001fd90     SmartCardRW.obj
 0002:00000da0       __GUID_00020400_0000_0000_c000_000000000046 1001fda0     SmartCardRW.obj
 0002:00000db0       __GUID_00000114_0000_0000_c000_000000000046 1001fdb0     SmartCardRW.obj
 0002:00000dc0       ??_C@_1M@KANJNLFF@?$AAC?$AAL?$AAS?$AAI?$AAD@ 1001fdc0     SmartCardRW.obj
 0002:00000dcc       ??_C@_1M@EJNEECMJ@?$AAA?$AAp?$AAp?$AAI?$AAD@ 1001fdcc     SmartCardRW.obj
 0002:00000dd8       ?rgszNeverDelete@CRegParser@ATL@@1QBQB_WB 1001fdd8     SmartCardRW.obj
 0002:00000e08       ??_7CRegObject@ATL@@6B@    1001fe08     SmartCardRW.obj
 0002:00000e20       ??_C@_1CK@OEKPKBNA@?$AAC?$AAo?$AAm?$AAp?$AAo?$AAn?$AAe?$AAn?$AAt?$AA?5?$AAC?$AAa?$AAt?$AAe?$AAg@ 1001fe20     SmartCardRW.obj
 0002:00000e4c       ??_C@_1BC@NKMMNMGL@?$AAF?$AAi?$AAl?$AAe?$AAT?$AAy?$AAp?$AAe@ 1001fe4c     SmartCardRW.obj
 0002:00000e60       ??_C@_1BE@EKPAFMCP@?$AAI?$AAn?$AAt?$AAe?$AAr?$AAf?$AAa?$AAc?$AAe@ 1001fe60     SmartCardRW.obj
 0002:00000e74       ??_C@_1BC@MAICEHGI@?$AAH?$AAa?$AAr?$AAd?$AAw?$AAa?$AAr?$AAe@ 1001fe74     SmartCardRW.obj
 0002:00000e88       ??_C@_19HLLLM@?$AAM?$AAi?$AAm?$AAe@ 1001fe88     SmartCardRW.obj
 0002:00000e94       ??_C@_17OMAOINJK@?$AAS?$AAA?$AAM@ 1001fe94     SmartCardRW.obj
 0002:00000e9c       ??_C@_1BC@IBECJAAI@?$AAS?$AAE?$AAC?$AAU?$AAR?$AAI?$AAT?$AAY@ 1001fe9c     SmartCardRW.obj
 0002:00000eb0       ??_C@_1O@GBFINDKL@?$AAS?$AAY?$AAS?$AAT?$AAE?$AAM@ 1001feb0     SmartCardRW.obj
 0002:00000ec0       ??_C@_1BC@EAHCMADO@?$AAS?$AAo?$AAf?$AAt?$AAw?$AAa?$AAr?$AAe@ 1001fec0     SmartCardRW.obj
 0002:00000ed4       ??_C@_1BA@JIHHIEDE@?$AAT?$AAy?$AAp?$AAe?$AAL?$AAi?$AAb@ 1001fed4     SmartCardRW.obj
 0002:00000ee8       ?_entries@?1??_GetEntries@COPOSSmartCardRW@@SGPBU_ATL_INTMAP_ENTRY@ATL@@XZ@4QBU34@B 1001fee8     SmartCardRW.obj
 0002:00001020       ?map@?1??HKeyFromString@CRegParser@ATL@@KAPAUHKEY__@@PA_W@Z@4QBUkeymap@?1??123@KAPAU4@0@Z@B 10020020     SmartCardRW.obj
 0002:00001090       ??_C@_19NCHLBIN@?$AAH?$AAK?$AAC?$AAR@ 10020090     SmartCardRW.obj
 0002:0000109c       ??_C@_19JAPAIJDE@?$AAH?$AAK?$AAC?$AAU@ 1002009c     SmartCardRW.obj
 0002:000010a8       ??_C@_19PEALEEJB@?$AAH?$AAK?$AAL?$AAM@ 100200a8     SmartCardRW.obj
 0002:000010b4       ??_C@_17PJOJPMPB@?$AAH?$AAK?$AAU@ 100200b4     SmartCardRW.obj
 0002:000010bc       ??_C@_19PNBHMJPL@?$AAH?$AAK?$AAP?$AAD@ 100200bc     SmartCardRW.obj
 0002:000010c8       ??_C@_19GFFAIJHG@?$AAH?$AAK?$AAD?$AAD@ 100200c8     SmartCardRW.obj
 0002:000010d4       ??_C@_19OFICIBHH@?$AAH?$AAK?$AAC?$AAC@ 100200d4     SmartCardRW.obj
 0002:000010e0       ??_C@_1CE@PACHPJFI@?$AAH?$AAK?$AAE?$AAY?$AA_?$AAC?$AAL?$AAA?$AAS?$AAS?$AAE?$AAS?$AA_?$AAR?$AAO@ 100200e0     SmartCardRW.obj
 0002:00001104       ??_C@_1CE@HLHNCBPM@?$AAH?$AAK?$AAE?$AAY?$AA_?$AAC?$AAU?$AAR?$AAR?$AAE?$AAN?$AAT?$AA_?$AAU?$AAS@ 10020104     SmartCardRW.obj
 0002:00001128       ??_C@_1CG@GFBEANJL@?$AAH?$AAK?$AAE?$AAY?$AA_?$AAL?$AAO?$AAC?$AAA?$AAL?$AA_?$AAM?$AAA?$AAC?$AAH@ 10020128     SmartCardRW.obj
 0002:00001150       ??_C@_1BG@BGODANIO@?$AAH?$AAK?$AAE?$AAY?$AA_?$AAU?$AAS?$AAE?$AAR?$AAS@ 10020150     SmartCardRW.obj
 0002:00001168       ??_C@_1CM@KHNNAOIC@?$AAH?$AAK?$AAE?$AAY?$AA_?$AAP?$AAE?$AAR?$AAF?$AAO?$AAR?$AAM?$AAA?$AAN?$AAC@ 10020168     SmartCardRW.obj
 0002:00001194       ??_C@_1BM@HAGMMHIA@?$AAH?$AAK?$AAE?$AAY?$AA_?$AAD?$AAY?$AAN?$AA_?$AAD?$AAA?$AAT?$AAA@ 10020194     SmartCardRW.obj
 0002:000011b0       ??_C@_1CI@BBJOACGG@?$AAH?$AAK?$AAE?$AAY?$AA_?$AAC?$AAU?$AAR?$AAR?$AAE?$AAN?$AAT?$AA_?$AAC?$AAO@ 100201b0     SmartCardRW.obj
 0002:000011d8       __GUID_cf51ed10_62fe_11cf_bf86_00a0c9034836 100201d8     SmartCardRW.obj
 0002:000011e8       __GUID_0000010a_0000_0000_c000_000000000046 100201e8     SmartCardRW.obj
 0002:000011f8       __GUID_b196b283_bab4_101a_b69c_00aa00341d07 100201f8     SmartCardRW.obj
 0002:00001208       __GUID_cb5bdc81_93c1_11cf_8f20_00805f2cd064 10020208     SmartCardRW.obj
 0002:00001218       __GUID_00000109_0000_0000_c000_000000000046 10020218     SmartCardRW.obj
 0002:00001228       __GUID_7fd52380_4e07_101b_ae2d_08002b2ec713 10020228     SmartCardRW.obj
 0002:00001238       ?pPropMap@?1??GetPropertyMap@COPOSSmartCardRW@@SAPBUATL_PROPMAP_ENTRY@ATL@@XZ@4QBU34@B 10020238     SmartCardRW.obj
 0002:000012a4       ??_C@_17DGDADEHL@?$AA_?$AAc?$AAx@ 100202a4     SmartCardRW.obj
 0002:000012ac       ??_C@_17IOIMFDBO@?$AA_?$AAc?$AAy@ 100202ac     SmartCardRW.obj
 0002:000012b4       __GUID_922eada0_3424_11cf_b670_00aa004cd6d8 100202b4     SmartCardRW.obj
 0002:000012c4       __GUID_9c2cad80_3424_11cf_b670_00aa004cd6d8 100202c4     SmartCardRW.obj
 0002:000012d4       __GUID_00000119_0000_0000_c000_000000000046 100202d4     SmartCardRW.obj
 0002:000012e4       __GUID_b196b289_bab4_101a_b69c_00aa00341d07 100202e4     SmartCardRW.obj
 0002:000012f8       ??_C@_1EA@NHKLICFA@?$AAH?$AAK?$AAC?$AAU?$AA?$AN?$AA?6?$AA?$HL?$AA?7?$AAS?$AAo?$AAf?$AAt?$AAw?$AAa?$AAr@ 100202f8     SmartCardRW.obj
 0002:00001338       ??_C@_1BE@LJOLIMEM@?$AA?$AN?$AA?6?$AA?7?$AA?$HN?$AA?$AN?$AA?6?$AA?$HN?$AA?$AN?$AA?6@ 10020338     SmartCardRW.obj
 0002:0000134c       __GUID_b196b286_bab4_101a_b69c_00aa00341d07 1002034c     SmartCardRW.obj
 0002:0000135c       ??_C@_1CE@PGFMOFKI@?$AAS?$AAt?$AAa?$AAt?$AAu?$AAs?$AAU?$AAp?$AAd?$AAa?$AAt?$AAe?$AAE?$AAv?$AAe@ 1002035c     SmartCardRW.obj
 0002:00001380       ??_C@_1CI@HLBJDONE@?$AAO?$AAu?$AAt?$AAp?$AAu?$AAt?$AAC?$AAo?$AAm?$AAp?$AAl?$AAe?$AAt?$AAe?$AAE@ 10020380     SmartCardRW.obj
 0002:000013a8       ??_C@_1BG@LODEBHDD@?$AAE?$AAr?$AAr?$AAo?$AAr?$AAE?$AAv?$AAe?$AAn?$AAt@ 100203a8     SmartCardRW.obj
 0002:000013c0       ??_C@_1BM@CBGEBBBJ@?$AAD?$AAi?$AAr?$AAe?$AAc?$AAt?$AAI?$AAO?$AAE?$AAv?$AAe?$AAn?$AAt@ 100203c0     SmartCardRW.obj
 0002:000013dc       ??_C@_1BE@IEBMACEM@?$AAD?$AAa?$AAt?$AAa?$AAE?$AAv?$AAe?$AAn?$AAt@ 100203dc     SmartCardRW.obj
 0002:000013f0       __GUID_00000117_0000_0000_c000_000000000046 100203f0     SmartCardRW.obj
 0002:00001400       ??_C@_1O@MNLDABAF@?$AAM?$AAo?$AAd?$AAu?$AAl?$AAe@ 10020400     SmartCardRW.obj
 0002:00001410       ??_C@_1BG@JBACFMF@?$AAM?$AAo?$AAd?$AAu?$AAl?$AAe?$AA_?$AAR?$AAa?$AAw@ 10020410     SmartCardRW.obj
 0002:00001428       ??_C@_1BC@KAILKFFG@?$AAR?$AAE?$AAG?$AAI?$AAS?$AAT?$AAR?$AAY@ 10020428     SmartCardRW.obj
 0002:0000143c       ??_C@_1BC@ENICKDH@?$AAC?$AAo?$AAn?$AAt?$AAe?$AAn?$AAt?$AAs@ 1002043c     SmartCardRW.obj
 0002:00001450       ??_7?$CComObject@V?$CComEnum@UIEnumConnectionPoints@@$1?_GUID_b196b285_bab4_101a_b69c_00aa00341d07@@3U__s_GUID@@BPAUIConnectionPoint@@V?$_CopyInterface@UIConnectionPoint@@@ATL@@VCComSingleThreadModel@6@@ATL@@@ATL@@6B@ 10020450     SmartCardRW.obj
 0002:00001470       __GUID_0000010e_0000_0000_c000_000000000046 10020470     SmartCardRW.obj
 0002:00001480       __GUID_b196b288_bab4_101a_b69c_00aa00341d07 10020480     SmartCardRW.obj
 0002:00001490       ??_C@_0BG@EKFFMJIO@RegOpenKeyTransactedW@ 10020490     SmartCardRW.obj
 0002:000014a8       ??_C@_0BI@HAKLOOGP@RegDeleteKeyTransactedW@ 100204a8     SmartCardRW.obj
 0002:000014c0       ??_C@_0BA@LILAPHGE@RegDeleteKeyExW@ 100204c0     SmartCardRW.obj
 0002:000014d0       ??_C@_19ILOCMLCJ@?$AA?4?$AAt?$AAl?$AAb@ 100204d0     SmartCardRW.obj
 0002:000014dc       __GUID_0002e012_0000_0000_c000_000000000046 100204dc     SmartCardRW.obj
 0002:000014ec       ??_C@_1O@FHBGLCIO@?$AAC?$AAL?$AAS?$AAI?$AAD?$AA?2@ 100204ec     SmartCardRW.obj
 0002:000014fc       ??_C@_1CK@IFBKBFAA@?$AA?2?$AAR?$AAe?$AAq?$AAu?$AAi?$AAr?$AAe?$AAd?$AA?5?$AAC?$AAa?$AAt?$AAe?$AAg@ 100204fc     SmartCardRW.obj
 0002:00001528       ??_C@_1DA@BIHALFED@?$AA?2?$AAI?$AAm?$AAp?$AAl?$AAe?$AAm?$AAe?$AAn?$AAt?$AAe?$AAd?$AA?5?$AAC?$AAa@ 10020528     SmartCardRW.obj
 0002:00001558       ??_C@_1BK@EDKOLFBJ@?$AAO?$AAL?$AAE?$AAA?$AAU?$AAT?$AA3?$AA2?$AA?4?$AAD?$AAL?$AAL@ 10020558     SmartCardRW.obj
 0002:00001574       ??_C@_0BJ@CNLFOMHB@UnRegisterTypeLibForUser@ 10020574     SmartCardRW.obj
 0002:00001590       ??_C@_0BH@LBOMMKPJ@RegisterTypeLibForUser@ 10020590     SmartCardRW.obj
 0002:000015a8       ??_C@_0P@MMNMMLGK@COFreezeEvents@ 100205a8     SmartCardRWImpl.obj
 0002:000015b8       ??_C@_0BC@OGCGGIMP@GetPropertyNumber@ 100205b8     SmartCardRWImpl.obj
 0002:000015cc       ??_C@_0BC@MDCNODNB@SetPropertyNumber@ 100205cc     SmartCardRWImpl.obj
 0002:000015e0       ??_C@_0BC@CFCCMIMD@GetPropertyString@ 100205e0     SmartCardRWImpl.obj
 0002:000015f4       ??_C@_0BC@CJEDNN@SetPropertyString@ 100205f4     SmartCardRWImpl.obj
 0002:00001608       ??_C@_0M@LNPKKKDA@OpenService@ 10020608     SmartCardRWImpl.obj
 0002:00001614       ??_C@_0M@PCMCHHMH@CheckHealth@ 10020614     SmartCardRWImpl.obj
 0002:00001620       ??_C@_0M@JGMIDNEK@ClaimDevice@ 10020620     SmartCardRWImpl.obj
 0002:0000162c       ??_C@_0L@BNEIFEJC@ClearInput@ 1002062c     SmartCardRWImpl.obj
 0002:00001638       ??_C@_0M@JMBCPNGJ@ClearOutput@ 10020638     SmartCardRWImpl.obj
 0002:00001644       ??_C@_0N@DDFIIBMP@CloseService@ 10020644     SmartCardRWImpl.obj
 0002:00001654       ??_C@_08EEIHICPC@DirectIO@ 10020654     SmartCardRWImpl.obj
 0002:00001660       ??_C@_0O@BCPMENMJ@ReleaseDevice@ 10020660     SmartCardRWImpl.obj
 0002:00001670       ??_C@_0BA@GFABKEEE@ResetStatistics@ 10020670     SmartCardRWImpl.obj
 0002:00001680       ??_C@_0BD@DPALHJGC@RetrieveStatistics@ 10020680     SmartCardRWImpl.obj
 0002:00001694       ??_C@_0BB@KOHIKNFC@UpdateStatistics@ 10020694     SmartCardRWImpl.obj
 0002:000016a8       ??_C@_0P@DPMKPLAE@BeginInsertion@ 100206a8     SmartCardRWImpl.obj
 0002:000016b8       ??_C@_0N@PCJLGBKP@BeginRemoval@ 100206b8     SmartCardRWImpl.obj
 0002:000016c8       ??_C@_0N@MIHLNKHM@EndInsertion@ 100206c8     SmartCardRWImpl.obj
 0002:000016d8       ??_C@_0L@FCEKAOMI@EndRemoval@ 100206d8     SmartCardRWImpl.obj
 0002:000016e4       ??_C@_08GCAKNCOG@ReadData@ 100206e4     SmartCardRWImpl.obj
 0002:000016f0       ??_C@_09BHKFMECP@WriteData@ 100206f0     SmartCardRWImpl.obj
 0002:000016fc       ??_C@_0BH@PBKBNMGB@CompareFirmwareVersion@ 100206fc     SmartCardRWImpl.obj
 0002:00001714       ??_C@_0P@FBPDPIPA@UpdateFirmware@ 10020714     SmartCardRWImpl.obj
 0002:00001724       ??_C@_0BF@CMAPCJGM@ClearInputProperties@ 10020724     SmartCardRWImpl.obj
 0002:0000173c       ??_7?$CProxy_IOPOSEvents@VCOPOSSmartCardRW@@@@6B@ 1002073c     SmartCardRWImpl.obj
 0002:0000175c       ??_C@_1BA@IFHENID@?$AA?$FL?$AAE?$AAr?$AAr?$AAo?$AAr?$AA?$FN@ 1002075c     SmartCardRWImpl.obj
 0002:0000176c       ??_C@_0CO@OKGHNMHF@SOFTWARE?2OLEforRetail?2ServiceOP@ 1002076c     SmartCardRWImpl.obj
 0002:0000179c       ??_C@_1M@IAIJHCCH@?$AAC?$AAl?$AAo?$AAs?$AAe@ 1002079c     SmartCardRWImpl.obj
 0002:000017a8       ??_C@_1M@PCPKGJAH@?$AAC?$AAl?$AAa?$AAi?$AAm@ 100207a8     SmartCardRWImpl.obj
 0002:000017b4       ??_C@_1BA@NDFKIOCP@?$AAR?$AAe?$AAl?$AAe?$AAa?$AAs?$AAe@ 100207b4     SmartCardRWImpl.obj
 0002:000017c4       ??_C@_0M@IHDKCAIJ@SmartCardRW@ 100207c4     SmartCardRWImpl.obj
 0002:000017d0       ??_C@_1BM@IJMNMBPK@?$AAG?$AAe?$AAt?$AAO?$AAp?$AAe?$AAn?$AAR?$AAe?$AAs?$AAu?$AAl?$AAt@ 100207d0     SmartCardRWImpl.obj
 0002:000017ec       _IID_IPropertyNotifySink   100207ec     uuid:ocidl_i.obj
 0002:000017fc       _IID_IDispatch             100207fc     uuid:oaidl_i.obj
 0002:0000180c       _GUID_NULL                 1002080c     uuid:cguid_i.obj
 0002:0000181c       _CLSID_StdGlobalInterfaceTable 1002081c     uuid:cguid_i.obj
 0002:0000182c       _CLSID_StdComponentCategoriesMgr 1002082c     uuid:ieguids.obj
 0002:0000183c       _IID_IUnknown              1002083c     uuid:unknwn_i.obj
 0002:00001850       ??_C@_1EC@JIJBPKFM@?$AAa?$AAp?$AAi?$AA?9?$AAm?$AAs?$AA?9?$AAw?$AAi?$AAn?$AA?9?$AAc?$AAo?$AAr?$AAe@ 10020850     LIBCMT:thread_safe_statics.obj
 0002:00001894       ??_C@_1BK@MGMFAEKH@?$AAk?$AAe?$AAr?$AAn?$AAe?$AAl?$AA3?$AA2?$AA?4?$AAd?$AAl?$AAl@ 10020894     LIBCMT:thread_safe_statics.obj
 0002:000018b0       ??_C@_0BM@HLJJNPAH@InitializeConditionVariable@ 100208b0     LIBCMT:thread_safe_statics.obj
 0002:000018cc       ??_C@_0BJ@JEBJOJFJ@SleepConditionVariableCS@ 100208cc     LIBCMT:thread_safe_statics.obj
 0002:000018e8       ??_C@_0BJ@PGPPEPCC@WakeAllConditionVariable@ 100208e8     LIBCMT:thread_safe_statics.obj
 0002:00001901       ?nothrow@std@@3Unothrow_t@1@B 10020901     LIBCMT:std_nothrow.obj
 0002:0000190c       __pRawDllMain              1002090c     LIBCMT:dll_dllmain.obj
 0002:0000190c       __pDefaultRawDllMain       1002090c     LIBCMT:dll_dllmain.obj
 0002:00001914       ??_7exception@std@@6B@     10020914     LIBCMT:throw_bad_alloc.obj
 0002:0000191c       ??_C@_0BC@EOODALEL@Unknown?5exception@ 1002091c     LIBCMT:throw_bad_alloc.obj
 0002:00001934       ??_7bad_alloc@std@@6B@     10020934     LIBCMT:throw_bad_alloc.obj
 0002:0000193c       ??_C@_0P@GHFPNOJB@bad?5allocation@ 1002093c     LIBCMT:throw_bad_alloc.obj
 0002:00001950       ??_7bad_array_new_length@std@@6B@ 10020950     LIBCMT:throw_bad_alloc.obj
 0002:00001958       ??_C@_0BF@KINCDENJ@bad?5array?5new?5length@ 10020958     LIBCMT:throw_bad_alloc.obj
 0002:00001974       ??_7type_info@@6B@         10020974     LIBCMT:std_type_info_static.obj
 0002:00001978       _GUID_ATLVer110            10020978     atls:atlbase.obj
 0002:00001988       ??_C@_1IC@ONKHOIDK@?$AAE?$AAR?$AAR?$AAO?$AAR?$AA?5?$AA?3?$AA?5?$AAU?$AAn?$AAa?$AAb?$AAl?$AAe?$AA?5@ 10020988     atls:atlbase.obj
 0002:00001a0c       ??_C@_0N@FJEPLCIH@atlthunk?4dll@ 10020a0c     atls:atlthunk.obj
 0002:00001a1c       ??_C@_0BG@GAKFHCBM@AtlThunk_AllocateData@ 10020a1c     atls:atlthunk.obj
 0002:00001a34       ??_C@_0BC@JKONFIAH@AtlThunk_InitData@ 10020a34     atls:atlthunk.obj
 0002:00001a48       ??_C@_0BE@IAOEELAK@AtlThunk_DataToCode@ 10020a48     atls:atlthunk.obj
 0002:00001a5c       ??_C@_0BC@GBGKAIPI@AtlThunk_FreeData@ 10020a5c     atls:atlthunk.obj
 0002:00001a9c       ??_C@_1DM@KHCHBNEB@?$AAa?$AAp?$AAi?$AA?9?$AAm?$AAs?$AA?9?$AAw?$AAi?$AAn?$AA?9?$AAc?$AAo?$AAr?$AAe@ 10020a9c     libvcruntime:winapi_downlevel.obj
 0002:00001ad8       ??_C@_1DK@LPPGFMPP@?$AAa?$AAp?$AAi?$AA?9?$AAm?$AAs?$AA?9?$AAw?$AAi?$AAn?$AA?9?$AAc?$AAo?$AAr?$AAe@ 10020ad8     libvcruntime:winapi_downlevel.obj
 0002:00001b14       ??_C@_1BC@GDMECMAK@?$AAk?$AAe?$AAr?$AAn?$AAe?$AAl?$AA3?$AA2@ 10020b14     libvcruntime:winapi_downlevel.obj
 0002:00001b28       ??_C@_1BA@PFFKHIOG@?$AAa?$AAp?$AAi?$AA?9?$AAm?$AAs?$AA?9@ 10020b28     libvcruntime:winapi_downlevel.obj
 0002:00001b38       ??_C@_1BA@IAIFMGEF@?$AAe?$AAx?$AAt?$AA?9?$AAm?$AAs?$AA?9@ 10020b38     libvcruntime:winapi_downlevel.obj
 0002:00001b50       ??_C@_08KNHFBNJ@FlsAlloc@  10020b50     libvcruntime:winapi_downlevel.obj
 0002:00001b64       ??_C@_07PEJMOBNF@FlsFree@  10020b64     libvcruntime:winapi_downlevel.obj
 0002:00001b74       ??_C@_0M@GDNOONDI@FlsGetValue@ 10020b74     libvcruntime:winapi_downlevel.obj
 0002:00001b88       ??_C@_0M@JCPCPOEF@FlsSetValue@ 10020b88     libvcruntime:winapi_downlevel.obj
 0002:00001b9c       ??_C@_0BM@HCFOFFN@InitializeCriticalSectionEx@ 10020b9c     libvcruntime:winapi_downlevel.obj
 0002:00001bbc       ??_7bad_exception@std@@6B@ 10020bbc     libvcruntime:frame.obj
 0002:00001bc4       ??_C@_0O@DPKOEFFH@bad?5exception@ 10020bc4     libvcruntime:frame.obj
 0002:00001d74       ??_C@_08EHJDFFNH@__based?$CI@ 10020d74     libvcruntime:undname.obj
 0002:00001d80       ??_C@_07KOLFKCDI@__cdecl@  10020d80     libvcruntime:undname.obj
 0002:00001d88       ??_C@_08GHMPAG@__pascal@   10020d88     libvcruntime:undname.obj
 0002:00001d94       ??_C@_09IFJBGAPI@__stdcall@ 10020d94     libvcruntime:undname.obj
 0002:00001da0       ??_C@_0L@NPHFGOKO@__thiscall@ 10020da0     libvcruntime:undname.obj
 0002:00001dac       ??_C@_0L@JMKHOMEK@__fastcall@ 10020dac     libvcruntime:undname.obj
 0002:00001db8       ??_C@_0N@BCKKPABJ@__vectorcall@ 10020db8     libvcruntime:undname.obj
 0002:00001dc8       ??_C@_09HIJEGCPM@__clrcall@ 10020dc8     libvcruntime:undname.obj
 0002:00001dd4       ??_C@_06GHPCKEAG@__eabi@   10020dd4     libvcruntime:undname.obj
 0002:00001ddc       ??_C@_09IOPIDJLG@__swift_1@ 10020ddc     libvcruntime:undname.obj
 0002:00001de8       ??_C@_09KFNFGKHF@__swift_2@ 10020de8     libvcruntime:undname.obj
 0002:00001df4       ??_C@_07JOMMBBKO@__ptr64@  10020df4     libvcruntime:undname.obj
 0002:00001dfc       ??_C@_0L@PILCLIHE@__restrict@ 10020dfc     libvcruntime:undname.obj
 0002:00001e08       ??_C@_0M@GFIIJFMG@__unaligned@ 10020e08     libvcruntime:undname.obj
 0002:00001e14       ??_C@_09DHDLOLLB@restrict?$CI@ 10020e14     libvcruntime:undname.obj
 0002:00001e1e       ??_C@_00CNPNBAHC@@         10020e1e     libvcruntime:undname.obj
 0002:00001e20       ??_C@_04NIHEBCM@?5new@     10020e20     libvcruntime:undname.obj
 0002:00001e28       ??_C@_07FPCDHGMM@?5delete@ 10020e28     libvcruntime:undname.obj
 0002:00001e30       ??_C@_01NEMOKFLO@?$DN@     10020e30     libvcruntime:undname.obj
 0002:00001e34       ??_C@_02GPIOPFAK@?$DO?$DO@ 10020e34     libvcruntime:undname.obj
 0002:00001e38       ??_C@_02FODMEDOG@?$DM?$DM@ 10020e38     libvcruntime:undname.obj
 0002:00001e3c       ??_C@_01DCLJPIOD@?$CB@     10020e3c     libvcruntime:undname.obj
 0002:00001e40       ??_C@_02EGOFBIJA@?$DN?$DN@ 10020e40     libvcruntime:undname.obj
 0002:00001e44       ??_C@_02FDNJECIE@?$CB?$DN@ 10020e44     libvcruntime:undname.obj
 0002:00001e48       ??_C@_02GPECMEKF@?$FL?$FN@ 10020e48     libvcruntime:undname.obj
 0002:00001e4c       ??_C@_08LHJFAFGD@operator@ 10020e4c     libvcruntime:undname.obj
 0002:00001e58       ??_C@_02HBOOOICD@?9?$DO@   10020e58     libvcruntime:undname.obj
 0002:00001e5c       ??_C@_01NBENCBCI@?$CK@     10020e5c     libvcruntime:undname.obj
 0002:00001e60       ??_C@_02ECNGHCIF@?$CL?$CL@ 10020e60     libvcruntime:undname.obj
 0002:00001e64       ??_C@_02BAABKJLB@?9?9@     10020e64     libvcruntime:undname.obj
 0002:00001e68       ??_C@_01JOAMLHOP@?9@       10020e68     libvcruntime:undname.obj
 0002:00001e6c       ??_C@_01MIFGBAGJ@?$CL@     10020e6c     libvcruntime:undname.obj
 0002:00001e70       ??_C@_01HNPIGOCE@?$CG@     10020e70     libvcruntime:undname.obj
 0002:00001e74       ??_C@_03MNHNFDLC@?9?$DO?$CK@ 10020e74     libvcruntime:undname.obj
 0002:00001e78       ??_C@_01KMDKNFGN@?1@       10020e78     libvcruntime:undname.obj
 0002:00001e7c       ??_C@_01FGNFDNOH@?$CF@     10020e7c     libvcruntime:undname.obj
 0002:00001e80       ??_C@_01MNNFJEPP@?$DM@     10020e80     libvcruntime:undname.obj
 0002:00001e84       ??_C@_02EHCHHCKH@?$DM?$DN@ 10020e84     libvcruntime:undname.obj
 0002:00001e88       ??_C@_01PPODPGHN@?$DO@     10020e88     libvcruntime:undname.obj
 0002:00001e8c       ??_C@_02EEKDKGMJ@?$DO?$DN@ 10020e8c     libvcruntime:undname.obj
 0002:00001e90       ??_C@_01IHBHIGKO@?0@       10020e90     libvcruntime:undname.obj
 0002:00001e94       ??_C@_02HCKGKOFO@?$CI?$CJ@ 10020e94     libvcruntime:undname.obj
 0002:00001e98       ??_C@_01PJKLJHI@?$HO@      10020e98     libvcruntime:undname.obj
 0002:00001e9c       ??_C@_01JKBOJNNK@?$FO@     10020e9c     libvcruntime:undname.obj
 0002:00001ea0       ??_C@_01DNKMNLPK@?$HM@     10020ea0     libvcruntime:undname.obj
 0002:00001ea4       ??_C@_02PPKAJPJL@?$CG?$CG@ 10020ea4     libvcruntime:undname.obj
 0002:00001ea8       ??_C@_02NONPIBCD@?$HM?$HM@ 10020ea8     libvcruntime:undname.obj
 0002:00001eac       ??_C@_02FPIMKNGF@?$CK?$DN@ 10020eac     libvcruntime:undname.obj
 0002:00001eb0       ??_C@_02FOEOMHFC@?$CL?$DN@ 10020eb0     libvcruntime:undname.obj
 0002:00001eb4       ??_C@_02FKMDLLOA@?9?$DN@   10020eb4     libvcruntime:undname.obj
 0002:00001eb8       ??_C@_02FJEHGPIO@?1?$DN@   10020eb8     libvcruntime:undname.obj
 0002:00001ebc       ??_C@_02FENAOKFI@?$CF?$DN@ 10020ebc     libvcruntime:undname.obj
 0002:00001ec0       ??_C@_03IKFCCPFF@?$DO?$DO?$DN@ 10020ec0     libvcruntime:undname.obj
 0002:00001ec4       ??_C@_03CDNPDDLA@?$DM?$DM?$DN@ 10020ec4     libvcruntime:undname.obj
 0002:00001ec8       ??_C@_02FGJGFEAB@?$CG?$DN@ 10020ec8     libvcruntime:undname.obj
 0002:00001ecc       ??_C@_02DHLNPPGH@?$HM?$DN@ 10020ecc     libvcruntime:undname.obj
 0002:00001ed0       ??_C@_02MHEGNOJ@?$FO?$DN@  10020ed0     libvcruntime:undname.obj
 0002:00001ed4       ??_C@_09IFPLHPGF@?$GAvftable?8@ 10020ed4     libvcruntime:undname.obj
 0002:00001ee0       ??_C@_09BLBHBJP@?$GAvbtable?8@ 10020ee0     libvcruntime:undname.obj
 0002:00001eec       ??_C@_07FEEIOKP@?$GAvcall?8@ 10020eec     libvcruntime:undname.obj
 0002:00001ef4       ??_C@_08LLFFHHDJ@?$GAtypeof?8@ 10020ef4     libvcruntime:undname.obj
 0002:00001f00       ??_C@_0BF@KDPPACIK@?$GAlocal?5static?5guard?8@ 10020f00     libvcruntime:undname.obj
 0002:00001f18       ??_C@_08OBABFOLI@?$GAstring?8@ 10020f18     libvcruntime:undname.obj
 0002:00001f24       ??_C@_0BD@JDLKDPAB@?$GAvbase?5destructor?8@ 10020f24     libvcruntime:undname.obj
 0002:00001f38       ??_C@_0BN@DEGPLNFK@?$GAvector?5deleting?5destructor?8@ 10020f38     libvcruntime:undname.obj
 0002:00001f58       ??_C@_0BO@OBMKPJIG@?$GAdefault?5constructor?5closure?8@ 10020f58     libvcruntime:undname.obj
 0002:00001f78       ??_C@_0BN@IMDCHIKM@?$GAscalar?5deleting?5destructor?8@ 10020f78     libvcruntime:undname.obj
 0002:00001f98       ??_C@_0BO@PFGOCPJJ@?$GAvector?5constructor?5iterator?8@ 10020f98     libvcruntime:undname.obj
 0002:00001fb8       ??_C@_0BN@LFPFMEDL@?$GAvector?5destructor?5iterator?8@ 10020fb8     libvcruntime:undname.obj
 0002:00001fd8       ??_C@_0CE@IKBNEHA@?$GAvector?5vbase?5constructor?5itera@ 10020fd8     libvcruntime:undname.obj
 0002:00001ffc       ??_C@_0BL@NILFHHPC@?$GAvirtual?5displacement?5map?8@ 10020ffc     libvcruntime:undname.obj
 0002:00002018       ??_C@_0CB@JONCMFFK@?$GAeh?5vector?5constructor?5iterator@ 10021018     libvcruntime:undname.obj
 0002:0000203c       ??_C@_0CA@GCEOPDGL@?$GAeh?5vector?5destructor?5iterator?8@ 1002103c     libvcruntime:undname.obj
 0002:0000205c       ??_C@_0CH@OOJPLCPH@?$GAeh?5vector?5vbase?5constructor?5it@ 1002105c     libvcruntime:undname.obj
 0002:00002084       ??_C@_0BL@LLKPOHJI@?$GAcopy?5constructor?5closure?8@ 10021084     libvcruntime:undname.obj
 0002:000020a0       ??_C@_0BA@KBCDOMBN@?$GAudt?5returning?8@ 100210a0     libvcruntime:undname.obj
 0002:000020b0       ??_C@_03KLGMFNMG@?$GAEH@   100210b0     libvcruntime:undname.obj
 0002:000020b4       ??_C@_05KHLCHHI@?$GARTTI@  100210b4     libvcruntime:undname.obj
 0002:000020bc       ??_C@_0BA@KKLDJDLB@?$GAlocal?5vftable?8@ 100210bc     libvcruntime:undname.obj
 0002:000020cc       ??_C@_0CE@IIHCMGGL@?$GAlocal?5vftable?5constructor?5clos@ 100210cc     libvcruntime:undname.obj
 0002:000020f0       ??_C@_06FHBGPFGH@?5new?$FL?$FN@ 100210f0     libvcruntime:undname.obj
 0002:000020f8       ??_C@_09LBNFPBCA@?5delete?$FL?$FN@ 100210f8     libvcruntime:undname.obj
 0002:00002104       ??_C@_0P@HJKNJFNN@?$GAomni?5callsig?8@ 10021104     libvcruntime:undname.obj
 0002:00002114       ??_C@_0BL@CNOONJFP@?$GAplacement?5delete?5closure?8@ 10021114     libvcruntime:undname.obj
 0002:00002130       ??_C@_0BN@CKNJLHMB@?$GAplacement?5delete?$FL?$FN?5closure?8@ 10021130     libvcruntime:undname.obj
 0002:00002150       ??_C@_0CG@CFDHKGGD@?$GAmanaged?5vector?5constructor?5ite@ 10021150     libvcruntime:undname.obj
 0002:00002178       ??_C@_0CF@IMGKMJNO@?$GAmanaged?5vector?5destructor?5iter@ 10021178     libvcruntime:undname.obj
 0002:000021a0       ??_C@_0CG@HLDDJMAG@?$GAeh?5vector?5copy?5constructor?5ite@ 100211a0     libvcruntime:undname.obj
 0002:000021c8       ??_C@_0CM@FCBBDIGB@?$GAeh?5vector?5vbase?5copy?5construct@ 100211c8     libvcruntime:undname.obj
 0002:000021f4       ??_C@_0BL@CLIPGLGB@?$GAdynamic?5initializer?5for?5?8@ 100211f4     libvcruntime:undname.obj
 0002:00002210       ??_C@_0CB@PDBIFEP@?$GAdynamic?5atexit?5destructor?5for?5@ 10021210     libvcruntime:undname.obj
 0002:00002234       ??_C@_0CD@CGAJBKEJ@?$GAvector?5copy?5constructor?5iterat@ 10021234     libvcruntime:undname.obj
 0002:00002258       ??_C@_0CJ@GJELGAMM@?$GAvector?5vbase?5copy?5constructor?5@ 10021258     libvcruntime:undname.obj
 0002:00002284       ??_C@_0CL@FGIJHLCE@?$GAmanaged?5vector?5copy?5constructo@ 10021284     libvcruntime:undname.obj
 0002:000022b0       ??_C@_0BM@PMGGMLDN@?$GAlocal?5static?5thread?5guard?8@ 100212b0     libvcruntime:undname.obj
 0002:000022cc       ??_C@_0N@BDNMDMOL@operator?5?$CC?$CC?5@ 100212cc     libvcruntime:undname.obj
 0002:000022dc       ??_C@_0BC@GGEBGALA@operator?5co_await@ 100212dc     libvcruntime:undname.obj
 0002:000022f0       ??_C@_0BC@DAFEJGAK@?5Type?5Descriptor?8@ 100212f0     libvcruntime:undname.obj
 0002:00002304       ??_C@_0BM@LDKODKLH@?5Base?5Class?5Descriptor?5at?5?$CI@ 10021304     libvcruntime:undname.obj
 0002:00002320       ??_C@_0BD@LGICGFMM@?5Base?5Class?5Array?8@ 10021320     libvcruntime:undname.obj
 0002:00002334       ??_C@_0BN@MECKDCOJ@?5Class?5Hierarchy?5Descriptor?8@ 10021334     libvcruntime:undname.obj
 0002:00002354       ??_C@_0BK@CFCOFLF@?5Complete?5Object?5Locator?8@ 10021354     libvcruntime:undname.obj
 0002:00002370       __pDestructExceptionObject 10021370     libvcruntime:ehhelpers.obj
 0002:000024e0       _format_validation_lookup_table 100214e0     libucrt:output.obj
 0002:0000253c       ??_C@_06OJHGLDPL@?$CInull?$CJ?$AA@ 1002153c     libucrt:output.obj
 0002:00002544       ??_C@_1O@CEDCILHN@?$AA?$CI?$AAn?$AAu?$AAl?$AAl?$AA?$CJ?$AA?$AA@ 10021544     libucrt:output.obj
 0002:00002558       ___acrt_exception_action_table 10021558     libucrt:exception_filter.obj
 0002:000025e8       ___acrt_signal_action_table_count 100215e8     libucrt:exception_filter.obj
 0002:000025ec       ___acrt_signal_action_first_fpe_index 100215ec     libucrt:exception_filter.obj
 0002:000025f0       ___acrt_signal_action_fpe_count 100215f0     libucrt:exception_filter.obj
 0002:000025f4       ??_C@_1BI@BGOHAHKC@?$AAm?$AAs?$AAc?$AAo?$AAr?$AAe?$AAe?$AA?4?$AAd?$AAl?$AAl?$AA?$AA@ 100215f4     libucrt:exit.obj
 0002:0000260c       ??_C@_0P@MIGLKIOC@CorExitProcess?$AA@ 1002160c     libucrt:exit.obj
 0002:000026e8       ??_C@_1EG@CNNIPFIM@?$AAa?$AAp?$AAi?$AA?9?$AAm?$AAs?$AA?9?$AAw?$AAi?$AAn?$AA?9?$AAa?$AAp?$AAp?$AAm?$AAo?$AAd?$AAe?$AAl?$AA?9?$AAr?$AAu?$AAn?$AAt?$AAi?$AAm?$AAe?$AA?9?$AAl?$AA1?$AA?9?$AA1@ 100216e8     libucrt:winapi_thunks.obj
 0002:00002730       ??_C@_1EA@JGEFHKEI@?$AAa?$AAp?$AAi?$AA?9?$AAm?$AAs?$AA?9?$AAw?$AAi?$AAn?$AA?9?$AAc?$AAo?$AAr?$AAe?$AA?9?$AAd?$AAa?$AAt?$AAe?$AAt?$AAi?$AAm?$AAe?$AA?9?$AAl?$AA1?$AA?9?$AA1?$AA?9?$AA1?$AA?$AA@ 10021730     libucrt:winapi_thunks.obj
 0002:00002770       ??_C@_1DM@KHCHBNEB@?$AAa?$AAp?$AAi?$AA?9?$AAm?$AAs?$AA?9?$AAw?$AAi?$AAn?$AA?9?$AAc?$AAo?$AAr?$AAe?$AA?9?$AAf?$AAi?$AAb?$AAe?$AAr?$AAs?$AA?9?$AAl?$AA1?$AA?9?$AA1?$AA?9?$AA1?$AA?$AA@ 10021770     libucrt:winapi_thunks.obj
 0002:000027ac       ??_C@_1DI@GCIAAENM@?$AAa?$AAp?$AAi?$AA?9?$AAm?$AAs?$AA?9?$AAw?$AAi?$AAn?$AA?9?$AAc?$AAo?$AAr?$AAe?$AA?9?$AAf?$AAi?$AAl?$AAe?$AA?9?$AAl?$AA2?$AA?9?$AA1?$AA?9?$AA1?$AA?$AA@ 100217ac     libucrt:winapi_thunks.obj
 0002:000027e8       ??_C@_1EI@MPIAOHOC@?$AAa?$AAp?$AAi?$AA?9?$AAm?$AAs?$AA?9?$AAw?$AAi?$AAn?$AA?9?$AAc?$AAo?$AAr?$AAe?$AA?9?$AAl?$AAo?$AAc?$AAa?$AAl?$AAi?$AAz?$AAa?$AAt?$AAi?$AAo?$AAn?$AA?9?$AAl?$AA1?$AA?9@ 100217e8     libucrt:winapi_thunks.obj
 0002:00002830       ??_C@_1FK@FPHCKFIE@?$AAa?$AAp?$AAi?$AA?9?$AAm?$AAs?$AA?9?$AAw?$AAi?$AAn?$AA?9?$AAc?$AAo?$AAr?$AAe?$AA?9?$AAl?$AAo?$AAc?$AAa?$AAl?$AAi?$AAz?$AAa?$AAt?$AAi?$AAo?$AAn?$AA?9?$AAo?$AAb?$AAs@ 10021830     libucrt:winapi_thunks.obj
 0002:00002890       ??_C@_1EM@DILCGIIO@?$AAa?$AAp?$AAi?$AA?9?$AAm?$AAs?$AA?9?$AAw?$AAi?$AAn?$AA?9?$AAc?$AAo?$AAr?$AAe?$AA?9?$AAp?$AAr?$AAo?$AAc?$AAe?$AAs?$AAs?$AAt?$AAh?$AAr?$AAe?$AAa?$AAd?$AAs?$AA?9?$AAl@ 10021890     libucrt:winapi_thunks.obj
 0002:000028dc       ??_C@_1DM@LNCGDDPN@?$AAa?$AAp?$AAi?$AA?9?$AAm?$AAs?$AA?9?$AAw?$AAi?$AAn?$AA?9?$AAc?$AAo?$AAr?$AAe?$AA?9?$AAs?$AAt?$AAr?$AAi?$AAn?$AAg?$AA?9?$AAl?$AA1?$AA?9?$AA1?$AA?9?$AA0?$AA?$AA@ 100218dc     libucrt:winapi_thunks.obj
 0002:00002918       ??_C@_1DK@LPPGFMPP@?$AAa?$AAp?$AAi?$AA?9?$AAm?$AAs?$AA?9?$AAw?$AAi?$AAn?$AA?9?$AAc?$AAo?$AAr?$AAe?$AA?9?$AAs?$AAy?$AAn?$AAc?$AAh?$AA?9?$AAl?$AA1?$AA?9?$AA2?$AA?9?$AA0?$AA?$AA@ 10021918     libucrt:winapi_thunks.obj
 0002:00002954       ??_C@_1DO@FPAPJEMD@?$AAa?$AAp?$AAi?$AA?9?$AAm?$AAs?$AA?9?$AAw?$AAi?$AAn?$AA?9?$AAc?$AAo?$AAr?$AAe?$AA?9?$AAs?$AAy?$AAs?$AAi?$AAn?$AAf?$AAo?$AA?9?$AAl?$AA1?$AA?9?$AA2?$AA?9?$AA1?$AA?$AA@ 10021954     libucrt:winapi_thunks.obj
 0002:00002994       ??_C@_1DK@NDHNAHIO@?$AAa?$AAp?$AAi?$AA?9?$AAm?$AAs?$AA?9?$AAw?$AAi?$AAn?$AA?9?$AAc?$AAo?$AAr?$AAe?$AA?9?$AAw?$AAi?$AAn?$AAr?$AAt?$AA?9?$AAl?$AA1?$AA?9?$AA1?$AA?9?$AA0?$AA?$AA@ 10021994     libucrt:winapi_thunks.obj
 0002:000029d0       ??_C@_1DM@KGHDGBCM@?$AAa?$AAp?$AAi?$AA?9?$AAm?$AAs?$AA?9?$AAw?$AAi?$AAn?$AA?9?$AAc?$AAo?$AAr?$AAe?$AA?9?$AAx?$AAs?$AAt?$AAa?$AAt?$AAe?$AA?9?$AAl?$AA2?$AA?9?$AA1?$AA?9?$AA0?$AA?$AA@ 100219d0     libucrt:winapi_thunks.obj
 0002:00002a10       ??_C@_1EO@IJIOEFOH@?$AAa?$AAp?$AAi?$AA?9?$AAm?$AAs?$AA?9?$AAw?$AAi?$AAn?$AA?9?$AAr?$AAt?$AAc?$AAo?$AAr?$AAe?$AA?9?$AAn?$AAt?$AAu?$AAs?$AAe?$AAr?$AA?9?$AAw?$AAi?$AAn?$AAd?$AAo?$AAw?$AA?9@ 10021a10     libucrt:winapi_thunks.obj
 0002:00002a60       ??_C@_1FG@HHGEKANL@?$AAa?$AAp?$AAi?$AA?9?$AAm?$AAs?$AA?9?$AAw?$AAi?$AAn?$AA?9?$AAs?$AAe?$AAc?$AAu?$AAr?$AAi?$AAt?$AAy?$AA?9?$AAs?$AAy?$AAs?$AAt?$AAe?$AAm?$AAf?$AAu?$AAn?$AAc?$AAt?$AAi@ 10021a60     libucrt:winapi_thunks.obj
 0002:00002ab8       ??_C@_1FG@NCKKOLKO@?$AAe?$AAx?$AAt?$AA?9?$AAm?$AAs?$AA?9?$AAw?$AAi?$AAn?$AA?9?$AAk?$AAe?$AAr?$AAn?$AAe?$AAl?$AA3?$AA2?$AA?9?$AAp?$AAa?$AAc?$AAk?$AAa?$AAg?$AAe?$AA?9?$AAc?$AAu?$AAr?$AAr@ 10021ab8     libucrt:winapi_thunks.obj
 0002:00002b10       ??_C@_1EG@DBIOJECG@?$AAe?$AAx?$AAt?$AA?9?$AAm?$AAs?$AA?9?$AAw?$AAi?$AAn?$AA?9?$AAn?$AAt?$AAu?$AAs?$AAe?$AAr?$AA?9?$AAd?$AAi?$AAa?$AAl?$AAo?$AAg?$AAb?$AAo?$AAx?$AA?9?$AAl?$AA1?$AA?9?$AA1@ 10021b10     libucrt:winapi_thunks.obj
 0002:00002b58       ??_C@_1EO@FIHMJCLF@?$AAe?$AAx?$AAt?$AA?9?$AAm?$AAs?$AA?9?$AAw?$AAi?$AAn?$AA?9?$AAn?$AAt?$AAu?$AAs?$AAe?$AAr?$AA?9?$AAw?$AAi?$AAn?$AAd?$AAo?$AAw?$AAs?$AAt?$AAa?$AAt?$AAi?$AAo?$AAn?$AA?9@ 10021b58     libucrt:winapi_thunks.obj
 0002:00002ba8       ??_C@_1BC@DNHGCMLG@?$AAa?$AAd?$AAv?$AAa?$AAp?$AAi?$AA3?$AA2?$AA?$AA@ 10021ba8     libucrt:winapi_thunks.obj
 0002:00002bbc       ??_C@_1BC@GDMECMAK@?$AAk?$AAe?$AAr?$AAn?$AAe?$AAl?$AA3?$AA2?$AA?$AA@ 10021bbc     libucrt:winapi_thunks.obj
 0002:00002bd0       ??_C@_1O@BCCLBEOE@?$AAu?$AAs?$AAe?$AAr?$AA3?$AA2?$AA?$AA@ 10021bd0     libucrt:winapi_thunks.obj
 0002:00002be8       ??_C@_08KNHFBNJ@FlsAlloc?$AA@ 10021be8     libucrt:winapi_thunks.obj
 0002:00002bfc       ??_C@_07PEJMOBNF@FlsFree?$AA@ 10021bfc     libucrt:winapi_thunks.obj
 0002:00002c0c       ??_C@_0M@GDNOONDI@FlsGetValue?$AA@ 10021c0c     libucrt:winapi_thunks.obj
 0002:00002c20       ??_C@_0M@JCPCPOEF@FlsSetValue?$AA@ 10021c20     libucrt:winapi_thunks.obj
 0002:00002c34       ??_C@_0BE@JOGNEJCI@GetCurrentPackageId?$AA@ 10021c34     libucrt:winapi_thunks.obj
 0002:00002c50       ??_C@_0BM@HCFOFFN@InitializeCriticalSectionEx?$AA@ 10021c50     libucrt:winapi_thunks.obj
 0002:00002c74       ??_C@_0O@KKBNKAPF@LCMapStringEx?$AA@ 10021c74     libucrt:winapi_thunks.obj
 0002:00002c8c       ??_C@_0BB@HBDEELFH@LocaleNameToLCID?$AA@ 10021c8c     libucrt:winapi_thunks.obj
 0002:00002ca8       ??_C@_0BI@BKLFFAPO@SetThreadStackGuarantee?$AA@ 10021ca8     libucrt:winapi_thunks.obj
 0002:00002cc0       ??_C@_03OEIAHPBN@INF?$AA@  10021cc0     libucrt:cvt.obj
 0002:00002cc4       ??_C@_03OJHLLCGB@inf?$AA@  10021cc4     libucrt:cvt.obj
 0002:00002cc8       ??_C@_03LKNCIKJB@NAN?$AA@  10021cc8     libucrt:cvt.obj
 0002:00002ccc       ??_C@_03LHCJEHON@nan?$AA@  10021ccc     libucrt:cvt.obj
 0002:00002cd0       ??_C@_09OFJJIMPC@NAN?$CISNAN?$CJ?$AA@ 10021cd0     libucrt:cvt.obj
 0002:00002cdc       ??_C@_09IPFBKMDL@nan?$CIsnan?$CJ?$AA@ 10021cdc     libucrt:cvt.obj
 0002:00002ce8       ??_C@_08IKHNHAJ@NAN?$CIIND?$CJ?$AA@ 10021ce8     libucrt:cvt.obj
 0002:00002cf4       ??_C@_08OFCDMILK@nan?$CIind?$CJ?$AA@ 10021cf4     libucrt:cvt.obj
 0002:00002d00       ??_C@_05KLBDPFGC@e?$CL000?$AA@ 10021d00     libucrt:cvt.obj
 0002:00002d08       ??_C@_03KOEHGMDN@Sun?$AA@  10021d08     libucrt:nlsdata.obj
 0002:00002d0c       ??_C@_03PDAGKDH@Mon?$AA@   10021d0c     libucrt:nlsdata.obj
 0002:00002d10       ??_C@_03NAGEINEP@Tue?$AA@  10021d10     libucrt:nlsdata.obj
 0002:00002d14       ??_C@_03MHOMLAJA@Wed?$AA@  10021d14     libucrt:nlsdata.obj
 0002:00002d18       ??_C@_03IOFIKPDN@Thu?$AA@  10021d18     libucrt:nlsdata.obj
 0002:00002d1c       ??_C@_03IDIOELNC@Fri?$AA@  10021d1c     libucrt:nlsdata.obj
 0002:00002d20       ??_C@_03FEFJNEK@Sat?$AA@   10021d20     libucrt:nlsdata.obj
 0002:00002d24       ??_C@_06OOPIFAJ@Sunday?$AA@ 10021d24     libucrt:nlsdata.obj
 0002:00002d2c       ??_C@_06JLEDEDGH@Monday?$AA@ 10021d2c     libucrt:nlsdata.obj
 0002:00002d34       ??_C@_07BAAGCFCM@Tuesday?$AA@ 10021d34     libucrt:nlsdata.obj
 0002:00002d3c       ??_C@_09DLIGFAKA@Wednesday?$AA@ 10021d3c     libucrt:nlsdata.obj
 0002:00002d48       ??_C@_08HACCIKIA@Thursday?$AA@ 10021d48     libucrt:nlsdata.obj
 0002:00002d54       ??_C@_06JECMNKMI@Friday?$AA@ 10021d54     libucrt:nlsdata.obj
 0002:00002d5c       ??_C@_08INBOOONO@Saturday?$AA@ 10021d5c     libucrt:nlsdata.obj
 0002:00002d68       ??_C@_03JIHJHPIE@Jan?$AA@  10021d68     libucrt:nlsdata.obj
 0002:00002d6c       ??_C@_03HJBDCHOM@Feb?$AA@  10021d6c     libucrt:nlsdata.obj
 0002:00002d70       ??_C@_03ODNJBKGA@Mar?$AA@  10021d70     libucrt:nlsdata.obj
 0002:00002d74       ??_C@_03LEOLGMJP@Apr?$AA@  10021d74     libucrt:nlsdata.obj
 0002:00002d78       ??_C@_03CNMDKL@May?$AA@    10021d78     libucrt:nlsdata.obj
 0002:00002d7c       ??_C@_03IDFGHECI@Jun?$AA@  10021d7c     libucrt:nlsdata.obj
 0002:00002d80       ??_C@_03LBGABGKK@Jul?$AA@  10021d80     libucrt:nlsdata.obj
 0002:00002d84       ??_C@_03IFJFEIGA@Aug?$AA@  10021d84     libucrt:nlsdata.obj
 0002:00002d88       ??_C@_03GGCAPAJC@Sep?$AA@  10021d88     libucrt:nlsdata.obj
 0002:00002d8c       ??_C@_03BMAOKBAD@Oct?$AA@  10021d8c     libucrt:nlsdata.obj
 0002:00002d90       ??_C@_03JPJOFNIA@Nov?$AA@  10021d90     libucrt:nlsdata.obj
 0002:00002d94       ??_C@_03MKABNOCG@Dec?$AA@  10021d94     libucrt:nlsdata.obj
 0002:00002d98       ??_C@_07CGJPFGJA@January?$AA@ 10021d98     libucrt:nlsdata.obj
 0002:00002da0       ??_C@_08GNJGEPFN@February?$AA@ 10021da0     libucrt:nlsdata.obj
 0002:00002dac       ??_C@_05HPCKOFNC@March?$AA@ 10021dac     libucrt:nlsdata.obj
 0002:00002db4       ??_C@_05DMJDNLEJ@April?$AA@ 10021db4     libucrt:nlsdata.obj
 0002:00002dbc       ??_C@_04CNLMGBGM@June?$AA@ 10021dbc     libucrt:nlsdata.obj
 0002:00002dc4       ??_C@_04MIEPOIFP@July?$AA@ 10021dc4     libucrt:nlsdata.obj
 0002:00002dcc       ??_C@_06LBBHFDDG@August?$AA@ 10021dcc     libucrt:nlsdata.obj
 0002:00002dd4       ??_C@_09BHHEALKD@September?$AA@ 10021dd4     libucrt:nlsdata.obj
 0002:00002de0       ??_C@_07JJNFCEND@October?$AA@ 10021de0     libucrt:nlsdata.obj
 0002:00002de8       ??_C@_08HCHEGEOA@November?$AA@ 10021de8     libucrt:nlsdata.obj
 0002:00002df4       ??_C@_08EDHMEBNP@December?$AA@ 10021df4     libucrt:nlsdata.obj
 0002:00002e00       ??_C@_02DEDBPAFC@AM?$AA@   10021e00     libucrt:nlsdata.obj
 0002:00002e04       ??_C@_02CJNFDJBF@PM?$AA@   10021e04     libucrt:nlsdata.obj
 0002:00002e08       ??_C@_08BPBNCDIB@MM?1dd?1yy?$AA@ 10021e08     libucrt:nlsdata.obj
 0002:00002e14       ??_C@_0BE@CKGJFCPC@dddd?0?5MMMM?5dd?0?5yyyy?$AA@ 10021e14     libucrt:nlsdata.obj
 0002:00002e28       ??_C@_08JCCMCCIL@HH?3mm?3ss?$AA@ 10021e28     libucrt:nlsdata.obj
 0002:00002e34       ??_C@_17MBGCMIPB@?$AAS?$AAu?$AAn?$AA?$AA@ 10021e34     libucrt:nlsdata.obj
 0002:00002e3c       ??_C@_17KBOMKBF@?$AAM?$AAo?$AAn?$AA?$AA@ 10021e3c     libucrt:nlsdata.obj
 0002:00002e44       ??_C@_17BMKGEGOJ@?$AAT?$AAu?$AAe?$AA?$AA@ 10021e44     libucrt:nlsdata.obj
 0002:00002e4c       ??_C@_17CJEDCEPE@?$AAW?$AAe?$AAd?$AA?$AA@ 10021e4c     libucrt:nlsdata.obj
 0002:00002e54       ??_C@_17PDPHAADD@?$AAT?$AAh?$AAu?$AA?$AA@ 10021e54     libucrt:nlsdata.obj
 0002:00002e5c       ??_C@_17HFOLPPLP@?$AAF?$AAr?$AAi?$AA?$AA@ 10021e5c     libucrt:nlsdata.obj
 0002:00002e64       ??_C@_17GGIBDPIH@?$AAS?$AAa?$AAt?$AA?$AA@ 10021e64     libucrt:nlsdata.obj
 0002:00002e6c       ??_C@_1O@IHNHDHPB@?$AAS?$AAu?$AAn?$AAd?$AAa?$AAy?$AA?$AA@ 10021e6c     libucrt:nlsdata.obj
 0002:00002e7c       ??_C@_1O@MMNBFLIA@?$AAM?$AAo?$AAn?$AAd?$AAa?$AAy?$AA?$AA@ 10021e7c     libucrt:nlsdata.obj
 0002:00002e8c       ??_C@_1BA@ENFBFFEK@?$AAT?$AAu?$AAe?$AAs?$AAd?$AAa?$AAy?$AA?$AA@ 10021e8c     libucrt:nlsdata.obj
 0002:00002e9c       ??_C@_1BE@EBOGMDOH@?$AAW?$AAe?$AAd?$AAn?$AAe?$AAs?$AAd?$AAa?$AAy?$AA?$AA@ 10021e9c     libucrt:nlsdata.obj
 0002:00002eb0       ??_C@_1BC@HHMNLIHE@?$AAT?$AAh?$AAu?$AAr?$AAs?$AAd?$AAa?$AAy?$AA?$AA@ 10021eb0     libucrt:nlsdata.obj
 0002:00002ec4       ??_C@_1O@PDICJHAG@?$AAF?$AAr?$AAi?$AAd?$AAa?$AAy?$AA?$AA@ 10021ec4     libucrt:nlsdata.obj
 0002:00002ed4       ??_C@_1BC@ENMNNPAJ@?$AAS?$AAa?$AAt?$AAu?$AAr?$AAd?$AAa?$AAy?$AA?$AA@ 10021ed4     libucrt:nlsdata.obj
 0002:00002ee8       ??_C@_17DKNBKCHM@?$AAJ?$AAa?$AAn?$AA?$AA@ 10021ee8     libucrt:nlsdata.obj
 0002:00002ef0       ??_C@_17LMDJEKJN@?$AAF?$AAe?$AAb?$AA?$AA@ 10021ef0     libucrt:nlsdata.obj
 0002:00002ef8       ??_C@_17CKNLEDEC@?$AAM?$AAa?$AAr?$AA?$AA@ 10021ef8     libucrt:nlsdata.obj
 0002:00002f00       ??_C@_17LFPOIHDD@?$AAA?$AAp?$AAr?$AA?$AA@ 10021f00     libucrt:nlsdata.obj
 0002:00002f08       ??_C@_17PNNKMEED@?$AAM?$AAa?$AAy?$AA?$AA@ 10021f08     libucrt:nlsdata.obj
 0002:00002f10       ??_C@_17KCJGOCPB@?$AAJ?$AAu?$AAn?$AA?$AA@ 10021f10     libucrt:nlsdata.obj
 0002:00002f18       ??_C@_17IJPCKHK@?$AAJ?$AAu?$AAl?$AA?$AA@ 10021f18     libucrt:nlsdata.obj
 0002:00002f20       ??_C@_17ICPELBCN@?$AAA?$AAu?$AAg?$AA?$AA@ 10021f20     libucrt:nlsdata.obj
 0002:00002f28       ??_C@_17HCHCOKMG@?$AAS?$AAe?$AAp?$AA?$AA@ 10021f28     libucrt:nlsdata.obj
 0002:00002f30       ??_C@_17FNLKOI@?$AAO?$AAc?$AAt?$AA?$AA@ 10021f30     libucrt:nlsdata.obj
 0002:00002f38       ??_C@_17BBDMLCIG@?$AAN?$AAo?$AAv?$AA?$AA@ 10021f38     libucrt:nlsdata.obj
 0002:00002f40       ??_C@_17EGKACKIF@?$AAD?$AAe?$AAc?$AA?$AA@ 10021f40     libucrt:nlsdata.obj
 0002:00002f48       ??_C@_1BA@EFMEIEBA@?$AAJ?$AAa?$AAn?$AAu?$AAa?$AAr?$AAy?$AA?$AA@ 10021f48     libucrt:nlsdata.obj
 0002:00002f58       ??_C@_1BC@JGDDFFAM@?$AAF?$AAe?$AAb?$AAr?$AAu?$AAa?$AAr?$AAy?$AA?$AA@ 10021f58     libucrt:nlsdata.obj
 0002:00002f6c       ??_C@_1M@IKEENEDF@?$AAM?$AAa?$AAr?$AAc?$AAh?$AA?$AA@ 10021f6c     libucrt:nlsdata.obj
 0002:00002f78       ??_C@_1M@GJNLMHFD@?$AAA?$AAp?$AAr?$AAi?$AAl?$AA?$AA@ 10021f78     libucrt:nlsdata.obj
 0002:00002f84       ??_C@_19EPFLPGAP@?$AAJ?$AAu?$AAn?$AAe?$AA?$AA@ 10021f84     libucrt:nlsdata.obj
 0002:00002f90       ??_C@_19BIFMLPCD@?$AAJ?$AAu?$AAl?$AAy?$AA?$AA@ 10021f90     libucrt:nlsdata.obj
 0002:00002f9c       ??_C@_1O@PAHLKOAC@?$AAA?$AAu?$AAg?$AAu?$AAs?$AAt?$AA?$AA@ 10021f9c     libucrt:nlsdata.obj
 0002:00002fac       ??_C@_1BE@DKAAMBJL@?$AAS?$AAe?$AAp?$AAt?$AAe?$AAm?$AAb?$AAe?$AAr?$AA?$AA@ 10021fac     libucrt:nlsdata.obj
 0002:00002fc0       ??_C@_1BA@EPANDLNG@?$AAO?$AAc?$AAt?$AAo?$AAb?$AAe?$AAr?$AA?$AA@ 10021fc0     libucrt:nlsdata.obj
 0002:00002fd0       ??_C@_1BC@BGLIFPF@?$AAN?$AAo?$AAv?$AAe?$AAm?$AAb?$AAe?$AAr?$AA?$AA@ 10021fd0     libucrt:nlsdata.obj
 0002:00002fe4       ??_C@_1BC@FEMKIFH@?$AAD?$AAe?$AAc?$AAe?$AAm?$AAb?$AAe?$AAr?$AA?$AA@ 10021fe4     libucrt:nlsdata.obj
 0002:00002ff8       ??_C@_15ODEHAHHF@?$AAA?$AAM?$AA?$AA@ 10021ff8     libucrt:nlsdata.obj
 0002:00003000       ??_C@_15CLMNNGEL@?$AAP?$AAM?$AA?$AA@ 10022000     libucrt:nlsdata.obj
 0002:00003008       ??_C@_1BC@IEBCMHCM@?$AAM?$AAM?$AA?1?$AAd?$AAd?$AA?1?$AAy?$AAy?$AA?$AA@ 10022008     libucrt:nlsdata.obj
 0002:0000301c       ??_C@_1CI@KNAKOEBC@?$AAd?$AAd?$AAd?$AAd?$AA?0?$AA?5?$AAM?$AAM?$AAM?$AAM?$AA?5?$AAd?$AAd?$AA?0?$AA?5?$AAy?$AAy?$AAy?$AAy?$AA?$AA@ 1002201c     libucrt:nlsdata.obj
 0002:00003044       ??_C@_1BC@GDGBMEMK@?$AAH?$AAH?$AA?3?$AAm?$AAm?$AA?3?$AAs?$AAs?$AA?$AA@ 10022044     libucrt:nlsdata.obj
 0002:00003058       ??_C@_1M@BMHNFIME@?$AAe?$AAn?$AA?9?$AAU?$AAS?$AA?$AA@ 10022058     libucrt:nlsdata.obj
 0002:00003068       ___lc_time_c               10022068     libucrt:nlsdata.obj
 0002:000031dc       ??_C@_1M@HPNHIDJI@?$AAj?$AAa?$AA?9?$AAJ?$AAP?$AA?$AA@ 100221dc     libucrt:mbctype.obj
 0002:000031e8       ??_C@_1M@BIBDDEMK@?$AAz?$AAh?$AA?9?$AAC?$AAN?$AA?$AA@ 100221e8     libucrt:mbctype.obj
 0002:000031f4       ??_C@_1M@JLOOOEGK@?$AAk?$AAo?$AA?9?$AAK?$AAR?$AA?$AA@ 100221f4     libucrt:mbctype.obj
 0002:00003200       ??_C@_1M@CLNBBOPM@?$AAz?$AAh?$AA?9?$AAT?$AAW?$AA?$AA@ 10022200     libucrt:mbctype.obj
 0002:00003210       __wctype                   10022210     libucrt:ctype.obj
 0002:00003418       ___newctype                10022418     libucrt:ctype.obj
 0002:00003718       ___newclmap                10022718     libucrt:ctype.obj
 0002:00003898       ___newcumap                10022898     libucrt:ctype.obj
 0002:00004138       ??_C@_15EMKDOKLE@?$AAa?$AAr?$AA?$AA@ 10023138     libucrt:lcidtoname_downlevel.obj
 0002:00004140       ??_C@_15KNPADPLH@?$AAb?$AAg?$AA?$AA@ 10023140     libucrt:lcidtoname_downlevel.obj
 0002:00004148       ??_C@_15EDMHLDMO@?$AAc?$AAa?$AA?$AA@ 10023148     libucrt:lcidtoname_downlevel.obj
 0002:00004150       ??_C@_1O@BPEAJADD@?$AAz?$AAh?$AA?9?$AAC?$AAH?$AAS?$AA?$AA@ 10023150     libucrt:lcidtoname_downlevel.obj
 0002:00004160       ??_C@_15LJNHCMNK@?$AAc?$AAs?$AA?$AA@ 10023160     libucrt:lcidtoname_downlevel.obj
 0002:00004168       ??_C@_15FOMCIDHG@?$AAd?$AAa?$AA?$AA@ 10023168     libucrt:lcidtoname_downlevel.obj
 0002:00004170       ??_C@_15NBKABECB@?$AAd?$AAe?$AA?$AA@ 10023170     libucrt:lcidtoname_downlevel.obj
 0002:00004178       ??_C@_15GHPEIIAO@?$AAe?$AAl?$AA?$AA@ 10023178     libucrt:lcidtoname_downlevel.obj
 0002:00004180       ??_C@_15MNPNEAIF@?$AAe?$AAn?$AA?$AA@ 10023180     libucrt:lcidtoname_downlevel.obj
 0002:00004188       ??_C@_15GPIOMPMH@?$AAe?$AAs?$AA?$AA@ 10023188     libucrt:lcidtoname_downlevel.obj
 0002:00004190       ??_C@_15NGLOAKJC@?$AAf?$AAi?$AA?$AA@ 10023190     libucrt:lcidtoname_downlevel.obj
 0002:00004198       ??_C@_15FBKGNKAM@?$AAf?$AAr?$AA?$AA@ 10023198     libucrt:lcidtoname_downlevel.obj
 0002:000041a0       ??_C@_15KGGCNEFK@?$AAh?$AAe?$AA?$AA@ 100231a0     libucrt:lcidtoname_downlevel.obj
 0002:000041a8       ??_C@_15PGHLIDMF@?$AAh?$AAu?$AA?$AA@ 100231a8     libucrt:lcidtoname_downlevel.obj
 0002:000041b0       ??_C@_15BIEMAPLM@?$AAi?$AAs?$AA?$AA@ 100231b0     libucrt:lcidtoname_downlevel.obj
 0002:000041b8       ??_C@_15IFJLDHAF@?$AAi?$AAt?$AA?$AA@ 100231b8     libucrt:lcidtoname_downlevel.obj
 0002:000041c0       ??_C@_15GEMIOCAG@?$AAj?$AAa?$AA?$AA@ 100231c0     libucrt:lcidtoname_downlevel.obj
 0002:000041c8       ??_C@_15EPELEGJA@?$AAk?$AAo?$AA?$AA@ 100231c8     libucrt:lcidtoname_downlevel.obj
 0002:000041d0       ??_C@_15NDDHIMN@?$AAn?$AAl?$AA?$AA@ 100231d0     libucrt:lcidtoname_downlevel.obj
 0002:000041d8       ??_C@_15BPIGNHCD@?$AAn?$AAo?$AA?$AA@ 100231d8     libucrt:lcidtoname_downlevel.obj
 0002:000041e0       ??_C@_15DEOPBLCG@?$AAp?$AAl?$AA?$AA@ 100231e0     libucrt:lcidtoname_downlevel.obj
 0002:000041e8       ??_C@_15KBECGEFG@?$AAp?$AAt?$AA?$AA@ 100231e8     libucrt:lcidtoname_downlevel.obj
 0002:000041f0       ??_C@_15GLJCBFMD@?$AAr?$AAo?$AA?$AA@ 100231f0     libucrt:lcidtoname_downlevel.obj
 0002:000041f8       ??_C@_15FEDGKCDI@?$AAr?$AAu?$AA?$AA@ 100231f8     libucrt:lcidtoname_downlevel.obj
 0002:00004200       ??_C@_15GLKMLLHM@?$AAh?$AAr?$AA?$AA@ 10023200     libucrt:lcidtoname_downlevel.obj
 0002:00004208       ??_C@_15CPKMFBDB@?$AAs?$AAk?$AA?$AA@ 10023208     libucrt:lcidtoname_downlevel.obj
 0002:00004210       ??_C@_15BAAIOGMK@?$AAs?$AAq?$AA?$AA@ 10023210     libucrt:lcidtoname_downlevel.obj
 0002:00004218       ??_C@_15INNPNOHD@?$AAs?$AAv?$AA?$AA@ 10023218     libucrt:lcidtoname_downlevel.obj
 0002:00004220       ??_C@_15CABMMOGH@?$AAt?$AAh?$AA?$AA@ 10023220     libucrt:lcidtoname_downlevel.obj
 0002:00004228       ??_C@_15BPLIHJJM@?$AAt?$AAr?$AA?$AA@ 10023228     libucrt:lcidtoname_downlevel.obj
 0002:00004230       ??_C@_15NEOEKKDJ@?$AAu?$AAr?$AA?$AA@ 10023230     libucrt:lcidtoname_downlevel.obj
 0002:00004238       ??_C@_15NFICGAJK@?$AAi?$AAd?$AA?$AA@ 10023238     libucrt:lcidtoname_downlevel.obj
 0002:00004240       ??_C@_15PJPFLCCM@?$AAu?$AAk?$AA?$AA@ 10023240     libucrt:lcidtoname_downlevel.obj
 0002:00004248       ??_C@_15HPJPHDM@?$AAb?$AAe?$AA?$AA@ 10023248     libucrt:lcidtoname_downlevel.obj
 0002:00004250       ??_C@_15LCHLGJII@?$AAs?$AAl?$AA?$AA@ 10023250     libucrt:lcidtoname_downlevel.obj
 0002:00004258       ??_C@_15PCFJPHHO@?$AAe?$AAt?$AA?$AA@ 10023258     libucrt:lcidtoname_downlevel.obj
 0002:00004260       ??_C@_15HPFPGODN@?$AAl?$AAv?$AA?$AA@ 10023260     libucrt:lcidtoname_downlevel.obj
 0002:00004268       ??_C@_15NFFGKGLG@?$AAl?$AAt?$AA?$AA@ 10023268     libucrt:lcidtoname_downlevel.obj
 0002:00004270       ??_C@_15BDAKCCHN@?$AAf?$AAa?$AA?$AA@ 10023270     libucrt:lcidtoname_downlevel.obj
 0002:00004278       ??_C@_15NFGIAIAJ@?$AAv?$AAi?$AA?$AA@ 10023278     libucrt:lcidtoname_downlevel.obj
 0002:00004280       ??_C@_15LMKNDMHN@?$AAh?$AAy?$AA?$AA@ 10023280     libucrt:lcidtoname_downlevel.obj
 0002:00004288       ??_C@_15IJBHMCFL@?$AAa?$AAz?$AA?$AA@ 10023288     libucrt:lcidtoname_downlevel.obj
 0002:00004290       ??_C@_15EKOFJABL@?$AAe?$AAu?$AA?$AA@ 10023290     libucrt:lcidtoname_downlevel.obj
 0002:00004298       ??_C@_15BGHADCNK@?$AAm?$AAk?$AA?$AA@ 10023298     libucrt:lcidtoname_downlevel.obj
 0002:000042a0       ??_C@_15JDNICKHM@?$AAa?$AAf?$AA?$AA@ 100232a0     libucrt:lcidtoname_downlevel.obj
 0002:000042a8       ??_C@_15KPJEDBKD@?$AAk?$AAa?$AA?$AA@ 100232a8     libucrt:lcidtoname_downlevel.obj
 0002:000042b0       ??_C@_15PDNFFFEO@?$AAf?$AAo?$AA?$AA@ 100232b0     libucrt:lcidtoname_downlevel.obj
 0002:000042b8       ??_C@_15OMLEGLOC@?$AAh?$AAi?$AA?$AA@ 100232b8     libucrt:lcidtoname_downlevel.obj
 0002:000042c0       ??_C@_15IDNNENKK@?$AAm?$AAs?$AA?$AA@ 100232c0     libucrt:lcidtoname_downlevel.obj
 0002:000042c8       ??_C@_15MACJNBMH@?$AAk?$AAk?$AA?$AA@ 100232c8     libucrt:lcidtoname_downlevel.obj
 0002:000042d0       ??_C@_15DKDJEOND@?$AAk?$AAy?$AA?$AA@ 100232d0     libucrt:lcidtoname_downlevel.obj
 0002:000042d8       ??_C@_15DFGDLJBG@?$AAs?$AAw?$AA?$AA@ 100232d8     libucrt:lcidtoname_downlevel.obj
 0002:000042e0       ??_C@_15BBFAICNG@?$AAu?$AAz?$AA?$AA@ 100232e0     libucrt:lcidtoname_downlevel.obj
 0002:000042e8       ??_C@_15DKNDCGEA@?$AAt?$AAt?$AA?$AA@ 100232e8     libucrt:lcidtoname_downlevel.obj
 0002:000042f0       ??_C@_15MGIFMDPL@?$AAp?$AAa?$AA?$AA@ 100232f0     libucrt:lcidtoname_downlevel.obj
 0002:000042f8       ??_C@_15HCNDBBA@?$AAg?$AAu?$AA?$AA@ 100232f8     libucrt:lcidtoname_downlevel.obj
 0002:00004300       ??_C@_15FNBEIBON@?$AAt?$AAa?$AA?$AA@ 10023300     libucrt:lcidtoname_downlevel.obj
 0002:00004308       ??_C@_15NCHGBGLK@?$AAt?$AAe?$AA?$AA@ 10023308     libucrt:lcidtoname_downlevel.obj
 0002:00004310       ??_C@_15PHPHCBPF@?$AAk?$AAn?$AA?$AA@ 10023310     libucrt:lcidtoname_downlevel.obj
 0002:00004318       ??_C@_15DLGBCKMP@?$AAm?$AAr?$AA?$AA@ 10023318     libucrt:lcidtoname_downlevel.obj
 0002:00004320       ??_C@_15EABBLBFF@?$AAs?$AAa?$AA?$AA@ 10023320     libucrt:lcidtoname_downlevel.obj
 0002:00004328       ??_C@_15CBKOMCOI@?$AAm?$AAn?$AA?$AA@ 10023328     libucrt:lcidtoname_downlevel.obj
 0002:00004330       ??_C@_15CKDMCJAF@?$AAg?$AAl?$AA?$AA@ 10023330     libucrt:lcidtoname_downlevel.obj
 0002:00004338       ??_C@_17CNJFBPG@?$AAk?$AAo?$AAk?$AA?$AA@ 10023338     libucrt:lcidtoname_downlevel.obj
 0002:00004340       ??_C@_17FFBJICPL@?$AAs?$AAy?$AAr?$AA?$AA@ 10023340     libucrt:lcidtoname_downlevel.obj
 0002:00004348       ??_C@_17KPNDCPAF@?$AAd?$AAi?$AAv?$AA?$AA@ 10023348     libucrt:lcidtoname_downlevel.obj
 0002:00004350       ??_C@_11LOCGONAA@?$AA?$AA@ 10023350     libucrt:lcidtoname_downlevel.obj
 0002:00004354       ??_C@_1M@OKAHONE@?$AAa?$AAr?$AA?9?$AAS?$AAA?$AA?$AA@ 10023354     libucrt:lcidtoname_downlevel.obj
 0002:00004360       ??_C@_1M@FFFIGIGK@?$AAb?$AAg?$AA?9?$AAB?$AAG?$AA?$AA@ 10023360     libucrt:lcidtoname_downlevel.obj
 0002:0000436c       ??_C@_1M@BJNKEDC@?$AAc?$AAa?$AA?9?$AAE?$AAS?$AA?$AA@ 1002336c     libucrt:lcidtoname_downlevel.obj
 0002:00004378       ??_C@_1M@IJJHFJHA@?$AAc?$AAs?$AA?9?$AAC?$AAZ?$AA?$AA@ 10023378     libucrt:lcidtoname_downlevel.obj
 0002:00004384       ??_C@_1M@CLPEOBGI@?$AAd?$AAa?$AA?9?$AAD?$AAK?$AA?$AA@ 10023384     libucrt:lcidtoname_downlevel.obj
 0002:00004390       ??_C@_1M@MCMADGCB@?$AAd?$AAe?$AA?9?$AAD?$AAE?$AA?$AA@ 10023390     libucrt:lcidtoname_downlevel.obj
 0002:0000439c       ??_C@_1M@OOCKEMAM@?$AAe?$AAl?$AA?9?$AAG?$AAR?$AA?$AA@ 1002339c     libucrt:lcidtoname_downlevel.obj
 0002:000043a8       ??_C@_1M@DDNJFGID@?$AAf?$AAi?$AA?9?$AAF?$AAI?$AA?$AA@ 100233a8     libucrt:lcidtoname_downlevel.obj
 0002:000043b4       ??_C@_1M@GLIPPMAC@?$AAf?$AAr?$AA?9?$AAF?$AAR?$AA?$AA@ 100233b4     libucrt:lcidtoname_downlevel.obj
 0002:000043c0       ??_C@_1M@GFMCHPE@?$AAh?$AAe?$AA?9?$AAI?$AAL?$AA?$AA@ 100233c0     libucrt:lcidtoname_downlevel.obj
 0002:000043cc       ??_C@_1M@MHLPGNKM@?$AAh?$AAu?$AA?9?$AAH?$AAU?$AA?$AA@ 100233cc     libucrt:lcidtoname_downlevel.obj
 0002:000043d8       ??_C@_1M@LPDDNNPN@?$AAi?$AAs?$AA?9?$AAI?$AAS?$AA?$AA@ 100233d8     libucrt:lcidtoname_downlevel.obj
 0002:000043e4       ??_C@_1M@MADIPODN@?$AAi?$AAt?$AA?9?$AAI?$AAT?$AA?$AA@ 100233e4     libucrt:lcidtoname_downlevel.obj
 0002:000043f0       ??_C@_1M@IHBJJGG@?$AAn?$AAl?$AA?9?$AAN?$AAL?$AA?$AA@ 100233f0     libucrt:lcidtoname_downlevel.obj
 0002:000043fc       ??_C@_1M@EANAGDL@?$AAn?$AAb?$AA?9?$AAN?$AAO?$AA?$AA@ 100233fc     libucrt:lcidtoname_downlevel.obj
 0002:00004408       ??_C@_1M@NEIEMEGP@?$AAp?$AAl?$AA?9?$AAP?$AAL?$AA?$AA@ 10023408     libucrt:lcidtoname_downlevel.obj
 0002:00004414       ??_C@_1M@BOCFIGEP@?$AAp?$AAt?$AA?9?$AAB?$AAR?$AA?$AA@ 10023414     libucrt:lcidtoname_downlevel.obj
 0002:00004420       ??_C@_1M@IMPFOPBG@?$AAr?$AAo?$AA?9?$AAR?$AAO?$AA?$AA@ 10023420     libucrt:lcidtoname_downlevel.obj
 0002:0000442c       ??_C@_1M@IDNNEJMM@?$AAr?$AAu?$AA?9?$AAR?$AAU?$AA?$AA@ 1002342c     libucrt:lcidtoname_downlevel.obj
 0002:00004438       ??_C@_1M@LILEEOGM@?$AAh?$AAr?$AA?9?$AAH?$AAR?$AA?$AA@ 10023438     libucrt:lcidtoname_downlevel.obj
 0002:00004444       ??_C@_1M@FKIFEHPB@?$AAs?$AAk?$AA?9?$AAS?$AAK?$AA?$AA@ 10023444     libucrt:lcidtoname_downlevel.obj
 0002:00004450       ??_C@_1M@LJMAMNPJ@?$AAs?$AAq?$AA?9?$AAA?$AAL?$AA?$AA@ 10023450     libucrt:lcidtoname_downlevel.obj
 0002:0000445c       ??_C@_1M@GIAKDKJK@?$AAs?$AAv?$AA?9?$AAS?$AAE?$AA?$AA@ 1002345c     libucrt:lcidtoname_downlevel.obj
 0002:00004468       ??_C@_1M@MKJKIKCL@?$AAt?$AAh?$AA?9?$AAT?$AAH?$AA?$AA@ 10023468     libucrt:lcidtoname_downlevel.obj
 0002:00004474       ??_C@_1M@MFLCCMPB@?$AAt?$AAr?$AA?9?$AAT?$AAR?$AA?$AA@ 10023474     libucrt:lcidtoname_downlevel.obj
 0002:00004480       ??_C@_1M@OIJHDKJN@?$AAu?$AAr?$AA?9?$AAP?$AAK?$AA?$AA@ 10023480     libucrt:lcidtoname_downlevel.obj
 0002:0000448c       ??_C@_1M@LHIPCIEK@?$AAi?$AAd?$AA?9?$AAI?$AAD?$AA?$AA@ 1002348c     libucrt:lcidtoname_downlevel.obj
 0002:00004498       ??_C@_1M@MFMOBGI@?$AAu?$AAk?$AA?9?$AAU?$AAA?$AA?$AA@ 10023498     libucrt:lcidtoname_downlevel.obj
 0002:000044a4       ??_C@_1M@OBGLJIPL@?$AAb?$AAe?$AA?9?$AAB?$AAY?$AA?$AA@ 100234a4     libucrt:lcidtoname_downlevel.obj
 0002:000044b0       ??_C@_1M@BCFAJEAD@?$AAs?$AAl?$AA?9?$AAS?$AAI?$AA?$AA@ 100234b0     libucrt:lcidtoname_downlevel.obj
 0002:000044bc       ??_C@_1M@FKFFEDDN@?$AAe?$AAt?$AA?9?$AAE?$AAE?$AA?$AA@ 100234bc     libucrt:lcidtoname_downlevel.obj
 0002:000044c8       ??_C@_1M@KGKKAACI@?$AAl?$AAv?$AA?9?$AAL?$AAV?$AA?$AA@ 100234c8     libucrt:lcidtoname_downlevel.obj
 0002:000044d4       ??_C@_1M@IFGBIJO@?$AAl?$AAt?$AA?9?$AAL?$AAT?$AA?$AA@ 100234d4     libucrt:lcidtoname_downlevel.obj
 0002:000044e0       ??_C@_1M@FGEAHEDM@?$AAf?$AAa?$AA?9?$AAI?$AAR?$AA?$AA@ 100234e0     libucrt:lcidtoname_downlevel.obj
 0002:000044ec       ??_C@_1M@KBMAIBFN@?$AAv?$AAi?$AA?9?$AAV?$AAN?$AA?$AA@ 100234ec     libucrt:lcidtoname_downlevel.obj
 0002:000044f8       ??_C@_1M@GPCBKDJK@?$AAh?$AAy?$AA?9?$AAA?$AAM?$AA?$AA@ 100234f8     libucrt:lcidtoname_downlevel.obj
 0002:00004504       ??_C@_1BG@BECMDDJB@?$AAa?$AAz?$AA?9?$AAA?$AAZ?$AA?9?$AAL?$AAa?$AAt?$AAn?$AA?$AA@ 10023504     libucrt:lcidtoname_downlevel.obj
 0002:0000451c       ??_C@_1M@MAOFCAEA@?$AAe?$AAu?$AA?9?$AAE?$AAS?$AA?$AA@ 1002351c     libucrt:lcidtoname_downlevel.obj
 0002:00004528       ??_C@_1M@IGHABKPI@?$AAm?$AAk?$AA?9?$AAM?$AAK?$AA?$AA@ 10023528     libucrt:lcidtoname_downlevel.obj
 0002:00004534       ??_C@_1M@IAIGNEJG@?$AAt?$AAn?$AA?9?$AAZ?$AAA?$AA?$AA@ 10023534     libucrt:lcidtoname_downlevel.obj
 0002:00004540       ??_C@_1M@IIJCOJFA@?$AAx?$AAh?$AA?9?$AAZ?$AAA?$AA?$AA@ 10023540     libucrt:lcidtoname_downlevel.obj
 0002:0000454c       ??_C@_1M@LGPJHNJH@?$AAz?$AAu?$AA?9?$AAZ?$AAA?$AA?$AA@ 1002354c     libucrt:lcidtoname_downlevel.obj
 0002:00004558       ??_C@_1M@HOKAOIO@?$AAa?$AAf?$AA?9?$AAZ?$AAA?$AA?$AA@ 10023558     libucrt:lcidtoname_downlevel.obj
 0002:00004564       ??_C@_1M@DPCLHLIE@?$AAk?$AAa?$AA?9?$AAG?$AAE?$AA?$AA@ 10023564     libucrt:lcidtoname_downlevel.obj
 0002:00004570       ??_C@_1M@BLKMHJBI@?$AAf?$AAo?$AA?9?$AAF?$AAO?$AA?$AA@ 10023570     libucrt:lcidtoname_downlevel.obj
 0002:0000457c       ??_C@_1M@LGGJAPPB@?$AAh?$AAi?$AA?9?$AAI?$AAN?$AA?$AA@ 1002357c     libucrt:lcidtoname_downlevel.obj
 0002:00004588       ??_C@_1M@FIKPIHFE@?$AAm?$AAt?$AA?9?$AAM?$AAT?$AA?$AA@ 10023588     libucrt:lcidtoname_downlevel.obj
 0002:00004594       ??_C@_1M@HEGGPBFA@?$AAs?$AAe?$AA?9?$AAN?$AAO?$AA?$AA@ 10023594     libucrt:lcidtoname_downlevel.obj
 0002:000045a0       ??_C@_1M@EIBJEEPA@?$AAm?$AAs?$AA?9?$AAM?$AAY?$AA?$AA@ 100235a0     libucrt:lcidtoname_downlevel.obj
 0002:000045ac       ??_C@_1M@FHLBGMPP@?$AAk?$AAk?$AA?9?$AAK?$AAZ?$AA?$AA@ 100235ac     libucrt:lcidtoname_downlevel.obj
 0002:000045b8       ??_C@_1M@NGJJLCGI@?$AAk?$AAy?$AA?9?$AAK?$AAG?$AA?$AA@ 100235b8     libucrt:lcidtoname_downlevel.obj
 0002:000045c4       ??_C@_1M@GIENNBFC@?$AAs?$AAw?$AA?9?$AAK?$AAE?$AA?$AA@ 100235c4     libucrt:lcidtoname_downlevel.obj
 0002:000045d0       ??_C@_1BG@NDGMJIMJ@?$AAu?$AAz?$AA?9?$AAU?$AAZ?$AA?9?$AAL?$AAa?$AAt?$AAn?$AA?$AA@ 100235d0     libucrt:lcidtoname_downlevel.obj
 0002:000045e8       ??_C@_1M@IDCCIHBC@?$AAt?$AAt?$AA?9?$AAR?$AAU?$AA?$AA@ 100235e8     libucrt:lcidtoname_downlevel.obj
 0002:000045f4       ??_C@_1M@LOICPMOJ@?$AAb?$AAn?$AA?9?$AAI?$AAN?$AA?$AA@ 100235f4     libucrt:lcidtoname_downlevel.obj
 0002:00004600       ??_C@_1M@KPKKNEAH@?$AAp?$AAa?$AA?9?$AAI?$AAN?$AA?$AA@ 10023600     libucrt:lcidtoname_downlevel.obj
 0002:0000460c       ??_C@_1M@PJGPPBOG@?$AAg?$AAu?$AA?9?$AAI?$AAN?$AA?$AA@ 1002360c     libucrt:lcidtoname_downlevel.obj
 0002:00004618       ??_C@_1M@KMKMOPHI@?$AAt?$AAa?$AA?9?$AAI?$AAN?$AA?$AA@ 10023618     libucrt:lcidtoname_downlevel.obj
 0002:00004624       ??_C@_1M@KFEHEPAC@?$AAt?$AAe?$AA?9?$AAI?$AAN?$AA?$AA@ 10023624     libucrt:lcidtoname_downlevel.obj
 0002:00004630       ??_C@_1M@CDCLMGHI@?$AAk?$AAn?$AA?9?$AAI?$AAN?$AA?$AA@ 10023630     libucrt:lcidtoname_downlevel.obj
 0002:0000463c       ??_C@_1M@MIODLDKF@?$AAm?$AAl?$AA?9?$AAI?$AAN?$AA?$AA@ 1002363c     libucrt:lcidtoname_downlevel.obj
 0002:00004648       ??_C@_1M@PBIEACPO@?$AAm?$AAr?$AA?9?$AAI?$AAN?$AA?$AA@ 10023648     libucrt:lcidtoname_downlevel.obj
 0002:00004654       ??_C@_1M@NIDEAGPH@?$AAs?$AAa?$AA?9?$AAI?$AAN?$AA?$AA@ 10023654     libucrt:lcidtoname_downlevel.obj
 0002:00004660       ??_C@_1M@FHIHCBIO@?$AAm?$AAn?$AA?9?$AAM?$AAN?$AA?$AA@ 10023660     libucrt:lcidtoname_downlevel.obj
 0002:0000466c       ??_C@_1M@JAIJPENP@?$AAc?$AAy?$AA?9?$AAG?$AAB?$AA?$AA@ 1002366c     libucrt:lcidtoname_downlevel.obj
 0002:00004678       ??_C@_1M@PHGFBEPN@?$AAg?$AAl?$AA?9?$AAE?$AAS?$AA?$AA@ 10023678     libucrt:lcidtoname_downlevel.obj
 0002:00004684       ??_C@_1O@KPIPDNCP@?$AAk?$AAo?$AAk?$AA?9?$AAI?$AAN?$AA?$AA@ 10023684     libucrt:lcidtoname_downlevel.obj
 0002:00004694       ??_C@_1O@KNHJLDJA@?$AAs?$AAy?$AAr?$AA?9?$AAS?$AAY?$AA?$AA@ 10023694     libucrt:lcidtoname_downlevel.obj
 0002:000046a4       ??_C@_1O@MKEKBLAH@?$AAd?$AAi?$AAv?$AA?9?$AAM?$AAV?$AA?$AA@ 100236a4     libucrt:lcidtoname_downlevel.obj
 0002:000046b4       ??_C@_1O@OHDCKDDF@?$AAq?$AAu?$AAz?$AA?9?$AAB?$AAO?$AA?$AA@ 100236b4     libucrt:lcidtoname_downlevel.obj
 0002:000046c4       ??_C@_1M@LEPJNLFD@?$AAn?$AAs?$AA?9?$AAZ?$AAA?$AA?$AA@ 100236c4     libucrt:lcidtoname_downlevel.obj
 0002:000046d0       ??_C@_1M@OMLEIIJB@?$AAm?$AAi?$AA?9?$AAN?$AAZ?$AA?$AA@ 100236d0     libucrt:lcidtoname_downlevel.obj
 0002:000046dc       ??_C@_1M@PMPEAILG@?$AAa?$AAr?$AA?9?$AAI?$AAQ?$AA?$AA@ 100236dc     libucrt:lcidtoname_downlevel.obj
 0002:000046e8       ??_C@_1M@CNKPNOEE@?$AAd?$AAe?$AA?9?$AAC?$AAH?$AA?$AA@ 100236e8     libucrt:lcidtoname_downlevel.obj
 0002:000046f4       ??_C@_1M@LKMGMLKO@?$AAe?$AAn?$AA?9?$AAG?$AAB?$AA?$AA@ 100236f4     libucrt:lcidtoname_downlevel.obj
 0002:00004700       ??_C@_1M@PGKJFFGL@?$AAe?$AAs?$AA?9?$AAM?$AAX?$AA?$AA@ 10023700     libucrt:lcidtoname_downlevel.obj
 0002:0000470c       ??_C@_1M@DNNANBDC@?$AAf?$AAr?$AA?9?$AAB?$AAE?$AA?$AA@ 1002370c     libucrt:lcidtoname_downlevel.obj
 0002:00004718       ??_C@_1M@HLGMDFHM@?$AAi?$AAt?$AA?9?$AAC?$AAH?$AA?$AA@ 10023718     libucrt:lcidtoname_downlevel.obj
 0002:00004724       ??_C@_1M@CLLBGJH@?$AAn?$AAl?$AA?9?$AAB?$AAE?$AA?$AA@ 10023724     libucrt:lcidtoname_downlevel.obj
 0002:00004730       ??_C@_1M@BODBOGLF@?$AAn?$AAn?$AA?9?$AAN?$AAO?$AA?$AA@ 10023730     libucrt:lcidtoname_downlevel.obj
 0002:0000473c       ??_C@_1M@HFFAHKAD@?$AAp?$AAt?$AA?9?$AAP?$AAT?$AA?$AA@ 1002373c     libucrt:lcidtoname_downlevel.obj
 0002:00004748       ??_C@_1BG@LNOAKHIE@?$AAs?$AAr?$AA?9?$AAS?$AAP?$AA?9?$AAL?$AAa?$AAt?$AAn?$AA?$AA@ 10023748     libucrt:lcidtoname_downlevel.obj
 0002:00004760       ??_C@_1M@HBMHBGAK@?$AAs?$AAv?$AA?9?$AAF?$AAI?$AA?$AA@ 10023760     libucrt:lcidtoname_downlevel.obj
 0002:0000476c       ??_C@_1BG@DGCJGJBE@?$AAa?$AAz?$AA?9?$AAA?$AAZ?$AA?9?$AAC?$AAy?$AAr?$AAl?$AA?$AA@ 1002376c     libucrt:lcidtoname_downlevel.obj
 0002:00004784       ??_C@_1M@KEJDAAHB@?$AAs?$AAe?$AA?9?$AAS?$AAE?$AA?$AA@ 10023784     libucrt:lcidtoname_downlevel.obj
 0002:00004790       ??_C@_1M@HEIBJJAD@?$AAm?$AAs?$AA?9?$AAB?$AAN?$AA?$AA@ 10023790     libucrt:lcidtoname_downlevel.obj
 0002:0000479c       ??_C@_1BG@PBGJMCEM@?$AAu?$AAz?$AA?9?$AAU?$AAZ?$AA?9?$AAC?$AAy?$AAr?$AAl?$AA?$AA@ 1002379c     libucrt:lcidtoname_downlevel.obj
 0002:000047b4       ??_C@_1O@LAOBCMDF@?$AAq?$AAu?$AAz?$AA?9?$AAE?$AAC?$AA?$AA@ 100237b4     libucrt:lcidtoname_downlevel.obj
 0002:000047c4       ??_C@_1M@POEEMAIO@?$AAa?$AAr?$AA?9?$AAE?$AAG?$AA?$AA@ 100237c4     libucrt:lcidtoname_downlevel.obj
 0002:000047d0       ??_C@_1M@EFAKDEDL@?$AAz?$AAh?$AA?9?$AAH?$AAK?$AA?$AA@ 100237d0     libucrt:lcidtoname_downlevel.obj
 0002:000047dc       ??_C@_1M@HKKIJHGI@?$AAd?$AAe?$AA?9?$AAA?$AAT?$AA?$AA@ 100237dc     libucrt:lcidtoname_downlevel.obj
 0002:000047e8       ??_C@_1M@KBFBEHJF@?$AAe?$AAn?$AA?9?$AAA?$AAU?$AA?$AA@ 100237e8     libucrt:lcidtoname_downlevel.obj
 0002:000047f4       ??_C@_1M@MNPLFAAH@?$AAe?$AAs?$AA?9?$AAE?$AAS?$AA?$AA@ 100237f4     libucrt:lcidtoname_downlevel.obj
 0002:00004800       ??_C@_1M@HJOOJFMA@?$AAf?$AAr?$AA?9?$AAC?$AAA?$AA?$AA@ 10023800     libucrt:lcidtoname_downlevel.obj
 0002:0000480c       ??_C@_1BG@JPOFPNAB@?$AAs?$AAr?$AA?9?$AAS?$AAP?$AA?9?$AAC?$AAy?$AAr?$AAl?$AA?$AA@ 1002380c     libucrt:lcidtoname_downlevel.obj
 0002:00004824       ??_C@_1M@LNFOCMOB@?$AAs?$AAe?$AA?9?$AAF?$AAI?$AA?$AA@ 10023824     libucrt:lcidtoname_downlevel.obj
 0002:00004830       ??_C@_1O@MGJBOAMB@?$AAq?$AAu?$AAz?$AA?9?$AAP?$AAE?$AA?$AA@ 10023830     libucrt:lcidtoname_downlevel.obj
 0002:00004840       ??_C@_1M@GJINLBOK@?$AAa?$AAr?$AA?9?$AAL?$AAY?$AA?$AA@ 10023840     libucrt:lcidtoname_downlevel.obj
 0002:0000484c       ??_C@_1M@GGMNHJNL@?$AAz?$AAh?$AA?9?$AAS?$AAG?$AA?$AA@ 1002384c     libucrt:lcidtoname_downlevel.obj
 0002:00004858       ??_C@_1M@HOIKODND@?$AAd?$AAe?$AA?9?$AAL?$AAU?$AA?$AA@ 10023858     libucrt:lcidtoname_downlevel.obj
 0002:00004864       ??_C@_1M@DDOCCGFG@?$AAe?$AAn?$AA?9?$AAC?$AAA?$AA?$AA@ 10023864     libucrt:lcidtoname_downlevel.obj
 0002:00004870       ??_C@_1M@BNOEMJLF@?$AAe?$AAs?$AA?9?$AAG?$AAT?$AA?$AA@ 10023870     libucrt:lcidtoname_downlevel.obj
 0002:0000487c       ??_C@_1M@EOGNKEK@?$AAf?$AAr?$AA?9?$AAC?$AAH?$AA?$AA@ 1002387c     libucrt:lcidtoname_downlevel.obj
 0002:00004888       ??_C@_1M@FLIDJFHL@?$AAh?$AAr?$AA?9?$AAB?$AAA?$AA?$AA@ 10023888     libucrt:lcidtoname_downlevel.obj
 0002:00004894       ??_C@_1O@FMCELNAJ@?$AAs?$AAm?$AAj?$AA?9?$AAN?$AAO?$AA?$AA@ 10023894     libucrt:lcidtoname_downlevel.obj
 0002:000048a4       ??_C@_1M@JHGLJMGJ@?$AAa?$AAr?$AA?9?$AAD?$AAZ?$AA?$AA@ 100238a4     libucrt:lcidtoname_downlevel.obj
 0002:000048b0       ??_C@_1M@JKKFDCNP@?$AAz?$AAh?$AA?9?$AAM?$AAO?$AA?$AA@ 100238b0     libucrt:lcidtoname_downlevel.obj
 0002:000048bc       ??_C@_1M@GEEFALPE@?$AAd?$AAe?$AA?9?$AAL?$AAI?$AA?$AA@ 100238bc     libucrt:lcidtoname_downlevel.obj
 0002:000048c8       ??_C@_1M@IGEOFBG@?$AAe?$AAn?$AA?9?$AAN?$AAZ?$AA?$AA@ 100238c8     libucrt:lcidtoname_downlevel.obj
 0002:000048d4       ??_C@_1M@KDBONEHP@?$AAe?$AAs?$AA?9?$AAC?$AAR?$AA?$AA@ 100238d4     libucrt:lcidtoname_downlevel.obj
 0002:000048e0       ??_C@_1M@FHMDOHNN@?$AAf?$AAr?$AA?9?$AAL?$AAU?$AA?$AA@ 100238e0     libucrt:lcidtoname_downlevel.obj
 0002:000048ec       ??_C@_1BG@NFKKMAFG@?$AAb?$AAs?$AA?9?$AAB?$AAA?$AA?9?$AAL?$AAa?$AAt?$AAn?$AA?$AA@ 100238ec     libucrt:lcidtoname_downlevel.obj
 0002:00004904       ??_C@_1O@IMNBEMCI@?$AAs?$AAm?$AAj?$AA?9?$AAS?$AAE?$AA?$AA@ 10023904     libucrt:lcidtoname_downlevel.obj
 0002:00004914       ??_C@_1M@DHHMBNDP@?$AAa?$AAr?$AA?9?$AAM?$AAA?$AA?$AA@ 10023914     libucrt:lcidtoname_downlevel.obj
 0002:00004920       ??_C@_1M@BNBLJCGH@?$AAe?$AAn?$AA?9?$AAI?$AAE?$AA?$AA@ 10023920     libucrt:lcidtoname_downlevel.obj
 0002:0000492c       ??_C@_1M@GEPAFMDL@?$AAe?$AAs?$AA?9?$AAP?$AAA?$AA?$AA@ 1002392c     libucrt:lcidtoname_downlevel.obj
 0002:00004938       ??_C@_1M@OJONDMDL@?$AAf?$AAr?$AA?9?$AAM?$AAC?$AA?$AA@ 10023938     libucrt:lcidtoname_downlevel.obj
 0002:00004944       ??_C@_1BG@OBCNFJB@?$AAs?$AAr?$AA?9?$AAB?$AAA?$AA?9?$AAL?$AAa?$AAt?$AAn?$AA?$AA@ 10023944     libucrt:lcidtoname_downlevel.obj
 0002:0000495c       ??_C@_1O@KEMEEGPO@?$AAs?$AAm?$AAa?$AA?9?$AAN?$AAO?$AA?$AA@ 1002395c     libucrt:lcidtoname_downlevel.obj
 0002:0000496c       ??_C@_1M@ELMGFODK@?$AAa?$AAr?$AA?9?$AAT?$AAN?$AA?$AA@ 1002396c     libucrt:lcidtoname_downlevel.obj
 0002:00004978       ??_C@_1M@BHDLHFAF@?$AAe?$AAn?$AA?9?$AAZ?$AAA?$AA?$AA@ 10023978     libucrt:lcidtoname_downlevel.obj
 0002:00004984       ??_C@_1M@BMGIGLIF@?$AAe?$AAs?$AA?9?$AAD?$AAO?$AA?$AA@ 10023984     libucrt:lcidtoname_downlevel.obj
 0002:00004990       ??_C@_1BG@CMBHIPBE@?$AAs?$AAr?$AA?9?$AAB?$AAA?$AA?9?$AAC?$AAy?$AAr?$AAl?$AA?$AA@ 10023990     libucrt:lcidtoname_downlevel.obj
 0002:000049a8       ??_C@_1O@HEDBLHNP@?$AAs?$AAm?$AAa?$AA?9?$AAS?$AAE?$AA?$AA@ 100239a8     libucrt:lcidtoname_downlevel.obj
 0002:000049b8       ??_C@_1M@DAGCADIM@?$AAa?$AAr?$AA?9?$AAO?$AAM?$AA?$AA@ 100239b8     libucrt:lcidtoname_downlevel.obj
 0002:000049c4       ??_C@_1M@FODLMICG@?$AAe?$AAn?$AA?9?$AAJ?$AAM?$AA?$AA@ 100239c4     libucrt:lcidtoname_downlevel.obj
 0002:000049d0       ??_C@_1M@DNMLCIHB@?$AAe?$AAs?$AA?9?$AAV?$AAE?$AA?$AA@ 100239d0     libucrt:lcidtoname_downlevel.obj
 0002:000049dc       ??_C@_1O@EOKHMKJK@?$AAs?$AAm?$AAs?$AA?9?$AAF?$AAI?$AA?$AA@ 100239dc     libucrt:lcidtoname_downlevel.obj
 0002:000049ec       ??_C@_1M@CAFJMKOF@?$AAa?$AAr?$AA?9?$AAY?$AAE?$AA?$AA@ 100239ec     libucrt:lcidtoname_downlevel.obj
 0002:000049f8       ??_C@_1M@CBFHIJLI@?$AAe?$AAn?$AA?9?$AAC?$AAB?$AA?$AA@ 100239f8     libucrt:lcidtoname_downlevel.obj
 0002:00004a04       ??_C@_1M@BGNFLDN@?$AAe?$AAs?$AA?9?$AAC?$AAO?$AA?$AA@ 10023a04     libucrt:lcidtoname_downlevel.obj
 0002:00004a10       ??_C@_1O@JMPHMAMC@?$AAs?$AAm?$AAn?$AA?9?$AAF?$AAI?$AA?$AA@ 10023a10     libucrt:lcidtoname_downlevel.obj
 0002:00004a20       ??_C@_1M@JLANABKE@?$AAa?$AAr?$AA?9?$AAS?$AAY?$AA?$AA@ 10023a20     libucrt:lcidtoname_downlevel.obj
 0002:00004a2c       ??_C@_1M@HPKGCFGN@?$AAe?$AAn?$AA?9?$AAB?$AAZ?$AA?$AA@ 10023a2c     libucrt:lcidtoname_downlevel.obj
 0002:00004a38       ??_C@_1M@OLJCMLGM@?$AAe?$AAs?$AA?9?$AAP?$AAE?$AA?$AA@ 10023a38     libucrt:lcidtoname_downlevel.obj
 0002:00004a44       ??_C@_1M@MKKGFKLE@?$AAa?$AAr?$AA?9?$AAJ?$AAO?$AA?$AA@ 10023a44     libucrt:lcidtoname_downlevel.obj
 0002:00004a50       ??_C@_1M@EKPGLDNI@?$AAe?$AAn?$AA?9?$AAT?$AAT?$AA?$AA@ 10023a50     libucrt:lcidtoname_downlevel.obj
 0002:00004a5c       ??_C@_1M@OONGHFHE@?$AAe?$AAs?$AA?9?$AAA?$AAR?$AA?$AA@ 10023a5c     libucrt:lcidtoname_downlevel.obj
 0002:00004a68       ??_C@_1M@OOJFGBHE@?$AAa?$AAr?$AA?9?$AAL?$AAB?$AA?$AA@ 10023a68     libucrt:lcidtoname_downlevel.obj
 0002:00004a74       ??_C@_1M@GCEJHNEG@?$AAe?$AAn?$AA?9?$AAZ?$AAW?$AA?$AA@ 10023a74     libucrt:lcidtoname_downlevel.obj
 0002:00004a80       ??_C@_1M@JNOCAHJI@?$AAe?$AAs?$AA?9?$AAE?$AAC?$AA?$AA@ 10023a80     libucrt:lcidtoname_downlevel.obj
 0002:00004a8c       ??_C@_1M@JEFHPGGB@?$AAa?$AAr?$AA?9?$AAK?$AAW?$AA?$AA@ 10023a8c     libucrt:lcidtoname_downlevel.obj
 0002:00004a98       ??_C@_1M@MLKIBJOJ@?$AAe?$AAn?$AA?9?$AAP?$AAH?$AA?$AA@ 10023a98     libucrt:lcidtoname_downlevel.obj
 0002:00004aa4       ??_C@_1M@BDNIPEND@?$AAe?$AAs?$AA?9?$AAC?$AAL?$AA?$AA@ 10023aa4     libucrt:lcidtoname_downlevel.obj
 0002:00004ab0       ??_C@_1M@MPNMEKBD@?$AAa?$AAr?$AA?9?$AAA?$AAE?$AA?$AA@ 10023ab0     libucrt:lcidtoname_downlevel.obj
 0002:00004abc       ??_C@_1M@KBJALCPI@?$AAe?$AAs?$AA?9?$AAU?$AAY?$AA?$AA@ 10023abc     libucrt:lcidtoname_downlevel.obj
 0002:00004ac8       ??_C@_1M@LLCCOAGA@?$AAa?$AAr?$AA?9?$AAB?$AAH?$AA?$AA@ 10023ac8     libucrt:lcidtoname_downlevel.obj
 0002:00004ad4       ??_C@_1M@PBFNCDEL@?$AAe?$AAs?$AA?9?$AAP?$AAY?$AA?$AA@ 10023ad4     libucrt:lcidtoname_downlevel.obj
 0002:00004ae0       ??_C@_1M@EDGINPNP@?$AAa?$AAr?$AA?9?$AAQ?$AAA?$AA?$AA@ 10023ae0     libucrt:lcidtoname_downlevel.obj
 0002:00004aec       ??_C@_1M@MKDBIIJI@?$AAe?$AAs?$AA?9?$AAB?$AAO?$AA?$AA@ 10023aec     libucrt:lcidtoname_downlevel.obj
 0002:00004af8       ??_C@_1M@CPKKEBLD@?$AAe?$AAs?$AA?9?$AAS?$AAV?$AA?$AA@ 10023af8     libucrt:lcidtoname_downlevel.obj
 0002:00004b04       ??_C@_1M@NDBGMMJL@?$AAe?$AAs?$AA?9?$AAH?$AAN?$AA?$AA@ 10023b04     libucrt:lcidtoname_downlevel.obj
 0002:00004b10       ??_C@_1M@JIJIBHDP@?$AAe?$AAs?$AA?9?$AAN?$AAI?$AA?$AA@ 10023b10     libucrt:lcidtoname_downlevel.obj
 0002:00004b1c       ??_C@_1M@CGFMKEEK@?$AAe?$AAs?$AA?9?$AAP?$AAR?$AA?$AA@ 10023b1c     libucrt:lcidtoname_downlevel.obj
 0002:00004b28       ??_C@_1O@ICJHKIIK@?$AAz?$AAh?$AA?9?$AAC?$AAH?$AAT?$AA?$AA@ 10023b28     libucrt:lcidtoname_downlevel.obj
 0002:00004b38       ??_C@_15CLNEJCE@?$AAs?$AAr?$AA?$AA@ 10023b38     libucrt:lcidtoname_downlevel.obj
 0002:00005260       ??_C@_1M@KAHEKEIG@?$AAa?$AAf?$AA?9?$AAz?$AAa?$AA?$AA@ 10024260     libucrt:lcidtoname_downlevel.obj
 0002:0000526c       ??_C@_1M@GIECOABL@?$AAa?$AAr?$AA?9?$AAa?$AAe?$AA?$AA@ 1002426c     libucrt:lcidtoname_downlevel.obj
 0002:00005278       ??_C@_1M@BMLMEKGI@?$AAa?$AAr?$AA?9?$AAb?$AAh?$AA?$AA@ 10024278     libucrt:lcidtoname_downlevel.obj
 0002:00005284       ??_C@_1M@DAPFDGGB@?$AAa?$AAr?$AA?9?$AAd?$AAz?$AA?$AA@ 10024284     libucrt:lcidtoname_downlevel.obj
 0002:00005290       ??_C@_1M@FJNKGKIG@?$AAa?$AAr?$AA?9?$AAe?$AAg?$AA?$AA@ 10024290     libucrt:lcidtoname_downlevel.obj
 0002:0000529c       ??_C@_1M@FLGKKCLO@?$AAa?$AAr?$AA?9?$AAi?$AAq?$AA?$AA@ 1002429c     libucrt:lcidtoname_downlevel.obj
 0002:000052a8       ??_C@_1M@GNDIPALM@?$AAa?$AAr?$AA?9?$AAj?$AAo?$AA?$AA@ 100242a8     libucrt:lcidtoname_downlevel.obj
 0002:000052b4       ??_C@_1M@DDMJFMGJ@?$AAa?$AAr?$AA?9?$AAk?$AAw?$AA?$AA@ 100242b4     libucrt:lcidtoname_downlevel.obj
 0002:000052c0       ??_C@_1M@EJALMLHM@?$AAa?$AAr?$AA?9?$AAl?$AAb?$AA?$AA@ 100242c0     libucrt:lcidtoname_downlevel.obj
 0002:000052cc       ??_C@_1M@MOBDBLOC@?$AAa?$AAr?$AA?9?$AAl?$AAy?$AA?$AA@ 100242cc     libucrt:lcidtoname_downlevel.obj
 0002:000052d8       ??_C@_1M@JAOCLHDH@?$AAa?$AAr?$AA?9?$AAm?$AAa?$AA?$AA@ 100242d8     libucrt:lcidtoname_downlevel.obj
 0002:000052e4       ??_C@_1M@JHPMKJIE@?$AAa?$AAr?$AA?9?$AAo?$AAm?$AA?$AA@ 100242e4     libucrt:lcidtoname_downlevel.obj
 0002:000052f0       ??_C@_1M@OEPGHFNH@?$AAa?$AAr?$AA?9?$AAq?$AAa?$AA?$AA@ 100242f0     libucrt:lcidtoname_downlevel.obj
 0002:000052fc       ??_C@_1M@KJDONENM@?$AAa?$AAr?$AA?9?$AAs?$AAa?$AA?$AA@ 100242fc     libucrt:lcidtoname_downlevel.obj
 0002:00005308       ??_C@_1M@DMJDKLKM@?$AAa?$AAr?$AA?9?$AAs?$AAy?$AA?$AA@ 10024308     libucrt:lcidtoname_downlevel.obj
 0002:00005314       ??_C@_1M@OMFIPEDC@?$AAa?$AAr?$AA?9?$AAt?$AAn?$AA?$AA@ 10024314     libucrt:lcidtoname_downlevel.obj
 0002:00005320       ??_C@_1M@IHMHGAON@?$AAa?$AAr?$AA?9?$AAy?$AAe?$AA?$AA@ 10024320     libucrt:lcidtoname_downlevel.obj
 0002:0000532c       ??_C@_1BG@KDCPGJGB@?$AAa?$AAz?$AA?9?$AAa?$AAz?$AA?9?$AAc?$AAy?$AAr?$AAl?$AA?$AA@ 1002432c     libucrt:lcidtoname_downlevel.obj
 0002:00005344       ??_C@_1BG@IBCKDDOE@?$AAa?$AAz?$AA?9?$AAa?$AAz?$AA?9?$AAl?$AAa?$AAt?$AAn?$AA?$AA@ 10024344     libucrt:lcidtoname_downlevel.obj
 0002:0000535c       ??_C@_1M@EGPFDCPD@?$AAb?$AAe?$AA?9?$AAb?$AAy?$AA?$AA@ 1002435c     libucrt:lcidtoname_downlevel.obj
 0002:00005368       ??_C@_1M@PCMGMCGC@?$AAb?$AAg?$AA?9?$AAb?$AAg?$AA?$AA@ 10024368     libucrt:lcidtoname_downlevel.obj
 0002:00005374       ??_C@_1M@BJBMFGOB@?$AAb?$AAn?$AA?9?$AAi?$AAn?$AA?$AA@ 10024374     libucrt:lcidtoname_downlevel.obj
 0002:00005380       ??_C@_1BG@EAKMMACD@?$AAb?$AAs?$AA?9?$AAb?$AAa?$AA?9?$AAl?$AAa?$AAt?$AAn?$AA?$AA@ 10024380     libucrt:lcidtoname_downlevel.obj
 0002:00005398       ??_C@_1M@KGADAODK@?$AAc?$AAa?$AA?9?$AAe?$AAs?$AA?$AA@ 10024398     libucrt:lcidtoname_downlevel.obj
 0002:000053a4       ??_C@_1M@COAJPDHI@?$AAc?$AAs?$AA?9?$AAc?$AAz?$AA?$AA@ 100243a4     libucrt:lcidtoname_downlevel.obj
 0002:000053b0       ??_C@_1M@DHBHFONH@?$AAc?$AAy?$AA?9?$AAg?$AAb?$AA?$AA@ 100243b0     libucrt:lcidtoname_downlevel.obj
 0002:000053bc       ??_C@_1M@IMGKELGA@?$AAd?$AAa?$AA?9?$AAd?$AAk?$AA?$AA@ 100243bc     libucrt:lcidtoname_downlevel.obj
 0002:000053c8       ??_C@_1M@NNDGDNGA@?$AAd?$AAe?$AA?9?$AAa?$AAt?$AA?$AA@ 100243c8     libucrt:lcidtoname_downlevel.obj
 0002:000053d4       ??_C@_1M@IKDBHEEM@?$AAd?$AAe?$AA?9?$AAc?$AAh?$AA?$AA@ 100243d4     libucrt:lcidtoname_downlevel.obj
 0002:000053e0       ??_C@_1M@GFFOJMCJ@?$AAd?$AAe?$AA?9?$AAd?$AAe?$AA?$AA@ 100243e0     libucrt:lcidtoname_downlevel.obj
 0002:000053ec       ??_C@_1M@MDNLKBPM@?$AAd?$AAe?$AA?9?$AAl?$AAi?$AA?$AA@ 100243ec     libucrt:lcidtoname_downlevel.obj
 0002:000053f8       ??_C@_1M@NJBEEJNL@?$AAd?$AAe?$AA?9?$AAl?$AAu?$AA?$AA@ 100243f8     libucrt:lcidtoname_downlevel.obj
 0002:00005404       ??_C@_1O@GNNELBAP@?$AAd?$AAi?$AAv?$AA?9?$AAm?$AAv?$AA?$AA@ 10024404     libucrt:lcidtoname_downlevel.obj
 0002:00005414       ??_C@_1M@EJLEOGAE@?$AAe?$AAl?$AA?9?$AAg?$AAr?$AA?$AA@ 10024414     libucrt:lcidtoname_downlevel.obj
 0002:00005420       ??_C@_1M@GMPONJN@?$AAe?$AAn?$AA?9?$AAa?$AAu?$AA?$AA@ 10024420     libucrt:lcidtoname_downlevel.obj
 0002:0000542c       ??_C@_1M@NIDIIPGF@?$AAe?$AAn?$AA?9?$AAb?$AAz?$AA?$AA@ 1002442c     libucrt:lcidtoname_downlevel.obj
 0002:00005438       ??_C@_1M@JEHMIMFO@?$AAe?$AAn?$AA?9?$AAc?$AAa?$AA?$AA@ 10024438     libucrt:lcidtoname_downlevel.obj
 0002:00005444       ??_C@_1M@IGMJCDLA@?$AAe?$AAn?$AA?9?$AAc?$AAb?$AA?$AA@ 10024444     libucrt:lcidtoname_downlevel.obj
 0002:00005450       ??_C@_1M@BNFIGBKG@?$AAe?$AAn?$AA?9?$AAg?$AAb?$AA?$AA@ 10024450     libucrt:lcidtoname_downlevel.obj
 0002:0000545c       ??_C@_1M@LKIFDIGP@?$AAe?$AAn?$AA?9?$AAi?$AAe?$AA?$AA@ 1002445c     libucrt:lcidtoname_downlevel.obj
 0002:00005468       ??_C@_1M@PJKFGCCO@?$AAe?$AAn?$AA?9?$AAj?$AAm?$AA?$AA@ 10024468     libucrt:lcidtoname_downlevel.obj
 0002:00005474       ??_C@_1M@KPPKEPBO@?$AAe?$AAn?$AA?9?$AAn?$AAz?$AA?$AA@ 10024474     libucrt:lcidtoname_downlevel.obj
 0002:00005480       ??_C@_1M@GMDGLDOB@?$AAe?$AAn?$AA?9?$AAp?$AAh?$AA?$AA@ 10024480     libucrt:lcidtoname_downlevel.obj
 0002:0000548c       ??_C@_1M@ONGIBJNA@?$AAe?$AAn?$AA?9?$AAt?$AAt?$AA?$AA@ 1002448c     libucrt:lcidtoname_downlevel.obj
 0002:00005498       ??_C@_1M@LLODPCMM@?$AAe?$AAn?$AA?9?$AAu?$AAs?$AA?$AA@ 10024498     libucrt:lcidtoname_downlevel.obj
 0002:000054a4       ??_C@_1M@LAKFNPAN@?$AAe?$AAn?$AA?9?$AAz?$AAa?$AA?$AA@ 100244a4     libucrt:lcidtoname_downlevel.obj
 0002:000054b0       ??_C@_1M@MFNHNHEO@?$AAe?$AAn?$AA?9?$AAz?$AAw?$AA?$AA@ 100244b0     libucrt:lcidtoname_downlevel.obj
 0002:000054bc       ??_C@_1M@EJEINPHM@?$AAe?$AAs?$AA?9?$AAa?$AAr?$AA?$AA@ 100244bc     libucrt:lcidtoname_downlevel.obj
 0002:000054c8       ??_C@_1M@GNKPCCJA@?$AAe?$AAs?$AA?9?$AAb?$AAo?$AA?$AA@ 100244c8     libucrt:lcidtoname_downlevel.obj
 0002:000054d4       ??_C@_1M@LEEGFONL@?$AAe?$AAs?$AA?9?$AAc?$AAl?$AA?$AA@ 100244d4     libucrt:lcidtoname_downlevel.obj
 0002:000054e0       ??_C@_1M@KGPDPBDF@?$AAe?$AAs?$AA?9?$AAc?$AAo?$AA?$AA@ 100244e0     libucrt:lcidtoname_downlevel.obj
 0002:000054ec       ??_C@_1M@EIAHOHH@?$AAe?$AAs?$AA?9?$AAc?$AAr?$AA?$AA@ 100244ec     libucrt:lcidtoname_downlevel.obj
 0002:000054f8       ??_C@_1M@LLPGMBIN@?$AAe?$AAs?$AA?9?$AAd?$AAo?$AA?$AA@ 100244f8     libucrt:lcidtoname_downlevel.obj
 0002:00005504       ??_C@_1M@DKHMKNJA@?$AAe?$AAs?$AA?9?$AAe?$AAc?$AA?$AA@ 10024504     libucrt:lcidtoname_downlevel.obj
 0002:00005510       ??_C@_1M@GKGFPKAP@?$AAe?$AAs?$AA?9?$AAe?$AAs?$AA?$AA@ 10024510     libucrt:lcidtoname_downlevel.obj
 0002:0000551c       ??_C@_1M@LKHKGDLN@?$AAe?$AAs?$AA?9?$AAg?$AAt?$AA?$AA@ 1002451c     libucrt:lcidtoname_downlevel.obj
 0002:00005528       ??_C@_1M@HEIIGGJD@?$AAe?$AAs?$AA?9?$AAh?$AAn?$AA?$AA@ 10024528     libucrt:lcidtoname_downlevel.obj
 0002:00005534       ??_C@_1M@FBDHPPGD@?$AAe?$AAs?$AA?9?$AAm?$AAx?$AA?$AA@ 10024534     libucrt:lcidtoname_downlevel.obj
 0002:00005540       ??_C@_1M@DPAGLNDH@?$AAe?$AAs?$AA?9?$AAn?$AAi?$AA?$AA@ 10024540     libucrt:lcidtoname_downlevel.obj
 0002:0000554c       ??_C@_1M@MDGOPGDD@?$AAe?$AAs?$AA?9?$AAp?$AAa?$AA?$AA@ 1002454c     libucrt:lcidtoname_downlevel.obj
 0002:00005558       ??_C@_1M@EMAMGBGE@?$AAe?$AAs?$AA?9?$AAp?$AAe?$AA?$AA@ 10024558     libucrt:lcidtoname_downlevel.obj
 0002:00005564       ??_C@_1M@IBMCAOEC@?$AAe?$AAs?$AA?9?$AAp?$AAr?$AA?$AA@ 10024564     libucrt:lcidtoname_downlevel.obj
 0002:00005570       ??_C@_1M@FGMDIJED@?$AAe?$AAs?$AA?9?$AAp?$AAy?$AA?$AA@ 10024570     libucrt:lcidtoname_downlevel.obj
 0002:0000557c       ??_C@_1M@IIDEOLLL@?$AAe?$AAs?$AA?9?$AAs?$AAv?$AA?$AA@ 1002457c     libucrt:lcidtoname_downlevel.obj
 0002:00005588       ??_C@_1M@GAOBIPA@?$AAe?$AAs?$AA?9?$AAu?$AAy?$AA?$AA@ 10024588     libucrt:lcidtoname_downlevel.obj
 0002:00005594       ??_C@_1M@JKFFICHJ@?$AAe?$AAs?$AA?9?$AAv?$AAe?$AA?$AA@ 10024594     libucrt:lcidtoname_downlevel.obj
 0002:000055a0       ??_C@_1M@PNMLOJDF@?$AAe?$AAt?$AA?9?$AAe?$AAe?$AA?$AA@ 100245a0     libucrt:lcidtoname_downlevel.obj
 0002:000055ac       ??_C@_1M@GHHLIKEI@?$AAe?$AAu?$AA?9?$AAe?$AAs?$AA?$AA@ 100245ac     libucrt:lcidtoname_downlevel.obj
 0002:000055b8       ??_C@_1M@PBNONODE@?$AAf?$AAa?$AA?9?$AAi?$AAr?$AA?$AA@ 100245b8     libucrt:lcidtoname_downlevel.obj
 0002:000055c4       ??_C@_1M@JEEHPMIL@?$AAf?$AAi?$AA?9?$AAf?$AAi?$AA?$AA@ 100245c4     libucrt:lcidtoname_downlevel.obj
 0002:000055d0       ??_C@_1M@LMDCNDBA@?$AAf?$AAo?$AA?9?$AAf?$AAo?$AA?$AA@ 100245d0     libucrt:lcidtoname_downlevel.obj
 0002:000055dc       ??_C@_1M@JKEOHLDK@?$AAf?$AAr?$AA?9?$AAb?$AAe?$AA?$AA@ 100245dc     libucrt:lcidtoname_downlevel.obj
 0002:000055e8       ??_C@_1M@NOHADPMI@?$AAf?$AAr?$AA?9?$AAc?$AAa?$AA?$AA@ 100245e8     libucrt:lcidtoname_downlevel.obj
 0002:000055f4       ??_C@_1M@KDHIHAEC@?$AAf?$AAr?$AA?9?$AAc?$AAh?$AA?$AA@ 100245f4     libucrt:lcidtoname_downlevel.obj
 0002:00005600       ??_C@_1M@MMBBFGAK@?$AAf?$AAr?$AA?9?$AAf?$AAr?$AA?$AA@ 10024600     libucrt:lcidtoname_downlevel.obj
 0002:0000560c       ??_C@_1M@PAFNENNF@?$AAf?$AAr?$AA?9?$AAl?$AAu?$AA?$AA@ 1002460c     libucrt:lcidtoname_downlevel.obj
 0002:00005618       ??_C@_1M@EOHDJGDD@?$AAf?$AAr?$AA?9?$AAm?$AAc?$AA?$AA@ 10024618     libucrt:lcidtoname_downlevel.obj
 0002:00005624       ??_C@_1M@FAPLLOPF@?$AAg?$AAl?$AA?9?$AAe?$AAs?$AA?$AA@ 10024624     libucrt:lcidtoname_downlevel.obj
 0002:00005630       ??_C@_1M@FOPBFLOO@?$AAg?$AAu?$AA?9?$AAi?$AAn?$AA?$AA@ 10024630     libucrt:lcidtoname_downlevel.obj
 0002:0000563c       ??_C@_1M@KBMCINPM@?$AAh?$AAe?$AA?9?$AAi?$AAl?$AA?$AA@ 1002463c     libucrt:lcidtoname_downlevel.obj
 0002:00005648       ??_C@_1M@BBPHKFPJ@?$AAh?$AAi?$AA?9?$AAi?$AAn?$AA?$AA@ 10024648     libucrt:lcidtoname_downlevel.obj
 0002:00005654       ??_C@_1M@PMBNDPHD@?$AAh?$AAr?$AA?9?$AAb?$AAa?$AA?$AA@ 10024654     libucrt:lcidtoname_downlevel.obj
 0002:00005660       ??_C@_1M@BPCKOEGE@?$AAh?$AAr?$AA?9?$AAh?$AAr?$AA?$AA@ 10024660     libucrt:lcidtoname_downlevel.obj
 0002:0000566c       ??_C@_1M@GACBMHKE@?$AAh?$AAu?$AA?9?$AAh?$AAu?$AA?$AA@ 1002466c     libucrt:lcidtoname_downlevel.obj
 0002:00005678       ??_C@_1M@MILPAJJC@?$AAh?$AAy?$AA?9?$AAa?$AAm?$AA?$AA@ 10024678     libucrt:lcidtoname_downlevel.obj
 0002:00005684       ??_C@_1M@BABBICEC@?$AAi?$AAd?$AA?9?$AAi?$AAd?$AA?$AA@ 10024684     libucrt:lcidtoname_downlevel.obj
 0002:00005690       ??_C@_1M@BIKNHHPF@?$AAi?$AAs?$AA?9?$AAi?$AAs?$AA?$AA@ 10024690     libucrt:lcidtoname_downlevel.obj
 0002:0000569c       ??_C@_1M@NMPCJPHE@?$AAi?$AAt?$AA?9?$AAc?$AAh?$AA?$AA@ 1002469c     libucrt:lcidtoname_downlevel.obj
 0002:000056a8       ??_C@_1M@GHKGFEDF@?$AAi?$AAt?$AA?9?$AAi?$AAt?$AA?$AA@ 100246a8     libucrt:lcidtoname_downlevel.obj
 0002:000056b4       ??_C@_1M@NIEJCJJA@?$AAj?$AAa?$AA?9?$AAj?$AAp?$AA?$AA@ 100246b4     libucrt:lcidtoname_downlevel.obj
 0002:000056c0       ??_C@_1M@JILFNBIM@?$AAk?$AAa?$AA?9?$AAg?$AAe?$AA?$AA@ 100246c0     libucrt:lcidtoname_downlevel.obj
 0002:000056cc       ??_C@_1M@PACPMGPH@?$AAk?$AAk?$AA?9?$AAk?$AAz?$AA?$AA@ 100246cc     libucrt:lcidtoname_downlevel.obj
 0002:000056d8       ??_C@_1M@IELFGMHA@?$AAk?$AAn?$AA?9?$AAi?$AAn?$AA?$AA@ 100246d8     libucrt:lcidtoname_downlevel.obj
 0002:000056e4       ??_C@_1O@IBBJHCH@?$AAk?$AAo?$AAk?$AA?9?$AAi?$AAn?$AA?$AA@ 100246e4     libucrt:lcidtoname_downlevel.obj
 0002:000056f4       ??_C@_1M@DMHAEOGC@?$AAk?$AAo?$AA?9?$AAk?$AAr?$AA?$AA@ 100246f4     libucrt:lcidtoname_downlevel.obj
 0002:00005700       ??_C@_1M@HBAHBIGA@?$AAk?$AAy?$AA?9?$AAk?$AAg?$AA?$AA@ 10024700     libucrt:lcidtoname_downlevel.obj
 0002:0000570c       ??_C@_1M@KPMILCJG@?$AAl?$AAt?$AA?9?$AAl?$AAt?$AA?$AA@ 1002470c     libucrt:lcidtoname_downlevel.obj
 0002:00005718       ??_C@_1M@BDEKKCA@?$AAl?$AAv?$AA?9?$AAl?$AAv?$AA?$AA@ 10024718     libucrt:lcidtoname_downlevel.obj
 0002:00005724       ??_C@_1M@ELCKCCJJ@?$AAm?$AAi?$AA?9?$AAn?$AAz?$AA?$AA@ 10024724     libucrt:lcidtoname_downlevel.obj
 0002:00005730       ??_C@_1M@CBOOLAPA@?$AAm?$AAk?$AA?9?$AAm?$AAk?$AA?$AA@ 10024730     libucrt:lcidtoname_downlevel.obj
 0002:0000573c       ??_C@_1M@GPHNBJKN@?$AAm?$AAl?$AA?9?$AAi?$AAn?$AA?$AA@ 1002473c     libucrt:lcidtoname_downlevel.obj
 0002:00005748       ??_C@_1M@PABJILIG@?$AAm?$AAn?$AA?9?$AAm?$AAn?$AA?$AA@ 10024748     libucrt:lcidtoname_downlevel.obj
 0002:00005754       ??_C@_1M@FGBKKIPG@?$AAm?$AAr?$AA?9?$AAi?$AAn?$AA?$AA@ 10024754     libucrt:lcidtoname_downlevel.obj
 0002:00005760       ??_C@_1M@NDBPDDAL@?$AAm?$AAs?$AA?9?$AAb?$AAn?$AA?$AA@ 10024760     libucrt:lcidtoname_downlevel.obj
 0002:0000576c       ??_C@_1M@OPIHOOPI@?$AAm?$AAs?$AA?9?$AAm?$AAy?$AA?$AA@ 1002476c     libucrt:lcidtoname_downlevel.obj
 0002:00005778       ??_C@_1M@PPDBCNFM@?$AAm?$AAt?$AA?9?$AAm?$AAt?$AA?$AA@ 10024778     libucrt:lcidtoname_downlevel.obj
 0002:00005784       ??_C@_1M@KDJDKMDD@?$AAn?$AAb?$AA?9?$AAn?$AAo?$AA?$AA@ 10024784     libucrt:lcidtoname_downlevel.obj
 0002:00005790       ??_C@_1M@KFCFLMJP@?$AAn?$AAl?$AA?9?$AAb?$AAe?$AA?$AA@ 10024790     libucrt:lcidtoname_downlevel.obj
 0002:0000579c       ??_C@_1M@KPOPDDGO@?$AAn?$AAl?$AA?9?$AAn?$AAl?$AA?$AA@ 1002479c     libucrt:lcidtoname_downlevel.obj
 0002:000057a8       ??_C@_1M@LJKPEMLN@?$AAn?$AAn?$AA?9?$AAn?$AAo?$AA?$AA@ 100247a8     libucrt:lcidtoname_downlevel.obj
 0002:000057b4       ??_C@_1M@BDGHHBFL@?$AAn?$AAs?$AA?9?$AAz?$AAa?$AA?$AA@ 100247b4     libucrt:lcidtoname_downlevel.obj
 0002:000057c0       ??_C@_1M@IDEHOAP@?$AAp?$AAa?$AA?9?$AAi?$AAn?$AA?$AA@ 100247c0     libucrt:lcidtoname_downlevel.obj
 0002:000057cc       ??_C@_1M@HDBKGOGH@?$AAp?$AAl?$AA?9?$AAp?$AAl?$AA?$AA@ 100247cc     libucrt:lcidtoname_downlevel.obj
 0002:000057d8       ??_C@_1M@LJLLCMEH@?$AAp?$AAt?$AA?9?$AAb?$AAr?$AA?$AA@ 100247d8     libucrt:lcidtoname_downlevel.obj
 0002:000057e4       ??_C@_1M@NCMONAAL@?$AAp?$AAt?$AA?9?$AAp?$AAt?$AA?$AA@ 100247e4     libucrt:lcidtoname_downlevel.obj
 0002:000057f0       ??_C@_1O@EAKMAJDN@?$AAq?$AAu?$AAz?$AA?9?$AAb?$AAo?$AA?$AA@ 100247f0     libucrt:lcidtoname_downlevel.obj
 0002:00005800       ??_C@_1O@BHHPIGDN@?$AAq?$AAu?$AAz?$AA?9?$AAe?$AAc?$AA?$AA@ 10024800     libucrt:lcidtoname_downlevel.obj
 0002:00005810       ??_C@_1O@GBAPEKMJ@?$AAq?$AAu?$AAz?$AA?9?$AAp?$AAe?$AA?$AA@ 10024810     libucrt:lcidtoname_downlevel.obj
 0002:00005820       ??_C@_1M@CLGLEFBO@?$AAr?$AAo?$AA?9?$AAr?$AAo?$AA?$AA@ 10024820     libucrt:lcidtoname_downlevel.obj
 0002:0000582c       ??_C@_1M@CEEDODME@?$AAr?$AAu?$AA?9?$AAr?$AAu?$AA?$AA@ 1002482c     libucrt:lcidtoname_downlevel.obj
 0002:00005838       ??_C@_1M@HPKKKMPP@?$AAs?$AAa?$AA?9?$AAi?$AAn?$AA?$AA@ 10024838     libucrt:lcidtoname_downlevel.obj
 0002:00005844       ??_C@_1M@BKMAIGOJ@?$AAs?$AAe?$AA?9?$AAf?$AAi?$AA?$AA@ 10024844     libucrt:lcidtoname_downlevel.obj
 0002:00005850       ??_C@_1M@NDPIFLFI@?$AAs?$AAe?$AA?9?$AAn?$AAo?$AA?$AA@ 10024850     libucrt:lcidtoname_downlevel.obj
 0002:0000585c       ??_C@_1M@DANKKHJ@?$AAs?$AAe?$AA?9?$AAs?$AAe?$AA?$AA@ 1002485c     libucrt:lcidtoname_downlevel.obj
 0002:00005868       ??_C@_1M@PNBLONPJ@?$AAs?$AAk?$AA?9?$AAs?$AAk?$AA?$AA@ 10024868     libucrt:lcidtoname_downlevel.obj
 0002:00005874       ??_C@_1M@LFMODOAL@?$AAs?$AAl?$AA?9?$AAs?$AAi?$AA?$AA@ 10024874     libucrt:lcidtoname_downlevel.obj
 0002:00005880       ??_C@_1O@DFKOMPG@?$AAs?$AAm?$AAa?$AA?9?$AAn?$AAo?$AA?$AA@ 10024880     libucrt:lcidtoname_downlevel.obj
 0002:00005890       ??_C@_1O@NDKPBNNH@?$AAs?$AAm?$AAa?$AA?9?$AAs?$AAe?$AA?$AA@ 10024890     libucrt:lcidtoname_downlevel.obj
 0002:000058a0       ??_C@_1O@PLLKBHAB@?$AAs?$AAm?$AAj?$AA?9?$AAn?$AAo?$AA?$AA@ 100248a0     libucrt:lcidtoname_downlevel.obj
 0002:000058b0       ??_C@_1O@CLEPOGCA@?$AAs?$AAm?$AAj?$AA?9?$AAs?$AAe?$AA?$AA@ 100248b0     libucrt:lcidtoname_downlevel.obj
 0002:000058c0       ??_C@_1O@DLGJGKMK@?$AAs?$AAm?$AAn?$AA?9?$AAf?$AAi?$AA?$AA@ 100248c0     libucrt:lcidtoname_downlevel.obj
 0002:000058d0       ??_C@_1O@OJDJGAJC@?$AAs?$AAm?$AAs?$AA?9?$AAf?$AAi?$AA?$AA@ 100248d0     libucrt:lcidtoname_downlevel.obj
 0002:000058e0       ??_C@_1M@BOFOGHPB@?$AAs?$AAq?$AA?9?$AAa?$AAl?$AA?$AA@ 100248e0     libucrt:lcidtoname_downlevel.obj
 0002:000058ec       ??_C@_1BG@LJBBIPGB@?$AAs?$AAr?$AA?9?$AAb?$AAa?$AA?9?$AAc?$AAy?$AAr?$AAl?$AA?$AA@ 100248ec     libucrt:lcidtoname_downlevel.obj
 0002:00005904       ??_C@_1BG@JLBENFOE@?$AAs?$AAr?$AA?9?$AAb?$AAa?$AA?9?$AAl?$AAa?$AAt?$AAn?$AA?$AA@ 10024904     libucrt:lcidtoname_downlevel.obj
 0002:0000591c       ??_C@_1BG@KODPNHE@?$AAs?$AAr?$AA?9?$AAs?$AAp?$AA?9?$AAc?$AAy?$AAr?$AAl?$AA?$AA@ 1002491c     libucrt:lcidtoname_downlevel.obj
 0002:00005934       ??_C@_1BG@CIOGKHPB@?$AAs?$AAr?$AA?9?$AAs?$AAp?$AA?9?$AAl?$AAa?$AAt?$AAn?$AA?$AA@ 10024934     libucrt:lcidtoname_downlevel.obj
 0002:0000594c       ??_C@_1M@NGFJLMAC@?$AAs?$AAv?$AA?9?$AAf?$AAi?$AA?$AA@ 1002494c     libucrt:lcidtoname_downlevel.obj
 0002:00005958       ??_C@_1M@MPJEJAJC@?$AAs?$AAv?$AA?9?$AAs?$AAe?$AA?$AA@ 10024958     libucrt:lcidtoname_downlevel.obj
 0002:00005964       ??_C@_1M@MPNDHLFK@?$AAs?$AAw?$AA?9?$AAk?$AAe?$AA?$AA@ 10024964     libucrt:lcidtoname_downlevel.obj
 0002:00005970       ??_C@_1O@KOHBJJI@?$AAs?$AAy?$AAr?$AA?9?$AAs?$AAy?$AA?$AA@ 10024970     libucrt:lcidtoname_downlevel.obj
 0002:00005980       ??_C@_1M@LDCEFHA@?$AAt?$AAa?$AA?9?$AAi?$AAn?$AA?$AA@ 10024980     libucrt:lcidtoname_downlevel.obj
 0002:0000598c       ??_C@_1M@CNJOFAK@?$AAt?$AAe?$AA?9?$AAi?$AAn?$AA?$AA@ 1002498c     libucrt:lcidtoname_downlevel.obj
 0002:00005998       ??_C@_1M@GNAECACD@?$AAt?$AAh?$AA?9?$AAt?$AAh?$AA?$AA@ 10024998     libucrt:lcidtoname_downlevel.obj
 0002:000059a4       ??_C@_1M@CHBIHOJO@?$AAt?$AAn?$AA?9?$AAz?$AAa?$AA?$AA@ 100249a4     libucrt:lcidtoname_downlevel.obj
 0002:000059b0       ??_C@_1M@GCCMIGPJ@?$AAt?$AAr?$AA?9?$AAt?$AAr?$AA?$AA@ 100249b0     libucrt:lcidtoname_downlevel.obj
 0002:000059bc       ??_C@_1M@CELMCNBK@?$AAt?$AAt?$AA?9?$AAr?$AAu?$AA?$AA@ 100249bc     libucrt:lcidtoname_downlevel.obj
 0002:000059c8       ??_C@_1M@KLMCELGA@?$AAu?$AAk?$AA?9?$AAu?$AAa?$AA?$AA@ 100249c8     libucrt:lcidtoname_downlevel.obj
 0002:000059d4       ??_C@_1M@EPAJJAJF@?$AAu?$AAr?$AA?9?$AAp?$AAk?$AA?$AA@ 100249d4     libucrt:lcidtoname_downlevel.obj
 0002:000059e0       ??_C@_1BG@GEGPMCDJ@?$AAu?$AAz?$AA?9?$AAu?$AAz?$AA?9?$AAc?$AAy?$AAr?$AAl?$AA?$AA@ 100249e0     libucrt:lcidtoname_downlevel.obj
 0002:000059f8       ??_C@_1BG@EGGKJILM@?$AAu?$AAz?$AA?9?$AAu?$AAz?$AA?9?$AAl?$AAa?$AAt?$AAn?$AA?$AA@ 100249f8     libucrt:lcidtoname_downlevel.obj
 0002:00005a10       ??_C@_1M@GFOCLFF@?$AAv?$AAi?$AA?9?$AAv?$AAn?$AA?$AA@ 10024a10     libucrt:lcidtoname_downlevel.obj
 0002:00005a1c       ??_C@_1M@CPAMEDFI@?$AAx?$AAh?$AA?9?$AAz?$AAa?$AA?$AA@ 10024a1c     libucrt:lcidtoname_downlevel.obj
 0002:00005a28       ??_C@_1O@EBKIFIGN@?$AAz?$AAh?$AA?9?$AAc?$AAh?$AAs?$AA?$AA@ 10024a28     libucrt:lcidtoname_downlevel.obj
 0002:00005a38       ??_C@_1O@NMHPGANE@?$AAz?$AAh?$AA?9?$AAc?$AAh?$AAt?$AA?$AA@ 10024a38     libucrt:lcidtoname_downlevel.obj
 0002:00005a48       ??_C@_1M@LPINJOMC@?$AAz?$AAh?$AA?9?$AAc?$AAn?$AA?$AA@ 10024a48     libucrt:lcidtoname_downlevel.obj
 0002:00005a54       ??_C@_1M@OCJEJODD@?$AAz?$AAh?$AA?9?$AAh?$AAk?$AA?$AA@ 10024a54     libucrt:lcidtoname_downlevel.obj
 0002:00005a60       ??_C@_1M@DNDLJINH@?$AAz?$AAh?$AA?9?$AAm?$AAo?$AA?$AA@ 10024a60     libucrt:lcidtoname_downlevel.obj
 0002:00005a6c       ??_C@_1M@MBFDNDND@?$AAz?$AAh?$AA?9?$AAs?$AAg?$AA?$AA@ 10024a6c     libucrt:lcidtoname_downlevel.obj
 0002:00005a78       ??_C@_1M@IMEPLEPE@?$AAz?$AAh?$AA?9?$AAt?$AAw?$AA?$AA@ 10024a78     libucrt:lcidtoname_downlevel.obj
 0002:00005a84       ??_C@_1M@BBGHNHJP@?$AAz?$AAu?$AA?9?$AAz?$AAa?$AA?$AA@ 10024a84     libucrt:lcidtoname_downlevel.obj
 0002:00005a90       ?large_power_data@?1??multiply_by_power_of_ten@__crt_strtox@@YA_NAAUbig_integer@2@I@Z@4QBIB 10024a90     libucrt:cfout.obj
 0002:00006398       ?large_power_indices@?1??multiply_by_power_of_ten@__crt_strtox@@YA_NAAUbig_integer@2@I@Z@4QBUunpack_index@?1??12@YA_N0I@Z@B 10025398     libucrt:cfout.obj
 0002:00006430       ?small_powers_of_ten@?6??multiply_by_power_of_ten@__crt_strtox@@YA_NAAUbig_integer@2@I@Z@4QBIB 10025430     libucrt:cfout.obj
 0002:00006454       ??_C@_01GBGANLPD@0?$AA@    10025454     libucrt:cfout.obj
 0002:00006458       ??_C@_05DNEBIAHO@1?$CDINF?$AA@ 10025458     libucrt:cfout.obj
 0002:00006460       ??_C@_06IMKFLFPG@1?$CDQNAN?$AA@ 10025460     libucrt:cfout.obj
 0002:00006468       ??_C@_06PGGFOGJG@1?$CDSNAN?$AA@ 10025468     libucrt:cfout.obj
 0002:00006470       ??_C@_05PHHOCPM@1?$CDIND?$AA@ 10025470     libucrt:cfout.obj
 0002:000065e0       __infinity                 100255e0     libucrt:87tran.obj
 0002:000065ea       __minfinity                100255ea     libucrt:87tran.obj
 0002:000065f4       __logemax                  100255f4     libucrt:87tran.obj
 0002:0000661a       __OP_EXPjmptab             1002561a     libucrt:87tran.obj
 0002:00006640       __indefinite               10025640     libucrt:87disp.obj
 0002:0000664a       __piby2                    1002564a     libucrt:87disp.obj
 0002:00006654       __piby4                    10025654     libucrt:87disp.obj
 0002:00006688       __DEFAULT_CW_in_mem        10025688     libucrt:common.obj
 0002:0000668a       __pi_by_2_to_61            1002568a     libucrt:common.obj
 0002:000066c4       ??_C@_03MGHMBJCF@log?$AA@  100256c4     libucrt:libm_error.obj
 0002:000066c8       ??_C@_05HGHHAHAP@log10?$AA@ 100256c8     libucrt:libm_error.obj
 0002:000066d0       ??_C@_03KHJOGHMM@exp?$AA@  100256d0     libucrt:libm_error.obj
 0002:000066d4       ??_C@_03JGHBODFD@pow?$AA@  100256d4     libucrt:libm_error.obj
 0002:000066d8       ??_C@_04FIHNOPOL@asin?$AA@ 100256d8     libucrt:libm_error.obj
 0002:000066e0       ??_C@_04PDIFKINK@acos?$AA@ 100256e0     libucrt:libm_error.obj
 0002:000066e8       ??_C@_04EIAKFFMI@sqrt?$AA@ 100256e8     libucrt:libm_error.obj
 0002:000066f0       __real@3ff0000000000000    100256f0     libucrt:libm_error.obj
 0002:00006710       ___acrt_log10_table_t      10025710     libucrt:log10_tables.obj
 0002:00006b20       ___acrt_log10_table_cb     10025b20     libucrt:log10_tables.obj
 0002:00006f30       __real@3fe0000000000000    10025f30     libucrt:powhlp.obj
 0002:00006f38       ??_C@_04FJHINJAO@tanh?$AA@ 10025f38     libucrt:fpexcept.obj
 0002:00006f40       ??_C@_04MLLJIGOK@atan?$AA@ 10025f40     libucrt:fpexcept.obj
 0002:00006f48       ??_C@_05KNGEOGJB@atan2?$AA@ 10025f48     libucrt:fpexcept.obj
 0002:00006f50       ??_C@_03BLEJJJBH@sin?$AA@  10025f50     libucrt:fpexcept.obj
 0002:00006f54       ??_C@_03LALBNOCG@cos?$AA@  10025f54     libucrt:fpexcept.obj
 0002:00006f58       ??_C@_03IIINPABG@tan?$AA@  10025f58     libucrt:fpexcept.obj
 0002:00006f5c       ??_C@_04GFPJNGEK@ceil?$AA@ 10025f5c     libucrt:fpexcept.obj
 0002:00006f64       ??_C@_05PBJFFIGL@floor?$AA@ 10025f64     libucrt:fpexcept.obj
 0002:00006f6c       ??_C@_04ODHECPBC@fabs?$AA@ 10025f6c     libucrt:fpexcept.obj
 0002:00006f74       ??_C@_04EHEDPDJG@modf?$AA@ 10025f74     libucrt:fpexcept.obj
 0002:00006f7c       ??_C@_05CEJMAHNP@ldexp?$AA@ 10025f7c     libucrt:fpexcept.obj
 0002:00006f84       ??_C@_05KBKMEMPO@_cabs?$AA@ 10025f84     libucrt:fpexcept.obj
 0002:00006f8c       ??_C@_06MEIMCGCF@_hypot?$AA@ 10025f8c     libucrt:fpexcept.obj
 0002:00006f94       ??_C@_04KEPJIHGP@fmod?$AA@ 10025f94     libucrt:fpexcept.obj
 0002:00006f9c       ??_C@_05GKKHEGJL@frexp?$AA@ 10025f9c     libucrt:fpexcept.obj
 0002:00006fa4       ??_C@_03MJLDFKDL@_y0?$AA@  10025fa4     libucrt:fpexcept.obj
 0002:00006fa8       ??_C@_03NAKIGLHK@_y1?$AA@  10025fa8     libucrt:fpexcept.obj
 0002:00006fac       ??_C@_03ONILCKOB@_yn?$AA@  10025fac     libucrt:fpexcept.obj
 0002:00006fb0       ??_C@_05JGDBENOH@_logb?$AA@ 10025fb0     libucrt:fpexcept.obj
 0002:00006fb8       ??_C@_0L@KDOEJCKC@_nextafter?$AA@ 10025fb8     libucrt:fpexcept.obj
 0002:000070b0       ??_C@_04COOMCNPB@sinh?$AA@ 100260b0     libucrt:fpexcept.obj
 0002:000070b8       ??_C@_04HPJJNFIM@cosh?$AA@ 100260b8     libucrt:fpexcept.obj
 0002:000070c0       __d_inf                    100260c0     libucrt:util.obj
 0002:000070c8       __d_max                    100260c8     libucrt:util.obj
 0002:000070d0       __d_mzero                  100260d0     libucrt:util.obj
 0002:000070d8       ??_C@_1BA@BALFACEM@?$AAC?$AAO?$AAN?$AAO?$AAU?$AAT?$AA$?$AA?$AA@ 100260d8     libucrt:initcon.obj
 0002:00007148       __load_config_used         10026148     LIBCMT:loadcfg.obj
 0002:000071e8       __tls_used                 100261e8     LIBCMT:tlssup.obj
 0002:00007200       ??_R4exception@std@@6B@    10026200     LIBCMT:throw_bad_alloc.obj
 0002:00007214       ??_R3exception@std@@8      10026214     LIBCMT:throw_bad_alloc.obj
 0002:00007224       ??_R2exception@std@@8      10026224     LIBCMT:throw_bad_alloc.obj
 0002:0000722c       ??_R1A@?0A@EA@exception@std@@8 1002622c     LIBCMT:throw_bad_alloc.obj
 0002:00007248       ??_R4bad_alloc@std@@6B@    10026248     LIBCMT:throw_bad_alloc.obj
 0002:0000725c       ??_R3bad_alloc@std@@8      1002625c     LIBCMT:throw_bad_alloc.obj
 0002:0000726c       ??_R2bad_alloc@std@@8      1002626c     LIBCMT:throw_bad_alloc.obj
 0002:00007278       ??_R1A@?0A@EA@bad_alloc@std@@8 10026278     LIBCMT:throw_bad_alloc.obj
 0002:00007294       ??_R4bad_array_new_length@std@@6B@ 10026294     LIBCMT:throw_bad_alloc.obj
 0002:000072a8       ??_R3bad_array_new_length@std@@8 100262a8     LIBCMT:throw_bad_alloc.obj
 0002:000072b8       ??_R2bad_array_new_length@std@@8 100262b8     LIBCMT:throw_bad_alloc.obj
 0002:000072c8       ??_R1A@?0A@EA@bad_array_new_length@std@@8 100262c8     LIBCMT:throw_bad_alloc.obj
 0002:000072e4       ??_R4type_info@@6B@        100262e4     LIBCMT:std_type_info_static.obj
 0002:000072f8       ??_R3type_info@@8          100262f8     LIBCMT:std_type_info_static.obj
 0002:00007308       ??_R2type_info@@8          10026308     LIBCMT:std_type_info_static.obj
 0002:00007310       ??_R1A@?0A@EA@type_info@@8 10026310     LIBCMT:std_type_info_static.obj
 0002:0000732c       ??_R4bad_exception@std@@6B@ 1002632c     libvcruntime:frame.obj
 0002:00007340       ??_R3bad_exception@std@@8  10026340     libvcruntime:frame.obj
 0002:00007350       ??_R2bad_exception@std@@8  10026350     libvcruntime:frame.obj
 0002:0000735c       ??_R1A@?0A@EA@bad_exception@std@@8 1002635c     libvcruntime:frame.obj
 0002:00007380       ___safe_se_handler_table   10026380     <linker-defined>
 0002:00007780       ___rtc_iaa                 10026780     LIBCMT:initsect.obj
 0002:00007784       ___rtc_izz                 10026784     LIBCMT:initsect.obj
 0002:00007788       ___rtc_taa                 10026788     LIBCMT:initsect.obj
 0002:0000778c       ___rtc_tzz                 1002678c     LIBCMT:initsect.obj
 0002:00007790       __tls_start                10026790     LIBCMT:tlssup.obj
 0002:00007794       __Init_thread_epoch        10026794     LIBCMT:thread_safe_statics.obj
 0002:00007798       __tls_end                  10026798     LIBCMT:tlssup.obj
 0002:000078b4       __TI2?AVbad_alloc@std@@    100268b4     LIBCMT:throw_bad_alloc.obj
 0002:000078c4       __CTA2?AVbad_alloc@std@@   100268c4     LIBCMT:throw_bad_alloc.obj
 0002:000078d0       __CT??_R0?AVbad_alloc@std@@@8??0bad_alloc@std@@QAE@ABV01@@Z12 100268d0     LIBCMT:throw_bad_alloc.obj
 0002:000078ec       __CT??_R0?AVexception@std@@@8??0exception@std@@QAE@ABV01@@Z12 100268ec     LIBCMT:throw_bad_alloc.obj
 0002:00007908       __TI3?AVbad_array_new_length@std@@ 10026908     LIBCMT:throw_bad_alloc.obj
 0002:00007918       __CTA3?AVbad_array_new_length@std@@ 10026918     LIBCMT:throw_bad_alloc.obj
 0002:00007928       __CT??_R0?AVbad_array_new_length@std@@@8??0bad_array_new_length@std@@QAE@ABV01@@Z12 10026928     LIBCMT:throw_bad_alloc.obj
 0002:00007a2c       __TI2?AVbad_exception@std@@ 10026a2c     libvcruntime:frame.obj
 0002:00007a3c       __CTA2?AVbad_exception@std@@ 10026a3c     libvcruntime:frame.obj
 0002:00007a48       __CT??_R0?AVbad_exception@std@@@8??0bad_exception@std@@QAE@ABV01@@Z12 10026a48     libvcruntime:frame.obj
 0002:00007d94       ___pobjMapEntryFirst       10026d94     OposVariant.obj
 0002:00007d98       ___pobjMapEntryLast        10026d98     OposVariant.obj
 0002:00007e4c       __IMPORT_DESCRIPTOR_KERNEL32 10026e4c     kernel32:KERNEL32.dll
 0002:00007e60       __IMPORT_DESCRIPTOR_USER32 10026e60     user32:USER32.dll
 0002:00007e74       __IMPORT_DESCRIPTOR_GDI32  10026e74     gdi32:GDI32.dll
 0002:00007e88       __IMPORT_DESCRIPTOR_ADVAPI32 10026e88     advapi32:ADVAPI32.dll
 0002:00007e9c       __IMPORT_DESCRIPTOR_ole32  10026e9c     ole32:ole32.dll
 0002:00007eb0       __IMPORT_DESCRIPTOR_OLEAUT32 10026eb0     oleaut32:OLEAUT32.dll
 0002:00007ec4       __NULL_IMPORT_DESCRIPTOR   10026ec4     kernel32:KERNEL32.dll
 0003:00000000       ?wc@?1??GetWndClassInfo@?$CWindowImpl@VCOPOSSmartCardRW@@VCWindow@ATL@@V?$CWinTraits@$0FGAAAAAA@$0A@@3@@ATL@@SAAAU_ATL_WNDCLASSINFOW@3@XZ@4U43@A 10028000     SmartCardRW.obj
 0003:0000008c       ?s_Claim@?7??GetIDsOfNames@CComTypeInfoHolder@ATL@@QAEJABU_GUID@@PAPA_WIKPAJ@Z@4PA_WA 1002808c     SmartCardRW.obj
 0003:000000a4       ?s_Release@?7??GetIDsOfNames@CComTypeInfoHolder@ATL@@QAEJABU_GUID@@PAPA_WIKPAJ@Z@4PA_WA 100280a4     SmartCardRW.obj
 0003:000000c0       ?rcDefault@CWindow@ATL@@2UtagRECT@@A 100280c0     SmartCardRW.obj
 0003:000000d0       ?_tih@?$IDispatchImpl@UIOPOSSmartCardRW@@$1?IID_IOPOSSmartCardRW@@3U_GUID@@B$1?LIBID_OposSmartCardRW_CCO@@3U3@B$00$0A@VCComTypeInfoHolder@ATL@@@ATL@@1VCComTypeInfoHolder@2@A 100280d0     SmartCardRW.obj
 0003:000000ec       ?_tih@?$IProvideClassInfo2Impl@$1?CLSID_OPOSSmartCardRW@@3U_GUID@@B$1?DIID__IOPOSSmartCardRWEvents@@3U2@B$1?LIBID_OposSmartCardRW_CCO@@3U2@B$00$0A@VCComTypeInfoHolder@ATL@@@ATL@@1VCComTypeInfoHolder@2@A 100280ec     SmartCardRW.obj
 0003:00000108       ?vszContents@?6??Save@?$IPersistStorageImpl@VCOPOSSmartCardRW@@@ATL@@UAGJPAUIStorage@@H@Z@4PB_WB 10028108     SmartCardRW.obj
 0003:00000158       ?g_WindowName@@3PA_WA      10028158     SmartCardRWImpl.obj
 0003:00000180       ?g_ControlDescription@@3PADA 10028180     SmartCardRWImpl.obj
 0003:000001b8       ?g_ControlVersion@@3JA     100281b8     SmartCardRWImpl.obj
 0003:00000230       ___scrt_native_dllmain_reason 10028230     LIBCMT:utility.obj
 0003:00000234       __Init_global_epoch        10028234     LIBCMT:thread_safe_statics.obj
 0003:00000240       ___security_cookie_complement 10028240     LIBCMT:gs_cookie.obj
 0003:00000244       ___security_cookie         10028244     LIBCMT:gs_cookie.obj
 0003:00000248       ___isa_enabled             10028248     LIBCMT:cpu_disp.obj
 0003:00000260       __NLG_Destination          10028260     libvcruntime:exsup.obj
 0003:00000278       ___abort_behavior          10028278     libucrt:abort.obj
 0003:00000288       __iob                      10028288     libucrt:_file.obj
 0003:00000330       ___acrt_initial_locale_data 10028330     libucrt:nlsdata.obj
 0003:000003e8       ___acrt_initial_locale_pointers 100283e8     libucrt:nlsdata.obj
 0003:000003f0       ___acrt_wide_c_locale_string 100283f0     libucrt:nlsdata.obj
 0003:000004e8       __mbctype                  100284e8     libucrt:mbctype.obj
 0003:000005f0       __mbcasemap                100285f0     libucrt:mbctype.obj
 0003:000006f0       ___acrt_initial_multibyte_data 100286f0     libucrt:mbctype.obj
 0003:00000910       ___acrt_current_multibyte_data 10028910     libucrt:mbctype.obj
 0003:00000914       __pwctype                  10028914     libucrt:ctype.obj
 0003:00000918       ___globallocalestatus      10028918     libucrt:glstatus.obj
 0003:0000091c       ___acrt_lconv_static_decimal 1002891c     libucrt:localeconv.obj
 0003:00000920       ___acrt_lconv_static_W_decimal 10028920     libucrt:localeconv.obj
 0003:00000928       ___acrt_lconv_c            10028928     libucrt:localeconv.obj
 0003:00000980       ___dcrt_lowio_console_output_handle 10028980     libucrt:initcon.obj
 0003:00000990       __fltused                  10028990     LIBCMT:fltused.obj
 0003:000009a0       ??_R0?AVbad_alloc@std@@@8  100289a0     LIBCMT:throw_bad_alloc.obj
 0003:000009bc       ??_R0?AVexception@std@@@8  100289bc     LIBCMT:throw_bad_alloc.obj
 0003:000009d8       ??_R0?AVbad_array_new_length@std@@@8 100289d8     LIBCMT:throw_bad_alloc.obj
 0003:00000a00       ??_R0?AVtype_info@@@8      10028a00     LIBCMT:std_type_info_static.obj
 0003:00000a18       ??_R0?AVbad_exception@std@@@8 10028a18     libvcruntime:frame.obj
 0003:00000a38       ?m_bInitFailed@CAtlBaseModule@ATL@@2_NA 10028a38     OposVariant.obj
 0003:00000a3c       ?_pPerfRegFunc@ATL@@3P6AJPAUHINSTANCE__@@@ZA 10028a3c     OposVariant.obj
 0003:00000a40       ?_pPerfUnRegFunc@ATL@@3P6AJXZA 10028a40     OposVariant.obj
 0003:00000a44       ?_AtlRegisterPerUser@ATL@@3_NA 10028a44     OposVariant.obj
 0003:00000a48       ?_pAtlModule@ATL@@3PAVCAtlModule@1@A 10028a48     OposVariant.obj
 0003:00000a4c       ?_pModule@ATL@@3PAVCComModule@1@A 10028a4c     OposVariant.obj
 0003:00000a50       ?_AtlComModule@ATL@@3VCAtlComModule@1@A 10028a50     OposVariant.obj
 0003:00000a78       ?_AtlWinModule@ATL@@3VCAtlWinModule@1@A 10028a78     OposVariant.obj
 0003:00000aa4       ?m_libid@CAtlModule@ATL@@2U_GUID@@A 10028aa4     SmartCardRW.obj
 0003:00000ab4       ?_entries@?1??GetConnMap@COPOSSmartCardRW@@SAPBU_ATL_CONNMAP_ENTRY@ATL@@PAH@Z@4QBU34@B 10028ab4     SmartCardRW.obj
 0003:00000ac0       ?$TSS0@?1??GetConnMap@COPOSSmartCardRW@@SAPBU_ATL_CONNMAP_ENTRY@ATL@@PAH@Z@4HA 10028ac0     SmartCardRW.obj
 0003:00000ac8       ?_OptionsStorage@?1??__local_stdio_printf_options@@9@4_KA 10028ac8     SmartCardRW.obj
 0003:00000ad0       ?pfnRegDeleteKeyEx@?1??DeleteSubKey@CRegKey@ATL@@QAEJPB_W@Z@4P6GJPAUHKEY__@@0KK@ZA 10028ad0     SmartCardRW.obj
 0003:00000ad4       ?bInitialized@?1??DeleteSubKey@CRegKey@ATL@@QAEJPB_W@Z@4_NA 10028ad4     SmartCardRW.obj
 0003:00000ad8       ?_Module@@3VCComModule@ATL@@A 10028ad8     SmartCardRW.obj
 0003:00000b08       ?pConnMap@?$IConnectionPointContainerImpl@VCOPOSSmartCardRW@@@ATL@@0PBU_ATL_CONNMAP_ENTRY@2@B 10028b08     SmartCardRW.obj
 0003:00000b0c       ?s_nInstances@COPOSSmartCardRW@@1HA 10028b0c     SmartCardRWImpl.obj
 0003:00000b10       ___scrt_current_native_startup_state 10028b10     LIBCMT:utility.obj
 0003:00000b14       ___scrt_native_startup_lock 10028b14     LIBCMT:utility.obj
 0003:00000e7c       __tls_index                10028e7c     LIBCMT:tlssup.obj
 0003:00000e84       ___isa_available           10028e84     LIBCMT:cpu_disp.obj
 0003:00000e88       ___favor                   10028e88     LIBCMT:cpu_disp.obj
 0003:00000e8c       ___scrt_debugger_hook_flag 10028e8c     LIBCMT:utility_desktop.obj
 0003:00000e90       ?__type_info_root_node@@3U__type_info_node@@A 10028e90     LIBCMT:tncleanup.obj
 0003:00000e98       ?_OptionsStorage@?1??__local_stdio_scanf_options@@9@4_KA 10028e98     LIBCMT:default_local_stdio_options.obj
 0003:00000ea0       ?_AtlBaseModule@ATL@@3VCAtlBaseModule@1@A 10028ea0     atls:atlbase.obj
 0003:00000ed8       ?__AtlThunkPool@@3PAT_SLIST_HEADER@@A 10028ed8     atls:atlthunk.obj
 0003:00000ef0       ___@@_PchSym_@00@UztvmgUPdlipUDUhUrmgvinvwrzgvUexgllohUzgohOmzgrevkilqPBACIAJCBDBUlyqiUcIGUhgwzucOlyq@4B2008FD98C1DD4 10028ef0     atls:stdafx.obj
 0003:00000ef4       ___pPurecall               10028ef4     libvcruntime:purevirt_data.obj
 0003:00000f5c       ?pArgList@UnDecorator@@0PAVReplicator@@A 10028f5c     libvcruntime:undname.obj
 0003:00000f60       ?pZNameList@UnDecorator@@0PAVReplicator@@A 10028f60     libvcruntime:undname.obj
 0003:00000f64       ?pTemplateArgList@UnDecorator@@0PAVReplicator@@A 10028f64     libvcruntime:undname.obj
 0003:00000f68       ?gName@UnDecorator@@0PBDB  10028f68     libvcruntime:undname.obj
 0003:00000f6c       ?name@UnDecorator@@0PBDB   10028f6c     libvcruntime:undname.obj
 0003:00000f70       ?disableFlags@UnDecorator@@0KA 10028f70     libvcruntime:undname.obj
 0003:00000f74       ?fExplicitTemplateParams@UnDecorator@@0_NA 10028f74     libvcruntime:undname.obj
 0003:00000f75       ?fGetTemplateArgumentList@UnDecorator@@0_NA 10028f75     libvcruntime:undname.obj
 0003:00000f78       ?m_pGetParameter@UnDecorator@@0P6APADJ@ZA 10028f78     libvcruntime:undname.obj
 0003:00000f7c       ?m_CHPENameOffset@UnDecorator@@0KA 10028f7c     libvcruntime:undname.obj
 0003:00000f80       ?m_recursionLevel@UnDecorator@@0KA 10028f80     libvcruntime:undname.obj
 0003:00000f98       ?__WinRTOutOfMemoryExceptionCallback@@3P6GPAXXZA 10028f98     libvcruntime:ehhelpers.obj
 0003:000010b8       __environ_table            100290b8     libucrt:environment_initialization.obj
 0003:000010bc       __wenviron_table           100290bc     libucrt:environment_initialization.obj
 0003:000010c0       ___dcrt_initial_wide_environment 100290c0     libucrt:environment_initialization.obj
 0003:000010c4       ___dcrt_initial_narrow_environment 100290c4     libucrt:environment_initialization.obj
 0003:000010c8       ___acrt_atexit_table       100290c8     libucrt:onexit.obj
 0003:000010d4       ___acrt_at_quick_exit_table 100290d4     libucrt:onexit.obj
 0003:000011bc       __nstream                  100291bc     libucrt:_file.obj
 0003:000011c0       ___piob                    100291c0     libucrt:_file.obj
 0003:000011c8       ___acrt_stdout_buffer      100291c8     libucrt:_sftbuf.obj
 0003:000011cc       ___acrt_stderr_buffer      100291cc     libucrt:_sftbuf.obj
 0003:000011d0       ___acrt_locale_changed_data 100291d0     libucrt:wsetlocale.obj
 0003:000011d4       ___acrt_current_locale_data 100291d4     libucrt:nlsdata.obj
 0003:000011d8       ___pioinfo                 100291d8     libucrt:ioinit.obj
 0003:000013d8       __nhandle                  100293d8     libucrt:ioinit.obj
 0003:0000151c       ___mblocalename            1002951c     libucrt:mbctype.obj
 0003:00001520       ___mbcodepage              10029520     libucrt:mbctype.obj
 0003:00001524       ___ismbcodepage            10029524     libucrt:mbctype.obj
 0003:00001528       ___mbulinfo                10029528     libucrt:mbctype.obj
 0003:0000153c       ___argc                    1002953c     libucrt:argv_data.obj
 0003:00001540       ___argv                    10029540     libucrt:argv_data.obj
 0003:00001544       ___wargv                   10029544     libucrt:argv_data.obj
 0003:00001548       __acmdln                   10029548     libucrt:argv_data.obj
 0003:0000154c       __wcmdln                   1002954c     libucrt:argv_data.obj
 0003:00001550       __pgmptr                   10029550     libucrt:argv_data.obj
 0003:00001554       ___acrt_heap               10029554     libucrt:heap_handle.obj
 0003:00001570       ___acrt_lconv_static_null  10029570     libucrt:localeconv.obj
 0003:00001574       ___acrt_lconv_static_W_null 10029574     libucrt:localeconv.obj
 0003:0000157c       ___fastflag                1002957c     libucrt:fp_flags.obj
 0003:00001584       ___dyn_tls_init_callback   10029584     <common>
 0003:00001588       ___scrt_ucrt_dll_is_in_use 10029588     <common>
 0003:0000158c       __pmatherr                 1002958c     <common>
 0003:00001590       ___use_sse2_mathfcns       10029590     <common>

 entry point at        0001:0000bedd

 Static symbols

 0000:fffcf000       .debug$S                   10000000     gdi32:GDI32.dll
 0000:fffcf000       .debug$S                   10000000     gdi32:GDI32.dll
 0000:fffcf000       .debug$S                   10000000     gdi32:GDI32.dll
 0000:fffcf000       .debug$S                   10000000     gdi32:GDI32.dll
 0000:fffcf000       .debug$S                   10000000     gdi32:GDI32.dll
 0000:fffcf000       .debug$S                   10000000     gdi32:GDI32.dll
 0000:fffcf000       .debug$S                   10000000     gdi32:GDI32.dll
 0000:fffcf000       .debug$S                   10000000     gdi32:GDI32.dll
 0000:fffcf000       .debug$S                   10000000     gdi32:GDI32.dll
 0000:fffcf000       .debug$S                   10000000     gdi32:GDI32.dll
 0000:fffcf000       .debug$S                   10000000     gdi32:GDI32.dll
 0000:fffcf000       .debug$S                   10000000     gdi32:GDI32.dll
 0000:fffcf000       .debug$S                   10000000     gdi32:GDI32.dll
 0000:fffcf000       .debug$S                   10000000     gdi32:GDI32.dll
 0000:fffcf000       .debug$S                   10000000     gdi32:GDI32.dll
 0000:fffcf000       .debug$S                   10000000     OPOSSmartCardRW.exp
 0000:fffcf000       .debug$S                   10000000     gdi32:GDI32.dll
 0000:fffcf000       .debug$S                   10000000     advapi32:ADVAPI32.dll
 0000:fffcf000       .debug$S                   10000000     advapi32:ADVAPI32.dll
 0000:fffcf000       .debug$S                   10000000     advapi32:ADVAPI32.dll
 0000:fffcf000       .debug$S                   10000000     advapi32:ADVAPI32.dll
 0000:fffcf000       .debug$S                   10000000     advapi32:ADVAPI32.dll
 0000:fffcf000       .debug$S                   10000000     advapi32:ADVAPI32.dll
 0000:fffcf000       .debug$S                   10000000     advapi32:ADVAPI32.dll
 0000:fffcf000       .debug$S                   10000000     advapi32:ADVAPI32.dll
 0000:fffcf000       .debug$S                   10000000     advapi32:ADVAPI32.dll
 0000:fffcf000       .debug$S                   10000000     kernel32:KERNEL32.dll
 0000:fffcf000       .debug$S                   10000000     kernel32:KERNEL32.dll
 0000:fffcf000       .debug$S                   10000000     kernel32:KERNEL32.dll
 0000:fffcf000       .debug$S                   10000000     kernel32:KERNEL32.dll
 0000:fffcf000       .debug$S                   10000000     kernel32:KERNEL32.dll
 0000:fffcf000       .debug$S                   10000000     kernel32:KERNEL32.dll
 0000:fffcf000       .debug$S                   10000000     kernel32:KERNEL32.dll
 0000:fffcf000       .debug$S                   10000000     kernel32:KERNEL32.dll
 0000:fffcf000       .debug$S                   10000000     kernel32:KERNEL32.dll
 0000:fffcf000       .debug$S                   10000000     kernel32:KERNEL32.dll
 0000:fffcf000       .debug$S                   10000000     kernel32:KERNEL32.dll
 0000:fffcf000       .debug$S                   10000000     kernel32:KERNEL32.dll
 0000:fffcf000       .debug$S                   10000000     kernel32:KERNEL32.dll
 0000:fffcf000       .debug$S                   10000000     kernel32:KERNEL32.dll
 0000:fffcf000       .debug$S                   10000000     kernel32:KERNEL32.dll
 0000:fffcf000       .debug$S                   10000000     kernel32:KERNEL32.dll
 0000:fffcf000       .debug$S                   10000000     kernel32:KERNEL32.dll
 0000:fffcf000       .debug$S                   10000000     kernel32:KERNEL32.dll
 0000:fffcf000       .debug$S                   10000000     kernel32:KERNEL32.dll
 0000:fffcf000       .debug$S                   10000000     kernel32:KERNEL32.dll
 0000:fffcf000       .debug$S                   10000000     kernel32:KERNEL32.dll
 0000:fffcf000       .debug$S                   10000000     kernel32:KERNEL32.dll
 0000:fffcf000       .debug$S                   10000000     kernel32:KERNEL32.dll
 0000:fffcf000       .debug$S                   10000000     kernel32:KERNEL32.dll
 0000:fffcf000       .debug$S                   10000000     kernel32:KERNEL32.dll
 0000:fffcf000       .debug$S                   10000000     kernel32:KERNEL32.dll
 0000:fffcf000       .debug$S                   10000000     kernel32:KERNEL32.dll
 0000:fffcf000       .debug$S                   10000000     kernel32:KERNEL32.dll
 0000:fffcf000       .debug$S                   10000000     kernel32:KERNEL32.dll
 0000:fffcf000       .debug$S                   10000000     kernel32:KERNEL32.dll
 0000:fffcf000       .debug$S                   10000000     kernel32:KERNEL32.dll
 0000:fffcf000       .debug$S                   10000000     kernel32:KERNEL32.dll
 0000:fffcf000       .debug$S                   10000000     kernel32:KERNEL32.dll
 0000:fffcf000       .debug$S                   10000000     kernel32:KERNEL32.dll
 0000:fffcf000       .debug$S                   10000000     kernel32:KERNEL32.dll
 0000:fffcf000       .debug$S                   10000000     kernel32:KERNEL32.dll
 0000:fffcf000       .debug$S                   10000000     kernel32:KERNEL32.dll
 0000:fffcf000       .debug$S                   10000000     kernel32:KERNEL32.dll
 0000:fffcf000       .debug$S                   10000000     kernel32:KERNEL32.dll
 0000:fffcf000       .debug$S                   10000000     kernel32:KERNEL32.dll
 0000:fffcf000       .debug$S                   10000000     kernel32:KERNEL32.dll
 0000:fffcf000       .debug$S                   10000000     kernel32:KERNEL32.dll
 0000:fffcf000       .debug$S                   10000000     kernel32:KERNEL32.dll
 0000:fffcf000       .debug$S                   10000000     kernel32:KERNEL32.dll
 0000:fffcf000       .debug$S                   10000000     kernel32:KERNEL32.dll
 0000:fffcf000       .debug$S                   10000000     kernel32:KERNEL32.dll
 0000:fffcf000       .debug$S                   10000000     kernel32:KERNEL32.dll
 0000:fffcf000       .debug$S                   10000000     kernel32:KERNEL32.dll
 0000:fffcf000       .debug$S                   10000000     kernel32:KERNEL32.dll
 0000:fffcf000       .debug$S                   10000000     kernel32:KERNEL32.dll
 0000:fffcf000       .debug$S                   10000000     kernel32:KERNEL32.dll
 0000:fffcf000       .debug$S                   10000000     kernel32:KERNEL32.dll
 0000:fffcf000       .debug$S                   10000000     kernel32:KERNEL32.dll
 0000:fffcf000       .debug$S                   10000000     kernel32:KERNEL32.dll
 0000:fffcf000       .debug$S                   10000000     kernel32:KERNEL32.dll
 0000:fffcf000       .debug$S                   10000000     kernel32:KERNEL32.dll
 0000:fffcf000       .debug$S                   10000000     kernel32:KERNEL32.dll
 0000:fffcf000       .debug$S                   10000000     kernel32:KERNEL32.dll
 0000:fffcf000       .debug$S                   10000000     kernel32:KERNEL32.dll
 0000:fffcf000       .debug$S                   10000000     kernel32:KERNEL32.dll
 0000:fffcf000       .debug$S                   10000000     kernel32:KERNEL32.dll
 0000:fffcf000       .debug$S                   10000000     kernel32:KERNEL32.dll
 0000:fffcf000       .debug$S                   10000000     kernel32:KERNEL32.dll
 0000:fffcf000       .debug$S                   10000000     kernel32:KERNEL32.dll
 0000:fffcf000       .debug$S                   10000000     kernel32:KERNEL32.dll
 0000:fffcf000       .debug$S                   10000000     kernel32:KERNEL32.dll
 0000:fffcf000       .debug$S                   10000000     kernel32:KERNEL32.dll
 0000:fffcf000       .debug$S                   10000000     kernel32:KERNEL32.dll
 0000:fffcf000       .debug$S                   10000000     kernel32:KERNEL32.dll
 0000:fffcf000       .debug$S                   10000000     kernel32:KERNEL32.dll
 0000:fffcf000       .debug$S                   10000000     kernel32:KERNEL32.dll
 0000:fffcf000       .debug$S                   10000000     kernel32:KERNEL32.dll
 0000:fffcf000       .debug$S                   10000000     kernel32:KERNEL32.dll
 0000:fffcf000       .debug$S                   10000000     kernel32:KERNEL32.dll
 0000:fffcf000       .debug$S                   10000000     gdi32:GDI32.dll
 0000:fffcf000       .debug$S                   10000000     ole32:ole32.dll
 0000:fffcf000       .debug$S                   10000000     ole32:ole32.dll
 0000:fffcf000       .debug$S                   10000000     ole32:ole32.dll
 0000:fffcf000       .debug$S                   10000000     ole32:ole32.dll
 0000:fffcf000       .debug$S                   10000000     ole32:ole32.dll
 0000:fffcf000       .debug$S                   10000000     ole32:ole32.dll
 0000:fffcf000       .debug$S                   10000000     ole32:ole32.dll
 0000:fffcf000       .debug$S                   10000000     ole32:ole32.dll
 0000:fffcf000       .debug$S                   10000000     ole32:ole32.dll
 0000:fffcf000       .debug$S                   10000000     ole32:ole32.dll
 0000:fffcf000       .debug$S                   10000000     ole32:ole32.dll
 0000:fffcf000       .debug$S                   10000000     ole32:ole32.dll
 0000:fffcf000       .debug$S                   10000000     ole32:ole32.dll
 0000:fffcf000       .debug$S                   10000000     ole32:ole32.dll
 0000:fffcf000       .debug$S                   10000000     gdi32:GDI32.dll
 0000:fffcf000       .debug$S                   10000000     oleaut32:OLEAUT32.dll
 0000:fffcf000       .debug$S                   10000000     oleaut32:OLEAUT32.dll
 0000:fffcf000       .debug$S                   10000000     oleaut32:OLEAUT32.dll
 0000:fffcf000       .debug$S                   10000000     oleaut32:OLEAUT32.dll
 0000:fffcf000       .debug$S                   10000000     oleaut32:OLEAUT32.dll
 0000:fffcf000       .debug$S                   10000000     oleaut32:OLEAUT32.dll
 0000:fffcf000       .debug$S                   10000000     oleaut32:OLEAUT32.dll
 0000:fffcf000       .debug$S                   10000000     oleaut32:OLEAUT32.dll
 0000:fffcf000       .debug$S                   10000000     oleaut32:OLEAUT32.dll
 0000:fffcf000       .debug$S                   10000000     oleaut32:OLEAUT32.dll
 0000:fffcf000       .debug$S                   10000000     oleaut32:OLEAUT32.dll
 0000:fffcf000       .debug$S                   10000000     oleaut32:OLEAUT32.dll
 0000:fffcf000       .debug$S                   10000000     oleaut32:OLEAUT32.dll
 0000:fffcf000       .debug$S                   10000000     oleaut32:OLEAUT32.dll
 0000:fffcf000       .debug$S                   10000000     oleaut32:OLEAUT32.dll
 0000:fffcf000       .debug$S                   10000000     oleaut32:OLEAUT32.dll
 0000:fffcf000       .debug$S                   10000000     gdi32:GDI32.dll
 0000:fffcf000       .debug$S                   10000000     user32:USER32.dll
 0000:fffcf000       .debug$S                   10000000     user32:USER32.dll
 0000:fffcf000       .debug$S                   10000000     user32:USER32.dll
 0000:fffcf000       .debug$S                   10000000     user32:USER32.dll
 0000:fffcf000       .debug$S                   10000000     user32:USER32.dll
 0000:fffcf000       .debug$S                   10000000     user32:USER32.dll
 0000:fffcf000       .debug$S                   10000000     user32:USER32.dll
 0000:fffcf000       .debug$S                   10000000     user32:USER32.dll
 0000:fffcf000       .debug$S                   10000000     user32:USER32.dll
 0000:fffcf000       .debug$S                   10000000     user32:USER32.dll
 0000:fffcf000       .debug$S                   10000000     kernel32:KERNEL32.dll
 0000:fffcf000       .debug$S                   10000000     kernel32:KERNEL32.dll
 0000:fffcf000       .debug$S                   10000000     user32:USER32.dll
 0000:fffcf000       .debug$S                   10000000     kernel32:KERNEL32.dll
 0000:fffcf000       .debug$S                   10000000     user32:USER32.dll
 0000:fffcf000       .debug$S                   10000000     user32:USER32.dll
 0000:fffcf000       .debug$S                   10000000     user32:USER32.dll
 0000:fffcf000       .debug$S                   10000000     user32:USER32.dll
 0000:fffcf000       .debug$S                   10000000     user32:USER32.dll
 0000:fffcf000       .debug$S                   10000000     user32:USER32.dll
 0000:fffcf000       .debug$S                   10000000     user32:USER32.dll
 0000:fffcf000       .debug$S                   10000000     user32:USER32.dll
 0000:fffcf000       .debug$S                   10000000     user32:USER32.dll
 0000:fffcf000       .debug$S                   10000000     user32:USER32.dll
 0000:fffcf000       .debug$S                   10000000     user32:USER32.dll
 0000:fffcf000       .debug$S                   10000000     user32:USER32.dll
 0000:fffcf000       .debug$S                   10000000     user32:USER32.dll
 0000:fffcf000       .debug$S                   10000000     user32:USER32.dll
 0000:fffcf000       .debug$S                   10000000     user32:USER32.dll
 0000:fffcf000       .debug$S                   10000000     user32:USER32.dll
 0000:fffcf000       .debug$S                   10000000     user32:USER32.dll
 0000:fffcf000       .debug$S                   10000000     user32:USER32.dll
 0000:fffcf000       .debug$S                   10000000     user32:USER32.dll
 0000:fffcf000       .debug$S                   10000000     kernel32:KERNEL32.dll
 0000:fffcf000       .debug$S                   10000000     user32:USER32.dll
 0000:fffcf000       .debug$S                   10000000     kernel32:KERNEL32.dll
 0000:fffcf000       .debug$S                   10000000     user32:USER32.dll
 0000:fffcf000       .debug$S                   10000000     kernel32:KERNEL32.dll
 0000:fffcf000       .debug$S                   10000000     user32:USER32.dll
 0000:fffcf000       .debug$S                   10000000     user32:USER32.dll
 0000:fffcf000       .debug$S                   10000000     user32:USER32.dll
 0000:fffcf000       .debug$S                   10000000     kernel32:KERNEL32.dll
 0000:fffcf000       .debug$S                   10000000     kernel32:KERNEL32.dll
 0000:fffcf000       .debug$S                   10000000     kernel32:KERNEL32.dll
 0000:fffcf000       .debug$S                   10000000     kernel32:KERNEL32.dll
 0000:fffcf000       .debug$S                   10000000     kernel32:KERNEL32.dll
 0000:fffcf000       .debug$S                   10000000     kernel32:KERNEL32.dll
 0000:fffcf000       .debug$S                   10000000     kernel32:KERNEL32.dll
 0000:fffcf000       .debug$S                   10000000     kernel32:KERNEL32.dll
 0000:fffcf000       .debug$S                   10000000     kernel32:KERNEL32.dll
 0000:fffcf000       .debug$S                   10000000     kernel32:KERNEL32.dll
 0000:fffcf000       .debug$S                   10000000     kernel32:KERNEL32.dll
 0000:fffcf000       .debug$S                   10000000     kernel32:KERNEL32.dll
 0000:fffcf000       .debug$S                   10000000     kernel32:KERNEL32.dll
 0000:fffcf000       .debug$S                   10000000     kernel32:KERNEL32.dll
 0000:fffcf000       .debug$S                   10000000     kernel32:KERNEL32.dll
 0000:fffcf000       .debug$S                   10000000     kernel32:KERNEL32.dll
 0000:fffcf000       .debug$S                   10000000     kernel32:KERNEL32.dll
 0000:fffcf000       .debug$S                   10000000     kernel32:KERNEL32.dll
 0000:fffcf000       .debug$S                   10000000     kernel32:KERNEL32.dll
 0000:fffcf000       .debug$S                   10000000     kernel32:KERNEL32.dll
 0000:fffcf000       .debug$S                   10000000     kernel32:KERNEL32.dll
 0000:fffcf000       .debug$S                   10000000     kernel32:KERNEL32.dll
 0000:fffcf000       .debug$S                   10000000     kernel32:KERNEL32.dll
 0000:fffcf000       .debug$S                   10000000     kernel32:KERNEL32.dll
 0000:fffcf000       .debug$S                   10000000     kernel32:KERNEL32.dll
 0000:fffcf000       .debug$S                   10000000     kernel32:KERNEL32.dll
 0000:fffcf000       .debug$S                   10000000     kernel32:KERNEL32.dll
 0000:fffcf000       .debug$S                   10000000     kernel32:KERNEL32.dll
 0000:fffcf000       .debug$S                   10000000     kernel32:KERNEL32.dll
 0001:00000000       ??__E_AtlComModule@ATL@@YAXXZ 10001000 f   OposVariant.obj
 0001:00000016       ??__E_AtlWinModule@ATL@@YAXXZ 10001016 f   OposVariant.obj
 0001:0000002c       ??__E?pConnMap@?$IConnectionPointContainerImpl@VCOPOSSmartCardRW@@@ATL@@0PBU_ATL_CONNMAP_ENTRY@2@B@@YAXXZ 1000102c f   SmartCardRW.obj
 0001:0000003a       ??__E_Module@@YAXXZ        1000103a f   SmartCardRW.obj
 0001:00000064       ??__E_AtlBaseModule@ATL@@YAXXZ 10001064 f   atls:atlbase.obj
 0001:00001653       $LN37                      10002653     SmartCardRW.obj
 0001:00005c90       $LN53                      10006c90     SmartCardRW.obj
 0001:00005ca8       $LN49                      10006ca8     SmartCardRW.obj
 0001:00007aec       $LN45                      10008aec     SmartCardRW.obj
 0001:00007b04       $LN36                      10008b04     SmartCardRW.obj
 0001:000090b7       $LN87                      1000a0b7     SmartCardRW.obj
 0001:000090cf       $LN81                      1000a0cf     SmartCardRW.obj
 0001:000094fc       _memcpy_s                  1000a4fc f   SmartCardRW.obj
 0001:0000b2df       ?find_pe_section@@YAPAU_IMAGE_SECTION_HEADER@@QAEI@Z 1000c2df f   LIBCMT:utility.obj
 0001:0000b62a       ?__scrt_initialize_thread_safe_statics@@YAHXZ 1000c62a f   LIBCMT:thread_safe_statics.obj
 0001:0000b651       ?__scrt_initialize_thread_safe_statics_platform_specific@@YAXXZ 1000c651 f   LIBCMT:thread_safe_statics.obj
 0001:0000b740       ?__scrt_uninitialize_thread_safe_statics@@YAXXZ 1000c740 f   LIBCMT:thread_safe_statics.obj
 0001:0000bacd       __catch$??2@YAPAXIABUnothrow_t@std@@@Z$0 1000cacd f   LIBCMT:new_scalar_nothrow.obj
 0001:0000bb00       $$000000                   1000cb00     LIBCMT:sehprolg4gs.obj
 0001:0000bb60       $$000000                   1000cb60     LIBCMT:alloca16.obj
 0001:0000bb90       $$000000                   1000cb90     LIBCMT:chkstk.obj
 0001:0000bbbd       ?dllmain_crt_dispatch@@YGHQAUHINSTANCE__@@KQAX@Z 1000cbbd f   LIBCMT:dll_dllmain.obj
 0001:0000bc10       ?dllmain_crt_process_attach@@YAHQAUHINSTANCE__@@QAX@Z 1000cc10 f   LIBCMT:dll_dllmain.obj
 0001:0000bd1a       ?dllmain_crt_process_detach@@YAH_N@Z 1000cd1a f   LIBCMT:dll_dllmain.obj
 0001:0000bdac       ?dllmain_dispatch@@YAHQAUHINSTANCE__@@KQAX@Z 1000cdac f   LIBCMT:dll_dllmain.obj
 0001:0000beb2       ?dllmain_raw@@YGHQAUHINSTANCE__@@KQAX@Z 1000ceb2 f   LIBCMT:dll_dllmain.obj
 0001:0000c200       $$000000                   1000d200     LIBCMT:sehprolg4.obj
 0001:0000c25c       ___get_entropy             1000d25c f   LIBCMT:gs_support.obj
 0001:0000c553       ??$GetProcAddressAll@P6GXPAUAtlThunkData_t@@PAXI@Z@@YAP6GXPAUAtlThunkData_t@@PAXI@ZPAP6GX01I@Z@Z 1000d553 f   atls:atlthunk.obj
 0001:0000c553       ??$GetProcAddressAll@P6GP6GJPAUHWND__@@IIJ@ZPAUAtlThunkData_t@@@Z@@YAP6GP6GJPAUHWND__@@IIJ@ZPAUAtlThunkData_t@@@ZPAP6GP6GJ0IIJ@Z1@Z@Z 1000d553 f   atls:atlthunk.obj
 0001:0000c553       ??$GetProcAddressAll@P6GXPAUAtlThunkData_t@@@Z@@YAP6GXPAUAtlThunkData_t@@@ZPAP6GX0@Z@Z 1000d553 f   atls:atlthunk.obj
 0001:0000c553       ??$GetProcAddressAll@P6GPAUAtlThunkData_t@@XZ@@YAP6GPAUAtlThunkData_t@@XZPAP6GPAU0@XZ@Z 1000d553 f   atls:atlthunk.obj
 0001:0000c603       ?GetProcAddressSingle@@YA_NPAUHINSTANCE__@@PBDPAPAX@Z 1000d603 f   atls:atlthunk.obj
 0001:0000c755       ?__InitializeThunkPool@@YAHXZ 1000d755 f   atls:atlthunk.obj
 0001:0000cbc0       _ValidateLocalCookies      1000dbc0 f   libvcruntime:chandler4.obj
 0001:0000dc7b       $LN1285                    1000ec7b     libvcruntime:memcmp.obj
 0001:0000dd00       $$000000                   1000ed00     libvcruntime:memcpy.obj
 0001:0000df64       TrailingUpVec              1000ef64     libvcruntime:memcpy.obj
 0001:0000e010       TrailingDownVec            1000f010     libvcruntime:memcpy.obj
 0001:0000e280       $$000000                   1000f280     libvcruntime:memset.obj
 0001:0000e940       $$000000                   1000f940     libvcruntime:memmove.obj
 0001:0000eba4       TrailingUpVec              1000fba4     libvcruntime:memmove.obj
 0001:0000ec50       TrailingDownVec            1000fc50     libvcruntime:memmove.obj
 0001:0000eec0       $$000000                   1000fec0     libvcruntime:exsup4.obj
 0001:0000ef50       __unwind_handler4          1000ff50 f   libvcruntime:exsup4.obj
 0001:0000f22f       ?try_get_first_available_module@@YAPAUHINSTANCE__@@QBW4module_id@?A0x5d2a34d3@@0@Z 1001022f f   libvcruntime:winapi_downlevel.obj
 0001:0000f2f3       ?try_get_function@@YAPAXW4function_id@?A0x5d2a34d3@@QBDQBW4module_id@2@2@Z 100102f3 f   libvcruntime:winapi_downlevel.obj
 0001:0000f4f3       ??$BuildCatchObjectHelperInternal@V__FrameHandler3@@@@YAHPAUEHExceptionRecord@@PAXPBU_s_HandlerType@@PBU_s_CatchableType@@@Z 100104f3 f   libvcruntime:frame.obj
 0001:0000f632       ??$BuildCatchObjectInternal@V__FrameHandler3@@@@YAXPAUEHExceptionRecord@@PAXPBU_s_HandlerType@@PBU_s_CatchableType@@@Z 10010632 f   libvcruntime:frame.obj
 0001:0000f6cb       ??$CatchIt@V__FrameHandler3@@@@YAXPAUEHExceptionRecord@@PAUEHRegistrationNode@@PAU_CONTEXT@@PAXPBU_s_FuncInfo@@PBU_s_HandlerType@@PBU_s_CatchableType@@PBU_s_TryBlockMapEntry@@H1E@Z 100106cb f   libvcruntime:frame.obj
 0001:0000f74b       ??$FindHandler@V__FrameHandler3@@@@YAXPAUEHExceptionRecord@@PAUEHRegistrationNode@@PAU_CONTEXT@@PAXPBU_s_FuncInfo@@EH1@Z 1001074b f   libvcruntime:frame.obj
 0001:0000fad9       ??$FindHandlerForForeignException@V__FrameHandler3@@@@YAXPAUEHExceptionRecord@@PAUEHRegistrationNode@@PAU_CONTEXT@@PAXPBU_s_FuncInfo@@HH1@Z 10010ad9 f   libvcruntime:frame.obj
 0001:0000fdcc       ?CallCatchBlock@@YAPAXPAUEHExceptionRecord@@PAUEHRegistrationNode@@PAU_CONTEXT@@PBU_s_FuncInfo@@PAXHK@Z 10010dcc f   libvcruntime:frame.obj
 0001:0000ff90       ?CallUnexpected@@YAXPBU_s_ESTypeList@@@Z 10010f90 f   libvcruntime:frame.obj
 0001:0000ffb0       __catch$?CallUnexpected@@YAXPBU_s_ESTypeList@@@Z$0 10010fb0 f   libvcruntime:frame.obj
 0001:0000ffca       ?ExFilterRethrow@@YAHPAU_EXCEPTION_POINTERS@@@Z 10010fca f   libvcruntime:frame.obj
 0001:00010114       ?IsInExceptionSpec@@YAEPAUEHExceptionRecord@@PBU_s_ESTypeList@@@Z 10011114 f   libvcruntime:frame.obj
 0001:000101e0       $$000000                   100111e0     libvcruntime:lowhelpr.obj
 0001:00010230       $$000000                   10011230     libvcruntime:exsup.obj
 0001:00010251       __unwind_handler           10011251 f   libvcruntime:exsup.obj
 0001:000109fa       ??$common_tcsncpy_s@_W@@YAHQA_WIQB_WI@Z 100119fa f   libucrt:wcsncpy_s.obj
 0001:00010ad2       ??$common_vsprintf@Vformat_validation_base@__crt_stdio_output@@_W@@YAH_KQA_WIQB_WQAU__crt_locale_pointers@@QAD@Z 10011ad2 f   libucrt:output.obj
 0001:00010c57       ??$common_vsprintf_s@_W@@YAH_KQA_WIQB_WQAU__crt_locale_pointers@@QAD@Z 10011c57 f   libucrt:output.obj
 0001:000112e0       $LN52                      100122e0     libucrt:output.obj
 0001:000117d1       $LN19                      100127d1     libucrt:output.obj
 0001:00012075       ?atexit_exception_filter@@YAHK@Z 10013075 f   libucrt:exit.obj
 0001:00012088       ?common_exit@@YAXHW4_crt_exit_cleanup_mode@@W4_crt_exit_return_mode@@@Z 10013088 f   libucrt:exit.obj
 0001:000121a1       ?exit_or_terminate_process@@YAXI@Z 100131a1 f   libucrt:exit.obj
 0001:000121e2       ?is_managed_app@@YA_NXZ    100131e2 f   libucrt:exit.obj
 0001:00012226       ?try_cor_exit_process@@YAXI@Z 10013226 f   libucrt:exit.obj
 0001:000122ca       ??$common_configure_argv@D@@YAHW4_crt_argv_mode@@@Z 100132ca f   libucrt:argv_parsing.obj
 0001:000123ee       ??$parse_command_line@D@@YAXPADPAPAD0PAI2@Z 100133ee f   libucrt:argv_parsing.obj
 0001:000125c3       ??$common_initialize_environment_nolock@D@@YAHXZ 100135c3 f   libucrt:environment_initialization.obj
 0001:0001261c       ??$create_environment@D@@YAQAPADQAD@Z 1001361c f   libucrt:environment_initialization.obj
 0001:000126ed       ??$free_environment@_W@@YAXQAPA_W@Z 100136ed f   libucrt:environment_initialization.obj
 0001:000126ed       ??$free_environment@D@@YAXQAPAD@Z 100136ed f   libucrt:environment_initialization.obj
 0001:0001275c       ??$uninitialize_environment_internal@D@@YAXAAPAPAD@Z 1001375c f   libucrt:environment_initialization.obj
 0001:00012777       ??$uninitialize_environment_internal@_W@@YAXAAPAPA_W@Z 10013777 f   libucrt:environment_initialization.obj
 0001:000128df       ??R<lambda_275893d493268fdec8709772e3fcec0e>@@QBEHXZ 100138df f   libucrt:onexit.obj
 0001:000129ff       ??R<lambda_4e60a939b0d047cfe11ddc22648dfba9>@@QBEHXZ 100139ff f   libucrt:onexit.obj
 0001:00012bd4       _initialize_global_variables 10013bd4 f   libucrt:initialization.obj
 0001:00012be6       _initialize_c              10013be6 f   libucrt:initialization.obj
 0001:00012c00       _initialize_global_state_isolation 10013c00 f   libucrt:initialization.obj
 0001:00012c00       _uninitialize_global_state_isolation 10013c00 f   libucrt:initialization.obj
 0001:00012c00       _report_memory_leaks       10013c00 f   libucrt:initialization.obj
 0001:00012c00       _uninitialize_c            10013c00 f   libucrt:initialization.obj
 0001:00012c00       _initialize_environment    10013c00 f   libucrt:initialization.obj
 0001:00012c03       _uninitialize_environment  10013c03 f   libucrt:initialization.obj
 0001:00012c0b       _initialize_pointers       10013c0b f   libucrt:initialization.obj
 0001:00012c48       _uninitialize_vcruntime    10013c48 f   libucrt:initialization.obj
 0001:00012c51       _uninitialize_allocated_memory 10013c51 f   libucrt:initialization.obj
 0001:00013710       $$000000                   10014710     libucrt:strncmp.obj
 0001:000139a6       ?construct_ptd@@YAXQAU__acrt_ptd@@QAPAU__crt_locale_data@@@Z 100149a6 f   libucrt:per_thread_data.obj
 0001:00013a1f       ?destroy_fls@@YGXPAX@Z     10014a1f f   libucrt:per_thread_data.obj
 0001:00013a40       ?destroy_ptd@@YAXQAU__acrt_ptd@@@Z 10014a40 f   libucrt:per_thread_data.obj
 0001:00013ae9       ?replace_current_thread_locale_nolock@@YAXQAU__acrt_ptd@@QAU__crt_locale_data@@@Z 10014ae9 f   libucrt:per_thread_data.obj
 0001:00013df6       ?try_get_function@@YAPAXW4function_id@?A0x352e5c4b@@QBDQBW4module_id@2@2@Z 10014df6 f   libucrt:winapi_thunks.obj
 0001:00013e92       ?try_get_module@@YAPAUHINSTANCE__@@W4module_id@?A0x352e5c4b@@@Z 10014e92 f   libucrt:winapi_thunks.obj
 0001:00014348       ??$common_tox_l@$1?internal_isupper_l@@YA_NHQAU__crt_locale_pointers@@@Z$1?internal_map_lower@@YAHH0@Z@@YAHHKQAU__crt_locale_pointers@@@Z 10015348 f   libucrt:tolower_toupper.obj
 0001:00014492       ?internal_isupper_l@@YA_NHQAU__crt_locale_pointers@@@Z 10015492 f   libucrt:tolower_toupper.obj
 0001:000148ef       ?fp_format_a@@YAHQBNPADIQADIH_NIQAU__crt_locale_pointers@@@Z 100158ef f   libucrt:cvt.obj
 0001:00014bf2       ?fp_format_e@@YAHQBNQADI1IH_NIQAU__crt_locale_pointers@@@Z 10015bf2 f   libucrt:cvt.obj
 0001:00014c8d       ?fp_format_e_internal@@YAHQADIH_NIQAU_strflt@@1QAU__crt_locale_pointers@@@Z 10015c8d f   libucrt:cvt.obj
 0001:00014dd8       ?fp_format_f@@YAHQBNQADI1IHQAU__crt_locale_pointers@@@Z 10015dd8 f   libucrt:cvt.obj
 0001:00014e65       ?fp_format_f_internal@@YAHQADIHQAU_strflt@@_NQAU__crt_locale_pointers@@@Z 10015e65 f   libucrt:cvt.obj
 0001:00014f3c       ?fp_format_g@@YAHQBNQADI1IH_NIQAU__crt_locale_pointers@@@Z 10015f3c f   libucrt:cvt.obj
 0001:00015004       ?fp_format_nan_or_infinity@@YAHW4__acrt_fp_class@@_NPADI1@Z 10016004 f   libucrt:cvt.obj
 0001:000150fc       ?shift_bytes@@YAXQADI0H@Z  100160fc f   libucrt:cvt.obj
 0001:0001544e       ?initialize_inherited_file_handles_nolock@@YAXXZ 1001644e f   libucrt:ioinit.obj
 0001:00015504       ?initialize_stdio_handles_nolock@@YAXXZ 10016504 f   libucrt:ioinit.obj
 0001:000156dc       ?<helper_func_cdecl>@<lambda_62bb7ecb46d0a77b591a051c43eb5ad1>@@CAHPBX0@Z 100166dc f   libucrt:argv_wildcards.obj
 0001:000156f4       ??$common_expand_argv_wildcards@D@@YAHQAPADQAPAPAD@Z 100166f4 f   libucrt:argv_wildcards.obj
 0001:00015884       ??$copy_and_add_argument_to_buffer@D@@YAHQBD0IAAV?$argument_list@D@?A0xb0e4b824@@@Z 10016884 f   libucrt:argv_wildcards.obj
 0001:0001591a       ??$expand_argument_wildcards@D@@YAHQAD0AAV?$argument_list@D@?A0xb0e4b824@@@Z 1001691a f   libucrt:argv_wildcards.obj
 0001:00015bf5       ??R<lambda_ad1ced32f4ac17aa236e5ef05d6b3b7c>@@QBEXXZ 10016bf5 f   libucrt:mbctype.obj
 0001:00015cb9       ?CPtoLocaleName@@YAPB_WH@Z 10016cb9 f   libucrt:mbctype.obj
 0001:00015cf7       ?getSystemCP@@YAHH@Z       10016cf7 f   libucrt:mbctype.obj
 0001:00015d6a       ?setSBCS@@YAXPAU__crt_multibyte_data@@@Z 10016d6a f   libucrt:mbctype.obj
 0001:00015dcf       ?setSBUpLow@@YAXPAU__crt_multibyte_data@@@Z 10016dcf f   libucrt:mbctype.obj
 0001:00015f63       ?setmbcp_internal@@YAHH_N@Z 10016f63 f   libucrt:mbctype.obj
 0001:00016315       _memcpy_s                  10017315 f   libucrt:mbctype.obj
 0001:00016315       _memcpy_s                  10017315 f   libucrt:cfout.obj
 0001:00016396       ?x_ismbbtype_l@@YAHPAU__crt_locale_pointers@@IHH@Z 10017396 f   libucrt:ismbbyte.obj
 0001:00016420       ?find_end_of_double_null_terminated_sequence@@YAPB_WQB_W@Z 10017420 f   libucrt:get_environment_from_os.obj
 0001:00016647       ?get_global_action_nolock@@YAPAP6AXH@ZH@Z 10017647 f   libucrt:signal.obj
 0001:00016689       ?siglookup@@YAPAU__crt_signal_action_t@@HQAU1@@Z 10017689 f   libucrt:signal.obj
 0001:00016e78       ?GetTableIndexFromLocaleName@@YAHPB_W@Z 10017e78 f   libucrt:lcidtoname_downlevel.obj
 0001:00016f99       ?__acrt_LCMapStringA_stat@@YAHPAU__crt_locale_pointers@@PB_WKPBDHPADHHH@Z 10017f99 f   libucrt:lcmapstringa.obj
 0001:00018cb0       _common_flush_all          10019cb0 f   libucrt:fflush.obj
 0001:00018f83       ?free_crt_array_internal@@YAXQAPBXI@Z 10019f83 f   libucrt:inittime.obj
 0001:00019450       ?shortsort@@YAXPAD0IP6AHPBX1@Z@Z 1001a450 f   libucrt:qsort.obj
 0001:000194f0       ?swap@@YAXPAD0I@Z          1001a4f0 f   libucrt:qsort.obj
 0001:000198ca       ??$common_tcsncpy_s@D@@YAHQADIQBDI@Z 1001a8ca f   libucrt:strncpy_s.obj
 0001:00019990       $$000000                   1001a990     libucrt:strpbrk.obj
 0001:00019a74       ?initialize_multibyte@@YAHXZ 1001aa74 f   libucrt:multibyte_initializer.obj
 0001:00019b60       $$000000                   1001ab60     libucrt:log10.obj
 0001:00019cb0       $$000000                   1001acb0     libucrt:ceil_pentium4.obj
 0001:00019dcd       ?write_double_translated_ansi_nolock@@YA?AUwrite_result@?A0x47fa6670@@HQBDI@Z 1001adcd f   libucrt:write.obj
 0001:00019f80       ?write_double_translated_unicode_nolock@@YA?AUwrite_result@?A0x47fa6670@@QBDI@Z 1001af80 f   libucrt:write.obj
 0001:00019fed       ?write_requires_double_translation_nolock@@YA_NH@Z 1001afed f   libucrt:write.obj
 0001:0001a063       ?write_text_ansi_nolock@@YA?AUwrite_result@?A0x47fa6670@@HQBDI@Z 1001b063 f   libucrt:write.obj
 0001:0001a142       ?write_text_utf16le_nolock@@YA?AUwrite_result@?A0x47fa6670@@HQBDI@Z 1001b142 f   libucrt:write.obj
 0001:0001a230       ?write_text_utf8_nolock@@YA?AUwrite_result@?A0x47fa6670@@HQBDI@Z 1001b230 f   libucrt:write.obj
 0001:0001a654       ??$common_lseek_nolock@_J@@YA_JH_JH@Z 1001b654 f   libucrt:lseek.obj
 0001:0001a918       ___get_abstract_control_sse2 1001b918 f   libucrt:_fenvutils.obj
 0001:0001a995       ___get_abstract_control_x87 1001b995 f   libucrt:_fenvutils.obj
 0001:0001aa08       ___get_machine_control     1001ba08 f   libucrt:_fenvutils.obj
 0001:0001aa79       ___get_machine_control_sse2 1001ba79 f   libucrt:_fenvutils.obj
 0001:0001aaf9       ___get_machine_status_sse2 1001baf9 f   libucrt:_fenvutils.obj
 0001:0001ab5a       ___get_machine_status_x87  1001bb5a f   libucrt:_fenvutils.obj
 0001:0001aea0       $$000000                   1001bea0     libucrt:log10_pentium4.obj
 0001:0001b130       $$000000                   1001c130     libucrt:87tran.obj
 0001:0001b330       $$000000                   1001c330     libucrt:87disp.obj
 0001:0001b530       $$000000                   1001c530     libucrt:common.obj
 0001:0001b6c0       $$000000                   1001c6c0     libucrt:genexcep.obj
 0001:0001bc30       $$000000                   1001cc30     libucrt:_strnicm.obj
 0001:0001ca80       $$000000                   1001da80     LIBCMT:ulldvrm.obj
 0001:0001cb20       $$000000                   1001db20     LIBCMT:llmul.obj
 0001:0001cb60       $$000000                   1001db60     LIBCMT:lldvrm.obj
 0001:0001cc40       $$000000                   1001dc40     LIBCMT:ullshr.obj
 0001:0001cc60       $$000000                   1001dc60     LIBCMT:llshl.obj
 0001:0001cc80       $$000000                   1001dc80     LIBCMT:ftol2.obj
 0001:0001cd40       $$000000                   1001dd40     libvcruntime:strrchr.obj
 0001:0001ce80       $$000000                   1001de80     libvcruntime:strchr.obj
 0001:0001cfab       __ehhandler$?__scrt_initialize_thread_safe_statics_platform_specific@@YAXXZ 1001dfab f   LIBCMT:thread_safe_statics.obj
 0001:0001cfc6       __ehhandler$??2@YAPAXIABUnothrow_t@std@@@Z 1001dfc6 f   LIBCMT:new_scalar_nothrow.obj
 0001:0001cfe1       __ehhandler$?CallUnexpected@@YAXPBU_s_ESTypeList@@@Z 1001dfe1 f   libvcruntime:frame.obj
 0001:0001cffc       ??__F_AtlComModule@ATL@@YAXXZ 1001dffc f   OposVariant.obj
 0001:0001d006       ??__F_AtlWinModule@ATL@@YAXXZ 1001e006 f   OposVariant.obj
 0001:0001d020       ??__F_Module@@YAXXZ        1001e020 f   SmartCardRW.obj
 0001:0001d034       ??__F_AtlBaseModule@ATL@@YAXXZ 1001e034 f   atls:atlbase.obj
 0002:00000308       ?_AtlBaseModule$initializer$@ATL@@3P6AXXZA 1001f308     atls:atlbase.obj
 0002:0000030c       ?_AtlComModule$initializer$@ATL@@3P6AXXZA 1001f30c     OposVariant.obj
 0002:00000310       ?_AtlWinModule$initializer$@ATL@@3P6AXXZA 1001f310     OposVariant.obj
 0002:00000314       ?_Module$initializer$@@3P6AXXZA 1001f314     SmartCardRW.obj
 0002:00000318       ??pConnMap$initializer$@?$IConnectionPointContainerImpl@VCOPOSSmartCardRW@@@ATL@@0P6AXXZA@@3P6AXXZA 1001f318     SmartCardRW.obj
 0002:00000324       ?__scrt_initialize_tss_var@@3P6AHXZA 1001f324     LIBCMT:thread_safe_statics.obj
 0002:00001904       _GS_ExceptionPointers      10020904     LIBCMT:gs_report.obj
 0002:00001a70       ?ExceptionTemplate@?1??_CxxThrowException@@9@8@4UEHExceptionRecord@@B 10020a70     libvcruntime:throw.obj
 0002:00001a90       ?module_names@?A0x5d2a34d3@@3QBQB_WB 10020a90     libvcruntime:winapi_downlevel.obj
 0002:00001b48       ?candidate_modules@?1??try_get_FlsAlloc@@YAP6GKP6GXPAX@Z@ZXZ@4QBW4module_id@?A0x5d2a34d3@@B 10020b48     libvcruntime:winapi_downlevel.obj
 0002:00001b5c       ?candidate_modules@?1??try_get_FlsFree@@YAP6GHK@ZXZ@4QBW4module_id@?A0x5d2a34d3@@B 10020b5c     libvcruntime:winapi_downlevel.obj
 0002:00001b6c       ?candidate_modules@?1??try_get_FlsGetValue@@YAP6GPAXK@ZXZ@4QBW4module_id@?A0x5d2a34d3@@B 10020b6c     libvcruntime:winapi_downlevel.obj
 0002:00001b80       ?candidate_modules@?1??try_get_FlsSetValue@@YAP6GHKPAX@ZXZ@4QBW4module_id@?A0x5d2a34d3@@B 10020b80     libvcruntime:winapi_downlevel.obj
 0002:00001b94       ?candidate_modules@?1??try_get_InitializeCriticalSectionEx@@YAP6GHPAU_RTL_CRITICAL_SECTION@@KK@ZXZ@4QBW4module_id@?A0x5d2a34d3@@B 10020b94     libvcruntime:winapi_downlevel.obj
 0002:00001bd8       ?tokenTable@@3QBQBDB       10020bd8     libvcruntime:undname.obj
 0002:00001c18       ?nameTable@@3QBQBDB        10020c18     libvcruntime:undname.obj
 0002:00001d60       ?rttiTable@@3QBQBDB        10020d60     libvcruntime:undname.obj
 0002:00002378       _errtable                  10021378     libucrt:errno.obj
 0002:00002620       ___acrt_initializers       10021620     libucrt:initialization.obj
 0002:00002698       _module_names              10021698     libucrt:winapi_thunks.obj
 0002:00002be0       ?candidate_modules@?1??try_get_FlsAlloc@@YAP6GKP6GXPAX@Z@ZXZ@4QBW4module_id@?A0x352e5c4b@@B 10021be0     libucrt:winapi_thunks.obj
 0002:00002bf4       ?candidate_modules@?1??try_get_FlsFree@@YAP6GHK@ZXZ@4QBW4module_id@?A0x352e5c4b@@B 10021bf4     libucrt:winapi_thunks.obj
 0002:00002c04       ?candidate_modules@?1??try_get_FlsGetValue@@YAP6GPAXK@ZXZ@4QBW4module_id@?A0x352e5c4b@@B 10021c04     libucrt:winapi_thunks.obj
 0002:00002c18       ?candidate_modules@?1??try_get_FlsSetValue@@YAP6GHKPAX@ZXZ@4QBW4module_id@?A0x352e5c4b@@B 10021c18     libucrt:winapi_thunks.obj
 0002:00002c2c       ?candidate_modules@?1??try_get_GetCurrentPackageId@@YAP6GJPAIPAE@ZXZ@4QBW4module_id@?A0x352e5c4b@@B 10021c2c     libucrt:winapi_thunks.obj
 0002:00002c48       ?candidate_modules@?1??try_get_InitializeCriticalSectionEx@@YAP6GHPAU_RTL_CRITICAL_SECTION@@KK@ZXZ@4QBW4module_id@?A0x352e5c4b@@B 10021c48     libucrt:winapi_thunks.obj
 0002:00002c6c       ?candidate_modules@?1??try_get_LCMapStringEx@@YAP6GHPB_WK0HPA_WHPAU_nlsversioninfo@@PAXJ@ZXZ@4QBW4module_id@?A0x352e5c4b@@B 10021c6c     libucrt:winapi_thunks.obj
 0002:00002c84       ?candidate_modules@?1??try_get_LocaleNameToLCID@@YAP6GKPB_WK@ZXZ@4QBW4module_id@?A0x352e5c4b@@B 10021c84     libucrt:winapi_thunks.obj
 0002:00002ca0       ?candidate_modules@?1??try_get_SetThreadStackGuarantee@@YAP6GHPAK@ZXZ@4QBW4module_id@?A0x352e5c4b@@B 10021ca0     libucrt:winapi_thunks.obj
 0002:000031cc       __mb_locale_names          100221cc     libucrt:mbctype.obj
 0002:00003a18       _LcidToLocaleNameTable     10022a18     libucrt:lcidtoname_downlevel.obj
 0002:00004b40       _LocaleNameToIndexTable    10023b40     libucrt:lcidtoname_downlevel.obj
 0002:00006480       LOG_name                   10025480     libucrt:log10.obj
 0002:00006490       _One                       10025490     libucrt:ceil_pentium4.obj
 0002:000064a0       _Bns                       100254a0     libucrt:ceil_pentium4.obj
 0002:000064b0       _Zero                      100254b0     libucrt:ceil_pentium4.obj
 0002:000064c0       _S                         100254c0     libucrt:ceil_pentium4.obj
 0002:000064d0       _NegZero                   100254d0     libucrt:ceil_pentium4.obj
 0002:000064e0       emask                      100254e0     libucrt:log10_pentium4.obj
 0002:000064f0       CC                         100254f0     libucrt:log10_pentium4.obj
 0002:00006500       Magic                      10025500     libucrt:log10_pentium4.obj
 0002:00006510       hi_mask                    10025510     libucrt:log10_pentium4.obj
 0002:00006520       LOG10_2                    10025520     libucrt:log10_pentium4.obj
 0002:00006530       place_L                    10025530     libucrt:log10_pentium4.obj
 0002:00006550       One                        10025550     libucrt:log10_pentium4.obj
 0002:00006560       Zero                       10025560     libucrt:log10_pentium4.obj
 0002:00006570       Two52                      10025570     libucrt:log10_pentium4.obj
 0002:00006580       Infs                       10025580     libucrt:log10_pentium4.obj
 0002:00006590       NaN                        10025590     libucrt:log10_pentium4.obj
 0002:000065a0       coeff                      100255a0     libucrt:log10_pentium4.obj
 0002:000065fe       _log2max                   100255fe     libucrt:87tran.obj
 0002:00006608       _smallarg                  10025608     libucrt:87tran.obj
 0002:00006612       _half                      10025612     libucrt:87tran.obj
 0002:0000665e       One                        1002565e     libucrt:87disp.obj
 0002:00006666       Three                      10025666     libucrt:87disp.obj
 0002:0000666e       XAMtoTagTab                1002566e     libucrt:87disp.obj
 0002:00006680       One                        10025680     libucrt:common.obj
 0002:00006694       DblMax                     10025694     libucrt:common.obj
 0002:0000669c       DblMin                     1002569c     libucrt:common.obj
 0002:000066a4       IeeeAdjO                   100256a4     libucrt:common.obj
 0002:000066ac       IeeeAdjU                   100256ac     libucrt:common.obj
 0002:000066b4       _infinity                  100256b4     libucrt:common.obj
 0002:000066bc       _zero                      100256bc     libucrt:common.obj
 0002:000066f8       _over                      100256f8     libucrt:fpctrl.obj
 0002:00006704       _under                     10025704     libucrt:fpctrl.obj
 0002:00006fc8       ?_names@?1??_get_fname@@9@9 10025fc8     libucrt:fpexcept.obj
 0002:000077a0       __sehtable$?_AtlVerifyStackAvailable@_ATL_SAFE_ALLOCA_IMPL@ATL@@YA_NK@Z 100267a0     SmartCardRW.obj
 0002:000077c0       __sehtable$___scrt_is_nonwritable_in_current_image 100267c0     LIBCMT:utility.obj
 0002:000077dc       __ehfuncinfo$?__scrt_initialize_thread_safe_statics_platform_specific@@YAXXZ 100267dc     LIBCMT:thread_safe_statics.obj
 0002:00007800       __catchsym$??2@YAPAXIABUnothrow_t@std@@@Z$2 10026800     LIBCMT:new_scalar_nothrow.obj
 0002:00007810       __unwindtable$??2@YAPAXIABUnothrow_t@std@@@Z 10026810     LIBCMT:new_scalar_nothrow.obj
 0002:00007820       __tryblocktable$??2@YAPAXIABUnothrow_t@std@@@Z 10026820     LIBCMT:new_scalar_nothrow.obj
 0002:00007834       __ehfuncinfo$??2@YAPAXIABUnothrow_t@std@@@Z 10026834     LIBCMT:new_scalar_nothrow.obj
 0002:00007858       __sehtable$?dllmain_crt_process_attach@@YAHQAUHINSTANCE__@@QAX@Z 10026858     LIBCMT:dll_dllmain.obj
 0002:00007878       __sehtable$?dllmain_crt_process_detach@@YAH_N@Z 10026878     LIBCMT:dll_dllmain.obj
 0002:00007898       __sehtable$?dllmain_dispatch@@YAHQAUHINSTANCE__@@KQAX@Z 10026898     LIBCMT:dll_dllmain.obj
 0002:00007948       __sehtable$?FrameUnwindToState@__FrameHandler3@@SAXPAUEHRegistrationNode@@PAXPBU_s_FuncInfo@@H@Z 10026948     libvcruntime:frame.obj
 0002:00007970       __sehtable$?CallCatchBlock@@YAPAXPAUEHExceptionRecord@@PAUEHRegistrationNode@@PAU_CONTEXT@@PBU_s_FuncInfo@@PAXHK@Z 10026970     libvcruntime:frame.obj
 0002:00007998       __catchsym$?CallUnexpected@@YAXPBU_s_ESTypeList@@@Z$2 10026998     libvcruntime:frame.obj
 0002:000079a8       __unwindtable$?CallUnexpected@@YAXPBU_s_ESTypeList@@@Z 100269a8     libvcruntime:frame.obj
 0002:000079b8       __tryblocktable$?CallUnexpected@@YAXPBU_s_ESTypeList@@@Z 100269b8     libvcruntime:frame.obj
 0002:000079cc       __ehfuncinfo$?CallUnexpected@@YAXPBU_s_ESTypeList@@@Z 100269cc     libvcruntime:frame.obj
 0002:000079f0       __sehtable$??$BuildCatchObjectHelperInternal@V__FrameHandler3@@@@YAHPAUEHExceptionRecord@@PAXPBU_s_HandlerType@@PBU_s_CatchableType@@@Z 100269f0     libvcruntime:frame.obj
 0002:00007a10       __sehtable$??$BuildCatchObjectInternal@V__FrameHandler3@@@@YAXPAUEHExceptionRecord@@PAXPBU_s_HandlerType@@PBU_s_CatchableType@@@Z 10026a10     libvcruntime:frame.obj
 0002:00007a68       __sehtable$___DestructExceptionObject 10026a68     libvcruntime:ehhelpers.obj
 0002:00007a88       __sehtable$?common_exit@@YAXHW4_crt_exit_cleanup_mode@@W4_crt_exit_return_mode@@@Z 10026a88     libucrt:exit.obj
 0002:00007ab0       __sehtable$??$?RV<lambda_800076c951b434888f4765a74a194fcc>@@AAV<lambda_4e60a939b0d047cfe11ddc22648dfba9>@@V<lambda_6dbb1268764f43b569ce7b67e331d33a>@@@?$__crt_seh_guarded_call@H@@QAEH$$QAV<lambda_800076c951b434888f4765a74a194fcc>@@AAV<lambda_4e60a939b0d047cfe11ddc22648dfba9>@@$$QAV<lambda_6dbb1268764f43b569ce7b67e331d33a>@@@Z 10026ab0     libucrt:onexit.obj
 0002:00007ad0       __sehtable$??$?RV<lambda_995298e7d72eb4c2aab26c0585b3abe5>@@AAV<lambda_275893d493268fdec8709772e3fcec0e>@@V<lambda_293819299cbf9a7022e18b56a874bb5c>@@@?$__crt_seh_guarded_call@H@@QAEH$$QAV<lambda_995298e7d72eb4c2aab26c0585b3abe5>@@AAV<lambda_275893d493268fdec8709772e3fcec0e>@@$$QAV<lambda_293819299cbf9a7022e18b56a874bb5c>@@@Z 10026ad0     libucrt:onexit.obj
 0002:00007af0       __sehtable$__query_new_handler 10026af0     libucrt:new_handler.obj
 0002:00007b10       __sehtable$_terminate      10026b10     libucrt:terminate.obj
 0002:00007b30       __sehtable$??$?RV<lambda_9df27f884b057bc3edfc946cb5b7cf47>@@AAV<lambda_e69574bed617af4e071282c136b37893>@@V<lambda_cc0d902bcbbeb830f749456577db4721>@@@?$__crt_seh_guarded_call@X@@QAEX$$QAV<lambda_9df27f884b057bc3edfc946cb5b7cf47>@@AAV<lambda_e69574bed617af4e071282c136b37893>@@$$QAV<lambda_cc0d902bcbbeb830f749456577db4721>@@@Z 10026b30     libucrt:per_thread_data.obj
 0002:00007b50       __sehtable$??$?RV<lambda_3518db117f0e7cdb002338c5d3c47b6c>@@AAV<lambda_b2ea41f6bbb362cd97d94c6828d90b61>@@V<lambda_abdedf541bb04549bc734292b4a045d4>@@@?$__crt_seh_guarded_call@X@@QAEX$$QAV<lambda_3518db117f0e7cdb002338c5d3c47b6c>@@AAV<lambda_b2ea41f6bbb362cd97d94c6828d90b61>@@$$QAV<lambda_abdedf541bb04549bc734292b4a045d4>@@@Z 10026b50     libucrt:per_thread_data.obj
 0002:00007b70       __sehtable$??$?RV<lambda_51b6e8b1eb166f2a3faf91f424b38130>@@AAV<lambda_6250bd4b2a391816dd638c3bf72b0bcb>@@V<lambda_0b5a4a3e68152e1d9b943535f5f47bed>@@@?$__crt_seh_guarded_call@X@@QAEX$$QAV<lambda_51b6e8b1eb166f2a3faf91f424b38130>@@AAV<lambda_6250bd4b2a391816dd638c3bf72b0bcb>@@$$QAV<lambda_0b5a4a3e68152e1d9b943535f5f47bed>@@@Z 10026b70     libucrt:per_thread_data.obj
 0002:00007b90       __sehtable$??$?RV<lambda_5b71d36f03204c0beab531769a5b5694>@@AAV<lambda_be2b3da3f62db62e9dad5dc70221a656>@@V<lambda_8f9ce462984622f9bf76b59e2aaaf805>@@@?$__crt_seh_guarded_call@X@@QAEX$$QAV<lambda_5b71d36f03204c0beab531769a5b5694>@@AAV<lambda_be2b3da3f62db62e9dad5dc70221a656>@@$$QAV<lambda_8f9ce462984622f9bf76b59e2aaaf805>@@@Z 10026b90     libucrt:per_thread_data.obj
 0002:00007bb0       __sehtable$___acrt_uninitialize_locale 10026bb0     libucrt:wsetlocale.obj
 0002:00007bd0       __sehtable$___acrt_initialize_lowio 10026bd0     libucrt:ioinit.obj
 0002:00007bf0       __sehtable$___acrt_update_thread_multibyte_data 10026bf0     libucrt:mbctype.obj
 0002:00007c10       __sehtable$??$?RV<lambda_978dc153c237d78434369da87b74ff60>@@AAV<lambda_ad1ced32f4ac17aa236e5ef05d6b3b7c>@@V<lambda_4a8533e2866a575feecb8298ce776b0d>@@@?$__crt_seh_guarded_call@X@@QAEX$$QAV<lambda_978dc153c237d78434369da87b74ff60>@@AAV<lambda_ad1ced32f4ac17aa236e5ef05d6b3b7c>@@$$QAV<lambda_4a8533e2866a575feecb8298ce776b0d>@@@Z 10026c10     libucrt:mbctype.obj
 0002:00007c30       __sehtable$_raise          10026c30     libucrt:signal.obj
 0002:00007c50       __sehtable$??$?RV<lambda_a048d3beccc847880fc8490e18b82769>@@AAV<lambda_ec61778202f4f5fc7e7711acc23c3bca>@@V<lambda_f7496a158712204296dd6628a163878e>@@@?$__crt_seh_guarded_call@P6AXH@Z@@QAEP6AXH@Z$$QAV<lambda_a048d3beccc847880fc8490e18b82769>@@AAV<lambda_ec61778202f4f5fc7e7711acc23c3bca>@@$$QAV<lambda_f7496a158712204296dd6628a163878e>@@@Z 10026c50     libucrt:signal.obj
 0002:00007c70       __sehtable$___acrt_update_thread_locale_data 10026c70     libucrt:locale_refcounting.obj
 0002:00007c90       __sehtable$__fcloseall     10026c90     libucrt:closeall.obj
 0002:00007cb0       __sehtable$_common_flush_all 10026cb0     libucrt:fflush.obj
 0002:00007cd8       __sehtable$___acrt_lowio_ensure_fh_exists 10026cd8     libucrt:osfinfo.obj
 0002:00007cf8       __sehtable$__write         10026cf8     libucrt:write.obj
 0002:00007d18       __sehtable$_fclose         10026d18     libucrt:fclose.obj
 0002:00007d38       __sehtable$??$?RV<lambda_61cee617f5178ae960314fd4d05640a0>@@AAV<lambda_6978c1fb23f02e42e1d9e99668cc68aa>@@V<lambda_9cd88cf8ad10232537feb2133f08c833>@@@?$__crt_seh_guarded_call@H@@QAEH$$QAV<lambda_61cee617f5178ae960314fd4d05640a0>@@AAV<lambda_6978c1fb23f02e42e1d9e99668cc68aa>@@$$QAV<lambda_9cd88cf8ad10232537feb2133f08c833>@@@Z 10026d38     libucrt:commit.obj
 0002:00007d58       __sehtable$??$?RV<lambda_123407a5e2ac06da108355a851863b7a>@@AAV<lambda_2fe9b910cf3cbf4a0ab98a02ba45b3ec>@@V<lambda_ae55bdf541ad94d75914d381c370e64d>@@@?$__crt_seh_guarded_call@H@@QAEH$$QAV<lambda_123407a5e2ac06da108355a851863b7a>@@AAV<lambda_2fe9b910cf3cbf4a0ab98a02ba45b3ec>@@$$QAV<lambda_ae55bdf541ad94d75914d381c370e64d>@@@Z 10026d58     libucrt:close.obj
 0002:00007d78       __sehtable$__IsNonwritableInCurrentImage 10026d78     LIBCMT:pesect.obj
 0002:00007da0       .edata                     10026da0     OPOSSmartCardRW.exp
 0002:00007dc8       rgpv                       10026dc8     OPOSSmartCardRW.exp
 0002:00007dd8       rgszName                   10026dd8     OPOSSmartCardRW.exp
 0002:00007de8       rgwOrd                     10026de8     OPOSSmartCardRW.exp
 0002:00007df0       szName                     10026df0     OPOSSmartCardRW.exp
 0002:00007e04       $N00001                    10026e04     OPOSSmartCardRW.exp
 0002:00007e14       $N00002                    10026e14     OPOSSmartCardRW.exp
 0002:00007e26       $N00003                    10026e26     OPOSSmartCardRW.exp
 0002:00007e38       $N00004                    10026e38     OPOSSmartCardRW.exp
 0002:0000844a       .idata$6                   1002744a     kernel32:KERNEL32.dll
 0002:0000865e       .idata$6                   1002765e     user32:USER32.dll
 0002:00008792       .idata$6                   10027792     gdi32:GDI32.dll
 0002:00008838       .idata$6                   10027838     advapi32:ADVAPI32.dll
 0002:00008954       .idata$6                   10027954     ole32:ole32.dll
 0002:0000895e       .idata$6                   1002795e     oleaut32:OLEAUT32.dll
 0003:00000110       ?ObjectMap@@3PAU_ATL_OBJMAP_ENTRY30@ATL@@A 10028110     SmartCardRW.obj
 0003:000001bc       ?s_RequiredMethodsPerRelease@@3PAHA 100281bc     SmartCardRWImpl.obj
 0003:000001c8       ?s_SOMethodNames@@3PAPADA  100281c8     SmartCardRWImpl.obj
 0003:00000250       ?__vcrt_flsindex@@3KA      10028250     libvcruntime:per_thread_data.obj
 0003:00000270       _errno_no_memory           10028270     libucrt:errno.obj
 0003:00000274       _doserrno_no_memory        10028274     libucrt:errno.obj
 0003:00000280       ___acrt_flsindex           10028280     libucrt:per_thread_data.obj
 0003:000003f4       ___rgctypeflag             100283f4     libucrt:mbctype.obj
 0003:000003f8       ___rgcode_page_info        100283f8     libucrt:mbctype.obj
 0003:00000b18       ?is_initialized_as_dll@@3_NA 10028b18     LIBCMT:utility.obj
 0003:00000b19       ?module_local_atexit_table_initialized@@3_NA 10028b19     LIBCMT:utility.obj
 0003:00000b1c       ?module_local_atexit_table@@3U_onexit_table_t@@A 10028b1c     LIBCMT:utility.obj
 0003:00000b28       ?module_local_at_quick_exit_table@@3U_onexit_table_t@@A 10028b28     LIBCMT:utility.obj
 0003:00000b34       ?_Tss_mutex@@3U_RTL_CRITICAL_SECTION@@A 10028b34     LIBCMT:thread_safe_statics.obj
 0003:00000b4c       ?_Tss_cv@@3U_RTL_CONDITION_VARIABLE@@A 10028b4c     LIBCMT:thread_safe_statics.obj
 0003:00000b50       ?_Tss_event@@3PAXA         10028b50     LIBCMT:thread_safe_statics.obj
 0003:00000b54       ?encoded_sleep_condition_variable_cs@@3P6GHPAU_RTL_CONDITION_VARIABLE@@PAU_RTL_CRITICAL_SECTION@@K@ZA 10028b54     LIBCMT:thread_safe_statics.obj
 0003:00000b58       ?encoded_wake_all_condition_variable@@3P6GXPAU_RTL_CONDITION_VARIABLE@@@ZA 10028b58     LIBCMT:thread_safe_statics.obj
 0003:00000b60       _GS_ExceptionRecord        10028b60     LIBCMT:gs_report.obj
 0003:00000bb0       _GS_ContextRecord          10028bb0     LIBCMT:gs_report.obj
 0003:00000e80       ?__proc_attached@@3HA      10028e80     LIBCMT:dll_dllmain.obj
 0003:00000edc       ?AllocateData@@3P6GPAUAtlThunkData_t@@XZA 10028edc     atls:atlthunk.obj
 0003:00000ee0       ?InitData@@3P6GXPAUAtlThunkData_t@@PAXI@ZA 10028ee0     atls:atlthunk.obj
 0003:00000ee4       ?DataToCode@@3P6GP6GJPAUHWND__@@IIJ@ZPAUAtlThunkData_t@@@ZA 10028ee4     atls:atlthunk.obj
 0003:00000ee8       ?FreeData@@3P6GXPAUAtlThunkData_t@@@ZA 10028ee8     atls:atlthunk.obj
 0003:00000eec       ?Initialized@@3_NA         10028eec     atls:atlthunk.obj
 0003:00000ef8       ?__vcrt_startup_thread_ptd@@3U__vcrt_ptd@@A 10028ef8     libvcruntime:per_thread_data.obj
 0003:00000f20       ___vcrt_lock_table         10028f20     libvcruntime:locks.obj
 0003:00000f38       ___vcrt_locks_initialized  10028f38     libvcruntime:locks.obj
 0003:00000f3c       ?module_handles@@3PAPAUHINSTANCE__@@A 10028f3c     libvcruntime:winapi_downlevel.obj
 0003:00000f48       ?encoded_function_pointers@@3PAPAXA 10028f48     libvcruntime:winapi_downlevel.obj
 0003:00000f84       ?heap@@3V_HeapManager@@A   10028f84     libvcruntime:undname.obj
 0003:00000f9c       ___acrt_invalid_parameter_handler 10028f9c     libucrt:invalid_parameter.obj
 0003:00000fa0       _c_termination_complete    10028fa0     libucrt:exit.obj
 0003:00000fa4       _thread_local_exit_callback_func 10028fa4     libucrt:exit.obj
 0003:00000fa8       ?c_exit_complete@?5??common_exit@@YAXHW4_crt_exit_cleanup_mode@@W4_crt_exit_return_mode@@@Z@4_NA 10028fa8     libucrt:exit.obj
 0003:00000fb0       ?program_name@?5???$common_configure_argv@D@@YAHW4_crt_argv_mode@@@Z@4PADA 10028fb0     libucrt:argv_parsing.obj
 0003:000010e0       ___acrt_new_handler        100290e0     libucrt:new_handler.obj
 0003:000010e8       _module_handles            100290e8     libucrt:winapi_thunks.obj
 0003:00001138       _encoded_function_pointers 10029138     libucrt:winapi_thunks.obj
 0003:000011b8       ?state_cache@?1??__acrt_is_packaged_app@@9@4JA 100291b8     libucrt:winapi_thunks.obj
 0003:000011c4       _enable_percent_n          100291c4     libucrt:printf_count_output.obj
 0003:000013e0       ___acrt_lock_table         100293e0     libucrt:locks.obj
 0003:00001518       ___acrt_locks_initialized  10029518     libucrt:locks.obj
 0003:00001534       _fSystemSet                10029534     libucrt:mbctype.obj
 0003:00001538       ?initialized@?1??__acrt_initialize_multibyte@@9@4_NA 10029538     libucrt:mbctype.obj
 0003:00001558       _ctrlc_action              10029558     libucrt:signal.obj
 0003:0000155c       _ctrlbreak_action          1002955c     libucrt:signal.obj
 0003:00001560       _abort_action              10029560     libucrt:signal.obj
 0003:00001564       _term_action               10029564     libucrt:signal.obj
 0003:00001568       _user_matherr              10029568     libucrt:matherr.obj
 0003:0000156c       ___acrt_global_new_mode    1002956c     libucrt:new_mode.obj
 0003:00001578       ___acrt_app_type           10029578     libucrt:report_runtime_error.obj
 0003:00001580       __pmatherr_set             10029580     libucrt:libm_error.obj
 0004:00000220       $R000000                   1002a220     SmartCardRW.res
 0004:00000b98       $R000978                   1002ab98     SmartCardRW.res
 0004:00000c80       $R000A60                   1002ac80     SmartCardRW.res
 0004:00000ee8       $R000CC8                   1002aee8     SmartCardRW.res
 0004:000013c0       $R0011A0                   1002b3c0     SmartCardRW.res
 0004:000043e8       $R0041C8                   1002e3e8     SmartCardRW.res
 0004:00004420       $R004200                   1002e420     SmartCardRW.res
