 OPOSCashChanger

 Timestamp is 5ed45749 (Mon Jun  1 10:18:01 2020)

 Preferred load address is 10000000

 Start         Length     Name                   Class
 0001:00000000 00000080H .text$di                CODE
 0001:00000080 0001e553H .text$mn                CODE
 0001:0001e5d3 00000036H .text$x                 CODE
 0001:0001e609 00000042H .text$yd                CODE
 0002:00000000 000002fcH .idata$5                DATA
 0002:000002fc 00000004H .00cfg                  DATA
 0002:00000300 00000004H .CRT$XCA                DATA
 0002:00000304 00000004H .CRT$XCL                DATA
 0002:00000308 00000010H .CRT$XCU                DATA
 0002:00000318 00000004H .CRT$XCZ                DATA
 0002:0000031c 00000004H .CRT$XIA                DATA
 0002:00000320 00000010H .CRT$XIC                DATA
 0002:00000330 00000004H .CRT$XIZ                DATA
 0002:00000334 00000004H .CRT$XLA                DATA
 0002:00000338 00000004H .CRT$XLZ                DATA
 0002:0000033c 00000004H .CRT$XPA                DATA
 0002:00000340 00000008H .CRT$XPX                DATA
 0002:00000348 00000004H .CRT$XPXA               DATA
 0002:0000034c 00000004H .CRT$XPZ                DATA
 0002:00000350 00000004H .CRT$XTA                DATA
 0002:00000354 0000000cH .CRT$XTZ                DATA
 0002:00000358 00000000H .gfids$y                DATA
 0002:00000360 000073c8H .rdata                  DATA
 0002:00007728 00000018H .rdata$T                DATA
 0002:00007740 00000178H .rdata$r                DATA
 0002:000078b8 0000001cH .rdata$sxdata           DATA
 0002:000078d4 000003e0H .rdata$zzzdbg           DATA
 0002:00007cb4 00000004H .rtc$IAA                DATA
 0002:00007cb8 00000004H .rtc$IZZ                DATA
 0002:00007cbc 00000004H .rtc$TAA                DATA
 0002:00007cc0 00000004H .rtc$TZZ                DATA
 0002:00007cc4 00000004H .tls                    DATA
 0002:00007cc8 00000004H .tls$                   DATA
 0002:00007ccc 00000004H .tls$ZZZ                DATA
 0002:00007cd0 0000062cH .xdata$x                DATA
 0002:000082fc 00000004H ATL$__a                 DATA
 0002:00008300 00000010H ATL$__z                 DATA
 0002:00008310 000000acH .edata                  DATA
 0002:000083bc 00000078H .idata$2                DATA
 0002:00008434 00000014H .idata$3                DATA
 0002:00008448 000002fcH .idata$4                DATA
 0002:00008744 00000bceH .idata$6                DATA
 0003:00000000 00000ad0H .data                   DATA
 0003:00000ad0 00000098H .data$r                 DATA
 0003:00000b68 00000b80H .bss                    DATA
 0004:00000000 00000220H .rsrc$01                DATA
 0004:00000220 00004e98H .rsrc$02                DATA

  Address         Publics by Value              Rva+Base       Lib:Object

 0000:00000000       ___arm64x_redirection_metadata 00000000     <absolute>
 0000:00000000       ___x64_code_ranges_to_entry_points 00000000     <absolute>
 0000:00000000       ___guard_fids_count        00000000     <absolute>
 0000:00000000       ___guard_longjmp_table     00000000     <absolute>
 0000:00000000       ___guard_iat_count         00000000     <absolute>
 0000:00000000       ___hybrid_code_map_count   00000000     <absolute>
 0000:00000000       ___dynamic_value_reloc_table 00000000     <absolute>
 0000:00000000       ___guard_longjmp_count     00000000     <absolute>
 0000:00000000       __except_list              00000000     <absolute>
 0000:00000000       ___arm64x_native_entrypoint 00000000     <absolute>
 0000:00000000       ___guard_fids_table        00000000     <absolute>
 0000:00000000       ___guard_eh_cont_count     00000000     <absolute>
 0000:00000000       ___hybrid_auxiliary_iat    00000000     <absolute>
 0000:00000000       ___guard_iat_table         00000000     <absolute>
 0000:00000000       ___volatile_metadata       00000000     <absolute>
 0000:00000000       ___enclave_config          00000000     <absolute>
 0000:00000000       ___AbsoluteZero            00000000     <absolute>
 0000:00000000       ___guard_eh_cont_table     00000000     <absolute>
 0000:00000000       ___hybrid_code_map         00000000     <absolute>
 0000:00000007       ___safe_se_handler_count   00000007     <absolute>
 0000:0000002c       __tls_array                0000002c     <absolute>
 0000:00000100       ___guard_flags             00000100     <absolute>
 0000:00000000       ___ImageBase               10000000     <linker-defined>
 0001:00000080       ?DupWide@_CW@@AAEXXZ       10001080 f   CWString.obj
 0001:0000009c       ?cw_dup@@YGXPBDAAHAAPA_W1@Z 1000109c f   CWString.obj
 0001:00000124       ?cw_memcpy@@YGHPA_WPBDH@Z  10001124 f   CWString.obj
 0001:00000150       ?cw_strcpy@@YAHPA_WPBD@Z   10001150 f   CWString.obj
 0001:00000163       ?cw_strlen@@YAHPBD@Z       10001163 f   CWString.obj
 0001:0000017c       ??0CAtlComModule@ATL@@QAE@XZ 1000117c f i OposVariant.obj
 0001:000001c1       ??0CAtlWinModule@ATL@@QAE@XZ 100011c1 f i OposVariant.obj
 0001:000001f8       ??0OposDispParms@@QAE@PAVOposVariant@@H@Z 100011f8 f   OposVariant.obj
 0001:00000269       ??1OposDispParms@@QAE@XZ   10001269 f   OposVariant.obj
 0001:00000277       ??A?$CSimpleArray@GV?$CSimpleArrayEqualHelper@G@ATL@@@ATL@@QAEAAGH@Z 10001277 f i OposVariant.obj
 0001:0000029c       ??_Estringdispid@CComTypeInfoHolder@ATL@@QAEPAXI@Z 1000129c f i OposVariant.obj
 0001:00000308       ?AtlWinModuleInit@ATL@@YGJPAU_ATL_WIN_MODULE70@1@@Z 10001308 f i OposVariant.obj
 0001:0000032e       ?AtlWinModuleTerm@ATL@@YGJPAU_ATL_WIN_MODULE70@1@PAUHINSTANCE__@@@Z 1000132e f i OposVariant.obj
 0001:00000391       ?ChangeBSTR@OposVariant@@QAEXPAPA_WAAJ@Z 10001391 f   OposVariant.obj
 0001:000003d2       ?ChangeLONG@OposVariant@@QAEXPAJAAJ@Z 100013d2 f   OposVariant.obj
 0001:00000413       ?GetLONG@OposVariant@@QAEJXZ 10001413 f   OposVariant.obj
 0001:0000042e       ?Init@CComCriticalSection@ATL@@QAEJXZ 1000142e f i OposVariant.obj
 0001:00000456       ?RemoveAll@?$CSimpleArray@PAUHINSTANCE__@@V?$CSimpleArrayEqualHelper@PAUHINSTANCE__@@@ATL@@@ATL@@QAEXXZ 10001456 f i atls:atlbase.obj
 0001:00000456       ?RemoveAll@?$CSimpleArray@GV?$CSimpleArrayEqualHelper@G@ATL@@@ATL@@QAEXXZ 10001456 f i OposVariant.obj
 0001:00000473       ?SetBSTR@OposVariant@@QAEXPA_WAAJ@Z 10001473 f   OposVariant.obj
 0001:000004a7       ?SetBSTR_Copy@OposVariant@@QAEXPA_WAAJ@Z 100014a7 f   OposVariant.obj
 0001:000004f7       ?SetBSTR_InOutPtr@OposVariant@@QAE_NPAPA_WAAJ@Z 100014f7 f   OposVariant.obj
 0001:0000052e       ?SetBSTR_OutPtr@OposVariant@@QAE_NPAPA_WAAJ@Z 1000152e f   OposVariant.obj
 0001:0000054a       ?SetDispatch_Ptr@OposVariant@@QAEXPAUIDispatch@@AAJ@Z 1000154a f   OposVariant.obj
 0001:00000585       ?SetLONG@OposVariant@@QAEXJ@Z 10001585 f   OposVariant.obj
 0001:000005a7       ?SetLONG_Ptr@OposVariant@@QAEXPAJAAJ@Z 100015a7 f   OposVariant.obj
 0001:000005da       ?SetString@OposVariant@@QAEXPB_WAAJ@Z 100015da f   OposVariant.obj
 0001:00000620       ?SetVARIANT_BOOL@OposVariant@@QAEXF@Z 10001620 f   OposVariant.obj
 0001:0000064a       ?SetVARIANT_BOOL_Ptr@OposVariant@@QAEXPAFAAJ@Z 1000164a f   OposVariant.obj
 0001:0000067d       ?Term@CAtlComModule@ATL@@QAEXXZ 1000167d f i OposVariant.obj
 0001:000006c7       ?_AtlRaiseException@ATL@@YAXKK@Z 100016c7 f i OposVariant.obj
 0001:000006dc       ??_E?$CComObject@VCOPOSCashChanger@@@ATL@@W3AEPAXI@Z 100016dc f i CashChanger.obj
 0001:000006e4       ??_E?$CComObject@VCOPOSCashChanger@@@ATL@@WEM@AEPAXI@Z 100016e4 f i CashChanger.obj
 0001:000006ec       ?QueryInterface@?$CComObject@VCOPOSCashChanger@@@ATL@@WHA@AGJABU_GUID@@PAPAX@Z 100016ec f i CashChanger.obj
 0001:000006f6       ?AddRef@?$CComObject@VCOPOSCashChanger@@@ATL@@WHA@AGKXZ 100016f6 f i CashChanger.obj
 0001:00000700       ?Release@?$CComObject@VCOPOSCashChanger@@@ATL@@WHA@AGKXZ 10001700 f i CashChanger.obj
 0001:0000070a       ?QueryInterface@?$CComObject@VCOPOSCashChanger@@@ATL@@WHE@AGJABU_GUID@@PAPAX@Z 1000170a f i CashChanger.obj
 0001:00000714       ?AddRef@?$CComObject@VCOPOSCashChanger@@@ATL@@WHE@AGKXZ 10001714 f i CashChanger.obj
 0001:0000071e       ?Release@?$CComObject@VCOPOSCashChanger@@@ATL@@WHE@AGKXZ 1000171e f i CashChanger.obj
 0001:00000728       ?QueryInterface@?$CComObject@VCOPOSCashChanger@@@ATL@@WHI@AGJABU_GUID@@PAPAX@Z 10001728 f i CashChanger.obj
 0001:00000732       ?AddRef@?$CComObject@VCOPOSCashChanger@@@ATL@@WHI@AGKXZ 10001732 f i CashChanger.obj
 0001:0000073c       ?Release@?$CComObject@VCOPOSCashChanger@@@ATL@@WHI@AGKXZ 1000173c f i CashChanger.obj
 0001:00000746       ?QueryInterface@?$CComObject@VCOPOSCashChanger@@@ATL@@WHM@AGJABU_GUID@@PAPAX@Z 10001746 f i CashChanger.obj
 0001:00000750       ?AddRef@?$CComObject@VCOPOSCashChanger@@@ATL@@WHM@AGKXZ 10001750 f i CashChanger.obj
 0001:0000075a       ?Release@?$CComObject@VCOPOSCashChanger@@@ATL@@WHM@AGKXZ 1000175a f i CashChanger.obj
 0001:00000764       ?QueryInterface@?$CComObject@VCOPOSCashChanger@@@ATL@@WIA@AGJABU_GUID@@PAPAX@Z 10001764 f i CashChanger.obj
 0001:00000771       ?AddRef@?$CComObject@VCOPOSCashChanger@@@ATL@@WIA@AGKXZ 10001771 f i CashChanger.obj
 0001:0000077e       ?Release@?$CComObject@VCOPOSCashChanger@@@ATL@@WIA@AGKXZ 1000177e f i CashChanger.obj
 0001:0000078b       ?QueryInterface@?$CComObject@VCOPOSCashChanger@@@ATL@@WIE@AGJABU_GUID@@PAPAX@Z 1000178b f i CashChanger.obj
 0001:00000798       ?AddRef@?$CComObject@VCOPOSCashChanger@@@ATL@@WIE@AGKXZ 10001798 f i CashChanger.obj
 0001:000007a5       ?Release@?$CComObject@VCOPOSCashChanger@@@ATL@@WIE@AGKXZ 100017a5 f i CashChanger.obj
 0001:000007b2       ?QueryInterface@?$CComObject@VCOPOSCashChanger@@@ATL@@WII@AGJABU_GUID@@PAPAX@Z 100017b2 f i CashChanger.obj
 0001:000007bf       ?AddRef@?$CComObject@VCOPOSCashChanger@@@ATL@@WII@AGKXZ 100017bf f i CashChanger.obj
 0001:000007cc       ?Release@?$CComObject@VCOPOSCashChanger@@@ATL@@WII@AGKXZ 100017cc f i CashChanger.obj
 0001:000007d9       ?QueryInterface@?$CComObject@VCOPOSCashChanger@@@ATL@@WIM@AGJABU_GUID@@PAPAX@Z 100017d9 f i CashChanger.obj
 0001:000007e6       ?AddRef@?$CComObject@VCOPOSCashChanger@@@ATL@@WIM@AGKXZ 100017e6 f i CashChanger.obj
 0001:000007f3       ?Release@?$CComObject@VCOPOSCashChanger@@@ATL@@WIM@AGKXZ 100017f3 f i CashChanger.obj
 0001:00000800       ?QueryInterface@?$CComObject@VCOPOSCashChanger@@@ATL@@WJA@AGJABU_GUID@@PAPAX@Z 10001800 f i CashChanger.obj
 0001:0000080d       ?AddRef@?$CComObject@VCOPOSCashChanger@@@ATL@@WJA@AGKXZ 1000180d f i CashChanger.obj
 0001:0000081a       ?Release@?$CComObject@VCOPOSCashChanger@@@ATL@@WJA@AGKXZ 1000181a f i CashChanger.obj
 0001:00000827       ?QueryInterface@?$CComObject@VCOPOSCashChanger@@@ATL@@WJE@AGJABU_GUID@@PAPAX@Z 10001827 f i CashChanger.obj
 0001:00000834       ?AddRef@?$CComObject@VCOPOSCashChanger@@@ATL@@WJE@AGKXZ 10001834 f i CashChanger.obj
 0001:00000841       ?Release@?$CComObject@VCOPOSCashChanger@@@ATL@@WJE@AGKXZ 10001841 f i CashChanger.obj
 0001:0000084e       ?QueryInterface@?$CComObject@VCOPOSCashChanger@@@ATL@@WJI@AGJABU_GUID@@PAPAX@Z 1000184e f i CashChanger.obj
 0001:0000085b       ?AddRef@?$CComObject@VCOPOSCashChanger@@@ATL@@WJI@AGKXZ 1000185b f i CashChanger.obj
 0001:00000868       ?Release@?$CComObject@VCOPOSCashChanger@@@ATL@@WJI@AGKXZ 10001868 f i CashChanger.obj
 0001:00000875       ?QueryInterface@?$CComObject@VCOPOSCashChanger@@@ATL@@WJM@AGJABU_GUID@@PAPAX@Z 10001875 f i CashChanger.obj
 0001:00000882       ?AddRef@?$CComObject@VCOPOSCashChanger@@@ATL@@WJM@AGKXZ 10001882 f i CashChanger.obj
 0001:0000088f       ?Release@?$CComObject@VCOPOSCashChanger@@@ATL@@WJM@AGKXZ 1000188f f i CashChanger.obj
 0001:0000089c       ?QueryInterface@?$CComObject@VCOPOSCashChanger@@@ATL@@WKA@AGJABU_GUID@@PAPAX@Z 1000189c f i CashChanger.obj
 0001:000008a9       ?AddRef@?$CComObject@VCOPOSCashChanger@@@ATL@@WKA@AGKXZ 100018a9 f i CashChanger.obj
 0001:000008b6       ?Release@?$CComObject@VCOPOSCashChanger@@@ATL@@WKA@AGKXZ 100018b6 f i CashChanger.obj
 0001:000008c3       ?AddRef@?$CComObject@VCOPOSCashChanger@@@ATL@@WKI@AGKXZ 100018c3 f i CashChanger.obj
 0001:000008d0       ?Release@?$CComObject@VCOPOSCashChanger@@@ATL@@WKI@AGKXZ 100018d0 f i CashChanger.obj
 0001:000008dd       ?AddRef@?$CComObject@VCOPOSCashChanger@@@ATL@@WLE@AGKXZ 100018dd f i CashChanger.obj
 0001:000008ea       ?Release@?$CComObject@VCOPOSCashChanger@@@ATL@@WLE@AGKXZ 100018ea f i CashChanger.obj
 0001:000008f7       ??_E?$CComContainedObject@VCOPOSCashChanger@@@ATL@@W3AEPAXI@Z 100018f7 f i CashChanger.obj
 0001:000008ff       ??_E?$CComContainedObject@VCOPOSCashChanger@@@ATL@@WEM@AEPAXI@Z 100018ff f i CashChanger.obj
 0001:00000907       ?QueryInterface@?$CComContainedObject@VCOPOSCashChanger@@@ATL@@WHA@AGJABU_GUID@@PAPAX@Z 10001907 f i CashChanger.obj
 0001:00000911       ?AddRef@?$CComContainedObject@VCOPOSCashChanger@@@ATL@@WHA@AGKXZ 10001911 f i CashChanger.obj
 0001:0000091b       ?Release@?$CComContainedObject@VCOPOSCashChanger@@@ATL@@WHA@AGKXZ 1000191b f i CashChanger.obj
 0001:00000925       ?QueryInterface@?$CComContainedObject@VCOPOSCashChanger@@@ATL@@WHE@AGJABU_GUID@@PAPAX@Z 10001925 f i CashChanger.obj
 0001:0000092f       ?AddRef@?$CComContainedObject@VCOPOSCashChanger@@@ATL@@WHE@AGKXZ 1000192f f i CashChanger.obj
 0001:00000939       ?Release@?$CComContainedObject@VCOPOSCashChanger@@@ATL@@WHE@AGKXZ 10001939 f i CashChanger.obj
 0001:00000943       ?QueryInterface@?$CComContainedObject@VCOPOSCashChanger@@@ATL@@WHI@AGJABU_GUID@@PAPAX@Z 10001943 f i CashChanger.obj
 0001:0000094d       ?AddRef@?$CComContainedObject@VCOPOSCashChanger@@@ATL@@WHI@AGKXZ 1000194d f i CashChanger.obj
 0001:00000957       ?Release@?$CComContainedObject@VCOPOSCashChanger@@@ATL@@WHI@AGKXZ 10001957 f i CashChanger.obj
 0001:00000961       ?QueryInterface@?$CComContainedObject@VCOPOSCashChanger@@@ATL@@WHM@AGJABU_GUID@@PAPAX@Z 10001961 f i CashChanger.obj
 0001:0000096b       ?AddRef@?$CComContainedObject@VCOPOSCashChanger@@@ATL@@WHM@AGKXZ 1000196b f i CashChanger.obj
 0001:00000975       ?Release@?$CComContainedObject@VCOPOSCashChanger@@@ATL@@WHM@AGKXZ 10001975 f i CashChanger.obj
 0001:0000097f       ?QueryInterface@?$CComContainedObject@VCOPOSCashChanger@@@ATL@@WIA@AGJABU_GUID@@PAPAX@Z 1000197f f i CashChanger.obj
 0001:0000098c       ?AddRef@?$CComContainedObject@VCOPOSCashChanger@@@ATL@@WIA@AGKXZ 1000198c f i CashChanger.obj
 0001:00000999       ?Release@?$CComContainedObject@VCOPOSCashChanger@@@ATL@@WIA@AGKXZ 10001999 f i CashChanger.obj
 0001:000009a6       ?QueryInterface@?$CComContainedObject@VCOPOSCashChanger@@@ATL@@WIE@AGJABU_GUID@@PAPAX@Z 100019a6 f i CashChanger.obj
 0001:000009b3       ?AddRef@?$CComContainedObject@VCOPOSCashChanger@@@ATL@@WIE@AGKXZ 100019b3 f i CashChanger.obj
 0001:000009c0       ?Release@?$CComContainedObject@VCOPOSCashChanger@@@ATL@@WIE@AGKXZ 100019c0 f i CashChanger.obj
 0001:000009cd       ?QueryInterface@?$CComContainedObject@VCOPOSCashChanger@@@ATL@@WII@AGJABU_GUID@@PAPAX@Z 100019cd f i CashChanger.obj
 0001:000009da       ?AddRef@?$CComContainedObject@VCOPOSCashChanger@@@ATL@@WII@AGKXZ 100019da f i CashChanger.obj
 0001:000009e7       ?Release@?$CComContainedObject@VCOPOSCashChanger@@@ATL@@WII@AGKXZ 100019e7 f i CashChanger.obj
 0001:000009f4       ?QueryInterface@?$CComContainedObject@VCOPOSCashChanger@@@ATL@@WIM@AGJABU_GUID@@PAPAX@Z 100019f4 f i CashChanger.obj
 0001:00000a01       ?AddRef@?$CComContainedObject@VCOPOSCashChanger@@@ATL@@WIM@AGKXZ 10001a01 f i CashChanger.obj
 0001:00000a0e       ?Release@?$CComContainedObject@VCOPOSCashChanger@@@ATL@@WIM@AGKXZ 10001a0e f i CashChanger.obj
 0001:00000a1b       ?QueryInterface@?$CComContainedObject@VCOPOSCashChanger@@@ATL@@WJA@AGJABU_GUID@@PAPAX@Z 10001a1b f i CashChanger.obj
 0001:00000a28       ?AddRef@?$CComContainedObject@VCOPOSCashChanger@@@ATL@@WJA@AGKXZ 10001a28 f i CashChanger.obj
 0001:00000a35       ?Release@?$CComContainedObject@VCOPOSCashChanger@@@ATL@@WJA@AGKXZ 10001a35 f i CashChanger.obj
 0001:00000a42       ?QueryInterface@?$CComContainedObject@VCOPOSCashChanger@@@ATL@@WJE@AGJABU_GUID@@PAPAX@Z 10001a42 f i CashChanger.obj
 0001:00000a4f       ?AddRef@?$CComContainedObject@VCOPOSCashChanger@@@ATL@@WJE@AGKXZ 10001a4f f i CashChanger.obj
 0001:00000a5c       ?Release@?$CComContainedObject@VCOPOSCashChanger@@@ATL@@WJE@AGKXZ 10001a5c f i CashChanger.obj
 0001:00000a69       ?QueryInterface@?$CComContainedObject@VCOPOSCashChanger@@@ATL@@WJI@AGJABU_GUID@@PAPAX@Z 10001a69 f i CashChanger.obj
 0001:00000a76       ?AddRef@?$CComContainedObject@VCOPOSCashChanger@@@ATL@@WJI@AGKXZ 10001a76 f i CashChanger.obj
 0001:00000a83       ?Release@?$CComContainedObject@VCOPOSCashChanger@@@ATL@@WJI@AGKXZ 10001a83 f i CashChanger.obj
 0001:00000a90       ?QueryInterface@?$CComContainedObject@VCOPOSCashChanger@@@ATL@@WJM@AGJABU_GUID@@PAPAX@Z 10001a90 f i CashChanger.obj
 0001:00000a9d       ?AddRef@?$CComContainedObject@VCOPOSCashChanger@@@ATL@@WJM@AGKXZ 10001a9d f i CashChanger.obj
 0001:00000aaa       ?Release@?$CComContainedObject@VCOPOSCashChanger@@@ATL@@WJM@AGKXZ 10001aaa f i CashChanger.obj
 0001:00000ab7       ?QueryInterface@?$CComContainedObject@VCOPOSCashChanger@@@ATL@@WKA@AGJABU_GUID@@PAPAX@Z 10001ab7 f i CashChanger.obj
 0001:00000ac4       ?AddRef@?$CComContainedObject@VCOPOSCashChanger@@@ATL@@WKA@AGKXZ 10001ac4 f i CashChanger.obj
 0001:00000ad1       ?Release@?$CComContainedObject@VCOPOSCashChanger@@@ATL@@WKA@AGKXZ 10001ad1 f i CashChanger.obj
 0001:00000ade       ?AddRef@?$CComContainedObject@VCOPOSCashChanger@@@ATL@@WKI@AGKXZ 10001ade f i CashChanger.obj
 0001:00000aeb       ?Release@?$CComContainedObject@VCOPOSCashChanger@@@ATL@@WKI@AGKXZ 10001aeb f i CashChanger.obj
 0001:00000af8       ?AddRef@?$CComContainedObject@VCOPOSCashChanger@@@ATL@@WLE@AGKXZ 10001af8 f i CashChanger.obj
 0001:00000b05       ?Release@?$CComContainedObject@VCOPOSCashChanger@@@ATL@@WLE@AGKXZ 10001b05 f i CashChanger.obj
 0001:00000b12       ?CreateInstance@CComClassFactory@ATL@@UAGJPAUIUnknown@@ABU_GUID@@PAPAX@Z 10001b12 f i CashChanger.obj
 0001:00000b50       ?LockServer@CComClassFactory@ATL@@UAGJH@Z 10001b50 f i CashChanger.obj
 0001:00000b6f       ??_GCComClassFactory@ATL@@UAEPAXI@Z 10001b6f f i CashChanger.obj
 0001:00000b6f       ??_ECComClassFactory@ATL@@UAEPAXI@Z 10001b6f f i CashChanger.obj
 0001:00000b9a       ?GetWindowProc@?$CWindowImplBaseT@VCWindow@ATL@@V?$CWinTraits@$0FGAAAAAA@$0A@@2@@ATL@@UAEP6GJPAUHWND__@@IIJ@ZXZ 10001b9a f i CashChanger.obj
 0001:00000ba0       ?StartWindowProc@?$CWindowImplBaseT@VCWindow@ATL@@V?$CWinTraits@$0FGAAAAAA@$0A@@2@@ATL@@SGJPAUHWND__@@IIJ@Z 10001ba0 f i CashChanger.obj
 0001:00000bf4       ?ObjectMain@CComObjectRootBase@ATL@@SGX_N@Z 10001bf4 f i CashChanger.obj
 0001:00000bf4       ?OnFinalMessage@?$CWindowImplBaseT@VCWindow@ATL@@V?$CWinTraits@$0FGAAAAAA@$0A@@2@@ATL@@UAEXPAUHWND__@@@Z 10001bf4 f i CashChanger.obj
 0001:00000bf7       ?GetTypeInfoCount@?$IDispatchImpl@UIOPOSCashChanger@@$1?IID_IOPOSCashChanger@@3U_GUID@@B$1?LIBID_OposCashChanger_CCO@@3U3@B$00$0A@VCComTypeInfoHolder@ATL@@@ATL@@UAGJPAI@Z 10001bf7 f i CashChanger.obj
 0001:00000c14       ?GetTypeInfo@?$IDispatchImpl@UIOPOSCashChanger@@$1?IID_IOPOSCashChanger@@3U_GUID@@B$1?LIBID_OposCashChanger_CCO@@3U3@B$00$0A@VCComTypeInfoHolder@ATL@@@ATL@@UAGJIKPAPAUITypeInfo@@@Z 10001c14 f i CashChanger.obj
 0001:00000c38       ?GetIDsOfNames@?$IDispatchImpl@UIOPOSCashChanger@@$1?IID_IOPOSCashChanger@@3U_GUID@@B$1?LIBID_OposCashChanger_CCO@@3U3@B$00$0A@VCComTypeInfoHolder@ATL@@@ATL@@UAGJABU_GUID@@PAPA_WIKPAJ@Z 10001c38 f i CashChanger.obj
 0001:00000c58       ?Invoke@?$IDispatchImpl@UIOPOSCashChanger@@$1?IID_IOPOSCashChanger@@3U_GUID@@B$1?LIBID_OposCashChanger_CCO@@3U3@B$00$0A@VCComTypeInfoHolder@ATL@@@ATL@@UAGJJABU_GUID@@KGPAUtagDISPPARAMS@@PAUtagVARIANT@@PAUtagEXCEPINFO@@PAI@Z 10001c58 f i CashChanger.obj
 0001:00000c66       ?CreateControlWindow@?$CComControl@VCOPOSCashChanger@@V?$CWindowImpl@VCOPOSCashChanger@@VCWindow@ATL@@V?$CWinTraits@$0FGAAAAAA@$0A@@3@@ATL@@@ATL@@UAEPAUHWND__@@PAU3@AAUtagRECT@@@Z 10001c66 f i CashChanger.obj
 0001:00000c95       ?ControlQueryInterface@?$CComControl@VCOPOSCashChanger@@V?$CWindowImpl@VCOPOSCashChanger@@VCWindow@ATL@@V?$CWinTraits@$0FGAAAAAA@$0A@@3@@ATL@@@ATL@@UAEJABU_GUID@@PAPAX@Z 10001c95 f i CashChanger.obj
 0001:00000cb0       ?GetUserClassID@?$IOleObjectImpl@VCOPOSCashChanger@@@ATL@@UAGJPAU_GUID@@@Z 10001cb0 f i CashChanger.obj
 0001:00000cb0       ?GetClassID@?$IPersistStorageImpl@VCOPOSCashChanger@@@ATL@@UAGJPAU_GUID@@@Z 10001cb0 f i CashChanger.obj
 0001:00000cb0       ?GetClassID@?$IPersistStreamInitImpl@VCOPOSCashChanger@@@ATL@@UAGJPAU_GUID@@@Z 10001cb0 f i CashChanger.obj
 0001:00000cd4       ?IsDirty@?$IPersistStreamInitImpl@VCOPOSCashChanger@@@ATL@@UAGJXZ 10001cd4 f i CashChanger.obj
 0001:00000cf3       ?Load@?$IPersistStreamInitImpl@VCOPOSCashChanger@@@ATL@@UAGJPAUIStream@@@Z 10001cf3 f i CashChanger.obj
 0001:00000d12       ?Save@?$IPersistStreamInitImpl@VCOPOSCashChanger@@@ATL@@UAGJPAUIStream@@H@Z 10001d12 f i CashChanger.obj
 0001:00000d34       ?GetSizeMax@?$IPersistStreamInitImpl@VCOPOSCashChanger@@@ATL@@UAGJPAT_ULARGE_INTEGER@@@Z 10001d34 f i CashChanger.obj
 0001:00000f13       ?InitNew@?$IPersistStreamInitImpl@VCOPOSCashChanger@@@ATL@@UAGJXZ 10001f13 f i CashChanger.obj
 0001:00000f30       ?Unfreeze@?$IViewObjectExImpl@VCOPOSCashChanger@@@ATL@@UAGJK@Z 10001f30 f i CashChanger.obj
 0001:00000f30       ?QueryGetData@?$IDataObjectImpl@VCOPOSCashChanger@@@ATL@@UAGJPAUtagFORMATETC@@@Z 10001f30 f i CashChanger.obj
 0001:00000f30       ?GetControlInfo@?$IOleControlImpl@VCOPOSCashChanger@@@ATL@@UAGJPAUtagCONTROLINFO@@@Z 10001f30 f i CashChanger.obj
 0001:00000f30       ?ContextSensitiveHelp@?$IOleInPlaceActiveObjectImpl@VCOPOSCashChanger@@@ATL@@UAGJH@Z 10001f30 f i CashChanger.obj
 0001:00000f30       ?OnMnemonic@?$IOleControlImpl@VCOPOSCashChanger@@@ATL@@UAGJPAUtagMSG@@@Z 10001f30 f i CashChanger.obj
 0001:00000f30       ?SOOutputCompleteDummy@COPOSCashChanger@@MAGJJ@Z 10001f30 f i CashChanger.obj
 0001:00000f30       ?ContextSensitiveHelp@?$IOleInPlaceObjectWindowlessImpl@VCOPOSCashChanger@@@ATL@@UAGJH@Z 10001f30 f i CashChanger.obj
 0001:00000f30       ?GetDropTarget@?$IOleInPlaceObjectWindowlessImpl@VCOPOSCashChanger@@@ATL@@UAGJPAPAUIDropTarget@@@Z 10001f30 f i CashChanger.obj
 0001:00000f30       ?SetColorScheme@?$IOleObjectImpl@VCOPOSCashChanger@@@ATL@@UAGJPAUtagLOGPALETTE@@@Z 10001f30 f i CashChanger.obj
 0001:00000f38       ?EnableModeless@?$IOleInPlaceActiveObjectImpl@VCOPOSCashChanger@@@ATL@@UAGJH@Z 10001f38 f i CashChanger.obj
 0001:00000f38       ?SaveCompleted@?$IPersistStorageImpl@VCOPOSCashChanger@@@ATL@@UAGJPAUIStorage@@@Z 10001f38 f i CashChanger.obj
 0001:00000f38       ?OnAmbientPropertyChange@?$IOleControlImpl@VCOPOSCashChanger@@@ATL@@UAGJJ@Z 10001f38 f i CashChanger.obj
 0001:00000f38       ?OnFrameWindowActivate@?$IOleInPlaceActiveObjectImpl@VCOPOSCashChanger@@@ATL@@UAGJH@Z 10001f38 f i CashChanger.obj
 0001:00000f3d       ?SetClientSite@?$IOleObjectImpl@VCOPOSCashChanger@@@ATL@@UAGJPAUIOleClientSite@@@Z 10001f3d f i CashChanger.obj
 0001:00000f5a       ?GetClientSite@?$IOleObjectImpl@VCOPOSCashChanger@@@ATL@@UAGJPAPAUIOleClientSite@@@Z 10001f5a f i CashChanger.obj
 0001:00000f77       ?SetHostNames@?$IOleObjectImpl@VCOPOSCashChanger@@@ATL@@UAGJPB_W0@Z 10001f77 f i CashChanger.obj
 0001:00000f7c       ?Close@?$IOleObjectImpl@VCOPOSCashChanger@@@ATL@@UAGJK@Z 10001f7c f i CashChanger.obj
 0001:00000f99       ?GetCanonicalFormatEtc@?$IDataObjectImpl@VCOPOSCashChanger@@@ATL@@UAGJPAUtagFORMATETC@@0@Z 10001f99 f i CashChanger.obj
 0001:00000f99       ?GetDataHere@?$IDataObjectImpl@VCOPOSCashChanger@@@ATL@@UAGJPAUtagFORMATETC@@PAUtagSTGMEDIUM@@@Z 10001f99 f i CashChanger.obj
 0001:00000f99       ?GetRect@?$IViewObjectExImpl@VCOPOSCashChanger@@@ATL@@UAGJKPAU_RECTL@@@Z 10001f99 f i CashChanger.obj
 0001:00000f99       ?GetClipboardData@?$IOleObjectImpl@VCOPOSCashChanger@@@ATL@@UAGJKPAPAUIDataObject@@@Z 10001f99 f i CashChanger.obj
 0001:00000f99       ?SetMoniker@?$IOleObjectImpl@VCOPOSCashChanger@@@ATL@@UAGJKPAUIMoniker@@@Z 10001f99 f i CashChanger.obj
 0001:00000f99       ?EnumFormatEtc@?$IDataObjectImpl@VCOPOSCashChanger@@@ATL@@UAGJKPAPAUIEnumFORMATETC@@@Z 10001f99 f i CashChanger.obj
 0001:00000f99       ?QueryInterface@CRegObject@ATL@@UAGJABU_GUID@@PAPAX@Z 10001f99 f i CashChanger.obj
 0001:00000fa1       ?InitFromData@?$IOleObjectImpl@VCOPOSCashChanger@@@ATL@@UAGJPAUIDataObject@@HK@Z 10001fa1 f i CashChanger.obj
 0001:00000fa1       ?SetData@?$IDataObjectImpl@VCOPOSCashChanger@@@ATL@@UAGJPAUtagFORMATETC@@PAUtagSTGMEDIUM@@H@Z 10001fa1 f i CashChanger.obj
 0001:00000fa1       ?GetMoniker@?$IOleObjectImpl@VCOPOSCashChanger@@@ATL@@UAGJKKPAPAUIMoniker@@@Z 10001fa1 f i CashChanger.obj
 0001:00000fa9       ?DoVerb@?$IOleObjectImpl@VCOPOSCashChanger@@@ATL@@UAGJJPAUtagMSG@@PAUIOleClientSite@@JPAUHWND__@@PBUtagRECT@@@Z 10001fa9 f i CashChanger.obj
 0001:0000109d       ?EnumVerbs@?$IOleObjectImpl@VCOPOSCashChanger@@@ATL@@UAGJPAPAUIEnumOLEVERB@@@Z 1000209d f i CashChanger.obj
 0001:000010bf       ?IsUpToDate@?$IOleObjectImpl@VCOPOSCashChanger@@@ATL@@UAGJXZ 100020bf f i CashChanger.obj
 0001:000010bf       ?Update@?$IOleObjectImpl@VCOPOSCashChanger@@@ATL@@UAGJXZ 100020bf f i CashChanger.obj
 0001:000010bf       ?Release@CRegObject@ATL@@UAGKXZ 100020bf f i CashChanger.obj
 0001:000010bf       ?HandsOffStorage@?$IPersistStorageImpl@VCOPOSCashChanger@@@ATL@@UAGJXZ 100020bf f i CashChanger.obj
 0001:000010c4       ?GetUserType@?$IOleObjectImpl@VCOPOSCashChanger@@@ATL@@UAGJKPAPA_W@Z 100020c4 f i CashChanger.obj
 0001:000010dc       ?SetExtent@?$IOleObjectImpl@VCOPOSCashChanger@@@ATL@@UAGJKPAUtagSIZE@@@Z 100020dc f i CashChanger.obj
 0001:000010fc       ?GetExtent@?$IOleObjectImpl@VCOPOSCashChanger@@@ATL@@UAGJKPAUtagSIZE@@@Z 100020fc f i CashChanger.obj
 0001:0000113a       ?Advise@?$IOleObjectImpl@VCOPOSCashChanger@@@ATL@@UAGJPAUIAdviseSink@@PAK@Z 1000213a f i CashChanger.obj
 0001:0000115a       ?Unadvise@?$IOleObjectImpl@VCOPOSCashChanger@@@ATL@@UAGJK@Z 1000215a f i CashChanger.obj
 0001:00001189       ?EnumAdvise@?$IOleObjectImpl@VCOPOSCashChanger@@@ATL@@UAGJPAPAUIEnumSTATDATA@@@Z 10002189 f i CashChanger.obj
 0001:000011c9       ?GetMiscStatus@?$IOleObjectImpl@VCOPOSCashChanger@@@ATL@@UAGJKPAK@Z 100021c9 f i CashChanger.obj
 0001:000011e1       ?GetWindow@?$IOleInPlaceActiveObjectImpl@VCOPOSCashChanger@@@ATL@@UAGJPAPAUHWND__@@@Z 100021e1 f i CashChanger.obj
 0001:0000122e       ?TranslateAcceleratorW@?$IOleInPlaceActiveObjectImpl@VCOPOSCashChanger@@@ATL@@UAGJPAUtagMSG@@@Z 1000222e f i CashChanger.obj
 0001:000012dc       ?OnDocWindowActivate@?$IOleInPlaceActiveObjectImpl@VCOPOSCashChanger@@@ATL@@UAGJH@Z 100022dc f i CashChanger.obj
 0001:000012fe       ?ResizeBorder@?$IOleInPlaceActiveObjectImpl@VCOPOSCashChanger@@@ATL@@UAGJPBUtagRECT@@PAUIOleInPlaceUIWindow@@H@Z 100022fe f i CashChanger.obj
 0001:00001303       ?Draw@?$IViewObjectExImpl@VCOPOSCashChanger@@@ATL@@UAGJKJPAXPAUtagDVTARGETDEVICE@@PAUHDC__@@2PBU_RECTL@@3P6GHK@ZK@Z 10002303 f i CashChanger.obj
 0001:00001335       ?GetColorSet@?$IViewObjectExImpl@VCOPOSCashChanger@@@ATL@@UAGJKJPAXPAUtagDVTARGETDEVICE@@PAUHDC__@@PAPAUtagLOGPALETTE@@@Z 10002335 f i CashChanger.obj
 0001:0000133d       ?Freeze@?$IViewObjectExImpl@VCOPOSCashChanger@@@ATL@@UAGJKJPAXPAK@Z 1000233d f i CashChanger.obj
 0001:0000133d       ?SOErrorDummy@COPOSCashChanger@@MAGJJJJPAJ@Z 1000233d f i CashChanger.obj
 0001:00001345       ?SetAdvise@?$IViewObjectExImpl@VCOPOSCashChanger@@@ATL@@UAGJKKPAUIAdviseSink@@@Z 10002345 f i CashChanger.obj
 0001:00001364       ?GetAdvise@?$IViewObjectExImpl@VCOPOSCashChanger@@@ATL@@UAGJPAK0PAPAUIAdviseSink@@@Z 10002364 f i CashChanger.obj
 0001:00001399       ?GetExtent@?$IViewObjectExImpl@VCOPOSCashChanger@@@ATL@@UAGJKJPAUtagDVTARGETDEVICE@@PAUtagSIZE@@@Z 10002399 f i CashChanger.obj
 0001:000013ca       ?GetViewStatus@?$IViewObjectExImpl@VCOPOSCashChanger@@@ATL@@UAGJPAK@Z 100023ca f i CashChanger.obj
 0001:000013e7       ?QueryHitPoint@?$IViewObjectExImpl@VCOPOSCashChanger@@@ATL@@UAGJKPBUtagRECT@@UtagPOINT@@JPAK@Z 100023e7 f i CashChanger.obj
 0001:00001428       ?QueryHitRect@?$IViewObjectExImpl@VCOPOSCashChanger@@@ATL@@UAGJKPBUtagRECT@@0JPAK@Z 10002428 f i CashChanger.obj
 0001:00001483       ?GetNaturalExtent@?$IViewObjectExImpl@VCOPOSCashChanger@@@ATL@@UAGJKJPAUtagDVTARGETDEVICE@@PAUHDC__@@PAUtagExtentInfo@@PAUtagSIZE@@@Z 10002483 f i CashChanger.obj
 0001:000014ce       ?GetWindow@?$IOleInPlaceObjectWindowlessImpl@VCOPOSCashChanger@@@ATL@@UAGJPAPAUHWND__@@@Z 100024ce f i CashChanger.obj
 0001:0000151b       ?InPlaceDeactivate@?$IOleInPlaceObjectWindowlessImpl@VCOPOSCashChanger@@@ATL@@UAGJXZ 1000251b f i CashChanger.obj
 0001:00001535       ?UIDeactivate@?$IOleInPlaceObjectWindowlessImpl@VCOPOSCashChanger@@@ATL@@UAGJXZ 10002535 f i CashChanger.obj
 0001:0000154f       ?SetObjectRects@?$IOleInPlaceObjectWindowlessImpl@VCOPOSCashChanger@@@ATL@@UAGJPBUtagRECT@@0@Z 1000254f f i CashChanger.obj
 0001:0000156f       ?ReactivateAndUndo@?$IOleInPlaceObjectWindowlessImpl@VCOPOSCashChanger@@@ATL@@UAGJXZ 1000256f f i CashChanger.obj
 0001:00001577       ?OnWindowMessage@?$IOleInPlaceObjectWindowlessImpl@VCOPOSCashChanger@@@ATL@@UAGJIIJPAJ@Z 10002577 f i CashChanger.obj
 0001:000015e7       ?EnumConnectionPoints@?$IConnectionPointContainerImpl@VCOPOSCashChanger@@@ATL@@UAGJPAPAUIEnumConnectionPoints@@@Z 100025e7 f i CashChanger.obj
 0001:00001773       ?FindConnectionPoint@?$IConnectionPointContainerImpl@VCOPOSCashChanger@@@ATL@@UAGJABU_GUID@@PAPAUIConnectionPoint@@@Z 10002773 f i CashChanger.obj
 0001:00001816       ?IsDirty@?$IPersistStorageImpl@VCOPOSCashChanger@@@ATL@@UAGJXZ 10002816 f i CashChanger.obj
 0001:00001846       ?InitNew@?$IPersistStorageImpl@VCOPOSCashChanger@@@ATL@@UAGJPAUIStorage@@@Z 10002846 f i CashChanger.obj
 0001:00001876       ?Load@?$IPersistStorageImpl@VCOPOSCashChanger@@@ATL@@UAGJPAUIStorage@@@Z 10002876 f i CashChanger.obj
 0001:000018e2       ?Save@?$IPersistStorageImpl@VCOPOSCashChanger@@@ATL@@UAGJPAUIStorage@@H@Z 100028e2 f i CashChanger.obj
 0001:00001955       ?GetPages@?$ISpecifyPropertyPagesImpl@VCOPOSCashChanger@@@ATL@@UAGJPAUtagCAUUID@@@Z 10002955 f i CashChanger.obj
 0001:0000196c       ?QuickActivate@?$IQuickActivateImpl@VCOPOSCashChanger@@@ATL@@UAGJPAUtagQACONTAINER@@PAUtagQACONTROL@@@Z 1000296c f i CashChanger.obj
 0001:0000198f       ?SetContentExtent@?$IQuickActivateImpl@VCOPOSCashChanger@@@ATL@@UAGJPAUtagSIZE@@@Z 1000298f f i CashChanger.obj
 0001:000019bb       ?GetContentExtent@?$IQuickActivateImpl@VCOPOSCashChanger@@@ATL@@UAGJPAUtagSIZE@@@Z 100029bb f i CashChanger.obj
 0001:000019f5       ?GetData@?$IDataObjectImpl@VCOPOSCashChanger@@@ATL@@UAGJPAUtagFORMATETC@@PAUtagSTGMEDIUM@@@Z 100029f5 f i CashChanger.obj
 0001:00001a18       ?DAdvise@?$IDataObjectImpl@VCOPOSCashChanger@@@ATL@@UAGJPAUtagFORMATETC@@KPAUIAdviseSink@@PAK@Z 10002a18 f i CashChanger.obj
 0001:00001a59       ?DUnadvise@?$IDataObjectImpl@VCOPOSCashChanger@@@ATL@@UAGJK@Z 10002a59 f i CashChanger.obj
 0001:00001a87       ?EnumDAdvise@?$IDataObjectImpl@VCOPOSCashChanger@@@ATL@@UAGJPAPAUIEnumSTATDATA@@@Z 10002a87 f i CashChanger.obj
 0001:00001ac6       ?GetClassInfoW@?$IProvideClassInfo2Impl@$1?CLSID_OPOSCashChanger@@3U_GUID@@B$1?DIID__IOPOSCashChangerEvents@@3U2@B$1?LIBID_OposCashChanger_CCO@@3U2@B$00$0A@VCComTypeInfoHolder@ATL@@@ATL@@UAGJPAPAUITypeInfo@@@Z 10002ac6 f i CashChanger.obj
 0001:00001adc       ?GetGUID@?$IProvideClassInfo2Impl@$1?CLSID_OPOSCashChanger@@3U_GUID@@B$1?DIID__IOPOSCashChangerEvents@@3U2@B$1?LIBID_OposCashChanger_CCO@@3U2@B$00$0A@VCComTypeInfoHolder@ATL@@@ATL@@UAGJKPAU_GUID@@@Z 10002adc f i CashChanger.obj
 0001:00001b1a       ?FAccessAllowed@?$IObjectSafetyImpl@VCOPOSCashChanger@@$02@ATL@@MAEHXZ 10002b1a f i CashChanger.obj
 0001:00001b1a       __get_startup_argv_mode    10002b1a f i LIBCMT:argv_mode.obj
 0001:00001b1e       ?GetInterfaceSafetyOptions@?$IObjectSafetyImpl@VCOPOSCashChanger@@$02@ATL@@UAGJABU_GUID@@PAK1@Z 10002b1e f i CashChanger.obj
 0001:00001b92       ?SetInterfaceSafetyOptions@?$IObjectSafetyImpl@VCOPOSCashChanger@@$02@ATL@@UAGJABU_GUID@@KK@Z 10002b92 f i CashChanger.obj
 0001:00001c0c       ?_LocCPQueryInterface@?$IConnectionPointImpl@VCOPOSCashChanger@@$1?DIID__IOPOSCashChangerEvents@@3U_GUID@@BVCComDynamicUnkArray@ATL@@@ATL@@UAGJABU_GUID@@PAPAX@Z 10002c0c f i CashChanger.obj
 0001:00001c0c       ?_LocCPQueryInterface@?$IConnectionPointImpl@VCOPOSCashChanger@@$1?IID_IPropertyNotifySink@@3U_GUID@@BVCComDynamicUnkArray@ATL@@@ATL@@UAGJABU_GUID@@PAPAX@Z 10002c0c f i CashChanger.obj
 0001:00001c59       ?GetConnectionInterface@?$IConnectionPointImpl@VCOPOSCashChanger@@$1?IID_IPropertyNotifySink@@3U_GUID@@BVCComDynamicUnkArray@ATL@@@ATL@@UAGJPAU_GUID@@@Z 10002c59 f i CashChanger.obj
 0001:00001c7d       ?GetConnectionPointContainer@?$IConnectionPointImpl@VCOPOSCashChanger@@$1?IID_IPropertyNotifySink@@3U_GUID@@BVCComDynamicUnkArray@ATL@@@ATL@@UAGJPAPAUIConnectionPointContainer@@@Z 10002c7d f i CashChanger.obj
 0001:00001ca0       ?Advise@?$IConnectionPointImpl@VCOPOSCashChanger@@$1?DIID__IOPOSCashChangerEvents@@3U_GUID@@BVCComDynamicUnkArray@ATL@@@ATL@@UAGJPAUIUnknown@@PAK@Z 10002ca0 f i CashChanger.obj
 0001:00001ca0       ?Advise@?$IConnectionPointImpl@VCOPOSCashChanger@@$1?IID_IPropertyNotifySink@@3U_GUID@@BVCComDynamicUnkArray@ATL@@@ATL@@UAGJPAUIUnknown@@PAK@Z 10002ca0 f i CashChanger.obj
 0001:00001d40       ?Unadvise@?$IConnectionPointImpl@VCOPOSCashChanger@@$1?DIID__IOPOSCashChangerEvents@@3U_GUID@@BVCComDynamicUnkArray@ATL@@@ATL@@UAGJK@Z 10002d40 f i CashChanger.obj
 0001:00001d40       ?Unadvise@?$IConnectionPointImpl@VCOPOSCashChanger@@$1?IID_IPropertyNotifySink@@3U_GUID@@BVCComDynamicUnkArray@ATL@@@ATL@@UAGJK@Z 10002d40 f i CashChanger.obj
 0001:00001d80       ?EnumConnections@?$IConnectionPointImpl@VCOPOSCashChanger@@$1?DIID__IOPOSCashChangerEvents@@3U_GUID@@BVCComDynamicUnkArray@ATL@@@ATL@@UAGJPAPAUIEnumConnections@@@Z 10002d80 f i CashChanger.obj
 0001:00001d80       ?EnumConnections@?$IConnectionPointImpl@VCOPOSCashChanger@@$1?IID_IPropertyNotifySink@@3U_GUID@@BVCComDynamicUnkArray@ATL@@@ATL@@UAGJPAPAUIEnumConnections@@@Z 10002d80 f i CashChanger.obj
 0001:00001e7b       ?GetCategoryMap@CComObjectRootBase@ATL@@SAPBU_ATL_CATMAP_ENTRY@2@XZ 10002e7b f i CashChanger.obj
 0001:00001e7b       ?GetObjectDescription@?$CComCoClass@VCOPOSCashChanger@@$1?CLSID_OPOSCashChanger@@3U_GUID@@B@ATL@@SGPB_WXZ 10002e7b f i CashChanger.obj
 0001:00001e7e       ?GetConnectionInterface@?$IConnectionPointImpl@VCOPOSCashChanger@@$1?DIID__IOPOSCashChangerEvents@@3U_GUID@@BVCComDynamicUnkArray@ATL@@@ATL@@UAGJPAU_GUID@@@Z 10002e7e f i CashChanger.obj
 0001:00001ea2       ?GetConnectionPointContainer@?$IConnectionPointImpl@VCOPOSCashChanger@@$1?DIID__IOPOSCashChangerEvents@@3U_GUID@@BVCComDynamicUnkArray@ATL@@@ATL@@UAGJPAPAUIConnectionPointContainer@@@Z 10002ea2 f i CashChanger.obj
 0001:00001ec5       ?UpdateRegistry@COPOSCashChanger@@SGJH@Z 10002ec5 f i CashChanger.obj
 0001:00001edd       ?ProcessWindowMessage@COPOSCashChanger@@UAEHPAUHWND__@@IIJAAJK@Z 10002edd f i CashChanger.obj
 0001:00001f26       ?SOData@COPOSCashChanger@@MAGJJ@Z 10002f26 f i CashChanger.obj
 0001:00001f5f       ?SODirectIO@COPOSCashChanger@@MAGJJPAJPAPA_W@Z 10002f5f f i CashChanger.obj
 0001:00001fa8       ?SOStatusUpdate@COPOSCashChanger@@MAGJJ@Z 10002fa8 f i CashChanger.obj
 0001:00001fe1       ?Lock@CAtlModule@ATL@@UAEJXZ 10002fe1 f i CashChanger.obj
 0001:00001feb       ?Unlock@CAtlModule@ATL@@UAEJXZ 10002feb f i CashChanger.obj
 0001:00001ff5       ?GetLockCount@CAtlModule@ATL@@UAEJXZ 10002ff5 f i CashChanger.obj
 0001:00001ff9       ?GetGITPtr@CAtlModule@ATL@@UAEJPAPAUIGlobalInterfaceTable@@@Z 10002ff9 f i CashChanger.obj
 0001:00002045       ?AddCommonRGSReplacements@?$CAtlModuleT@VCComModule@ATL@@@ATL@@UAEJPAUIRegistrarBase@@@Z 10003045 f i CashChanger.obj
 0001:0000205f       ?UpdateRegistryFromResourceD@CComModule@ATL@@UAGJPB_WHPAU_ATL_REGMAP_ENTRY@2@@Z 1000305f f i CashChanger.obj
 0001:0000205f       ?UpdateRegistryFromResourceD@CComModule@ATL@@UAGJIHPAU_ATL_REGMAP_ENTRY@2@@Z 1000305f f i CashChanger.obj
 0001:00002067       ?UpdateRegistryFromResource@CComModule@ATL@@UAGJPB_WHPAU_ATL_REGMAP_ENTRY@2@@Z 10003067 f i CashChanger.obj
 0001:00002070       ?UpdateRegistryFromResource@CComModule@ATL@@UAGJIHPAU_ATL_REGMAP_ENTRY@2@@Z 10003070 f i CashChanger.obj
 0001:00002079       ??_ECComModule@ATL@@UAEPAXI@Z 10003079 f i CashChanger.obj
 0001:00002079       ??_GCComModule@ATL@@UAEPAXI@Z 10003079 f i CashChanger.obj
 0001:000020a1       ?CreateInstance@?$CComCreator@V?$CComObjectCached@VCComClassFactory@ATL@@@ATL@@@ATL@@SGJPAXABU_GUID@@PAPAX@Z 100030a1 f i CashChanger.obj
 0001:00002141       ?CreateInstance@?$CComCreator2@V?$CComCreator@V?$CComObject@VCOPOSCashChanger@@@ATL@@@ATL@@V?$CComCreator@V?$CComAggObject@VCOPOSCashChanger@@@ATL@@@2@@ATL@@SGJPAXABU_GUID@@PAPAX@Z 10003141 f i CashChanger.obj
 0001:00002161       ?AddRef@?$CComObjectCached@VCComClassFactory@ATL@@@ATL@@UAGKXZ 10003161 f i CashChanger.obj
 0001:00002188       ?Release@?$CComObjectCached@VCComClassFactory@ATL@@@ATL@@UAGKXZ 10003188 f i CashChanger.obj
 0001:000021be       ?QueryInterface@?$CComObjectCached@VCComClassFactory@ATL@@@ATL@@UAGJABU_GUID@@PAPAX@Z 100031be f i CashChanger.obj
 0001:000021d8       ??_G?$CComObjectCached@VCComClassFactory@ATL@@@ATL@@UAEPAXI@Z 100031d8 f i CashChanger.obj
 0001:000021d8       ??_E?$CComObjectCached@VCComClassFactory@ATL@@@ATL@@UAEPAXI@Z 100031d8 f i CashChanger.obj
 0001:000021fa       ?Next@?$CComEnumImpl@UIEnumConnectionPoints@@$1?_GUID_b196b285_bab4_101a_b69c_00aa00341d07@@3U__s_GUID@@BPAUIConnectionPoint@@V?$_CopyInterface@UIConnectionPoint@@@ATL@@@ATL@@UAGJKPAPAUIConnectionPoint@@PAK@Z 100031fa f i CashChanger.obj
 0001:000022d1       ?Skip@?$CComEnumImpl@UIEnumConnectionPoints@@$1?_GUID_b196b285_bab4_101a_b69c_00aa00341d07@@3U__s_GUID@@BPAUIConnectionPoint@@V?$_CopyInterface@UIConnectionPoint@@@ATL@@@ATL@@UAGJK@Z 100032d1 f i CashChanger.obj
 0001:000022fe       ?Reset@?$CComEnumImpl@UIEnumConnectionPoints@@$1?_GUID_b196b285_bab4_101a_b69c_00aa00341d07@@3U__s_GUID@@BPAUIConnectionPoint@@V?$_CopyInterface@UIConnectionPoint@@@ATL@@@ATL@@UAGJXZ 100032fe f i CashChanger.obj
 0001:000022fe       ?Reset@?$CComEnumImpl@UIEnumConnections@@$1?_GUID_b196b287_bab4_101a_b69c_00aa00341d07@@3U__s_GUID@@BUtagCONNECTDATA@@V?$_Copy@UtagCONNECTDATA@@@ATL@@@ATL@@UAGJXZ 100032fe f i CashChanger.obj
 0001:00002310       ?Clone@?$CComEnumImpl@UIEnumConnectionPoints@@$1?_GUID_b196b285_bab4_101a_b69c_00aa00341d07@@3U__s_GUID@@BPAUIConnectionPoint@@V?$_CopyInterface@UIConnectionPoint@@@ATL@@@ATL@@UAGJPAPAUIEnumConnectionPoints@@@Z 10003310 f i CashChanger.obj
 0001:000023f1       ?AddRef@?$CComObject@V?$CComEnum@UIEnumConnections@@$1?_GUID_b196b287_bab4_101a_b69c_00aa00341d07@@3U__s_GUID@@BUtagCONNECTDATA@@V?$_Copy@UtagCONNECTDATA@@@ATL@@VCComSingleThreadModel@6@@ATL@@@ATL@@UAGKXZ 100033f1 f i CashChanger.obj
 0001:000023f1       ?AddRef@?$CComObject@V?$CComEnum@UIEnumConnectionPoints@@$1?_GUID_b196b285_bab4_101a_b69c_00aa00341d07@@3U__s_GUID@@BPAUIConnectionPoint@@V?$_CopyInterface@UIConnectionPoint@@@ATL@@VCComSingleThreadModel@6@@ATL@@@ATL@@UAGKXZ 100033f1 f i CashChanger.obj
 0001:00002402       ?Release@?$CComObject@V?$CComEnum@UIEnumConnections@@$1?_GUID_b196b287_bab4_101a_b69c_00aa00341d07@@3U__s_GUID@@BUtagCONNECTDATA@@V?$_Copy@UtagCONNECTDATA@@@ATL@@VCComSingleThreadModel@6@@ATL@@@ATL@@UAGKXZ 10003402 f i CashChanger.obj
 0001:00002402       ?Release@?$CComObject@V?$CComEnum@UIEnumConnectionPoints@@$1?_GUID_b196b285_bab4_101a_b69c_00aa00341d07@@3U__s_GUID@@BPAUIConnectionPoint@@V?$_CopyInterface@UIConnectionPoint@@@ATL@@VCComSingleThreadModel@6@@ATL@@@ATL@@UAGKXZ 10003402 f i CashChanger.obj
 0001:0000243e       ?QueryInterface@?$CComObject@V?$CComEnum@UIEnumConnectionPoints@@$1?_GUID_b196b285_bab4_101a_b69c_00aa00341d07@@3U__s_GUID@@BPAUIConnectionPoint@@V?$_CopyInterface@UIConnectionPoint@@@ATL@@VCComSingleThreadModel@6@@ATL@@@ATL@@UAGJABU_GUID@@PAPAX@Z 1000343e f i CashChanger.obj
 0001:00002458       ??_E?$CComObject@V?$CComEnum@UIEnumConnectionPoints@@$1?_GUID_b196b285_bab4_101a_b69c_00aa00341d07@@3U__s_GUID@@BPAUIConnectionPoint@@V?$_CopyInterface@UIConnectionPoint@@@ATL@@VCComSingleThreadModel@6@@ATL@@@ATL@@UAEPAXI@Z 10003458 f i CashChanger.obj
 0001:00002458       ??_G?$CComObject@V?$CComEnum@UIEnumConnectionPoints@@$1?_GUID_b196b285_bab4_101a_b69c_00aa00341d07@@3U__s_GUID@@BPAUIConnectionPoint@@V?$_CopyInterface@UIConnectionPoint@@@ATL@@VCComSingleThreadModel@6@@ATL@@@ATL@@UAEPAXI@Z 10003458 f i CashChanger.obj
 0001:0000247a       ?AddRef@CRegObject@ATL@@UAGKXZ 1000347a f i CashChanger.obj
 0001:00002480       ?AddReplacement@CRegObject@ATL@@UAGJPB_W0@Z 10003480 f i CashChanger.obj
 0001:000024b9       ?ClearReplacements@CRegObject@ATL@@UAGJXZ 100034b9 f i CashChanger.obj
 0001:000024cb       ??_GCRegObject@ATL@@UAEPAXI@Z 100034cb f i CashChanger.obj
 0001:000024cb       ??_ECRegObject@ATL@@UAEPAXI@Z 100034cb f i CashChanger.obj
 0001:000024ed       ?AddRef@?$CComAggObject@VCOPOSCashChanger@@@ATL@@UAGKXZ 100034ed f i CashChanger.obj
 0001:000024fe       ?Release@?$CComAggObject@VCOPOSCashChanger@@@ATL@@UAGKXZ 100034fe f i CashChanger.obj
 0001:0000253a       ?QueryInterface@?$CComAggObject@VCOPOSCashChanger@@@ATL@@UAGJABU_GUID@@PAPAX@Z 1000353a f i CashChanger.obj
 0001:00002589       ?AddRef@?$CComContainedObject@VCOPOSCashChanger@@@ATL@@UAGKXZ 10003589 f i CashChanger.obj
 0001:0000259f       ?Release@?$CComContainedObject@VCOPOSCashChanger@@@ATL@@UAGKXZ 1000359f f i CashChanger.obj
 0001:000025b5       ?QueryInterface@?$CComContainedObject@VCOPOSCashChanger@@@ATL@@UAGJABU_GUID@@PAPAX@Z 100035b5 f i CashChanger.obj
 0001:000025d0       ??_G?$CComAggObject@VCOPOSCashChanger@@@ATL@@UAEPAXI@Z 100035d0 f i CashChanger.obj
 0001:000025d0       ??_E?$CComAggObject@VCOPOSCashChanger@@@ATL@@UAEPAXI@Z 100035d0 f i CashChanger.obj
 0001:000025f5       ?AddRef@?$CComObject@VCOPOSCashChanger@@@ATL@@UAGKXZ 100035f5 f i CashChanger.obj
 0001:0000260c       ?Release@?$CComObject@VCOPOSCashChanger@@@ATL@@UAGKXZ 1000360c f i CashChanger.obj
 0001:0000264e       ?QueryInterface@?$CComObject@VCOPOSCashChanger@@@ATL@@UAGJABU_GUID@@PAPAX@Z 1000364e f i CashChanger.obj
 0001:00002668       ?OnDrawAdvanced@CComControlBase@ATL@@UAEJAAUATL_DRAWINFO@@@Z 10003668 f i CashChanger.obj
 0001:0000275b       ?Next@?$CComEnumImpl@UIEnumConnections@@$1?_GUID_b196b287_bab4_101a_b69c_00aa00341d07@@3U__s_GUID@@BUtagCONNECTDATA@@V?$_Copy@UtagCONNECTDATA@@@ATL@@@ATL@@UAGJKPAUtagCONNECTDATA@@PAK@Z 1000375b f i CashChanger.obj
 0001:00002832       ?Skip@?$CComEnumImpl@UIEnumConnections@@$1?_GUID_b196b287_bab4_101a_b69c_00aa00341d07@@3U__s_GUID@@BUtagCONNECTDATA@@V?$_Copy@UtagCONNECTDATA@@@ATL@@@ATL@@UAGJK@Z 10003832 f i CashChanger.obj
 0001:0000285f       ?Clone@?$CComEnumImpl@UIEnumConnections@@$1?_GUID_b196b287_bab4_101a_b69c_00aa00341d07@@3U__s_GUID@@BUtagCONNECTDATA@@V?$_Copy@UtagCONNECTDATA@@@ATL@@@ATL@@UAGJPAPAUIEnumConnections@@@Z 1000385f f i CashChanger.obj
 0001:00002940       ?QueryInterface@?$CComObject@V?$CComEnum@UIEnumConnections@@$1?_GUID_b196b287_bab4_101a_b69c_00aa00341d07@@3U__s_GUID@@BUtagCONNECTDATA@@V?$_Copy@UtagCONNECTDATA@@@ATL@@VCComSingleThreadModel@6@@ATL@@@ATL@@UAGJABU_GUID@@PAPAX@Z 10003940 f i CashChanger.obj
 0001:0000295a       ??_G?$CComObject@V?$CComEnum@UIEnumConnections@@$1?_GUID_b196b287_bab4_101a_b69c_00aa00341d07@@3U__s_GUID@@BUtagCONNECTDATA@@V?$_Copy@UtagCONNECTDATA@@@ATL@@VCComSingleThreadModel@6@@ATL@@@ATL@@UAEPAXI@Z 1000395a f i CashChanger.obj
 0001:0000295a       ??_E?$CComObject@V?$CComEnum@UIEnumConnections@@$1?_GUID_b196b287_bab4_101a_b69c_00aa00341d07@@3U__s_GUID@@BUtagCONNECTDATA@@V?$_Copy@UtagCONNECTDATA@@@ATL@@VCComSingleThreadModel@6@@ATL@@@ATL@@UAEPAXI@Z 1000395a f i CashChanger.obj
 0001:0000297c       ??$?4UITypeInfo2@@@?$CComPtr@UITypeInfo@@@ATL@@QAEPAUITypeInfo@@ABV?$CComPtr@UITypeInfo2@@@1@@Z 1000397c f i CashChanger.obj
 0001:000029a9       ??$AtlAdd@K@ATL@@YAJPAKKK@Z 100039a9 f i CashChanger.obj
 0001:000029cc       ??$AtlAdd@_K@ATL@@YAJPA_K_K1@Z 100039cc f i CashChanger.obj
 0001:00002a04       ??$AtlAddThrow@K@ATL@@YAKKK@Z 10003a04 f i CashChanger.obj
 0001:00002a2a       ??$AtlModuleRegisterWndClassInfoT@VAtlModuleRegisterWndClassInfoParamW@ATL@@@ATL@@YAGPAU_ATL_BASE_MODULE70@0@PAU_ATL_WIN_MODULE70@0@PAU_ATL_WNDCLASSINFOW@0@PAP6GJPAUHWND__@@IIJ@ZVAtlModuleRegisterWndClassInfoParamW@0@@Z 10003a2a f i CashChanger.obj
 0001:00002b78       ??$AtlMultiply@H@ATL@@YAJPAHHH@Z 10003b78 f i CashChanger.obj
 0001:00002bb0       ??$AtlMultiply@K@ATL@@YAJPAKKK@Z 10003bb0 f i CashChanger.obj
 0001:00002bb0       ??$AtlMultiply@I@ATL@@YAJPAIII@Z 10003bb0 f i CashChanger.obj
 0001:00002bd2       ??$AtlMultiplyThrow@I@ATL@@YAIII@Z 10003bd2 f i CashChanger.obj
 0001:00002bf8       ??0?$CComAggObject@VCOPOSCashChanger@@@ATL@@QAE@PAX@Z 10003bf8 f i CashChanger.obj
 0001:00002c25       ??0?$CComContainedObject@VCOPOSCashChanger@@@ATL@@QAE@PAX@Z 10003c25 f i CashChanger.obj
 0001:00002cde       ??0?$CComObject@V?$CComEnum@UIEnumConnectionPoints@@$1?_GUID_b196b285_bab4_101a_b69c_00aa00341d07@@3U__s_GUID@@BPAUIConnectionPoint@@V?$_CopyInterface@UIConnectionPoint@@@ATL@@VCComSingleThreadModel@6@@ATL@@@ATL@@QAE@PAX@Z 10003cde f i CashChanger.obj
 0001:00002d0c       ??0?$CComObject@V?$CComEnum@UIEnumConnections@@$1?_GUID_b196b287_bab4_101a_b69c_00aa00341d07@@3U__s_GUID@@BUtagCONNECTDATA@@V?$_Copy@UtagCONNECTDATA@@@ATL@@VCComSingleThreadModel@6@@ATL@@@ATL@@QAE@PAX@Z 10003d0c f i CashChanger.obj
 0001:00002d3a       ??0?$CComObject@VCOPOSCashChanger@@@ATL@@QAE@PAX@Z 10003d3a f i CashChanger.obj
 0001:00002df1       ??0?$CComQIPtr@UIOleControlSite@@$1?_GUID_b196b289_bab4_101a_b69c_00aa00341d07@@3U__s_GUID@@B@ATL@@QAE@PAUIUnknown@@@Z 10003df1 f i CashChanger.obj
 0001:00002e1a       ??0CAtlModule@ATL@@QAE@XZ  10003e1a f i CashChanger.obj
 0001:00002e5b       ??0CParseBuffer@CRegParser@ATL@@QAE@H@Z 10003e5b f i CashChanger.obj
 0001:00002e91       ??0_ATL_MSG@ATL@@QAE@PAUHWND__@@IIJH@Z 10003e91 f i CashChanger.obj
 0001:00002ec9       ??1?$CComAggObject@VCOPOSCashChanger@@@ATL@@UAE@XZ 10003ec9 f i CashChanger.obj
 0001:00002eed       ??1?$CComEnumImpl@UIEnumConnectionPoints@@$1?_GUID_b196b285_bab4_101a_b69c_00aa00341d07@@3U__s_GUID@@BPAUIConnectionPoint@@V?$_CopyInterface@UIConnectionPoint@@@ATL@@@ATL@@UAE@XZ 10003eed f i CashChanger.obj
 0001:00002f2d       ??1?$CComEnumImpl@UIEnumConnections@@$1?_GUID_b196b287_bab4_101a_b69c_00aa00341d07@@3U__s_GUID@@BUtagCONNECTDATA@@V?$_Copy@UtagCONNECTDATA@@@ATL@@@ATL@@UAE@XZ 10003f2d f i CashChanger.obj
 0001:00002f6d       ??1?$CComObject@V?$CComEnum@UIEnumConnectionPoints@@$1?_GUID_b196b285_bab4_101a_b69c_00aa00341d07@@3U__s_GUID@@BPAUIConnectionPoint@@V?$_CopyInterface@UIConnectionPoint@@@ATL@@VCComSingleThreadModel@6@@ATL@@@ATL@@UAE@XZ 10003f6d f i CashChanger.obj
 0001:00002f90       ??1?$CComObject@V?$CComEnum@UIEnumConnections@@$1?_GUID_b196b287_bab4_101a_b69c_00aa00341d07@@3U__s_GUID@@BUtagCONNECTDATA@@V?$_Copy@UtagCONNECTDATA@@@ATL@@VCComSingleThreadModel@6@@ATL@@@ATL@@UAE@XZ 10003f90 f i CashChanger.obj
 0001:00002fb3       ??1?$CComObject@VCOPOSCashChanger@@@ATL@@UAE@XZ 10003fb3 f i CashChanger.obj
 0001:00003071       ??1?$CComObjectCached@VCComClassFactory@ATL@@@ATL@@UAE@XZ 10004071 f i CashChanger.obj
 0001:00003087       ??1?$CComObjectRootEx@VCComMultiThreadModel@ATL@@@ATL@@QAE@XZ 10004087 f i CashChanger.obj
 0001:0000309c       ??1CRegObject@ATL@@UAE@XZ  1000409c f i CashChanger.obj
 0001:000030bc       ??4?$CComPtr@UIOleClientSite@@@ATL@@QAEPAUIOleClientSite@@PAU2@@Z 100040bc f i CashChanger.obj
 0001:000030bc       ??4?$CComPtr@UIAdviseSink@@@ATL@@QAEPAUIAdviseSink@@PAU2@@Z 100040bc f i CashChanger.obj
 0001:000030bc       ??4?$CComPtr@UIUnknown@@@ATL@@QAEPAUIUnknown@@PAU2@@Z 100040bc f i CashChanger.obj
 0001:000030f0       ??_E?$CComContainedObject@VCOPOSCashChanger@@@ATL@@UAEPAXI@Z 100040f0 f i CashChanger.obj
 0001:000030f0       ??_G?$CComContainedObject@VCOPOSCashChanger@@@ATL@@UAEPAXI@Z 100040f0 f i CashChanger.obj
 0001:00003115       ??_G?$CComObject@VCOPOSCashChanger@@@ATL@@UAEPAXI@Z 10004115 f i CashChanger.obj
 0001:00003115       ??_E?$CComObject@VCOPOSCashChanger@@@ATL@@UAEPAXI@Z 10004115 f i CashChanger.obj
 0001:0000313a       ?Add@?$CSimpleArray@GV?$CSimpleArrayEqualHelper@G@ATL@@@ATL@@QAEHABG@Z 1000413a f i CashChanger.obj
 0001:000031be       ?Add@?$CSimpleMap@PA_WPA_WVCExpansionVectorEqualHelper@ATL@@@ATL@@QAEHABQA_W0@Z 100041be f i CashChanger.obj
 0001:00003213       ?Add@CComDynamicUnkArray@ATL@@QAEKPAUIUnknown@@@Z 10004213 f i CashChanger.obj
 0001:000032c9       ?Add@CExpansionVector@ATL@@QAEHPB_W0@Z 100042c9 f i CashChanger.obj
 0001:000033d2       ?AddString@CParseBuffer@CRegParser@ATL@@QAEHPB_W@Z 100043d2 f i CashChanger.obj
 0001:00003407       ?AddTermFunc@CAtlModule@ATL@@QAEJP6GXK@ZK@Z 10004407 f i CashChanger.obj
 0001:0000346a       ?AddValue@CRegParser@ATL@@IAEJAAVCRegKey@2@PB_WPA_W@Z 1000446a f i CashChanger.obj
 0001:00003784       ?Allocate@?$CAtlSafeAllocBufferManager@VCCRTAllocator@ATL@@@_ATL_SAFE_ALLOCA_IMPL@ATL@@QAEPAXK@Z 10004784 f i CashChanger.obj
 0001:000037b1       ?Allocate@?$CTempBuffer@E$0BAA@VCCRTAllocator@ATL@@@ATL@@QAEPAEI@Z 100047b1 f i CashChanger.obj
 0001:000037e0       ?Allocate@?$CTempBuffer@_W$0BAA@VCCRTAllocator@ATL@@@ATL@@QAEPA_WI@Z 100047e0 f i CashChanger.obj
 0001:0000380f       ?Allocate@?$CTempBuffer@_W$0EAA@VCCRTAllocator@ATL@@@ATL@@QAEPA_WI@Z 1000480f f i CashChanger.obj
 0001:0000383e       ?AllocateHeap@?$CTempBuffer@E$0BAA@VCCRTAllocator@ATL@@@ATL@@AAEXI@Z 1000483e f i CashChanger.obj
 0001:0000383e       ?AllocateHeap@?$CTempBuffer@_W$0EAA@VCCRTAllocator@ATL@@@ATL@@AAEXI@Z 1000483e f i CashChanger.obj
 0001:0000383e       ?AllocateHeap@?$CTempBuffer@_W$0BAA@VCCRTAllocator@ATL@@@ATL@@AAEXI@Z 1000483e f i CashChanger.obj
 0001:00003863       ?Append@CParseBuffer@CRegParser@ATL@@QAEHPB_WH@Z 10004863 f i CashChanger.obj
 0001:000038f1       ?AtlCoTaskMemCAlloc@ATL@@YAPAXKK@Z 100048f1 f i CashChanger.obj
 0001:0000391e       ?AtlCoTaskMemRecalloc@ATL@@YAPAXPAXKK@Z 1000491e f i CashChanger.obj
 0001:0000394e       ?AtlComModuleGetClassObject@ATL@@YGJPAU_ATL_COM_MODULE70@1@ABU_GUID@@1PAPAX@Z 1000494e f i CashChanger.obj
 0001:00003a41       ?AtlComModuleRegisterServer@ATL@@YGJPAU_ATL_COM_MODULE70@1@HPBU_GUID@@@Z 10004a41 f i CashChanger.obj
 0001:00003ac9       ?AtlComModuleUnregisterServer@ATL@@YGJPAU_ATL_COM_MODULE70@1@HPBU_GUID@@@Z 10004ac9 f i CashChanger.obj
 0001:00003b51       ?AtlComQIPtrAssign2@ATL@@YAXPAPAUIUnknown@@PAU2@ABU_GUID@@@Z 10004b51 f i CashChanger.obj
 0001:00003b80       ?AtlCreateTargetDC@ATL@@YGPAUHDC__@@PAU2@PAUtagDVTARGETDEVICE@@@Z 10004b80 f i CashChanger.obj
 0001:00003be9       ?AtlCrtErrorCheck@ATL@@YAHH@Z 10004be9 f i CashChanger.obj
 0001:00003c24       ?AtlHiMetricToPixel@ATL@@YGXPBUtagSIZE@@PAU2@@Z 10004c24 f i CashChanger.obj
 0001:00003c99       ?AtlHresultFromLastError@ATL@@YAJXZ 10004c99 f i CashChanger.obj
 0001:00003cb0       ?AtlHresultFromWin32@ATL@@YAJK@Z 10004cb0 f i CashChanger.obj
 0001:00003cc5       ?AtlInternalOleLoadFromStream@ATL@@YAJPAUIStream@@ABU_GUID@@PAPAXTClassesAllowedInStream@1@K@Z 10004cc5 f i CashChanger.obj
 0001:00003de3       ?AtlInternalQueryInterface@ATL@@YGJPAXPBU_ATL_INTMAP_ENTRY@1@ABU_GUID@@PAPAX@Z 10004de3 f i CashChanger.obj
 0001:00003e86       ?AtlLoadTypeLib@ATL@@YGJPAUHINSTANCE__@@PB_WPAPA_WPAPAUITypeLib@@@Z 10004e86 f i CashChanger.obj
 0001:00004064       ?AtlRegisterClassCategoriesHelper@ATL@@YGJABU_GUID@@PBU_ATL_CATMAP_ENTRY@1@H@Z 10005064 f i CashChanger.obj
 0001:00004360       ?AtlRegisterTypeLib@ATL@@YGJPAUHINSTANCE__@@PB_W@Z 10005360 f i CashChanger.obj
 0001:000044e8       ?AtlThrowImpl@ATL@@YGXJ@Z  100054e8 f i CashChanger.obj
 0001:00004506       ?AtlUnRegisterTypeLib@ATL@@YGJPAUHINSTANCE__@@PB_W@Z 10005506 f i CashChanger.obj
 0001:000045b1       ?AtlWinModuleAddCreateWndData@ATL@@YGXPAU_ATL_WIN_MODULE70@1@PAU_AtlCreateWndData@1@PAX@Z 100055b1 f i CashChanger.obj
 0001:00004605       ?AtlWinModuleExtractCreateWndData@ATL@@YGPAXPAU_ATL_WIN_MODULE70@1@@Z 10005605 f i CashChanger.obj
 0001:00004668       ?AtlWinModuleRegisterClassExW@ATL@@YGGPAU_ATL_WIN_MODULE70@1@PBUtagWNDCLASSEXW@@@Z 10005668 f i CashChanger.obj
 0001:000046a7       ?CanForceRemoveKey@CRegParser@ATL@@IAEHPB_W@Z 100056a7 f i CashChanger.obj
 0001:000046d6       ?ChToByte@CRegParser@ATL@@KAE_W@Z 100056d6 f i CashChanger.obj
 0001:00004709       ?Cleanup@CComTypeInfoHolder@ATL@@SGXK@Z 10005709 f i CashChanger.obj
 0001:0000473c       ?ClearReplacements@CExpansionVector@ATL@@QAEJXZ 1000573c f i CashChanger.obj
 0001:00004779       ?Close@CRegKey@ATL@@QAEJXZ 10005779 f i CashChanger.obj
 0001:00004793       ?CreateInstance@?$CComCreator@V?$CComAggObject@VCOPOSCashChanger@@@ATL@@@ATL@@SGJPAXABU_GUID@@PAPAX@Z 10005793 f i CashChanger.obj
 0001:00004808       ?CreateInstance@?$CComCreator@V?$CComObject@VCOPOSCashChanger@@@ATL@@@ATL@@SGJPAXABU_GUID@@PAPAX@Z 10005808 f i CashChanger.obj
 0001:00004888       ?CreateInstance@?$CComObject@V?$CComEnum@UIEnumConnectionPoints@@$1?_GUID_b196b285_bab4_101a_b69c_00aa00341d07@@3U__s_GUID@@BPAUIConnectionPoint@@V?$_CopyInterface@UIConnectionPoint@@@ATL@@VCComSingleThreadModel@6@@ATL@@@ATL@@SGJPAPAV12@@Z 10005888 f i CashChanger.obj
 0001:000048d2       ?CreateInstance@?$CComObject@V?$CComEnum@UIEnumConnections@@$1?_GUID_b196b287_bab4_101a_b69c_00aa00341d07@@3U__s_GUID@@BUtagCONNECTDATA@@V?$_Copy@UtagCONNECTDATA@@@ATL@@VCComSingleThreadModel@6@@ATL@@@ATL@@SGJPAPAV12@@Z 100058d2 f i CashChanger.obj
 0001:0000491c       ?DefaultReflectionHandler@?$CWindowImplRoot@VCWindow@ATL@@@ATL@@SAHPAUHWND__@@IIJAAJ@Z 1000591c f i CashChanger.obj
 0001:0000498f       ?DeleteSubKey@CRegKey@ATL@@QAEJPB_W@Z 1000598f f i CashChanger.obj
 0001:00004a08       ?DoEvent@COPOSCashChanger@@IAEXIIJ@Z 10005a08 f i CashChanger.obj
 0001:00004a88       ?DoVerbHide@?$IOleObjectImpl@VCOPOSCashChanger@@@ATL@@QAEJPBUtagRECT@@PAUHWND__@@@Z 10005a88 f i CashChanger.obj
 0001:00004abe       ?DoVerbInPlaceActivate@?$IOleObjectImpl@VCOPOSCashChanger@@@ATL@@QAEJPBUtagRECT@@PAUHWND__@@@Z 10005abe f i CashChanger.obj
 0001:00004af1       ?DoVerbPrimary@?$IOleObjectImpl@VCOPOSCashChanger@@@ATL@@QAEJPBUtagRECT@@PAUHWND__@@@Z 10005af1 f i CashChanger.obj
 0001:00004b7d       ?DoVerbProperties@CComControlBase@ATL@@QAEJPBUtagRECT@@PAUHWND__@@@Z 10005b7d f i CashChanger.obj
 0001:00004cfc       ?DoVerbUIActivate@?$IOleObjectImpl@VCOPOSCashChanger@@@ATL@@QAEJPBUtagRECT@@PAUHWND__@@@Z 10005cfc f i CashChanger.obj
 0001:00004d39       ?DoesVerbActivate@CComControlBase@ATL@@QAEHJ@Z 10005d39 f i CashChanger.obj
 0001:00004d5a       ?DoesVerbUIActivate@CComControlBase@ATL@@QAEHJ@Z 10005d5a f i CashChanger.obj
 0001:00004d8f       ?EndOfVar@CRegParser@ATL@@IAEHXZ 10005d8f f i CashChanger.obj
 0001:00004daf       ?EscapeSingleQuote@CAtlModule@ATL@@SAXPA_WIPB_W@Z 10005daf f i CashChanger.obj
 0001:00004dfe       ?FindKey@?$CSimpleMap@PA_WPA_WVCExpansionVectorEqualHelper@ATL@@@ATL@@QBEHABQA_W@Z 10005dfe f i CashChanger.obj
 0001:00004e35       ?FireTheEvent@?$CProxy_IOPOSEvents@VCOPOSCashChanger@@@@IAEXPAVOposVariant@@IAAJPB_WJ@Z 10005e35 f i CashChanger.obj
 0001:00004ec7       ?FireViewChange@CComControlBase@ATL@@QAEJXZ 10005ec7 f i CashChanger.obj
 0001:00004f10       ?Fire_DataEvent@?$CProxy_IOPOSEvents@VCOPOSCashChanger@@@@QAEXJ@Z 10005f10 f i CashChanger.obj
 0001:00004fa6       ?Fire_DirectIOEvent@?$CProxy_IOPOSEvents@VCOPOSCashChanger@@@@QAEXJPAJPAPA_W@Z 10005fa6 f i CashChanger.obj
 0001:00005092       ?Fire_StatusUpdateEvent@?$CProxy_IOPOSEvents@VCOPOSCashChanger@@@@QAEXJ@Z 10006092 f i CashChanger.obj
 0001:00005128       ?FreeHeap@?$CTempBuffer@E$0BAA@VCCRTAllocator@ATL@@@ATL@@AAEXXZ 10006128 f i CashChanger.obj
 0001:00005128       ?FreeHeap@?$CTempBuffer@_W$0BAA@VCCRTAllocator@ATL@@@ATL@@AAEXXZ 10006128 f i CashChanger.obj
 0001:00005128       ?FreeHeap@?$CTempBuffer@_W$0EAA@VCCRTAllocator@ATL@@@ATL@@AAEXXZ 10006128 f i CashChanger.obj
 0001:00005131       ?GetAmbientLocaleID@CComControlBase@ATL@@QAEJAAK@Z 10006131 f i CashChanger.obj
 0001:0000518d       ?GetAmbientUserMode@CComControlBase@ATL@@QAEJAAH@Z 1000618d f i CashChanger.obj
 0001:000051fd       ?GetAt@CComDynamicUnkArray@ATL@@QAEPAUIUnknown@@H@Z 100061fd f i CashChanger.obj
 0001:00005219       ?GetClassObject@CComModule@ATL@@QAEJABU_GUID@@0PAPAX@Z 10006219 f i CashChanger.obj
 0001:000052bb       ?GetConnMap@COPOSCashChanger@@SAPBU_ATL_CONNMAP_ENTRY@ATL@@PAH@Z 100062bb f i CashChanger.obj
 0001:0000532b       ?GetCookie@CComDynamicUnkArray@ATL@@QAGKPAPAUIUnknown@@@Z 1000632b f i CashChanger.obj
 0001:00005363       ?GetIDsOfNames@CComTypeInfoHolder@ATL@@QAEJABU_GUID@@PAPA_WIKPAJ@Z 10006363 f i CashChanger.obj
 0001:0000548a       ?GetKeyAt@?$CSimpleMap@PA_WPA_WVCExpansionVectorEqualHelper@ATL@@@ATL@@QBEAAPA_WH@Z 1000648a f i CashChanger.obj
 0001:000054af       ?GetPagesHelper@?$ISpecifyPropertyPagesImpl@VCOPOSCashChanger@@@ATL@@IAEJPAUtagCAUUID@@PBUATL_PROPMAP_ENTRY@2@@Z 100064af f i CashChanger.obj
 0001:000055d6       ?GetProperty@?$CComPtr@UIDispatch@@@ATL@@SAJPAUIDispatch@@JPAUtagVARIANT@@@Z 100065d6 f i CashChanger.obj
 0001:00005625       ?GetSizeMax@CComVariant@ATL@@QBEJPAT_ULARGE_INTEGER@@@Z 10006625 f i CashChanger.obj
 0001:000057e7       ?GetTI@CComTypeInfoHolder@ATL@@QAEJK@Z 100067e7 f i CashChanger.obj
 0001:000059c6       ?GetTI@CComTypeInfoHolder@ATL@@QAEJKPAPAUITypeInfo@@@Z 100069c6 f i CashChanger.obj
 0001:00005a08       ?GetUnknown@CComDynamicUnkArray@ATL@@QAGPAUIUnknown@@K@Z 10006a08 f i CashChanger.obj
 0001:00005a29       ?GetValueAt@?$CSimpleMap@PA_WPA_WVCExpansionVectorEqualHelper@ATL@@@ATL@@QBEAAPA_WH@Z 10006a29 f i CashChanger.obj
 0001:00005a4f       ?GetZoomInfo@CComControlBase@ATL@@QAEXAAUATL_DRAWINFO@@@Z 10006a4f f i CashChanger.obj
 0001:00005ae2       ?HKeyFromString@CRegParser@ATL@@KAPAUHKEY__@@PA_W@Z 10006ae2 f i CashChanger.obj
 0001:00005b10       ?HasSubKeys@CRegParser@ATL@@IAEHPAUHKEY__@@@Z 10006b10 f i CashChanger.obj
 0001:00005b45       ?IDataObject_GetData@CComControlBase@ATL@@QAEJPAUtagFORMATETC@@PAUtagSTGMEDIUM@@@Z 10006b45 f i CashChanger.obj
 0001:00005ceb       ?IOleInPlaceObject_InPlaceDeactivate@CComControlBase@ATL@@QAEJXZ 10006ceb f i CashChanger.obj
 0001:00005d72       ?IOleInPlaceObject_SetObjectRects@CComControlBase@ATL@@QAEJPBUtagRECT@@0@Z 10006d72 f i CashChanger.obj
 0001:00005e3f       ?IOleInPlaceObject_UIDeactivate@CComControlBase@ATL@@QAEJXZ 10006e3f f i CashChanger.obj
 0001:00005f01       ?IOleObject_Advise@CComControlBase@ATL@@QAEJPAUIAdviseSink@@PAK@Z 10006f01 f i CashChanger.obj
 0001:00005f2b       ?IOleObject_Close@CComControlBase@ATL@@QAEJK@Z 10006f2b f i CashChanger.obj
 0001:0000600f       ?IOleObject_GetClientSite@CComControlBase@ATL@@QAEJPAPAUIOleClientSite@@@Z 1000700f f i CashChanger.obj
 0001:00006038       ?IOleObject_SetClientSite@CComControlBase@ATL@@QAEJPAUIOleClientSite@@@Z 10007038 f i CashChanger.obj
 0001:00006077       ?IOleObject_SetExtent@CComControlBase@ATL@@QAEJKPAUtagSIZE@@@Z 10007077 f i CashChanger.obj
 0001:0000612b       ?IPSI_GetIPersistStreamInit@?$IPersistStorageImpl@VCOPOSCashChanger@@@ATL@@AAEPAUIPersistStreamInit@@XZ 1000712b f i CashChanger.obj
 0001:000061d3       ?IPersistStreamInit_Load@?$IPersistStreamInitImpl@VCOPOSCashChanger@@@ATL@@QAEJPAUIStream@@PBUATL_PROPMAP_ENTRY@2@@Z 100071d3 f i CashChanger.obj
 0001:00006448       ?IPersistStreamInit_Save@?$IPersistStreamInitImpl@VCOPOSCashChanger@@@ATL@@QAEJPAUIStream@@HPBUATL_PROPMAP_ENTRY@2@@Z 10007448 f i CashChanger.obj
 0001:00006636       ?IQuickActivate_QuickActivate@CComControlBase@ATL@@QAEJPAUtagQACONTAINER@@PAUtagQACONTROL@@@Z 10007636 f i CashChanger.obj
 0001:00006878       ?IViewObject_Draw@CComControlBase@ATL@@QAEJKJPAXPAUtagDVTARGETDEVICE@@PAUHDC__@@2PBU_RECTL@@3@Z 10007878 f i CashChanger.obj
 0001:00006920       ?InPlaceActivate@CComControlBase@ATL@@QAEJJPBUtagRECT@@@Z 10007920 f i CashChanger.obj
 0001:00006b91       ?Init@?$CComEnumImpl@UIEnumConnectionPoints@@$1?_GUID_b196b285_bab4_101a_b69c_00aa00341d07@@3U__s_GUID@@BPAUIConnectionPoint@@V?$_CopyInterface@UIConnectionPoint@@@ATL@@@ATL@@QAEJPAPAUIConnectionPoint@@0PAUIUnknown@@W4CComEnumFlags@2@@Z 10007b91 f i CashChanger.obj
 0001:00006c70       ?Init@?$CComEnumImpl@UIEnumConnections@@$1?_GUID_b196b287_bab4_101a_b69c_00aa00341d07@@3U__s_GUID@@BUtagCONNECTDATA@@V?$_Copy@UtagCONNECTDATA@@@ATL@@@ATL@@QAEJPAUtagCONNECTDATA@@0PAUIUnknown@@W4CComEnumFlags@2@@Z 10007c70 f i CashChanger.obj
 0001:00006d4f       ?Init@CComModule@ATL@@QAEJPAU_ATL_OBJMAP_ENTRY30@2@PAUHINSTANCE__@@PBU_GUID@@@Z 10007d4f f i CashChanger.obj
 0001:00006dae       ?Init@CDynamicStdCallThunk2@ATL@@QAEHKPAX@Z 10007dae f i CashChanger.obj
 0001:00006dd9       ?InlineIsEqualUnknown@ATL@@YGHABU_GUID@@@Z 10007dd9 f i CashChanger.obj
 0001:00006e01       ?InternalSetAtIndex@?$CSimpleMap@PA_WPA_WVCExpansionVectorEqualHelper@ATL@@@ATL@@QAEXHABQA_W0@Z 10007e01 f i CashChanger.obj
 0001:00006e2b       ?Invoke@CComTypeInfoHolder@ATL@@QAEJPAUIDispatch@@JABU_GUID@@KGPAUtagDISPPARAMS@@PAUtagVARIANT@@PAUtagEXCEPINFO@@PAI@Z 10007e2b f i CashChanger.obj
 0001:00006e6e       ?IsEqualObject@?$CComPtrBase@UIOleClientSite@@@ATL@@QAE_NPAUIUnknown@@@Z 10007e6e f i CashChanger.obj
 0001:00006e6e       ?IsEqualObject@?$CComPtrBase@UITypeInfo@@@ATL@@QAE_NPAUIUnknown@@@Z 10007e6e f i CashChanger.obj
 0001:00006edb       ?IsSpace@CRegParser@ATL@@IAEH_W@Z 10007edb f i CashChanger.obj
 0001:00006f05       ?LoadNameCache@CComTypeInfoHolder@ATL@@QAEJPAUITypeInfo@@@Z 10007f05 f i CashChanger.obj
 0001:0000703a       ?Lookup@?$CSimpleMap@PA_WPA_WVCExpansionVectorEqualHelper@ATL@@@ATL@@QBEPA_WABQA_W@Z 1000803a f i CashChanger.obj
 0001:00007060       ?NextToken@CRegParser@ATL@@IAEJPA_W@Z 10008060 f i CashChanger.obj
 0001:00007198       ?OnKillFocus@CComControlBase@ATL@@QAEJIIJAAH@Z 10008198 f i CashChanger.obj
 0001:000071f3       ?OnMouseActivate@CComControlBase@ATL@@QAEJIIJAAH@Z 100081f3 f i CashChanger.obj
 0001:00007261       ?OnPaint@CComControlBase@ATL@@QAEJIIJAAH@Z 10008261 f i CashChanger.obj
 0001:00007313       ?OnSetFocus@CComControlBase@ATL@@QAEJIIJAAH@Z 10008313 f i CashChanger.obj
 0001:0000739c       ?Open@CRegKey@ATL@@QAEJPAUHKEY__@@PB_WK@Z 1000839c f i CashChanger.obj
 0001:000073f1       ?PreProcessBuffer@CRegParser@ATL@@QAEJPA_WPAPA_W@Z 100083f1 f i CashChanger.obj
 0001:00007660       ?ProcessWindowMessage@?$CComControl@VCOPOSCashChanger@@V?$CWindowImpl@VCOPOSCashChanger@@VCWindow@ATL@@V?$CWinTraits@$0FGAAAAAA@$0A@@3@@ATL@@@ATL@@UAEHPAUHWND__@@IIJAAJK@Z 10008660 f i CashChanger.obj
 0001:000076ff       ?ReadFromStream@CComBSTR@ATL@@QAEJPAUIStream@@@Z 100086ff f i CashChanger.obj
 0001:00007822       ?ReadFromStream@CComVariant@ATL@@QAEJPAUIStream@@GTClassesAllowedInStream@2@K@Z 10008822 f i CashChanger.obj
 0001:000079ac       ?RecurseDeleteKey@CRegKey@ATL@@QAEJPB_W@Z 100089ac f i CashChanger.obj
 0001:00007a9a       ?RegCreateKeyExW@CAtlTransactionManager@ATL@@QAEJPAUHKEY__@@PB_WKPA_WKKQAU_SECURITY_ATTRIBUTES@@PAPAU3@PAK@Z 10008a9a f i CashChanger.obj
 0001:00007afd       ?RegDeleteKeyW@CAtlTransactionManager@ATL@@QAEJPAUHKEY__@@PB_W@Z 10008afd f i CashChanger.obj
 0001:00007b4f       ?RegOpenKeyExW@CAtlTransactionManager@ATL@@QAEJPAUHKEY__@@PB_WKKPAPAU3@@Z 10008b4f f i CashChanger.obj
 0001:00007ba6       ?Register@_ATL_WNDCLASSINFOW@ATL@@QAEGPAP6GJPAUHWND__@@IIJ@Z@Z 10008ba6 f i CashChanger.obj
 0001:00007bc6       ?RegisterBuffer@CRegParser@ATL@@QAEJPA_WH@Z 10008bc6 f i CashChanger.obj
 0001:00007d0d       ?RegisterFromResource@CRegObject@ATL@@IAEJPB_W00H@Z 10008d0d f i CashChanger.obj
 0001:00007e43       ?RegisterServer@?$CAtlModuleT@VCComModule@ATL@@@ATL@@QAEJHPBU_GUID@@@Z 10008e43 f i CashChanger.obj
 0001:00007e71       ?RegisterServer@CComModule@ATL@@QAEJHPBU_GUID@@@Z 10008e71 f i CashChanger.obj
 0001:00007ee7       ?RegisterSubkeys@CRegParser@ATL@@IAEJPA_WPAUHKEY__@@HH@Z 10008ee7 f i CashChanger.obj
 0001:00008594       ?Remove@CComDynamicUnkArray@ATL@@QAEHK@Z 10009594 f i CashChanger.obj
 0001:000085bd       ?RemoveAll@?$CSimpleMap@PA_WPA_WVCExpansionVectorEqualHelper@ATL@@@ATL@@QAEXXZ 100095bd f i CashChanger.obj
 0001:000085e9       ?ResourceRegisterSz@CRegObject@ATL@@QAGJPB_W00@Z 100095e9 f i CashChanger.obj
 0001:00008616       ?ResourceUnregisterSz@CRegObject@ATL@@QAGJPB_W00@Z 10009616 f i CashChanger.obj
 0001:00008643       ?SendOnDataChange@CComControlBase@ATL@@QAEJK@Z 10009643 f i CashChanger.obj
 0001:00008690       ?SetControlFocus@CComControlBase@ATL@@QAEHH@Z 10009690 f i CashChanger.obj
 0001:0000872d       ?SetMultiStringValue@CRegKey@ATL@@QAEJPB_W0@Z 1000972d f i CashChanger.obj
 0001:00008789       ?SetStringValue@CRegKey@ATL@@QAEJPB_W0K@Z 10009789 f i CashChanger.obj
 0001:000087d2       ?SkipAssignment@CRegParser@ATL@@IAEJPA_W@Z 100097d2 f i CashChanger.obj
 0001:00008837       ?SkipWhiteSpace@CRegParser@ATL@@IAEXXZ 10009837 f i CashChanger.obj
 0001:00008859       ?StrChrW@CRegParser@ATL@@KAPA_WPA_W_W@Z 10009859 f i CashChanger.obj
 0001:00008896       ?Term@CAtlModule@ATL@@QAEXXZ 10009896 f i CashChanger.obj
 0001:000088e9       ?Term@CComModule@ATL@@QAEXXZ 100098e9 f i CashChanger.obj
 0001:00008941       ?UnregisterServer@?$CAtlModuleT@VCComModule@ATL@@@ATL@@QAEJHPBU_GUID@@@Z 10009941 f i CashChanger.obj
 0001:00008967       ?UnregisterServer@CComModule@ATL@@QAEJHPBU_GUID@@@Z 10009967 f i CashChanger.obj
 0001:000089dd       ?UpdateRegistryFromResource@CAtlModule@ATL@@QAGJIHPAU_ATL_REGMAP_ENTRY@2@@Z 100099dd f i CashChanger.obj
 0001:00008ba8       ?UpdateRegistryFromResource@CAtlModule@ATL@@QAGJPB_WHPAU_ATL_REGMAP_ENTRY@2@@Z 10009ba8 f i CashChanger.obj
 0001:00008d79       ?VTFromRegType@CRegParser@ATL@@KAHPB_WAAG@Z 10009d79 f i CashChanger.obj
 0001:00008de6       ?WindowProc@?$CWindowImplBaseT@VCWindow@ATL@@V?$CWinTraits@$0FGAAAAAA@$0A@@2@@ATL@@SGJPAUHWND__@@IIJ@Z 10009de6 f i CashChanger.obj
 0001:00008ed8       ?WriteToStream@CComBSTR@ATL@@QAEJPAUIStream@@@Z 10009ed8 f i CashChanger.obj
 0001:00008f3a       ?WriteToStream@CComVariant@ATL@@QAEJPAUIStream@@@Z 10009f3a f i CashChanger.obj
 0001:000090b4       ?WriteToStream@CComVariant@ATL@@QAEJPAUIStream@@G@Z 1000a0b4 f i CashChanger.obj
 0001:0000911d       ?_AtlInitialConstruct@?$CComObjectRootEx@VCComMultiThreadModel@ATL@@@ATL@@QAEJXZ 1000a11d f i CashChanger.obj
 0001:00009132       ?_AtlVerifyStackAvailable@_ATL_SAFE_ALLOCA_IMPL@ATL@@YA_NK@Z 1000a132 f i CashChanger.obj
 0001:000091b0       ?atlCreate@?$CWindowImpl@VCOPOSCashChanger@@VCWindow@ATL@@V?$CWinTraits@$0FGAAAAAA@$0A@@3@@ATL@@QAEPAUHWND__@@PAU3@V_U_RECT@2@PB_WKKV_U_MENUorID@2@PAX@Z 1000a1b0 f i CashChanger.obj
 0001:000091f4       ?atlCreate@?$CWindowImplBaseT@VCWindow@ATL@@V?$CWinTraits@$0FGAAAAAA@$0A@@2@@ATL@@QAEPAUHWND__@@PAU3@V_U_RECT@2@PB_WKKV_U_MENUorID@2@GPAX@Z 1000a1f4 f i CashChanger.obj
 0001:00009290       ?copy@?$_Copy@UtagCONNECTDATA@@@ATL@@SAJPAUtagCONNECTDATA@@PBU3@@Z 1000a290 f i CashChanger.obj
 0001:000092c6       ?copy@?$_CopyInterface@UIConnectionPoint@@@ATL@@SAJPAPAUIConnectionPoint@@PBQAU3@@Z 1000a2c6 f i CashChanger.obj
 0001:000092f4       ?memcpy_s@Checked@ATL@@YAXPAXIPBXI@Z 1000a2f4 f i CashChanger.obj
 0001:00009313       ?ocscpy_s@@YA_NPA_WIPB_W@Z 1000a313 f i CashChanger.obj
 0001:0000935d       ?wcscpy_s@Checked@ATL@@YAXPA_WIPB_W@Z 1000a35d f i CashChanger.obj
 0001:00009379       _DllCanUnloadNow@0         1000a379 f   CashChanger.obj
 0001:00009385       _DllGetClassObject@12      1000a385 f   CashChanger.obj
 0001:00009393       _DllMain@12                1000a393 f   CashChanger.obj
 0001:000093d5       _DllRegisterServer@0       1000a3d5 f   CashChanger.obj
 0001:000093e4       _DllUnregisterServer@0     1000a3e4 f   CashChanger.obj
 0001:000093f3       _InlineIsEqualGUID         1000a3f3 f i CashChanger.obj
 0001:00009423       ___local_stdio_printf_options 1000a423 f i CashChanger.obj
 0001:00009429       __vswprintf_s_l            1000a429 f i CashChanger.obj
 0001:000094d6       _swprintf_s                1000a4d6 f i CashChanger.obj
 0001:000094f2       ??0?$CComControl@VCOPOSCashChanger@@V?$CWindowImpl@VCOPOSCashChanger@@VCWindow@ATL@@V?$CWinTraits@$0FGAAAAAA@$0A@@3@@ATL@@@ATL@@QAE@XZ 1000a4f2 f i CashChangerImpl.obj
 0001:00009519       ??0CComControlBase@ATL@@QAE@AAPAUHWND__@@@Z 1000a519 f i CashChangerImpl.obj
 0001:00009563       ??0COPOSCashChanger@@QAE@XZ 1000a563 f   CashChangerImpl.obj
 0001:000095b9       ??1?$CComControl@VCOPOSCashChanger@@V?$CWindowImpl@VCOPOSCashChanger@@VCWindow@ATL@@V?$CWinTraits@$0FGAAAAAA@$0A@@3@@ATL@@@ATL@@UAE@XZ 1000a5b9 f i CashChangerImpl.obj
 0001:000095d2       ??1?$IConnectionPointImpl@VCOPOSCashChanger@@$1?DIID__IOPOSCashChangerEvents@@3U_GUID@@BVCComDynamicUnkArray@ATL@@@ATL@@QAE@XZ 1000a5d2 f i CashChangerImpl.obj
 0001:000095d2       ??1?$IConnectionPointImpl@VCOPOSCashChanger@@$1?IID_IPropertyNotifySink@@3U_GUID@@BVCComDynamicUnkArray@ATL@@@ATL@@QAE@XZ 1000a5d2 f i CashChangerImpl.obj
 0001:0000960f       ??1CComControlBase@ATL@@UAE@XZ 1000a60f f i CashChangerImpl.obj
 0001:00009672       ??1COPOSCashChanger@@UAE@XZ 1000a672 f   CashChangerImpl.obj
 0001:000096ba       ?AdjustCashCounts@COPOSCashChanger@@UAGJPA_WPAJ@Z 1000a6ba f   CashChangerImpl.obj
 0001:00009711       ?BeginDeposit@COPOSCashChanger@@UAGJPAJ@Z 1000a711 f   CashChangerImpl.obj
 0001:0000972c       ?CheckHealth@COPOSCashChanger@@UAGJJPAJ@Z 1000a72c f   CashChangerImpl.obj
 0001:0000977b       ?ClaimDevice@COPOSCashChanger@@UAGJJPAJ@Z 1000a77b f   CashChangerImpl.obj
 0001:000097f0       ?ClearInput@COPOSCashChanger@@UAGJPAJ@Z 1000a7f0 f   CashChangerImpl.obj
 0001:0000980b       ?Close@COPOSCashChanger@@UAGJPAJ@Z 1000a80b f   CashChangerImpl.obj
 0001:00009879       ?CompareFirmwareVersion@COPOSCashChanger@@UAGJPA_WPAJ1@Z 1000a879 f   CashChangerImpl.obj
 0001:000098f9       ?DirectIO@COPOSCashChanger@@UAGJJPAJPAPA_W0@Z 1000a8f9 f   CashChangerImpl.obj
 0001:000099a7       ?DispenseCash@COPOSCashChanger@@UAGJPA_WPAJ@Z 1000a9a7 f   CashChangerImpl.obj
 0001:000099fe       ?DispenseChange@COPOSCashChanger@@UAGJJPAJ@Z 1000a9fe f   CashChangerImpl.obj
 0001:00009a4d       ?DoInvoke@COPOSCashChanger@@IAEJJPAVOposVariant@@IHPAJ_N@Z 1000aa4d f   CashChangerImpl.obj
 0001:00009b29       ?EndDeposit@COPOSCashChanger@@UAGJJPAJ@Z 1000ab29 f   CashChangerImpl.obj
 0001:00009b78       ?EventClose@COPOSCashChanger@@IAEXXZ 1000ab78 f i CashChangerImpl.obj
 0001:00009bab       ?EventInit@COPOSCashChanger@@IAEJXZ 1000abab f i CashChangerImpl.obj
 0001:00009c77       ?EventUninit@COPOSCashChanger@@IAEXXZ 1000ac77 f i CashChangerImpl.obj
 0001:00009cc9       ?EventWindowProc@COPOSCashChanger@@IAGJIIJ@Z 1000acc9 f i CashChangerImpl.obj
 0001:00009d63       ?FinalConstruct@COPOSCashChanger@@QAEJXZ 1000ad63 f   CashChangerImpl.obj
 0001:00009d9c       ?FireEventCleanup@COPOSCashChanger@@IAEXXZ 1000ad9c f i CashChangerImpl.obj
 0001:00009db2       ?FireEventSetup@COPOSCashChanger@@IAE_NXZ 1000adb2 f i CashChangerImpl.obj
 0001:00009de6       ?FixDeposit@COPOSCashChanger@@UAGJPAJ@Z 1000ade6 f   CashChangerImpl.obj
 0001:00009e01       ?FreezeEvents@COPOSCashChanger@@MAGJH@Z 1000ae01 f   CashChangerImpl.obj
 0001:00009e52       ?GetOposProp@COPOSCashChanger@@IAEJJPAFJ@Z 1000ae52 f   CashChangerImpl.obj
 0001:00009e75       ?GetOposProp@COPOSCashChanger@@IAEJJPAJJ@Z 1000ae75 f   CashChangerImpl.obj
 0001:00009f44       ?GetOposProp@COPOSCashChanger@@IAEJJPAPA_WJ@Z 1000af44 f   CashChangerImpl.obj
 0001:0000a020       ?OnDraw@COPOSCashChanger@@MAEJAAUATL_DRAWINFO@@@Z 1000b020 f   CashChangerImpl.obj
 0001:0000a0c0       ?Open@COPOSCashChanger@@UAGJPA_WPAJ@Z 1000b0c0 f   CashChangerImpl.obj
 0001:0000a907       ?PauseDeposit@COPOSCashChanger@@UAGJJPAJ@Z 1000b907 f   CashChangerImpl.obj
 0001:0000a956       ?ReadCashCounts@COPOSCashChanger@@UAGJPAPA_WPAFPAJ@Z 1000b956 f   CashChangerImpl.obj
 0001:0000a9d6       ?ReleaseDevice@COPOSCashChanger@@UAGJPAJ@Z 1000b9d6 f   CashChangerImpl.obj
 0001:0000aa25       ?ResetStatistics@COPOSCashChanger@@UAGJPA_WPAJ@Z 1000ba25 f   CashChangerImpl.obj
 0001:0000aa7c       ?RetrieveStatistics@COPOSCashChanger@@UAGJPAPA_WPAJ@Z 1000ba7c f   CashChangerImpl.obj
 0001:0000aad3       ?SOProcessID@COPOSCashChanger@@UAGJPAJ@Z 1000bad3 f   CashChangerImpl.obj
 0001:0000aae7       ?SetCOFreezeEvents@COPOSCashChanger@@IAEXF@Z 1000bae7 f   CashChangerImpl.obj
 0001:0000ab87       ?SetOposProp@COPOSCashChanger@@IAEJJJJ@Z 1000bb87 f   CashChangerImpl.obj
 0001:0000ac7e       ?SetOposProp@COPOSCashChanger@@IAEJJPA_WJ@Z 1000bc7e f   CashChangerImpl.obj
 0001:0000ad7f       ?UpdateFirmware@COPOSCashChanger@@UAGJPA_WPAJ@Z 1000bd7f f   CashChangerImpl.obj
 0001:0000add6       ?UpdateStatistics@COPOSCashChanger@@UAGJPA_WPAJ@Z 1000bdd6 f   CashChangerImpl.obj
 0001:0000ae2d       ?get_AsyncMode@COPOSCashChanger@@UAGJPAF@Z 1000be2d f   CashChangerImpl.obj
 0001:0000ae46       ?get_AsyncResultCode@COPOSCashChanger@@UAGJPAJ@Z 1000be46 f   CashChangerImpl.obj
 0001:0000ae5f       ?get_AsyncResultCodeExtended@COPOSCashChanger@@UAGJPAJ@Z 1000be5f f   CashChangerImpl.obj
 0001:0000ae78       ?get_BinaryConversion@COPOSCashChanger@@UAGJPAJ@Z 1000be78 f   CashChangerImpl.obj
 0001:0000ae8e       ?get_CapCompareFirmwareVersion@COPOSCashChanger@@UAGJPAF@Z 1000be8e f   CashChangerImpl.obj
 0001:0000aea7       ?get_CapDeposit@COPOSCashChanger@@UAGJPAF@Z 1000bea7 f   CashChangerImpl.obj
 0001:0000aec0       ?get_CapDepositDataEvent@COPOSCashChanger@@UAGJPAF@Z 1000bec0 f   CashChangerImpl.obj
 0001:0000aed9       ?get_CapDiscrepancy@COPOSCashChanger@@UAGJPAF@Z 1000bed9 f   CashChangerImpl.obj
 0001:0000aef2       ?get_CapEmptySensor@COPOSCashChanger@@UAGJPAF@Z 1000bef2 f   CashChangerImpl.obj
 0001:0000af0b       ?get_CapFullSensor@COPOSCashChanger@@UAGJPAF@Z 1000bf0b f   CashChangerImpl.obj
 0001:0000af24       ?get_CapJamSensor@COPOSCashChanger@@UAGJPAF@Z 1000bf24 f   CashChangerImpl.obj
 0001:0000af3d       ?get_CapNearEmptySensor@COPOSCashChanger@@UAGJPAF@Z 1000bf3d f   CashChangerImpl.obj
 0001:0000af56       ?get_CapNearFullSensor@COPOSCashChanger@@UAGJPAF@Z 1000bf56 f   CashChangerImpl.obj
 0001:0000af6f       ?get_CapPauseDeposit@COPOSCashChanger@@UAGJPAF@Z 1000bf6f f   CashChangerImpl.obj
 0001:0000af88       ?get_CapPowerReporting@COPOSCashChanger@@UAGJPAJ@Z 1000bf88 f   CashChangerImpl.obj
 0001:0000afa1       ?get_CapRealTimeData@COPOSCashChanger@@UAGJPAF@Z 1000bfa1 f   CashChangerImpl.obj
 0001:0000afba       ?get_CapRepayDeposit@COPOSCashChanger@@UAGJPAF@Z 1000bfba f   CashChangerImpl.obj
 0001:0000afd3       ?get_CapStatisticsReporting@COPOSCashChanger@@UAGJPAF@Z 1000bfd3 f   CashChangerImpl.obj
 0001:0000afec       ?get_CapUpdateFirmware@COPOSCashChanger@@UAGJPAF@Z 1000bfec f   CashChangerImpl.obj
 0001:0000b005       ?get_CapUpdateStatistics@COPOSCashChanger@@UAGJPAF@Z 1000c005 f   CashChangerImpl.obj
 0001:0000b01e       ?get_CheckHealthText@COPOSCashChanger@@UAGJPAPA_W@Z 1000c01e f   CashChangerImpl.obj
 0001:0000b037       ?get_Claimed@COPOSCashChanger@@UAGJPAF@Z 1000c037 f   CashChangerImpl.obj
 0001:0000b04d       ?get_ControlObjectDescription@COPOSCashChanger@@UAGJPAPA_W@Z 1000c04d f   CashChangerImpl.obj
 0001:0000b09b       ?get_ControlObjectVersion@COPOSCashChanger@@UAGJPAJ@Z 1000c09b f   CashChangerImpl.obj
 0001:0000b0ae       ?get_CurrencyCashList@COPOSCashChanger@@UAGJPAPA_W@Z 1000c0ae f   CashChangerImpl.obj
 0001:0000b0c7       ?get_CurrencyCode@COPOSCashChanger@@UAGJPAPA_W@Z 1000c0c7 f   CashChangerImpl.obj
 0001:0000b0e0       ?get_CurrencyCodeList@COPOSCashChanger@@UAGJPAPA_W@Z 1000c0e0 f   CashChangerImpl.obj
 0001:0000b0f9       ?get_CurrentExit@COPOSCashChanger@@UAGJPAJ@Z 1000c0f9 f   CashChangerImpl.obj
 0001:0000b112       ?get_CurrentService@COPOSCashChanger@@UAGJPAJ@Z 1000c112 f   CashChangerImpl.obj
 0001:0000b12b       ?get_DataCount@COPOSCashChanger@@UAGJPAJ@Z 1000c12b f   CashChangerImpl.obj
 0001:0000b141       ?get_DataEventEnabled@COPOSCashChanger@@UAGJPAF@Z 1000c141 f   CashChangerImpl.obj
 0001:0000b157       ?get_DepositAmount@COPOSCashChanger@@UAGJPAJ@Z 1000c157 f   CashChangerImpl.obj
 0001:0000b170       ?get_DepositCashList@COPOSCashChanger@@UAGJPAPA_W@Z 1000c170 f   CashChangerImpl.obj
 0001:0000b189       ?get_DepositCodeList@COPOSCashChanger@@UAGJPAPA_W@Z 1000c189 f   CashChangerImpl.obj
 0001:0000b1a2       ?get_DepositCounts@COPOSCashChanger@@UAGJPAPA_W@Z 1000c1a2 f   CashChangerImpl.obj
 0001:0000b1bb       ?get_DepositStatus@COPOSCashChanger@@UAGJPAJ@Z 1000c1bb f   CashChangerImpl.obj
 0001:0000b1d4       ?get_DeviceDescription@COPOSCashChanger@@UAGJPAPA_W@Z 1000c1d4 f   CashChangerImpl.obj
 0001:0000b1ed       ?get_DeviceEnabled@COPOSCashChanger@@UAGJPAF@Z 1000c1ed f   CashChangerImpl.obj
 0001:0000b203       ?get_DeviceExits@COPOSCashChanger@@UAGJPAJ@Z 1000c203 f   CashChangerImpl.obj
 0001:0000b21c       ?get_DeviceName@COPOSCashChanger@@UAGJPAPA_W@Z 1000c21c f   CashChangerImpl.obj
 0001:0000b235       ?get_DeviceStatus@COPOSCashChanger@@UAGJPAJ@Z 1000c235 f   CashChangerImpl.obj
 0001:0000b24e       ?get_ExitCashList@COPOSCashChanger@@UAGJPAPA_W@Z 1000c24e f   CashChangerImpl.obj
 0001:0000b267       ?get_FreezeEvents@COPOSCashChanger@@UAGJPAF@Z 1000c267 f   CashChangerImpl.obj
 0001:0000b27d       ?get_FullStatus@COPOSCashChanger@@UAGJPAJ@Z 1000c27d f   CashChangerImpl.obj
 0001:0000b296       ?get_OpenResult@COPOSCashChanger@@UAGJPAJ@Z 1000c296 f   CashChangerImpl.obj
 0001:0000b2ad       ?get_PowerNotify@COPOSCashChanger@@UAGJPAJ@Z 1000c2ad f   CashChangerImpl.obj
 0001:0000b2c3       ?get_PowerState@COPOSCashChanger@@UAGJPAJ@Z 1000c2c3 f   CashChangerImpl.obj
 0001:0000b2d9       ?get_RealTimeDataEnabled@COPOSCashChanger@@UAGJPAF@Z 1000c2d9 f   CashChangerImpl.obj
 0001:0000b2f2       ?get_ResultCode@COPOSCashChanger@@UAGJPAJ@Z 1000c2f2 f   CashChangerImpl.obj
 0001:0000b330       ?get_ResultCodeExtended@COPOSCashChanger@@UAGJPAJ@Z 1000c330 f   CashChangerImpl.obj
 0001:0000b346       ?get_ServiceCount@COPOSCashChanger@@UAGJPAJ@Z 1000c346 f   CashChangerImpl.obj
 0001:0000b35f       ?get_ServiceIndex@COPOSCashChanger@@UAGJPAJ@Z 1000c35f f   CashChangerImpl.obj
 0001:0000b378       ?get_ServiceObjectDescription@COPOSCashChanger@@UAGJPAPA_W@Z 1000c378 f   CashChangerImpl.obj
 0001:0000b391       ?get_ServiceObjectVersion@COPOSCashChanger@@UAGJPAJ@Z 1000c391 f   CashChangerImpl.obj
 0001:0000b3a7       ?get_State@COPOSCashChanger@@UAGJPAJ@Z 1000c3a7 f   CashChangerImpl.obj
 0001:0000b3d3       ?put_AsyncMode@COPOSCashChanger@@UAGJF@Z 1000c3d3 f   CashChangerImpl.obj
 0001:0000b3f3       ?put_BinaryConversion@COPOSCashChanger@@UAGJJ@Z 1000c3f3 f   CashChangerImpl.obj
 0001:0000b409       ?put_CurrencyCode@COPOSCashChanger@@UAGJPA_W@Z 1000c409 f   CashChangerImpl.obj
 0001:0000b422       ?put_CurrentExit@COPOSCashChanger@@UAGJJ@Z 1000c422 f   CashChangerImpl.obj
 0001:0000b43b       ?put_CurrentService@COPOSCashChanger@@UAGJJ@Z 1000c43b f   CashChangerImpl.obj
 0001:0000b454       ?put_DataEventEnabled@COPOSCashChanger@@UAGJF@Z 1000c454 f   CashChangerImpl.obj
 0001:0000b471       ?put_DeviceEnabled@COPOSCashChanger@@UAGJF@Z 1000c471 f   CashChangerImpl.obj
 0001:0000b48e       ?put_FreezeEvents@COPOSCashChanger@@UAGJF@Z 1000c48e f   CashChangerImpl.obj
 0001:0000b4da       ?put_PowerNotify@COPOSCashChanger@@UAGJJ@Z 1000c4da f   CashChangerImpl.obj
 0001:0000b4f0       ?put_RealTimeDataEnabled@COPOSCashChanger@@UAGJF@Z 1000c4f0 f   CashChangerImpl.obj
 0001:0000b510       ?s_EventWindowProc@COPOSCashChanger@@KGJPAUHWND__@@IIJ@Z 1000c510 f i CashChangerImpl.obj
 0001:0000b562       ??_U@YAPAXI@Z              1000c562 f   LIBCMT:new_array.obj
 0001:0000b56b       ??3@YAXPAXI@Z              1000c56b f   LIBCMT:delete_scalar_size.obj
 0001:0000b579       ??_V@YAXPAX@Z              1000c579 f   LIBCMT:delete_array.obj
 0001:0000b57e       ??_V@YAXPAXI@Z             1000c57e f   LIBCMT:delete_array_size.obj
 0001:0000b5d0       ___scrt_acquire_startup_lock 1000c5d0 f   LIBCMT:utility.obj
 0001:0000b602       ___scrt_dllmain_after_initialize_c 1000c602 f   LIBCMT:utility.obj
 0001:0000b62d       ___scrt_dllmain_before_initialize_c 1000c62d f   LIBCMT:utility.obj
 0001:0000b63b       ___scrt_dllmain_crt_thread_attach 1000c63b f   LIBCMT:utility.obj
 0001:0000b65a       ___scrt_dllmain_crt_thread_detach 1000c65a f   LIBCMT:utility.obj
 0001:0000b667       ___scrt_dllmain_exception_filter 1000c667 f   LIBCMT:utility.obj
 0001:0000b69b       ___scrt_dllmain_uninitialize_c 1000c69b f   LIBCMT:utility.obj
 0001:0000b6be       ___scrt_dllmain_uninitialize_critical 1000c6be f   LIBCMT:utility.obj
 0001:0000b6cb       ___scrt_initialize_crt     1000c6cb f   LIBCMT:utility.obj
 0001:0000b704       ___scrt_initialize_onexit_tables 1000c704 f   LIBCMT:utility.obj
 0001:0000b78b       ___scrt_is_nonwritable_in_current_image 1000c78b f   LIBCMT:utility.obj
 0001:0000b81f       ___scrt_release_startup_lock 1000c81f f   LIBCMT:utility.obj
 0001:0000b83c       ___scrt_uninitialize_crt   1000c83c f   LIBCMT:utility.obj
 0001:0000b864       __onexit                   1000c864 f   LIBCMT:utility.obj
 0001:0000b891       _atexit                    1000c891 f   LIBCMT:utility.obj
 0001:0000b8a6       ??3@YAXPAX@Z               1000c8a6 f   LIBCMT:delete_scalar.obj
 0001:0000b970       __Init_thread_footer       1000c970 f   LIBCMT:thread_safe_statics.obj
 0001:0000b9ba       __Init_thread_header       1000c9ba f   LIBCMT:thread_safe_statics.obj
 0001:0000ba0c       __Init_thread_notify       1000ca0c f   LIBCMT:thread_safe_statics.obj
 0001:0000ba42       __Init_thread_wait         1000ca42 f   LIBCMT:thread_safe_statics.obj
 0001:0000ba90       ___raise_securityfailure   1000ca90 f   LIBCMT:gs_report.obj
 0001:0000bab8       ___report_gsfailure        1000cab8 f   LIBCMT:gs_report.obj
 0001:0000bbb1       ___report_rangecheckfailure 1000cbb1 f   LIBCMT:gs_report.obj
 0001:0000bbbd       ___report_securityfailure  1000cbbd f   LIBCMT:gs_report.obj
 0001:0000bc8b       ??2@YAPAXIABUnothrow_t@std@@@Z 1000cc8b f   LIBCMT:new_scalar_nothrow.obj
 0001:0000bcdb       ??_U@YAPAXIABUnothrow_t@std@@@Z 1000ccdb f   LIBCMT:new_array_nothrow.obj
 0001:0000bce4       @__security_check_cookie@4 1000cce4 f   LIBCMT:secchk.obj
 0001:0000bd00       __SEH_prolog4_GS           1000cd00 f   LIBCMT:sehprolg4gs.obj
 0001:0000bd49       __SEH_epilog4_GS           1000cd49 f   LIBCMT:sehprolg4gs.obj
 0001:0000bd60       __alloca_probe_16          1000cd60 f   LIBCMT:alloca16.obj
 0001:0000bd76       __alloca_probe_8           1000cd76     LIBCMT:alloca16.obj
 0001:0000bd90       __alloca_probe             1000cd90 f   LIBCMT:chkstk.obj
 0001:0000bd90       __chkstk                   1000cd90 f   LIBCMT:chkstk.obj
 0001:0000c0fd       __DllMainCRTStartup@12     1000d0fd f   LIBCMT:dll_dllmain.obj
 0001:0000c120       ??2@YAPAXI@Z               1000d120 f   LIBCMT:new_scalar.obj
 0001:0000c150       ___isa_available_init      1000d150 f   LIBCMT:cpu_disp.obj
 0001:0000c320       ___scrt_is_ucrt_dll_in_use 1000d320 f   LIBCMT:ucrt_detection.obj
 0001:0000c32c       ___scrt_fastfail           1000d32c f   LIBCMT:utility_desktop.obj
 0001:0000c446       __crt_debugger_hook        1000d446 f   LIBCMT:utility_desktop.obj
 0001:0000c450       __SEH_prolog4              1000d450 f   LIBCMT:sehprolg4.obj
 0001:0000c496       __SEH_epilog4              1000d496 f   LIBCMT:sehprolg4.obj
 0001:0000c4ab       @_guard_check_icall_nop@4  1000d4ab f i LIBCMT:guard_support.obj
 0001:0000c4f9       ___security_init_cookie    1000d4f9 f   LIBCMT:gs_support.obj
 0001:0000c544       ?__scrt_initialize_type_info@@YAXXZ 1000d544 f   LIBCMT:tncleanup.obj
 0001:0000c550       ?__scrt_uninitialize_type_info@@YAXXZ 1000d550 f   LIBCMT:tncleanup.obj
 0001:0000c55c       ___local_stdio_scanf_options 1000d55c f i LIBCMT:default_local_stdio_options.obj
 0001:0000c562       ___scrt_initialize_default_local_stdio_options 1000d562 f   LIBCMT:default_local_stdio_options.obj
 0001:0000c57f       ___scrt_get_dyn_tls_init_callback 1000d57f f   LIBCMT:dyn_tls_init.obj
 0001:0000c585       __RTC_Initialize           1000d585 f   LIBCMT:initsect.obj
 0001:0000c5b1       __RTC_Terminate            1000d5b1 f   LIBCMT:initsect.obj
 0001:0000c5dd       ??0bad_alloc@std@@QAE@ABV01@@Z 1000d5dd f i LIBCMT:throw_bad_alloc.obj
 0001:0000c5f8       ??0bad_alloc@std@@QAE@XZ   1000d5f8 f i LIBCMT:throw_bad_alloc.obj
 0001:0000c610       ??0bad_array_new_length@std@@QAE@ABV01@@Z 1000d610 f i LIBCMT:throw_bad_alloc.obj
 0001:0000c62b       ??0bad_array_new_length@std@@QAE@XZ 1000d62b f i LIBCMT:throw_bad_alloc.obj
 0001:0000c643       ??0exception@std@@QAE@ABV01@@Z 1000d643 f i LIBCMT:throw_bad_alloc.obj
 0001:0000c66f       ??1bad_array_new_length@std@@UAE@XZ 1000d66f f i LIBCMT:throw_bad_alloc.obj
 0001:0000c66f       ??1bad_exception@std@@UAE@XZ 1000d66f f i libvcruntime:frame.obj
 0001:0000c66f       ??1bad_alloc@std@@UAE@XZ   1000d66f f i LIBCMT:throw_bad_alloc.obj
 0001:0000c680       ??_Gbad_alloc@std@@UAEPAXI@Z 1000d680 f i LIBCMT:throw_bad_alloc.obj
 0001:0000c680       ??_Ebad_exception@std@@UAEPAXI@Z 1000d680 f i libvcruntime:frame.obj
 0001:0000c680       ??_Gbad_exception@std@@UAEPAXI@Z 1000d680 f i libvcruntime:frame.obj
 0001:0000c680       ??_Eexception@std@@UAEPAXI@Z 1000d680 f i LIBCMT:throw_bad_alloc.obj
 0001:0000c680       ??_Ebad_alloc@std@@UAEPAXI@Z 1000d680 f i LIBCMT:throw_bad_alloc.obj
 0001:0000c680       ??_Gbad_array_new_length@std@@UAEPAXI@Z 1000d680 f i LIBCMT:throw_bad_alloc.obj
 0001:0000c680       ??_Ebad_array_new_length@std@@UAEPAXI@Z 1000d680 f i LIBCMT:throw_bad_alloc.obj
 0001:0000c680       ??_Gexception@std@@UAEPAXI@Z 1000d680 f i LIBCMT:throw_bad_alloc.obj
 0001:0000c6ad       ?__scrt_throw_std_bad_alloc@@YAXXZ 1000d6ad f   LIBCMT:throw_bad_alloc.obj
 0001:0000c6ca       ?__scrt_throw_std_bad_array_new_length@@YAXXZ 1000d6ca f   LIBCMT:throw_bad_alloc.obj
 0001:0000c6e7       ?what@exception@std@@UBEPBDXZ 1000d6e7 f i LIBCMT:throw_bad_alloc.obj
 0001:0000c6f4       ??_Gtype_info@@UAEPAXI@Z   1000d6f4 f i LIBCMT:std_type_info_static.obj
 0001:0000c6f4       ??_Etype_info@@UAEPAXI@Z   1000d6f4 f i LIBCMT:std_type_info_static.obj
 0001:0000c717       ??0CAtlBaseModule@ATL@@QAE@XZ 1000d717 f   atls:atlbase.obj
 0001:0000c76a       ??0_ATL_BASE_MODULE70@ATL@@QAE@XZ 1000d76a f i atls:atlbase.obj
 0001:0000c78d       ??1CAtlBaseModule@ATL@@QAE@XZ 1000d78d f   atls:atlbase.obj
 0001:0000c87a       ?Init@_stdcallthunk@ATL@@QAEHKPAX@Z 1000d87a f i atls:atlthunk.obj
 0001:0000c8af       ?__AllocStdCallThunk_cmn@@YAPAXXZ 1000d8af f   atls:atlthunk.obj
 0001:0000c975       ?__FreeStdCallThunk_cmn@@YAXPAX@Z 1000d975 f   atls:atlthunk.obj
 0001:0000ca10       _AtlThunk_AllocateData@0   1000da10 f   atls:atlthunk.obj
 0001:0000ca75       _AtlThunk_DataToCode@4     1000da75 f   atls:atlthunk.obj
 0001:0000cabc       _AtlThunk_FreeData@4       1000dabc f   atls:atlthunk.obj
 0001:0000cb12       _AtlThunk_InitData@12      1000db12 f   atls:atlthunk.obj
 0001:0000cb61       __get_purecall_handler     1000db61 f   libvcruntime:purevirt.obj
 0001:0000cb67       __purecall                 1000db67 f   libvcruntime:purevirt.obj
 0001:0000cb83       _wcsstr                    1000db83 f   libvcruntime:wcsstr.obj
 0001:0000ce30       __except_handler4          1000de30 f   libvcruntime:chandler4.obj
 0001:0000cf8e       _memcmp                    1000df8e f   libvcruntime:memcmp.obj
 0001:0000dea0       _memcpy                    1000eea0 f   libvcruntime:memcpy.obj
 0001:0000e420       _memset                    1000f420 f   libvcruntime:memset.obj
 0001:0000e57a       ___vcrt_initialize         1000f57a f   libvcruntime:initialization.obj
 0001:0000e599       ___vcrt_thread_attach      1000f599 f   libvcruntime:initialization.obj
 0001:0000e5a4       ___vcrt_thread_detach      1000f5a4 f   libvcruntime:initialization.obj
 0001:0000e5af       ___vcrt_uninitialize       1000f5af f   libvcruntime:initialization.obj
 0001:0000e5c6       ___vcrt_uninitialize_critical 1000f5c6 f   libvcruntime:initialization.obj
 0001:0000e5ce       ?GetRangeOfTrysToCheck@__FrameHandler3@@SA?AU?$pair@Viterator@TryBlockMap@__FrameHandler3@@V123@@std@@AAVTryBlockMap@1@HPAXPBU_s_FuncInfo@@H@Z 1000f5ce f   libvcruntime:trnsctrl.obj
 0001:0000e63e       ?_CallCatchBlock2@@YAPAXPAUEHRegistrationNode@@PBU_s_FuncInfo@@PAXHK@Z 1000f63e f   libvcruntime:trnsctrl.obj
 0001:0000e69c       ?_CallSETranslator@@YAHPAUEHExceptionRecord@@PAUEHRegistrationNode@@PAX2PBU_s_FuncInfo@@H1@Z 1000f69c f   libvcruntime:trnsctrl.obj
 0001:0000e782       ?_JumpToContinuation@@YGXPAXPAUEHRegistrationNode@@@Z 1000f782 f   libvcruntime:trnsctrl.obj
 0001:0000e7b2       ?_UnwindNestedFrames@@YGXPAUEHRegistrationNode@@PAUEHExceptionRecord@@@Z 1000f7b2 f   libvcruntime:trnsctrl.obj
 0001:0000e805       __CatchGuardHandler        1000f805 f   libvcruntime:trnsctrl.obj
 0001:0000e836       __CreateFrameInfo          1000f836 f   libvcruntime:trnsctrl.obj
 0001:0000e85a       __FindAndUnlinkFrame       1000f85a f   libvcruntime:trnsctrl.obj
 0001:0000e8a2       __TranslatorGuardHandler   1000f8a2 f   libvcruntime:trnsctrl.obj
 0001:0000e93f       ___CxxFrameHandler3        1000f93f f   libvcruntime:trnsctrl.obj
 0001:0000e975       ___DestructExceptionObject 1000f975 f   libvcruntime:ehhelpers.obj
 0001:0000ea16       ?_CallMemberFunction0@@YGXQAX0@Z 1000fa16 f i libvcruntime:ehhelpers.obj
 0001:0000ea7b       __IsExceptionObjectToBeDestroyed 1000fa7b f   libvcruntime:ehhelpers.obj
 0001:0000eaa1       ___AdjustPointer           1000faa1 f   libvcruntime:ehhelpers.obj
 0001:0000eac6       ___FrameUnwindFilter       1000fac6 f   libvcruntime:ehhelpers.obj
 0001:0000eb1c       ___std_type_info_compare   1000fb1c f   libvcruntime:std_type_info.obj
 0001:0000eb58       ___std_type_info_destroy_list 1000fb58 f   libvcruntime:std_type_info.obj
 0001:0000eb7b       ___std_exception_copy      1000fb7b f   libvcruntime:std_exception.obj
 0001:0000ebde       ___std_exception_destroy   1000fbde f   libvcruntime:std_exception.obj
 0001:0000ebfd       __CxxThrowException@8      1000fbfd f   libvcruntime:throw.obj
 0001:0000ec70       _memmove                   1000fc70 f   libvcruntime:memmove.obj
 0001:0000f1f0       __local_unwind4            100101f0 f   libvcruntime:exsup4.obj
 0001:0000f2c8       __seh_longjmp_unwind4@4    100102c8 f   libvcruntime:exsup4.obj
 0001:0000f2f0       @_EH4_CallFilterFunc@8     100102f0 f   libvcruntime:exsup4.obj
 0001:0000f308       @_EH4_TransferToHandler@8  10010308 f   libvcruntime:exsup4.obj
 0001:0000f324       @_EH4_GlobalUnwind2@8      10010324 f   libvcruntime:exsup4.obj
 0001:0000f340       @_EH4_LocalUnwind@16       10010340 f   libvcruntime:exsup4.obj
 0001:0000f357       ___except_validate_context_record 10010357 f   libvcruntime:jbcxrval.obj
 0001:0000f387       ___except_validate_jump_buffer 10010387 f   libvcruntime:jbcxrval.obj
 0001:0000f3b4       ___vcrt_freefls@4          100103b4 f   libvcruntime:per_thread_data.obj
 0001:0000f3d0       ___vcrt_freeptd            100103d0 f   libvcruntime:per_thread_data.obj
 0001:0000f406       ___vcrt_getptd             10010406 f   libvcruntime:per_thread_data.obj
 0001:0000f414       ___vcrt_getptd_noexit      10010414 f   libvcruntime:per_thread_data.obj
 0001:0000f4a6       ___vcrt_initialize_ptd     100104a6 f   libvcruntime:per_thread_data.obj
 0001:0000f4d9       ___vcrt_uninitialize_ptd   100104d9 f   libvcruntime:per_thread_data.obj
 0001:0000f4f4       ___vcrt_initialize_locks   100104f4 f   libvcruntime:locks.obj
 0001:0000f530       ___vcrt_uninitialize_locks 10010530 f   libvcruntime:locks.obj
 0001:0000fca2       ??$TypeMatchHelper@V__FrameHandler3@@@@YAHPBU_s_HandlerType@@PBU_s_CatchableType@@PBU_s_ThrowInfo@@@Z 10010ca2 f i libvcruntime:frame.obj
 0001:0000fd30       ??$__InternalCxxFrameHandler@V__FrameHandler3@@@@YA?AW4_EXCEPTION_DISPOSITION@@PAUEHExceptionRecord@@PAUEHRegistrationNode@@PAU_CONTEXT@@PAXPBU_s_FuncInfo@@H1E@Z 10010d30 f i libvcruntime:frame.obj
 0001:0000fe32       ??0bad_exception@std@@QAE@ABV01@@Z 10010e32 f i libvcruntime:frame.obj
 0001:0000fe4d       ??0bad_exception@std@@QAE@XZ 10010e4d f i libvcruntime:frame.obj
 0001:0000fe65       ??8type_info@@QBE_NABV0@@Z 10010e65 f i libvcruntime:frame.obj
 0001:000100cc       ?FrameUnwindToEmptyState@__FrameHandler3@@SAXPAUEHRegistrationNode@@PAXPBU_s_FuncInfo@@@Z 100110cc f   libvcruntime:frame.obj
 0001:000100e4       ?FrameUnwindToState@__FrameHandler3@@SAXPAUEHRegistrationNode@@PAXPBU_s_FuncInfo@@H@Z 100110e4 f   libvcruntime:frame.obj
 0001:00010266       ?_CallMemberFunction1@@YGXQAX00@Z 10011266 f i libvcruntime:frame.obj
 0001:00010276       ?_CallMemberFunction2@@YGXQAX00H@Z 10011276 f i libvcruntime:frame.obj
 0001:00010289       ?getESTypes@__FrameHandler3@@SAPBU_s_ESTypeList@@PBU_s_FuncInfo@@@Z 10011289 f i libvcruntime:frame.obj
 0001:000102a0       __CallSettingFrame@12      100112a0 f   libvcruntime:lowhelpr.obj
 0001:000102c7       __NLG_Return               100112c7     libvcruntime:lowhelpr.obj
 0001:000102f0       __global_unwind2           100112f0 f   libvcruntime:exsup.obj
 0001:00010356       __local_unwind2            10011356 f   libvcruntime:exsup.obj
 0001:000103da       __abnormal_termination     100113da f   libvcruntime:exsup.obj
 0001:00010400       __NLG_Notify1              10011400 f   libvcruntime:exsup.obj
 0001:0001040c       __NLG_Notify               1001140c f   libvcruntime:exsup.obj
 0001:00010423       __NLG_Dispatch2            10011423     libvcruntime:exsup.obj
 0001:00010423       __NLG_Dispatch             10011423     libvcruntime:exsup.obj
 0001:0001042b       __NLG_Call                 1001142b f   libvcruntime:exsup.obj
 0001:0001042d       __NLG_Return2              1001142d     libvcruntime:exsup.obj
 0001:00010511       ___vcrt_FlsAlloc           10011511 f   libvcruntime:winapi_downlevel.obj
 0001:0001054c       ___vcrt_FlsFree            1001154c f   libvcruntime:winapi_downlevel.obj
 0001:00010587       ___vcrt_FlsGetValue        10011587 f   libvcruntime:winapi_downlevel.obj
 0001:000105c2       ___vcrt_FlsSetValue        100115c2 f   libvcruntime:winapi_downlevel.obj
 0001:00010600       ___vcrt_InitializeCriticalSectionEx 10011600 f   libvcruntime:winapi_downlevel.obj
 0001:00010647       _unexpected                10011647 f   libvcruntime:unexpected.obj
 0001:00010664       ?GetCurrentState@__FrameHandler3@@SAHPAUEHRegistrationNode@@PAXPBU_s_FuncInfo@@@Z 10011664 f   libvcruntime:ehstate.obj
 0001:00010681       ?SetState@__FrameHandler3@@SAXPAUEHRegistrationNode@@PBU_s_FuncInfo@@H@Z 10011681 f   libvcruntime:ehstate.obj
 0001:0001068f       _free                      1001168f f   libucrt:free.obj
 0001:000106aa       ___acrt_call_reportfault   100116aa f   libucrt:invalid_parameter.obj
 0001:000107e3       ___acrt_initialize_invalid_parameter_handler 100117e3 f   libucrt:invalid_parameter.obj
 0001:000107f2       __invalid_parameter        100117f2 f   libucrt:invalid_parameter.obj
 0001:00010856       __invalid_parameter_noinfo 10011856 f   libucrt:invalid_parameter.obj
 0001:00010866       __invoke_watson            10011866 f   libucrt:invalid_parameter.obj
 0001:0001089a       ___acrt_errno_from_os_error 1001189a f   libucrt:errno.obj
 0001:000108dd       ___acrt_errno_map_os_error 100118dd f   libucrt:errno.obj
 0001:00010900       ___doserrno                10011900 f   libucrt:errno.obj
 0001:00010913       __errno                    10011913 f   libucrt:errno.obj
 0001:00010926       _calloc                    10011926 f   libucrt:calloc.obj
 0001:00010931       _malloc                    10011931 f   libucrt:malloc.obj
 0001:0001093c       __recalloc                 1001193c f   libucrt:recalloc.obj
 0001:00010947       __recalloc_base            10011947 f   libucrt:recalloc.obj
 0001:000109b4       __resetstkoflw             100119b4 f   libucrt:resetstk.obj
 0001:00010a79       _wcscat_s                  10011a79 f   libucrt:wcscat_s.obj
 0001:00010aee       _wcscpy_s                  10011aee f   libucrt:wcscpy_s.obj
 0001:00010c1d       _wcsncpy_s                 10011c1d f   libucrt:wcsncpy_s.obj
 0001:00010e29       ??$count@D@formatting_buffer@__crt_stdio_output@@QBEIXZ 10011e29 f i libucrt:output.obj
 0001:00010e41       ??$count@_W@formatting_buffer@__crt_stdio_output@@QBEIXZ 10011e41 f i libucrt:output.obj
 0001:00010e5a       ??$ensure_buffer_is_big_enough@D@formatting_buffer@__crt_stdio_output@@QAE_NI@Z 10011e5a f i libucrt:output.obj
 0001:00010ed7       ??$ensure_buffer_is_big_enough@_W@formatting_buffer@__crt_stdio_output@@QAE_NI@Z 10011ed7 f i libucrt:output.obj
 0001:00010f55       ??$is_wide_character_specifier@_W@__crt_stdio_output@@YA_N_K_WW4length_modifier@0@@Z 10011f55 f i libucrt:output.obj
 0001:00010fa3       ??$scratch_data@D@formatting_buffer@__crt_stdio_output@@QAEPADXZ 10011fa3 f i libucrt:output.obj
 0001:00010fc1       ??$type_case_integer_parse_into_buffer@I@?$output_processor@_WV?$string_output_adapter@_W@__crt_stdio_output@@V?$format_validation_base@_WV?$string_output_adapter@_W@__crt_stdio_output@@@2@@__crt_stdio_output@@AAEXII_N@Z 10011fc1 f i libucrt:output.obj
 0001:00011048       ??$type_case_integer_parse_into_buffer@_K@?$output_processor@_WV?$string_output_adapter@_W@__crt_stdio_output@@V?$format_validation_base@_WV?$string_output_adapter@_W@__crt_stdio_output@@@2@@__crt_stdio_output@@AAEX_KI_N@Z 10012048 f i libucrt:output.obj
 0001:000110ea       ??$write_multiple_characters@V?$string_output_adapter@_W@__crt_stdio_output@@D@__crt_stdio_output@@YAXABV?$string_output_adapter@_W@0@DHQAH@Z 100120ea f i libucrt:output.obj
 0001:0001111b       ??0?$common_data@_W@__crt_stdio_output@@IAE@XZ 1001211b f i libucrt:output.obj
 0001:00011165       ??0?$output_adapter_data@_WV?$string_output_adapter@_W@__crt_stdio_output@@@__crt_stdio_output@@IAE@ABV?$string_output_adapter@_W@1@_KQB_WQAU__crt_locale_pointers@@QAD@Z 10012165 f i libucrt:output.obj
 0001:000111a1       ??0_LocaleUpdate@@QAE@QAU__crt_locale_pointers@@@Z 100121a1 f i libucrt:output.obj
 0001:00011224       ??1formatting_buffer@__crt_stdio_output@@QAE@XZ 10012224 f i libucrt:output.obj
 0001:0001123e       ??4?$__crt_unique_heap_ptr@DU__crt_internal_free_policy@@@@QAEAAV0@$$QAV0@@Z 1001223e f i libucrt:output.obj
 0001:00011270       ?crop_zeroes@__crt_stdio_output@@YAXPADQAU__crt_locale_pointers@@@Z 10012270 f i libucrt:output.obj
 0001:000112f1       ?find_next_state@?$output_processor@_WV?$string_output_adapter@_W@__crt_stdio_output@@V?$format_validation_base@_WV?$string_output_adapter@_W@__crt_stdio_output@@@2@@__crt_stdio_output@@ABE?AW4state@2@_WW432@@Z 100122f1 f i libucrt:output.obj
 0001:00011330       ?force_decimal_point@__crt_stdio_output@@YAXPADQAU__crt_locale_pointers@@@Z 10012330 f i libucrt:output.obj
 0001:00011395       ?parse_int_from_format_string@?$output_processor@_WV?$string_output_adapter@_W@__crt_stdio_output@@V?$format_validation_base@_WV?$string_output_adapter@_W@__crt_stdio_output@@@2@@__crt_stdio_output@@AAE_NQAH@Z 10012395 f i libucrt:output.obj
 0001:0001140b       ?process@?$output_processor@_WV?$string_output_adapter@_W@__crt_stdio_output@@V?$format_validation_base@_WV?$string_output_adapter@_W@__crt_stdio_output@@@2@@__crt_stdio_output@@QAEHXZ 1001240b f i libucrt:output.obj
 0001:00011533       ?state_case_flag@?$output_processor@_WV?$string_output_adapter@_W@__crt_stdio_output@@V?$format_validation_base@_WV?$string_output_adapter@_W@__crt_stdio_output@@@2@@__crt_stdio_output@@AAE_NXZ 10012533 f i libucrt:output.obj
 0001:00011570       ?state_case_normal@?$output_processor@_WV?$string_output_adapter@_W@__crt_stdio_output@@V?$format_validation_base@_WV?$string_output_adapter@_W@__crt_stdio_output@@@2@@__crt_stdio_output@@AAE_NXZ 10012570 f i libucrt:output.obj
 0001:0001158f       ?state_case_normal_common@?$output_processor@_WV?$string_output_adapter@_W@__crt_stdio_output@@V?$format_validation_base@_WV?$string_output_adapter@_W@__crt_stdio_output@@@2@@__crt_stdio_output@@AAE_NXZ 1001258f f i libucrt:output.obj
 0001:000115aa       ?state_case_precision@?$output_processor@_WV?$string_output_adapter@_W@__crt_stdio_output@@V?$format_validation_base@_WV?$string_output_adapter@_W@__crt_stdio_output@@@2@@__crt_stdio_output@@AAE_NXZ 100125aa f i libucrt:output.obj
 0001:000115d1       ?state_case_size@?$output_processor@_WV?$string_output_adapter@_W@__crt_stdio_output@@V?$format_validation_base@_WV?$string_output_adapter@_W@__crt_stdio_output@@@2@@__crt_stdio_output@@AAE_NXZ 100125d1 f i libucrt:output.obj
 0001:00011749       ?state_case_type@?$output_processor@_WV?$string_output_adapter@_W@__crt_stdio_output@@V?$format_validation_base@_WV?$string_output_adapter@_W@__crt_stdio_output@@@2@@__crt_stdio_output@@AAE_NXZ 10012749 f i libucrt:output.obj
 0001:000119a6       ?state_case_width@?$output_processor@_WV?$string_output_adapter@_W@__crt_stdio_output@@V?$format_validation_base@_WV?$string_output_adapter@_W@__crt_stdio_output@@@2@@__crt_stdio_output@@AAE_NXZ 100129a6 f i libucrt:output.obj
 0001:000119e0       ?to_integer_size@__crt_stdio_output@@YAIW4length_modifier@1@@Z 100129e0 f i libucrt:output.obj
 0001:00011a3c       ?type_case_Z@?$output_processor@_WV?$string_output_adapter@_W@__crt_stdio_output@@V?$format_validation_base@_WV?$string_output_adapter@_W@__crt_stdio_output@@@2@@__crt_stdio_output@@AAE_NXZ 10012a3c f i libucrt:output.obj
 0001:00011a96       ?type_case_a@?$output_processor@_WV?$string_output_adapter@_W@__crt_stdio_output@@V?$format_validation_base@_WV?$string_output_adapter@_W@__crt_stdio_output@@@2@@__crt_stdio_output@@AAE_NXZ 10012a96 f i libucrt:output.obj
 0001:00011bfd       ?type_case_c_tchar@?$output_processor@_WV?$string_output_adapter@_W@__crt_stdio_output@@V?$format_validation_base@_WV?$string_output_adapter@_W@__crt_stdio_output@@@2@@__crt_stdio_output@@AAE_N_W@Z 10012bfd f i libucrt:output.obj
 0001:00011c93       ?type_case_integer@?$output_processor@_WV?$string_output_adapter@_W@__crt_stdio_output@@V?$format_validation_base@_WV?$string_output_adapter@_W@__crt_stdio_output@@@2@@__crt_stdio_output@@AAE_NI_N@Z 10012c93 f i libucrt:output.obj
 0001:00011de8       ?type_case_n@?$output_processor@_WV?$string_output_adapter@_W@__crt_stdio_output@@V?$format_validation_base@_WV?$string_output_adapter@_W@__crt_stdio_output@@@2@@__crt_stdio_output@@AAE_NXZ 10012de8 f i libucrt:output.obj
 0001:00011e5c       ?type_case_o@?$output_processor@_WV?$string_output_adapter@_W@__crt_stdio_output@@V?$format_validation_base@_WV?$string_output_adapter@_W@__crt_stdio_output@@@2@@__crt_stdio_output@@AAE_NXZ 10012e5c f i libucrt:output.obj
 0001:00011e7b       ?type_case_p@?$output_processor@_WV?$string_output_adapter@_W@__crt_stdio_output@@V?$format_validation_base@_WV?$string_output_adapter@_W@__crt_stdio_output@@@2@@__crt_stdio_output@@AAE_NXZ 10012e7b f i libucrt:output.obj
 0001:00011e93       ?type_case_s@?$output_processor@_WV?$string_output_adapter@_W@__crt_stdio_output@@V?$format_validation_base@_WV?$string_output_adapter@_W@__crt_stdio_output@@@2@@__crt_stdio_output@@AAE_NXZ 10012e93 f i libucrt:output.obj
 0001:00011f06       ?type_case_s_compute_narrow_string_length@?$output_processor@_WV?$string_output_adapter@_W@__crt_stdio_output@@V?$format_validation_base@_WV?$string_output_adapter@_W@__crt_stdio_output@@@2@@__crt_stdio_output@@ABEHH_W@Z 10012f06 f i libucrt:output.obj
 0001:00011f4d       ?validate@?$string_output_adapter@_W@__crt_stdio_output@@QBE_NXZ 10012f4d f i libucrt:output.obj
 0001:00011f4d       ?validate@?$c_string_character_source@_W@__crt_strtox@@QBE_NXZ 10012f4d f i libucrt:atox.obj
 0001:00011f68       ?validate_and_update_state_at_end_of_format_string@?$format_validation_base@_WV?$string_output_adapter@_W@__crt_stdio_output@@@__crt_stdio_output@@IBE_NXZ 10012f68 f i libucrt:output.obj
 0001:00011f8a       ?write_character@?$string_output_adapter@_W@__crt_stdio_output@@QBE_N_WQAH@Z 10012f8a f i libucrt:output.obj
 0001:00011fcf       ?write_stored_string_tchar@?$output_processor@_WV?$string_output_adapter@_W@__crt_stdio_output@@V?$format_validation_base@_WV?$string_output_adapter@_W@__crt_stdio_output@@@2@@__crt_stdio_output@@AAE_N_W@Z 10012fcf f i libucrt:output.obj
 0001:0001205c       ?write_string@?$string_output_adapter@_W@__crt_stdio_output@@QBEXQB_WHQAHAAV__crt_deferred_errno_cache@@@Z 1001305c f i libucrt:output.obj
 0001:000120cd       ___acrt_locale_get_ctype_array_value 100130cd f i libucrt:output.obj
 0001:000120ef       ___stdio_common_vswprintf_s 100130ef f   libucrt:output.obj
 0001:00012113       __seh_filter_dll           10013113 f   libucrt:exception_filter.obj
 0001:00012133       __seh_filter_exe           10013133 f   libucrt:exception_filter.obj
 0001:00012501       ___acrt_initialize_thread_local_exit_callback 10013501 f   libucrt:exit.obj
 0001:00012510       __cexit                    10013510 f   libucrt:exit.obj
 0001:0001251f       __exit                     1001351f f   libucrt:exit.obj
 0001:00012535       __is_c_termination_complete 10013535 f   libucrt:exit.obj
 0001:000127e6       ___acrt_allocate_buffer_for_argv 100137e6 f   libucrt:argv_parsing.obj
 0001:00012835       __configure_narrow_argv    10013835 f   libucrt:argv_parsing.obj
 0001:00012992       ??$uninitialize@A6AXAAPAPAD@Z@?$dual_state_global@PAPAD@__crt_state_management@@QAEXA6AXAAPAPAD@Z@Z 10013992 f i libucrt:environment_initialization.obj
 0001:00012992       ??$uninitialize@A6AXAAPAPA_W@Z@?$dual_state_global@PAPA_W@__crt_state_management@@QAEXA6AXAAPAPA_W@Z@Z 10013992 f i libucrt:environment_initialization.obj
 0001:000129f1       ___dcrt_uninitialize_environments_nolock 100139f1 f   libucrt:environment_initialization.obj
 0001:00012a28       __initialize_narrow_environment 10013a28 f   libucrt:environment_initialization.obj
 0001:00012ae3       ??$__crt_fast_encode_pointer@PAX@@YAPAXQAX@Z 10013ae3 f i libucrt:initialization.obj
 0001:00012ae3       ??$__crt_fast_encode_pointer@P6AHXZ@@YAP6AHXZQ6AHXZ@Z 10013ae3 f i libucrt:onexit.obj
 0001:00012ae3       ??$__crt_fast_encode_pointer@PAP6AXXZ@@YAPAP6AXXZQAP6AXXZ@Z 10013ae3 f i libucrt:onexit.obj
 0001:00012d05       __crt_atexit               10013d05 f   libucrt:onexit.obj
 0001:00012d1b       __execute_onexit_table     10013d1b f   libucrt:onexit.obj
 0001:00012d48       __initialize_onexit_table  10013d48 f   libucrt:onexit.obj
 0001:00012d71       __register_onexit_function 10013d71 f   libucrt:onexit.obj
 0001:00012dcb       ___acrt_uninitialize_command_line 10013dcb f   libucrt:argv_data.obj
 0001:00012ea2       ___acrt_initialize         10013ea2 f   libucrt:initialization.obj
 0001:00012eb4       ___acrt_thread_attach      10013eb4 f   libucrt:initialization.obj
 0001:00012ebf       ___acrt_thread_detach      10013ebf f   libucrt:initialization.obj
 0001:00012ec7       ___acrt_uninitialize       10013ec7 f   libucrt:initialization.obj
 0001:00012ef7       ___acrt_uninitialize_critical 10013ef7 f   libucrt:initialization.obj
 0001:00012f09       __initterm                 10013f09 f   libucrt:initterm.obj
 0001:00012f4e       __initterm_e               10013f4e f   libucrt:initterm.obj
 0001:00012f7c       ___acrt_initialize_new_handler 10013f7c f   libucrt:new_handler.obj
 0001:00012f8b       __callnewh                 10013f8b f   libucrt:new_handler.obj
 0001:00012fb8       __query_new_handler        10013fb8 f   libucrt:new_handler.obj
 0001:00013014       _terminate                 10014014 f   libucrt:terminate.obj
 0001:00013050       _abort                     10014050 f   libucrt:abort.obj
 0001:00013094       _strcpy_s                  10014094 f   libucrt:strcpy_s.obj
 0001:000130ee       ??$is_overflow_condition@K@__crt_strtox@@YA_NIK@Z 100140ee f i libucrt:atox.obj
 0001:0001311f       ??$parse_integer@KV?$c_string_character_source@_W@__crt_strtox@@@__crt_strtox@@YAKQAU__crt_locale_pointers@@V?$c_string_character_source@_W@0@H_N@Z 1001411f f i libucrt:atox.obj
 0001:00013727       ?unget@?$c_string_character_source@_W@__crt_strtox@@QAEX_W@Z 10014727 f i libucrt:atox.obj
 0001:00013760       _strncmp                   10014760 f   libucrt:strncmp.obj
 0001:000137d8       _wcsncmp                   100147d8 f   libucrt:wcsncmp.obj
 0001:00013812       __free_base                10014812 f   libucrt:free_base.obj
 0001:00013b8a       ___acrt_freeptd            10014b8a f   libucrt:per_thread_data.obj
 0001:00013bb6       ___acrt_getptd             10014bb6 f   libucrt:per_thread_data.obj
 0001:00013c73       ___acrt_getptd_head        10014c73 f   libucrt:per_thread_data.obj
 0001:00013d0d       ___acrt_getptd_noexit      10014d0d f   libucrt:per_thread_data.obj
 0001:00013dc2       ___acrt_initialize_ptd     10014dc2 f   libucrt:per_thread_data.obj
 0001:00013dee       ___acrt_uninitialize_ptd   10014dee f   libucrt:per_thread_data.obj
 0001:00013e08       __calloc_base              10014e08 f   libucrt:calloc_base.obj
 0001:00013e65       __malloc_base              10014e65 f   libucrt:malloc_base.obj
 0001:00013eb3       __msize_base               10014eb3 f   libucrt:msize.obj
 0001:00013ee6       __realloc_base             10014ee6 f   libucrt:realloc_base.obj
 0001:000140e7       ___acrt_AppPolicyGetProcessTerminationMethodInternal@4 100150e7 f   libucrt:winapi_thunks.obj
 0001:00014127       ___acrt_AreFileApisANSI@0  10015127 f   libucrt:winapi_thunks.obj
 0001:00014146       ___acrt_FlsAlloc@4         10015146 f   libucrt:winapi_thunks.obj
 0001:00014185       ___acrt_FlsFree@4          10015185 f   libucrt:winapi_thunks.obj
 0001:000141c4       ___acrt_FlsGetValue@4      100151c4 f   libucrt:winapi_thunks.obj
 0001:00014203       ___acrt_FlsSetValue@8      10015203 f   libucrt:winapi_thunks.obj
 0001:00014245       ___acrt_InitializeCriticalSectionEx@12 10015245 f   libucrt:winapi_thunks.obj
 0001:00014290       ___acrt_LCMapStringEx@36   10015290 f   libucrt:winapi_thunks.obj
 0001:000142ed       ___acrt_LocaleNameToLCID@8 100152ed f   libucrt:winapi_thunks.obj
 0001:0001431e       ___acrt_SetThreadStackGuarantee@4 1001531e f   libucrt:winapi_thunks.obj
 0001:00014359       ___acrt_initialize_winapi_thunks 10015359 f   libucrt:winapi_thunks.obj
 0001:00014384       ___acrt_uninitialize_winapi_thunks 10015384 f   libucrt:winapi_thunks.obj
 0001:000143ba       ??$make_c_string_character_source@_WPAPA_W@__crt_strtox@@YA?AV?$c_string_character_source@_W@0@QB_WQAPA_W@Z 100153ba f i libucrt:strtox.obj
 0001:000143d5       _wcstol                    100153d5 f   libucrt:strtox.obj
 0001:000143ff       __mbtowc_l                 100153ff f   libucrt:mbtowc.obj
 0001:00014541       _mbtowc                    10015541 f   libucrt:mbtowc.obj
 0001:0001455b       _wcsnlen                   1001555b f   libucrt:strnlen.obj
 0001:0001470b       ___acrt_update_locale_info 1001570b f   libucrt:locale_update.obj
 0001:00014738       ___acrt_update_multibyte_info 10015738 f   libucrt:locale_update.obj
 0001:00014765       ?__acrt_fp_classify@@YA?AW4__acrt_fp_class@@ABN@Z 10015765 f i libucrt:cvt.obj
 0001:00015117       ___acrt_fp_format          10016117 f   libucrt:cvt.obj
 0001:00015275       __fileno                   10016275 f   libucrt:fileno.obj
 0001:0001529c       ___acrt_initialize_stdio   1001629c f   libucrt:_file.obj
 0001:00015364       ___acrt_uninitialize_stdio 10016364 f   libucrt:_file.obj
 0001:000153b0       __lock_file                100163b0 f   libucrt:_file.obj
 0001:000153c4       __unlock_file              100163c4 f   libucrt:_file.obj
 0001:000153d8       __get_printf_count_output  100163d8 f   libucrt:printf_count_output.obj
 0001:0001545b       ___acrt_set_locale_changed 1001645b f   libucrt:wsetlocale.obj
 0001:00015466       ___acrt_uninitialize_locale 10016466 f   libucrt:wsetlocale.obj
 0001:000155f7       ___acrt_initialize_lowio   100165f7 f   libucrt:ioinit.obj
 0001:00015657       ___acrt_uninitialize_lowio 10016657 f   libucrt:ioinit.obj
 0001:00015683       ___acrt_initialize_locks   10016683 f   libucrt:locks.obj
 0001:000156c4       ___acrt_lock               100166c4 f   libucrt:locks.obj
 0001:000156db       ___acrt_uninitialize_locks 100166db f   libucrt:locks.obj
 0001:0001570c       ___acrt_unlock             1001670c f   libucrt:locks.obj
 0001:00015723       ___acrt_get_process_end_policy 10016723 f   libucrt:win_policies.obj
 0001:000158ed       ??$__acrt_mbs_to_wcs_cp@U__crt_win32_buffer_internal_dynamic_resizing@@@@YAHQBDAAV?$__crt_win32_buffer@_WU__crt_win32_buffer_internal_dynamic_resizing@@@@I@Z 100168ed f i libucrt:argv_wildcards.obj
 0001:00015e01       ?__acrt_get_utf8_acp_compatibility_codepage@@YAIXZ 10016e01 f i libucrt:argv_wildcards.obj
 0001:00015e40       ?_deallocate@?$__crt_win32_buffer@_WU__crt_win32_buffer_internal_dynamic_resizing@@@@AAEXXZ 10016e40 f i libucrt:argv_wildcards.obj
 0001:00015e40       ?_deallocate@?$__crt_win32_buffer@DU__crt_win32_buffer_internal_dynamic_resizing@@@@AAEXXZ 10016e40 f i libucrt:argv_wildcards.obj
 0001:00015e5a       ?allocate@?$__crt_win32_buffer@DU__crt_win32_buffer_internal_dynamic_resizing@@@@QAEHI@Z 10016e5a f i libucrt:argv_wildcards.obj
 0001:00015e96       ?allocate@?$__crt_win32_buffer@_WU__crt_win32_buffer_internal_dynamic_resizing@@@@QAEHI@Z 10016e96 f i libucrt:argv_wildcards.obj
 0001:00015ed5       ?allocate@__crt_win32_buffer_internal_dynamic_resizing@@SAHQAPAXIABV__crt_win32_buffer_empty_debug_info@@@Z 10016ed5 f i libucrt:argv_wildcards.obj
 0001:00015f7b       ___acrt_expand_narrow_argv_wildcards 10016f7b f   libucrt:argv_wildcards.obj
 0001:0001604d       ?allocate@?$__crt_win32_buffer@DU__crt_win32_buffer_no_resizing@@@@QAEHI@Z 1001704d f i libucrt:getmodulefilenamea.obj
 0001:00016074       ?set_to_nullptr@?$__crt_win32_buffer@DU__crt_win32_buffer_no_resizing@@@@QAEXXZ 10017074 f i libucrt:getmodulefilenamea.obj
 0001:00016088       ___acrt_GetModuleFileNameA 10017088 f   libucrt:getmodulefilenamea.obj
 0001:00016641       ___acrt_initialize_multibyte 10017641 f   libucrt:mbctype.obj
 0001:00016689       ___acrt_update_thread_multibyte_data 10017689 f   libucrt:mbctype.obj
 0001:0001669c       __setmbcp_nolock           1001769c f   libucrt:mbctype.obj
 0001:00016967       __ismbblead                10017967 f   libucrt:ismbbyte.obj
 0001:0001697f       ___acrt_initialize_command_line 1001797f f   libucrt:argv_data.obj
 0001:00016998       ___acrt_MultiByteToWideChar 10017998 f   libucrt:multibytetowidechar.obj
 0001:00016a14       ___acrt_WideCharToMultiByte 10017a14 f   libucrt:widechartomultibyte.obj
 0001:00016b02       ___dcrt_get_narrow_environment_from_os 10017b02 f   libucrt:get_environment_from_os.obj
 0001:00016b86       ___acrt_initialize_heap    10017b86 f   libucrt:heap_handle.obj
 0001:00016b97       ___acrt_uninitialize_heap  10017b97 f   libucrt:heap_handle.obj
 0001:00016ba1       ___acrt_execute_initializers 10017ba1 f   libucrt:shared_initialization.obj
 0001:00016c09       ___acrt_execute_uninitializers 10017c09 f   libucrt:shared_initialization.obj
 0001:00016d08       ___acrt_get_sigabrt_handler 10017d08 f   libucrt:signal.obj
 0001:00016d2f       ___acrt_initialize_signal_handlers 10017d2f f   libucrt:signal.obj
 0001:00016d4d       _raise                     10017d4d f   libucrt:signal.obj
 0001:00016f40       ___acrt_has_user_matherr   10017f40 f   libucrt:matherr.obj
 0001:00016f58       ___acrt_initialize_user_matherr 10017f58 f   libucrt:matherr.obj
 0001:00016f67       ___acrt_invoke_user_matherr 10017f67 f   libucrt:matherr.obj
 0001:00017176       ___acrt_stdio_flush_nolock 10018176 f   libucrt:fflush.obj
 0001:000171db       __fflush_nolock            100181db f   libucrt:fflush.obj
 0001:00017223       __flushall                 10018223 f   libucrt:fflush.obj
 0001:0001722c       ___pctype_func             1001822c f   libucrt:ctype.obj
 0001:00017250       _iswctype                  10018250 f   libucrt:iswctype.obj
 0001:000172b9       ___acrt_add_locale_ref     100182b9 f   libucrt:locale_refcounting.obj
 0001:00017336       ___acrt_free_locale        10018336 f   libucrt:locale_refcounting.obj
 0001:0001747e       ___acrt_locale_add_lc_time_reference 1001847e f   libucrt:locale_refcounting.obj
 0001:000174a7       ___acrt_locale_free_lc_time_if_unreferenced 100184a7 f   libucrt:locale_refcounting.obj
 0001:000174d8       ___acrt_locale_release_lc_time_reference 100184d8 f   libucrt:locale_refcounting.obj
 0001:00017501       ___acrt_release_locale_ref 10018501 f   libucrt:locale_refcounting.obj
 0001:00017582       ___acrt_update_thread_locale_data 10018582 f   libucrt:locale_refcounting.obj
 0001:00017603       __updatetlocinfoEx_nolock  10018603 f   libucrt:locale_refcounting.obj
 0001:00017653       __query_new_mode           10018653 f   libucrt:new_mode.obj
 0001:000176aa       ___acrt_DownlevelLocaleNameToLCID 100186aa f   libucrt:lcidtoname_downlevel.obj
 0001:000176d6       __isleadbyte_l             100186d6 f i libucrt:_wctype.obj
 0001:0001773c       ?__mbrtowc_utf8@__crt_mbstring@@YAIPA_WPBDIPAU_Mbstatet@@@Z 1001873c f   libucrt:mbrtowc.obj
 0001:0001777c       ?__mbsrtowcs_utf8@__crt_mbstring@@YAIPA_WPAPBDIPAU_Mbstatet@@@Z 1001877c f   libucrt:mbrtowc.obj
 0001:00017877       ?return_illegal_sequence@__crt_mbstring@@YAIPAU_Mbstatet@@@Z 10018877 f i libucrt:c32rtomb.obj
 0001:00017901       ___acrt_fp_strflt_to_string 10018901 f   libucrt:_fptostr.obj
 0001:000179e0       ?divide@__crt_strtox@@YA_KAAUbig_integer@1@ABU21@@Z 100189e0 f i libucrt:cfout.obj
 0001:00017e78       ___acrt_fltout             10018e78 f   libucrt:cfout.obj
 0001:0001937f       _fegetround                1001a37f f   libucrt:fegetround.obj
 0001:0001938c       __fcloseall                1001a38c f   libucrt:closeall.obj
 0001:00019437       ___acrt_stdio_free_buffer_nolock 1001a437 f   libucrt:_freebuf.obj
 0001:00019477       __isatty                   1001a477 f   libucrt:isatty.obj
 0001:000194cd       ___acrt_locale_free_monetary 1001a4cd f   libucrt:initmon.obj
 0001:000195cb       ___acrt_locale_free_numeric 1001a5cb f   libucrt:initnum.obj
 0001:0001966c       ___acrt_locale_free_time   1001a66c f   libucrt:inittime.obj
 0001:00019750       ___acrt_GetStringTypeA     1001a750 f   libucrt:getstringtypea.obj
 0001:00019853       __freea_crt                1001a853 f i libucrt:getstringtypea.obj
 0001:00019873       ___acrt_lowio_create_handle_array 1001a873 f   libucrt:osfinfo.obj
 0001:000198ee       ___acrt_lowio_destroy_handle_array 1001a8ee f   libucrt:osfinfo.obj
 0001:00019923       ___acrt_lowio_ensure_fh_exists 1001a923 f   libucrt:osfinfo.obj
 0001:000199c1       ___acrt_lowio_lock_fh      1001a9c1 f   libucrt:osfinfo.obj
 0001:000199e4       ___acrt_lowio_unlock_fh    1001a9e4 f   libucrt:osfinfo.obj
 0001:00019a07       __free_osfhnd              1001aa07 f   libucrt:osfinfo.obj
 0001:00019a98       __get_osfhandle            1001aa98 f   libucrt:osfinfo.obj
 0001:00019b10       _qsort                     1001ab10 f   libucrt:qsort.obj
 0001:0001a0b1       _strncpy_s                 1001b0b1 f   libucrt:strncpy_s.obj
 0001:0001a0c0       _strpbrk                   1001b0c0 f   libucrt:strpbrk.obj
 0001:0001a100       __mbsdec                   1001b100 f   libucrt:mbsdec.obj
 0001:0001a117       __mbsdec_l                 1001b117 f   libucrt:mbsdec.obj
 0001:0001a38e       ___acrt_LCMapStringA       1001b38e f   libucrt:lcmapstringa.obj
 0001:0001a488       __commit                   1001b488 f   libucrt:commit.obj
 0001:0001ac80       __write                    1001bc80 f   libucrt:write.obj
 0001:0001ad72       __write_nolock             1001bd72 f   libucrt:write.obj
 0001:0001af4c       ___acrt_GetStringTypeW     1001bf4c f   libucrt:getstringtypew.obj
 0001:0001af65       ___ascii_wcsnicmp          1001bf65 f   libucrt:wcsnicmp.obj
 0001:0001afb4       ?__mbrtoc32_utf8@__crt_mbstring@@YAIPA_UPBDIPAU_Mbstatet@@@Z 1001bfb4 f   libucrt:mbrtoc32.obj
 0001:0001b15b       __controlfp_s              1001c15b f   libucrt:contrlfp.obj
 0001:0001b1ba       _fegetenv                  1001c1ba f   libucrt:fegetenv.obj
 0001:0001b1d7       _fesetenv                  1001c1d7 f   libucrt:fesetenv.obj
 0001:0001b222       _feholdexcept              1001c222 f   libucrt:feholdexcept.obj
 0001:0001b270       __CIlog10                  1001c270 f   libucrt:log10_impl.obj
 0001:0001b2ab       __CIlog10_default          1001c2ab f   libucrt:log10_impl.obj
 0001:0001b2bf       __log10_default            1001c2bf     libucrt:log10_impl.obj
 0001:0001b380       _ceil                      1001c380 f   libucrt:ceil_pentium4.obj
 0001:0001b3c0       __ceil_pentium4            1001c3c0 f   libucrt:ceil_pentium4.obj
 0001:0001b7ba       ___acrt_fenv_get_common_round_control 1001c7ba f   libucrt:_fenvutils.obj
 0001:0001b7dc       ___acrt_fenv_get_control   1001c7dc f   libucrt:_fenvutils.obj
 0001:0001b85c       ___acrt_fenv_get_status    1001c85c f   libucrt:_fenvutils.obj
 0001:0001b914       ___acrt_fenv_set_control   1001c914 f   libucrt:_fenvutils.obj
 0001:0001b97c       ___acrt_fenv_set_status    1001c97c f   libucrt:_fenvutils.obj
 0001:0001baef       __lseeki64_nolock          1001caef f   libucrt:lseek.obj
 0001:0001bb0a       __fclose_nolock            1001cb0a f   libucrt:fclose.obj
 0001:0001bb81       _fclose                    1001cb81 f   libucrt:fclose.obj
 0001:0001bc05       __query_app_type           1001cc05 f   libucrt:report_runtime_error.obj
 0001:0001bc0b       ___strncnt                 1001cc0b f   libucrt:strncnt.obj
 0001:0001bc27       __putwch_nolock            1001cc27 f   libucrt:putwch.obj
 0001:0001bd00       __clearfp                  1001cd00 f   libucrt:ieee87.obj
 0001:0001bdde       __control87                1001cdde f   libucrt:ieee87.obj
 0001:0001c17d       ___acrt_initialize_sse2    1001d17d f   libucrt:mathfcns.obj
 0001:0001c190       __CIlog10_pentium4         1001d190 f   libucrt:log10_pentium4.obj
 0001:0001c1a8       __log10_pentium4           1001d1a8     libucrt:log10_pentium4.obj
 0001:0001c440       __fFEXP                    1001d440 f   libucrt:87tran.obj
 0001:0001c497       __rtinfpopse               1001d497     libucrt:87tran.obj
 0001:0001c499       __rtinfnpopse              1001d499     libucrt:87tran.obj
 0001:0001c4a9       __fFLN                     1001d4a9     libucrt:87tran.obj
 0001:0001c55e       __rtinfpop                 1001d55e     libucrt:87tran.obj
 0001:0001c560       __rtinfnpop                1001d560     libucrt:87tran.obj
 0001:0001c570       __rtforexpinf              1001d570 f   libucrt:87tran.obj
 0001:0001c57d       __ffexpm1                  1001d57d     libucrt:87tran.obj
 0001:0001c630       __trandisp1                1001d630 f   libucrt:87disp.obj
 0001:0001c6a5       __trandisp2                1001d6a5 f   libucrt:87disp.obj
 0001:0001c73f       __rttospopde               1001d73f     libucrt:87disp.obj
 0001:0001c744       __rttospop                 1001d744     libucrt:87disp.obj
 0001:0001c750       __rtnospop                 1001d750 f   libucrt:87disp.obj
 0001:0001c760       __rttosnpop                1001d760 f   libucrt:87disp.obj
 0001:0001c761       __rtnospopde               1001d761     libucrt:87disp.obj
 0001:0001c768       __rtzeropop                1001d768     libucrt:87disp.obj
 0001:0001c76a       __rtzeronpop               1001d76a     libucrt:87disp.obj
 0001:0001c770       __rtzerospop               1001d770 f   libucrt:87disp.obj
 0001:0001c77d       __rtonepop                 1001d77d     libucrt:87disp.obj
 0001:0001c780       __rtonenpop                1001d780 f   libucrt:87disp.obj
 0001:0001c790       __tosnan1                  1001d790 f   libucrt:87disp.obj
 0001:0001c7c0       __nosnan2                  1001d7c0 f   libucrt:87disp.obj
 0001:0001c7d0       __tosnan2                  1001d7d0 f   libucrt:87disp.obj
 0001:0001c800       __nan2                     1001d800 f   libucrt:87disp.obj
 0001:0001c840       __rtindfpop                1001d840 f   libucrt:87disp.obj
 0001:0001c842       __rtindfnpop               1001d842     libucrt:87disp.obj
 0001:0001c853       __rttosnpopde              1001d853     libucrt:87disp.obj
 0001:0001c860       __rtatan2inf               1001d860 f   libucrt:87disp.obj
 0001:0001c87d       __rtchsifneg               1001d87d     libucrt:87disp.obj
 0001:0001c890       __twoToTOS                 1001d890 f   libucrt:common.obj
 0001:0001c8a5       __load_CW                  1001d8a5 f   libucrt:common.obj
 0001:0001c8bc       __convertTOStoQNaN         1001d8bc f   libucrt:common.obj
 0001:0001c8d5       __fload_withFB             1001d8d5 f   libucrt:common.obj
 0001:0001c918       __checkTOS_withFB          1001d918 f   libucrt:common.obj
 0001:0001c92e       __fast_exit                1001d92e f   libucrt:common.obj
 0001:0001c93b       __math_exit                1001d93b f   libucrt:common.obj
 0001:0001c965       __check_overflow_exit      1001d965 f   libucrt:common.obj
 0001:0001c979       __check_range_exit         1001d979 f   libucrt:common.obj
 0001:0001ca20       __startTwoArgErrorHandling 1001da20 f   libucrt:genexcep.obj
 0001:0001ca37       __startOneArgErrorHandling 1001da37 f   libucrt:genexcep.obj
 0001:0001ca73       ___libm_error_support      1001da73 f   libucrt:libm_error.obj
 0001:0001cc67       __ceil_default             1001dc67 f   libucrt:ceil.obj
 0001:0001cda8       __close                    1001dda8 f   libucrt:close.obj
 0001:0001ce35       __close_nolock             1001de35 f   libucrt:close.obj
 0001:0001ced1       ?__acrt_stdio_free_stream@@YAXV__crt_stdio_stream@@@Z 1001ded1 f   libucrt:stream.obj
 0001:0001cf10       ___ascii_strnicmp          1001df10 f   libucrt:_strnicm.obj
 0001:0001cf90       ___dcrt_lowio_ensure_console_output_initialized 1001df90 f   libucrt:initcon.obj
 0001:0001cfaf       ___dcrt_terminate_console_output 1001dfaf f   libucrt:initcon.obj
 0001:0001cfc6       ___dcrt_write_console      1001dfc6 f   libucrt:initcon.obj
 0001:0001d01b       ___set_fpsr_sse2           1001e01b f   libucrt:fpctrl.obj
 0001:0001d09b       __clrfp                    1001e09b f   libucrt:fpctrl.obj
 0001:0001d0ac       __ctrlfp                   1001e0ac f   libucrt:fpctrl.obj
 0001:0001d0d6       __set_statfp               1001e0d6 f   libucrt:fpctrl.obj
 0001:0001d12f       __statfp                   1001e12f f   libucrt:fpctrl.obj
 0001:0001d13f       __d_inttype                1001e13f f   libucrt:powhlp.obj
 0001:0001d1a7       __powhlp                   1001e1a7 f   libucrt:powhlp.obj
 0001:0001d2d2       __87except                 1001e2d2 f   libucrt:87except.obj
 0001:0001d3dc       __frnd                     1001e3dc f   libucrt:frnd.obj
 0001:0001d3f0       __errcode                  1001e3f0 f   libucrt:fpexcept.obj
 0001:0001d424       __except1                  1001e424 f   libucrt:fpexcept.obj
 0001:0001d4f2       __handle_exc               1001e4f2 f   libucrt:fpexcept.obj
 0001:0001d6dd       __raise_exc                1001e6dd f   libucrt:fpexcept.obj
 0001:0001d700       __raise_exc_ex             1001e700 f   libucrt:fpexcept.obj
 0001:0001d9f6       __set_errno_from_matherr   1001e9f6 f   libucrt:fpexcept.obj
 0001:0001da25       __umatherr                 1001ea25 f   libucrt:fpexcept.obj
 0001:0001dac5       __decomp                   1001eac5 f   libucrt:util.obj
 0001:0001db97       __set_exp                  1001eb97 f   libucrt:util.obj
 0001:0001dbc4       __sptype                   1001ebc4 f   libucrt:util.obj
 0001:0001dc22       __fpclass                  1001ec22 f   libucrt:ieeemisc.obj
 0001:0001dcc6       _IsProcessorFeaturePresent@4 1001ecc6 f   kernel32:KERNEL32.dll
 0001:0001dcd0       __FindPESection            1001ecd0 f   LIBCMT:pesect.obj
 0001:0001dd20       __IsNonwritableInCurrentImage 1001ed20 f   LIBCMT:pesect.obj
 0001:0001dde0       __ValidateImageBase        1001ede0 f   LIBCMT:pesect.obj
 0001:0001de13       __EH_prolog3_catch         1001ee13 f   LIBCMT:ehprolg3.obj
 0001:0001de50       __aulldvrm                 1001ee50 f   LIBCMT:ulldvrm.obj
 0001:0001def0       __allmul                   1001eef0 f   LIBCMT:llmul.obj
 0001:0001df30       __alldvrm                  1001ef30 f   LIBCMT:lldvrm.obj
 0001:0001e010       __allshl                   1001f010 f   LIBCMT:llshl.obj
 0001:0001e030       __aullshr                  1001f030 f   LIBCMT:ullshr.obj
 0001:0001e050       __ftol2_sse                1001f050     LIBCMT:ftol2.obj
 0001:0001e050       __ftoi2                    1001f050 f   LIBCMT:ftol2.obj
 0001:0001e050       __ftol2_sse_excpt          1001f050     LIBCMT:ftol2.obj
 0001:0001e0d0       __ftoui2                   1001f0d0 f   LIBCMT:ftol2.obj
 0001:0001e180       __ftol2                    1001f180 f   LIBCMT:ftol2.obj
 0001:0001e230       __ftoul2                   1001f230 f   LIBCMT:ftol2.obj
 0001:0001e2f0       _strrchr                   1001f2f0 f   libvcruntime:strrchr.obj
 0001:0001e430       _strchr                    1001f430 f   libvcruntime:strchr.obj
 0001:0001e49e       ___from_strstr_to_strchr   1001f49e     libvcruntime:strchr.obj
 0001:0001e55b       __filter_x86_sse2_floating_point_exception 1001f55b f   LIBCMT:x86_exception_filter.obj
 0001:0001e55b       __filter_x86_sse2_floating_point_exception_default 1001f55b f   LIBCMT:x86_exception_filter.obj
 0002:00000000       __imp__RegQueryValueExW@24 10020000     advapi32:ADVAPI32.dll
 0002:00000004       __imp__RegSetValueExW@24   10020004     advapi32:ADVAPI32.dll
 0002:00000008       __imp__RegQueryInfoKeyW@48 10020008     advapi32:ADVAPI32.dll
 0002:0000000c       __imp__RegOpenKeyExW@20    1002000c     advapi32:ADVAPI32.dll
 0002:00000010       __imp__RegEnumKeyExW@32    10020010     advapi32:ADVAPI32.dll
 0002:00000014       __imp__RegDeleteValueW@8   10020014     advapi32:ADVAPI32.dll
 0002:00000018       __imp__RegDeleteKeyW@8     10020018     advapi32:ADVAPI32.dll
 0002:0000001c       __imp__RegCreateKeyExW@36  1002001c     advapi32:ADVAPI32.dll
 0002:00000020       __imp__RegCloseKey@4       10020020     advapi32:ADVAPI32.dll
 0002:00000024       \177ADVAPI32_NULL_THUNK_DATA 10020024     advapi32:ADVAPI32.dll
 0002:00000028       __imp__GetObjectW@12       10020028     gdi32:GDI32.dll
 0002:0000002c       __imp__SelectObject@8      1002002c     gdi32:GDI32.dll
 0002:00000030       __imp__DeleteObject@4      10020030     gdi32:GDI32.dll
 0002:00000034       __imp__CreateCompatibleDC@4 10020034     gdi32:GDI32.dll
 0002:00000038       __imp__BitBlt@36           10020038     gdi32:GDI32.dll
 0002:0000003c       __imp__SetWindowOrgEx@16   1002003c     gdi32:GDI32.dll
 0002:00000040       __imp__SetWindowExtEx@16   10020040     gdi32:GDI32.dll
 0002:00000044       __imp__SetViewportOrgEx@16 10020044     gdi32:GDI32.dll
 0002:00000048       __imp__LPtoDP@12           10020048     gdi32:GDI32.dll
 0002:0000004c       __imp__SetMapMode@8        1002004c     gdi32:GDI32.dll
 0002:00000050       __imp__SaveDC@4            10020050     gdi32:GDI32.dll
 0002:00000054       __imp__RestoreDC@8         10020054     gdi32:GDI32.dll
 0002:00000058       __imp__GetDeviceCaps@8     10020058     gdi32:GDI32.dll
 0002:0000005c       __imp__DeleteMetaFile@4    1002005c     gdi32:GDI32.dll
 0002:00000060       __imp__DeleteDC@4          10020060     gdi32:GDI32.dll
 0002:00000064       __imp__CreateRectRgnIndirect@4 10020064     gdi32:GDI32.dll
 0002:00000068       __imp__CreateMetaFileW@4   10020068     gdi32:GDI32.dll
 0002:0000006c       __imp__CreateDCW@16        1002006c     gdi32:GDI32.dll
 0002:00000070       __imp__CloseMetaFile@4     10020070     gdi32:GDI32.dll
 0002:00000074       \177GDI32_NULL_THUNK_DATA  10020074     gdi32:GDI32.dll
 0002:00000078       __imp__CloseHandle@4       10020078     kernel32:KERNEL32.dll
 0002:0000007c       __imp__SetEvent@4          1002007c     kernel32:KERNEL32.dll
 0002:00000080       __imp__CreateMutexW@12     10020080     kernel32:KERNEL32.dll
 0002:00000084       __imp__CreateEventW@16     10020084     kernel32:KERNEL32.dll
 0002:00000088       __imp__GetCurrentProcessId@0 10020088     kernel32:KERNEL32.dll
 0002:0000008c       __imp__CreateFileW@28      1002008c     kernel32:KERNEL32.dll
 0002:00000090       __imp__GetConsoleMode@8    10020090     kernel32:KERNEL32.dll
 0002:00000094       __imp__GetConsoleOutputCP@0 10020094     kernel32:KERNEL32.dll
 0002:00000098       __imp__WriteFile@20        10020098     kernel32:KERNEL32.dll
 0002:0000009c       __imp__FlushFileBuffers@4  1002009c     kernel32:KERNEL32.dll
 0002:000000a0       __imp__SetStdHandle@8      100200a0     kernel32:KERNEL32.dll
 0002:000000a4       __imp__GetStringTypeW@16   100200a4     kernel32:KERNEL32.dll
 0002:000000a8       __imp__SetFilePointerEx@20 100200a8     kernel32:KERNEL32.dll
 0002:000000ac       __imp__FreeEnvironmentStringsW@4 100200ac     kernel32:KERNEL32.dll
 0002:000000b0       __imp__GetEnvironmentStringsW@0 100200b0     kernel32:KERNEL32.dll
 0002:000000b4       __imp__lstrcmpiW@8         100200b4     kernel32:KERNEL32.dll
 0002:000000b8       __imp__GetCommandLineA@0   100200b8     kernel32:KERNEL32.dll
 0002:000000bc       __imp__GetCPInfo@8         100200bc     kernel32:KERNEL32.dll
 0002:000000c0       __imp__GetOEMCP@0          100200c0     kernel32:KERNEL32.dll
 0002:000000c4       __imp__GetACP@0            100200c4     kernel32:KERNEL32.dll
 0002:000000c8       __imp__IsValidCodePage@4   100200c8     kernel32:KERNEL32.dll
 0002:000000cc       __imp__FindNextFileW@8     100200cc     kernel32:KERNEL32.dll
 0002:000000d0       __imp__FindFirstFileExW@24 100200d0     kernel32:KERNEL32.dll
 0002:000000d4       __imp__FindClose@4         100200d4     kernel32:KERNEL32.dll
 0002:000000d8       __imp__GetFileType@4       100200d8     kernel32:KERNEL32.dll
 0002:000000dc       __imp__GetStdHandle@4      100200dc     kernel32:KERNEL32.dll
 0002:000000e0       __imp__LCMapStringW@24     100200e0     kernel32:KERNEL32.dll
 0002:000000e4       __imp__HeapReAlloc@16      100200e4     kernel32:KERNEL32.dll
 0002:000000e8       __imp__HeapSize@12         100200e8     kernel32:KERNEL32.dll
 0002:000000ec       __imp__MulDiv@12           100200ec     kernel32:KERNEL32.dll
 0002:000000f0       __imp__GlobalLock@4        100200f0     kernel32:KERNEL32.dll
 0002:000000f4       __imp__GlobalUnlock@4      100200f4     kernel32:KERNEL32.dll
 0002:000000f8       __imp__GlobalAlloc@8       100200f8     kernel32:KERNEL32.dll
 0002:000000fc       __imp__FindResourceW@12    100200fc     kernel32:KERNEL32.dll
 0002:00000100       __imp__SizeofResource@8    10020100     kernel32:KERNEL32.dll
 0002:00000104       __imp__LoadResource@8      10020104     kernel32:KERNEL32.dll
 0002:00000108       __imp__LoadLibraryExW@12   10020108     kernel32:KERNEL32.dll
 0002:0000010c       __imp__GetProcAddress@8    1002010c     kernel32:KERNEL32.dll
 0002:00000110       __imp__GetModuleHandleW@4  10020110     kernel32:KERNEL32.dll
 0002:00000114       __imp__GetModuleFileNameW@12 10020114     kernel32:KERNEL32.dll
 0002:00000118       __imp__FreeLibrary@4       10020118     kernel32:KERNEL32.dll
 0002:0000011c       __imp__DisableThreadLibraryCalls@4 1002011c     kernel32:KERNEL32.dll
 0002:00000120       __imp__GetCurrentThreadId@0 10020120     kernel32:KERNEL32.dll
 0002:00000124       __imp__Sleep@4             10020124     kernel32:KERNEL32.dll
 0002:00000128       __imp__WaitForSingleObject@8 10020128     kernel32:KERNEL32.dll
 0002:0000012c       __imp__ReleaseMutex@4      1002012c     kernel32:KERNEL32.dll
 0002:00000130       __imp__ResetEvent@4        10020130     kernel32:KERNEL32.dll
 0002:00000134       __imp__EnterCriticalSection@4 10020134     kernel32:KERNEL32.dll
 0002:00000138       __imp__LeaveCriticalSection@4 10020138     kernel32:KERNEL32.dll
 0002:0000013c       __imp__SetLastError@4      1002013c     kernel32:KERNEL32.dll
 0002:00000140       __imp__EncodePointer@4     10020140     kernel32:KERNEL32.dll
 0002:00000144       __imp__DeleteCriticalSection@4 10020144     kernel32:KERNEL32.dll
 0002:00000148       __imp__InitializeCriticalSectionEx@12 10020148     kernel32:KERNEL32.dll
 0002:0000014c       __imp__GetLastError@0      1002014c     kernel32:KERNEL32.dll
 0002:00000150       __imp__RaiseException@16   10020150     kernel32:KERNEL32.dll
 0002:00000154       __imp__DecodePointer@4     10020154     kernel32:KERNEL32.dll
 0002:00000158       __imp__WideCharToMultiByte@32 10020158     kernel32:KERNEL32.dll
 0002:0000015c       __imp__GetCommandLineW@0   1002015c     kernel32:KERNEL32.dll
 0002:00000160       __imp__MultiByteToWideChar@24 10020160     kernel32:KERNEL32.dll
 0002:00000164       __imp__WriteConsoleW@20    10020164     kernel32:KERNEL32.dll
 0002:00000168       __imp__GetModuleHandleExW@12 10020168     kernel32:KERNEL32.dll
 0002:0000016c       __imp__ExitProcess@4       1002016c     kernel32:KERNEL32.dll
 0002:00000170       __imp__VirtualQuery@12     10020170     kernel32:KERNEL32.dll
 0002:00000174       __imp__VirtualProtect@16   10020174     kernel32:KERNEL32.dll
 0002:00000178       __imp__GetSystemInfo@4     10020178     kernel32:KERNEL32.dll
 0002:0000017c       __imp__TlsFree@4           1002017c     kernel32:KERNEL32.dll
 0002:00000180       __imp__TlsSetValue@8       10020180     kernel32:KERNEL32.dll
 0002:00000184       __imp__TlsGetValue@4       10020184     kernel32:KERNEL32.dll
 0002:00000188       __imp__TlsAlloc@0          10020188     kernel32:KERNEL32.dll
 0002:0000018c       __imp__InterlockedFlushSList@4 1002018c     kernel32:KERNEL32.dll
 0002:00000190       __imp__RtlUnwind@16        10020190     kernel32:KERNEL32.dll
 0002:00000194       __imp__LoadLibraryExA@12   10020194     kernel32:KERNEL32.dll
 0002:00000198       __imp__VirtualFree@12      10020198     kernel32:KERNEL32.dll
 0002:0000019c       __imp__VirtualAlloc@16     1002019c     kernel32:KERNEL32.dll
 0002:000001a0       __imp__FlushInstructionCache@12 100201a0     kernel32:KERNEL32.dll
 0002:000001a4       __imp__InterlockedPushEntrySList@8 100201a4     kernel32:KERNEL32.dll
 0002:000001a8       __imp__InterlockedPopEntrySList@4 100201a8     kernel32:KERNEL32.dll
 0002:000001ac       __imp__GetProcessHeap@0    100201ac     kernel32:KERNEL32.dll
 0002:000001b0       __imp__HeapFree@12         100201b0     kernel32:KERNEL32.dll
 0002:000001b4       __imp__HeapAlloc@12        100201b4     kernel32:KERNEL32.dll
 0002:000001b8       __imp__OutputDebugStringW@4 100201b8     kernel32:KERNEL32.dll
 0002:000001bc       __imp__InitializeSListHead@4 100201bc     kernel32:KERNEL32.dll
 0002:000001c0       __imp__GetSystemTimeAsFileTime@4 100201c0     kernel32:KERNEL32.dll
 0002:000001c4       __imp__QueryPerformanceCounter@4 100201c4     kernel32:KERNEL32.dll
 0002:000001c8       __imp__GetStartupInfoW@4   100201c8     kernel32:KERNEL32.dll
 0002:000001cc       __imp__IsDebuggerPresent@0 100201cc     kernel32:KERNEL32.dll
 0002:000001d0       __imp__IsProcessorFeaturePresent@4 100201d0     kernel32:KERNEL32.dll
 0002:000001d4       __imp__TerminateProcess@8  100201d4     kernel32:KERNEL32.dll
 0002:000001d8       __imp__GetCurrentProcess@0 100201d8     kernel32:KERNEL32.dll
 0002:000001dc       __imp__SetUnhandledExceptionFilter@4 100201dc     kernel32:KERNEL32.dll
 0002:000001e0       __imp__UnhandledExceptionFilter@4 100201e0     kernel32:KERNEL32.dll
 0002:000001e4       __imp__InitializeCriticalSectionAndSpinCount@8 100201e4     kernel32:KERNEL32.dll
 0002:000001e8       __imp__WaitForSingleObjectEx@12 100201e8     kernel32:KERNEL32.dll
 0002:000001ec       \177KERNEL32_NULL_THUNK_DATA 100201ec     kernel32:KERNEL32.dll
 0002:000001f0       __imp__OleCreatePropertyFrame@44 100201f0     oleaut32:OLEAUT32.dll
 0002:000001f4       __imp__UnRegisterTypeLib@20 100201f4     oleaut32:OLEAUT32.dll
 0002:000001f8       __imp__RegisterTypeLib@12  100201f8     oleaut32:OLEAUT32.dll
 0002:000001fc       __imp__LoadRegTypeLib@20   100201fc     oleaut32:OLEAUT32.dll
 0002:00000200       __imp__LoadTypeLib@8       10020200     oleaut32:OLEAUT32.dll
 0002:00000204       __imp__VarUI4FromStr@16    10020204     oleaut32:OLEAUT32.dll
 0002:00000208       __imp__VariantInit@4       10020208     oleaut32:OLEAUT32.dll
 0002:0000020c       __imp__SysAllocStringByteLen@8 1002020c     oleaut32:OLEAUT32.dll
 0002:00000210       __imp__SysStringByteLen@4  10020210     oleaut32:OLEAUT32.dll
 0002:00000214       __imp__VariantChangeType@16 10020214     oleaut32:OLEAUT32.dll
 0002:00000218       __imp__VariantClear@4      10020218     oleaut32:OLEAUT32.dll
 0002:0000021c       __imp__SysStringLen@4      1002021c     oleaut32:OLEAUT32.dll
 0002:00000220       __imp__SysFreeString@4     10020220     oleaut32:OLEAUT32.dll
 0002:00000224       __imp__SysAllocStringLen@8 10020224     oleaut32:OLEAUT32.dll
 0002:00000228       __imp__SysAllocString@4    10020228     oleaut32:OLEAUT32.dll
 0002:0000022c       \177OLEAUT32_NULL_THUNK_DATA 1002022c     oleaut32:OLEAUT32.dll
 0002:00000230       __imp__UnregisterClassW@8  10020230     user32:USER32.dll
 0002:00000234       __imp__PostMessageW@16     10020234     user32:USER32.dll
 0002:00000238       __imp__DefWindowProcW@16   10020238     user32:USER32.dll
 0002:0000023c       __imp__CallWindowProcW@20  1002023c     user32:USER32.dll
 0002:00000240       __imp__RegisterClassExW@4  10020240     user32:USER32.dll
 0002:00000244       __imp__GetClassInfoExW@12  10020244     user32:USER32.dll
 0002:00000248       __imp__CreateWindowExW@48  10020248     user32:USER32.dll
 0002:0000024c       __imp__IsWindow@4          1002024c     user32:USER32.dll
 0002:00000250       __imp__IsChild@8           10020250     user32:USER32.dll
 0002:00000254       __imp__DestroyWindow@4     10020254     user32:USER32.dll
 0002:00000258       __imp__ShowWindow@8        10020258     user32:USER32.dll
 0002:0000025c       __imp__SetWindowPos@28     1002025c     user32:USER32.dll
 0002:00000260       __imp__CharNextW@4         10020260     user32:USER32.dll
 0002:00000264       __imp__SetFocus@4          10020264     user32:USER32.dll
 0002:00000268       __imp__LoadBitmapW@8       10020268     user32:USER32.dll
 0002:0000026c       __imp__RegisterClassW@4    1002026c     user32:USER32.dll
 0002:00000270       __imp__PeekMessageW@20     10020270     user32:USER32.dll
 0002:00000274       __imp__LoadCursorW@8       10020274     user32:USER32.dll
 0002:00000278       __imp__GetParent@4         10020278     user32:USER32.dll
 0002:0000027c       __imp__SetWindowLongW@12   1002027c     user32:USER32.dll
 0002:00000280       __imp__GetWindowLongW@8    10020280     user32:USER32.dll
 0002:00000284       __imp__PtInRect@12         10020284     user32:USER32.dll
 0002:00000288       __imp__EqualRect@8         10020288     user32:USER32.dll
 0002:0000028c       __imp__OffsetRect@12       1002028c     user32:USER32.dll
 0002:00000290       __imp__UnionRect@12        10020290     user32:USER32.dll
 0002:00000294       __imp__IntersectRect@12    10020294     user32:USER32.dll
 0002:00000298       __imp__GetClientRect@8     10020298     user32:USER32.dll
 0002:0000029c       __imp__InvalidateRect@12   1002029c     user32:USER32.dll
 0002:000002a0       __imp__SetWindowRgn@12     100202a0     user32:USER32.dll
 0002:000002a4       __imp__EndPaint@8          100202a4     user32:USER32.dll
 0002:000002a8       __imp__BeginPaint@8        100202a8     user32:USER32.dll
 0002:000002ac       __imp__ReleaseDC@8         100202ac     user32:USER32.dll
 0002:000002b0       __imp__GetDC@4             100202b0     user32:USER32.dll
 0002:000002b4       __imp__GetKeyState@4       100202b4     user32:USER32.dll
 0002:000002b8       __imp__GetFocus@0          100202b8     user32:USER32.dll
 0002:000002bc       \177USER32_NULL_THUNK_DATA 100202bc     user32:USER32.dll
 0002:000002c0       __imp__StringFromGUID2@12  100202c0     ole32:ole32.dll
 0002:000002c4       __imp__CoTaskMemAlloc@4    100202c4     ole32:ole32.dll
 0002:000002c8       __imp__CoTaskMemRealloc@8  100202c8     ole32:ole32.dll
 0002:000002cc       __imp__CoTaskMemFree@4     100202cc     ole32:ole32.dll
 0002:000002d0       __imp__ReadClassStm@8      100202d0     ole32:ole32.dll
 0002:000002d4       __imp__WriteClassStm@8     100202d4     ole32:ole32.dll
 0002:000002d8       __imp__CreateDataAdviseHolder@4 100202d8     ole32:ole32.dll
 0002:000002dc       __imp__OleSaveToStream@8   100202dc     ole32:ole32.dll
 0002:000002e0       __imp__CreateOleAdviseHolder@4 100202e0     ole32:ole32.dll
 0002:000002e4       __imp__OleRegGetUserType@12 100202e4     ole32:ole32.dll
 0002:000002e8       __imp__OleRegGetMiscStatus@12 100202e8     ole32:ole32.dll
 0002:000002ec       __imp__OleRegEnumVerbs@8   100202ec     ole32:ole32.dll
 0002:000002f0       __imp__CLSIDFromProgID@8   100202f0     ole32:ole32.dll
 0002:000002f4       __imp__CoCreateInstance@20 100202f4     ole32:ole32.dll
 0002:000002f8       \177ole32_NULL_THUNK_DATA  100202f8     ole32:ole32.dll
 0002:000002fc       ___guard_check_icall_fptr  100202fc     LIBCMT:guard_support.obj
 0002:00000300       ___xc_a                    10020300     LIBCMT:initializers.obj
 0002:00000318       ___xc_z                    10020318     LIBCMT:initializers.obj
 0002:0000031c       ___xi_a                    1002031c     LIBCMT:initializers.obj
 0002:00000324       ___acrt_stdio_initializer  10020324     libucrt:stdio_initializer.obj
 0002:00000328       ___acrt_multibyte_initializer 10020328     libucrt:multibyte_initializer.obj
 0002:0000032c       ___acrt_tran_sse2_initializer 1002032c     libucrt:sse2_initializer.obj
 0002:00000330       ___xi_z                    10020330     LIBCMT:initializers.obj
 0002:00000334       ___xl_a                    10020334     LIBCMT:tlssup.obj
 0002:00000338       ___xl_z                    10020338     LIBCMT:tlssup.obj
 0002:0000033c       ___xp_a                    1002033c     LIBCMT:initializers.obj
 0002:00000340       ___acrt_locale_terminator  10020340     libucrt:locale_initializer.obj
 0002:00000344       ___dcrt_console_output_terminator 10020344     libucrt:console_output_initializer.obj
 0002:00000348       ___acrt_stdio_terminator   10020348     libucrt:stdio_initializer.obj
 0002:0000034c       ___xp_z                    1002034c     LIBCMT:initializers.obj
 0002:00000350       ___xt_a                    10020350     LIBCMT:initializers.obj
 0002:00000354       ___xt_z                    10020354     LIBCMT:initializers.obj
 0002:00000360       ??_C@_13HADIAKP@?$AAS@     10020360     OposVariant.obj
 0002:00000364       ??_C@_13LHMFKAAD@?$AAM@    10020364     OposVariant.obj
 0002:00000368       ??_C@_13MKMNOPIJ@?$AAD@    10020368     OposVariant.obj
 0002:0000036c       ??_C@_13OPKGLAFF@?$AAB@    1002036c     OposVariant.obj
 0002:00000370       ??_C@_17LLMMEOJD@?$AAV?$AAa?$AAl@ 10020370     OposVariant.obj
 0002:00000378       ??_C@_1BI@JFAIJMHL@?$AAF?$AAo?$AAr?$AAc?$AAe?$AAR?$AAe?$AAm?$AAo?$AAv?$AAe@ 10020378     OposVariant.obj
 0002:00000390       ??_C@_1BC@GCKHIPE@?$AAN?$AAo?$AAR?$AAe?$AAm?$AAo?$AAv?$AAe@ 10020390     OposVariant.obj
 0002:000003a4       ??_C@_1O@JDLOHAN@?$AAD?$AAe?$AAl?$AAe?$AAt?$AAe@ 100203a4     OposVariant.obj
 0002:000003b4       ??_C@_11LOCGONAA@@         100203b4     OposVariant.obj
 0002:000003b8       ??_7CComClassFactory@ATL@@6B@ 100203b8     CashChanger.obj
 0002:000003d0       ?_entries@?1??_GetEntries@CComClassFactory@ATL@@SGPBU_ATL_INTMAP_ENTRY@3@XZ@4QBU43@B 100203d0     CashChanger.obj
 0002:000003e8       __GUID_00000001_0000_0000_c000_000000000046 100203e8     CashChanger.obj
 0002:000003f8       _IID_IOPOSCashChanger_1_5  100203f8     CashChanger.obj
 0002:00000408       _IID_IOPOSCashChanger_1_8  10020408     CashChanger.obj
 0002:00000418       _IID_IOPOSCashChanger_1_9  10020418     CashChanger.obj
 0002:00000428       _IID_IOPOSCashChanger_1_11 10020428     CashChanger.obj
 0002:00000438       _IID_IOPOSCashChanger      10020438     CashChanger.obj
 0002:00000448       _LIBID_OposCashChanger_CCO 10020448     CashChanger.obj
 0002:00000458       _DIID__IOPOSCashChangerEvents 10020458     CashChanger.obj
 0002:00000468       _CLSID_OPOSCashChanger     10020468     CashChanger.obj
 0002:00000478       __GUID_00000114_0000_0000_c000_000000000046 10020478     CashChanger.obj
 0002:00000488       ??_C@_1BK@BIGILECK@?$AAA?$AAd?$AAv?$AAa?$AAp?$AAi?$AA3?$AA2?$AA?4?$AAd?$AAl?$AAl@ 10020488     CashChanger.obj
 0002:000004a4       ??_C@_0BI@MNCFCPFK@RegCreateKeyTransactedW@ 100204a4     CashChanger.obj
 0002:000004bc       __GUID_b196b287_bab4_101a_b69c_00aa00341d07 100204bc     CashChanger.obj
 0002:000004cc       __GUID_b196b285_bab4_101a_b69c_00aa00341d07 100204cc     CashChanger.obj
 0002:000004dc       __GUID_a6bc3ac0_dbaa_11ce_9de3_00aa004bb851 100204dc     CashChanger.obj
 0002:000004ec       __GUID_0000010c_0000_0000_c000_000000000046 100204ec     CashChanger.obj
 0002:000004fc       __GUID_00000146_0000_0000_c000_000000000046 100204fc     CashChanger.obj
 0002:00000510       ?_entries@?1??_GetEntries@COPOSCashChanger@@SGPBU_ATL_INTMAP_ENTRY@ATL@@XZ@4QBU34@B 10020510     CashChanger.obj
 0002:00000654       __GUID_cf51ed10_62fe_11cf_bf86_00a0c9034836 10020654     CashChanger.obj
 0002:00000664       __GUID_0000010a_0000_0000_c000_000000000046 10020664     CashChanger.obj
 0002:00000674       __GUID_b196b283_bab4_101a_b69c_00aa00341d07 10020674     CashChanger.obj
 0002:00000684       __GUID_cb5bdc81_93c1_11cf_8f20_00805f2cd064 10020684     CashChanger.obj
 0002:00000698       ?pPropMap@?1??GetPropertyMap@COPOSCashChanger@@SAPBUATL_PROPMAP_ENTRY@ATL@@XZ@4QBU34@B 10020698     CashChanger.obj
 0002:00000704       ??_C@_17DGDADEHL@?$AA_?$AAc?$AAx@ 10020704     CashChanger.obj
 0002:0000070c       ??_C@_17IOIMFDBO@?$AA_?$AAc?$AAy@ 1002070c     CashChanger.obj
 0002:00000714       ??_7CComModule@ATL@@6B@    10020714     CashChanger.obj
 0002:0000073c       __GUID_922eada0_3424_11cf_b670_00aa004cd6d8 1002073c     CashChanger.obj
 0002:0000074c       __GUID_9c2cad80_3424_11cf_b670_00aa004cd6d8 1002074c     CashChanger.obj
 0002:0000075c       __GUID_00000119_0000_0000_c000_000000000046 1002075c     CashChanger.obj
 0002:0000076c       __GUID_b196b289_bab4_101a_b69c_00aa00341d07 1002076c     CashChanger.obj
 0002:0000077c       __GUID_00000000_0000_0000_c000_000000000046 1002077c     CashChanger.obj
 0002:0000078c       __GUID_00020400_0000_0000_c000_000000000046 1002078c     CashChanger.obj
 0002:0000079c       __GUID_00000117_0000_0000_c000_000000000046 1002079c     CashChanger.obj
 0002:000007ac       ??_7?$CComObjectCached@VCComClassFactory@ATL@@@ATL@@6B@ 100207ac     CashChanger.obj
 0002:000007c4       ??_C@_1CE@PGFMOFKI@?$AAS?$AAt?$AAa?$AAt?$AAu?$AAs?$AAU?$AAp?$AAd?$AAa?$AAt?$AAe?$AAE?$AAv?$AAe@ 100207c4     CashChanger.obj
 0002:000007e8       ??_C@_1BM@CBGEBBBJ@?$AAD?$AAi?$AAr?$AAe?$AAc?$AAt?$AAI?$AAO?$AAE?$AAv?$AAe?$AAn?$AAt@ 100207e8     CashChanger.obj
 0002:00000804       ??_C@_1BE@IEBMACEM@?$AAD?$AAa?$AAt?$AAa?$AAE?$AAv?$AAe?$AAn?$AAt@ 10020804     CashChanger.obj
 0002:00000818       __GUID_b196b286_bab4_101a_b69c_00aa00341d07 10020818     CashChanger.obj
 0002:00000828       ??_C@_1BC@ENICKDH@?$AAC?$AAo?$AAn?$AAt?$AAe?$AAn?$AAt?$AAs@ 10020828     CashChanger.obj
 0002:0000083c       ??_7?$CComObject@V?$CComEnum@UIEnumConnectionPoints@@$1?_GUID_b196b285_bab4_101a_b69c_00aa00341d07@@3U__s_GUID@@BPAUIConnectionPoint@@V?$_CopyInterface@UIConnectionPoint@@@ATL@@VCComSingleThreadModel@6@@ATL@@@ATL@@6B@ 1002083c     CashChanger.obj
 0002:0000085c       ??_C@_1M@KANJNLFF@?$AAC?$AAL?$AAS?$AAI?$AAD@ 1002085c     CashChanger.obj
 0002:00000868       ??_C@_1M@EJNEECMJ@?$AAA?$AAp?$AAp?$AAI?$AAD@ 10020868     CashChanger.obj
 0002:00000874       __GUID_0000010e_0000_0000_c000_000000000046 10020874     CashChanger.obj
 0002:00000884       __GUID_b196b288_bab4_101a_b69c_00aa00341d07 10020884     CashChanger.obj
 0002:00000894       ?rgszNeverDelete@CRegParser@ATL@@1QBQB_WB 10020894     CashChanger.obj
 0002:000008c4       ??_7CRegObject@ATL@@6B@    100208c4     CashChanger.obj
 0002:000008dc       __GUID_00000113_0000_0000_c000_000000000046 100208dc     CashChanger.obj
 0002:000008ec       __GUID_1c2056cc_5ef4_101b_8bc8_00aa003e3b29 100208ec     CashChanger.obj
 0002:000008fc       ??_C@_1CK@OEKPKBNA@?$AAC?$AAo?$AAm?$AAp?$AAo?$AAn?$AAe?$AAn?$AAt?$AA?5?$AAC?$AAa?$AAt?$AAe?$AAg@ 100208fc     CashChanger.obj
 0002:00000928       ??_C@_1BC@NKMMNMGL@?$AAF?$AAi?$AAl?$AAe?$AAT?$AAy?$AAp?$AAe@ 10020928     CashChanger.obj
 0002:0000093c       ??_C@_1BE@EKPAFMCP@?$AAI?$AAn?$AAt?$AAe?$AAr?$AAf?$AAa?$AAc?$AAe@ 1002093c     CashChanger.obj
 0002:00000950       ??_C@_1BC@MAICEHGI@?$AAH?$AAa?$AAr?$AAd?$AAw?$AAa?$AAr?$AAe@ 10020950     CashChanger.obj
 0002:00000964       ??_C@_19HLLLM@?$AAM?$AAi?$AAm?$AAe@ 10020964     CashChanger.obj
 0002:00000970       ??_C@_17OMAOINJK@?$AAS?$AAA?$AAM@ 10020970     CashChanger.obj
 0002:00000978       ??_C@_1BC@IBECJAAI@?$AAS?$AAE?$AAC?$AAU?$AAR?$AAI?$AAT?$AAY@ 10020978     CashChanger.obj
 0002:0000098c       ??_C@_1O@GBFINDKL@?$AAS?$AAY?$AAS?$AAT?$AAE?$AAM@ 1002098c     CashChanger.obj
 0002:0000099c       ??_C@_1BC@EAHCMADO@?$AAS?$AAo?$AAf?$AAt?$AAw?$AAa?$AAr?$AAe@ 1002099c     CashChanger.obj
 0002:000009b0       ??_C@_1BA@JIHHIEDE@?$AAT?$AAy?$AAp?$AAe?$AAL?$AAi?$AAb@ 100209b0     CashChanger.obj
 0002:000009c0       ?map@?1??HKeyFromString@CRegParser@ATL@@KAPAUHKEY__@@PA_W@Z@4QBUkeymap@?1??123@KAPAU4@0@Z@B 100209c0     CashChanger.obj
 0002:00000a30       ??_C@_19NCHLBIN@?$AAH?$AAK?$AAC?$AAR@ 10020a30     CashChanger.obj
 0002:00000a3c       ??_C@_19JAPAIJDE@?$AAH?$AAK?$AAC?$AAU@ 10020a3c     CashChanger.obj
 0002:00000a48       ??_C@_19PEALEEJB@?$AAH?$AAK?$AAL?$AAM@ 10020a48     CashChanger.obj
 0002:00000a54       ??_C@_17PJOJPMPB@?$AAH?$AAK?$AAU@ 10020a54     CashChanger.obj
 0002:00000a5c       ??_C@_19PNBHMJPL@?$AAH?$AAK?$AAP?$AAD@ 10020a5c     CashChanger.obj
 0002:00000a68       ??_C@_19GFFAIJHG@?$AAH?$AAK?$AAD?$AAD@ 10020a68     CashChanger.obj
 0002:00000a74       ??_C@_19OFICIBHH@?$AAH?$AAK?$AAC?$AAC@ 10020a74     CashChanger.obj
 0002:00000a80       ??_C@_1CE@PACHPJFI@?$AAH?$AAK?$AAE?$AAY?$AA_?$AAC?$AAL?$AAA?$AAS?$AAS?$AAE?$AAS?$AA_?$AAR?$AAO@ 10020a80     CashChanger.obj
 0002:00000aa4       ??_C@_1CE@HLHNCBPM@?$AAH?$AAK?$AAE?$AAY?$AA_?$AAC?$AAU?$AAR?$AAR?$AAE?$AAN?$AAT?$AA_?$AAU?$AAS@ 10020aa4     CashChanger.obj
 0002:00000ac8       ??_C@_1CG@GFBEANJL@?$AAH?$AAK?$AAE?$AAY?$AA_?$AAL?$AAO?$AAC?$AAA?$AAL?$AA_?$AAM?$AAA?$AAC?$AAH@ 10020ac8     CashChanger.obj
 0002:00000af0       ??_C@_1BG@BGODANIO@?$AAH?$AAK?$AAE?$AAY?$AA_?$AAU?$AAS?$AAE?$AAR?$AAS@ 10020af0     CashChanger.obj
 0002:00000b08       ??_C@_1CM@KHNNAOIC@?$AAH?$AAK?$AAE?$AAY?$AA_?$AAP?$AAE?$AAR?$AAF?$AAO?$AAR?$AAM?$AAA?$AAN?$AAC@ 10020b08     CashChanger.obj
 0002:00000b34       ??_C@_1BM@HAGMMHIA@?$AAH?$AAK?$AAE?$AAY?$AA_?$AAD?$AAY?$AAN?$AA_?$AAD?$AAA?$AAT?$AAA@ 10020b34     CashChanger.obj
 0002:00000b50       ??_C@_1CI@BBJOACGG@?$AAH?$AAK?$AAE?$AAY?$AA_?$AAC?$AAU?$AAR?$AAR?$AAE?$AAN?$AAT?$AA_?$AAC?$AAO@ 10020b50     CashChanger.obj
 0002:00000b78       __GUID_00000112_0000_0000_c000_000000000046 10020b78     CashChanger.obj
 0002:00000b88       __GUID_00000109_0000_0000_c000_000000000046 10020b88     CashChanger.obj
 0002:00000b98       __GUID_7fd52380_4e07_101b_ae2d_08002b2ec713 10020b98     CashChanger.obj
 0002:00000ba8       __GUID_3af24292_0c96_11ce_a0cf_00aa00600ab8 10020ba8     CashChanger.obj
 0002:00000bb8       __GUID_00000127_0000_0000_c000_000000000046 10020bb8     CashChanger.obj
 0002:00000bc8       __GUID_0000010d_0000_0000_c000_000000000046 10020bc8     CashChanger.obj
 0002:00000bd8       ??_C@_1EA@NHKLICFA@?$AAH?$AAK?$AAC?$AAU?$AA?$AN?$AA?6?$AA?$HL?$AA?7?$AAS?$AAo?$AAf?$AAt?$AAw?$AAa?$AAr@ 10020bd8     CashChanger.obj
 0002:00000c18       ??_C@_1BE@LJOLIMEM@?$AA?$AN?$AA?6?$AA?7?$AA?$HN?$AA?$AN?$AA?6?$AA?$HN?$AA?$AN?$AA?6@ 10020c18     CashChanger.obj
 0002:00000c2c       ??_C@_1M@PPPPCDEP@?$AAA?$AAP?$AAP?$AAI?$AAD@ 10020c2c     CashChanger.obj
 0002:00000c38       ??_C@_1O@MNLDABAF@?$AAM?$AAo?$AAd?$AAu?$AAl?$AAe@ 10020c38     CashChanger.obj
 0002:00000c48       ??_C@_1BG@JBACFMF@?$AAM?$AAo?$AAd?$AAu?$AAl?$AAe?$AA_?$AAR?$AAa?$AAw@ 10020c48     CashChanger.obj
 0002:00000c60       ??_C@_1BC@KAILKFFG@?$AAR?$AAE?$AAG?$AAI?$AAS?$AAT?$AAR?$AAY@ 10020c60     CashChanger.obj
 0002:00000c74       ??_7?$CComContainedObject@VCOPOSCashChanger@@@ATL@@6B?$IDispatchImpl@UIOPOSCashChanger@@$1?IID_IOPOSCashChanger@@3U_GUID@@B$1?LIBID_OposCashChanger_CCO@@3U3@B$00$0A@VCComTypeInfoHolder@ATL@@@1@@ 10020c74     CashChanger.obj
 0002:00000dfc       ??_7?$CComContainedObject@VCOPOSCashChanger@@@ATL@@6BCComControlBase@1@@ 10020dfc     CashChanger.obj
 0002:00000e10       ??_7?$CComContainedObject@VCOPOSCashChanger@@@ATL@@6B?$CWindowImpl@VCOPOSCashChanger@@VCWindow@ATL@@V?$CWinTraits@$0FGAAAAAA@$0A@@3@@1@@ 10020e10     CashChanger.obj
 0002:00000e20       ??_7?$CComContainedObject@VCOPOSCashChanger@@@ATL@@6B?$IPersistStreamInitImpl@VCOPOSCashChanger@@@1@@ 10020e20     CashChanger.obj
 0002:00000e44       ??_7?$CComContainedObject@VCOPOSCashChanger@@@ATL@@6B?$IOleControlImpl@VCOPOSCashChanger@@@1@@ 10020e44     CashChanger.obj
 0002:00000e60       ??_7?$CComContainedObject@VCOPOSCashChanger@@@ATL@@6B?$IOleObjectImpl@VCOPOSCashChanger@@@1@@ 10020e60     CashChanger.obj
 0002:00000ec0       ??_7?$CComContainedObject@VCOPOSCashChanger@@@ATL@@6B?$IOleInPlaceActiveObjectImpl@VCOPOSCashChanger@@@1@@ 10020ec0     CashChanger.obj
 0002:00000ee8       ??_7?$CComContainedObject@VCOPOSCashChanger@@@ATL@@6B?$IViewObjectExImpl@VCOPOSCashChanger@@@1@@ 10020ee8     CashChanger.obj
 0002:00000f24       ??_7?$CComContainedObject@VCOPOSCashChanger@@@ATL@@6B?$IOleInPlaceObjectWindowlessImpl@VCOPOSCashChanger@@@1@@ 10020f24     CashChanger.obj
 0002:00000f50       ??_7?$CComContainedObject@VCOPOSCashChanger@@@ATL@@6B?$IConnectionPointContainerImpl@VCOPOSCashChanger@@@1@@ 10020f50     CashChanger.obj
 0002:00000f64       ??_7?$CComContainedObject@VCOPOSCashChanger@@@ATL@@6B?$IPersistStorageImpl@VCOPOSCashChanger@@@1@@ 10020f64     CashChanger.obj
 0002:00000f8c       ??_7?$CComContainedObject@VCOPOSCashChanger@@@ATL@@6B?$ISpecifyPropertyPagesImpl@VCOPOSCashChanger@@@1@@ 10020f8c     CashChanger.obj
 0002:00000f9c       ??_7?$CComContainedObject@VCOPOSCashChanger@@@ATL@@6B?$IQuickActivateImpl@VCOPOSCashChanger@@@1@@ 10020f9c     CashChanger.obj
 0002:00000fb4       ??_7?$CComContainedObject@VCOPOSCashChanger@@@ATL@@6B?$IDataObjectImpl@VCOPOSCashChanger@@@1@@ 10020fb4     CashChanger.obj
 0002:00000fe4       ??_7?$CComContainedObject@VCOPOSCashChanger@@@ATL@@6B?$IProvideClassInfo2Impl@$1?CLSID_OPOSCashChanger@@3U_GUID@@B$1?DIID__IOPOSCashChangerEvents@@3U2@B$1?LIBID_OposCashChanger_CCO@@3U2@B$00$0A@VCComTypeInfoHolder@ATL@@@1@@ 10020fe4     CashChanger.obj
 0002:00000ff8       ??_7?$CComContainedObject@VCOPOSCashChanger@@@ATL@@6B?$IObjectSafetyImpl@VCOPOSCashChanger@@$02@1@@ 10020ff8     CashChanger.obj
 0002:00001010       ??_7?$CComContainedObject@VCOPOSCashChanger@@@ATL@@6B?$IPropertyNotifySinkCP@VCOPOSCashChanger@@VCComDynamicUnkArray@ATL@@@1@@ 10021010     CashChanger.obj
 0002:00001030       ??_7?$CComContainedObject@VCOPOSCashChanger@@@ATL@@6B?$CProxy_IOPOSEvents@VCOPOSCashChanger@@@@@ 10021030     CashChanger.obj
 0002:00001050       ??_7?$CComAggObject@VCOPOSCashChanger@@@ATL@@6B@ 10021050     CashChanger.obj
 0002:00001060       ??_7?$CComObject@VCOPOSCashChanger@@@ATL@@6B?$IDispatchImpl@UIOPOSCashChanger@@$1?IID_IOPOSCashChanger@@3U_GUID@@B$1?LIBID_OposCashChanger_CCO@@3U3@B$00$0A@VCComTypeInfoHolder@ATL@@@1@@ 10021060     CashChanger.obj
 0002:000011e8       ??_7?$CComObject@VCOPOSCashChanger@@@ATL@@6BCComControlBase@1@@ 100211e8     CashChanger.obj
 0002:000011fc       ??_7?$CComObject@VCOPOSCashChanger@@@ATL@@6B?$CWindowImpl@VCOPOSCashChanger@@VCWindow@ATL@@V?$CWinTraits@$0FGAAAAAA@$0A@@3@@1@@ 100211fc     CashChanger.obj
 0002:0000120c       ??_7?$CComObject@VCOPOSCashChanger@@@ATL@@6B?$IPersistStreamInitImpl@VCOPOSCashChanger@@@1@@ 1002120c     CashChanger.obj
 0002:00001230       ??_7?$CComObject@VCOPOSCashChanger@@@ATL@@6B?$IOleControlImpl@VCOPOSCashChanger@@@1@@ 10021230     CashChanger.obj
 0002:0000124c       ??_7?$CComObject@VCOPOSCashChanger@@@ATL@@6B?$IOleObjectImpl@VCOPOSCashChanger@@@1@@ 1002124c     CashChanger.obj
 0002:000012ac       ??_7?$CComObject@VCOPOSCashChanger@@@ATL@@6B?$IOleInPlaceActiveObjectImpl@VCOPOSCashChanger@@@1@@ 100212ac     CashChanger.obj
 0002:000012d4       ??_7?$CComObject@VCOPOSCashChanger@@@ATL@@6B?$IViewObjectExImpl@VCOPOSCashChanger@@@1@@ 100212d4     CashChanger.obj
 0002:00001310       ??_7?$CComObject@VCOPOSCashChanger@@@ATL@@6B?$IOleInPlaceObjectWindowlessImpl@VCOPOSCashChanger@@@1@@ 10021310     CashChanger.obj
 0002:0000133c       ??_7?$CComObject@VCOPOSCashChanger@@@ATL@@6B?$IConnectionPointContainerImpl@VCOPOSCashChanger@@@1@@ 1002133c     CashChanger.obj
 0002:00001350       ??_7?$CComObject@VCOPOSCashChanger@@@ATL@@6B?$IPersistStorageImpl@VCOPOSCashChanger@@@1@@ 10021350     CashChanger.obj
 0002:00001378       ??_7?$CComObject@VCOPOSCashChanger@@@ATL@@6B?$ISpecifyPropertyPagesImpl@VCOPOSCashChanger@@@1@@ 10021378     CashChanger.obj
 0002:00001388       ??_7?$CComObject@VCOPOSCashChanger@@@ATL@@6B?$IQuickActivateImpl@VCOPOSCashChanger@@@1@@ 10021388     CashChanger.obj
 0002:000013a0       ??_7?$CComObject@VCOPOSCashChanger@@@ATL@@6B?$IDataObjectImpl@VCOPOSCashChanger@@@1@@ 100213a0     CashChanger.obj
 0002:000013d0       ??_7?$CComObject@VCOPOSCashChanger@@@ATL@@6B?$IProvideClassInfo2Impl@$1?CLSID_OPOSCashChanger@@3U_GUID@@B$1?DIID__IOPOSCashChangerEvents@@3U2@B$1?LIBID_OposCashChanger_CCO@@3U2@B$00$0A@VCComTypeInfoHolder@ATL@@@1@@ 100213d0     CashChanger.obj
 0002:000013e4       ??_7?$CComObject@VCOPOSCashChanger@@@ATL@@6B?$IObjectSafetyImpl@VCOPOSCashChanger@@$02@1@@ 100213e4     CashChanger.obj
 0002:000013fc       ??_7?$CComObject@VCOPOSCashChanger@@@ATL@@6B?$IPropertyNotifySinkCP@VCOPOSCashChanger@@VCComDynamicUnkArray@ATL@@@1@@ 100213fc     CashChanger.obj
 0002:0000141c       ??_7?$CComObject@VCOPOSCashChanger@@@ATL@@6B?$CProxy_IOPOSEvents@VCOPOSCashChanger@@@@@ 1002141c     CashChanger.obj
 0002:0000143c       ??_C@_1O@GBFKGNEO@?$AAA?$AAT?$AAL?$AA?3?$AA?$CF?$AAp@ 1002143c     CashChanger.obj
 0002:0000144c       ??_C@_1BA@PICGEGJB@?$AAD?$AAI?$AAS?$AAP?$AAL?$AAA?$AAY@ 1002144c     CashChanger.obj
 0002:0000145c       __GUID_9bfbbc02_eff1_101a_84ed_00aa00341d07 1002145c     CashChanger.obj
 0002:0000146c       __GUID_b196b284_bab4_101a_b69c_00aa00341d07 1002146c     CashChanger.obj
 0002:0000147c       ?_entries@?1??_GetEntries@?$CComEnum@UIEnumConnectionPoints@@$1?_GUID_b196b285_bab4_101a_b69c_00aa00341d07@@3U__s_GUID@@BPAUIConnectionPoint@@V?$_CopyInterface@UIConnectionPoint@@@ATL@@VCComSingleThreadModel@6@@ATL@@SGPBU_ATL_INTMAP_ENTRY@3@XZ@4QBU43@B 1002147c     CashChanger.obj
 0002:00001494       __GUID_00020412_0000_0000_c000_000000000046 10021494     CashChanger.obj
 0002:000014a4       __GUID_00020401_0000_0000_c000_000000000046 100214a4     CashChanger.obj
 0002:000014b4       __GUID_55980ba0_35aa_11cf_b671_00aa004cd6d8 100214b4     CashChanger.obj
 0002:000014c4       ??_7?$CComObject@V?$CComEnum@UIEnumConnections@@$1?_GUID_b196b287_bab4_101a_b69c_00aa00341d07@@3U__s_GUID@@BUtagCONNECTDATA@@V?$_Copy@UtagCONNECTDATA@@@ATL@@VCComSingleThreadModel@6@@ATL@@@ATL@@6B@ 100214c4     CashChanger.obj
 0002:000014e4       __GUID_b196b28b_bab4_101a_b69c_00aa00341d07 100214e4     CashChanger.obj
 0002:000014f4       ?_entries@?1??_GetEntries@?$CComEnum@UIEnumConnections@@$1?_GUID_b196b287_bab4_101a_b69c_00aa00341d07@@3U__s_GUID@@BUtagCONNECTDATA@@V?$_Copy@UtagCONNECTDATA@@@ATL@@VCComSingleThreadModel@6@@ATL@@SGPBU_ATL_INTMAP_ENTRY@3@XZ@4QBU43@B 100214f4     CashChanger.obj
 0002:0000150c       ??_C@_0BG@EKFFMJIO@RegOpenKeyTransactedW@ 1002150c     CashChanger.obj
 0002:00001524       ??_C@_0BI@HAKLOOGP@RegDeleteKeyTransactedW@ 10021524     CashChanger.obj
 0002:0000153c       ??_C@_0BA@LILAPHGE@RegDeleteKeyExW@ 1002153c     CashChanger.obj
 0002:0000154c       ??_C@_19ILOCMLCJ@?$AA?4?$AAt?$AAl?$AAb@ 1002154c     CashChanger.obj
 0002:00001558       __GUID_0002e012_0000_0000_c000_000000000046 10021558     CashChanger.obj
 0002:00001568       ??_C@_1O@FHBGLCIO@?$AAC?$AAL?$AAS?$AAI?$AAD?$AA?2@ 10021568     CashChanger.obj
 0002:00001578       ??_C@_1CK@IFBKBFAA@?$AA?2?$AAR?$AAe?$AAq?$AAu?$AAi?$AAr?$AAe?$AAd?$AA?5?$AAC?$AAa?$AAt?$AAe?$AAg@ 10021578     CashChanger.obj
 0002:000015a4       ??_C@_1DA@BIHALFED@?$AA?2?$AAI?$AAm?$AAp?$AAl?$AAe?$AAm?$AAe?$AAn?$AAt?$AAe?$AAd?$AA?5?$AAC?$AAa@ 100215a4     CashChanger.obj
 0002:000015d4       ??_C@_1BK@EDKOLFBJ@?$AAO?$AAL?$AAE?$AAA?$AAU?$AAT?$AA3?$AA2?$AA?4?$AAD?$AAL?$AAL@ 100215d4     CashChanger.obj
 0002:000015f0       ??_C@_0BJ@CNLFOMHB@UnRegisterTypeLibForUser@ 100215f0     CashChanger.obj
 0002:0000160c       ??_C@_0BH@LBOMMKPJ@RegisterTypeLibForUser@ 1002160c     CashChanger.obj
 0002:00001624       ??_C@_0P@MMNMMLGK@COFreezeEvents@ 10021624     CashChangerImpl.obj
 0002:00001634       ??_C@_0BC@OGCGGIMP@GetPropertyNumber@ 10021634     CashChangerImpl.obj
 0002:00001648       ??_C@_0BC@MDCNODNB@SetPropertyNumber@ 10021648     CashChangerImpl.obj
 0002:0000165c       ??_C@_0BC@CFCCMIMD@GetPropertyString@ 1002165c     CashChangerImpl.obj
 0002:00001670       ??_C@_0BC@CJEDNN@SetPropertyString@ 10021670     CashChangerImpl.obj
 0002:00001684       ??_C@_0M@LNPKKKDA@OpenService@ 10021684     CashChangerImpl.obj
 0002:00001690       ??_C@_0M@PCMCHHMH@CheckHealth@ 10021690     CashChangerImpl.obj
 0002:0000169c       ??_C@_0M@JGMIDNEK@ClaimDevice@ 1002169c     CashChangerImpl.obj
 0002:000016a8       ??_C@_0N@DDFIIBMP@CloseService@ 100216a8     CashChangerImpl.obj
 0002:000016b8       ??_C@_08EEIHICPC@DirectIO@ 100216b8     CashChangerImpl.obj
 0002:000016c4       ??_C@_0O@BCPMENMJ@ReleaseDevice@ 100216c4     CashChangerImpl.obj
 0002:000016d4       ??_C@_0N@JILLACNH@DispenseCash@ 100216d4     CashChangerImpl.obj
 0002:000016e4       ??_C@_0P@GNCBCCPO@DispenseChange@ 100216e4     CashChangerImpl.obj
 0002:000016f4       ??_C@_0P@HELDJPLA@ReadCashCounts@ 100216f4     CashChangerImpl.obj
 0002:00001704       ??_C@_0L@BNEIFEJC@ClearInput@ 10021704     CashChangerImpl.obj
 0002:00001710       ??_C@_0N@EMNBHBJF@BeginDeposit@ 10021710     CashChangerImpl.obj
 0002:00001720       ??_C@_0L@OMAABOPC@EndDeposit@ 10021720     CashChangerImpl.obj
 0002:0000172c       ??_C@_0L@NNMKNCOP@FixDeposit@ 1002172c     CashChangerImpl.obj
 0002:00001738       ??_C@_0N@NPMPKLIN@PauseDeposit@ 10021738     CashChangerImpl.obj
 0002:00001748       ??_C@_0BA@GFABKEEE@ResetStatistics@ 10021748     CashChangerImpl.obj
 0002:00001758       ??_C@_0BD@DPALHJGC@RetrieveStatistics@ 10021758     CashChangerImpl.obj
 0002:0000176c       ??_C@_0BB@KOHIKNFC@UpdateStatistics@ 1002176c     CashChangerImpl.obj
 0002:00001780       ??_C@_0BH@PBKBNMGB@CompareFirmwareVersion@ 10021780     CashChangerImpl.obj
 0002:00001798       ??_C@_0P@FBPDPIPA@UpdateFirmware@ 10021798     CashChangerImpl.obj
 0002:000017a8       ??_C@_0BB@OAMAKNAK@AdjustCashCounts@ 100217a8     CashChangerImpl.obj
 0002:000017bc       ??_7?$CProxy_IOPOSEvents@VCOPOSCashChanger@@@@6B@ 100217bc     CashChangerImpl.obj
 0002:000017dc       ??_C@_1BA@IFHENID@?$AA?$FL?$AAE?$AAr?$AAr?$AAo?$AAr?$AA?$FN@ 100217dc     CashChangerImpl.obj
 0002:000017ec       ??_C@_0CO@MKBAPLOJ@SOFTWARE?2OLEforRetail?2ServiceOP@ 100217ec     CashChangerImpl.obj
 0002:0000181c       ??_C@_1M@IAIJHCCH@?$AAC?$AAl?$AAo?$AAs?$AAe@ 1002181c     CashChangerImpl.obj
 0002:00001828       ??_C@_1M@PCPKGJAH@?$AAC?$AAl?$AAa?$AAi?$AAm@ 10021828     CashChangerImpl.obj
 0002:00001834       ??_C@_1BA@NDFKIOCP@?$AAR?$AAe?$AAl?$AAe?$AAa?$AAs?$AAe@ 10021834     CashChangerImpl.obj
 0002:00001844       ??_C@_0M@KHENAHBF@CashChanger@ 10021844     CashChangerImpl.obj
 0002:00001850       ??_C@_1BM@IJMNMBPK@?$AAG?$AAe?$AAt?$AAO?$AAp?$AAe?$AAn?$AAR?$AAe?$AAs?$AAu?$AAl?$AAt@ 10021850     CashChangerImpl.obj
 0002:0000186c       _IID_IPropertyNotifySink   1002186c     uuid:ocidl_i.obj
 0002:0000187c       _GUID_NULL                 1002187c     uuid:cguid_i.obj
 0002:0000188c       _CLSID_StdGlobalInterfaceTable 1002188c     uuid:cguid_i.obj
 0002:0000189c       _IID_IDispatch             1002189c     uuid:oaidl_i.obj
 0002:000018ac       _CLSID_StdComponentCategoriesMgr 100218ac     uuid:ieguids.obj
 0002:000018bc       _IID_IUnknown              100218bc     uuid:unknwn_i.obj
 0002:000018d0       ??_C@_1EC@JIJBPKFM@?$AAa?$AAp?$AAi?$AA?9?$AAm?$AAs?$AA?9?$AAw?$AAi?$AAn?$AA?9?$AAc?$AAo?$AAr?$AAe@ 100218d0     LIBCMT:thread_safe_statics.obj
 0002:00001914       ??_C@_1BK@MGMFAEKH@?$AAk?$AAe?$AAr?$AAn?$AAe?$AAl?$AA3?$AA2?$AA?4?$AAd?$AAl?$AAl@ 10021914     LIBCMT:thread_safe_statics.obj
 0002:00001930       ??_C@_0BJ@JEBJOJFJ@SleepConditionVariableCS@ 10021930     LIBCMT:thread_safe_statics.obj
 0002:0000194c       ??_C@_0BJ@PGPPEPCC@WakeAllConditionVariable@ 1002194c     LIBCMT:thread_safe_statics.obj
 0002:00001965       ?nothrow@std@@3Unothrow_t@1@B 10021965     LIBCMT:std_nothrow.obj
 0002:00001970       __pRawDllMain              10021970     LIBCMT:dll_dllmain.obj
 0002:00001970       __pDefaultRawDllMain       10021970     LIBCMT:dll_dllmain.obj
 0002:00001978       ??_7exception@std@@6B@     10021978     LIBCMT:throw_bad_alloc.obj
 0002:00001980       ??_C@_0BC@EOODALEL@Unknown?5exception@ 10021980     LIBCMT:throw_bad_alloc.obj
 0002:00001998       ??_7bad_alloc@std@@6B@     10021998     LIBCMT:throw_bad_alloc.obj
 0002:000019a0       ??_C@_0P@GHFPNOJB@bad?5allocation@ 100219a0     LIBCMT:throw_bad_alloc.obj
 0002:000019b4       ??_7bad_array_new_length@std@@6B@ 100219b4     LIBCMT:throw_bad_alloc.obj
 0002:000019bc       ??_C@_0BF@KINCDENJ@bad?5array?5new?5length@ 100219bc     LIBCMT:throw_bad_alloc.obj
 0002:000019d8       ??_7type_info@@6B@         100219d8     LIBCMT:std_type_info_static.obj
 0002:000019dc       _GUID_ATLVer110            100219dc     atls:atlbase.obj
 0002:000019f0       ??_C@_1IC@ONKHOIDK@?$AAE?$AAR?$AAR?$AAO?$AAR?$AA?5?$AA?3?$AA?5?$AAU?$AAn?$AAa?$AAb?$AAl?$AAe?$AA?5@ 100219f0     atls:atlbase.obj
 0002:00001a74       ??_C@_0N@FJEPLCIH@atlthunk?4dll@ 10021a74     atls:atlthunk.obj
 0002:00001a84       ??_C@_0BG@GAKFHCBM@AtlThunk_AllocateData@ 10021a84     atls:atlthunk.obj
 0002:00001a9c       ??_C@_0BC@JKONFIAH@AtlThunk_InitData@ 10021a9c     atls:atlthunk.obj
 0002:00001ab0       ??_C@_0BE@IAOEELAK@AtlThunk_DataToCode@ 10021ab0     atls:atlthunk.obj
 0002:00001ac4       ??_C@_0BC@GBGKAIPI@AtlThunk_FreeData@ 10021ac4     atls:atlthunk.obj
 0002:00001ad8       __pDestructExceptionObject 10021ad8     libvcruntime:ehhelpers.obj
 0002:00001ae0       ??_7bad_exception@std@@6B@ 10021ae0     libvcruntime:frame.obj
 0002:00001ae8       ??_C@_0O@DPKOEFFH@bad?5exception@ 10021ae8     libvcruntime:frame.obj
 0002:00001e78       ??_C@_08EHJDFFNH@__based?$CI@ 10021e78     libvcruntime:undname.obj
 0002:00001e84       ??_C@_07KOLFKCDI@__cdecl@  10021e84     libvcruntime:undname.obj
 0002:00001e8c       ??_C@_08GHMPAG@__pascal@   10021e8c     libvcruntime:undname.obj
 0002:00001e98       ??_C@_09IFJBGAPI@__stdcall@ 10021e98     libvcruntime:undname.obj
 0002:00001ea4       ??_C@_0L@NPHFGOKO@__thiscall@ 10021ea4     libvcruntime:undname.obj
 0002:00001eb0       ??_C@_0L@JMKHOMEK@__fastcall@ 10021eb0     libvcruntime:undname.obj
 0002:00001ebc       ??_C@_0N@BCKKPABJ@__vectorcall@ 10021ebc     libvcruntime:undname.obj
 0002:00001ecc       ??_C@_09HIJEGCPM@__clrcall@ 10021ecc     libvcruntime:undname.obj
 0002:00001ed8       ??_C@_06GHPCKEAG@__eabi@   10021ed8     libvcruntime:undname.obj
 0002:00001ee0       ??_C@_09IOPIDJLG@__swift_1@ 10021ee0     libvcruntime:undname.obj
 0002:00001eec       ??_C@_09KFNFGKHF@__swift_2@ 10021eec     libvcruntime:undname.obj
 0002:00001ef8       ??_C@_07JOMMBBKO@__ptr64@  10021ef8     libvcruntime:undname.obj
 0002:00001f00       ??_C@_0L@PILCLIHE@__restrict@ 10021f00     libvcruntime:undname.obj
 0002:00001f0c       ??_C@_0M@GFIIJFMG@__unaligned@ 10021f0c     libvcruntime:undname.obj
 0002:00001f18       ??_C@_09DHDLOLLB@restrict?$CI@ 10021f18     libvcruntime:undname.obj
 0002:00001f22       ??_C@_00CNPNBAHC@@         10021f22     libvcruntime:undname.obj
 0002:00001f24       ??_C@_04NIHEBCM@?5new@     10021f24     libvcruntime:undname.obj
 0002:00001f2c       ??_C@_07FPCDHGMM@?5delete@ 10021f2c     libvcruntime:undname.obj
 0002:00001f34       ??_C@_01NEMOKFLO@?$DN@     10021f34     libvcruntime:undname.obj
 0002:00001f38       ??_C@_02GPIOPFAK@?$DO?$DO@ 10021f38     libvcruntime:undname.obj
 0002:00001f3c       ??_C@_02FODMEDOG@?$DM?$DM@ 10021f3c     libvcruntime:undname.obj
 0002:00001f40       ??_C@_01DCLJPIOD@?$CB@     10021f40     libvcruntime:undname.obj
 0002:00001f44       ??_C@_02EGOFBIJA@?$DN?$DN@ 10021f44     libvcruntime:undname.obj
 0002:00001f48       ??_C@_02FDNJECIE@?$CB?$DN@ 10021f48     libvcruntime:undname.obj
 0002:00001f4c       ??_C@_02GPECMEKF@?$FL?$FN@ 10021f4c     libvcruntime:undname.obj
 0002:00001f50       ??_C@_08LHJFAFGD@operator@ 10021f50     libvcruntime:undname.obj
 0002:00001f5c       ??_C@_02HBOOOICD@?9?$DO@   10021f5c     libvcruntime:undname.obj
 0002:00001f60       ??_C@_01NBENCBCI@?$CK@     10021f60     libvcruntime:undname.obj
 0002:00001f64       ??_C@_02ECNGHCIF@?$CL?$CL@ 10021f64     libvcruntime:undname.obj
 0002:00001f68       ??_C@_02BAABKJLB@?9?9@     10021f68     libvcruntime:undname.obj
 0002:00001f6c       ??_C@_01JOAMLHOP@?9@       10021f6c     libvcruntime:undname.obj
 0002:00001f70       ??_C@_01MIFGBAGJ@?$CL@     10021f70     libvcruntime:undname.obj
 0002:00001f74       ??_C@_01HNPIGOCE@?$CG@     10021f74     libvcruntime:undname.obj
 0002:00001f78       ??_C@_03MNHNFDLC@?9?$DO?$CK@ 10021f78     libvcruntime:undname.obj
 0002:00001f7c       ??_C@_01KMDKNFGN@?1@       10021f7c     libvcruntime:undname.obj
 0002:00001f80       ??_C@_01FGNFDNOH@?$CF@     10021f80     libvcruntime:undname.obj
 0002:00001f84       ??_C@_01MNNFJEPP@?$DM@     10021f84     libvcruntime:undname.obj
 0002:00001f88       ??_C@_02EHCHHCKH@?$DM?$DN@ 10021f88     libvcruntime:undname.obj
 0002:00001f8c       ??_C@_01PPODPGHN@?$DO@     10021f8c     libvcruntime:undname.obj
 0002:00001f90       ??_C@_02EEKDKGMJ@?$DO?$DN@ 10021f90     libvcruntime:undname.obj
 0002:00001f94       ??_C@_01IHBHIGKO@?0@       10021f94     libvcruntime:undname.obj
 0002:00001f98       ??_C@_02HCKGKOFO@?$CI?$CJ@ 10021f98     libvcruntime:undname.obj
 0002:00001f9c       ??_C@_01PJKLJHI@?$HO@      10021f9c     libvcruntime:undname.obj
 0002:00001fa0       ??_C@_01JKBOJNNK@?$FO@     10021fa0     libvcruntime:undname.obj
 0002:00001fa4       ??_C@_01DNKMNLPK@?$HM@     10021fa4     libvcruntime:undname.obj
 0002:00001fa8       ??_C@_02PPKAJPJL@?$CG?$CG@ 10021fa8     libvcruntime:undname.obj
 0002:00001fac       ??_C@_02NONPIBCD@?$HM?$HM@ 10021fac     libvcruntime:undname.obj
 0002:00001fb0       ??_C@_02FPIMKNGF@?$CK?$DN@ 10021fb0     libvcruntime:undname.obj
 0002:00001fb4       ??_C@_02FOEOMHFC@?$CL?$DN@ 10021fb4     libvcruntime:undname.obj
 0002:00001fb8       ??_C@_02FKMDLLOA@?9?$DN@   10021fb8     libvcruntime:undname.obj
 0002:00001fbc       ??_C@_02FJEHGPIO@?1?$DN@   10021fbc     libvcruntime:undname.obj
 0002:00001fc0       ??_C@_02FENAOKFI@?$CF?$DN@ 10021fc0     libvcruntime:undname.obj
 0002:00001fc4       ??_C@_03IKFCCPFF@?$DO?$DO?$DN@ 10021fc4     libvcruntime:undname.obj
 0002:00001fc8       ??_C@_03CDNPDDLA@?$DM?$DM?$DN@ 10021fc8     libvcruntime:undname.obj
 0002:00001fcc       ??_C@_02FGJGFEAB@?$CG?$DN@ 10021fcc     libvcruntime:undname.obj
 0002:00001fd0       ??_C@_02DHLNPPGH@?$HM?$DN@ 10021fd0     libvcruntime:undname.obj
 0002:00001fd4       ??_C@_02MHEGNOJ@?$FO?$DN@  10021fd4     libvcruntime:undname.obj
 0002:00001fd8       ??_C@_09IFPLHPGF@?$GAvftable?8@ 10021fd8     libvcruntime:undname.obj
 0002:00001fe4       ??_C@_09BLBHBJP@?$GAvbtable?8@ 10021fe4     libvcruntime:undname.obj
 0002:00001ff0       ??_C@_07FEEIOKP@?$GAvcall?8@ 10021ff0     libvcruntime:undname.obj
 0002:00001ff8       ??_C@_08LLFFHHDJ@?$GAtypeof?8@ 10021ff8     libvcruntime:undname.obj
 0002:00002004       ??_C@_0BF@KDPPACIK@?$GAlocal?5static?5guard?8@ 10022004     libvcruntime:undname.obj
 0002:0000201c       ??_C@_08OBABFOLI@?$GAstring?8@ 1002201c     libvcruntime:undname.obj
 0002:00002028       ??_C@_0BD@JDLKDPAB@?$GAvbase?5destructor?8@ 10022028     libvcruntime:undname.obj
 0002:0000203c       ??_C@_0BN@DEGPLNFK@?$GAvector?5deleting?5destructor?8@ 1002203c     libvcruntime:undname.obj
 0002:0000205c       ??_C@_0BO@OBMKPJIG@?$GAdefault?5constructor?5closure?8@ 1002205c     libvcruntime:undname.obj
 0002:0000207c       ??_C@_0BN@IMDCHIKM@?$GAscalar?5deleting?5destructor?8@ 1002207c     libvcruntime:undname.obj
 0002:0000209c       ??_C@_0BO@PFGOCPJJ@?$GAvector?5constructor?5iterator?8@ 1002209c     libvcruntime:undname.obj
 0002:000020bc       ??_C@_0BN@LFPFMEDL@?$GAvector?5destructor?5iterator?8@ 100220bc     libvcruntime:undname.obj
 0002:000020dc       ??_C@_0CE@IKBNEHA@?$GAvector?5vbase?5constructor?5itera@ 100220dc     libvcruntime:undname.obj
 0002:00002100       ??_C@_0BL@NILFHHPC@?$GAvirtual?5displacement?5map?8@ 10022100     libvcruntime:undname.obj
 0002:0000211c       ??_C@_0CB@JONCMFFK@?$GAeh?5vector?5constructor?5iterator@ 1002211c     libvcruntime:undname.obj
 0002:00002140       ??_C@_0CA@GCEOPDGL@?$GAeh?5vector?5destructor?5iterator?8@ 10022140     libvcruntime:undname.obj
 0002:00002160       ??_C@_0CH@OOJPLCPH@?$GAeh?5vector?5vbase?5constructor?5it@ 10022160     libvcruntime:undname.obj
 0002:00002188       ??_C@_0BL@LLKPOHJI@?$GAcopy?5constructor?5closure?8@ 10022188     libvcruntime:undname.obj
 0002:000021a4       ??_C@_0BA@KBCDOMBN@?$GAudt?5returning?8@ 100221a4     libvcruntime:undname.obj
 0002:000021b4       ??_C@_03KLGMFNMG@?$GAEH@   100221b4     libvcruntime:undname.obj
 0002:000021b8       ??_C@_05KHLCHHI@?$GARTTI@  100221b8     libvcruntime:undname.obj
 0002:000021c0       ??_C@_0BA@KKLDJDLB@?$GAlocal?5vftable?8@ 100221c0     libvcruntime:undname.obj
 0002:000021d0       ??_C@_0CE@IIHCMGGL@?$GAlocal?5vftable?5constructor?5clos@ 100221d0     libvcruntime:undname.obj
 0002:000021f4       ??_C@_06FHBGPFGH@?5new?$FL?$FN@ 100221f4     libvcruntime:undname.obj
 0002:000021fc       ??_C@_09LBNFPBCA@?5delete?$FL?$FN@ 100221fc     libvcruntime:undname.obj
 0002:00002208       ??_C@_0P@HJKNJFNN@?$GAomni?5callsig?8@ 10022208     libvcruntime:undname.obj
 0002:00002218       ??_C@_0BL@CNOONJFP@?$GAplacement?5delete?5closure?8@ 10022218     libvcruntime:undname.obj
 0002:00002234       ??_C@_0BN@CKNJLHMB@?$GAplacement?5delete?$FL?$FN?5closure?8@ 10022234     libvcruntime:undname.obj
 0002:00002254       ??_C@_0CG@CFDHKGGD@?$GAmanaged?5vector?5constructor?5ite@ 10022254     libvcruntime:undname.obj
 0002:0000227c       ??_C@_0CF@IMGKMJNO@?$GAmanaged?5vector?5destructor?5iter@ 1002227c     libvcruntime:undname.obj
 0002:000022a4       ??_C@_0CG@HLDDJMAG@?$GAeh?5vector?5copy?5constructor?5ite@ 100222a4     libvcruntime:undname.obj
 0002:000022cc       ??_C@_0CM@FCBBDIGB@?$GAeh?5vector?5vbase?5copy?5construct@ 100222cc     libvcruntime:undname.obj
 0002:000022f8       ??_C@_0BL@CLIPGLGB@?$GAdynamic?5initializer?5for?5?8@ 100222f8     libvcruntime:undname.obj
 0002:00002314       ??_C@_0CB@PDBIFEP@?$GAdynamic?5atexit?5destructor?5for?5@ 10022314     libvcruntime:undname.obj
 0002:00002338       ??_C@_0CD@CGAJBKEJ@?$GAvector?5copy?5constructor?5iterat@ 10022338     libvcruntime:undname.obj
 0002:0000235c       ??_C@_0CJ@GJELGAMM@?$GAvector?5vbase?5copy?5constructor?5@ 1002235c     libvcruntime:undname.obj
 0002:00002388       ??_C@_0CL@FGIJHLCE@?$GAmanaged?5vector?5copy?5constructo@ 10022388     libvcruntime:undname.obj
 0002:000023b4       ??_C@_0BM@PMGGMLDN@?$GAlocal?5static?5thread?5guard?8@ 100223b4     libvcruntime:undname.obj
 0002:000023d0       ??_C@_0N@BDNMDMOL@operator?5?$CC?$CC?5@ 100223d0     libvcruntime:undname.obj
 0002:000023e0       ??_C@_0BC@GGEBGALA@operator?5co_await@ 100223e0     libvcruntime:undname.obj
 0002:000023f4       ??_C@_0M@GAAIMMOH@operator?$DM?$DN?$DO@ 100223f4     libvcruntime:undname.obj
 0002:00002400       ??_C@_0BC@DAFEJGAK@?5Type?5Descriptor?8@ 10022400     libvcruntime:undname.obj
 0002:00002414       ??_C@_0BM@LDKODKLH@?5Base?5Class?5Descriptor?5at?5?$CI@ 10022414     libvcruntime:undname.obj
 0002:00002430       ??_C@_0BD@LGICGFMM@?5Base?5Class?5Array?8@ 10022430     libvcruntime:undname.obj
 0002:00002444       ??_C@_0BN@MECKDCOJ@?5Class?5Hierarchy?5Descriptor?8@ 10022444     libvcruntime:undname.obj
 0002:00002464       ??_C@_0BK@CFCOFLF@?5Complete?5Object?5Locator?8@ 10022464     libvcruntime:undname.obj
 0002:00002480       ??_C@_0BG@JNJLAMPM@?$GAanonymous?5namespace?8@ 10022480     libvcruntime:undname.obj
 0002:000024a4       ??_C@_1DM@KHCHBNEB@?$AAa?$AAp?$AAi?$AA?9?$AAm?$AAs?$AA?9?$AAw?$AAi?$AAn?$AA?9?$AAc?$AAo?$AAr?$AAe@ 100224a4     libvcruntime:winapi_downlevel.obj
 0002:000024e0       ??_C@_1DK@LPPGFMPP@?$AAa?$AAp?$AAi?$AA?9?$AAm?$AAs?$AA?9?$AAw?$AAi?$AAn?$AA?9?$AAc?$AAo?$AAr?$AAe@ 100224e0     libvcruntime:winapi_downlevel.obj
 0002:0000251c       ??_C@_1BC@GDMECMAK@?$AAk?$AAe?$AAr?$AAn?$AAe?$AAl?$AA3?$AA2@ 1002251c     libvcruntime:winapi_downlevel.obj
 0002:00002530       ??_C@_1BA@PFFKHIOG@?$AAa?$AAp?$AAi?$AA?9?$AAm?$AAs?$AA?9@ 10022530     libvcruntime:winapi_downlevel.obj
 0002:00002548       ??_C@_08KNHFBNJ@FlsAlloc@  10022548     libvcruntime:winapi_downlevel.obj
 0002:0000255c       ??_C@_07PEJMOBNF@FlsFree@  1002255c     libvcruntime:winapi_downlevel.obj
 0002:0000256c       ??_C@_0M@GDNOONDI@FlsGetValue@ 1002256c     libvcruntime:winapi_downlevel.obj
 0002:00002580       ??_C@_0M@JCPCPOEF@FlsSetValue@ 10022580     libvcruntime:winapi_downlevel.obj
 0002:00002594       ??_C@_0BM@HCFOFFN@InitializeCriticalSectionEx@ 10022594     libvcruntime:winapi_downlevel.obj
 0002:00002718       ?format_validation_lookup_table_spectre@__crt_stdio_output@@3V?$spectre_mitigated_lookup_table@Ustate_transition_pair@__crt_stdio_output@@$0IA@@1@B 10022718     libucrt:output.obj
 0002:00002b18       ??_C@_1O@CEDCILHN@?$AA?$CI?$AAn?$AAu?$AAl?$AAl?$AA?$CJ@ 10022b18     libucrt:output.obj
 0002:00002b28       ??_C@_06OJHGLDPL@?$CInull?$CJ@ 10022b28     libucrt:output.obj
 0002:00002b30       ___acrt_exception_action_table 10022b30     libucrt:exception_filter.obj
 0002:00002bc0       ___acrt_signal_action_table_count 10022bc0     libucrt:exception_filter.obj
 0002:00002bc4       ___acrt_signal_action_first_fpe_index 10022bc4     libucrt:exception_filter.obj
 0002:00002bc8       ___acrt_signal_action_fpe_count 10022bc8     libucrt:exception_filter.obj
 0002:00002bcc       ??_C@_1BI@BGOHAHKC@?$AAm?$AAs?$AAc?$AAo?$AAr?$AAe?$AAe?$AA?4?$AAd?$AAl?$AAl@ 10022bcc     libucrt:exit.obj
 0002:00002be4       ??_C@_0P@MIGLKIOC@CorExitProcess@ 10022be4     libucrt:exit.obj
 0002:00002cc8       ??_C@_1EA@JGEFHKEI@?$AAa?$AAp?$AAi?$AA?9?$AAm?$AAs?$AA?9?$AAw?$AAi?$AAn?$AA?9?$AAc?$AAo?$AAr?$AAe@ 10022cc8     libucrt:winapi_thunks.obj
 0002:00002d08       ??_C@_1DI@IJCEHOCB@?$AAa?$AAp?$AAi?$AA?9?$AAm?$AAs?$AA?9?$AAw?$AAi?$AAn?$AA?9?$AAc?$AAo?$AAr?$AAe@ 10022d08     libucrt:winapi_thunks.obj
 0002:00002d40       ??_C@_1EI@MPIAOHOC@?$AAa?$AAp?$AAi?$AA?9?$AAm?$AAs?$AA?9?$AAw?$AAi?$AAn?$AA?9?$AAc?$AAo?$AAr?$AAe@ 10022d40     libucrt:winapi_thunks.obj
 0002:00002d88       ??_C@_1FK@FPHCKFIE@?$AAa?$AAp?$AAi?$AA?9?$AAm?$AAs?$AA?9?$AAw?$AAi?$AAn?$AA?9?$AAc?$AAo?$AAr?$AAe@ 10022d88     libucrt:winapi_thunks.obj
 0002:00002de8       ??_C@_1EM@DILCGIIO@?$AAa?$AAp?$AAi?$AA?9?$AAm?$AAs?$AA?9?$AAw?$AAi?$AAn?$AA?9?$AAc?$AAo?$AAr?$AAe@ 10022de8     libucrt:winapi_thunks.obj
 0002:00002e34       ??_C@_1DM@LNCGDDPN@?$AAa?$AAp?$AAi?$AA?9?$AAm?$AAs?$AA?9?$AAw?$AAi?$AAn?$AA?9?$AAc?$AAo?$AAr?$AAe@ 10022e34     libucrt:winapi_thunks.obj
 0002:00002e70       ??_C@_1DO@FPAPJEMD@?$AAa?$AAp?$AAi?$AA?9?$AAm?$AAs?$AA?9?$AAw?$AAi?$AAn?$AA?9?$AAc?$AAo?$AAr?$AAe@ 10022e70     libucrt:winapi_thunks.obj
 0002:00002eb0       ??_C@_1DK@NDHNAHIO@?$AAa?$AAp?$AAi?$AA?9?$AAm?$AAs?$AA?9?$AAw?$AAi?$AAn?$AA?9?$AAc?$AAo?$AAr?$AAe@ 10022eb0     libucrt:winapi_thunks.obj
 0002:00002eec       ??_C@_1DM@KGHDGBCM@?$AAa?$AAp?$AAi?$AA?9?$AAm?$AAs?$AA?9?$AAw?$AAi?$AAn?$AA?9?$AAc?$AAo?$AAr?$AAe@ 10022eec     libucrt:winapi_thunks.obj
 0002:00002f28       ??_C@_1EO@IJIOEFOH@?$AAa?$AAp?$AAi?$AA?9?$AAm?$AAs?$AA?9?$AAw?$AAi?$AAn?$AA?9?$AAr?$AAt?$AAc?$AAo@ 10022f28     libucrt:winapi_thunks.obj
 0002:00002f78       ??_C@_1FG@HHGEKANL@?$AAa?$AAp?$AAi?$AA?9?$AAm?$AAs?$AA?9?$AAw?$AAi?$AAn?$AA?9?$AAs?$AAe?$AAc?$AAu@ 10022f78     libucrt:winapi_thunks.obj
 0002:00002fd0       ??_C@_1EG@DBIOJECG@?$AAe?$AAx?$AAt?$AA?9?$AAm?$AAs?$AA?9?$AAw?$AAi?$AAn?$AA?9?$AAn?$AAt?$AAu?$AAs@ 10022fd0     libucrt:winapi_thunks.obj
 0002:00003018       ??_C@_1EO@FIHMJCLF@?$AAe?$AAx?$AAt?$AA?9?$AAm?$AAs?$AA?9?$AAw?$AAi?$AAn?$AA?9?$AAn?$AAt?$AAu?$AAs@ 10023018     libucrt:winapi_thunks.obj
 0002:00003068       ??_C@_1BC@DNHGCMLG@?$AAa?$AAd?$AAv?$AAa?$AAp?$AAi?$AA3?$AA2@ 10023068     libucrt:winapi_thunks.obj
 0002:0000307c       ??_C@_1M@OAIMIKLP@?$AAn?$AAt?$AAd?$AAl?$AAl@ 1002307c     libucrt:winapi_thunks.obj
 0002:00003088       ??_C@_1EG@DPGNFKGC@?$AAa?$AAp?$AAi?$AA?9?$AAm?$AAs?$AA?9?$AAw?$AAi?$AAn?$AA?9?$AAa?$AAp?$AAp?$AAm@ 10023088     libucrt:winapi_thunks.obj
 0002:000030d0       ??_C@_1O@BCCLBEOE@?$AAu?$AAs?$AAe?$AAr?$AA3?$AA2@ 100230d0     libucrt:winapi_thunks.obj
 0002:000030e0       ??_C@_1BA@IAIFMGEF@?$AAe?$AAx?$AAt?$AA?9?$AAm?$AAs?$AA?9@ 100230e0     libucrt:winapi_thunks.obj
 0002:000030f4       ??_C@_0BA@FHFNEAED@AreFileApisANSI@ 100230f4     libucrt:winapi_thunks.obj
 0002:00003134       ??_C@_0O@KKBNKAPF@LCMapStringEx@ 10023134     libucrt:winapi_thunks.obj
 0002:0000314c       ??_C@_0BB@HBDEELFH@LocaleNameToLCID@ 1002314c     libucrt:winapi_thunks.obj
 0002:00003164       ??_C@_0CF@OJOFEIGO@AppPolicyGetProcessTerminationM@ 10023164     libucrt:winapi_thunks.obj
 0002:00003194       ??_C@_0BI@BKLFFAPO@SetThreadStackGuarantee@ 10023194     libucrt:winapi_thunks.obj
 0002:000031f0       ??_C@_03OEIAHPBN@INF@      100231f0     libucrt:cvt.obj
 0002:000031f4       ??_C@_03OJHLLCGB@inf@      100231f4     libucrt:cvt.obj
 0002:000031f8       ??_C@_03LKNCIKJB@NAN@      100231f8     libucrt:cvt.obj
 0002:000031fc       ??_C@_03LHCJEHON@nan@      100231fc     libucrt:cvt.obj
 0002:00003200       ??_C@_09OFJJIMPC@NAN?$CISNAN?$CJ@ 10023200     libucrt:cvt.obj
 0002:0000320c       ??_C@_09IPFBKMDL@nan?$CIsnan?$CJ@ 1002320c     libucrt:cvt.obj
 0002:00003218       ??_C@_08IKHNHAJ@NAN?$CIIND?$CJ@ 10023218     libucrt:cvt.obj
 0002:00003224       ??_C@_08OFCDMILK@nan?$CIind?$CJ@ 10023224     libucrt:cvt.obj
 0002:00003230       ??_C@_05KLBDPFGC@e?$CL000@ 10023230     libucrt:cvt.obj
 0002:00003238       ___lc_time_c               10023238     libucrt:nlsdata.obj
 0002:0000339c       ??_C@_03KOEHGMDN@Sun@      1002339c     libucrt:nlsdata.obj
 0002:000033a0       ??_C@_03PDAGKDH@Mon@       100233a0     libucrt:nlsdata.obj
 0002:000033a4       ??_C@_03NAGEINEP@Tue@      100233a4     libucrt:nlsdata.obj
 0002:000033a8       ??_C@_03MHOMLAJA@Wed@      100233a8     libucrt:nlsdata.obj
 0002:000033ac       ??_C@_03IOFIKPDN@Thu@      100233ac     libucrt:nlsdata.obj
 0002:000033b0       ??_C@_03IDIOELNC@Fri@      100233b0     libucrt:nlsdata.obj
 0002:000033b4       ??_C@_03FEFJNEK@Sat@       100233b4     libucrt:nlsdata.obj
 0002:000033b8       ??_C@_06OOPIFAJ@Sunday@    100233b8     libucrt:nlsdata.obj
 0002:000033c0       ??_C@_06JLEDEDGH@Monday@   100233c0     libucrt:nlsdata.obj
 0002:000033c8       ??_C@_07BAAGCFCM@Tuesday@  100233c8     libucrt:nlsdata.obj
 0002:000033d0       ??_C@_09DLIGFAKA@Wednesday@ 100233d0     libucrt:nlsdata.obj
 0002:000033dc       ??_C@_08HACCIKIA@Thursday@ 100233dc     libucrt:nlsdata.obj
 0002:000033e8       ??_C@_06JECMNKMI@Friday@   100233e8     libucrt:nlsdata.obj
 0002:000033f0       ??_C@_08INBOOONO@Saturday@ 100233f0     libucrt:nlsdata.obj
 0002:000033fc       ??_C@_03JIHJHPIE@Jan@      100233fc     libucrt:nlsdata.obj
 0002:00003400       ??_C@_03HJBDCHOM@Feb@      10023400     libucrt:nlsdata.obj
 0002:00003404       ??_C@_03ODNJBKGA@Mar@      10023404     libucrt:nlsdata.obj
 0002:00003408       ??_C@_03LEOLGMJP@Apr@      10023408     libucrt:nlsdata.obj
 0002:0000340c       ??_C@_03CNMDKL@May@        1002340c     libucrt:nlsdata.obj
 0002:00003410       ??_C@_03IDFGHECI@Jun@      10023410     libucrt:nlsdata.obj
 0002:00003414       ??_C@_03LBGABGKK@Jul@      10023414     libucrt:nlsdata.obj
 0002:00003418       ??_C@_03IFJFEIGA@Aug@      10023418     libucrt:nlsdata.obj
 0002:0000341c       ??_C@_03GGCAPAJC@Sep@      1002341c     libucrt:nlsdata.obj
 0002:00003420       ??_C@_03BMAOKBAD@Oct@      10023420     libucrt:nlsdata.obj
 0002:00003424       ??_C@_03JPJOFNIA@Nov@      10023424     libucrt:nlsdata.obj
 0002:00003428       ??_C@_03MKABNOCG@Dec@      10023428     libucrt:nlsdata.obj
 0002:0000342c       ??_C@_07CGJPFGJA@January@  1002342c     libucrt:nlsdata.obj
 0002:00003434       ??_C@_08GNJGEPFN@February@ 10023434     libucrt:nlsdata.obj
 0002:00003440       ??_C@_05HPCKOFNC@March@    10023440     libucrt:nlsdata.obj
 0002:00003448       ??_C@_05DMJDNLEJ@April@    10023448     libucrt:nlsdata.obj
 0002:00003450       ??_C@_04CNLMGBGM@June@     10023450     libucrt:nlsdata.obj
 0002:00003458       ??_C@_04MIEPOIFP@July@     10023458     libucrt:nlsdata.obj
 0002:00003460       ??_C@_06LBBHFDDG@August@   10023460     libucrt:nlsdata.obj
 0002:00003468       ??_C@_09BHHEALKD@September@ 10023468     libucrt:nlsdata.obj
 0002:00003474       ??_C@_07JJNFCEND@October@  10023474     libucrt:nlsdata.obj
 0002:0000347c       ??_C@_08HCHEGEOA@November@ 1002347c     libucrt:nlsdata.obj
 0002:00003488       ??_C@_08EDHMEBNP@December@ 10023488     libucrt:nlsdata.obj
 0002:00003494       ??_C@_02DEDBPAFC@AM@       10023494     libucrt:nlsdata.obj
 0002:00003498       ??_C@_02CJNFDJBF@PM@       10023498     libucrt:nlsdata.obj
 0002:0000349c       ??_C@_08BPBNCDIB@MM?1dd?1yy@ 1002349c     libucrt:nlsdata.obj
 0002:000034a8       ??_C@_0BE@CKGJFCPC@dddd?0?5MMMM?5dd?0?5yyyy@ 100234a8     libucrt:nlsdata.obj
 0002:000034bc       ??_C@_08JCCMCCIL@HH?3mm?3ss@ 100234bc     libucrt:nlsdata.obj
 0002:000034c8       ??_C@_17MBGCMIPB@?$AAS?$AAu?$AAn@ 100234c8     libucrt:nlsdata.obj
 0002:000034d0       ??_C@_17KBOMKBF@?$AAM?$AAo?$AAn@ 100234d0     libucrt:nlsdata.obj
 0002:000034d8       ??_C@_17BMKGEGOJ@?$AAT?$AAu?$AAe@ 100234d8     libucrt:nlsdata.obj
 0002:000034e0       ??_C@_17CJEDCEPE@?$AAW?$AAe?$AAd@ 100234e0     libucrt:nlsdata.obj
 0002:000034e8       ??_C@_17PDPHAADD@?$AAT?$AAh?$AAu@ 100234e8     libucrt:nlsdata.obj
 0002:000034f0       ??_C@_17HFOLPPLP@?$AAF?$AAr?$AAi@ 100234f0     libucrt:nlsdata.obj
 0002:000034f8       ??_C@_17GGIBDPIH@?$AAS?$AAa?$AAt@ 100234f8     libucrt:nlsdata.obj
 0002:00003500       ??_C@_1O@IHNHDHPB@?$AAS?$AAu?$AAn?$AAd?$AAa?$AAy@ 10023500     libucrt:nlsdata.obj
 0002:00003510       ??_C@_1O@MMNBFLIA@?$AAM?$AAo?$AAn?$AAd?$AAa?$AAy@ 10023510     libucrt:nlsdata.obj
 0002:00003520       ??_C@_1BA@ENFBFFEK@?$AAT?$AAu?$AAe?$AAs?$AAd?$AAa?$AAy@ 10023520     libucrt:nlsdata.obj
 0002:00003530       ??_C@_1BE@EBOGMDOH@?$AAW?$AAe?$AAd?$AAn?$AAe?$AAs?$AAd?$AAa?$AAy@ 10023530     libucrt:nlsdata.obj
 0002:00003544       ??_C@_1BC@HHMNLIHE@?$AAT?$AAh?$AAu?$AAr?$AAs?$AAd?$AAa?$AAy@ 10023544     libucrt:nlsdata.obj
 0002:00003558       ??_C@_1O@PDICJHAG@?$AAF?$AAr?$AAi?$AAd?$AAa?$AAy@ 10023558     libucrt:nlsdata.obj
 0002:00003568       ??_C@_1BC@ENMNNPAJ@?$AAS?$AAa?$AAt?$AAu?$AAr?$AAd?$AAa?$AAy@ 10023568     libucrt:nlsdata.obj
 0002:0000357c       ??_C@_17DKNBKCHM@?$AAJ?$AAa?$AAn@ 1002357c     libucrt:nlsdata.obj
 0002:00003584       ??_C@_17LMDJEKJN@?$AAF?$AAe?$AAb@ 10023584     libucrt:nlsdata.obj
 0002:0000358c       ??_C@_17CKNLEDEC@?$AAM?$AAa?$AAr@ 1002358c     libucrt:nlsdata.obj
 0002:00003594       ??_C@_17LFPOIHDD@?$AAA?$AAp?$AAr@ 10023594     libucrt:nlsdata.obj
 0002:0000359c       ??_C@_17PNNKMEED@?$AAM?$AAa?$AAy@ 1002359c     libucrt:nlsdata.obj
 0002:000035a4       ??_C@_17KCJGOCPB@?$AAJ?$AAu?$AAn@ 100235a4     libucrt:nlsdata.obj
 0002:000035ac       ??_C@_17IJPCKHK@?$AAJ?$AAu?$AAl@ 100235ac     libucrt:nlsdata.obj
 0002:000035b4       ??_C@_17ICPELBCN@?$AAA?$AAu?$AAg@ 100235b4     libucrt:nlsdata.obj
 0002:000035bc       ??_C@_17HCHCOKMG@?$AAS?$AAe?$AAp@ 100235bc     libucrt:nlsdata.obj
 0002:000035c4       ??_C@_17FNLKOI@?$AAO?$AAc?$AAt@ 100235c4     libucrt:nlsdata.obj
 0002:000035cc       ??_C@_17BBDMLCIG@?$AAN?$AAo?$AAv@ 100235cc     libucrt:nlsdata.obj
 0002:000035d4       ??_C@_17EGKACKIF@?$AAD?$AAe?$AAc@ 100235d4     libucrt:nlsdata.obj
 0002:000035dc       ??_C@_1BA@EFMEIEBA@?$AAJ?$AAa?$AAn?$AAu?$AAa?$AAr?$AAy@ 100235dc     libucrt:nlsdata.obj
 0002:000035ec       ??_C@_1BC@JGDDFFAM@?$AAF?$AAe?$AAb?$AAr?$AAu?$AAa?$AAr?$AAy@ 100235ec     libucrt:nlsdata.obj
 0002:00003600       ??_C@_1M@IKEENEDF@?$AAM?$AAa?$AAr?$AAc?$AAh@ 10023600     libucrt:nlsdata.obj
 0002:0000360c       ??_C@_1M@GJNLMHFD@?$AAA?$AAp?$AAr?$AAi?$AAl@ 1002360c     libucrt:nlsdata.obj
 0002:00003618       ??_C@_19EPFLPGAP@?$AAJ?$AAu?$AAn?$AAe@ 10023618     libucrt:nlsdata.obj
 0002:00003624       ??_C@_19BIFMLPCD@?$AAJ?$AAu?$AAl?$AAy@ 10023624     libucrt:nlsdata.obj
 0002:00003630       ??_C@_1O@PAHLKOAC@?$AAA?$AAu?$AAg?$AAu?$AAs?$AAt@ 10023630     libucrt:nlsdata.obj
 0002:00003640       ??_C@_1BE@DKAAMBJL@?$AAS?$AAe?$AAp?$AAt?$AAe?$AAm?$AAb?$AAe?$AAr@ 10023640     libucrt:nlsdata.obj
 0002:00003654       ??_C@_1BA@EPANDLNG@?$AAO?$AAc?$AAt?$AAo?$AAb?$AAe?$AAr@ 10023654     libucrt:nlsdata.obj
 0002:00003664       ??_C@_1BC@BGLIFPF@?$AAN?$AAo?$AAv?$AAe?$AAm?$AAb?$AAe?$AAr@ 10023664     libucrt:nlsdata.obj
 0002:00003678       ??_C@_1BC@FEMKIFH@?$AAD?$AAe?$AAc?$AAe?$AAm?$AAb?$AAe?$AAr@ 10023678     libucrt:nlsdata.obj
 0002:0000368c       ??_C@_15ODEHAHHF@?$AAA?$AAM@ 1002368c     libucrt:nlsdata.obj
 0002:00003694       ??_C@_15CLMNNGEL@?$AAP?$AAM@ 10023694     libucrt:nlsdata.obj
 0002:0000369c       ??_C@_1BC@IEBCMHCM@?$AAM?$AAM?$AA?1?$AAd?$AAd?$AA?1?$AAy?$AAy@ 1002369c     libucrt:nlsdata.obj
 0002:000036b0       ??_C@_1CI@KNAKOEBC@?$AAd?$AAd?$AAd?$AAd?$AA?0?$AA?5?$AAM?$AAM?$AAM?$AAM?$AA?5?$AAd?$AAd?$AA?0?$AA?5@ 100236b0     libucrt:nlsdata.obj
 0002:000036d8       ??_C@_1BC@GDGBMEMK@?$AAH?$AAH?$AA?3?$AAm?$AAm?$AA?3?$AAs?$AAs@ 100236d8     libucrt:nlsdata.obj
 0002:000036ec       ??_C@_1M@BMHNFIME@?$AAe?$AAn?$AA?9?$AAU?$AAS@ 100236ec     libucrt:nlsdata.obj
 0002:00003708       ??_C@_1M@HPNHIDJI@?$AAj?$AAa?$AA?9?$AAJ?$AAP@ 10023708     libucrt:mbctype.obj
 0002:00003714       ??_C@_1M@BIBDDEMK@?$AAz?$AAh?$AA?9?$AAC?$AAN@ 10023714     libucrt:mbctype.obj
 0002:00003720       ??_C@_1M@JLOOOEGK@?$AAk?$AAo?$AA?9?$AAK?$AAR@ 10023720     libucrt:mbctype.obj
 0002:0000372c       ??_C@_1M@CLNBBOPM@?$AAz?$AAh?$AA?9?$AAT?$AAW@ 1002372c     libucrt:mbctype.obj
 0002:00003738       ___newctype                10023738     libucrt:ctype.obj
 0002:00003a38       ___newclmap                10023a38     libucrt:ctype.obj
 0002:00003bb8       ___newcumap                10023bb8     libucrt:ctype.obj
 0002:00003d38       __wctype                   10023d38     libucrt:ctype.obj
 0002:00004660       ??_C@_15EMKDOKLE@?$AAa?$AAr@ 10024660     libucrt:lcidtoname_downlevel.obj
 0002:00004668       ??_C@_15KNPADPLH@?$AAb?$AAg@ 10024668     libucrt:lcidtoname_downlevel.obj
 0002:00004670       ??_C@_15EDMHLDMO@?$AAc?$AAa@ 10024670     libucrt:lcidtoname_downlevel.obj
 0002:00004678       ??_C@_1O@BPEAJADD@?$AAz?$AAh?$AA?9?$AAC?$AAH?$AAS@ 10024678     libucrt:lcidtoname_downlevel.obj
 0002:00004688       ??_C@_15LJNHCMNK@?$AAc?$AAs@ 10024688     libucrt:lcidtoname_downlevel.obj
 0002:00004690       ??_C@_15FOMCIDHG@?$AAd?$AAa@ 10024690     libucrt:lcidtoname_downlevel.obj
 0002:00004698       ??_C@_15NBKABECB@?$AAd?$AAe@ 10024698     libucrt:lcidtoname_downlevel.obj
 0002:000046a0       ??_C@_15GHPEIIAO@?$AAe?$AAl@ 100246a0     libucrt:lcidtoname_downlevel.obj
 0002:000046a8       ??_C@_15MNPNEAIF@?$AAe?$AAn@ 100246a8     libucrt:lcidtoname_downlevel.obj
 0002:000046b0       ??_C@_15GPIOMPMH@?$AAe?$AAs@ 100246b0     libucrt:lcidtoname_downlevel.obj
 0002:000046b8       ??_C@_15NGLOAKJC@?$AAf?$AAi@ 100246b8     libucrt:lcidtoname_downlevel.obj
 0002:000046c0       ??_C@_15FBKGNKAM@?$AAf?$AAr@ 100246c0     libucrt:lcidtoname_downlevel.obj
 0002:000046c8       ??_C@_15KGGCNEFK@?$AAh?$AAe@ 100246c8     libucrt:lcidtoname_downlevel.obj
 0002:000046d0       ??_C@_15PGHLIDMF@?$AAh?$AAu@ 100246d0     libucrt:lcidtoname_downlevel.obj
 0002:000046d8       ??_C@_15BIEMAPLM@?$AAi?$AAs@ 100246d8     libucrt:lcidtoname_downlevel.obj
 0002:000046e0       ??_C@_15IFJLDHAF@?$AAi?$AAt@ 100246e0     libucrt:lcidtoname_downlevel.obj
 0002:000046e8       ??_C@_15GEMIOCAG@?$AAj?$AAa@ 100246e8     libucrt:lcidtoname_downlevel.obj
 0002:000046f0       ??_C@_15EPELEGJA@?$AAk?$AAo@ 100246f0     libucrt:lcidtoname_downlevel.obj
 0002:000046f8       ??_C@_15NDDHIMN@?$AAn?$AAl@ 100246f8     libucrt:lcidtoname_downlevel.obj
 0002:00004700       ??_C@_15BPIGNHCD@?$AAn?$AAo@ 10024700     libucrt:lcidtoname_downlevel.obj
 0002:00004708       ??_C@_15DEOPBLCG@?$AAp?$AAl@ 10024708     libucrt:lcidtoname_downlevel.obj
 0002:00004710       ??_C@_15KBECGEFG@?$AAp?$AAt@ 10024710     libucrt:lcidtoname_downlevel.obj
 0002:00004718       ??_C@_15GLJCBFMD@?$AAr?$AAo@ 10024718     libucrt:lcidtoname_downlevel.obj
 0002:00004720       ??_C@_15FEDGKCDI@?$AAr?$AAu@ 10024720     libucrt:lcidtoname_downlevel.obj
 0002:00004728       ??_C@_15GLKMLLHM@?$AAh?$AAr@ 10024728     libucrt:lcidtoname_downlevel.obj
 0002:00004730       ??_C@_15CPKMFBDB@?$AAs?$AAk@ 10024730     libucrt:lcidtoname_downlevel.obj
 0002:00004738       ??_C@_15BAAIOGMK@?$AAs?$AAq@ 10024738     libucrt:lcidtoname_downlevel.obj
 0002:00004740       ??_C@_15INNPNOHD@?$AAs?$AAv@ 10024740     libucrt:lcidtoname_downlevel.obj
 0002:00004748       ??_C@_15CABMMOGH@?$AAt?$AAh@ 10024748     libucrt:lcidtoname_downlevel.obj
 0002:00004750       ??_C@_15BPLIHJJM@?$AAt?$AAr@ 10024750     libucrt:lcidtoname_downlevel.obj
 0002:00004758       ??_C@_15NEOEKKDJ@?$AAu?$AAr@ 10024758     libucrt:lcidtoname_downlevel.obj
 0002:00004760       ??_C@_15NFICGAJK@?$AAi?$AAd@ 10024760     libucrt:lcidtoname_downlevel.obj
 0002:00004768       ??_C@_15PJPFLCCM@?$AAu?$AAk@ 10024768     libucrt:lcidtoname_downlevel.obj
 0002:00004770       ??_C@_15HPJPHDM@?$AAb?$AAe@ 10024770     libucrt:lcidtoname_downlevel.obj
 0002:00004778       ??_C@_15LCHLGJII@?$AAs?$AAl@ 10024778     libucrt:lcidtoname_downlevel.obj
 0002:00004780       ??_C@_15PCFJPHHO@?$AAe?$AAt@ 10024780     libucrt:lcidtoname_downlevel.obj
 0002:00004788       ??_C@_15HPFPGODN@?$AAl?$AAv@ 10024788     libucrt:lcidtoname_downlevel.obj
 0002:00004790       ??_C@_15NFFGKGLG@?$AAl?$AAt@ 10024790     libucrt:lcidtoname_downlevel.obj
 0002:00004798       ??_C@_15BDAKCCHN@?$AAf?$AAa@ 10024798     libucrt:lcidtoname_downlevel.obj
 0002:000047a0       ??_C@_15NFGIAIAJ@?$AAv?$AAi@ 100247a0     libucrt:lcidtoname_downlevel.obj
 0002:000047a8       ??_C@_15LMKNDMHN@?$AAh?$AAy@ 100247a8     libucrt:lcidtoname_downlevel.obj
 0002:000047b0       ??_C@_15IJBHMCFL@?$AAa?$AAz@ 100247b0     libucrt:lcidtoname_downlevel.obj
 0002:000047b8       ??_C@_15EKOFJABL@?$AAe?$AAu@ 100247b8     libucrt:lcidtoname_downlevel.obj
 0002:000047c0       ??_C@_15BGHADCNK@?$AAm?$AAk@ 100247c0     libucrt:lcidtoname_downlevel.obj
 0002:000047c8       ??_C@_15JDNICKHM@?$AAa?$AAf@ 100247c8     libucrt:lcidtoname_downlevel.obj
 0002:000047d0       ??_C@_15KPJEDBKD@?$AAk?$AAa@ 100247d0     libucrt:lcidtoname_downlevel.obj
 0002:000047d8       ??_C@_15PDNFFFEO@?$AAf?$AAo@ 100247d8     libucrt:lcidtoname_downlevel.obj
 0002:000047e0       ??_C@_15OMLEGLOC@?$AAh?$AAi@ 100247e0     libucrt:lcidtoname_downlevel.obj
 0002:000047e8       ??_C@_15IDNNENKK@?$AAm?$AAs@ 100247e8     libucrt:lcidtoname_downlevel.obj
 0002:000047f0       ??_C@_15MACJNBMH@?$AAk?$AAk@ 100247f0     libucrt:lcidtoname_downlevel.obj
 0002:000047f8       ??_C@_15DKDJEOND@?$AAk?$AAy@ 100247f8     libucrt:lcidtoname_downlevel.obj
 0002:00004800       ??_C@_15DFGDLJBG@?$AAs?$AAw@ 10024800     libucrt:lcidtoname_downlevel.obj
 0002:00004808       ??_C@_15BBFAICNG@?$AAu?$AAz@ 10024808     libucrt:lcidtoname_downlevel.obj
 0002:00004810       ??_C@_15DKNDCGEA@?$AAt?$AAt@ 10024810     libucrt:lcidtoname_downlevel.obj
 0002:00004818       ??_C@_15MGIFMDPL@?$AAp?$AAa@ 10024818     libucrt:lcidtoname_downlevel.obj
 0002:00004820       ??_C@_15HCNDBBA@?$AAg?$AAu@ 10024820     libucrt:lcidtoname_downlevel.obj
 0002:00004828       ??_C@_15FNBEIBON@?$AAt?$AAa@ 10024828     libucrt:lcidtoname_downlevel.obj
 0002:00004830       ??_C@_15NCHGBGLK@?$AAt?$AAe@ 10024830     libucrt:lcidtoname_downlevel.obj
 0002:00004838       ??_C@_15PHPHCBPF@?$AAk?$AAn@ 10024838     libucrt:lcidtoname_downlevel.obj
 0002:00004840       ??_C@_15DLGBCKMP@?$AAm?$AAr@ 10024840     libucrt:lcidtoname_downlevel.obj
 0002:00004848       ??_C@_15EABBLBFF@?$AAs?$AAa@ 10024848     libucrt:lcidtoname_downlevel.obj
 0002:00004850       ??_C@_15CBKOMCOI@?$AAm?$AAn@ 10024850     libucrt:lcidtoname_downlevel.obj
 0002:00004858       ??_C@_15CKDMCJAF@?$AAg?$AAl@ 10024858     libucrt:lcidtoname_downlevel.obj
 0002:00004860       ??_C@_17CNJFBPG@?$AAk?$AAo?$AAk@ 10024860     libucrt:lcidtoname_downlevel.obj
 0002:00004868       ??_C@_17FFBJICPL@?$AAs?$AAy?$AAr@ 10024868     libucrt:lcidtoname_downlevel.obj
 0002:00004870       ??_C@_17KPNDCPAF@?$AAd?$AAi?$AAv@ 10024870     libucrt:lcidtoname_downlevel.obj
 0002:00004878       ??_C@_1M@OKAHONE@?$AAa?$AAr?$AA?9?$AAS?$AAA@ 10024878     libucrt:lcidtoname_downlevel.obj
 0002:00004884       ??_C@_1M@FFFIGIGK@?$AAb?$AAg?$AA?9?$AAB?$AAG@ 10024884     libucrt:lcidtoname_downlevel.obj
 0002:00004890       ??_C@_1M@BJNKEDC@?$AAc?$AAa?$AA?9?$AAE?$AAS@ 10024890     libucrt:lcidtoname_downlevel.obj
 0002:0000489c       ??_C@_1M@IJJHFJHA@?$AAc?$AAs?$AA?9?$AAC?$AAZ@ 1002489c     libucrt:lcidtoname_downlevel.obj
 0002:000048a8       ??_C@_1M@CLPEOBGI@?$AAd?$AAa?$AA?9?$AAD?$AAK@ 100248a8     libucrt:lcidtoname_downlevel.obj
 0002:000048b4       ??_C@_1M@MCMADGCB@?$AAd?$AAe?$AA?9?$AAD?$AAE@ 100248b4     libucrt:lcidtoname_downlevel.obj
 0002:000048c0       ??_C@_1M@OOCKEMAM@?$AAe?$AAl?$AA?9?$AAG?$AAR@ 100248c0     libucrt:lcidtoname_downlevel.obj
 0002:000048cc       ??_C@_1M@DDNJFGID@?$AAf?$AAi?$AA?9?$AAF?$AAI@ 100248cc     libucrt:lcidtoname_downlevel.obj
 0002:000048d8       ??_C@_1M@GLIPPMAC@?$AAf?$AAr?$AA?9?$AAF?$AAR@ 100248d8     libucrt:lcidtoname_downlevel.obj
 0002:000048e4       ??_C@_1M@GFMCHPE@?$AAh?$AAe?$AA?9?$AAI?$AAL@ 100248e4     libucrt:lcidtoname_downlevel.obj
 0002:000048f0       ??_C@_1M@MHLPGNKM@?$AAh?$AAu?$AA?9?$AAH?$AAU@ 100248f0     libucrt:lcidtoname_downlevel.obj
 0002:000048fc       ??_C@_1M@LPDDNNPN@?$AAi?$AAs?$AA?9?$AAI?$AAS@ 100248fc     libucrt:lcidtoname_downlevel.obj
 0002:00004908       ??_C@_1M@MADIPODN@?$AAi?$AAt?$AA?9?$AAI?$AAT@ 10024908     libucrt:lcidtoname_downlevel.obj
 0002:00004914       ??_C@_1M@IHBJJGG@?$AAn?$AAl?$AA?9?$AAN?$AAL@ 10024914     libucrt:lcidtoname_downlevel.obj
 0002:00004920       ??_C@_1M@EANAGDL@?$AAn?$AAb?$AA?9?$AAN?$AAO@ 10024920     libucrt:lcidtoname_downlevel.obj
 0002:0000492c       ??_C@_1M@NEIEMEGP@?$AAp?$AAl?$AA?9?$AAP?$AAL@ 1002492c     libucrt:lcidtoname_downlevel.obj
 0002:00004938       ??_C@_1M@BOCFIGEP@?$AAp?$AAt?$AA?9?$AAB?$AAR@ 10024938     libucrt:lcidtoname_downlevel.obj
 0002:00004944       ??_C@_1M@IMPFOPBG@?$AAr?$AAo?$AA?9?$AAR?$AAO@ 10024944     libucrt:lcidtoname_downlevel.obj
 0002:00004950       ??_C@_1M@IDNNEJMM@?$AAr?$AAu?$AA?9?$AAR?$AAU@ 10024950     libucrt:lcidtoname_downlevel.obj
 0002:0000495c       ??_C@_1M@LILEEOGM@?$AAh?$AAr?$AA?9?$AAH?$AAR@ 1002495c     libucrt:lcidtoname_downlevel.obj
 0002:00004968       ??_C@_1M@FKIFEHPB@?$AAs?$AAk?$AA?9?$AAS?$AAK@ 10024968     libucrt:lcidtoname_downlevel.obj
 0002:00004974       ??_C@_1M@LJMAMNPJ@?$AAs?$AAq?$AA?9?$AAA?$AAL@ 10024974     libucrt:lcidtoname_downlevel.obj
 0002:00004980       ??_C@_1M@GIAKDKJK@?$AAs?$AAv?$AA?9?$AAS?$AAE@ 10024980     libucrt:lcidtoname_downlevel.obj
 0002:0000498c       ??_C@_1M@MKJKIKCL@?$AAt?$AAh?$AA?9?$AAT?$AAH@ 1002498c     libucrt:lcidtoname_downlevel.obj
 0002:00004998       ??_C@_1M@MFLCCMPB@?$AAt?$AAr?$AA?9?$AAT?$AAR@ 10024998     libucrt:lcidtoname_downlevel.obj
 0002:000049a4       ??_C@_1M@OIJHDKJN@?$AAu?$AAr?$AA?9?$AAP?$AAK@ 100249a4     libucrt:lcidtoname_downlevel.obj
 0002:000049b0       ??_C@_1M@LHIPCIEK@?$AAi?$AAd?$AA?9?$AAI?$AAD@ 100249b0     libucrt:lcidtoname_downlevel.obj
 0002:000049bc       ??_C@_1M@MFMOBGI@?$AAu?$AAk?$AA?9?$AAU?$AAA@ 100249bc     libucrt:lcidtoname_downlevel.obj
 0002:000049c8       ??_C@_1M@OBGLJIPL@?$AAb?$AAe?$AA?9?$AAB?$AAY@ 100249c8     libucrt:lcidtoname_downlevel.obj
 0002:000049d4       ??_C@_1M@BCFAJEAD@?$AAs?$AAl?$AA?9?$AAS?$AAI@ 100249d4     libucrt:lcidtoname_downlevel.obj
 0002:000049e0       ??_C@_1M@FKFFEDDN@?$AAe?$AAt?$AA?9?$AAE?$AAE@ 100249e0     libucrt:lcidtoname_downlevel.obj
 0002:000049ec       ??_C@_1M@KGKKAACI@?$AAl?$AAv?$AA?9?$AAL?$AAV@ 100249ec     libucrt:lcidtoname_downlevel.obj
 0002:000049f8       ??_C@_1M@IFGBIJO@?$AAl?$AAt?$AA?9?$AAL?$AAT@ 100249f8     libucrt:lcidtoname_downlevel.obj
 0002:00004a04       ??_C@_1M@FGEAHEDM@?$AAf?$AAa?$AA?9?$AAI?$AAR@ 10024a04     libucrt:lcidtoname_downlevel.obj
 0002:00004a10       ??_C@_1M@KBMAIBFN@?$AAv?$AAi?$AA?9?$AAV?$AAN@ 10024a10     libucrt:lcidtoname_downlevel.obj
 0002:00004a1c       ??_C@_1M@GPCBKDJK@?$AAh?$AAy?$AA?9?$AAA?$AAM@ 10024a1c     libucrt:lcidtoname_downlevel.obj
 0002:00004a28       ??_C@_1BG@BECMDDJB@?$AAa?$AAz?$AA?9?$AAA?$AAZ?$AA?9?$AAL?$AAa?$AAt?$AAn@ 10024a28     libucrt:lcidtoname_downlevel.obj
 0002:00004a40       ??_C@_1M@MAOFCAEA@?$AAe?$AAu?$AA?9?$AAE?$AAS@ 10024a40     libucrt:lcidtoname_downlevel.obj
 0002:00004a4c       ??_C@_1M@IGHABKPI@?$AAm?$AAk?$AA?9?$AAM?$AAK@ 10024a4c     libucrt:lcidtoname_downlevel.obj
 0002:00004a58       ??_C@_1M@IAIGNEJG@?$AAt?$AAn?$AA?9?$AAZ?$AAA@ 10024a58     libucrt:lcidtoname_downlevel.obj
 0002:00004a64       ??_C@_1M@IIJCOJFA@?$AAx?$AAh?$AA?9?$AAZ?$AAA@ 10024a64     libucrt:lcidtoname_downlevel.obj
 0002:00004a70       ??_C@_1M@LGPJHNJH@?$AAz?$AAu?$AA?9?$AAZ?$AAA@ 10024a70     libucrt:lcidtoname_downlevel.obj
 0002:00004a7c       ??_C@_1M@HOKAOIO@?$AAa?$AAf?$AA?9?$AAZ?$AAA@ 10024a7c     libucrt:lcidtoname_downlevel.obj
 0002:00004a88       ??_C@_1M@DPCLHLIE@?$AAk?$AAa?$AA?9?$AAG?$AAE@ 10024a88     libucrt:lcidtoname_downlevel.obj
 0002:00004a94       ??_C@_1M@BLKMHJBI@?$AAf?$AAo?$AA?9?$AAF?$AAO@ 10024a94     libucrt:lcidtoname_downlevel.obj
 0002:00004aa0       ??_C@_1M@LGGJAPPB@?$AAh?$AAi?$AA?9?$AAI?$AAN@ 10024aa0     libucrt:lcidtoname_downlevel.obj
 0002:00004aac       ??_C@_1M@FIKPIHFE@?$AAm?$AAt?$AA?9?$AAM?$AAT@ 10024aac     libucrt:lcidtoname_downlevel.obj
 0002:00004ab8       ??_C@_1M@HEGGPBFA@?$AAs?$AAe?$AA?9?$AAN?$AAO@ 10024ab8     libucrt:lcidtoname_downlevel.obj
 0002:00004ac4       ??_C@_1M@EIBJEEPA@?$AAm?$AAs?$AA?9?$AAM?$AAY@ 10024ac4     libucrt:lcidtoname_downlevel.obj
 0002:00004ad0       ??_C@_1M@FHLBGMPP@?$AAk?$AAk?$AA?9?$AAK?$AAZ@ 10024ad0     libucrt:lcidtoname_downlevel.obj
 0002:00004adc       ??_C@_1M@NGJJLCGI@?$AAk?$AAy?$AA?9?$AAK?$AAG@ 10024adc     libucrt:lcidtoname_downlevel.obj
 0002:00004ae8       ??_C@_1M@GIENNBFC@?$AAs?$AAw?$AA?9?$AAK?$AAE@ 10024ae8     libucrt:lcidtoname_downlevel.obj
 0002:00004af4       ??_C@_1BG@NDGMJIMJ@?$AAu?$AAz?$AA?9?$AAU?$AAZ?$AA?9?$AAL?$AAa?$AAt?$AAn@ 10024af4     libucrt:lcidtoname_downlevel.obj
 0002:00004b0c       ??_C@_1M@IDCCIHBC@?$AAt?$AAt?$AA?9?$AAR?$AAU@ 10024b0c     libucrt:lcidtoname_downlevel.obj
 0002:00004b18       ??_C@_1M@LOICPMOJ@?$AAb?$AAn?$AA?9?$AAI?$AAN@ 10024b18     libucrt:lcidtoname_downlevel.obj
 0002:00004b24       ??_C@_1M@KPKKNEAH@?$AAp?$AAa?$AA?9?$AAI?$AAN@ 10024b24     libucrt:lcidtoname_downlevel.obj
 0002:00004b30       ??_C@_1M@PJGPPBOG@?$AAg?$AAu?$AA?9?$AAI?$AAN@ 10024b30     libucrt:lcidtoname_downlevel.obj
 0002:00004b3c       ??_C@_1M@KMKMOPHI@?$AAt?$AAa?$AA?9?$AAI?$AAN@ 10024b3c     libucrt:lcidtoname_downlevel.obj
 0002:00004b48       ??_C@_1M@KFEHEPAC@?$AAt?$AAe?$AA?9?$AAI?$AAN@ 10024b48     libucrt:lcidtoname_downlevel.obj
 0002:00004b54       ??_C@_1M@CDCLMGHI@?$AAk?$AAn?$AA?9?$AAI?$AAN@ 10024b54     libucrt:lcidtoname_downlevel.obj
 0002:00004b60       ??_C@_1M@MIODLDKF@?$AAm?$AAl?$AA?9?$AAI?$AAN@ 10024b60     libucrt:lcidtoname_downlevel.obj
 0002:00004b6c       ??_C@_1M@PBIEACPO@?$AAm?$AAr?$AA?9?$AAI?$AAN@ 10024b6c     libucrt:lcidtoname_downlevel.obj
 0002:00004b78       ??_C@_1M@NIDEAGPH@?$AAs?$AAa?$AA?9?$AAI?$AAN@ 10024b78     libucrt:lcidtoname_downlevel.obj
 0002:00004b84       ??_C@_1M@FHIHCBIO@?$AAm?$AAn?$AA?9?$AAM?$AAN@ 10024b84     libucrt:lcidtoname_downlevel.obj
 0002:00004b90       ??_C@_1M@JAIJPENP@?$AAc?$AAy?$AA?9?$AAG?$AAB@ 10024b90     libucrt:lcidtoname_downlevel.obj
 0002:00004b9c       ??_C@_1M@PHGFBEPN@?$AAg?$AAl?$AA?9?$AAE?$AAS@ 10024b9c     libucrt:lcidtoname_downlevel.obj
 0002:00004ba8       ??_C@_1O@KPIPDNCP@?$AAk?$AAo?$AAk?$AA?9?$AAI?$AAN@ 10024ba8     libucrt:lcidtoname_downlevel.obj
 0002:00004bb8       ??_C@_1O@KNHJLDJA@?$AAs?$AAy?$AAr?$AA?9?$AAS?$AAY@ 10024bb8     libucrt:lcidtoname_downlevel.obj
 0002:00004bc8       ??_C@_1O@MKEKBLAH@?$AAd?$AAi?$AAv?$AA?9?$AAM?$AAV@ 10024bc8     libucrt:lcidtoname_downlevel.obj
 0002:00004bd8       ??_C@_1O@OHDCKDDF@?$AAq?$AAu?$AAz?$AA?9?$AAB?$AAO@ 10024bd8     libucrt:lcidtoname_downlevel.obj
 0002:00004be8       ??_C@_1M@LEPJNLFD@?$AAn?$AAs?$AA?9?$AAZ?$AAA@ 10024be8     libucrt:lcidtoname_downlevel.obj
 0002:00004bf4       ??_C@_1M@OMLEIIJB@?$AAm?$AAi?$AA?9?$AAN?$AAZ@ 10024bf4     libucrt:lcidtoname_downlevel.obj
 0002:00004c00       ??_C@_1M@PMPEAILG@?$AAa?$AAr?$AA?9?$AAI?$AAQ@ 10024c00     libucrt:lcidtoname_downlevel.obj
 0002:00004c0c       ??_C@_1M@CNKPNOEE@?$AAd?$AAe?$AA?9?$AAC?$AAH@ 10024c0c     libucrt:lcidtoname_downlevel.obj
 0002:00004c18       ??_C@_1M@LKMGMLKO@?$AAe?$AAn?$AA?9?$AAG?$AAB@ 10024c18     libucrt:lcidtoname_downlevel.obj
 0002:00004c24       ??_C@_1M@PGKJFFGL@?$AAe?$AAs?$AA?9?$AAM?$AAX@ 10024c24     libucrt:lcidtoname_downlevel.obj
 0002:00004c30       ??_C@_1M@DNNANBDC@?$AAf?$AAr?$AA?9?$AAB?$AAE@ 10024c30     libucrt:lcidtoname_downlevel.obj
 0002:00004c3c       ??_C@_1M@HLGMDFHM@?$AAi?$AAt?$AA?9?$AAC?$AAH@ 10024c3c     libucrt:lcidtoname_downlevel.obj
 0002:00004c48       ??_C@_1M@CLLBGJH@?$AAn?$AAl?$AA?9?$AAB?$AAE@ 10024c48     libucrt:lcidtoname_downlevel.obj
 0002:00004c54       ??_C@_1M@BODBOGLF@?$AAn?$AAn?$AA?9?$AAN?$AAO@ 10024c54     libucrt:lcidtoname_downlevel.obj
 0002:00004c60       ??_C@_1M@HFFAHKAD@?$AAp?$AAt?$AA?9?$AAP?$AAT@ 10024c60     libucrt:lcidtoname_downlevel.obj
 0002:00004c6c       ??_C@_1BG@LNOAKHIE@?$AAs?$AAr?$AA?9?$AAS?$AAP?$AA?9?$AAL?$AAa?$AAt?$AAn@ 10024c6c     libucrt:lcidtoname_downlevel.obj
 0002:00004c84       ??_C@_1M@HBMHBGAK@?$AAs?$AAv?$AA?9?$AAF?$AAI@ 10024c84     libucrt:lcidtoname_downlevel.obj
 0002:00004c90       ??_C@_1BG@DGCJGJBE@?$AAa?$AAz?$AA?9?$AAA?$AAZ?$AA?9?$AAC?$AAy?$AAr?$AAl@ 10024c90     libucrt:lcidtoname_downlevel.obj
 0002:00004ca8       ??_C@_1M@KEJDAAHB@?$AAs?$AAe?$AA?9?$AAS?$AAE@ 10024ca8     libucrt:lcidtoname_downlevel.obj
 0002:00004cb4       ??_C@_1M@HEIBJJAD@?$AAm?$AAs?$AA?9?$AAB?$AAN@ 10024cb4     libucrt:lcidtoname_downlevel.obj
 0002:00004cc0       ??_C@_1BG@PBGJMCEM@?$AAu?$AAz?$AA?9?$AAU?$AAZ?$AA?9?$AAC?$AAy?$AAr?$AAl@ 10024cc0     libucrt:lcidtoname_downlevel.obj
 0002:00004cd8       ??_C@_1O@LAOBCMDF@?$AAq?$AAu?$AAz?$AA?9?$AAE?$AAC@ 10024cd8     libucrt:lcidtoname_downlevel.obj
 0002:00004ce8       ??_C@_1M@POEEMAIO@?$AAa?$AAr?$AA?9?$AAE?$AAG@ 10024ce8     libucrt:lcidtoname_downlevel.obj
 0002:00004cf4       ??_C@_1M@EFAKDEDL@?$AAz?$AAh?$AA?9?$AAH?$AAK@ 10024cf4     libucrt:lcidtoname_downlevel.obj
 0002:00004d00       ??_C@_1M@HKKIJHGI@?$AAd?$AAe?$AA?9?$AAA?$AAT@ 10024d00     libucrt:lcidtoname_downlevel.obj
 0002:00004d0c       ??_C@_1M@KBFBEHJF@?$AAe?$AAn?$AA?9?$AAA?$AAU@ 10024d0c     libucrt:lcidtoname_downlevel.obj
 0002:00004d18       ??_C@_1M@MNPLFAAH@?$AAe?$AAs?$AA?9?$AAE?$AAS@ 10024d18     libucrt:lcidtoname_downlevel.obj
 0002:00004d24       ??_C@_1M@HJOOJFMA@?$AAf?$AAr?$AA?9?$AAC?$AAA@ 10024d24     libucrt:lcidtoname_downlevel.obj
 0002:00004d30       ??_C@_1BG@JPOFPNAB@?$AAs?$AAr?$AA?9?$AAS?$AAP?$AA?9?$AAC?$AAy?$AAr?$AAl@ 10024d30     libucrt:lcidtoname_downlevel.obj
 0002:00004d48       ??_C@_1M@LNFOCMOB@?$AAs?$AAe?$AA?9?$AAF?$AAI@ 10024d48     libucrt:lcidtoname_downlevel.obj
 0002:00004d54       ??_C@_1O@MGJBOAMB@?$AAq?$AAu?$AAz?$AA?9?$AAP?$AAE@ 10024d54     libucrt:lcidtoname_downlevel.obj
 0002:00004d64       ??_C@_1M@GJINLBOK@?$AAa?$AAr?$AA?9?$AAL?$AAY@ 10024d64     libucrt:lcidtoname_downlevel.obj
 0002:00004d70       ??_C@_1M@GGMNHJNL@?$AAz?$AAh?$AA?9?$AAS?$AAG@ 10024d70     libucrt:lcidtoname_downlevel.obj
 0002:00004d7c       ??_C@_1M@HOIKODND@?$AAd?$AAe?$AA?9?$AAL?$AAU@ 10024d7c     libucrt:lcidtoname_downlevel.obj
 0002:00004d88       ??_C@_1M@DDOCCGFG@?$AAe?$AAn?$AA?9?$AAC?$AAA@ 10024d88     libucrt:lcidtoname_downlevel.obj
 0002:00004d94       ??_C@_1M@BNOEMJLF@?$AAe?$AAs?$AA?9?$AAG?$AAT@ 10024d94     libucrt:lcidtoname_downlevel.obj
 0002:00004da0       ??_C@_1M@EOGNKEK@?$AAf?$AAr?$AA?9?$AAC?$AAH@ 10024da0     libucrt:lcidtoname_downlevel.obj
 0002:00004dac       ??_C@_1M@FLIDJFHL@?$AAh?$AAr?$AA?9?$AAB?$AAA@ 10024dac     libucrt:lcidtoname_downlevel.obj
 0002:00004db8       ??_C@_1O@FMCELNAJ@?$AAs?$AAm?$AAj?$AA?9?$AAN?$AAO@ 10024db8     libucrt:lcidtoname_downlevel.obj
 0002:00004dc8       ??_C@_1M@JHGLJMGJ@?$AAa?$AAr?$AA?9?$AAD?$AAZ@ 10024dc8     libucrt:lcidtoname_downlevel.obj
 0002:00004dd4       ??_C@_1M@JKKFDCNP@?$AAz?$AAh?$AA?9?$AAM?$AAO@ 10024dd4     libucrt:lcidtoname_downlevel.obj
 0002:00004de0       ??_C@_1M@GEEFALPE@?$AAd?$AAe?$AA?9?$AAL?$AAI@ 10024de0     libucrt:lcidtoname_downlevel.obj
 0002:00004dec       ??_C@_1M@IGEOFBG@?$AAe?$AAn?$AA?9?$AAN?$AAZ@ 10024dec     libucrt:lcidtoname_downlevel.obj
 0002:00004df8       ??_C@_1M@KDBONEHP@?$AAe?$AAs?$AA?9?$AAC?$AAR@ 10024df8     libucrt:lcidtoname_downlevel.obj
 0002:00004e04       ??_C@_1M@FHMDOHNN@?$AAf?$AAr?$AA?9?$AAL?$AAU@ 10024e04     libucrt:lcidtoname_downlevel.obj
 0002:00004e10       ??_C@_1BG@NFKKMAFG@?$AAb?$AAs?$AA?9?$AAB?$AAA?$AA?9?$AAL?$AAa?$AAt?$AAn@ 10024e10     libucrt:lcidtoname_downlevel.obj
 0002:00004e28       ??_C@_1O@IMNBEMCI@?$AAs?$AAm?$AAj?$AA?9?$AAS?$AAE@ 10024e28     libucrt:lcidtoname_downlevel.obj
 0002:00004e38       ??_C@_1M@DHHMBNDP@?$AAa?$AAr?$AA?9?$AAM?$AAA@ 10024e38     libucrt:lcidtoname_downlevel.obj
 0002:00004e44       ??_C@_1M@BNBLJCGH@?$AAe?$AAn?$AA?9?$AAI?$AAE@ 10024e44     libucrt:lcidtoname_downlevel.obj
 0002:00004e50       ??_C@_1M@GEPAFMDL@?$AAe?$AAs?$AA?9?$AAP?$AAA@ 10024e50     libucrt:lcidtoname_downlevel.obj
 0002:00004e5c       ??_C@_1M@OJONDMDL@?$AAf?$AAr?$AA?9?$AAM?$AAC@ 10024e5c     libucrt:lcidtoname_downlevel.obj
 0002:00004e68       ??_C@_1BG@OBCNFJB@?$AAs?$AAr?$AA?9?$AAB?$AAA?$AA?9?$AAL?$AAa?$AAt?$AAn@ 10024e68     libucrt:lcidtoname_downlevel.obj
 0002:00004e80       ??_C@_1O@KEMEEGPO@?$AAs?$AAm?$AAa?$AA?9?$AAN?$AAO@ 10024e80     libucrt:lcidtoname_downlevel.obj
 0002:00004e90       ??_C@_1M@ELMGFODK@?$AAa?$AAr?$AA?9?$AAT?$AAN@ 10024e90     libucrt:lcidtoname_downlevel.obj
 0002:00004e9c       ??_C@_1M@BHDLHFAF@?$AAe?$AAn?$AA?9?$AAZ?$AAA@ 10024e9c     libucrt:lcidtoname_downlevel.obj
 0002:00004ea8       ??_C@_1M@BMGIGLIF@?$AAe?$AAs?$AA?9?$AAD?$AAO@ 10024ea8     libucrt:lcidtoname_downlevel.obj
 0002:00004eb4       ??_C@_1BG@CMBHIPBE@?$AAs?$AAr?$AA?9?$AAB?$AAA?$AA?9?$AAC?$AAy?$AAr?$AAl@ 10024eb4     libucrt:lcidtoname_downlevel.obj
 0002:00004ecc       ??_C@_1O@HEDBLHNP@?$AAs?$AAm?$AAa?$AA?9?$AAS?$AAE@ 10024ecc     libucrt:lcidtoname_downlevel.obj
 0002:00004edc       ??_C@_1M@DAGCADIM@?$AAa?$AAr?$AA?9?$AAO?$AAM@ 10024edc     libucrt:lcidtoname_downlevel.obj
 0002:00004ee8       ??_C@_1M@FODLMICG@?$AAe?$AAn?$AA?9?$AAJ?$AAM@ 10024ee8     libucrt:lcidtoname_downlevel.obj
 0002:00004ef4       ??_C@_1M@DNMLCIHB@?$AAe?$AAs?$AA?9?$AAV?$AAE@ 10024ef4     libucrt:lcidtoname_downlevel.obj
 0002:00004f00       ??_C@_1O@EOKHMKJK@?$AAs?$AAm?$AAs?$AA?9?$AAF?$AAI@ 10024f00     libucrt:lcidtoname_downlevel.obj
 0002:00004f10       ??_C@_1M@CAFJMKOF@?$AAa?$AAr?$AA?9?$AAY?$AAE@ 10024f10     libucrt:lcidtoname_downlevel.obj
 0002:00004f1c       ??_C@_1M@CBFHIJLI@?$AAe?$AAn?$AA?9?$AAC?$AAB@ 10024f1c     libucrt:lcidtoname_downlevel.obj
 0002:00004f28       ??_C@_1M@BGNFLDN@?$AAe?$AAs?$AA?9?$AAC?$AAO@ 10024f28     libucrt:lcidtoname_downlevel.obj
 0002:00004f34       ??_C@_1O@JMPHMAMC@?$AAs?$AAm?$AAn?$AA?9?$AAF?$AAI@ 10024f34     libucrt:lcidtoname_downlevel.obj
 0002:00004f44       ??_C@_1M@JLANABKE@?$AAa?$AAr?$AA?9?$AAS?$AAY@ 10024f44     libucrt:lcidtoname_downlevel.obj
 0002:00004f50       ??_C@_1M@HPKGCFGN@?$AAe?$AAn?$AA?9?$AAB?$AAZ@ 10024f50     libucrt:lcidtoname_downlevel.obj
 0002:00004f5c       ??_C@_1M@OLJCMLGM@?$AAe?$AAs?$AA?9?$AAP?$AAE@ 10024f5c     libucrt:lcidtoname_downlevel.obj
 0002:00004f68       ??_C@_1M@MKKGFKLE@?$AAa?$AAr?$AA?9?$AAJ?$AAO@ 10024f68     libucrt:lcidtoname_downlevel.obj
 0002:00004f74       ??_C@_1M@EKPGLDNI@?$AAe?$AAn?$AA?9?$AAT?$AAT@ 10024f74     libucrt:lcidtoname_downlevel.obj
 0002:00004f80       ??_C@_1M@OONGHFHE@?$AAe?$AAs?$AA?9?$AAA?$AAR@ 10024f80     libucrt:lcidtoname_downlevel.obj
 0002:00004f8c       ??_C@_1M@OOJFGBHE@?$AAa?$AAr?$AA?9?$AAL?$AAB@ 10024f8c     libucrt:lcidtoname_downlevel.obj
 0002:00004f98       ??_C@_1M@GCEJHNEG@?$AAe?$AAn?$AA?9?$AAZ?$AAW@ 10024f98     libucrt:lcidtoname_downlevel.obj
 0002:00004fa4       ??_C@_1M@JNOCAHJI@?$AAe?$AAs?$AA?9?$AAE?$AAC@ 10024fa4     libucrt:lcidtoname_downlevel.obj
 0002:00004fb0       ??_C@_1M@JEFHPGGB@?$AAa?$AAr?$AA?9?$AAK?$AAW@ 10024fb0     libucrt:lcidtoname_downlevel.obj
 0002:00004fbc       ??_C@_1M@MLKIBJOJ@?$AAe?$AAn?$AA?9?$AAP?$AAH@ 10024fbc     libucrt:lcidtoname_downlevel.obj
 0002:00004fc8       ??_C@_1M@BDNIPEND@?$AAe?$AAs?$AA?9?$AAC?$AAL@ 10024fc8     libucrt:lcidtoname_downlevel.obj
 0002:00004fd4       ??_C@_1M@MPNMEKBD@?$AAa?$AAr?$AA?9?$AAA?$AAE@ 10024fd4     libucrt:lcidtoname_downlevel.obj
 0002:00004fe0       ??_C@_1M@KBJALCPI@?$AAe?$AAs?$AA?9?$AAU?$AAY@ 10024fe0     libucrt:lcidtoname_downlevel.obj
 0002:00004fec       ??_C@_1M@LLCCOAGA@?$AAa?$AAr?$AA?9?$AAB?$AAH@ 10024fec     libucrt:lcidtoname_downlevel.obj
 0002:00004ff8       ??_C@_1M@PBFNCDEL@?$AAe?$AAs?$AA?9?$AAP?$AAY@ 10024ff8     libucrt:lcidtoname_downlevel.obj
 0002:00005004       ??_C@_1M@EDGINPNP@?$AAa?$AAr?$AA?9?$AAQ?$AAA@ 10025004     libucrt:lcidtoname_downlevel.obj
 0002:00005010       ??_C@_1M@MKDBIIJI@?$AAe?$AAs?$AA?9?$AAB?$AAO@ 10025010     libucrt:lcidtoname_downlevel.obj
 0002:0000501c       ??_C@_1M@CPKKEBLD@?$AAe?$AAs?$AA?9?$AAS?$AAV@ 1002501c     libucrt:lcidtoname_downlevel.obj
 0002:00005028       ??_C@_1M@NDBGMMJL@?$AAe?$AAs?$AA?9?$AAH?$AAN@ 10025028     libucrt:lcidtoname_downlevel.obj
 0002:00005034       ??_C@_1M@JIJIBHDP@?$AAe?$AAs?$AA?9?$AAN?$AAI@ 10025034     libucrt:lcidtoname_downlevel.obj
 0002:00005040       ??_C@_1M@CGFMKEEK@?$AAe?$AAs?$AA?9?$AAP?$AAR@ 10025040     libucrt:lcidtoname_downlevel.obj
 0002:0000504c       ??_C@_1O@ICJHKIIK@?$AAz?$AAh?$AA?9?$AAC?$AAH?$AAT@ 1002504c     libucrt:lcidtoname_downlevel.obj
 0002:0000505c       ??_C@_15CLNEJCE@?$AAs?$AAr@ 1002505c     libucrt:lcidtoname_downlevel.obj
 0002:00005788       ??_C@_1M@KAHEKEIG@?$AAa?$AAf?$AA?9?$AAz?$AAa@ 10025788     libucrt:lcidtoname_downlevel.obj
 0002:00005794       ??_C@_1M@GIECOABL@?$AAa?$AAr?$AA?9?$AAa?$AAe@ 10025794     libucrt:lcidtoname_downlevel.obj
 0002:000057a0       ??_C@_1M@BMLMEKGI@?$AAa?$AAr?$AA?9?$AAb?$AAh@ 100257a0     libucrt:lcidtoname_downlevel.obj
 0002:000057ac       ??_C@_1M@DAPFDGGB@?$AAa?$AAr?$AA?9?$AAd?$AAz@ 100257ac     libucrt:lcidtoname_downlevel.obj
 0002:000057b8       ??_C@_1M@FJNKGKIG@?$AAa?$AAr?$AA?9?$AAe?$AAg@ 100257b8     libucrt:lcidtoname_downlevel.obj
 0002:000057c4       ??_C@_1M@FLGKKCLO@?$AAa?$AAr?$AA?9?$AAi?$AAq@ 100257c4     libucrt:lcidtoname_downlevel.obj
 0002:000057d0       ??_C@_1M@GNDIPALM@?$AAa?$AAr?$AA?9?$AAj?$AAo@ 100257d0     libucrt:lcidtoname_downlevel.obj
 0002:000057dc       ??_C@_1M@DDMJFMGJ@?$AAa?$AAr?$AA?9?$AAk?$AAw@ 100257dc     libucrt:lcidtoname_downlevel.obj
 0002:000057e8       ??_C@_1M@EJALMLHM@?$AAa?$AAr?$AA?9?$AAl?$AAb@ 100257e8     libucrt:lcidtoname_downlevel.obj
 0002:000057f4       ??_C@_1M@MOBDBLOC@?$AAa?$AAr?$AA?9?$AAl?$AAy@ 100257f4     libucrt:lcidtoname_downlevel.obj
 0002:00005800       ??_C@_1M@JAOCLHDH@?$AAa?$AAr?$AA?9?$AAm?$AAa@ 10025800     libucrt:lcidtoname_downlevel.obj
 0002:0000580c       ??_C@_1M@JHPMKJIE@?$AAa?$AAr?$AA?9?$AAo?$AAm@ 1002580c     libucrt:lcidtoname_downlevel.obj
 0002:00005818       ??_C@_1M@OEPGHFNH@?$AAa?$AAr?$AA?9?$AAq?$AAa@ 10025818     libucrt:lcidtoname_downlevel.obj
 0002:00005824       ??_C@_1M@KJDONENM@?$AAa?$AAr?$AA?9?$AAs?$AAa@ 10025824     libucrt:lcidtoname_downlevel.obj
 0002:00005830       ??_C@_1M@DMJDKLKM@?$AAa?$AAr?$AA?9?$AAs?$AAy@ 10025830     libucrt:lcidtoname_downlevel.obj
 0002:0000583c       ??_C@_1M@OMFIPEDC@?$AAa?$AAr?$AA?9?$AAt?$AAn@ 1002583c     libucrt:lcidtoname_downlevel.obj
 0002:00005848       ??_C@_1M@IHMHGAON@?$AAa?$AAr?$AA?9?$AAy?$AAe@ 10025848     libucrt:lcidtoname_downlevel.obj
 0002:00005854       ??_C@_1BG@KDCPGJGB@?$AAa?$AAz?$AA?9?$AAa?$AAz?$AA?9?$AAc?$AAy?$AAr?$AAl@ 10025854     libucrt:lcidtoname_downlevel.obj
 0002:0000586c       ??_C@_1BG@IBCKDDOE@?$AAa?$AAz?$AA?9?$AAa?$AAz?$AA?9?$AAl?$AAa?$AAt?$AAn@ 1002586c     libucrt:lcidtoname_downlevel.obj
 0002:00005884       ??_C@_1M@EGPFDCPD@?$AAb?$AAe?$AA?9?$AAb?$AAy@ 10025884     libucrt:lcidtoname_downlevel.obj
 0002:00005890       ??_C@_1M@PCMGMCGC@?$AAb?$AAg?$AA?9?$AAb?$AAg@ 10025890     libucrt:lcidtoname_downlevel.obj
 0002:0000589c       ??_C@_1M@BJBMFGOB@?$AAb?$AAn?$AA?9?$AAi?$AAn@ 1002589c     libucrt:lcidtoname_downlevel.obj
 0002:000058a8       ??_C@_1BG@EAKMMACD@?$AAb?$AAs?$AA?9?$AAb?$AAa?$AA?9?$AAl?$AAa?$AAt?$AAn@ 100258a8     libucrt:lcidtoname_downlevel.obj
 0002:000058c0       ??_C@_1M@KGADAODK@?$AAc?$AAa?$AA?9?$AAe?$AAs@ 100258c0     libucrt:lcidtoname_downlevel.obj
 0002:000058cc       ??_C@_1M@COAJPDHI@?$AAc?$AAs?$AA?9?$AAc?$AAz@ 100258cc     libucrt:lcidtoname_downlevel.obj
 0002:000058d8       ??_C@_1M@DHBHFONH@?$AAc?$AAy?$AA?9?$AAg?$AAb@ 100258d8     libucrt:lcidtoname_downlevel.obj
 0002:000058e4       ??_C@_1M@IMGKELGA@?$AAd?$AAa?$AA?9?$AAd?$AAk@ 100258e4     libucrt:lcidtoname_downlevel.obj
 0002:000058f0       ??_C@_1M@NNDGDNGA@?$AAd?$AAe?$AA?9?$AAa?$AAt@ 100258f0     libucrt:lcidtoname_downlevel.obj
 0002:000058fc       ??_C@_1M@IKDBHEEM@?$AAd?$AAe?$AA?9?$AAc?$AAh@ 100258fc     libucrt:lcidtoname_downlevel.obj
 0002:00005908       ??_C@_1M@GFFOJMCJ@?$AAd?$AAe?$AA?9?$AAd?$AAe@ 10025908     libucrt:lcidtoname_downlevel.obj
 0002:00005914       ??_C@_1M@MDNLKBPM@?$AAd?$AAe?$AA?9?$AAl?$AAi@ 10025914     libucrt:lcidtoname_downlevel.obj
 0002:00005920       ??_C@_1M@NJBEEJNL@?$AAd?$AAe?$AA?9?$AAl?$AAu@ 10025920     libucrt:lcidtoname_downlevel.obj
 0002:0000592c       ??_C@_1O@GNNELBAP@?$AAd?$AAi?$AAv?$AA?9?$AAm?$AAv@ 1002592c     libucrt:lcidtoname_downlevel.obj
 0002:0000593c       ??_C@_1M@EJLEOGAE@?$AAe?$AAl?$AA?9?$AAg?$AAr@ 1002593c     libucrt:lcidtoname_downlevel.obj
 0002:00005948       ??_C@_1M@GMPONJN@?$AAe?$AAn?$AA?9?$AAa?$AAu@ 10025948     libucrt:lcidtoname_downlevel.obj
 0002:00005954       ??_C@_1M@NIDIIPGF@?$AAe?$AAn?$AA?9?$AAb?$AAz@ 10025954     libucrt:lcidtoname_downlevel.obj
 0002:00005960       ??_C@_1M@JEHMIMFO@?$AAe?$AAn?$AA?9?$AAc?$AAa@ 10025960     libucrt:lcidtoname_downlevel.obj
 0002:0000596c       ??_C@_1M@IGMJCDLA@?$AAe?$AAn?$AA?9?$AAc?$AAb@ 1002596c     libucrt:lcidtoname_downlevel.obj
 0002:00005978       ??_C@_1M@BNFIGBKG@?$AAe?$AAn?$AA?9?$AAg?$AAb@ 10025978     libucrt:lcidtoname_downlevel.obj
 0002:00005984       ??_C@_1M@LKIFDIGP@?$AAe?$AAn?$AA?9?$AAi?$AAe@ 10025984     libucrt:lcidtoname_downlevel.obj
 0002:00005990       ??_C@_1M@PJKFGCCO@?$AAe?$AAn?$AA?9?$AAj?$AAm@ 10025990     libucrt:lcidtoname_downlevel.obj
 0002:0000599c       ??_C@_1M@KPPKEPBO@?$AAe?$AAn?$AA?9?$AAn?$AAz@ 1002599c     libucrt:lcidtoname_downlevel.obj
 0002:000059a8       ??_C@_1M@GMDGLDOB@?$AAe?$AAn?$AA?9?$AAp?$AAh@ 100259a8     libucrt:lcidtoname_downlevel.obj
 0002:000059b4       ??_C@_1M@ONGIBJNA@?$AAe?$AAn?$AA?9?$AAt?$AAt@ 100259b4     libucrt:lcidtoname_downlevel.obj
 0002:000059c0       ??_C@_1M@LLODPCMM@?$AAe?$AAn?$AA?9?$AAu?$AAs@ 100259c0     libucrt:lcidtoname_downlevel.obj
 0002:000059cc       ??_C@_1M@LAKFNPAN@?$AAe?$AAn?$AA?9?$AAz?$AAa@ 100259cc     libucrt:lcidtoname_downlevel.obj
 0002:000059d8       ??_C@_1M@MFNHNHEO@?$AAe?$AAn?$AA?9?$AAz?$AAw@ 100259d8     libucrt:lcidtoname_downlevel.obj
 0002:000059e4       ??_C@_1M@EJEINPHM@?$AAe?$AAs?$AA?9?$AAa?$AAr@ 100259e4     libucrt:lcidtoname_downlevel.obj
 0002:000059f0       ??_C@_1M@GNKPCCJA@?$AAe?$AAs?$AA?9?$AAb?$AAo@ 100259f0     libucrt:lcidtoname_downlevel.obj
 0002:000059fc       ??_C@_1M@LEEGFONL@?$AAe?$AAs?$AA?9?$AAc?$AAl@ 100259fc     libucrt:lcidtoname_downlevel.obj
 0002:00005a08       ??_C@_1M@KGPDPBDF@?$AAe?$AAs?$AA?9?$AAc?$AAo@ 10025a08     libucrt:lcidtoname_downlevel.obj
 0002:00005a14       ??_C@_1M@EIAHOHH@?$AAe?$AAs?$AA?9?$AAc?$AAr@ 10025a14     libucrt:lcidtoname_downlevel.obj
 0002:00005a20       ??_C@_1M@LLPGMBIN@?$AAe?$AAs?$AA?9?$AAd?$AAo@ 10025a20     libucrt:lcidtoname_downlevel.obj
 0002:00005a2c       ??_C@_1M@DKHMKNJA@?$AAe?$AAs?$AA?9?$AAe?$AAc@ 10025a2c     libucrt:lcidtoname_downlevel.obj
 0002:00005a38       ??_C@_1M@GKGFPKAP@?$AAe?$AAs?$AA?9?$AAe?$AAs@ 10025a38     libucrt:lcidtoname_downlevel.obj
 0002:00005a44       ??_C@_1M@LKHKGDLN@?$AAe?$AAs?$AA?9?$AAg?$AAt@ 10025a44     libucrt:lcidtoname_downlevel.obj
 0002:00005a50       ??_C@_1M@HEIIGGJD@?$AAe?$AAs?$AA?9?$AAh?$AAn@ 10025a50     libucrt:lcidtoname_downlevel.obj
 0002:00005a5c       ??_C@_1M@FBDHPPGD@?$AAe?$AAs?$AA?9?$AAm?$AAx@ 10025a5c     libucrt:lcidtoname_downlevel.obj
 0002:00005a68       ??_C@_1M@DPAGLNDH@?$AAe?$AAs?$AA?9?$AAn?$AAi@ 10025a68     libucrt:lcidtoname_downlevel.obj
 0002:00005a74       ??_C@_1M@MDGOPGDD@?$AAe?$AAs?$AA?9?$AAp?$AAa@ 10025a74     libucrt:lcidtoname_downlevel.obj
 0002:00005a80       ??_C@_1M@EMAMGBGE@?$AAe?$AAs?$AA?9?$AAp?$AAe@ 10025a80     libucrt:lcidtoname_downlevel.obj
 0002:00005a8c       ??_C@_1M@IBMCAOEC@?$AAe?$AAs?$AA?9?$AAp?$AAr@ 10025a8c     libucrt:lcidtoname_downlevel.obj
 0002:00005a98       ??_C@_1M@FGMDIJED@?$AAe?$AAs?$AA?9?$AAp?$AAy@ 10025a98     libucrt:lcidtoname_downlevel.obj
 0002:00005aa4       ??_C@_1M@IIDEOLLL@?$AAe?$AAs?$AA?9?$AAs?$AAv@ 10025aa4     libucrt:lcidtoname_downlevel.obj
 0002:00005ab0       ??_C@_1M@GAOBIPA@?$AAe?$AAs?$AA?9?$AAu?$AAy@ 10025ab0     libucrt:lcidtoname_downlevel.obj
 0002:00005abc       ??_C@_1M@JKFFICHJ@?$AAe?$AAs?$AA?9?$AAv?$AAe@ 10025abc     libucrt:lcidtoname_downlevel.obj
 0002:00005ac8       ??_C@_1M@PNMLOJDF@?$AAe?$AAt?$AA?9?$AAe?$AAe@ 10025ac8     libucrt:lcidtoname_downlevel.obj
 0002:00005ad4       ??_C@_1M@GHHLIKEI@?$AAe?$AAu?$AA?9?$AAe?$AAs@ 10025ad4     libucrt:lcidtoname_downlevel.obj
 0002:00005ae0       ??_C@_1M@PBNONODE@?$AAf?$AAa?$AA?9?$AAi?$AAr@ 10025ae0     libucrt:lcidtoname_downlevel.obj
 0002:00005aec       ??_C@_1M@JEEHPMIL@?$AAf?$AAi?$AA?9?$AAf?$AAi@ 10025aec     libucrt:lcidtoname_downlevel.obj
 0002:00005af8       ??_C@_1M@LMDCNDBA@?$AAf?$AAo?$AA?9?$AAf?$AAo@ 10025af8     libucrt:lcidtoname_downlevel.obj
 0002:00005b04       ??_C@_1M@JKEOHLDK@?$AAf?$AAr?$AA?9?$AAb?$AAe@ 10025b04     libucrt:lcidtoname_downlevel.obj
 0002:00005b10       ??_C@_1M@NOHADPMI@?$AAf?$AAr?$AA?9?$AAc?$AAa@ 10025b10     libucrt:lcidtoname_downlevel.obj
 0002:00005b1c       ??_C@_1M@KDHIHAEC@?$AAf?$AAr?$AA?9?$AAc?$AAh@ 10025b1c     libucrt:lcidtoname_downlevel.obj
 0002:00005b28       ??_C@_1M@MMBBFGAK@?$AAf?$AAr?$AA?9?$AAf?$AAr@ 10025b28     libucrt:lcidtoname_downlevel.obj
 0002:00005b34       ??_C@_1M@PAFNENNF@?$AAf?$AAr?$AA?9?$AAl?$AAu@ 10025b34     libucrt:lcidtoname_downlevel.obj
 0002:00005b40       ??_C@_1M@EOHDJGDD@?$AAf?$AAr?$AA?9?$AAm?$AAc@ 10025b40     libucrt:lcidtoname_downlevel.obj
 0002:00005b4c       ??_C@_1M@FAPLLOPF@?$AAg?$AAl?$AA?9?$AAe?$AAs@ 10025b4c     libucrt:lcidtoname_downlevel.obj
 0002:00005b58       ??_C@_1M@FOPBFLOO@?$AAg?$AAu?$AA?9?$AAi?$AAn@ 10025b58     libucrt:lcidtoname_downlevel.obj
 0002:00005b64       ??_C@_1M@KBMCINPM@?$AAh?$AAe?$AA?9?$AAi?$AAl@ 10025b64     libucrt:lcidtoname_downlevel.obj
 0002:00005b70       ??_C@_1M@BBPHKFPJ@?$AAh?$AAi?$AA?9?$AAi?$AAn@ 10025b70     libucrt:lcidtoname_downlevel.obj
 0002:00005b7c       ??_C@_1M@PMBNDPHD@?$AAh?$AAr?$AA?9?$AAb?$AAa@ 10025b7c     libucrt:lcidtoname_downlevel.obj
 0002:00005b88       ??_C@_1M@BPCKOEGE@?$AAh?$AAr?$AA?9?$AAh?$AAr@ 10025b88     libucrt:lcidtoname_downlevel.obj
 0002:00005b94       ??_C@_1M@GACBMHKE@?$AAh?$AAu?$AA?9?$AAh?$AAu@ 10025b94     libucrt:lcidtoname_downlevel.obj
 0002:00005ba0       ??_C@_1M@MILPAJJC@?$AAh?$AAy?$AA?9?$AAa?$AAm@ 10025ba0     libucrt:lcidtoname_downlevel.obj
 0002:00005bac       ??_C@_1M@BABBICEC@?$AAi?$AAd?$AA?9?$AAi?$AAd@ 10025bac     libucrt:lcidtoname_downlevel.obj
 0002:00005bb8       ??_C@_1M@BIKNHHPF@?$AAi?$AAs?$AA?9?$AAi?$AAs@ 10025bb8     libucrt:lcidtoname_downlevel.obj
 0002:00005bc4       ??_C@_1M@NMPCJPHE@?$AAi?$AAt?$AA?9?$AAc?$AAh@ 10025bc4     libucrt:lcidtoname_downlevel.obj
 0002:00005bd0       ??_C@_1M@GHKGFEDF@?$AAi?$AAt?$AA?9?$AAi?$AAt@ 10025bd0     libucrt:lcidtoname_downlevel.obj
 0002:00005bdc       ??_C@_1M@NIEJCJJA@?$AAj?$AAa?$AA?9?$AAj?$AAp@ 10025bdc     libucrt:lcidtoname_downlevel.obj
 0002:00005be8       ??_C@_1M@JILFNBIM@?$AAk?$AAa?$AA?9?$AAg?$AAe@ 10025be8     libucrt:lcidtoname_downlevel.obj
 0002:00005bf4       ??_C@_1M@PACPMGPH@?$AAk?$AAk?$AA?9?$AAk?$AAz@ 10025bf4     libucrt:lcidtoname_downlevel.obj
 0002:00005c00       ??_C@_1M@IELFGMHA@?$AAk?$AAn?$AA?9?$AAi?$AAn@ 10025c00     libucrt:lcidtoname_downlevel.obj
 0002:00005c0c       ??_C@_1O@IBBJHCH@?$AAk?$AAo?$AAk?$AA?9?$AAi?$AAn@ 10025c0c     libucrt:lcidtoname_downlevel.obj
 0002:00005c1c       ??_C@_1M@DMHAEOGC@?$AAk?$AAo?$AA?9?$AAk?$AAr@ 10025c1c     libucrt:lcidtoname_downlevel.obj
 0002:00005c28       ??_C@_1M@HBAHBIGA@?$AAk?$AAy?$AA?9?$AAk?$AAg@ 10025c28     libucrt:lcidtoname_downlevel.obj
 0002:00005c34       ??_C@_1M@KPMILCJG@?$AAl?$AAt?$AA?9?$AAl?$AAt@ 10025c34     libucrt:lcidtoname_downlevel.obj
 0002:00005c40       ??_C@_1M@BDEKKCA@?$AAl?$AAv?$AA?9?$AAl?$AAv@ 10025c40     libucrt:lcidtoname_downlevel.obj
 0002:00005c4c       ??_C@_1M@ELCKCCJJ@?$AAm?$AAi?$AA?9?$AAn?$AAz@ 10025c4c     libucrt:lcidtoname_downlevel.obj
 0002:00005c58       ??_C@_1M@CBOOLAPA@?$AAm?$AAk?$AA?9?$AAm?$AAk@ 10025c58     libucrt:lcidtoname_downlevel.obj
 0002:00005c64       ??_C@_1M@GPHNBJKN@?$AAm?$AAl?$AA?9?$AAi?$AAn@ 10025c64     libucrt:lcidtoname_downlevel.obj
 0002:00005c70       ??_C@_1M@PABJILIG@?$AAm?$AAn?$AA?9?$AAm?$AAn@ 10025c70     libucrt:lcidtoname_downlevel.obj
 0002:00005c7c       ??_C@_1M@FGBKKIPG@?$AAm?$AAr?$AA?9?$AAi?$AAn@ 10025c7c     libucrt:lcidtoname_downlevel.obj
 0002:00005c88       ??_C@_1M@NDBPDDAL@?$AAm?$AAs?$AA?9?$AAb?$AAn@ 10025c88     libucrt:lcidtoname_downlevel.obj
 0002:00005c94       ??_C@_1M@OPIHOOPI@?$AAm?$AAs?$AA?9?$AAm?$AAy@ 10025c94     libucrt:lcidtoname_downlevel.obj
 0002:00005ca0       ??_C@_1M@PPDBCNFM@?$AAm?$AAt?$AA?9?$AAm?$AAt@ 10025ca0     libucrt:lcidtoname_downlevel.obj
 0002:00005cac       ??_C@_1M@KDJDKMDD@?$AAn?$AAb?$AA?9?$AAn?$AAo@ 10025cac     libucrt:lcidtoname_downlevel.obj
 0002:00005cb8       ??_C@_1M@KFCFLMJP@?$AAn?$AAl?$AA?9?$AAb?$AAe@ 10025cb8     libucrt:lcidtoname_downlevel.obj
 0002:00005cc4       ??_C@_1M@KPOPDDGO@?$AAn?$AAl?$AA?9?$AAn?$AAl@ 10025cc4     libucrt:lcidtoname_downlevel.obj
 0002:00005cd0       ??_C@_1M@LJKPEMLN@?$AAn?$AAn?$AA?9?$AAn?$AAo@ 10025cd0     libucrt:lcidtoname_downlevel.obj
 0002:00005cdc       ??_C@_1M@BDGHHBFL@?$AAn?$AAs?$AA?9?$AAz?$AAa@ 10025cdc     libucrt:lcidtoname_downlevel.obj
 0002:00005ce8       ??_C@_1M@IDEHOAP@?$AAp?$AAa?$AA?9?$AAi?$AAn@ 10025ce8     libucrt:lcidtoname_downlevel.obj
 0002:00005cf4       ??_C@_1M@HDBKGOGH@?$AAp?$AAl?$AA?9?$AAp?$AAl@ 10025cf4     libucrt:lcidtoname_downlevel.obj
 0002:00005d00       ??_C@_1M@LJLLCMEH@?$AAp?$AAt?$AA?9?$AAb?$AAr@ 10025d00     libucrt:lcidtoname_downlevel.obj
 0002:00005d0c       ??_C@_1M@NCMONAAL@?$AAp?$AAt?$AA?9?$AAp?$AAt@ 10025d0c     libucrt:lcidtoname_downlevel.obj
 0002:00005d18       ??_C@_1O@EAKMAJDN@?$AAq?$AAu?$AAz?$AA?9?$AAb?$AAo@ 10025d18     libucrt:lcidtoname_downlevel.obj
 0002:00005d28       ??_C@_1O@BHHPIGDN@?$AAq?$AAu?$AAz?$AA?9?$AAe?$AAc@ 10025d28     libucrt:lcidtoname_downlevel.obj
 0002:00005d38       ??_C@_1O@GBAPEKMJ@?$AAq?$AAu?$AAz?$AA?9?$AAp?$AAe@ 10025d38     libucrt:lcidtoname_downlevel.obj
 0002:00005d48       ??_C@_1M@CLGLEFBO@?$AAr?$AAo?$AA?9?$AAr?$AAo@ 10025d48     libucrt:lcidtoname_downlevel.obj
 0002:00005d54       ??_C@_1M@CEEDODME@?$AAr?$AAu?$AA?9?$AAr?$AAu@ 10025d54     libucrt:lcidtoname_downlevel.obj
 0002:00005d60       ??_C@_1M@HPKKKMPP@?$AAs?$AAa?$AA?9?$AAi?$AAn@ 10025d60     libucrt:lcidtoname_downlevel.obj
 0002:00005d6c       ??_C@_1M@BKMAIGOJ@?$AAs?$AAe?$AA?9?$AAf?$AAi@ 10025d6c     libucrt:lcidtoname_downlevel.obj
 0002:00005d78       ??_C@_1M@NDPIFLFI@?$AAs?$AAe?$AA?9?$AAn?$AAo@ 10025d78     libucrt:lcidtoname_downlevel.obj
 0002:00005d84       ??_C@_1M@DANKKHJ@?$AAs?$AAe?$AA?9?$AAs?$AAe@ 10025d84     libucrt:lcidtoname_downlevel.obj
 0002:00005d90       ??_C@_1M@PNBLONPJ@?$AAs?$AAk?$AA?9?$AAs?$AAk@ 10025d90     libucrt:lcidtoname_downlevel.obj
 0002:00005d9c       ??_C@_1M@LFMODOAL@?$AAs?$AAl?$AA?9?$AAs?$AAi@ 10025d9c     libucrt:lcidtoname_downlevel.obj
 0002:00005da8       ??_C@_1O@DFKOMPG@?$AAs?$AAm?$AAa?$AA?9?$AAn?$AAo@ 10025da8     libucrt:lcidtoname_downlevel.obj
 0002:00005db8       ??_C@_1O@NDKPBNNH@?$AAs?$AAm?$AAa?$AA?9?$AAs?$AAe@ 10025db8     libucrt:lcidtoname_downlevel.obj
 0002:00005dc8       ??_C@_1O@PLLKBHAB@?$AAs?$AAm?$AAj?$AA?9?$AAn?$AAo@ 10025dc8     libucrt:lcidtoname_downlevel.obj
 0002:00005dd8       ??_C@_1O@CLEPOGCA@?$AAs?$AAm?$AAj?$AA?9?$AAs?$AAe@ 10025dd8     libucrt:lcidtoname_downlevel.obj
 0002:00005de8       ??_C@_1O@DLGJGKMK@?$AAs?$AAm?$AAn?$AA?9?$AAf?$AAi@ 10025de8     libucrt:lcidtoname_downlevel.obj
 0002:00005df8       ??_C@_1O@OJDJGAJC@?$AAs?$AAm?$AAs?$AA?9?$AAf?$AAi@ 10025df8     libucrt:lcidtoname_downlevel.obj
 0002:00005e08       ??_C@_1M@BOFOGHPB@?$AAs?$AAq?$AA?9?$AAa?$AAl@ 10025e08     libucrt:lcidtoname_downlevel.obj
 0002:00005e14       ??_C@_1BG@LJBBIPGB@?$AAs?$AAr?$AA?9?$AAb?$AAa?$AA?9?$AAc?$AAy?$AAr?$AAl@ 10025e14     libucrt:lcidtoname_downlevel.obj
 0002:00005e2c       ??_C@_1BG@JLBENFOE@?$AAs?$AAr?$AA?9?$AAb?$AAa?$AA?9?$AAl?$AAa?$AAt?$AAn@ 10025e2c     libucrt:lcidtoname_downlevel.obj
 0002:00005e44       ??_C@_1BG@KODPNHE@?$AAs?$AAr?$AA?9?$AAs?$AAp?$AA?9?$AAc?$AAy?$AAr?$AAl@ 10025e44     libucrt:lcidtoname_downlevel.obj
 0002:00005e5c       ??_C@_1BG@CIOGKHPB@?$AAs?$AAr?$AA?9?$AAs?$AAp?$AA?9?$AAl?$AAa?$AAt?$AAn@ 10025e5c     libucrt:lcidtoname_downlevel.obj
 0002:00005e74       ??_C@_1M@NGFJLMAC@?$AAs?$AAv?$AA?9?$AAf?$AAi@ 10025e74     libucrt:lcidtoname_downlevel.obj
 0002:00005e80       ??_C@_1M@MPJEJAJC@?$AAs?$AAv?$AA?9?$AAs?$AAe@ 10025e80     libucrt:lcidtoname_downlevel.obj
 0002:00005e8c       ??_C@_1M@MPNDHLFK@?$AAs?$AAw?$AA?9?$AAk?$AAe@ 10025e8c     libucrt:lcidtoname_downlevel.obj
 0002:00005e98       ??_C@_1O@KOHBJJI@?$AAs?$AAy?$AAr?$AA?9?$AAs?$AAy@ 10025e98     libucrt:lcidtoname_downlevel.obj
 0002:00005ea8       ??_C@_1M@LDCEFHA@?$AAt?$AAa?$AA?9?$AAi?$AAn@ 10025ea8     libucrt:lcidtoname_downlevel.obj
 0002:00005eb4       ??_C@_1M@CNJOFAK@?$AAt?$AAe?$AA?9?$AAi?$AAn@ 10025eb4     libucrt:lcidtoname_downlevel.obj
 0002:00005ec0       ??_C@_1M@GNAECACD@?$AAt?$AAh?$AA?9?$AAt?$AAh@ 10025ec0     libucrt:lcidtoname_downlevel.obj
 0002:00005ecc       ??_C@_1M@CHBIHOJO@?$AAt?$AAn?$AA?9?$AAz?$AAa@ 10025ecc     libucrt:lcidtoname_downlevel.obj
 0002:00005ed8       ??_C@_1M@GCCMIGPJ@?$AAt?$AAr?$AA?9?$AAt?$AAr@ 10025ed8     libucrt:lcidtoname_downlevel.obj
 0002:00005ee4       ??_C@_1M@CELMCNBK@?$AAt?$AAt?$AA?9?$AAr?$AAu@ 10025ee4     libucrt:lcidtoname_downlevel.obj
 0002:00005ef0       ??_C@_1M@KLMCELGA@?$AAu?$AAk?$AA?9?$AAu?$AAa@ 10025ef0     libucrt:lcidtoname_downlevel.obj
 0002:00005efc       ??_C@_1M@EPAJJAJF@?$AAu?$AAr?$AA?9?$AAp?$AAk@ 10025efc     libucrt:lcidtoname_downlevel.obj
 0002:00005f08       ??_C@_1BG@GEGPMCDJ@?$AAu?$AAz?$AA?9?$AAu?$AAz?$AA?9?$AAc?$AAy?$AAr?$AAl@ 10025f08     libucrt:lcidtoname_downlevel.obj
 0002:00005f20       ??_C@_1BG@EGGKJILM@?$AAu?$AAz?$AA?9?$AAu?$AAz?$AA?9?$AAl?$AAa?$AAt?$AAn@ 10025f20     libucrt:lcidtoname_downlevel.obj
 0002:00005f38       ??_C@_1M@GFOCLFF@?$AAv?$AAi?$AA?9?$AAv?$AAn@ 10025f38     libucrt:lcidtoname_downlevel.obj
 0002:00005f44       ??_C@_1M@CPAMEDFI@?$AAx?$AAh?$AA?9?$AAz?$AAa@ 10025f44     libucrt:lcidtoname_downlevel.obj
 0002:00005f50       ??_C@_1O@EBKIFIGN@?$AAz?$AAh?$AA?9?$AAc?$AAh?$AAs@ 10025f50     libucrt:lcidtoname_downlevel.obj
 0002:00005f60       ??_C@_1O@NMHPGANE@?$AAz?$AAh?$AA?9?$AAc?$AAh?$AAt@ 10025f60     libucrt:lcidtoname_downlevel.obj
 0002:00005f70       ??_C@_1M@LPINJOMC@?$AAz?$AAh?$AA?9?$AAc?$AAn@ 10025f70     libucrt:lcidtoname_downlevel.obj
 0002:00005f7c       ??_C@_1M@OCJEJODD@?$AAz?$AAh?$AA?9?$AAh?$AAk@ 10025f7c     libucrt:lcidtoname_downlevel.obj
 0002:00005f88       ??_C@_1M@DNDLJINH@?$AAz?$AAh?$AA?9?$AAm?$AAo@ 10025f88     libucrt:lcidtoname_downlevel.obj
 0002:00005f94       ??_C@_1M@MBFDNDND@?$AAz?$AAh?$AA?9?$AAs?$AAg@ 10025f94     libucrt:lcidtoname_downlevel.obj
 0002:00005fa0       ??_C@_1M@IMEPLEPE@?$AAz?$AAh?$AA?9?$AAt?$AAw@ 10025fa0     libucrt:lcidtoname_downlevel.obj
 0002:00005fac       ??_C@_1M@BBGHNHJP@?$AAz?$AAu?$AA?9?$AAz?$AAa@ 10025fac     libucrt:lcidtoname_downlevel.obj
 0002:00005fb8       ?large_power_data@?1??multiply_by_power_of_ten@__crt_strtox@@YA_NAAUbig_integer@2@I@Z@4QBIB 10025fb8     libucrt:cfout.obj
 0002:000068c0       ?large_power_indices@?1??multiply_by_power_of_ten@__crt_strtox@@YA_NAAUbig_integer@2@I@Z@4QBUunpack_index@?1??12@YA_N0I@Z@B 100268c0     libucrt:cfout.obj
 0002:00006958       ?small_powers_of_ten@?1??multiply_by_power_of_ten@__crt_strtox@@YA_NAAUbig_integer@2@I@Z@4QBIB 10026958     libucrt:cfout.obj
 0002:0000697c       ??_C@_01GBGANLPD@0@        1002697c     libucrt:cfout.obj
 0002:00006980       ??_C@_05DNEBIAHO@1?$CDINF@ 10026980     libucrt:cfout.obj
 0002:00006988       ??_C@_06IMKFLFPG@1?$CDQNAN@ 10026988     libucrt:cfout.obj
 0002:00006990       ??_C@_06PGGFOGJG@1?$CDSNAN@ 10026990     libucrt:cfout.obj
 0002:00006998       ??_C@_05PHHOCPM@1?$CDIND@  10026998     libucrt:cfout.obj
 0002:00006b00       __infinity                 10026b00     libucrt:87tran.obj
 0002:00006b0a       __minfinity                10026b0a     libucrt:87tran.obj
 0002:00006b14       __logemax                  10026b14     libucrt:87tran.obj
 0002:00006b3a       __OP_EXPjmptab             10026b3a     libucrt:87tran.obj
 0002:00006b60       __indefinite               10026b60     libucrt:87disp.obj
 0002:00006b6a       __piby2                    10026b6a     libucrt:87disp.obj
 0002:00006b74       __piby4                    10026b74     libucrt:87disp.obj
 0002:00006ba8       __DEFAULT_CW_in_mem        10026ba8     libucrt:common.obj
 0002:00006baa       __pi_by_2_to_61            10026baa     libucrt:common.obj
 0002:00006be4       ??_C@_03MGHMBJCF@log@      10026be4     libucrt:libm_error.obj
 0002:00006be8       ??_C@_05HGHHAHAP@log10@    10026be8     libucrt:libm_error.obj
 0002:00006bf0       ??_C@_03KHJOGHMM@exp@      10026bf0     libucrt:libm_error.obj
 0002:00006bf4       ??_C@_03JGHBODFD@pow@      10026bf4     libucrt:libm_error.obj
 0002:00006bf8       ??_C@_04FIHNOPOL@asin@     10026bf8     libucrt:libm_error.obj
 0002:00006c00       ??_C@_04PDIFKINK@acos@     10026c00     libucrt:libm_error.obj
 0002:00006c08       ??_C@_04EIAKFFMI@sqrt@     10026c08     libucrt:libm_error.obj
 0002:00006c10       __real@3ff0000000000000    10026c10     libucrt:libm_error.obj
 0002:00006c18       ??_C@_1BA@BALFACEM@?$AAC?$AAO?$AAN?$AAO?$AAU?$AAT?$AA$@ 10026c18     libucrt:initcon.obj
 0002:00006c40       ___acrt_log10_table_t      10026c40     libucrt:log10_tables.obj
 0002:00007050       ___acrt_log10_table_cb     10027050     libucrt:log10_tables.obj
 0002:00007460       __real@3fe0000000000000    10027460     libucrt:powhlp.obj
 0002:00007550       ??_C@_04COOMCNPB@sinh@     10027550     libucrt:fpexcept.obj
 0002:00007558       ??_C@_04HPJJNFIM@cosh@     10027558     libucrt:fpexcept.obj
 0002:00007560       ??_C@_04FJHINJAO@tanh@     10027560     libucrt:fpexcept.obj
 0002:00007568       ??_C@_04MLLJIGOK@atan@     10027568     libucrt:fpexcept.obj
 0002:00007570       ??_C@_05KNGEOGJB@atan2@    10027570     libucrt:fpexcept.obj
 0002:00007578       ??_C@_03BLEJJJBH@sin@      10027578     libucrt:fpexcept.obj
 0002:0000757c       ??_C@_03LALBNOCG@cos@      1002757c     libucrt:fpexcept.obj
 0002:00007580       ??_C@_03IIINPABG@tan@      10027580     libucrt:fpexcept.obj
 0002:00007584       ??_C@_04GFPJNGEK@ceil@     10027584     libucrt:fpexcept.obj
 0002:0000758c       ??_C@_05PBJFFIGL@floor@    1002758c     libucrt:fpexcept.obj
 0002:00007594       ??_C@_04ODHECPBC@fabs@     10027594     libucrt:fpexcept.obj
 0002:0000759c       ??_C@_04EHEDPDJG@modf@     1002759c     libucrt:fpexcept.obj
 0002:000075a4       ??_C@_05CEJMAHNP@ldexp@    100275a4     libucrt:fpexcept.obj
 0002:000075ac       ??_C@_05KBKMEMPO@_cabs@    100275ac     libucrt:fpexcept.obj
 0002:000075b4       ??_C@_06MEIMCGCF@_hypot@   100275b4     libucrt:fpexcept.obj
 0002:000075bc       ??_C@_04KEPJIHGP@fmod@     100275bc     libucrt:fpexcept.obj
 0002:000075c4       ??_C@_05GKKHEGJL@frexp@    100275c4     libucrt:fpexcept.obj
 0002:000075cc       ??_C@_03MJLDFKDL@_y0@      100275cc     libucrt:fpexcept.obj
 0002:000075d0       ??_C@_03NAKIGLHK@_y1@      100275d0     libucrt:fpexcept.obj
 0002:000075d4       ??_C@_03ONILCKOB@_yn@      100275d4     libucrt:fpexcept.obj
 0002:000075d8       ??_C@_05JGDBENOH@_logb@    100275d8     libucrt:fpexcept.obj
 0002:000075e0       ??_C@_0L@KDOEJCKC@_nextafter@ 100275e0     libucrt:fpexcept.obj
 0002:000075f0       __d_inf                    100275f0     libucrt:util.obj
 0002:000075f8       __d_max                    100275f8     libucrt:util.obj
 0002:00007600       __d_mzero                  10027600     libucrt:util.obj
 0002:00007670       __load_config_used         10027670     LIBCMT:loadcfg.obj
 0002:00007728       __tls_used                 10027728     LIBCMT:tlssup.obj
 0002:00007740       ??_R4exception@std@@6B@    10027740     LIBCMT:throw_bad_alloc.obj
 0002:00007754       ??_R3exception@std@@8      10027754     LIBCMT:throw_bad_alloc.obj
 0002:00007764       ??_R2exception@std@@8      10027764     LIBCMT:throw_bad_alloc.obj
 0002:0000776c       ??_R1A@?0A@EA@exception@std@@8 1002776c     LIBCMT:throw_bad_alloc.obj
 0002:00007788       ??_R4bad_alloc@std@@6B@    10027788     LIBCMT:throw_bad_alloc.obj
 0002:0000779c       ??_R3bad_alloc@std@@8      1002779c     LIBCMT:throw_bad_alloc.obj
 0002:000077ac       ??_R2bad_alloc@std@@8      100277ac     LIBCMT:throw_bad_alloc.obj
 0002:000077b8       ??_R1A@?0A@EA@bad_alloc@std@@8 100277b8     LIBCMT:throw_bad_alloc.obj
 0002:000077d4       ??_R4bad_array_new_length@std@@6B@ 100277d4     LIBCMT:throw_bad_alloc.obj
 0002:000077e8       ??_R3bad_array_new_length@std@@8 100277e8     LIBCMT:throw_bad_alloc.obj
 0002:000077f8       ??_R2bad_array_new_length@std@@8 100277f8     LIBCMT:throw_bad_alloc.obj
 0002:00007808       ??_R1A@?0A@EA@bad_array_new_length@std@@8 10027808     LIBCMT:throw_bad_alloc.obj
 0002:00007824       ??_R4type_info@@6B@        10027824     LIBCMT:std_type_info_static.obj
 0002:00007838       ??_R3type_info@@8          10027838     LIBCMT:std_type_info_static.obj
 0002:00007848       ??_R2type_info@@8          10027848     LIBCMT:std_type_info_static.obj
 0002:00007850       ??_R1A@?0A@EA@type_info@@8 10027850     LIBCMT:std_type_info_static.obj
 0002:0000786c       ??_R4bad_exception@std@@6B@ 1002786c     libvcruntime:frame.obj
 0002:00007880       ??_R3bad_exception@std@@8  10027880     libvcruntime:frame.obj
 0002:00007890       ??_R2bad_exception@std@@8  10027890     libvcruntime:frame.obj
 0002:0000789c       ??_R1A@?0A@EA@bad_exception@std@@8 1002789c     libvcruntime:frame.obj
 0002:000078b8       ___safe_se_handler_table   100278b8     <linker-defined>
 0002:00007cb4       ___rtc_iaa                 10027cb4     LIBCMT:initsect.obj
 0002:00007cb8       ___rtc_izz                 10027cb8     LIBCMT:initsect.obj
 0002:00007cbc       ___rtc_taa                 10027cbc     LIBCMT:initsect.obj
 0002:00007cc0       ___rtc_tzz                 10027cc0     LIBCMT:initsect.obj
 0002:00007cc4       __tls_start                10027cc4     LIBCMT:tlssup.obj
 0002:00007cc8       __Init_thread_epoch        10027cc8     LIBCMT:thread_safe_statics.obj
 0002:00007ccc       __tls_end                  10027ccc     LIBCMT:tlssup.obj
 0002:00007dcc       __TI2?AVbad_alloc@std@@    10027dcc     LIBCMT:throw_bad_alloc.obj
 0002:00007ddc       __CTA2?AVbad_alloc@std@@   10027ddc     LIBCMT:throw_bad_alloc.obj
 0002:00007de8       __CT??_R0?AVbad_alloc@std@@@8??0bad_alloc@std@@QAE@ABV01@@Z12 10027de8     LIBCMT:throw_bad_alloc.obj
 0002:00007e04       __CT??_R0?AVexception@std@@@8??0exception@std@@QAE@ABV01@@Z12 10027e04     LIBCMT:throw_bad_alloc.obj
 0002:00007e20       __TI3?AVbad_array_new_length@std@@ 10027e20     LIBCMT:throw_bad_alloc.obj
 0002:00007e30       __CTA3?AVbad_array_new_length@std@@ 10027e30     LIBCMT:throw_bad_alloc.obj
 0002:00007e40       __CT??_R0?AVbad_array_new_length@std@@@8??0bad_array_new_length@std@@QAE@ABV01@@Z12 10027e40     LIBCMT:throw_bad_alloc.obj
 0002:00007f64       __TI2?AVbad_exception@std@@ 10027f64     libvcruntime:frame.obj
 0002:00007f74       __CTA2?AVbad_exception@std@@ 10027f74     libvcruntime:frame.obj
 0002:00007f80       __CT??_R0?AVbad_exception@std@@@8??0bad_exception@std@@QAE@ABV01@@Z12 10027f80     libvcruntime:frame.obj
 0002:000082fc       ___pobjMapEntryFirst       100282fc     OposVariant.obj
 0002:00008300       ___pobjMapEntryLast        10028300     OposVariant.obj
 0002:000083bc       __IMPORT_DESCRIPTOR_KERNEL32 100283bc     kernel32:KERNEL32.dll
 0002:000083d0       __IMPORT_DESCRIPTOR_USER32 100283d0     user32:USER32.dll
 0002:000083e4       __IMPORT_DESCRIPTOR_GDI32  100283e4     gdi32:GDI32.dll
 0002:000083f8       __IMPORT_DESCRIPTOR_ADVAPI32 100283f8     advapi32:ADVAPI32.dll
 0002:0000840c       __IMPORT_DESCRIPTOR_ole32  1002840c     ole32:ole32.dll
 0002:00008420       __IMPORT_DESCRIPTOR_OLEAUT32 10028420     oleaut32:OLEAUT32.dll
 0002:00008434       __NULL_IMPORT_DESCRIPTOR   10028434     kernel32:KERNEL32.dll
 0003:00000000       ?s_Claim@?7??GetIDsOfNames@CComTypeInfoHolder@ATL@@QAEJABU_GUID@@PAPA_WIKPAJ@Z@4PA_WA 1002a000     CashChanger.obj
 0003:00000018       ?s_Release@?7??GetIDsOfNames@CComTypeInfoHolder@ATL@@QAEJABU_GUID@@PAPA_WIKPAJ@Z@4PA_WA 1002a018     CashChanger.obj
 0003:00000034       ?_tih@?$IDispatchImpl@UIOPOSCashChanger@@$1?IID_IOPOSCashChanger@@3U_GUID@@B$1?LIBID_OposCashChanger_CCO@@3U3@B$00$0A@VCComTypeInfoHolder@ATL@@@ATL@@1VCComTypeInfoHolder@2@A 1002a034     CashChanger.obj
 0003:00000050       ?_tih@?$IProvideClassInfo2Impl@$1?CLSID_OPOSCashChanger@@3U_GUID@@B$1?DIID__IOPOSCashChangerEvents@@3U2@B$1?LIBID_OposCashChanger_CCO@@3U2@B$00$0A@VCComTypeInfoHolder@ATL@@@ATL@@1VCComTypeInfoHolder@2@A 1002a050     CashChanger.obj
 0003:0000006c       ?vszContents@?6??Save@?$IPersistStorageImpl@VCOPOSCashChanger@@@ATL@@UAGJPAUIStorage@@H@Z@4PB_WB 1002a06c     CashChanger.obj
 0003:00000070       ?wc@?1??GetWndClassInfo@?$CWindowImpl@VCOPOSCashChanger@@VCWindow@ATL@@V?$CWinTraits@$0FGAAAAAA@$0A@@3@@ATL@@SAAAU_ATL_WNDCLASSINFOW@3@XZ@4U43@A 1002a070     CashChanger.obj
 0003:000000fc       ?rcDefault@CWindow@ATL@@2UtagRECT@@A 1002a0fc     CashChanger.obj
 0003:00000158       ?g_WindowName@@3PA_WA      1002a158     CashChangerImpl.obj
 0003:00000180       ?g_ControlDescription@@3PADA 1002a180     CashChangerImpl.obj
 0003:000001cc       ?g_ControlVersion@@3JA     1002a1cc     CashChangerImpl.obj
 0003:00000260       ___scrt_native_dllmain_reason 1002a260     LIBCMT:utility.obj
 0003:00000264       __Init_global_epoch        1002a264     LIBCMT:thread_safe_statics.obj
 0003:00000270       ___security_cookie_complement 1002a270     LIBCMT:gs_cookie.obj
 0003:00000274       ___security_cookie         1002a274     LIBCMT:gs_cookie.obj
 0003:00000278       ___isa_enabled             1002a278     LIBCMT:cpu_disp.obj
 0003:00000290       __NLG_Destination          1002a290     libvcruntime:exsup.obj
 0003:000002a8       ___abort_behavior          1002a2a8     libucrt:abort.obj
 0003:000002b8       __iob                      1002a2b8     libucrt:_file.obj
 0003:00000360       ___acrt_initial_locale_data 1002a360     libucrt:nlsdata.obj
 0003:00000418       ___acrt_initial_locale_pointers 1002a418     libucrt:nlsdata.obj
 0003:00000420       ___acrt_wide_c_locale_string 1002a420     libucrt:nlsdata.obj
 0003:00000428       ___acrt_initial_multibyte_data 1002a428     libucrt:mbctype.obj
 0003:00000948       __pwctype                  1002a948     libucrt:ctype.obj
 0003:0000094c       ___globallocalestatus      1002a94c     libucrt:glstatus.obj
 0003:00000950       ___acrt_lconv_c            1002a950     libucrt:localeconv.obj
 0003:000009a0       ___acrt_lconv_static_decimal 1002a9a0     libucrt:localeconv.obj
 0003:000009a4       ___acrt_lconv_static_W_decimal 1002a9a4     libucrt:localeconv.obj
 0003:000009b0       __lookuptrailbytes         1002a9b0     libucrt:read.obj
 0003:00000ac0       __fltused                  1002aac0     LIBCMT:fltused.obj
 0003:00000ad0       ??_R0?AVbad_alloc@std@@@8  1002aad0     LIBCMT:throw_bad_alloc.obj
 0003:00000aec       ??_R0?AVexception@std@@@8  1002aaec     LIBCMT:throw_bad_alloc.obj
 0003:00000b08       ??_R0?AVbad_array_new_length@std@@@8 1002ab08     LIBCMT:throw_bad_alloc.obj
 0003:00000b30       ??_R0?AVtype_info@@@8      1002ab30     LIBCMT:std_type_info_static.obj
 0003:00000b48       ??_R0?AVbad_exception@std@@@8 1002ab48     libvcruntime:frame.obj
 0003:00000b68       ?m_bInitFailed@CAtlBaseModule@ATL@@2_NA 1002ab68     OposVariant.obj
 0003:00000b6c       ?_pPerfRegFunc@ATL@@3P6AJPAUHINSTANCE__@@@ZA 1002ab6c     OposVariant.obj
 0003:00000b70       ?_pPerfUnRegFunc@ATL@@3P6AJXZA 1002ab70     OposVariant.obj
 0003:00000b74       ?_AtlRegisterPerUser@ATL@@3_NA 1002ab74     OposVariant.obj
 0003:00000b78       ?_pAtlModule@ATL@@3PAVCAtlModule@1@A 1002ab78     OposVariant.obj
 0003:00000b7c       ?_pModule@ATL@@3PAVCComModule@1@A 1002ab7c     OposVariant.obj
 0003:00000b80       ?_AtlComModule@ATL@@3VCAtlComModule@1@A 1002ab80     OposVariant.obj
 0003:00000ba8       ?_AtlWinModule@ATL@@3VCAtlWinModule@1@A 1002aba8     OposVariant.obj
 0003:00000bd4       ?m_libid@CAtlModule@ATL@@2U_GUID@@A 1002abd4     CashChanger.obj
 0003:00000be4       ?_entries@?1??GetConnMap@COPOSCashChanger@@SAPBU_ATL_CONNMAP_ENTRY@ATL@@PAH@Z@4QBU34@B 1002abe4     CashChanger.obj
 0003:00000bf0       ?$TSS0@?1??GetConnMap@COPOSCashChanger@@SAPBU_ATL_CONNMAP_ENTRY@ATL@@PAH@Z@4HA 1002abf0     CashChanger.obj
 0003:00000bf8       ?_OptionsStorage@?1??__local_stdio_printf_options@@9@4_KA 1002abf8     CashChanger.obj
 0003:00000c00       ?pfnRegDeleteKeyEx@?1??DeleteSubKey@CRegKey@ATL@@QAEJPB_W@Z@4P6GJPAUHKEY__@@0KK@ZA 1002ac00     CashChanger.obj
 0003:00000c04       ?bInitialized@?1??DeleteSubKey@CRegKey@ATL@@QAEJPB_W@Z@4_NA 1002ac04     CashChanger.obj
 0003:00000c08       ?_Module@@3VCComModule@ATL@@A 1002ac08     CashChanger.obj
 0003:00000c38       ?pConnMap@?$IConnectionPointContainerImpl@VCOPOSCashChanger@@@ATL@@0PBU_ATL_CONNMAP_ENTRY@2@B 1002ac38     CashChanger.obj
 0003:00000c3c       ?s_nInstances@COPOSCashChanger@@1HA 1002ac3c     CashChangerImpl.obj
 0003:00000c40       ___scrt_current_native_startup_state 1002ac40     LIBCMT:utility.obj
 0003:00000c44       ___scrt_native_startup_lock 1002ac44     LIBCMT:utility.obj
 0003:00000fac       __tls_index                1002afac     LIBCMT:tlssup.obj
 0003:00000fb4       ___isa_available           1002afb4     LIBCMT:cpu_disp.obj
 0003:00000fb8       ___favor                   1002afb8     LIBCMT:cpu_disp.obj
 0003:00000fbc       ___scrt_debugger_hook_flag 1002afbc     LIBCMT:utility_desktop.obj
 0003:00000fc0       ?__type_info_root_node@@3U__type_info_node@@A 1002afc0     LIBCMT:tncleanup.obj
 0003:00000fc8       ?_OptionsStorage@?1??__local_stdio_scanf_options@@9@4_KA 1002afc8     LIBCMT:default_local_stdio_options.obj
 0003:00000fd0       ?_AtlBaseModule@ATL@@3VCAtlBaseModule@1@A 1002afd0     atls:atlbase.obj
 0003:00001008       ?__AtlThunkPool@@3PAT_SLIST_HEADER@@A 1002b008     atls:atlthunk.obj
 0003:00001020       ___@@_PchSym_@00@UztvmgUPdlipUEUhUrmgvinvwrzgvUexgllohUzgohOmzgrevkilqPBACIAJCBDBUlyqiUcIGUhgwzucOlyq@4B2008FD98C1DD4 1002b020     atls:stdafx.obj
 0003:00001024       ?__WinRTOutOfMemoryExceptionCallback@@3P6GPAXXZA 1002b024     libvcruntime:ehhelpers.obj
 0003:00001028       ___pPurecall               1002b028     libvcruntime:purevirt_data.obj
 0003:00001070       ?pArgList@UnDecorator@@0PAVReplicator@@A 1002b070     libvcruntime:undname.obj
 0003:00001074       ?pZNameList@UnDecorator@@0PAVReplicator@@A 1002b074     libvcruntime:undname.obj
 0003:00001078       ?pTemplateArgList@UnDecorator@@0PAVReplicator@@A 1002b078     libvcruntime:undname.obj
 0003:0000107c       ?gName@UnDecorator@@0PBDB  1002b07c     libvcruntime:undname.obj
 0003:00001080       ?name@UnDecorator@@0PBDB   1002b080     libvcruntime:undname.obj
 0003:00001084       ?disableFlags@UnDecorator@@0KA 1002b084     libvcruntime:undname.obj
 0003:00001088       ?fExplicitTemplateParams@UnDecorator@@0_NA 1002b088     libvcruntime:undname.obj
 0003:00001089       ?fGetTemplateArgumentList@UnDecorator@@0_NA 1002b089     libvcruntime:undname.obj
 0003:0000108c       ?m_pGetParameter@UnDecorator@@0P6APADJ@ZA 1002b08c     libvcruntime:undname.obj
 0003:00001090       ?m_CHPENameOffset@UnDecorator@@0KA 1002b090     libvcruntime:undname.obj
 0003:00001094       ?m_recursionLevel@UnDecorator@@0KA 1002b094     libvcruntime:undname.obj
 0003:000010d8       ?c_exit_complete@?1???R<lambda_6e4b09c48022b2350581041d5f6b0c4c>@@QBE@XZ@4_NA 1002b0d8     libucrt:exit.obj
 0003:000011e8       __environ_table            1002b1e8     libucrt:environment_initialization.obj
 0003:000011ec       __wenviron_table           1002b1ec     libucrt:environment_initialization.obj
 0003:000011f0       ___dcrt_initial_wide_environment 1002b1f0     libucrt:environment_initialization.obj
 0003:000011f4       ___dcrt_initial_narrow_environment 1002b1f4     libucrt:environment_initialization.obj
 0003:000011f8       ___acrt_atexit_table       1002b1f8     libucrt:onexit.obj
 0003:00001204       ___acrt_at_quick_exit_table 1002b204     libucrt:onexit.obj
 0003:000012f8       __nstream                  1002b2f8     libucrt:_file.obj
 0003:000012fc       ___piob                    1002b2fc     libucrt:_file.obj
 0003:00001304       ___acrt_stdout_buffer      1002b304     libucrt:_sftbuf.obj
 0003:00001308       ___acrt_stderr_buffer      1002b308     libucrt:_sftbuf.obj
 0003:0000130c       ___acrt_locale_changed_data 1002b30c     libucrt:wsetlocale.obj
 0003:00001310       ___acrt_current_locale_data 1002b310     libucrt:nlsdata.obj
 0003:00001318       ___pioinfo                 1002b318     libucrt:ioinit.obj
 0003:00001518       __nhandle                  1002b518     libucrt:ioinit.obj
 0003:00001674       __mbctype                  1002b674     libucrt:mbctype.obj
 0003:00001678       __mbcasemap                1002b678     libucrt:mbctype.obj
 0003:0000167c       ___acrt_current_multibyte_data 1002b67c     libucrt:mbctype.obj
 0003:00001688       __pgmptr                   1002b688     libucrt:argv_data.obj
 0003:0000168c       ___argc                    1002b68c     libucrt:argv_data.obj
 0003:00001690       ___argv                    1002b690     libucrt:argv_data.obj
 0003:00001694       ___wargv                   1002b694     libucrt:argv_data.obj
 0003:00001698       __acmdln                   1002b698     libucrt:argv_data.obj
 0003:0000169c       __wcmdln                   1002b69c     libucrt:argv_data.obj
 0003:000016a0       ___acrt_heap               1002b6a0     libucrt:heap_handle.obj
 0003:000016bc       ___acrt_lconv_static_null  1002b6bc     libucrt:localeconv.obj
 0003:000016c0       ___acrt_lconv_static_W_null 1002b6c0     libucrt:localeconv.obj
 0003:000016d0       ___fastflag                1002b6d0     libucrt:fp_flags.obj
 0003:000016d8       ___dyn_tls_init_callback   1002b6d8     <common>
 0003:000016dc       ___scrt_ucrt_dll_is_in_use 1002b6dc     <common>
 0003:000016e0       __pmatherr                 1002b6e0     <common>
 0003:000016e4       ___use_sse2_mathfcns       1002b6e4     <common>

 entry point at        0001:0000c0fd

 Static symbols

 0000:fffcc000       .debug$S                   10000000     OPOSCashChanger.exp
 0000:fffcc000       .debug$S                   10000000     advapi32:ADVAPI32.dll
 0000:fffcc000       .debug$S                   10000000     advapi32:ADVAPI32.dll
 0000:fffcc000       .debug$S                   10000000     advapi32:ADVAPI32.dll
 0000:fffcc000       .debug$S                   10000000     advapi32:ADVAPI32.dll
 0000:fffcc000       .debug$S                   10000000     advapi32:ADVAPI32.dll
 0000:fffcc000       .debug$S                   10000000     advapi32:ADVAPI32.dll
 0000:fffcc000       .debug$S                   10000000     advapi32:ADVAPI32.dll
 0000:fffcc000       .debug$S                   10000000     advapi32:ADVAPI32.dll
 0000:fffcc000       .debug$S                   10000000     advapi32:ADVAPI32.dll
 0000:fffcc000       .debug$S                   10000000     gdi32:GDI32.dll
 0000:fffcc000       .debug$S                   10000000     gdi32:GDI32.dll
 0000:fffcc000       .debug$S                   10000000     gdi32:GDI32.dll
 0000:fffcc000       .debug$S                   10000000     gdi32:GDI32.dll
 0000:fffcc000       .debug$S                   10000000     gdi32:GDI32.dll
 0000:fffcc000       .debug$S                   10000000     gdi32:GDI32.dll
 0000:fffcc000       .debug$S                   10000000     gdi32:GDI32.dll
 0000:fffcc000       .debug$S                   10000000     gdi32:GDI32.dll
 0000:fffcc000       .debug$S                   10000000     gdi32:GDI32.dll
 0000:fffcc000       .debug$S                   10000000     gdi32:GDI32.dll
 0000:fffcc000       .debug$S                   10000000     gdi32:GDI32.dll
 0000:fffcc000       .debug$S                   10000000     gdi32:GDI32.dll
 0000:fffcc000       .debug$S                   10000000     gdi32:GDI32.dll
 0000:fffcc000       .debug$S                   10000000     gdi32:GDI32.dll
 0000:fffcc000       .debug$S                   10000000     gdi32:GDI32.dll
 0000:fffcc000       .debug$S                   10000000     gdi32:GDI32.dll
 0000:fffcc000       .debug$S                   10000000     gdi32:GDI32.dll
 0000:fffcc000       .debug$S                   10000000     gdi32:GDI32.dll
 0000:fffcc000       .debug$S                   10000000     gdi32:GDI32.dll
 0000:fffcc000       .debug$S                   10000000     kernel32:KERNEL32.dll
 0000:fffcc000       .debug$S                   10000000     kernel32:KERNEL32.dll
 0000:fffcc000       .debug$S                   10000000     kernel32:KERNEL32.dll
 0000:fffcc000       .debug$S                   10000000     kernel32:KERNEL32.dll
 0000:fffcc000       .debug$S                   10000000     kernel32:KERNEL32.dll
 0000:fffcc000       .debug$S                   10000000     kernel32:KERNEL32.dll
 0000:fffcc000       .debug$S                   10000000     kernel32:KERNEL32.dll
 0000:fffcc000       .debug$S                   10000000     kernel32:KERNEL32.dll
 0000:fffcc000       .debug$S                   10000000     kernel32:KERNEL32.dll
 0000:fffcc000       .debug$S                   10000000     kernel32:KERNEL32.dll
 0000:fffcc000       .debug$S                   10000000     kernel32:KERNEL32.dll
 0000:fffcc000       .debug$S                   10000000     kernel32:KERNEL32.dll
 0000:fffcc000       .debug$S                   10000000     kernel32:KERNEL32.dll
 0000:fffcc000       .debug$S                   10000000     kernel32:KERNEL32.dll
 0000:fffcc000       .debug$S                   10000000     kernel32:KERNEL32.dll
 0000:fffcc000       .debug$S                   10000000     kernel32:KERNEL32.dll
 0000:fffcc000       .debug$S                   10000000     kernel32:KERNEL32.dll
 0000:fffcc000       .debug$S                   10000000     kernel32:KERNEL32.dll
 0000:fffcc000       .debug$S                   10000000     kernel32:KERNEL32.dll
 0000:fffcc000       .debug$S                   10000000     kernel32:KERNEL32.dll
 0000:fffcc000       .debug$S                   10000000     kernel32:KERNEL32.dll
 0000:fffcc000       .debug$S                   10000000     kernel32:KERNEL32.dll
 0000:fffcc000       .debug$S                   10000000     kernel32:KERNEL32.dll
 0000:fffcc000       .debug$S                   10000000     kernel32:KERNEL32.dll
 0000:fffcc000       .debug$S                   10000000     kernel32:KERNEL32.dll
 0000:fffcc000       .debug$S                   10000000     kernel32:KERNEL32.dll
 0000:fffcc000       .debug$S                   10000000     kernel32:KERNEL32.dll
 0000:fffcc000       .debug$S                   10000000     kernel32:KERNEL32.dll
 0000:fffcc000       .debug$S                   10000000     kernel32:KERNEL32.dll
 0000:fffcc000       .debug$S                   10000000     kernel32:KERNEL32.dll
 0000:fffcc000       .debug$S                   10000000     kernel32:KERNEL32.dll
 0000:fffcc000       .debug$S                   10000000     kernel32:KERNEL32.dll
 0000:fffcc000       .debug$S                   10000000     kernel32:KERNEL32.dll
 0000:fffcc000       .debug$S                   10000000     kernel32:KERNEL32.dll
 0000:fffcc000       .debug$S                   10000000     kernel32:KERNEL32.dll
 0000:fffcc000       .debug$S                   10000000     kernel32:KERNEL32.dll
 0000:fffcc000       .debug$S                   10000000     kernel32:KERNEL32.dll
 0000:fffcc000       .debug$S                   10000000     kernel32:KERNEL32.dll
 0000:fffcc000       .debug$S                   10000000     kernel32:KERNEL32.dll
 0000:fffcc000       .debug$S                   10000000     kernel32:KERNEL32.dll
 0000:fffcc000       .debug$S                   10000000     kernel32:KERNEL32.dll
 0000:fffcc000       .debug$S                   10000000     kernel32:KERNEL32.dll
 0000:fffcc000       .debug$S                   10000000     kernel32:KERNEL32.dll
 0000:fffcc000       .debug$S                   10000000     kernel32:KERNEL32.dll
 0000:fffcc000       .debug$S                   10000000     kernel32:KERNEL32.dll
 0000:fffcc000       .debug$S                   10000000     kernel32:KERNEL32.dll
 0000:fffcc000       .debug$S                   10000000     kernel32:KERNEL32.dll
 0000:fffcc000       .debug$S                   10000000     kernel32:KERNEL32.dll
 0000:fffcc000       .debug$S                   10000000     kernel32:KERNEL32.dll
 0000:fffcc000       .debug$S                   10000000     kernel32:KERNEL32.dll
 0000:fffcc000       .debug$S                   10000000     kernel32:KERNEL32.dll
 0000:fffcc000       .debug$S                   10000000     kernel32:KERNEL32.dll
 0000:fffcc000       .debug$S                   10000000     kernel32:KERNEL32.dll
 0000:fffcc000       .debug$S                   10000000     kernel32:KERNEL32.dll
 0000:fffcc000       .debug$S                   10000000     kernel32:KERNEL32.dll
 0000:fffcc000       .debug$S                   10000000     kernel32:KERNEL32.dll
 0000:fffcc000       .debug$S                   10000000     kernel32:KERNEL32.dll
 0000:fffcc000       .debug$S                   10000000     kernel32:KERNEL32.dll
 0000:fffcc000       .debug$S                   10000000     kernel32:KERNEL32.dll
 0000:fffcc000       .debug$S                   10000000     kernel32:KERNEL32.dll
 0000:fffcc000       .debug$S                   10000000     kernel32:KERNEL32.dll
 0000:fffcc000       .debug$S                   10000000     kernel32:KERNEL32.dll
 0000:fffcc000       .debug$S                   10000000     kernel32:KERNEL32.dll
 0000:fffcc000       .debug$S                   10000000     kernel32:KERNEL32.dll
 0000:fffcc000       .debug$S                   10000000     kernel32:KERNEL32.dll
 0000:fffcc000       .debug$S                   10000000     kernel32:KERNEL32.dll
 0000:fffcc000       .debug$S                   10000000     kernel32:KERNEL32.dll
 0000:fffcc000       .debug$S                   10000000     kernel32:KERNEL32.dll
 0000:fffcc000       .debug$S                   10000000     kernel32:KERNEL32.dll
 0000:fffcc000       .debug$S                   10000000     kernel32:KERNEL32.dll
 0000:fffcc000       .debug$S                   10000000     kernel32:KERNEL32.dll
 0000:fffcc000       .debug$S                   10000000     kernel32:KERNEL32.dll
 0000:fffcc000       .debug$S                   10000000     kernel32:KERNEL32.dll
 0000:fffcc000       .debug$S                   10000000     kernel32:KERNEL32.dll
 0000:fffcc000       .debug$S                   10000000     kernel32:KERNEL32.dll
 0000:fffcc000       .debug$S                   10000000     kernel32:KERNEL32.dll
 0000:fffcc000       .debug$S                   10000000     kernel32:KERNEL32.dll
 0000:fffcc000       .debug$S                   10000000     kernel32:KERNEL32.dll
 0000:fffcc000       .debug$S                   10000000     kernel32:KERNEL32.dll
 0000:fffcc000       .debug$S                   10000000     kernel32:KERNEL32.dll
 0000:fffcc000       .debug$S                   10000000     kernel32:KERNEL32.dll
 0000:fffcc000       .debug$S                   10000000     kernel32:KERNEL32.dll
 0000:fffcc000       .debug$S                   10000000     kernel32:KERNEL32.dll
 0000:fffcc000       .debug$S                   10000000     kernel32:KERNEL32.dll
 0000:fffcc000       .debug$S                   10000000     kernel32:KERNEL32.dll
 0000:fffcc000       .debug$S                   10000000     kernel32:KERNEL32.dll
 0000:fffcc000       .debug$S                   10000000     kernel32:KERNEL32.dll
 0000:fffcc000       .debug$S                   10000000     kernel32:KERNEL32.dll
 0000:fffcc000       .debug$S                   10000000     kernel32:KERNEL32.dll
 0000:fffcc000       .debug$S                   10000000     kernel32:KERNEL32.dll
 0000:fffcc000       .debug$S                   10000000     kernel32:KERNEL32.dll
 0000:fffcc000       .debug$S                   10000000     kernel32:KERNEL32.dll
 0000:fffcc000       .debug$S                   10000000     kernel32:KERNEL32.dll
 0000:fffcc000       .debug$S                   10000000     kernel32:KERNEL32.dll
 0000:fffcc000       .debug$S                   10000000     kernel32:KERNEL32.dll
 0000:fffcc000       .debug$S                   10000000     kernel32:KERNEL32.dll
 0000:fffcc000       .debug$S                   10000000     kernel32:KERNEL32.dll
 0000:fffcc000       .debug$S                   10000000     kernel32:KERNEL32.dll
 0000:fffcc000       .debug$S                   10000000     kernel32:KERNEL32.dll
 0000:fffcc000       .debug$S                   10000000     kernel32:KERNEL32.dll
 0000:fffcc000       .debug$S                   10000000     kernel32:KERNEL32.dll
 0000:fffcc000       .debug$S                   10000000     kernel32:KERNEL32.dll
 0000:fffcc000       .debug$S                   10000000     kernel32:KERNEL32.dll
 0000:fffcc000       .debug$S                   10000000     kernel32:KERNEL32.dll
 0000:fffcc000       .debug$S                   10000000     kernel32:KERNEL32.dll
 0000:fffcc000       .debug$S                   10000000     kernel32:KERNEL32.dll
 0000:fffcc000       .debug$S                   10000000     ole32:ole32.dll
 0000:fffcc000       .debug$S                   10000000     ole32:ole32.dll
 0000:fffcc000       .debug$S                   10000000     ole32:ole32.dll
 0000:fffcc000       .debug$S                   10000000     ole32:ole32.dll
 0000:fffcc000       .debug$S                   10000000     ole32:ole32.dll
 0000:fffcc000       .debug$S                   10000000     ole32:ole32.dll
 0000:fffcc000       .debug$S                   10000000     ole32:ole32.dll
 0000:fffcc000       .debug$S                   10000000     ole32:ole32.dll
 0000:fffcc000       .debug$S                   10000000     ole32:ole32.dll
 0000:fffcc000       .debug$S                   10000000     ole32:ole32.dll
 0000:fffcc000       .debug$S                   10000000     ole32:ole32.dll
 0000:fffcc000       .debug$S                   10000000     ole32:ole32.dll
 0000:fffcc000       .debug$S                   10000000     ole32:ole32.dll
 0000:fffcc000       .debug$S                   10000000     ole32:ole32.dll
 0000:fffcc000       .debug$S                   10000000     oleaut32:OLEAUT32.dll
 0000:fffcc000       .debug$S                   10000000     oleaut32:OLEAUT32.dll
 0000:fffcc000       .debug$S                   10000000     oleaut32:OLEAUT32.dll
 0000:fffcc000       .debug$S                   10000000     oleaut32:OLEAUT32.dll
 0000:fffcc000       .debug$S                   10000000     oleaut32:OLEAUT32.dll
 0000:fffcc000       .debug$S                   10000000     oleaut32:OLEAUT32.dll
 0000:fffcc000       .debug$S                   10000000     oleaut32:OLEAUT32.dll
 0000:fffcc000       .debug$S                   10000000     oleaut32:OLEAUT32.dll
 0000:fffcc000       .debug$S                   10000000     oleaut32:OLEAUT32.dll
 0000:fffcc000       .debug$S                   10000000     oleaut32:OLEAUT32.dll
 0000:fffcc000       .debug$S                   10000000     oleaut32:OLEAUT32.dll
 0000:fffcc000       .debug$S                   10000000     oleaut32:OLEAUT32.dll
 0000:fffcc000       .debug$S                   10000000     oleaut32:OLEAUT32.dll
 0000:fffcc000       .debug$S                   10000000     oleaut32:OLEAUT32.dll
 0000:fffcc000       .debug$S                   10000000     oleaut32:OLEAUT32.dll
 0000:fffcc000       .debug$S                   10000000     oleaut32:OLEAUT32.dll
 0000:fffcc000       .debug$S                   10000000     user32:USER32.dll
 0000:fffcc000       .debug$S                   10000000     user32:USER32.dll
 0000:fffcc000       .debug$S                   10000000     user32:USER32.dll
 0000:fffcc000       .debug$S                   10000000     user32:USER32.dll
 0000:fffcc000       .debug$S                   10000000     user32:USER32.dll
 0000:fffcc000       .debug$S                   10000000     user32:USER32.dll
 0000:fffcc000       .debug$S                   10000000     user32:USER32.dll
 0000:fffcc000       .debug$S                   10000000     user32:USER32.dll
 0000:fffcc000       .debug$S                   10000000     user32:USER32.dll
 0000:fffcc000       .debug$S                   10000000     user32:USER32.dll
 0000:fffcc000       .debug$S                   10000000     user32:USER32.dll
 0000:fffcc000       .debug$S                   10000000     user32:USER32.dll
 0000:fffcc000       .debug$S                   10000000     user32:USER32.dll
 0000:fffcc000       .debug$S                   10000000     user32:USER32.dll
 0000:fffcc000       .debug$S                   10000000     user32:USER32.dll
 0000:fffcc000       .debug$S                   10000000     user32:USER32.dll
 0000:fffcc000       .debug$S                   10000000     user32:USER32.dll
 0000:fffcc000       .debug$S                   10000000     user32:USER32.dll
 0000:fffcc000       .debug$S                   10000000     user32:USER32.dll
 0000:fffcc000       .debug$S                   10000000     user32:USER32.dll
 0000:fffcc000       .debug$S                   10000000     user32:USER32.dll
 0000:fffcc000       .debug$S                   10000000     user32:USER32.dll
 0000:fffcc000       .debug$S                   10000000     user32:USER32.dll
 0000:fffcc000       .debug$S                   10000000     user32:USER32.dll
 0000:fffcc000       .debug$S                   10000000     user32:USER32.dll
 0000:fffcc000       .debug$S                   10000000     user32:USER32.dll
 0000:fffcc000       .debug$S                   10000000     user32:USER32.dll
 0000:fffcc000       .debug$S                   10000000     user32:USER32.dll
 0000:fffcc000       .debug$S                   10000000     user32:USER32.dll
 0000:fffcc000       .debug$S                   10000000     user32:USER32.dll
 0000:fffcc000       .debug$S                   10000000     user32:USER32.dll
 0000:fffcc000       .debug$S                   10000000     user32:USER32.dll
 0000:fffcc000       .debug$S                   10000000     user32:USER32.dll
 0000:fffcc000       .debug$S                   10000000     user32:USER32.dll
 0000:fffcc000       .debug$S                   10000000     user32:USER32.dll
 0001:00000000       ??__E_AtlComModule@ATL@@YAXXZ 10001000 f   OposVariant.obj
 0001:00000016       ??__E_AtlWinModule@ATL@@YAXXZ 10001016 f   OposVariant.obj
 0001:0000002c       ??__E?pConnMap@?$IConnectionPointContainerImpl@VCOPOSCashChanger@@@ATL@@0PBU_ATL_CONNMAP_ENTRY@2@B@@YAXXZ 1000102c f   CashChanger.obj
 0001:0000003a       ??__E_Module@@YAXXZ        1000103a f   CashChanger.obj
 0001:00000064       ??__E_AtlBaseModule@ATL@@YAXXZ 10001064 f   atls:atlbase.obj
 0001:0000107d       $LN24                      1000207d     CashChanger.obj
 0001:000057b9       $LN48                      100067b9     CashChanger.obj
 0001:000057d1       $LN47                      100067d1     CashChanger.obj
 0001:0000797e       $LN38                      1000897e     CashChanger.obj
 0001:00007996       $LN37                      10008996     CashChanger.obj
 0001:00009086       $LN76                      1000a086     CashChanger.obj
 0001:0000909e       $LN75                      1000a09e     CashChanger.obj
 0001:00009457       _memcpy_s                  1000a457 f   CashChanger.obj
 0001:0000b58c       ?find_pe_section@@YAPAU_IMAGE_SECTION_HEADER@@QAEI@Z 1000c58c f   LIBCMT:utility.obj
 0001:0000b8ab       ?__scrt_initialize_thread_safe_statics@@YAHXZ 1000c8ab f   LIBCMT:thread_safe_statics.obj
 0001:0000b8d2       ?__scrt_initialize_thread_safe_statics_platform_specific@@YAXXZ 1000c8d2 f   LIBCMT:thread_safe_statics.obj
 0001:0000b954       ?__scrt_uninitialize_thread_safe_statics@@YAXXZ 1000c954 f   LIBCMT:thread_safe_statics.obj
 0001:0000bcc3       __catch$??2@YAPAXIABUnothrow_t@std@@@Z$0 1000ccc3 f   LIBCMT:new_scalar_nothrow.obj
 0001:0000bd00       $$000000                   1000cd00     LIBCMT:sehprolg4gs.obj
 0001:0000bd60       $$000000                   1000cd60     LIBCMT:alloca16.obj
 0001:0000bd90       $$000000                   1000cd90     LIBCMT:chkstk.obj
 0001:0000bdbd       ?dllmain_crt_dispatch@@YGHQAUHINSTANCE__@@KQAX@Z 1000cdbd f   LIBCMT:dll_dllmain.obj
 0001:0000be10       ?dllmain_crt_process_attach@@YAHQAUHINSTANCE__@@QAX@Z 1000ce10 f   LIBCMT:dll_dllmain.obj
 0001:0000bf17       ?dllmain_crt_process_detach@@YAH_N@Z 1000cf17 f   LIBCMT:dll_dllmain.obj
 0001:0000bfc7       ?dllmain_dispatch@@YAHQAUHINSTANCE__@@KQAX@Z 1000cfc7 f   LIBCMT:dll_dllmain.obj
 0001:0000c0d2       ?dllmain_raw@@YGHQAUHINSTANCE__@@KQAX@Z 1000d0d2 f   LIBCMT:dll_dllmain.obj
 0001:0000c450       $$000000                   1000d450     LIBCMT:sehprolg4.obj
 0001:0000c4ac       ___get_entropy             1000d4ac f   LIBCMT:gs_support.obj
 0001:0000c7a3       ??$GetProcAddressAll@P6GP6GJPAUHWND__@@IIJ@ZPAUAtlThunkData_t@@@Z@@YAP6GP6GJPAUHWND__@@IIJ@ZPAUAtlThunkData_t@@@ZPAP6GP6GJ0IIJ@Z1@Z@Z 1000d7a3 f   atls:atlthunk.obj
 0001:0000c7a3       ??$GetProcAddressAll@P6GPAUAtlThunkData_t@@XZ@@YAP6GPAUAtlThunkData_t@@XZPAP6GPAU0@XZ@Z 1000d7a3 f   atls:atlthunk.obj
 0001:0000c7a3       ??$GetProcAddressAll@P6GXPAUAtlThunkData_t@@@Z@@YAP6GXPAUAtlThunkData_t@@@ZPAP6GX0@Z@Z 1000d7a3 f   atls:atlthunk.obj
 0001:0000c7a3       ??$GetProcAddressAll@P6GXPAUAtlThunkData_t@@PAXI@Z@@YAP6GXPAUAtlThunkData_t@@PAXI@ZPAP6GX01I@Z@Z 1000d7a3 f   atls:atlthunk.obj
 0001:0000c853       ?GetProcAddressSingle@@YA_NPAUHINSTANCE__@@PBDPAPAX@Z 1000d853 f   atls:atlthunk.obj
 0001:0000c9a5       ?__InitializeThunkPool@@YAHXZ 1000d9a5 f   atls:atlthunk.obj
 0001:0000cdf0       _ValidateLocalCookies      1000ddf0 f   libvcruntime:chandler4.obj
 0001:0000de1a       $LN1250                    1000ee1a     libvcruntime:memcmp.obj
 0001:0000dea0       $$000000                   1000eea0     libvcruntime:memcpy.obj
 0001:0000e104       TrailingUpVec              1000f104     libvcruntime:memcpy.obj
 0001:0000e1b0       TrailingDownVec            1000f1b0     libvcruntime:memcpy.obj
 0001:0000e420       $$000000                   1000f420     libvcruntime:memset.obj
 0001:0000ea23       ?_FilterSetCurrentException@@YAKPAU_EXCEPTION_POINTERS@@E@Z 1000fa23 f   libvcruntime:ehhelpers.obj
 0001:0000ec70       $$000000                   1000fc70     libvcruntime:memmove.obj
 0001:0000eed4       TrailingUpVec              1000fed4     libvcruntime:memmove.obj
 0001:0000ef80       TrailingDownVec            1000ff80     libvcruntime:memmove.obj
 0001:0000f1f0       $$000000                   100101f0     libvcruntime:exsup4.obj
 0001:0000f280       __unwind_handler4          10010280 f   libvcruntime:exsup4.obj
 0001:0000f55f       ??$BuildCatchObjectHelperInternal@V__FrameHandler3@@@@YAHPAUEHExceptionRecord@@PAXPBU_s_HandlerType@@PBU_s_CatchableType@@@Z 1001055f f   libvcruntime:frame.obj
 0001:0000f69d       ??$BuildCatchObjectInternal@V__FrameHandler3@@@@YAXPAUEHExceptionRecord@@PAXPBU_s_HandlerType@@PBU_s_CatchableType@@@Z 1001069d f   libvcruntime:frame.obj
 0001:0000f736       ??$CatchIt@V__FrameHandler3@@@@YAXPAUEHExceptionRecord@@PAUEHRegistrationNode@@PAU_CONTEXT@@PAXPBU_s_FuncInfo@@PBU_s_HandlerType@@PBU_s_CatchableType@@PBU_s_TryBlockMapEntry@@H1EE@Z 10010736 f   libvcruntime:frame.obj
 0001:0000f7b6       ??$FindHandler@V__FrameHandler3@@@@YAXPAUEHExceptionRecord@@PAUEHRegistrationNode@@PAU_CONTEXT@@PAXPBU_s_FuncInfo@@EH1@Z 100107b6 f   libvcruntime:frame.obj
 0001:0000fb6c       ??$FindHandlerForForeignException@V__FrameHandler3@@@@YAXPAUEHExceptionRecord@@PAUEHRegistrationNode@@PAU_CONTEXT@@PAXPBU_s_FuncInfo@@HH1@Z 10010b6c f   libvcruntime:frame.obj
 0001:0000fe84       ?CallCatchBlock@@YAPAXPAUEHExceptionRecord@@PAUEHRegistrationNode@@PAU_CONTEXT@@PBU_s_FuncInfo@@PAXHK@Z 10010e84 f   libvcruntime:frame.obj
 0001:00010048       ?CallUnexpected@@YAXPBU_s_ESTypeList@@@Z 10011048 f   libvcruntime:frame.obj
 0001:00010068       __catch$?CallUnexpected@@YAXPBU_s_ESTypeList@@@Z$0 10011068 f   libvcruntime:frame.obj
 0001:00010082       ?ExFilterRethrow@@YAHPAU_EXCEPTION_POINTERS@@@Z 10011082 f   libvcruntime:frame.obj
 0001:000101cc       ?IsInExceptionSpec@@YAEPAUEHExceptionRecord@@PBU_s_ESTypeList@@@Z 100111cc f   libvcruntime:frame.obj
 0001:000102a0       $$000000                   100112a0     libvcruntime:lowhelpr.obj
 0001:000102f0       $$000000                   100112f0     libvcruntime:exsup.obj
 0001:00010311       __unwind_handler           10011311 f   libvcruntime:exsup.obj
 0001:0001042e       ?try_get_first_available_module@@YAPAUHINSTANCE__@@QBW4module_id@?A0x9d0f8d90@@0@Z 1001142e f   libvcruntime:winapi_downlevel.obj
 0001:000104c8       ?try_get_function@@YAPAXW4function_id@?A0x9d0f8d90@@QBDQBW4module_id@2@2@Z 100114c8 f   libvcruntime:winapi_downlevel.obj
 0001:00010b52       ??$common_tcsncpy_s@_W@@YAHQA_WIQB_WI@Z 10011b52 f   libucrt:wcsncpy_s.obj
 0001:00010c28       ??$common_vsprintf@Vformat_validation_base@__crt_stdio_output@@_W@@YAH_KQA_WIQB_WQAU__crt_locale_pointers@@QAD@Z 10011c28 f   libucrt:output.obj
 0001:00010daf       ??$common_vsprintf_s@_W@@YAH_KQA_WIQB_WQAU__crt_locale_pointers@@QAD@Z 10011daf f   libucrt:output.obj
 0001:00011513       $LN48                      10012513     libucrt:output.obj
 0001:00011a1c       $LN18                      10012a1c     libucrt:output.obj
 0001:00011a30       $LN17                      10012a30     libucrt:output.obj
 0001:0001228b       ??$?RV<lambda_03b1d95aef87969028cfba75ccab2455>@@AAV<lambda_6e4b09c48022b2350581041d5f6b0c4c>@@V<lambda_22bdf7517842c4b3e53723af5aa32b9e>@@@?$__crt_seh_guarded_call@X@@QAEX$$QAV<lambda_03b1d95aef87969028cfba75ccab2455>@@AAV<lambda_6e4b09c48022b2350581041d5f6b0c4c>@@$$QAV<lambda_22bdf7517842c4b3e53723af5aa32b9e>@@@Z 1001328b f   libucrt:exit.obj
 0001:000122d8       ??R<lambda_6e4b09c48022b2350581041d5f6b0c4c>@@QBE@XZ 100132d8 f   libucrt:exit.obj
 0001:000123b2       ?atexit_exception_filter@@YAHK@Z 100133b2 f   libucrt:exit.obj
 0001:000123c5       ?common_exit@@YAXHW4_crt_exit_cleanup_mode@@W4_crt_exit_return_mode@@@Z 100133c5 f   libucrt:exit.obj
 0001:00012429       ?exit_or_terminate_process@@YAXI@Z 10013429 f   libucrt:exit.obj
 0001:0001246b       ?is_managed_app@@YA_NXZ    1001346b f   libucrt:exit.obj
 0001:000124ae       ?try_cor_exit_process@@YAXI@Z 100134ae f   libucrt:exit.obj
 0001:0001253c       ??$common_configure_argv@D@@YAHW4_crt_argv_mode@@@Z 1001353c f   libucrt:argv_parsing.obj
 0001:00012672       ??$parse_command_line@D@@YAXPADPAPAD0PAI2@Z 10013672 f   libucrt:argv_parsing.obj
 0001:00012840       ??$common_initialize_environment_nolock@D@@YAHXZ 10013840 f   libucrt:environment_initialization.obj
 0001:00012893       ??$create_environment@D@@YAQAPADQAD@Z 10013893 f   libucrt:environment_initialization.obj
 0001:00012963       ??$free_environment@D@@YAXQAPAD@Z 10013963 f   libucrt:environment_initialization.obj
 0001:00012963       ??$free_environment@_W@@YAXQAPA_W@Z 10013963 f   libucrt:environment_initialization.obj
 0001:000129bb       ??$uninitialize_environment_internal@D@@YAXAAPAPAD@Z 100139bb f   libucrt:environment_initialization.obj
 0001:000129d6       ??$uninitialize_environment_internal@_W@@YAXAAPAPA_W@Z 100139d6 f   libucrt:environment_initialization.obj
 0001:00012a2d       ??$?RV<lambda_69a2805e680e0e292e8ba93315fe43a8>@@AAV<lambda_f03950bc5685219e0bcd2087efbe011e>@@V<lambda_03fcd07e894ec930e3f35da366ca99d6>@@@?$__crt_seh_guarded_call@H@@QAEH$$QAV<lambda_69a2805e680e0e292e8ba93315fe43a8>@@AAV<lambda_f03950bc5685219e0bcd2087efbe011e>@@$$QAV<lambda_03fcd07e894ec930e3f35da366ca99d6>@@@Z 10013a2d f   libucrt:onexit.obj
 0001:00012a88       ??$?RV<lambda_8e746cf0007f6ed984d6f78af1fec997>@@AAV<lambda_22ebabd17bc4fa466a2aca6d8deb888d>@@V<lambda_18ed0c0b38a6dc0daf1e7ac6d6adf05e>@@@?$__crt_seh_guarded_call@H@@QAEH$$QAV<lambda_8e746cf0007f6ed984d6f78af1fec997>@@AAV<lambda_22ebabd17bc4fa466a2aca6d8deb888d>@@$$QAV<lambda_18ed0c0b38a6dc0daf1e7ac6d6adf05e>@@@Z 10013a88 f   libucrt:onexit.obj
 0001:00012b02       ??R<lambda_22ebabd17bc4fa466a2aca6d8deb888d>@@QBEHXZ 10013b02 f   libucrt:onexit.obj
 0001:00012c2b       ??R<lambda_f03950bc5685219e0bcd2087efbe011e>@@QBEHXZ 10013c2b f   libucrt:onexit.obj
 0001:00012da4       _initialize_global_variables 10013da4 f   libucrt:initialization.obj
 0001:00012db1       _initialize_c              10013db1 f   libucrt:initialization.obj
 0001:00012dcb       _initialize_environment    10013dcb f   libucrt:initialization.obj
 0001:00012dcb       _initialize_global_state_isolation 10013dcb f   libucrt:initialization.obj
 0001:00012dcb       _report_memory_leaks       10013dcb f   libucrt:initialization.obj
 0001:00012dcb       _uninitialize_c            10013dcb f   libucrt:initialization.obj
 0001:00012dcb       _uninitialize_global_state_isolation 10013dcb f   libucrt:initialization.obj
 0001:00012dce       _uninitialize_environment  10013dce f   libucrt:initialization.obj
 0001:00012dd6       _initialize_pointers       10013dd6 f   libucrt:initialization.obj
 0001:00012e04       _uninitialize_vcruntime    10013e04 f   libucrt:initialization.obj
 0001:00012e0d       _uninitialize_allocated_memory 10013e0d f   libucrt:initialization.obj
 0001:00012e24       _uninitialize_allocated_io_buffers 10013e24 f   libucrt:initialization.obj
 0001:00012e74       ??R<lambda_af42a3ee9806e9a7305d451646e05244>@@QBEXAAPAU__crt_multibyte_data@@@Z 10013e74 f   libucrt:initialization.obj
 0001:00013760       $$000000                   10014760     libucrt:strncmp.obj
 0001:0001384c       ??$?RV<lambda_15ade71b0218206bbe3333a0c9b79046>@@AAV<lambda_da44e0f8b0f19ba52fefafb335991732>@@V<lambda_207f2d024fc103971653565357d6cd41>@@@?$__crt_seh_guarded_call@X@@QAEX$$QAV<lambda_15ade71b0218206bbe3333a0c9b79046>@@AAV<lambda_da44e0f8b0f19ba52fefafb335991732>@@$$QAV<lambda_207f2d024fc103971653565357d6cd41>@@@Z 1001484c f   libucrt:per_thread_data.obj
 0001:0001389e       ??$?RV<lambda_38edbb1296d33220d7e4dd0ed76b244a>@@AAV<lambda_5ce1d447e08cb34b2473517608e21441>@@V<lambda_fb385d3da700c9147fc39e65dd577a8c>@@@?$__crt_seh_guarded_call@X@@QAEX$$QAV<lambda_38edbb1296d33220d7e4dd0ed76b244a>@@AAV<lambda_5ce1d447e08cb34b2473517608e21441>@@$$QAV<lambda_fb385d3da700c9147fc39e65dd577a8c>@@@Z 1001489e f   libucrt:per_thread_data.obj
 0001:00013909       ??$?RV<lambda_6affb1475c98b40b75cdec977db92e3c>@@AAV<lambda_b8d4b9c228a6ecc3f80208dbb4b4a104>@@V<lambda_608742c3c92a14382c1684fc64f96c88>@@@?$__crt_seh_guarded_call@X@@QAEX$$QAV<lambda_6affb1475c98b40b75cdec977db92e3c>@@AAV<lambda_b8d4b9c228a6ecc3f80208dbb4b4a104>@@$$QAV<lambda_608742c3c92a14382c1684fc64f96c88>@@@Z 10014909 f   libucrt:per_thread_data.obj
 0001:0001395e       ??$?RV<lambda_a7e850c220f1c8d1e6efeecdedd162c6>@@AAV<lambda_46720907175c18b6c9d2717bc0d2d362>@@V<lambda_9048902d66e8d99359bc9897bbb930a8>@@@?$__crt_seh_guarded_call@X@@QAEX$$QAV<lambda_a7e850c220f1c8d1e6efeecdedd162c6>@@AAV<lambda_46720907175c18b6c9d2717bc0d2d362>@@$$QAV<lambda_9048902d66e8d99359bc9897bbb930a8>@@@Z 1001495e f   libucrt:per_thread_data.obj
 0001:000139b8       ?construct_ptd@@YAXQAU__acrt_ptd@@QAPAU__crt_locale_data@@@Z 100149b8 f   libucrt:per_thread_data.obj
 0001:00013a51       ?destroy_fls@@YGXPAX@Z     10014a51 f   libucrt:per_thread_data.obj
 0001:00013a72       ?destroy_ptd@@YAXQAU__acrt_ptd@@@Z 10014a72 f   libucrt:per_thread_data.obj
 0001:00013b3f       ?replace_current_thread_locale_nolock@@YAXQAU__acrt_ptd@@QAU__crt_locale_data@@@Z 10014b3f f   libucrt:per_thread_data.obj
 0001:00013f4f       ?try_get_AreFileApisANSI@@YAP6GHXZXZ 10014f4f f   libucrt:winapi_thunks.obj
 0001:00013f69       ?try_get_LCMapStringEx@@YAP6GHPB_WK0HPA_WHPAU_nlsversioninfo@@PAXJ@ZXZ 10014f69 f   libucrt:winapi_thunks.obj
 0001:00013f83       ?try_get_LocaleNameToLCID@@YAP6GKPB_WK@ZXZ 10014f83 f   libucrt:winapi_thunks.obj
 0001:00013f9d       ?try_get_first_available_module@@YAPAUHINSTANCE__@@QBW4module_id@?A0x391cf84c@@0@Z 10014f9d f   libucrt:winapi_thunks.obj
 0001:00014064       ?try_get_function@@YAPAXW4function_id@?A0x391cf84c@@QBDQBW4module_id@2@2@Z 10015064 f   libucrt:winapi_thunks.obj
 0001:000147c7       ?fe_to_nearest@@YA_NQBN_KF@Z 100157c7 f   libucrt:cvt.obj
 0001:0001486a       ?fp_format_a@@YAHQBNPADIQADIH_NIQAU__crt_locale_pointers@@W4__acrt_rounding_mode@@@Z 1001586a f   libucrt:cvt.obj
 0001:00014b79       ?fp_format_e@@YAHQBNQADI1IH_NIQAU__crt_locale_pointers@@W4__acrt_rounding_mode@@@Z 10015b79 f   libucrt:cvt.obj
 0001:00014c21       ?fp_format_e_internal@@YAHQADIH_NIQAU_strflt@@1QAU__crt_locale_pointers@@@Z 10015c21 f   libucrt:cvt.obj
 0001:00014d69       ?fp_format_f@@YAHQBNQADI1IHQAU__crt_locale_pointers@@W4__acrt_rounding_mode@@@Z 10015d69 f   libucrt:cvt.obj
 0001:00014dfa       ?fp_format_f_internal@@YAHQADIHQAU_strflt@@_NQAU__crt_locale_pointers@@@Z 10015dfa f   libucrt:cvt.obj
 0001:00014ef2       ?fp_format_g@@YAHQBNQADI1IH_NIQAU__crt_locale_pointers@@@Z 10015ef2 f   libucrt:cvt.obj
 0001:00014fbb       ?fp_format_nan_or_infinity@@YAHW4__acrt_fp_class@@_NPADI1@Z 10015fbb f   libucrt:cvt.obj
 0001:00015050       ?shift_bytes@@YAXQADI0H@Z  10016050 f   libucrt:cvt.obj
 0001:00015084       ?should_round_up@@YA_NQBN_KFW4__acrt_rounding_mode@@@Z 10016084 f   libucrt:cvt.obj
 0001:000153ed       ??$?RV<lambda_e5124f882df8998aaf41531e079ba474>@@AAV<lambda_3e16ef9562a7dcce91392c22ab16ea36>@@V<lambda_e25ca0880e6ef98be67edffd8c599615>@@@?$__crt_seh_guarded_call@X@@QAEX$$QAV<lambda_e5124f882df8998aaf41531e079ba474>@@AAV<lambda_3e16ef9562a7dcce91392c22ab16ea36>@@$$QAV<lambda_e25ca0880e6ef98be67edffd8c599615>@@@Z 100163ed f   libucrt:wsetlocale.obj
 0001:0001548d       ?initialize_inherited_file_handles_nolock@@YAXXZ 1001648d f   libucrt:ioinit.obj
 0001:00015543       ?initialize_stdio_handles_nolock@@YAXXZ 10016543 f   libucrt:ioinit.obj
 0001:00015754       ?<lambda_invoker_cdecl>@<lambda_838c7f62c73c983481e27c09e84b0b5d>@@CAHPBX0@Z 10016754 f   libucrt:argv_wildcards.obj
 0001:0001576c       ??$__acrt_convert_wcs_mbs_cp@D_WV<lambda_62f6974d9771e494a5ea317cc32e971c>@@U__crt_win32_buffer_internal_dynamic_resizing@@@@YAHQBDAAV?$__crt_win32_buffer@_WU__crt_win32_buffer_internal_dynamic_resizing@@@@ABV<lambda_62f6974d9771e494a5ea317cc32e971c>@@I@Z 1001676c f   libucrt:argv_wildcards.obj
 0001:0001581e       ??$__acrt_convert_wcs_mbs_cp@_WDV<lambda_28bda7af82a03b66c1cb3803a755f95d>@@U__crt_win32_buffer_internal_dynamic_resizing@@@@YAHQB_WAAV?$__crt_win32_buffer@DU__crt_win32_buffer_internal_dynamic_resizing@@@@ABV<lambda_28bda7af82a03b66c1cb3803a755f95d>@@I@Z 1001681e f   libucrt:argv_wildcards.obj
 0001:0001590a       ??$common_expand_argv_wildcards@D@@YAHQAPADQAPAPAD@Z 1001690a f   libucrt:argv_wildcards.obj
 0001:00015af9       ??$copy_and_add_argument_to_buffer@D@@YAHQBD0IAAV?$argument_list@D@?A0x5f5c8891@@@Z 10016af9 f   libucrt:argv_wildcards.obj
 0001:00015baa       ??$expand_argument_wildcards@D@@YAHQAD0AAV?$argument_list@D@?A0x5f5c8891@@@Z 10016baa f   libucrt:argv_wildcards.obj
 0001:00015ef4       ?expand_if_necessary@?$argument_list@D@?A0x5f5c8891@@AAEHXZ 10016ef4 f   libucrt:argv_wildcards.obj
 0001:00015f86       ??$__acrt_convert_wcs_mbs_cp@_WDV<lambda_0fec1a7b3f42a53036604e18c2d5e07e>@@U__crt_win32_buffer_no_resizing@@@@YAHQB_WAAV?$__crt_win32_buffer@DU__crt_win32_buffer_no_resizing@@@@ABV<lambda_0fec1a7b3f42a53036604e18c2d5e07e>@@I@Z 10016f86 f   libucrt:getmodulefilenamea.obj
 0001:00016129       ??$?RV<lambda_ceb1ee4838e85a9d631eb091e2fbe199>@@AAV<lambda_ae742caa10f662c28703da3d2ea5e57e>@@V<lambda_cd08b5d6af4937fe54fc07d0c9bf6b37>@@@?$__crt_seh_guarded_call@X@@QAEX$$QAV<lambda_ceb1ee4838e85a9d631eb091e2fbe199>@@AAV<lambda_ae742caa10f662c28703da3d2ea5e57e>@@$$QAV<lambda_cd08b5d6af4937fe54fc07d0c9bf6b37>@@@Z 10017129 f   libucrt:mbctype.obj
 0001:00016176       ??R<lambda_ae742caa10f662c28703da3d2ea5e57e>@@QBEXXZ 10017176 f   libucrt:mbctype.obj
 0001:000161f9       ?CPtoLocaleName@@YAPB_WH@Z 100171f9 f   libucrt:mbctype.obj
 0001:00016237       ?getSystemCP@@YAHH@Z       10017237 f   libucrt:mbctype.obj
 0001:000162a8       ?setSBCS@@YAXPAU__crt_multibyte_data@@@Z 100172a8 f   libucrt:mbctype.obj
 0001:0001630d       ?setSBUpLow@@YAXPAU__crt_multibyte_data@@@Z 1001730d f   libucrt:mbctype.obj
 0001:0001648d       ?setmbcp_internal@@YAHH_NQAU__acrt_ptd@@QAPAU__crt_multibyte_data@@@Z 1001748d f   libucrt:mbctype.obj
 0001:000165a1       ?update_thread_multibyte_data_internal@@YAPAU__crt_multibyte_data@@QAU__acrt_ptd@@QAPAU1@@Z 100175a1 f   libucrt:mbctype.obj
 0001:0001688f       _memcpy_s                  1001788f f   libucrt:cfout.obj
 0001:0001688f       _memcpy_s                  1001788f f   libucrt:mbctype.obj
 0001:00016910       ?x_ismbbtype_l@@YAHPAU__crt_locale_pointers@@IHH@Z 10017910 f   libucrt:ismbbyte.obj
 0001:00016acb       ?find_end_of_double_null_terminated_sequence@@YAPB_WQB_W@Z 10017acb f   libucrt:get_environment_from_os.obj
 0001:00016c3a       ??$?RV<lambda_cbab9ec6f41b0180b23cc171c22676b0>@@AAV<lambda_44731a7d0e6d81c3e6aa82d741081786>@@V<lambda_4b292cb8dd18144e164572427af410ab>@@@?$__crt_seh_guarded_call@P6AXH@Z@@QAEP6AXH@Z$$QAV<lambda_cbab9ec6f41b0180b23cc171c22676b0>@@AAV<lambda_44731a7d0e6d81c3e6aa82d741081786>@@$$QAV<lambda_4b292cb8dd18144e164572427af410ab>@@@Z 10017c3a f   libucrt:signal.obj
 0001:00016c9e       ?get_global_action_nolock@@YAPAP6AXH@ZH@Z 10017c9e f   libucrt:signal.obj
 0001:00016ce0       ?siglookup@@YAPAU__crt_signal_action_t@@HQAU1@@Z 10017ce0 f   libucrt:signal.obj
 0001:00016f99       ??$?RV<lambda_2866be3712abc81a800a822484c830d8>@@AAV<lambda_39ca0ed439415581b5b15c265174cece>@@V<lambda_2b24c74d71094a6cd0cb82e44167d71b>@@@?$__crt_seh_guarded_call@X@@QAEX$$QAV<lambda_2866be3712abc81a800a822484c830d8>@@AAV<lambda_39ca0ed439415581b5b15c265174cece>@@$$QAV<lambda_2b24c74d71094a6cd0cb82e44167d71b>@@@Z 10017f99 f   libucrt:fflush.obj
 0001:00017025       ??$?RV<lambda_2cc53f568c5a2bb6f192f930a45d44ea>@@AAV<lambda_ab61a845afdef5b7c387490eaf3616ee>@@V<lambda_c2ffc0b7726aa6be21d5f0026187e748>@@@?$__crt_seh_guarded_call@X@@QAEX$$QAV<lambda_2cc53f568c5a2bb6f192f930a45d44ea>@@AAV<lambda_ab61a845afdef5b7c387490eaf3616ee>@@$$QAV<lambda_c2ffc0b7726aa6be21d5f0026187e748>@@@Z 10018025 f   libucrt:fflush.obj
 0001:000170d1       ?common_flush_all@@YAH_N@Z 100180d1 f   libucrt:fflush.obj
 0001:0001711e       ?common_flush_all_should_try_to_flush_stream@@YA_NV__crt_stdio_stream@@QAH@Z 1001811e f   libucrt:fflush.obj
 0001:00017151       ?is_stream_flushable_or_commitable@@YA_NJ@Z 10018151 f   libucrt:fflush.obj
 0001:0001765a       ?GetTableIndexFromLocaleName@@YAHPB_W@Z 1001865a f   libucrt:lcidtoname_downlevel.obj
 0001:00017710       ??R<lambda_3d301b9e52f5099be73030e1f0bf487e>@@QBEIPBD@Z 10018710 f   libucrt:mbrtowc.obj
 0001:00017896       ?should_round_up@@YA_NQBDHW4__acrt_has_trailing_digits@@W4__acrt_rounding_mode@@@Z 10018896 f   libucrt:_fptostr.obj
 0001:00019634       ?free_crt_array_internal@@YAXQAPBXI@Z 1001a634 f   libucrt:inittime.obj
 0001:00019ffe       ??$common_tcsncpy_s@D@@YAHQADIQBDI@Z 1001affe f   libucrt:strncpy_s.obj
 0001:0001a0c0       $$000000                   1001b0c0     libucrt:strpbrk.obj
 0001:0001a1a4       ?__acrt_LCMapStringA_stat@@YAHPAU__crt_locale_pointers@@PB_WKPBDHPADHHH@Z 1001b1a4 f   libucrt:lcmapstringa.obj
 0001:0001a3d7       ?initialize_multibyte@@YAHXZ 1001b3d7 f   libucrt:multibyte_initializer.obj
 0001:0001a3e6       ??$?RV<lambda_9e9de3de5fa147e2223d7db92bc10aa6>@@AAV<lambda_38ce7e780aa69e748d6df282ebc68efe>@@V<lambda_8ca6da459f0f6780f1cff60fdc3d00e5>@@@?$__crt_seh_guarded_call@H@@QAEH$$QAV<lambda_9e9de3de5fa147e2223d7db92bc10aa6>@@AAV<lambda_38ce7e780aa69e748d6df282ebc68efe>@@$$QAV<lambda_8ca6da459f0f6780f1cff60fdc3d00e5>@@@Z 1001b3e6 f   libucrt:commit.obj
 0001:0001a505       ?write_double_translated_ansi_nolock@@YA?AUwrite_result@?A0x17268360@@HQBDI@Z 1001b505 f   libucrt:write.obj
 0001:0001a8b1       ?write_double_translated_unicode_nolock@@YA?AUwrite_result@?A0x17268360@@QBDI@Z 1001b8b1 f   libucrt:write.obj
 0001:0001a919       ?write_requires_double_translation_nolock@@YA_NH@Z 1001b919 f   libucrt:write.obj
 0001:0001a98a       ?write_text_ansi_nolock@@YA?AUwrite_result@?A0x17268360@@HQBDI@Z 1001b98a f   libucrt:write.obj
 0001:0001aa65       ?write_text_utf16le_nolock@@YA?AUwrite_result@?A0x17268360@@HQBDI@Z 1001ba65 f   libucrt:write.obj
 0001:0001ab4e       ?write_text_utf8_nolock@@YA?AUwrite_result@?A0x17268360@@HQBDI@Z 1001bb4e f   libucrt:write.obj
 0001:0001b270       $$000000                   1001c270     libucrt:log10_impl.obj
 0001:0001b380       $$000000                   1001c380     libucrt:ceil_pentium4.obj
 0001:0001b49d       ?to_abstract_control@@YA?AW4__acrt_fenv_abstract_control@@W4__acrt_fenv_machine_sse_control@@@Z 1001c49d f   libucrt:_fenvutils.obj
 0001:0001b559       ?to_abstract_control@@YA?AW4__acrt_fenv_abstract_control@@W4__acrt_fenv_machine_x87_control@@@Z 1001c559 f   libucrt:_fenvutils.obj
 0001:0001b612       ?to_machine_sse_control@@YA?AW4__acrt_fenv_machine_sse_control@@W4__acrt_fenv_abstract_control@@@Z 1001c612 f   libucrt:_fenvutils.obj
 0001:0001b6df       ?to_machine_x87_control@@YA?AW4__acrt_fenv_machine_x87_control@@W4__acrt_fenv_abstract_control@@@Z 1001c6df f   libucrt:_fenvutils.obj
 0001:0001ba73       ??$common_lseek_nolock@_J@@YA_JH_JH@Z 1001ca73 f   libucrt:lseek.obj
 0001:0001bc59       ___hw_cw_sse2              1001cc59 f   libucrt:ieee87.obj
 0001:0001c0df       __hw_cw                    1001d0df f   libucrt:ieee87.obj
 0001:0001c190       $$000000                   1001d190     libucrt:log10_pentium4.obj
 0001:0001c420       $$000000                   1001d420     libucrt:87tran.obj
 0001:0001c630       $$000000                   1001d630     libucrt:87disp.obj
 0001:0001c890       $$000000                   1001d890     libucrt:common.obj
 0001:0001ca20       $$000000                   1001da20     libucrt:genexcep.obj
 0001:0001cd1c       ??$?RV<lambda_218ce3db14220d0be481dae8ef3383b6>@@AAV<lambda_628dfdc04ba53c8bfc02c9951375f3f5>@@V<lambda_57dc472bd5c9d5f3b2cbca59b8a843ae>@@@?$__crt_seh_guarded_call@H@@QAEH$$QAV<lambda_218ce3db14220d0be481dae8ef3383b6>@@AAV<lambda_628dfdc04ba53c8bfc02c9951375f3f5>@@$$QAV<lambda_57dc472bd5c9d5f3b2cbca59b8a843ae>@@@Z 1001dd1c f   libucrt:close.obj
 0001:0001cf10       $$000000                   1001df10     libucrt:_strnicm.obj
 0001:0001cf71       ?__dcrt_lowio_initialize_console_output@@YAXXZ 1001df71 f   libucrt:initcon.obj
 0001:0001de50       $$000000                   1001ee50     LIBCMT:ulldvrm.obj
 0001:0001def0       $$000000                   1001eef0     LIBCMT:llmul.obj
 0001:0001df30       $$000000                   1001ef30     LIBCMT:lldvrm.obj
 0001:0001e010       $$000000                   1001f010     LIBCMT:llshl.obj
 0001:0001e030       $$000000                   1001f030     LIBCMT:ullshr.obj
 0001:0001e050       $$000000                   1001f050     LIBCMT:ftol2.obj
 0001:0001e2f0       $$000000                   1001f2f0     libvcruntime:strrchr.obj
 0001:0001e430       $$000000                   1001f430     libvcruntime:strchr.obj
 0001:0001e5d3       __ehhandler$??2@YAPAXIABUnothrow_t@std@@@Z 1001f5d3 f   LIBCMT:new_scalar_nothrow.obj
 0001:0001e5ee       __ehhandler$?CallUnexpected@@YAXPBU_s_ESTypeList@@@Z 1001f5ee f   libvcruntime:frame.obj
 0001:0001e609       ??__F_AtlComModule@ATL@@YAXXZ 1001f609 f   OposVariant.obj
 0001:0001e613       ??__F_AtlWinModule@ATL@@YAXXZ 1001f613 f   OposVariant.obj
 0001:0001e62d       ??__F_Module@@YAXXZ        1001f62d f   CashChanger.obj
 0001:0001e641       ??__F_AtlBaseModule@ATL@@YAXXZ 1001f641 f   atls:atlbase.obj
 0002:00000304       ?_AtlBaseModule$initializer$@ATL@@3P6AXXZA 10020304     atls:atlbase.obj
 0002:00000308       ?_AtlComModule$initializer$@ATL@@3P6AXXZA 10020308     OposVariant.obj
 0002:0000030c       ?_AtlWinModule$initializer$@ATL@@3P6AXXZA 1002030c     OposVariant.obj
 0002:00000310       ?_Module$initializer$@@3P6AXXZA 10020310     CashChanger.obj
 0002:00000314       ??pConnMap$initializer$@?$IConnectionPointContainerImpl@VCOPOSCashChanger@@@ATL@@0P6AXXZA@@3P6AXXZA 10020314     CashChanger.obj
 0002:00000320       ?__scrt_initialize_tss_var@@3P6AHXZA 10020320     LIBCMT:thread_safe_statics.obj
 0002:00001968       _GS_ExceptionPointers      10021968     LIBCMT:gs_report.obj
 0002:00001af8       ?tokenTable@@3QBUStringLiteral@@B 10021af8     libvcruntime:undname.obj
 0002:00001b78       ?nameTable@@3QBUStringLiteral@@B 10021b78     libvcruntime:undname.obj
 0002:00001e10       ?rttiTable@@3QBUStringLiteral@@B 10021e10     libvcruntime:undname.obj
 0002:00001e38       ?IndirectionName@@3QBUStringLiteral@@B 10021e38     libvcruntime:undname.obj
 0002:00001e68       ?PrefixName@@3QBUStringLiteral@@B 10021e68     libvcruntime:undname.obj
 0002:00002498       ?module_names@?A0x9d0f8d90@@3QBQB_WB 10022498     libvcruntime:winapi_downlevel.obj
 0002:00002540       ?candidate_modules@?1??try_get_FlsAlloc@@YAP6GKP6GXPAX@Z@ZXZ@4QBW4module_id@?A0x9d0f8d90@@B 10022540     libvcruntime:winapi_downlevel.obj
 0002:00002554       ?candidate_modules@?1??try_get_FlsFree@@YAP6GHK@ZXZ@4QBW4module_id@?A0x9d0f8d90@@B 10022554     libvcruntime:winapi_downlevel.obj
 0002:00002564       ?candidate_modules@?1??try_get_FlsGetValue@@YAP6GPAXK@ZXZ@4QBW4module_id@?A0x9d0f8d90@@B 10022564     libvcruntime:winapi_downlevel.obj
 0002:00002578       ?candidate_modules@?1??try_get_FlsSetValue@@YAP6GHKPAX@ZXZ@4QBW4module_id@?A0x9d0f8d90@@B 10022578     libvcruntime:winapi_downlevel.obj
 0002:0000258c       ?candidate_modules@?1??try_get_InitializeCriticalSectionEx@@YAP6GHPAU_RTL_CRITICAL_SECTION@@KK@ZXZ@4QBW4module_id@?A0x9d0f8d90@@B 1002258c     libvcruntime:winapi_downlevel.obj
 0002:000025b0       ?errtable@@3QBUerrentry@?A0x31fdb9ec@@B 100225b0     libucrt:errno.obj
 0002:00002bf8       ___acrt_initializers       10022bf8     libucrt:initialization.obj
 0002:00002c78       ?module_names@?A0x391cf84c@@3QBQB_WB 10022c78     libucrt:winapi_thunks.obj
 0002:000030f0       ?candidate_modules@?1??try_get_AreFileApisANSI@@YAP6GHXZXZ@4QBW4module_id@?A0x391cf84c@@B 100230f0     libucrt:winapi_thunks.obj
 0002:00003104       ?candidate_modules@?1??try_get_FlsAlloc@@YAP6GKP6GXPAX@Z@ZXZ@4QBW4module_id@?A0x391cf84c@@B 10023104     libucrt:winapi_thunks.obj
 0002:0000310c       ?candidate_modules@?1??try_get_FlsFree@@YAP6GHK@ZXZ@4QBW4module_id@?A0x391cf84c@@B 1002310c     libucrt:winapi_thunks.obj
 0002:00003114       ?candidate_modules@?1??try_get_FlsGetValue@@YAP6GPAXK@ZXZ@4QBW4module_id@?A0x391cf84c@@B 10023114     libucrt:winapi_thunks.obj
 0002:0000311c       ?candidate_modules@?1??try_get_FlsSetValue@@YAP6GHKPAX@ZXZ@4QBW4module_id@?A0x391cf84c@@B 1002311c     libucrt:winapi_thunks.obj
 0002:00003124       ?candidate_modules@?1??try_get_InitializeCriticalSectionEx@@YAP6GHPAU_RTL_CRITICAL_SECTION@@KK@ZXZ@4QBW4module_id@?A0x391cf84c@@B 10023124     libucrt:winapi_thunks.obj
 0002:0000312c       ?candidate_modules@?1??try_get_LCMapStringEx@@YAP6GHPB_WK0HPA_WHPAU_nlsversioninfo@@PAXJ@ZXZ@4QBW4module_id@?A0x391cf84c@@B 1002312c     libucrt:winapi_thunks.obj
 0002:00003144       ?candidate_modules@?1??try_get_LocaleNameToLCID@@YAP6GKPB_WK@ZXZ@4QBW4module_id@?A0x391cf84c@@B 10023144     libucrt:winapi_thunks.obj
 0002:00003160       ?candidate_modules@?1??try_get_AppPolicyGetProcessTerminationMethod@@YAP6GJPAXPAW4AppPolicyProcessTerminationMethod@@@ZXZ@4QBW4module_id@?A0x391cf84c@@B 10023160     libucrt:winapi_thunks.obj
 0002:0000318c       ?candidate_modules@?1??try_get_SetThreadStackGuarantee@@YAP6GHPAK@ZXZ@4QBW4module_id@?A0x391cf84c@@B 1002318c     libucrt:winapi_thunks.obj
 0002:000031b0       ?strings@?1??fp_format_nan_or_infinity@@YAHW4__acrt_fp_class@@_NPADI1@Z@4QAY03QBDA 100231b0     libucrt:cvt.obj
 0002:000036f8       ?_mb_locale_names@@3QBQB_WB 100236f8     libucrt:mbctype.obj
 0002:00003f40       ?LcidToLocaleNameTable@?A0x881e4c05@@3QBULcidToLocaleName@1@B 10023f40     libucrt:lcidtoname_downlevel.obj
 0002:00005068       ?LocaleNameToIndexTable@?A0x881e4c05@@3QBULocaleNameIndex@1@B 10025068     libucrt:lcidtoname_downlevel.obj
 0002:000069a0       LOG_name                   100269a0     libucrt:log10_impl.obj
 0002:000069b0       _One                       100269b0     libucrt:ceil_pentium4.obj
 0002:000069c0       _Bns                       100269c0     libucrt:ceil_pentium4.obj
 0002:000069d0       _Zero                      100269d0     libucrt:ceil_pentium4.obj
 0002:000069e0       _S                         100269e0     libucrt:ceil_pentium4.obj
 0002:000069f0       _NegZero                   100269f0     libucrt:ceil_pentium4.obj
 0002:00006a00       emask                      10026a00     libucrt:log10_pentium4.obj
 0002:00006a10       CC                         10026a10     libucrt:log10_pentium4.obj
 0002:00006a20       Magic                      10026a20     libucrt:log10_pentium4.obj
 0002:00006a30       hi_mask                    10026a30     libucrt:log10_pentium4.obj
 0002:00006a40       LOG10_2                    10026a40     libucrt:log10_pentium4.obj
 0002:00006a50       place_L                    10026a50     libucrt:log10_pentium4.obj
 0002:00006a70       One                        10026a70     libucrt:log10_pentium4.obj
 0002:00006a80       Zero                       10026a80     libucrt:log10_pentium4.obj
 0002:00006a90       Two52                      10026a90     libucrt:log10_pentium4.obj
 0002:00006aa0       Infs                       10026aa0     libucrt:log10_pentium4.obj
 0002:00006ab0       NaN                        10026ab0     libucrt:log10_pentium4.obj
 0002:00006ac0       coeff                      10026ac0     libucrt:log10_pentium4.obj
 0002:00006b1e       _log2max                   10026b1e     libucrt:87tran.obj
 0002:00006b28       _smallarg                  10026b28     libucrt:87tran.obj
 0002:00006b32       _half                      10026b32     libucrt:87tran.obj
 0002:00006b7e       One                        10026b7e     libucrt:87disp.obj
 0002:00006b86       Three                      10026b86     libucrt:87disp.obj
 0002:00006b8e       XAMtoTagTab                10026b8e     libucrt:87disp.obj
 0002:00006ba0       One                        10026ba0     libucrt:common.obj
 0002:00006bb4       DblMax                     10026bb4     libucrt:common.obj
 0002:00006bbc       DblMin                     10026bbc     libucrt:common.obj
 0002:00006bc4       IeeeAdjO                   10026bc4     libucrt:common.obj
 0002:00006bcc       IeeeAdjU                   10026bcc     libucrt:common.obj
 0002:00006bd4       _infinity                  10026bd4     libucrt:common.obj
 0002:00006bdc       _zero                      10026bdc     libucrt:common.obj
 0002:00006c28       _over                      10026c28     libucrt:fpctrl.obj
 0002:00006c34       _under                     10026c34     libucrt:fpctrl.obj
 0002:00007468       ?_names@?1??_get_fname@@9@9 10027468     libucrt:fpexcept.obj
 0002:00007610       two32                      10027610     LIBCMT:ftol2.obj
 0002:00007614       two63                      10027614     LIBCMT:ftol2.obj
 0002:00007618       _NaN                       10027618     LIBCMT:ftol2.obj
 0002:00007cd0       __sehtable$?_AtlVerifyStackAvailable@_ATL_SAFE_ALLOCA_IMPL@ATL@@YA_NK@Z 10027cd0     CashChanger.obj
 0002:00007cf0       __sehtable$___scrt_is_nonwritable_in_current_image 10027cf0     LIBCMT:utility.obj
 0002:00007d0c       __catchsym$??2@YAPAXIABUnothrow_t@std@@@Z$2 10027d0c     LIBCMT:new_scalar_nothrow.obj
 0002:00007d1c       __unwindtable$??2@YAPAXIABUnothrow_t@std@@@Z 10027d1c     LIBCMT:new_scalar_nothrow.obj
 0002:00007d2c       __tryblocktable$??2@YAPAXIABUnothrow_t@std@@@Z 10027d2c     LIBCMT:new_scalar_nothrow.obj
 0002:00007d40       __ehfuncinfo$??2@YAPAXIABUnothrow_t@std@@@Z 10027d40     LIBCMT:new_scalar_nothrow.obj
 0002:00007d68       __sehtable$?dllmain_crt_process_attach@@YAHQAUHINSTANCE__@@QAX@Z 10027d68     LIBCMT:dll_dllmain.obj
 0002:00007d88       __sehtable$?dllmain_crt_process_detach@@YAH_N@Z 10027d88     LIBCMT:dll_dllmain.obj
 0002:00007db0       __sehtable$?dllmain_dispatch@@YAHQAUHINSTANCE__@@KQAX@Z 10027db0     LIBCMT:dll_dllmain.obj
 0002:00007e60       __sehtable$___DestructExceptionObject 10027e60     libvcruntime:ehhelpers.obj
 0002:00007e80       __sehtable$?FrameUnwindToState@__FrameHandler3@@SAXPAUEHRegistrationNode@@PAXPBU_s_FuncInfo@@H@Z 10027e80     libvcruntime:frame.obj
 0002:00007ea8       __sehtable$?CallCatchBlock@@YAPAXPAUEHExceptionRecord@@PAUEHRegistrationNode@@PAU_CONTEXT@@PBU_s_FuncInfo@@PAXHK@Z 10027ea8     libvcruntime:frame.obj
 0002:00007ed0       __catchsym$?CallUnexpected@@YAXPBU_s_ESTypeList@@@Z$2 10027ed0     libvcruntime:frame.obj
 0002:00007ee0       __unwindtable$?CallUnexpected@@YAXPBU_s_ESTypeList@@@Z 10027ee0     libvcruntime:frame.obj
 0002:00007ef0       __tryblocktable$?CallUnexpected@@YAXPBU_s_ESTypeList@@@Z 10027ef0     libvcruntime:frame.obj
 0002:00007f04       __ehfuncinfo$?CallUnexpected@@YAXPBU_s_ESTypeList@@@Z 10027f04     libvcruntime:frame.obj
 0002:00007f28       __sehtable$??$BuildCatchObjectHelperInternal@V__FrameHandler3@@@@YAHPAUEHExceptionRecord@@PAXPBU_s_HandlerType@@PBU_s_CatchableType@@@Z 10027f28     libvcruntime:frame.obj
 0002:00007f48       __sehtable$??$BuildCatchObjectInternal@V__FrameHandler3@@@@YAXPAUEHExceptionRecord@@PAXPBU_s_HandlerType@@PBU_s_CatchableType@@@Z 10027f48     libvcruntime:frame.obj
 0002:00007fa0       __sehtable$??R<lambda_6e4b09c48022b2350581041d5f6b0c4c>@@QBE@XZ 10027fa0     libucrt:exit.obj
 0002:00007fc0       __sehtable$??$?RV<lambda_03b1d95aef87969028cfba75ccab2455>@@AAV<lambda_6e4b09c48022b2350581041d5f6b0c4c>@@V<lambda_22bdf7517842c4b3e53723af5aa32b9e>@@@?$__crt_seh_guarded_call@X@@QAEX$$QAV<lambda_03b1d95aef87969028cfba75ccab2455>@@AAV<lambda_6e4b09c48022b2350581041d5f6b0c4c>@@$$QAV<lambda_22bdf7517842c4b3e53723af5aa32b9e>@@@Z 10027fc0     libucrt:exit.obj
 0002:00007fe0       __sehtable$??$?RV<lambda_8e746cf0007f6ed984d6f78af1fec997>@@AAV<lambda_22ebabd17bc4fa466a2aca6d8deb888d>@@V<lambda_18ed0c0b38a6dc0daf1e7ac6d6adf05e>@@@?$__crt_seh_guarded_call@H@@QAEH$$QAV<lambda_8e746cf0007f6ed984d6f78af1fec997>@@AAV<lambda_22ebabd17bc4fa466a2aca6d8deb888d>@@$$QAV<lambda_18ed0c0b38a6dc0daf1e7ac6d6adf05e>@@@Z 10027fe0     libucrt:onexit.obj
 0002:00008000       __sehtable$??$?RV<lambda_69a2805e680e0e292e8ba93315fe43a8>@@AAV<lambda_f03950bc5685219e0bcd2087efbe011e>@@V<lambda_03fcd07e894ec930e3f35da366ca99d6>@@@?$__crt_seh_guarded_call@H@@QAEH$$QAV<lambda_69a2805e680e0e292e8ba93315fe43a8>@@AAV<lambda_f03950bc5685219e0bcd2087efbe011e>@@$$QAV<lambda_03fcd07e894ec930e3f35da366ca99d6>@@@Z 10028000     libucrt:onexit.obj
 0002:00008020       __sehtable$__query_new_handler 10028020     libucrt:new_handler.obj
 0002:00008040       __sehtable$_terminate      10028040     libucrt:terminate.obj
 0002:00008060       __sehtable$??$?RV<lambda_15ade71b0218206bbe3333a0c9b79046>@@AAV<lambda_da44e0f8b0f19ba52fefafb335991732>@@V<lambda_207f2d024fc103971653565357d6cd41>@@@?$__crt_seh_guarded_call@X@@QAEX$$QAV<lambda_15ade71b0218206bbe3333a0c9b79046>@@AAV<lambda_da44e0f8b0f19ba52fefafb335991732>@@$$QAV<lambda_207f2d024fc103971653565357d6cd41>@@@Z 10028060     libucrt:per_thread_data.obj
 0002:00008080       __sehtable$??$?RV<lambda_a7e850c220f1c8d1e6efeecdedd162c6>@@AAV<lambda_46720907175c18b6c9d2717bc0d2d362>@@V<lambda_9048902d66e8d99359bc9897bbb930a8>@@@?$__crt_seh_guarded_call@X@@QAEX$$QAV<lambda_a7e850c220f1c8d1e6efeecdedd162c6>@@AAV<lambda_46720907175c18b6c9d2717bc0d2d362>@@$$QAV<lambda_9048902d66e8d99359bc9897bbb930a8>@@@Z 10028080     libucrt:per_thread_data.obj
 0002:000080a0       __sehtable$??$?RV<lambda_38edbb1296d33220d7e4dd0ed76b244a>@@AAV<lambda_5ce1d447e08cb34b2473517608e21441>@@V<lambda_fb385d3da700c9147fc39e65dd577a8c>@@@?$__crt_seh_guarded_call@X@@QAEX$$QAV<lambda_38edbb1296d33220d7e4dd0ed76b244a>@@AAV<lambda_5ce1d447e08cb34b2473517608e21441>@@$$QAV<lambda_fb385d3da700c9147fc39e65dd577a8c>@@@Z 100280a0     libucrt:per_thread_data.obj
 0002:000080c0       __sehtable$??$?RV<lambda_6affb1475c98b40b75cdec977db92e3c>@@AAV<lambda_b8d4b9c228a6ecc3f80208dbb4b4a104>@@V<lambda_608742c3c92a14382c1684fc64f96c88>@@@?$__crt_seh_guarded_call@X@@QAEX$$QAV<lambda_6affb1475c98b40b75cdec977db92e3c>@@AAV<lambda_b8d4b9c228a6ecc3f80208dbb4b4a104>@@$$QAV<lambda_608742c3c92a14382c1684fc64f96c88>@@@Z 100280c0     libucrt:per_thread_data.obj
 0002:000080e0       __sehtable$??$?RV<lambda_e5124f882df8998aaf41531e079ba474>@@AAV<lambda_3e16ef9562a7dcce91392c22ab16ea36>@@V<lambda_e25ca0880e6ef98be67edffd8c599615>@@@?$__crt_seh_guarded_call@X@@QAEX$$QAV<lambda_e5124f882df8998aaf41531e079ba474>@@AAV<lambda_3e16ef9562a7dcce91392c22ab16ea36>@@$$QAV<lambda_e25ca0880e6ef98be67edffd8c599615>@@@Z 100280e0     libucrt:wsetlocale.obj
 0002:00008100       __sehtable$___acrt_initialize_lowio 10028100     libucrt:ioinit.obj
 0002:00008120       __sehtable$?update_thread_multibyte_data_internal@@YAPAU__crt_multibyte_data@@QAU__acrt_ptd@@QAPAU1@@Z 10028120     libucrt:mbctype.obj
 0002:00008140       __sehtable$??$?RV<lambda_ceb1ee4838e85a9d631eb091e2fbe199>@@AAV<lambda_ae742caa10f662c28703da3d2ea5e57e>@@V<lambda_cd08b5d6af4937fe54fc07d0c9bf6b37>@@@?$__crt_seh_guarded_call@X@@QAEX$$QAV<lambda_ceb1ee4838e85a9d631eb091e2fbe199>@@AAV<lambda_ae742caa10f662c28703da3d2ea5e57e>@@$$QAV<lambda_cd08b5d6af4937fe54fc07d0c9bf6b37>@@@Z 10028140     libucrt:mbctype.obj
 0002:00008160       __sehtable$_raise          10028160     libucrt:signal.obj
 0002:00008180       __sehtable$??$?RV<lambda_cbab9ec6f41b0180b23cc171c22676b0>@@AAV<lambda_44731a7d0e6d81c3e6aa82d741081786>@@V<lambda_4b292cb8dd18144e164572427af410ab>@@@?$__crt_seh_guarded_call@P6AXH@Z@@QAEP6AXH@Z$$QAV<lambda_cbab9ec6f41b0180b23cc171c22676b0>@@AAV<lambda_44731a7d0e6d81c3e6aa82d741081786>@@$$QAV<lambda_4b292cb8dd18144e164572427af410ab>@@@Z 10028180     libucrt:signal.obj
 0002:000081a0       __sehtable$??$?RV<lambda_2866be3712abc81a800a822484c830d8>@@AAV<lambda_39ca0ed439415581b5b15c265174cece>@@V<lambda_2b24c74d71094a6cd0cb82e44167d71b>@@@?$__crt_seh_guarded_call@X@@QAEX$$QAV<lambda_2866be3712abc81a800a822484c830d8>@@AAV<lambda_39ca0ed439415581b5b15c265174cece>@@$$QAV<lambda_2b24c74d71094a6cd0cb82e44167d71b>@@@Z 100281a0     libucrt:fflush.obj
 0002:000081c0       __sehtable$??$?RV<lambda_2cc53f568c5a2bb6f192f930a45d44ea>@@AAV<lambda_ab61a845afdef5b7c387490eaf3616ee>@@V<lambda_c2ffc0b7726aa6be21d5f0026187e748>@@@?$__crt_seh_guarded_call@X@@QAEX$$QAV<lambda_2cc53f568c5a2bb6f192f930a45d44ea>@@AAV<lambda_ab61a845afdef5b7c387490eaf3616ee>@@$$QAV<lambda_c2ffc0b7726aa6be21d5f0026187e748>@@@Z 100281c0     libucrt:fflush.obj
 0002:000081e0       __sehtable$___acrt_update_thread_locale_data 100281e0     libucrt:locale_refcounting.obj
 0002:00008200       __sehtable$__fcloseall     10028200     libucrt:closeall.obj
 0002:00008220       __sehtable$___acrt_lowio_ensure_fh_exists 10028220     libucrt:osfinfo.obj
 0002:00008240       __sehtable$??$?RV<lambda_9e9de3de5fa147e2223d7db92bc10aa6>@@AAV<lambda_38ce7e780aa69e748d6df282ebc68efe>@@V<lambda_8ca6da459f0f6780f1cff60fdc3d00e5>@@@?$__crt_seh_guarded_call@H@@QAEH$$QAV<lambda_9e9de3de5fa147e2223d7db92bc10aa6>@@AAV<lambda_38ce7e780aa69e748d6df282ebc68efe>@@$$QAV<lambda_8ca6da459f0f6780f1cff60fdc3d00e5>@@@Z 10028240     libucrt:commit.obj
 0002:00008260       __sehtable$__write         10028260     libucrt:write.obj
 0002:00008280       __sehtable$_fclose         10028280     libucrt:fclose.obj
 0002:000082a0       __sehtable$??$?RV<lambda_218ce3db14220d0be481dae8ef3383b6>@@AAV<lambda_628dfdc04ba53c8bfc02c9951375f3f5>@@V<lambda_57dc472bd5c9d5f3b2cbca59b8a843ae>@@@?$__crt_seh_guarded_call@H@@QAEH$$QAV<lambda_218ce3db14220d0be481dae8ef3383b6>@@AAV<lambda_628dfdc04ba53c8bfc02c9951375f3f5>@@$$QAV<lambda_57dc472bd5c9d5f3b2cbca59b8a843ae>@@@Z 100282a0     libucrt:close.obj
 0002:000082c0       __sehtable$___set_fpsr_sse2 100282c0     libucrt:fpctrl.obj
 0002:000082e0       __sehtable$__IsNonwritableInCurrentImage 100282e0     LIBCMT:pesect.obj
 0002:00008310       .edata                     10028310     OPOSCashChanger.exp
 0002:00008338       rgpv                       10028338     OPOSCashChanger.exp
 0002:00008348       rgszName                   10028348     OPOSCashChanger.exp
 0002:00008358       rgwOrd                     10028358     OPOSCashChanger.exp
 0002:00008360       szName                     10028360     OPOSCashChanger.exp
 0002:00008374       $N00001                    10028374     OPOSCashChanger.exp
 0002:00008384       $N00002                    10028384     OPOSCashChanger.exp
 0002:00008396       $N00003                    10028396     OPOSCashChanger.exp
 0002:000083a8       $N00004                    100283a8     OPOSCashChanger.exp
 0002:000089b6       .idata$6                   100289b6     kernel32:KERNEL32.dll
 0002:00008bca       .idata$6                   10028bca     user32:USER32.dll
 0002:00008cfe       .idata$6                   10028cfe     gdi32:GDI32.dll
 0002:00008da4       .idata$6                   10028da4     advapi32:ADVAPI32.dll
 0002:00008ec0       .idata$6                   10028ec0     ole32:ole32.dll
 0002:00008eca       .idata$6                   10028eca     oleaut32:OLEAUT32.dll
 0003:00000110       ?ObjectMap@@3PAU_ATL_OBJMAP_ENTRY30@ATL@@A 1002a110     CashChanger.obj
 0003:000001d0       ?s_SOMethodNames@@3PAPADA  1002a1d0     CashChangerImpl.obj
 0003:00000238       ?s_RequiredMethodsPerRelease@@3PAHA 1002a238     CashChangerImpl.obj
 0003:00000280       ?__vcrt_flsindex@@3KA      1002a280     libvcruntime:per_thread_data.obj
 0003:000002a0       ?errno_no_memory@@3HA      1002a2a0     libucrt:errno.obj
 0003:000002a4       ?doserrno_no_memory@@3KA   1002a2a4     libucrt:errno.obj
 0003:000002b0       ?__acrt_flsindex@@3KA      1002a2b0     libucrt:per_thread_data.obj
 0003:00000648       __mbctypes                 1002a648     libucrt:mbctype.obj
 0003:00000750       __mbcasemaps               1002a750     libucrt:mbctype.obj
 0003:00000850       ?__rgctypeflag@@3PADA      1002a850     libucrt:mbctype.obj
 0003:00000858       ?__rgcode_page_info@@3PAUcode_page_info@@A 1002a858     libucrt:mbctype.obj
 0003:00000ab0       ?__dcrt_lowio_console_output_handle@@3PAXA 1002aab0     libucrt:initcon.obj
 0003:00000ab4       ?__DAZ_ENABLED@?1??__set_fpsr_sse2@@9@9 1002aab4     libucrt:fpctrl.obj
 0003:00000c48       ?is_initialized_as_dll@@3_NA 1002ac48     LIBCMT:utility.obj
 0003:00000c49       ?module_local_atexit_table_initialized@@3_NA 1002ac49     LIBCMT:utility.obj
 0003:00000c4c       ?module_local_atexit_table@@3U_onexit_table_t@@A 1002ac4c     LIBCMT:utility.obj
 0003:00000c58       ?module_local_at_quick_exit_table@@3U_onexit_table_t@@A 1002ac58     LIBCMT:utility.obj
 0003:00000c64       ?g_tss_cv@@3U_RTL_CONDITION_VARIABLE@@A 1002ac64     LIBCMT:thread_safe_statics.obj
 0003:00000c68       ?g_tss_event@@3PAXA        1002ac68     LIBCMT:thread_safe_statics.obj
 0003:00000c6c       ?g_tss_mutex@@3U_RTL_CRITICAL_SECTION@@A 1002ac6c     LIBCMT:thread_safe_statics.obj
 0003:00000c84       ?g_sleep_condition_variable_cs@@3P6GHPAU_RTL_CONDITION_VARIABLE@@PAU_RTL_CRITICAL_SECTION@@K@ZA 1002ac84     LIBCMT:thread_safe_statics.obj
 0003:00000c88       ?g_wake_all_condition_variable@@3P6GXPAU_RTL_CONDITION_VARIABLE@@@ZA 1002ac88     LIBCMT:thread_safe_statics.obj
 0003:00000c90       _GS_ExceptionRecord        1002ac90     LIBCMT:gs_report.obj
 0003:00000ce0       _GS_ContextRecord          1002ace0     LIBCMT:gs_report.obj
 0003:00000fb0       ?__proc_attached@@3HA      1002afb0     LIBCMT:dll_dllmain.obj
 0003:0000100c       ?AllocateData@@3P6GPAUAtlThunkData_t@@XZA 1002b00c     atls:atlthunk.obj
 0003:00001010       ?InitData@@3P6GXPAUAtlThunkData_t@@PAXI@ZA 1002b010     atls:atlthunk.obj
 0003:00001014       ?DataToCode@@3P6GP6GJPAUHWND__@@IIJ@ZPAUAtlThunkData_t@@@ZA 1002b014     atls:atlthunk.obj
 0003:00001018       ?FreeData@@3P6GXPAUAtlThunkData_t@@@ZA 1002b018     atls:atlthunk.obj
 0003:0000101c       ?Initialized@@3_NA         1002b01c     atls:atlthunk.obj
 0003:0000102c       ?__vcrt_startup_thread_ptd@@3U__vcrt_ptd@@A 1002b02c     libvcruntime:per_thread_data.obj
 0003:00001054       ___vcrt_lock_table         1002b054     libvcruntime:locks.obj
 0003:0000106c       ___vcrt_locks_initialized  1002b06c     libvcruntime:locks.obj
 0003:00001098       ?heap@@3V_HeapManager@@A   1002b098     libvcruntime:undname.obj
 0003:000010ac       ?module_handles@@3PAPAUHINSTANCE__@@A 1002b0ac     libvcruntime:winapi_downlevel.obj
 0003:000010b8       ?function_pointers@@3PAPAXA 1002b0b8     libvcruntime:winapi_downlevel.obj
 0003:000010cc       ?__acrt_invalid_parameter_handler@@3V?$dual_state_global@P6AXPB_W00II@Z@__crt_state_management@@A 1002b0cc     libucrt:invalid_parameter.obj
 0003:000010d0       ?c_termination_complete@@3JA 1002b0d0     libucrt:exit.obj
 0003:000010d4       ?thread_local_exit_callback_func@@3P6GXPAXK0@ZA 1002b0d4     libucrt:exit.obj
 0003:000010e0       ?program_name@?1???$common_configure_argv@D@@YAHW4_crt_argv_mode@@@Z@4PADA 1002b0e0     libucrt:argv_parsing.obj
 0003:00001210       ?__acrt_new_handler@@3V?$dual_state_global@P6AHI@Z@__crt_state_management@@A 1002b210     libucrt:new_handler.obj
 0003:00001218       ?module_handles@@3PAPAUHINSTANCE__@@A 1002b218     libucrt:winapi_thunks.obj
 0003:00001268       ?encoded_function_pointers@@3PAPAXA 1002b268     libucrt:winapi_thunks.obj
 0003:000012f0       ?internal_state@?1??_mbtowc_l@@9@4U_Mbstatet@@A 1002b2f0     libucrt:mbtowc.obj
 0003:00001300       ?enable_percent_n@@3IA     1002b300     libucrt:printf_count_output.obj
 0003:00001520       ?__acrt_lock_table@@3PAU_RTL_CRITICAL_SECTION@@A 1002b520     libucrt:locks.obj
 0003:00001670       ?__acrt_locks_initialized@@3IA 1002b670     libucrt:locks.obj
 0003:00001680       ?fSystemSet@@3HA           1002b680     libucrt:mbctype.obj
 0003:00001684       ?initialized@?1??__acrt_initialize_multibyte@@9@4_NA 1002b684     libucrt:mbctype.obj
 0003:000016a4       ?ctrlc_action@@3V?$dual_state_global@P6AXH@Z@__crt_state_management@@A 1002b6a4     libucrt:signal.obj
 0003:000016a8       ?ctrlbreak_action@@3V?$dual_state_global@P6AXH@Z@__crt_state_management@@A 1002b6a8     libucrt:signal.obj
 0003:000016ac       ?abort_action@@3V?$dual_state_global@P6AXH@Z@__crt_state_management@@A 1002b6ac     libucrt:signal.obj
 0003:000016b0       ?term_action@@3V?$dual_state_global@P6AXH@Z@__crt_state_management@@A 1002b6b0     libucrt:signal.obj
 0003:000016b4       ?user_matherr@@3V?$dual_state_global@P6AHPAU_exception@@@Z@__crt_state_management@@A 1002b6b4     libucrt:matherr.obj
 0003:000016b8       ?__acrt_global_new_mode@@3V?$dual_state_global@J@__crt_state_management@@A 1002b6b8     libucrt:new_mode.obj
 0003:000016c4       ?internal_pst@?1??__mbrtoc32_utf8@__crt_mbstring@@YAIPA_UPBDIPAU_Mbstatet@@@Z@4U3@A 1002b6c4     libucrt:mbrtoc32.obj
 0003:000016cc       ?__acrt_app_type@@3W4_crt_app_type@@A 1002b6cc     libucrt:report_runtime_error.obj
 0003:000016d4       __pmatherr_set             1002b6d4     libucrt:libm_error.obj
 0004:00000220       $R000000                   1002c220     CashChanger.res
 0004:00000bc0       $R0009A0                   1002cbc0     CashChanger.res
 0004:00000ca8       $R000A88                   1002cca8     CashChanger.res
 0004:00000f10       $R000CF0                   1002cf10     CashChanger.res
 0004:00001480       $R001260                   1002d480     CashChanger.res
 0004:00004f00       $R004CE0                   10030f00     CashChanger.res
 0004:00004f38       $R004D18                   10030f38     CashChanger.res
