 OPOSLights

 Timestamp is 600f790a (Tue Jan 26 11:06:02 2021)

 Preferred load address is 10000000

 Start         Length     Name                   Class
 0001:00000000 00000080H .text$di                CODE
 0001:00000080 0001de23H .text$mn                CODE
 0001:0001dea3 0000003aH .text$x                 CODE
 0001:0001dedd 00000042H .text$yd                CODE
 0002:00000000 000002fcH .idata$5                DATA
 0002:000002fc 00000004H .00cfg                  DATA
 0002:00000300 00000004H .CRT$XCA                DATA
 0002:00000304 00000004H .CRT$XCL                DATA
 0002:00000308 00000010H .CRT$XCU                DATA
 0002:00000318 00000004H .CRT$XCZ                DATA
 0002:0000031c 00000004H .CRT$XIA                DATA
 0002:00000320 00000010H .CRT$XIC                DATA
 0002:00000330 00000004H .CRT$XIZ                DATA
 0002:00000334 00000004H .CRT$XLA                DATA
 0002:00000338 00000004H .CRT$XLZ                DATA
 0002:0000033c 00000004H .CRT$XPA                DATA
 0002:00000340 00000008H .CRT$XPX                DATA
 0002:00000348 00000004H .CRT$XPXA               DATA
 0002:0000034c 00000004H .CRT$XPZ                DATA
 0002:00000350 00000004H .CRT$XTA                DATA
 0002:00000354 0000000cH .CRT$XTZ                DATA
 0002:00000358 00000000H .gfids$y                DATA
 0002:00000360 000071a0H .rdata                  DATA
 0002:00007500 00000000H .rdata$CastGuardVftablesA DATA
 0002:00007500 00000000H .rdata$CastGuardVftablesC DATA
 0002:00007500 00000018H .rdata$T                DATA
 0002:00007518 00000178H .rdata$r                DATA
 0002:00007690 0000001cH .rdata$sxdata           DATA
 0002:000076ac 000003dcH .rdata$zzzdbg           DATA
 0002:00007a88 00000004H .rtc$IAA                DATA
 0002:00007a8c 00000004H .rtc$IZZ                DATA
 0002:00007a90 00000004H .rtc$TAA                DATA
 0002:00007a94 00000004H .rtc$TZZ                DATA
 0002:00007a98 00000004H .tls                    DATA
 0002:00007a9c 00000004H .tls$                   DATA
 0002:00007aa0 00000008H .tls$ZZZ                DATA
 0002:00007aa8 0000062cH .xdata$x                DATA
 0002:000080d4 00000004H ATL$__a                 DATA
 0002:000080d8 00000008H ATL$__z                 DATA
 0002:000080e0 000000a8H .edata                  DATA
 0002:00008188 00000078H .idata$2                DATA
 0002:00008200 00000014H .idata$3                DATA
 0002:00008214 000002fcH .idata$4                DATA
 0002:00008510 00000bceH .idata$6                DATA
 0003:00000000 00000a80H .data                   DATA
 0003:00000a80 00000098H .data$r                 DATA
 0003:00000b18 00000b88H .bss                    DATA
 0004:00000000 00000220H .rsrc$01                DATA
 0004:00000220 000036a8H .rsrc$02                DATA

  Address         Publics by Value              Rva+Base       Lib:Object

 0000:00000000       ___guard_fids_count        00000000     <absolute>
 0000:00000000       ___guard_eh_cont_table     00000000     <absolute>
 0000:00000000       ___guard_longjmp_table     00000000     <absolute>
 0000:00000000       ___volatile_metadata       00000000     <absolute>
 0000:00000000       ___arm64x_extra_rfe_table  00000000     <absolute>
 0000:00000000       ___arm64x_redirection_metadata 00000000     <absolute>
 0000:00000000       ___guard_iat_count         00000000     <absolute>
 0000:00000000       ___guard_eh_cont_count     00000000     <absolute>
 0000:00000000       __except_list              00000000     <absolute>
 0000:00000000       ___x64_code_ranges_to_entry_points_count 00000000     <absolute>
 0000:00000000       ___hybrid_code_map_count   00000000     <absolute>
 0000:00000000       ___x64_code_ranges_to_entry_points 00000000     <absolute>
 0000:00000000       ___guard_iat_table         00000000     <absolute>
 0000:00000000       ___arm64x_native_entrypoint 00000000     <absolute>
 0000:00000000       ___hybrid_code_map         00000000     <absolute>
 0000:00000000       ___arm64x_extra_rfe_table_size 00000000     <absolute>
 0000:00000000       ___guard_longjmp_count     00000000     <absolute>
 0000:00000000       ___arm64x_redirection_metadata_count 00000000     <absolute>
 0000:00000000       ___hybrid_auxiliary_iat    00000000     <absolute>
 0000:00000000       ___dynamic_value_reloc_table 00000000     <absolute>
 0000:00000000       ___AbsoluteZero            00000000     <absolute>
 0000:00000000       ___enclave_config          00000000     <absolute>
 0000:00000000       ___guard_fids_table        00000000     <absolute>
 0000:00000007       ___safe_se_handler_count   00000007     <absolute>
 0000:0000002c       __tls_array                0000002c     <absolute>
 0000:00000100       ___guard_flags             00000100     <absolute>
 0000:00000000       ___ImageBase               10000000     <linker-defined>
 0001:00000080       ?DupWide@_CW@@AAEXXZ       10001080 f   CWString.obj
 0001:0000009c       ?cw_dup@@YGXPBDAAHAAPA_W1@Z 1000109c f   CWString.obj
 0001:00000124       ?cw_memcpy@@YGHPA_WPBDH@Z  10001124 f   CWString.obj
 0001:00000150       ?cw_strcpy@@YAHPA_WPBD@Z   10001150 f   CWString.obj
 0001:00000163       ?cw_strlen@@YAHPBD@Z       10001163 f   CWString.obj
 0001:0000017c       ??0CAtlComModule@ATL@@QAE@XZ 1000117c f i OposVariant.obj
 0001:000001c1       ??0CAtlWinModule@ATL@@QAE@XZ 100011c1 f i OposVariant.obj
 0001:000001f8       ??0OposDispParms@@QAE@PAVOposVariant@@H@Z 100011f8 f   OposVariant.obj
 0001:00000269       ??1OposDispParms@@QAE@XZ   10001269 f   OposVariant.obj
 0001:00000277       ??A?$CSimpleArray@GV?$CSimpleArrayEqualHelper@G@ATL@@@ATL@@QAEAAGH@Z 10001277 f i OposVariant.obj
 0001:0000029c       ??_Estringdispid@CComTypeInfoHolder@ATL@@QAEPAXI@Z 1000129c f i OposVariant.obj
 0001:00000308       ?AtlWinModuleInit@ATL@@YGJPAU_ATL_WIN_MODULE70@1@@Z 10001308 f i OposVariant.obj
 0001:0000032e       ?AtlWinModuleTerm@ATL@@YGJPAU_ATL_WIN_MODULE70@1@PAUHINSTANCE__@@@Z 1000132e f i OposVariant.obj
 0001:00000391       ?ChangeBSTR@OposVariant@@QAEXPAPA_WAAJ@Z 10001391 f   OposVariant.obj
 0001:000003d2       ?ChangeLONG@OposVariant@@QAEXPAJAAJ@Z 100013d2 f   OposVariant.obj
 0001:00000413       ?GetLONG@OposVariant@@QAEJXZ 10001413 f   OposVariant.obj
 0001:0000042e       ?Init@CComCriticalSection@ATL@@QAEJXZ 1000142e f i OposVariant.obj
 0001:00000456       ?RemoveAll@?$CSimpleArray@PAUHINSTANCE__@@V?$CSimpleArrayEqualHelper@PAUHINSTANCE__@@@ATL@@@ATL@@QAEXXZ 10001456 f i atls:atlbase.obj
 0001:00000456       ?RemoveAll@?$CSimpleArray@GV?$CSimpleArrayEqualHelper@G@ATL@@@ATL@@QAEXXZ 10001456 f i OposVariant.obj
 0001:00000473       ?SetBSTR@OposVariant@@QAEXPA_WAAJ@Z 10001473 f   OposVariant.obj
 0001:000004a7       ?SetBSTR_Copy@OposVariant@@QAEXPA_WAAJ@Z 100014a7 f   OposVariant.obj
 0001:000004f7       ?SetBSTR_InOutPtr@OposVariant@@QAE_NPAPA_WAAJ@Z 100014f7 f   OposVariant.obj
 0001:0000052e       ?SetDispatch_Ptr@OposVariant@@QAEXPAUIDispatch@@AAJ@Z 1000152e f   OposVariant.obj
 0001:00000569       ?SetLONG@OposVariant@@QAEXJ@Z 10001569 f   OposVariant.obj
 0001:0000058b       ?SetLONG_Ptr@OposVariant@@QAEXPAJAAJ@Z 1000158b f   OposVariant.obj
 0001:000005be       ?SetString@OposVariant@@QAEXPB_WAAJ@Z 100015be f   OposVariant.obj
 0001:00000604       ?SetVARIANT_BOOL@OposVariant@@QAEXF@Z 10001604 f   OposVariant.obj
 0001:0000062e       ?Term@CAtlComModule@ATL@@QAEXXZ 1000162e f i OposVariant.obj
 0001:00000678       ?_AtlRaiseException@ATL@@YAXKK@Z 10001678 f i OposVariant.obj
 0001:0000068d       ?CreateInstance@CComClassFactory@ATL@@UAGJPAUIUnknown@@ABU_GUID@@PAPAX@Z 1000168d f i Lights.obj
 0001:000006cb       ?LockServer@CComClassFactory@ATL@@UAGJH@Z 100016cb f i Lights.obj
 0001:000006ea       ??_ECComClassFactory@ATL@@UAEPAXI@Z 100016ea f i Lights.obj
 0001:000006ea       ??_GCComClassFactory@ATL@@UAEPAXI@Z 100016ea f i Lights.obj
 0001:00000715       ?GetWindowProc@?$CWindowImplBaseT@VCWindow@ATL@@V?$CWinTraits@$0FGAAAAAA@$0A@@2@@ATL@@UAEP6GJPAUHWND__@@IIJ@ZXZ 10001715 f i Lights.obj
 0001:0000071b       ?StartWindowProc@?$CWindowImplBaseT@VCWindow@ATL@@V?$CWinTraits@$0FGAAAAAA@$0A@@2@@ATL@@SGJPAUHWND__@@IIJ@Z 1000171b f i Lights.obj
 0001:0000076f       ?OnFinalMessage@?$CWindowImplBaseT@VCWindow@ATL@@V?$CWinTraits@$0FGAAAAAA@$0A@@2@@ATL@@UAEXPAUHWND__@@@Z 1000176f f i Lights.obj
 0001:0000076f       ?ObjectMain@CComObjectRootBase@ATL@@SGX_N@Z 1000176f f i Lights.obj
 0001:00000772       ?GetTypeInfoCount@?$IDispatchImpl@UIOPOSLights@@$1?IID_IOPOSLights@@3U_GUID@@B$1?LIBID_OposLights_CCO@@3U3@B$00$0A@VCComTypeInfoHolder@ATL@@@ATL@@UAGJPAI@Z 10001772 f i Lights.obj
 0001:0000078f       ?GetTypeInfo@?$IDispatchImpl@UIOPOSLights@@$1?IID_IOPOSLights@@3U_GUID@@B$1?LIBID_OposLights_CCO@@3U3@B$00$0A@VCComTypeInfoHolder@ATL@@@ATL@@UAGJIKPAPAUITypeInfo@@@Z 1000178f f i Lights.obj
 0001:000007b3       ?GetIDsOfNames@?$IDispatchImpl@UIOPOSLights@@$1?IID_IOPOSLights@@3U_GUID@@B$1?LIBID_OposLights_CCO@@3U3@B$00$0A@VCComTypeInfoHolder@ATL@@@ATL@@UAGJABU_GUID@@PAPA_WIKPAJ@Z 100017b3 f i Lights.obj
 0001:000007d3       ?Invoke@?$IDispatchImpl@UIOPOSLights@@$1?IID_IOPOSLights@@3U_GUID@@B$1?LIBID_OposLights_CCO@@3U3@B$00$0A@VCComTypeInfoHolder@ATL@@@ATL@@UAGJJABU_GUID@@KGPAUtagDISPPARAMS@@PAUtagVARIANT@@PAUtagEXCEPINFO@@PAI@Z 100017d3 f i Lights.obj
 0001:000007e1       ?CreateControlWindow@?$CComControl@VCOPOSLights@@V?$CWindowImpl@VCOPOSLights@@VCWindow@ATL@@V?$CWinTraits@$0FGAAAAAA@$0A@@3@@ATL@@@ATL@@UAEPAUHWND__@@PAU3@AAUtagRECT@@@Z 100017e1 f i Lights.obj
 0001:00000810       ?ControlQueryInterface@?$CComControl@VCOPOSLights@@V?$CWindowImpl@VCOPOSLights@@VCWindow@ATL@@V?$CWinTraits@$0FGAAAAAA@$0A@@3@@ATL@@@ATL@@UAEJABU_GUID@@PAPAX@Z 10001810 f i Lights.obj
 0001:0000082b       ?GetClassID@?$IPersistStorageImpl@VCOPOSLights@@@ATL@@UAGJPAU_GUID@@@Z 1000182b f i Lights.obj
 0001:0000082b       ?GetUserClassID@?$IOleObjectImpl@VCOPOSLights@@@ATL@@UAGJPAU_GUID@@@Z 1000182b f i Lights.obj
 0001:0000082b       ?GetClassID@?$IPersistStreamInitImpl@VCOPOSLights@@@ATL@@UAGJPAU_GUID@@@Z 1000182b f i Lights.obj
 0001:0000084f       ?IsDirty@?$IPersistStreamInitImpl@VCOPOSLights@@@ATL@@UAGJXZ 1000184f f i Lights.obj
 0001:0000086e       ?Load@?$IPersistStreamInitImpl@VCOPOSLights@@@ATL@@UAGJPAUIStream@@@Z 1000186e f i Lights.obj
 0001:0000088d       ?Save@?$IPersistStreamInitImpl@VCOPOSLights@@@ATL@@UAGJPAUIStream@@H@Z 1000188d f i Lights.obj
 0001:000008af       ?GetSizeMax@?$IPersistStreamInitImpl@VCOPOSLights@@@ATL@@UAGJPAT_ULARGE_INTEGER@@@Z 100018af f i Lights.obj
 0001:00000a8e       ?InitNew@?$IPersistStreamInitImpl@VCOPOSLights@@@ATL@@UAGJXZ 10001a8e f i Lights.obj
 0001:00000aab       ?ContextSensitiveHelp@?$IOleInPlaceActiveObjectImpl@VCOPOSLights@@@ATL@@UAGJH@Z 10001aab f i Lights.obj
 0001:00000aab       ?QueryGetData@?$IDataObjectImpl@VCOPOSLights@@@ATL@@UAGJPAUtagFORMATETC@@@Z 10001aab f i Lights.obj
 0001:00000aab       ?OnMnemonic@?$IOleControlImpl@VCOPOSLights@@@ATL@@UAGJPAUtagMSG@@@Z 10001aab f i Lights.obj
 0001:00000aab       ?GetControlInfo@?$IOleControlImpl@VCOPOSLights@@@ATL@@UAGJPAUtagCONTROLINFO@@@Z 10001aab f i Lights.obj
 0001:00000aab       ?SOOutputCompleteDummy@COPOSLights@@MAGJJ@Z 10001aab f i Lights.obj
 0001:00000aab       ?SODataDummy@COPOSLights@@MAGJJ@Z 10001aab f i Lights.obj
 0001:00000aab       ?Unfreeze@?$IViewObjectExImpl@VCOPOSLights@@@ATL@@UAGJK@Z 10001aab f i Lights.obj
 0001:00000aab       ?SetColorScheme@?$IOleObjectImpl@VCOPOSLights@@@ATL@@UAGJPAUtagLOGPALETTE@@@Z 10001aab f i Lights.obj
 0001:00000aab       ?ContextSensitiveHelp@?$IOleInPlaceObjectWindowlessImpl@VCOPOSLights@@@ATL@@UAGJH@Z 10001aab f i Lights.obj
 0001:00000aab       ?GetDropTarget@?$IOleInPlaceObjectWindowlessImpl@VCOPOSLights@@@ATL@@UAGJPAPAUIDropTarget@@@Z 10001aab f i Lights.obj
 0001:00000ab3       ?OnAmbientPropertyChange@?$IOleControlImpl@VCOPOSLights@@@ATL@@UAGJJ@Z 10001ab3 f i Lights.obj
 0001:00000ab3       ?EnableModeless@?$IOleInPlaceActiveObjectImpl@VCOPOSLights@@@ATL@@UAGJH@Z 10001ab3 f i Lights.obj
 0001:00000ab3       ?SaveCompleted@?$IPersistStorageImpl@VCOPOSLights@@@ATL@@UAGJPAUIStorage@@@Z 10001ab3 f i Lights.obj
 0001:00000ab3       ?OnFrameWindowActivate@?$IOleInPlaceActiveObjectImpl@VCOPOSLights@@@ATL@@UAGJH@Z 10001ab3 f i Lights.obj
 0001:00000ab8       ?SetClientSite@?$IOleObjectImpl@VCOPOSLights@@@ATL@@UAGJPAUIOleClientSite@@@Z 10001ab8 f i Lights.obj
 0001:00000ad5       ?GetClientSite@?$IOleObjectImpl@VCOPOSLights@@@ATL@@UAGJPAPAUIOleClientSite@@@Z 10001ad5 f i Lights.obj
 0001:00000af2       ?SetHostNames@?$IOleObjectImpl@VCOPOSLights@@@ATL@@UAGJPB_W0@Z 10001af2 f i Lights.obj
 0001:00000af7       ?Close@?$IOleObjectImpl@VCOPOSLights@@@ATL@@UAGJK@Z 10001af7 f i Lights.obj
 0001:00000b14       ?QueryInterface@CRegObject@ATL@@UAGJABU_GUID@@PAPAX@Z 10001b14 f i Lights.obj
 0001:00000b14       ?GetClipboardData@?$IOleObjectImpl@VCOPOSLights@@@ATL@@UAGJKPAPAUIDataObject@@@Z 10001b14 f i Lights.obj
 0001:00000b14       ?SetMoniker@?$IOleObjectImpl@VCOPOSLights@@@ATL@@UAGJKPAUIMoniker@@@Z 10001b14 f i Lights.obj
 0001:00000b14       ?GetDataHere@?$IDataObjectImpl@VCOPOSLights@@@ATL@@UAGJPAUtagFORMATETC@@PAUtagSTGMEDIUM@@@Z 10001b14 f i Lights.obj
 0001:00000b14       ?GetRect@?$IViewObjectExImpl@VCOPOSLights@@@ATL@@UAGJKPAU_RECTL@@@Z 10001b14 f i Lights.obj
 0001:00000b14       ?EnumFormatEtc@?$IDataObjectImpl@VCOPOSLights@@@ATL@@UAGJKPAPAUIEnumFORMATETC@@@Z 10001b14 f i Lights.obj
 0001:00000b14       ?GetCanonicalFormatEtc@?$IDataObjectImpl@VCOPOSLights@@@ATL@@UAGJPAUtagFORMATETC@@0@Z 10001b14 f i Lights.obj
 0001:00000b1c       ?InitFromData@?$IOleObjectImpl@VCOPOSLights@@@ATL@@UAGJPAUIDataObject@@HK@Z 10001b1c f i Lights.obj
 0001:00000b1c       ?SetData@?$IDataObjectImpl@VCOPOSLights@@@ATL@@UAGJPAUtagFORMATETC@@PAUtagSTGMEDIUM@@H@Z 10001b1c f i Lights.obj
 0001:00000b1c       ?GetMoniker@?$IOleObjectImpl@VCOPOSLights@@@ATL@@UAGJKKPAPAUIMoniker@@@Z 10001b1c f i Lights.obj
 0001:00000b24       ?DoVerb@?$IOleObjectImpl@VCOPOSLights@@@ATL@@UAGJJPAUtagMSG@@PAUIOleClientSite@@JPAUHWND__@@PBUtagRECT@@@Z 10001b24 f i Lights.obj
 0001:00000c18       ?EnumVerbs@?$IOleObjectImpl@VCOPOSLights@@@ATL@@UAGJPAPAUIEnumOLEVERB@@@Z 10001c18 f i Lights.obj
 0001:00000c3a       ?HandsOffStorage@?$IPersistStorageImpl@VCOPOSLights@@@ATL@@UAGJXZ 10001c3a f i Lights.obj
 0001:00000c3a       ?Release@CRegObject@ATL@@UAGKXZ 10001c3a f i Lights.obj
 0001:00000c3a       ?IsUpToDate@?$IOleObjectImpl@VCOPOSLights@@@ATL@@UAGJXZ 10001c3a f i Lights.obj
 0001:00000c3a       ?Update@?$IOleObjectImpl@VCOPOSLights@@@ATL@@UAGJXZ 10001c3a f i Lights.obj
 0001:00000c3f       ?GetUserType@?$IOleObjectImpl@VCOPOSLights@@@ATL@@UAGJKPAPA_W@Z 10001c3f f i Lights.obj
 0001:00000c57       ?SetExtent@?$IOleObjectImpl@VCOPOSLights@@@ATL@@UAGJKPAUtagSIZE@@@Z 10001c57 f i Lights.obj
 0001:00000c77       ?GetExtent@?$IOleObjectImpl@VCOPOSLights@@@ATL@@UAGJKPAUtagSIZE@@@Z 10001c77 f i Lights.obj
 0001:00000cb5       ?Advise@?$IOleObjectImpl@VCOPOSLights@@@ATL@@UAGJPAUIAdviseSink@@PAK@Z 10001cb5 f i Lights.obj
 0001:00000cd5       ?Unadvise@?$IOleObjectImpl@VCOPOSLights@@@ATL@@UAGJK@Z 10001cd5 f i Lights.obj
 0001:00000d04       ?EnumAdvise@?$IOleObjectImpl@VCOPOSLights@@@ATL@@UAGJPAPAUIEnumSTATDATA@@@Z 10001d04 f i Lights.obj
 0001:00000d44       ?GetMiscStatus@?$IOleObjectImpl@VCOPOSLights@@@ATL@@UAGJKPAK@Z 10001d44 f i Lights.obj
 0001:00000d5c       ?GetWindow@?$IOleInPlaceActiveObjectImpl@VCOPOSLights@@@ATL@@UAGJPAPAUHWND__@@@Z 10001d5c f i Lights.obj
 0001:00000da9       ?TranslateAcceleratorW@?$IOleInPlaceActiveObjectImpl@VCOPOSLights@@@ATL@@UAGJPAUtagMSG@@@Z 10001da9 f i Lights.obj
 0001:00000e57       ?OnDocWindowActivate@?$IOleInPlaceActiveObjectImpl@VCOPOSLights@@@ATL@@UAGJH@Z 10001e57 f i Lights.obj
 0001:00000e79       ?ResizeBorder@?$IOleInPlaceActiveObjectImpl@VCOPOSLights@@@ATL@@UAGJPBUtagRECT@@PAUIOleInPlaceUIWindow@@H@Z 10001e79 f i Lights.obj
 0001:00000e7e       ?Draw@?$IViewObjectExImpl@VCOPOSLights@@@ATL@@UAGJKJPAXPAUtagDVTARGETDEVICE@@PAUHDC__@@2PBU_RECTL@@3P6GHK@ZK@Z 10001e7e f i Lights.obj
 0001:00000eb0       ?GetColorSet@?$IViewObjectExImpl@VCOPOSLights@@@ATL@@UAGJKJPAXPAUtagDVTARGETDEVICE@@PAUHDC__@@PAPAUtagLOGPALETTE@@@Z 10001eb0 f i Lights.obj
 0001:00000eb8       ?SOErrorDummy@COPOSLights@@MAGJJJJPAJ@Z 10001eb8 f i Lights.obj
 0001:00000eb8       ?Freeze@?$IViewObjectExImpl@VCOPOSLights@@@ATL@@UAGJKJPAXPAK@Z 10001eb8 f i Lights.obj
 0001:00000ec0       ?SetAdvise@?$IViewObjectExImpl@VCOPOSLights@@@ATL@@UAGJKKPAUIAdviseSink@@@Z 10001ec0 f i Lights.obj
 0001:00000edf       ?GetAdvise@?$IViewObjectExImpl@VCOPOSLights@@@ATL@@UAGJPAK0PAPAUIAdviseSink@@@Z 10001edf f i Lights.obj
 0001:00000f14       ?GetExtent@?$IViewObjectExImpl@VCOPOSLights@@@ATL@@UAGJKJPAUtagDVTARGETDEVICE@@PAUtagSIZE@@@Z 10001f14 f i Lights.obj
 0001:00000f45       ?GetViewStatus@?$IViewObjectExImpl@VCOPOSLights@@@ATL@@UAGJPAK@Z 10001f45 f i Lights.obj
 0001:00000f62       ?QueryHitPoint@?$IViewObjectExImpl@VCOPOSLights@@@ATL@@UAGJKPBUtagRECT@@UtagPOINT@@JPAK@Z 10001f62 f i Lights.obj
 0001:00000fa3       ?QueryHitRect@?$IViewObjectExImpl@VCOPOSLights@@@ATL@@UAGJKPBUtagRECT@@0JPAK@Z 10001fa3 f i Lights.obj
 0001:00000ffe       ?GetNaturalExtent@?$IViewObjectExImpl@VCOPOSLights@@@ATL@@UAGJKJPAUtagDVTARGETDEVICE@@PAUHDC__@@PAUtagExtentInfo@@PAUtagSIZE@@@Z 10001ffe f i Lights.obj
 0001:00001049       ?GetWindow@?$IOleInPlaceObjectWindowlessImpl@VCOPOSLights@@@ATL@@UAGJPAPAUHWND__@@@Z 10002049 f i Lights.obj
 0001:00001096       ?InPlaceDeactivate@?$IOleInPlaceObjectWindowlessImpl@VCOPOSLights@@@ATL@@UAGJXZ 10002096 f i Lights.obj
 0001:000010b0       ?UIDeactivate@?$IOleInPlaceObjectWindowlessImpl@VCOPOSLights@@@ATL@@UAGJXZ 100020b0 f i Lights.obj
 0001:000010ca       ?SetObjectRects@?$IOleInPlaceObjectWindowlessImpl@VCOPOSLights@@@ATL@@UAGJPBUtagRECT@@0@Z 100020ca f i Lights.obj
 0001:000010ea       ?ReactivateAndUndo@?$IOleInPlaceObjectWindowlessImpl@VCOPOSLights@@@ATL@@UAGJXZ 100020ea f i Lights.obj
 0001:000010f2       ?OnWindowMessage@?$IOleInPlaceObjectWindowlessImpl@VCOPOSLights@@@ATL@@UAGJIIJPAJ@Z 100020f2 f i Lights.obj
 0001:00001162       ?EnumConnectionPoints@?$IConnectionPointContainerImpl@VCOPOSLights@@@ATL@@UAGJPAPAUIEnumConnectionPoints@@@Z 10002162 f i Lights.obj
 0001:000012ee       ?FindConnectionPoint@?$IConnectionPointContainerImpl@VCOPOSLights@@@ATL@@UAGJABU_GUID@@PAPAUIConnectionPoint@@@Z 100022ee f i Lights.obj
 0001:00001391       ?IsDirty@?$IPersistStorageImpl@VCOPOSLights@@@ATL@@UAGJXZ 10002391 f i Lights.obj
 0001:000013c1       ?InitNew@?$IPersistStorageImpl@VCOPOSLights@@@ATL@@UAGJPAUIStorage@@@Z 100023c1 f i Lights.obj
 0001:000013f1       ?Load@?$IPersistStorageImpl@VCOPOSLights@@@ATL@@UAGJPAUIStorage@@@Z 100023f1 f i Lights.obj
 0001:0000145d       ?Save@?$IPersistStorageImpl@VCOPOSLights@@@ATL@@UAGJPAUIStorage@@H@Z 1000245d f i Lights.obj
 0001:000014d0       ?GetPages@?$ISpecifyPropertyPagesImpl@VCOPOSLights@@@ATL@@UAGJPAUtagCAUUID@@@Z 100024d0 f i Lights.obj
 0001:000014e7       ?QuickActivate@?$IQuickActivateImpl@VCOPOSLights@@@ATL@@UAGJPAUtagQACONTAINER@@PAUtagQACONTROL@@@Z 100024e7 f i Lights.obj
 0001:0000150a       ?SetContentExtent@?$IQuickActivateImpl@VCOPOSLights@@@ATL@@UAGJPAUtagSIZE@@@Z 1000250a f i Lights.obj
 0001:00001536       ?GetContentExtent@?$IQuickActivateImpl@VCOPOSLights@@@ATL@@UAGJPAUtagSIZE@@@Z 10002536 f i Lights.obj
 0001:00001572       ?GetData@?$IDataObjectImpl@VCOPOSLights@@@ATL@@UAGJPAUtagFORMATETC@@PAUtagSTGMEDIUM@@@Z 10002572 f i Lights.obj
 0001:00001595       ?DAdvise@?$IDataObjectImpl@VCOPOSLights@@@ATL@@UAGJPAUtagFORMATETC@@KPAUIAdviseSink@@PAK@Z 10002595 f i Lights.obj
 0001:000015d6       ?DUnadvise@?$IDataObjectImpl@VCOPOSLights@@@ATL@@UAGJK@Z 100025d6 f i Lights.obj
 0001:00001604       ?EnumDAdvise@?$IDataObjectImpl@VCOPOSLights@@@ATL@@UAGJPAPAUIEnumSTATDATA@@@Z 10002604 f i Lights.obj
 0001:00001643       ?GetClassInfoW@?$IProvideClassInfo2Impl@$1?CLSID_OPOSLights@@3U_GUID@@B$1?DIID__IOPOSLightsEvents@@3U2@B$1?LIBID_OposLights_CCO@@3U2@B$00$0A@VCComTypeInfoHolder@ATL@@@ATL@@UAGJPAPAUITypeInfo@@@Z 10002643 f i Lights.obj
 0001:00001659       ?GetGUID@?$IProvideClassInfo2Impl@$1?CLSID_OPOSLights@@3U_GUID@@B$1?DIID__IOPOSLightsEvents@@3U2@B$1?LIBID_OposLights_CCO@@3U2@B$00$0A@VCComTypeInfoHolder@ATL@@@ATL@@UAGJKPAU_GUID@@@Z 10002659 f i Lights.obj
 0001:00001697       ?FAccessAllowed@?$IObjectSafetyImpl@VCOPOSLights@@$02@ATL@@MAEHXZ 10002697 f i Lights.obj
 0001:00001697       __get_startup_argv_mode    10002697 f i LIBCMT:argv_mode.obj
 0001:0000169b       ?GetInterfaceSafetyOptions@?$IObjectSafetyImpl@VCOPOSLights@@$02@ATL@@UAGJABU_GUID@@PAK1@Z 1000269b f i Lights.obj
 0001:0000170f       ?SetInterfaceSafetyOptions@?$IObjectSafetyImpl@VCOPOSLights@@$02@ATL@@UAGJABU_GUID@@KK@Z 1000270f f i Lights.obj
 0001:00001789       ?_LocCPQueryInterface@?$IConnectionPointImpl@VCOPOSLights@@$1?DIID__IOPOSLightsEvents@@3U_GUID@@BVCComDynamicUnkArray@ATL@@@ATL@@UAGJABU_GUID@@PAPAX@Z 10002789 f i Lights.obj
 0001:00001789       ?_LocCPQueryInterface@?$IConnectionPointImpl@VCOPOSLights@@$1?IID_IPropertyNotifySink@@3U_GUID@@BVCComDynamicUnkArray@ATL@@@ATL@@UAGJABU_GUID@@PAPAX@Z 10002789 f i Lights.obj
 0001:000017d6       ?GetConnectionInterface@?$IConnectionPointImpl@VCOPOSLights@@$1?IID_IPropertyNotifySink@@3U_GUID@@BVCComDynamicUnkArray@ATL@@@ATL@@UAGJPAU_GUID@@@Z 100027d6 f i Lights.obj
 0001:000017fa       ?GetConnectionPointContainer@?$IConnectionPointImpl@VCOPOSLights@@$1?IID_IPropertyNotifySink@@3U_GUID@@BVCComDynamicUnkArray@ATL@@@ATL@@UAGJPAPAUIConnectionPointContainer@@@Z 100027fa f i Lights.obj
 0001:0000181d       ?Advise@?$IConnectionPointImpl@VCOPOSLights@@$1?DIID__IOPOSLightsEvents@@3U_GUID@@BVCComDynamicUnkArray@ATL@@@ATL@@UAGJPAUIUnknown@@PAK@Z 1000281d f i Lights.obj
 0001:0000181d       ?Advise@?$IConnectionPointImpl@VCOPOSLights@@$1?IID_IPropertyNotifySink@@3U_GUID@@BVCComDynamicUnkArray@ATL@@@ATL@@UAGJPAUIUnknown@@PAK@Z 1000281d f i Lights.obj
 0001:000018bd       ?Unadvise@?$IConnectionPointImpl@VCOPOSLights@@$1?IID_IPropertyNotifySink@@3U_GUID@@BVCComDynamicUnkArray@ATL@@@ATL@@UAGJK@Z 100028bd f i Lights.obj
 0001:000018bd       ?Unadvise@?$IConnectionPointImpl@VCOPOSLights@@$1?DIID__IOPOSLightsEvents@@3U_GUID@@BVCComDynamicUnkArray@ATL@@@ATL@@UAGJK@Z 100028bd f i Lights.obj
 0001:000018fd       ?EnumConnections@?$IConnectionPointImpl@VCOPOSLights@@$1?DIID__IOPOSLightsEvents@@3U_GUID@@BVCComDynamicUnkArray@ATL@@@ATL@@UAGJPAPAUIEnumConnections@@@Z 100028fd f i Lights.obj
 0001:000018fd       ?EnumConnections@?$IConnectionPointImpl@VCOPOSLights@@$1?IID_IPropertyNotifySink@@3U_GUID@@BVCComDynamicUnkArray@ATL@@@ATL@@UAGJPAPAUIEnumConnections@@@Z 100028fd f i Lights.obj
 0001:000019f8       ?GetCategoryMap@CComObjectRootBase@ATL@@SAPBU_ATL_CATMAP_ENTRY@2@XZ 100029f8 f i Lights.obj
 0001:000019f8       ?GetObjectDescription@?$CComCoClass@VCOPOSLights@@$1?CLSID_OPOSLights@@3U_GUID@@B@ATL@@SGPB_WXZ 100029f8 f i Lights.obj
 0001:000019fb       ?GetConnectionInterface@?$IConnectionPointImpl@VCOPOSLights@@$1?DIID__IOPOSLightsEvents@@3U_GUID@@BVCComDynamicUnkArray@ATL@@@ATL@@UAGJPAU_GUID@@@Z 100029fb f i Lights.obj
 0001:00001a1f       ?GetConnectionPointContainer@?$IConnectionPointImpl@VCOPOSLights@@$1?DIID__IOPOSLightsEvents@@3U_GUID@@BVCComDynamicUnkArray@ATL@@@ATL@@UAGJPAPAUIConnectionPointContainer@@@Z 10002a1f f i Lights.obj
 0001:00001a42       ?UpdateRegistry@COPOSLights@@SGJH@Z 10002a42 f i Lights.obj
 0001:00001a5a       ?ProcessWindowMessage@COPOSLights@@UAEHPAUHWND__@@IIJAAJK@Z 10002a5a f i Lights.obj
 0001:00001aa3       ?SODirectIO@COPOSLights@@MAGJJPAJPAPA_W@Z 10002aa3 f i Lights.obj
 0001:00001aec       ?SOStatusUpdate@COPOSLights@@MAGJJ@Z 10002aec f i Lights.obj
 0001:00001b25       ?Lock@CAtlModule@ATL@@UAEJXZ 10002b25 f i Lights.obj
 0001:00001b2f       ?Unlock@CAtlModule@ATL@@UAEJXZ 10002b2f f i Lights.obj
 0001:00001b39       ?GetLockCount@CAtlModule@ATL@@UAEJXZ 10002b39 f i Lights.obj
 0001:00001b3d       ?GetGITPtr@CAtlModule@ATL@@UAEJPAPAUIGlobalInterfaceTable@@@Z 10002b3d f i Lights.obj
 0001:00001b89       ?AddCommonRGSReplacements@?$CAtlModuleT@VCComModule@ATL@@@ATL@@UAEJPAUIRegistrarBase@@@Z 10002b89 f i Lights.obj
 0001:00001ba3       ?UpdateRegistryFromResourceD@CComModule@ATL@@UAGJPB_WHPAU_ATL_REGMAP_ENTRY@2@@Z 10002ba3 f i Lights.obj
 0001:00001ba3       ?UpdateRegistryFromResourceD@CComModule@ATL@@UAGJIHPAU_ATL_REGMAP_ENTRY@2@@Z 10002ba3 f i Lights.obj
 0001:00001bab       ?UpdateRegistryFromResource@CComModule@ATL@@UAGJPB_WHPAU_ATL_REGMAP_ENTRY@2@@Z 10002bab f i Lights.obj
 0001:00001bb4       ?UpdateRegistryFromResource@CComModule@ATL@@UAGJIHPAU_ATL_REGMAP_ENTRY@2@@Z 10002bb4 f i Lights.obj
 0001:00001bbd       ?CreateInstance@?$CComCreator@V?$CComObjectCached@VCComClassFactory@ATL@@@ATL@@@ATL@@SGJPAXABU_GUID@@PAPAX@Z 10002bbd f i Lights.obj
 0001:00001c5d       ?CreateInstance@?$CComCreator2@V?$CComCreator@V?$CComObject@VCOPOSLights@@@ATL@@@ATL@@V?$CComCreator@V?$CComAggObject@VCOPOSLights@@@ATL@@@2@@ATL@@SGJPAXABU_GUID@@PAPAX@Z 10002c5d f i Lights.obj
 0001:00001c7d       ??_GCComModule@ATL@@UAEPAXI@Z 10002c7d f i Lights.obj
 0001:00001c7d       ??_ECComModule@ATL@@UAEPAXI@Z 10002c7d f i Lights.obj
 0001:00001ca5       ?AddRef@?$CComObjectCached@VCComClassFactory@ATL@@@ATL@@UAGKXZ 10002ca5 f i Lights.obj
 0001:00001ccc       ?Release@?$CComObjectCached@VCComClassFactory@ATL@@@ATL@@UAGKXZ 10002ccc f i Lights.obj
 0001:00001d02       ?QueryInterface@?$CComObjectCached@VCComClassFactory@ATL@@@ATL@@UAGJABU_GUID@@PAPAX@Z 10002d02 f i Lights.obj
 0001:00001d1c       ??_E?$CComObjectCached@VCComClassFactory@ATL@@@ATL@@UAEPAXI@Z 10002d1c f i Lights.obj
 0001:00001d1c       ??_G?$CComObjectCached@VCComClassFactory@ATL@@@ATL@@UAEPAXI@Z 10002d1c f i Lights.obj
 0001:00001d3e       ?Next@?$CComEnumImpl@UIEnumConnectionPoints@@$1?_GUID_b196b285_bab4_101a_b69c_00aa00341d07@@3U__s_GUID@@BPAUIConnectionPoint@@V?$_CopyInterface@UIConnectionPoint@@@ATL@@@ATL@@UAGJKPAPAUIConnectionPoint@@PAK@Z 10002d3e f i Lights.obj
 0001:00001e15       ?Skip@?$CComEnumImpl@UIEnumConnectionPoints@@$1?_GUID_b196b285_bab4_101a_b69c_00aa00341d07@@3U__s_GUID@@BPAUIConnectionPoint@@V?$_CopyInterface@UIConnectionPoint@@@ATL@@@ATL@@UAGJK@Z 10002e15 f i Lights.obj
 0001:00001e42       ?Reset@?$CComEnumImpl@UIEnumConnectionPoints@@$1?_GUID_b196b285_bab4_101a_b69c_00aa00341d07@@3U__s_GUID@@BPAUIConnectionPoint@@V?$_CopyInterface@UIConnectionPoint@@@ATL@@@ATL@@UAGJXZ 10002e42 f i Lights.obj
 0001:00001e42       ?Reset@?$CComEnumImpl@UIEnumConnections@@$1?_GUID_b196b287_bab4_101a_b69c_00aa00341d07@@3U__s_GUID@@BUtagCONNECTDATA@@V?$_Copy@UtagCONNECTDATA@@@ATL@@@ATL@@UAGJXZ 10002e42 f i Lights.obj
 0001:00001e54       ?Clone@?$CComEnumImpl@UIEnumConnectionPoints@@$1?_GUID_b196b285_bab4_101a_b69c_00aa00341d07@@3U__s_GUID@@BPAUIConnectionPoint@@V?$_CopyInterface@UIConnectionPoint@@@ATL@@@ATL@@UAGJPAPAUIEnumConnectionPoints@@@Z 10002e54 f i Lights.obj
 0001:00001f35       ?AddRef@?$CComObject@V?$CComEnum@UIEnumConnectionPoints@@$1?_GUID_b196b285_bab4_101a_b69c_00aa00341d07@@3U__s_GUID@@BPAUIConnectionPoint@@V?$_CopyInterface@UIConnectionPoint@@@ATL@@VCComSingleThreadModel@6@@ATL@@@ATL@@UAGKXZ 10002f35 f i Lights.obj
 0001:00001f35       ?AddRef@?$CComObject@V?$CComEnum@UIEnumConnections@@$1?_GUID_b196b287_bab4_101a_b69c_00aa00341d07@@3U__s_GUID@@BUtagCONNECTDATA@@V?$_Copy@UtagCONNECTDATA@@@ATL@@VCComSingleThreadModel@6@@ATL@@@ATL@@UAGKXZ 10002f35 f i Lights.obj
 0001:00001f46       ?Release@?$CComObject@V?$CComEnum@UIEnumConnections@@$1?_GUID_b196b287_bab4_101a_b69c_00aa00341d07@@3U__s_GUID@@BUtagCONNECTDATA@@V?$_Copy@UtagCONNECTDATA@@@ATL@@VCComSingleThreadModel@6@@ATL@@@ATL@@UAGKXZ 10002f46 f i Lights.obj
 0001:00001f46       ?Release@?$CComObject@V?$CComEnum@UIEnumConnectionPoints@@$1?_GUID_b196b285_bab4_101a_b69c_00aa00341d07@@3U__s_GUID@@BPAUIConnectionPoint@@V?$_CopyInterface@UIConnectionPoint@@@ATL@@VCComSingleThreadModel@6@@ATL@@@ATL@@UAGKXZ 10002f46 f i Lights.obj
 0001:00001f82       ?QueryInterface@?$CComObject@V?$CComEnum@UIEnumConnectionPoints@@$1?_GUID_b196b285_bab4_101a_b69c_00aa00341d07@@3U__s_GUID@@BPAUIConnectionPoint@@V?$_CopyInterface@UIConnectionPoint@@@ATL@@VCComSingleThreadModel@6@@ATL@@@ATL@@UAGJABU_GUID@@PAPAX@Z 10002f82 f i Lights.obj
 0001:00001f9c       ??_G?$CComObject@V?$CComEnum@UIEnumConnectionPoints@@$1?_GUID_b196b285_bab4_101a_b69c_00aa00341d07@@3U__s_GUID@@BPAUIConnectionPoint@@V?$_CopyInterface@UIConnectionPoint@@@ATL@@VCComSingleThreadModel@6@@ATL@@@ATL@@UAEPAXI@Z 10002f9c f i Lights.obj
 0001:00001f9c       ??_E?$CComObject@V?$CComEnum@UIEnumConnectionPoints@@$1?_GUID_b196b285_bab4_101a_b69c_00aa00341d07@@3U__s_GUID@@BPAUIConnectionPoint@@V?$_CopyInterface@UIConnectionPoint@@@ATL@@VCComSingleThreadModel@6@@ATL@@@ATL@@UAEPAXI@Z 10002f9c f i Lights.obj
 0001:00001fbe       ?AddRef@CRegObject@ATL@@UAGKXZ 10002fbe f i Lights.obj
 0001:00001fc4       ?AddReplacement@CRegObject@ATL@@UAGJPB_W0@Z 10002fc4 f i Lights.obj
 0001:00001ffd       ?ClearReplacements@CRegObject@ATL@@UAGJXZ 10002ffd f i Lights.obj
 0001:0000200f       ??_ECRegObject@ATL@@UAEPAXI@Z 1000300f f i Lights.obj
 0001:0000200f       ??_GCRegObject@ATL@@UAEPAXI@Z 1000300f f i Lights.obj
 0001:00002031       ?AddRef@?$CComAggObject@VCOPOSLights@@@ATL@@UAGKXZ 10003031 f i Lights.obj
 0001:00002042       ?Release@?$CComAggObject@VCOPOSLights@@@ATL@@UAGKXZ 10003042 f i Lights.obj
 0001:0000207e       ?QueryInterface@?$CComAggObject@VCOPOSLights@@@ATL@@UAGJABU_GUID@@PAPAX@Z 1000307e f i Lights.obj
 0001:000020cd       ?AddRef@?$CComContainedObject@VCOPOSLights@@@ATL@@UAGKXZ 100030cd f i Lights.obj
 0001:000020e3       ?Release@?$CComContainedObject@VCOPOSLights@@@ATL@@UAGKXZ 100030e3 f i Lights.obj
 0001:000020f9       ?QueryInterface@?$CComContainedObject@VCOPOSLights@@@ATL@@UAGJABU_GUID@@PAPAX@Z 100030f9 f i Lights.obj
 0001:00002114       ??_E?$CComAggObject@VCOPOSLights@@@ATL@@UAEPAXI@Z 10003114 f i Lights.obj
 0001:00002114       ??_G?$CComAggObject@VCOPOSLights@@@ATL@@UAEPAXI@Z 10003114 f i Lights.obj
 0001:00002139       ?AddRef@?$CComObject@VCOPOSLights@@@ATL@@UAGKXZ 10003139 f i Lights.obj
 0001:00002150       ?Release@?$CComObject@VCOPOSLights@@@ATL@@UAGKXZ 10003150 f i Lights.obj
 0001:00002192       ?QueryInterface@?$CComObject@VCOPOSLights@@@ATL@@UAGJABU_GUID@@PAPAX@Z 10003192 f i Lights.obj
 0001:000021ac       ?OnDrawAdvanced@CComControlBase@ATL@@UAEJAAUATL_DRAWINFO@@@Z 100031ac f i Lights.obj
 0001:0000229f       ?Next@?$CComEnumImpl@UIEnumConnections@@$1?_GUID_b196b287_bab4_101a_b69c_00aa00341d07@@3U__s_GUID@@BUtagCONNECTDATA@@V?$_Copy@UtagCONNECTDATA@@@ATL@@@ATL@@UAGJKPAUtagCONNECTDATA@@PAK@Z 1000329f f i Lights.obj
 0001:00002376       ?Skip@?$CComEnumImpl@UIEnumConnections@@$1?_GUID_b196b287_bab4_101a_b69c_00aa00341d07@@3U__s_GUID@@BUtagCONNECTDATA@@V?$_Copy@UtagCONNECTDATA@@@ATL@@@ATL@@UAGJK@Z 10003376 f i Lights.obj
 0001:000023a3       ?Clone@?$CComEnumImpl@UIEnumConnections@@$1?_GUID_b196b287_bab4_101a_b69c_00aa00341d07@@3U__s_GUID@@BUtagCONNECTDATA@@V?$_Copy@UtagCONNECTDATA@@@ATL@@@ATL@@UAGJPAPAUIEnumConnections@@@Z 100033a3 f i Lights.obj
 0001:00002484       ?QueryInterface@?$CComObject@V?$CComEnum@UIEnumConnections@@$1?_GUID_b196b287_bab4_101a_b69c_00aa00341d07@@3U__s_GUID@@BUtagCONNECTDATA@@V?$_Copy@UtagCONNECTDATA@@@ATL@@VCComSingleThreadModel@6@@ATL@@@ATL@@UAGJABU_GUID@@PAPAX@Z 10003484 f i Lights.obj
 0001:0000249e       ??_E?$CComObject@V?$CComEnum@UIEnumConnections@@$1?_GUID_b196b287_bab4_101a_b69c_00aa00341d07@@3U__s_GUID@@BUtagCONNECTDATA@@V?$_Copy@UtagCONNECTDATA@@@ATL@@VCComSingleThreadModel@6@@ATL@@@ATL@@UAEPAXI@Z 1000349e f i Lights.obj
 0001:0000249e       ??_G?$CComObject@V?$CComEnum@UIEnumConnections@@$1?_GUID_b196b287_bab4_101a_b69c_00aa00341d07@@3U__s_GUID@@BUtagCONNECTDATA@@V?$_Copy@UtagCONNECTDATA@@@ATL@@VCComSingleThreadModel@6@@ATL@@@ATL@@UAEPAXI@Z 1000349e f i Lights.obj
 0001:000024c0       ??_E?$CComObject@VCOPOSLights@@@ATL@@W3AEPAXI@Z 100034c0 f i Lights.obj
 0001:000024c8       ??_E?$CComObject@VCOPOSLights@@@ATL@@WEM@AEPAXI@Z 100034c8 f i Lights.obj
 0001:000024d0       ?QueryInterface@?$CComObject@VCOPOSLights@@@ATL@@WHA@AGJABU_GUID@@PAPAX@Z 100034d0 f i Lights.obj
 0001:000024da       ?AddRef@?$CComObject@VCOPOSLights@@@ATL@@WHA@AGKXZ 100034da f i Lights.obj
 0001:000024e4       ?Release@?$CComObject@VCOPOSLights@@@ATL@@WHA@AGKXZ 100034e4 f i Lights.obj
 0001:000024ee       ?QueryInterface@?$CComObject@VCOPOSLights@@@ATL@@WHE@AGJABU_GUID@@PAPAX@Z 100034ee f i Lights.obj
 0001:000024f8       ?AddRef@?$CComObject@VCOPOSLights@@@ATL@@WHE@AGKXZ 100034f8 f i Lights.obj
 0001:00002502       ?Release@?$CComObject@VCOPOSLights@@@ATL@@WHE@AGKXZ 10003502 f i Lights.obj
 0001:0000250c       ?QueryInterface@?$CComObject@VCOPOSLights@@@ATL@@WHI@AGJABU_GUID@@PAPAX@Z 1000350c f i Lights.obj
 0001:00002516       ?AddRef@?$CComObject@VCOPOSLights@@@ATL@@WHI@AGKXZ 10003516 f i Lights.obj
 0001:00002520       ?Release@?$CComObject@VCOPOSLights@@@ATL@@WHI@AGKXZ 10003520 f i Lights.obj
 0001:0000252a       ?QueryInterface@?$CComObject@VCOPOSLights@@@ATL@@WHM@AGJABU_GUID@@PAPAX@Z 1000352a f i Lights.obj
 0001:00002534       ?AddRef@?$CComObject@VCOPOSLights@@@ATL@@WHM@AGKXZ 10003534 f i Lights.obj
 0001:0000253e       ?Release@?$CComObject@VCOPOSLights@@@ATL@@WHM@AGKXZ 1000353e f i Lights.obj
 0001:00002548       ?QueryInterface@?$CComObject@VCOPOSLights@@@ATL@@WIA@AGJABU_GUID@@PAPAX@Z 10003548 f i Lights.obj
 0001:00002555       ?AddRef@?$CComObject@VCOPOSLights@@@ATL@@WIA@AGKXZ 10003555 f i Lights.obj
 0001:00002562       ?Release@?$CComObject@VCOPOSLights@@@ATL@@WIA@AGKXZ 10003562 f i Lights.obj
 0001:0000256f       ?QueryInterface@?$CComObject@VCOPOSLights@@@ATL@@WIE@AGJABU_GUID@@PAPAX@Z 1000356f f i Lights.obj
 0001:0000257c       ?AddRef@?$CComObject@VCOPOSLights@@@ATL@@WIE@AGKXZ 1000357c f i Lights.obj
 0001:00002589       ?Release@?$CComObject@VCOPOSLights@@@ATL@@WIE@AGKXZ 10003589 f i Lights.obj
 0001:00002596       ?QueryInterface@?$CComObject@VCOPOSLights@@@ATL@@WII@AGJABU_GUID@@PAPAX@Z 10003596 f i Lights.obj
 0001:000025a3       ?AddRef@?$CComObject@VCOPOSLights@@@ATL@@WII@AGKXZ 100035a3 f i Lights.obj
 0001:000025b0       ?Release@?$CComObject@VCOPOSLights@@@ATL@@WII@AGKXZ 100035b0 f i Lights.obj
 0001:000025bd       ?QueryInterface@?$CComObject@VCOPOSLights@@@ATL@@WIM@AGJABU_GUID@@PAPAX@Z 100035bd f i Lights.obj
 0001:000025ca       ?AddRef@?$CComObject@VCOPOSLights@@@ATL@@WIM@AGKXZ 100035ca f i Lights.obj
 0001:000025d7       ?Release@?$CComObject@VCOPOSLights@@@ATL@@WIM@AGKXZ 100035d7 f i Lights.obj
 0001:000025e4       ?QueryInterface@?$CComObject@VCOPOSLights@@@ATL@@WJA@AGJABU_GUID@@PAPAX@Z 100035e4 f i Lights.obj
 0001:000025f1       ?AddRef@?$CComObject@VCOPOSLights@@@ATL@@WJA@AGKXZ 100035f1 f i Lights.obj
 0001:000025fe       ?Release@?$CComObject@VCOPOSLights@@@ATL@@WJA@AGKXZ 100035fe f i Lights.obj
 0001:0000260b       ?QueryInterface@?$CComObject@VCOPOSLights@@@ATL@@WJE@AGJABU_GUID@@PAPAX@Z 1000360b f i Lights.obj
 0001:00002618       ?AddRef@?$CComObject@VCOPOSLights@@@ATL@@WJE@AGKXZ 10003618 f i Lights.obj
 0001:00002625       ?Release@?$CComObject@VCOPOSLights@@@ATL@@WJE@AGKXZ 10003625 f i Lights.obj
 0001:00002632       ?QueryInterface@?$CComObject@VCOPOSLights@@@ATL@@WJI@AGJABU_GUID@@PAPAX@Z 10003632 f i Lights.obj
 0001:0000263f       ?AddRef@?$CComObject@VCOPOSLights@@@ATL@@WJI@AGKXZ 1000363f f i Lights.obj
 0001:0000264c       ?Release@?$CComObject@VCOPOSLights@@@ATL@@WJI@AGKXZ 1000364c f i Lights.obj
 0001:00002659       ?QueryInterface@?$CComObject@VCOPOSLights@@@ATL@@WJM@AGJABU_GUID@@PAPAX@Z 10003659 f i Lights.obj
 0001:00002666       ?AddRef@?$CComObject@VCOPOSLights@@@ATL@@WJM@AGKXZ 10003666 f i Lights.obj
 0001:00002673       ?Release@?$CComObject@VCOPOSLights@@@ATL@@WJM@AGKXZ 10003673 f i Lights.obj
 0001:00002680       ?QueryInterface@?$CComObject@VCOPOSLights@@@ATL@@WKA@AGJABU_GUID@@PAPAX@Z 10003680 f i Lights.obj
 0001:0000268d       ?AddRef@?$CComObject@VCOPOSLights@@@ATL@@WKA@AGKXZ 1000368d f i Lights.obj
 0001:0000269a       ?Release@?$CComObject@VCOPOSLights@@@ATL@@WKA@AGKXZ 1000369a f i Lights.obj
 0001:000026a7       ?AddRef@?$CComObject@VCOPOSLights@@@ATL@@WKI@AGKXZ 100036a7 f i Lights.obj
 0001:000026b4       ?Release@?$CComObject@VCOPOSLights@@@ATL@@WKI@AGKXZ 100036b4 f i Lights.obj
 0001:000026c1       ?AddRef@?$CComObject@VCOPOSLights@@@ATL@@WLE@AGKXZ 100036c1 f i Lights.obj
 0001:000026ce       ?Release@?$CComObject@VCOPOSLights@@@ATL@@WLE@AGKXZ 100036ce f i Lights.obj
 0001:000026db       ??_E?$CComContainedObject@VCOPOSLights@@@ATL@@W3AEPAXI@Z 100036db f i Lights.obj
 0001:000026e3       ??_E?$CComContainedObject@VCOPOSLights@@@ATL@@WEM@AEPAXI@Z 100036e3 f i Lights.obj
 0001:000026eb       ?QueryInterface@?$CComContainedObject@VCOPOSLights@@@ATL@@WHA@AGJABU_GUID@@PAPAX@Z 100036eb f i Lights.obj
 0001:000026f5       ?AddRef@?$CComContainedObject@VCOPOSLights@@@ATL@@WHA@AGKXZ 100036f5 f i Lights.obj
 0001:000026ff       ?Release@?$CComContainedObject@VCOPOSLights@@@ATL@@WHA@AGKXZ 100036ff f i Lights.obj
 0001:00002709       ?QueryInterface@?$CComContainedObject@VCOPOSLights@@@ATL@@WHE@AGJABU_GUID@@PAPAX@Z 10003709 f i Lights.obj
 0001:00002713       ?AddRef@?$CComContainedObject@VCOPOSLights@@@ATL@@WHE@AGKXZ 10003713 f i Lights.obj
 0001:0000271d       ?Release@?$CComContainedObject@VCOPOSLights@@@ATL@@WHE@AGKXZ 1000371d f i Lights.obj
 0001:00002727       ?QueryInterface@?$CComContainedObject@VCOPOSLights@@@ATL@@WHI@AGJABU_GUID@@PAPAX@Z 10003727 f i Lights.obj
 0001:00002731       ?AddRef@?$CComContainedObject@VCOPOSLights@@@ATL@@WHI@AGKXZ 10003731 f i Lights.obj
 0001:0000273b       ?Release@?$CComContainedObject@VCOPOSLights@@@ATL@@WHI@AGKXZ 1000373b f i Lights.obj
 0001:00002745       ?QueryInterface@?$CComContainedObject@VCOPOSLights@@@ATL@@WHM@AGJABU_GUID@@PAPAX@Z 10003745 f i Lights.obj
 0001:0000274f       ?AddRef@?$CComContainedObject@VCOPOSLights@@@ATL@@WHM@AGKXZ 1000374f f i Lights.obj
 0001:00002759       ?Release@?$CComContainedObject@VCOPOSLights@@@ATL@@WHM@AGKXZ 10003759 f i Lights.obj
 0001:00002763       ?QueryInterface@?$CComContainedObject@VCOPOSLights@@@ATL@@WIA@AGJABU_GUID@@PAPAX@Z 10003763 f i Lights.obj
 0001:00002770       ?AddRef@?$CComContainedObject@VCOPOSLights@@@ATL@@WIA@AGKXZ 10003770 f i Lights.obj
 0001:0000277d       ?Release@?$CComContainedObject@VCOPOSLights@@@ATL@@WIA@AGKXZ 1000377d f i Lights.obj
 0001:0000278a       ?QueryInterface@?$CComContainedObject@VCOPOSLights@@@ATL@@WIE@AGJABU_GUID@@PAPAX@Z 1000378a f i Lights.obj
 0001:00002797       ?AddRef@?$CComContainedObject@VCOPOSLights@@@ATL@@WIE@AGKXZ 10003797 f i Lights.obj
 0001:000027a4       ?Release@?$CComContainedObject@VCOPOSLights@@@ATL@@WIE@AGKXZ 100037a4 f i Lights.obj
 0001:000027b1       ?QueryInterface@?$CComContainedObject@VCOPOSLights@@@ATL@@WII@AGJABU_GUID@@PAPAX@Z 100037b1 f i Lights.obj
 0001:000027be       ?AddRef@?$CComContainedObject@VCOPOSLights@@@ATL@@WII@AGKXZ 100037be f i Lights.obj
 0001:000027cb       ?Release@?$CComContainedObject@VCOPOSLights@@@ATL@@WII@AGKXZ 100037cb f i Lights.obj
 0001:000027d8       ?QueryInterface@?$CComContainedObject@VCOPOSLights@@@ATL@@WIM@AGJABU_GUID@@PAPAX@Z 100037d8 f i Lights.obj
 0001:000027e5       ?AddRef@?$CComContainedObject@VCOPOSLights@@@ATL@@WIM@AGKXZ 100037e5 f i Lights.obj
 0001:000027f2       ?Release@?$CComContainedObject@VCOPOSLights@@@ATL@@WIM@AGKXZ 100037f2 f i Lights.obj
 0001:000027ff       ?QueryInterface@?$CComContainedObject@VCOPOSLights@@@ATL@@WJA@AGJABU_GUID@@PAPAX@Z 100037ff f i Lights.obj
 0001:0000280c       ?AddRef@?$CComContainedObject@VCOPOSLights@@@ATL@@WJA@AGKXZ 1000380c f i Lights.obj
 0001:00002819       ?Release@?$CComContainedObject@VCOPOSLights@@@ATL@@WJA@AGKXZ 10003819 f i Lights.obj
 0001:00002826       ?QueryInterface@?$CComContainedObject@VCOPOSLights@@@ATL@@WJE@AGJABU_GUID@@PAPAX@Z 10003826 f i Lights.obj
 0001:00002833       ?AddRef@?$CComContainedObject@VCOPOSLights@@@ATL@@WJE@AGKXZ 10003833 f i Lights.obj
 0001:00002840       ?Release@?$CComContainedObject@VCOPOSLights@@@ATL@@WJE@AGKXZ 10003840 f i Lights.obj
 0001:0000284d       ?QueryInterface@?$CComContainedObject@VCOPOSLights@@@ATL@@WJI@AGJABU_GUID@@PAPAX@Z 1000384d f i Lights.obj
 0001:0000285a       ?AddRef@?$CComContainedObject@VCOPOSLights@@@ATL@@WJI@AGKXZ 1000385a f i Lights.obj
 0001:00002867       ?Release@?$CComContainedObject@VCOPOSLights@@@ATL@@WJI@AGKXZ 10003867 f i Lights.obj
 0001:00002874       ?QueryInterface@?$CComContainedObject@VCOPOSLights@@@ATL@@WJM@AGJABU_GUID@@PAPAX@Z 10003874 f i Lights.obj
 0001:00002881       ?AddRef@?$CComContainedObject@VCOPOSLights@@@ATL@@WJM@AGKXZ 10003881 f i Lights.obj
 0001:0000288e       ?Release@?$CComContainedObject@VCOPOSLights@@@ATL@@WJM@AGKXZ 1000388e f i Lights.obj
 0001:0000289b       ?QueryInterface@?$CComContainedObject@VCOPOSLights@@@ATL@@WKA@AGJABU_GUID@@PAPAX@Z 1000389b f i Lights.obj
 0001:000028a8       ?AddRef@?$CComContainedObject@VCOPOSLights@@@ATL@@WKA@AGKXZ 100038a8 f i Lights.obj
 0001:000028b5       ?Release@?$CComContainedObject@VCOPOSLights@@@ATL@@WKA@AGKXZ 100038b5 f i Lights.obj
 0001:000028c2       ?AddRef@?$CComContainedObject@VCOPOSLights@@@ATL@@WKI@AGKXZ 100038c2 f i Lights.obj
 0001:000028cf       ?Release@?$CComContainedObject@VCOPOSLights@@@ATL@@WKI@AGKXZ 100038cf f i Lights.obj
 0001:000028dc       ?AddRef@?$CComContainedObject@VCOPOSLights@@@ATL@@WLE@AGKXZ 100038dc f i Lights.obj
 0001:000028e9       ?Release@?$CComContainedObject@VCOPOSLights@@@ATL@@WLE@AGKXZ 100038e9 f i Lights.obj
 0001:000028f6       ??$?4UITypeInfo2@@@?$CComPtr@UITypeInfo@@@ATL@@QAEPAUITypeInfo@@ABV?$CComPtr@UITypeInfo2@@@1@@Z 100038f6 f i Lights.obj
 0001:00002923       ??$AtlAdd@K@ATL@@YAJPAKKK@Z 10003923 f i Lights.obj
 0001:00002946       ??$AtlAdd@_K@ATL@@YAJPA_K_K1@Z 10003946 f i Lights.obj
 0001:0000297e       ??$AtlAddThrow@K@ATL@@YAKKK@Z 1000397e f i Lights.obj
 0001:000029a4       ??$AtlModuleRegisterWndClassInfoT@VAtlModuleRegisterWndClassInfoParamW@ATL@@@ATL@@YAGPAU_ATL_BASE_MODULE70@0@PAU_ATL_WIN_MODULE70@0@PAU_ATL_WNDCLASSINFOW@0@PAP6GJPAUHWND__@@IIJ@ZVAtlModuleRegisterWndClassInfoParamW@0@@Z 100039a4 f i Lights.obj
 0001:00002af2       ??$AtlMultiply@H@ATL@@YAJPAHHH@Z 10003af2 f i Lights.obj
 0001:00002b2a       ??$AtlMultiply@I@ATL@@YAJPAIII@Z 10003b2a f i Lights.obj
 0001:00002b2a       ??$AtlMultiply@K@ATL@@YAJPAKKK@Z 10003b2a f i Lights.obj
 0001:00002b4c       ??$AtlMultiplyThrow@I@ATL@@YAIII@Z 10003b4c f i Lights.obj
 0001:00002b72       ??0?$CComAggObject@VCOPOSLights@@@ATL@@QAE@PAX@Z 10003b72 f i Lights.obj
 0001:00002b9f       ??0?$CComContainedObject@VCOPOSLights@@@ATL@@QAE@PAX@Z 10003b9f f i Lights.obj
 0001:00002c58       ??0?$CComObject@V?$CComEnum@UIEnumConnectionPoints@@$1?_GUID_b196b285_bab4_101a_b69c_00aa00341d07@@3U__s_GUID@@BPAUIConnectionPoint@@V?$_CopyInterface@UIConnectionPoint@@@ATL@@VCComSingleThreadModel@6@@ATL@@@ATL@@QAE@PAX@Z 10003c58 f i Lights.obj
 0001:00002c86       ??0?$CComObject@V?$CComEnum@UIEnumConnections@@$1?_GUID_b196b287_bab4_101a_b69c_00aa00341d07@@3U__s_GUID@@BUtagCONNECTDATA@@V?$_Copy@UtagCONNECTDATA@@@ATL@@VCComSingleThreadModel@6@@ATL@@@ATL@@QAE@PAX@Z 10003c86 f i Lights.obj
 0001:00002cb4       ??0?$CComObject@VCOPOSLights@@@ATL@@QAE@PAX@Z 10003cb4 f i Lights.obj
 0001:00002d6b       ??0?$CComQIPtr@UIOleControlSite@@$1?_GUID_b196b289_bab4_101a_b69c_00aa00341d07@@3U__s_GUID@@B@ATL@@QAE@PAUIUnknown@@@Z 10003d6b f i Lights.obj
 0001:00002d94       ??0CAtlModule@ATL@@QAE@XZ  10003d94 f i Lights.obj
 0001:00002dd5       ??0CParseBuffer@CRegParser@ATL@@QAE@H@Z 10003dd5 f i Lights.obj
 0001:00002e0b       ??0_ATL_MSG@ATL@@QAE@PAUHWND__@@IIJH@Z 10003e0b f i Lights.obj
 0001:00002e43       ??1?$CComAggObject@VCOPOSLights@@@ATL@@UAE@XZ 10003e43 f i Lights.obj
 0001:00002e67       ??1?$CComEnumImpl@UIEnumConnectionPoints@@$1?_GUID_b196b285_bab4_101a_b69c_00aa00341d07@@3U__s_GUID@@BPAUIConnectionPoint@@V?$_CopyInterface@UIConnectionPoint@@@ATL@@@ATL@@UAE@XZ 10003e67 f i Lights.obj
 0001:00002ea7       ??1?$CComEnumImpl@UIEnumConnections@@$1?_GUID_b196b287_bab4_101a_b69c_00aa00341d07@@3U__s_GUID@@BUtagCONNECTDATA@@V?$_Copy@UtagCONNECTDATA@@@ATL@@@ATL@@UAE@XZ 10003ea7 f i Lights.obj
 0001:00002ee7       ??1?$CComObject@V?$CComEnum@UIEnumConnectionPoints@@$1?_GUID_b196b285_bab4_101a_b69c_00aa00341d07@@3U__s_GUID@@BPAUIConnectionPoint@@V?$_CopyInterface@UIConnectionPoint@@@ATL@@VCComSingleThreadModel@6@@ATL@@@ATL@@UAE@XZ 10003ee7 f i Lights.obj
 0001:00002f0a       ??1?$CComObject@V?$CComEnum@UIEnumConnections@@$1?_GUID_b196b287_bab4_101a_b69c_00aa00341d07@@3U__s_GUID@@BUtagCONNECTDATA@@V?$_Copy@UtagCONNECTDATA@@@ATL@@VCComSingleThreadModel@6@@ATL@@@ATL@@UAE@XZ 10003f0a f i Lights.obj
 0001:00002f2d       ??1?$CComObject@VCOPOSLights@@@ATL@@UAE@XZ 10003f2d f i Lights.obj
 0001:00002feb       ??1?$CComObjectCached@VCComClassFactory@ATL@@@ATL@@UAE@XZ 10003feb f i Lights.obj
 0001:00003001       ??1?$CComObjectRootEx@VCComMultiThreadModel@ATL@@@ATL@@QAE@XZ 10004001 f i Lights.obj
 0001:00003016       ??1CRegObject@ATL@@UAE@XZ  10004016 f i Lights.obj
 0001:00003036       ??4?$CComPtr@UIOleClientSite@@@ATL@@QAEPAUIOleClientSite@@PAU2@@Z 10004036 f i Lights.obj
 0001:00003036       ??4?$CComPtr@UIAdviseSink@@@ATL@@QAEPAUIAdviseSink@@PAU2@@Z 10004036 f i Lights.obj
 0001:00003036       ??4?$CComPtr@UIUnknown@@@ATL@@QAEPAUIUnknown@@PAU2@@Z 10004036 f i Lights.obj
 0001:0000306a       ??_E?$CComContainedObject@VCOPOSLights@@@ATL@@UAEPAXI@Z 1000406a f i Lights.obj
 0001:0000306a       ??_G?$CComContainedObject@VCOPOSLights@@@ATL@@UAEPAXI@Z 1000406a f i Lights.obj
 0001:0000308f       ??_G?$CComObject@VCOPOSLights@@@ATL@@UAEPAXI@Z 1000408f f i Lights.obj
 0001:0000308f       ??_E?$CComObject@VCOPOSLights@@@ATL@@UAEPAXI@Z 1000408f f i Lights.obj
 0001:000030b4       ?Add@?$CSimpleArray@GV?$CSimpleArrayEqualHelper@G@ATL@@@ATL@@QAEHABG@Z 100040b4 f i Lights.obj
 0001:00003138       ?Add@?$CSimpleMap@PA_WPA_WVCExpansionVectorEqualHelper@ATL@@@ATL@@QAEHABQA_W0@Z 10004138 f i Lights.obj
 0001:0000318d       ?Add@CComDynamicUnkArray@ATL@@QAEKPAUIUnknown@@@Z 1000418d f i Lights.obj
 0001:00003243       ?Add@CExpansionVector@ATL@@QAEHPB_W0@Z 10004243 f i Lights.obj
 0001:0000334c       ?AddString@CParseBuffer@CRegParser@ATL@@QAEHPB_W@Z 1000434c f i Lights.obj
 0001:00003381       ?AddTermFunc@CAtlModule@ATL@@QAEJP6GXK@ZK@Z 10004381 f i Lights.obj
 0001:000033e4       ?AddValue@CRegParser@ATL@@IAEJAAVCRegKey@2@PB_WPA_W@Z 100043e4 f i Lights.obj
 0001:000036fe       ?Allocate@?$CAtlSafeAllocBufferManager@VCCRTAllocator@ATL@@@_ATL_SAFE_ALLOCA_IMPL@ATL@@QAEPAXK@Z 100046fe f i Lights.obj
 0001:0000372b       ?Allocate@?$CTempBuffer@E$0BAA@VCCRTAllocator@ATL@@@ATL@@QAEPAEI@Z 1000472b f i Lights.obj
 0001:0000375a       ?Allocate@?$CTempBuffer@_W$0BAA@VCCRTAllocator@ATL@@@ATL@@QAEPA_WI@Z 1000475a f i Lights.obj
 0001:00003789       ?Allocate@?$CTempBuffer@_W$0EAA@VCCRTAllocator@ATL@@@ATL@@QAEPA_WI@Z 10004789 f i Lights.obj
 0001:000037b8       ?AllocateHeap@?$CTempBuffer@E$0BAA@VCCRTAllocator@ATL@@@ATL@@AAEXI@Z 100047b8 f i Lights.obj
 0001:000037b8       ?AllocateHeap@?$CTempBuffer@_W$0BAA@VCCRTAllocator@ATL@@@ATL@@AAEXI@Z 100047b8 f i Lights.obj
 0001:000037b8       ?AllocateHeap@?$CTempBuffer@_W$0EAA@VCCRTAllocator@ATL@@@ATL@@AAEXI@Z 100047b8 f i Lights.obj
 0001:000037dd       ?Append@CParseBuffer@CRegParser@ATL@@QAEHPB_WH@Z 100047dd f i Lights.obj
 0001:0000386b       ?AtlCoTaskMemCAlloc@ATL@@YAPAXKK@Z 1000486b f i Lights.obj
 0001:00003898       ?AtlCoTaskMemRecalloc@ATL@@YAPAXPAXKK@Z 10004898 f i Lights.obj
 0001:000038c8       ?AtlComModuleGetClassObject@ATL@@YGJPAU_ATL_COM_MODULE70@1@ABU_GUID@@1PAPAX@Z 100048c8 f i Lights.obj
 0001:000039bb       ?AtlComModuleRegisterServer@ATL@@YGJPAU_ATL_COM_MODULE70@1@HPBU_GUID@@@Z 100049bb f i Lights.obj
 0001:00003a43       ?AtlComModuleUnregisterServer@ATL@@YGJPAU_ATL_COM_MODULE70@1@HPBU_GUID@@@Z 10004a43 f i Lights.obj
 0001:00003acb       ?AtlComQIPtrAssign2@ATL@@YAXPAPAUIUnknown@@PAU2@ABU_GUID@@@Z 10004acb f i Lights.obj
 0001:00003afa       ?AtlCreateTargetDC@ATL@@YGPAUHDC__@@PAU2@PAUtagDVTARGETDEVICE@@@Z 10004afa f i Lights.obj
 0001:00003b63       ?AtlCrtErrorCheck@ATL@@YAHH@Z 10004b63 f i Lights.obj
 0001:00003b9e       ?AtlHiMetricToPixel@ATL@@YGXPBUtagSIZE@@PAU2@@Z 10004b9e f i Lights.obj
 0001:00003c13       ?AtlHresultFromLastError@ATL@@YAJXZ 10004c13 f i Lights.obj
 0001:00003c2a       ?AtlHresultFromWin32@ATL@@YAJK@Z 10004c2a f i Lights.obj
 0001:00003c3f       ?AtlInternalOleLoadFromStream@ATL@@YAJPAUIStream@@ABU_GUID@@PAPAXTClassesAllowedInStream@1@K@Z 10004c3f f i Lights.obj
 0001:00003d5d       ?AtlInternalQueryInterface@ATL@@YGJPAXPBU_ATL_INTMAP_ENTRY@1@ABU_GUID@@PAPAX@Z 10004d5d f i Lights.obj
 0001:00003e00       ?AtlLoadTypeLib@ATL@@YGJPAUHINSTANCE__@@PB_WPAPA_WPAPAUITypeLib@@@Z 10004e00 f i Lights.obj
 0001:00003fde       ?AtlRegisterClassCategoriesHelper@ATL@@YGJABU_GUID@@PBU_ATL_CATMAP_ENTRY@1@H@Z 10004fde f i Lights.obj
 0001:000042da       ?AtlRegisterTypeLib@ATL@@YGJPAUHINSTANCE__@@PB_W@Z 100052da f i Lights.obj
 0001:00004462       ?AtlThrowImpl@ATL@@YGXJ@Z  10005462 f i Lights.obj
 0001:00004480       ?AtlUnRegisterTypeLib@ATL@@YGJPAUHINSTANCE__@@PB_W@Z 10005480 f i Lights.obj
 0001:0000452b       ?AtlWinModuleAddCreateWndData@ATL@@YGXPAU_ATL_WIN_MODULE70@1@PAU_AtlCreateWndData@1@PAX@Z 1000552b f i Lights.obj
 0001:0000457f       ?AtlWinModuleExtractCreateWndData@ATL@@YGPAXPAU_ATL_WIN_MODULE70@1@@Z 1000557f f i Lights.obj
 0001:000045e2       ?AtlWinModuleRegisterClassExW@ATL@@YGGPAU_ATL_WIN_MODULE70@1@PBUtagWNDCLASSEXW@@@Z 100055e2 f i Lights.obj
 0001:00004621       ?CanForceRemoveKey@CRegParser@ATL@@IAEHPB_W@Z 10005621 f i Lights.obj
 0001:00004650       ?ChToByte@CRegParser@ATL@@KAE_W@Z 10005650 f i Lights.obj
 0001:00004683       ?Cleanup@CComTypeInfoHolder@ATL@@SGXK@Z 10005683 f i Lights.obj
 0001:000046b6       ?ClearReplacements@CExpansionVector@ATL@@QAEJXZ 100056b6 f i Lights.obj
 0001:000046f3       ?Close@CRegKey@ATL@@QAEJXZ 100056f3 f i Lights.obj
 0001:0000470d       ?CreateInstance@?$CComCreator@V?$CComAggObject@VCOPOSLights@@@ATL@@@ATL@@SGJPAXABU_GUID@@PAPAX@Z 1000570d f i Lights.obj
 0001:00004782       ?CreateInstance@?$CComCreator@V?$CComObject@VCOPOSLights@@@ATL@@@ATL@@SGJPAXABU_GUID@@PAPAX@Z 10005782 f i Lights.obj
 0001:00004802       ?CreateInstance@?$CComObject@V?$CComEnum@UIEnumConnectionPoints@@$1?_GUID_b196b285_bab4_101a_b69c_00aa00341d07@@3U__s_GUID@@BPAUIConnectionPoint@@V?$_CopyInterface@UIConnectionPoint@@@ATL@@VCComSingleThreadModel@6@@ATL@@@ATL@@SGJPAPAV12@@Z 10005802 f i Lights.obj
 0001:0000484c       ?CreateInstance@?$CComObject@V?$CComEnum@UIEnumConnections@@$1?_GUID_b196b287_bab4_101a_b69c_00aa00341d07@@3U__s_GUID@@BUtagCONNECTDATA@@V?$_Copy@UtagCONNECTDATA@@@ATL@@VCComSingleThreadModel@6@@ATL@@@ATL@@SGJPAPAV12@@Z 1000584c f i Lights.obj
 0001:00004896       ?DefaultReflectionHandler@?$CWindowImplRoot@VCWindow@ATL@@@ATL@@SAHPAUHWND__@@IIJAAJ@Z 10005896 f i Lights.obj
 0001:00004909       ?DeleteSubKey@CRegKey@ATL@@QAEJPB_W@Z 10005909 f i Lights.obj
 0001:00004982       ?DoEvent@COPOSLights@@IAEXIIJ@Z 10005982 f i Lights.obj
 0001:00004a02       ?DoVerbHide@?$IOleObjectImpl@VCOPOSLights@@@ATL@@QAEJPBUtagRECT@@PAUHWND__@@@Z 10005a02 f i Lights.obj
 0001:00004a38       ?DoVerbInPlaceActivate@?$IOleObjectImpl@VCOPOSLights@@@ATL@@QAEJPBUtagRECT@@PAUHWND__@@@Z 10005a38 f i Lights.obj
 0001:00004a6b       ?DoVerbPrimary@?$IOleObjectImpl@VCOPOSLights@@@ATL@@QAEJPBUtagRECT@@PAUHWND__@@@Z 10005a6b f i Lights.obj
 0001:00004af7       ?DoVerbProperties@CComControlBase@ATL@@QAEJPBUtagRECT@@PAUHWND__@@@Z 10005af7 f i Lights.obj
 0001:00004c76       ?DoVerbUIActivate@?$IOleObjectImpl@VCOPOSLights@@@ATL@@QAEJPBUtagRECT@@PAUHWND__@@@Z 10005c76 f i Lights.obj
 0001:00004cb3       ?DoesVerbActivate@CComControlBase@ATL@@QAEHJ@Z 10005cb3 f i Lights.obj
 0001:00004cd4       ?DoesVerbUIActivate@CComControlBase@ATL@@QAEHJ@Z 10005cd4 f i Lights.obj
 0001:00004d09       ?EndOfVar@CRegParser@ATL@@IAEHXZ 10005d09 f i Lights.obj
 0001:00004d29       ?EscapeSingleQuote@CAtlModule@ATL@@SAXPA_WIPB_W@Z 10005d29 f i Lights.obj
 0001:00004d78       ?FindKey@?$CSimpleMap@PA_WPA_WVCExpansionVectorEqualHelper@ATL@@@ATL@@QBEHABQA_W@Z 10005d78 f i Lights.obj
 0001:00004daf       ?FireTheEvent@?$CProxy_IOPOSEvents@VCOPOSLights@@@@IAEXPAVOposVariant@@IAAJPB_WJ@Z 10005daf f i Lights.obj
 0001:00004e41       ?FireViewChange@CComControlBase@ATL@@QAEJXZ 10005e41 f i Lights.obj
 0001:00004e8a       ?Fire_DirectIOEvent@?$CProxy_IOPOSEvents@VCOPOSLights@@@@QAEXJPAJPAPA_W@Z 10005e8a f i Lights.obj
 0001:00004f76       ?Fire_StatusUpdateEvent@?$CProxy_IOPOSEvents@VCOPOSLights@@@@QAEXJ@Z 10005f76 f i Lights.obj
 0001:0000500c       ?FreeHeap@?$CTempBuffer@_W$0EAA@VCCRTAllocator@ATL@@@ATL@@AAEXXZ 1000600c f i Lights.obj
 0001:0000500c       ?FreeHeap@?$CTempBuffer@E$0BAA@VCCRTAllocator@ATL@@@ATL@@AAEXXZ 1000600c f i Lights.obj
 0001:0000500c       ?FreeHeap@?$CTempBuffer@_W$0BAA@VCCRTAllocator@ATL@@@ATL@@AAEXXZ 1000600c f i Lights.obj
 0001:00005015       ?GetAmbientLocaleID@CComControlBase@ATL@@QAEJAAK@Z 10006015 f i Lights.obj
 0001:00005071       ?GetAmbientUserMode@CComControlBase@ATL@@QAEJAAH@Z 10006071 f i Lights.obj
 0001:000050e1       ?GetAt@CComDynamicUnkArray@ATL@@QAEPAUIUnknown@@H@Z 100060e1 f i Lights.obj
 0001:000050fd       ?GetClassObject@CComModule@ATL@@QAEJABU_GUID@@0PAPAX@Z 100060fd f i Lights.obj
 0001:0000519f       ?GetConnMap@COPOSLights@@SAPBU_ATL_CONNMAP_ENTRY@ATL@@PAH@Z 1000619f f i Lights.obj
 0001:0000520f       ?GetCookie@CComDynamicUnkArray@ATL@@QAGKPAPAUIUnknown@@@Z 1000620f f i Lights.obj
 0001:00005247       ?GetIDsOfNames@CComTypeInfoHolder@ATL@@QAEJABU_GUID@@PAPA_WIKPAJ@Z 10006247 f i Lights.obj
 0001:0000536e       ?GetKeyAt@?$CSimpleMap@PA_WPA_WVCExpansionVectorEqualHelper@ATL@@@ATL@@QBEAAPA_WH@Z 1000636e f i Lights.obj
 0001:00005393       ?GetPagesHelper@?$ISpecifyPropertyPagesImpl@VCOPOSLights@@@ATL@@IAEJPAUtagCAUUID@@PBUATL_PROPMAP_ENTRY@2@@Z 10006393 f i Lights.obj
 0001:000054ba       ?GetProperty@?$CComPtr@UIDispatch@@@ATL@@SAJPAUIDispatch@@JPAUtagVARIANT@@@Z 100064ba f i Lights.obj
 0001:00005509       ?GetSizeMax@CComVariant@ATL@@QBEJPAT_ULARGE_INTEGER@@@Z 10006509 f i Lights.obj
 0001:000056cb       ?GetTI@CComTypeInfoHolder@ATL@@QAEJK@Z 100066cb f i Lights.obj
 0001:000058aa       ?GetTI@CComTypeInfoHolder@ATL@@QAEJKPAPAUITypeInfo@@@Z 100068aa f i Lights.obj
 0001:000058ec       ?GetUnknown@CComDynamicUnkArray@ATL@@QAGPAUIUnknown@@K@Z 100068ec f i Lights.obj
 0001:0000590d       ?GetValueAt@?$CSimpleMap@PA_WPA_WVCExpansionVectorEqualHelper@ATL@@@ATL@@QBEAAPA_WH@Z 1000690d f i Lights.obj
 0001:00005933       ?GetZoomInfo@CComControlBase@ATL@@QAEXAAUATL_DRAWINFO@@@Z 10006933 f i Lights.obj
 0001:000059c6       ?HKeyFromString@CRegParser@ATL@@KAPAUHKEY__@@PA_W@Z 100069c6 f i Lights.obj
 0001:000059f4       ?HasSubKeys@CRegParser@ATL@@IAEHPAUHKEY__@@@Z 100069f4 f i Lights.obj
 0001:00005a29       ?IDataObject_GetData@CComControlBase@ATL@@QAEJPAUtagFORMATETC@@PAUtagSTGMEDIUM@@@Z 10006a29 f i Lights.obj
 0001:00005bcf       ?IOleInPlaceObject_InPlaceDeactivate@CComControlBase@ATL@@QAEJXZ 10006bcf f i Lights.obj
 0001:00005c56       ?IOleInPlaceObject_SetObjectRects@CComControlBase@ATL@@QAEJPBUtagRECT@@0@Z 10006c56 f i Lights.obj
 0001:00005d23       ?IOleInPlaceObject_UIDeactivate@CComControlBase@ATL@@QAEJXZ 10006d23 f i Lights.obj
 0001:00005de5       ?IOleObject_Advise@CComControlBase@ATL@@QAEJPAUIAdviseSink@@PAK@Z 10006de5 f i Lights.obj
 0001:00005e0f       ?IOleObject_Close@CComControlBase@ATL@@QAEJK@Z 10006e0f f i Lights.obj
 0001:00005ef3       ?IOleObject_GetClientSite@CComControlBase@ATL@@QAEJPAPAUIOleClientSite@@@Z 10006ef3 f i Lights.obj
 0001:00005f1c       ?IOleObject_SetClientSite@CComControlBase@ATL@@QAEJPAUIOleClientSite@@@Z 10006f1c f i Lights.obj
 0001:00005f5b       ?IOleObject_SetExtent@CComControlBase@ATL@@QAEJKPAUtagSIZE@@@Z 10006f5b f i Lights.obj
 0001:0000600d       ?IPSI_GetIPersistStreamInit@?$IPersistStorageImpl@VCOPOSLights@@@ATL@@AAEPAUIPersistStreamInit@@XZ 1000700d f i Lights.obj
 0001:000060b5       ?IPersistStreamInit_Load@?$IPersistStreamInitImpl@VCOPOSLights@@@ATL@@QAEJPAUIStream@@PBUATL_PROPMAP_ENTRY@2@@Z 100070b5 f i Lights.obj
 0001:0000632a       ?IPersistStreamInit_Save@?$IPersistStreamInitImpl@VCOPOSLights@@@ATL@@QAEJPAUIStream@@HPBUATL_PROPMAP_ENTRY@2@@Z 1000732a f i Lights.obj
 0001:00006518       ?IQuickActivate_QuickActivate@CComControlBase@ATL@@QAEJPAUtagQACONTAINER@@PAUtagQACONTROL@@@Z 10007518 f i Lights.obj
 0001:0000675a       ?IViewObject_Draw@CComControlBase@ATL@@QAEJKJPAXPAUtagDVTARGETDEVICE@@PAUHDC__@@2PBU_RECTL@@3@Z 1000775a f i Lights.obj
 0001:00006802       ?InPlaceActivate@CComControlBase@ATL@@QAEJJPBUtagRECT@@@Z 10007802 f i Lights.obj
 0001:00006a73       ?Init@?$CComEnumImpl@UIEnumConnectionPoints@@$1?_GUID_b196b285_bab4_101a_b69c_00aa00341d07@@3U__s_GUID@@BPAUIConnectionPoint@@V?$_CopyInterface@UIConnectionPoint@@@ATL@@@ATL@@QAEJPAPAUIConnectionPoint@@0PAUIUnknown@@W4CComEnumFlags@2@@Z 10007a73 f i Lights.obj
 0001:00006b52       ?Init@?$CComEnumImpl@UIEnumConnections@@$1?_GUID_b196b287_bab4_101a_b69c_00aa00341d07@@3U__s_GUID@@BUtagCONNECTDATA@@V?$_Copy@UtagCONNECTDATA@@@ATL@@@ATL@@QAEJPAUtagCONNECTDATA@@0PAUIUnknown@@W4CComEnumFlags@2@@Z 10007b52 f i Lights.obj
 0001:00006c31       ?Init@CComModule@ATL@@QAEJPAU_ATL_OBJMAP_ENTRY30@2@PAUHINSTANCE__@@PBU_GUID@@@Z 10007c31 f i Lights.obj
 0001:00006c90       ?Init@CDynamicStdCallThunk2@ATL@@QAEHKPAX@Z 10007c90 f i Lights.obj
 0001:00006cbb       ?InlineIsEqualUnknown@ATL@@YGHABU_GUID@@@Z 10007cbb f i Lights.obj
 0001:00006ce3       ?InternalSetAtIndex@?$CSimpleMap@PA_WPA_WVCExpansionVectorEqualHelper@ATL@@@ATL@@QAEXHABQA_W0@Z 10007ce3 f i Lights.obj
 0001:00006d0d       ?Invoke@CComTypeInfoHolder@ATL@@QAEJPAUIDispatch@@JABU_GUID@@KGPAUtagDISPPARAMS@@PAUtagVARIANT@@PAUtagEXCEPINFO@@PAI@Z 10007d0d f i Lights.obj
 0001:00006d50       ?IsEqualObject@?$CComPtrBase@UIOleClientSite@@@ATL@@QAE_NPAUIUnknown@@@Z 10007d50 f i Lights.obj
 0001:00006d50       ?IsEqualObject@?$CComPtrBase@UITypeInfo@@@ATL@@QAE_NPAUIUnknown@@@Z 10007d50 f i Lights.obj
 0001:00006dbd       ?IsSpace@CRegParser@ATL@@IAEH_W@Z 10007dbd f i Lights.obj
 0001:00006de7       ?LoadNameCache@CComTypeInfoHolder@ATL@@QAEJPAUITypeInfo@@@Z 10007de7 f i Lights.obj
 0001:00006f1c       ?Lookup@?$CSimpleMap@PA_WPA_WVCExpansionVectorEqualHelper@ATL@@@ATL@@QBEPA_WABQA_W@Z 10007f1c f i Lights.obj
 0001:00006f42       ?NextToken@CRegParser@ATL@@IAEJPA_W@Z 10007f42 f i Lights.obj
 0001:0000707a       ?OnKillFocus@CComControlBase@ATL@@QAEJIIJAAH@Z 1000807a f i Lights.obj
 0001:000070d5       ?OnMouseActivate@CComControlBase@ATL@@QAEJIIJAAH@Z 100080d5 f i Lights.obj
 0001:00007143       ?OnPaint@CComControlBase@ATL@@QAEJIIJAAH@Z 10008143 f i Lights.obj
 0001:000071f5       ?OnSetFocus@CComControlBase@ATL@@QAEJIIJAAH@Z 100081f5 f i Lights.obj
 0001:0000727e       ?Open@CRegKey@ATL@@QAEJPAUHKEY__@@PB_WK@Z 1000827e f i Lights.obj
 0001:000072d3       ?PreProcessBuffer@CRegParser@ATL@@QAEJPA_WPAPA_W@Z 100082d3 f i Lights.obj
 0001:00007542       ?ProcessWindowMessage@?$CComControl@VCOPOSLights@@V?$CWindowImpl@VCOPOSLights@@VCWindow@ATL@@V?$CWinTraits@$0FGAAAAAA@$0A@@3@@ATL@@@ATL@@UAEHPAUHWND__@@IIJAAJK@Z 10008542 f i Lights.obj
 0001:000075e1       ?ReadFromStream@CComBSTR@ATL@@QAEJPAUIStream@@@Z 100085e1 f i Lights.obj
 0001:00007704       ?ReadFromStream@CComVariant@ATL@@QAEJPAUIStream@@GTClassesAllowedInStream@2@K@Z 10008704 f i Lights.obj
 0001:0000788e       ?RecurseDeleteKey@CRegKey@ATL@@QAEJPB_W@Z 1000888e f i Lights.obj
 0001:0000797c       ?RegCreateKeyExW@CAtlTransactionManager@ATL@@QAEJPAUHKEY__@@PB_WKPA_WKKQAU_SECURITY_ATTRIBUTES@@PAPAU3@PAK@Z 1000897c f i Lights.obj
 0001:000079df       ?RegDeleteKeyW@CAtlTransactionManager@ATL@@QAEJPAUHKEY__@@PB_W@Z 100089df f i Lights.obj
 0001:00007a31       ?RegOpenKeyExW@CAtlTransactionManager@ATL@@QAEJPAUHKEY__@@PB_WKKPAPAU3@@Z 10008a31 f i Lights.obj
 0001:00007a88       ?Register@_ATL_WNDCLASSINFOW@ATL@@QAEGPAP6GJPAUHWND__@@IIJ@Z@Z 10008a88 f i Lights.obj
 0001:00007aa8       ?RegisterBuffer@CRegParser@ATL@@QAEJPA_WH@Z 10008aa8 f i Lights.obj
 0001:00007bef       ?RegisterFromResource@CRegObject@ATL@@IAEJPB_W00H@Z 10008bef f i Lights.obj
 0001:00007d25       ?RegisterServer@?$CAtlModuleT@VCComModule@ATL@@@ATL@@QAEJHPBU_GUID@@@Z 10008d25 f i Lights.obj
 0001:00007d53       ?RegisterServer@CComModule@ATL@@QAEJHPBU_GUID@@@Z 10008d53 f i Lights.obj
 0001:00007dc9       ?RegisterSubkeys@CRegParser@ATL@@IAEJPA_WPAUHKEY__@@HH@Z 10008dc9 f i Lights.obj
 0001:00008476       ?Remove@CComDynamicUnkArray@ATL@@QAEHK@Z 10009476 f i Lights.obj
 0001:0000849f       ?RemoveAll@?$CSimpleMap@PA_WPA_WVCExpansionVectorEqualHelper@ATL@@@ATL@@QAEXXZ 1000949f f i Lights.obj
 0001:000084cb       ?ResourceRegisterSz@CRegObject@ATL@@QAGJPB_W00@Z 100094cb f i Lights.obj
 0001:000084f8       ?ResourceUnregisterSz@CRegObject@ATL@@QAGJPB_W00@Z 100094f8 f i Lights.obj
 0001:00008525       ?SendOnDataChange@CComControlBase@ATL@@QAEJK@Z 10009525 f i Lights.obj
 0001:00008572       ?SetControlFocus@CComControlBase@ATL@@QAEHH@Z 10009572 f i Lights.obj
 0001:0000860f       ?SetMultiStringValue@CRegKey@ATL@@QAEJPB_W0@Z 1000960f f i Lights.obj
 0001:0000866b       ?SetStringValue@CRegKey@ATL@@QAEJPB_W0K@Z 1000966b f i Lights.obj
 0001:000086b4       ?SkipAssignment@CRegParser@ATL@@IAEJPA_W@Z 100096b4 f i Lights.obj
 0001:00008719       ?SkipWhiteSpace@CRegParser@ATL@@IAEXXZ 10009719 f i Lights.obj
 0001:0000873b       ?StrChrW@CRegParser@ATL@@KAPA_WPA_W_W@Z 1000973b f i Lights.obj
 0001:00008778       ?Term@CAtlModule@ATL@@QAEXXZ 10009778 f i Lights.obj
 0001:000087cb       ?Term@CComModule@ATL@@QAEXXZ 100097cb f i Lights.obj
 0001:00008823       ?UnregisterServer@?$CAtlModuleT@VCComModule@ATL@@@ATL@@QAEJHPBU_GUID@@@Z 10009823 f i Lights.obj
 0001:00008849       ?UnregisterServer@CComModule@ATL@@QAEJHPBU_GUID@@@Z 10009849 f i Lights.obj
 0001:000088bf       ?UpdateRegistryFromResource@CAtlModule@ATL@@QAGJIHPAU_ATL_REGMAP_ENTRY@2@@Z 100098bf f i Lights.obj
 0001:00008a8a       ?UpdateRegistryFromResource@CAtlModule@ATL@@QAGJPB_WHPAU_ATL_REGMAP_ENTRY@2@@Z 10009a8a f i Lights.obj
 0001:00008c5b       ?VTFromRegType@CRegParser@ATL@@KAHPB_WAAG@Z 10009c5b f i Lights.obj
 0001:00008cc8       ?WindowProc@?$CWindowImplBaseT@VCWindow@ATL@@V?$CWinTraits@$0FGAAAAAA@$0A@@2@@ATL@@SGJPAUHWND__@@IIJ@Z 10009cc8 f i Lights.obj
 0001:00008dba       ?WriteToStream@CComBSTR@ATL@@QAEJPAUIStream@@@Z 10009dba f i Lights.obj
 0001:00008e1c       ?WriteToStream@CComVariant@ATL@@QAEJPAUIStream@@@Z 10009e1c f i Lights.obj
 0001:00008f96       ?WriteToStream@CComVariant@ATL@@QAEJPAUIStream@@G@Z 10009f96 f i Lights.obj
 0001:00008fff       ?_AtlInitialConstruct@?$CComObjectRootEx@VCComMultiThreadModel@ATL@@@ATL@@QAEJXZ 10009fff f i Lights.obj
 0001:00009014       ?_AtlVerifyStackAvailable@_ATL_SAFE_ALLOCA_IMPL@ATL@@YA_NK@Z 1000a014 f i Lights.obj
 0001:00009092       ?atlCreate@?$CWindowImpl@VCOPOSLights@@VCWindow@ATL@@V?$CWinTraits@$0FGAAAAAA@$0A@@3@@ATL@@QAEPAUHWND__@@PAU3@V_U_RECT@2@PB_WKKV_U_MENUorID@2@PAX@Z 1000a092 f i Lights.obj
 0001:000090d6       ?atlCreate@?$CWindowImplBaseT@VCWindow@ATL@@V?$CWinTraits@$0FGAAAAAA@$0A@@2@@ATL@@QAEPAUHWND__@@PAU3@V_U_RECT@2@PB_WKKV_U_MENUorID@2@GPAX@Z 1000a0d6 f i Lights.obj
 0001:00009172       ?copy@?$_Copy@UtagCONNECTDATA@@@ATL@@SAJPAUtagCONNECTDATA@@PBU3@@Z 1000a172 f i Lights.obj
 0001:000091a8       ?copy@?$_CopyInterface@UIConnectionPoint@@@ATL@@SAJPAPAUIConnectionPoint@@PBQAU3@@Z 1000a1a8 f i Lights.obj
 0001:000091d6       ?memcpy_s@Checked@ATL@@YAXPAXIPBXI@Z 1000a1d6 f i Lights.obj
 0001:000091f5       ?ocscpy_s@@YA_NPA_WIPB_W@Z 1000a1f5 f i Lights.obj
 0001:0000923f       ?wcscpy_s@Checked@ATL@@YAXPA_WIPB_W@Z 1000a23f f i Lights.obj
 0001:0000925b       _DllCanUnloadNow@0         1000a25b f   Lights.obj
 0001:00009267       _DllGetClassObject@12      1000a267 f   Lights.obj
 0001:00009275       _DllMain@12                1000a275 f   Lights.obj
 0001:000092b7       _DllRegisterServer@0       1000a2b7 f   Lights.obj
 0001:000092c6       _DllUnregisterServer@0     1000a2c6 f   Lights.obj
 0001:000092d5       _InlineIsEqualGUID         1000a2d5 f i Lights.obj
 0001:00009305       ___local_stdio_printf_options 1000a305 f i Lights.obj
 0001:0000930b       __vswprintf_s_l            1000a30b f i Lights.obj
 0001:000093b8       _swprintf_s                1000a3b8 f i Lights.obj
 0001:000093d4       ??0?$CComControl@VCOPOSLights@@V?$CWindowImpl@VCOPOSLights@@VCWindow@ATL@@V?$CWinTraits@$0FGAAAAAA@$0A@@3@@ATL@@@ATL@@QAE@XZ 1000a3d4 f i LightsImpl.obj
 0001:000093fb       ??0CComControlBase@ATL@@QAE@AAPAUHWND__@@@Z 1000a3fb f i LightsImpl.obj
 0001:0000944b       ??0COPOSLights@@QAE@XZ     1000a44b f   LightsImpl.obj
 0001:0000949a       ??1?$CComControl@VCOPOSLights@@V?$CWindowImpl@VCOPOSLights@@VCWindow@ATL@@V?$CWinTraits@$0FGAAAAAA@$0A@@3@@ATL@@@ATL@@UAE@XZ 1000a49a f i LightsImpl.obj
 0001:000094b3       ??1?$IConnectionPointImpl@VCOPOSLights@@$1?IID_IPropertyNotifySink@@3U_GUID@@BVCComDynamicUnkArray@ATL@@@ATL@@QAE@XZ 1000a4b3 f i LightsImpl.obj
 0001:000094b3       ??1?$IConnectionPointImpl@VCOPOSLights@@$1?DIID__IOPOSLightsEvents@@3U_GUID@@BVCComDynamicUnkArray@ATL@@@ATL@@QAE@XZ 1000a4b3 f i LightsImpl.obj
 0001:000094f0       ??1CComControlBase@ATL@@UAE@XZ 1000a4f0 f i LightsImpl.obj
 0001:00009553       ??1COPOSLights@@UAE@XZ     1000a553 f   LightsImpl.obj
 0001:0000959b       ?CheckHealth@COPOSLights@@UAGJJPAJ@Z 1000a59b f   LightsImpl.obj
 0001:000095ea       ?ClaimDevice@COPOSLights@@UAGJJPAJ@Z 1000a5ea f   LightsImpl.obj
 0001:0000965f       ?Close@COPOSLights@@UAGJPAJ@Z 1000a65f f   LightsImpl.obj
 0001:000096cd       ?CompareFirmwareVersion@COPOSLights@@UAGJPA_WPAJ1@Z 1000a6cd f   LightsImpl.obj
 0001:0000974d       ?DirectIO@COPOSLights@@UAGJJPAJPAPA_W0@Z 1000a74d f   LightsImpl.obj
 0001:000097fb       ?DoInvoke@COPOSLights@@IAEJJPAVOposVariant@@IHPAJ_N@Z 1000a7fb f   LightsImpl.obj
 0001:000098d7       ?EventClose@COPOSLights@@IAEXXZ 1000a8d7 f i LightsImpl.obj
 0001:0000990a       ?EventInit@COPOSLights@@IAEJXZ 1000a90a f i LightsImpl.obj
 0001:000099d6       ?EventUninit@COPOSLights@@IAEXXZ 1000a9d6 f i LightsImpl.obj
 0001:00009a28       ?EventWindowProc@COPOSLights@@IAGJIIJ@Z 1000aa28 f i LightsImpl.obj
 0001:00009a9f       ?FinalConstruct@COPOSLights@@QAEJXZ 1000aa9f f   LightsImpl.obj
 0001:00009ad8       ?FireEventCleanup@COPOSLights@@IAEXXZ 1000aad8 f i LightsImpl.obj
 0001:00009aee       ?FireEventSetup@COPOSLights@@IAE_NXZ 1000aaee f i LightsImpl.obj
 0001:00009b22       ?FreezeEvents@COPOSLights@@MAGJH@Z 1000ab22 f   LightsImpl.obj
 0001:00009b73       ?GetOposProp@COPOSLights@@IAEJJPAFJ@Z 1000ab73 f   LightsImpl.obj
 0001:00009b96       ?GetOposProp@COPOSLights@@IAEJJPAJJ@Z 1000ab96 f   LightsImpl.obj
 0001:00009c65       ?GetOposProp@COPOSLights@@IAEJJPAPA_WJ@Z 1000ac65 f   LightsImpl.obj
 0001:00009d41       ?OnDraw@COPOSLights@@MAEJAAUATL_DRAWINFO@@@Z 1000ad41 f   LightsImpl.obj
 0001:00009de1       ?Open@COPOSLights@@UAGJPA_WPAJ@Z 1000ade1 f   LightsImpl.obj
 0001:0000a623       ?ReleaseDevice@COPOSLights@@UAGJPAJ@Z 1000b623 f   LightsImpl.obj
 0001:0000a672       ?ResetStatistics@COPOSLights@@UAGJPA_WPAJ@Z 1000b672 f   LightsImpl.obj
 0001:0000a6c9       ?RetrieveStatistics@COPOSLights@@UAGJPAPA_WPAJ@Z 1000b6c9 f   LightsImpl.obj
 0001:0000a720       ?SOProcessID@COPOSLights@@UAGJPAJ@Z 1000b720 f   LightsImpl.obj
 0001:0000a734       ?SetCOFreezeEvents@COPOSLights@@IAEXF@Z 1000b734 f   LightsImpl.obj
 0001:0000a7d4       ?SetOposProp@COPOSLights@@IAEJJJJ@Z 1000b7d4 f   LightsImpl.obj
 0001:0000a8cb       ?SwitchOff@COPOSLights@@UAGJJPAJ@Z 1000b8cb f   LightsImpl.obj
 0001:0000a91a       ?SwitchOn@COPOSLights@@UAGJJJJJJPAJ@Z 1000b91a f   LightsImpl.obj
 0001:0000a9c6       ?UpdateFirmware@COPOSLights@@UAGJPA_WPAJ@Z 1000b9c6 f   LightsImpl.obj
 0001:0000aa1d       ?UpdateStatistics@COPOSLights@@UAGJPA_WPAJ@Z 1000ba1d f   LightsImpl.obj
 0001:0000aa74       ?get_BinaryConversion@COPOSLights@@UAGJPAJ@Z 1000ba74 f   LightsImpl.obj
 0001:0000aa8a       ?get_CapAlarm@COPOSLights@@UAGJPAJ@Z 1000ba8a f   LightsImpl.obj
 0001:0000aaa3       ?get_CapBlink@COPOSLights@@UAGJPAF@Z 1000baa3 f   LightsImpl.obj
 0001:0000aabc       ?get_CapColor@COPOSLights@@UAGJPAJ@Z 1000babc f   LightsImpl.obj
 0001:0000aad5       ?get_CapCompareFirmwareVersion@COPOSLights@@UAGJPAF@Z 1000bad5 f   LightsImpl.obj
 0001:0000aaee       ?get_CapPowerReporting@COPOSLights@@UAGJPAJ@Z 1000baee f   LightsImpl.obj
 0001:0000ab07       ?get_CapStatisticsReporting@COPOSLights@@UAGJPAF@Z 1000bb07 f   LightsImpl.obj
 0001:0000ab20       ?get_CapUpdateFirmware@COPOSLights@@UAGJPAF@Z 1000bb20 f   LightsImpl.obj
 0001:0000ab39       ?get_CapUpdateStatistics@COPOSLights@@UAGJPAF@Z 1000bb39 f   LightsImpl.obj
 0001:0000ab52       ?get_CheckHealthText@COPOSLights@@UAGJPAPA_W@Z 1000bb52 f   LightsImpl.obj
 0001:0000ab6b       ?get_Claimed@COPOSLights@@UAGJPAF@Z 1000bb6b f   LightsImpl.obj
 0001:0000ab81       ?get_ControlObjectDescription@COPOSLights@@UAGJPAPA_W@Z 1000bb81 f   LightsImpl.obj
 0001:0000abcf       ?get_ControlObjectVersion@COPOSLights@@UAGJPAJ@Z 1000bbcf f   LightsImpl.obj
 0001:0000abe2       ?get_DeviceDescription@COPOSLights@@UAGJPAPA_W@Z 1000bbe2 f   LightsImpl.obj
 0001:0000abfb       ?get_DeviceEnabled@COPOSLights@@UAGJPAF@Z 1000bbfb f   LightsImpl.obj
 0001:0000ac11       ?get_DeviceName@COPOSLights@@UAGJPAPA_W@Z 1000bc11 f   LightsImpl.obj
 0001:0000ac2a       ?get_FreezeEvents@COPOSLights@@UAGJPAF@Z 1000bc2a f   LightsImpl.obj
 0001:0000ac40       ?get_MaxLights@COPOSLights@@UAGJPAJ@Z 1000bc40 f   LightsImpl.obj
 0001:0000ac59       ?get_OpenResult@COPOSLights@@UAGJPAJ@Z 1000bc59 f   LightsImpl.obj
 0001:0000ac70       ?get_PowerNotify@COPOSLights@@UAGJPAJ@Z 1000bc70 f   LightsImpl.obj
 0001:0000ac86       ?get_PowerState@COPOSLights@@UAGJPAJ@Z 1000bc86 f   LightsImpl.obj
 0001:0000ac9c       ?get_ResultCode@COPOSLights@@UAGJPAJ@Z 1000bc9c f   LightsImpl.obj
 0001:0000acda       ?get_ResultCodeExtended@COPOSLights@@UAGJPAJ@Z 1000bcda f   LightsImpl.obj
 0001:0000acf0       ?get_ServiceObjectDescription@COPOSLights@@UAGJPAPA_W@Z 1000bcf0 f   LightsImpl.obj
 0001:0000ad09       ?get_ServiceObjectVersion@COPOSLights@@UAGJPAJ@Z 1000bd09 f   LightsImpl.obj
 0001:0000ad1f       ?get_State@COPOSLights@@UAGJPAJ@Z 1000bd1f f   LightsImpl.obj
 0001:0000ad4b       ?put_BinaryConversion@COPOSLights@@UAGJJ@Z 1000bd4b f   LightsImpl.obj
 0001:0000ad61       ?put_DeviceEnabled@COPOSLights@@UAGJF@Z 1000bd61 f   LightsImpl.obj
 0001:0000ad7e       ?put_FreezeEvents@COPOSLights@@UAGJF@Z 1000bd7e f   LightsImpl.obj
 0001:0000adca       ?put_PowerNotify@COPOSLights@@UAGJJ@Z 1000bdca f   LightsImpl.obj
 0001:0000ade0       ?s_EventWindowProc@COPOSLights@@KGJPAUHWND__@@IIJ@Z 1000bde0 f i LightsImpl.obj
 0001:0000ae32       ??_U@YAPAXI@Z              1000be32 f   LIBCMT:new_array.obj
 0001:0000ae3b       ??3@YAXPAXI@Z              1000be3b f   LIBCMT:delete_scalar_size.obj
 0001:0000ae49       ??_V@YAXPAX@Z              1000be49 f   LIBCMT:delete_array.obj
 0001:0000ae4e       ??_V@YAXPAXI@Z             1000be4e f   LIBCMT:delete_array_size.obj
 0001:0000aea0       ___scrt_acquire_startup_lock 1000bea0 f   LIBCMT:utility.obj
 0001:0000aed2       ___scrt_dllmain_after_initialize_c 1000bed2 f   LIBCMT:utility.obj
 0001:0000aefd       ___scrt_dllmain_before_initialize_c 1000befd f   LIBCMT:utility.obj
 0001:0000af0b       ___scrt_dllmain_crt_thread_attach 1000bf0b f   LIBCMT:utility.obj
 0001:0000af2a       ___scrt_dllmain_crt_thread_detach 1000bf2a f   LIBCMT:utility.obj
 0001:0000af37       ___scrt_dllmain_exception_filter 1000bf37 f   LIBCMT:utility.obj
 0001:0000af6b       ___scrt_dllmain_uninitialize_c 1000bf6b f   LIBCMT:utility.obj
 0001:0000af8e       ___scrt_dllmain_uninitialize_critical 1000bf8e f   LIBCMT:utility.obj
 0001:0000af9b       ___scrt_initialize_crt     1000bf9b f   LIBCMT:utility.obj
 0001:0000afd4       ___scrt_initialize_onexit_tables 1000bfd4 f   LIBCMT:utility.obj
 0001:0000b05b       ___scrt_is_nonwritable_in_current_image 1000c05b f   LIBCMT:utility.obj
 0001:0000b0ef       ___scrt_release_startup_lock 1000c0ef f   LIBCMT:utility.obj
 0001:0000b10c       ___scrt_uninitialize_crt   1000c10c f   LIBCMT:utility.obj
 0001:0000b134       __onexit                   1000c134 f   LIBCMT:utility.obj
 0001:0000b161       _atexit                    1000c161 f   LIBCMT:utility.obj
 0001:0000b176       ??3@YAXPAX@Z               1000c176 f   LIBCMT:delete_scalar.obj
 0001:0000b240       __Init_thread_footer       1000c240 f   LIBCMT:thread_safe_statics.obj
 0001:0000b28a       __Init_thread_header       1000c28a f   LIBCMT:thread_safe_statics.obj
 0001:0000b2dc       __Init_thread_notify       1000c2dc f   LIBCMT:thread_safe_statics.obj
 0001:0000b312       __Init_thread_wait         1000c312 f   LIBCMT:thread_safe_statics.obj
 0001:0000b360       ___raise_securityfailure   1000c360 f   LIBCMT:gs_report.obj
 0001:0000b388       ___report_gsfailure        1000c388 f   LIBCMT:gs_report.obj
 0001:0000b481       ___report_rangecheckfailure 1000c481 f   LIBCMT:gs_report.obj
 0001:0000b48d       ___report_securityfailure  1000c48d f   LIBCMT:gs_report.obj
 0001:0000b55b       ??2@YAPAXIABUnothrow_t@std@@@Z 1000c55b f   LIBCMT:new_scalar_nothrow.obj
 0001:0000b5b0       ??_U@YAPAXIABUnothrow_t@std@@@Z 1000c5b0 f   LIBCMT:new_array_nothrow.obj
 0001:0000b5b9       @__security_check_cookie@4 1000c5b9 f   LIBCMT:secchk.obj
 0001:0000b5d0       __SEH_prolog4_GS           1000c5d0 f   LIBCMT:sehprolg4gs.obj
 0001:0000b617       __SEH_epilog4_GS           1000c617 f   LIBCMT:sehprolg4gs.obj
 0001:0000b630       __alloca_probe_16          1000c630 f   LIBCMT:alloca16.obj
 0001:0000b646       __alloca_probe_8           1000c646     LIBCMT:alloca16.obj
 0001:0000b660       __alloca_probe             1000c660 f   LIBCMT:chkstk.obj
 0001:0000b660       __chkstk                   1000c660 f   LIBCMT:chkstk.obj
 0001:0000b9cd       __DllMainCRTStartup@12     1000c9cd f   LIBCMT:dll_dllmain.obj
 0001:0000b9f0       ??2@YAPAXI@Z               1000c9f0 f   LIBCMT:new_scalar.obj
 0001:0000ba20       ___isa_available_init      1000ca20 f   LIBCMT:cpu_disp.obj
 0001:0000bbf0       ___scrt_is_ucrt_dll_in_use 1000cbf0 f   LIBCMT:ucrt_detection.obj
 0001:0000bbfc       ___scrt_fastfail           1000cbfc f   LIBCMT:utility_desktop.obj
 0001:0000bd16       __crt_debugger_hook        1000cd16 f   LIBCMT:utility_desktop.obj
 0001:0000bd20       __SEH_prolog4              1000cd20 f   LIBCMT:sehprolg4.obj
 0001:0000bd64       __SEH_epilog4              1000cd64 f   LIBCMT:sehprolg4.obj
 0001:0000bd78       @_guard_check_icall_nop@4  1000cd78 f i LIBCMT:guard_support.obj
 0001:0000bdc8       ___security_init_cookie    1000cdc8 f   LIBCMT:gs_support.obj
 0001:0000be13       ?__scrt_initialize_type_info@@YAXXZ 1000ce13 f   LIBCMT:tncleanup.obj
 0001:0000be1f       ?__scrt_uninitialize_type_info@@YAXXZ 1000ce1f f   LIBCMT:tncleanup.obj
 0001:0000be2b       ___local_stdio_scanf_options 1000ce2b f i LIBCMT:default_local_stdio_options.obj
 0001:0000be31       ___scrt_initialize_default_local_stdio_options 1000ce31 f   LIBCMT:default_local_stdio_options.obj
 0001:0000be4e       ___scrt_get_dyn_tls_init_callback 1000ce4e f   LIBCMT:dyn_tls_init.obj
 0001:0000be54       __RTC_Initialize           1000ce54 f   LIBCMT:initsect.obj
 0001:0000be80       __RTC_Terminate            1000ce80 f   LIBCMT:initsect.obj
 0001:0000beac       ??0bad_alloc@std@@QAE@ABV01@@Z 1000ceac f i LIBCMT:throw_bad_alloc.obj
 0001:0000bec7       ??0bad_alloc@std@@QAE@XZ   1000cec7 f i LIBCMT:throw_bad_alloc.obj
 0001:0000bedf       ??0bad_array_new_length@std@@QAE@ABV01@@Z 1000cedf f i LIBCMT:throw_bad_alloc.obj
 0001:0000befa       ??0bad_array_new_length@std@@QAE@XZ 1000cefa f i LIBCMT:throw_bad_alloc.obj
 0001:0000bf12       ??0exception@std@@QAE@ABV01@@Z 1000cf12 f i LIBCMT:throw_bad_alloc.obj
 0001:0000bf3e       ??1bad_alloc@std@@UAE@XZ   1000cf3e f i LIBCMT:throw_bad_alloc.obj
 0001:0000bf3e       ??1bad_exception@std@@UAE@XZ 1000cf3e f i libvcruntime:frame.obj
 0001:0000bf3e       ??1bad_array_new_length@std@@UAE@XZ 1000cf3e f i LIBCMT:throw_bad_alloc.obj
 0001:0000bf4f       ??_Ebad_array_new_length@std@@UAEPAXI@Z 1000cf4f f i LIBCMT:throw_bad_alloc.obj
 0001:0000bf4f       ??_Ebad_alloc@std@@UAEPAXI@Z 1000cf4f f i LIBCMT:throw_bad_alloc.obj
 0001:0000bf4f       ??_Ebad_exception@std@@UAEPAXI@Z 1000cf4f f i libvcruntime:frame.obj
 0001:0000bf4f       ??_Gbad_alloc@std@@UAEPAXI@Z 1000cf4f f i LIBCMT:throw_bad_alloc.obj
 0001:0000bf4f       ??_Gbad_array_new_length@std@@UAEPAXI@Z 1000cf4f f i LIBCMT:throw_bad_alloc.obj
 0001:0000bf4f       ??_Eexception@std@@UAEPAXI@Z 1000cf4f f i LIBCMT:throw_bad_alloc.obj
 0001:0000bf4f       ??_Gexception@std@@UAEPAXI@Z 1000cf4f f i LIBCMT:throw_bad_alloc.obj
 0001:0000bf4f       ??_Gbad_exception@std@@UAEPAXI@Z 1000cf4f f i libvcruntime:frame.obj
 0001:0000bf7c       ?__scrt_throw_std_bad_alloc@@YAXXZ 1000cf7c f   LIBCMT:throw_bad_alloc.obj
 0001:0000bf99       ?__scrt_throw_std_bad_array_new_length@@YAXXZ 1000cf99 f   LIBCMT:throw_bad_alloc.obj
 0001:0000bfb6       ?what@exception@std@@UBEPBDXZ 1000cfb6 f i LIBCMT:throw_bad_alloc.obj
 0001:0000bfc3       ??_Gtype_info@@UAEPAXI@Z   1000cfc3 f i LIBCMT:std_type_info_static.obj
 0001:0000bfc3       ??_Etype_info@@UAEPAXI@Z   1000cfc3 f i LIBCMT:std_type_info_static.obj
 0001:0000bfe6       ??0CAtlBaseModule@ATL@@QAE@XZ 1000cfe6 f   atls:atlbase.obj
 0001:0000c039       ??0_ATL_BASE_MODULE70@ATL@@QAE@XZ 1000d039 f i atls:atlbase.obj
 0001:0000c05c       ??1CAtlBaseModule@ATL@@QAE@XZ 1000d05c f   atls:atlbase.obj
 0001:0000c149       ?Init@_stdcallthunk@ATL@@QAEHKPAX@Z 1000d149 f i atls:atlthunk.obj
 0001:0000c17e       ?__AllocStdCallThunk_cmn@@YAPAXXZ 1000d17e f   atls:atlthunk.obj
 0001:0000c244       ?__FreeStdCallThunk_cmn@@YAXPAX@Z 1000d244 f   atls:atlthunk.obj
 0001:0000c2df       _AtlThunk_AllocateData@0   1000d2df f   atls:atlthunk.obj
 0001:0000c344       _AtlThunk_DataToCode@4     1000d344 f   atls:atlthunk.obj
 0001:0000c38b       _AtlThunk_FreeData@4       1000d38b f   atls:atlthunk.obj
 0001:0000c3e1       _AtlThunk_InitData@12      1000d3e1 f   atls:atlthunk.obj
 0001:0000c430       __get_purecall_handler     1000d430 f   libvcruntime:purevirt.obj
 0001:0000c436       __purecall                 1000d436 f   libvcruntime:purevirt.obj
 0001:0000c452       _wcsstr                    1000d452 f   libvcruntime:wcsstr.obj
 0001:0000c700       __except_handler4          1000d700 f   libvcruntime:chandler4.obj
 0001:0000c85e       _memcmp                    1000d85e f   libvcruntime:memcmp.obj
 0001:0000d770       _memcpy                    1000e770 f   libvcruntime:memcpy.obj
 0001:0000dcf0       _memset                    1000ecf0 f   libvcruntime:memset.obj
 0001:0000de4a       ___vcrt_initialize         1000ee4a f   libvcruntime:initialization.obj
 0001:0000de69       ___vcrt_thread_attach      1000ee69 f   libvcruntime:initialization.obj
 0001:0000de74       ___vcrt_thread_detach      1000ee74 f   libvcruntime:initialization.obj
 0001:0000de7f       ___vcrt_uninitialize       1000ee7f f   libvcruntime:initialization.obj
 0001:0000de96       ___vcrt_uninitialize_critical 1000ee96 f   libvcruntime:initialization.obj
 0001:0000de9e       ?GetRangeOfTrysToCheck@__FrameHandler3@@SA?AU?$pair@Viterator@TryBlockMap@__FrameHandler3@@V123@@std@@AAVTryBlockMap@1@HPAXPBU_s_FuncInfo@@H@Z 1000ee9e f   libvcruntime:trnsctrl.obj
 0001:0000df0e       ?_CallCatchBlock2@@YAPAXPAUEHRegistrationNode@@PBU_s_FuncInfo@@PAXHK@Z 1000ef0e f   libvcruntime:trnsctrl.obj
 0001:0000df6c       ?_CallSETranslator@@YAHPAUEHExceptionRecord@@PAUEHRegistrationNode@@PAX2PBU_s_FuncInfo@@H1@Z 1000ef6c f   libvcruntime:trnsctrl.obj
 0001:0000e052       ?_JumpToContinuation@@YGXPAXPAUEHRegistrationNode@@@Z 1000f052 f   libvcruntime:trnsctrl.obj
 0001:0000e082       ?_UnwindNestedFrames@@YGXPAUEHRegistrationNode@@PAUEHExceptionRecord@@@Z 1000f082 f   libvcruntime:trnsctrl.obj
 0001:0000e0d5       __CatchGuardHandler        1000f0d5 f   libvcruntime:trnsctrl.obj
 0001:0000e106       __CreateFrameInfo          1000f106 f   libvcruntime:trnsctrl.obj
 0001:0000e12a       __FindAndUnlinkFrame       1000f12a f   libvcruntime:trnsctrl.obj
 0001:0000e172       __TranslatorGuardHandler   1000f172 f   libvcruntime:trnsctrl.obj
 0001:0000e20f       ___CxxFrameHandler3        1000f20f f   libvcruntime:trnsctrl.obj
 0001:0000e245       ___DestructExceptionObject 1000f245 f   libvcruntime:ehhelpers.obj
 0001:0000e2e6       ?_CallMemberFunction0@@YGXQAX0@Z 1000f2e6 f i libvcruntime:ehhelpers.obj
 0001:0000e34b       __IsExceptionObjectToBeDestroyed 1000f34b f   libvcruntime:ehhelpers.obj
 0001:0000e371       ___AdjustPointer           1000f371 f   libvcruntime:ehhelpers.obj
 0001:0000e396       ___FrameUnwindFilter       1000f396 f   libvcruntime:ehhelpers.obj
 0001:0000e3ec       ___std_type_info_compare   1000f3ec f   libvcruntime:std_type_info.obj
 0001:0000e428       ___std_type_info_destroy_list 1000f428 f   libvcruntime:std_type_info.obj
 0001:0000e44b       ___std_exception_copy      1000f44b f   libvcruntime:std_exception.obj
 0001:0000e4ae       ___std_exception_destroy   1000f4ae f   libvcruntime:std_exception.obj
 0001:0000e4cd       __CxxThrowException@8      1000f4cd f   libvcruntime:throw.obj
 0001:0000e540       _memmove                   1000f540 f   libvcruntime:memmove.obj
 0001:0000eac0       __local_unwind4            1000fac0 f   libvcruntime:exsup4.obj
 0001:0000eb94       __seh_longjmp_unwind4@4    1000fb94 f   libvcruntime:exsup4.obj
 0001:0000ebbc       @_EH4_CallFilterFunc@8     1000fbbc f   libvcruntime:exsup4.obj
 0001:0000ebd4       @_EH4_TransferToHandler@8  1000fbd4 f   libvcruntime:exsup4.obj
 0001:0000ebf0       @_EH4_GlobalUnwind2@8      1000fbf0 f   libvcruntime:exsup4.obj
 0001:0000ec0c       @_EH4_LocalUnwind@16       1000fc0c f   libvcruntime:exsup4.obj
 0001:0000ec23       ___except_validate_context_record 1000fc23 f   libvcruntime:jbcxrval.obj
 0001:0000ec53       ___except_validate_jump_buffer 1000fc53 f   libvcruntime:jbcxrval.obj
 0001:0000ec80       ___vcrt_freefls@4          1000fc80 f   libvcruntime:per_thread_data.obj
 0001:0000ec9c       ___vcrt_freeptd            1000fc9c f   libvcruntime:per_thread_data.obj
 0001:0000ecd2       ___vcrt_getptd             1000fcd2 f   libvcruntime:per_thread_data.obj
 0001:0000ece0       ___vcrt_getptd_noexit      1000fce0 f   libvcruntime:per_thread_data.obj
 0001:0000ed72       ___vcrt_initialize_ptd     1000fd72 f   libvcruntime:per_thread_data.obj
 0001:0000eda5       ___vcrt_uninitialize_ptd   1000fda5 f   libvcruntime:per_thread_data.obj
 0001:0000edc0       ___vcrt_initialize_locks   1000fdc0 f   libvcruntime:locks.obj
 0001:0000edfc       ___vcrt_uninitialize_locks 1000fdfc f   libvcruntime:locks.obj
 0001:0000f56e       ??$TypeMatchHelper@V__FrameHandler3@@@@YAHPBU_s_HandlerType@@PBU_s_CatchableType@@PBU_s_ThrowInfo@@@Z 1001056e f i libvcruntime:frame.obj
 0001:0000f5fc       ??$__InternalCxxFrameHandler@V__FrameHandler3@@@@YA?AW4_EXCEPTION_DISPOSITION@@PAUEHExceptionRecord@@PAUEHRegistrationNode@@PAU_CONTEXT@@PAXPBU_s_FuncInfo@@H1E@Z 100105fc f i libvcruntime:frame.obj
 0001:0000f6fe       ??0bad_exception@std@@QAE@ABV01@@Z 100106fe f i libvcruntime:frame.obj
 0001:0000f719       ??0bad_exception@std@@QAE@XZ 10010719 f i libvcruntime:frame.obj
 0001:0000f731       ??8type_info@@QBE_NABV0@@Z 10010731 f i libvcruntime:frame.obj
 0001:0000f99d       ?FrameUnwindToEmptyState@__FrameHandler3@@SAXPAUEHRegistrationNode@@PAXPBU_s_FuncInfo@@@Z 1001099d f   libvcruntime:frame.obj
 0001:0000f9b5       ?FrameUnwindToState@__FrameHandler3@@SAXPAUEHRegistrationNode@@PAXPBU_s_FuncInfo@@H@Z 100109b5 f   libvcruntime:frame.obj
 0001:0000fb37       ?_CallMemberFunction1@@YGXQAX00@Z 10010b37 f i libvcruntime:frame.obj
 0001:0000fb47       ?_CallMemberFunction2@@YGXQAX00H@Z 10010b47 f i libvcruntime:frame.obj
 0001:0000fb5a       ?getESTypes@__FrameHandler3@@SAPBU_s_ESTypeList@@PBU_s_FuncInfo@@@Z 10010b5a f i libvcruntime:frame.obj
 0001:0000fb70       __CallSettingFrame@12      10010b70 f   libvcruntime:lowhelpr.obj
 0001:0000fb97       __NLG_Return               10010b97     libvcruntime:lowhelpr.obj
 0001:0000fbc0       __global_unwind2           10010bc0 f   libvcruntime:exsup.obj
 0001:0000fc26       __local_unwind2            10010c26 f   libvcruntime:exsup.obj
 0001:0000fcaa       __abnormal_termination     10010caa f   libvcruntime:exsup.obj
 0001:0000fcd0       __NLG_Notify1              10010cd0 f   libvcruntime:exsup.obj
 0001:0000fcdc       __NLG_Notify               10010cdc f   libvcruntime:exsup.obj
 0001:0000fcf3       __NLG_Dispatch2            10010cf3     libvcruntime:exsup.obj
 0001:0000fcf3       __NLG_Dispatch             10010cf3     libvcruntime:exsup.obj
 0001:0000fcfb       __NLG_Call                 10010cfb f   libvcruntime:exsup.obj
 0001:0000fcfd       __NLG_Return2              10010cfd     libvcruntime:exsup.obj
 0001:0000fde1       ___vcrt_FlsAlloc           10010de1 f   libvcruntime:winapi_downlevel.obj
 0001:0000fe1c       ___vcrt_FlsFree            10010e1c f   libvcruntime:winapi_downlevel.obj
 0001:0000fe57       ___vcrt_FlsGetValue        10010e57 f   libvcruntime:winapi_downlevel.obj
 0001:0000fe92       ___vcrt_FlsSetValue        10010e92 f   libvcruntime:winapi_downlevel.obj
 0001:0000fed0       ___vcrt_InitializeCriticalSectionEx 10010ed0 f   libvcruntime:winapi_downlevel.obj
 0001:0000ff17       _unexpected                10010f17 f   libvcruntime:unexpected.obj
 0001:0000ff34       ?GetCurrentState@__FrameHandler3@@SAHPAUEHRegistrationNode@@PAXPBU_s_FuncInfo@@@Z 10010f34 f   libvcruntime:ehstate.obj
 0001:0000ff51       ?SetState@__FrameHandler3@@SAXPAUEHRegistrationNode@@PBU_s_FuncInfo@@H@Z 10010f51 f   libvcruntime:ehstate.obj
 0001:0000ff5f       _free                      10010f5f f   libucrt:free.obj
 0001:0000ff7a       ___acrt_call_reportfault   10010f7a f   libucrt:invalid_parameter.obj
 0001:000100b3       ___acrt_initialize_invalid_parameter_handler 100110b3 f   libucrt:invalid_parameter.obj
 0001:000100c2       __invalid_parameter        100110c2 f   libucrt:invalid_parameter.obj
 0001:00010126       __invalid_parameter_noinfo 10011126 f   libucrt:invalid_parameter.obj
 0001:00010136       __invoke_watson            10011136 f   libucrt:invalid_parameter.obj
 0001:0001016a       ___acrt_errno_from_os_error 1001116a f   libucrt:errno.obj
 0001:000101ad       ___acrt_errno_map_os_error 100111ad f   libucrt:errno.obj
 0001:000101d0       ___doserrno                100111d0 f   libucrt:errno.obj
 0001:000101e3       __errno                    100111e3 f   libucrt:errno.obj
 0001:000101f6       _calloc                    100111f6 f   libucrt:calloc.obj
 0001:00010201       _malloc                    10011201 f   libucrt:malloc.obj
 0001:0001020c       __recalloc                 1001120c f   libucrt:recalloc.obj
 0001:00010217       __recalloc_base            10011217 f   libucrt:recalloc.obj
 0001:00010284       __resetstkoflw             10011284 f   libucrt:resetstk.obj
 0001:00010349       _wcscat_s                  10011349 f   libucrt:wcscat_s.obj
 0001:000103be       _wcscpy_s                  100113be f   libucrt:wcscpy_s.obj
 0001:000104ed       _wcsncpy_s                 100114ed f   libucrt:wcsncpy_s.obj
 0001:000106f9       ??$count@D@formatting_buffer@__crt_stdio_output@@QBEIXZ 100116f9 f i libucrt:output.obj
 0001:00010711       ??$count@_W@formatting_buffer@__crt_stdio_output@@QBEIXZ 10011711 f i libucrt:output.obj
 0001:0001072a       ??$ensure_buffer_is_big_enough@D@formatting_buffer@__crt_stdio_output@@QAE_NI@Z 1001172a f i libucrt:output.obj
 0001:000107a7       ??$ensure_buffer_is_big_enough@_W@formatting_buffer@__crt_stdio_output@@QAE_NI@Z 100117a7 f i libucrt:output.obj
 0001:00010825       ??$is_wide_character_specifier@_W@__crt_stdio_output@@YA_N_K_WW4length_modifier@0@@Z 10011825 f i libucrt:output.obj
 0001:00010873       ??$scratch_data@D@formatting_buffer@__crt_stdio_output@@QAEPADXZ 10011873 f i libucrt:output.obj
 0001:00010891       ??$type_case_integer_parse_into_buffer@I@?$output_processor@_WV?$string_output_adapter@_W@__crt_stdio_output@@V?$format_validation_base@_WV?$string_output_adapter@_W@__crt_stdio_output@@@2@@__crt_stdio_output@@AAEXII_N@Z 10011891 f i libucrt:output.obj
 0001:00010918       ??$type_case_integer_parse_into_buffer@_K@?$output_processor@_WV?$string_output_adapter@_W@__crt_stdio_output@@V?$format_validation_base@_WV?$string_output_adapter@_W@__crt_stdio_output@@@2@@__crt_stdio_output@@AAEX_KI_N@Z 10011918 f i libucrt:output.obj
 0001:000109ba       ??$write_multiple_characters@V?$string_output_adapter@_W@__crt_stdio_output@@D@__crt_stdio_output@@YAXABV?$string_output_adapter@_W@0@DHQAH@Z 100119ba f i libucrt:output.obj
 0001:000109eb       ??0?$common_data@_W@__crt_stdio_output@@IAE@XZ 100119eb f i libucrt:output.obj
 0001:00010a35       ??0?$output_adapter_data@_WV?$string_output_adapter@_W@__crt_stdio_output@@@__crt_stdio_output@@IAE@ABV?$string_output_adapter@_W@1@_KQB_WQAU__crt_locale_pointers@@QAD@Z 10011a35 f i libucrt:output.obj
 0001:00010a71       ??0_LocaleUpdate@@QAE@QAU__crt_locale_pointers@@@Z 10011a71 f i libucrt:output.obj
 0001:00010af4       ??1formatting_buffer@__crt_stdio_output@@QAE@XZ 10011af4 f i libucrt:output.obj
 0001:00010b0e       ??4?$__crt_unique_heap_ptr@DU__crt_internal_free_policy@@@@QAEAAV0@$$QAV0@@Z 10011b0e f i libucrt:output.obj
 0001:00010b40       ?crop_zeroes@__crt_stdio_output@@YAXPADQAU__crt_locale_pointers@@@Z 10011b40 f i libucrt:output.obj
 0001:00010bc1       ?find_next_state@?$output_processor@_WV?$string_output_adapter@_W@__crt_stdio_output@@V?$format_validation_base@_WV?$string_output_adapter@_W@__crt_stdio_output@@@2@@__crt_stdio_output@@ABE?AW4state@2@_WW432@@Z 10011bc1 f i libucrt:output.obj
 0001:00010c00       ?force_decimal_point@__crt_stdio_output@@YAXPADQAU__crt_locale_pointers@@@Z 10011c00 f i libucrt:output.obj
 0001:00010c65       ?parse_int_from_format_string@?$output_processor@_WV?$string_output_adapter@_W@__crt_stdio_output@@V?$format_validation_base@_WV?$string_output_adapter@_W@__crt_stdio_output@@@2@@__crt_stdio_output@@AAE_NQAH@Z 10011c65 f i libucrt:output.obj
 0001:00010cdb       ?process@?$output_processor@_WV?$string_output_adapter@_W@__crt_stdio_output@@V?$format_validation_base@_WV?$string_output_adapter@_W@__crt_stdio_output@@@2@@__crt_stdio_output@@QAEHXZ 10011cdb f i libucrt:output.obj
 0001:00010e03       ?state_case_flag@?$output_processor@_WV?$string_output_adapter@_W@__crt_stdio_output@@V?$format_validation_base@_WV?$string_output_adapter@_W@__crt_stdio_output@@@2@@__crt_stdio_output@@AAE_NXZ 10011e03 f i libucrt:output.obj
 0001:00010e40       ?state_case_normal@?$output_processor@_WV?$string_output_adapter@_W@__crt_stdio_output@@V?$format_validation_base@_WV?$string_output_adapter@_W@__crt_stdio_output@@@2@@__crt_stdio_output@@AAE_NXZ 10011e40 f i libucrt:output.obj
 0001:00010e5f       ?state_case_normal_common@?$output_processor@_WV?$string_output_adapter@_W@__crt_stdio_output@@V?$format_validation_base@_WV?$string_output_adapter@_W@__crt_stdio_output@@@2@@__crt_stdio_output@@AAE_NXZ 10011e5f f i libucrt:output.obj
 0001:00010e7a       ?state_case_precision@?$output_processor@_WV?$string_output_adapter@_W@__crt_stdio_output@@V?$format_validation_base@_WV?$string_output_adapter@_W@__crt_stdio_output@@@2@@__crt_stdio_output@@AAE_NXZ 10011e7a f i libucrt:output.obj
 0001:00010ea1       ?state_case_size@?$output_processor@_WV?$string_output_adapter@_W@__crt_stdio_output@@V?$format_validation_base@_WV?$string_output_adapter@_W@__crt_stdio_output@@@2@@__crt_stdio_output@@AAE_NXZ 10011ea1 f i libucrt:output.obj
 0001:00011019       ?state_case_type@?$output_processor@_WV?$string_output_adapter@_W@__crt_stdio_output@@V?$format_validation_base@_WV?$string_output_adapter@_W@__crt_stdio_output@@@2@@__crt_stdio_output@@AAE_NXZ 10012019 f i libucrt:output.obj
 0001:00011276       ?state_case_width@?$output_processor@_WV?$string_output_adapter@_W@__crt_stdio_output@@V?$format_validation_base@_WV?$string_output_adapter@_W@__crt_stdio_output@@@2@@__crt_stdio_output@@AAE_NXZ 10012276 f i libucrt:output.obj
 0001:000112b0       ?to_integer_size@__crt_stdio_output@@YAIW4length_modifier@1@@Z 100122b0 f i libucrt:output.obj
 0001:0001130c       ?type_case_Z@?$output_processor@_WV?$string_output_adapter@_W@__crt_stdio_output@@V?$format_validation_base@_WV?$string_output_adapter@_W@__crt_stdio_output@@@2@@__crt_stdio_output@@AAE_NXZ 1001230c f i libucrt:output.obj
 0001:00011366       ?type_case_a@?$output_processor@_WV?$string_output_adapter@_W@__crt_stdio_output@@V?$format_validation_base@_WV?$string_output_adapter@_W@__crt_stdio_output@@@2@@__crt_stdio_output@@AAE_NXZ 10012366 f i libucrt:output.obj
 0001:000114cd       ?type_case_c_tchar@?$output_processor@_WV?$string_output_adapter@_W@__crt_stdio_output@@V?$format_validation_base@_WV?$string_output_adapter@_W@__crt_stdio_output@@@2@@__crt_stdio_output@@AAE_N_W@Z 100124cd f i libucrt:output.obj
 0001:00011563       ?type_case_integer@?$output_processor@_WV?$string_output_adapter@_W@__crt_stdio_output@@V?$format_validation_base@_WV?$string_output_adapter@_W@__crt_stdio_output@@@2@@__crt_stdio_output@@AAE_NI_N@Z 10012563 f i libucrt:output.obj
 0001:000116b8       ?type_case_n@?$output_processor@_WV?$string_output_adapter@_W@__crt_stdio_output@@V?$format_validation_base@_WV?$string_output_adapter@_W@__crt_stdio_output@@@2@@__crt_stdio_output@@AAE_NXZ 100126b8 f i libucrt:output.obj
 0001:0001172c       ?type_case_o@?$output_processor@_WV?$string_output_adapter@_W@__crt_stdio_output@@V?$format_validation_base@_WV?$string_output_adapter@_W@__crt_stdio_output@@@2@@__crt_stdio_output@@AAE_NXZ 1001272c f i libucrt:output.obj
 0001:0001174b       ?type_case_p@?$output_processor@_WV?$string_output_adapter@_W@__crt_stdio_output@@V?$format_validation_base@_WV?$string_output_adapter@_W@__crt_stdio_output@@@2@@__crt_stdio_output@@AAE_NXZ 1001274b f i libucrt:output.obj
 0001:00011763       ?type_case_s@?$output_processor@_WV?$string_output_adapter@_W@__crt_stdio_output@@V?$format_validation_base@_WV?$string_output_adapter@_W@__crt_stdio_output@@@2@@__crt_stdio_output@@AAE_NXZ 10012763 f i libucrt:output.obj
 0001:000117d6       ?type_case_s_compute_narrow_string_length@?$output_processor@_WV?$string_output_adapter@_W@__crt_stdio_output@@V?$format_validation_base@_WV?$string_output_adapter@_W@__crt_stdio_output@@@2@@__crt_stdio_output@@ABEHH_W@Z 100127d6 f i libucrt:output.obj
 0001:0001181d       ?validate@?$c_string_character_source@_W@__crt_strtox@@QBE_NXZ 1001281d f i libucrt:atox.obj
 0001:0001181d       ?validate@?$string_output_adapter@_W@__crt_stdio_output@@QBE_NXZ 1001281d f i libucrt:output.obj
 0001:00011838       ?validate_and_update_state_at_end_of_format_string@?$format_validation_base@_WV?$string_output_adapter@_W@__crt_stdio_output@@@__crt_stdio_output@@IBE_NXZ 10012838 f i libucrt:output.obj
 0001:0001185a       ?write_character@?$string_output_adapter@_W@__crt_stdio_output@@QBE_N_WQAH@Z 1001285a f i libucrt:output.obj
 0001:0001189f       ?write_stored_string_tchar@?$output_processor@_WV?$string_output_adapter@_W@__crt_stdio_output@@V?$format_validation_base@_WV?$string_output_adapter@_W@__crt_stdio_output@@@2@@__crt_stdio_output@@AAE_N_W@Z 1001289f f i libucrt:output.obj
 0001:0001192c       ?write_string@?$string_output_adapter@_W@__crt_stdio_output@@QBEXQB_WHQAHAAV__crt_deferred_errno_cache@@@Z 1001292c f i libucrt:output.obj
 0001:0001199d       ___acrt_locale_get_ctype_array_value 1001299d f i libucrt:output.obj
 0001:000119bf       ___stdio_common_vswprintf_s 100129bf f   libucrt:output.obj
 0001:000119e3       __seh_filter_dll           100129e3 f   libucrt:exception_filter.obj
 0001:00011a03       __seh_filter_exe           10012a03 f   libucrt:exception_filter.obj
 0001:00011dd1       ___acrt_initialize_thread_local_exit_callback 10012dd1 f   libucrt:exit.obj
 0001:00011de0       __cexit                    10012de0 f   libucrt:exit.obj
 0001:00011def       __exit                     10012def f   libucrt:exit.obj
 0001:00011e05       __is_c_termination_complete 10012e05 f   libucrt:exit.obj
 0001:000120b6       ___acrt_allocate_buffer_for_argv 100130b6 f   libucrt:argv_parsing.obj
 0001:00012105       __configure_narrow_argv    10013105 f   libucrt:argv_parsing.obj
 0001:00012262       ??$uninitialize@A6AXAAPAPA_W@Z@?$dual_state_global@PAPA_W@__crt_state_management@@QAEXA6AXAAPAPA_W@Z@Z 10013262 f i libucrt:environment_initialization.obj
 0001:00012262       ??$uninitialize@A6AXAAPAPAD@Z@?$dual_state_global@PAPAD@__crt_state_management@@QAEXA6AXAAPAPAD@Z@Z 10013262 f i libucrt:environment_initialization.obj
 0001:000122c1       ___dcrt_uninitialize_environments_nolock 100132c1 f   libucrt:environment_initialization.obj
 0001:000122f8       __initialize_narrow_environment 100132f8 f   libucrt:environment_initialization.obj
 0001:000123b3       ??$__crt_fast_encode_pointer@PAX@@YAPAXQAX@Z 100133b3 f i libucrt:initialization.obj
 0001:000123b3       ??$__crt_fast_encode_pointer@P6AHXZ@@YAP6AHXZQ6AHXZ@Z 100133b3 f i libucrt:onexit.obj
 0001:000123b3       ??$__crt_fast_encode_pointer@PAP6AXXZ@@YAPAP6AXXZQAP6AXXZ@Z 100133b3 f i libucrt:onexit.obj
 0001:000125d5       __crt_atexit               100135d5 f   libucrt:onexit.obj
 0001:000125eb       __execute_onexit_table     100135eb f   libucrt:onexit.obj
 0001:00012618       __initialize_onexit_table  10013618 f   libucrt:onexit.obj
 0001:00012641       __register_onexit_function 10013641 f   libucrt:onexit.obj
 0001:0001269b       ___acrt_uninitialize_command_line 1001369b f   libucrt:argv_data.obj
 0001:00012772       ___acrt_initialize         10013772 f   libucrt:initialization.obj
 0001:00012784       ___acrt_thread_attach      10013784 f   libucrt:initialization.obj
 0001:0001278f       ___acrt_thread_detach      1001378f f   libucrt:initialization.obj
 0001:00012797       ___acrt_uninitialize       10013797 f   libucrt:initialization.obj
 0001:000127c7       ___acrt_uninitialize_critical 100137c7 f   libucrt:initialization.obj
 0001:000127d9       __initterm                 100137d9 f   libucrt:initterm.obj
 0001:0001281e       __initterm_e               1001381e f   libucrt:initterm.obj
 0001:0001284c       ___acrt_initialize_new_handler 1001384c f   libucrt:new_handler.obj
 0001:0001285b       __callnewh                 1001385b f   libucrt:new_handler.obj
 0001:00012888       __query_new_handler        10013888 f   libucrt:new_handler.obj
 0001:000128e4       _terminate                 100138e4 f   libucrt:terminate.obj
 0001:00012920       _abort                     10013920 f   libucrt:abort.obj
 0001:00012964       _strcpy_s                  10013964 f   libucrt:strcpy_s.obj
 0001:000129be       ??$is_overflow_condition@K@__crt_strtox@@YA_NIK@Z 100139be f i libucrt:atox.obj
 0001:000129ef       ??$parse_integer@KV?$c_string_character_source@_W@__crt_strtox@@@__crt_strtox@@YAKQAU__crt_locale_pointers@@V?$c_string_character_source@_W@0@H_N@Z 100139ef f i libucrt:atox.obj
 0001:00012ff7       ?unget@?$c_string_character_source@_W@__crt_strtox@@QAEX_W@Z 10013ff7 f i libucrt:atox.obj
 0001:00013030       _strncmp                   10014030 f   libucrt:strncmp.obj
 0001:000130a8       _wcsncmp                   100140a8 f   libucrt:wcsncmp.obj
 0001:000130e2       __free_base                100140e2 f   libucrt:free_base.obj
 0001:0001345a       ___acrt_freeptd            1001445a f   libucrt:per_thread_data.obj
 0001:00013486       ___acrt_getptd             10014486 f   libucrt:per_thread_data.obj
 0001:00013543       ___acrt_getptd_head        10014543 f   libucrt:per_thread_data.obj
 0001:000135dd       ___acrt_getptd_noexit      100145dd f   libucrt:per_thread_data.obj
 0001:00013692       ___acrt_initialize_ptd     10014692 f   libucrt:per_thread_data.obj
 0001:000136be       ___acrt_uninitialize_ptd   100146be f   libucrt:per_thread_data.obj
 0001:000136d8       __calloc_base              100146d8 f   libucrt:calloc_base.obj
 0001:00013735       __malloc_base              10014735 f   libucrt:malloc_base.obj
 0001:00013783       __msize_base               10014783 f   libucrt:msize.obj
 0001:000137b6       __realloc_base             100147b6 f   libucrt:realloc_base.obj
 0001:000139b7       ___acrt_AppPolicyGetProcessTerminationMethodInternal@4 100149b7 f   libucrt:winapi_thunks.obj
 0001:000139f7       ___acrt_AreFileApisANSI@0  100149f7 f   libucrt:winapi_thunks.obj
 0001:00013a16       ___acrt_FlsAlloc@4         10014a16 f   libucrt:winapi_thunks.obj
 0001:00013a55       ___acrt_FlsFree@4          10014a55 f   libucrt:winapi_thunks.obj
 0001:00013a94       ___acrt_FlsGetValue@4      10014a94 f   libucrt:winapi_thunks.obj
 0001:00013ad3       ___acrt_FlsSetValue@8      10014ad3 f   libucrt:winapi_thunks.obj
 0001:00013b15       ___acrt_InitializeCriticalSectionEx@12 10014b15 f   libucrt:winapi_thunks.obj
 0001:00013b60       ___acrt_LCMapStringEx@36   10014b60 f   libucrt:winapi_thunks.obj
 0001:00013bbd       ___acrt_LocaleNameToLCID@8 10014bbd f   libucrt:winapi_thunks.obj
 0001:00013bee       ___acrt_SetThreadStackGuarantee@4 10014bee f   libucrt:winapi_thunks.obj
 0001:00013c29       ___acrt_initialize_winapi_thunks 10014c29 f   libucrt:winapi_thunks.obj
 0001:00013c54       ___acrt_uninitialize_winapi_thunks 10014c54 f   libucrt:winapi_thunks.obj
 0001:00013c8a       ??$make_c_string_character_source@_WPAPA_W@__crt_strtox@@YA?AV?$c_string_character_source@_W@0@QB_WQAPA_W@Z 10014c8a f i libucrt:strtox.obj
 0001:00013ca5       _wcstol                    10014ca5 f   libucrt:strtox.obj
 0001:00013ccf       __mbtowc_l                 10014ccf f   libucrt:mbtowc.obj
 0001:00013e11       _mbtowc                    10014e11 f   libucrt:mbtowc.obj
 0001:00013e2b       _wcsnlen                   10014e2b f   libucrt:strnlen.obj
 0001:00013fdb       ___acrt_update_locale_info 10014fdb f   libucrt:locale_update.obj
 0001:00014008       ___acrt_update_multibyte_info 10015008 f   libucrt:locale_update.obj
 0001:00014035       ?__acrt_fp_classify@@YA?AW4__acrt_fp_class@@ABN@Z 10015035 f i libucrt:cvt.obj
 0001:000149e7       ___acrt_fp_format          100159e7 f   libucrt:cvt.obj
 0001:00014b45       __fileno                   10015b45 f   libucrt:fileno.obj
 0001:00014b6c       ___acrt_initialize_stdio   10015b6c f   libucrt:_file.obj
 0001:00014c34       ___acrt_uninitialize_stdio 10015c34 f   libucrt:_file.obj
 0001:00014c80       __lock_file                10015c80 f   libucrt:_file.obj
 0001:00014c94       __unlock_file              10015c94 f   libucrt:_file.obj
 0001:00014ca8       __get_printf_count_output  10015ca8 f   libucrt:printf_count_output.obj
 0001:00014d2b       ___acrt_set_locale_changed 10015d2b f   libucrt:wsetlocale.obj
 0001:00014d36       ___acrt_uninitialize_locale 10015d36 f   libucrt:wsetlocale.obj
 0001:00014ec7       ___acrt_initialize_lowio   10015ec7 f   libucrt:ioinit.obj
 0001:00014f27       ___acrt_uninitialize_lowio 10015f27 f   libucrt:ioinit.obj
 0001:00014f53       ___acrt_initialize_locks   10015f53 f   libucrt:locks.obj
 0001:00014f94       ___acrt_lock               10015f94 f   libucrt:locks.obj
 0001:00014fab       ___acrt_uninitialize_locks 10015fab f   libucrt:locks.obj
 0001:00014fdc       ___acrt_unlock             10015fdc f   libucrt:locks.obj
 0001:00014ff3       ___acrt_get_process_end_policy 10015ff3 f   libucrt:win_policies.obj
 0001:000151bd       ??$__acrt_mbs_to_wcs_cp@U__crt_win32_buffer_internal_dynamic_resizing@@@@YAHQBDAAV?$__crt_win32_buffer@_WU__crt_win32_buffer_internal_dynamic_resizing@@@@I@Z 100161bd f i libucrt:argv_wildcards.obj
 0001:000156d1       ?__acrt_get_utf8_acp_compatibility_codepage@@YAIXZ 100166d1 f i libucrt:argv_wildcards.obj
 0001:00015710       ?_deallocate@?$__crt_win32_buffer@DU__crt_win32_buffer_internal_dynamic_resizing@@@@AAEXXZ 10016710 f i libucrt:argv_wildcards.obj
 0001:00015710       ?_deallocate@?$__crt_win32_buffer@_WU__crt_win32_buffer_internal_dynamic_resizing@@@@AAEXXZ 10016710 f i libucrt:argv_wildcards.obj
 0001:0001572a       ?allocate@?$__crt_win32_buffer@DU__crt_win32_buffer_internal_dynamic_resizing@@@@QAEHI@Z 1001672a f i libucrt:argv_wildcards.obj
 0001:00015766       ?allocate@?$__crt_win32_buffer@_WU__crt_win32_buffer_internal_dynamic_resizing@@@@QAEHI@Z 10016766 f i libucrt:argv_wildcards.obj
 0001:000157a5       ?allocate@__crt_win32_buffer_internal_dynamic_resizing@@SAHQAPAXIABV__crt_win32_buffer_empty_debug_info@@@Z 100167a5 f i libucrt:argv_wildcards.obj
 0001:0001584b       ___acrt_expand_narrow_argv_wildcards 1001684b f   libucrt:argv_wildcards.obj
 0001:0001591d       ?allocate@?$__crt_win32_buffer@DU__crt_win32_buffer_no_resizing@@@@QAEHI@Z 1001691d f i libucrt:getmodulefilenamea.obj
 0001:00015944       ?set_to_nullptr@?$__crt_win32_buffer@DU__crt_win32_buffer_no_resizing@@@@QAEXXZ 10016944 f i libucrt:getmodulefilenamea.obj
 0001:00015958       ___acrt_GetModuleFileNameA 10016958 f   libucrt:getmodulefilenamea.obj
 0001:00015f11       ___acrt_initialize_multibyte 10016f11 f   libucrt:mbctype.obj
 0001:00015f59       ___acrt_update_thread_multibyte_data 10016f59 f   libucrt:mbctype.obj
 0001:00015f6c       __setmbcp_nolock           10016f6c f   libucrt:mbctype.obj
 0001:00016237       __ismbblead                10017237 f   libucrt:ismbbyte.obj
 0001:0001624f       ___acrt_initialize_command_line 1001724f f   libucrt:argv_data.obj
 0001:00016268       ___acrt_MultiByteToWideChar 10017268 f   libucrt:multibytetowidechar.obj
 0001:000162e4       ___acrt_WideCharToMultiByte 100172e4 f   libucrt:widechartomultibyte.obj
 0001:000163d2       ___dcrt_get_narrow_environment_from_os 100173d2 f   libucrt:get_environment_from_os.obj
 0001:00016456       ___acrt_initialize_heap    10017456 f   libucrt:heap_handle.obj
 0001:00016467       ___acrt_uninitialize_heap  10017467 f   libucrt:heap_handle.obj
 0001:00016471       ___acrt_execute_initializers 10017471 f   libucrt:shared_initialization.obj
 0001:000164d9       ___acrt_execute_uninitializers 100174d9 f   libucrt:shared_initialization.obj
 0001:000165d8       ___acrt_get_sigabrt_handler 100175d8 f   libucrt:signal.obj
 0001:000165ff       ___acrt_initialize_signal_handlers 100175ff f   libucrt:signal.obj
 0001:0001661d       _raise                     1001761d f   libucrt:signal.obj
 0001:00016810       ___acrt_has_user_matherr   10017810 f   libucrt:matherr.obj
 0001:00016828       ___acrt_initialize_user_matherr 10017828 f   libucrt:matherr.obj
 0001:00016837       ___acrt_invoke_user_matherr 10017837 f   libucrt:matherr.obj
 0001:00016a46       ___acrt_stdio_flush_nolock 10017a46 f   libucrt:fflush.obj
 0001:00016aab       __fflush_nolock            10017aab f   libucrt:fflush.obj
 0001:00016af3       __flushall                 10017af3 f   libucrt:fflush.obj
 0001:00016afc       ___pctype_func             10017afc f   libucrt:ctype.obj
 0001:00016b20       _iswctype                  10017b20 f   libucrt:iswctype.obj
 0001:00016b89       ___acrt_add_locale_ref     10017b89 f   libucrt:locale_refcounting.obj
 0001:00016c06       ___acrt_free_locale        10017c06 f   libucrt:locale_refcounting.obj
 0001:00016d4e       ___acrt_locale_add_lc_time_reference 10017d4e f   libucrt:locale_refcounting.obj
 0001:00016d77       ___acrt_locale_free_lc_time_if_unreferenced 10017d77 f   libucrt:locale_refcounting.obj
 0001:00016da8       ___acrt_locale_release_lc_time_reference 10017da8 f   libucrt:locale_refcounting.obj
 0001:00016dd1       ___acrt_release_locale_ref 10017dd1 f   libucrt:locale_refcounting.obj
 0001:00016e52       ___acrt_update_thread_locale_data 10017e52 f   libucrt:locale_refcounting.obj
 0001:00016ed3       __updatetlocinfoEx_nolock  10017ed3 f   libucrt:locale_refcounting.obj
 0001:00016f23       __query_new_mode           10017f23 f   libucrt:new_mode.obj
 0001:00016f7a       ___acrt_DownlevelLocaleNameToLCID 10017f7a f   libucrt:lcidtoname_downlevel.obj
 0001:00016fa6       __isleadbyte_l             10017fa6 f i libucrt:_wctype.obj
 0001:0001700c       ?__mbrtowc_utf8@__crt_mbstring@@YAIPA_WPBDIPAU_Mbstatet@@@Z 1001800c f   libucrt:mbrtowc.obj
 0001:0001704c       ?__mbsrtowcs_utf8@__crt_mbstring@@YAIPA_WPAPBDIPAU_Mbstatet@@@Z 1001804c f   libucrt:mbrtowc.obj
 0001:00017147       ?return_illegal_sequence@__crt_mbstring@@YAIPAU_Mbstatet@@@Z 10018147 f i libucrt:c32rtomb.obj
 0001:000171d1       ___acrt_fp_strflt_to_string 100181d1 f   libucrt:_fptostr.obj
 0001:000172b0       ?divide@__crt_strtox@@YA_KAAUbig_integer@1@ABU21@@Z 100182b0 f i libucrt:cfout.obj
 0001:00017748       ___acrt_fltout             10018748 f   libucrt:cfout.obj
 0001:00018c4f       _fegetround                10019c4f f   libucrt:fegetround.obj
 0001:00018c5c       __fcloseall                10019c5c f   libucrt:closeall.obj
 0001:00018d07       ___acrt_stdio_free_buffer_nolock 10019d07 f   libucrt:_freebuf.obj
 0001:00018d47       __isatty                   10019d47 f   libucrt:isatty.obj
 0001:00018d9d       ___acrt_locale_free_monetary 10019d9d f   libucrt:initmon.obj
 0001:00018e9b       ___acrt_locale_free_numeric 10019e9b f   libucrt:initnum.obj
 0001:00018f3c       ___acrt_locale_free_time   10019f3c f   libucrt:inittime.obj
 0001:00019020       ___acrt_GetStringTypeA     1001a020 f   libucrt:getstringtypea.obj
 0001:00019123       __freea_crt                1001a123 f i libucrt:getstringtypea.obj
 0001:00019143       ___acrt_lowio_create_handle_array 1001a143 f   libucrt:osfinfo.obj
 0001:000191be       ___acrt_lowio_destroy_handle_array 1001a1be f   libucrt:osfinfo.obj
 0001:000191f3       ___acrt_lowio_ensure_fh_exists 1001a1f3 f   libucrt:osfinfo.obj
 0001:00019291       ___acrt_lowio_lock_fh      1001a291 f   libucrt:osfinfo.obj
 0001:000192b4       ___acrt_lowio_unlock_fh    1001a2b4 f   libucrt:osfinfo.obj
 0001:000192d7       __free_osfhnd              1001a2d7 f   libucrt:osfinfo.obj
 0001:00019368       __get_osfhandle            1001a368 f   libucrt:osfinfo.obj
 0001:000193e0       _qsort                     1001a3e0 f   libucrt:qsort.obj
 0001:00019981       _strncpy_s                 1001a981 f   libucrt:strncpy_s.obj
 0001:00019990       _strpbrk                   1001a990 f   libucrt:strpbrk.obj
 0001:000199d0       __mbsdec                   1001a9d0 f   libucrt:mbsdec.obj
 0001:000199e7       __mbsdec_l                 1001a9e7 f   libucrt:mbsdec.obj
 0001:00019c5e       ___acrt_LCMapStringA       1001ac5e f   libucrt:lcmapstringa.obj
 0001:00019d58       __commit                   1001ad58 f   libucrt:commit.obj
 0001:0001a550       __write                    1001b550 f   libucrt:write.obj
 0001:0001a642       __write_nolock             1001b642 f   libucrt:write.obj
 0001:0001a81c       ___acrt_GetStringTypeW     1001b81c f   libucrt:getstringtypew.obj
 0001:0001a835       ___ascii_wcsnicmp          1001b835 f   libucrt:wcsnicmp.obj
 0001:0001a884       ?__mbrtoc32_utf8@__crt_mbstring@@YAIPA_UPBDIPAU_Mbstatet@@@Z 1001b884 f   libucrt:mbrtoc32.obj
 0001:0001aa2b       __controlfp_s              1001ba2b f   libucrt:contrlfp.obj
 0001:0001aa8a       _fegetenv                  1001ba8a f   libucrt:fegetenv.obj
 0001:0001aaa7       _fesetenv                  1001baa7 f   libucrt:fesetenv.obj
 0001:0001aaf2       _feholdexcept              1001baf2 f   libucrt:feholdexcept.obj
 0001:0001ab40       __CIlog10                  1001bb40 f   libucrt:log10_impl.obj
 0001:0001ab7b       __CIlog10_default          1001bb7b f   libucrt:log10_impl.obj
 0001:0001ab8f       __log10_default            1001bb8f     libucrt:log10_impl.obj
 0001:0001ac50       _ceil                      1001bc50 f   libucrt:ceil_pentium4.obj
 0001:0001ac90       __ceil_pentium4            1001bc90 f   libucrt:ceil_pentium4.obj
 0001:0001b08a       ___acrt_fenv_get_common_round_control 1001c08a f   libucrt:_fenvutils.obj
 0001:0001b0ac       ___acrt_fenv_get_control   1001c0ac f   libucrt:_fenvutils.obj
 0001:0001b12c       ___acrt_fenv_get_status    1001c12c f   libucrt:_fenvutils.obj
 0001:0001b1e4       ___acrt_fenv_set_control   1001c1e4 f   libucrt:_fenvutils.obj
 0001:0001b24c       ___acrt_fenv_set_status    1001c24c f   libucrt:_fenvutils.obj
 0001:0001b3bf       __lseeki64_nolock          1001c3bf f   libucrt:lseek.obj
 0001:0001b3da       __fclose_nolock            1001c3da f   libucrt:fclose.obj
 0001:0001b451       _fclose                    1001c451 f   libucrt:fclose.obj
 0001:0001b4d5       __query_app_type           1001c4d5 f   libucrt:report_runtime_error.obj
 0001:0001b4db       ___strncnt                 1001c4db f   libucrt:strncnt.obj
 0001:0001b4f7       __putwch_nolock            1001c4f7 f   libucrt:putwch.obj
 0001:0001b5d0       __clearfp                  1001c5d0 f   libucrt:ieee87.obj
 0001:0001b6ae       __control87                1001c6ae f   libucrt:ieee87.obj
 0001:0001ba4d       ___acrt_initialize_sse2    1001ca4d f   libucrt:mathfcns.obj
 0001:0001ba60       __CIlog10_pentium4         1001ca60 f   libucrt:log10_pentium4.obj
 0001:0001ba78       __log10_pentium4           1001ca78     libucrt:log10_pentium4.obj
 0001:0001bd10       __fFEXP                    1001cd10 f   libucrt:87tran.obj
 0001:0001bd67       __rtinfpopse               1001cd67     libucrt:87tran.obj
 0001:0001bd69       __rtinfnpopse              1001cd69     libucrt:87tran.obj
 0001:0001bd79       __fFLN                     1001cd79     libucrt:87tran.obj
 0001:0001be2e       __rtinfpop                 1001ce2e     libucrt:87tran.obj
 0001:0001be30       __rtinfnpop                1001ce30     libucrt:87tran.obj
 0001:0001be40       __rtforexpinf              1001ce40 f   libucrt:87tran.obj
 0001:0001be4d       __ffexpm1                  1001ce4d     libucrt:87tran.obj
 0001:0001bf00       __trandisp1                1001cf00 f   libucrt:87disp.obj
 0001:0001bf75       __trandisp2                1001cf75 f   libucrt:87disp.obj
 0001:0001c00f       __rttospopde               1001d00f     libucrt:87disp.obj
 0001:0001c014       __rttospop                 1001d014     libucrt:87disp.obj
 0001:0001c020       __rtnospop                 1001d020 f   libucrt:87disp.obj
 0001:0001c030       __rttosnpop                1001d030 f   libucrt:87disp.obj
 0001:0001c031       __rtnospopde               1001d031     libucrt:87disp.obj
 0001:0001c038       __rtzeropop                1001d038     libucrt:87disp.obj
 0001:0001c03a       __rtzeronpop               1001d03a     libucrt:87disp.obj
 0001:0001c040       __rtzerospop               1001d040 f   libucrt:87disp.obj
 0001:0001c04d       __rtonepop                 1001d04d     libucrt:87disp.obj
 0001:0001c050       __rtonenpop                1001d050 f   libucrt:87disp.obj
 0001:0001c060       __tosnan1                  1001d060 f   libucrt:87disp.obj
 0001:0001c090       __nosnan2                  1001d090 f   libucrt:87disp.obj
 0001:0001c0a0       __tosnan2                  1001d0a0 f   libucrt:87disp.obj
 0001:0001c0d0       __nan2                     1001d0d0 f   libucrt:87disp.obj
 0001:0001c110       __rtindfpop                1001d110 f   libucrt:87disp.obj
 0001:0001c112       __rtindfnpop               1001d112     libucrt:87disp.obj
 0001:0001c123       __rttosnpopde              1001d123     libucrt:87disp.obj
 0001:0001c130       __rtatan2inf               1001d130 f   libucrt:87disp.obj
 0001:0001c14d       __rtchsifneg               1001d14d     libucrt:87disp.obj
 0001:0001c160       __twoToTOS                 1001d160 f   libucrt:common.obj
 0001:0001c175       __load_CW                  1001d175 f   libucrt:common.obj
 0001:0001c18c       __convertTOStoQNaN         1001d18c f   libucrt:common.obj
 0001:0001c1a5       __fload_withFB             1001d1a5 f   libucrt:common.obj
 0001:0001c1e8       __checkTOS_withFB          1001d1e8 f   libucrt:common.obj
 0001:0001c1fe       __fast_exit                1001d1fe f   libucrt:common.obj
 0001:0001c20b       __math_exit                1001d20b f   libucrt:common.obj
 0001:0001c235       __check_overflow_exit      1001d235 f   libucrt:common.obj
 0001:0001c249       __check_range_exit         1001d249 f   libucrt:common.obj
 0001:0001c2f0       __startTwoArgErrorHandling 1001d2f0 f   libucrt:genexcep.obj
 0001:0001c307       __startOneArgErrorHandling 1001d307 f   libucrt:genexcep.obj
 0001:0001c343       ___libm_error_support      1001d343 f   libucrt:libm_error.obj
 0001:0001c537       __ceil_default             1001d537 f   libucrt:ceil.obj
 0001:0001c678       __close                    1001d678 f   libucrt:close.obj
 0001:0001c705       __close_nolock             1001d705 f   libucrt:close.obj
 0001:0001c7a1       ?__acrt_stdio_free_stream@@YAXV__crt_stdio_stream@@@Z 1001d7a1 f   libucrt:stream.obj
 0001:0001c7e0       ___ascii_strnicmp          1001d7e0 f   libucrt:_strnicm.obj
 0001:0001c860       ___dcrt_lowio_ensure_console_output_initialized 1001d860 f   libucrt:initcon.obj
 0001:0001c87f       ___dcrt_terminate_console_output 1001d87f f   libucrt:initcon.obj
 0001:0001c896       ___dcrt_write_console      1001d896 f   libucrt:initcon.obj
 0001:0001c8eb       ___set_fpsr_sse2           1001d8eb f   libucrt:fpctrl.obj
 0001:0001c96b       __clrfp                    1001d96b f   libucrt:fpctrl.obj
 0001:0001c97c       __ctrlfp                   1001d97c f   libucrt:fpctrl.obj
 0001:0001c9a6       __set_statfp               1001d9a6 f   libucrt:fpctrl.obj
 0001:0001c9ff       __statfp                   1001d9ff f   libucrt:fpctrl.obj
 0001:0001ca0f       __d_inttype                1001da0f f   libucrt:powhlp.obj
 0001:0001ca77       __powhlp                   1001da77 f   libucrt:powhlp.obj
 0001:0001cba2       __87except                 1001dba2 f   libucrt:87except.obj
 0001:0001ccac       __frnd                     1001dcac f   libucrt:frnd.obj
 0001:0001ccc0       __errcode                  1001dcc0 f   libucrt:fpexcept.obj
 0001:0001ccf4       __except1                  1001dcf4 f   libucrt:fpexcept.obj
 0001:0001cdc2       __handle_exc               1001ddc2 f   libucrt:fpexcept.obj
 0001:0001cfad       __raise_exc                1001dfad f   libucrt:fpexcept.obj
 0001:0001cfd0       __raise_exc_ex             1001dfd0 f   libucrt:fpexcept.obj
 0001:0001d2c6       __set_errno_from_matherr   1001e2c6 f   libucrt:fpexcept.obj
 0001:0001d2f5       __umatherr                 1001e2f5 f   libucrt:fpexcept.obj
 0001:0001d395       __decomp                   1001e395 f   libucrt:util.obj
 0001:0001d467       __set_exp                  1001e467 f   libucrt:util.obj
 0001:0001d494       __sptype                   1001e494 f   libucrt:util.obj
 0001:0001d4f2       __fpclass                  1001e4f2 f   libucrt:ieeemisc.obj
 0001:0001d596       _IsProcessorFeaturePresent@4 1001e596 f   kernel32:KERNEL32.dll
 0001:0001d5a0       __FindPESection            1001e5a0 f   LIBCMT:pesect.obj
 0001:0001d5f0       __IsNonwritableInCurrentImage 1001e5f0 f   LIBCMT:pesect.obj
 0001:0001d6b0       __ValidateImageBase        1001e6b0 f   LIBCMT:pesect.obj
 0001:0001d6e3       __EH_prolog3_catch         1001e6e3 f   LIBCMT:ehprolg3.obj
 0001:0001d720       __aulldvrm                 1001e720 f   LIBCMT:ulldvrm.obj
 0001:0001d7c0       __allmul                   1001e7c0 f   LIBCMT:llmul.obj
 0001:0001d800       __alldvrm                  1001e800 f   LIBCMT:lldvrm.obj
 0001:0001d8e0       __allshl                   1001e8e0 f   LIBCMT:llshl.obj
 0001:0001d900       __aullshr                  1001e900 f   LIBCMT:ullshr.obj
 0001:0001d920       __ftol2_sse                1001e920     LIBCMT:ftol2.obj
 0001:0001d920       __ftoi2                    1001e920 f   LIBCMT:ftol2.obj
 0001:0001d920       __ftol2_sse_excpt          1001e920     LIBCMT:ftol2.obj
 0001:0001d9a0       __ftoui2                   1001e9a0 f   LIBCMT:ftol2.obj
 0001:0001da50       __ftol2                    1001ea50 f   LIBCMT:ftol2.obj
 0001:0001db00       __ftoul2                   1001eb00 f   LIBCMT:ftol2.obj
 0001:0001dbc0       _strrchr                   1001ebc0 f   libvcruntime:strrchr.obj
 0001:0001dd00       _strchr                    1001ed00 f   libvcruntime:strchr.obj
 0001:0001dd6e       ___from_strstr_to_strchr   1001ed6e     libvcruntime:strchr.obj
 0001:0001de2b       __filter_x86_sse2_floating_point_exception_default 1001ee2b f   LIBCMT:x86_exception_filter.obj
 0001:0001de2b       __filter_x86_sse2_floating_point_exception 1001ee2b f   LIBCMT:x86_exception_filter.obj
 0002:00000000       __imp__RegQueryValueExW@24 1001f000     advapi32:ADVAPI32.dll
 0002:00000004       __imp__RegSetValueExW@24   1001f004     advapi32:ADVAPI32.dll
 0002:00000008       __imp__RegQueryInfoKeyW@48 1001f008     advapi32:ADVAPI32.dll
 0002:0000000c       __imp__RegOpenKeyExW@20    1001f00c     advapi32:ADVAPI32.dll
 0002:00000010       __imp__RegEnumKeyExW@32    1001f010     advapi32:ADVAPI32.dll
 0002:00000014       __imp__RegDeleteValueW@8   1001f014     advapi32:ADVAPI32.dll
 0002:00000018       __imp__RegDeleteKeyW@8     1001f018     advapi32:ADVAPI32.dll
 0002:0000001c       __imp__RegCreateKeyExW@36  1001f01c     advapi32:ADVAPI32.dll
 0002:00000020       __imp__RegCloseKey@4       1001f020     advapi32:ADVAPI32.dll
 0002:00000024       \177ADVAPI32_NULL_THUNK_DATA 1001f024     advapi32:ADVAPI32.dll
 0002:00000028       __imp__GetObjectW@12       1001f028     gdi32:GDI32.dll
 0002:0000002c       __imp__SelectObject@8      1001f02c     gdi32:GDI32.dll
 0002:00000030       __imp__DeleteObject@4      1001f030     gdi32:GDI32.dll
 0002:00000034       __imp__CreateCompatibleDC@4 1001f034     gdi32:GDI32.dll
 0002:00000038       __imp__BitBlt@36           1001f038     gdi32:GDI32.dll
 0002:0000003c       __imp__SetWindowOrgEx@16   1001f03c     gdi32:GDI32.dll
 0002:00000040       __imp__SetWindowExtEx@16   1001f040     gdi32:GDI32.dll
 0002:00000044       __imp__SetViewportOrgEx@16 1001f044     gdi32:GDI32.dll
 0002:00000048       __imp__LPtoDP@12           1001f048     gdi32:GDI32.dll
 0002:0000004c       __imp__SetMapMode@8        1001f04c     gdi32:GDI32.dll
 0002:00000050       __imp__SaveDC@4            1001f050     gdi32:GDI32.dll
 0002:00000054       __imp__RestoreDC@8         1001f054     gdi32:GDI32.dll
 0002:00000058       __imp__GetDeviceCaps@8     1001f058     gdi32:GDI32.dll
 0002:0000005c       __imp__DeleteMetaFile@4    1001f05c     gdi32:GDI32.dll
 0002:00000060       __imp__DeleteDC@4          1001f060     gdi32:GDI32.dll
 0002:00000064       __imp__CreateRectRgnIndirect@4 1001f064     gdi32:GDI32.dll
 0002:00000068       __imp__CreateMetaFileW@4   1001f068     gdi32:GDI32.dll
 0002:0000006c       __imp__CreateDCW@16        1001f06c     gdi32:GDI32.dll
 0002:00000070       __imp__CloseMetaFile@4     1001f070     gdi32:GDI32.dll
 0002:00000074       \177GDI32_NULL_THUNK_DATA  1001f074     gdi32:GDI32.dll
 0002:00000078       __imp__CloseHandle@4       1001f078     kernel32:KERNEL32.dll
 0002:0000007c       __imp__SetEvent@4          1001f07c     kernel32:KERNEL32.dll
 0002:00000080       __imp__CreateMutexW@12     1001f080     kernel32:KERNEL32.dll
 0002:00000084       __imp__CreateEventW@16     1001f084     kernel32:KERNEL32.dll
 0002:00000088       __imp__GetCurrentProcessId@0 1001f088     kernel32:KERNEL32.dll
 0002:0000008c       __imp__CreateFileW@28      1001f08c     kernel32:KERNEL32.dll
 0002:00000090       __imp__GetConsoleMode@8    1001f090     kernel32:KERNEL32.dll
 0002:00000094       __imp__GetConsoleOutputCP@0 1001f094     kernel32:KERNEL32.dll
 0002:00000098       __imp__WriteFile@20        1001f098     kernel32:KERNEL32.dll
 0002:0000009c       __imp__FlushFileBuffers@4  1001f09c     kernel32:KERNEL32.dll
 0002:000000a0       __imp__SetStdHandle@8      1001f0a0     kernel32:KERNEL32.dll
 0002:000000a4       __imp__GetStringTypeW@16   1001f0a4     kernel32:KERNEL32.dll
 0002:000000a8       __imp__SetFilePointerEx@20 1001f0a8     kernel32:KERNEL32.dll
 0002:000000ac       __imp__FreeEnvironmentStringsW@4 1001f0ac     kernel32:KERNEL32.dll
 0002:000000b0       __imp__GetEnvironmentStringsW@0 1001f0b0     kernel32:KERNEL32.dll
 0002:000000b4       __imp__lstrcmpiW@8         1001f0b4     kernel32:KERNEL32.dll
 0002:000000b8       __imp__GetCommandLineA@0   1001f0b8     kernel32:KERNEL32.dll
 0002:000000bc       __imp__GetCPInfo@8         1001f0bc     kernel32:KERNEL32.dll
 0002:000000c0       __imp__GetOEMCP@0          1001f0c0     kernel32:KERNEL32.dll
 0002:000000c4       __imp__GetACP@0            1001f0c4     kernel32:KERNEL32.dll
 0002:000000c8       __imp__IsValidCodePage@4   1001f0c8     kernel32:KERNEL32.dll
 0002:000000cc       __imp__FindNextFileW@8     1001f0cc     kernel32:KERNEL32.dll
 0002:000000d0       __imp__FindFirstFileExW@24 1001f0d0     kernel32:KERNEL32.dll
 0002:000000d4       __imp__FindClose@4         1001f0d4     kernel32:KERNEL32.dll
 0002:000000d8       __imp__GetFileType@4       1001f0d8     kernel32:KERNEL32.dll
 0002:000000dc       __imp__GetStdHandle@4      1001f0dc     kernel32:KERNEL32.dll
 0002:000000e0       __imp__LCMapStringW@24     1001f0e0     kernel32:KERNEL32.dll
 0002:000000e4       __imp__HeapReAlloc@16      1001f0e4     kernel32:KERNEL32.dll
 0002:000000e8       __imp__HeapSize@12         1001f0e8     kernel32:KERNEL32.dll
 0002:000000ec       __imp__MulDiv@12           1001f0ec     kernel32:KERNEL32.dll
 0002:000000f0       __imp__GlobalLock@4        1001f0f0     kernel32:KERNEL32.dll
 0002:000000f4       __imp__GlobalUnlock@4      1001f0f4     kernel32:KERNEL32.dll
 0002:000000f8       __imp__GlobalAlloc@8       1001f0f8     kernel32:KERNEL32.dll
 0002:000000fc       __imp__FindResourceW@12    1001f0fc     kernel32:KERNEL32.dll
 0002:00000100       __imp__SizeofResource@8    1001f100     kernel32:KERNEL32.dll
 0002:00000104       __imp__LoadResource@8      1001f104     kernel32:KERNEL32.dll
 0002:00000108       __imp__LoadLibraryExW@12   1001f108     kernel32:KERNEL32.dll
 0002:0000010c       __imp__GetProcAddress@8    1001f10c     kernel32:KERNEL32.dll
 0002:00000110       __imp__GetModuleHandleW@4  1001f110     kernel32:KERNEL32.dll
 0002:00000114       __imp__GetModuleFileNameW@12 1001f114     kernel32:KERNEL32.dll
 0002:00000118       __imp__FreeLibrary@4       1001f118     kernel32:KERNEL32.dll
 0002:0000011c       __imp__DisableThreadLibraryCalls@4 1001f11c     kernel32:KERNEL32.dll
 0002:00000120       __imp__GetCurrentThreadId@0 1001f120     kernel32:KERNEL32.dll
 0002:00000124       __imp__Sleep@4             1001f124     kernel32:KERNEL32.dll
 0002:00000128       __imp__WaitForSingleObject@8 1001f128     kernel32:KERNEL32.dll
 0002:0000012c       __imp__ReleaseMutex@4      1001f12c     kernel32:KERNEL32.dll
 0002:00000130       __imp__ResetEvent@4        1001f130     kernel32:KERNEL32.dll
 0002:00000134       __imp__EnterCriticalSection@4 1001f134     kernel32:KERNEL32.dll
 0002:00000138       __imp__LeaveCriticalSection@4 1001f138     kernel32:KERNEL32.dll
 0002:0000013c       __imp__SetLastError@4      1001f13c     kernel32:KERNEL32.dll
 0002:00000140       __imp__EncodePointer@4     1001f140     kernel32:KERNEL32.dll
 0002:00000144       __imp__DeleteCriticalSection@4 1001f144     kernel32:KERNEL32.dll
 0002:00000148       __imp__InitializeCriticalSectionEx@12 1001f148     kernel32:KERNEL32.dll
 0002:0000014c       __imp__GetLastError@0      1001f14c     kernel32:KERNEL32.dll
 0002:00000150       __imp__RaiseException@16   1001f150     kernel32:KERNEL32.dll
 0002:00000154       __imp__DecodePointer@4     1001f154     kernel32:KERNEL32.dll
 0002:00000158       __imp__WideCharToMultiByte@32 1001f158     kernel32:KERNEL32.dll
 0002:0000015c       __imp__GetCommandLineW@0   1001f15c     kernel32:KERNEL32.dll
 0002:00000160       __imp__MultiByteToWideChar@24 1001f160     kernel32:KERNEL32.dll
 0002:00000164       __imp__WriteConsoleW@20    1001f164     kernel32:KERNEL32.dll
 0002:00000168       __imp__GetModuleHandleExW@12 1001f168     kernel32:KERNEL32.dll
 0002:0000016c       __imp__ExitProcess@4       1001f16c     kernel32:KERNEL32.dll
 0002:00000170       __imp__VirtualQuery@12     1001f170     kernel32:KERNEL32.dll
 0002:00000174       __imp__VirtualProtect@16   1001f174     kernel32:KERNEL32.dll
 0002:00000178       __imp__GetSystemInfo@4     1001f178     kernel32:KERNEL32.dll
 0002:0000017c       __imp__TlsFree@4           1001f17c     kernel32:KERNEL32.dll
 0002:00000180       __imp__TlsSetValue@8       1001f180     kernel32:KERNEL32.dll
 0002:00000184       __imp__TlsGetValue@4       1001f184     kernel32:KERNEL32.dll
 0002:00000188       __imp__TlsAlloc@0          1001f188     kernel32:KERNEL32.dll
 0002:0000018c       __imp__InterlockedFlushSList@4 1001f18c     kernel32:KERNEL32.dll
 0002:00000190       __imp__RtlUnwind@16        1001f190     kernel32:KERNEL32.dll
 0002:00000194       __imp__LoadLibraryExA@12   1001f194     kernel32:KERNEL32.dll
 0002:00000198       __imp__VirtualFree@12      1001f198     kernel32:KERNEL32.dll
 0002:0000019c       __imp__VirtualAlloc@16     1001f19c     kernel32:KERNEL32.dll
 0002:000001a0       __imp__FlushInstructionCache@12 1001f1a0     kernel32:KERNEL32.dll
 0002:000001a4       __imp__InterlockedPushEntrySList@8 1001f1a4     kernel32:KERNEL32.dll
 0002:000001a8       __imp__InterlockedPopEntrySList@4 1001f1a8     kernel32:KERNEL32.dll
 0002:000001ac       __imp__GetProcessHeap@0    1001f1ac     kernel32:KERNEL32.dll
 0002:000001b0       __imp__HeapFree@12         1001f1b0     kernel32:KERNEL32.dll
 0002:000001b4       __imp__HeapAlloc@12        1001f1b4     kernel32:KERNEL32.dll
 0002:000001b8       __imp__OutputDebugStringW@4 1001f1b8     kernel32:KERNEL32.dll
 0002:000001bc       __imp__InitializeSListHead@4 1001f1bc     kernel32:KERNEL32.dll
 0002:000001c0       __imp__GetSystemTimeAsFileTime@4 1001f1c0     kernel32:KERNEL32.dll
 0002:000001c4       __imp__QueryPerformanceCounter@4 1001f1c4     kernel32:KERNEL32.dll
 0002:000001c8       __imp__GetStartupInfoW@4   1001f1c8     kernel32:KERNEL32.dll
 0002:000001cc       __imp__IsDebuggerPresent@0 1001f1cc     kernel32:KERNEL32.dll
 0002:000001d0       __imp__IsProcessorFeaturePresent@4 1001f1d0     kernel32:KERNEL32.dll
 0002:000001d4       __imp__TerminateProcess@8  1001f1d4     kernel32:KERNEL32.dll
 0002:000001d8       __imp__GetCurrentProcess@0 1001f1d8     kernel32:KERNEL32.dll
 0002:000001dc       __imp__SetUnhandledExceptionFilter@4 1001f1dc     kernel32:KERNEL32.dll
 0002:000001e0       __imp__UnhandledExceptionFilter@4 1001f1e0     kernel32:KERNEL32.dll
 0002:000001e4       __imp__InitializeCriticalSectionAndSpinCount@8 1001f1e4     kernel32:KERNEL32.dll
 0002:000001e8       __imp__WaitForSingleObjectEx@12 1001f1e8     kernel32:KERNEL32.dll
 0002:000001ec       \177KERNEL32_NULL_THUNK_DATA 1001f1ec     kernel32:KERNEL32.dll
 0002:000001f0       __imp__OleCreatePropertyFrame@44 1001f1f0     oleaut32:OLEAUT32.dll
 0002:000001f4       __imp__UnRegisterTypeLib@20 1001f1f4     oleaut32:OLEAUT32.dll
 0002:000001f8       __imp__RegisterTypeLib@12  1001f1f8     oleaut32:OLEAUT32.dll
 0002:000001fc       __imp__LoadRegTypeLib@20   1001f1fc     oleaut32:OLEAUT32.dll
 0002:00000200       __imp__LoadTypeLib@8       1001f200     oleaut32:OLEAUT32.dll
 0002:00000204       __imp__VarUI4FromStr@16    1001f204     oleaut32:OLEAUT32.dll
 0002:00000208       __imp__VariantInit@4       1001f208     oleaut32:OLEAUT32.dll
 0002:0000020c       __imp__SysAllocStringByteLen@8 1001f20c     oleaut32:OLEAUT32.dll
 0002:00000210       __imp__SysStringByteLen@4  1001f210     oleaut32:OLEAUT32.dll
 0002:00000214       __imp__VariantChangeType@16 1001f214     oleaut32:OLEAUT32.dll
 0002:00000218       __imp__VariantClear@4      1001f218     oleaut32:OLEAUT32.dll
 0002:0000021c       __imp__SysStringLen@4      1001f21c     oleaut32:OLEAUT32.dll
 0002:00000220       __imp__SysFreeString@4     1001f220     oleaut32:OLEAUT32.dll
 0002:00000224       __imp__SysAllocStringLen@8 1001f224     oleaut32:OLEAUT32.dll
 0002:00000228       __imp__SysAllocString@4    1001f228     oleaut32:OLEAUT32.dll
 0002:0000022c       \177OLEAUT32_NULL_THUNK_DATA 1001f22c     oleaut32:OLEAUT32.dll
 0002:00000230       __imp__UnregisterClassW@8  1001f230     user32:USER32.dll
 0002:00000234       __imp__PostMessageW@16     1001f234     user32:USER32.dll
 0002:00000238       __imp__DefWindowProcW@16   1001f238     user32:USER32.dll
 0002:0000023c       __imp__CallWindowProcW@20  1001f23c     user32:USER32.dll
 0002:00000240       __imp__RegisterClassExW@4  1001f240     user32:USER32.dll
 0002:00000244       __imp__GetClassInfoExW@12  1001f244     user32:USER32.dll
 0002:00000248       __imp__CreateWindowExW@48  1001f248     user32:USER32.dll
 0002:0000024c       __imp__IsWindow@4          1001f24c     user32:USER32.dll
 0002:00000250       __imp__IsChild@8           1001f250     user32:USER32.dll
 0002:00000254       __imp__DestroyWindow@4     1001f254     user32:USER32.dll
 0002:00000258       __imp__ShowWindow@8        1001f258     user32:USER32.dll
 0002:0000025c       __imp__SetWindowPos@28     1001f25c     user32:USER32.dll
 0002:00000260       __imp__CharNextW@4         1001f260     user32:USER32.dll
 0002:00000264       __imp__SetFocus@4          1001f264     user32:USER32.dll
 0002:00000268       __imp__LoadBitmapW@8       1001f268     user32:USER32.dll
 0002:0000026c       __imp__RegisterClassW@4    1001f26c     user32:USER32.dll
 0002:00000270       __imp__PeekMessageW@20     1001f270     user32:USER32.dll
 0002:00000274       __imp__LoadCursorW@8       1001f274     user32:USER32.dll
 0002:00000278       __imp__GetParent@4         1001f278     user32:USER32.dll
 0002:0000027c       __imp__SetWindowLongW@12   1001f27c     user32:USER32.dll
 0002:00000280       __imp__GetWindowLongW@8    1001f280     user32:USER32.dll
 0002:00000284       __imp__PtInRect@12         1001f284     user32:USER32.dll
 0002:00000288       __imp__EqualRect@8         1001f288     user32:USER32.dll
 0002:0000028c       __imp__OffsetRect@12       1001f28c     user32:USER32.dll
 0002:00000290       __imp__UnionRect@12        1001f290     user32:USER32.dll
 0002:00000294       __imp__IntersectRect@12    1001f294     user32:USER32.dll
 0002:00000298       __imp__GetClientRect@8     1001f298     user32:USER32.dll
 0002:0000029c       __imp__InvalidateRect@12   1001f29c     user32:USER32.dll
 0002:000002a0       __imp__SetWindowRgn@12     1001f2a0     user32:USER32.dll
 0002:000002a4       __imp__EndPaint@8          1001f2a4     user32:USER32.dll
 0002:000002a8       __imp__BeginPaint@8        1001f2a8     user32:USER32.dll
 0002:000002ac       __imp__ReleaseDC@8         1001f2ac     user32:USER32.dll
 0002:000002b0       __imp__GetDC@4             1001f2b0     user32:USER32.dll
 0002:000002b4       __imp__GetKeyState@4       1001f2b4     user32:USER32.dll
 0002:000002b8       __imp__GetFocus@0          1001f2b8     user32:USER32.dll
 0002:000002bc       \177USER32_NULL_THUNK_DATA 1001f2bc     user32:USER32.dll
 0002:000002c0       __imp__StringFromGUID2@12  1001f2c0     ole32:ole32.dll
 0002:000002c4       __imp__CoTaskMemAlloc@4    1001f2c4     ole32:ole32.dll
 0002:000002c8       __imp__CoTaskMemRealloc@8  1001f2c8     ole32:ole32.dll
 0002:000002cc       __imp__CoTaskMemFree@4     1001f2cc     ole32:ole32.dll
 0002:000002d0       __imp__ReadClassStm@8      1001f2d0     ole32:ole32.dll
 0002:000002d4       __imp__WriteClassStm@8     1001f2d4     ole32:ole32.dll
 0002:000002d8       __imp__CreateDataAdviseHolder@4 1001f2d8     ole32:ole32.dll
 0002:000002dc       __imp__OleSaveToStream@8   1001f2dc     ole32:ole32.dll
 0002:000002e0       __imp__CreateOleAdviseHolder@4 1001f2e0     ole32:ole32.dll
 0002:000002e4       __imp__OleRegGetUserType@12 1001f2e4     ole32:ole32.dll
 0002:000002e8       __imp__OleRegGetMiscStatus@12 1001f2e8     ole32:ole32.dll
 0002:000002ec       __imp__OleRegEnumVerbs@8   1001f2ec     ole32:ole32.dll
 0002:000002f0       __imp__CLSIDFromProgID@8   1001f2f0     ole32:ole32.dll
 0002:000002f4       __imp__CoCreateInstance@20 1001f2f4     ole32:ole32.dll
 0002:000002f8       \177ole32_NULL_THUNK_DATA  1001f2f8     ole32:ole32.dll
 0002:000002fc       ___guard_check_icall_fptr  1001f2fc     LIBCMT:guard_support.obj
 0002:00000300       ___xc_a                    1001f300     LIBCMT:initializers.obj
 0002:00000318       ___xc_z                    1001f318     LIBCMT:initializers.obj
 0002:0000031c       ___xi_a                    1001f31c     LIBCMT:initializers.obj
 0002:00000324       ___acrt_stdio_initializer  1001f324     libucrt:stdio_initializer.obj
 0002:00000328       ___acrt_multibyte_initializer 1001f328     libucrt:multibyte_initializer.obj
 0002:0000032c       ___acrt_tran_sse2_initializer 1001f32c     libucrt:sse2_initializer.obj
 0002:00000330       ___xi_z                    1001f330     LIBCMT:initializers.obj
 0002:00000334       ___xl_a                    1001f334     LIBCMT:tlssup.obj
 0002:00000338       ___xl_z                    1001f338     LIBCMT:tlssup.obj
 0002:0000033c       ___xp_a                    1001f33c     LIBCMT:initializers.obj
 0002:00000340       ___acrt_locale_terminator  1001f340     libucrt:locale_initializer.obj
 0002:00000344       ___dcrt_console_output_terminator 1001f344     libucrt:console_output_initializer.obj
 0002:00000348       ___acrt_stdio_terminator   1001f348     libucrt:stdio_initializer.obj
 0002:0000034c       ___xp_z                    1001f34c     LIBCMT:initializers.obj
 0002:00000350       ___xt_a                    1001f350     LIBCMT:initializers.obj
 0002:00000354       ___xt_z                    1001f354     LIBCMT:initializers.obj
 0002:00000360       ??_C@_13HADIAKP@?$AAS@     1001f360     OposVariant.obj
 0002:00000364       ??_C@_13LHMFKAAD@?$AAM@    1001f364     OposVariant.obj
 0002:00000368       ??_C@_13MKMNOPIJ@?$AAD@    1001f368     OposVariant.obj
 0002:0000036c       ??_C@_13OPKGLAFF@?$AAB@    1001f36c     OposVariant.obj
 0002:00000370       ??_C@_17LLMMEOJD@?$AAV?$AAa?$AAl@ 1001f370     OposVariant.obj
 0002:00000378       ??_C@_1BI@JFAIJMHL@?$AAF?$AAo?$AAr?$AAc?$AAe?$AAR?$AAe?$AAm?$AAo?$AAv?$AAe@ 1001f378     OposVariant.obj
 0002:00000390       ??_C@_1BC@GCKHIPE@?$AAN?$AAo?$AAR?$AAe?$AAm?$AAo?$AAv?$AAe@ 1001f390     OposVariant.obj
 0002:000003a4       ??_C@_1O@JDLOHAN@?$AAD?$AAe?$AAl?$AAe?$AAt?$AAe@ 1001f3a4     OposVariant.obj
 0002:000003b4       ??_C@_11LOCGONAA@@         1001f3b4     OposVariant.obj
 0002:000003b8       ??_7CComClassFactory@ATL@@6B@ 1001f3b8     Lights.obj
 0002:000003d0       ?_entries@?1??_GetEntries@CComClassFactory@ATL@@SGPBU_ATL_INTMAP_ENTRY@3@XZ@4QBU43@B 1001f3d0     Lights.obj
 0002:000003e8       __GUID_00000001_0000_0000_c000_000000000046 1001f3e8     Lights.obj
 0002:000003f8       _IID_IOPOSLights_1_12      1001f3f8     Lights.obj
 0002:00000408       _IID_IOPOSLights           1001f408     Lights.obj
 0002:00000418       _LIBID_OposLights_CCO      1001f418     Lights.obj
 0002:00000428       _DIID__IOPOSLightsEvents   1001f428     Lights.obj
 0002:00000438       _CLSID_OPOSLights          1001f438     Lights.obj
 0002:00000448       ??_C@_1BK@BIGILECK@?$AAA?$AAd?$AAv?$AAa?$AAp?$AAi?$AA3?$AA2?$AA?4?$AAd?$AAl?$AAl@ 1001f448     Lights.obj
 0002:00000464       __GUID_00000114_0000_0000_c000_000000000046 1001f464     Lights.obj
 0002:00000474       ??_C@_0BI@MNCFCPFK@RegCreateKeyTransactedW@ 1001f474     Lights.obj
 0002:0000048c       __GUID_b196b287_bab4_101a_b69c_00aa00341d07 1001f48c     Lights.obj
 0002:0000049c       __GUID_b196b285_bab4_101a_b69c_00aa00341d07 1001f49c     Lights.obj
 0002:000004ac       __GUID_a6bc3ac0_dbaa_11ce_9de3_00aa004bb851 1001f4ac     Lights.obj
 0002:000004bc       __GUID_0000010c_0000_0000_c000_000000000046 1001f4bc     Lights.obj
 0002:000004cc       __GUID_00000146_0000_0000_c000_000000000046 1001f4cc     Lights.obj
 0002:000004e0       ?_entries@?1??_GetEntries@COPOSLights@@SGPBU_ATL_INTMAP_ENTRY@ATL@@XZ@4QBU34@B 1001f4e0     Lights.obj
 0002:00000600       __GUID_cf51ed10_62fe_11cf_bf86_00a0c9034836 1001f600     Lights.obj
 0002:00000610       __GUID_0000010a_0000_0000_c000_000000000046 1001f610     Lights.obj
 0002:00000620       __GUID_b196b283_bab4_101a_b69c_00aa00341d07 1001f620     Lights.obj
 0002:00000630       __GUID_cb5bdc81_93c1_11cf_8f20_00805f2cd064 1001f630     Lights.obj
 0002:00000640       ?pPropMap@?1??GetPropertyMap@COPOSLights@@SAPBUATL_PROPMAP_ENTRY@ATL@@XZ@4QBU34@B 1001f640     Lights.obj
 0002:000006ac       ??_C@_17DGDADEHL@?$AA_?$AAc?$AAx@ 1001f6ac     Lights.obj
 0002:000006b4       ??_C@_17IOIMFDBO@?$AA_?$AAc?$AAy@ 1001f6b4     Lights.obj
 0002:000006bc       ??_7CComModule@ATL@@6B@    1001f6bc     Lights.obj
 0002:000006e4       ??_7?$CComObjectCached@VCComClassFactory@ATL@@@ATL@@6B@ 1001f6e4     Lights.obj
 0002:000006fc       ??_C@_1CE@PGFMOFKI@?$AAS?$AAt?$AAa?$AAt?$AAu?$AAs?$AAU?$AAp?$AAd?$AAa?$AAt?$AAe?$AAE?$AAv?$AAe@ 1001f6fc     Lights.obj
 0002:00000720       ??_C@_1BM@CBGEBBBJ@?$AAD?$AAi?$AAr?$AAe?$AAc?$AAt?$AAI?$AAO?$AAE?$AAv?$AAe?$AAn?$AAt@ 1001f720     Lights.obj
 0002:0000073c       __GUID_922eada0_3424_11cf_b670_00aa004cd6d8 1001f73c     Lights.obj
 0002:0000074c       __GUID_9c2cad80_3424_11cf_b670_00aa004cd6d8 1001f74c     Lights.obj
 0002:0000075c       __GUID_00000119_0000_0000_c000_000000000046 1001f75c     Lights.obj
 0002:0000076c       __GUID_b196b286_bab4_101a_b69c_00aa00341d07 1001f76c     Lights.obj
 0002:0000077c       __GUID_b196b289_bab4_101a_b69c_00aa00341d07 1001f77c     Lights.obj
 0002:0000078c       __GUID_00000000_0000_0000_c000_000000000046 1001f78c     Lights.obj
 0002:0000079c       __GUID_00020400_0000_0000_c000_000000000046 1001f79c     Lights.obj
 0002:000007ac       ??_C@_1BC@ENICKDH@?$AAC?$AAo?$AAn?$AAt?$AAe?$AAn?$AAt?$AAs@ 1001f7ac     Lights.obj
 0002:000007c0       __GUID_00000117_0000_0000_c000_000000000046 1001f7c0     Lights.obj
 0002:000007d0       ??_7?$CComObject@V?$CComEnum@UIEnumConnectionPoints@@$1?_GUID_b196b285_bab4_101a_b69c_00aa00341d07@@3U__s_GUID@@BPAUIConnectionPoint@@V?$_CopyInterface@UIConnectionPoint@@@ATL@@VCComSingleThreadModel@6@@ATL@@@ATL@@6B@ 1001f7d0     Lights.obj
 0002:000007f0       ??_C@_1M@KANJNLFF@?$AAC?$AAL?$AAS?$AAI?$AAD@ 1001f7f0     Lights.obj
 0002:000007fc       ??_C@_1M@EJNEECMJ@?$AAA?$AAp?$AAp?$AAI?$AAD@ 1001f7fc     Lights.obj
 0002:00000808       __GUID_0000010e_0000_0000_c000_000000000046 1001f808     Lights.obj
 0002:00000818       __GUID_b196b288_bab4_101a_b69c_00aa00341d07 1001f818     Lights.obj
 0002:00000828       ?rgszNeverDelete@CRegParser@ATL@@1QBQB_WB 1001f828     Lights.obj
 0002:00000858       ??_7CRegObject@ATL@@6B@    1001f858     Lights.obj
 0002:00000870       __GUID_00000113_0000_0000_c000_000000000046 1001f870     Lights.obj
 0002:00000880       __GUID_1c2056cc_5ef4_101b_8bc8_00aa003e3b29 1001f880     Lights.obj
 0002:00000890       ??_C@_1CK@OEKPKBNA@?$AAC?$AAo?$AAm?$AAp?$AAo?$AAn?$AAe?$AAn?$AAt?$AA?5?$AAC?$AAa?$AAt?$AAe?$AAg@ 1001f890     Lights.obj
 0002:000008bc       ??_C@_1BC@NKMMNMGL@?$AAF?$AAi?$AAl?$AAe?$AAT?$AAy?$AAp?$AAe@ 1001f8bc     Lights.obj
 0002:000008d0       ??_C@_1BE@EKPAFMCP@?$AAI?$AAn?$AAt?$AAe?$AAr?$AAf?$AAa?$AAc?$AAe@ 1001f8d0     Lights.obj
 0002:000008e4       ??_C@_1BC@MAICEHGI@?$AAH?$AAa?$AAr?$AAd?$AAw?$AAa?$AAr?$AAe@ 1001f8e4     Lights.obj
 0002:000008f8       ??_C@_19HLLLM@?$AAM?$AAi?$AAm?$AAe@ 1001f8f8     Lights.obj
 0002:00000904       ??_C@_17OMAOINJK@?$AAS?$AAA?$AAM@ 1001f904     Lights.obj
 0002:0000090c       ??_C@_1BC@IBECJAAI@?$AAS?$AAE?$AAC?$AAU?$AAR?$AAI?$AAT?$AAY@ 1001f90c     Lights.obj
 0002:00000920       ??_C@_1O@GBFINDKL@?$AAS?$AAY?$AAS?$AAT?$AAE?$AAM@ 1001f920     Lights.obj
 0002:00000930       ??_C@_1BC@EAHCMADO@?$AAS?$AAo?$AAf?$AAt?$AAw?$AAa?$AAr?$AAe@ 1001f930     Lights.obj
 0002:00000944       ??_C@_1BA@JIHHIEDE@?$AAT?$AAy?$AAp?$AAe?$AAL?$AAi?$AAb@ 1001f944     Lights.obj
 0002:00000958       ?map@?1??HKeyFromString@CRegParser@ATL@@KAPAUHKEY__@@PA_W@Z@4QBUkeymap@?1??123@KAPAU4@0@Z@B 1001f958     Lights.obj
 0002:000009c8       ??_C@_19NCHLBIN@?$AAH?$AAK?$AAC?$AAR@ 1001f9c8     Lights.obj
 0002:000009d4       ??_C@_19JAPAIJDE@?$AAH?$AAK?$AAC?$AAU@ 1001f9d4     Lights.obj
 0002:000009e0       ??_C@_19PEALEEJB@?$AAH?$AAK?$AAL?$AAM@ 1001f9e0     Lights.obj
 0002:000009ec       ??_C@_17PJOJPMPB@?$AAH?$AAK?$AAU@ 1001f9ec     Lights.obj
 0002:000009f4       ??_C@_19PNBHMJPL@?$AAH?$AAK?$AAP?$AAD@ 1001f9f4     Lights.obj
 0002:00000a00       ??_C@_19GFFAIJHG@?$AAH?$AAK?$AAD?$AAD@ 1001fa00     Lights.obj
 0002:00000a0c       ??_C@_19OFICIBHH@?$AAH?$AAK?$AAC?$AAC@ 1001fa0c     Lights.obj
 0002:00000a18       ??_C@_1CE@PACHPJFI@?$AAH?$AAK?$AAE?$AAY?$AA_?$AAC?$AAL?$AAA?$AAS?$AAS?$AAE?$AAS?$AA_?$AAR?$AAO@ 1001fa18     Lights.obj
 0002:00000a3c       ??_C@_1CE@HLHNCBPM@?$AAH?$AAK?$AAE?$AAY?$AA_?$AAC?$AAU?$AAR?$AAR?$AAE?$AAN?$AAT?$AA_?$AAU?$AAS@ 1001fa3c     Lights.obj
 0002:00000a60       ??_C@_1CG@GFBEANJL@?$AAH?$AAK?$AAE?$AAY?$AA_?$AAL?$AAO?$AAC?$AAA?$AAL?$AA_?$AAM?$AAA?$AAC?$AAH@ 1001fa60     Lights.obj
 0002:00000a88       ??_C@_1BG@BGODANIO@?$AAH?$AAK?$AAE?$AAY?$AA_?$AAU?$AAS?$AAE?$AAR?$AAS@ 1001fa88     Lights.obj
 0002:00000aa0       ??_C@_1CM@KHNNAOIC@?$AAH?$AAK?$AAE?$AAY?$AA_?$AAP?$AAE?$AAR?$AAF?$AAO?$AAR?$AAM?$AAA?$AAN?$AAC@ 1001faa0     Lights.obj
 0002:00000acc       ??_C@_1BM@HAGMMHIA@?$AAH?$AAK?$AAE?$AAY?$AA_?$AAD?$AAY?$AAN?$AA_?$AAD?$AAA?$AAT?$AAA@ 1001facc     Lights.obj
 0002:00000ae8       ??_C@_1CI@BBJOACGG@?$AAH?$AAK?$AAE?$AAY?$AA_?$AAC?$AAU?$AAR?$AAR?$AAE?$AAN?$AAT?$AA_?$AAC?$AAO@ 1001fae8     Lights.obj
 0002:00000b10       __GUID_00000109_0000_0000_c000_000000000046 1001fb10     Lights.obj
 0002:00000b20       __GUID_7fd52380_4e07_101b_ae2d_08002b2ec713 1001fb20     Lights.obj
 0002:00000b30       __GUID_00000112_0000_0000_c000_000000000046 1001fb30     Lights.obj
 0002:00000b40       __GUID_3af24292_0c96_11ce_a0cf_00aa00600ab8 1001fb40     Lights.obj
 0002:00000b50       __GUID_00000127_0000_0000_c000_000000000046 1001fb50     Lights.obj
 0002:00000b60       __GUID_0000010d_0000_0000_c000_000000000046 1001fb60     Lights.obj
 0002:00000b70       ??_C@_1M@PPPPCDEP@?$AAA?$AAP?$AAP?$AAI?$AAD@ 1001fb70     Lights.obj
 0002:00000b80       ??_C@_1EA@NHKLICFA@?$AAH?$AAK?$AAC?$AAU?$AA?$AN?$AA?6?$AA?$HL?$AA?7?$AAS?$AAo?$AAf?$AAt?$AAw?$AAa?$AAr@ 1001fb80     Lights.obj
 0002:00000bc0       ??_C@_1BE@LJOLIMEM@?$AA?$AN?$AA?6?$AA?7?$AA?$HN?$AA?$AN?$AA?6?$AA?$HN?$AA?$AN?$AA?6@ 1001fbc0     Lights.obj
 0002:00000bd4       ??_C@_1O@MNLDABAF@?$AAM?$AAo?$AAd?$AAu?$AAl?$AAe@ 1001fbd4     Lights.obj
 0002:00000be4       ??_C@_1BG@JBACFMF@?$AAM?$AAo?$AAd?$AAu?$AAl?$AAe?$AA_?$AAR?$AAa?$AAw@ 1001fbe4     Lights.obj
 0002:00000bfc       ??_C@_1BC@KAILKFFG@?$AAR?$AAE?$AAG?$AAI?$AAS?$AAT?$AAR?$AAY@ 1001fbfc     Lights.obj
 0002:00000c10       ??_7?$CComContainedObject@VCOPOSLights@@@ATL@@6B?$IDispatchImpl@UIOPOSLights@@$1?IID_IOPOSLights@@3U_GUID@@B$1?LIBID_OposLights_CCO@@3U3@B$00$0A@VCComTypeInfoHolder@ATL@@@1@@ 1001fc10     Lights.obj
 0002:00000cf0       ??_7?$CComContainedObject@VCOPOSLights@@@ATL@@6BCComControlBase@1@@ 1001fcf0     Lights.obj
 0002:00000d04       ??_7?$CComContainedObject@VCOPOSLights@@@ATL@@6B?$CWindowImpl@VCOPOSLights@@VCWindow@ATL@@V?$CWinTraits@$0FGAAAAAA@$0A@@3@@1@@ 1001fd04     Lights.obj
 0002:00000d14       ??_7?$CComContainedObject@VCOPOSLights@@@ATL@@6B?$IPersistStreamInitImpl@VCOPOSLights@@@1@@ 1001fd14     Lights.obj
 0002:00000d38       ??_7?$CComContainedObject@VCOPOSLights@@@ATL@@6B?$IOleControlImpl@VCOPOSLights@@@1@@ 1001fd38     Lights.obj
 0002:00000d54       ??_7?$CComContainedObject@VCOPOSLights@@@ATL@@6B?$IOleObjectImpl@VCOPOSLights@@@1@@ 1001fd54     Lights.obj
 0002:00000db4       ??_7?$CComContainedObject@VCOPOSLights@@@ATL@@6B?$IOleInPlaceActiveObjectImpl@VCOPOSLights@@@1@@ 1001fdb4     Lights.obj
 0002:00000ddc       ??_7?$CComContainedObject@VCOPOSLights@@@ATL@@6B?$IViewObjectExImpl@VCOPOSLights@@@1@@ 1001fddc     Lights.obj
 0002:00000e18       ??_7?$CComContainedObject@VCOPOSLights@@@ATL@@6B?$IOleInPlaceObjectWindowlessImpl@VCOPOSLights@@@1@@ 1001fe18     Lights.obj
 0002:00000e44       ??_7?$CComContainedObject@VCOPOSLights@@@ATL@@6B?$IConnectionPointContainerImpl@VCOPOSLights@@@1@@ 1001fe44     Lights.obj
 0002:00000e58       ??_7?$CComContainedObject@VCOPOSLights@@@ATL@@6B?$IPersistStorageImpl@VCOPOSLights@@@1@@ 1001fe58     Lights.obj
 0002:00000e80       ??_7?$CComContainedObject@VCOPOSLights@@@ATL@@6B?$ISpecifyPropertyPagesImpl@VCOPOSLights@@@1@@ 1001fe80     Lights.obj
 0002:00000e90       ??_7?$CComContainedObject@VCOPOSLights@@@ATL@@6B?$IQuickActivateImpl@VCOPOSLights@@@1@@ 1001fe90     Lights.obj
 0002:00000ea8       ??_7?$CComContainedObject@VCOPOSLights@@@ATL@@6B?$IDataObjectImpl@VCOPOSLights@@@1@@ 1001fea8     Lights.obj
 0002:00000ed8       ??_7?$CComContainedObject@VCOPOSLights@@@ATL@@6B?$IProvideClassInfo2Impl@$1?CLSID_OPOSLights@@3U_GUID@@B$1?DIID__IOPOSLightsEvents@@3U2@B$1?LIBID_OposLights_CCO@@3U2@B$00$0A@VCComTypeInfoHolder@ATL@@@1@@ 1001fed8     Lights.obj
 0002:00000eec       ??_7?$CComContainedObject@VCOPOSLights@@@ATL@@6B?$IObjectSafetyImpl@VCOPOSLights@@$02@1@@ 1001feec     Lights.obj
 0002:00000f04       ??_7?$CComContainedObject@VCOPOSLights@@@ATL@@6B?$IPropertyNotifySinkCP@VCOPOSLights@@VCComDynamicUnkArray@ATL@@@1@@ 1001ff04     Lights.obj
 0002:00000f24       ??_7?$CComContainedObject@VCOPOSLights@@@ATL@@6B?$CProxy_IOPOSEvents@VCOPOSLights@@@@@ 1001ff24     Lights.obj
 0002:00000f44       ??_7?$CComAggObject@VCOPOSLights@@@ATL@@6B@ 1001ff44     Lights.obj
 0002:00000f54       ??_7?$CComObject@VCOPOSLights@@@ATL@@6B?$IDispatchImpl@UIOPOSLights@@$1?IID_IOPOSLights@@3U_GUID@@B$1?LIBID_OposLights_CCO@@3U3@B$00$0A@VCComTypeInfoHolder@ATL@@@1@@ 1001ff54     Lights.obj
 0002:00001034       ??_7?$CComObject@VCOPOSLights@@@ATL@@6BCComControlBase@1@@ 10020034     Lights.obj
 0002:00001048       ??_7?$CComObject@VCOPOSLights@@@ATL@@6B?$CWindowImpl@VCOPOSLights@@VCWindow@ATL@@V?$CWinTraits@$0FGAAAAAA@$0A@@3@@1@@ 10020048     Lights.obj
 0002:00001058       ??_7?$CComObject@VCOPOSLights@@@ATL@@6B?$IPersistStreamInitImpl@VCOPOSLights@@@1@@ 10020058     Lights.obj
 0002:0000107c       ??_7?$CComObject@VCOPOSLights@@@ATL@@6B?$IOleControlImpl@VCOPOSLights@@@1@@ 1002007c     Lights.obj
 0002:00001098       ??_7?$CComObject@VCOPOSLights@@@ATL@@6B?$IOleObjectImpl@VCOPOSLights@@@1@@ 10020098     Lights.obj
 0002:000010f8       ??_7?$CComObject@VCOPOSLights@@@ATL@@6B?$IOleInPlaceActiveObjectImpl@VCOPOSLights@@@1@@ 100200f8     Lights.obj
 0002:00001120       ??_7?$CComObject@VCOPOSLights@@@ATL@@6B?$IViewObjectExImpl@VCOPOSLights@@@1@@ 10020120     Lights.obj
 0002:0000115c       ??_7?$CComObject@VCOPOSLights@@@ATL@@6B?$IOleInPlaceObjectWindowlessImpl@VCOPOSLights@@@1@@ 1002015c     Lights.obj
 0002:00001188       ??_7?$CComObject@VCOPOSLights@@@ATL@@6B?$IConnectionPointContainerImpl@VCOPOSLights@@@1@@ 10020188     Lights.obj
 0002:0000119c       ??_7?$CComObject@VCOPOSLights@@@ATL@@6B?$IPersistStorageImpl@VCOPOSLights@@@1@@ 1002019c     Lights.obj
 0002:000011c4       ??_7?$CComObject@VCOPOSLights@@@ATL@@6B?$ISpecifyPropertyPagesImpl@VCOPOSLights@@@1@@ 100201c4     Lights.obj
 0002:000011d4       ??_7?$CComObject@VCOPOSLights@@@ATL@@6B?$IQuickActivateImpl@VCOPOSLights@@@1@@ 100201d4     Lights.obj
 0002:000011ec       ??_7?$CComObject@VCOPOSLights@@@ATL@@6B?$IDataObjectImpl@VCOPOSLights@@@1@@ 100201ec     Lights.obj
 0002:0000121c       ??_7?$CComObject@VCOPOSLights@@@ATL@@6B?$IProvideClassInfo2Impl@$1?CLSID_OPOSLights@@3U_GUID@@B$1?DIID__IOPOSLightsEvents@@3U2@B$1?LIBID_OposLights_CCO@@3U2@B$00$0A@VCComTypeInfoHolder@ATL@@@1@@ 1002021c     Lights.obj
 0002:00001230       ??_7?$CComObject@VCOPOSLights@@@ATL@@6B?$IObjectSafetyImpl@VCOPOSLights@@$02@1@@ 10020230     Lights.obj
 0002:00001248       ??_7?$CComObject@VCOPOSLights@@@ATL@@6B?$IPropertyNotifySinkCP@VCOPOSLights@@VCComDynamicUnkArray@ATL@@@1@@ 10020248     Lights.obj
 0002:00001268       ??_7?$CComObject@VCOPOSLights@@@ATL@@6B?$CProxy_IOPOSEvents@VCOPOSLights@@@@@ 10020268     Lights.obj
 0002:00001288       ??_C@_1O@GBFKGNEO@?$AAA?$AAT?$AAL?$AA?3?$AA?$CF?$AAp@ 10020288     Lights.obj
 0002:00001298       ??_C@_1BA@PICGEGJB@?$AAD?$AAI?$AAS?$AAP?$AAL?$AAA?$AAY@ 10020298     Lights.obj
 0002:000012a8       __GUID_9bfbbc02_eff1_101a_84ed_00aa00341d07 100202a8     Lights.obj
 0002:000012b8       ?_entries@?1??_GetEntries@?$CComEnum@UIEnumConnectionPoints@@$1?_GUID_b196b285_bab4_101a_b69c_00aa00341d07@@3U__s_GUID@@BPAUIConnectionPoint@@V?$_CopyInterface@UIConnectionPoint@@@ATL@@VCComSingleThreadModel@6@@ATL@@SGPBU_ATL_INTMAP_ENTRY@3@XZ@4QBU43@B 100202b8     Lights.obj
 0002:000012d0       __GUID_b196b284_bab4_101a_b69c_00aa00341d07 100202d0     Lights.obj
 0002:000012e0       __GUID_00020412_0000_0000_c000_000000000046 100202e0     Lights.obj
 0002:000012f0       __GUID_00020401_0000_0000_c000_000000000046 100202f0     Lights.obj
 0002:00001300       ??_7?$CComObject@V?$CComEnum@UIEnumConnections@@$1?_GUID_b196b287_bab4_101a_b69c_00aa00341d07@@3U__s_GUID@@BUtagCONNECTDATA@@V?$_Copy@UtagCONNECTDATA@@@ATL@@VCComSingleThreadModel@6@@ATL@@@ATL@@6B@ 10020300     Lights.obj
 0002:00001320       __GUID_55980ba0_35aa_11cf_b671_00aa004cd6d8 10020320     Lights.obj
 0002:00001330       __GUID_b196b28b_bab4_101a_b69c_00aa00341d07 10020330     Lights.obj
 0002:00001340       ?_entries@?1??_GetEntries@?$CComEnum@UIEnumConnections@@$1?_GUID_b196b287_bab4_101a_b69c_00aa00341d07@@3U__s_GUID@@BUtagCONNECTDATA@@V?$_Copy@UtagCONNECTDATA@@@ATL@@VCComSingleThreadModel@6@@ATL@@SGPBU_ATL_INTMAP_ENTRY@3@XZ@4QBU43@B 10020340     Lights.obj
 0002:00001358       ??_C@_0BG@EKFFMJIO@RegOpenKeyTransactedW@ 10020358     Lights.obj
 0002:00001370       ??_C@_0BI@HAKLOOGP@RegDeleteKeyTransactedW@ 10020370     Lights.obj
 0002:00001388       ??_C@_0BA@LILAPHGE@RegDeleteKeyExW@ 10020388     Lights.obj
 0002:00001398       ??_C@_19ILOCMLCJ@?$AA?4?$AAt?$AAl?$AAb@ 10020398     Lights.obj
 0002:000013a4       __GUID_0002e012_0000_0000_c000_000000000046 100203a4     Lights.obj
 0002:000013b4       ??_C@_1O@FHBGLCIO@?$AAC?$AAL?$AAS?$AAI?$AAD?$AA?2@ 100203b4     Lights.obj
 0002:000013c4       ??_C@_1CK@IFBKBFAA@?$AA?2?$AAR?$AAe?$AAq?$AAu?$AAi?$AAr?$AAe?$AAd?$AA?5?$AAC?$AAa?$AAt?$AAe?$AAg@ 100203c4     Lights.obj
 0002:000013f0       ??_C@_1DA@BIHALFED@?$AA?2?$AAI?$AAm?$AAp?$AAl?$AAe?$AAm?$AAe?$AAn?$AAt?$AAe?$AAd?$AA?5?$AAC?$AAa@ 100203f0     Lights.obj
 0002:00001420       ??_C@_1BK@EDKOLFBJ@?$AAO?$AAL?$AAE?$AAA?$AAU?$AAT?$AA3?$AA2?$AA?4?$AAD?$AAL?$AAL@ 10020420     Lights.obj
 0002:0000143c       ??_C@_0BJ@CNLFOMHB@UnRegisterTypeLibForUser@ 1002043c     Lights.obj
 0002:00001458       ??_C@_0BH@LBOMMKPJ@RegisterTypeLibForUser@ 10020458     Lights.obj
 0002:00001470       ??_C@_0P@MMNMMLGK@COFreezeEvents@ 10020470     LightsImpl.obj
 0002:00001480       ??_C@_0BC@OGCGGIMP@GetPropertyNumber@ 10020480     LightsImpl.obj
 0002:00001494       ??_C@_0BC@MDCNODNB@SetPropertyNumber@ 10020494     LightsImpl.obj
 0002:000014a8       ??_C@_0BC@CFCCMIMD@GetPropertyString@ 100204a8     LightsImpl.obj
 0002:000014bc       ??_C@_0BC@CJEDNN@SetPropertyString@ 100204bc     LightsImpl.obj
 0002:000014d0       ??_C@_0M@LNPKKKDA@OpenService@ 100204d0     LightsImpl.obj
 0002:000014dc       ??_C@_0M@PCMCHHMH@CheckHealth@ 100204dc     LightsImpl.obj
 0002:000014e8       ??_C@_0M@JGMIDNEK@ClaimDevice@ 100204e8     LightsImpl.obj
 0002:000014f4       ??_C@_0N@DDFIIBMP@CloseService@ 100204f4     LightsImpl.obj
 0002:00001504       ??_C@_08EEIHICPC@DirectIO@ 10020504     LightsImpl.obj
 0002:00001510       ??_C@_0O@BCPMENMJ@ReleaseDevice@ 10020510     LightsImpl.obj
 0002:00001520       ??_C@_0BA@GFABKEEE@ResetStatistics@ 10020520     LightsImpl.obj
 0002:00001530       ??_C@_0BD@DPALHJGC@RetrieveStatistics@ 10020530     LightsImpl.obj
 0002:00001544       ??_C@_0BB@KOHIKNFC@UpdateStatistics@ 10020544     LightsImpl.obj
 0002:00001558       ??_C@_0BH@PBKBNMGB@CompareFirmwareVersion@ 10020558     LightsImpl.obj
 0002:00001570       ??_C@_0P@FBPDPIPA@UpdateFirmware@ 10020570     LightsImpl.obj
 0002:00001580       ??_C@_09JGLPDJNG@SwitchOff@ 10020580     LightsImpl.obj
 0002:0000158c       ??_C@_08NKJJBGCP@SwitchOn@ 1002058c     LightsImpl.obj
 0002:00001598       ??_7?$CProxy_IOPOSEvents@VCOPOSLights@@@@6B@ 10020598     LightsImpl.obj
 0002:000015b8       ??_C@_1BA@IFHENID@?$AA?$FL?$AAE?$AAr?$AAr?$AAo?$AAr?$AA?$FN@ 100205b8     LightsImpl.obj
 0002:000015c8       ??_C@_0CJ@OKHPIBPI@SOFTWARE?2OLEforRetail?2ServiceOP@ 100205c8     LightsImpl.obj
 0002:000015f4       ??_C@_1M@IAIJHCCH@?$AAC?$AAl?$AAo?$AAs?$AAe@ 100205f4     LightsImpl.obj
 0002:00001600       ??_C@_1M@PCPKGJAH@?$AAC?$AAl?$AAa?$AAi?$AAm@ 10020600     LightsImpl.obj
 0002:0000160c       ??_C@_1BA@NDFKIOCP@?$AAR?$AAe?$AAl?$AAe?$AAa?$AAs?$AAe@ 1002060c     LightsImpl.obj
 0002:0000161c       ??_C@_06EMKJPPBG@Lights@   1002061c     LightsImpl.obj
 0002:00001624       ??_C@_1BM@IJMNMBPK@?$AAG?$AAe?$AAt?$AAO?$AAp?$AAe?$AAn?$AAR?$AAe?$AAs?$AAu?$AAl?$AAt@ 10020624     LightsImpl.obj
 0002:00001640       _IID_IPropertyNotifySink   10020640     uuid:ocidl_i.obj
 0002:00001650       _GUID_NULL                 10020650     uuid:cguid_i.obj
 0002:00001660       _CLSID_StdGlobalInterfaceTable 10020660     uuid:cguid_i.obj
 0002:00001670       _IID_IDispatch             10020670     uuid:oaidl_i.obj
 0002:00001680       _CLSID_StdComponentCategoriesMgr 10020680     uuid:ieguids.obj
 0002:00001690       _IID_IUnknown              10020690     uuid:unknwn_i.obj
 0002:000016a0       ??_C@_1EC@JIJBPKFM@?$AAa?$AAp?$AAi?$AA?9?$AAm?$AAs?$AA?9?$AAw?$AAi?$AAn?$AA?9?$AAc?$AAo?$AAr?$AAe@ 100206a0     LIBCMT:thread_safe_statics.obj
 0002:000016e4       ??_C@_1BK@MGMFAEKH@?$AAk?$AAe?$AAr?$AAn?$AAe?$AAl?$AA3?$AA2?$AA?4?$AAd?$AAl?$AAl@ 100206e4     LIBCMT:thread_safe_statics.obj
 0002:00001700       ??_C@_0BJ@JEBJOJFJ@SleepConditionVariableCS@ 10020700     LIBCMT:thread_safe_statics.obj
 0002:0000171c       ??_C@_0BJ@PGPPEPCC@WakeAllConditionVariable@ 1002071c     LIBCMT:thread_safe_statics.obj
 0002:00001735       ?nothrow@std@@3Unothrow_t@1@B 10020735     LIBCMT:std_nothrow.obj
 0002:00001740       __pRawDllMain              10020740     LIBCMT:dll_dllmain.obj
 0002:00001740       __pDefaultRawDllMain       10020740     LIBCMT:dll_dllmain.obj
 0002:00001748       ??_7exception@std@@6B@     10020748     LIBCMT:throw_bad_alloc.obj
 0002:00001750       ??_C@_0BC@EOODALEL@Unknown?5exception@ 10020750     LIBCMT:throw_bad_alloc.obj
 0002:00001768       ??_7bad_alloc@std@@6B@     10020768     LIBCMT:throw_bad_alloc.obj
 0002:00001770       ??_C@_0P@GHFPNOJB@bad?5allocation@ 10020770     LIBCMT:throw_bad_alloc.obj
 0002:00001784       ??_7bad_array_new_length@std@@6B@ 10020784     LIBCMT:throw_bad_alloc.obj
 0002:0000178c       ??_C@_0BF@KINCDENJ@bad?5array?5new?5length@ 1002078c     LIBCMT:throw_bad_alloc.obj
 0002:000017a8       ??_7type_info@@6B@         100207a8     LIBCMT:std_type_info_static.obj
 0002:000017ac       _GUID_ATLVer110            100207ac     atls:atlbase.obj
 0002:000017c0       ??_C@_1IC@ONKHOIDK@?$AAE?$AAR?$AAR?$AAO?$AAR?$AA?5?$AA?3?$AA?5?$AAU?$AAn?$AAa?$AAb?$AAl?$AAe?$AA?5@ 100207c0     atls:atlbase.obj
 0002:00001844       ??_C@_0N@FJEPLCIH@atlthunk?4dll@ 10020844     atls:atlthunk.obj
 0002:00001854       ??_C@_0BG@GAKFHCBM@AtlThunk_AllocateData@ 10020854     atls:atlthunk.obj
 0002:0000186c       ??_C@_0BC@JKONFIAH@AtlThunk_InitData@ 1002086c     atls:atlthunk.obj
 0002:00001880       ??_C@_0BE@IAOEELAK@AtlThunk_DataToCode@ 10020880     atls:atlthunk.obj
 0002:00001894       ??_C@_0BC@GBGKAIPI@AtlThunk_FreeData@ 10020894     atls:atlthunk.obj
 0002:000018a8       __pDestructExceptionObject 100208a8     libvcruntime:ehhelpers.obj
 0002:000018b0       ??_7bad_exception@std@@6B@ 100208b0     libvcruntime:frame.obj
 0002:000018b8       ??_C@_0O@DPKOEFFH@bad?5exception@ 100208b8     libvcruntime:frame.obj
 0002:00001c48       ??_C@_08EHJDFFNH@__based?$CI@ 10020c48     libvcruntime:undname.obj
 0002:00001c54       ??_C@_07KOLFKCDI@__cdecl@  10020c54     libvcruntime:undname.obj
 0002:00001c5c       ??_C@_08GHMPAG@__pascal@   10020c5c     libvcruntime:undname.obj
 0002:00001c68       ??_C@_09IFJBGAPI@__stdcall@ 10020c68     libvcruntime:undname.obj
 0002:00001c74       ??_C@_0L@NPHFGOKO@__thiscall@ 10020c74     libvcruntime:undname.obj
 0002:00001c80       ??_C@_0L@JMKHOMEK@__fastcall@ 10020c80     libvcruntime:undname.obj
 0002:00001c8c       ??_C@_0N@BCKKPABJ@__vectorcall@ 10020c8c     libvcruntime:undname.obj
 0002:00001c9c       ??_C@_09HIJEGCPM@__clrcall@ 10020c9c     libvcruntime:undname.obj
 0002:00001ca8       ??_C@_06GHPCKEAG@__eabi@   10020ca8     libvcruntime:undname.obj
 0002:00001cb0       ??_C@_09IOPIDJLG@__swift_1@ 10020cb0     libvcruntime:undname.obj
 0002:00001cbc       ??_C@_09KFNFGKHF@__swift_2@ 10020cbc     libvcruntime:undname.obj
 0002:00001cc8       ??_C@_07JOMMBBKO@__ptr64@  10020cc8     libvcruntime:undname.obj
 0002:00001cd0       ??_C@_0L@PILCLIHE@__restrict@ 10020cd0     libvcruntime:undname.obj
 0002:00001cdc       ??_C@_0M@GFIIJFMG@__unaligned@ 10020cdc     libvcruntime:undname.obj
 0002:00001ce8       ??_C@_09DHDLOLLB@restrict?$CI@ 10020ce8     libvcruntime:undname.obj
 0002:00001cf2       ??_C@_00CNPNBAHC@@         10020cf2     libvcruntime:undname.obj
 0002:00001cf4       ??_C@_04NIHEBCM@?5new@     10020cf4     libvcruntime:undname.obj
 0002:00001cfc       ??_C@_07FPCDHGMM@?5delete@ 10020cfc     libvcruntime:undname.obj
 0002:00001d04       ??_C@_01NEMOKFLO@?$DN@     10020d04     libvcruntime:undname.obj
 0002:00001d08       ??_C@_02GPIOPFAK@?$DO?$DO@ 10020d08     libvcruntime:undname.obj
 0002:00001d0c       ??_C@_02FODMEDOG@?$DM?$DM@ 10020d0c     libvcruntime:undname.obj
 0002:00001d10       ??_C@_01DCLJPIOD@?$CB@     10020d10     libvcruntime:undname.obj
 0002:00001d14       ??_C@_02EGOFBIJA@?$DN?$DN@ 10020d14     libvcruntime:undname.obj
 0002:00001d18       ??_C@_02FDNJECIE@?$CB?$DN@ 10020d18     libvcruntime:undname.obj
 0002:00001d1c       ??_C@_02GPECMEKF@?$FL?$FN@ 10020d1c     libvcruntime:undname.obj
 0002:00001d20       ??_C@_08LHJFAFGD@operator@ 10020d20     libvcruntime:undname.obj
 0002:00001d2c       ??_C@_02HBOOOICD@?9?$DO@   10020d2c     libvcruntime:undname.obj
 0002:00001d30       ??_C@_01NBENCBCI@?$CK@     10020d30     libvcruntime:undname.obj
 0002:00001d34       ??_C@_02ECNGHCIF@?$CL?$CL@ 10020d34     libvcruntime:undname.obj
 0002:00001d38       ??_C@_02BAABKJLB@?9?9@     10020d38     libvcruntime:undname.obj
 0002:00001d3c       ??_C@_01JOAMLHOP@?9@       10020d3c     libvcruntime:undname.obj
 0002:00001d40       ??_C@_01MIFGBAGJ@?$CL@     10020d40     libvcruntime:undname.obj
 0002:00001d44       ??_C@_01HNPIGOCE@?$CG@     10020d44     libvcruntime:undname.obj
 0002:00001d48       ??_C@_03MNHNFDLC@?9?$DO?$CK@ 10020d48     libvcruntime:undname.obj
 0002:00001d4c       ??_C@_01KMDKNFGN@?1@       10020d4c     libvcruntime:undname.obj
 0002:00001d50       ??_C@_01FGNFDNOH@?$CF@     10020d50     libvcruntime:undname.obj
 0002:00001d54       ??_C@_01MNNFJEPP@?$DM@     10020d54     libvcruntime:undname.obj
 0002:00001d58       ??_C@_02EHCHHCKH@?$DM?$DN@ 10020d58     libvcruntime:undname.obj
 0002:00001d5c       ??_C@_01PPODPGHN@?$DO@     10020d5c     libvcruntime:undname.obj
 0002:00001d60       ??_C@_02EEKDKGMJ@?$DO?$DN@ 10020d60     libvcruntime:undname.obj
 0002:00001d64       ??_C@_01IHBHIGKO@?0@       10020d64     libvcruntime:undname.obj
 0002:00001d68       ??_C@_02HCKGKOFO@?$CI?$CJ@ 10020d68     libvcruntime:undname.obj
 0002:00001d6c       ??_C@_01PJKLJHI@?$HO@      10020d6c     libvcruntime:undname.obj
 0002:00001d70       ??_C@_01JKBOJNNK@?$FO@     10020d70     libvcruntime:undname.obj
 0002:00001d74       ??_C@_01DNKMNLPK@?$HM@     10020d74     libvcruntime:undname.obj
 0002:00001d78       ??_C@_02PPKAJPJL@?$CG?$CG@ 10020d78     libvcruntime:undname.obj
 0002:00001d7c       ??_C@_02NONPIBCD@?$HM?$HM@ 10020d7c     libvcruntime:undname.obj
 0002:00001d80       ??_C@_02FPIMKNGF@?$CK?$DN@ 10020d80     libvcruntime:undname.obj
 0002:00001d84       ??_C@_02FOEOMHFC@?$CL?$DN@ 10020d84     libvcruntime:undname.obj
 0002:00001d88       ??_C@_02FKMDLLOA@?9?$DN@   10020d88     libvcruntime:undname.obj
 0002:00001d8c       ??_C@_02FJEHGPIO@?1?$DN@   10020d8c     libvcruntime:undname.obj
 0002:00001d90       ??_C@_02FENAOKFI@?$CF?$DN@ 10020d90     libvcruntime:undname.obj
 0002:00001d94       ??_C@_03IKFCCPFF@?$DO?$DO?$DN@ 10020d94     libvcruntime:undname.obj
 0002:00001d98       ??_C@_03CDNPDDLA@?$DM?$DM?$DN@ 10020d98     libvcruntime:undname.obj
 0002:00001d9c       ??_C@_02FGJGFEAB@?$CG?$DN@ 10020d9c     libvcruntime:undname.obj
 0002:00001da0       ??_C@_02DHLNPPGH@?$HM?$DN@ 10020da0     libvcruntime:undname.obj
 0002:00001da4       ??_C@_02MHEGNOJ@?$FO?$DN@  10020da4     libvcruntime:undname.obj
 0002:00001da8       ??_C@_09IFPLHPGF@?$GAvftable?8@ 10020da8     libvcruntime:undname.obj
 0002:00001db4       ??_C@_09BLBHBJP@?$GAvbtable?8@ 10020db4     libvcruntime:undname.obj
 0002:00001dc0       ??_C@_07FEEIOKP@?$GAvcall?8@ 10020dc0     libvcruntime:undname.obj
 0002:00001dc8       ??_C@_08LLFFHHDJ@?$GAtypeof?8@ 10020dc8     libvcruntime:undname.obj
 0002:00001dd4       ??_C@_0BF@KDPPACIK@?$GAlocal?5static?5guard?8@ 10020dd4     libvcruntime:undname.obj
 0002:00001dec       ??_C@_08OBABFOLI@?$GAstring?8@ 10020dec     libvcruntime:undname.obj
 0002:00001df8       ??_C@_0BD@JDLKDPAB@?$GAvbase?5destructor?8@ 10020df8     libvcruntime:undname.obj
 0002:00001e0c       ??_C@_0BN@DEGPLNFK@?$GAvector?5deleting?5destructor?8@ 10020e0c     libvcruntime:undname.obj
 0002:00001e2c       ??_C@_0BO@OBMKPJIG@?$GAdefault?5constructor?5closure?8@ 10020e2c     libvcruntime:undname.obj
 0002:00001e4c       ??_C@_0BN@IMDCHIKM@?$GAscalar?5deleting?5destructor?8@ 10020e4c     libvcruntime:undname.obj
 0002:00001e6c       ??_C@_0BO@PFGOCPJJ@?$GAvector?5constructor?5iterator?8@ 10020e6c     libvcruntime:undname.obj
 0002:00001e8c       ??_C@_0BN@LFPFMEDL@?$GAvector?5destructor?5iterator?8@ 10020e8c     libvcruntime:undname.obj
 0002:00001eac       ??_C@_0CE@IKBNEHA@?$GAvector?5vbase?5constructor?5itera@ 10020eac     libvcruntime:undname.obj
 0002:00001ed0       ??_C@_0BL@NILFHHPC@?$GAvirtual?5displacement?5map?8@ 10020ed0     libvcruntime:undname.obj
 0002:00001eec       ??_C@_0CB@JONCMFFK@?$GAeh?5vector?5constructor?5iterator@ 10020eec     libvcruntime:undname.obj
 0002:00001f10       ??_C@_0CA@GCEOPDGL@?$GAeh?5vector?5destructor?5iterator?8@ 10020f10     libvcruntime:undname.obj
 0002:00001f30       ??_C@_0CH@OOJPLCPH@?$GAeh?5vector?5vbase?5constructor?5it@ 10020f30     libvcruntime:undname.obj
 0002:00001f58       ??_C@_0BL@LLKPOHJI@?$GAcopy?5constructor?5closure?8@ 10020f58     libvcruntime:undname.obj
 0002:00001f74       ??_C@_0BA@KBCDOMBN@?$GAudt?5returning?8@ 10020f74     libvcruntime:undname.obj
 0002:00001f84       ??_C@_03KLGMFNMG@?$GAEH@   10020f84     libvcruntime:undname.obj
 0002:00001f88       ??_C@_05KHLCHHI@?$GARTTI@  10020f88     libvcruntime:undname.obj
 0002:00001f90       ??_C@_0BA@KKLDJDLB@?$GAlocal?5vftable?8@ 10020f90     libvcruntime:undname.obj
 0002:00001fa0       ??_C@_0CE@IIHCMGGL@?$GAlocal?5vftable?5constructor?5clos@ 10020fa0     libvcruntime:undname.obj
 0002:00001fc4       ??_C@_06FHBGPFGH@?5new?$FL?$FN@ 10020fc4     libvcruntime:undname.obj
 0002:00001fcc       ??_C@_09LBNFPBCA@?5delete?$FL?$FN@ 10020fcc     libvcruntime:undname.obj
 0002:00001fd8       ??_C@_0P@HJKNJFNN@?$GAomni?5callsig?8@ 10020fd8     libvcruntime:undname.obj
 0002:00001fe8       ??_C@_0BL@CNOONJFP@?$GAplacement?5delete?5closure?8@ 10020fe8     libvcruntime:undname.obj
 0002:00002004       ??_C@_0BN@CKNJLHMB@?$GAplacement?5delete?$FL?$FN?5closure?8@ 10021004     libvcruntime:undname.obj
 0002:00002024       ??_C@_0CG@CFDHKGGD@?$GAmanaged?5vector?5constructor?5ite@ 10021024     libvcruntime:undname.obj
 0002:0000204c       ??_C@_0CF@IMGKMJNO@?$GAmanaged?5vector?5destructor?5iter@ 1002104c     libvcruntime:undname.obj
 0002:00002074       ??_C@_0CG@HLDDJMAG@?$GAeh?5vector?5copy?5constructor?5ite@ 10021074     libvcruntime:undname.obj
 0002:0000209c       ??_C@_0CM@FCBBDIGB@?$GAeh?5vector?5vbase?5copy?5construct@ 1002109c     libvcruntime:undname.obj
 0002:000020c8       ??_C@_0BL@CLIPGLGB@?$GAdynamic?5initializer?5for?5?8@ 100210c8     libvcruntime:undname.obj
 0002:000020e4       ??_C@_0CB@PDBIFEP@?$GAdynamic?5atexit?5destructor?5for?5@ 100210e4     libvcruntime:undname.obj
 0002:00002108       ??_C@_0CD@CGAJBKEJ@?$GAvector?5copy?5constructor?5iterat@ 10021108     libvcruntime:undname.obj
 0002:0000212c       ??_C@_0CJ@GJELGAMM@?$GAvector?5vbase?5copy?5constructor?5@ 1002112c     libvcruntime:undname.obj
 0002:00002158       ??_C@_0CL@FGIJHLCE@?$GAmanaged?5vector?5copy?5constructo@ 10021158     libvcruntime:undname.obj
 0002:00002184       ??_C@_0BM@PMGGMLDN@?$GAlocal?5static?5thread?5guard?8@ 10021184     libvcruntime:undname.obj
 0002:000021a0       ??_C@_0N@BDNMDMOL@operator?5?$CC?$CC?5@ 100211a0     libvcruntime:undname.obj
 0002:000021b0       ??_C@_0BC@GGEBGALA@operator?5co_await@ 100211b0     libvcruntime:undname.obj
 0002:000021c4       ??_C@_0M@GAAIMMOH@operator?$DM?$DN?$DO@ 100211c4     libvcruntime:undname.obj
 0002:000021d0       ??_C@_0BC@DAFEJGAK@?5Type?5Descriptor?8@ 100211d0     libvcruntime:undname.obj
 0002:000021e4       ??_C@_0BM@LDKODKLH@?5Base?5Class?5Descriptor?5at?5?$CI@ 100211e4     libvcruntime:undname.obj
 0002:00002200       ??_C@_0BD@LGICGFMM@?5Base?5Class?5Array?8@ 10021200     libvcruntime:undname.obj
 0002:00002214       ??_C@_0BN@MECKDCOJ@?5Class?5Hierarchy?5Descriptor?8@ 10021214     libvcruntime:undname.obj
 0002:00002234       ??_C@_0BK@CFCOFLF@?5Complete?5Object?5Locator?8@ 10021234     libvcruntime:undname.obj
 0002:00002250       ??_C@_0BG@JNJLAMPM@?$GAanonymous?5namespace?8@ 10021250     libvcruntime:undname.obj
 0002:00002274       ??_C@_1DM@KHCHBNEB@?$AAa?$AAp?$AAi?$AA?9?$AAm?$AAs?$AA?9?$AAw?$AAi?$AAn?$AA?9?$AAc?$AAo?$AAr?$AAe@ 10021274     libvcruntime:winapi_downlevel.obj
 0002:000022b0       ??_C@_1DK@LPPGFMPP@?$AAa?$AAp?$AAi?$AA?9?$AAm?$AAs?$AA?9?$AAw?$AAi?$AAn?$AA?9?$AAc?$AAo?$AAr?$AAe@ 100212b0     libvcruntime:winapi_downlevel.obj
 0002:000022ec       ??_C@_1BC@GDMECMAK@?$AAk?$AAe?$AAr?$AAn?$AAe?$AAl?$AA3?$AA2@ 100212ec     libvcruntime:winapi_downlevel.obj
 0002:00002300       ??_C@_1BA@PFFKHIOG@?$AAa?$AAp?$AAi?$AA?9?$AAm?$AAs?$AA?9@ 10021300     libvcruntime:winapi_downlevel.obj
 0002:00002318       ??_C@_08KNHFBNJ@FlsAlloc@  10021318     libvcruntime:winapi_downlevel.obj
 0002:0000232c       ??_C@_07PEJMOBNF@FlsFree@  1002132c     libvcruntime:winapi_downlevel.obj
 0002:0000233c       ??_C@_0M@GDNOONDI@FlsGetValue@ 1002133c     libvcruntime:winapi_downlevel.obj
 0002:00002350       ??_C@_0M@JCPCPOEF@FlsSetValue@ 10021350     libvcruntime:winapi_downlevel.obj
 0002:00002364       ??_C@_0BM@HCFOFFN@InitializeCriticalSectionEx@ 10021364     libvcruntime:winapi_downlevel.obj
 0002:000024e8       ?format_validation_lookup_table_spectre@__crt_stdio_output@@3V?$spectre_mitigated_lookup_table@Ustate_transition_pair@__crt_stdio_output@@$0IA@@1@B 100214e8     libucrt:output.obj
 0002:000028e8       ??_C@_1O@CEDCILHN@?$AA?$CI?$AAn?$AAu?$AAl?$AAl?$AA?$CJ@ 100218e8     libucrt:output.obj
 0002:000028f8       ??_C@_06OJHGLDPL@?$CInull?$CJ@ 100218f8     libucrt:output.obj
 0002:00002900       ___acrt_exception_action_table 10021900     libucrt:exception_filter.obj
 0002:00002990       ___acrt_signal_action_table_count 10021990     libucrt:exception_filter.obj
 0002:00002994       ___acrt_signal_action_first_fpe_index 10021994     libucrt:exception_filter.obj
 0002:00002998       ___acrt_signal_action_fpe_count 10021998     libucrt:exception_filter.obj
 0002:0000299c       ??_C@_1BI@BGOHAHKC@?$AAm?$AAs?$AAc?$AAo?$AAr?$AAe?$AAe?$AA?4?$AAd?$AAl?$AAl@ 1002199c     libucrt:exit.obj
 0002:000029b4       ??_C@_0P@MIGLKIOC@CorExitProcess@ 100219b4     libucrt:exit.obj
 0002:00002a98       ??_C@_1EA@JGEFHKEI@?$AAa?$AAp?$AAi?$AA?9?$AAm?$AAs?$AA?9?$AAw?$AAi?$AAn?$AA?9?$AAc?$AAo?$AAr?$AAe@ 10021a98     libucrt:winapi_thunks.obj
 0002:00002ad8       ??_C@_1DI@IJCEHOCB@?$AAa?$AAp?$AAi?$AA?9?$AAm?$AAs?$AA?9?$AAw?$AAi?$AAn?$AA?9?$AAc?$AAo?$AAr?$AAe@ 10021ad8     libucrt:winapi_thunks.obj
 0002:00002b10       ??_C@_1EI@MPIAOHOC@?$AAa?$AAp?$AAi?$AA?9?$AAm?$AAs?$AA?9?$AAw?$AAi?$AAn?$AA?9?$AAc?$AAo?$AAr?$AAe@ 10021b10     libucrt:winapi_thunks.obj
 0002:00002b58       ??_C@_1FK@FPHCKFIE@?$AAa?$AAp?$AAi?$AA?9?$AAm?$AAs?$AA?9?$AAw?$AAi?$AAn?$AA?9?$AAc?$AAo?$AAr?$AAe@ 10021b58     libucrt:winapi_thunks.obj
 0002:00002bb8       ??_C@_1EM@DILCGIIO@?$AAa?$AAp?$AAi?$AA?9?$AAm?$AAs?$AA?9?$AAw?$AAi?$AAn?$AA?9?$AAc?$AAo?$AAr?$AAe@ 10021bb8     libucrt:winapi_thunks.obj
 0002:00002c04       ??_C@_1DM@LNCGDDPN@?$AAa?$AAp?$AAi?$AA?9?$AAm?$AAs?$AA?9?$AAw?$AAi?$AAn?$AA?9?$AAc?$AAo?$AAr?$AAe@ 10021c04     libucrt:winapi_thunks.obj
 0002:00002c40       ??_C@_1DO@FPAPJEMD@?$AAa?$AAp?$AAi?$AA?9?$AAm?$AAs?$AA?9?$AAw?$AAi?$AAn?$AA?9?$AAc?$AAo?$AAr?$AAe@ 10021c40     libucrt:winapi_thunks.obj
 0002:00002c80       ??_C@_1DK@NDHNAHIO@?$AAa?$AAp?$AAi?$AA?9?$AAm?$AAs?$AA?9?$AAw?$AAi?$AAn?$AA?9?$AAc?$AAo?$AAr?$AAe@ 10021c80     libucrt:winapi_thunks.obj
 0002:00002cbc       ??_C@_1DM@KGHDGBCM@?$AAa?$AAp?$AAi?$AA?9?$AAm?$AAs?$AA?9?$AAw?$AAi?$AAn?$AA?9?$AAc?$AAo?$AAr?$AAe@ 10021cbc     libucrt:winapi_thunks.obj
 0002:00002cf8       ??_C@_1EO@IJIOEFOH@?$AAa?$AAp?$AAi?$AA?9?$AAm?$AAs?$AA?9?$AAw?$AAi?$AAn?$AA?9?$AAr?$AAt?$AAc?$AAo@ 10021cf8     libucrt:winapi_thunks.obj
 0002:00002d48       ??_C@_1FG@HHGEKANL@?$AAa?$AAp?$AAi?$AA?9?$AAm?$AAs?$AA?9?$AAw?$AAi?$AAn?$AA?9?$AAs?$AAe?$AAc?$AAu@ 10021d48     libucrt:winapi_thunks.obj
 0002:00002da0       ??_C@_1EG@DBIOJECG@?$AAe?$AAx?$AAt?$AA?9?$AAm?$AAs?$AA?9?$AAw?$AAi?$AAn?$AA?9?$AAn?$AAt?$AAu?$AAs@ 10021da0     libucrt:winapi_thunks.obj
 0002:00002de8       ??_C@_1EO@FIHMJCLF@?$AAe?$AAx?$AAt?$AA?9?$AAm?$AAs?$AA?9?$AAw?$AAi?$AAn?$AA?9?$AAn?$AAt?$AAu?$AAs@ 10021de8     libucrt:winapi_thunks.obj
 0002:00002e38       ??_C@_1BC@DNHGCMLG@?$AAa?$AAd?$AAv?$AAa?$AAp?$AAi?$AA3?$AA2@ 10021e38     libucrt:winapi_thunks.obj
 0002:00002e4c       ??_C@_1M@OAIMIKLP@?$AAn?$AAt?$AAd?$AAl?$AAl@ 10021e4c     libucrt:winapi_thunks.obj
 0002:00002e58       ??_C@_1EG@DPGNFKGC@?$AAa?$AAp?$AAi?$AA?9?$AAm?$AAs?$AA?9?$AAw?$AAi?$AAn?$AA?9?$AAa?$AAp?$AAp?$AAm@ 10021e58     libucrt:winapi_thunks.obj
 0002:00002ea0       ??_C@_1O@BCCLBEOE@?$AAu?$AAs?$AAe?$AAr?$AA3?$AA2@ 10021ea0     libucrt:winapi_thunks.obj
 0002:00002eb0       ??_C@_1BA@IAIFMGEF@?$AAe?$AAx?$AAt?$AA?9?$AAm?$AAs?$AA?9@ 10021eb0     libucrt:winapi_thunks.obj
 0002:00002ec4       ??_C@_0BA@FHFNEAED@AreFileApisANSI@ 10021ec4     libucrt:winapi_thunks.obj
 0002:00002f04       ??_C@_0O@KKBNKAPF@LCMapStringEx@ 10021f04     libucrt:winapi_thunks.obj
 0002:00002f1c       ??_C@_0BB@HBDEELFH@LocaleNameToLCID@ 10021f1c     libucrt:winapi_thunks.obj
 0002:00002f34       ??_C@_0CF@OJOFEIGO@AppPolicyGetProcessTerminationM@ 10021f34     libucrt:winapi_thunks.obj
 0002:00002f64       ??_C@_0BI@BKLFFAPO@SetThreadStackGuarantee@ 10021f64     libucrt:winapi_thunks.obj
 0002:00002fc0       ??_C@_03OEIAHPBN@INF@      10021fc0     libucrt:cvt.obj
 0002:00002fc4       ??_C@_03OJHLLCGB@inf@      10021fc4     libucrt:cvt.obj
 0002:00002fc8       ??_C@_03LKNCIKJB@NAN@      10021fc8     libucrt:cvt.obj
 0002:00002fcc       ??_C@_03LHCJEHON@nan@      10021fcc     libucrt:cvt.obj
 0002:00002fd0       ??_C@_09OFJJIMPC@NAN?$CISNAN?$CJ@ 10021fd0     libucrt:cvt.obj
 0002:00002fdc       ??_C@_09IPFBKMDL@nan?$CIsnan?$CJ@ 10021fdc     libucrt:cvt.obj
 0002:00002fe8       ??_C@_08IKHNHAJ@NAN?$CIIND?$CJ@ 10021fe8     libucrt:cvt.obj
 0002:00002ff4       ??_C@_08OFCDMILK@nan?$CIind?$CJ@ 10021ff4     libucrt:cvt.obj
 0002:00003000       ??_C@_05KLBDPFGC@e?$CL000@ 10022000     libucrt:cvt.obj
 0002:00003008       ___lc_time_c               10022008     libucrt:nlsdata.obj
 0002:0000316c       ??_C@_03KOEHGMDN@Sun@      1002216c     libucrt:nlsdata.obj
 0002:00003170       ??_C@_03PDAGKDH@Mon@       10022170     libucrt:nlsdata.obj
 0002:00003174       ??_C@_03NAGEINEP@Tue@      10022174     libucrt:nlsdata.obj
 0002:00003178       ??_C@_03MHOMLAJA@Wed@      10022178     libucrt:nlsdata.obj
 0002:0000317c       ??_C@_03IOFIKPDN@Thu@      1002217c     libucrt:nlsdata.obj
 0002:00003180       ??_C@_03IDIOELNC@Fri@      10022180     libucrt:nlsdata.obj
 0002:00003184       ??_C@_03FEFJNEK@Sat@       10022184     libucrt:nlsdata.obj
 0002:00003188       ??_C@_06OOPIFAJ@Sunday@    10022188     libucrt:nlsdata.obj
 0002:00003190       ??_C@_06JLEDEDGH@Monday@   10022190     libucrt:nlsdata.obj
 0002:00003198       ??_C@_07BAAGCFCM@Tuesday@  10022198     libucrt:nlsdata.obj
 0002:000031a0       ??_C@_09DLIGFAKA@Wednesday@ 100221a0     libucrt:nlsdata.obj
 0002:000031ac       ??_C@_08HACCIKIA@Thursday@ 100221ac     libucrt:nlsdata.obj
 0002:000031b8       ??_C@_06JECMNKMI@Friday@   100221b8     libucrt:nlsdata.obj
 0002:000031c0       ??_C@_08INBOOONO@Saturday@ 100221c0     libucrt:nlsdata.obj
 0002:000031cc       ??_C@_03JIHJHPIE@Jan@      100221cc     libucrt:nlsdata.obj
 0002:000031d0       ??_C@_03HJBDCHOM@Feb@      100221d0     libucrt:nlsdata.obj
 0002:000031d4       ??_C@_03ODNJBKGA@Mar@      100221d4     libucrt:nlsdata.obj
 0002:000031d8       ??_C@_03LEOLGMJP@Apr@      100221d8     libucrt:nlsdata.obj
 0002:000031dc       ??_C@_03CNMDKL@May@        100221dc     libucrt:nlsdata.obj
 0002:000031e0       ??_C@_03IDFGHECI@Jun@      100221e0     libucrt:nlsdata.obj
 0002:000031e4       ??_C@_03LBGABGKK@Jul@      100221e4     libucrt:nlsdata.obj
 0002:000031e8       ??_C@_03IFJFEIGA@Aug@      100221e8     libucrt:nlsdata.obj
 0002:000031ec       ??_C@_03GGCAPAJC@Sep@      100221ec     libucrt:nlsdata.obj
 0002:000031f0       ??_C@_03BMAOKBAD@Oct@      100221f0     libucrt:nlsdata.obj
 0002:000031f4       ??_C@_03JPJOFNIA@Nov@      100221f4     libucrt:nlsdata.obj
 0002:000031f8       ??_C@_03MKABNOCG@Dec@      100221f8     libucrt:nlsdata.obj
 0002:000031fc       ??_C@_07CGJPFGJA@January@  100221fc     libucrt:nlsdata.obj
 0002:00003204       ??_C@_08GNJGEPFN@February@ 10022204     libucrt:nlsdata.obj
 0002:00003210       ??_C@_05HPCKOFNC@March@    10022210     libucrt:nlsdata.obj
 0002:00003218       ??_C@_05DMJDNLEJ@April@    10022218     libucrt:nlsdata.obj
 0002:00003220       ??_C@_04CNLMGBGM@June@     10022220     libucrt:nlsdata.obj
 0002:00003228       ??_C@_04MIEPOIFP@July@     10022228     libucrt:nlsdata.obj
 0002:00003230       ??_C@_06LBBHFDDG@August@   10022230     libucrt:nlsdata.obj
 0002:00003238       ??_C@_09BHHEALKD@September@ 10022238     libucrt:nlsdata.obj
 0002:00003244       ??_C@_07JJNFCEND@October@  10022244     libucrt:nlsdata.obj
 0002:0000324c       ??_C@_08HCHEGEOA@November@ 1002224c     libucrt:nlsdata.obj
 0002:00003258       ??_C@_08EDHMEBNP@December@ 10022258     libucrt:nlsdata.obj
 0002:00003264       ??_C@_02DEDBPAFC@AM@       10022264     libucrt:nlsdata.obj
 0002:00003268       ??_C@_02CJNFDJBF@PM@       10022268     libucrt:nlsdata.obj
 0002:0000326c       ??_C@_08BPBNCDIB@MM?1dd?1yy@ 1002226c     libucrt:nlsdata.obj
 0002:00003278       ??_C@_0BE@CKGJFCPC@dddd?0?5MMMM?5dd?0?5yyyy@ 10022278     libucrt:nlsdata.obj
 0002:0000328c       ??_C@_08JCCMCCIL@HH?3mm?3ss@ 1002228c     libucrt:nlsdata.obj
 0002:00003298       ??_C@_17MBGCMIPB@?$AAS?$AAu?$AAn@ 10022298     libucrt:nlsdata.obj
 0002:000032a0       ??_C@_17KBOMKBF@?$AAM?$AAo?$AAn@ 100222a0     libucrt:nlsdata.obj
 0002:000032a8       ??_C@_17BMKGEGOJ@?$AAT?$AAu?$AAe@ 100222a8     libucrt:nlsdata.obj
 0002:000032b0       ??_C@_17CJEDCEPE@?$AAW?$AAe?$AAd@ 100222b0     libucrt:nlsdata.obj
 0002:000032b8       ??_C@_17PDPHAADD@?$AAT?$AAh?$AAu@ 100222b8     libucrt:nlsdata.obj
 0002:000032c0       ??_C@_17HFOLPPLP@?$AAF?$AAr?$AAi@ 100222c0     libucrt:nlsdata.obj
 0002:000032c8       ??_C@_17GGIBDPIH@?$AAS?$AAa?$AAt@ 100222c8     libucrt:nlsdata.obj
 0002:000032d0       ??_C@_1O@IHNHDHPB@?$AAS?$AAu?$AAn?$AAd?$AAa?$AAy@ 100222d0     libucrt:nlsdata.obj
 0002:000032e0       ??_C@_1O@MMNBFLIA@?$AAM?$AAo?$AAn?$AAd?$AAa?$AAy@ 100222e0     libucrt:nlsdata.obj
 0002:000032f0       ??_C@_1BA@ENFBFFEK@?$AAT?$AAu?$AAe?$AAs?$AAd?$AAa?$AAy@ 100222f0     libucrt:nlsdata.obj
 0002:00003300       ??_C@_1BE@EBOGMDOH@?$AAW?$AAe?$AAd?$AAn?$AAe?$AAs?$AAd?$AAa?$AAy@ 10022300     libucrt:nlsdata.obj
 0002:00003314       ??_C@_1BC@HHMNLIHE@?$AAT?$AAh?$AAu?$AAr?$AAs?$AAd?$AAa?$AAy@ 10022314     libucrt:nlsdata.obj
 0002:00003328       ??_C@_1O@PDICJHAG@?$AAF?$AAr?$AAi?$AAd?$AAa?$AAy@ 10022328     libucrt:nlsdata.obj
 0002:00003338       ??_C@_1BC@ENMNNPAJ@?$AAS?$AAa?$AAt?$AAu?$AAr?$AAd?$AAa?$AAy@ 10022338     libucrt:nlsdata.obj
 0002:0000334c       ??_C@_17DKNBKCHM@?$AAJ?$AAa?$AAn@ 1002234c     libucrt:nlsdata.obj
 0002:00003354       ??_C@_17LMDJEKJN@?$AAF?$AAe?$AAb@ 10022354     libucrt:nlsdata.obj
 0002:0000335c       ??_C@_17CKNLEDEC@?$AAM?$AAa?$AAr@ 1002235c     libucrt:nlsdata.obj
 0002:00003364       ??_C@_17LFPOIHDD@?$AAA?$AAp?$AAr@ 10022364     libucrt:nlsdata.obj
 0002:0000336c       ??_C@_17PNNKMEED@?$AAM?$AAa?$AAy@ 1002236c     libucrt:nlsdata.obj
 0002:00003374       ??_C@_17KCJGOCPB@?$AAJ?$AAu?$AAn@ 10022374     libucrt:nlsdata.obj
 0002:0000337c       ??_C@_17IJPCKHK@?$AAJ?$AAu?$AAl@ 1002237c     libucrt:nlsdata.obj
 0002:00003384       ??_C@_17ICPELBCN@?$AAA?$AAu?$AAg@ 10022384     libucrt:nlsdata.obj
 0002:0000338c       ??_C@_17HCHCOKMG@?$AAS?$AAe?$AAp@ 1002238c     libucrt:nlsdata.obj
 0002:00003394       ??_C@_17FNLKOI@?$AAO?$AAc?$AAt@ 10022394     libucrt:nlsdata.obj
 0002:0000339c       ??_C@_17BBDMLCIG@?$AAN?$AAo?$AAv@ 1002239c     libucrt:nlsdata.obj
 0002:000033a4       ??_C@_17EGKACKIF@?$AAD?$AAe?$AAc@ 100223a4     libucrt:nlsdata.obj
 0002:000033ac       ??_C@_1BA@EFMEIEBA@?$AAJ?$AAa?$AAn?$AAu?$AAa?$AAr?$AAy@ 100223ac     libucrt:nlsdata.obj
 0002:000033bc       ??_C@_1BC@JGDDFFAM@?$AAF?$AAe?$AAb?$AAr?$AAu?$AAa?$AAr?$AAy@ 100223bc     libucrt:nlsdata.obj
 0002:000033d0       ??_C@_1M@IKEENEDF@?$AAM?$AAa?$AAr?$AAc?$AAh@ 100223d0     libucrt:nlsdata.obj
 0002:000033dc       ??_C@_1M@GJNLMHFD@?$AAA?$AAp?$AAr?$AAi?$AAl@ 100223dc     libucrt:nlsdata.obj
 0002:000033e8       ??_C@_19EPFLPGAP@?$AAJ?$AAu?$AAn?$AAe@ 100223e8     libucrt:nlsdata.obj
 0002:000033f4       ??_C@_19BIFMLPCD@?$AAJ?$AAu?$AAl?$AAy@ 100223f4     libucrt:nlsdata.obj
 0002:00003400       ??_C@_1O@PAHLKOAC@?$AAA?$AAu?$AAg?$AAu?$AAs?$AAt@ 10022400     libucrt:nlsdata.obj
 0002:00003410       ??_C@_1BE@DKAAMBJL@?$AAS?$AAe?$AAp?$AAt?$AAe?$AAm?$AAb?$AAe?$AAr@ 10022410     libucrt:nlsdata.obj
 0002:00003424       ??_C@_1BA@EPANDLNG@?$AAO?$AAc?$AAt?$AAo?$AAb?$AAe?$AAr@ 10022424     libucrt:nlsdata.obj
 0002:00003434       ??_C@_1BC@BGLIFPF@?$AAN?$AAo?$AAv?$AAe?$AAm?$AAb?$AAe?$AAr@ 10022434     libucrt:nlsdata.obj
 0002:00003448       ??_C@_1BC@FEMKIFH@?$AAD?$AAe?$AAc?$AAe?$AAm?$AAb?$AAe?$AAr@ 10022448     libucrt:nlsdata.obj
 0002:0000345c       ??_C@_15ODEHAHHF@?$AAA?$AAM@ 1002245c     libucrt:nlsdata.obj
 0002:00003464       ??_C@_15CLMNNGEL@?$AAP?$AAM@ 10022464     libucrt:nlsdata.obj
 0002:0000346c       ??_C@_1BC@IEBCMHCM@?$AAM?$AAM?$AA?1?$AAd?$AAd?$AA?1?$AAy?$AAy@ 1002246c     libucrt:nlsdata.obj
 0002:00003480       ??_C@_1CI@KNAKOEBC@?$AAd?$AAd?$AAd?$AAd?$AA?0?$AA?5?$AAM?$AAM?$AAM?$AAM?$AA?5?$AAd?$AAd?$AA?0?$AA?5@ 10022480     libucrt:nlsdata.obj
 0002:000034a8       ??_C@_1BC@GDGBMEMK@?$AAH?$AAH?$AA?3?$AAm?$AAm?$AA?3?$AAs?$AAs@ 100224a8     libucrt:nlsdata.obj
 0002:000034bc       ??_C@_1M@BMHNFIME@?$AAe?$AAn?$AA?9?$AAU?$AAS@ 100224bc     libucrt:nlsdata.obj
 0002:000034d8       ??_C@_1M@HPNHIDJI@?$AAj?$AAa?$AA?9?$AAJ?$AAP@ 100224d8     libucrt:mbctype.obj
 0002:000034e4       ??_C@_1M@BIBDDEMK@?$AAz?$AAh?$AA?9?$AAC?$AAN@ 100224e4     libucrt:mbctype.obj
 0002:000034f0       ??_C@_1M@JLOOOEGK@?$AAk?$AAo?$AA?9?$AAK?$AAR@ 100224f0     libucrt:mbctype.obj
 0002:000034fc       ??_C@_1M@CLNBBOPM@?$AAz?$AAh?$AA?9?$AAT?$AAW@ 100224fc     libucrt:mbctype.obj
 0002:00003508       ___newctype                10022508     libucrt:ctype.obj
 0002:00003808       ___newclmap                10022808     libucrt:ctype.obj
 0002:00003988       ___newcumap                10022988     libucrt:ctype.obj
 0002:00003b08       __wctype                   10022b08     libucrt:ctype.obj
 0002:00004430       ??_C@_15EMKDOKLE@?$AAa?$AAr@ 10023430     libucrt:lcidtoname_downlevel.obj
 0002:00004438       ??_C@_15KNPADPLH@?$AAb?$AAg@ 10023438     libucrt:lcidtoname_downlevel.obj
 0002:00004440       ??_C@_15EDMHLDMO@?$AAc?$AAa@ 10023440     libucrt:lcidtoname_downlevel.obj
 0002:00004448       ??_C@_1O@BPEAJADD@?$AAz?$AAh?$AA?9?$AAC?$AAH?$AAS@ 10023448     libucrt:lcidtoname_downlevel.obj
 0002:00004458       ??_C@_15LJNHCMNK@?$AAc?$AAs@ 10023458     libucrt:lcidtoname_downlevel.obj
 0002:00004460       ??_C@_15FOMCIDHG@?$AAd?$AAa@ 10023460     libucrt:lcidtoname_downlevel.obj
 0002:00004468       ??_C@_15NBKABECB@?$AAd?$AAe@ 10023468     libucrt:lcidtoname_downlevel.obj
 0002:00004470       ??_C@_15GHPEIIAO@?$AAe?$AAl@ 10023470     libucrt:lcidtoname_downlevel.obj
 0002:00004478       ??_C@_15MNPNEAIF@?$AAe?$AAn@ 10023478     libucrt:lcidtoname_downlevel.obj
 0002:00004480       ??_C@_15GPIOMPMH@?$AAe?$AAs@ 10023480     libucrt:lcidtoname_downlevel.obj
 0002:00004488       ??_C@_15NGLOAKJC@?$AAf?$AAi@ 10023488     libucrt:lcidtoname_downlevel.obj
 0002:00004490       ??_C@_15FBKGNKAM@?$AAf?$AAr@ 10023490     libucrt:lcidtoname_downlevel.obj
 0002:00004498       ??_C@_15KGGCNEFK@?$AAh?$AAe@ 10023498     libucrt:lcidtoname_downlevel.obj
 0002:000044a0       ??_C@_15PGHLIDMF@?$AAh?$AAu@ 100234a0     libucrt:lcidtoname_downlevel.obj
 0002:000044a8       ??_C@_15BIEMAPLM@?$AAi?$AAs@ 100234a8     libucrt:lcidtoname_downlevel.obj
 0002:000044b0       ??_C@_15IFJLDHAF@?$AAi?$AAt@ 100234b0     libucrt:lcidtoname_downlevel.obj
 0002:000044b8       ??_C@_15GEMIOCAG@?$AAj?$AAa@ 100234b8     libucrt:lcidtoname_downlevel.obj
 0002:000044c0       ??_C@_15EPELEGJA@?$AAk?$AAo@ 100234c0     libucrt:lcidtoname_downlevel.obj
 0002:000044c8       ??_C@_15NDDHIMN@?$AAn?$AAl@ 100234c8     libucrt:lcidtoname_downlevel.obj
 0002:000044d0       ??_C@_15BPIGNHCD@?$AAn?$AAo@ 100234d0     libucrt:lcidtoname_downlevel.obj
 0002:000044d8       ??_C@_15DEOPBLCG@?$AAp?$AAl@ 100234d8     libucrt:lcidtoname_downlevel.obj
 0002:000044e0       ??_C@_15KBECGEFG@?$AAp?$AAt@ 100234e0     libucrt:lcidtoname_downlevel.obj
 0002:000044e8       ??_C@_15GLJCBFMD@?$AAr?$AAo@ 100234e8     libucrt:lcidtoname_downlevel.obj
 0002:000044f0       ??_C@_15FEDGKCDI@?$AAr?$AAu@ 100234f0     libucrt:lcidtoname_downlevel.obj
 0002:000044f8       ??_C@_15GLKMLLHM@?$AAh?$AAr@ 100234f8     libucrt:lcidtoname_downlevel.obj
 0002:00004500       ??_C@_15CPKMFBDB@?$AAs?$AAk@ 10023500     libucrt:lcidtoname_downlevel.obj
 0002:00004508       ??_C@_15BAAIOGMK@?$AAs?$AAq@ 10023508     libucrt:lcidtoname_downlevel.obj
 0002:00004510       ??_C@_15INNPNOHD@?$AAs?$AAv@ 10023510     libucrt:lcidtoname_downlevel.obj
 0002:00004518       ??_C@_15CABMMOGH@?$AAt?$AAh@ 10023518     libucrt:lcidtoname_downlevel.obj
 0002:00004520       ??_C@_15BPLIHJJM@?$AAt?$AAr@ 10023520     libucrt:lcidtoname_downlevel.obj
 0002:00004528       ??_C@_15NEOEKKDJ@?$AAu?$AAr@ 10023528     libucrt:lcidtoname_downlevel.obj
 0002:00004530       ??_C@_15NFICGAJK@?$AAi?$AAd@ 10023530     libucrt:lcidtoname_downlevel.obj
 0002:00004538       ??_C@_15PJPFLCCM@?$AAu?$AAk@ 10023538     libucrt:lcidtoname_downlevel.obj
 0002:00004540       ??_C@_15HPJPHDM@?$AAb?$AAe@ 10023540     libucrt:lcidtoname_downlevel.obj
 0002:00004548       ??_C@_15LCHLGJII@?$AAs?$AAl@ 10023548     libucrt:lcidtoname_downlevel.obj
 0002:00004550       ??_C@_15PCFJPHHO@?$AAe?$AAt@ 10023550     libucrt:lcidtoname_downlevel.obj
 0002:00004558       ??_C@_15HPFPGODN@?$AAl?$AAv@ 10023558     libucrt:lcidtoname_downlevel.obj
 0002:00004560       ??_C@_15NFFGKGLG@?$AAl?$AAt@ 10023560     libucrt:lcidtoname_downlevel.obj
 0002:00004568       ??_C@_15BDAKCCHN@?$AAf?$AAa@ 10023568     libucrt:lcidtoname_downlevel.obj
 0002:00004570       ??_C@_15NFGIAIAJ@?$AAv?$AAi@ 10023570     libucrt:lcidtoname_downlevel.obj
 0002:00004578       ??_C@_15LMKNDMHN@?$AAh?$AAy@ 10023578     libucrt:lcidtoname_downlevel.obj
 0002:00004580       ??_C@_15IJBHMCFL@?$AAa?$AAz@ 10023580     libucrt:lcidtoname_downlevel.obj
 0002:00004588       ??_C@_15EKOFJABL@?$AAe?$AAu@ 10023588     libucrt:lcidtoname_downlevel.obj
 0002:00004590       ??_C@_15BGHADCNK@?$AAm?$AAk@ 10023590     libucrt:lcidtoname_downlevel.obj
 0002:00004598       ??_C@_15JDNICKHM@?$AAa?$AAf@ 10023598     libucrt:lcidtoname_downlevel.obj
 0002:000045a0       ??_C@_15KPJEDBKD@?$AAk?$AAa@ 100235a0     libucrt:lcidtoname_downlevel.obj
 0002:000045a8       ??_C@_15PDNFFFEO@?$AAf?$AAo@ 100235a8     libucrt:lcidtoname_downlevel.obj
 0002:000045b0       ??_C@_15OMLEGLOC@?$AAh?$AAi@ 100235b0     libucrt:lcidtoname_downlevel.obj
 0002:000045b8       ??_C@_15IDNNENKK@?$AAm?$AAs@ 100235b8     libucrt:lcidtoname_downlevel.obj
 0002:000045c0       ??_C@_15MACJNBMH@?$AAk?$AAk@ 100235c0     libucrt:lcidtoname_downlevel.obj
 0002:000045c8       ??_C@_15DKDJEOND@?$AAk?$AAy@ 100235c8     libucrt:lcidtoname_downlevel.obj
 0002:000045d0       ??_C@_15DFGDLJBG@?$AAs?$AAw@ 100235d0     libucrt:lcidtoname_downlevel.obj
 0002:000045d8       ??_C@_15BBFAICNG@?$AAu?$AAz@ 100235d8     libucrt:lcidtoname_downlevel.obj
 0002:000045e0       ??_C@_15DKNDCGEA@?$AAt?$AAt@ 100235e0     libucrt:lcidtoname_downlevel.obj
 0002:000045e8       ??_C@_15MGIFMDPL@?$AAp?$AAa@ 100235e8     libucrt:lcidtoname_downlevel.obj
 0002:000045f0       ??_C@_15HCNDBBA@?$AAg?$AAu@ 100235f0     libucrt:lcidtoname_downlevel.obj
 0002:000045f8       ??_C@_15FNBEIBON@?$AAt?$AAa@ 100235f8     libucrt:lcidtoname_downlevel.obj
 0002:00004600       ??_C@_15NCHGBGLK@?$AAt?$AAe@ 10023600     libucrt:lcidtoname_downlevel.obj
 0002:00004608       ??_C@_15PHPHCBPF@?$AAk?$AAn@ 10023608     libucrt:lcidtoname_downlevel.obj
 0002:00004610       ??_C@_15DLGBCKMP@?$AAm?$AAr@ 10023610     libucrt:lcidtoname_downlevel.obj
 0002:00004618       ??_C@_15EABBLBFF@?$AAs?$AAa@ 10023618     libucrt:lcidtoname_downlevel.obj
 0002:00004620       ??_C@_15CBKOMCOI@?$AAm?$AAn@ 10023620     libucrt:lcidtoname_downlevel.obj
 0002:00004628       ??_C@_15CKDMCJAF@?$AAg?$AAl@ 10023628     libucrt:lcidtoname_downlevel.obj
 0002:00004630       ??_C@_17CNJFBPG@?$AAk?$AAo?$AAk@ 10023630     libucrt:lcidtoname_downlevel.obj
 0002:00004638       ??_C@_17FFBJICPL@?$AAs?$AAy?$AAr@ 10023638     libucrt:lcidtoname_downlevel.obj
 0002:00004640       ??_C@_17KPNDCPAF@?$AAd?$AAi?$AAv@ 10023640     libucrt:lcidtoname_downlevel.obj
 0002:00004648       ??_C@_1M@OKAHONE@?$AAa?$AAr?$AA?9?$AAS?$AAA@ 10023648     libucrt:lcidtoname_downlevel.obj
 0002:00004654       ??_C@_1M@FFFIGIGK@?$AAb?$AAg?$AA?9?$AAB?$AAG@ 10023654     libucrt:lcidtoname_downlevel.obj
 0002:00004660       ??_C@_1M@BJNKEDC@?$AAc?$AAa?$AA?9?$AAE?$AAS@ 10023660     libucrt:lcidtoname_downlevel.obj
 0002:0000466c       ??_C@_1M@IJJHFJHA@?$AAc?$AAs?$AA?9?$AAC?$AAZ@ 1002366c     libucrt:lcidtoname_downlevel.obj
 0002:00004678       ??_C@_1M@CLPEOBGI@?$AAd?$AAa?$AA?9?$AAD?$AAK@ 10023678     libucrt:lcidtoname_downlevel.obj
 0002:00004684       ??_C@_1M@MCMADGCB@?$AAd?$AAe?$AA?9?$AAD?$AAE@ 10023684     libucrt:lcidtoname_downlevel.obj
 0002:00004690       ??_C@_1M@OOCKEMAM@?$AAe?$AAl?$AA?9?$AAG?$AAR@ 10023690     libucrt:lcidtoname_downlevel.obj
 0002:0000469c       ??_C@_1M@DDNJFGID@?$AAf?$AAi?$AA?9?$AAF?$AAI@ 1002369c     libucrt:lcidtoname_downlevel.obj
 0002:000046a8       ??_C@_1M@GLIPPMAC@?$AAf?$AAr?$AA?9?$AAF?$AAR@ 100236a8     libucrt:lcidtoname_downlevel.obj
 0002:000046b4       ??_C@_1M@GFMCHPE@?$AAh?$AAe?$AA?9?$AAI?$AAL@ 100236b4     libucrt:lcidtoname_downlevel.obj
 0002:000046c0       ??_C@_1M@MHLPGNKM@?$AAh?$AAu?$AA?9?$AAH?$AAU@ 100236c0     libucrt:lcidtoname_downlevel.obj
 0002:000046cc       ??_C@_1M@LPDDNNPN@?$AAi?$AAs?$AA?9?$AAI?$AAS@ 100236cc     libucrt:lcidtoname_downlevel.obj
 0002:000046d8       ??_C@_1M@MADIPODN@?$AAi?$AAt?$AA?9?$AAI?$AAT@ 100236d8     libucrt:lcidtoname_downlevel.obj
 0002:000046e4       ??_C@_1M@IHBJJGG@?$AAn?$AAl?$AA?9?$AAN?$AAL@ 100236e4     libucrt:lcidtoname_downlevel.obj
 0002:000046f0       ??_C@_1M@EANAGDL@?$AAn?$AAb?$AA?9?$AAN?$AAO@ 100236f0     libucrt:lcidtoname_downlevel.obj
 0002:000046fc       ??_C@_1M@NEIEMEGP@?$AAp?$AAl?$AA?9?$AAP?$AAL@ 100236fc     libucrt:lcidtoname_downlevel.obj
 0002:00004708       ??_C@_1M@BOCFIGEP@?$AAp?$AAt?$AA?9?$AAB?$AAR@ 10023708     libucrt:lcidtoname_downlevel.obj
 0002:00004714       ??_C@_1M@IMPFOPBG@?$AAr?$AAo?$AA?9?$AAR?$AAO@ 10023714     libucrt:lcidtoname_downlevel.obj
 0002:00004720       ??_C@_1M@IDNNEJMM@?$AAr?$AAu?$AA?9?$AAR?$AAU@ 10023720     libucrt:lcidtoname_downlevel.obj
 0002:0000472c       ??_C@_1M@LILEEOGM@?$AAh?$AAr?$AA?9?$AAH?$AAR@ 1002372c     libucrt:lcidtoname_downlevel.obj
 0002:00004738       ??_C@_1M@FKIFEHPB@?$AAs?$AAk?$AA?9?$AAS?$AAK@ 10023738     libucrt:lcidtoname_downlevel.obj
 0002:00004744       ??_C@_1M@LJMAMNPJ@?$AAs?$AAq?$AA?9?$AAA?$AAL@ 10023744     libucrt:lcidtoname_downlevel.obj
 0002:00004750       ??_C@_1M@GIAKDKJK@?$AAs?$AAv?$AA?9?$AAS?$AAE@ 10023750     libucrt:lcidtoname_downlevel.obj
 0002:0000475c       ??_C@_1M@MKJKIKCL@?$AAt?$AAh?$AA?9?$AAT?$AAH@ 1002375c     libucrt:lcidtoname_downlevel.obj
 0002:00004768       ??_C@_1M@MFLCCMPB@?$AAt?$AAr?$AA?9?$AAT?$AAR@ 10023768     libucrt:lcidtoname_downlevel.obj
 0002:00004774       ??_C@_1M@OIJHDKJN@?$AAu?$AAr?$AA?9?$AAP?$AAK@ 10023774     libucrt:lcidtoname_downlevel.obj
 0002:00004780       ??_C@_1M@LHIPCIEK@?$AAi?$AAd?$AA?9?$AAI?$AAD@ 10023780     libucrt:lcidtoname_downlevel.obj
 0002:0000478c       ??_C@_1M@MFMOBGI@?$AAu?$AAk?$AA?9?$AAU?$AAA@ 1002378c     libucrt:lcidtoname_downlevel.obj
 0002:00004798       ??_C@_1M@OBGLJIPL@?$AAb?$AAe?$AA?9?$AAB?$AAY@ 10023798     libucrt:lcidtoname_downlevel.obj
 0002:000047a4       ??_C@_1M@BCFAJEAD@?$AAs?$AAl?$AA?9?$AAS?$AAI@ 100237a4     libucrt:lcidtoname_downlevel.obj
 0002:000047b0       ??_C@_1M@FKFFEDDN@?$AAe?$AAt?$AA?9?$AAE?$AAE@ 100237b0     libucrt:lcidtoname_downlevel.obj
 0002:000047bc       ??_C@_1M@KGKKAACI@?$AAl?$AAv?$AA?9?$AAL?$AAV@ 100237bc     libucrt:lcidtoname_downlevel.obj
 0002:000047c8       ??_C@_1M@IFGBIJO@?$AAl?$AAt?$AA?9?$AAL?$AAT@ 100237c8     libucrt:lcidtoname_downlevel.obj
 0002:000047d4       ??_C@_1M@FGEAHEDM@?$AAf?$AAa?$AA?9?$AAI?$AAR@ 100237d4     libucrt:lcidtoname_downlevel.obj
 0002:000047e0       ??_C@_1M@KBMAIBFN@?$AAv?$AAi?$AA?9?$AAV?$AAN@ 100237e0     libucrt:lcidtoname_downlevel.obj
 0002:000047ec       ??_C@_1M@GPCBKDJK@?$AAh?$AAy?$AA?9?$AAA?$AAM@ 100237ec     libucrt:lcidtoname_downlevel.obj
 0002:000047f8       ??_C@_1BG@BECMDDJB@?$AAa?$AAz?$AA?9?$AAA?$AAZ?$AA?9?$AAL?$AAa?$AAt?$AAn@ 100237f8     libucrt:lcidtoname_downlevel.obj
 0002:00004810       ??_C@_1M@MAOFCAEA@?$AAe?$AAu?$AA?9?$AAE?$AAS@ 10023810     libucrt:lcidtoname_downlevel.obj
 0002:0000481c       ??_C@_1M@IGHABKPI@?$AAm?$AAk?$AA?9?$AAM?$AAK@ 1002381c     libucrt:lcidtoname_downlevel.obj
 0002:00004828       ??_C@_1M@IAIGNEJG@?$AAt?$AAn?$AA?9?$AAZ?$AAA@ 10023828     libucrt:lcidtoname_downlevel.obj
 0002:00004834       ??_C@_1M@IIJCOJFA@?$AAx?$AAh?$AA?9?$AAZ?$AAA@ 10023834     libucrt:lcidtoname_downlevel.obj
 0002:00004840       ??_C@_1M@LGPJHNJH@?$AAz?$AAu?$AA?9?$AAZ?$AAA@ 10023840     libucrt:lcidtoname_downlevel.obj
 0002:0000484c       ??_C@_1M@HOKAOIO@?$AAa?$AAf?$AA?9?$AAZ?$AAA@ 1002384c     libucrt:lcidtoname_downlevel.obj
 0002:00004858       ??_C@_1M@DPCLHLIE@?$AAk?$AAa?$AA?9?$AAG?$AAE@ 10023858     libucrt:lcidtoname_downlevel.obj
 0002:00004864       ??_C@_1M@BLKMHJBI@?$AAf?$AAo?$AA?9?$AAF?$AAO@ 10023864     libucrt:lcidtoname_downlevel.obj
 0002:00004870       ??_C@_1M@LGGJAPPB@?$AAh?$AAi?$AA?9?$AAI?$AAN@ 10023870     libucrt:lcidtoname_downlevel.obj
 0002:0000487c       ??_C@_1M@FIKPIHFE@?$AAm?$AAt?$AA?9?$AAM?$AAT@ 1002387c     libucrt:lcidtoname_downlevel.obj
 0002:00004888       ??_C@_1M@HEGGPBFA@?$AAs?$AAe?$AA?9?$AAN?$AAO@ 10023888     libucrt:lcidtoname_downlevel.obj
 0002:00004894       ??_C@_1M@EIBJEEPA@?$AAm?$AAs?$AA?9?$AAM?$AAY@ 10023894     libucrt:lcidtoname_downlevel.obj
 0002:000048a0       ??_C@_1M@FHLBGMPP@?$AAk?$AAk?$AA?9?$AAK?$AAZ@ 100238a0     libucrt:lcidtoname_downlevel.obj
 0002:000048ac       ??_C@_1M@NGJJLCGI@?$AAk?$AAy?$AA?9?$AAK?$AAG@ 100238ac     libucrt:lcidtoname_downlevel.obj
 0002:000048b8       ??_C@_1M@GIENNBFC@?$AAs?$AAw?$AA?9?$AAK?$AAE@ 100238b8     libucrt:lcidtoname_downlevel.obj
 0002:000048c4       ??_C@_1BG@NDGMJIMJ@?$AAu?$AAz?$AA?9?$AAU?$AAZ?$AA?9?$AAL?$AAa?$AAt?$AAn@ 100238c4     libucrt:lcidtoname_downlevel.obj
 0002:000048dc       ??_C@_1M@IDCCIHBC@?$AAt?$AAt?$AA?9?$AAR?$AAU@ 100238dc     libucrt:lcidtoname_downlevel.obj
 0002:000048e8       ??_C@_1M@LOICPMOJ@?$AAb?$AAn?$AA?9?$AAI?$AAN@ 100238e8     libucrt:lcidtoname_downlevel.obj
 0002:000048f4       ??_C@_1M@KPKKNEAH@?$AAp?$AAa?$AA?9?$AAI?$AAN@ 100238f4     libucrt:lcidtoname_downlevel.obj
 0002:00004900       ??_C@_1M@PJGPPBOG@?$AAg?$AAu?$AA?9?$AAI?$AAN@ 10023900     libucrt:lcidtoname_downlevel.obj
 0002:0000490c       ??_C@_1M@KMKMOPHI@?$AAt?$AAa?$AA?9?$AAI?$AAN@ 1002390c     libucrt:lcidtoname_downlevel.obj
 0002:00004918       ??_C@_1M@KFEHEPAC@?$AAt?$AAe?$AA?9?$AAI?$AAN@ 10023918     libucrt:lcidtoname_downlevel.obj
 0002:00004924       ??_C@_1M@CDCLMGHI@?$AAk?$AAn?$AA?9?$AAI?$AAN@ 10023924     libucrt:lcidtoname_downlevel.obj
 0002:00004930       ??_C@_1M@MIODLDKF@?$AAm?$AAl?$AA?9?$AAI?$AAN@ 10023930     libucrt:lcidtoname_downlevel.obj
 0002:0000493c       ??_C@_1M@PBIEACPO@?$AAm?$AAr?$AA?9?$AAI?$AAN@ 1002393c     libucrt:lcidtoname_downlevel.obj
 0002:00004948       ??_C@_1M@NIDEAGPH@?$AAs?$AAa?$AA?9?$AAI?$AAN@ 10023948     libucrt:lcidtoname_downlevel.obj
 0002:00004954       ??_C@_1M@FHIHCBIO@?$AAm?$AAn?$AA?9?$AAM?$AAN@ 10023954     libucrt:lcidtoname_downlevel.obj
 0002:00004960       ??_C@_1M@JAIJPENP@?$AAc?$AAy?$AA?9?$AAG?$AAB@ 10023960     libucrt:lcidtoname_downlevel.obj
 0002:0000496c       ??_C@_1M@PHGFBEPN@?$AAg?$AAl?$AA?9?$AAE?$AAS@ 1002396c     libucrt:lcidtoname_downlevel.obj
 0002:00004978       ??_C@_1O@KPIPDNCP@?$AAk?$AAo?$AAk?$AA?9?$AAI?$AAN@ 10023978     libucrt:lcidtoname_downlevel.obj
 0002:00004988       ??_C@_1O@KNHJLDJA@?$AAs?$AAy?$AAr?$AA?9?$AAS?$AAY@ 10023988     libucrt:lcidtoname_downlevel.obj
 0002:00004998       ??_C@_1O@MKEKBLAH@?$AAd?$AAi?$AAv?$AA?9?$AAM?$AAV@ 10023998     libucrt:lcidtoname_downlevel.obj
 0002:000049a8       ??_C@_1O@OHDCKDDF@?$AAq?$AAu?$AAz?$AA?9?$AAB?$AAO@ 100239a8     libucrt:lcidtoname_downlevel.obj
 0002:000049b8       ??_C@_1M@LEPJNLFD@?$AAn?$AAs?$AA?9?$AAZ?$AAA@ 100239b8     libucrt:lcidtoname_downlevel.obj
 0002:000049c4       ??_C@_1M@OMLEIIJB@?$AAm?$AAi?$AA?9?$AAN?$AAZ@ 100239c4     libucrt:lcidtoname_downlevel.obj
 0002:000049d0       ??_C@_1M@PMPEAILG@?$AAa?$AAr?$AA?9?$AAI?$AAQ@ 100239d0     libucrt:lcidtoname_downlevel.obj
 0002:000049dc       ??_C@_1M@CNKPNOEE@?$AAd?$AAe?$AA?9?$AAC?$AAH@ 100239dc     libucrt:lcidtoname_downlevel.obj
 0002:000049e8       ??_C@_1M@LKMGMLKO@?$AAe?$AAn?$AA?9?$AAG?$AAB@ 100239e8     libucrt:lcidtoname_downlevel.obj
 0002:000049f4       ??_C@_1M@PGKJFFGL@?$AAe?$AAs?$AA?9?$AAM?$AAX@ 100239f4     libucrt:lcidtoname_downlevel.obj
 0002:00004a00       ??_C@_1M@DNNANBDC@?$AAf?$AAr?$AA?9?$AAB?$AAE@ 10023a00     libucrt:lcidtoname_downlevel.obj
 0002:00004a0c       ??_C@_1M@HLGMDFHM@?$AAi?$AAt?$AA?9?$AAC?$AAH@ 10023a0c     libucrt:lcidtoname_downlevel.obj
 0002:00004a18       ??_C@_1M@CLLBGJH@?$AAn?$AAl?$AA?9?$AAB?$AAE@ 10023a18     libucrt:lcidtoname_downlevel.obj
 0002:00004a24       ??_C@_1M@BODBOGLF@?$AAn?$AAn?$AA?9?$AAN?$AAO@ 10023a24     libucrt:lcidtoname_downlevel.obj
 0002:00004a30       ??_C@_1M@HFFAHKAD@?$AAp?$AAt?$AA?9?$AAP?$AAT@ 10023a30     libucrt:lcidtoname_downlevel.obj
 0002:00004a3c       ??_C@_1BG@LNOAKHIE@?$AAs?$AAr?$AA?9?$AAS?$AAP?$AA?9?$AAL?$AAa?$AAt?$AAn@ 10023a3c     libucrt:lcidtoname_downlevel.obj
 0002:00004a54       ??_C@_1M@HBMHBGAK@?$AAs?$AAv?$AA?9?$AAF?$AAI@ 10023a54     libucrt:lcidtoname_downlevel.obj
 0002:00004a60       ??_C@_1BG@DGCJGJBE@?$AAa?$AAz?$AA?9?$AAA?$AAZ?$AA?9?$AAC?$AAy?$AAr?$AAl@ 10023a60     libucrt:lcidtoname_downlevel.obj
 0002:00004a78       ??_C@_1M@KEJDAAHB@?$AAs?$AAe?$AA?9?$AAS?$AAE@ 10023a78     libucrt:lcidtoname_downlevel.obj
 0002:00004a84       ??_C@_1M@HEIBJJAD@?$AAm?$AAs?$AA?9?$AAB?$AAN@ 10023a84     libucrt:lcidtoname_downlevel.obj
 0002:00004a90       ??_C@_1BG@PBGJMCEM@?$AAu?$AAz?$AA?9?$AAU?$AAZ?$AA?9?$AAC?$AAy?$AAr?$AAl@ 10023a90     libucrt:lcidtoname_downlevel.obj
 0002:00004aa8       ??_C@_1O@LAOBCMDF@?$AAq?$AAu?$AAz?$AA?9?$AAE?$AAC@ 10023aa8     libucrt:lcidtoname_downlevel.obj
 0002:00004ab8       ??_C@_1M@POEEMAIO@?$AAa?$AAr?$AA?9?$AAE?$AAG@ 10023ab8     libucrt:lcidtoname_downlevel.obj
 0002:00004ac4       ??_C@_1M@EFAKDEDL@?$AAz?$AAh?$AA?9?$AAH?$AAK@ 10023ac4     libucrt:lcidtoname_downlevel.obj
 0002:00004ad0       ??_C@_1M@HKKIJHGI@?$AAd?$AAe?$AA?9?$AAA?$AAT@ 10023ad0     libucrt:lcidtoname_downlevel.obj
 0002:00004adc       ??_C@_1M@KBFBEHJF@?$AAe?$AAn?$AA?9?$AAA?$AAU@ 10023adc     libucrt:lcidtoname_downlevel.obj
 0002:00004ae8       ??_C@_1M@MNPLFAAH@?$AAe?$AAs?$AA?9?$AAE?$AAS@ 10023ae8     libucrt:lcidtoname_downlevel.obj
 0002:00004af4       ??_C@_1M@HJOOJFMA@?$AAf?$AAr?$AA?9?$AAC?$AAA@ 10023af4     libucrt:lcidtoname_downlevel.obj
 0002:00004b00       ??_C@_1BG@JPOFPNAB@?$AAs?$AAr?$AA?9?$AAS?$AAP?$AA?9?$AAC?$AAy?$AAr?$AAl@ 10023b00     libucrt:lcidtoname_downlevel.obj
 0002:00004b18       ??_C@_1M@LNFOCMOB@?$AAs?$AAe?$AA?9?$AAF?$AAI@ 10023b18     libucrt:lcidtoname_downlevel.obj
 0002:00004b24       ??_C@_1O@MGJBOAMB@?$AAq?$AAu?$AAz?$AA?9?$AAP?$AAE@ 10023b24     libucrt:lcidtoname_downlevel.obj
 0002:00004b34       ??_C@_1M@GJINLBOK@?$AAa?$AAr?$AA?9?$AAL?$AAY@ 10023b34     libucrt:lcidtoname_downlevel.obj
 0002:00004b40       ??_C@_1M@GGMNHJNL@?$AAz?$AAh?$AA?9?$AAS?$AAG@ 10023b40     libucrt:lcidtoname_downlevel.obj
 0002:00004b4c       ??_C@_1M@HOIKODND@?$AAd?$AAe?$AA?9?$AAL?$AAU@ 10023b4c     libucrt:lcidtoname_downlevel.obj
 0002:00004b58       ??_C@_1M@DDOCCGFG@?$AAe?$AAn?$AA?9?$AAC?$AAA@ 10023b58     libucrt:lcidtoname_downlevel.obj
 0002:00004b64       ??_C@_1M@BNOEMJLF@?$AAe?$AAs?$AA?9?$AAG?$AAT@ 10023b64     libucrt:lcidtoname_downlevel.obj
 0002:00004b70       ??_C@_1M@EOGNKEK@?$AAf?$AAr?$AA?9?$AAC?$AAH@ 10023b70     libucrt:lcidtoname_downlevel.obj
 0002:00004b7c       ??_C@_1M@FLIDJFHL@?$AAh?$AAr?$AA?9?$AAB?$AAA@ 10023b7c     libucrt:lcidtoname_downlevel.obj
 0002:00004b88       ??_C@_1O@FMCELNAJ@?$AAs?$AAm?$AAj?$AA?9?$AAN?$AAO@ 10023b88     libucrt:lcidtoname_downlevel.obj
 0002:00004b98       ??_C@_1M@JHGLJMGJ@?$AAa?$AAr?$AA?9?$AAD?$AAZ@ 10023b98     libucrt:lcidtoname_downlevel.obj
 0002:00004ba4       ??_C@_1M@JKKFDCNP@?$AAz?$AAh?$AA?9?$AAM?$AAO@ 10023ba4     libucrt:lcidtoname_downlevel.obj
 0002:00004bb0       ??_C@_1M@GEEFALPE@?$AAd?$AAe?$AA?9?$AAL?$AAI@ 10023bb0     libucrt:lcidtoname_downlevel.obj
 0002:00004bbc       ??_C@_1M@IGEOFBG@?$AAe?$AAn?$AA?9?$AAN?$AAZ@ 10023bbc     libucrt:lcidtoname_downlevel.obj
 0002:00004bc8       ??_C@_1M@KDBONEHP@?$AAe?$AAs?$AA?9?$AAC?$AAR@ 10023bc8     libucrt:lcidtoname_downlevel.obj
 0002:00004bd4       ??_C@_1M@FHMDOHNN@?$AAf?$AAr?$AA?9?$AAL?$AAU@ 10023bd4     libucrt:lcidtoname_downlevel.obj
 0002:00004be0       ??_C@_1BG@NFKKMAFG@?$AAb?$AAs?$AA?9?$AAB?$AAA?$AA?9?$AAL?$AAa?$AAt?$AAn@ 10023be0     libucrt:lcidtoname_downlevel.obj
 0002:00004bf8       ??_C@_1O@IMNBEMCI@?$AAs?$AAm?$AAj?$AA?9?$AAS?$AAE@ 10023bf8     libucrt:lcidtoname_downlevel.obj
 0002:00004c08       ??_C@_1M@DHHMBNDP@?$AAa?$AAr?$AA?9?$AAM?$AAA@ 10023c08     libucrt:lcidtoname_downlevel.obj
 0002:00004c14       ??_C@_1M@BNBLJCGH@?$AAe?$AAn?$AA?9?$AAI?$AAE@ 10023c14     libucrt:lcidtoname_downlevel.obj
 0002:00004c20       ??_C@_1M@GEPAFMDL@?$AAe?$AAs?$AA?9?$AAP?$AAA@ 10023c20     libucrt:lcidtoname_downlevel.obj
 0002:00004c2c       ??_C@_1M@OJONDMDL@?$AAf?$AAr?$AA?9?$AAM?$AAC@ 10023c2c     libucrt:lcidtoname_downlevel.obj
 0002:00004c38       ??_C@_1BG@OBCNFJB@?$AAs?$AAr?$AA?9?$AAB?$AAA?$AA?9?$AAL?$AAa?$AAt?$AAn@ 10023c38     libucrt:lcidtoname_downlevel.obj
 0002:00004c50       ??_C@_1O@KEMEEGPO@?$AAs?$AAm?$AAa?$AA?9?$AAN?$AAO@ 10023c50     libucrt:lcidtoname_downlevel.obj
 0002:00004c60       ??_C@_1M@ELMGFODK@?$AAa?$AAr?$AA?9?$AAT?$AAN@ 10023c60     libucrt:lcidtoname_downlevel.obj
 0002:00004c6c       ??_C@_1M@BHDLHFAF@?$AAe?$AAn?$AA?9?$AAZ?$AAA@ 10023c6c     libucrt:lcidtoname_downlevel.obj
 0002:00004c78       ??_C@_1M@BMGIGLIF@?$AAe?$AAs?$AA?9?$AAD?$AAO@ 10023c78     libucrt:lcidtoname_downlevel.obj
 0002:00004c84       ??_C@_1BG@CMBHIPBE@?$AAs?$AAr?$AA?9?$AAB?$AAA?$AA?9?$AAC?$AAy?$AAr?$AAl@ 10023c84     libucrt:lcidtoname_downlevel.obj
 0002:00004c9c       ??_C@_1O@HEDBLHNP@?$AAs?$AAm?$AAa?$AA?9?$AAS?$AAE@ 10023c9c     libucrt:lcidtoname_downlevel.obj
 0002:00004cac       ??_C@_1M@DAGCADIM@?$AAa?$AAr?$AA?9?$AAO?$AAM@ 10023cac     libucrt:lcidtoname_downlevel.obj
 0002:00004cb8       ??_C@_1M@FODLMICG@?$AAe?$AAn?$AA?9?$AAJ?$AAM@ 10023cb8     libucrt:lcidtoname_downlevel.obj
 0002:00004cc4       ??_C@_1M@DNMLCIHB@?$AAe?$AAs?$AA?9?$AAV?$AAE@ 10023cc4     libucrt:lcidtoname_downlevel.obj
 0002:00004cd0       ??_C@_1O@EOKHMKJK@?$AAs?$AAm?$AAs?$AA?9?$AAF?$AAI@ 10023cd0     libucrt:lcidtoname_downlevel.obj
 0002:00004ce0       ??_C@_1M@CAFJMKOF@?$AAa?$AAr?$AA?9?$AAY?$AAE@ 10023ce0     libucrt:lcidtoname_downlevel.obj
 0002:00004cec       ??_C@_1M@CBFHIJLI@?$AAe?$AAn?$AA?9?$AAC?$AAB@ 10023cec     libucrt:lcidtoname_downlevel.obj
 0002:00004cf8       ??_C@_1M@BGNFLDN@?$AAe?$AAs?$AA?9?$AAC?$AAO@ 10023cf8     libucrt:lcidtoname_downlevel.obj
 0002:00004d04       ??_C@_1O@JMPHMAMC@?$AAs?$AAm?$AAn?$AA?9?$AAF?$AAI@ 10023d04     libucrt:lcidtoname_downlevel.obj
 0002:00004d14       ??_C@_1M@JLANABKE@?$AAa?$AAr?$AA?9?$AAS?$AAY@ 10023d14     libucrt:lcidtoname_downlevel.obj
 0002:00004d20       ??_C@_1M@HPKGCFGN@?$AAe?$AAn?$AA?9?$AAB?$AAZ@ 10023d20     libucrt:lcidtoname_downlevel.obj
 0002:00004d2c       ??_C@_1M@OLJCMLGM@?$AAe?$AAs?$AA?9?$AAP?$AAE@ 10023d2c     libucrt:lcidtoname_downlevel.obj
 0002:00004d38       ??_C@_1M@MKKGFKLE@?$AAa?$AAr?$AA?9?$AAJ?$AAO@ 10023d38     libucrt:lcidtoname_downlevel.obj
 0002:00004d44       ??_C@_1M@EKPGLDNI@?$AAe?$AAn?$AA?9?$AAT?$AAT@ 10023d44     libucrt:lcidtoname_downlevel.obj
 0002:00004d50       ??_C@_1M@OONGHFHE@?$AAe?$AAs?$AA?9?$AAA?$AAR@ 10023d50     libucrt:lcidtoname_downlevel.obj
 0002:00004d5c       ??_C@_1M@OOJFGBHE@?$AAa?$AAr?$AA?9?$AAL?$AAB@ 10023d5c     libucrt:lcidtoname_downlevel.obj
 0002:00004d68       ??_C@_1M@GCEJHNEG@?$AAe?$AAn?$AA?9?$AAZ?$AAW@ 10023d68     libucrt:lcidtoname_downlevel.obj
 0002:00004d74       ??_C@_1M@JNOCAHJI@?$AAe?$AAs?$AA?9?$AAE?$AAC@ 10023d74     libucrt:lcidtoname_downlevel.obj
 0002:00004d80       ??_C@_1M@JEFHPGGB@?$AAa?$AAr?$AA?9?$AAK?$AAW@ 10023d80     libucrt:lcidtoname_downlevel.obj
 0002:00004d8c       ??_C@_1M@MLKIBJOJ@?$AAe?$AAn?$AA?9?$AAP?$AAH@ 10023d8c     libucrt:lcidtoname_downlevel.obj
 0002:00004d98       ??_C@_1M@BDNIPEND@?$AAe?$AAs?$AA?9?$AAC?$AAL@ 10023d98     libucrt:lcidtoname_downlevel.obj
 0002:00004da4       ??_C@_1M@MPNMEKBD@?$AAa?$AAr?$AA?9?$AAA?$AAE@ 10023da4     libucrt:lcidtoname_downlevel.obj
 0002:00004db0       ??_C@_1M@KBJALCPI@?$AAe?$AAs?$AA?9?$AAU?$AAY@ 10023db0     libucrt:lcidtoname_downlevel.obj
 0002:00004dbc       ??_C@_1M@LLCCOAGA@?$AAa?$AAr?$AA?9?$AAB?$AAH@ 10023dbc     libucrt:lcidtoname_downlevel.obj
 0002:00004dc8       ??_C@_1M@PBFNCDEL@?$AAe?$AAs?$AA?9?$AAP?$AAY@ 10023dc8     libucrt:lcidtoname_downlevel.obj
 0002:00004dd4       ??_C@_1M@EDGINPNP@?$AAa?$AAr?$AA?9?$AAQ?$AAA@ 10023dd4     libucrt:lcidtoname_downlevel.obj
 0002:00004de0       ??_C@_1M@MKDBIIJI@?$AAe?$AAs?$AA?9?$AAB?$AAO@ 10023de0     libucrt:lcidtoname_downlevel.obj
 0002:00004dec       ??_C@_1M@CPKKEBLD@?$AAe?$AAs?$AA?9?$AAS?$AAV@ 10023dec     libucrt:lcidtoname_downlevel.obj
 0002:00004df8       ??_C@_1M@NDBGMMJL@?$AAe?$AAs?$AA?9?$AAH?$AAN@ 10023df8     libucrt:lcidtoname_downlevel.obj
 0002:00004e04       ??_C@_1M@JIJIBHDP@?$AAe?$AAs?$AA?9?$AAN?$AAI@ 10023e04     libucrt:lcidtoname_downlevel.obj
 0002:00004e10       ??_C@_1M@CGFMKEEK@?$AAe?$AAs?$AA?9?$AAP?$AAR@ 10023e10     libucrt:lcidtoname_downlevel.obj
 0002:00004e1c       ??_C@_1O@ICJHKIIK@?$AAz?$AAh?$AA?9?$AAC?$AAH?$AAT@ 10023e1c     libucrt:lcidtoname_downlevel.obj
 0002:00004e2c       ??_C@_15CLNEJCE@?$AAs?$AAr@ 10023e2c     libucrt:lcidtoname_downlevel.obj
 0002:00005558       ??_C@_1M@KAHEKEIG@?$AAa?$AAf?$AA?9?$AAz?$AAa@ 10024558     libucrt:lcidtoname_downlevel.obj
 0002:00005564       ??_C@_1M@GIECOABL@?$AAa?$AAr?$AA?9?$AAa?$AAe@ 10024564     libucrt:lcidtoname_downlevel.obj
 0002:00005570       ??_C@_1M@BMLMEKGI@?$AAa?$AAr?$AA?9?$AAb?$AAh@ 10024570     libucrt:lcidtoname_downlevel.obj
 0002:0000557c       ??_C@_1M@DAPFDGGB@?$AAa?$AAr?$AA?9?$AAd?$AAz@ 1002457c     libucrt:lcidtoname_downlevel.obj
 0002:00005588       ??_C@_1M@FJNKGKIG@?$AAa?$AAr?$AA?9?$AAe?$AAg@ 10024588     libucrt:lcidtoname_downlevel.obj
 0002:00005594       ??_C@_1M@FLGKKCLO@?$AAa?$AAr?$AA?9?$AAi?$AAq@ 10024594     libucrt:lcidtoname_downlevel.obj
 0002:000055a0       ??_C@_1M@GNDIPALM@?$AAa?$AAr?$AA?9?$AAj?$AAo@ 100245a0     libucrt:lcidtoname_downlevel.obj
 0002:000055ac       ??_C@_1M@DDMJFMGJ@?$AAa?$AAr?$AA?9?$AAk?$AAw@ 100245ac     libucrt:lcidtoname_downlevel.obj
 0002:000055b8       ??_C@_1M@EJALMLHM@?$AAa?$AAr?$AA?9?$AAl?$AAb@ 100245b8     libucrt:lcidtoname_downlevel.obj
 0002:000055c4       ??_C@_1M@MOBDBLOC@?$AAa?$AAr?$AA?9?$AAl?$AAy@ 100245c4     libucrt:lcidtoname_downlevel.obj
 0002:000055d0       ??_C@_1M@JAOCLHDH@?$AAa?$AAr?$AA?9?$AAm?$AAa@ 100245d0     libucrt:lcidtoname_downlevel.obj
 0002:000055dc       ??_C@_1M@JHPMKJIE@?$AAa?$AAr?$AA?9?$AAo?$AAm@ 100245dc     libucrt:lcidtoname_downlevel.obj
 0002:000055e8       ??_C@_1M@OEPGHFNH@?$AAa?$AAr?$AA?9?$AAq?$AAa@ 100245e8     libucrt:lcidtoname_downlevel.obj
 0002:000055f4       ??_C@_1M@KJDONENM@?$AAa?$AAr?$AA?9?$AAs?$AAa@ 100245f4     libucrt:lcidtoname_downlevel.obj
 0002:00005600       ??_C@_1M@DMJDKLKM@?$AAa?$AAr?$AA?9?$AAs?$AAy@ 10024600     libucrt:lcidtoname_downlevel.obj
 0002:0000560c       ??_C@_1M@OMFIPEDC@?$AAa?$AAr?$AA?9?$AAt?$AAn@ 1002460c     libucrt:lcidtoname_downlevel.obj
 0002:00005618       ??_C@_1M@IHMHGAON@?$AAa?$AAr?$AA?9?$AAy?$AAe@ 10024618     libucrt:lcidtoname_downlevel.obj
 0002:00005624       ??_C@_1BG@KDCPGJGB@?$AAa?$AAz?$AA?9?$AAa?$AAz?$AA?9?$AAc?$AAy?$AAr?$AAl@ 10024624     libucrt:lcidtoname_downlevel.obj
 0002:0000563c       ??_C@_1BG@IBCKDDOE@?$AAa?$AAz?$AA?9?$AAa?$AAz?$AA?9?$AAl?$AAa?$AAt?$AAn@ 1002463c     libucrt:lcidtoname_downlevel.obj
 0002:00005654       ??_C@_1M@EGPFDCPD@?$AAb?$AAe?$AA?9?$AAb?$AAy@ 10024654     libucrt:lcidtoname_downlevel.obj
 0002:00005660       ??_C@_1M@PCMGMCGC@?$AAb?$AAg?$AA?9?$AAb?$AAg@ 10024660     libucrt:lcidtoname_downlevel.obj
 0002:0000566c       ??_C@_1M@BJBMFGOB@?$AAb?$AAn?$AA?9?$AAi?$AAn@ 1002466c     libucrt:lcidtoname_downlevel.obj
 0002:00005678       ??_C@_1BG@EAKMMACD@?$AAb?$AAs?$AA?9?$AAb?$AAa?$AA?9?$AAl?$AAa?$AAt?$AAn@ 10024678     libucrt:lcidtoname_downlevel.obj
 0002:00005690       ??_C@_1M@KGADAODK@?$AAc?$AAa?$AA?9?$AAe?$AAs@ 10024690     libucrt:lcidtoname_downlevel.obj
 0002:0000569c       ??_C@_1M@COAJPDHI@?$AAc?$AAs?$AA?9?$AAc?$AAz@ 1002469c     libucrt:lcidtoname_downlevel.obj
 0002:000056a8       ??_C@_1M@DHBHFONH@?$AAc?$AAy?$AA?9?$AAg?$AAb@ 100246a8     libucrt:lcidtoname_downlevel.obj
 0002:000056b4       ??_C@_1M@IMGKELGA@?$AAd?$AAa?$AA?9?$AAd?$AAk@ 100246b4     libucrt:lcidtoname_downlevel.obj
 0002:000056c0       ??_C@_1M@NNDGDNGA@?$AAd?$AAe?$AA?9?$AAa?$AAt@ 100246c0     libucrt:lcidtoname_downlevel.obj
 0002:000056cc       ??_C@_1M@IKDBHEEM@?$AAd?$AAe?$AA?9?$AAc?$AAh@ 100246cc     libucrt:lcidtoname_downlevel.obj
 0002:000056d8       ??_C@_1M@GFFOJMCJ@?$AAd?$AAe?$AA?9?$AAd?$AAe@ 100246d8     libucrt:lcidtoname_downlevel.obj
 0002:000056e4       ??_C@_1M@MDNLKBPM@?$AAd?$AAe?$AA?9?$AAl?$AAi@ 100246e4     libucrt:lcidtoname_downlevel.obj
 0002:000056f0       ??_C@_1M@NJBEEJNL@?$AAd?$AAe?$AA?9?$AAl?$AAu@ 100246f0     libucrt:lcidtoname_downlevel.obj
 0002:000056fc       ??_C@_1O@GNNELBAP@?$AAd?$AAi?$AAv?$AA?9?$AAm?$AAv@ 100246fc     libucrt:lcidtoname_downlevel.obj
 0002:0000570c       ??_C@_1M@EJLEOGAE@?$AAe?$AAl?$AA?9?$AAg?$AAr@ 1002470c     libucrt:lcidtoname_downlevel.obj
 0002:00005718       ??_C@_1M@GMPONJN@?$AAe?$AAn?$AA?9?$AAa?$AAu@ 10024718     libucrt:lcidtoname_downlevel.obj
 0002:00005724       ??_C@_1M@NIDIIPGF@?$AAe?$AAn?$AA?9?$AAb?$AAz@ 10024724     libucrt:lcidtoname_downlevel.obj
 0002:00005730       ??_C@_1M@JEHMIMFO@?$AAe?$AAn?$AA?9?$AAc?$AAa@ 10024730     libucrt:lcidtoname_downlevel.obj
 0002:0000573c       ??_C@_1M@IGMJCDLA@?$AAe?$AAn?$AA?9?$AAc?$AAb@ 1002473c     libucrt:lcidtoname_downlevel.obj
 0002:00005748       ??_C@_1M@BNFIGBKG@?$AAe?$AAn?$AA?9?$AAg?$AAb@ 10024748     libucrt:lcidtoname_downlevel.obj
 0002:00005754       ??_C@_1M@LKIFDIGP@?$AAe?$AAn?$AA?9?$AAi?$AAe@ 10024754     libucrt:lcidtoname_downlevel.obj
 0002:00005760       ??_C@_1M@PJKFGCCO@?$AAe?$AAn?$AA?9?$AAj?$AAm@ 10024760     libucrt:lcidtoname_downlevel.obj
 0002:0000576c       ??_C@_1M@KPPKEPBO@?$AAe?$AAn?$AA?9?$AAn?$AAz@ 1002476c     libucrt:lcidtoname_downlevel.obj
 0002:00005778       ??_C@_1M@GMDGLDOB@?$AAe?$AAn?$AA?9?$AAp?$AAh@ 10024778     libucrt:lcidtoname_downlevel.obj
 0002:00005784       ??_C@_1M@ONGIBJNA@?$AAe?$AAn?$AA?9?$AAt?$AAt@ 10024784     libucrt:lcidtoname_downlevel.obj
 0002:00005790       ??_C@_1M@LLODPCMM@?$AAe?$AAn?$AA?9?$AAu?$AAs@ 10024790     libucrt:lcidtoname_downlevel.obj
 0002:0000579c       ??_C@_1M@LAKFNPAN@?$AAe?$AAn?$AA?9?$AAz?$AAa@ 1002479c     libucrt:lcidtoname_downlevel.obj
 0002:000057a8       ??_C@_1M@MFNHNHEO@?$AAe?$AAn?$AA?9?$AAz?$AAw@ 100247a8     libucrt:lcidtoname_downlevel.obj
 0002:000057b4       ??_C@_1M@EJEINPHM@?$AAe?$AAs?$AA?9?$AAa?$AAr@ 100247b4     libucrt:lcidtoname_downlevel.obj
 0002:000057c0       ??_C@_1M@GNKPCCJA@?$AAe?$AAs?$AA?9?$AAb?$AAo@ 100247c0     libucrt:lcidtoname_downlevel.obj
 0002:000057cc       ??_C@_1M@LEEGFONL@?$AAe?$AAs?$AA?9?$AAc?$AAl@ 100247cc     libucrt:lcidtoname_downlevel.obj
 0002:000057d8       ??_C@_1M@KGPDPBDF@?$AAe?$AAs?$AA?9?$AAc?$AAo@ 100247d8     libucrt:lcidtoname_downlevel.obj
 0002:000057e4       ??_C@_1M@EIAHOHH@?$AAe?$AAs?$AA?9?$AAc?$AAr@ 100247e4     libucrt:lcidtoname_downlevel.obj
 0002:000057f0       ??_C@_1M@LLPGMBIN@?$AAe?$AAs?$AA?9?$AAd?$AAo@ 100247f0     libucrt:lcidtoname_downlevel.obj
 0002:000057fc       ??_C@_1M@DKHMKNJA@?$AAe?$AAs?$AA?9?$AAe?$AAc@ 100247fc     libucrt:lcidtoname_downlevel.obj
 0002:00005808       ??_C@_1M@GKGFPKAP@?$AAe?$AAs?$AA?9?$AAe?$AAs@ 10024808     libucrt:lcidtoname_downlevel.obj
 0002:00005814       ??_C@_1M@LKHKGDLN@?$AAe?$AAs?$AA?9?$AAg?$AAt@ 10024814     libucrt:lcidtoname_downlevel.obj
 0002:00005820       ??_C@_1M@HEIIGGJD@?$AAe?$AAs?$AA?9?$AAh?$AAn@ 10024820     libucrt:lcidtoname_downlevel.obj
 0002:0000582c       ??_C@_1M@FBDHPPGD@?$AAe?$AAs?$AA?9?$AAm?$AAx@ 1002482c     libucrt:lcidtoname_downlevel.obj
 0002:00005838       ??_C@_1M@DPAGLNDH@?$AAe?$AAs?$AA?9?$AAn?$AAi@ 10024838     libucrt:lcidtoname_downlevel.obj
 0002:00005844       ??_C@_1M@MDGOPGDD@?$AAe?$AAs?$AA?9?$AAp?$AAa@ 10024844     libucrt:lcidtoname_downlevel.obj
 0002:00005850       ??_C@_1M@EMAMGBGE@?$AAe?$AAs?$AA?9?$AAp?$AAe@ 10024850     libucrt:lcidtoname_downlevel.obj
 0002:0000585c       ??_C@_1M@IBMCAOEC@?$AAe?$AAs?$AA?9?$AAp?$AAr@ 1002485c     libucrt:lcidtoname_downlevel.obj
 0002:00005868       ??_C@_1M@FGMDIJED@?$AAe?$AAs?$AA?9?$AAp?$AAy@ 10024868     libucrt:lcidtoname_downlevel.obj
 0002:00005874       ??_C@_1M@IIDEOLLL@?$AAe?$AAs?$AA?9?$AAs?$AAv@ 10024874     libucrt:lcidtoname_downlevel.obj
 0002:00005880       ??_C@_1M@GAOBIPA@?$AAe?$AAs?$AA?9?$AAu?$AAy@ 10024880     libucrt:lcidtoname_downlevel.obj
 0002:0000588c       ??_C@_1M@JKFFICHJ@?$AAe?$AAs?$AA?9?$AAv?$AAe@ 1002488c     libucrt:lcidtoname_downlevel.obj
 0002:00005898       ??_C@_1M@PNMLOJDF@?$AAe?$AAt?$AA?9?$AAe?$AAe@ 10024898     libucrt:lcidtoname_downlevel.obj
 0002:000058a4       ??_C@_1M@GHHLIKEI@?$AAe?$AAu?$AA?9?$AAe?$AAs@ 100248a4     libucrt:lcidtoname_downlevel.obj
 0002:000058b0       ??_C@_1M@PBNONODE@?$AAf?$AAa?$AA?9?$AAi?$AAr@ 100248b0     libucrt:lcidtoname_downlevel.obj
 0002:000058bc       ??_C@_1M@JEEHPMIL@?$AAf?$AAi?$AA?9?$AAf?$AAi@ 100248bc     libucrt:lcidtoname_downlevel.obj
 0002:000058c8       ??_C@_1M@LMDCNDBA@?$AAf?$AAo?$AA?9?$AAf?$AAo@ 100248c8     libucrt:lcidtoname_downlevel.obj
 0002:000058d4       ??_C@_1M@JKEOHLDK@?$AAf?$AAr?$AA?9?$AAb?$AAe@ 100248d4     libucrt:lcidtoname_downlevel.obj
 0002:000058e0       ??_C@_1M@NOHADPMI@?$AAf?$AAr?$AA?9?$AAc?$AAa@ 100248e0     libucrt:lcidtoname_downlevel.obj
 0002:000058ec       ??_C@_1M@KDHIHAEC@?$AAf?$AAr?$AA?9?$AAc?$AAh@ 100248ec     libucrt:lcidtoname_downlevel.obj
 0002:000058f8       ??_C@_1M@MMBBFGAK@?$AAf?$AAr?$AA?9?$AAf?$AAr@ 100248f8     libucrt:lcidtoname_downlevel.obj
 0002:00005904       ??_C@_1M@PAFNENNF@?$AAf?$AAr?$AA?9?$AAl?$AAu@ 10024904     libucrt:lcidtoname_downlevel.obj
 0002:00005910       ??_C@_1M@EOHDJGDD@?$AAf?$AAr?$AA?9?$AAm?$AAc@ 10024910     libucrt:lcidtoname_downlevel.obj
 0002:0000591c       ??_C@_1M@FAPLLOPF@?$AAg?$AAl?$AA?9?$AAe?$AAs@ 1002491c     libucrt:lcidtoname_downlevel.obj
 0002:00005928       ??_C@_1M@FOPBFLOO@?$AAg?$AAu?$AA?9?$AAi?$AAn@ 10024928     libucrt:lcidtoname_downlevel.obj
 0002:00005934       ??_C@_1M@KBMCINPM@?$AAh?$AAe?$AA?9?$AAi?$AAl@ 10024934     libucrt:lcidtoname_downlevel.obj
 0002:00005940       ??_C@_1M@BBPHKFPJ@?$AAh?$AAi?$AA?9?$AAi?$AAn@ 10024940     libucrt:lcidtoname_downlevel.obj
 0002:0000594c       ??_C@_1M@PMBNDPHD@?$AAh?$AAr?$AA?9?$AAb?$AAa@ 1002494c     libucrt:lcidtoname_downlevel.obj
 0002:00005958       ??_C@_1M@BPCKOEGE@?$AAh?$AAr?$AA?9?$AAh?$AAr@ 10024958     libucrt:lcidtoname_downlevel.obj
 0002:00005964       ??_C@_1M@GACBMHKE@?$AAh?$AAu?$AA?9?$AAh?$AAu@ 10024964     libucrt:lcidtoname_downlevel.obj
 0002:00005970       ??_C@_1M@MILPAJJC@?$AAh?$AAy?$AA?9?$AAa?$AAm@ 10024970     libucrt:lcidtoname_downlevel.obj
 0002:0000597c       ??_C@_1M@BABBICEC@?$AAi?$AAd?$AA?9?$AAi?$AAd@ 1002497c     libucrt:lcidtoname_downlevel.obj
 0002:00005988       ??_C@_1M@BIKNHHPF@?$AAi?$AAs?$AA?9?$AAi?$AAs@ 10024988     libucrt:lcidtoname_downlevel.obj
 0002:00005994       ??_C@_1M@NMPCJPHE@?$AAi?$AAt?$AA?9?$AAc?$AAh@ 10024994     libucrt:lcidtoname_downlevel.obj
 0002:000059a0       ??_C@_1M@GHKGFEDF@?$AAi?$AAt?$AA?9?$AAi?$AAt@ 100249a0     libucrt:lcidtoname_downlevel.obj
 0002:000059ac       ??_C@_1M@NIEJCJJA@?$AAj?$AAa?$AA?9?$AAj?$AAp@ 100249ac     libucrt:lcidtoname_downlevel.obj
 0002:000059b8       ??_C@_1M@JILFNBIM@?$AAk?$AAa?$AA?9?$AAg?$AAe@ 100249b8     libucrt:lcidtoname_downlevel.obj
 0002:000059c4       ??_C@_1M@PACPMGPH@?$AAk?$AAk?$AA?9?$AAk?$AAz@ 100249c4     libucrt:lcidtoname_downlevel.obj
 0002:000059d0       ??_C@_1M@IELFGMHA@?$AAk?$AAn?$AA?9?$AAi?$AAn@ 100249d0     libucrt:lcidtoname_downlevel.obj
 0002:000059dc       ??_C@_1O@IBBJHCH@?$AAk?$AAo?$AAk?$AA?9?$AAi?$AAn@ 100249dc     libucrt:lcidtoname_downlevel.obj
 0002:000059ec       ??_C@_1M@DMHAEOGC@?$AAk?$AAo?$AA?9?$AAk?$AAr@ 100249ec     libucrt:lcidtoname_downlevel.obj
 0002:000059f8       ??_C@_1M@HBAHBIGA@?$AAk?$AAy?$AA?9?$AAk?$AAg@ 100249f8     libucrt:lcidtoname_downlevel.obj
 0002:00005a04       ??_C@_1M@KPMILCJG@?$AAl?$AAt?$AA?9?$AAl?$AAt@ 10024a04     libucrt:lcidtoname_downlevel.obj
 0002:00005a10       ??_C@_1M@BDEKKCA@?$AAl?$AAv?$AA?9?$AAl?$AAv@ 10024a10     libucrt:lcidtoname_downlevel.obj
 0002:00005a1c       ??_C@_1M@ELCKCCJJ@?$AAm?$AAi?$AA?9?$AAn?$AAz@ 10024a1c     libucrt:lcidtoname_downlevel.obj
 0002:00005a28       ??_C@_1M@CBOOLAPA@?$AAm?$AAk?$AA?9?$AAm?$AAk@ 10024a28     libucrt:lcidtoname_downlevel.obj
 0002:00005a34       ??_C@_1M@GPHNBJKN@?$AAm?$AAl?$AA?9?$AAi?$AAn@ 10024a34     libucrt:lcidtoname_downlevel.obj
 0002:00005a40       ??_C@_1M@PABJILIG@?$AAm?$AAn?$AA?9?$AAm?$AAn@ 10024a40     libucrt:lcidtoname_downlevel.obj
 0002:00005a4c       ??_C@_1M@FGBKKIPG@?$AAm?$AAr?$AA?9?$AAi?$AAn@ 10024a4c     libucrt:lcidtoname_downlevel.obj
 0002:00005a58       ??_C@_1M@NDBPDDAL@?$AAm?$AAs?$AA?9?$AAb?$AAn@ 10024a58     libucrt:lcidtoname_downlevel.obj
 0002:00005a64       ??_C@_1M@OPIHOOPI@?$AAm?$AAs?$AA?9?$AAm?$AAy@ 10024a64     libucrt:lcidtoname_downlevel.obj
 0002:00005a70       ??_C@_1M@PPDBCNFM@?$AAm?$AAt?$AA?9?$AAm?$AAt@ 10024a70     libucrt:lcidtoname_downlevel.obj
 0002:00005a7c       ??_C@_1M@KDJDKMDD@?$AAn?$AAb?$AA?9?$AAn?$AAo@ 10024a7c     libucrt:lcidtoname_downlevel.obj
 0002:00005a88       ??_C@_1M@KFCFLMJP@?$AAn?$AAl?$AA?9?$AAb?$AAe@ 10024a88     libucrt:lcidtoname_downlevel.obj
 0002:00005a94       ??_C@_1M@KPOPDDGO@?$AAn?$AAl?$AA?9?$AAn?$AAl@ 10024a94     libucrt:lcidtoname_downlevel.obj
 0002:00005aa0       ??_C@_1M@LJKPEMLN@?$AAn?$AAn?$AA?9?$AAn?$AAo@ 10024aa0     libucrt:lcidtoname_downlevel.obj
 0002:00005aac       ??_C@_1M@BDGHHBFL@?$AAn?$AAs?$AA?9?$AAz?$AAa@ 10024aac     libucrt:lcidtoname_downlevel.obj
 0002:00005ab8       ??_C@_1M@IDEHOAP@?$AAp?$AAa?$AA?9?$AAi?$AAn@ 10024ab8     libucrt:lcidtoname_downlevel.obj
 0002:00005ac4       ??_C@_1M@HDBKGOGH@?$AAp?$AAl?$AA?9?$AAp?$AAl@ 10024ac4     libucrt:lcidtoname_downlevel.obj
 0002:00005ad0       ??_C@_1M@LJLLCMEH@?$AAp?$AAt?$AA?9?$AAb?$AAr@ 10024ad0     libucrt:lcidtoname_downlevel.obj
 0002:00005adc       ??_C@_1M@NCMONAAL@?$AAp?$AAt?$AA?9?$AAp?$AAt@ 10024adc     libucrt:lcidtoname_downlevel.obj
 0002:00005ae8       ??_C@_1O@EAKMAJDN@?$AAq?$AAu?$AAz?$AA?9?$AAb?$AAo@ 10024ae8     libucrt:lcidtoname_downlevel.obj
 0002:00005af8       ??_C@_1O@BHHPIGDN@?$AAq?$AAu?$AAz?$AA?9?$AAe?$AAc@ 10024af8     libucrt:lcidtoname_downlevel.obj
 0002:00005b08       ??_C@_1O@GBAPEKMJ@?$AAq?$AAu?$AAz?$AA?9?$AAp?$AAe@ 10024b08     libucrt:lcidtoname_downlevel.obj
 0002:00005b18       ??_C@_1M@CLGLEFBO@?$AAr?$AAo?$AA?9?$AAr?$AAo@ 10024b18     libucrt:lcidtoname_downlevel.obj
 0002:00005b24       ??_C@_1M@CEEDODME@?$AAr?$AAu?$AA?9?$AAr?$AAu@ 10024b24     libucrt:lcidtoname_downlevel.obj
 0002:00005b30       ??_C@_1M@HPKKKMPP@?$AAs?$AAa?$AA?9?$AAi?$AAn@ 10024b30     libucrt:lcidtoname_downlevel.obj
 0002:00005b3c       ??_C@_1M@BKMAIGOJ@?$AAs?$AAe?$AA?9?$AAf?$AAi@ 10024b3c     libucrt:lcidtoname_downlevel.obj
 0002:00005b48       ??_C@_1M@NDPIFLFI@?$AAs?$AAe?$AA?9?$AAn?$AAo@ 10024b48     libucrt:lcidtoname_downlevel.obj
 0002:00005b54       ??_C@_1M@DANKKHJ@?$AAs?$AAe?$AA?9?$AAs?$AAe@ 10024b54     libucrt:lcidtoname_downlevel.obj
 0002:00005b60       ??_C@_1M@PNBLONPJ@?$AAs?$AAk?$AA?9?$AAs?$AAk@ 10024b60     libucrt:lcidtoname_downlevel.obj
 0002:00005b6c       ??_C@_1M@LFMODOAL@?$AAs?$AAl?$AA?9?$AAs?$AAi@ 10024b6c     libucrt:lcidtoname_downlevel.obj
 0002:00005b78       ??_C@_1O@DFKOMPG@?$AAs?$AAm?$AAa?$AA?9?$AAn?$AAo@ 10024b78     libucrt:lcidtoname_downlevel.obj
 0002:00005b88       ??_C@_1O@NDKPBNNH@?$AAs?$AAm?$AAa?$AA?9?$AAs?$AAe@ 10024b88     libucrt:lcidtoname_downlevel.obj
 0002:00005b98       ??_C@_1O@PLLKBHAB@?$AAs?$AAm?$AAj?$AA?9?$AAn?$AAo@ 10024b98     libucrt:lcidtoname_downlevel.obj
 0002:00005ba8       ??_C@_1O@CLEPOGCA@?$AAs?$AAm?$AAj?$AA?9?$AAs?$AAe@ 10024ba8     libucrt:lcidtoname_downlevel.obj
 0002:00005bb8       ??_C@_1O@DLGJGKMK@?$AAs?$AAm?$AAn?$AA?9?$AAf?$AAi@ 10024bb8     libucrt:lcidtoname_downlevel.obj
 0002:00005bc8       ??_C@_1O@OJDJGAJC@?$AAs?$AAm?$AAs?$AA?9?$AAf?$AAi@ 10024bc8     libucrt:lcidtoname_downlevel.obj
 0002:00005bd8       ??_C@_1M@BOFOGHPB@?$AAs?$AAq?$AA?9?$AAa?$AAl@ 10024bd8     libucrt:lcidtoname_downlevel.obj
 0002:00005be4       ??_C@_1BG@LJBBIPGB@?$AAs?$AAr?$AA?9?$AAb?$AAa?$AA?9?$AAc?$AAy?$AAr?$AAl@ 10024be4     libucrt:lcidtoname_downlevel.obj
 0002:00005bfc       ??_C@_1BG@JLBENFOE@?$AAs?$AAr?$AA?9?$AAb?$AAa?$AA?9?$AAl?$AAa?$AAt?$AAn@ 10024bfc     libucrt:lcidtoname_downlevel.obj
 0002:00005c14       ??_C@_1BG@KODPNHE@?$AAs?$AAr?$AA?9?$AAs?$AAp?$AA?9?$AAc?$AAy?$AAr?$AAl@ 10024c14     libucrt:lcidtoname_downlevel.obj
 0002:00005c2c       ??_C@_1BG@CIOGKHPB@?$AAs?$AAr?$AA?9?$AAs?$AAp?$AA?9?$AAl?$AAa?$AAt?$AAn@ 10024c2c     libucrt:lcidtoname_downlevel.obj
 0002:00005c44       ??_C@_1M@NGFJLMAC@?$AAs?$AAv?$AA?9?$AAf?$AAi@ 10024c44     libucrt:lcidtoname_downlevel.obj
 0002:00005c50       ??_C@_1M@MPJEJAJC@?$AAs?$AAv?$AA?9?$AAs?$AAe@ 10024c50     libucrt:lcidtoname_downlevel.obj
 0002:00005c5c       ??_C@_1M@MPNDHLFK@?$AAs?$AAw?$AA?9?$AAk?$AAe@ 10024c5c     libucrt:lcidtoname_downlevel.obj
 0002:00005c68       ??_C@_1O@KOHBJJI@?$AAs?$AAy?$AAr?$AA?9?$AAs?$AAy@ 10024c68     libucrt:lcidtoname_downlevel.obj
 0002:00005c78       ??_C@_1M@LDCEFHA@?$AAt?$AAa?$AA?9?$AAi?$AAn@ 10024c78     libucrt:lcidtoname_downlevel.obj
 0002:00005c84       ??_C@_1M@CNJOFAK@?$AAt?$AAe?$AA?9?$AAi?$AAn@ 10024c84     libucrt:lcidtoname_downlevel.obj
 0002:00005c90       ??_C@_1M@GNAECACD@?$AAt?$AAh?$AA?9?$AAt?$AAh@ 10024c90     libucrt:lcidtoname_downlevel.obj
 0002:00005c9c       ??_C@_1M@CHBIHOJO@?$AAt?$AAn?$AA?9?$AAz?$AAa@ 10024c9c     libucrt:lcidtoname_downlevel.obj
 0002:00005ca8       ??_C@_1M@GCCMIGPJ@?$AAt?$AAr?$AA?9?$AAt?$AAr@ 10024ca8     libucrt:lcidtoname_downlevel.obj
 0002:00005cb4       ??_C@_1M@CELMCNBK@?$AAt?$AAt?$AA?9?$AAr?$AAu@ 10024cb4     libucrt:lcidtoname_downlevel.obj
 0002:00005cc0       ??_C@_1M@KLMCELGA@?$AAu?$AAk?$AA?9?$AAu?$AAa@ 10024cc0     libucrt:lcidtoname_downlevel.obj
 0002:00005ccc       ??_C@_1M@EPAJJAJF@?$AAu?$AAr?$AA?9?$AAp?$AAk@ 10024ccc     libucrt:lcidtoname_downlevel.obj
 0002:00005cd8       ??_C@_1BG@GEGPMCDJ@?$AAu?$AAz?$AA?9?$AAu?$AAz?$AA?9?$AAc?$AAy?$AAr?$AAl@ 10024cd8     libucrt:lcidtoname_downlevel.obj
 0002:00005cf0       ??_C@_1BG@EGGKJILM@?$AAu?$AAz?$AA?9?$AAu?$AAz?$AA?9?$AAl?$AAa?$AAt?$AAn@ 10024cf0     libucrt:lcidtoname_downlevel.obj
 0002:00005d08       ??_C@_1M@GFOCLFF@?$AAv?$AAi?$AA?9?$AAv?$AAn@ 10024d08     libucrt:lcidtoname_downlevel.obj
 0002:00005d14       ??_C@_1M@CPAMEDFI@?$AAx?$AAh?$AA?9?$AAz?$AAa@ 10024d14     libucrt:lcidtoname_downlevel.obj
 0002:00005d20       ??_C@_1O@EBKIFIGN@?$AAz?$AAh?$AA?9?$AAc?$AAh?$AAs@ 10024d20     libucrt:lcidtoname_downlevel.obj
 0002:00005d30       ??_C@_1O@NMHPGANE@?$AAz?$AAh?$AA?9?$AAc?$AAh?$AAt@ 10024d30     libucrt:lcidtoname_downlevel.obj
 0002:00005d40       ??_C@_1M@LPINJOMC@?$AAz?$AAh?$AA?9?$AAc?$AAn@ 10024d40     libucrt:lcidtoname_downlevel.obj
 0002:00005d4c       ??_C@_1M@OCJEJODD@?$AAz?$AAh?$AA?9?$AAh?$AAk@ 10024d4c     libucrt:lcidtoname_downlevel.obj
 0002:00005d58       ??_C@_1M@DNDLJINH@?$AAz?$AAh?$AA?9?$AAm?$AAo@ 10024d58     libucrt:lcidtoname_downlevel.obj
 0002:00005d64       ??_C@_1M@MBFDNDND@?$AAz?$AAh?$AA?9?$AAs?$AAg@ 10024d64     libucrt:lcidtoname_downlevel.obj
 0002:00005d70       ??_C@_1M@IMEPLEPE@?$AAz?$AAh?$AA?9?$AAt?$AAw@ 10024d70     libucrt:lcidtoname_downlevel.obj
 0002:00005d7c       ??_C@_1M@BBGHNHJP@?$AAz?$AAu?$AA?9?$AAz?$AAa@ 10024d7c     libucrt:lcidtoname_downlevel.obj
 0002:00005d88       ?large_power_data@?1??multiply_by_power_of_ten@__crt_strtox@@YA_NAAUbig_integer@2@I@Z@4QBIB 10024d88     libucrt:cfout.obj
 0002:00006690       ?large_power_indices@?1??multiply_by_power_of_ten@__crt_strtox@@YA_NAAUbig_integer@2@I@Z@4QBUunpack_index@?1??12@YA_N0I@Z@B 10025690     libucrt:cfout.obj
 0002:00006728       ?small_powers_of_ten@?1??multiply_by_power_of_ten@__crt_strtox@@YA_NAAUbig_integer@2@I@Z@4QBIB 10025728     libucrt:cfout.obj
 0002:0000674c       ??_C@_01GBGANLPD@0@        1002574c     libucrt:cfout.obj
 0002:00006750       ??_C@_05DNEBIAHO@1?$CDINF@ 10025750     libucrt:cfout.obj
 0002:00006758       ??_C@_06IMKFLFPG@1?$CDQNAN@ 10025758     libucrt:cfout.obj
 0002:00006760       ??_C@_06PGGFOGJG@1?$CDSNAN@ 10025760     libucrt:cfout.obj
 0002:00006768       ??_C@_05PHHOCPM@1?$CDIND@  10025768     libucrt:cfout.obj
 0002:000068d0       __infinity                 100258d0     libucrt:87tran.obj
 0002:000068da       __minfinity                100258da     libucrt:87tran.obj
 0002:000068e4       __logemax                  100258e4     libucrt:87tran.obj
 0002:0000690a       __OP_EXPjmptab             1002590a     libucrt:87tran.obj
 0002:00006930       __indefinite               10025930     libucrt:87disp.obj
 0002:0000693a       __piby2                    1002593a     libucrt:87disp.obj
 0002:00006944       __piby4                    10025944     libucrt:87disp.obj
 0002:00006978       __DEFAULT_CW_in_mem        10025978     libucrt:common.obj
 0002:0000697a       __pi_by_2_to_61            1002597a     libucrt:common.obj
 0002:000069b4       ??_C@_03MGHMBJCF@log@      100259b4     libucrt:libm_error.obj
 0002:000069b8       ??_C@_05HGHHAHAP@log10@    100259b8     libucrt:libm_error.obj
 0002:000069c0       ??_C@_03KHJOGHMM@exp@      100259c0     libucrt:libm_error.obj
 0002:000069c4       ??_C@_03JGHBODFD@pow@      100259c4     libucrt:libm_error.obj
 0002:000069c8       ??_C@_04FIHNOPOL@asin@     100259c8     libucrt:libm_error.obj
 0002:000069d0       ??_C@_04PDIFKINK@acos@     100259d0     libucrt:libm_error.obj
 0002:000069d8       ??_C@_04EIAKFFMI@sqrt@     100259d8     libucrt:libm_error.obj
 0002:000069e0       __real@3ff0000000000000    100259e0     libucrt:libm_error.obj
 0002:000069e8       ??_C@_1BA@BALFACEM@?$AAC?$AAO?$AAN?$AAO?$AAU?$AAT?$AA$@ 100259e8     libucrt:initcon.obj
 0002:00006a10       ___acrt_log10_table_t      10025a10     libucrt:log10_tables.obj
 0002:00006e20       ___acrt_log10_table_cb     10025e20     libucrt:log10_tables.obj
 0002:00007230       __real@3fe0000000000000    10026230     libucrt:powhlp.obj
 0002:00007320       ??_C@_04COOMCNPB@sinh@     10026320     libucrt:fpexcept.obj
 0002:00007328       ??_C@_04HPJJNFIM@cosh@     10026328     libucrt:fpexcept.obj
 0002:00007330       ??_C@_04FJHINJAO@tanh@     10026330     libucrt:fpexcept.obj
 0002:00007338       ??_C@_04MLLJIGOK@atan@     10026338     libucrt:fpexcept.obj
 0002:00007340       ??_C@_05KNGEOGJB@atan2@    10026340     libucrt:fpexcept.obj
 0002:00007348       ??_C@_03BLEJJJBH@sin@      10026348     libucrt:fpexcept.obj
 0002:0000734c       ??_C@_03LALBNOCG@cos@      1002634c     libucrt:fpexcept.obj
 0002:00007350       ??_C@_03IIINPABG@tan@      10026350     libucrt:fpexcept.obj
 0002:00007354       ??_C@_04GFPJNGEK@ceil@     10026354     libucrt:fpexcept.obj
 0002:0000735c       ??_C@_05PBJFFIGL@floor@    1002635c     libucrt:fpexcept.obj
 0002:00007364       ??_C@_04ODHECPBC@fabs@     10026364     libucrt:fpexcept.obj
 0002:0000736c       ??_C@_04EHEDPDJG@modf@     1002636c     libucrt:fpexcept.obj
 0002:00007374       ??_C@_05CEJMAHNP@ldexp@    10026374     libucrt:fpexcept.obj
 0002:0000737c       ??_C@_05KBKMEMPO@_cabs@    1002637c     libucrt:fpexcept.obj
 0002:00007384       ??_C@_06MEIMCGCF@_hypot@   10026384     libucrt:fpexcept.obj
 0002:0000738c       ??_C@_04KEPJIHGP@fmod@     1002638c     libucrt:fpexcept.obj
 0002:00007394       ??_C@_05GKKHEGJL@frexp@    10026394     libucrt:fpexcept.obj
 0002:0000739c       ??_C@_03MJLDFKDL@_y0@      1002639c     libucrt:fpexcept.obj
 0002:000073a0       ??_C@_03NAKIGLHK@_y1@      100263a0     libucrt:fpexcept.obj
 0002:000073a4       ??_C@_03ONILCKOB@_yn@      100263a4     libucrt:fpexcept.obj
 0002:000073a8       ??_C@_05JGDBENOH@_logb@    100263a8     libucrt:fpexcept.obj
 0002:000073b0       ??_C@_0L@KDOEJCKC@_nextafter@ 100263b0     libucrt:fpexcept.obj
 0002:000073c0       __d_inf                    100263c0     libucrt:util.obj
 0002:000073c8       __d_max                    100263c8     libucrt:util.obj
 0002:000073d0       __d_mzero                  100263d0     libucrt:util.obj
 0002:00007440       __load_config_used         10026440     LIBCMT:loadcfg.obj
 0002:00007500       __tls_used                 10026500     LIBCMT:tlssup.obj
 0002:00007518       ??_R4exception@std@@6B@    10026518     LIBCMT:throw_bad_alloc.obj
 0002:0000752c       ??_R3exception@std@@8      1002652c     LIBCMT:throw_bad_alloc.obj
 0002:0000753c       ??_R2exception@std@@8      1002653c     LIBCMT:throw_bad_alloc.obj
 0002:00007544       ??_R1A@?0A@EA@exception@std@@8 10026544     LIBCMT:throw_bad_alloc.obj
 0002:00007560       ??_R4bad_alloc@std@@6B@    10026560     LIBCMT:throw_bad_alloc.obj
 0002:00007574       ??_R3bad_alloc@std@@8      10026574     LIBCMT:throw_bad_alloc.obj
 0002:00007584       ??_R2bad_alloc@std@@8      10026584     LIBCMT:throw_bad_alloc.obj
 0002:00007590       ??_R1A@?0A@EA@bad_alloc@std@@8 10026590     LIBCMT:throw_bad_alloc.obj
 0002:000075ac       ??_R4bad_array_new_length@std@@6B@ 100265ac     LIBCMT:throw_bad_alloc.obj
 0002:000075c0       ??_R3bad_array_new_length@std@@8 100265c0     LIBCMT:throw_bad_alloc.obj
 0002:000075d0       ??_R2bad_array_new_length@std@@8 100265d0     LIBCMT:throw_bad_alloc.obj
 0002:000075e0       ??_R1A@?0A@EA@bad_array_new_length@std@@8 100265e0     LIBCMT:throw_bad_alloc.obj
 0002:000075fc       ??_R4type_info@@6B@        100265fc     LIBCMT:std_type_info_static.obj
 0002:00007610       ??_R3type_info@@8          10026610     LIBCMT:std_type_info_static.obj
 0002:00007620       ??_R2type_info@@8          10026620     LIBCMT:std_type_info_static.obj
 0002:00007628       ??_R1A@?0A@EA@type_info@@8 10026628     LIBCMT:std_type_info_static.obj
 0002:00007644       ??_R4bad_exception@std@@6B@ 10026644     libvcruntime:frame.obj
 0002:00007658       ??_R3bad_exception@std@@8  10026658     libvcruntime:frame.obj
 0002:00007668       ??_R2bad_exception@std@@8  10026668     libvcruntime:frame.obj
 0002:00007674       ??_R1A@?0A@EA@bad_exception@std@@8 10026674     libvcruntime:frame.obj
 0002:00007690       ___safe_se_handler_table   10026690     <linker-defined>
 0002:00007a88       ___rtc_iaa                 10026a88     LIBCMT:initsect.obj
 0002:00007a8c       ___rtc_izz                 10026a8c     LIBCMT:initsect.obj
 0002:00007a90       ___rtc_taa                 10026a90     LIBCMT:initsect.obj
 0002:00007a94       ___rtc_tzz                 10026a94     LIBCMT:initsect.obj
 0002:00007a98       __tls_start                10026a98     LIBCMT:tlssup.obj
 0002:00007a9c       __Init_thread_epoch        10026a9c     LIBCMT:thread_safe_statics.obj
 0002:00007aa0       __tls_end                  10026aa0     LIBCMT:tlssup.obj
 0002:00007ba4       __TI2?AVbad_alloc@std@@    10026ba4     LIBCMT:throw_bad_alloc.obj
 0002:00007bb4       __CTA2?AVbad_alloc@std@@   10026bb4     LIBCMT:throw_bad_alloc.obj
 0002:00007bc0       __CT??_R0?AVbad_alloc@std@@@8??0bad_alloc@std@@QAE@ABV01@@Z12 10026bc0     LIBCMT:throw_bad_alloc.obj
 0002:00007bdc       __CT??_R0?AVexception@std@@@8??0exception@std@@QAE@ABV01@@Z12 10026bdc     LIBCMT:throw_bad_alloc.obj
 0002:00007bf8       __TI3?AVbad_array_new_length@std@@ 10026bf8     LIBCMT:throw_bad_alloc.obj
 0002:00007c08       __CTA3?AVbad_array_new_length@std@@ 10026c08     LIBCMT:throw_bad_alloc.obj
 0002:00007c18       __CT??_R0?AVbad_array_new_length@std@@@8??0bad_array_new_length@std@@QAE@ABV01@@Z12 10026c18     LIBCMT:throw_bad_alloc.obj
 0002:00007d3c       __TI2?AVbad_exception@std@@ 10026d3c     libvcruntime:frame.obj
 0002:00007d4c       __CTA2?AVbad_exception@std@@ 10026d4c     libvcruntime:frame.obj
 0002:00007d58       __CT??_R0?AVbad_exception@std@@@8??0bad_exception@std@@QAE@ABV01@@Z12 10026d58     libvcruntime:frame.obj
 0002:000080d4       ___pobjMapEntryFirst       100270d4     OposVariant.obj
 0002:000080d8       ___pobjMapEntryLast        100270d8     OposVariant.obj
 0002:00008188       __IMPORT_DESCRIPTOR_KERNEL32 10027188     kernel32:KERNEL32.dll
 0002:0000819c       __IMPORT_DESCRIPTOR_USER32 1002719c     user32:USER32.dll
 0002:000081b0       __IMPORT_DESCRIPTOR_GDI32  100271b0     gdi32:GDI32.dll
 0002:000081c4       __IMPORT_DESCRIPTOR_ADVAPI32 100271c4     advapi32:ADVAPI32.dll
 0002:000081d8       __IMPORT_DESCRIPTOR_ole32  100271d8     ole32:ole32.dll
 0002:000081ec       __IMPORT_DESCRIPTOR_OLEAUT32 100271ec     oleaut32:OLEAUT32.dll
 0002:00008200       __NULL_IMPORT_DESCRIPTOR   10027200     kernel32:KERNEL32.dll
 0003:00000000       ?s_Claim@?7??GetIDsOfNames@CComTypeInfoHolder@ATL@@QAEJABU_GUID@@PAPA_WIKPAJ@Z@4PA_WA 10029000     Lights.obj
 0003:00000018       ?s_Release@?7??GetIDsOfNames@CComTypeInfoHolder@ATL@@QAEJABU_GUID@@PAPA_WIKPAJ@Z@4PA_WA 10029018     Lights.obj
 0003:00000034       ?_tih@?$IDispatchImpl@UIOPOSLights@@$1?IID_IOPOSLights@@3U_GUID@@B$1?LIBID_OposLights_CCO@@3U3@B$00$0A@VCComTypeInfoHolder@ATL@@@ATL@@1VCComTypeInfoHolder@2@A 10029034     Lights.obj
 0003:00000050       ?_tih@?$IProvideClassInfo2Impl@$1?CLSID_OPOSLights@@3U_GUID@@B$1?DIID__IOPOSLightsEvents@@3U2@B$1?LIBID_OposLights_CCO@@3U2@B$00$0A@VCComTypeInfoHolder@ATL@@@ATL@@1VCComTypeInfoHolder@2@A 10029050     Lights.obj
 0003:0000006c       ?vszContents@?6??Save@?$IPersistStorageImpl@VCOPOSLights@@@ATL@@UAGJPAUIStorage@@H@Z@4PB_WB 1002906c     Lights.obj
 0003:00000070       ?wc@?1??GetWndClassInfo@?$CWindowImpl@VCOPOSLights@@VCWindow@ATL@@V?$CWinTraits@$0FGAAAAAA@$0A@@3@@ATL@@SAAAU_ATL_WNDCLASSINFOW@3@XZ@4U43@A 10029070     Lights.obj
 0003:000000fc       ?rcDefault@CWindow@ATL@@2UtagRECT@@A 100290fc     Lights.obj
 0003:00000158       ?g_WindowName@@3PA_WA      10029158     LightsImpl.obj
 0003:00000174       ?g_ControlVersion@@3JA     10029174     LightsImpl.obj
 0003:00000178       ?g_ControlDescription@@3PADA 10029178     LightsImpl.obj
 0003:00000210       ___scrt_native_dllmain_reason 10029210     LIBCMT:utility.obj
 0003:00000214       __Init_global_epoch        10029214     LIBCMT:thread_safe_statics.obj
 0003:00000220       ___security_cookie_complement 10029220     LIBCMT:gs_cookie.obj
 0003:00000224       ___security_cookie         10029224     LIBCMT:gs_cookie.obj
 0003:00000228       ___isa_enabled             10029228     LIBCMT:cpu_disp.obj
 0003:00000240       __NLG_Destination          10029240     libvcruntime:exsup.obj
 0003:00000258       ___abort_behavior          10029258     libucrt:abort.obj
 0003:00000268       __iob                      10029268     libucrt:_file.obj
 0003:00000310       ___acrt_initial_locale_data 10029310     libucrt:nlsdata.obj
 0003:000003c8       ___acrt_initial_locale_pointers 100293c8     libucrt:nlsdata.obj
 0003:000003d0       ___acrt_wide_c_locale_string 100293d0     libucrt:nlsdata.obj
 0003:000003d8       ___acrt_initial_multibyte_data 100293d8     libucrt:mbctype.obj
 0003:000008f8       __pwctype                  100298f8     libucrt:ctype.obj
 0003:000008fc       ___globallocalestatus      100298fc     libucrt:glstatus.obj
 0003:00000900       ___acrt_lconv_c            10029900     libucrt:localeconv.obj
 0003:00000950       ___acrt_lconv_static_decimal 10029950     libucrt:localeconv.obj
 0003:00000954       ___acrt_lconv_static_W_decimal 10029954     libucrt:localeconv.obj
 0003:00000960       __lookuptrailbytes         10029960     libucrt:read.obj
 0003:00000a70       __fltused                  10029a70     LIBCMT:fltused.obj
 0003:00000a80       ??_R0?AVbad_alloc@std@@@8  10029a80     LIBCMT:throw_bad_alloc.obj
 0003:00000a9c       ??_R0?AVexception@std@@@8  10029a9c     LIBCMT:throw_bad_alloc.obj
 0003:00000ab8       ??_R0?AVbad_array_new_length@std@@@8 10029ab8     LIBCMT:throw_bad_alloc.obj
 0003:00000ae0       ??_R0?AVtype_info@@@8      10029ae0     LIBCMT:std_type_info_static.obj
 0003:00000af8       ??_R0?AVbad_exception@std@@@8 10029af8     libvcruntime:frame.obj
 0003:00000b18       ?m_bInitFailed@CAtlBaseModule@ATL@@2_NA 10029b18     OposVariant.obj
 0003:00000b1c       ?_pPerfRegFunc@ATL@@3P6AJPAUHINSTANCE__@@@ZA 10029b1c     OposVariant.obj
 0003:00000b20       ?_pPerfUnRegFunc@ATL@@3P6AJXZA 10029b20     OposVariant.obj
 0003:00000b24       ?_AtlRegisterPerUser@ATL@@3_NA 10029b24     OposVariant.obj
 0003:00000b28       ?_pAtlModule@ATL@@3PAVCAtlModule@1@A 10029b28     OposVariant.obj
 0003:00000b2c       ?_pModule@ATL@@3PAVCComModule@1@A 10029b2c     OposVariant.obj
 0003:00000b30       ?_AtlComModule@ATL@@3VCAtlComModule@1@A 10029b30     OposVariant.obj
 0003:00000b58       ?_AtlWinModule@ATL@@3VCAtlWinModule@1@A 10029b58     OposVariant.obj
 0003:00000b84       ?m_libid@CAtlModule@ATL@@2U_GUID@@A 10029b84     Lights.obj
 0003:00000b94       ?_entries@?1??GetConnMap@COPOSLights@@SAPBU_ATL_CONNMAP_ENTRY@ATL@@PAH@Z@4QBU34@B 10029b94     Lights.obj
 0003:00000ba0       ?$TSS0@?1??GetConnMap@COPOSLights@@SAPBU_ATL_CONNMAP_ENTRY@ATL@@PAH@Z@4HA 10029ba0     Lights.obj
 0003:00000ba8       ?_OptionsStorage@?1??__local_stdio_printf_options@@9@4_KA 10029ba8     Lights.obj
 0003:00000bb0       ?pfnRegDeleteKeyEx@?1??DeleteSubKey@CRegKey@ATL@@QAEJPB_W@Z@4P6GJPAUHKEY__@@0KK@ZA 10029bb0     Lights.obj
 0003:00000bb4       ?bInitialized@?1??DeleteSubKey@CRegKey@ATL@@QAEJPB_W@Z@4_NA 10029bb4     Lights.obj
 0003:00000bb8       ?_Module@@3VCComModule@ATL@@A 10029bb8     Lights.obj
 0003:00000be8       ?pConnMap@?$IConnectionPointContainerImpl@VCOPOSLights@@@ATL@@0PBU_ATL_CONNMAP_ENTRY@2@B 10029be8     Lights.obj
 0003:00000bec       ?s_nInstances@COPOSLights@@1HA 10029bec     LightsImpl.obj
 0003:00000bf0       ___scrt_current_native_startup_state 10029bf0     LIBCMT:utility.obj
 0003:00000bf4       ___scrt_native_startup_lock 10029bf4     LIBCMT:utility.obj
 0003:00000f5c       __tls_index                10029f5c     LIBCMT:tlssup.obj
 0003:00000f64       ___isa_available           10029f64     LIBCMT:cpu_disp.obj
 0003:00000f68       ___favor                   10029f68     LIBCMT:cpu_disp.obj
 0003:00000f6c       ___scrt_debugger_hook_flag 10029f6c     LIBCMT:utility_desktop.obj
 0003:00000f70       ___castguard_check_failure_os_handled_fptr 10029f70     LIBCMT:guard_support.obj
 0003:00000f78       ?__type_info_root_node@@3U__type_info_node@@A 10029f78     LIBCMT:tncleanup.obj
 0003:00000f80       ?_OptionsStorage@?1??__local_stdio_scanf_options@@9@4_KA 10029f80     LIBCMT:default_local_stdio_options.obj
 0003:00000f88       ?_AtlBaseModule@ATL@@3VCAtlBaseModule@1@A 10029f88     atls:atlbase.obj
 0003:00000fc0       ?__AtlThunkPool@@3PAT_SLIST_HEADER@@A 10029fc0     atls:atlthunk.obj
 0003:00000fd8       ___@@_PchSym_@00@UztvmgUPdlipUFHUhUrmgvinvwrzgvUexgllohUzgohOmzgrevkilqPBACIAJCBDBUlyqiUcIGUhgwzucOlyq@4B2008FD98C1DD4 10029fd8     atls:stdafx.obj
 0003:00000fdc       ?__WinRTOutOfMemoryExceptionCallback@@3P6GPAXXZA 10029fdc     libvcruntime:ehhelpers.obj
 0003:00000fe0       ___pPurecall               10029fe0     libvcruntime:purevirt_data.obj
 0003:00001028       ?pArgList@UnDecorator@@0PAVReplicator@@A 1002a028     libvcruntime:undname.obj
 0003:0000102c       ?pZNameList@UnDecorator@@0PAVReplicator@@A 1002a02c     libvcruntime:undname.obj
 0003:00001030       ?pTemplateArgList@UnDecorator@@0PAVReplicator@@A 1002a030     libvcruntime:undname.obj
 0003:00001034       ?gName@UnDecorator@@0PBDB  1002a034     libvcruntime:undname.obj
 0003:00001038       ?name@UnDecorator@@0PBDB   1002a038     libvcruntime:undname.obj
 0003:0000103c       ?disableFlags@UnDecorator@@0KA 1002a03c     libvcruntime:undname.obj
 0003:00001040       ?fExplicitTemplateParams@UnDecorator@@0_NA 1002a040     libvcruntime:undname.obj
 0003:00001041       ?fGetTemplateArgumentList@UnDecorator@@0_NA 1002a041     libvcruntime:undname.obj
 0003:00001044       ?m_pGetParameter@UnDecorator@@0P6APADJ@ZA 1002a044     libvcruntime:undname.obj
 0003:00001048       ?m_CHPENameOffset@UnDecorator@@0KA 1002a048     libvcruntime:undname.obj
 0003:0000104c       ?m_recursionLevel@UnDecorator@@0KA 1002a04c     libvcruntime:undname.obj
 0003:00001090       ?c_exit_complete@?1???R<lambda_6e4b09c48022b2350581041d5f6b0c4c>@@QBE@XZ@4_NA 1002a090     libucrt:exit.obj
 0003:000011a0       __environ_table            1002a1a0     libucrt:environment_initialization.obj
 0003:000011a4       __wenviron_table           1002a1a4     libucrt:environment_initialization.obj
 0003:000011a8       ___dcrt_initial_wide_environment 1002a1a8     libucrt:environment_initialization.obj
 0003:000011ac       ___dcrt_initial_narrow_environment 1002a1ac     libucrt:environment_initialization.obj
 0003:000011b0       ___acrt_atexit_table       1002a1b0     libucrt:onexit.obj
 0003:000011bc       ___acrt_at_quick_exit_table 1002a1bc     libucrt:onexit.obj
 0003:000012b0       __nstream                  1002a2b0     libucrt:_file.obj
 0003:000012b4       ___piob                    1002a2b4     libucrt:_file.obj
 0003:000012bc       ___acrt_stdout_buffer      1002a2bc     libucrt:_sftbuf.obj
 0003:000012c0       ___acrt_stderr_buffer      1002a2c0     libucrt:_sftbuf.obj
 0003:000012c4       ___acrt_locale_changed_data 1002a2c4     libucrt:wsetlocale.obj
 0003:000012c8       ___acrt_current_locale_data 1002a2c8     libucrt:nlsdata.obj
 0003:000012d0       ___pioinfo                 1002a2d0     libucrt:ioinit.obj
 0003:000014d0       __nhandle                  1002a4d0     libucrt:ioinit.obj
 0003:0000162c       __mbctype                  1002a62c     libucrt:mbctype.obj
 0003:00001630       __mbcasemap                1002a630     libucrt:mbctype.obj
 0003:00001634       ___acrt_current_multibyte_data 1002a634     libucrt:mbctype.obj
 0003:00001640       __pgmptr                   1002a640     libucrt:argv_data.obj
 0003:00001644       ___argc                    1002a644     libucrt:argv_data.obj
 0003:00001648       ___argv                    1002a648     libucrt:argv_data.obj
 0003:0000164c       ___wargv                   1002a64c     libucrt:argv_data.obj
 0003:00001650       __acmdln                   1002a650     libucrt:argv_data.obj
 0003:00001654       __wcmdln                   1002a654     libucrt:argv_data.obj
 0003:00001658       ___acrt_heap               1002a658     libucrt:heap_handle.obj
 0003:00001674       ___acrt_lconv_static_null  1002a674     libucrt:localeconv.obj
 0003:00001678       ___acrt_lconv_static_W_null 1002a678     libucrt:localeconv.obj
 0003:00001688       ___fastflag                1002a688     libucrt:fp_flags.obj
 0003:00001690       ___dyn_tls_init_callback   1002a690     <common>
 0003:00001694       ___scrt_ucrt_dll_is_in_use 1002a694     <common>
 0003:00001698       __pmatherr                 1002a698     <common>
 0003:0000169c       ___use_sse2_mathfcns       1002a69c     <common>

 entry point at        0001:0000b9cd

 Static symbols

 0000:fffcf000       .debug$S                   10000000     OPOSLights.exp
 0000:fffcf000       .debug$S                   10000000     advapi32:ADVAPI32.dll
 0000:fffcf000       .debug$S                   10000000     advapi32:ADVAPI32.dll
 0000:fffcf000       .debug$S                   10000000     advapi32:ADVAPI32.dll
 0000:fffcf000       .debug$S                   10000000     advapi32:ADVAPI32.dll
 0000:fffcf000       .debug$S                   10000000     advapi32:ADVAPI32.dll
 0000:fffcf000       .debug$S                   10000000     advapi32:ADVAPI32.dll
 0000:fffcf000       .debug$S                   10000000     advapi32:ADVAPI32.dll
 0000:fffcf000       .debug$S                   10000000     advapi32:ADVAPI32.dll
 0000:fffcf000       .debug$S                   10000000     advapi32:ADVAPI32.dll
 0000:fffcf000       .debug$S                   10000000     gdi32:GDI32.dll
 0000:fffcf000       .debug$S                   10000000     gdi32:GDI32.dll
 0000:fffcf000       .debug$S                   10000000     gdi32:GDI32.dll
 0000:fffcf000       .debug$S                   10000000     gdi32:GDI32.dll
 0000:fffcf000       .debug$S                   10000000     gdi32:GDI32.dll
 0000:fffcf000       .debug$S                   10000000     gdi32:GDI32.dll
 0000:fffcf000       .debug$S                   10000000     gdi32:GDI32.dll
 0000:fffcf000       .debug$S                   10000000     gdi32:GDI32.dll
 0000:fffcf000       .debug$S                   10000000     gdi32:GDI32.dll
 0000:fffcf000       .debug$S                   10000000     gdi32:GDI32.dll
 0000:fffcf000       .debug$S                   10000000     gdi32:GDI32.dll
 0000:fffcf000       .debug$S                   10000000     gdi32:GDI32.dll
 0000:fffcf000       .debug$S                   10000000     gdi32:GDI32.dll
 0000:fffcf000       .debug$S                   10000000     gdi32:GDI32.dll
 0000:fffcf000       .debug$S                   10000000     gdi32:GDI32.dll
 0000:fffcf000       .debug$S                   10000000     gdi32:GDI32.dll
 0000:fffcf000       .debug$S                   10000000     gdi32:GDI32.dll
 0000:fffcf000       .debug$S                   10000000     gdi32:GDI32.dll
 0000:fffcf000       .debug$S                   10000000     gdi32:GDI32.dll
 0000:fffcf000       .debug$S                   10000000     kernel32:KERNEL32.dll
 0000:fffcf000       .debug$S                   10000000     kernel32:KERNEL32.dll
 0000:fffcf000       .debug$S                   10000000     kernel32:KERNEL32.dll
 0000:fffcf000       .debug$S                   10000000     kernel32:KERNEL32.dll
 0000:fffcf000       .debug$S                   10000000     kernel32:KERNEL32.dll
 0000:fffcf000       .debug$S                   10000000     kernel32:KERNEL32.dll
 0000:fffcf000       .debug$S                   10000000     kernel32:KERNEL32.dll
 0000:fffcf000       .debug$S                   10000000     kernel32:KERNEL32.dll
 0000:fffcf000       .debug$S                   10000000     kernel32:KERNEL32.dll
 0000:fffcf000       .debug$S                   10000000     kernel32:KERNEL32.dll
 0000:fffcf000       .debug$S                   10000000     kernel32:KERNEL32.dll
 0000:fffcf000       .debug$S                   10000000     kernel32:KERNEL32.dll
 0000:fffcf000       .debug$S                   10000000     kernel32:KERNEL32.dll
 0000:fffcf000       .debug$S                   10000000     kernel32:KERNEL32.dll
 0000:fffcf000       .debug$S                   10000000     kernel32:KERNEL32.dll
 0000:fffcf000       .debug$S                   10000000     kernel32:KERNEL32.dll
 0000:fffcf000       .debug$S                   10000000     kernel32:KERNEL32.dll
 0000:fffcf000       .debug$S                   10000000     kernel32:KERNEL32.dll
 0000:fffcf000       .debug$S                   10000000     kernel32:KERNEL32.dll
 0000:fffcf000       .debug$S                   10000000     kernel32:KERNEL32.dll
 0000:fffcf000       .debug$S                   10000000     kernel32:KERNEL32.dll
 0000:fffcf000       .debug$S                   10000000     kernel32:KERNEL32.dll
 0000:fffcf000       .debug$S                   10000000     kernel32:KERNEL32.dll
 0000:fffcf000       .debug$S                   10000000     kernel32:KERNEL32.dll
 0000:fffcf000       .debug$S                   10000000     kernel32:KERNEL32.dll
 0000:fffcf000       .debug$S                   10000000     kernel32:KERNEL32.dll
 0000:fffcf000       .debug$S                   10000000     kernel32:KERNEL32.dll
 0000:fffcf000       .debug$S                   10000000     kernel32:KERNEL32.dll
 0000:fffcf000       .debug$S                   10000000     kernel32:KERNEL32.dll
 0000:fffcf000       .debug$S                   10000000     kernel32:KERNEL32.dll
 0000:fffcf000       .debug$S                   10000000     kernel32:KERNEL32.dll
 0000:fffcf000       .debug$S                   10000000     kernel32:KERNEL32.dll
 0000:fffcf000       .debug$S                   10000000     kernel32:KERNEL32.dll
 0000:fffcf000       .debug$S                   10000000     kernel32:KERNEL32.dll
 0000:fffcf000       .debug$S                   10000000     kernel32:KERNEL32.dll
 0000:fffcf000       .debug$S                   10000000     kernel32:KERNEL32.dll
 0000:fffcf000       .debug$S                   10000000     kernel32:KERNEL32.dll
 0000:fffcf000       .debug$S                   10000000     kernel32:KERNEL32.dll
 0000:fffcf000       .debug$S                   10000000     kernel32:KERNEL32.dll
 0000:fffcf000       .debug$S                   10000000     kernel32:KERNEL32.dll
 0000:fffcf000       .debug$S                   10000000     kernel32:KERNEL32.dll
 0000:fffcf000       .debug$S                   10000000     kernel32:KERNEL32.dll
 0000:fffcf000       .debug$S                   10000000     kernel32:KERNEL32.dll
 0000:fffcf000       .debug$S                   10000000     kernel32:KERNEL32.dll
 0000:fffcf000       .debug$S                   10000000     kernel32:KERNEL32.dll
 0000:fffcf000       .debug$S                   10000000     kernel32:KERNEL32.dll
 0000:fffcf000       .debug$S                   10000000     kernel32:KERNEL32.dll
 0000:fffcf000       .debug$S                   10000000     kernel32:KERNEL32.dll
 0000:fffcf000       .debug$S                   10000000     kernel32:KERNEL32.dll
 0000:fffcf000       .debug$S                   10000000     kernel32:KERNEL32.dll
 0000:fffcf000       .debug$S                   10000000     kernel32:KERNEL32.dll
 0000:fffcf000       .debug$S                   10000000     kernel32:KERNEL32.dll
 0000:fffcf000       .debug$S                   10000000     kernel32:KERNEL32.dll
 0000:fffcf000       .debug$S                   10000000     kernel32:KERNEL32.dll
 0000:fffcf000       .debug$S                   10000000     kernel32:KERNEL32.dll
 0000:fffcf000       .debug$S                   10000000     kernel32:KERNEL32.dll
 0000:fffcf000       .debug$S                   10000000     kernel32:KERNEL32.dll
 0000:fffcf000       .debug$S                   10000000     kernel32:KERNEL32.dll
 0000:fffcf000       .debug$S                   10000000     kernel32:KERNEL32.dll
 0000:fffcf000       .debug$S                   10000000     kernel32:KERNEL32.dll
 0000:fffcf000       .debug$S                   10000000     kernel32:KERNEL32.dll
 0000:fffcf000       .debug$S                   10000000     kernel32:KERNEL32.dll
 0000:fffcf000       .debug$S                   10000000     kernel32:KERNEL32.dll
 0000:fffcf000       .debug$S                   10000000     kernel32:KERNEL32.dll
 0000:fffcf000       .debug$S                   10000000     kernel32:KERNEL32.dll
 0000:fffcf000       .debug$S                   10000000     kernel32:KERNEL32.dll
 0000:fffcf000       .debug$S                   10000000     kernel32:KERNEL32.dll
 0000:fffcf000       .debug$S                   10000000     kernel32:KERNEL32.dll
 0000:fffcf000       .debug$S                   10000000     kernel32:KERNEL32.dll
 0000:fffcf000       .debug$S                   10000000     kernel32:KERNEL32.dll
 0000:fffcf000       .debug$S                   10000000     kernel32:KERNEL32.dll
 0000:fffcf000       .debug$S                   10000000     kernel32:KERNEL32.dll
 0000:fffcf000       .debug$S                   10000000     kernel32:KERNEL32.dll
 0000:fffcf000       .debug$S                   10000000     kernel32:KERNEL32.dll
 0000:fffcf000       .debug$S                   10000000     kernel32:KERNEL32.dll
 0000:fffcf000       .debug$S                   10000000     kernel32:KERNEL32.dll
 0000:fffcf000       .debug$S                   10000000     kernel32:KERNEL32.dll
 0000:fffcf000       .debug$S                   10000000     kernel32:KERNEL32.dll
 0000:fffcf000       .debug$S                   10000000     kernel32:KERNEL32.dll
 0000:fffcf000       .debug$S                   10000000     kernel32:KERNEL32.dll
 0000:fffcf000       .debug$S                   10000000     kernel32:KERNEL32.dll
 0000:fffcf000       .debug$S                   10000000     kernel32:KERNEL32.dll
 0000:fffcf000       .debug$S                   10000000     kernel32:KERNEL32.dll
 0000:fffcf000       .debug$S                   10000000     kernel32:KERNEL32.dll
 0000:fffcf000       .debug$S                   10000000     kernel32:KERNEL32.dll
 0000:fffcf000       .debug$S                   10000000     kernel32:KERNEL32.dll
 0000:fffcf000       .debug$S                   10000000     kernel32:KERNEL32.dll
 0000:fffcf000       .debug$S                   10000000     kernel32:KERNEL32.dll
 0000:fffcf000       .debug$S                   10000000     kernel32:KERNEL32.dll
 0000:fffcf000       .debug$S                   10000000     kernel32:KERNEL32.dll
 0000:fffcf000       .debug$S                   10000000     kernel32:KERNEL32.dll
 0000:fffcf000       .debug$S                   10000000     kernel32:KERNEL32.dll
 0000:fffcf000       .debug$S                   10000000     kernel32:KERNEL32.dll
 0000:fffcf000       .debug$S                   10000000     kernel32:KERNEL32.dll
 0000:fffcf000       .debug$S                   10000000     kernel32:KERNEL32.dll
 0000:fffcf000       .debug$S                   10000000     kernel32:KERNEL32.dll
 0000:fffcf000       .debug$S                   10000000     kernel32:KERNEL32.dll
 0000:fffcf000       .debug$S                   10000000     kernel32:KERNEL32.dll
 0000:fffcf000       .debug$S                   10000000     kernel32:KERNEL32.dll
 0000:fffcf000       .debug$S                   10000000     kernel32:KERNEL32.dll
 0000:fffcf000       .debug$S                   10000000     kernel32:KERNEL32.dll
 0000:fffcf000       .debug$S                   10000000     kernel32:KERNEL32.dll
 0000:fffcf000       .debug$S                   10000000     kernel32:KERNEL32.dll
 0000:fffcf000       .debug$S                   10000000     kernel32:KERNEL32.dll
 0000:fffcf000       .debug$S                   10000000     kernel32:KERNEL32.dll
 0000:fffcf000       .debug$S                   10000000     kernel32:KERNEL32.dll
 0000:fffcf000       .debug$S                   10000000     ole32:ole32.dll
 0000:fffcf000       .debug$S                   10000000     ole32:ole32.dll
 0000:fffcf000       .debug$S                   10000000     ole32:ole32.dll
 0000:fffcf000       .debug$S                   10000000     ole32:ole32.dll
 0000:fffcf000       .debug$S                   10000000     ole32:ole32.dll
 0000:fffcf000       .debug$S                   10000000     ole32:ole32.dll
 0000:fffcf000       .debug$S                   10000000     ole32:ole32.dll
 0000:fffcf000       .debug$S                   10000000     ole32:ole32.dll
 0000:fffcf000       .debug$S                   10000000     ole32:ole32.dll
 0000:fffcf000       .debug$S                   10000000     ole32:ole32.dll
 0000:fffcf000       .debug$S                   10000000     ole32:ole32.dll
 0000:fffcf000       .debug$S                   10000000     ole32:ole32.dll
 0000:fffcf000       .debug$S                   10000000     ole32:ole32.dll
 0000:fffcf000       .debug$S                   10000000     ole32:ole32.dll
 0000:fffcf000       .debug$S                   10000000     oleaut32:OLEAUT32.dll
 0000:fffcf000       .debug$S                   10000000     oleaut32:OLEAUT32.dll
 0000:fffcf000       .debug$S                   10000000     oleaut32:OLEAUT32.dll
 0000:fffcf000       .debug$S                   10000000     oleaut32:OLEAUT32.dll
 0000:fffcf000       .debug$S                   10000000     oleaut32:OLEAUT32.dll
 0000:fffcf000       .debug$S                   10000000     oleaut32:OLEAUT32.dll
 0000:fffcf000       .debug$S                   10000000     oleaut32:OLEAUT32.dll
 0000:fffcf000       .debug$S                   10000000     oleaut32:OLEAUT32.dll
 0000:fffcf000       .debug$S                   10000000     oleaut32:OLEAUT32.dll
 0000:fffcf000       .debug$S                   10000000     oleaut32:OLEAUT32.dll
 0000:fffcf000       .debug$S                   10000000     oleaut32:OLEAUT32.dll
 0000:fffcf000       .debug$S                   10000000     oleaut32:OLEAUT32.dll
 0000:fffcf000       .debug$S                   10000000     oleaut32:OLEAUT32.dll
 0000:fffcf000       .debug$S                   10000000     oleaut32:OLEAUT32.dll
 0000:fffcf000       .debug$S                   10000000     oleaut32:OLEAUT32.dll
 0000:fffcf000       .debug$S                   10000000     oleaut32:OLEAUT32.dll
 0000:fffcf000       .debug$S                   10000000     user32:USER32.dll
 0000:fffcf000       .debug$S                   10000000     user32:USER32.dll
 0000:fffcf000       .debug$S                   10000000     user32:USER32.dll
 0000:fffcf000       .debug$S                   10000000     user32:USER32.dll
 0000:fffcf000       .debug$S                   10000000     user32:USER32.dll
 0000:fffcf000       .debug$S                   10000000     user32:USER32.dll
 0000:fffcf000       .debug$S                   10000000     user32:USER32.dll
 0000:fffcf000       .debug$S                   10000000     user32:USER32.dll
 0000:fffcf000       .debug$S                   10000000     user32:USER32.dll
 0000:fffcf000       .debug$S                   10000000     user32:USER32.dll
 0000:fffcf000       .debug$S                   10000000     user32:USER32.dll
 0000:fffcf000       .debug$S                   10000000     user32:USER32.dll
 0000:fffcf000       .debug$S                   10000000     user32:USER32.dll
 0000:fffcf000       .debug$S                   10000000     user32:USER32.dll
 0000:fffcf000       .debug$S                   10000000     user32:USER32.dll
 0000:fffcf000       .debug$S                   10000000     user32:USER32.dll
 0000:fffcf000       .debug$S                   10000000     user32:USER32.dll
 0000:fffcf000       .debug$S                   10000000     user32:USER32.dll
 0000:fffcf000       .debug$S                   10000000     user32:USER32.dll
 0000:fffcf000       .debug$S                   10000000     user32:USER32.dll
 0000:fffcf000       .debug$S                   10000000     user32:USER32.dll
 0000:fffcf000       .debug$S                   10000000     user32:USER32.dll
 0000:fffcf000       .debug$S                   10000000     user32:USER32.dll
 0000:fffcf000       .debug$S                   10000000     user32:USER32.dll
 0000:fffcf000       .debug$S                   10000000     user32:USER32.dll
 0000:fffcf000       .debug$S                   10000000     user32:USER32.dll
 0000:fffcf000       .debug$S                   10000000     user32:USER32.dll
 0000:fffcf000       .debug$S                   10000000     user32:USER32.dll
 0000:fffcf000       .debug$S                   10000000     user32:USER32.dll
 0000:fffcf000       .debug$S                   10000000     user32:USER32.dll
 0000:fffcf000       .debug$S                   10000000     user32:USER32.dll
 0000:fffcf000       .debug$S                   10000000     user32:USER32.dll
 0000:fffcf000       .debug$S                   10000000     user32:USER32.dll
 0000:fffcf000       .debug$S                   10000000     user32:USER32.dll
 0000:fffcf000       .debug$S                   10000000     user32:USER32.dll
 0001:00000000       ??__E_AtlComModule@ATL@@YAXXZ 10001000 f   OposVariant.obj
 0001:00000016       ??__E_AtlWinModule@ATL@@YAXXZ 10001016 f   OposVariant.obj
 0001:0000002c       ??__E?pConnMap@?$IConnectionPointContainerImpl@VCOPOSLights@@@ATL@@0PBU_ATL_CONNMAP_ENTRY@2@B@@YAXXZ 1000102c f   Lights.obj
 0001:0000003a       ??__E_Module@@YAXXZ        1000103a f   Lights.obj
 0001:00000064       ??__E_AtlBaseModule@ATL@@YAXXZ 10001064 f   atls:atlbase.obj
 0001:00000bf8       $LN24                      10001bf8     Lights.obj
 0001:0000569d       $LN48                      1000669d     Lights.obj
 0001:000056b5       $LN47                      100066b5     Lights.obj
 0001:00007860       $LN38                      10008860     Lights.obj
 0001:00007878       $LN37                      10008878     Lights.obj
 0001:00008f68       $LN76                      10009f68     Lights.obj
 0001:00008f80       $LN75                      10009f80     Lights.obj
 0001:00009339       _memcpy_s                  1000a339 f   Lights.obj
 0001:0000ae5c       ?find_pe_section@@YAPAU_IMAGE_SECTION_HEADER@@QAEI@Z 1000be5c f   LIBCMT:utility.obj
 0001:0000b17b       ?__scrt_initialize_thread_safe_statics@@YAHXZ 1000c17b f   LIBCMT:thread_safe_statics.obj
 0001:0000b1a2       ?__scrt_initialize_thread_safe_statics_platform_specific@@YAXXZ 1000c1a2 f   LIBCMT:thread_safe_statics.obj
 0001:0000b224       ?__scrt_uninitialize_thread_safe_statics@@YAXXZ 1000c224 f   LIBCMT:thread_safe_statics.obj
 0001:0000b593       __catch$??2@YAPAXIABUnothrow_t@std@@@Z$0 1000c593 f   LIBCMT:new_scalar_nothrow.obj
 0001:0000b5d0       $$000000                   1000c5d0     LIBCMT:sehprolg4gs.obj
 0001:0000b630       $$000000                   1000c630     LIBCMT:alloca16.obj
 0001:0000b660       $$000000                   1000c660     LIBCMT:chkstk.obj
 0001:0000b68d       ?dllmain_crt_dispatch@@YGHQAUHINSTANCE__@@KQAX@Z 1000c68d f   LIBCMT:dll_dllmain.obj
 0001:0000b6e0       ?dllmain_crt_process_attach@@YAHQAUHINSTANCE__@@QAX@Z 1000c6e0 f   LIBCMT:dll_dllmain.obj
 0001:0000b7e7       ?dllmain_crt_process_detach@@YAH_N@Z 1000c7e7 f   LIBCMT:dll_dllmain.obj
 0001:0000b897       ?dllmain_dispatch@@YAHQAUHINSTANCE__@@KQAX@Z 1000c897 f   LIBCMT:dll_dllmain.obj
 0001:0000b9a2       ?dllmain_raw@@YGHQAUHINSTANCE__@@KQAX@Z 1000c9a2 f   LIBCMT:dll_dllmain.obj
 0001:0000bd20       $$000000                   1000cd20     LIBCMT:sehprolg4.obj
 0001:0000bd7b       ___get_entropy             1000cd7b f   LIBCMT:gs_support.obj
 0001:0000c072       ??$GetProcAddressAll@P6GP6GJPAUHWND__@@IIJ@ZPAUAtlThunkData_t@@@Z@@YAP6GP6GJPAUHWND__@@IIJ@ZPAUAtlThunkData_t@@@ZPAP6GP6GJ0IIJ@Z1@Z@Z 1000d072 f   atls:atlthunk.obj
 0001:0000c072       ??$GetProcAddressAll@P6GPAUAtlThunkData_t@@XZ@@YAP6GPAUAtlThunkData_t@@XZPAP6GPAU0@XZ@Z 1000d072 f   atls:atlthunk.obj
 0001:0000c072       ??$GetProcAddressAll@P6GXPAUAtlThunkData_t@@@Z@@YAP6GXPAUAtlThunkData_t@@@ZPAP6GX0@Z@Z 1000d072 f   atls:atlthunk.obj
 0001:0000c072       ??$GetProcAddressAll@P6GXPAUAtlThunkData_t@@PAXI@Z@@YAP6GXPAUAtlThunkData_t@@PAXI@ZPAP6GX01I@Z@Z 1000d072 f   atls:atlthunk.obj
 0001:0000c122       ?GetProcAddressSingle@@YA_NPAUHINSTANCE__@@PBDPAPAX@Z 1000d122 f   atls:atlthunk.obj
 0001:0000c274       ?__InitializeThunkPool@@YAHXZ 1000d274 f   atls:atlthunk.obj
 0001:0000c6c0       _ValidateLocalCookies      1000d6c0 f   libvcruntime:chandler4.obj
 0001:0000d6ea       $LN1250                    1000e6ea     libvcruntime:memcmp.obj
 0001:0000d770       $$000000                   1000e770     libvcruntime:memcpy.obj
 0001:0000d9d4       TrailingUpVec              1000e9d4     libvcruntime:memcpy.obj
 0001:0000da80       TrailingDownVec            1000ea80     libvcruntime:memcpy.obj
 0001:0000dcf0       $$000000                   1000ecf0     libvcruntime:memset.obj
 0001:0000e2f3       ?_FilterSetCurrentException@@YAKPAU_EXCEPTION_POINTERS@@E@Z 1000f2f3 f   libvcruntime:ehhelpers.obj
 0001:0000e540       $$000000                   1000f540     libvcruntime:memmove.obj
 0001:0000e7a4       TrailingUpVec              1000f7a4     libvcruntime:memmove.obj
 0001:0000e850       TrailingDownVec            1000f850     libvcruntime:memmove.obj
 0001:0000eac0       $$000000                   1000fac0     libvcruntime:exsup4.obj
 0001:0000eb4d       __unwind_handler4          1000fb4d f   libvcruntime:exsup4.obj
 0001:0000ee2b       ??$BuildCatchObjectHelperInternal@V__FrameHandler3@@@@YAHPAUEHExceptionRecord@@PAXPBU_s_HandlerType@@PBU_s_CatchableType@@@Z 1000fe2b f   libvcruntime:frame.obj
 0001:0000ef69       ??$BuildCatchObjectInternal@V__FrameHandler3@@@@YAXPAUEHExceptionRecord@@PAXPBU_s_HandlerType@@PBU_s_CatchableType@@@Z 1000ff69 f   libvcruntime:frame.obj
 0001:0000f002       ??$CatchIt@V__FrameHandler3@@@@YAXPAUEHExceptionRecord@@PAUEHRegistrationNode@@PAU_CONTEXT@@PAXPBU_s_FuncInfo@@PBU_s_HandlerType@@PBU_s_CatchableType@@PBU_s_TryBlockMapEntry@@H1EE@Z 10010002 f   libvcruntime:frame.obj
 0001:0000f082       ??$FindHandler@V__FrameHandler3@@@@YAXPAUEHExceptionRecord@@PAUEHRegistrationNode@@PAU_CONTEXT@@PAXPBU_s_FuncInfo@@EH1@Z 10010082 f   libvcruntime:frame.obj
 0001:0000f438       ??$FindHandlerForForeignException@V__FrameHandler3@@@@YAXPAUEHExceptionRecord@@PAUEHRegistrationNode@@PAU_CONTEXT@@PAXPBU_s_FuncInfo@@HH1@Z 10010438 f   libvcruntime:frame.obj
 0001:0000f750       ?CallCatchBlock@@YAPAXPAUEHExceptionRecord@@PAUEHRegistrationNode@@PAU_CONTEXT@@PBU_s_FuncInfo@@PAXHK@Z 10010750 f   libvcruntime:frame.obj
 0001:0000f914       ?CallUnexpected@@YAXPBU_s_ESTypeList@@@Z 10010914 f   libvcruntime:frame.obj
 0001:0000f934       __catch$?CallUnexpected@@YAXPBU_s_ESTypeList@@@Z$0 10010934 f   libvcruntime:frame.obj
 0001:0000f953       ?ExFilterRethrow@@YAHPAU_EXCEPTION_POINTERS@@@Z 10010953 f   libvcruntime:frame.obj
 0001:0000fa9d       ?IsInExceptionSpec@@YAEPAUEHExceptionRecord@@PBU_s_ESTypeList@@@Z 10010a9d f   libvcruntime:frame.obj
 0001:0000fb70       $$000000                   10010b70     libvcruntime:lowhelpr.obj
 0001:0000fbc0       $$000000                   10010bc0     libvcruntime:exsup.obj
 0001:0000fbe1       __unwind_handler           10010be1 f   libvcruntime:exsup.obj
 0001:0000fcfe       ?try_get_first_available_module@@YAPAUHINSTANCE__@@QBW4module_id@?A0xb97aeec8@@0@Z 10010cfe f   libvcruntime:winapi_downlevel.obj
 0001:0000fd98       ?try_get_function@@YAPAXW4function_id@?A0xb97aeec8@@QBDQBW4module_id@2@2@Z 10010d98 f   libvcruntime:winapi_downlevel.obj
 0001:00010422       ??$common_tcsncpy_s@_W@@YAHQA_WIQB_WI@Z 10011422 f   libucrt:wcsncpy_s.obj
 0001:000104f8       ??$common_vsprintf@Vformat_validation_base@__crt_stdio_output@@_W@@YAH_KQA_WIQB_WQAU__crt_locale_pointers@@QAD@Z 100114f8 f   libucrt:output.obj
 0001:0001067f       ??$common_vsprintf_s@_W@@YAH_KQA_WIQB_WQAU__crt_locale_pointers@@QAD@Z 1001167f f   libucrt:output.obj
 0001:00010de3       $LN48                      10011de3     libucrt:output.obj
 0001:000112ec       $LN18                      100122ec     libucrt:output.obj
 0001:00011300       $LN17                      10012300     libucrt:output.obj
 0001:00011b5b       ??$?RV<lambda_03b1d95aef87969028cfba75ccab2455>@@AAV<lambda_6e4b09c48022b2350581041d5f6b0c4c>@@V<lambda_22bdf7517842c4b3e53723af5aa32b9e>@@@?$__crt_seh_guarded_call@X@@QAEX$$QAV<lambda_03b1d95aef87969028cfba75ccab2455>@@AAV<lambda_6e4b09c48022b2350581041d5f6b0c4c>@@$$QAV<lambda_22bdf7517842c4b3e53723af5aa32b9e>@@@Z 10012b5b f   libucrt:exit.obj
 0001:00011ba8       ??R<lambda_6e4b09c48022b2350581041d5f6b0c4c>@@QBE@XZ 10012ba8 f   libucrt:exit.obj
 0001:00011c82       ?atexit_exception_filter@@YAHK@Z 10012c82 f   libucrt:exit.obj
 0001:00011c95       ?common_exit@@YAXHW4_crt_exit_cleanup_mode@@W4_crt_exit_return_mode@@@Z 10012c95 f   libucrt:exit.obj
 0001:00011cf9       ?exit_or_terminate_process@@YAXI@Z 10012cf9 f   libucrt:exit.obj
 0001:00011d3b       ?is_managed_app@@YA_NXZ    10012d3b f   libucrt:exit.obj
 0001:00011d7e       ?try_cor_exit_process@@YAXI@Z 10012d7e f   libucrt:exit.obj
 0001:00011e0c       ??$common_configure_argv@D@@YAHW4_crt_argv_mode@@@Z 10012e0c f   libucrt:argv_parsing.obj
 0001:00011f42       ??$parse_command_line@D@@YAXPADPAPAD0PAI2@Z 10012f42 f   libucrt:argv_parsing.obj
 0001:00012110       ??$common_initialize_environment_nolock@D@@YAHXZ 10013110 f   libucrt:environment_initialization.obj
 0001:00012163       ??$create_environment@D@@YAQAPADQAD@Z 10013163 f   libucrt:environment_initialization.obj
 0001:00012233       ??$free_environment@D@@YAXQAPAD@Z 10013233 f   libucrt:environment_initialization.obj
 0001:00012233       ??$free_environment@_W@@YAXQAPA_W@Z 10013233 f   libucrt:environment_initialization.obj
 0001:0001228b       ??$uninitialize_environment_internal@D@@YAXAAPAPAD@Z 1001328b f   libucrt:environment_initialization.obj
 0001:000122a6       ??$uninitialize_environment_internal@_W@@YAXAAPAPA_W@Z 100132a6 f   libucrt:environment_initialization.obj
 0001:000122fd       ??$?RV<lambda_69a2805e680e0e292e8ba93315fe43a8>@@AAV<lambda_f03950bc5685219e0bcd2087efbe011e>@@V<lambda_03fcd07e894ec930e3f35da366ca99d6>@@@?$__crt_seh_guarded_call@H@@QAEH$$QAV<lambda_69a2805e680e0e292e8ba93315fe43a8>@@AAV<lambda_f03950bc5685219e0bcd2087efbe011e>@@$$QAV<lambda_03fcd07e894ec930e3f35da366ca99d6>@@@Z 100132fd f   libucrt:onexit.obj
 0001:00012358       ??$?RV<lambda_8e746cf0007f6ed984d6f78af1fec997>@@AAV<lambda_22ebabd17bc4fa466a2aca6d8deb888d>@@V<lambda_18ed0c0b38a6dc0daf1e7ac6d6adf05e>@@@?$__crt_seh_guarded_call@H@@QAEH$$QAV<lambda_8e746cf0007f6ed984d6f78af1fec997>@@AAV<lambda_22ebabd17bc4fa466a2aca6d8deb888d>@@$$QAV<lambda_18ed0c0b38a6dc0daf1e7ac6d6adf05e>@@@Z 10013358 f   libucrt:onexit.obj
 0001:000123d2       ??R<lambda_22ebabd17bc4fa466a2aca6d8deb888d>@@QBEHXZ 100133d2 f   libucrt:onexit.obj
 0001:000124fb       ??R<lambda_f03950bc5685219e0bcd2087efbe011e>@@QBEHXZ 100134fb f   libucrt:onexit.obj
 0001:00012674       _initialize_global_variables 10013674 f   libucrt:initialization.obj
 0001:00012681       _initialize_c              10013681 f   libucrt:initialization.obj
 0001:0001269b       _initialize_environment    1001369b f   libucrt:initialization.obj
 0001:0001269b       _initialize_global_state_isolation 1001369b f   libucrt:initialization.obj
 0001:0001269b       _report_memory_leaks       1001369b f   libucrt:initialization.obj
 0001:0001269b       _uninitialize_c            1001369b f   libucrt:initialization.obj
 0001:0001269b       _uninitialize_global_state_isolation 1001369b f   libucrt:initialization.obj
 0001:0001269e       _uninitialize_environment  1001369e f   libucrt:initialization.obj
 0001:000126a6       _initialize_pointers       100136a6 f   libucrt:initialization.obj
 0001:000126d4       _uninitialize_vcruntime    100136d4 f   libucrt:initialization.obj
 0001:000126dd       _uninitialize_allocated_memory 100136dd f   libucrt:initialization.obj
 0001:000126f4       _uninitialize_allocated_io_buffers 100136f4 f   libucrt:initialization.obj
 0001:00012744       ??R<lambda_af42a3ee9806e9a7305d451646e05244>@@QBEXAAPAU__crt_multibyte_data@@@Z 10013744 f   libucrt:initialization.obj
 0001:00013030       $$000000                   10014030     libucrt:strncmp.obj
 0001:0001311c       ??$?RV<lambda_15ade71b0218206bbe3333a0c9b79046>@@AAV<lambda_da44e0f8b0f19ba52fefafb335991732>@@V<lambda_207f2d024fc103971653565357d6cd41>@@@?$__crt_seh_guarded_call@X@@QAEX$$QAV<lambda_15ade71b0218206bbe3333a0c9b79046>@@AAV<lambda_da44e0f8b0f19ba52fefafb335991732>@@$$QAV<lambda_207f2d024fc103971653565357d6cd41>@@@Z 1001411c f   libucrt:per_thread_data.obj
 0001:0001316e       ??$?RV<lambda_38edbb1296d33220d7e4dd0ed76b244a>@@AAV<lambda_5ce1d447e08cb34b2473517608e21441>@@V<lambda_fb385d3da700c9147fc39e65dd577a8c>@@@?$__crt_seh_guarded_call@X@@QAEX$$QAV<lambda_38edbb1296d33220d7e4dd0ed76b244a>@@AAV<lambda_5ce1d447e08cb34b2473517608e21441>@@$$QAV<lambda_fb385d3da700c9147fc39e65dd577a8c>@@@Z 1001416e f   libucrt:per_thread_data.obj
 0001:000131d9       ??$?RV<lambda_6affb1475c98b40b75cdec977db92e3c>@@AAV<lambda_b8d4b9c228a6ecc3f80208dbb4b4a104>@@V<lambda_608742c3c92a14382c1684fc64f96c88>@@@?$__crt_seh_guarded_call@X@@QAEX$$QAV<lambda_6affb1475c98b40b75cdec977db92e3c>@@AAV<lambda_b8d4b9c228a6ecc3f80208dbb4b4a104>@@$$QAV<lambda_608742c3c92a14382c1684fc64f96c88>@@@Z 100141d9 f   libucrt:per_thread_data.obj
 0001:0001322e       ??$?RV<lambda_a7e850c220f1c8d1e6efeecdedd162c6>@@AAV<lambda_46720907175c18b6c9d2717bc0d2d362>@@V<lambda_9048902d66e8d99359bc9897bbb930a8>@@@?$__crt_seh_guarded_call@X@@QAEX$$QAV<lambda_a7e850c220f1c8d1e6efeecdedd162c6>@@AAV<lambda_46720907175c18b6c9d2717bc0d2d362>@@$$QAV<lambda_9048902d66e8d99359bc9897bbb930a8>@@@Z 1001422e f   libucrt:per_thread_data.obj
 0001:00013288       ?construct_ptd@@YAXQAU__acrt_ptd@@QAPAU__crt_locale_data@@@Z 10014288 f   libucrt:per_thread_data.obj
 0001:00013321       ?destroy_fls@@YGXPAX@Z     10014321 f   libucrt:per_thread_data.obj
 0001:00013342       ?destroy_ptd@@YAXQAU__acrt_ptd@@@Z 10014342 f   libucrt:per_thread_data.obj
 0001:0001340f       ?replace_current_thread_locale_nolock@@YAXQAU__acrt_ptd@@QAU__crt_locale_data@@@Z 1001440f f   libucrt:per_thread_data.obj
 0001:0001381f       ?try_get_AreFileApisANSI@@YAP6GHXZXZ 1001481f f   libucrt:winapi_thunks.obj
 0001:00013839       ?try_get_LCMapStringEx@@YAP6GHPB_WK0HPA_WHPAU_nlsversioninfo@@PAXJ@ZXZ 10014839 f   libucrt:winapi_thunks.obj
 0001:00013853       ?try_get_LocaleNameToLCID@@YAP6GKPB_WK@ZXZ 10014853 f   libucrt:winapi_thunks.obj
 0001:0001386d       ?try_get_first_available_module@@YAPAUHINSTANCE__@@QBW4module_id@?A0x391cf84c@@0@Z 1001486d f   libucrt:winapi_thunks.obj
 0001:00013934       ?try_get_function@@YAPAXW4function_id@?A0x391cf84c@@QBDQBW4module_id@2@2@Z 10014934 f   libucrt:winapi_thunks.obj
 0001:00014097       ?fe_to_nearest@@YA_NQBN_KF@Z 10015097 f   libucrt:cvt.obj
 0001:0001413a       ?fp_format_a@@YAHQBNPADIQADIH_NIQAU__crt_locale_pointers@@W4__acrt_rounding_mode@@@Z 1001513a f   libucrt:cvt.obj
 0001:00014449       ?fp_format_e@@YAHQBNQADI1IH_NIQAU__crt_locale_pointers@@W4__acrt_rounding_mode@@@Z 10015449 f   libucrt:cvt.obj
 0001:000144f1       ?fp_format_e_internal@@YAHQADIH_NIQAU_strflt@@1QAU__crt_locale_pointers@@@Z 100154f1 f   libucrt:cvt.obj
 0001:00014639       ?fp_format_f@@YAHQBNQADI1IHQAU__crt_locale_pointers@@W4__acrt_rounding_mode@@@Z 10015639 f   libucrt:cvt.obj
 0001:000146ca       ?fp_format_f_internal@@YAHQADIHQAU_strflt@@_NQAU__crt_locale_pointers@@@Z 100156ca f   libucrt:cvt.obj
 0001:000147c2       ?fp_format_g@@YAHQBNQADI1IH_NIQAU__crt_locale_pointers@@@Z 100157c2 f   libucrt:cvt.obj
 0001:0001488b       ?fp_format_nan_or_infinity@@YAHW4__acrt_fp_class@@_NPADI1@Z 1001588b f   libucrt:cvt.obj
 0001:00014920       ?shift_bytes@@YAXQADI0H@Z  10015920 f   libucrt:cvt.obj
 0001:00014954       ?should_round_up@@YA_NQBN_KFW4__acrt_rounding_mode@@@Z 10015954 f   libucrt:cvt.obj
 0001:00014cbd       ??$?RV<lambda_e5124f882df8998aaf41531e079ba474>@@AAV<lambda_3e16ef9562a7dcce91392c22ab16ea36>@@V<lambda_e25ca0880e6ef98be67edffd8c599615>@@@?$__crt_seh_guarded_call@X@@QAEX$$QAV<lambda_e5124f882df8998aaf41531e079ba474>@@AAV<lambda_3e16ef9562a7dcce91392c22ab16ea36>@@$$QAV<lambda_e25ca0880e6ef98be67edffd8c599615>@@@Z 10015cbd f   libucrt:wsetlocale.obj
 0001:00014d5d       ?initialize_inherited_file_handles_nolock@@YAXXZ 10015d5d f   libucrt:ioinit.obj
 0001:00014e13       ?initialize_stdio_handles_nolock@@YAXXZ 10015e13 f   libucrt:ioinit.obj
 0001:00015024       ?<lambda_invoker_cdecl>@<lambda_838c7f62c73c983481e27c09e84b0b5d>@@CAHPBX0@Z 10016024 f   libucrt:argv_wildcards.obj
 0001:0001503c       ??$__acrt_convert_wcs_mbs_cp@D_WV<lambda_62f6974d9771e494a5ea317cc32e971c>@@U__crt_win32_buffer_internal_dynamic_resizing@@@@YAHQBDAAV?$__crt_win32_buffer@_WU__crt_win32_buffer_internal_dynamic_resizing@@@@ABV<lambda_62f6974d9771e494a5ea317cc32e971c>@@I@Z 1001603c f   libucrt:argv_wildcards.obj
 0001:000150ee       ??$__acrt_convert_wcs_mbs_cp@_WDV<lambda_28bda7af82a03b66c1cb3803a755f95d>@@U__crt_win32_buffer_internal_dynamic_resizing@@@@YAHQB_WAAV?$__crt_win32_buffer@DU__crt_win32_buffer_internal_dynamic_resizing@@@@ABV<lambda_28bda7af82a03b66c1cb3803a755f95d>@@I@Z 100160ee f   libucrt:argv_wildcards.obj
 0001:000151da       ??$common_expand_argv_wildcards@D@@YAHQAPADQAPAPAD@Z 100161da f   libucrt:argv_wildcards.obj
 0001:000153c9       ??$copy_and_add_argument_to_buffer@D@@YAHQBD0IAAV?$argument_list@D@?A0x5f5c8891@@@Z 100163c9 f   libucrt:argv_wildcards.obj
 0001:0001547a       ??$expand_argument_wildcards@D@@YAHQAD0AAV?$argument_list@D@?A0x5f5c8891@@@Z 1001647a f   libucrt:argv_wildcards.obj
 0001:000157c4       ?expand_if_necessary@?$argument_list@D@?A0x5f5c8891@@AAEHXZ 100167c4 f   libucrt:argv_wildcards.obj
 0001:00015856       ??$__acrt_convert_wcs_mbs_cp@_WDV<lambda_0fec1a7b3f42a53036604e18c2d5e07e>@@U__crt_win32_buffer_no_resizing@@@@YAHQB_WAAV?$__crt_win32_buffer@DU__crt_win32_buffer_no_resizing@@@@ABV<lambda_0fec1a7b3f42a53036604e18c2d5e07e>@@I@Z 10016856 f   libucrt:getmodulefilenamea.obj
 0001:000159f9       ??$?RV<lambda_ceb1ee4838e85a9d631eb091e2fbe199>@@AAV<lambda_ae742caa10f662c28703da3d2ea5e57e>@@V<lambda_cd08b5d6af4937fe54fc07d0c9bf6b37>@@@?$__crt_seh_guarded_call@X@@QAEX$$QAV<lambda_ceb1ee4838e85a9d631eb091e2fbe199>@@AAV<lambda_ae742caa10f662c28703da3d2ea5e57e>@@$$QAV<lambda_cd08b5d6af4937fe54fc07d0c9bf6b37>@@@Z 100169f9 f   libucrt:mbctype.obj
 0001:00015a46       ??R<lambda_ae742caa10f662c28703da3d2ea5e57e>@@QBEXXZ 10016a46 f   libucrt:mbctype.obj
 0001:00015ac9       ?CPtoLocaleName@@YAPB_WH@Z 10016ac9 f   libucrt:mbctype.obj
 0001:00015b07       ?getSystemCP@@YAHH@Z       10016b07 f   libucrt:mbctype.obj
 0001:00015b78       ?setSBCS@@YAXPAU__crt_multibyte_data@@@Z 10016b78 f   libucrt:mbctype.obj
 0001:00015bdd       ?setSBUpLow@@YAXPAU__crt_multibyte_data@@@Z 10016bdd f   libucrt:mbctype.obj
 0001:00015d5d       ?setmbcp_internal@@YAHH_NQAU__acrt_ptd@@QAPAU__crt_multibyte_data@@@Z 10016d5d f   libucrt:mbctype.obj
 0001:00015e71       ?update_thread_multibyte_data_internal@@YAPAU__crt_multibyte_data@@QAU__acrt_ptd@@QAPAU1@@Z 10016e71 f   libucrt:mbctype.obj
 0001:0001615f       _memcpy_s                  1001715f f   libucrt:cfout.obj
 0001:0001615f       _memcpy_s                  1001715f f   libucrt:mbctype.obj
 0001:000161e0       ?x_ismbbtype_l@@YAHPAU__crt_locale_pointers@@IHH@Z 100171e0 f   libucrt:ismbbyte.obj
 0001:0001639b       ?find_end_of_double_null_terminated_sequence@@YAPB_WQB_W@Z 1001739b f   libucrt:get_environment_from_os.obj
 0001:0001650a       ??$?RV<lambda_cbab9ec6f41b0180b23cc171c22676b0>@@AAV<lambda_44731a7d0e6d81c3e6aa82d741081786>@@V<lambda_4b292cb8dd18144e164572427af410ab>@@@?$__crt_seh_guarded_call@P6AXH@Z@@QAEP6AXH@Z$$QAV<lambda_cbab9ec6f41b0180b23cc171c22676b0>@@AAV<lambda_44731a7d0e6d81c3e6aa82d741081786>@@$$QAV<lambda_4b292cb8dd18144e164572427af410ab>@@@Z 1001750a f   libucrt:signal.obj
 0001:0001656e       ?get_global_action_nolock@@YAPAP6AXH@ZH@Z 1001756e f   libucrt:signal.obj
 0001:000165b0       ?siglookup@@YAPAU__crt_signal_action_t@@HQAU1@@Z 100175b0 f   libucrt:signal.obj
 0001:00016869       ??$?RV<lambda_2866be3712abc81a800a822484c830d8>@@AAV<lambda_39ca0ed439415581b5b15c265174cece>@@V<lambda_2b24c74d71094a6cd0cb82e44167d71b>@@@?$__crt_seh_guarded_call@X@@QAEX$$QAV<lambda_2866be3712abc81a800a822484c830d8>@@AAV<lambda_39ca0ed439415581b5b15c265174cece>@@$$QAV<lambda_2b24c74d71094a6cd0cb82e44167d71b>@@@Z 10017869 f   libucrt:fflush.obj
 0001:000168f5       ??$?RV<lambda_2cc53f568c5a2bb6f192f930a45d44ea>@@AAV<lambda_ab61a845afdef5b7c387490eaf3616ee>@@V<lambda_c2ffc0b7726aa6be21d5f0026187e748>@@@?$__crt_seh_guarded_call@X@@QAEX$$QAV<lambda_2cc53f568c5a2bb6f192f930a45d44ea>@@AAV<lambda_ab61a845afdef5b7c387490eaf3616ee>@@$$QAV<lambda_c2ffc0b7726aa6be21d5f0026187e748>@@@Z 100178f5 f   libucrt:fflush.obj
 0001:000169a1       ?common_flush_all@@YAH_N@Z 100179a1 f   libucrt:fflush.obj
 0001:000169ee       ?common_flush_all_should_try_to_flush_stream@@YA_NV__crt_stdio_stream@@QAH@Z 100179ee f   libucrt:fflush.obj
 0001:00016a21       ?is_stream_flushable_or_commitable@@YA_NJ@Z 10017a21 f   libucrt:fflush.obj
 0001:00016f2a       ?GetTableIndexFromLocaleName@@YAHPB_W@Z 10017f2a f   libucrt:lcidtoname_downlevel.obj
 0001:00016fe0       ??R<lambda_3d301b9e52f5099be73030e1f0bf487e>@@QBEIPBD@Z 10017fe0 f   libucrt:mbrtowc.obj
 0001:00017166       ?should_round_up@@YA_NQBDHW4__acrt_has_trailing_digits@@W4__acrt_rounding_mode@@@Z 10018166 f   libucrt:_fptostr.obj
 0001:00018f04       ?free_crt_array_internal@@YAXQAPBXI@Z 10019f04 f   libucrt:inittime.obj
 0001:000198ce       ??$common_tcsncpy_s@D@@YAHQADIQBDI@Z 1001a8ce f   libucrt:strncpy_s.obj
 0001:00019990       $$000000                   1001a990     libucrt:strpbrk.obj
 0001:00019a74       ?__acrt_LCMapStringA_stat@@YAHPAU__crt_locale_pointers@@PB_WKPBDHPADHHH@Z 1001aa74 f   libucrt:lcmapstringa.obj
 0001:00019ca7       ?initialize_multibyte@@YAHXZ 1001aca7 f   libucrt:multibyte_initializer.obj
 0001:00019cb6       ??$?RV<lambda_9e9de3de5fa147e2223d7db92bc10aa6>@@AAV<lambda_38ce7e780aa69e748d6df282ebc68efe>@@V<lambda_8ca6da459f0f6780f1cff60fdc3d00e5>@@@?$__crt_seh_guarded_call@H@@QAEH$$QAV<lambda_9e9de3de5fa147e2223d7db92bc10aa6>@@AAV<lambda_38ce7e780aa69e748d6df282ebc68efe>@@$$QAV<lambda_8ca6da459f0f6780f1cff60fdc3d00e5>@@@Z 1001acb6 f   libucrt:commit.obj
 0001:00019dd5       ?write_double_translated_ansi_nolock@@YA?AUwrite_result@?A0x17268360@@HQBDI@Z 1001add5 f   libucrt:write.obj
 0001:0001a181       ?write_double_translated_unicode_nolock@@YA?AUwrite_result@?A0x17268360@@QBDI@Z 1001b181 f   libucrt:write.obj
 0001:0001a1e9       ?write_requires_double_translation_nolock@@YA_NH@Z 1001b1e9 f   libucrt:write.obj
 0001:0001a25a       ?write_text_ansi_nolock@@YA?AUwrite_result@?A0x17268360@@HQBDI@Z 1001b25a f   libucrt:write.obj
 0001:0001a335       ?write_text_utf16le_nolock@@YA?AUwrite_result@?A0x17268360@@HQBDI@Z 1001b335 f   libucrt:write.obj
 0001:0001a41e       ?write_text_utf8_nolock@@YA?AUwrite_result@?A0x17268360@@HQBDI@Z 1001b41e f   libucrt:write.obj
 0001:0001ab40       $$000000                   1001bb40     libucrt:log10_impl.obj
 0001:0001ac50       $$000000                   1001bc50     libucrt:ceil_pentium4.obj
 0001:0001ad6d       ?to_abstract_control@@YA?AW4__acrt_fenv_abstract_control@@W4__acrt_fenv_machine_sse_control@@@Z 1001bd6d f   libucrt:_fenvutils.obj
 0001:0001ae29       ?to_abstract_control@@YA?AW4__acrt_fenv_abstract_control@@W4__acrt_fenv_machine_x87_control@@@Z 1001be29 f   libucrt:_fenvutils.obj
 0001:0001aee2       ?to_machine_sse_control@@YA?AW4__acrt_fenv_machine_sse_control@@W4__acrt_fenv_abstract_control@@@Z 1001bee2 f   libucrt:_fenvutils.obj
 0001:0001afaf       ?to_machine_x87_control@@YA?AW4__acrt_fenv_machine_x87_control@@W4__acrt_fenv_abstract_control@@@Z 1001bfaf f   libucrt:_fenvutils.obj
 0001:0001b343       ??$common_lseek_nolock@_J@@YA_JH_JH@Z 1001c343 f   libucrt:lseek.obj
 0001:0001b529       ___hw_cw_sse2              1001c529 f   libucrt:ieee87.obj
 0001:0001b9af       __hw_cw                    1001c9af f   libucrt:ieee87.obj
 0001:0001ba60       $$000000                   1001ca60     libucrt:log10_pentium4.obj
 0001:0001bcf0       $$000000                   1001ccf0     libucrt:87tran.obj
 0001:0001bf00       $$000000                   1001cf00     libucrt:87disp.obj
 0001:0001c160       $$000000                   1001d160     libucrt:common.obj
 0001:0001c2f0       $$000000                   1001d2f0     libucrt:genexcep.obj
 0001:0001c5ec       ??$?RV<lambda_218ce3db14220d0be481dae8ef3383b6>@@AAV<lambda_628dfdc04ba53c8bfc02c9951375f3f5>@@V<lambda_57dc472bd5c9d5f3b2cbca59b8a843ae>@@@?$__crt_seh_guarded_call@H@@QAEH$$QAV<lambda_218ce3db14220d0be481dae8ef3383b6>@@AAV<lambda_628dfdc04ba53c8bfc02c9951375f3f5>@@$$QAV<lambda_57dc472bd5c9d5f3b2cbca59b8a843ae>@@@Z 1001d5ec f   libucrt:close.obj
 0001:0001c7e0       $$000000                   1001d7e0     libucrt:_strnicm.obj
 0001:0001c841       ?__dcrt_lowio_initialize_console_output@@YAXXZ 1001d841 f   libucrt:initcon.obj
 0001:0001d720       $$000000                   1001e720     LIBCMT:ulldvrm.obj
 0001:0001d7c0       $$000000                   1001e7c0     LIBCMT:llmul.obj
 0001:0001d800       $$000000                   1001e800     LIBCMT:lldvrm.obj
 0001:0001d8e0       $$000000                   1001e8e0     LIBCMT:llshl.obj
 0001:0001d900       $$000000                   1001e900     LIBCMT:ullshr.obj
 0001:0001d920       $$000000                   1001e920     LIBCMT:ftol2.obj
 0001:0001dbc0       $$000000                   1001ebc0     libvcruntime:strrchr.obj
 0001:0001dd00       $$000000                   1001ed00     libvcruntime:strchr.obj
 0001:0001dea3       __ehhandler$??2@YAPAXIABUnothrow_t@std@@@Z 1001eea3 f   LIBCMT:new_scalar_nothrow.obj
 0001:0001dec0       __ehhandler$?CallUnexpected@@YAXPBU_s_ESTypeList@@@Z 1001eec0 f   libvcruntime:frame.obj
 0001:0001dedd       ??__F_AtlComModule@ATL@@YAXXZ 1001eedd f   OposVariant.obj
 0001:0001dee7       ??__F_AtlWinModule@ATL@@YAXXZ 1001eee7 f   OposVariant.obj
 0001:0001df01       ??__F_Module@@YAXXZ        1001ef01 f   Lights.obj
 0001:0001df15       ??__F_AtlBaseModule@ATL@@YAXXZ 1001ef15 f   atls:atlbase.obj
 0002:00000304       ?_AtlBaseModule$initializer$@ATL@@3P6AXXZA 1001f304     atls:atlbase.obj
 0002:00000308       ?_AtlComModule$initializer$@ATL@@3P6AXXZA 1001f308     OposVariant.obj
 0002:0000030c       ?_AtlWinModule$initializer$@ATL@@3P6AXXZA 1001f30c     OposVariant.obj
 0002:00000310       ?_Module$initializer$@@3P6AXXZA 1001f310     Lights.obj
 0002:00000314       ??pConnMap$initializer$@?$IConnectionPointContainerImpl@VCOPOSLights@@@ATL@@0P6AXXZA@@3P6AXXZA 1001f314     Lights.obj
 0002:00000320       ?__scrt_initialize_tss_var@@3P6AHXZA 1001f320     LIBCMT:thread_safe_statics.obj
 0002:00001738       _GS_ExceptionPointers      10020738     LIBCMT:gs_report.obj
 0002:000018c8       ?tokenTable@@3QBUStringLiteral@@B 100208c8     libvcruntime:undname.obj
 0002:00001948       ?nameTable@@3QBUStringLiteral@@B 10020948     libvcruntime:undname.obj
 0002:00001be0       ?rttiTable@@3QBUStringLiteral@@B 10020be0     libvcruntime:undname.obj
 0002:00001c08       ?IndirectionName@@3QBUStringLiteral@@B 10020c08     libvcruntime:undname.obj
 0002:00001c38       ?PrefixName@@3QBUStringLiteral@@B 10020c38     libvcruntime:undname.obj
 0002:00002268       ?module_names@?A0xb97aeec8@@3QBQB_WB 10021268     libvcruntime:winapi_downlevel.obj
 0002:00002310       ?candidate_modules@?1??try_get_FlsAlloc@@YAP6GKP6GXPAX@Z@ZXZ@4QBW4module_id@?A0xb97aeec8@@B 10021310     libvcruntime:winapi_downlevel.obj
 0002:00002324       ?candidate_modules@?1??try_get_FlsFree@@YAP6GHK@ZXZ@4QBW4module_id@?A0xb97aeec8@@B 10021324     libvcruntime:winapi_downlevel.obj
 0002:00002334       ?candidate_modules@?1??try_get_FlsGetValue@@YAP6GPAXK@ZXZ@4QBW4module_id@?A0xb97aeec8@@B 10021334     libvcruntime:winapi_downlevel.obj
 0002:00002348       ?candidate_modules@?1??try_get_FlsSetValue@@YAP6GHKPAX@ZXZ@4QBW4module_id@?A0xb97aeec8@@B 10021348     libvcruntime:winapi_downlevel.obj
 0002:0000235c       ?candidate_modules@?1??try_get_InitializeCriticalSectionEx@@YAP6GHPAU_RTL_CRITICAL_SECTION@@KK@ZXZ@4QBW4module_id@?A0xb97aeec8@@B 1002135c     libvcruntime:winapi_downlevel.obj
 0002:00002380       ?errtable@@3QBUerrentry@?A0x31fdb9ec@@B 10021380     libucrt:errno.obj
 0002:000029c8       ___acrt_initializers       100219c8     libucrt:initialization.obj
 0002:00002a48       ?module_names@?A0x391cf84c@@3QBQB_WB 10021a48     libucrt:winapi_thunks.obj
 0002:00002ec0       ?candidate_modules@?1??try_get_AreFileApisANSI@@YAP6GHXZXZ@4QBW4module_id@?A0x391cf84c@@B 10021ec0     libucrt:winapi_thunks.obj
 0002:00002ed4       ?candidate_modules@?1??try_get_FlsAlloc@@YAP6GKP6GXPAX@Z@ZXZ@4QBW4module_id@?A0x391cf84c@@B 10021ed4     libucrt:winapi_thunks.obj
 0002:00002edc       ?candidate_modules@?1??try_get_FlsFree@@YAP6GHK@ZXZ@4QBW4module_id@?A0x391cf84c@@B 10021edc     libucrt:winapi_thunks.obj
 0002:00002ee4       ?candidate_modules@?1??try_get_FlsGetValue@@YAP6GPAXK@ZXZ@4QBW4module_id@?A0x391cf84c@@B 10021ee4     libucrt:winapi_thunks.obj
 0002:00002eec       ?candidate_modules@?1??try_get_FlsSetValue@@YAP6GHKPAX@ZXZ@4QBW4module_id@?A0x391cf84c@@B 10021eec     libucrt:winapi_thunks.obj
 0002:00002ef4       ?candidate_modules@?1??try_get_InitializeCriticalSectionEx@@YAP6GHPAU_RTL_CRITICAL_SECTION@@KK@ZXZ@4QBW4module_id@?A0x391cf84c@@B 10021ef4     libucrt:winapi_thunks.obj
 0002:00002efc       ?candidate_modules@?1??try_get_LCMapStringEx@@YAP6GHPB_WK0HPA_WHPAU_nlsversioninfo@@PAXJ@ZXZ@4QBW4module_id@?A0x391cf84c@@B 10021efc     libucrt:winapi_thunks.obj
 0002:00002f14       ?candidate_modules@?1??try_get_LocaleNameToLCID@@YAP6GKPB_WK@ZXZ@4QBW4module_id@?A0x391cf84c@@B 10021f14     libucrt:winapi_thunks.obj
 0002:00002f30       ?candidate_modules@?1??try_get_AppPolicyGetProcessTerminationMethod@@YAP6GJPAXPAW4AppPolicyProcessTerminationMethod@@@ZXZ@4QBW4module_id@?A0x391cf84c@@B 10021f30     libucrt:winapi_thunks.obj
 0002:00002f5c       ?candidate_modules@?1??try_get_SetThreadStackGuarantee@@YAP6GHPAK@ZXZ@4QBW4module_id@?A0x391cf84c@@B 10021f5c     libucrt:winapi_thunks.obj
 0002:00002f80       ?strings@?1??fp_format_nan_or_infinity@@YAHW4__acrt_fp_class@@_NPADI1@Z@4QAY03QBDA 10021f80     libucrt:cvt.obj
 0002:000034c8       ?_mb_locale_names@@3QBQB_WB 100224c8     libucrt:mbctype.obj
 0002:00003d10       ?LcidToLocaleNameTable@?A0x881e4c05@@3QBULcidToLocaleName@1@B 10022d10     libucrt:lcidtoname_downlevel.obj
 0002:00004e38       ?LocaleNameToIndexTable@?A0x881e4c05@@3QBULocaleNameIndex@1@B 10023e38     libucrt:lcidtoname_downlevel.obj
 0002:00006770       LOG_name                   10025770     libucrt:log10_impl.obj
 0002:00006780       _One                       10025780     libucrt:ceil_pentium4.obj
 0002:00006790       _Bns                       10025790     libucrt:ceil_pentium4.obj
 0002:000067a0       _Zero                      100257a0     libucrt:ceil_pentium4.obj
 0002:000067b0       _S                         100257b0     libucrt:ceil_pentium4.obj
 0002:000067c0       _NegZero                   100257c0     libucrt:ceil_pentium4.obj
 0002:000067d0       emask                      100257d0     libucrt:log10_pentium4.obj
 0002:000067e0       CC                         100257e0     libucrt:log10_pentium4.obj
 0002:000067f0       Magic                      100257f0     libucrt:log10_pentium4.obj
 0002:00006800       hi_mask                    10025800     libucrt:log10_pentium4.obj
 0002:00006810       LOG10_2                    10025810     libucrt:log10_pentium4.obj
 0002:00006820       place_L                    10025820     libucrt:log10_pentium4.obj
 0002:00006840       One                        10025840     libucrt:log10_pentium4.obj
 0002:00006850       Zero                       10025850     libucrt:log10_pentium4.obj
 0002:00006860       Two52                      10025860     libucrt:log10_pentium4.obj
 0002:00006870       Infs                       10025870     libucrt:log10_pentium4.obj
 0002:00006880       NaN                        10025880     libucrt:log10_pentium4.obj
 0002:00006890       coeff                      10025890     libucrt:log10_pentium4.obj
 0002:000068ee       _log2max                   100258ee     libucrt:87tran.obj
 0002:000068f8       _smallarg                  100258f8     libucrt:87tran.obj
 0002:00006902       _half                      10025902     libucrt:87tran.obj
 0002:0000694e       One                        1002594e     libucrt:87disp.obj
 0002:00006956       Three                      10025956     libucrt:87disp.obj
 0002:0000695e       XAMtoTagTab                1002595e     libucrt:87disp.obj
 0002:00006970       One                        10025970     libucrt:common.obj
 0002:00006984       DblMax                     10025984     libucrt:common.obj
 0002:0000698c       DblMin                     1002598c     libucrt:common.obj
 0002:00006994       IeeeAdjO                   10025994     libucrt:common.obj
 0002:0000699c       IeeeAdjU                   1002599c     libucrt:common.obj
 0002:000069a4       _infinity                  100259a4     libucrt:common.obj
 0002:000069ac       _zero                      100259ac     libucrt:common.obj
 0002:000069f8       _over                      100259f8     libucrt:fpctrl.obj
 0002:00006a04       _under                     10025a04     libucrt:fpctrl.obj
 0002:00007238       ?_names@?1??_get_fname@@9@9 10026238     libucrt:fpexcept.obj
 0002:000073e0       two32                      100263e0     LIBCMT:ftol2.obj
 0002:000073e4       two63                      100263e4     LIBCMT:ftol2.obj
 0002:000073e8       _NaN                       100263e8     LIBCMT:ftol2.obj
 0002:00007aa8       __sehtable$?_AtlVerifyStackAvailable@_ATL_SAFE_ALLOCA_IMPL@ATL@@YA_NK@Z 10026aa8     Lights.obj
 0002:00007ac8       __sehtable$___scrt_is_nonwritable_in_current_image 10026ac8     LIBCMT:utility.obj
 0002:00007ae4       __catchsym$??2@YAPAXIABUnothrow_t@std@@@Z$2 10026ae4     LIBCMT:new_scalar_nothrow.obj
 0002:00007af4       __unwindtable$??2@YAPAXIABUnothrow_t@std@@@Z 10026af4     LIBCMT:new_scalar_nothrow.obj
 0002:00007b04       __tryblocktable$??2@YAPAXIABUnothrow_t@std@@@Z 10026b04     LIBCMT:new_scalar_nothrow.obj
 0002:00007b18       __ehfuncinfo$??2@YAPAXIABUnothrow_t@std@@@Z 10026b18     LIBCMT:new_scalar_nothrow.obj
 0002:00007b40       __sehtable$?dllmain_crt_process_attach@@YAHQAUHINSTANCE__@@QAX@Z 10026b40     LIBCMT:dll_dllmain.obj
 0002:00007b60       __sehtable$?dllmain_crt_process_detach@@YAH_N@Z 10026b60     LIBCMT:dll_dllmain.obj
 0002:00007b88       __sehtable$?dllmain_dispatch@@YAHQAUHINSTANCE__@@KQAX@Z 10026b88     LIBCMT:dll_dllmain.obj
 0002:00007c38       __sehtable$___DestructExceptionObject 10026c38     libvcruntime:ehhelpers.obj
 0002:00007c58       __sehtable$?FrameUnwindToState@__FrameHandler3@@SAXPAUEHRegistrationNode@@PAXPBU_s_FuncInfo@@H@Z 10026c58     libvcruntime:frame.obj
 0002:00007c80       __sehtable$?CallCatchBlock@@YAPAXPAUEHExceptionRecord@@PAUEHRegistrationNode@@PAU_CONTEXT@@PBU_s_FuncInfo@@PAXHK@Z 10026c80     libvcruntime:frame.obj
 0002:00007ca8       __catchsym$?CallUnexpected@@YAXPBU_s_ESTypeList@@@Z$2 10026ca8     libvcruntime:frame.obj
 0002:00007cb8       __unwindtable$?CallUnexpected@@YAXPBU_s_ESTypeList@@@Z 10026cb8     libvcruntime:frame.obj
 0002:00007cc8       __tryblocktable$?CallUnexpected@@YAXPBU_s_ESTypeList@@@Z 10026cc8     libvcruntime:frame.obj
 0002:00007cdc       __ehfuncinfo$?CallUnexpected@@YAXPBU_s_ESTypeList@@@Z 10026cdc     libvcruntime:frame.obj
 0002:00007d00       __sehtable$??$BuildCatchObjectHelperInternal@V__FrameHandler3@@@@YAHPAUEHExceptionRecord@@PAXPBU_s_HandlerType@@PBU_s_CatchableType@@@Z 10026d00     libvcruntime:frame.obj
 0002:00007d20       __sehtable$??$BuildCatchObjectInternal@V__FrameHandler3@@@@YAXPAUEHExceptionRecord@@PAXPBU_s_HandlerType@@PBU_s_CatchableType@@@Z 10026d20     libvcruntime:frame.obj
 0002:00007d78       __sehtable$??R<lambda_6e4b09c48022b2350581041d5f6b0c4c>@@QBE@XZ 10026d78     libucrt:exit.obj
 0002:00007d98       __sehtable$??$?RV<lambda_03b1d95aef87969028cfba75ccab2455>@@AAV<lambda_6e4b09c48022b2350581041d5f6b0c4c>@@V<lambda_22bdf7517842c4b3e53723af5aa32b9e>@@@?$__crt_seh_guarded_call@X@@QAEX$$QAV<lambda_03b1d95aef87969028cfba75ccab2455>@@AAV<lambda_6e4b09c48022b2350581041d5f6b0c4c>@@$$QAV<lambda_22bdf7517842c4b3e53723af5aa32b9e>@@@Z 10026d98     libucrt:exit.obj
 0002:00007db8       __sehtable$??$?RV<lambda_8e746cf0007f6ed984d6f78af1fec997>@@AAV<lambda_22ebabd17bc4fa466a2aca6d8deb888d>@@V<lambda_18ed0c0b38a6dc0daf1e7ac6d6adf05e>@@@?$__crt_seh_guarded_call@H@@QAEH$$QAV<lambda_8e746cf0007f6ed984d6f78af1fec997>@@AAV<lambda_22ebabd17bc4fa466a2aca6d8deb888d>@@$$QAV<lambda_18ed0c0b38a6dc0daf1e7ac6d6adf05e>@@@Z 10026db8     libucrt:onexit.obj
 0002:00007dd8       __sehtable$??$?RV<lambda_69a2805e680e0e292e8ba93315fe43a8>@@AAV<lambda_f03950bc5685219e0bcd2087efbe011e>@@V<lambda_03fcd07e894ec930e3f35da366ca99d6>@@@?$__crt_seh_guarded_call@H@@QAEH$$QAV<lambda_69a2805e680e0e292e8ba93315fe43a8>@@AAV<lambda_f03950bc5685219e0bcd2087efbe011e>@@$$QAV<lambda_03fcd07e894ec930e3f35da366ca99d6>@@@Z 10026dd8     libucrt:onexit.obj
 0002:00007df8       __sehtable$__query_new_handler 10026df8     libucrt:new_handler.obj
 0002:00007e18       __sehtable$_terminate      10026e18     libucrt:terminate.obj
 0002:00007e38       __sehtable$??$?RV<lambda_15ade71b0218206bbe3333a0c9b79046>@@AAV<lambda_da44e0f8b0f19ba52fefafb335991732>@@V<lambda_207f2d024fc103971653565357d6cd41>@@@?$__crt_seh_guarded_call@X@@QAEX$$QAV<lambda_15ade71b0218206bbe3333a0c9b79046>@@AAV<lambda_da44e0f8b0f19ba52fefafb335991732>@@$$QAV<lambda_207f2d024fc103971653565357d6cd41>@@@Z 10026e38     libucrt:per_thread_data.obj
 0002:00007e58       __sehtable$??$?RV<lambda_a7e850c220f1c8d1e6efeecdedd162c6>@@AAV<lambda_46720907175c18b6c9d2717bc0d2d362>@@V<lambda_9048902d66e8d99359bc9897bbb930a8>@@@?$__crt_seh_guarded_call@X@@QAEX$$QAV<lambda_a7e850c220f1c8d1e6efeecdedd162c6>@@AAV<lambda_46720907175c18b6c9d2717bc0d2d362>@@$$QAV<lambda_9048902d66e8d99359bc9897bbb930a8>@@@Z 10026e58     libucrt:per_thread_data.obj
 0002:00007e78       __sehtable$??$?RV<lambda_38edbb1296d33220d7e4dd0ed76b244a>@@AAV<lambda_5ce1d447e08cb34b2473517608e21441>@@V<lambda_fb385d3da700c9147fc39e65dd577a8c>@@@?$__crt_seh_guarded_call@X@@QAEX$$QAV<lambda_38edbb1296d33220d7e4dd0ed76b244a>@@AAV<lambda_5ce1d447e08cb34b2473517608e21441>@@$$QAV<lambda_fb385d3da700c9147fc39e65dd577a8c>@@@Z 10026e78     libucrt:per_thread_data.obj
 0002:00007e98       __sehtable$??$?RV<lambda_6affb1475c98b40b75cdec977db92e3c>@@AAV<lambda_b8d4b9c228a6ecc3f80208dbb4b4a104>@@V<lambda_608742c3c92a14382c1684fc64f96c88>@@@?$__crt_seh_guarded_call@X@@QAEX$$QAV<lambda_6affb1475c98b40b75cdec977db92e3c>@@AAV<lambda_b8d4b9c228a6ecc3f80208dbb4b4a104>@@$$QAV<lambda_608742c3c92a14382c1684fc64f96c88>@@@Z 10026e98     libucrt:per_thread_data.obj
 0002:00007eb8       __sehtable$??$?RV<lambda_e5124f882df8998aaf41531e079ba474>@@AAV<lambda_3e16ef9562a7dcce91392c22ab16ea36>@@V<lambda_e25ca0880e6ef98be67edffd8c599615>@@@?$__crt_seh_guarded_call@X@@QAEX$$QAV<lambda_e5124f882df8998aaf41531e079ba474>@@AAV<lambda_3e16ef9562a7dcce91392c22ab16ea36>@@$$QAV<lambda_e25ca0880e6ef98be67edffd8c599615>@@@Z 10026eb8     libucrt:wsetlocale.obj
 0002:00007ed8       __sehtable$___acrt_initialize_lowio 10026ed8     libucrt:ioinit.obj
 0002:00007ef8       __sehtable$?update_thread_multibyte_data_internal@@YAPAU__crt_multibyte_data@@QAU__acrt_ptd@@QAPAU1@@Z 10026ef8     libucrt:mbctype.obj
 0002:00007f18       __sehtable$??$?RV<lambda_ceb1ee4838e85a9d631eb091e2fbe199>@@AAV<lambda_ae742caa10f662c28703da3d2ea5e57e>@@V<lambda_cd08b5d6af4937fe54fc07d0c9bf6b37>@@@?$__crt_seh_guarded_call@X@@QAEX$$QAV<lambda_ceb1ee4838e85a9d631eb091e2fbe199>@@AAV<lambda_ae742caa10f662c28703da3d2ea5e57e>@@$$QAV<lambda_cd08b5d6af4937fe54fc07d0c9bf6b37>@@@Z 10026f18     libucrt:mbctype.obj
 0002:00007f38       __sehtable$_raise          10026f38     libucrt:signal.obj
 0002:00007f58       __sehtable$??$?RV<lambda_cbab9ec6f41b0180b23cc171c22676b0>@@AAV<lambda_44731a7d0e6d81c3e6aa82d741081786>@@V<lambda_4b292cb8dd18144e164572427af410ab>@@@?$__crt_seh_guarded_call@P6AXH@Z@@QAEP6AXH@Z$$QAV<lambda_cbab9ec6f41b0180b23cc171c22676b0>@@AAV<lambda_44731a7d0e6d81c3e6aa82d741081786>@@$$QAV<lambda_4b292cb8dd18144e164572427af410ab>@@@Z 10026f58     libucrt:signal.obj
 0002:00007f78       __sehtable$??$?RV<lambda_2866be3712abc81a800a822484c830d8>@@AAV<lambda_39ca0ed439415581b5b15c265174cece>@@V<lambda_2b24c74d71094a6cd0cb82e44167d71b>@@@?$__crt_seh_guarded_call@X@@QAEX$$QAV<lambda_2866be3712abc81a800a822484c830d8>@@AAV<lambda_39ca0ed439415581b5b15c265174cece>@@$$QAV<lambda_2b24c74d71094a6cd0cb82e44167d71b>@@@Z 10026f78     libucrt:fflush.obj
 0002:00007f98       __sehtable$??$?RV<lambda_2cc53f568c5a2bb6f192f930a45d44ea>@@AAV<lambda_ab61a845afdef5b7c387490eaf3616ee>@@V<lambda_c2ffc0b7726aa6be21d5f0026187e748>@@@?$__crt_seh_guarded_call@X@@QAEX$$QAV<lambda_2cc53f568c5a2bb6f192f930a45d44ea>@@AAV<lambda_ab61a845afdef5b7c387490eaf3616ee>@@$$QAV<lambda_c2ffc0b7726aa6be21d5f0026187e748>@@@Z 10026f98     libucrt:fflush.obj
 0002:00007fb8       __sehtable$___acrt_update_thread_locale_data 10026fb8     libucrt:locale_refcounting.obj
 0002:00007fd8       __sehtable$__fcloseall     10026fd8     libucrt:closeall.obj
 0002:00007ff8       __sehtable$___acrt_lowio_ensure_fh_exists 10026ff8     libucrt:osfinfo.obj
 0002:00008018       __sehtable$??$?RV<lambda_9e9de3de5fa147e2223d7db92bc10aa6>@@AAV<lambda_38ce7e780aa69e748d6df282ebc68efe>@@V<lambda_8ca6da459f0f6780f1cff60fdc3d00e5>@@@?$__crt_seh_guarded_call@H@@QAEH$$QAV<lambda_9e9de3de5fa147e2223d7db92bc10aa6>@@AAV<lambda_38ce7e780aa69e748d6df282ebc68efe>@@$$QAV<lambda_8ca6da459f0f6780f1cff60fdc3d00e5>@@@Z 10027018     libucrt:commit.obj
 0002:00008038       __sehtable$__write         10027038     libucrt:write.obj
 0002:00008058       __sehtable$_fclose         10027058     libucrt:fclose.obj
 0002:00008078       __sehtable$??$?RV<lambda_218ce3db14220d0be481dae8ef3383b6>@@AAV<lambda_628dfdc04ba53c8bfc02c9951375f3f5>@@V<lambda_57dc472bd5c9d5f3b2cbca59b8a843ae>@@@?$__crt_seh_guarded_call@H@@QAEH$$QAV<lambda_218ce3db14220d0be481dae8ef3383b6>@@AAV<lambda_628dfdc04ba53c8bfc02c9951375f3f5>@@$$QAV<lambda_57dc472bd5c9d5f3b2cbca59b8a843ae>@@@Z 10027078     libucrt:close.obj
 0002:00008098       __sehtable$___set_fpsr_sse2 10027098     libucrt:fpctrl.obj
 0002:000080b8       __sehtable$__IsNonwritableInCurrentImage 100270b8     LIBCMT:pesect.obj
 0002:000080e0       .edata                     100270e0     OPOSLights.exp
 0002:00008108       rgpv                       10027108     OPOSLights.exp
 0002:00008118       rgszName                   10027118     OPOSLights.exp
 0002:00008128       rgwOrd                     10027128     OPOSLights.exp
 0002:00008130       szName                     10027130     OPOSLights.exp
 0002:0000813f       $N00001                    1002713f     OPOSLights.exp
 0002:0000814f       $N00002                    1002714f     OPOSLights.exp
 0002:00008161       $N00003                    10027161     OPOSLights.exp
 0002:00008173       $N00004                    10027173     OPOSLights.exp
 0002:00008782       .idata$6                   10027782     kernel32:KERNEL32.dll
 0002:00008996       .idata$6                   10027996     user32:USER32.dll
 0002:00008aca       .idata$6                   10027aca     gdi32:GDI32.dll
 0002:00008b70       .idata$6                   10027b70     advapi32:ADVAPI32.dll
 0002:00008c8c       .idata$6                   10027c8c     ole32:ole32.dll
 0002:00008c96       .idata$6                   10027c96     oleaut32:OLEAUT32.dll
 0003:00000110       ?ObjectMap@@3PAU_ATL_OBJMAP_ENTRY30@ATL@@A 10029110     Lights.obj
 0003:000001c0       ?s_SOMethodNames@@3PAPADA  100291c0     LightsImpl.obj
 0003:0000020c       ?s_RequiredMethodsPerRelease@@3PAHA 1002920c     LightsImpl.obj
 0003:00000230       ?__vcrt_flsindex@@3KA      10029230     libvcruntime:per_thread_data.obj
 0003:00000250       ?errno_no_memory@@3HA      10029250     libucrt:errno.obj
 0003:00000254       ?doserrno_no_memory@@3KA   10029254     libucrt:errno.obj
 0003:00000260       ?__acrt_flsindex@@3KA      10029260     libucrt:per_thread_data.obj
 0003:000005f8       __mbctypes                 100295f8     libucrt:mbctype.obj
 0003:00000700       __mbcasemaps               10029700     libucrt:mbctype.obj
 0003:00000800       ?__rgctypeflag@@3PADA      10029800     libucrt:mbctype.obj
 0003:00000808       ?__rgcode_page_info@@3PAUcode_page_info@@A 10029808     libucrt:mbctype.obj
 0003:00000a60       ?__dcrt_lowio_console_output_handle@@3PAXA 10029a60     libucrt:initcon.obj
 0003:00000a64       ?__DAZ_ENABLED@?1??__set_fpsr_sse2@@9@9 10029a64     libucrt:fpctrl.obj
 0003:00000bf8       ?is_initialized_as_dll@@3_NA 10029bf8     LIBCMT:utility.obj
 0003:00000bf9       ?module_local_atexit_table_initialized@@3_NA 10029bf9     LIBCMT:utility.obj
 0003:00000bfc       ?module_local_atexit_table@@3U_onexit_table_t@@A 10029bfc     LIBCMT:utility.obj
 0003:00000c08       ?module_local_at_quick_exit_table@@3U_onexit_table_t@@A 10029c08     LIBCMT:utility.obj
 0003:00000c14       ?g_tss_cv@@3U_RTL_CONDITION_VARIABLE@@A 10029c14     LIBCMT:thread_safe_statics.obj
 0003:00000c18       ?g_tss_event@@3PAXA        10029c18     LIBCMT:thread_safe_statics.obj
 0003:00000c1c       ?g_tss_mutex@@3U_RTL_CRITICAL_SECTION@@A 10029c1c     LIBCMT:thread_safe_statics.obj
 0003:00000c34       ?g_sleep_condition_variable_cs@@3P6GHPAU_RTL_CONDITION_VARIABLE@@PAU_RTL_CRITICAL_SECTION@@K@ZA 10029c34     LIBCMT:thread_safe_statics.obj
 0003:00000c38       ?g_wake_all_condition_variable@@3P6GXPAU_RTL_CONDITION_VARIABLE@@@ZA 10029c38     LIBCMT:thread_safe_statics.obj
 0003:00000c40       _GS_ExceptionRecord        10029c40     LIBCMT:gs_report.obj
 0003:00000c90       _GS_ContextRecord          10029c90     LIBCMT:gs_report.obj
 0003:00000f60       ?__proc_attached@@3HA      10029f60     LIBCMT:dll_dllmain.obj
 0003:00000fc4       ?AllocateData@@3P6GPAUAtlThunkData_t@@XZA 10029fc4     atls:atlthunk.obj
 0003:00000fc8       ?InitData@@3P6GXPAUAtlThunkData_t@@PAXI@ZA 10029fc8     atls:atlthunk.obj
 0003:00000fcc       ?DataToCode@@3P6GP6GJPAUHWND__@@IIJ@ZPAUAtlThunkData_t@@@ZA 10029fcc     atls:atlthunk.obj
 0003:00000fd0       ?FreeData@@3P6GXPAUAtlThunkData_t@@@ZA 10029fd0     atls:atlthunk.obj
 0003:00000fd4       ?Initialized@@3_NA         10029fd4     atls:atlthunk.obj
 0003:00000fe4       ?__vcrt_startup_thread_ptd@@3U__vcrt_ptd@@A 10029fe4     libvcruntime:per_thread_data.obj
 0003:0000100c       ___vcrt_lock_table         1002a00c     libvcruntime:locks.obj
 0003:00001024       ___vcrt_locks_initialized  1002a024     libvcruntime:locks.obj
 0003:00001050       ?heap@@3V_HeapManager@@A   1002a050     libvcruntime:undname.obj
 0003:00001064       ?module_handles@@3PAPAUHINSTANCE__@@A 1002a064     libvcruntime:winapi_downlevel.obj
 0003:00001070       ?function_pointers@@3PAPAXA 1002a070     libvcruntime:winapi_downlevel.obj
 0003:00001084       ?__acrt_invalid_parameter_handler@@3V?$dual_state_global@P6AXPB_W00II@Z@__crt_state_management@@A 1002a084     libucrt:invalid_parameter.obj
 0003:00001088       ?c_termination_complete@@3JA 1002a088     libucrt:exit.obj
 0003:0000108c       ?thread_local_exit_callback_func@@3P6GXPAXK0@ZA 1002a08c     libucrt:exit.obj
 0003:00001098       ?program_name@?1???$common_configure_argv@D@@YAHW4_crt_argv_mode@@@Z@4PADA 1002a098     libucrt:argv_parsing.obj
 0003:000011c8       ?__acrt_new_handler@@3V?$dual_state_global@P6AHI@Z@__crt_state_management@@A 1002a1c8     libucrt:new_handler.obj
 0003:000011d0       ?module_handles@@3PAPAUHINSTANCE__@@A 1002a1d0     libucrt:winapi_thunks.obj
 0003:00001220       ?encoded_function_pointers@@3PAPAXA 1002a220     libucrt:winapi_thunks.obj
 0003:000012a8       ?internal_state@?1??_mbtowc_l@@9@4U_Mbstatet@@A 1002a2a8     libucrt:mbtowc.obj
 0003:000012b8       ?enable_percent_n@@3IA     1002a2b8     libucrt:printf_count_output.obj
 0003:000014d8       ?__acrt_lock_table@@3PAU_RTL_CRITICAL_SECTION@@A 1002a4d8     libucrt:locks.obj
 0003:00001628       ?__acrt_locks_initialized@@3IA 1002a628     libucrt:locks.obj
 0003:00001638       ?fSystemSet@@3HA           1002a638     libucrt:mbctype.obj
 0003:0000163c       ?initialized@?1??__acrt_initialize_multibyte@@9@4_NA 1002a63c     libucrt:mbctype.obj
 0003:0000165c       ?ctrlc_action@@3V?$dual_state_global@P6AXH@Z@__crt_state_management@@A 1002a65c     libucrt:signal.obj
 0003:00001660       ?ctrlbreak_action@@3V?$dual_state_global@P6AXH@Z@__crt_state_management@@A 1002a660     libucrt:signal.obj
 0003:00001664       ?abort_action@@3V?$dual_state_global@P6AXH@Z@__crt_state_management@@A 1002a664     libucrt:signal.obj
 0003:00001668       ?term_action@@3V?$dual_state_global@P6AXH@Z@__crt_state_management@@A 1002a668     libucrt:signal.obj
 0003:0000166c       ?user_matherr@@3V?$dual_state_global@P6AHPAU_exception@@@Z@__crt_state_management@@A 1002a66c     libucrt:matherr.obj
 0003:00001670       ?__acrt_global_new_mode@@3V?$dual_state_global@J@__crt_state_management@@A 1002a670     libucrt:new_mode.obj
 0003:0000167c       ?internal_pst@?1??__mbrtoc32_utf8@__crt_mbstring@@YAIPA_UPBDIPAU_Mbstatet@@@Z@4U3@A 1002a67c     libucrt:mbrtoc32.obj
 0003:00001684       ?__acrt_app_type@@3W4_crt_app_type@@A 1002a684     libucrt:report_runtime_error.obj
 0003:0000168c       __pmatherr_set             1002a68c     libucrt:libm_error.obj
 0004:00000220       $R000000                   1002b220     Lights.res
 0004:00000ba0       $R000980                   1002bba0     Lights.res
 0004:00000c88       $R000A68                   1002bc88     Lights.res
 0004:00000ef0       $R000CD0                   1002bef0     Lights.res
 0004:000013d8       $R0011B8                   1002c3d8     Lights.res
 0004:00003718       $R0034F8                   1002e718     Lights.res
 0004:00003748       $R003528                   1002e748     Lights.res
