 OPOSPointCardRW

 Timestamp is 5b863e6d (Wed Aug 29 15:34:21 2018)

 Preferred load address is 10000000

 Start         Length     Name                   Class
 0001:00000000 00000080H .text$di                CODE
 0001:00000080 0001d97bH .text$mn                CODE
 0001:0001d9fb 00000051H .text$x                 CODE
 0001:0001da4c 00000042H .text$yd                CODE
 0002:00000000 000002fcH .idata$5                DATA
 0002:000002fc 00000004H .00cfg                  DATA
 0002:00000300 00000004H .CRT$XCA                DATA
 0002:00000304 00000004H .CRT$XCL                DATA
 0002:00000308 00000010H .CRT$XCU                DATA
 0002:00000318 00000004H .CRT$XCZ                DATA
 0002:0000031c 00000004H .CRT$XIA                DATA
 0002:00000320 00000010H .CRT$XIC                DATA
 0002:00000330 00000004H .CRT$XIZ                DATA
 0002:00000334 00000004H .CRT$XLA                DATA
 0002:00000338 00000004H .CRT$XLZ                DATA
 0002:0000033c 00000004H .CRT$XPA                DATA
 0002:00000340 00000008H .CRT$XPX                DATA
 0002:00000348 00000004H .CRT$XPXA               DATA
 0002:0000034c 00000004H .CRT$XPZ                DATA
 0002:00000350 00000004H .CRT$XTA                DATA
 0002:00000354 0000000cH .CRT$XTZ                DATA
 0002:00000358 00000000H .gfids$y                DATA
 0002:00000360 00007028H .rdata                  DATA
 0002:00007388 00000018H .rdata$T                DATA
 0002:000073a0 00000180H .rdata$r                DATA
 0002:00007520 00000020H .rdata$sxdata           DATA
 0002:00007540 000003e0H .rdata$zzzdbg           DATA
 0002:00007920 00000004H .rtc$IAA                DATA
 0002:00007924 00000004H .rtc$IZZ                DATA
 0002:00007928 00000004H .rtc$TAA                DATA
 0002:0000792c 00000004H .rtc$TZZ                DATA
 0002:00007930 00000004H .tls                    DATA
 0002:00007934 00000004H .tls$                   DATA
 0002:00007938 00000008H .tls$ZZZ                DATA
 0002:00007940 00000624H .xdata$x                DATA
 0002:00007f64 00000004H ATL$__a                 DATA
 0002:00007f68 00000008H ATL$__z                 DATA
 0002:00007f70 000000acH .edata                  DATA
 0002:0000801c 00000078H .idata$2                DATA
 0002:00008094 00000014H .idata$3                DATA
 0002:000080a8 000002fcH .idata$4                DATA
 0002:000083a4 00000bc0H .idata$6                DATA
 0003:00000000 000009c0H .data                   DATA
 0003:000009c0 00000098H .data$r                 DATA
 0003:00000a58 00000b68H .bss                    DATA
 0004:00000000 00000220H .rsrc$01                DATA
 0004:00000220 00005d78H .rsrc$02                DATA

  Address         Publics by Value              Rva+Base       Lib:Object

 0000:00000000       ___guard_iat_count         00000000     <absolute>
 0000:00000000       ___guard_longjmp_table     00000000     <absolute>
 0000:00000000       ___dynamic_value_reloc_table 00000000     <absolute>
 0000:00000000       ___hybrid_code_map_count   00000000     <absolute>
 0000:00000000       ___guard_longjmp_count     00000000     <absolute>
 0000:00000000       __except_list              00000000     <absolute>
 0000:00000000       ___guard_fids_table        00000000     <absolute>
 0000:00000000       ___hybrid_auxiliary_iat    00000000     <absolute>
 0000:00000000       ___guard_fids_count        00000000     <absolute>
 0000:00000000       ___guard_iat_table         00000000     <absolute>
 0000:00000000       ___volatile_metadata       00000000     <absolute>
 0000:00000000       ___enclave_config          00000000     <absolute>
 0000:00000000       ___hybrid_code_map         00000000     <absolute>
 0000:00000008       ___safe_se_handler_count   00000008     <absolute>
 0000:0000002c       __tls_array                0000002c     <absolute>
 0000:00000100       ___guard_flags             00000100     <absolute>
 0000:00000000       ___ImageBase               10000000     <linker-defined>
 0001:00000080       ?DupWide@_CW@@AAEXXZ       10001080 f   CWString.obj
 0001:0000009c       ?cw_dup@@YGXPBDAAHAAPA_W1@Z 1000109c f   CWString.obj
 0001:0000010b       ?cw_memcpy@@YGHPA_WPBDH@Z  1000110b f   CWString.obj
 0001:00000137       ?cw_strcpy@@YAHPA_WPBD@Z   10001137 f   CWString.obj
 0001:0000014a       ?cw_strlen@@YAHPBD@Z       1000114a f   CWString.obj
 0001:00000163       ??0CAtlComModule@ATL@@QAE@XZ 10001163 f i OposVariant.obj
 0001:000001a8       ??0CAtlWinModule@ATL@@QAE@XZ 100011a8 f i OposVariant.obj
 0001:000001df       ??0OposDispParms@@QAE@PAVOposVariant@@H@Z 100011df f   OposVariant.obj
 0001:00000250       ??1OposDispParms@@QAE@XZ   10001250 f   OposVariant.obj
 0001:0000025e       ??A?$CSimpleArray@GV?$CSimpleArrayEqualHelper@G@ATL@@@ATL@@QAEAAGH@Z 1000125e f i OposVariant.obj
 0001:00000283       ??_Estringdispid@CComTypeInfoHolder@ATL@@QAEPAXI@Z 10001283 f i OposVariant.obj
 0001:000002ef       ?AtlWinModuleInit@ATL@@YGJPAU_ATL_WIN_MODULE70@1@@Z 100012ef f i OposVariant.obj
 0001:00000315       ?AtlWinModuleTerm@ATL@@YGJPAU_ATL_WIN_MODULE70@1@PAUHINSTANCE__@@@Z 10001315 f i OposVariant.obj
 0001:00000378       ?ChangeBSTR@OposVariant@@QAEXPAPA_WAAJ@Z 10001378 f   OposVariant.obj
 0001:000003b9       ?ChangeLONG@OposVariant@@QAEXPAJAAJ@Z 100013b9 f   OposVariant.obj
 0001:000003fa       ?GetLONG@OposVariant@@QAEJXZ 100013fa f   OposVariant.obj
 0001:00000415       ?Init@CComCriticalSection@ATL@@QAEJXZ 10001415 f i OposVariant.obj
 0001:0000043c       ?RemoveAll@?$CSimpleArray@PAUHINSTANCE__@@V?$CSimpleArrayEqualHelper@PAUHINSTANCE__@@@ATL@@@ATL@@QAEXXZ 1000143c f i atls:atlbase.obj
 0001:0000043c       ?RemoveAll@?$CSimpleArray@GV?$CSimpleArrayEqualHelper@G@ATL@@@ATL@@QAEXXZ 1000143c f i OposVariant.obj
 0001:00000459       ?SetBSTR@OposVariant@@QAEXPA_WAAJ@Z 10001459 f   OposVariant.obj
 0001:0000048d       ?SetBSTR_Copy@OposVariant@@QAEXPA_WAAJ@Z 1000148d f   OposVariant.obj
 0001:000004dd       ?SetBSTR_InOutPtr@OposVariant@@QAE_NPAPA_WAAJ@Z 100014dd f   OposVariant.obj
 0001:00000514       ?SetDispatch_Ptr@OposVariant@@QAEXPAUIDispatch@@AAJ@Z 10001514 f   OposVariant.obj
 0001:0000054f       ?SetLONG@OposVariant@@QAEXJ@Z 1000154f f   OposVariant.obj
 0001:00000571       ?SetLONG_Ptr@OposVariant@@QAEXPAJAAJ@Z 10001571 f   OposVariant.obj
 0001:000005a4       ?SetString@OposVariant@@QAEXPB_WAAJ@Z 100015a4 f   OposVariant.obj
 0001:000005ea       ?SetVARIANT_BOOL@OposVariant@@QAEXF@Z 100015ea f   OposVariant.obj
 0001:00000614       ?Term@CAtlComModule@ATL@@QAEXXZ 10001614 f i OposVariant.obj
 0001:0000065e       ?_AtlRaiseException@ATL@@YAXKK@Z 1000165e f i OposVariant.obj
 0001:00000673       ?GetControlInfo@?$IOleControlImpl@VCOPOSPointCardRW@@@ATL@@UAGJPAUtagCONTROLINFO@@@Z 10001673 f i PointCardRW.obj
 0001:00000673       ?OnMnemonic@?$IOleControlImpl@VCOPOSPointCardRW@@@ATL@@UAGJPAUtagMSG@@@Z 10001673 f i PointCardRW.obj
 0001:00000673       ?SetColorScheme@?$IOleObjectImpl@VCOPOSPointCardRW@@@ATL@@UAGJPAUtagLOGPALETTE@@@Z 10001673 f i PointCardRW.obj
 0001:00000673       ?ContextSensitiveHelp@?$IOleInPlaceObjectWindowlessImpl@VCOPOSPointCardRW@@@ATL@@UAGJH@Z 10001673 f i PointCardRW.obj
 0001:00000673       ?QueryGetData@?$IDataObjectImpl@VCOPOSPointCardRW@@@ATL@@UAGJPAUtagFORMATETC@@@Z 10001673 f i PointCardRW.obj
 0001:00000673       ?GetDropTarget@?$IOleInPlaceObjectWindowlessImpl@VCOPOSPointCardRW@@@ATL@@UAGJPAPAUIDropTarget@@@Z 10001673 f i PointCardRW.obj
 0001:00000673       ?Unfreeze@?$IViewObjectExImpl@VCOPOSPointCardRW@@@ATL@@UAGJK@Z 10001673 f i PointCardRW.obj
 0001:00000673       ?ContextSensitiveHelp@?$IOleInPlaceActiveObjectImpl@VCOPOSPointCardRW@@@ATL@@UAGJH@Z 10001673 f i PointCardRW.obj
 0001:0000067b       ?SaveCompleted@?$IPersistStorageImpl@VCOPOSPointCardRW@@@ATL@@UAGJPAUIStorage@@@Z 1000167b f i PointCardRW.obj
 0001:0000067b       ?OnFrameWindowActivate@?$IOleInPlaceActiveObjectImpl@VCOPOSPointCardRW@@@ATL@@UAGJH@Z 1000167b f i PointCardRW.obj
 0001:0000067b       ?EnableModeless@?$IOleInPlaceActiveObjectImpl@VCOPOSPointCardRW@@@ATL@@UAGJH@Z 1000167b f i PointCardRW.obj
 0001:0000067b       ?OnAmbientPropertyChange@?$IOleControlImpl@VCOPOSPointCardRW@@@ATL@@UAGJJ@Z 1000167b f i PointCardRW.obj
 0001:00000680       ?SetClientSite@?$IOleObjectImpl@VCOPOSPointCardRW@@@ATL@@UAGJPAUIOleClientSite@@@Z 10001680 f i PointCardRW.obj
 0001:0000069d       ?GetClientSite@?$IOleObjectImpl@VCOPOSPointCardRW@@@ATL@@UAGJPAPAUIOleClientSite@@@Z 1000169d f i PointCardRW.obj
 0001:000006ba       ?SetHostNames@?$IOleObjectImpl@VCOPOSPointCardRW@@@ATL@@UAGJPB_W0@Z 100016ba f i PointCardRW.obj
 0001:000006bf       ?Close@?$IOleObjectImpl@VCOPOSPointCardRW@@@ATL@@UAGJK@Z 100016bf f i PointCardRW.obj
 0001:000006dc       ?GetCanonicalFormatEtc@?$IDataObjectImpl@VCOPOSPointCardRW@@@ATL@@UAGJPAUtagFORMATETC@@0@Z 100016dc f i PointCardRW.obj
 0001:000006dc       ?GetDataHere@?$IDataObjectImpl@VCOPOSPointCardRW@@@ATL@@UAGJPAUtagFORMATETC@@PAUtagSTGMEDIUM@@@Z 100016dc f i PointCardRW.obj
 0001:000006dc       ?GetRect@?$IViewObjectExImpl@VCOPOSPointCardRW@@@ATL@@UAGJKPAU_RECTL@@@Z 100016dc f i PointCardRW.obj
 0001:000006dc       ?SetMoniker@?$IOleObjectImpl@VCOPOSPointCardRW@@@ATL@@UAGJKPAUIMoniker@@@Z 100016dc f i PointCardRW.obj
 0001:000006dc       ?EnumFormatEtc@?$IDataObjectImpl@VCOPOSPointCardRW@@@ATL@@UAGJKPAPAUIEnumFORMATETC@@@Z 100016dc f i PointCardRW.obj
 0001:000006dc       ?GetClipboardData@?$IOleObjectImpl@VCOPOSPointCardRW@@@ATL@@UAGJKPAPAUIDataObject@@@Z 100016dc f i PointCardRW.obj
 0001:000006dc       ?QueryInterface@CRegObject@ATL@@UAGJABU_GUID@@PAPAX@Z 100016dc f i PointCardRW.obj
 0001:000006e4       ?SetData@?$IDataObjectImpl@VCOPOSPointCardRW@@@ATL@@UAGJPAUtagFORMATETC@@PAUtagSTGMEDIUM@@H@Z 100016e4 f i PointCardRW.obj
 0001:000006e4       ?GetMoniker@?$IOleObjectImpl@VCOPOSPointCardRW@@@ATL@@UAGJKKPAPAUIMoniker@@@Z 100016e4 f i PointCardRW.obj
 0001:000006e4       ?InitFromData@?$IOleObjectImpl@VCOPOSPointCardRW@@@ATL@@UAGJPAUIDataObject@@HK@Z 100016e4 f i PointCardRW.obj
 0001:000006ec       ?DoVerb@?$IOleObjectImpl@VCOPOSPointCardRW@@@ATL@@UAGJJPAUtagMSG@@PAUIOleClientSite@@JPAUHWND__@@PBUtagRECT@@@Z 100016ec f i PointCardRW.obj
 0001:00000804       ?EnumVerbs@?$IOleObjectImpl@VCOPOSPointCardRW@@@ATL@@UAGJPAPAUIEnumOLEVERB@@@Z 10001804 f i PointCardRW.obj
 0001:00000826       ?Update@?$IOleObjectImpl@VCOPOSPointCardRW@@@ATL@@UAGJXZ 10001826 f i PointCardRW.obj
 0001:00000826       ?Release@CRegObject@ATL@@UAGKXZ 10001826 f i PointCardRW.obj
 0001:00000826       ?IsUpToDate@?$IOleObjectImpl@VCOPOSPointCardRW@@@ATL@@UAGJXZ 10001826 f i PointCardRW.obj
 0001:00000826       ?HandsOffStorage@?$IPersistStorageImpl@VCOPOSPointCardRW@@@ATL@@UAGJXZ 10001826 f i PointCardRW.obj
 0001:0000082b       ?GetClassID@?$IPersistStreamInitImpl@VCOPOSPointCardRW@@@ATL@@UAGJPAU_GUID@@@Z 1000182b f i PointCardRW.obj
 0001:0000082b       ?GetUserClassID@?$IOleObjectImpl@VCOPOSPointCardRW@@@ATL@@UAGJPAU_GUID@@@Z 1000182b f i PointCardRW.obj
 0001:0000082b       ?GetClassID@?$IPersistStorageImpl@VCOPOSPointCardRW@@@ATL@@UAGJPAU_GUID@@@Z 1000182b f i PointCardRW.obj
 0001:0000084f       ?GetUserType@?$IOleObjectImpl@VCOPOSPointCardRW@@@ATL@@UAGJKPAPA_W@Z 1000184f f i PointCardRW.obj
 0001:00000867       ?SetExtent@?$IOleObjectImpl@VCOPOSPointCardRW@@@ATL@@UAGJKPAUtagSIZE@@@Z 10001867 f i PointCardRW.obj
 0001:00000887       ?GetExtent@?$IOleObjectImpl@VCOPOSPointCardRW@@@ATL@@UAGJKPAUtagSIZE@@@Z 10001887 f i PointCardRW.obj
 0001:000008c5       ?Advise@?$IOleObjectImpl@VCOPOSPointCardRW@@@ATL@@UAGJPAUIAdviseSink@@PAK@Z 100018c5 f i PointCardRW.obj
 0001:000008e5       ?Unadvise@?$IOleObjectImpl@VCOPOSPointCardRW@@@ATL@@UAGJK@Z 100018e5 f i PointCardRW.obj
 0001:00000914       ?EnumAdvise@?$IOleObjectImpl@VCOPOSPointCardRW@@@ATL@@UAGJPAPAUIEnumSTATDATA@@@Z 10001914 f i PointCardRW.obj
 0001:00000954       ?GetMiscStatus@?$IOleObjectImpl@VCOPOSPointCardRW@@@ATL@@UAGJKPAK@Z 10001954 f i PointCardRW.obj
 0001:0000096c       ?GetWindow@?$IOleInPlaceActiveObjectImpl@VCOPOSPointCardRW@@@ATL@@UAGJPAPAUHWND__@@@Z 1000196c f i PointCardRW.obj
 0001:000009b9       ?TranslateAcceleratorW@?$IOleInPlaceActiveObjectImpl@VCOPOSPointCardRW@@@ATL@@UAGJPAUtagMSG@@@Z 100019b9 f i PointCardRW.obj
 0001:00000a57       ?OnDocWindowActivate@?$IOleInPlaceActiveObjectImpl@VCOPOSPointCardRW@@@ATL@@UAGJH@Z 10001a57 f i PointCardRW.obj
 0001:00000a79       ?ResizeBorder@?$IOleInPlaceActiveObjectImpl@VCOPOSPointCardRW@@@ATL@@UAGJPBUtagRECT@@PAUIOleInPlaceUIWindow@@H@Z 10001a79 f i PointCardRW.obj
 0001:00000a7e       ?Draw@?$IViewObjectExImpl@VCOPOSPointCardRW@@@ATL@@UAGJKJPAXPAUtagDVTARGETDEVICE@@PAUHDC__@@2PBU_RECTL@@3P6GHK@ZK@Z 10001a7e f i PointCardRW.obj
 0001:00000ab0       ?GetColorSet@?$IViewObjectExImpl@VCOPOSPointCardRW@@@ATL@@UAGJKJPAXPAUtagDVTARGETDEVICE@@PAUHDC__@@PAPAUtagLOGPALETTE@@@Z 10001ab0 f i PointCardRW.obj
 0001:00000ab8       ?Freeze@?$IViewObjectExImpl@VCOPOSPointCardRW@@@ATL@@UAGJKJPAXPAK@Z 10001ab8 f i PointCardRW.obj
 0001:00000ac0       ?SetAdvise@?$IViewObjectExImpl@VCOPOSPointCardRW@@@ATL@@UAGJKKPAUIAdviseSink@@@Z 10001ac0 f i PointCardRW.obj
 0001:00000adf       ?GetAdvise@?$IViewObjectExImpl@VCOPOSPointCardRW@@@ATL@@UAGJPAK0PAPAUIAdviseSink@@@Z 10001adf f i PointCardRW.obj
 0001:00000b14       ?GetExtent@?$IViewObjectExImpl@VCOPOSPointCardRW@@@ATL@@UAGJKJPAUtagDVTARGETDEVICE@@PAUtagSIZE@@@Z 10001b14 f i PointCardRW.obj
 0001:00000b45       ?GetViewStatus@?$IViewObjectExImpl@VCOPOSPointCardRW@@@ATL@@UAGJPAK@Z 10001b45 f i PointCardRW.obj
 0001:00000b62       ?QueryHitPoint@?$IViewObjectExImpl@VCOPOSPointCardRW@@@ATL@@UAGJKPBUtagRECT@@UtagPOINT@@JPAK@Z 10001b62 f i PointCardRW.obj
 0001:00000ba3       ?QueryHitRect@?$IViewObjectExImpl@VCOPOSPointCardRW@@@ATL@@UAGJKPBUtagRECT@@0JPAK@Z 10001ba3 f i PointCardRW.obj
 0001:00000bfe       ?GetNaturalExtent@?$IViewObjectExImpl@VCOPOSPointCardRW@@@ATL@@UAGJKJPAUtagDVTARGETDEVICE@@PAUHDC__@@PAUtagExtentInfo@@PAUtagSIZE@@@Z 10001bfe f i PointCardRW.obj
 0001:00000c49       ?GetWindow@?$IOleInPlaceObjectWindowlessImpl@VCOPOSPointCardRW@@@ATL@@UAGJPAPAUHWND__@@@Z 10001c49 f i PointCardRW.obj
 0001:00000c96       ?InPlaceDeactivate@?$IOleInPlaceObjectWindowlessImpl@VCOPOSPointCardRW@@@ATL@@UAGJXZ 10001c96 f i PointCardRW.obj
 0001:00000cb0       ?UIDeactivate@?$IOleInPlaceObjectWindowlessImpl@VCOPOSPointCardRW@@@ATL@@UAGJXZ 10001cb0 f i PointCardRW.obj
 0001:00000cca       ?SetObjectRects@?$IOleInPlaceObjectWindowlessImpl@VCOPOSPointCardRW@@@ATL@@UAGJPBUtagRECT@@0@Z 10001cca f i PointCardRW.obj
 0001:00000cea       ?ReactivateAndUndo@?$IOleInPlaceObjectWindowlessImpl@VCOPOSPointCardRW@@@ATL@@UAGJXZ 10001cea f i PointCardRW.obj
 0001:00000cf2       ?OnWindowMessage@?$IOleInPlaceObjectWindowlessImpl@VCOPOSPointCardRW@@@ATL@@UAGJIIJPAJ@Z 10001cf2 f i PointCardRW.obj
 0001:00000d62       ?EnumConnectionPoints@?$IConnectionPointContainerImpl@VCOPOSPointCardRW@@@ATL@@UAGJPAPAUIEnumConnectionPoints@@@Z 10001d62 f i PointCardRW.obj
 0001:00000edc       ?FindConnectionPoint@?$IConnectionPointContainerImpl@VCOPOSPointCardRW@@@ATL@@UAGJABU_GUID@@PAPAUIConnectionPoint@@@Z 10001edc f i PointCardRW.obj
 0001:00000f7f       ?IsDirty@?$IPersistStorageImpl@VCOPOSPointCardRW@@@ATL@@UAGJXZ 10001f7f f i PointCardRW.obj
 0001:00000fb3       ?InitNew@?$IPersistStorageImpl@VCOPOSPointCardRW@@@ATL@@UAGJPAUIStorage@@@Z 10001fb3 f i PointCardRW.obj
 0001:00000fe7       ?Load@?$IPersistStorageImpl@VCOPOSPointCardRW@@@ATL@@UAGJPAUIStorage@@@Z 10001fe7 f i PointCardRW.obj
 0001:00001053       ?Save@?$IPersistStorageImpl@VCOPOSPointCardRW@@@ATL@@UAGJPAUIStorage@@H@Z 10002053 f i PointCardRW.obj
 0001:000010c6       ?GetPages@?$ISpecifyPropertyPagesImpl@VCOPOSPointCardRW@@@ATL@@UAGJPAUtagCAUUID@@@Z 100020c6 f i PointCardRW.obj
 0001:000010dd       ?QuickActivate@?$IQuickActivateImpl@VCOPOSPointCardRW@@@ATL@@UAGJPAUtagQACONTAINER@@PAUtagQACONTROL@@@Z 100020dd f i PointCardRW.obj
 0001:00001100       ?SetContentExtent@?$IQuickActivateImpl@VCOPOSPointCardRW@@@ATL@@UAGJPAUtagSIZE@@@Z 10002100 f i PointCardRW.obj
 0001:0000112c       ?GetContentExtent@?$IQuickActivateImpl@VCOPOSPointCardRW@@@ATL@@UAGJPAUtagSIZE@@@Z 1000212c f i PointCardRW.obj
 0001:0000114c       ?GetData@?$IDataObjectImpl@VCOPOSPointCardRW@@@ATL@@UAGJPAUtagFORMATETC@@PAUtagSTGMEDIUM@@@Z 1000214c f i PointCardRW.obj
 0001:0000116f       ?DAdvise@?$IDataObjectImpl@VCOPOSPointCardRW@@@ATL@@UAGJPAUtagFORMATETC@@KPAUIAdviseSink@@PAK@Z 1000216f f i PointCardRW.obj
 0001:000011b0       ?DUnadvise@?$IDataObjectImpl@VCOPOSPointCardRW@@@ATL@@UAGJK@Z 100021b0 f i PointCardRW.obj
 0001:000011de       ?EnumDAdvise@?$IDataObjectImpl@VCOPOSPointCardRW@@@ATL@@UAGJPAPAUIEnumSTATDATA@@@Z 100021de f i PointCardRW.obj
 0001:0000121d       ?GetClassInfoW@?$IProvideClassInfo2Impl@$1?CLSID_OPOSPointCardRW@@3U_GUID@@B$1?DIID__IOPOSPointCardRWEvents@@3U2@B$1?LIBID_OposPointCardRW_CCO@@3U2@B$00$0A@VCComTypeInfoHolder@ATL@@@ATL@@UAGJPAPAUITypeInfo@@@Z 1000221d f i PointCardRW.obj
 0001:00001233       ?GetGUID@?$IProvideClassInfo2Impl@$1?CLSID_OPOSPointCardRW@@3U_GUID@@B$1?DIID__IOPOSPointCardRWEvents@@3U2@B$1?LIBID_OposPointCardRW_CCO@@3U2@B$00$0A@VCComTypeInfoHolder@ATL@@@ATL@@UAGJKPAU_GUID@@@Z 10002233 f i PointCardRW.obj
 0001:00001271       ?FAccessAllowed@?$IObjectSafetyImpl@VCOPOSPointCardRW@@$02@ATL@@MAEHXZ 10002271 f i PointCardRW.obj
 0001:00001271       __get_startup_argv_mode    10002271 f i LIBCMT:argv_mode.obj
 0001:00001275       ?GetInterfaceSafetyOptions@?$IObjectSafetyImpl@VCOPOSPointCardRW@@$02@ATL@@UAGJABU_GUID@@PAK1@Z 10002275 f i PointCardRW.obj
 0001:000012e9       ?SetInterfaceSafetyOptions@?$IObjectSafetyImpl@VCOPOSPointCardRW@@$02@ATL@@UAGJABU_GUID@@KK@Z 100022e9 f i PointCardRW.obj
 0001:00001363       ?_LocCPQueryInterface@?$IConnectionPointImpl@VCOPOSPointCardRW@@$1?DIID__IOPOSPointCardRWEvents@@3U_GUID@@BVCComDynamicUnkArray@ATL@@@ATL@@UAGJABU_GUID@@PAPAX@Z 10002363 f i PointCardRW.obj
 0001:00001363       ?_LocCPQueryInterface@?$IConnectionPointImpl@VCOPOSPointCardRW@@$1?IID_IPropertyNotifySink@@3U_GUID@@BVCComDynamicUnkArray@ATL@@@ATL@@UAGJABU_GUID@@PAPAX@Z 10002363 f i PointCardRW.obj
 0001:000013b0       ?GetConnectionInterface@?$IConnectionPointImpl@VCOPOSPointCardRW@@$1?IID_IPropertyNotifySink@@3U_GUID@@BVCComDynamicUnkArray@ATL@@@ATL@@UAGJPAU_GUID@@@Z 100023b0 f i PointCardRW.obj
 0001:000013d4       ?GetConnectionPointContainer@?$IConnectionPointImpl@VCOPOSPointCardRW@@$1?IID_IPropertyNotifySink@@3U_GUID@@BVCComDynamicUnkArray@ATL@@@ATL@@UAGJPAPAUIConnectionPointContainer@@@Z 100023d4 f i PointCardRW.obj
 0001:000013f7       ?Advise@?$IConnectionPointImpl@VCOPOSPointCardRW@@$1?DIID__IOPOSPointCardRWEvents@@3U_GUID@@BVCComDynamicUnkArray@ATL@@@ATL@@UAGJPAUIUnknown@@PAK@Z 100023f7 f i PointCardRW.obj
 0001:000013f7       ?Advise@?$IConnectionPointImpl@VCOPOSPointCardRW@@$1?IID_IPropertyNotifySink@@3U_GUID@@BVCComDynamicUnkArray@ATL@@@ATL@@UAGJPAUIUnknown@@PAK@Z 100023f7 f i PointCardRW.obj
 0001:00001498       ?Unadvise@?$IConnectionPointImpl@VCOPOSPointCardRW@@$1?IID_IPropertyNotifySink@@3U_GUID@@BVCComDynamicUnkArray@ATL@@@ATL@@UAGJK@Z 10002498 f i PointCardRW.obj
 0001:00001498       ?Unadvise@?$IConnectionPointImpl@VCOPOSPointCardRW@@$1?DIID__IOPOSPointCardRWEvents@@3U_GUID@@BVCComDynamicUnkArray@ATL@@@ATL@@UAGJK@Z 10002498 f i PointCardRW.obj
 0001:000014d8       ?EnumConnections@?$IConnectionPointImpl@VCOPOSPointCardRW@@$1?IID_IPropertyNotifySink@@3U_GUID@@BVCComDynamicUnkArray@ATL@@@ATL@@UAGJPAPAUIEnumConnections@@@Z 100024d8 f i PointCardRW.obj
 0001:000014d8       ?EnumConnections@?$IConnectionPointImpl@VCOPOSPointCardRW@@$1?DIID__IOPOSPointCardRWEvents@@3U_GUID@@BVCComDynamicUnkArray@ATL@@@ATL@@UAGJPAPAUIEnumConnections@@@Z 100024d8 f i PointCardRW.obj
 0001:000015de       ?GetObjectDescription@?$CComCoClass@VCOPOSPointCardRW@@$1?CLSID_OPOSPointCardRW@@3U_GUID@@B@ATL@@SGPB_WXZ 100025de f i PointCardRW.obj
 0001:000015de       ?GetCategoryMap@CComObjectRootBase@ATL@@SAPBU_ATL_CATMAP_ENTRY@2@XZ 100025de f i PointCardRW.obj
 0001:000015e1       ?GetConnectionInterface@?$IConnectionPointImpl@VCOPOSPointCardRW@@$1?DIID__IOPOSPointCardRWEvents@@3U_GUID@@BVCComDynamicUnkArray@ATL@@@ATL@@UAGJPAU_GUID@@@Z 100025e1 f i PointCardRW.obj
 0001:00001605       ?GetConnectionPointContainer@?$IConnectionPointImpl@VCOPOSPointCardRW@@$1?DIID__IOPOSPointCardRWEvents@@3U_GUID@@BVCComDynamicUnkArray@ATL@@@ATL@@UAGJPAPAUIConnectionPointContainer@@@Z 10002605 f i PointCardRW.obj
 0001:00001628       ?UpdateRegistry@COPOSPointCardRW@@SGJH@Z 10002628 f i PointCardRW.obj
 0001:00001640       ?ProcessWindowMessage@COPOSPointCardRW@@UAEHPAUHWND__@@IIJAAJK@Z 10002640 f i PointCardRW.obj
 0001:00001689       ?SOData@COPOSPointCardRW@@MAGJJ@Z 10002689 f i PointCardRW.obj
 0001:000016c2       ?SODirectIO@COPOSPointCardRW@@MAGJJPAJPAPA_W@Z 100026c2 f i PointCardRW.obj
 0001:0000170b       ?SOError@COPOSPointCardRW@@MAGJJJJPAJ@Z 1000270b f i PointCardRW.obj
 0001:00001760       ?SOOutputComplete@COPOSPointCardRW@@MAGJJ@Z 10002760 f i PointCardRW.obj
 0001:00001799       ?SOStatusUpdate@COPOSPointCardRW@@MAGJJ@Z 10002799 f i PointCardRW.obj
 0001:000017d2       ?AddRef@CRegObject@ATL@@UAGKXZ 100027d2 f i PointCardRW.obj
 0001:000017d8       ?AddReplacement@CRegObject@ATL@@UAGJPB_W0@Z 100027d8 f i PointCardRW.obj
 0001:00001811       ?ClearReplacements@CRegObject@ATL@@UAGJXZ 10002811 f i PointCardRW.obj
 0001:00001823       ??_GCRegObject@ATL@@UAEPAXI@Z 10002823 f i PointCardRW.obj
 0001:00001823       ??_ECRegObject@ATL@@UAEPAXI@Z 10002823 f i PointCardRW.obj
 0001:00001845       ?CreateInstance@?$CComCreator@V?$CComObjectCached@VCComClassFactory@ATL@@@ATL@@@ATL@@SGJPAXABU_GUID@@PAPAX@Z 10002845 f i PointCardRW.obj
 0001:000018d8       ?CreateInstance@?$CComCreator2@V?$CComCreator@V?$CComObject@VCOPOSPointCardRW@@@ATL@@@ATL@@V?$CComCreator@V?$CComAggObject@VCOPOSPointCardRW@@@ATL@@@2@@ATL@@SGJPAXABU_GUID@@PAPAX@Z 100028d8 f i PointCardRW.obj
 0001:000018f8       ?Next@?$CComEnumImpl@UIEnumConnectionPoints@@$1?_GUID_b196b285_bab4_101a_b69c_00aa00341d07@@3U__s_GUID@@BPAUIConnectionPoint@@V?$_CopyInterface@UIConnectionPoint@@@ATL@@@ATL@@UAGJKPAPAUIConnectionPoint@@PAK@Z 100028f8 f i PointCardRW.obj
 0001:000019cf       ?Skip@?$CComEnumImpl@UIEnumConnectionPoints@@$1?_GUID_b196b285_bab4_101a_b69c_00aa00341d07@@3U__s_GUID@@BPAUIConnectionPoint@@V?$_CopyInterface@UIConnectionPoint@@@ATL@@@ATL@@UAGJK@Z 100029cf f i PointCardRW.obj
 0001:000019fc       ?Reset@?$CComEnumImpl@UIEnumConnections@@$1?_GUID_b196b287_bab4_101a_b69c_00aa00341d07@@3U__s_GUID@@BUtagCONNECTDATA@@V?$_Copy@UtagCONNECTDATA@@@ATL@@@ATL@@UAGJXZ 100029fc f i PointCardRW.obj
 0001:000019fc       ?Reset@?$CComEnumImpl@UIEnumConnectionPoints@@$1?_GUID_b196b285_bab4_101a_b69c_00aa00341d07@@3U__s_GUID@@BPAUIConnectionPoint@@V?$_CopyInterface@UIConnectionPoint@@@ATL@@@ATL@@UAGJXZ 100029fc f i PointCardRW.obj
 0001:00001a0e       ?Clone@?$CComEnumImpl@UIEnumConnectionPoints@@$1?_GUID_b196b285_bab4_101a_b69c_00aa00341d07@@3U__s_GUID@@BPAUIConnectionPoint@@V?$_CopyInterface@UIConnectionPoint@@@ATL@@@ATL@@UAGJPAPAUIEnumConnectionPoints@@@Z 10002a0e f i PointCardRW.obj
 0001:00001aed       ?AddRef@?$CComObject@V?$CComEnum@UIEnumConnections@@$1?_GUID_b196b287_bab4_101a_b69c_00aa00341d07@@3U__s_GUID@@BUtagCONNECTDATA@@V?$_Copy@UtagCONNECTDATA@@@ATL@@VCComSingleThreadModel@6@@ATL@@@ATL@@UAGKXZ 10002aed f i PointCardRW.obj
 0001:00001aed       ?AddRef@?$CComObject@V?$CComEnum@UIEnumConnectionPoints@@$1?_GUID_b196b285_bab4_101a_b69c_00aa00341d07@@3U__s_GUID@@BPAUIConnectionPoint@@V?$_CopyInterface@UIConnectionPoint@@@ATL@@VCComSingleThreadModel@6@@ATL@@@ATL@@UAGKXZ 10002aed f i PointCardRW.obj
 0001:00001afe       ?Release@?$CComObject@V?$CComEnum@UIEnumConnections@@$1?_GUID_b196b287_bab4_101a_b69c_00aa00341d07@@3U__s_GUID@@BUtagCONNECTDATA@@V?$_Copy@UtagCONNECTDATA@@@ATL@@VCComSingleThreadModel@6@@ATL@@@ATL@@UAGKXZ 10002afe f i PointCardRW.obj
 0001:00001afe       ?Release@?$CComObject@V?$CComEnum@UIEnumConnectionPoints@@$1?_GUID_b196b285_bab4_101a_b69c_00aa00341d07@@3U__s_GUID@@BPAUIConnectionPoint@@V?$_CopyInterface@UIConnectionPoint@@@ATL@@VCComSingleThreadModel@6@@ATL@@@ATL@@UAGKXZ 10002afe f i PointCardRW.obj
 0001:00001b3a       ?QueryInterface@?$CComObject@V?$CComEnum@UIEnumConnectionPoints@@$1?_GUID_b196b285_bab4_101a_b69c_00aa00341d07@@3U__s_GUID@@BPAUIConnectionPoint@@V?$_CopyInterface@UIConnectionPoint@@@ATL@@VCComSingleThreadModel@6@@ATL@@@ATL@@UAGJABU_GUID@@PAPAX@Z 10002b3a f i PointCardRW.obj
 0001:00001b54       ??_G?$CComObject@V?$CComEnum@UIEnumConnectionPoints@@$1?_GUID_b196b285_bab4_101a_b69c_00aa00341d07@@3U__s_GUID@@BPAUIConnectionPoint@@V?$_CopyInterface@UIConnectionPoint@@@ATL@@VCComSingleThreadModel@6@@ATL@@@ATL@@UAEPAXI@Z 10002b54 f i PointCardRW.obj
 0001:00001b54       ??_E?$CComObject@V?$CComEnum@UIEnumConnectionPoints@@$1?_GUID_b196b285_bab4_101a_b69c_00aa00341d07@@3U__s_GUID@@BPAUIConnectionPoint@@V?$_CopyInterface@UIConnectionPoint@@@ATL@@VCComSingleThreadModel@6@@ATL@@@ATL@@UAEPAXI@Z 10002b54 f i PointCardRW.obj
 0001:00001b76       ?AddRef@?$CComObjectCached@VCComClassFactory@ATL@@@ATL@@UAGKXZ 10002b76 f i PointCardRW.obj
 0001:00001b9d       ?Release@?$CComObjectCached@VCComClassFactory@ATL@@@ATL@@UAGKXZ 10002b9d f i PointCardRW.obj
 0001:00001bd3       ?QueryInterface@?$CComObjectCached@VCComClassFactory@ATL@@@ATL@@UAGJABU_GUID@@PAPAX@Z 10002bd3 f i PointCardRW.obj
 0001:00001bed       ??_G?$CComObjectCached@VCComClassFactory@ATL@@@ATL@@UAEPAXI@Z 10002bed f i PointCardRW.obj
 0001:00001bed       ??_E?$CComObjectCached@VCComClassFactory@ATL@@@ATL@@UAEPAXI@Z 10002bed f i PointCardRW.obj
 0001:00001c0f       ?AddRef@?$CComAggObject@VCOPOSPointCardRW@@@ATL@@UAGKXZ 10002c0f f i PointCardRW.obj
 0001:00001c20       ?Release@?$CComAggObject@VCOPOSPointCardRW@@@ATL@@UAGKXZ 10002c20 f i PointCardRW.obj
 0001:00001c5c       ?QueryInterface@?$CComAggObject@VCOPOSPointCardRW@@@ATL@@UAGJABU_GUID@@PAPAX@Z 10002c5c f i PointCardRW.obj
 0001:00001cab       ?AddRef@?$CComContainedObject@VCOPOSPointCardRW@@@ATL@@UAGKXZ 10002cab f i PointCardRW.obj
 0001:00001cc1       ?Release@?$CComContainedObject@VCOPOSPointCardRW@@@ATL@@UAGKXZ 10002cc1 f i PointCardRW.obj
 0001:00001cd7       ?QueryInterface@?$CComContainedObject@VCOPOSPointCardRW@@@ATL@@UAGJABU_GUID@@PAPAX@Z 10002cd7 f i PointCardRW.obj
 0001:00001cf2       ??_G?$CComAggObject@VCOPOSPointCardRW@@@ATL@@UAEPAXI@Z 10002cf2 f i PointCardRW.obj
 0001:00001cf2       ??_E?$CComAggObject@VCOPOSPointCardRW@@@ATL@@UAEPAXI@Z 10002cf2 f i PointCardRW.obj
 0001:00001d17       ?AddRef@?$CComObject@VCOPOSPointCardRW@@@ATL@@UAGKXZ 10002d17 f i PointCardRW.obj
 0001:00001d2e       ?Release@?$CComObject@VCOPOSPointCardRW@@@ATL@@UAGKXZ 10002d2e f i PointCardRW.obj
 0001:00001d70       ?QueryInterface@?$CComObject@VCOPOSPointCardRW@@@ATL@@UAGJABU_GUID@@PAPAX@Z 10002d70 f i PointCardRW.obj
 0001:00001d8a       ?OnFinalMessage@?$CWindowImplBaseT@VCWindow@ATL@@V?$CWinTraits@$0FGAAAAAA@$0A@@2@@ATL@@UAEXPAUHWND__@@@Z 10002d8a f i PointCardRW.obj
 0001:00001d8a       ?ObjectMain@CComObjectRootBase@ATL@@SGX_N@Z 10002d8a f i PointCardRW.obj
 0001:00001d8d       ?OnDrawAdvanced@CComControlBase@ATL@@UAEJAAUATL_DRAWINFO@@@Z 10002d8d f i PointCardRW.obj
 0001:00001e7c       ?CreateInstance@CComClassFactory@ATL@@UAGJPAUIUnknown@@ABU_GUID@@PAPAX@Z 10002e7c f i PointCardRW.obj
 0001:00001eba       ?LockServer@CComClassFactory@ATL@@UAGJH@Z 10002eba f i PointCardRW.obj
 0001:00001ed9       ??_GCComClassFactory@ATL@@UAEPAXI@Z 10002ed9 f i PointCardRW.obj
 0001:00001ed9       ??_ECComClassFactory@ATL@@UAEPAXI@Z 10002ed9 f i PointCardRW.obj
 0001:00001f04       ?Next@?$CComEnumImpl@UIEnumConnections@@$1?_GUID_b196b287_bab4_101a_b69c_00aa00341d07@@3U__s_GUID@@BUtagCONNECTDATA@@V?$_Copy@UtagCONNECTDATA@@@ATL@@@ATL@@UAGJKPAUtagCONNECTDATA@@PAK@Z 10002f04 f i PointCardRW.obj
 0001:00001fdb       ?Skip@?$CComEnumImpl@UIEnumConnections@@$1?_GUID_b196b287_bab4_101a_b69c_00aa00341d07@@3U__s_GUID@@BUtagCONNECTDATA@@V?$_Copy@UtagCONNECTDATA@@@ATL@@@ATL@@UAGJK@Z 10002fdb f i PointCardRW.obj
 0001:00002008       ?Clone@?$CComEnumImpl@UIEnumConnections@@$1?_GUID_b196b287_bab4_101a_b69c_00aa00341d07@@3U__s_GUID@@BUtagCONNECTDATA@@V?$_Copy@UtagCONNECTDATA@@@ATL@@@ATL@@UAGJPAPAUIEnumConnections@@@Z 10003008 f i PointCardRW.obj
 0001:000020e7       ?QueryInterface@?$CComObject@V?$CComEnum@UIEnumConnections@@$1?_GUID_b196b287_bab4_101a_b69c_00aa00341d07@@3U__s_GUID@@BUtagCONNECTDATA@@V?$_Copy@UtagCONNECTDATA@@@ATL@@VCComSingleThreadModel@6@@ATL@@@ATL@@UAGJABU_GUID@@PAPAX@Z 100030e7 f i PointCardRW.obj
 0001:00002101       ??_G?$CComObject@V?$CComEnum@UIEnumConnections@@$1?_GUID_b196b287_bab4_101a_b69c_00aa00341d07@@3U__s_GUID@@BUtagCONNECTDATA@@V?$_Copy@UtagCONNECTDATA@@@ATL@@VCComSingleThreadModel@6@@ATL@@@ATL@@UAEPAXI@Z 10003101 f i PointCardRW.obj
 0001:00002101       ??_E?$CComObject@V?$CComEnum@UIEnumConnections@@$1?_GUID_b196b287_bab4_101a_b69c_00aa00341d07@@3U__s_GUID@@BUtagCONNECTDATA@@V?$_Copy@UtagCONNECTDATA@@@ATL@@VCComSingleThreadModel@6@@ATL@@@ATL@@UAEPAXI@Z 10003101 f i PointCardRW.obj
 0001:00002123       ??_E?$CComObject@VCOPOSPointCardRW@@@ATL@@W3AEPAXI@Z 10003123 f i PointCardRW.obj
 0001:0000212b       ??_E?$CComObject@VCOPOSPointCardRW@@@ATL@@WEM@AEPAXI@Z 1000312b f i PointCardRW.obj
 0001:00002133       ?QueryInterface@?$CComObject@VCOPOSPointCardRW@@@ATL@@WHA@AGJABU_GUID@@PAPAX@Z 10003133 f i PointCardRW.obj
 0001:0000213d       ?AddRef@?$CComObject@VCOPOSPointCardRW@@@ATL@@WHA@AGKXZ 1000313d f i PointCardRW.obj
 0001:00002147       ?Release@?$CComObject@VCOPOSPointCardRW@@@ATL@@WHA@AGKXZ 10003147 f i PointCardRW.obj
 0001:00002151       ?QueryInterface@?$CComObject@VCOPOSPointCardRW@@@ATL@@WHE@AGJABU_GUID@@PAPAX@Z 10003151 f i PointCardRW.obj
 0001:0000215b       ?AddRef@?$CComObject@VCOPOSPointCardRW@@@ATL@@WHE@AGKXZ 1000315b f i PointCardRW.obj
 0001:00002165       ?Release@?$CComObject@VCOPOSPointCardRW@@@ATL@@WHE@AGKXZ 10003165 f i PointCardRW.obj
 0001:0000216f       ?QueryInterface@?$CComObject@VCOPOSPointCardRW@@@ATL@@WHI@AGJABU_GUID@@PAPAX@Z 1000316f f i PointCardRW.obj
 0001:00002179       ?AddRef@?$CComObject@VCOPOSPointCardRW@@@ATL@@WHI@AGKXZ 10003179 f i PointCardRW.obj
 0001:00002183       ?Release@?$CComObject@VCOPOSPointCardRW@@@ATL@@WHI@AGKXZ 10003183 f i PointCardRW.obj
 0001:0000218d       ?QueryInterface@?$CComObject@VCOPOSPointCardRW@@@ATL@@WHM@AGJABU_GUID@@PAPAX@Z 1000318d f i PointCardRW.obj
 0001:00002197       ?AddRef@?$CComObject@VCOPOSPointCardRW@@@ATL@@WHM@AGKXZ 10003197 f i PointCardRW.obj
 0001:000021a1       ?Release@?$CComObject@VCOPOSPointCardRW@@@ATL@@WHM@AGKXZ 100031a1 f i PointCardRW.obj
 0001:000021ab       ?QueryInterface@?$CComObject@VCOPOSPointCardRW@@@ATL@@WIA@AGJABU_GUID@@PAPAX@Z 100031ab f i PointCardRW.obj
 0001:000021b8       ?AddRef@?$CComObject@VCOPOSPointCardRW@@@ATL@@WIA@AGKXZ 100031b8 f i PointCardRW.obj
 0001:000021c5       ?Release@?$CComObject@VCOPOSPointCardRW@@@ATL@@WIA@AGKXZ 100031c5 f i PointCardRW.obj
 0001:000021d2       ?QueryInterface@?$CComObject@VCOPOSPointCardRW@@@ATL@@WIE@AGJABU_GUID@@PAPAX@Z 100031d2 f i PointCardRW.obj
 0001:000021df       ?AddRef@?$CComObject@VCOPOSPointCardRW@@@ATL@@WIE@AGKXZ 100031df f i PointCardRW.obj
 0001:000021ec       ?Release@?$CComObject@VCOPOSPointCardRW@@@ATL@@WIE@AGKXZ 100031ec f i PointCardRW.obj
 0001:000021f9       ?QueryInterface@?$CComObject@VCOPOSPointCardRW@@@ATL@@WII@AGJABU_GUID@@PAPAX@Z 100031f9 f i PointCardRW.obj
 0001:00002206       ?AddRef@?$CComObject@VCOPOSPointCardRW@@@ATL@@WII@AGKXZ 10003206 f i PointCardRW.obj
 0001:00002213       ?Release@?$CComObject@VCOPOSPointCardRW@@@ATL@@WII@AGKXZ 10003213 f i PointCardRW.obj
 0001:00002220       ?QueryInterface@?$CComObject@VCOPOSPointCardRW@@@ATL@@WIM@AGJABU_GUID@@PAPAX@Z 10003220 f i PointCardRW.obj
 0001:0000222d       ?AddRef@?$CComObject@VCOPOSPointCardRW@@@ATL@@WIM@AGKXZ 1000322d f i PointCardRW.obj
 0001:0000223a       ?Release@?$CComObject@VCOPOSPointCardRW@@@ATL@@WIM@AGKXZ 1000323a f i PointCardRW.obj
 0001:00002247       ?QueryInterface@?$CComObject@VCOPOSPointCardRW@@@ATL@@WJA@AGJABU_GUID@@PAPAX@Z 10003247 f i PointCardRW.obj
 0001:00002254       ?AddRef@?$CComObject@VCOPOSPointCardRW@@@ATL@@WJA@AGKXZ 10003254 f i PointCardRW.obj
 0001:00002261       ?Release@?$CComObject@VCOPOSPointCardRW@@@ATL@@WJA@AGKXZ 10003261 f i PointCardRW.obj
 0001:0000226e       ?QueryInterface@?$CComObject@VCOPOSPointCardRW@@@ATL@@WJE@AGJABU_GUID@@PAPAX@Z 1000326e f i PointCardRW.obj
 0001:0000227b       ?AddRef@?$CComObject@VCOPOSPointCardRW@@@ATL@@WJE@AGKXZ 1000327b f i PointCardRW.obj
 0001:00002288       ?Release@?$CComObject@VCOPOSPointCardRW@@@ATL@@WJE@AGKXZ 10003288 f i PointCardRW.obj
 0001:00002295       ?QueryInterface@?$CComObject@VCOPOSPointCardRW@@@ATL@@WJI@AGJABU_GUID@@PAPAX@Z 10003295 f i PointCardRW.obj
 0001:000022a2       ?AddRef@?$CComObject@VCOPOSPointCardRW@@@ATL@@WJI@AGKXZ 100032a2 f i PointCardRW.obj
 0001:000022af       ?Release@?$CComObject@VCOPOSPointCardRW@@@ATL@@WJI@AGKXZ 100032af f i PointCardRW.obj
 0001:000022bc       ?QueryInterface@?$CComObject@VCOPOSPointCardRW@@@ATL@@WJM@AGJABU_GUID@@PAPAX@Z 100032bc f i PointCardRW.obj
 0001:000022c9       ?AddRef@?$CComObject@VCOPOSPointCardRW@@@ATL@@WJM@AGKXZ 100032c9 f i PointCardRW.obj
 0001:000022d6       ?Release@?$CComObject@VCOPOSPointCardRW@@@ATL@@WJM@AGKXZ 100032d6 f i PointCardRW.obj
 0001:000022e3       ?QueryInterface@?$CComObject@VCOPOSPointCardRW@@@ATL@@WKA@AGJABU_GUID@@PAPAX@Z 100032e3 f i PointCardRW.obj
 0001:000022f0       ?AddRef@?$CComObject@VCOPOSPointCardRW@@@ATL@@WKA@AGKXZ 100032f0 f i PointCardRW.obj
 0001:000022fd       ?Release@?$CComObject@VCOPOSPointCardRW@@@ATL@@WKA@AGKXZ 100032fd f i PointCardRW.obj
 0001:0000230a       ?AddRef@?$CComObject@VCOPOSPointCardRW@@@ATL@@WKI@AGKXZ 1000330a f i PointCardRW.obj
 0001:00002317       ?Release@?$CComObject@VCOPOSPointCardRW@@@ATL@@WKI@AGKXZ 10003317 f i PointCardRW.obj
 0001:00002324       ?AddRef@?$CComObject@VCOPOSPointCardRW@@@ATL@@WLE@AGKXZ 10003324 f i PointCardRW.obj
 0001:00002331       ?Release@?$CComObject@VCOPOSPointCardRW@@@ATL@@WLE@AGKXZ 10003331 f i PointCardRW.obj
 0001:0000233e       ??_E?$CComContainedObject@VCOPOSPointCardRW@@@ATL@@W3AEPAXI@Z 1000333e f i PointCardRW.obj
 0001:00002346       ??_E?$CComContainedObject@VCOPOSPointCardRW@@@ATL@@WEM@AEPAXI@Z 10003346 f i PointCardRW.obj
 0001:0000234e       ?QueryInterface@?$CComContainedObject@VCOPOSPointCardRW@@@ATL@@WHA@AGJABU_GUID@@PAPAX@Z 1000334e f i PointCardRW.obj
 0001:00002358       ?AddRef@?$CComContainedObject@VCOPOSPointCardRW@@@ATL@@WHA@AGKXZ 10003358 f i PointCardRW.obj
 0001:00002362       ?Release@?$CComContainedObject@VCOPOSPointCardRW@@@ATL@@WHA@AGKXZ 10003362 f i PointCardRW.obj
 0001:0000236c       ?QueryInterface@?$CComContainedObject@VCOPOSPointCardRW@@@ATL@@WHE@AGJABU_GUID@@PAPAX@Z 1000336c f i PointCardRW.obj
 0001:00002376       ?AddRef@?$CComContainedObject@VCOPOSPointCardRW@@@ATL@@WHE@AGKXZ 10003376 f i PointCardRW.obj
 0001:00002380       ?Release@?$CComContainedObject@VCOPOSPointCardRW@@@ATL@@WHE@AGKXZ 10003380 f i PointCardRW.obj
 0001:0000238a       ?QueryInterface@?$CComContainedObject@VCOPOSPointCardRW@@@ATL@@WHI@AGJABU_GUID@@PAPAX@Z 1000338a f i PointCardRW.obj
 0001:00002394       ?AddRef@?$CComContainedObject@VCOPOSPointCardRW@@@ATL@@WHI@AGKXZ 10003394 f i PointCardRW.obj
 0001:0000239e       ?Release@?$CComContainedObject@VCOPOSPointCardRW@@@ATL@@WHI@AGKXZ 1000339e f i PointCardRW.obj
 0001:000023a8       ?QueryInterface@?$CComContainedObject@VCOPOSPointCardRW@@@ATL@@WHM@AGJABU_GUID@@PAPAX@Z 100033a8 f i PointCardRW.obj
 0001:000023b2       ?AddRef@?$CComContainedObject@VCOPOSPointCardRW@@@ATL@@WHM@AGKXZ 100033b2 f i PointCardRW.obj
 0001:000023bc       ?Release@?$CComContainedObject@VCOPOSPointCardRW@@@ATL@@WHM@AGKXZ 100033bc f i PointCardRW.obj
 0001:000023c6       ?QueryInterface@?$CComContainedObject@VCOPOSPointCardRW@@@ATL@@WIA@AGJABU_GUID@@PAPAX@Z 100033c6 f i PointCardRW.obj
 0001:000023d3       ?AddRef@?$CComContainedObject@VCOPOSPointCardRW@@@ATL@@WIA@AGKXZ 100033d3 f i PointCardRW.obj
 0001:000023e0       ?Release@?$CComContainedObject@VCOPOSPointCardRW@@@ATL@@WIA@AGKXZ 100033e0 f i PointCardRW.obj
 0001:000023ed       ?QueryInterface@?$CComContainedObject@VCOPOSPointCardRW@@@ATL@@WIE@AGJABU_GUID@@PAPAX@Z 100033ed f i PointCardRW.obj
 0001:000023fa       ?AddRef@?$CComContainedObject@VCOPOSPointCardRW@@@ATL@@WIE@AGKXZ 100033fa f i PointCardRW.obj
 0001:00002407       ?Release@?$CComContainedObject@VCOPOSPointCardRW@@@ATL@@WIE@AGKXZ 10003407 f i PointCardRW.obj
 0001:00002414       ?QueryInterface@?$CComContainedObject@VCOPOSPointCardRW@@@ATL@@WII@AGJABU_GUID@@PAPAX@Z 10003414 f i PointCardRW.obj
 0001:00002421       ?AddRef@?$CComContainedObject@VCOPOSPointCardRW@@@ATL@@WII@AGKXZ 10003421 f i PointCardRW.obj
 0001:0000242e       ?Release@?$CComContainedObject@VCOPOSPointCardRW@@@ATL@@WII@AGKXZ 1000342e f i PointCardRW.obj
 0001:0000243b       ?QueryInterface@?$CComContainedObject@VCOPOSPointCardRW@@@ATL@@WIM@AGJABU_GUID@@PAPAX@Z 1000343b f i PointCardRW.obj
 0001:00002448       ?AddRef@?$CComContainedObject@VCOPOSPointCardRW@@@ATL@@WIM@AGKXZ 10003448 f i PointCardRW.obj
 0001:00002455       ?Release@?$CComContainedObject@VCOPOSPointCardRW@@@ATL@@WIM@AGKXZ 10003455 f i PointCardRW.obj
 0001:00002462       ?QueryInterface@?$CComContainedObject@VCOPOSPointCardRW@@@ATL@@WJA@AGJABU_GUID@@PAPAX@Z 10003462 f i PointCardRW.obj
 0001:0000246f       ?AddRef@?$CComContainedObject@VCOPOSPointCardRW@@@ATL@@WJA@AGKXZ 1000346f f i PointCardRW.obj
 0001:0000247c       ?Release@?$CComContainedObject@VCOPOSPointCardRW@@@ATL@@WJA@AGKXZ 1000347c f i PointCardRW.obj
 0001:00002489       ?QueryInterface@?$CComContainedObject@VCOPOSPointCardRW@@@ATL@@WJE@AGJABU_GUID@@PAPAX@Z 10003489 f i PointCardRW.obj
 0001:00002496       ?AddRef@?$CComContainedObject@VCOPOSPointCardRW@@@ATL@@WJE@AGKXZ 10003496 f i PointCardRW.obj
 0001:000024a3       ?Release@?$CComContainedObject@VCOPOSPointCardRW@@@ATL@@WJE@AGKXZ 100034a3 f i PointCardRW.obj
 0001:000024b0       ?QueryInterface@?$CComContainedObject@VCOPOSPointCardRW@@@ATL@@WJI@AGJABU_GUID@@PAPAX@Z 100034b0 f i PointCardRW.obj
 0001:000024bd       ?AddRef@?$CComContainedObject@VCOPOSPointCardRW@@@ATL@@WJI@AGKXZ 100034bd f i PointCardRW.obj
 0001:000024ca       ?Release@?$CComContainedObject@VCOPOSPointCardRW@@@ATL@@WJI@AGKXZ 100034ca f i PointCardRW.obj
 0001:000024d7       ?QueryInterface@?$CComContainedObject@VCOPOSPointCardRW@@@ATL@@WJM@AGJABU_GUID@@PAPAX@Z 100034d7 f i PointCardRW.obj
 0001:000024e4       ?AddRef@?$CComContainedObject@VCOPOSPointCardRW@@@ATL@@WJM@AGKXZ 100034e4 f i PointCardRW.obj
 0001:000024f1       ?Release@?$CComContainedObject@VCOPOSPointCardRW@@@ATL@@WJM@AGKXZ 100034f1 f i PointCardRW.obj
 0001:000024fe       ?QueryInterface@?$CComContainedObject@VCOPOSPointCardRW@@@ATL@@WKA@AGJABU_GUID@@PAPAX@Z 100034fe f i PointCardRW.obj
 0001:0000250b       ?AddRef@?$CComContainedObject@VCOPOSPointCardRW@@@ATL@@WKA@AGKXZ 1000350b f i PointCardRW.obj
 0001:00002518       ?Release@?$CComContainedObject@VCOPOSPointCardRW@@@ATL@@WKA@AGKXZ 10003518 f i PointCardRW.obj
 0001:00002525       ?AddRef@?$CComContainedObject@VCOPOSPointCardRW@@@ATL@@WKI@AGKXZ 10003525 f i PointCardRW.obj
 0001:00002532       ?Release@?$CComContainedObject@VCOPOSPointCardRW@@@ATL@@WKI@AGKXZ 10003532 f i PointCardRW.obj
 0001:0000253f       ?AddRef@?$CComContainedObject@VCOPOSPointCardRW@@@ATL@@WLE@AGKXZ 1000353f f i PointCardRW.obj
 0001:0000254c       ?Release@?$CComContainedObject@VCOPOSPointCardRW@@@ATL@@WLE@AGKXZ 1000354c f i PointCardRW.obj
 0001:00002559       ?Lock@CAtlModule@ATL@@UAEJXZ 10003559 f i PointCardRW.obj
 0001:00002563       ?Unlock@CAtlModule@ATL@@UAEJXZ 10003563 f i PointCardRW.obj
 0001:0000256d       ?GetLockCount@CAtlModule@ATL@@UAEJXZ 1000356d f i PointCardRW.obj
 0001:00002571       ?GetGITPtr@CAtlModule@ATL@@UAEJPAPAUIGlobalInterfaceTable@@@Z 10003571 f i PointCardRW.obj
 0001:000025bd       ?GetWindowProc@?$CWindowImplBaseT@VCWindow@ATL@@V?$CWinTraits@$0FGAAAAAA@$0A@@2@@ATL@@UAEP6GJPAUHWND__@@IIJ@ZXZ 100035bd f i PointCardRW.obj
 0001:000025c3       ?StartWindowProc@?$CWindowImplBaseT@VCWindow@ATL@@V?$CWinTraits@$0FGAAAAAA@$0A@@2@@ATL@@SGJPAUHWND__@@IIJ@Z 100035c3 f i PointCardRW.obj
 0001:00002617       ?AddCommonRGSReplacements@?$CAtlModuleT@VCComModule@ATL@@@ATL@@UAEJPAUIRegistrarBase@@@Z 10003617 f i PointCardRW.obj
 0001:00002631       ?UpdateRegistryFromResourceD@CComModule@ATL@@UAGJPB_WHPAU_ATL_REGMAP_ENTRY@2@@Z 10003631 f i PointCardRW.obj
 0001:00002631       ?UpdateRegistryFromResourceD@CComModule@ATL@@UAGJIHPAU_ATL_REGMAP_ENTRY@2@@Z 10003631 f i PointCardRW.obj
 0001:00002639       ?UpdateRegistryFromResource@CComModule@ATL@@UAGJPB_WHPAU_ATL_REGMAP_ENTRY@2@@Z 10003639 f i PointCardRW.obj
 0001:00002642       ?UpdateRegistryFromResource@CComModule@ATL@@UAGJIHPAU_ATL_REGMAP_ENTRY@2@@Z 10003642 f i PointCardRW.obj
 0001:0000264b       ??_GCComModule@ATL@@UAEPAXI@Z 1000364b f i PointCardRW.obj
 0001:0000264b       ??_ECComModule@ATL@@UAEPAXI@Z 1000364b f i PointCardRW.obj
 0001:00002673       ?GetTypeInfoCount@?$IDispatchImpl@UIOPOSPointCardRW@@$1?IID_IOPOSPointCardRW@@3U_GUID@@B$1?LIBID_OposPointCardRW_CCO@@3U3@B$00$0A@VCComTypeInfoHolder@ATL@@@ATL@@UAGJPAI@Z 10003673 f i PointCardRW.obj
 0001:00002690       ?GetTypeInfo@?$IDispatchImpl@UIOPOSPointCardRW@@$1?IID_IOPOSPointCardRW@@3U_GUID@@B$1?LIBID_OposPointCardRW_CCO@@3U3@B$00$0A@VCComTypeInfoHolder@ATL@@@ATL@@UAGJIKPAPAUITypeInfo@@@Z 10003690 f i PointCardRW.obj
 0001:000026b4       ?GetIDsOfNames@?$IDispatchImpl@UIOPOSPointCardRW@@$1?IID_IOPOSPointCardRW@@3U_GUID@@B$1?LIBID_OposPointCardRW_CCO@@3U3@B$00$0A@VCComTypeInfoHolder@ATL@@@ATL@@UAGJABU_GUID@@PAPA_WIKPAJ@Z 100036b4 f i PointCardRW.obj
 0001:000026d4       ?Invoke@?$IDispatchImpl@UIOPOSPointCardRW@@$1?IID_IOPOSPointCardRW@@3U_GUID@@B$1?LIBID_OposPointCardRW_CCO@@3U3@B$00$0A@VCComTypeInfoHolder@ATL@@@ATL@@UAGJJABU_GUID@@KGPAUtagDISPPARAMS@@PAUtagVARIANT@@PAUtagEXCEPINFO@@PAI@Z 100036d4 f i PointCardRW.obj
 0001:000026e2       ?CreateControlWindow@?$CComControl@VCOPOSPointCardRW@@V?$CWindowImpl@VCOPOSPointCardRW@@VCWindow@ATL@@V?$CWinTraits@$0FGAAAAAA@$0A@@3@@ATL@@@ATL@@UAEPAUHWND__@@PAU3@AAUtagRECT@@@Z 100036e2 f i PointCardRW.obj
 0001:00002711       ?ControlQueryInterface@?$CComControl@VCOPOSPointCardRW@@V?$CWindowImpl@VCOPOSPointCardRW@@VCWindow@ATL@@V?$CWinTraits@$0FGAAAAAA@$0A@@3@@ATL@@@ATL@@UAEJABU_GUID@@PAPAX@Z 10003711 f i PointCardRW.obj
 0001:0000272c       ?IsDirty@?$IPersistStreamInitImpl@VCOPOSPointCardRW@@@ATL@@UAGJXZ 1000372c f i PointCardRW.obj
 0001:0000274b       ?Load@?$IPersistStreamInitImpl@VCOPOSPointCardRW@@@ATL@@UAGJPAUIStream@@@Z 1000374b f i PointCardRW.obj
 0001:0000276a       ?Save@?$IPersistStreamInitImpl@VCOPOSPointCardRW@@@ATL@@UAGJPAUIStream@@H@Z 1000376a f i PointCardRW.obj
 0001:0000278c       ?GetSizeMax@?$IPersistStreamInitImpl@VCOPOSPointCardRW@@@ATL@@UAGJPAT_ULARGE_INTEGER@@@Z 1000378c f i PointCardRW.obj
 0001:00002941       ?InitNew@?$IPersistStreamInitImpl@VCOPOSPointCardRW@@@ATL@@UAGJXZ 10003941 f i PointCardRW.obj
 0001:0000295e       ??$?4UITypeInfo2@@@?$CComPtr@UITypeInfo@@@ATL@@QAEPAUITypeInfo@@ABV?$CComPtr@UITypeInfo2@@@1@@Z 1000395e f i PointCardRW.obj
 0001:0000298b       ??$AtlAdd@K@ATL@@YAJPAKKK@Z 1000398b f i PointCardRW.obj
 0001:000029ae       ??$AtlAdd@_K@ATL@@YAJPA_K_K1@Z 100039ae f i PointCardRW.obj
 0001:000029e6       ??$AtlAddThrow@K@ATL@@YAKKK@Z 100039e6 f i PointCardRW.obj
 0001:00002a0c       ??$AtlModuleRegisterWndClassInfoT@VAtlModuleRegisterWndClassInfoParamW@ATL@@@ATL@@YAGPAU_ATL_BASE_MODULE70@0@PAU_ATL_WIN_MODULE70@0@PAU_ATL_WNDCLASSINFOW@0@PAP6GJPAUHWND__@@IIJ@ZVAtlModuleRegisterWndClassInfoParamW@0@@Z 10003a0c f i PointCardRW.obj
 0001:00002b5a       ??$AtlMultiply@H@ATL@@YAJPAHHH@Z 10003b5a f i PointCardRW.obj
 0001:00002b92       ??$AtlMultiply@K@ATL@@YAJPAKKK@Z 10003b92 f i PointCardRW.obj
 0001:00002b92       ??$AtlMultiply@I@ATL@@YAJPAIII@Z 10003b92 f i PointCardRW.obj
 0001:00002bb4       ??$AtlMultiplyThrow@I@ATL@@YAIII@Z 10003bb4 f i PointCardRW.obj
 0001:00002bda       ??0?$CComAggObject@VCOPOSPointCardRW@@@ATL@@QAE@PAX@Z 10003bda f i PointCardRW.obj
 0001:00002c07       ??0?$CComContainedObject@VCOPOSPointCardRW@@@ATL@@QAE@PAX@Z 10003c07 f i PointCardRW.obj
 0001:00002cc0       ??0?$CComObject@V?$CComEnum@UIEnumConnectionPoints@@$1?_GUID_b196b285_bab4_101a_b69c_00aa00341d07@@3U__s_GUID@@BPAUIConnectionPoint@@V?$_CopyInterface@UIConnectionPoint@@@ATL@@VCComSingleThreadModel@6@@ATL@@@ATL@@QAE@PAX@Z 10003cc0 f i PointCardRW.obj
 0001:00002cee       ??0?$CComObject@V?$CComEnum@UIEnumConnections@@$1?_GUID_b196b287_bab4_101a_b69c_00aa00341d07@@3U__s_GUID@@BUtagCONNECTDATA@@V?$_Copy@UtagCONNECTDATA@@@ATL@@VCComSingleThreadModel@6@@ATL@@@ATL@@QAE@PAX@Z 10003cee f i PointCardRW.obj
 0001:00002d1c       ??0?$CComObject@VCOPOSPointCardRW@@@ATL@@QAE@PAX@Z 10003d1c f i PointCardRW.obj
 0001:00002dd3       ??0?$CComQIPtr@UIOleControlSite@@$1?_GUID_b196b289_bab4_101a_b69c_00aa00341d07@@3U__s_GUID@@B@ATL@@QAE@PAUIUnknown@@@Z 10003dd3 f i PointCardRW.obj
 0001:00002dfc       ??0CAtlModule@ATL@@QAE@XZ  10003dfc f i PointCardRW.obj
 0001:00002e3d       ??0CParseBuffer@CRegParser@ATL@@QAE@H@Z 10003e3d f i PointCardRW.obj
 0001:00002e73       ??0_ATL_MSG@ATL@@QAE@PAUHWND__@@IIJH@Z 10003e73 f i PointCardRW.obj
 0001:00002eab       ??1?$CComAggObject@VCOPOSPointCardRW@@@ATL@@UAE@XZ 10003eab f i PointCardRW.obj
 0001:00002ecf       ??1?$CComEnumImpl@UIEnumConnectionPoints@@$1?_GUID_b196b285_bab4_101a_b69c_00aa00341d07@@3U__s_GUID@@BPAUIConnectionPoint@@V?$_CopyInterface@UIConnectionPoint@@@ATL@@@ATL@@UAE@XZ 10003ecf f i PointCardRW.obj
 0001:00002f0f       ??1?$CComEnumImpl@UIEnumConnections@@$1?_GUID_b196b287_bab4_101a_b69c_00aa00341d07@@3U__s_GUID@@BUtagCONNECTDATA@@V?$_Copy@UtagCONNECTDATA@@@ATL@@@ATL@@UAE@XZ 10003f0f f i PointCardRW.obj
 0001:00002f4f       ??1?$CComObject@V?$CComEnum@UIEnumConnectionPoints@@$1?_GUID_b196b285_bab4_101a_b69c_00aa00341d07@@3U__s_GUID@@BPAUIConnectionPoint@@V?$_CopyInterface@UIConnectionPoint@@@ATL@@VCComSingleThreadModel@6@@ATL@@@ATL@@UAE@XZ 10003f4f f i PointCardRW.obj
 0001:00002f72       ??1?$CComObject@V?$CComEnum@UIEnumConnections@@$1?_GUID_b196b287_bab4_101a_b69c_00aa00341d07@@3U__s_GUID@@BUtagCONNECTDATA@@V?$_Copy@UtagCONNECTDATA@@@ATL@@VCComSingleThreadModel@6@@ATL@@@ATL@@UAE@XZ 10003f72 f i PointCardRW.obj
 0001:00002f95       ??1?$CComObject@VCOPOSPointCardRW@@@ATL@@UAE@XZ 10003f95 f i PointCardRW.obj
 0001:00003053       ??1?$CComObjectCached@VCComClassFactory@ATL@@@ATL@@UAE@XZ 10004053 f i PointCardRW.obj
 0001:00003069       ??1?$CComObjectRootEx@VCComMultiThreadModel@ATL@@@ATL@@QAE@XZ 10004069 f i PointCardRW.obj
 0001:0000307e       ??1CRegObject@ATL@@UAE@XZ  1000407e f i PointCardRW.obj
 0001:0000309e       ??4?$CComPtr@UIAdviseSink@@@ATL@@QAEPAUIAdviseSink@@PAU2@@Z 1000409e f i PointCardRW.obj
 0001:0000309e       ??4?$CComPtr@UIOleClientSite@@@ATL@@QAEPAUIOleClientSite@@PAU2@@Z 1000409e f i PointCardRW.obj
 0001:0000309e       ??4?$CComPtr@UIUnknown@@@ATL@@QAEPAUIUnknown@@PAU2@@Z 1000409e f i PointCardRW.obj
 0001:000030d2       ??4?$CComQIPtr@UIOleObject@@$1?_GUID_00000112_0000_0000_c000_000000000046@@3U__s_GUID@@B@ATL@@QAEPAUIOleObject@@PAUIUnknown@@@Z 100040d2 f i PointCardRW.obj
 0001:000030f7       ??4?$CComQIPtr@UISpecifyPropertyPages@@$1?_GUID_b196b28b_bab4_101a_b69c_00aa00341d07@@3U__s_GUID@@B@ATL@@QAEPAUISpecifyPropertyPages@@PAUIUnknown@@@Z 100040f7 f i PointCardRW.obj
 0001:0000311c       ??_G?$CComContainedObject@VCOPOSPointCardRW@@@ATL@@UAEPAXI@Z 1000411c f i PointCardRW.obj
 0001:0000311c       ??_E?$CComContainedObject@VCOPOSPointCardRW@@@ATL@@UAEPAXI@Z 1000411c f i PointCardRW.obj
 0001:00003141       ??_E?$CComObject@VCOPOSPointCardRW@@@ATL@@UAEPAXI@Z 10004141 f i PointCardRW.obj
 0001:00003141       ??_G?$CComObject@VCOPOSPointCardRW@@@ATL@@UAEPAXI@Z 10004141 f i PointCardRW.obj
 0001:00003166       ?Add@?$CSimpleArray@GV?$CSimpleArrayEqualHelper@G@ATL@@@ATL@@QAEHABG@Z 10004166 f i PointCardRW.obj
 0001:000031ea       ?Add@?$CSimpleMap@PA_WPA_WVCExpansionVectorEqualHelper@ATL@@@ATL@@QAEHABQA_W0@Z 100041ea f i PointCardRW.obj
 0001:0000323f       ?Add@CComDynamicUnkArray@ATL@@QAEKPAUIUnknown@@@Z 1000423f f i PointCardRW.obj
 0001:000032fa       ?Add@CExpansionVector@ATL@@QAEHPB_W0@Z 100042fa f i PointCardRW.obj
 0001:000033fe       ?AddString@CParseBuffer@CRegParser@ATL@@QAEHPB_W@Z 100043fe f i PointCardRW.obj
 0001:00003433       ?AddValue@CRegParser@ATL@@IAEJAAVCRegKey@2@PB_WPA_W@Z 10004433 f i PointCardRW.obj
 0001:00003754       ?Allocate@?$CAtlSafeAllocBufferManager@VCCRTAllocator@ATL@@@_ATL_SAFE_ALLOCA_IMPL@ATL@@QAEPAXK@Z 10004754 f i PointCardRW.obj
 0001:00003781       ?Allocate@?$CTempBuffer@E$0BAA@VCCRTAllocator@ATL@@@ATL@@QAEPAEI@Z 10004781 f i PointCardRW.obj
 0001:000037b0       ?Allocate@?$CTempBuffer@_W$0BAA@VCCRTAllocator@ATL@@@ATL@@QAEPA_WI@Z 100047b0 f i PointCardRW.obj
 0001:000037df       ?Allocate@?$CTempBuffer@_W$0EAA@VCCRTAllocator@ATL@@@ATL@@QAEPA_WI@Z 100047df f i PointCardRW.obj
 0001:0000380e       ?AllocateHeap@?$CTempBuffer@E$0BAA@VCCRTAllocator@ATL@@@ATL@@AAEXI@Z 1000480e f i PointCardRW.obj
 0001:0000380e       ?AllocateHeap@?$CTempBuffer@_W$0EAA@VCCRTAllocator@ATL@@@ATL@@AAEXI@Z 1000480e f i PointCardRW.obj
 0001:0000380e       ?AllocateHeap@?$CTempBuffer@_W$0BAA@VCCRTAllocator@ATL@@@ATL@@AAEXI@Z 1000480e f i PointCardRW.obj
 0001:00003833       ?Append@CParseBuffer@CRegParser@ATL@@QAEHPB_WH@Z 10004833 f i PointCardRW.obj
 0001:000038c1       ?AtlCallTermFunc@ATL@@YGXPAU_ATL_MODULE70@1@@Z 100048c1 f i PointCardRW.obj
 0001:00003905       ?AtlCoTaskMemCAlloc@ATL@@YAPAXKK@Z 10004905 f i PointCardRW.obj
 0001:00003932       ?AtlCoTaskMemRecalloc@ATL@@YAPAXPAXKK@Z 10004932 f i PointCardRW.obj
 0001:00003962       ?AtlComModuleGetClassObject@ATL@@YGJPAU_ATL_COM_MODULE70@1@ABU_GUID@@1PAPAX@Z 10004962 f i PointCardRW.obj
 0001:00003a55       ?AtlComModuleRegisterServer@ATL@@YGJPAU_ATL_COM_MODULE70@1@HPBU_GUID@@@Z 10004a55 f i PointCardRW.obj
 0001:00003add       ?AtlComModuleUnregisterServer@ATL@@YGJPAU_ATL_COM_MODULE70@1@HPBU_GUID@@@Z 10004add f i PointCardRW.obj
 0001:00003b65       ?AtlComQIPtrAssign2@ATL@@YAXPAPAUIUnknown@@PAU2@ABU_GUID@@@Z 10004b65 f i PointCardRW.obj
 0001:00003b94       ?AtlCreateTargetDC@ATL@@YGPAUHDC__@@PAU2@PAUtagDVTARGETDEVICE@@@Z 10004b94 f i PointCardRW.obj
 0001:00003bfd       ?AtlCrtErrorCheck@ATL@@YAHH@Z 10004bfd f i PointCardRW.obj
 0001:00003c38       ?AtlHiMetricToPixel@ATL@@YGXPBUtagSIZE@@PAU2@@Z 10004c38 f i PointCardRW.obj
 0001:00003cad       ?AtlHresultFromLastError@ATL@@YAJXZ 10004cad f i PointCardRW.obj
 0001:00003cc4       ?AtlHresultFromWin32@ATL@@YAJK@Z 10004cc4 f i PointCardRW.obj
 0001:00003cd9       ?AtlIPersistStreamInit_Load@ATL@@YGJPAUIStream@@PBUATL_PROPMAP_ENTRY@1@PAXPAUIUnknown@@@Z 10004cd9 f i PointCardRW.obj
 0001:00003eb9       ?AtlIPersistStreamInit_Save@ATL@@YGJPAUIStream@@HPBUATL_PROPMAP_ENTRY@1@PAXPAUIUnknown@@@Z 10004eb9 f i PointCardRW.obj
 0001:00004051       ?AtlInternalOleLoadFromStream@ATL@@YAJPAUIStream@@ABU_GUID@@PAPAXTClassesAllowedInStream@1@K@Z 10005051 f i PointCardRW.obj
 0001:00004177       ?AtlInternalQueryInterface@ATL@@YGJPAXPBU_ATL_INTMAP_ENTRY@1@ABU_GUID@@PAPAX@Z 10005177 f i PointCardRW.obj
 0001:0000421a       ?AtlLoadTypeLib@ATL@@YGJPAUHINSTANCE__@@PB_WPAPA_WPAPAUITypeLib@@@Z 1000521a f i PointCardRW.obj
 0001:000043f8       ?AtlModuleAddTermFunc@ATL@@YGJPAU_ATL_MODULE70@1@P6GXK@ZK@Z 100053f8 f i PointCardRW.obj
 0001:00004455       ?AtlRegisterClassCategoriesHelper@ATL@@YGJABU_GUID@@PBU_ATL_CATMAP_ENTRY@1@H@Z 10005455 f i PointCardRW.obj
 0001:00004735       ?AtlRegisterTypeLib@ATL@@YGJPAUHINSTANCE__@@PB_W@Z 10005735 f i PointCardRW.obj
 0001:000048bd       ?AtlThrowImpl@ATL@@YGXJ@Z  100058bd f i PointCardRW.obj
 0001:000048db       ?AtlUnRegisterTypeLib@ATL@@YGJPAUHINSTANCE__@@PB_W@Z 100058db f i PointCardRW.obj
 0001:00004986       ?AtlWinModuleAddCreateWndData@ATL@@YGXPAU_ATL_WIN_MODULE70@1@PAU_AtlCreateWndData@1@PAX@Z 10005986 f i PointCardRW.obj
 0001:000049da       ?AtlWinModuleExtractCreateWndData@ATL@@YGPAXPAU_ATL_WIN_MODULE70@1@@Z 100059da f i PointCardRW.obj
 0001:00004a3d       ?AtlWinModuleRegisterClassExW@ATL@@YGGPAU_ATL_WIN_MODULE70@1@PBUtagWNDCLASSEXW@@@Z 10005a3d f i PointCardRW.obj
 0001:00004a7c       ?CanForceRemoveKey@CRegParser@ATL@@IAEHPB_W@Z 10005a7c f i PointCardRW.obj
 0001:00004aab       ?ChToByte@CRegParser@ATL@@KAE_W@Z 10005aab f i PointCardRW.obj
 0001:00004ade       ?Cleanup@CComTypeInfoHolder@ATL@@SGXK@Z 10005ade f i PointCardRW.obj
 0001:00004b11       ?ClearReplacements@CExpansionVector@ATL@@QAEJXZ 10005b11 f i PointCardRW.obj
 0001:00004b4e       ?Close@CRegKey@ATL@@QAEJXZ 10005b4e f i PointCardRW.obj
 0001:00004b68       ?Create@?$CWindowImpl@VCOPOSPointCardRW@@VCWindow@ATL@@V?$CWinTraits@$0FGAAAAAA@$0A@@3@@ATL@@QAEPAUHWND__@@PAU3@V_U_RECT@2@PB_WKKV_U_MENUorID@2@PAX@Z 10005b68 f i PointCardRW.obj
 0001:00004bac       ?Create@?$CWindowImplBaseT@VCWindow@ATL@@V?$CWinTraits@$0FGAAAAAA@$0A@@2@@ATL@@QAEPAUHWND__@@PAU3@V_U_RECT@2@PB_WKKV_U_MENUorID@2@GPAX@Z 10005bac f i PointCardRW.obj
 0001:00004c48       ?Create@CRegKey@ATL@@QAEJPAUHKEY__@@PB_WPA_WKKPAU_SECURITY_ATTRIBUTES@@PAK@Z 10005c48 f i PointCardRW.obj
 0001:00004cab       ?CreateInstance@?$CComCreator@V?$CComAggObject@VCOPOSPointCardRW@@@ATL@@@ATL@@SGJPAXABU_GUID@@PAPAX@Z 10005cab f i PointCardRW.obj
 0001:00004d21       ?CreateInstance@?$CComCreator@V?$CComObject@VCOPOSPointCardRW@@@ATL@@@ATL@@SGJPAXABU_GUID@@PAPAX@Z 10005d21 f i PointCardRW.obj
 0001:00004da2       ?CreateInstance@?$CComObject@V?$CComEnum@UIEnumConnectionPoints@@$1?_GUID_b196b285_bab4_101a_b69c_00aa00341d07@@3U__s_GUID@@BPAUIConnectionPoint@@V?$_CopyInterface@UIConnectionPoint@@@ATL@@VCComSingleThreadModel@6@@ATL@@@ATL@@SGJPAPAV12@@Z 10005da2 f i PointCardRW.obj
 0001:00004de9       ?CreateInstance@?$CComObject@V?$CComEnum@UIEnumConnections@@$1?_GUID_b196b287_bab4_101a_b69c_00aa00341d07@@3U__s_GUID@@BUtagCONNECTDATA@@V?$_Copy@UtagCONNECTDATA@@@ATL@@VCComSingleThreadModel@6@@ATL@@@ATL@@SGJPAPAV12@@Z 10005de9 f i PointCardRW.obj
 0001:00004e30       ?DefaultReflectionHandler@?$CWindowImplRoot@VCWindow@ATL@@@ATL@@SAHPAUHWND__@@IIJAAJ@Z 10005e30 f i PointCardRW.obj
 0001:00004ea3       ?DeleteSubKey@CRegKey@ATL@@QAEJPB_W@Z 10005ea3 f i PointCardRW.obj
 0001:00004ec6       ?DoEvent@COPOSPointCardRW@@IAEXIIJ@Z 10005ec6 f i PointCardRW.obj
 0001:00004f46       ?DoVerbHide@?$IOleObjectImpl@VCOPOSPointCardRW@@@ATL@@QAEJPBUtagRECT@@PAUHWND__@@@Z 10005f46 f i PointCardRW.obj
 0001:00004f7c       ?DoVerbInPlaceActivate@?$IOleObjectImpl@VCOPOSPointCardRW@@@ATL@@QAEJPBUtagRECT@@PAUHWND__@@@Z 10005f7c f i PointCardRW.obj
 0001:00004faf       ?DoVerbPrimary@?$IOleObjectImpl@VCOPOSPointCardRW@@@ATL@@QAEJPBUtagRECT@@PAUHWND__@@@Z 10005faf f i PointCardRW.obj
 0001:0000503b       ?DoVerbProperties@CComControlBase@ATL@@QAEJPBUtagRECT@@PAUHWND__@@@Z 1000603b f i PointCardRW.obj
 0001:00005162       ?DoVerbShow@?$IOleObjectImpl@VCOPOSPointCardRW@@@ATL@@QAEJPBUtagRECT@@PAUHWND__@@@Z 10006162 f i PointCardRW.obj
 0001:00005187       ?DoVerbUIActivate@?$IOleObjectImpl@VCOPOSPointCardRW@@@ATL@@QAEJPBUtagRECT@@PAUHWND__@@@Z 10006187 f i PointCardRW.obj
 0001:000051c4       ?DoesVerbActivate@CComControlBase@ATL@@QAEHJ@Z 100061c4 f i PointCardRW.obj
 0001:000051e5       ?DoesVerbUIActivate@CComControlBase@ATL@@QAEHJ@Z 100061e5 f i PointCardRW.obj
 0001:0000521a       ?EndOfVar@CRegParser@ATL@@IAEHXZ 1000621a f i PointCardRW.obj
 0001:0000523a       ?EscapeSingleQuote@CAtlModule@ATL@@SAXPA_WIPB_W@Z 1000623a f i PointCardRW.obj
 0001:00005289       ?FindKey@?$CSimpleMap@PA_WPA_WVCExpansionVectorEqualHelper@ATL@@@ATL@@QBEHABQA_W@Z 10006289 f i PointCardRW.obj
 0001:000052c0       ?FireTheEvent@?$CProxy_IOPOSEvents@VCOPOSPointCardRW@@@@IAEXPAVOposVariant@@IAAJPB_WJ@Z 100062c0 f i PointCardRW.obj
 0001:00005352       ?FireViewChange@CComControlBase@ATL@@QAEJXZ 10006352 f i PointCardRW.obj
 0001:0000539b       ?Fire_DataEvent@?$CProxy_IOPOSEvents@VCOPOSPointCardRW@@@@QAEXJ@Z 1000639b f i PointCardRW.obj
 0001:00005427       ?Fire_DirectIOEvent@?$CProxy_IOPOSEvents@VCOPOSPointCardRW@@@@QAEXJPAJPAPA_W@Z 10006427 f i PointCardRW.obj
 0001:0000550d       ?Fire_ErrorEvent@?$CProxy_IOPOSEvents@VCOPOSPointCardRW@@@@QAEXJJJPAJ@Z 1000650d f i PointCardRW.obj
 0001:000055f4       ?Fire_OutputCompleteEvent@?$CProxy_IOPOSEvents@VCOPOSPointCardRW@@@@QAEXJ@Z 100065f4 f i PointCardRW.obj
 0001:00005680       ?Fire_StatusUpdateEvent@?$CProxy_IOPOSEvents@VCOPOSPointCardRW@@@@QAEXJ@Z 10006680 f i PointCardRW.obj
 0001:0000570c       ?FreeHeap@?$CTempBuffer@_W$0EAA@VCCRTAllocator@ATL@@@ATL@@AAEXXZ 1000670c f i PointCardRW.obj
 0001:0000570c       ?FreeHeap@?$CTempBuffer@_W$0BAA@VCCRTAllocator@ATL@@@ATL@@AAEXXZ 1000670c f i PointCardRW.obj
 0001:0000570c       ?FreeHeap@?$CTempBuffer@E$0BAA@VCCRTAllocator@ATL@@@ATL@@AAEXXZ 1000670c f i PointCardRW.obj
 0001:00005715       ?GetAmbientLocaleID@CComControlBase@ATL@@QAEJAAK@Z 10006715 f i PointCardRW.obj
 0001:00005771       ?GetAmbientUserMode@CComControlBase@ATL@@QAEJAAH@Z 10006771 f i PointCardRW.obj
 0001:000057e1       ?GetAt@CComDynamicUnkArray@ATL@@QAEPAUIUnknown@@H@Z 100067e1 f i PointCardRW.obj
 0001:000057fd       ?GetClassObject@CComModule@ATL@@QAEJABU_GUID@@0PAPAX@Z 100067fd f i PointCardRW.obj
 0001:0000589f       ?GetConnMap@COPOSPointCardRW@@SAPBU_ATL_CONNMAP_ENTRY@ATL@@PAH@Z 1000689f f i PointCardRW.obj
 0001:0000590f       ?GetCookie@CComDynamicUnkArray@ATL@@QAGKPAPAUIUnknown@@@Z 1000690f f i PointCardRW.obj
 0001:00005947       ?GetIDsOfNames@CComTypeInfoHolder@ATL@@QAEJABU_GUID@@PAPA_WIKPAJ@Z 10006947 f i PointCardRW.obj
 0001:00005a55       ?GetKeyAt@?$CSimpleMap@PA_WPA_WVCExpansionVectorEqualHelper@ATL@@@ATL@@QBEAAPA_WH@Z 10006a55 f i PointCardRW.obj
 0001:00005a7a       ?GetPagesHelper@?$ISpecifyPropertyPagesImpl@VCOPOSPointCardRW@@@ATL@@IAEJPAUtagCAUUID@@PBUATL_PROPMAP_ENTRY@2@@Z 10006a7a f i PointCardRW.obj
 0001:00005ba1       ?GetProperty@?$CComPtr@UIDispatch@@@ATL@@SAJPAUIDispatch@@JPAUtagVARIANT@@@Z 10006ba1 f i PointCardRW.obj
 0001:00005bf0       ?GetSizeMax@CComVariant@ATL@@QBEJPAT_ULARGE_INTEGER@@@Z 10006bf0 f i PointCardRW.obj
 0001:00005daa       ?GetStreamSize@CComBSTR@ATL@@SAKPA_W@Z 10006daa f i PointCardRW.obj
 0001:00005dc4       ?GetTI@CComTypeInfoHolder@ATL@@QAEJK@Z 10006dc4 f i PointCardRW.obj
 0001:00005fad       ?GetTI@CComTypeInfoHolder@ATL@@QAEJKPAPAUITypeInfo@@@Z 10006fad f i PointCardRW.obj
 0001:00005fef       ?GetUnknown@CComDynamicUnkArray@ATL@@QAGPAUIUnknown@@K@Z 10006fef f i PointCardRW.obj
 0001:00006010       ?GetValueAt@?$CSimpleMap@PA_WPA_WVCExpansionVectorEqualHelper@ATL@@@ATL@@QBEAAPA_WH@Z 10007010 f i PointCardRW.obj
 0001:00006036       ?GetZoomInfo@CComControlBase@ATL@@QAEXAAUATL_DRAWINFO@@@Z 10007036 f i PointCardRW.obj
 0001:000060c9       ?HKeyFromString@CRegParser@ATL@@KAPAUHKEY__@@PA_W@Z 100070c9 f i PointCardRW.obj
 0001:000060f7       ?HasSubKeys@CRegParser@ATL@@IAEHPAUHKEY__@@@Z 100070f7 f i PointCardRW.obj
 0001:0000612c       ?IDataObject_GetData@CComControlBase@ATL@@QAEJPAUtagFORMATETC@@PAUtagSTGMEDIUM@@@Z 1000712c f i PointCardRW.obj
 0001:000062d2       ?IOleInPlaceObject_InPlaceDeactivate@CComControlBase@ATL@@QAEJXZ 100072d2 f i PointCardRW.obj
 0001:00006359       ?IOleInPlaceObject_SetObjectRects@CComControlBase@ATL@@QAEJPBUtagRECT@@0@Z 10007359 f i PointCardRW.obj
 0001:00006426       ?IOleInPlaceObject_UIDeactivate@CComControlBase@ATL@@QAEJXZ 10007426 f i PointCardRW.obj
 0001:000064e8       ?IOleObject_Advise@CComControlBase@ATL@@QAEJPAUIAdviseSink@@PAK@Z 100074e8 f i PointCardRW.obj
 0001:00006512       ?IOleObject_Close@CComControlBase@ATL@@QAEJK@Z 10007512 f i PointCardRW.obj
 0001:000065f6       ?IOleObject_GetClientSite@CComControlBase@ATL@@QAEJPAPAUIOleClientSite@@@Z 100075f6 f i PointCardRW.obj
 0001:0000661f       ?IOleObject_SetClientSite@CComControlBase@ATL@@QAEJPAUIOleClientSite@@@Z 1000761f f i PointCardRW.obj
 0001:0000665e       ?IOleObject_SetExtent@CComControlBase@ATL@@QAEJKPAUtagSIZE@@@Z 1000765e f i PointCardRW.obj
 0001:00006712       ?IPSI_GetIPersistStreamInit@?$IPersistStorageImpl@VCOPOSPointCardRW@@@ATL@@AAEPAUIPersistStreamInit@@XZ 10007712 f i PointCardRW.obj
 0001:00006754       ?IPersistStreamInit_Load@?$IPersistStreamInitImpl@VCOPOSPointCardRW@@@ATL@@QAEJPAUIStream@@PBUATL_PROPMAP_ENTRY@2@@Z 10007754 f i PointCardRW.obj
 0001:00006780       ?IPersistStreamInit_Save@?$IPersistStreamInitImpl@VCOPOSPointCardRW@@@ATL@@QAEJPAUIStream@@HPBUATL_PROPMAP_ENTRY@2@@Z 10007780 f i PointCardRW.obj
 0001:000067b5       ?IQuickActivate_QuickActivate@CComControlBase@ATL@@QAEJPAUtagQACONTAINER@@PAUtagQACONTROL@@@Z 100077b5 f i PointCardRW.obj
 0001:000069f7       ?IViewObject_Draw@CComControlBase@ATL@@QAEJKJPAXPAUtagDVTARGETDEVICE@@PAUHDC__@@2PBU_RECTL@@3@Z 100079f7 f i PointCardRW.obj
 0001:00006a9f       ?InPlaceActivate@CComControlBase@ATL@@QAEJJPBUtagRECT@@@Z 10007a9f f i PointCardRW.obj
 0001:00006d10       ?Init@?$CComEnumImpl@UIEnumConnectionPoints@@$1?_GUID_b196b285_bab4_101a_b69c_00aa00341d07@@3U__s_GUID@@BPAUIConnectionPoint@@V?$_CopyInterface@UIConnectionPoint@@@ATL@@@ATL@@QAEJPAPAUIConnectionPoint@@0PAUIUnknown@@W4CComEnumFlags@2@@Z 10007d10 f i PointCardRW.obj
 0001:00006def       ?Init@?$CComEnumImpl@UIEnumConnections@@$1?_GUID_b196b287_bab4_101a_b69c_00aa00341d07@@3U__s_GUID@@BUtagCONNECTDATA@@V?$_Copy@UtagCONNECTDATA@@@ATL@@@ATL@@QAEJPAUtagCONNECTDATA@@0PAUIUnknown@@W4CComEnumFlags@2@@Z 10007def f i PointCardRW.obj
 0001:00006ece       ?Init@CComModule@ATL@@QAEJPAU_ATL_OBJMAP_ENTRY30@2@PAUHINSTANCE__@@PBU_GUID@@@Z 10007ece f i PointCardRW.obj
 0001:00006f2d       ?Init@CDynamicStdCallThunk2@ATL@@QAEHKPAX@Z 10007f2d f i PointCardRW.obj
 0001:00006f58       ?InlineIsEqualUnknown@ATL@@YGHABU_GUID@@@Z 10007f58 f i PointCardRW.obj
 0001:00006f80       ?InternalGetSite@CComControlBase@ATL@@QAEJABU_GUID@@PAPAX@Z 10007f80 f i PointCardRW.obj
 0001:00006fae       ?InternalSetAtIndex@?$CSimpleMap@PA_WPA_WVCExpansionVectorEqualHelper@ATL@@@ATL@@QAEXHABQA_W0@Z 10007fae f i PointCardRW.obj
 0001:00006fd8       ?Invoke@CComTypeInfoHolder@ATL@@QAEJPAUIDispatch@@JABU_GUID@@KGPAUtagDISPPARAMS@@PAUtagVARIANT@@PAUtagEXCEPINFO@@PAI@Z 10007fd8 f i PointCardRW.obj
 0001:0000701b       ?IsEqualObject@?$CComPtrBase@UIOleClientSite@@@ATL@@QAE_NPAUIUnknown@@@Z 1000801b f i PointCardRW.obj
 0001:0000701b       ?IsEqualObject@?$CComPtrBase@UITypeInfo@@@ATL@@QAE_NPAUIUnknown@@@Z 1000801b f i PointCardRW.obj
 0001:00007088       ?IsSpace@CRegParser@ATL@@IAEH_W@Z 10008088 f i PointCardRW.obj
 0001:000070b2       ?LoadNameCache@CComTypeInfoHolder@ATL@@QAEJPAUITypeInfo@@@Z 100080b2 f i PointCardRW.obj
 0001:00007200       ?Lookup@?$CSimpleMap@PA_WPA_WVCExpansionVectorEqualHelper@ATL@@@ATL@@QBEPA_WABQA_W@Z 10008200 f i PointCardRW.obj
 0001:00007226       ?NextToken@CRegParser@ATL@@IAEJPA_W@Z 10008226 f i PointCardRW.obj
 0001:0000735e       ?OnKillFocus@CComControlBase@ATL@@QAEJIIJAAH@Z 1000835e f i PointCardRW.obj
 0001:000073b9       ?OnMouseActivate@CComControlBase@ATL@@QAEJIIJAAH@Z 100083b9 f i PointCardRW.obj
 0001:00007427       ?OnPaint@CComControlBase@ATL@@QAEJIIJAAH@Z 10008427 f i PointCardRW.obj
 0001:000074d9       ?OnSetFocus@CComControlBase@ATL@@QAEJIIJAAH@Z 100084d9 f i PointCardRW.obj
 0001:00007562       ?Open@CRegKey@ATL@@QAEJPAUHKEY__@@PB_WK@Z 10008562 f i PointCardRW.obj
 0001:000075ab       ?PreProcessBuffer@CRegParser@ATL@@QAEJPA_WPAPA_W@Z 100085ab f i PointCardRW.obj
 0001:00007815       ?ProcessWindowMessage@?$CComControl@VCOPOSPointCardRW@@V?$CWindowImpl@VCOPOSPointCardRW@@VCWindow@ATL@@V?$CWinTraits@$0FGAAAAAA@$0A@@3@@ATL@@@ATL@@UAEHPAUHWND__@@IIJAAJK@Z 10008815 f i PointCardRW.obj
 0001:000078b4       ?PutProperty@?$CComPtr@UIDispatch@@@ATL@@SAJPAUIDispatch@@JPAUtagVARIANT@@@Z 100088b4 f i PointCardRW.obj
 0001:00007946       ?ReadFromStream@CComBSTR@ATL@@QAEJPAUIStream@@@Z 10008946 f i PointCardRW.obj
 0001:00007a74       ?ReadFromStream@CComVariant@ATL@@QAEJPAUIStream@@GTClassesAllowedInStream@2@K@Z 10008a74 f i PointCardRW.obj
 0001:00007bfa       ?RecurseDeleteKey@CRegKey@ATL@@QAEJPB_W@Z 10008bfa f i PointCardRW.obj
 0001:00007cbc       ?RegCreateKeyExW@CAtlTransactionManager@ATL@@QAEJPAUHKEY__@@PB_WKPA_WKKQAU_SECURITY_ATTRIBUTES@@PAPAU3@PAK@Z 10008cbc f i PointCardRW.obj
 0001:00007d1f       ?RegDeleteKeyW@CAtlTransactionManager@ATL@@QAEJPAUHKEY__@@PB_W@Z 10008d1f f i PointCardRW.obj
 0001:00007d71       ?RegOpenKeyExW@CAtlTransactionManager@ATL@@QAEJPAUHKEY__@@PB_WKKPAPAU3@@Z 10008d71 f i PointCardRW.obj
 0001:00007dc8       ?Register@_ATL_WNDCLASSINFOW@ATL@@QAEGPAP6GJPAUHWND__@@IIJ@Z@Z 10008dc8 f i PointCardRW.obj
 0001:00007de8       ?RegisterBuffer@CRegParser@ATL@@QAEJPA_WH@Z 10008de8 f i PointCardRW.obj
 0001:00007f21       ?RegisterFromResource@CRegObject@ATL@@IAEJPB_W00H@Z 10008f21 f i PointCardRW.obj
 0001:00008057       ?RegisterServer@?$CAtlModuleT@VCComModule@ATL@@@ATL@@QAEJHPBU_GUID@@@Z 10009057 f i PointCardRW.obj
 0001:00008085       ?RegisterServer@CComModule@ATL@@QAEJHPBU_GUID@@@Z 10009085 f i PointCardRW.obj
 0001:000080fb       ?RegisterSubkeys@CRegParser@ATL@@IAEJPA_WPAUHKEY__@@HH@Z 100090fb f i PointCardRW.obj
 0001:000086ca       ?Remove@CComDynamicUnkArray@ATL@@QAEHK@Z 100096ca f i PointCardRW.obj
 0001:000086f3       ?RemoveAll@?$CSimpleMap@PA_WPA_WVCExpansionVectorEqualHelper@ATL@@@ATL@@QAEXXZ 100096f3 f i PointCardRW.obj
 0001:0000871f       ?ResourceRegisterSz@CRegObject@ATL@@QAGJPB_W00@Z 1000971f f i PointCardRW.obj
 0001:0000874c       ?ResourceUnregisterSz@CRegObject@ATL@@QAGJPB_W00@Z 1000974c f i PointCardRW.obj
 0001:00008779       ?SendOnDataChange@CComControlBase@ATL@@QAEJK@Z 10009779 f i PointCardRW.obj
 0001:000087c6       ?SetControlFocus@CComControlBase@ATL@@QAEHH@Z 100097c6 f i PointCardRW.obj
 0001:00008863       ?SetMultiStringValue@CRegKey@ATL@@QAEJPB_W0@Z 10009863 f i PointCardRW.obj
 0001:000088bf       ?SetStringValue@CRegKey@ATL@@QAEJPB_W0K@Z 100098bf f i PointCardRW.obj
 0001:00008908       ?SkipAssignment@CRegParser@ATL@@IAEJPA_W@Z 10009908 f i PointCardRW.obj
 0001:0000896d       ?SkipWhiteSpace@CRegParser@ATL@@IAEXXZ 1000996d f i PointCardRW.obj
 0001:0000898f       ?StrChrW@CRegParser@ATL@@KAPA_WPA_W_W@Z 1000998f f i PointCardRW.obj
 0001:000089cc       ?Term@CAtlModule@ATL@@QAEXXZ 100099cc f i PointCardRW.obj
 0001:00008a05       ?Term@CComModule@ATL@@QAEXXZ 10009a05 f i PointCardRW.obj
 0001:00008a5d       ?UnregisterServer@?$CAtlModuleT@VCComModule@ATL@@@ATL@@QAEJHPBU_GUID@@@Z 10009a5d f i PointCardRW.obj
 0001:00008a83       ?UnregisterServer@CComModule@ATL@@QAEJHPBU_GUID@@@Z 10009a83 f i PointCardRW.obj
 0001:00008af9       ?UpdateRegistryFromResource@CAtlModule@ATL@@QAGJIHPAU_ATL_REGMAP_ENTRY@2@@Z 10009af9 f i PointCardRW.obj
 0001:00008cc4       ?UpdateRegistryFromResource@CAtlModule@ATL@@QAGJPB_WHPAU_ATL_REGMAP_ENTRY@2@@Z 10009cc4 f i PointCardRW.obj
 0001:00008e95       ?VTFromRegType@CRegParser@ATL@@KAHPB_WAAG@Z 10009e95 f i PointCardRW.obj
 0001:00008f02       ?WindowProc@?$CWindowImplBaseT@VCWindow@ATL@@V?$CWinTraits@$0FGAAAAAA@$0A@@2@@ATL@@SGJPAUHWND__@@IIJ@Z 10009f02 f i PointCardRW.obj
 0001:00008ff4       ?WriteToStream@CComBSTR@ATL@@QAEJPAUIStream@@@Z 10009ff4 f i PointCardRW.obj
 0001:0000904b       ?WriteToStream@CComVariant@ATL@@QAEJPAUIStream@@@Z 1000a04b f i PointCardRW.obj
 0001:000091c5       ?WriteToStream@CComVariant@ATL@@QAEJPAUIStream@@G@Z 1000a1c5 f i PointCardRW.obj
 0001:0000922e       ?_AtlInitialConstruct@?$CComObjectRootEx@VCComMultiThreadModel@ATL@@@ATL@@QAEJXZ 1000a22e f i PointCardRW.obj
 0001:00009243       ?_AtlVerifyStackAvailable@_ATL_SAFE_ALLOCA_IMPL@ATL@@YA_NK@Z 1000a243 f i PointCardRW.obj
 0001:000092c1       ?copy@?$_Copy@UtagCONNECTDATA@@@ATL@@SAJPAUtagCONNECTDATA@@PBU3@@Z 1000a2c1 f i PointCardRW.obj
 0001:000092f7       ?copy@?$_CopyInterface@UIConnectionPoint@@@ATL@@SAJPAPAUIConnectionPoint@@PBQAU3@@Z 1000a2f7 f i PointCardRW.obj
 0001:00009325       ?memcpy_s@Checked@ATL@@YAXPAXIPBXI@Z 1000a325 f i PointCardRW.obj
 0001:00009344       ?ocscpy_s@@YA_NPA_WIPB_W@Z 1000a344 f i PointCardRW.obj
 0001:00009373       ?ocslen@@YAHPB_W@Z         1000a373 f i PointCardRW.obj
 0001:00009393       ?wcscpy_s@Checked@ATL@@YAXPA_WIPB_W@Z 1000a393 f i PointCardRW.obj
 0001:000093af       _DllCanUnloadNow@0         1000a3af f   PointCardRW.obj
 0001:000093bb       _DllGetClassObject@12      1000a3bb f   PointCardRW.obj
 0001:000093c9       _DllMain@12                1000a3c9 f   PointCardRW.obj
 0001:0000940b       _DllRegisterServer@0       1000a40b f   PointCardRW.obj
 0001:0000941a       _DllUnregisterServer@0     1000a41a f   PointCardRW.obj
 0001:00009429       _InlineIsEqualGUID         1000a429 f i PointCardRW.obj
 0001:00009459       ___local_stdio_printf_options 1000a459 f i PointCardRW.obj
 0001:0000945f       __vswprintf_s_l            1000a45f f i PointCardRW.obj
 0001:0000950c       _swprintf_s                1000a50c f i PointCardRW.obj
 0001:00009528       ??0?$CComControl@VCOPOSPointCardRW@@V?$CWindowImpl@VCOPOSPointCardRW@@VCWindow@ATL@@V?$CWinTraits@$0FGAAAAAA@$0A@@3@@ATL@@@ATL@@QAE@XZ 1000a528 f i PointCardRWImpl.obj
 0001:0000954f       ??0?$CProxy_IOPOSEvents@VCOPOSPointCardRW@@@@QAE@XZ 1000a54f f i PointCardRWImpl.obj
 0001:00009572       ??0CComControlBase@ATL@@QAE@AAPAUHWND__@@@Z 1000a572 f i PointCardRWImpl.obj
 0001:000095bc       ??0COPOSPointCardRW@@QAE@XZ 1000a5bc f   PointCardRWImpl.obj
 0001:000095f2       ??1?$CComControl@VCOPOSPointCardRW@@V?$CWindowImpl@VCOPOSPointCardRW@@VCWindow@ATL@@V?$CWinTraits@$0FGAAAAAA@$0A@@3@@ATL@@@ATL@@UAE@XZ 1000a5f2 f i PointCardRWImpl.obj
 0001:0000960b       ??1?$IConnectionPointImpl@VCOPOSPointCardRW@@$1?DIID__IOPOSPointCardRWEvents@@3U_GUID@@BVCComDynamicUnkArray@ATL@@@ATL@@QAE@XZ 1000a60b f i PointCardRWImpl.obj
 0001:0000960b       ??1?$IConnectionPointImpl@VCOPOSPointCardRW@@$1?IID_IPropertyNotifySink@@3U_GUID@@BVCComDynamicUnkArray@ATL@@@ATL@@QAE@XZ 1000a60b f i PointCardRWImpl.obj
 0001:00009648       ??1CComControlBase@ATL@@UAE@XZ 1000a648 f i PointCardRWImpl.obj
 0001:000096ab       ??1COPOSPointCardRW@@UAE@XZ 1000a6ab f   PointCardRWImpl.obj
 0001:000096f3       ??1OposVariantResult@@QAE@XZ 1000a6f3 f i PointCardRWImpl.obj
 0001:00009714       ??1_CW@@QAE@XZ             1000a714 f i PointCardRWImpl.obj
 0001:0000972d       ?BeginInsertion@COPOSPointCardRW@@UAGJJPAJ@Z 1000a72d f   PointCardRWImpl.obj
 0001:0000977c       ?BeginRemoval@COPOSPointCardRW@@UAGJJPAJ@Z 1000a77c f   PointCardRWImpl.obj
 0001:000097cb       ?CheckHealth@COPOSPointCardRW@@UAGJJPAJ@Z 1000a7cb f   PointCardRWImpl.obj
 0001:0000981a       ?ClaimDevice@COPOSPointCardRW@@UAGJJPAJ@Z 1000a81a f   PointCardRWImpl.obj
 0001:0000988f       ?CleanCard@COPOSPointCardRW@@UAGJPAJ@Z 1000a88f f   PointCardRWImpl.obj
 0001:000098aa       ?ClearInput@COPOSPointCardRW@@UAGJPAJ@Z 1000a8aa f   PointCardRWImpl.obj
 0001:000098c5       ?ClearInputProperties@COPOSPointCardRW@@UAGJPAJ@Z 1000a8c5 f   PointCardRWImpl.obj
 0001:000098e0       ?ClearOutput@COPOSPointCardRW@@UAGJPAJ@Z 1000a8e0 f   PointCardRWImpl.obj
 0001:000098fb       ?ClearPrintWrite@COPOSPointCardRW@@UAGJJJJJJPAJ@Z 1000a8fb f   PointCardRWImpl.obj
 0001:000099a7       ?Close@COPOSPointCardRW@@UAGJPAJ@Z 1000a9a7 f   PointCardRWImpl.obj
 0001:00009a15       ?CompareFirmwareVersion@COPOSPointCardRW@@UAGJPA_WPAJ1@Z 1000aa15 f   PointCardRWImpl.obj
 0001:00009a95       ?DirectIO@COPOSPointCardRW@@UAGJJPAJPAPA_W0@Z 1000aa95 f   PointCardRWImpl.obj
 0001:00009b43       ?DoInvoke@COPOSPointCardRW@@IAEJJPAVOposVariant@@IHPAJ_N@Z 1000ab43 f   PointCardRWImpl.obj
 0001:00009c05       ?EndInsertion@COPOSPointCardRW@@UAGJPAJ@Z 1000ac05 f   PointCardRWImpl.obj
 0001:00009c20       ?EndRemoval@COPOSPointCardRW@@UAGJPAJ@Z 1000ac20 f   PointCardRWImpl.obj
 0001:00009c3b       ?EventClose@COPOSPointCardRW@@IAEXXZ 1000ac3b f i PointCardRWImpl.obj
 0001:00009c6e       ?EventInit@COPOSPointCardRW@@IAEJXZ 1000ac6e f i PointCardRWImpl.obj
 0001:00009d3a       ?EventUninit@COPOSPointCardRW@@IAEXXZ 1000ad3a f i PointCardRWImpl.obj
 0001:00009d8c       ?EventWindowProc@COPOSPointCardRW@@IAGJIIJ@Z 1000ad8c f i PointCardRWImpl.obj
 0001:00009e8a       ?FinalConstruct@COPOSPointCardRW@@QAEJXZ 1000ae8a f   PointCardRWImpl.obj
 0001:00009ec3       ?FireEventCleanup@COPOSPointCardRW@@IAEXXZ 1000aec3 f i PointCardRWImpl.obj
 0001:00009ed9       ?FireEventSetup@COPOSPointCardRW@@IAE_NXZ 1000aed9 f i PointCardRWImpl.obj
 0001:00009f0d       ?FreezeEvents@COPOSPointCardRW@@MAGJH@Z 1000af0d f   PointCardRWImpl.obj
 0001:00009f6d       ?GetOposProp@COPOSPointCardRW@@IAEJJPAFJ@Z 1000af6d f   PointCardRWImpl.obj
 0001:00009f90       ?GetOposProp@COPOSPointCardRW@@IAEJJPAJJ@Z 1000af90 f   PointCardRWImpl.obj
 0001:0000a04e       ?GetOposProp@COPOSPointCardRW@@IAEJJPAPA_WJ@Z 1000b04e f   PointCardRWImpl.obj
 0001:0000a119       ?OnDraw@COPOSPointCardRW@@MAEJAAUATL_DRAWINFO@@@Z 1000b119 f   PointCardRWImpl.obj
 0001:0000a1b9       ?Open@COPOSPointCardRW@@UAGJPA_WPAJ@Z 1000b1b9 f   PointCardRWImpl.obj
 0001:0000a96e       ?PrintWrite@COPOSPointCardRW@@UAGJJJJPA_WPAJ@Z 1000b96e f   PointCardRWImpl.obj
 0001:0000aa1d       ?ReleaseDevice@COPOSPointCardRW@@UAGJPAJ@Z 1000ba1d f   PointCardRWImpl.obj
 0001:0000aa6c       ?ResetStatistics@COPOSPointCardRW@@UAGJPA_WPAJ@Z 1000ba6c f   PointCardRWImpl.obj
 0001:0000aac3       ?RetrieveStatistics@COPOSPointCardRW@@UAGJPAPA_WPAJ@Z 1000bac3 f   PointCardRWImpl.obj
 0001:0000ab1a       ?RotatePrint@COPOSPointCardRW@@UAGJJPAJ@Z 1000bb1a f   PointCardRWImpl.obj
 0001:0000ab69       ?SOProcessID@COPOSPointCardRW@@UAGJPAJ@Z 1000bb69 f   PointCardRWImpl.obj
 0001:0000ab7d       ?SetCOFreezeEvents@COPOSPointCardRW@@IAEXF@Z 1000bb7d f   PointCardRWImpl.obj
 0001:0000ac08       ?SetOposProp@COPOSPointCardRW@@IAEJJJJ@Z 1000bc08 f   PointCardRWImpl.obj
 0001:0000ace6       ?SetOposProp@COPOSPointCardRW@@IAEJJPA_WJ@Z 1000bce6 f   PointCardRWImpl.obj
 0001:0000add2       ?UpdateFirmware@COPOSPointCardRW@@UAGJPA_WPAJ@Z 1000bdd2 f   PointCardRWImpl.obj
 0001:0000ae29       ?UpdateStatistics@COPOSPointCardRW@@UAGJPA_WPAJ@Z 1000be29 f   PointCardRWImpl.obj
 0001:0000ae80       ?ValidateData@COPOSPointCardRW@@UAGJPA_WPAJ@Z 1000be80 f   PointCardRWImpl.obj
 0001:0000aed7       ?get_BinaryConversion@COPOSPointCardRW@@UAGJPAJ@Z 1000bed7 f   PointCardRWImpl.obj
 0001:0000aeed       ?get_CapBold@COPOSPointCardRW@@UAGJPAF@Z 1000beed f   PointCardRWImpl.obj
 0001:0000af06       ?get_CapCardEntranceSensor@COPOSPointCardRW@@UAGJPAF@Z 1000bf06 f   PointCardRWImpl.obj
 0001:0000af1f       ?get_CapCharacterSet@COPOSPointCardRW@@UAGJPAJ@Z 1000bf1f f   PointCardRWImpl.obj
 0001:0000af38       ?get_CapCleanCard@COPOSPointCardRW@@UAGJPAF@Z 1000bf38 f   PointCardRWImpl.obj
 0001:0000af51       ?get_CapClearPrint@COPOSPointCardRW@@UAGJPAF@Z 1000bf51 f   PointCardRWImpl.obj
 0001:0000af6a       ?get_CapCompareFirmwareVersion@COPOSPointCardRW@@UAGJPAF@Z 1000bf6a f   PointCardRWImpl.obj
 0001:0000af83       ?get_CapDhigh@COPOSPointCardRW@@UAGJPAF@Z 1000bf83 f   PointCardRWImpl.obj
 0001:0000af9c       ?get_CapDwide@COPOSPointCardRW@@UAGJPAF@Z 1000bf9c f   PointCardRWImpl.obj
 0001:0000afb5       ?get_CapDwideDhigh@COPOSPointCardRW@@UAGJPAF@Z 1000bfb5 f   PointCardRWImpl.obj
 0001:0000afce       ?get_CapItalic@COPOSPointCardRW@@UAGJPAF@Z 1000bfce f   PointCardRWImpl.obj
 0001:0000afe7       ?get_CapLeft90@COPOSPointCardRW@@UAGJPAF@Z 1000bfe7 f   PointCardRWImpl.obj
 0001:0000b000       ?get_CapMapCharacterSet@COPOSPointCardRW@@UAGJPAF@Z 1000c000 f   PointCardRWImpl.obj
 0001:0000b019       ?get_CapPowerReporting@COPOSPointCardRW@@UAGJPAJ@Z 1000c019 f   PointCardRWImpl.obj
 0001:0000b032       ?get_CapPrint@COPOSPointCardRW@@UAGJPAF@Z 1000c032 f   PointCardRWImpl.obj
 0001:0000b04b       ?get_CapPrintMode@COPOSPointCardRW@@UAGJPAF@Z 1000c04b f   PointCardRWImpl.obj
 0001:0000b064       ?get_CapRight90@COPOSPointCardRW@@UAGJPAF@Z 1000c064 f   PointCardRWImpl.obj
 0001:0000b07d       ?get_CapRotate180@COPOSPointCardRW@@UAGJPAF@Z 1000c07d f   PointCardRWImpl.obj
 0001:0000b096       ?get_CapStatisticsReporting@COPOSPointCardRW@@UAGJPAF@Z 1000c096 f   PointCardRWImpl.obj
 0001:0000b0af       ?get_CapTracksToRead@COPOSPointCardRW@@UAGJPAJ@Z 1000c0af f   PointCardRWImpl.obj
 0001:0000b0c8       ?get_CapTracksToWrite@COPOSPointCardRW@@UAGJPAJ@Z 1000c0c8 f   PointCardRWImpl.obj
 0001:0000b0e1       ?get_CapUpdateFirmware@COPOSPointCardRW@@UAGJPAF@Z 1000c0e1 f   PointCardRWImpl.obj
 0001:0000b0fa       ?get_CapUpdateStatistics@COPOSPointCardRW@@UAGJPAF@Z 1000c0fa f   PointCardRWImpl.obj
 0001:0000b113       ?get_CardState@COPOSPointCardRW@@UAGJPAJ@Z 1000c113 f   PointCardRWImpl.obj
 0001:0000b12c       ?get_CharacterSet@COPOSPointCardRW@@UAGJPAJ@Z 1000c12c f   PointCardRWImpl.obj
 0001:0000b145       ?get_CharacterSetList@COPOSPointCardRW@@UAGJPAPA_W@Z 1000c145 f   PointCardRWImpl.obj
 0001:0000b15e       ?get_CheckHealthText@COPOSPointCardRW@@UAGJPAPA_W@Z 1000c15e f   PointCardRWImpl.obj
 0001:0000b177       ?get_Claimed@COPOSPointCardRW@@UAGJPAF@Z 1000c177 f   PointCardRWImpl.obj
 0001:0000b18d       ?get_ControlObjectDescription@COPOSPointCardRW@@UAGJPAPA_W@Z 1000c18d f   PointCardRWImpl.obj
 0001:0000b1ca       ?get_ControlObjectVersion@COPOSPointCardRW@@UAGJPAJ@Z 1000c1ca f   PointCardRWImpl.obj
 0001:0000b1dd       ?get_DataCount@COPOSPointCardRW@@UAGJPAJ@Z 1000c1dd f   PointCardRWImpl.obj
 0001:0000b1f3       ?get_DataEventEnabled@COPOSPointCardRW@@UAGJPAF@Z 1000c1f3 f   PointCardRWImpl.obj
 0001:0000b209       ?get_DeviceDescription@COPOSPointCardRW@@UAGJPAPA_W@Z 1000c209 f   PointCardRWImpl.obj
 0001:0000b222       ?get_DeviceEnabled@COPOSPointCardRW@@UAGJPAF@Z 1000c222 f   PointCardRWImpl.obj
 0001:0000b238       ?get_DeviceName@COPOSPointCardRW@@UAGJPAPA_W@Z 1000c238 f   PointCardRWImpl.obj
 0001:0000b251       ?get_FontTypeFaceList@COPOSPointCardRW@@UAGJPAPA_W@Z 1000c251 f   PointCardRWImpl.obj
 0001:0000b26a       ?get_FreezeEvents@COPOSPointCardRW@@UAGJPAF@Z 1000c26a f   PointCardRWImpl.obj
 0001:0000b280       ?get_LineChars@COPOSPointCardRW@@UAGJPAJ@Z 1000c280 f   PointCardRWImpl.obj
 0001:0000b299       ?get_LineCharsList@COPOSPointCardRW@@UAGJPAPA_W@Z 1000c299 f   PointCardRWImpl.obj
 0001:0000b2b2       ?get_LineHeight@COPOSPointCardRW@@UAGJPAJ@Z 1000c2b2 f   PointCardRWImpl.obj
 0001:0000b2cb       ?get_LineSpacing@COPOSPointCardRW@@UAGJPAJ@Z 1000c2cb f   PointCardRWImpl.obj
 0001:0000b2e4       ?get_LineWidth@COPOSPointCardRW@@UAGJPAJ@Z 1000c2e4 f   PointCardRWImpl.obj
 0001:0000b2fd       ?get_MapCharacterSet@COPOSPointCardRW@@UAGJPAF@Z 1000c2fd f   PointCardRWImpl.obj
 0001:0000b316       ?get_MapMode@COPOSPointCardRW@@UAGJPAJ@Z 1000c316 f   PointCardRWImpl.obj
 0001:0000b32f       ?get_MaxLine@COPOSPointCardRW@@UAGJPAJ@Z 1000c32f f   PointCardRWImpl.obj
 0001:0000b348       ?get_OpenResult@COPOSPointCardRW@@UAGJPAJ@Z 1000c348 f   PointCardRWImpl.obj
 0001:0000b35f       ?get_OutputID@COPOSPointCardRW@@UAGJPAJ@Z 1000c35f f   PointCardRWImpl.obj
 0001:0000b375       ?get_PowerNotify@COPOSPointCardRW@@UAGJPAJ@Z 1000c375 f   PointCardRWImpl.obj
 0001:0000b38b       ?get_PowerState@COPOSPointCardRW@@UAGJPAJ@Z 1000c38b f   PointCardRWImpl.obj
 0001:0000b3a1       ?get_PrintHeight@COPOSPointCardRW@@UAGJPAJ@Z 1000c3a1 f   PointCardRWImpl.obj
 0001:0000b3ba       ?get_ReadState1@COPOSPointCardRW@@UAGJPAJ@Z 1000c3ba f   PointCardRWImpl.obj
 0001:0000b3d3       ?get_ReadState2@COPOSPointCardRW@@UAGJPAJ@Z 1000c3d3 f   PointCardRWImpl.obj
 0001:0000b3ec       ?get_RecvLength1@COPOSPointCardRW@@UAGJPAJ@Z 1000c3ec f   PointCardRWImpl.obj
 0001:0000b405       ?get_RecvLength2@COPOSPointCardRW@@UAGJPAJ@Z 1000c405 f   PointCardRWImpl.obj
 0001:0000b41e       ?get_ResultCode@COPOSPointCardRW@@UAGJPAJ@Z 1000c41e f   PointCardRWImpl.obj
 0001:0000b45c       ?get_ResultCodeExtended@COPOSPointCardRW@@UAGJPAJ@Z 1000c45c f   PointCardRWImpl.obj
 0001:0000b472       ?get_ServiceObjectDescription@COPOSPointCardRW@@UAGJPAPA_W@Z 1000c472 f   PointCardRWImpl.obj
 0001:0000b48b       ?get_ServiceObjectVersion@COPOSPointCardRW@@UAGJPAJ@Z 1000c48b f   PointCardRWImpl.obj
 0001:0000b4a1       ?get_SidewaysMaxChars@COPOSPointCardRW@@UAGJPAJ@Z 1000c4a1 f   PointCardRWImpl.obj
 0001:0000b4ba       ?get_SidewaysMaxLines@COPOSPointCardRW@@UAGJPAJ@Z 1000c4ba f   PointCardRWImpl.obj
 0001:0000b4d3       ?get_State@COPOSPointCardRW@@UAGJPAJ@Z 1000c4d3 f   PointCardRWImpl.obj
 0001:0000b4ff       ?get_Track1Data@COPOSPointCardRW@@UAGJPAPA_W@Z 1000c4ff f   PointCardRWImpl.obj
 0001:0000b518       ?get_Track2Data@COPOSPointCardRW@@UAGJPAPA_W@Z 1000c518 f   PointCardRWImpl.obj
 0001:0000b531       ?get_Track3Data@COPOSPointCardRW@@UAGJPAPA_W@Z 1000c531 f   PointCardRWImpl.obj
 0001:0000b54a       ?get_Track4Data@COPOSPointCardRW@@UAGJPAPA_W@Z 1000c54a f   PointCardRWImpl.obj
 0001:0000b563       ?get_Track5Data@COPOSPointCardRW@@UAGJPAPA_W@Z 1000c563 f   PointCardRWImpl.obj
 0001:0000b57c       ?get_Track6Data@COPOSPointCardRW@@UAGJPAPA_W@Z 1000c57c f   PointCardRWImpl.obj
 0001:0000b595       ?get_TracksToRead@COPOSPointCardRW@@UAGJPAJ@Z 1000c595 f   PointCardRWImpl.obj
 0001:0000b5ae       ?get_TracksToWrite@COPOSPointCardRW@@UAGJPAJ@Z 1000c5ae f   PointCardRWImpl.obj
 0001:0000b5c7       ?get_Write1Data@COPOSPointCardRW@@UAGJPAPA_W@Z 1000c5c7 f   PointCardRWImpl.obj
 0001:0000b5e0       ?get_Write2Data@COPOSPointCardRW@@UAGJPAPA_W@Z 1000c5e0 f   PointCardRWImpl.obj
 0001:0000b5f9       ?get_Write3Data@COPOSPointCardRW@@UAGJPAPA_W@Z 1000c5f9 f   PointCardRWImpl.obj
 0001:0000b612       ?get_Write4Data@COPOSPointCardRW@@UAGJPAPA_W@Z 1000c612 f   PointCardRWImpl.obj
 0001:0000b62b       ?get_Write5Data@COPOSPointCardRW@@UAGJPAPA_W@Z 1000c62b f   PointCardRWImpl.obj
 0001:0000b644       ?get_Write6Data@COPOSPointCardRW@@UAGJPAPA_W@Z 1000c644 f   PointCardRWImpl.obj
 0001:0000b65d       ?get_WriteState1@COPOSPointCardRW@@UAGJPAJ@Z 1000c65d f   PointCardRWImpl.obj
 0001:0000b676       ?get_WriteState2@COPOSPointCardRW@@UAGJPAJ@Z 1000c676 f   PointCardRWImpl.obj
 0001:0000b68f       ?put_BinaryConversion@COPOSPointCardRW@@UAGJJ@Z 1000c68f f   PointCardRWImpl.obj
 0001:0000b6a5       ?put_CharacterSet@COPOSPointCardRW@@UAGJJ@Z 1000c6a5 f   PointCardRWImpl.obj
 0001:0000b6be       ?put_DataEventEnabled@COPOSPointCardRW@@UAGJF@Z 1000c6be f   PointCardRWImpl.obj
 0001:0000b6db       ?put_DeviceEnabled@COPOSPointCardRW@@UAGJF@Z 1000c6db f   PointCardRWImpl.obj
 0001:0000b6f8       ?put_FreezeEvents@COPOSPointCardRW@@UAGJF@Z 1000c6f8 f   PointCardRWImpl.obj
 0001:0000b744       ?put_LineChars@COPOSPointCardRW@@UAGJJ@Z 1000c744 f   PointCardRWImpl.obj
 0001:0000b75d       ?put_LineHeight@COPOSPointCardRW@@UAGJJ@Z 1000c75d f   PointCardRWImpl.obj
 0001:0000b776       ?put_LineSpacing@COPOSPointCardRW@@UAGJJ@Z 1000c776 f   PointCardRWImpl.obj
 0001:0000b78f       ?put_MapCharacterSet@COPOSPointCardRW@@UAGJF@Z 1000c78f f   PointCardRWImpl.obj
 0001:0000b7af       ?put_MapMode@COPOSPointCardRW@@UAGJJ@Z 1000c7af f   PointCardRWImpl.obj
 0001:0000b7c8       ?put_PowerNotify@COPOSPointCardRW@@UAGJJ@Z 1000c7c8 f   PointCardRWImpl.obj
 0001:0000b7de       ?put_TracksToRead@COPOSPointCardRW@@UAGJJ@Z 1000c7de f   PointCardRWImpl.obj
 0001:0000b7f7       ?put_TracksToWrite@COPOSPointCardRW@@UAGJJ@Z 1000c7f7 f   PointCardRWImpl.obj
 0001:0000b810       ?put_Write1Data@COPOSPointCardRW@@UAGJPA_W@Z 1000c810 f   PointCardRWImpl.obj
 0001:0000b829       ?put_Write2Data@COPOSPointCardRW@@UAGJPA_W@Z 1000c829 f   PointCardRWImpl.obj
 0001:0000b842       ?put_Write3Data@COPOSPointCardRW@@UAGJPA_W@Z 1000c842 f   PointCardRWImpl.obj
 0001:0000b85b       ?put_Write4Data@COPOSPointCardRW@@UAGJPA_W@Z 1000c85b f   PointCardRWImpl.obj
 0001:0000b874       ?put_Write5Data@COPOSPointCardRW@@UAGJPA_W@Z 1000c874 f   PointCardRWImpl.obj
 0001:0000b88d       ?put_Write6Data@COPOSPointCardRW@@UAGJPA_W@Z 1000c88d f   PointCardRWImpl.obj
 0001:0000b8a6       ?s_EventWindowProc@COPOSPointCardRW@@KGJPAUHWND__@@IIJ@Z 1000c8a6 f i PointCardRWImpl.obj
 0001:0000b8f8       ??_U@YAPAXI@Z              1000c8f8 f   LIBCMT:new_array.obj
 0001:0000b901       ??3@YAXPAXI@Z              1000c901 f   LIBCMT:delete_scalar_size.obj
 0001:0000b90f       ??_V@YAXPAX@Z              1000c90f f   LIBCMT:delete_array.obj
 0001:0000b914       ??_V@YAXPAXI@Z             1000c914 f   LIBCMT:delete_array_size.obj
 0001:0000b922       ??$__crt_fast_encode_pointer@P6GXPAU_RTL_CONDITION_VARIABLE@@@Z@@YAP6GXPAU_RTL_CONDITION_VARIABLE@@@ZQ6GX0@Z@Z 1000c922 f i LIBCMT:thread_safe_statics.obj
 0001:0000b922       ??$__crt_fast_encode_pointer@PAX@@YAPAXQAX@Z 1000c922 f i libvcruntime:winapi_downlevel.obj
 0001:0000b922       ??$__crt_fast_encode_pointer@P6GHPAU_RTL_CONDITION_VARIABLE@@PAU_RTL_CRITICAL_SECTION@@K@Z@@YAP6GHPAU_RTL_CONDITION_VARIABLE@@PAU_RTL_CRITICAL_SECTION@@K@ZQ6GH01K@Z@Z 1000c922 f i LIBCMT:thread_safe_statics.obj
 0001:0000b922       ??$__crt_fast_encode_pointer@PAP6AXXZ@@YAPAP6AXXZQAP6AXXZ@Z 1000c922 f i LIBCMT:utility.obj
 0001:0000b983       ___scrt_acquire_startup_lock 1000c983 f   LIBCMT:utility.obj
 0001:0000b9b5       ___scrt_dllmain_after_initialize_c 1000c9b5 f   LIBCMT:utility.obj
 0001:0000b9e0       ___scrt_dllmain_before_initialize_c 1000c9e0 f   LIBCMT:utility.obj
 0001:0000b9ee       ___scrt_dllmain_crt_thread_attach 1000c9ee f   LIBCMT:utility.obj
 0001:0000ba0d       ___scrt_dllmain_crt_thread_detach 1000ca0d f   LIBCMT:utility.obj
 0001:0000ba1a       ___scrt_dllmain_exception_filter 1000ca1a f   LIBCMT:utility.obj
 0001:0000ba4e       ___scrt_dllmain_uninitialize_c 1000ca4e f   LIBCMT:utility.obj
 0001:0000ba71       ___scrt_dllmain_uninitialize_critical 1000ca71 f   LIBCMT:utility.obj
 0001:0000ba7e       ___scrt_initialize_crt     1000ca7e f   LIBCMT:utility.obj
 0001:0000bab7       ___scrt_initialize_onexit_tables 1000cab7 f   LIBCMT:utility.obj
 0001:0000bb5c       ___scrt_is_nonwritable_in_current_image 1000cb5c f   LIBCMT:utility.obj
 0001:0000bbf0       ___scrt_release_startup_lock 1000cbf0 f   LIBCMT:utility.obj
 0001:0000bc0d       ___scrt_uninitialize_crt   1000cc0d f   LIBCMT:utility.obj
 0001:0000bc35       __onexit                   1000cc35 f   LIBCMT:utility.obj
 0001:0000bc70       _atexit                    1000cc70 f   LIBCMT:utility.obj
 0001:0000bc85       ??3@YAXPAX@Z               1000cc85 f   LIBCMT:delete_scalar.obj
 0001:0000bdbc       __Init_thread_footer       1000cdbc f   LIBCMT:thread_safe_statics.obj
 0001:0000be06       __Init_thread_header       1000ce06 f   LIBCMT:thread_safe_statics.obj
 0001:0000be58       __Init_thread_notify       1000ce58 f   LIBCMT:thread_safe_statics.obj
 0001:0000be9a       __Init_thread_wait         1000ce9a f   LIBCMT:thread_safe_statics.obj
 0001:0000befa       ___raise_securityfailure   1000cefa f   LIBCMT:gs_report.obj
 0001:0000bf22       ___report_gsfailure        1000cf22 f   LIBCMT:gs_report.obj
 0001:0000c01b       ___report_rangecheckfailure 1000d01b f   LIBCMT:gs_report.obj
 0001:0000c027       ___report_securityfailure  1000d027 f   LIBCMT:gs_report.obj
 0001:0000c0f5       ??2@YAPAXIABUnothrow_t@std@@@Z 1000d0f5 f   LIBCMT:new_scalar_nothrow.obj
 0001:0000c145       ??_U@YAPAXIABUnothrow_t@std@@@Z 1000d145 f   LIBCMT:new_array_nothrow.obj
 0001:0000c14e       @__security_check_cookie@4 1000d14e f   LIBCMT:_secchk_.obj
 0001:0000c160       __SEH_prolog4_GS           1000d160 f   LIBCMT:_sehprolg4gs_.obj
 0001:0000c1a9       __SEH_epilog4_GS           1000d1a9 f   LIBCMT:_sehprolg4gs_.obj
 0001:0000c1c0       __alloca_probe_16          1000d1c0 f   LIBCMT:alloca16.obj
 0001:0000c1d6       __alloca_probe_8           1000d1d6     LIBCMT:alloca16.obj
 0001:0000c1f0       __alloca_probe             1000d1f0 f   LIBCMT:chkstk.obj
 0001:0000c1f0       __chkstk                   1000d1f0 f   LIBCMT:chkstk.obj
 0001:0000c53d       __DllMainCRTStartup@12     1000d53d f   LIBCMT:dll_dllmain.obj
 0001:0000c560       ??2@YAPAXI@Z               1000d560 f   LIBCMT:new_scalar.obj
 0001:0000c590       ___isa_available_init      1000d590 f   LIBCMT:_cpu_disp_.obj
 0001:0000c727       ___scrt_is_ucrt_dll_in_use 1000d727 f   LIBCMT:ucrt_detection.obj
 0001:0000c733       ___scrt_fastfail           1000d733 f   LIBCMT:utility_desktop.obj
 0001:0000c84d       __crt_debugger_hook        1000d84d f   LIBCMT:utility_desktop.obj
 0001:0000c860       __SEH_prolog4              1000d860 f   LIBCMT:_sehprolg4_.obj
 0001:0000c8a6       __SEH_epilog4              1000d8a6 f   LIBCMT:_sehprolg4_.obj
 0001:0000c8bb       @_guard_check_icall_nop@4  1000d8bb f i LIBCMT:guard_support.obj
 0001:0000c909       ___security_init_cookie    1000d909 f   LIBCMT:gs_support.obj
 0001:0000c954       ?__scrt_initialize_type_info@@YAXXZ 1000d954 f   LIBCMT:tncleanup.obj
 0001:0000c960       ?__scrt_uninitialize_type_info@@YAXXZ 1000d960 f   LIBCMT:tncleanup.obj
 0001:0000c96c       ___local_stdio_scanf_options 1000d96c f i LIBCMT:default_local_stdio_options.obj
 0001:0000c972       ___scrt_initialize_default_local_stdio_options 1000d972 f   LIBCMT:default_local_stdio_options.obj
 0001:0000c98f       ___scrt_get_dyn_tls_init_callback 1000d98f f   LIBCMT:dyn_tls_init.obj
 0001:0000c995       __RTC_Initialize           1000d995 f   LIBCMT:_initsect_.obj
 0001:0000c9c1       __RTC_Terminate            1000d9c1 f   LIBCMT:_initsect_.obj
 0001:0000c9ed       ??0bad_alloc@std@@QAE@ABV01@@Z 1000d9ed f i LIBCMT:throw_bad_alloc.obj
 0001:0000ca08       ??0bad_alloc@std@@QAE@XZ   1000da08 f i LIBCMT:throw_bad_alloc.obj
 0001:0000ca20       ??0bad_array_new_length@std@@QAE@ABV01@@Z 1000da20 f i LIBCMT:throw_bad_alloc.obj
 0001:0000ca3b       ??0bad_array_new_length@std@@QAE@XZ 1000da3b f i LIBCMT:throw_bad_alloc.obj
 0001:0000ca53       ??0exception@std@@QAE@ABV01@@Z 1000da53 f i LIBCMT:throw_bad_alloc.obj
 0001:0000ca7f       ??1bad_array_new_length@std@@UAE@XZ 1000da7f f i LIBCMT:throw_bad_alloc.obj
 0001:0000ca7f       ??1bad_alloc@std@@UAE@XZ   1000da7f f i LIBCMT:throw_bad_alloc.obj
 0001:0000ca7f       ??1bad_exception@std@@UAE@XZ 1000da7f f i libvcruntime:frame.obj
 0001:0000ca90       ??_Ebad_exception@std@@UAEPAXI@Z 1000da90 f i libvcruntime:frame.obj
 0001:0000ca90       ??_Ebad_array_new_length@std@@UAEPAXI@Z 1000da90 f i LIBCMT:throw_bad_alloc.obj
 0001:0000ca90       ??_Gbad_array_new_length@std@@UAEPAXI@Z 1000da90 f i LIBCMT:throw_bad_alloc.obj
 0001:0000ca90       ??_Gexception@std@@UAEPAXI@Z 1000da90 f i LIBCMT:throw_bad_alloc.obj
 0001:0000ca90       ??_Ebad_alloc@std@@UAEPAXI@Z 1000da90 f i LIBCMT:throw_bad_alloc.obj
 0001:0000ca90       ??_Gbad_exception@std@@UAEPAXI@Z 1000da90 f i libvcruntime:frame.obj
 0001:0000ca90       ??_Gbad_alloc@std@@UAEPAXI@Z 1000da90 f i LIBCMT:throw_bad_alloc.obj
 0001:0000ca90       ??_Eexception@std@@UAEPAXI@Z 1000da90 f i LIBCMT:throw_bad_alloc.obj
 0001:0000cabd       ?__scrt_throw_std_bad_alloc@@YAXXZ 1000dabd f   LIBCMT:throw_bad_alloc.obj
 0001:0000cada       ?__scrt_throw_std_bad_array_new_length@@YAXXZ 1000dada f   LIBCMT:throw_bad_alloc.obj
 0001:0000caf7       ?what@exception@std@@UBEPBDXZ 1000daf7 f i LIBCMT:throw_bad_alloc.obj
 0001:0000cb04       ??_Etype_info@@UAEPAXI@Z   1000db04 f i LIBCMT:std_type_info_static.obj
 0001:0000cb04       ??_Gtype_info@@UAEPAXI@Z   1000db04 f i LIBCMT:std_type_info_static.obj
 0001:0000cb27       ??0CAtlBaseModule@ATL@@QAE@XZ 1000db27 f   atls:atlbase.obj
 0001:0000cb7a       ??0_ATL_BASE_MODULE70@ATL@@QAE@XZ 1000db7a f i atls:atlbase.obj
 0001:0000cb9d       ??1CAtlBaseModule@ATL@@QAE@XZ 1000db9d f   atls:atlbase.obj
 0001:0000cc8a       ?Init@_stdcallthunk@ATL@@QAEHKPAX@Z 1000dc8a f i atls:atlthunk.obj
 0001:0000ccbf       ?__AllocStdCallThunk_cmn@@YAPAXXZ 1000dcbf f   atls:atlthunk.obj
 0001:0000cd85       ?__FreeStdCallThunk_cmn@@YAXPAX@Z 1000dd85 f   atls:atlthunk.obj
 0001:0000ce20       _AtlThunk_AllocateData@0   1000de20 f   atls:atlthunk.obj
 0001:0000ce85       _AtlThunk_DataToCode@4     1000de85 f   atls:atlthunk.obj
 0001:0000cecc       _AtlThunk_FreeData@4       1000decc f   atls:atlthunk.obj
 0001:0000cf22       _AtlThunk_InitData@12      1000df22 f   atls:atlthunk.obj
 0001:0000cf71       __get_purecall_handler     1000df71 f   libvcruntime:purevirt.obj
 0001:0000cf86       __purecall                 1000df86 f   libvcruntime:purevirt.obj
 0001:0000cfa2       _wcsstr                    1000dfa2 f   libvcruntime:wcsstr.obj
 0001:0000d260       __except_handler4          1000e260 f   libvcruntime:_chandler4_.obj
 0001:0000d3b7       _memcmp                    1000e3b7 f   libvcruntime:_memcmp_.obj
 0001:0000e360       _memcpy                    1000f360 f   libvcruntime:memcpy.obj
 0001:0000e8e0       _memset                    1000f8e0 f   libvcruntime:memset.obj
 0001:0000ea3a       ___vcrt_initialize         1000fa3a f   libvcruntime:initialization.obj
 0001:0000ea63       ___vcrt_thread_attach      1000fa63 f   libvcruntime:initialization.obj
 0001:0000ea6e       ___vcrt_thread_detach      1000fa6e f   libvcruntime:initialization.obj
 0001:0000ea79       ___vcrt_uninitialize       1000fa79 f   libvcruntime:initialization.obj
 0001:0000ea98       ___vcrt_uninitialize_critical 1000fa98 f   libvcruntime:initialization.obj
 0001:0000eaa0       ?GetRangeOfTrysToCheck@__FrameHandler3@@SA?AU?$pair@Viterator@TryBlockMap@__FrameHandler3@@V123@@std@@AAVTryBlockMap@1@HH@Z 1000faa0 f   libvcruntime:trnsctrl.obj
 0001:0000eb22       ?_CallCatchBlock2@@YAPAXPAUEHRegistrationNode@@PBU_s_FuncInfo@@PAXHK@Z 1000fb22 f   libvcruntime:trnsctrl.obj
 0001:0000eb80       ?_CallSETranslator@@YAHPAUEHExceptionRecord@@PAUEHRegistrationNode@@PAX2PBU_s_FuncInfo@@H1@Z 1000fb80 f   libvcruntime:trnsctrl.obj
 0001:0000ec5b       ?_JumpToContinuation@@YGXPAXPAUEHRegistrationNode@@@Z 1000fc5b f   libvcruntime:trnsctrl.obj
 0001:0000ec8b       ?_UnwindNestedFrames@@YGXPAUEHRegistrationNode@@PAUEHExceptionRecord@@@Z 1000fc8b f   libvcruntime:trnsctrl.obj
 0001:0000ecde       __CatchGuardHandler        1000fcde f   libvcruntime:trnsctrl.obj
 0001:0000ed0f       __CreateFrameInfo          1000fd0f f   libvcruntime:trnsctrl.obj
 0001:0000ed33       __FindAndUnlinkFrame       1000fd33 f   libvcruntime:trnsctrl.obj
 0001:0000ed78       __TranslatorGuardHandler   1000fd78 f   libvcruntime:trnsctrl.obj
 0001:0000ee15       ___CxxFrameHandler3        1000fe15 f   libvcruntime:trnsctrl.obj
 0001:0000ee4b       ___std_type_info_compare   1000fe4b f   libvcruntime:std_type_info.obj
 0001:0000ee87       ___std_type_info_destroy_list 1000fe87 f   libvcruntime:std_type_info.obj
 0001:0000eeaa       ___std_exception_copy      1000feaa f   libvcruntime:std_exception.obj
 0001:0000ef0d       ___std_exception_destroy   1000ff0d f   libvcruntime:std_exception.obj
 0001:0000ef2c       __CxxThrowException@8      1000ff2c f   libvcruntime:throw.obj
 0001:0000efa0       _memmove                   1000ffa0 f   libvcruntime:memmove.obj
 0001:0000f514       ___vcrt_initialize_pure_virtual_call_handler 10010514 f   libvcruntime:purevirt_data.obj
 0001:0000f520       __local_unwind4            10010520 f   libvcruntime:_exsup4_.obj
 0001:0000f5f8       __seh_longjmp_unwind4@4    100105f8 f   libvcruntime:_exsup4_.obj
 0001:0000f620       @_EH4_CallFilterFunc@8     10010620 f   libvcruntime:_exsup4_.obj
 0001:0000f638       @_EH4_TransferToHandler@8  10010638 f   libvcruntime:_exsup4_.obj
 0001:0000f654       @_EH4_GlobalUnwind2@8      10010654 f   libvcruntime:_exsup4_.obj
 0001:0000f670       @_EH4_LocalUnwind@16       10010670 f   libvcruntime:_exsup4_.obj
 0001:0000f687       ___except_validate_context_record 10010687 f   libvcruntime:jbcxrval.obj
 0001:0000f6b7       ___except_validate_jump_buffer 100106b7 f   libvcruntime:jbcxrval.obj
 0001:0000f6e4       ___vcrt_freefls@4          100106e4 f   libvcruntime:per_thread_data.obj
 0001:0000f700       ___vcrt_freeptd            10010700 f   libvcruntime:per_thread_data.obj
 0001:0000f736       ___vcrt_getptd             10010736 f   libvcruntime:per_thread_data.obj
 0001:0000f744       ___vcrt_getptd_noexit      10010744 f   libvcruntime:per_thread_data.obj
 0001:0000f7d6       ___vcrt_initialize_ptd     100107d6 f   libvcruntime:per_thread_data.obj
 0001:0000f809       ___vcrt_uninitialize_ptd   10010809 f   libvcruntime:per_thread_data.obj
 0001:0000f824       ___vcrt_initialize_locks   10010824 f   libvcruntime:locks.obj
 0001:0000f860       ___vcrt_uninitialize_locks 10010860 f   libvcruntime:locks.obj
 0001:0000f9c2       ___vcrt_FlsAlloc           100109c2 f   libvcruntime:winapi_downlevel.obj
 0001:0000f9fd       ___vcrt_FlsFree            100109fd f   libvcruntime:winapi_downlevel.obj
 0001:0000fa38       ___vcrt_FlsGetValue        10010a38 f   libvcruntime:winapi_downlevel.obj
 0001:0000fa73       ___vcrt_FlsSetValue        10010a73 f   libvcruntime:winapi_downlevel.obj
 0001:0000fab1       ___vcrt_InitializeCriticalSectionEx 10010ab1 f   libvcruntime:winapi_downlevel.obj
 0001:0000faf8       ___vcrt_initialize_winapi_thunks 10010af8 f   libvcruntime:winapi_downlevel.obj
 0001:0000fb21       ___vcrt_uninitialize_winapi_thunks 10010b21 f   libvcruntime:winapi_downlevel.obj
 0001:0001024a       ??$TypeMatchHelper@$$CBU_s_HandlerType@@@@YAHPBU_s_HandlerType@@PBU_s_CatchableType@@PBU_s_ThrowInfo@@@Z 1001124a f i libvcruntime:frame.obj
 0001:000102d8       ??$__InternalCxxFrameHandler@V__FrameHandler3@@@@YA?AW4_EXCEPTION_DISPOSITION@@PAUEHExceptionRecord@@PAUEHRegistrationNode@@PAU_CONTEXT@@PAXPBU_s_FuncInfo@@H1E@Z 100112d8 f i libvcruntime:frame.obj
 0001:000103da       ??0bad_exception@std@@QAE@ABV01@@Z 100113da f i libvcruntime:frame.obj
 0001:000103f5       ??0bad_exception@std@@QAE@XZ 100113f5 f i libvcruntime:frame.obj
 0001:0001040d       ??8type_info@@QBE_NABV0@@Z 1001140d f i libvcruntime:frame.obj
 0001:00010674       ?FrameUnwindToEmptyState@__FrameHandler3@@SAXPAUEHRegistrationNode@@PAXPBU_s_FuncInfo@@@Z 10011674 f   libvcruntime:frame.obj
 0001:0001068c       ?FrameUnwindToState@__FrameHandler3@@SAXPAUEHRegistrationNode@@PAXPBU_s_FuncInfo@@H@Z 1001168c f   libvcruntime:frame.obj
 0001:0001080e       ?_CallMemberFunction1@@YGXQAX00@Z 1001180e f i libvcruntime:frame.obj
 0001:0001081e       ?_CallMemberFunction2@@YGXQAX00H@Z 1001181e f i libvcruntime:frame.obj
 0001:00010831       ?getESTypes@__FrameHandler3@@SAPBU_s_ESTypeList@@PBU_s_FuncInfo@@@Z 10011831 f i libvcruntime:frame.obj
 0001:00010840       __CallSettingFrame@12      10011840 f   libvcruntime:lowhelpr.obj
 0001:00010867       __NLG_Return               10011867     libvcruntime:lowhelpr.obj
 0001:00010890       __global_unwind2           10011890 f   libvcruntime:_exsup_.obj
 0001:000108f6       __local_unwind2            100118f6 f   libvcruntime:_exsup_.obj
 0001:0001097a       __abnormal_termination     1001197a f   libvcruntime:_exsup_.obj
 0001:000109a0       __NLG_Notify1              100119a0 f   libvcruntime:_exsup_.obj
 0001:000109ac       __NLG_Notify               100119ac f   libvcruntime:_exsup_.obj
 0001:000109c3       __NLG_Dispatch             100119c3     libvcruntime:_exsup_.obj
 0001:000109c3       __NLG_Dispatch2            100119c3     libvcruntime:_exsup_.obj
 0001:000109cb       __NLG_Call                 100119cb f   libvcruntime:_exsup_.obj
 0001:000109cd       __NLG_Return2              100119cd     libvcruntime:_exsup_.obj
 0001:000109ce       _unexpected                100119ce f   libvcruntime:unexpected.obj
 0001:000109eb       ?GetCurrentState@__FrameHandler3@@SAHPAUEHRegistrationNode@@PAXPBU_s_FuncInfo@@@Z 100119eb f   libvcruntime:ehstate.obj
 0001:00010a08       ?SetState@__FrameHandler3@@SAXPAUEHRegistrationNode@@PBU_s_FuncInfo@@H@Z 10011a08 f   libvcruntime:ehstate.obj
 0001:00010a16       ___DestructExceptionObject 10011a16 f   libvcruntime:ehhelpers.obj
 0001:00010ab6       ?_CallMemberFunction0@@YGXQAX0@Z 10011ab6 f i libvcruntime:ehhelpers.obj
 0001:00010ac3       __IsExceptionObjectToBeDestroyed 10011ac3 f   libvcruntime:ehhelpers.obj
 0001:00010ae9       ___AdjustPointer           10011ae9 f   libvcruntime:ehhelpers.obj
 0001:00010b0e       ___FrameUnwindFilter       10011b0e f   libvcruntime:ehhelpers.obj
 0001:00010b53       _free                      10011b53 f   libucrt:free.obj
 0001:00010b70       ___acrt_call_reportfault   10011b70 f   libucrt:invalid_parameter.obj
 0001:00010cab       ___acrt_initialize_invalid_parameter_handler 10011cab f   libucrt:invalid_parameter.obj
 0001:00010cba       __invalid_parameter        10011cba f   libucrt:invalid_parameter.obj
 0001:00010d35       __invalid_parameter_noinfo 10011d35 f   libucrt:invalid_parameter.obj
 0001:00010d45       __invoke_watson            10011d45 f   libucrt:invalid_parameter.obj
 0001:00010d78       ___acrt_errno_from_os_error 10011d78 f   libucrt:errno.obj
 0001:00010dbb       ___acrt_errno_map_os_error 10011dbb f   libucrt:errno.obj
 0001:00010dde       ___doserrno                10011dde f   libucrt:errno.obj
 0001:00010df1       __errno                    10011df1 f   libucrt:errno.obj
 0001:00010e04       _calloc                    10011e04 f   libucrt:calloc.obj
 0001:00010e0f       _malloc                    10011e0f f   libucrt:malloc.obj
 0001:00010e1a       __recalloc                 10011e1a f   libucrt:recalloc.obj
 0001:00010e25       __recalloc_base            10011e25 f   libucrt:recalloc.obj
 0001:00010e92       __resetstkoflw             10011e92 f   libucrt:resetstk.obj
 0001:00010f63       _wcscat_s                  10011f63 f   libucrt:wcscat_s.obj
 0001:00010fd8       _wcscpy_s                  10011fd8 f   libucrt:wcscpy_s.obj
 0001:00011109       _wcsncpy_s                 10012109 f   libucrt:wcsncpy_s.obj
 0001:00011317       ??$count@D@formatting_buffer@__crt_stdio_output@@QBEIXZ 10012317 f i libucrt:output.obj
 0001:0001132f       ??$count@_W@formatting_buffer@__crt_stdio_output@@QBEIXZ 1001232f f i libucrt:output.obj
 0001:00011348       ??$ensure_buffer_is_big_enough@D@formatting_buffer@__crt_stdio_output@@QAE_NI@Z 10012348 f i libucrt:output.obj
 0001:000113ce       ??$is_wide_character_specifier@_W@__crt_stdio_output@@YA_N_K_WW4length_modifier@0@@Z 100123ce f i libucrt:output.obj
 0001:0001141d       ??$scratch_data@D@formatting_buffer@__crt_stdio_output@@QAEPADXZ 1001241d f i libucrt:output.obj
 0001:0001143b       ??$type_case_integer_parse_into_buffer@I@?$output_processor@_WV?$string_output_adapter@_W@__crt_stdio_output@@V?$format_validation_base@_WV?$string_output_adapter@_W@__crt_stdio_output@@@2@@__crt_stdio_output@@AAEXII_N@Z 1001243b f i libucrt:output.obj
 0001:000114c1       ??$type_case_integer_parse_into_buffer@_K@?$output_processor@_WV?$string_output_adapter@_W@__crt_stdio_output@@V?$format_validation_base@_WV?$string_output_adapter@_W@__crt_stdio_output@@@2@@__crt_stdio_output@@AAEX_KI_N@Z 100124c1 f i libucrt:output.obj
 0001:0001155c       ??$write_multiple_characters@V?$string_output_adapter@_W@__crt_stdio_output@@D@__crt_stdio_output@@YAXABV?$string_output_adapter@_W@0@DHQAH@Z 1001255c f i libucrt:output.obj
 0001:0001158d       ??0?$common_data@_W@__crt_stdio_output@@IAE@XZ 1001258d f i libucrt:output.obj
 0001:000115d9       ??0?$output_adapter_data@_WV?$string_output_adapter@_W@__crt_stdio_output@@@__crt_stdio_output@@IAE@ABV?$string_output_adapter@_W@1@_KQB_WQAU__crt_locale_pointers@@QAD@Z 100125d9 f i libucrt:output.obj
 0001:00011615       ??0_LocaleUpdate@@QAE@QAU__crt_locale_pointers@@@Z 10012615 f i libucrt:output.obj
 0001:00011698       ??1formatting_buffer@__crt_stdio_output@@QAE@XZ 10012698 f i libucrt:output.obj
 0001:000116b2       ??4?$__crt_unique_heap_ptr@DU__crt_internal_free_policy@@@@QAEAAV0@$$QAV0@@Z 100126b2 f i libucrt:output.obj
 0001:000116d6       ?crop_zeroes@__crt_stdio_output@@YAXPADQAU__crt_locale_pointers@@@Z 100126d6 f i libucrt:output.obj
 0001:0001172d       ?find_next_state@?$output_processor@_WV?$string_output_adapter@_W@__crt_stdio_output@@V?$format_validation_base@_WV?$string_output_adapter@_W@__crt_stdio_output@@@2@@__crt_stdio_output@@ABE?AW4state@2@_WW432@@Z 1001272d f i libucrt:output.obj
 0001:00011764       ?force_decimal_point@__crt_stdio_output@@YAXPADQAU__crt_locale_pointers@@@Z 10012764 f i libucrt:output.obj
 0001:000117c0       ?parse_int_from_format_string@?$output_processor@_WV?$string_output_adapter@_W@__crt_stdio_output@@V?$format_validation_base@_WV?$string_output_adapter@_W@__crt_stdio_output@@@2@@__crt_stdio_output@@AAE_NQAH@Z 100127c0 f i libucrt:output.obj
 0001:0001183a       ?process@?$output_processor@_WV?$string_output_adapter@_W@__crt_stdio_output@@V?$format_validation_base@_WV?$string_output_adapter@_W@__crt_stdio_output@@@2@@__crt_stdio_output@@QAEHXZ 1001283a f i libucrt:output.obj
 0001:0001196a       ?state_case_flag@?$output_processor@_WV?$string_output_adapter@_W@__crt_stdio_output@@V?$format_validation_base@_WV?$string_output_adapter@_W@__crt_stdio_output@@@2@@__crt_stdio_output@@AAE_NXZ 1001296a f i libucrt:output.obj
 0001:000119a7       ?state_case_normal@?$output_processor@_WV?$string_output_adapter@_W@__crt_stdio_output@@V?$format_validation_base@_WV?$string_output_adapter@_W@__crt_stdio_output@@@2@@__crt_stdio_output@@AAE_NXZ 100129a7 f i libucrt:output.obj
 0001:000119c6       ?state_case_normal_common@?$output_processor@_WV?$string_output_adapter@_W@__crt_stdio_output@@V?$format_validation_base@_WV?$string_output_adapter@_W@__crt_stdio_output@@@2@@__crt_stdio_output@@AAE_NXZ 100129c6 f i libucrt:output.obj
 0001:000119e1       ?state_case_precision@?$output_processor@_WV?$string_output_adapter@_W@__crt_stdio_output@@V?$format_validation_base@_WV?$string_output_adapter@_W@__crt_stdio_output@@@2@@__crt_stdio_output@@AAE_NXZ 100129e1 f i libucrt:output.obj
 0001:00011a0a       ?state_case_size@?$output_processor@_WV?$string_output_adapter@_W@__crt_stdio_output@@V?$format_validation_base@_WV?$string_output_adapter@_W@__crt_stdio_output@@@2@@__crt_stdio_output@@AAE_NXZ 10012a0a f i libucrt:output.obj
 0001:00011b86       ?state_case_type@?$output_processor@_WV?$string_output_adapter@_W@__crt_stdio_output@@V?$format_validation_base@_WV?$string_output_adapter@_W@__crt_stdio_output@@@2@@__crt_stdio_output@@AAE_NXZ 10012b86 f i libucrt:output.obj
 0001:00011de4       ?state_case_width@?$output_processor@_WV?$string_output_adapter@_W@__crt_stdio_output@@V?$format_validation_base@_WV?$string_output_adapter@_W@__crt_stdio_output@@@2@@__crt_stdio_output@@AAE_NXZ 10012de4 f i libucrt:output.obj
 0001:00011e10       ?to_integer_size@__crt_stdio_output@@YAIW4length_modifier@1@@Z 10012e10 f i libucrt:output.obj
 0001:00011e6c       ?type_case_Z@?$output_processor@_WV?$string_output_adapter@_W@__crt_stdio_output@@V?$format_validation_base@_WV?$string_output_adapter@_W@__crt_stdio_output@@@2@@__crt_stdio_output@@AAE_NXZ 10012e6c f i libucrt:output.obj
 0001:00011ecf       ?type_case_a@?$output_processor@_WV?$string_output_adapter@_W@__crt_stdio_output@@V?$format_validation_base@_WV?$string_output_adapter@_W@__crt_stdio_output@@@2@@__crt_stdio_output@@AAE_NXZ 10012ecf f i libucrt:output.obj
 0001:00012041       ?type_case_c_tchar@?$output_processor@_WV?$string_output_adapter@_W@__crt_stdio_output@@V?$format_validation_base@_WV?$string_output_adapter@_W@__crt_stdio_output@@@2@@__crt_stdio_output@@AAE_N_W@Z 10013041 f i libucrt:output.obj
 0001:000120d9       ?type_case_integer@?$output_processor@_WV?$string_output_adapter@_W@__crt_stdio_output@@V?$format_validation_base@_WV?$string_output_adapter@_W@__crt_stdio_output@@@2@@__crt_stdio_output@@AAE_NI_N@Z 100130d9 f i libucrt:output.obj
 0001:0001222b       ?type_case_n@?$output_processor@_WV?$string_output_adapter@_W@__crt_stdio_output@@V?$format_validation_base@_WV?$string_output_adapter@_W@__crt_stdio_output@@@2@@__crt_stdio_output@@AAE_NXZ 1001322b f i libucrt:output.obj
 0001:0001229f       ?type_case_o@?$output_processor@_WV?$string_output_adapter@_W@__crt_stdio_output@@V?$format_validation_base@_WV?$string_output_adapter@_W@__crt_stdio_output@@@2@@__crt_stdio_output@@AAE_NXZ 1001329f f i libucrt:output.obj
 0001:000122be       ?type_case_p@?$output_processor@_WV?$string_output_adapter@_W@__crt_stdio_output@@V?$format_validation_base@_WV?$string_output_adapter@_W@__crt_stdio_output@@@2@@__crt_stdio_output@@AAE_NXZ 100132be f i libucrt:output.obj
 0001:000122d6       ?type_case_s@?$output_processor@_WV?$string_output_adapter@_W@__crt_stdio_output@@V?$format_validation_base@_WV?$string_output_adapter@_W@__crt_stdio_output@@@2@@__crt_stdio_output@@AAE_NXZ 100132d6 f i libucrt:output.obj
 0001:0001234a       ?type_case_s_compute_narrow_string_length@?$output_processor@_WV?$string_output_adapter@_W@__crt_stdio_output@@V?$format_validation_base@_WV?$string_output_adapter@_W@__crt_stdio_output@@@2@@__crt_stdio_output@@ABEHH_W@Z 1001334a f i libucrt:output.obj
 0001:0001238a       ?validate@?$c_string_character_source@_W@__crt_strtox@@QBE_NXZ 1001338a f i libucrt:atox.obj
 0001:0001238a       ?validate@?$string_output_adapter@_W@__crt_stdio_output@@QBE_NXZ 1001338a f i libucrt:output.obj
 0001:000123a5       ?validate_and_update_state_at_end_of_format_string@?$format_validation_base@_WV?$string_output_adapter@_W@__crt_stdio_output@@@__crt_stdio_output@@IBE_NXZ 100133a5 f i libucrt:output.obj
 0001:000123c7       ?write_character@?$string_output_adapter@_W@__crt_stdio_output@@QBE_N_WQAH@Z 100133c7 f i libucrt:output.obj
 0001:0001240c       ?write_stored_string_tchar@?$output_processor@_WV?$string_output_adapter@_W@__crt_stdio_output@@V?$format_validation_base@_WV?$string_output_adapter@_W@__crt_stdio_output@@@2@@__crt_stdio_output@@AAE_N_W@Z 1001340c f i libucrt:output.obj
 0001:00012498       ?write_string@?$string_output_adapter@_W@__crt_stdio_output@@QBEXQB_WHQAHAAV__crt_deferred_errno_cache@@@Z 10013498 f i libucrt:output.obj
 0001:0001250b       ___stdio_common_vswprintf_s 1001350b f   libucrt:output.obj
 0001:0001252f       __seh_filter_dll           1001352f f   libucrt:exception_filter.obj
 0001:0001254f       __seh_filter_exe           1001354f f   libucrt:exception_filter.obj
 0001:000126c2       ??$?RV<lambda_03b1d95aef87969028cfba75ccab2455>@@AAV<lambda_6e4b09c48022b2350581041d5f6b0c4c>@@V<lambda_22bdf7517842c4b3e53723af5aa32b9e>@@@?$__crt_seh_guarded_call@X@@QAEX$$QAV<lambda_03b1d95aef87969028cfba75ccab2455>@@AAV<lambda_6e4b09c48022b2350581041d5f6b0c4c>@@$$QAV<lambda_22bdf7517842c4b3e53723af5aa32b9e>@@@Z 100136c2 f i libucrt:exit.obj
 0001:00012705       ??$__acrt_lock_and_call@V<lambda_6e4b09c48022b2350581041d5f6b0c4c>@@@@YAXW4__acrt_lock_id@@$$QAV<lambda_6e4b09c48022b2350581041d5f6b0c4c>@@@Z 10013705 f i libucrt:exit.obj
 0001:00012962       ___acrt_initialize_thread_local_exit_callback 10013962 f   libucrt:exit.obj
 0001:00012971       __cexit                    10013971 f   libucrt:exit.obj
 0001:00012980       __exit                     10013980 f   libucrt:exit.obj
 0001:00012996       __is_c_termination_complete 10013996 f   libucrt:exit.obj
 0001:00012c47       ___acrt_allocate_buffer_for_argv 10013c47 f   libucrt:argv_parsing.obj
 0001:00012c9c       __configure_narrow_argv    10013c9c f   libucrt:argv_parsing.obj
 0001:00012e00       ??$uninitialize@A6AXAAPAPAD@Z@?$dual_state_global@PAPAD@__crt_state_management@@QAEXA6AXAAPAPAD@Z@Z 10013e00 f i libucrt:environment_initialization.obj
 0001:00012e00       ??$uninitialize@A6AXAAPAPA_W@Z@?$dual_state_global@PAPA_W@__crt_state_management@@QAEXA6AXAAPAPA_W@Z@Z 10013e00 f i libucrt:environment_initialization.obj
 0001:00012e76       ?initialize@?$dual_state_global@P6AXH@Z@__crt_state_management@@QAEXQ6AXH@Z@Z 10013e76 f i libucrt:signal.obj
 0001:00012e76       ?initialize@?$dual_state_global@P6AHPAU_exception@@@Z@__crt_state_management@@QAEXQ6AHPAU_exception@@@Z@Z 10013e76 f i libucrt:matherr.obj
 0001:00012e76       ?initialize@?$dual_state_global@PAU__crt_locale_data@@@__crt_state_management@@QAEXQAU__crt_locale_data@@@Z 10013e76 f i libucrt:initialization.obj
 0001:00012e76       ?initialize@?$dual_state_global@P6AHI@Z@__crt_state_management@@QAEXQ6AHI@Z@Z 10013e76 f i libucrt:new_handler.obj
 0001:00012e76       ?initialize@?$dual_state_global@PAU__crt_multibyte_data@@@__crt_state_management@@QAEXQAU__crt_multibyte_data@@@Z 10013e76 f i libucrt:mbctype.obj
 0001:00012e76       ?initialize@?$dual_state_global@PAPAD@__crt_state_management@@QAEXQAPAD@Z 10013e76 f i libucrt:environment_initialization.obj
 0001:00012ea7       ___dcrt_uninitialize_environments_nolock 10013ea7 f   libucrt:environment_initialization.obj
 0001:00012ede       __initialize_narrow_environment 10013ede f   libucrt:environment_initialization.obj
 0001:00012ee3       ??$?RV<lambda_69a2805e680e0e292e8ba93315fe43a8>@@AAV<lambda_f03950bc5685219e0bcd2087efbe011e>@@V<lambda_03fcd07e894ec930e3f35da366ca99d6>@@@?$__crt_seh_guarded_call@H@@QAEH$$QAV<lambda_69a2805e680e0e292e8ba93315fe43a8>@@AAV<lambda_f03950bc5685219e0bcd2087efbe011e>@@$$QAV<lambda_03fcd07e894ec930e3f35da366ca99d6>@@@Z 10013ee3 f i libucrt:onexit.obj
 0001:00012f34       ??$?RV<lambda_8e746cf0007f6ed984d6f78af1fec997>@@AAV<lambda_22ebabd17bc4fa466a2aca6d8deb888d>@@V<lambda_18ed0c0b38a6dc0daf1e7ac6d6adf05e>@@@?$__crt_seh_guarded_call@H@@QAEH$$QAV<lambda_8e746cf0007f6ed984d6f78af1fec997>@@AAV<lambda_22ebabd17bc4fa466a2aca6d8deb888d>@@$$QAV<lambda_18ed0c0b38a6dc0daf1e7ac6d6adf05e>@@@Z 10013f34 f i libucrt:onexit.obj
 0001:00012f85       ??$__acrt_lock_and_call@V<lambda_22ebabd17bc4fa466a2aca6d8deb888d>@@@@YAHW4__acrt_lock_id@@$$QAV<lambda_22ebabd17bc4fa466a2aca6d8deb888d>@@@Z 10013f85 f i libucrt:onexit.obj
 0001:00012fad       ??$__acrt_lock_and_call@V<lambda_f03950bc5685219e0bcd2087efbe011e>@@@@YAHW4__acrt_lock_id@@$$QAV<lambda_f03950bc5685219e0bcd2087efbe011e>@@@Z 10013fad f i libucrt:onexit.obj
 0001:00012fd5       ??$__crt_fast_encode_pointer@P6AHXZ@@YAP6AHXZQ6AHXZ@Z 10013fd5 f i libucrt:onexit.obj
 0001:00013253       __crt_atexit               10014253 f   libucrt:onexit.obj
 0001:00013269       __execute_onexit_table     10014269 f   libucrt:onexit.obj
 0001:00013286       __initialize_onexit_table  10014286 f   libucrt:onexit.obj
 0001:000132c3       __register_onexit_function 100142c3 f   libucrt:onexit.obj
 0001:00013313       ___acrt_uninitialize_command_line 10014313 f   libucrt:argv_data.obj
 0001:000133f6       ___acrt_initialize         100143f6 f   libucrt:initialization.obj
 0001:00013408       ___acrt_thread_attach      10014408 f   libucrt:initialization.obj
 0001:00013413       ___acrt_thread_detach      10014413 f   libucrt:initialization.obj
 0001:0001341b       ___acrt_uninitialize       1001441b f   libucrt:initialization.obj
 0001:0001342d       ___acrt_uninitialize_critical 1001442d f   libucrt:initialization.obj
 0001:0001343f       __initterm                 1001443f f   libucrt:initterm.obj
 0001:0001349b       __initterm_e               1001449b f   libucrt:initterm.obj
 0001:000134e0       ___acrt_initialize_new_handler 100144e0 f   libucrt:new_handler.obj
 0001:000134f4       __callnewh                 100144f4 f   libucrt:new_handler.obj
 0001:00013538       __query_new_handler        10014538 f   libucrt:new_handler.obj
 0001:0001358a       _terminate                 1001458a f   libucrt:terminate.obj
 0001:000135c6       _abort                     100145c6 f   libucrt:abort.obj
 0001:00013609       _strcpy_s                  10014609 f   libucrt:strcpy_s.obj
 0001:00013663       _wcsncmp                   10014663 f   libucrt:wcsncmp.obj
 0001:0001369d       ??$is_overflow_condition@K@__crt_strtox@@YA_NIK@Z 1001469d f i libucrt:atox.obj
 0001:000136d0       ??$parse_integer@KV?$c_string_character_source@_W@__crt_strtox@@@__crt_strtox@@YAKQAU__crt_locale_pointers@@V?$c_string_character_source@_W@0@H_N@Z 100146d0 f i libucrt:atox.obj
 0001:00013db5       ?unget@?$c_string_character_source@_W@__crt_strtox@@QAEX_W@Z 10014db5 f i libucrt:atox.obj
 0001:00013de1       __chvalidchk_l             10014de1 f i libucrt:atox.obj
 0001:00013e0b       __ischartype_l             10014e0b f i libucrt:atox.obj
 0001:00013e40       _strncmp                   10014e40 f   libucrt:strncmp.obj
 0001:00013eb8       __free_base                10014eb8 f   libucrt:free_base.obj
 0001:00013ef2       ??$?RV<lambda_15ade71b0218206bbe3333a0c9b79046>@@AAV<lambda_da44e0f8b0f19ba52fefafb335991732>@@V<lambda_207f2d024fc103971653565357d6cd41>@@@?$__crt_seh_guarded_call@X@@QAEX$$QAV<lambda_15ade71b0218206bbe3333a0c9b79046>@@AAV<lambda_da44e0f8b0f19ba52fefafb335991732>@@$$QAV<lambda_207f2d024fc103971653565357d6cd41>@@@Z 10014ef2 f i libucrt:per_thread_data.obj
 0001:00013f3a       ??$?RV<lambda_38edbb1296d33220d7e4dd0ed76b244a>@@AAV<lambda_5ce1d447e08cb34b2473517608e21441>@@V<lambda_fb385d3da700c9147fc39e65dd577a8c>@@@?$__crt_seh_guarded_call@X@@QAEX$$QAV<lambda_38edbb1296d33220d7e4dd0ed76b244a>@@AAV<lambda_5ce1d447e08cb34b2473517608e21441>@@$$QAV<lambda_fb385d3da700c9147fc39e65dd577a8c>@@@Z 10014f3a f i libucrt:per_thread_data.obj
 0001:00013f9b       ??$?RV<lambda_6affb1475c98b40b75cdec977db92e3c>@@AAV<lambda_b8d4b9c228a6ecc3f80208dbb4b4a104>@@V<lambda_608742c3c92a14382c1684fc64f96c88>@@@?$__crt_seh_guarded_call@X@@QAEX$$QAV<lambda_6affb1475c98b40b75cdec977db92e3c>@@AAV<lambda_b8d4b9c228a6ecc3f80208dbb4b4a104>@@$$QAV<lambda_608742c3c92a14382c1684fc64f96c88>@@@Z 10014f9b f i libucrt:per_thread_data.obj
 0001:00013fe6       ??$?RV<lambda_a7e850c220f1c8d1e6efeecdedd162c6>@@AAV<lambda_46720907175c18b6c9d2717bc0d2d362>@@V<lambda_9048902d66e8d99359bc9897bbb930a8>@@@?$__crt_seh_guarded_call@X@@QAEX$$QAV<lambda_a7e850c220f1c8d1e6efeecdedd162c6>@@AAV<lambda_46720907175c18b6c9d2717bc0d2d362>@@$$QAV<lambda_9048902d66e8d99359bc9897bbb930a8>@@@Z 10014fe6 f i libucrt:per_thread_data.obj
 0001:00014036       ??$__acrt_lock_and_call@V<lambda_46720907175c18b6c9d2717bc0d2d362>@@@@YAXW4__acrt_lock_id@@$$QAV<lambda_46720907175c18b6c9d2717bc0d2d362>@@@Z 10015036 f i libucrt:per_thread_data.obj
 0001:0001405e       ??$__acrt_lock_and_call@V<lambda_5ce1d447e08cb34b2473517608e21441>@@@@YAXW4__acrt_lock_id@@$$QAV<lambda_5ce1d447e08cb34b2473517608e21441>@@@Z 1001505e f i libucrt:per_thread_data.obj
 0001:00014086       ??$__acrt_lock_and_call@V<lambda_b8d4b9c228a6ecc3f80208dbb4b4a104>@@@@YAXW4__acrt_lock_id@@$$QAV<lambda_b8d4b9c228a6ecc3f80208dbb4b4a104>@@@Z 10015086 f i libucrt:per_thread_data.obj
 0001:000140ae       ??$__acrt_lock_and_call@V<lambda_da44e0f8b0f19ba52fefafb335991732>@@@@YAXW4__acrt_lock_id@@$$QAV<lambda_da44e0f8b0f19ba52fefafb335991732>@@@Z 100150ae f i libucrt:per_thread_data.obj
 0001:00014264       ___acrt_freeptd            10015264 f   libucrt:per_thread_data.obj
 0001:00014290       ___acrt_getptd             10015290 f   libucrt:per_thread_data.obj
 0001:00014344       ___acrt_getptd_head        10015344 f   libucrt:per_thread_data.obj
 0001:000143de       ___acrt_getptd_noexit      100153de f   libucrt:per_thread_data.obj
 0001:00014491       ___acrt_initialize_ptd     10015491 f   libucrt:per_thread_data.obj
 0001:000144bd       ___acrt_uninitialize_ptd   100154bd f   libucrt:per_thread_data.obj
 0001:000144d7       __calloc_base              100154d7 f   libucrt:calloc_base.obj
 0001:00014534       __malloc_base              10015534 f   libucrt:malloc_base.obj
 0001:00014582       __msize                    10015582 f   libucrt:msize.obj
 0001:0001458d       __msize_base               1001558d f   libucrt:msize.obj
 0001:000145c0       __realloc_base             100155c0 f   libucrt:realloc_base.obj
 0001:000147a7       ___acrt_AppPolicyGetProcessTerminationMethodInternal@4 100157a7 f   libucrt:winapi_thunks.obj
 0001:000147fe       ___acrt_FlsAlloc@4         100157fe f   libucrt:winapi_thunks.obj
 0001:00014854       ___acrt_FlsFree@4          10015854 f   libucrt:winapi_thunks.obj
 0001:000148aa       ___acrt_FlsGetValue@4      100158aa f   libucrt:winapi_thunks.obj
 0001:00014900       ___acrt_FlsSetValue@8      10015900 f   libucrt:winapi_thunks.obj
 0001:00014959       ___acrt_InitializeCriticalSectionEx@12 10015959 f   libucrt:winapi_thunks.obj
 0001:000149bb       ___acrt_LCMapStringEx@36   100159bb f   libucrt:winapi_thunks.obj
 0001:00014a2f       ___acrt_LocaleNameToLCID@8 10015a2f f   libucrt:winapi_thunks.obj
 0001:00014a77       ___acrt_SetThreadStackGuarantee@4 10015a77 f   libucrt:winapi_thunks.obj
 0001:00014ac9       ___acrt_initialize_winapi_thunks 10015ac9 f   libucrt:winapi_thunks.obj
 0001:00014aef       ___acrt_uninitialize_winapi_thunks 10015aef f   libucrt:winapi_thunks.obj
 0001:00014b25       __isdigit_l                10015b25 f i libucrt:_ctype.obj
 0001:00014b5d       _isdigit                   10015b5d f i libucrt:_ctype.obj
 0001:00014cf1       __tolower_l                10015cf1 f   libucrt:tolower_toupper.obj
 0001:00014d0b       _tolower                   10015d0b f   libucrt:tolower_toupper.obj
 0001:00014d3b       ??$make_c_string_character_source@_WPAPA_W@__crt_strtox@@YA?AV?$c_string_character_source@_W@0@QB_WQAPA_W@Z 10015d3b f i libucrt:strtox.obj
 0001:00014d56       _wcstol                    10015d56 f   libucrt:strtox.obj
 0001:00014d82       __mbtowc_l                 10015d82 f   libucrt:mbtowc.obj
 0001:00014e7c       _mbtowc                    10015e7c f   libucrt:mbtowc.obj
 0001:00014e96       _wcsnlen                   10015e96 f   libucrt:strnlen.obj
 0001:0001504d       ___acrt_update_locale_info 1001604d f   libucrt:locale_update.obj
 0001:0001507a       ___acrt_update_multibyte_info 1001607a f   libucrt:locale_update.obj
 0001:000150a7       ?__acrt_fp_classify@@YA?AW4__acrt_fp_class@@ABN@Z 100160a7 f i libucrt:cvt.obj
 0001:0001510f       ?__acrt_fp_is_negative@@YA_NABN@Z 1001610f f i libucrt:cvt.obj
 0001:0001597f       ___acrt_fp_format          1001697f f   libucrt:cvt.obj
 0001:00015ac9       __fileno                   10016ac9 f   libucrt:fileno.obj
 0001:00015aef       ___acrt_initialize_stdio   10016aef f   libucrt:_file.obj
 0001:00015bb7       ___acrt_uninitialize_stdio 10016bb7 f   libucrt:_file.obj
 0001:00015c03       __lock_file                10016c03 f   libucrt:_file.obj
 0001:00015c17       __unlock_file              10016c17 f   libucrt:_file.obj
 0001:00015c2b       __get_printf_count_output  10016c2b f   libucrt:printf_count_output.obj
 0001:00015c40       ??$?RV<lambda_e5124f882df8998aaf41531e079ba474>@@AAV<lambda_3e16ef9562a7dcce91392c22ab16ea36>@@V<lambda_e25ca0880e6ef98be67edffd8c599615>@@@?$__crt_seh_guarded_call@X@@QAEX$$QAV<lambda_e5124f882df8998aaf41531e079ba474>@@AAV<lambda_3e16ef9562a7dcce91392c22ab16ea36>@@$$QAV<lambda_e25ca0880e6ef98be67edffd8c599615>@@@Z 10016c40 f i libucrt:wsetlocale.obj
 0001:00015c89       ??$__acrt_lock_and_call@V<lambda_3e16ef9562a7dcce91392c22ab16ea36>@@@@YAXW4__acrt_lock_id@@$$QAV<lambda_3e16ef9562a7dcce91392c22ab16ea36>@@@Z 10016c89 f i libucrt:wsetlocale.obj
 0001:00015cb1       ??$uninitialize@V<lambda_88ce03f932007f29bf8b8056cbaba4f3>@@@?$dual_state_global@PAU__crt_locale_data@@@__crt_state_management@@QAEX$$QAV<lambda_88ce03f932007f29bf8b8056cbaba4f3>@@@Z 10016cb1 f i libucrt:wsetlocale.obj
 0001:00015ce0       ___acrt_set_locale_changed 10016ce0 f   libucrt:wsetlocale.obj
 0001:00015ceb       ___acrt_uninitialize_locale 10016ceb f   libucrt:wsetlocale.obj
 0001:00015e6c       ___acrt_initialize_lowio   10016e6c f   libucrt:ioinit.obj
 0001:00015ec2       ___acrt_uninitialize_lowio 10016ec2 f   libucrt:ioinit.obj
 0001:00015eee       ___acrt_initialize_locks   10016eee f   libucrt:locks.obj
 0001:00015f2f       ___acrt_lock               10016f2f f   libucrt:locks.obj
 0001:00015f46       ___acrt_uninitialize_locks 10016f46 f   libucrt:locks.obj
 0001:00015f77       ___acrt_unlock             10016f77 f   libucrt:locks.obj
 0001:00015f8e       ___acrt_get_process_end_policy 10016f8e f   libucrt:win_policies.obj
 0001:00016465       ___acrt_expand_narrow_argv_wildcards 10017465 f   libucrt:argv_wildcards.obj
 0001:00016470       ??$?RV<lambda_ceb1ee4838e85a9d631eb091e2fbe199>@@AAV<lambda_ae742caa10f662c28703da3d2ea5e57e>@@V<lambda_cd08b5d6af4937fe54fc07d0c9bf6b37>@@@?$__crt_seh_guarded_call@X@@QAEX$$QAV<lambda_ceb1ee4838e85a9d631eb091e2fbe199>@@AAV<lambda_ae742caa10f662c28703da3d2ea5e57e>@@$$QAV<lambda_cd08b5d6af4937fe54fc07d0c9bf6b37>@@@Z 10017470 f i libucrt:mbctype.obj
 0001:000164b3       ??$__acrt_lock_and_call@V<lambda_ae742caa10f662c28703da3d2ea5e57e>@@@@YAXW4__acrt_lock_id@@$$QAV<lambda_ae742caa10f662c28703da3d2ea5e57e>@@@Z 100174b3 f i libucrt:mbctype.obj
 0001:000169a8       ___acrt_initialize_multibyte 100179a8 f   libucrt:mbctype.obj
 0001:000169f5       ___acrt_update_thread_multibyte_data 100179f5 f   libucrt:mbctype.obj
 0001:00016a09       __setmbcp_nolock           10017a09 f   libucrt:mbctype.obj
 0001:00016cd4       __ismbblead                10017cd4 f   libucrt:ismbbyte.obj
 0001:00016cec       ___acrt_initialize_command_line 10017cec f   libucrt:argv_data.obj
 0001:00016d3c       ___dcrt_get_narrow_environment_from_os 10017d3c f   libucrt:get_environment_from_os.obj
 0001:00016dbf       ___acrt_initialize_heap    10017dbf f   libucrt:heap_handle.obj
 0001:00016dd0       ___acrt_uninitialize_heap  10017dd0 f   libucrt:heap_handle.obj
 0001:00016dda       ___acrt_execute_initializers 10017dda f   libucrt:shared_initialization.obj
 0001:00016e5d       ___acrt_execute_uninitializers 10017e5d f   libucrt:shared_initialization.obj
 0001:00016eaa       ??$?RV<lambda_cbab9ec6f41b0180b23cc171c22676b0>@@AAV<lambda_44731a7d0e6d81c3e6aa82d741081786>@@V<lambda_4b292cb8dd18144e164572427af410ab>@@@?$__crt_seh_guarded_call@P6AXH@Z@@QAEP6AXH@Z$$QAV<lambda_cbab9ec6f41b0180b23cc171c22676b0>@@AAV<lambda_44731a7d0e6d81c3e6aa82d741081786>@@$$QAV<lambda_4b292cb8dd18144e164572427af410ab>@@@Z 10017eaa f i libucrt:signal.obj
 0001:00016f04       ??$__acrt_lock_and_call@V<lambda_44731a7d0e6d81c3e6aa82d741081786>@@@@YAP6AXH@ZW4__acrt_lock_id@@$$QAV<lambda_44731a7d0e6d81c3e6aa82d741081786>@@@Z 10017f04 f i libucrt:signal.obj
 0001:00016f96       ___acrt_get_sigabrt_handler 10017f96 f   libucrt:signal.obj
 0001:00016fad       ___acrt_initialize_signal_handlers 10017fad f   libucrt:signal.obj
 0001:00016fe8       ___fpecode                 10017fe8 f   libucrt:signal.obj
 0001:00016ff1       _raise                     10017ff1 f   libucrt:signal.obj
 0001:000171f9       ___acrt_has_user_matherr   100181f9 f   libucrt:matherr.obj
 0001:00017212       ___acrt_initialize_user_matherr 10018212 f   libucrt:matherr.obj
 0001:00017226       ___acrt_invoke_user_matherr 10018226 f   libucrt:matherr.obj
 0001:0001726f       ___pctype_func             1001826f f   libucrt:ctype.obj
 0001:00017295       _iswctype                  10018295 f   libucrt:iswctype.obj
 0001:000172f4       __isctype_l                100182f4 f   libucrt:isctype.obj
 0001:000173c6       ___acrt_add_locale_ref     100183c6 f   libucrt:locale_refcounting.obj
 0001:00017443       ___acrt_free_locale        10018443 f   libucrt:locale_refcounting.obj
 0001:0001758d       ___acrt_locale_add_lc_time_reference 1001858d f   libucrt:locale_refcounting.obj
 0001:000175b6       ___acrt_locale_free_lc_time_if_unreferenced 100185b6 f   libucrt:locale_refcounting.obj
 0001:000175e6       ___acrt_locale_release_lc_time_reference 100185e6 f   libucrt:locale_refcounting.obj
 0001:0001760f       ___acrt_release_locale_ref 1001860f f   libucrt:locale_refcounting.obj
 0001:00017690       ___acrt_update_thread_locale_data 10018690 f   libucrt:locale_refcounting.obj
 0001:00017707       __updatetlocinfoEx_nolock  10018707 f   libucrt:locale_refcounting.obj
 0001:00017757       __query_new_mode           10018757 f   libucrt:new_mode.obj
 0001:00017819       ___acrt_DownlevelLocaleNameToLCID 10018819 f   libucrt:lcidtoname_downlevel.obj
 0001:00017845       __isleadbyte_l             10018845 f i libucrt:_wctype.obj
 0001:00017a9b       ___acrt_LCMapStringA       10018a9b f   libucrt:lcmapstringa.obj
 0001:00017ae6       __freea_crt                10018ae6 f i libucrt:lcmapstringa.obj
 0001:00017b06       ___acrt_fp_strflt_to_string 10018b06 f   libucrt:_fptostr.obj
 0001:00017bd0       ?divide@__crt_strtox@@YA_KAAUbig_integer@1@ABU21@@Z 10018bd0 f i libucrt:cfout.obj
 0001:0001807e       ___acrt_fltout             1001907e f   libucrt:cfout.obj
 0001:00019472       __fcloseall                1001a472 f   libucrt:closeall.obj
 0001:00019512       ??$?RV<lambda_2866be3712abc81a800a822484c830d8>@@AAV<lambda_39ca0ed439415581b5b15c265174cece>@@V<lambda_2b24c74d71094a6cd0cb82e44167d71b>@@@?$__crt_seh_guarded_call@X@@QAEX$$QAV<lambda_2866be3712abc81a800a822484c830d8>@@AAV<lambda_39ca0ed439415581b5b15c265174cece>@@$$QAV<lambda_2b24c74d71094a6cd0cb82e44167d71b>@@@Z 1001a512 f i libucrt:fflush.obj
 0001:00019593       ??$?RV<lambda_2cc53f568c5a2bb6f192f930a45d44ea>@@AAV<lambda_ab61a845afdef5b7c387490eaf3616ee>@@V<lambda_c2ffc0b7726aa6be21d5f0026187e748>@@@?$__crt_seh_guarded_call@X@@QAEX$$QAV<lambda_2cc53f568c5a2bb6f192f930a45d44ea>@@AAV<lambda_ab61a845afdef5b7c387490eaf3616ee>@@$$QAV<lambda_c2ffc0b7726aa6be21d5f0026187e748>@@@Z 1001a593 f i libucrt:fflush.obj
 0001:00019626       ??$__acrt_lock_and_call@V<lambda_ab61a845afdef5b7c387490eaf3616ee>@@@@YAXW4__acrt_lock_id@@$$QAV<lambda_ab61a845afdef5b7c387490eaf3616ee>@@@Z 1001a626 f i libucrt:fflush.obj
 0001:0001964e       ??$__acrt_lock_stream_and_call@V<lambda_39ca0ed439415581b5b15c265174cece>@@@@YAXQAU_iobuf@@$$QAV<lambda_39ca0ed439415581b5b15c265174cece>@@@Z 1001a64e f i libucrt:fflush.obj
 0001:0001970a       ___acrt_stdio_flush_nolock 1001a70a f   libucrt:fflush.obj
 0001:0001976d       __fflush_nolock            1001a76d f   libucrt:fflush.obj
 0001:000197b4       __flushall                 1001a7b4 f   libucrt:fflush.obj
 0001:000197bd       ___acrt_stdio_free_buffer_nolock 1001a7bd f   libucrt:_freebuf.obj
 0001:000197fb       __isatty                   1001a7fb f   libucrt:isatty.obj
 0001:00019851       ___acrt_locale_free_monetary 1001a851 f   libucrt:initmon.obj
 0001:0001994f       ___acrt_locale_free_numeric 1001a94f f   libucrt:initnum.obj
 0001:000199f4       ___acrt_locale_free_time   1001a9f4 f   libucrt:inittime.obj
 0001:00019ad8       ___acrt_GetStringTypeA     1001aad8 f   libucrt:getstringtypea.obj
 0001:00019bf5       ___acrt_lowio_create_handle_array 1001abf5 f   libucrt:osfinfo.obj
 0001:00019c6f       ___acrt_lowio_destroy_handle_array 1001ac6f f   libucrt:osfinfo.obj
 0001:00019ca4       ___acrt_lowio_ensure_fh_exists 1001aca4 f   libucrt:osfinfo.obj
 0001:00019d3c       ___acrt_lowio_lock_fh      1001ad3c f   libucrt:osfinfo.obj
 0001:00019d5f       ___acrt_lowio_unlock_fh    1001ad5f f   libucrt:osfinfo.obj
 0001:00019d82       __free_osfhnd              1001ad82 f   libucrt:osfinfo.obj
 0001:00019e13       __get_osfhandle            1001ae13 f   libucrt:osfinfo.obj
 0001:00019f60       _qsort                     1001af60 f   libucrt:qsort.obj
 0001:0001a3ab       _strncpy_s                 1001b3ab f   libucrt:strncpy_s.obj
 0001:0001a3c0       _strpbrk                   1001b3c0 f   libucrt:strpbrk.obj
 0001:0001a400       __mbsdec                   1001b400 f   libucrt:mbsdec.obj
 0001:0001a417       __mbsdec_l                 1001b417 f   libucrt:mbsdec.obj
 0001:0001a4b3       ___strncnt                 1001b4b3 f   libucrt:strncnt.obj
 0001:0001a4cf       _fegetenv                  1001b4cf f   libucrt:fegetenv.obj
 0001:0001a4ec       _fesetenv                  1001b4ec f   libucrt:fesetenv.obj
 0001:0001a535       _feholdexcept              1001b535 f   libucrt:feholdexcept.obj
 0001:0001a590       _log10                     1001b590 f   libucrt:log10.obj
 0001:0001a5d0       __CIlog10                  1001b5d0 f   libucrt:log10.obj
 0001:0001a60b       __CIlog10_default          1001b60b f   libucrt:log10.obj
 0001:0001a61f       __log10_default            1001b61f     libucrt:log10.obj
 0001:0001a6e0       _ceil                      1001b6e0 f   libucrt:ceil_pentium4.obj
 0001:0001a720       __ceil_pentium4            1001b720 f   libucrt:ceil_pentium4.obj
 0001:0001ad9f       __write                    1001bd9f f   libucrt:write.obj
 0001:0001ae8a       __write_nolock             1001be8a f   libucrt:write.obj
 0001:0001b121       __lseeki64_nolock          1001c121 f   libucrt:lseek.obj
 0001:0001b13c       __fclose_nolock            1001c13c f   libucrt:fclose.obj
 0001:0001b1b2       _fclose                    1001c1b2 f   libucrt:fclose.obj
 0001:0001b232       ??$?RV<lambda_9e9de3de5fa147e2223d7db92bc10aa6>@@AAV<lambda_38ce7e780aa69e748d6df282ebc68efe>@@V<lambda_8ca6da459f0f6780f1cff60fdc3d00e5>@@@?$__crt_seh_guarded_call@H@@QAEH$$QAV<lambda_9e9de3de5fa147e2223d7db92bc10aa6>@@AAV<lambda_38ce7e780aa69e748d6df282ebc68efe>@@$$QAV<lambda_8ca6da459f0f6780f1cff60fdc3d00e5>@@@Z 1001c232 f i libucrt:commit.obj
 0001:0001b2ca       ??$__acrt_lowio_lock_fh_and_call@V<lambda_38ce7e780aa69e748d6df282ebc68efe>@@@@YAHH$$QAV<lambda_38ce7e780aa69e748d6df282ebc68efe>@@@Z 1001c2ca f i libucrt:commit.obj
 0001:0001b2f2       __commit                   1001c2f2 f   libucrt:commit.obj
 0001:0001b361       __query_app_type           1001c361 f   libucrt:report_runtime_error.obj
 0001:0001b60a       __getfpcontrolword         1001c60a f   libucrt:_fenvutils.obj
 0001:0001b64d       __getfpstatusword          1001c64d f   libucrt:_fenvutils.obj
 0001:0001b6f5       __setfpcontrolword         1001c6f5 f   libucrt:_fenvutils.obj
 0001:0001b775       __setfpstatusword          1001c775 f   libucrt:_fenvutils.obj
 0001:0001b7f5       __clearfp                  1001c7f5 f   libucrt:ieee87.obj
 0001:0001b8d3       ___acrt_initialize_sse2    1001c8d3 f   libucrt:mathfcns.obj
 0001:0001b8f0       __CIlog10_pentium4         1001c8f0 f   libucrt:log10_pentium4.obj
 0001:0001b908       __log10_pentium4           1001c908     libucrt:log10_pentium4.obj
 0001:0001bb91       __fFEXP                    1001cb91     libucrt:87tran.obj
 0001:0001bbe8       __rtinfpopse               1001cbe8     libucrt:87tran.obj
 0001:0001bbea       __rtinfnpopse              1001cbea     libucrt:87tran.obj
 0001:0001bbfa       __fFLN                     1001cbfa     libucrt:87tran.obj
 0001:0001bcaf       __rtinfpop                 1001ccaf     libucrt:87tran.obj
 0001:0001bcb1       __rtinfnpop                1001ccb1     libucrt:87tran.obj
 0001:0001bcce       __ffexpm1                  1001ccce     libucrt:87tran.obj
 0001:0001bd80       __trandisp1                1001cd80 f   libucrt:87disp.obj
 0001:0001bde7       __trandisp2                1001cde7 f   libucrt:87disp.obj
 0001:0001be73       __rttospopde               1001ce73     libucrt:87disp.obj
 0001:0001be78       __rttospop                 1001ce78     libucrt:87disp.obj
 0001:0001be7a       __rtnospop                 1001ce7a     libucrt:87disp.obj
 0001:0001be7c       __rttosnpop                1001ce7c     libucrt:87disp.obj
 0001:0001be7d       __rtnospopde               1001ce7d     libucrt:87disp.obj
 0001:0001be84       __rtzeropop                1001ce84     libucrt:87disp.obj
 0001:0001be86       __rtzeronpop               1001ce86     libucrt:87disp.obj
 0001:0001be8b       __rtzerospop               1001ce8b     libucrt:87disp.obj
 0001:0001be98       __rtonepop                 1001ce98     libucrt:87disp.obj
 0001:0001be9a       __rtonenpop                1001ce9a     libucrt:87disp.obj
 0001:0001be9f       __tosnan1                  1001ce9f     libucrt:87disp.obj
 0001:0001beca       __nosnan2                  1001ceca     libucrt:87disp.obj
 0001:0001becc       __tosnan2                  1001cecc     libucrt:87disp.obj
 0001:0001bef4       __nan2                     1001cef4     libucrt:87disp.obj
 0001:0001bf33       __rtindfpop                1001cf33     libucrt:87disp.obj
 0001:0001bf35       __rtindfnpop               1001cf35     libucrt:87disp.obj
 0001:0001bf46       __rttosnpopde              1001cf46     libucrt:87disp.obj
 0001:0001bf50       __rtatan2inf               1001cf50     libucrt:87disp.obj
 0001:0001bf6d       __rtchsifneg               1001cf6d     libucrt:87disp.obj
 0001:0001bf80       __twoToTOS                 1001cf80 f   libucrt:common.obj
 0001:0001bf95       __load_CW                  1001cf95 f   libucrt:common.obj
 0001:0001bfac       __convertTOStoQNaN         1001cfac f   libucrt:common.obj
 0001:0001bfc5       __fload_withFB             1001cfc5 f   libucrt:common.obj
 0001:0001c008       __checkTOS_withFB          1001d008 f   libucrt:common.obj
 0001:0001c01e       __fast_exit                1001d01e f   libucrt:common.obj
 0001:0001c02b       __math_exit                1001d02b f   libucrt:common.obj
 0001:0001c055       __check_overflow_exit      1001d055 f   libucrt:common.obj
 0001:0001c069       __check_range_exit         1001d069 f   libucrt:common.obj
 0001:0001c110       __startTwoArgErrorHandling 1001d110 f   libucrt:genexcep.obj
 0001:0001c127       __startOneArgErrorHandling 1001d127 f   libucrt:genexcep.obj
 0001:0001c163       ___libm_error_support      1001d163 f   libucrt:libm_error.obj
 0001:0001c37b       __ceil_default             1001d37b f   libucrt:ceil.obj
 0001:0001c434       __putwch_nolock            1001d434 f   libucrt:putwch.obj
 0001:0001c479       ??$?RV<lambda_218ce3db14220d0be481dae8ef3383b6>@@AAV<lambda_628dfdc04ba53c8bfc02c9951375f3f5>@@V<lambda_57dc472bd5c9d5f3b2cbca59b8a843ae>@@@?$__crt_seh_guarded_call@H@@QAEH$$QAV<lambda_218ce3db14220d0be481dae8ef3383b6>@@AAV<lambda_628dfdc04ba53c8bfc02c9951375f3f5>@@$$QAV<lambda_57dc472bd5c9d5f3b2cbca59b8a843ae>@@@Z 1001d479 f i libucrt:close.obj
 0001:0001c4fb       ??$__acrt_lowio_lock_fh_and_call@V<lambda_628dfdc04ba53c8bfc02c9951375f3f5>@@@@YAHH$$QAV<lambda_628dfdc04ba53c8bfc02c9951375f3f5>@@@Z 1001d4fb f i libucrt:close.obj
 0001:0001c523       __close                    1001d523 f   libucrt:close.obj
 0001:0001c5a2       __close_nolock             1001d5a2 f   libucrt:close.obj
 0001:0001c63e       ?__acrt_stdio_free_stream@@YAXV__crt_stdio_stream@@@Z 1001d63e f   libucrt:stream.obj
 0001:0001c680       ___ascii_strnicmp          1001d680 f   libucrt:_strnicm.obj
 0001:0001c6e1       __clrfp                    1001d6e1 f   libucrt:fpctrl.obj
 0001:0001c6f4       __ctrlfp                   1001d6f4 f   libucrt:fpctrl.obj
 0001:0001c720       __set_statfp               1001d720 f   libucrt:fpctrl.obj
 0001:0001c77b       __statfp                   1001d77b f   libucrt:fpctrl.obj
 0001:0001c78d       __d_inttype                1001d78d f   libucrt:powhlp.obj
 0001:0001c7f7       __powhlp                   1001d7f7 f   libucrt:powhlp.obj
 0001:0001c922       __87except                 1001d922 f   libucrt:87except.obj
 0001:0001ca2d       __frnd                     1001da2d f   libucrt:frnd.obj
 0001:0001ca43       __errcode                  1001da43 f   libucrt:fpexcept.obj
 0001:0001ca77       __except1                  1001da77 f   libucrt:fpexcept.obj
 0001:0001cb45       __handle_exc               1001db45 f   libucrt:fpexcept.obj
 0001:0001cd25       __raise_exc                1001dd25 f   libucrt:fpexcept.obj
 0001:0001cd48       __raise_exc_ex             1001dd48 f   libucrt:fpexcept.obj
 0001:0001d039       __set_errno_from_matherr   1001e039 f   libucrt:fpexcept.obj
 0001:0001d068       __umatherr                 1001e068 f   libucrt:fpexcept.obj
 0001:0001d10a       __decomp                   1001e10a f   libucrt:util.obj
 0001:0001d1de       __set_exp                  1001e1de f   libucrt:util.obj
 0001:0001d20d       __sptype                   1001e20d f   libucrt:util.obj
 0001:0001d26b       ___dcrt_lowio_initialize_console_output 1001e26b f   libucrt:initcon.obj
 0001:0001d28a       ___dcrt_terminate_console_output 1001e28a f   libucrt:initcon.obj
 0001:0001d2a1       __fpclass                  1001e2a1 f   libucrt:ieeemisc.obj
 0001:0001d345       _IsProcessorFeaturePresent@4 1001e345 f   kernel32:KERNEL32.dll
 0001:0001d350       __FindPESection            1001e350 f   LIBCMT:pesect.obj
 0001:0001d3a0       __IsNonwritableInCurrentImage 1001e3a0 f   LIBCMT:pesect.obj
 0001:0001d460       __ValidateImageBase        1001e460 f   LIBCMT:pesect.obj
 0001:0001d493       __EH_prolog3_catch         1001e493 f   LIBCMT:ehprolg3.obj
 0001:0001d4d0       __aulldvrm                 1001e4d0 f   LIBCMT:ulldvrm.obj
 0001:0001d570       __allmul                   1001e570 f   LIBCMT:llmul.obj
 0001:0001d5b0       __alldvrm                  1001e5b0 f   LIBCMT:lldvrm.obj
 0001:0001d690       __aullshr                  1001e690 f   LIBCMT:ullshr.obj
 0001:0001d6b0       __allshl                   1001e6b0 f   LIBCMT:llshl.obj
 0001:0001d6d0       __ftol2_sse                1001e6d0 f   LIBCMT:_ftol2_.obj
 0001:0001d6d9       __ftol2_pentium4           1001e6d9 f   LIBCMT:_ftol2_.obj
 0001:0001d6ec       __ftol2_sse_excpt          1001e6ec f   LIBCMT:_ftol2_.obj
 0001:0001d710       __ftol2                    1001e710 f   LIBCMT:_ftol2_.obj
 0001:0001d790       _strrchr                   1001e790 f   libvcruntime:strrchr.obj
 0001:0001d8d0       _strchr                    1001e8d0 f   libvcruntime:strchr.obj
 0001:0001d93e       ___from_strstr_to_strchr   1001e93e     libvcruntime:strchr.obj
 0002:00000000       __imp__RegQueryValueExW@24 1001f000     advapi32:ADVAPI32.dll
 0002:00000004       __imp__RegSetValueExW@24   1001f004     advapi32:ADVAPI32.dll
 0002:00000008       __imp__RegQueryInfoKeyW@48 1001f008     advapi32:ADVAPI32.dll
 0002:0000000c       __imp__RegOpenKeyExW@20    1001f00c     advapi32:ADVAPI32.dll
 0002:00000010       __imp__RegEnumKeyExW@32    1001f010     advapi32:ADVAPI32.dll
 0002:00000014       __imp__RegDeleteValueW@8   1001f014     advapi32:ADVAPI32.dll
 0002:00000018       __imp__RegDeleteKeyW@8     1001f018     advapi32:ADVAPI32.dll
 0002:0000001c       __imp__RegCreateKeyExW@36  1001f01c     advapi32:ADVAPI32.dll
 0002:00000020       __imp__RegCloseKey@4       1001f020     advapi32:ADVAPI32.dll
 0002:00000024       \177ADVAPI32_NULL_THUNK_DATA 1001f024     advapi32:ADVAPI32.dll
 0002:00000028       __imp__GetObjectW@12       1001f028     gdi32:GDI32.dll
 0002:0000002c       __imp__SelectObject@8      1001f02c     gdi32:GDI32.dll
 0002:00000030       __imp__DeleteObject@4      1001f030     gdi32:GDI32.dll
 0002:00000034       __imp__CreateCompatibleDC@4 1001f034     gdi32:GDI32.dll
 0002:00000038       __imp__BitBlt@36           1001f038     gdi32:GDI32.dll
 0002:0000003c       __imp__SetWindowOrgEx@16   1001f03c     gdi32:GDI32.dll
 0002:00000040       __imp__SetWindowExtEx@16   1001f040     gdi32:GDI32.dll
 0002:00000044       __imp__SetViewportOrgEx@16 1001f044     gdi32:GDI32.dll
 0002:00000048       __imp__LPtoDP@12           1001f048     gdi32:GDI32.dll
 0002:0000004c       __imp__SetMapMode@8        1001f04c     gdi32:GDI32.dll
 0002:00000050       __imp__SaveDC@4            1001f050     gdi32:GDI32.dll
 0002:00000054       __imp__RestoreDC@8         1001f054     gdi32:GDI32.dll
 0002:00000058       __imp__GetDeviceCaps@8     1001f058     gdi32:GDI32.dll
 0002:0000005c       __imp__DeleteMetaFile@4    1001f05c     gdi32:GDI32.dll
 0002:00000060       __imp__DeleteDC@4          1001f060     gdi32:GDI32.dll
 0002:00000064       __imp__CreateRectRgnIndirect@4 1001f064     gdi32:GDI32.dll
 0002:00000068       __imp__CreateMetaFileW@4   1001f068     gdi32:GDI32.dll
 0002:0000006c       __imp__CreateDCW@16        1001f06c     gdi32:GDI32.dll
 0002:00000070       __imp__CloseMetaFile@4     1001f070     gdi32:GDI32.dll
 0002:00000074       \177GDI32_NULL_THUNK_DATA  1001f074     gdi32:GDI32.dll
 0002:00000078       __imp__CloseHandle@4       1001f078     kernel32:KERNEL32.dll
 0002:0000007c       __imp__SetEvent@4          1001f07c     kernel32:KERNEL32.dll
 0002:00000080       __imp__CreateMutexW@12     1001f080     kernel32:KERNEL32.dll
 0002:00000084       __imp__CreateEventW@16     1001f084     kernel32:KERNEL32.dll
 0002:00000088       __imp__GetCurrentProcessId@0 1001f088     kernel32:KERNEL32.dll
 0002:0000008c       __imp__WriteConsoleW@20    1001f08c     kernel32:KERNEL32.dll
 0002:00000090       __imp__FlushFileBuffers@4  1001f090     kernel32:KERNEL32.dll
 0002:00000094       __imp__SetFilePointerEx@20 1001f094     kernel32:KERNEL32.dll
 0002:00000098       __imp__GetConsoleMode@8    1001f098     kernel32:KERNEL32.dll
 0002:0000009c       __imp__GetConsoleCP@0      1001f09c     kernel32:KERNEL32.dll
 0002:000000a0       __imp__WriteFile@20        1001f0a0     kernel32:KERNEL32.dll
 0002:000000a4       __imp__SetStdHandle@8      1001f0a4     kernel32:KERNEL32.dll
 0002:000000a8       __imp__GetStringTypeW@16   1001f0a8     kernel32:KERNEL32.dll
 0002:000000ac       __imp__FreeEnvironmentStringsW@4 1001f0ac     kernel32:KERNEL32.dll
 0002:000000b0       __imp__GetEnvironmentStringsW@0 1001f0b0     kernel32:KERNEL32.dll
 0002:000000b4       __imp__GetCommandLineW@0   1001f0b4     kernel32:KERNEL32.dll
 0002:000000b8       __imp__lstrcmpiW@8         1001f0b8     kernel32:KERNEL32.dll
 0002:000000bc       __imp__GetCPInfo@8         1001f0bc     kernel32:KERNEL32.dll
 0002:000000c0       __imp__GetOEMCP@0          1001f0c0     kernel32:KERNEL32.dll
 0002:000000c4       __imp__IsValidCodePage@4   1001f0c4     kernel32:KERNEL32.dll
 0002:000000c8       __imp__FindNextFileA@8     1001f0c8     kernel32:KERNEL32.dll
 0002:000000cc       __imp__FindFirstFileExA@24 1001f0cc     kernel32:KERNEL32.dll
 0002:000000d0       __imp__FindClose@4         1001f0d0     kernel32:KERNEL32.dll
 0002:000000d4       __imp__GetFileType@4       1001f0d4     kernel32:KERNEL32.dll
 0002:000000d8       __imp__GetStdHandle@4      1001f0d8     kernel32:KERNEL32.dll
 0002:000000dc       __imp__GetACP@0            1001f0dc     kernel32:KERNEL32.dll
 0002:000000e0       __imp__LCMapStringW@24     1001f0e0     kernel32:KERNEL32.dll
 0002:000000e4       __imp__HeapReAlloc@16      1001f0e4     kernel32:KERNEL32.dll
 0002:000000e8       __imp__HeapSize@12         1001f0e8     kernel32:KERNEL32.dll
 0002:000000ec       __imp__MulDiv@12           1001f0ec     kernel32:KERNEL32.dll
 0002:000000f0       __imp__GlobalUnlock@4      1001f0f0     kernel32:KERNEL32.dll
 0002:000000f4       __imp__GlobalLock@4        1001f0f4     kernel32:KERNEL32.dll
 0002:000000f8       __imp__GlobalAlloc@8       1001f0f8     kernel32:KERNEL32.dll
 0002:000000fc       __imp__FindResourceW@12    1001f0fc     kernel32:KERNEL32.dll
 0002:00000100       __imp__SizeofResource@8    1001f100     kernel32:KERNEL32.dll
 0002:00000104       __imp__LoadResource@8      1001f104     kernel32:KERNEL32.dll
 0002:00000108       __imp__LoadLibraryExW@12   1001f108     kernel32:KERNEL32.dll
 0002:0000010c       __imp__GetProcAddress@8    1001f10c     kernel32:KERNEL32.dll
 0002:00000110       __imp__GetModuleHandleW@4  1001f110     kernel32:KERNEL32.dll
 0002:00000114       __imp__GetModuleFileNameW@12 1001f114     kernel32:KERNEL32.dll
 0002:00000118       __imp__FreeLibrary@4       1001f118     kernel32:KERNEL32.dll
 0002:0000011c       __imp__DisableThreadLibraryCalls@4 1001f11c     kernel32:KERNEL32.dll
 0002:00000120       __imp__GetCurrentThreadId@0 1001f120     kernel32:KERNEL32.dll
 0002:00000124       __imp__Sleep@4             1001f124     kernel32:KERNEL32.dll
 0002:00000128       __imp__WaitForSingleObject@8 1001f128     kernel32:KERNEL32.dll
 0002:0000012c       __imp__ReleaseMutex@4      1001f12c     kernel32:KERNEL32.dll
 0002:00000130       __imp__ResetEvent@4        1001f130     kernel32:KERNEL32.dll
 0002:00000134       __imp__EnterCriticalSection@4 1001f134     kernel32:KERNEL32.dll
 0002:00000138       __imp__LeaveCriticalSection@4 1001f138     kernel32:KERNEL32.dll
 0002:0000013c       __imp__SetLastError@4      1001f13c     kernel32:KERNEL32.dll
 0002:00000140       __imp__EncodePointer@4     1001f140     kernel32:KERNEL32.dll
 0002:00000144       __imp__DeleteCriticalSection@4 1001f144     kernel32:KERNEL32.dll
 0002:00000148       __imp__InitializeCriticalSectionAndSpinCount@8 1001f148     kernel32:KERNEL32.dll
 0002:0000014c       __imp__GetLastError@0      1001f14c     kernel32:KERNEL32.dll
 0002:00000150       __imp__RaiseException@16   1001f150     kernel32:KERNEL32.dll
 0002:00000154       __imp__DecodePointer@4     1001f154     kernel32:KERNEL32.dll
 0002:00000158       __imp__WideCharToMultiByte@32 1001f158     kernel32:KERNEL32.dll
 0002:0000015c       __imp__GetCommandLineA@0   1001f15c     kernel32:KERNEL32.dll
 0002:00000160       __imp__MultiByteToWideChar@24 1001f160     kernel32:KERNEL32.dll
 0002:00000164       __imp__CreateFileW@28      1001f164     kernel32:KERNEL32.dll
 0002:00000168       __imp__GetModuleFileNameA@12 1001f168     kernel32:KERNEL32.dll
 0002:0000016c       __imp__GetModuleHandleExW@12 1001f16c     kernel32:KERNEL32.dll
 0002:00000170       __imp__ExitProcess@4       1001f170     kernel32:KERNEL32.dll
 0002:00000174       __imp__VirtualQuery@12     1001f174     kernel32:KERNEL32.dll
 0002:00000178       __imp__VirtualProtect@16   1001f178     kernel32:KERNEL32.dll
 0002:0000017c       __imp__GetSystemInfo@4     1001f17c     kernel32:KERNEL32.dll
 0002:00000180       __imp__TlsFree@4           1001f180     kernel32:KERNEL32.dll
 0002:00000184       __imp__TlsSetValue@8       1001f184     kernel32:KERNEL32.dll
 0002:00000188       __imp__TlsGetValue@4       1001f188     kernel32:KERNEL32.dll
 0002:0000018c       __imp__TlsAlloc@0          1001f18c     kernel32:KERNEL32.dll
 0002:00000190       __imp__InterlockedFlushSList@4 1001f190     kernel32:KERNEL32.dll
 0002:00000194       __imp__RtlUnwind@16        1001f194     kernel32:KERNEL32.dll
 0002:00000198       __imp__LoadLibraryExA@12   1001f198     kernel32:KERNEL32.dll
 0002:0000019c       __imp__VirtualFree@12      1001f19c     kernel32:KERNEL32.dll
 0002:000001a0       __imp__VirtualAlloc@16     1001f1a0     kernel32:KERNEL32.dll
 0002:000001a4       __imp__FlushInstructionCache@12 1001f1a4     kernel32:KERNEL32.dll
 0002:000001a8       __imp__InterlockedPushEntrySList@8 1001f1a8     kernel32:KERNEL32.dll
 0002:000001ac       __imp__InterlockedPopEntrySList@4 1001f1ac     kernel32:KERNEL32.dll
 0002:000001b0       __imp__GetProcessHeap@0    1001f1b0     kernel32:KERNEL32.dll
 0002:000001b4       __imp__HeapFree@12         1001f1b4     kernel32:KERNEL32.dll
 0002:000001b8       __imp__HeapAlloc@12        1001f1b8     kernel32:KERNEL32.dll
 0002:000001bc       __imp__OutputDebugStringW@4 1001f1bc     kernel32:KERNEL32.dll
 0002:000001c0       __imp__InitializeSListHead@4 1001f1c0     kernel32:KERNEL32.dll
 0002:000001c4       __imp__GetSystemTimeAsFileTime@4 1001f1c4     kernel32:KERNEL32.dll
 0002:000001c8       __imp__QueryPerformanceCounter@4 1001f1c8     kernel32:KERNEL32.dll
 0002:000001cc       __imp__GetStartupInfoW@4   1001f1cc     kernel32:KERNEL32.dll
 0002:000001d0       __imp__IsDebuggerPresent@0 1001f1d0     kernel32:KERNEL32.dll
 0002:000001d4       __imp__IsProcessorFeaturePresent@4 1001f1d4     kernel32:KERNEL32.dll
 0002:000001d8       __imp__TerminateProcess@8  1001f1d8     kernel32:KERNEL32.dll
 0002:000001dc       __imp__GetCurrentProcess@0 1001f1dc     kernel32:KERNEL32.dll
 0002:000001e0       __imp__WaitForSingleObjectEx@12 1001f1e0     kernel32:KERNEL32.dll
 0002:000001e4       __imp__UnhandledExceptionFilter@4 1001f1e4     kernel32:KERNEL32.dll
 0002:000001e8       __imp__SetUnhandledExceptionFilter@4 1001f1e8     kernel32:KERNEL32.dll
 0002:000001ec       \177KERNEL32_NULL_THUNK_DATA 1001f1ec     kernel32:KERNEL32.dll
 0002:000001f0       __imp__OleCreatePropertyFrame@44 1001f1f0     oleaut32:OLEAUT32.dll
 0002:000001f4       __imp__UnRegisterTypeLib@20 1001f1f4     oleaut32:OLEAUT32.dll
 0002:000001f8       __imp__RegisterTypeLib@12  1001f1f8     oleaut32:OLEAUT32.dll
 0002:000001fc       __imp__LoadRegTypeLib@20   1001f1fc     oleaut32:OLEAUT32.dll
 0002:00000200       __imp__LoadTypeLib@8       1001f200     oleaut32:OLEAUT32.dll
 0002:00000204       __imp__VarUI4FromStr@16    1001f204     oleaut32:OLEAUT32.dll
 0002:00000208       __imp__VariantInit@4       1001f208     oleaut32:OLEAUT32.dll
 0002:0000020c       __imp__SysAllocStringByteLen@8 1001f20c     oleaut32:OLEAUT32.dll
 0002:00000210       __imp__SysStringByteLen@4  1001f210     oleaut32:OLEAUT32.dll
 0002:00000214       __imp__VariantChangeType@16 1001f214     oleaut32:OLEAUT32.dll
 0002:00000218       __imp__VariantClear@4      1001f218     oleaut32:OLEAUT32.dll
 0002:0000021c       __imp__SysStringLen@4      1001f21c     oleaut32:OLEAUT32.dll
 0002:00000220       __imp__SysFreeString@4     1001f220     oleaut32:OLEAUT32.dll
 0002:00000224       __imp__SysAllocStringLen@8 1001f224     oleaut32:OLEAUT32.dll
 0002:00000228       __imp__SysAllocString@4    1001f228     oleaut32:OLEAUT32.dll
 0002:0000022c       \177OLEAUT32_NULL_THUNK_DATA 1001f22c     oleaut32:OLEAUT32.dll
 0002:00000230       __imp__UnregisterClassW@8  1001f230     user32:USER32.dll
 0002:00000234       __imp__PostMessageW@16     1001f234     user32:USER32.dll
 0002:00000238       __imp__DefWindowProcW@16   1001f238     user32:USER32.dll
 0002:0000023c       __imp__CallWindowProcW@20  1001f23c     user32:USER32.dll
 0002:00000240       __imp__RegisterClassExW@4  1001f240     user32:USER32.dll
 0002:00000244       __imp__GetClassInfoExW@12  1001f244     user32:USER32.dll
 0002:00000248       __imp__CreateWindowExW@48  1001f248     user32:USER32.dll
 0002:0000024c       __imp__IsWindow@4          1001f24c     user32:USER32.dll
 0002:00000250       __imp__IsChild@8           1001f250     user32:USER32.dll
 0002:00000254       __imp__DestroyWindow@4     1001f254     user32:USER32.dll
 0002:00000258       __imp__ShowWindow@8        1001f258     user32:USER32.dll
 0002:0000025c       __imp__SetWindowPos@28     1001f25c     user32:USER32.dll
 0002:00000260       __imp__CharNextW@4         1001f260     user32:USER32.dll
 0002:00000264       __imp__SetFocus@4          1001f264     user32:USER32.dll
 0002:00000268       __imp__LoadBitmapW@8       1001f268     user32:USER32.dll
 0002:0000026c       __imp__RegisterClassW@4    1001f26c     user32:USER32.dll
 0002:00000270       __imp__PeekMessageW@20     1001f270     user32:USER32.dll
 0002:00000274       __imp__LoadCursorW@8       1001f274     user32:USER32.dll
 0002:00000278       __imp__GetParent@4         1001f278     user32:USER32.dll
 0002:0000027c       __imp__SetWindowLongW@12   1001f27c     user32:USER32.dll
 0002:00000280       __imp__GetWindowLongW@8    1001f280     user32:USER32.dll
 0002:00000284       __imp__PtInRect@12         1001f284     user32:USER32.dll
 0002:00000288       __imp__EqualRect@8         1001f288     user32:USER32.dll
 0002:0000028c       __imp__OffsetRect@12       1001f28c     user32:USER32.dll
 0002:00000290       __imp__UnionRect@12        1001f290     user32:USER32.dll
 0002:00000294       __imp__IntersectRect@12    1001f294     user32:USER32.dll
 0002:00000298       __imp__GetClientRect@8     1001f298     user32:USER32.dll
 0002:0000029c       __imp__InvalidateRect@12   1001f29c     user32:USER32.dll
 0002:000002a0       __imp__SetWindowRgn@12     1001f2a0     user32:USER32.dll
 0002:000002a4       __imp__EndPaint@8          1001f2a4     user32:USER32.dll
 0002:000002a8       __imp__BeginPaint@8        1001f2a8     user32:USER32.dll
 0002:000002ac       __imp__ReleaseDC@8         1001f2ac     user32:USER32.dll
 0002:000002b0       __imp__GetDC@4             1001f2b0     user32:USER32.dll
 0002:000002b4       __imp__GetKeyState@4       1001f2b4     user32:USER32.dll
 0002:000002b8       __imp__GetFocus@0          1001f2b8     user32:USER32.dll
 0002:000002bc       \177USER32_NULL_THUNK_DATA 1001f2bc     user32:USER32.dll
 0002:000002c0       __imp__CoCreateInstance@20 1001f2c0     ole32:ole32.dll
 0002:000002c4       __imp__CoTaskMemAlloc@4    1001f2c4     ole32:ole32.dll
 0002:000002c8       __imp__CoTaskMemRealloc@8  1001f2c8     ole32:ole32.dll
 0002:000002cc       __imp__CoTaskMemFree@4     1001f2cc     ole32:ole32.dll
 0002:000002d0       __imp__ReadClassStm@8      1001f2d0     ole32:ole32.dll
 0002:000002d4       __imp__WriteClassStm@8     1001f2d4     ole32:ole32.dll
 0002:000002d8       __imp__CreateDataAdviseHolder@4 1001f2d8     ole32:ole32.dll
 0002:000002dc       __imp__OleSaveToStream@8   1001f2dc     ole32:ole32.dll
 0002:000002e0       __imp__CreateOleAdviseHolder@4 1001f2e0     ole32:ole32.dll
 0002:000002e4       __imp__OleRegGetUserType@12 1001f2e4     ole32:ole32.dll
 0002:000002e8       __imp__OleRegGetMiscStatus@12 1001f2e8     ole32:ole32.dll
 0002:000002ec       __imp__OleRegEnumVerbs@8   1001f2ec     ole32:ole32.dll
 0002:000002f0       __imp__CLSIDFromProgID@8   1001f2f0     ole32:ole32.dll
 0002:000002f4       __imp__StringFromGUID2@12  1001f2f4     ole32:ole32.dll
 0002:000002f8       \177ole32_NULL_THUNK_DATA  1001f2f8     ole32:ole32.dll
 0002:000002fc       ___guard_check_icall_fptr  1001f2fc     LIBCMT:guard_support.obj
 0002:00000300       ___xc_a                    1001f300     LIBCMT:initializers.obj
 0002:00000318       ___xc_z                    1001f318     LIBCMT:initializers.obj
 0002:0000031c       ___xi_a                    1001f31c     LIBCMT:initializers.obj
 0002:00000324       ___acrt_stdio_initializer  1001f324     libucrt:stdio_initializer.obj
 0002:00000328       ___acrt_multibyte_initializer 1001f328     libucrt:multibyte_initializer.obj
 0002:0000032c       ___acrt_tran_sse2_initializer 1001f32c     libucrt:sse2_initializer.obj
 0002:00000330       ___xi_z                    1001f330     LIBCMT:initializers.obj
 0002:00000334       ___xl_a                    1001f334     LIBCMT:tlssup.obj
 0002:00000338       ___xl_z                    1001f338     LIBCMT:tlssup.obj
 0002:0000033c       ___xp_a                    1001f33c     LIBCMT:initializers.obj
 0002:00000340       ___acrt_locale_terminator  1001f340     libucrt:locale_initializer.obj
 0002:00000344       ___dcrt_console_output_terminator 1001f344     libucrt:console_output_initializer.obj
 0002:00000348       ___acrt_stdio_terminator   1001f348     libucrt:stdio_initializer.obj
 0002:0000034c       ___xp_z                    1001f34c     LIBCMT:initializers.obj
 0002:00000350       ___xt_a                    1001f350     LIBCMT:initializers.obj
 0002:00000354       ___xt_z                    1001f354     LIBCMT:initializers.obj
 0002:00000360       ??_C@_11LOCGONAA@@         1001f360     OposVariant.obj
 0002:00000364       ??_C@_13HADIAKP@?$AAS@     1001f364     OposVariant.obj
 0002:00000368       ??_C@_13LHMFKAAD@?$AAM@    1001f368     OposVariant.obj
 0002:0000036c       ??_C@_13MKMNOPIJ@?$AAD@    1001f36c     OposVariant.obj
 0002:00000370       ??_C@_13OPKGLAFF@?$AAB@    1001f370     OposVariant.obj
 0002:00000374       ??_C@_17LLMMEOJD@?$AAV?$AAa?$AAl@ 1001f374     OposVariant.obj
 0002:0000037c       ??_C@_1BI@JFAIJMHL@?$AAF?$AAo?$AAr?$AAc?$AAe?$AAR?$AAe?$AAm?$AAo?$AAv?$AAe@ 1001f37c     OposVariant.obj
 0002:00000394       ??_C@_1BC@GCKHIPE@?$AAN?$AAo?$AAR?$AAe?$AAm?$AAo?$AAv?$AAe@ 1001f394     OposVariant.obj
 0002:000003a8       ??_C@_1O@JDLOHAN@?$AAD?$AAe?$AAl?$AAe?$AAt?$AAe@ 1001f3a8     OposVariant.obj
 0002:000003b8       __GUID_00000000_0000_0000_c000_000000000046 1001f3b8     PointCardRW.obj
 0002:000003c8       __GUID_00020400_0000_0000_c000_000000000046 1001f3c8     PointCardRW.obj
 0002:000003d8       ??_C@_1M@KANJNLFF@?$AAC?$AAL?$AAS?$AAI?$AAD@ 1001f3d8     PointCardRW.obj
 0002:000003e4       ??_C@_1M@EJNEECMJ@?$AAA?$AAp?$AAp?$AAI?$AAD@ 1001f3e4     PointCardRW.obj
 0002:000003f0       ?rgszNeverDelete@CRegParser@ATL@@1QBQB_WB 1001f3f0     PointCardRW.obj
 0002:00000420       ?_entries@?1??_GetEntries@COPOSPointCardRW@@SGPBU_ATL_INTMAP_ENTRY@ATL@@XZ@4QBU34@B 1001f420     PointCardRW.obj
 0002:00000570       ??_7CRegObject@ATL@@6B@    1001f570     PointCardRW.obj
 0002:00000588       __GUID_922eada0_3424_11cf_b670_00aa004cd6d8 1001f588     PointCardRW.obj
 0002:00000598       __GUID_9c2cad80_3424_11cf_b670_00aa004cd6d8 1001f598     PointCardRW.obj
 0002:000005a8       __GUID_00000119_0000_0000_c000_000000000046 1001f5a8     PointCardRW.obj
 0002:000005b8       __GUID_b196b289_bab4_101a_b69c_00aa00341d07 1001f5b8     PointCardRW.obj
 0002:000005c8       __GUID_cf51ed10_62fe_11cf_bf86_00a0c9034836 1001f5c8     PointCardRW.obj
 0002:000005d8       __GUID_0000010a_0000_0000_c000_000000000046 1001f5d8     PointCardRW.obj
 0002:000005e8       __GUID_b196b283_bab4_101a_b69c_00aa00341d07 1001f5e8     PointCardRW.obj
 0002:000005f8       __GUID_cb5bdc81_93c1_11cf_8f20_00805f2cd064 1001f5f8     PointCardRW.obj
 0002:00000608       ?pPropMap@?1??GetPropertyMap@COPOSPointCardRW@@SAPBUATL_PROPMAP_ENTRY@ATL@@XZ@4QBU34@B 1001f608     PointCardRW.obj
 0002:00000674       ??_C@_17DGDADEHL@?$AA_?$AAc?$AAx@ 1001f674     PointCardRW.obj
 0002:0000067c       ??_C@_17IOIMFDBO@?$AA_?$AAc?$AAy@ 1001f67c     PointCardRW.obj
 0002:00000684       __GUID_00000117_0000_0000_c000_000000000046 1001f684     PointCardRW.obj
 0002:00000694       ??_C@_1CK@OEKPKBNA@?$AAC?$AAo?$AAm?$AAp?$AAo?$AAn?$AAe?$AAn?$AAt?$AA?5?$AAC?$AAa?$AAt?$AAe?$AAg@ 1001f694     PointCardRW.obj
 0002:000006c0       ??_C@_1BC@NKMMNMGL@?$AAF?$AAi?$AAl?$AAe?$AAT?$AAy?$AAp?$AAe@ 1001f6c0     PointCardRW.obj
 0002:000006d4       ??_C@_1BE@EKPAFMCP@?$AAI?$AAn?$AAt?$AAe?$AAr?$AAf?$AAa?$AAc?$AAe@ 1001f6d4     PointCardRW.obj
 0002:000006e8       ??_C@_1BC@MAICEHGI@?$AAH?$AAa?$AAr?$AAd?$AAw?$AAa?$AAr?$AAe@ 1001f6e8     PointCardRW.obj
 0002:000006fc       ??_C@_19HLLLM@?$AAM?$AAi?$AAm?$AAe@ 1001f6fc     PointCardRW.obj
 0002:00000708       ??_C@_17OMAOINJK@?$AAS?$AAA?$AAM@ 1001f708     PointCardRW.obj
 0002:00000710       ??_C@_1BC@IBECJAAI@?$AAS?$AAE?$AAC?$AAU?$AAR?$AAI?$AAT?$AAY@ 1001f710     PointCardRW.obj
 0002:00000724       ??_C@_1O@GBFINDKL@?$AAS?$AAY?$AAS?$AAT?$AAE?$AAM@ 1001f724     PointCardRW.obj
 0002:00000734       ??_C@_1BC@EAHCMADO@?$AAS?$AAo?$AAf?$AAt?$AAw?$AAa?$AAr?$AAe@ 1001f734     PointCardRW.obj
 0002:00000748       ??_C@_1BA@JIHHIEDE@?$AAT?$AAy?$AAp?$AAe?$AAL?$AAi?$AAb@ 1001f748     PointCardRW.obj
 0002:000007c8       __GUID_b196b286_bab4_101a_b69c_00aa00341d07 1001f7c8     PointCardRW.obj
 0002:000007d8       ??_C@_1CE@PGFMOFKI@?$AAS?$AAt?$AAa?$AAt?$AAu?$AAs?$AAU?$AAp?$AAd?$AAa?$AAt?$AAe?$AAE?$AAv?$AAe@ 1001f7d8     PointCardRW.obj
 0002:000007fc       ??_C@_19NCHLBIN@?$AAH?$AAK?$AAC?$AAR@ 1001f7fc     PointCardRW.obj
 0002:00000808       ??_C@_19JAPAIJDE@?$AAH?$AAK?$AAC?$AAU@ 1001f808     PointCardRW.obj
 0002:00000814       ??_C@_19PEALEEJB@?$AAH?$AAK?$AAL?$AAM@ 1001f814     PointCardRW.obj
 0002:00000820       ??_C@_17PJOJPMPB@?$AAH?$AAK?$AAU@ 1001f820     PointCardRW.obj
 0002:00000828       ??_C@_19PNBHMJPL@?$AAH?$AAK?$AAP?$AAD@ 1001f828     PointCardRW.obj
 0002:00000834       ??_C@_19GFFAIJHG@?$AAH?$AAK?$AAD?$AAD@ 1001f834     PointCardRW.obj
 0002:00000840       ??_C@_19OFICIBHH@?$AAH?$AAK?$AAC?$AAC@ 1001f840     PointCardRW.obj
 0002:0000084c       ??_C@_1CE@PACHPJFI@?$AAH?$AAK?$AAE?$AAY?$AA_?$AAC?$AAL?$AAA?$AAS?$AAS?$AAE?$AAS?$AA_?$AAR?$AAO@ 1001f84c     PointCardRW.obj
 0002:00000870       ??_C@_1CE@HLHNCBPM@?$AAH?$AAK?$AAE?$AAY?$AA_?$AAC?$AAU?$AAR?$AAR?$AAE?$AAN?$AAT?$AA_?$AAU?$AAS@ 1001f870     PointCardRW.obj
 0002:00000894       ??_C@_1CG@GFBEANJL@?$AAH?$AAK?$AAE?$AAY?$AA_?$AAL?$AAO?$AAC?$AAA?$AAL?$AA_?$AAM?$AAA?$AAC?$AAH@ 1001f894     PointCardRW.obj
 0002:000008bc       ??_C@_1BG@BGODANIO@?$AAH?$AAK?$AAE?$AAY?$AA_?$AAU?$AAS?$AAE?$AAR?$AAS@ 1001f8bc     PointCardRW.obj
 0002:000008d4       ??_C@_1CM@KHNNAOIC@?$AAH?$AAK?$AAE?$AAY?$AA_?$AAP?$AAE?$AAR?$AAF?$AAO?$AAR?$AAM?$AAA?$AAN?$AAC@ 1001f8d4     PointCardRW.obj
 0002:00000900       ??_C@_1BM@HAGMMHIA@?$AAH?$AAK?$AAE?$AAY?$AA_?$AAD?$AAY?$AAN?$AA_?$AAD?$AAA?$AAT?$AAA@ 1001f900     PointCardRW.obj
 0002:0000091c       ??_C@_1CI@HLBJDONE@?$AAO?$AAu?$AAt?$AAp?$AAu?$AAt?$AAC?$AAo?$AAm?$AAp?$AAl?$AAe?$AAt?$AAe?$AAE@ 1001f91c     PointCardRW.obj
 0002:00000944       ??_C@_1CI@BBJOACGG@?$AAH?$AAK?$AAE?$AAY?$AA_?$AAC?$AAU?$AAR?$AAR?$AAE?$AAN?$AAT?$AA_?$AAC?$AAO@ 1001f944     PointCardRW.obj
 0002:0000096c       ??_C@_1BG@LODEBHDD@?$AAE?$AAr?$AAr?$AAo?$AAr?$AAE?$AAv?$AAe?$AAn?$AAt@ 1001f96c     PointCardRW.obj
 0002:00000984       ??_C@_1BM@CBGEBBBJ@?$AAD?$AAi?$AAr?$AAe?$AAc?$AAt?$AAI?$AAO?$AAE?$AAv?$AAe?$AAn?$AAt@ 1001f984     PointCardRW.obj
 0002:000009a0       ??_C@_1BE@IEBMACEM@?$AAD?$AAa?$AAt?$AAa?$AAE?$AAv?$AAe?$AAn?$AAt@ 1001f9a0     PointCardRW.obj
 0002:000009b4       ??_C@_1BC@ENICKDH@?$AAC?$AAo?$AAn?$AAt?$AAe?$AAn?$AAt?$AAs@ 1001f9b4     PointCardRW.obj
 0002:000009c8       ??_C@_1EA@NHKLICFA@?$AAH?$AAK?$AAC?$AAU?$AA?$AN?$AA?6?$AA?$HL?$AA?7?$AAS?$AAo?$AAf?$AAt?$AAw?$AAa?$AAr@ 1001f9c8     PointCardRW.obj
 0002:00000a08       ??_C@_1BE@LJOLIMEM@?$AA?$AN?$AA?6?$AA?7?$AA?$HN?$AA?$AN?$AA?6?$AA?$HN?$AA?$AN?$AA?6@ 1001fa08     PointCardRW.obj
 0002:00000a1c       __GUID_00000109_0000_0000_c000_000000000046 1001fa1c     PointCardRW.obj
 0002:00000a2c       __GUID_7fd52380_4e07_101b_ae2d_08002b2ec713 1001fa2c     PointCardRW.obj
 0002:00000a3c       ??_7?$CComObject@V?$CComEnum@UIEnumConnectionPoints@@$1?_GUID_b196b285_bab4_101a_b69c_00aa00341d07@@3U__s_GUID@@BPAUIConnectionPoint@@V?$_CopyInterface@UIConnectionPoint@@@ATL@@VCComSingleThreadModel@6@@ATL@@@ATL@@6B@ 1001fa3c     PointCardRW.obj
 0002:00000a5c       ??_C@_1O@MNLDABAF@?$AAM?$AAo?$AAd?$AAu?$AAl?$AAe@ 1001fa5c     PointCardRW.obj
 0002:00000a6c       ??_C@_1BG@JBACFMF@?$AAM?$AAo?$AAd?$AAu?$AAl?$AAe?$AA_?$AAR?$AAa?$AAw@ 1001fa6c     PointCardRW.obj
 0002:00000a84       ??_C@_1BC@KAILKFFG@?$AAR?$AAE?$AAG?$AAI?$AAS?$AAT?$AAR?$AAY@ 1001fa84     PointCardRW.obj
 0002:00000a98       __GUID_0000010e_0000_0000_c000_000000000046 1001fa98     PointCardRW.obj
 0002:00000aa8       __GUID_b196b288_bab4_101a_b69c_00aa00341d07 1001faa8     PointCardRW.obj
 0002:00000ab8       __GUID_00000113_0000_0000_c000_000000000046 1001fab8     PointCardRW.obj
 0002:00000ac8       __GUID_1c2056cc_5ef4_101b_8bc8_00aa003e3b29 1001fac8     PointCardRW.obj
 0002:00000ad8       __GUID_00000112_0000_0000_c000_000000000046 1001fad8     PointCardRW.obj
 0002:00000ae8       __GUID_3af24292_0c96_11ce_a0cf_00aa00600ab8 1001fae8     PointCardRW.obj
 0002:00000af8       __GUID_00000127_0000_0000_c000_000000000046 1001faf8     PointCardRW.obj
 0002:00000b08       __GUID_0000010d_0000_0000_c000_000000000046 1001fb08     PointCardRW.obj
 0002:00000b18       __GUID_b196b284_bab4_101a_b69c_00aa00341d07 1001fb18     PointCardRW.obj
 0002:00000b28       ??_7?$CComObjectCached@VCComClassFactory@ATL@@@ATL@@6B@ 1001fb28     PointCardRW.obj
 0002:00000b40       ??_C@_1M@PPPPCDEP@?$AAA?$AAP?$AAP?$AAI?$AAD@ 1001fb40     PointCardRW.obj
 0002:00000b4c       ??_7?$CComContainedObject@VCOPOSPointCardRW@@@ATL@@6B?$IDispatchImpl@UIOPOSPointCardRW@@$1?IID_IOPOSPointCardRW@@3U_GUID@@B$1?LIBID_OposPointCardRW_CCO@@3U3@B$00$0A@VCComTypeInfoHolder@ATL@@@1@@ 1001fb4c     PointCardRW.obj
 0002:00000d5c       ??_7?$CComContainedObject@VCOPOSPointCardRW@@@ATL@@6BCComControlBase@1@@ 1001fd5c     PointCardRW.obj
 0002:00000d70       ??_7?$CComContainedObject@VCOPOSPointCardRW@@@ATL@@6B?$CWindowImpl@VCOPOSPointCardRW@@VCWindow@ATL@@V?$CWinTraits@$0FGAAAAAA@$0A@@3@@1@@ 1001fd70     PointCardRW.obj
 0002:00000d80       ??_7?$CComContainedObject@VCOPOSPointCardRW@@@ATL@@6B?$IPersistStreamInitImpl@VCOPOSPointCardRW@@@1@@ 1001fd80     PointCardRW.obj
 0002:00000da4       ??_7?$CComContainedObject@VCOPOSPointCardRW@@@ATL@@6B?$IOleControlImpl@VCOPOSPointCardRW@@@1@@ 1001fda4     PointCardRW.obj
 0002:00000dc0       ??_7?$CComContainedObject@VCOPOSPointCardRW@@@ATL@@6B?$IOleObjectImpl@VCOPOSPointCardRW@@@1@@ 1001fdc0     PointCardRW.obj
 0002:00000e20       ??_7?$CComContainedObject@VCOPOSPointCardRW@@@ATL@@6B?$IOleInPlaceActiveObjectImpl@VCOPOSPointCardRW@@@1@@ 1001fe20     PointCardRW.obj
 0002:00000e48       ??_7?$CComContainedObject@VCOPOSPointCardRW@@@ATL@@6B?$IViewObjectExImpl@VCOPOSPointCardRW@@@1@@ 1001fe48     PointCardRW.obj
 0002:00000e84       ??_7?$CComContainedObject@VCOPOSPointCardRW@@@ATL@@6B?$IOleInPlaceObjectWindowlessImpl@VCOPOSPointCardRW@@@1@@ 1001fe84     PointCardRW.obj
 0002:00000eb0       ??_7?$CComContainedObject@VCOPOSPointCardRW@@@ATL@@6B?$IConnectionPointContainerImpl@VCOPOSPointCardRW@@@1@@ 1001feb0     PointCardRW.obj
 0002:00000ec4       ??_7?$CComContainedObject@VCOPOSPointCardRW@@@ATL@@6B?$IPersistStorageImpl@VCOPOSPointCardRW@@@1@@ 1001fec4     PointCardRW.obj
 0002:00000eec       ??_7?$CComContainedObject@VCOPOSPointCardRW@@@ATL@@6B?$ISpecifyPropertyPagesImpl@VCOPOSPointCardRW@@@1@@ 1001feec     PointCardRW.obj
 0002:00000efc       ??_7?$CComContainedObject@VCOPOSPointCardRW@@@ATL@@6B?$IQuickActivateImpl@VCOPOSPointCardRW@@@1@@ 1001fefc     PointCardRW.obj
 0002:00000f14       ??_7?$CComContainedObject@VCOPOSPointCardRW@@@ATL@@6B?$IDataObjectImpl@VCOPOSPointCardRW@@@1@@ 1001ff14     PointCardRW.obj
 0002:00000f44       ??_7?$CComContainedObject@VCOPOSPointCardRW@@@ATL@@6B?$IProvideClassInfo2Impl@$1?CLSID_OPOSPointCardRW@@3U_GUID@@B$1?DIID__IOPOSPointCardRWEvents@@3U2@B$1?LIBID_OposPointCardRW_CCO@@3U2@B$00$0A@VCComTypeInfoHolder@ATL@@@1@@ 1001ff44     PointCardRW.obj
 0002:00000f58       ??_7?$CComContainedObject@VCOPOSPointCardRW@@@ATL@@6B?$IObjectSafetyImpl@VCOPOSPointCardRW@@$02@1@@ 1001ff58     PointCardRW.obj
 0002:00000f70       ??_7?$CComContainedObject@VCOPOSPointCardRW@@@ATL@@6B?$IPropertyNotifySinkCP@VCOPOSPointCardRW@@VCComDynamicUnkArray@ATL@@@1@@ 1001ff70     PointCardRW.obj
 0002:00000f90       ??_7?$CComContainedObject@VCOPOSPointCardRW@@@ATL@@6B?$CProxy_IOPOSEvents@VCOPOSPointCardRW@@@@@ 1001ff90     PointCardRW.obj
 0002:00000fb0       ??_7?$CComAggObject@VCOPOSPointCardRW@@@ATL@@6B@ 1001ffb0     PointCardRW.obj
 0002:00000fc0       ??_7?$CComObject@VCOPOSPointCardRW@@@ATL@@6B?$IDispatchImpl@UIOPOSPointCardRW@@$1?IID_IOPOSPointCardRW@@3U_GUID@@B$1?LIBID_OposPointCardRW_CCO@@3U3@B$00$0A@VCComTypeInfoHolder@ATL@@@1@@ 1001ffc0     PointCardRW.obj
 0002:000011d0       ??_7?$CComObject@VCOPOSPointCardRW@@@ATL@@6BCComControlBase@1@@ 100201d0     PointCardRW.obj
 0002:000011e4       ??_7?$CComObject@VCOPOSPointCardRW@@@ATL@@6B?$CWindowImpl@VCOPOSPointCardRW@@VCWindow@ATL@@V?$CWinTraits@$0FGAAAAAA@$0A@@3@@1@@ 100201e4     PointCardRW.obj
 0002:000011f4       ??_7?$CComObject@VCOPOSPointCardRW@@@ATL@@6B?$IPersistStreamInitImpl@VCOPOSPointCardRW@@@1@@ 100201f4     PointCardRW.obj
 0002:00001218       ??_7?$CComObject@VCOPOSPointCardRW@@@ATL@@6B?$IOleControlImpl@VCOPOSPointCardRW@@@1@@ 10020218     PointCardRW.obj
 0002:00001234       ??_7?$CComObject@VCOPOSPointCardRW@@@ATL@@6B?$IOleObjectImpl@VCOPOSPointCardRW@@@1@@ 10020234     PointCardRW.obj
 0002:00001294       ??_7?$CComObject@VCOPOSPointCardRW@@@ATL@@6B?$IOleInPlaceActiveObjectImpl@VCOPOSPointCardRW@@@1@@ 10020294     PointCardRW.obj
 0002:000012bc       ??_7?$CComObject@VCOPOSPointCardRW@@@ATL@@6B?$IViewObjectExImpl@VCOPOSPointCardRW@@@1@@ 100202bc     PointCardRW.obj
 0002:000012f8       ??_7?$CComObject@VCOPOSPointCardRW@@@ATL@@6B?$IOleInPlaceObjectWindowlessImpl@VCOPOSPointCardRW@@@1@@ 100202f8     PointCardRW.obj
 0002:00001324       ??_7?$CComObject@VCOPOSPointCardRW@@@ATL@@6B?$IConnectionPointContainerImpl@VCOPOSPointCardRW@@@1@@ 10020324     PointCardRW.obj
 0002:00001338       ??_7?$CComObject@VCOPOSPointCardRW@@@ATL@@6B?$IPersistStorageImpl@VCOPOSPointCardRW@@@1@@ 10020338     PointCardRW.obj
 0002:00001360       ??_7?$CComObject@VCOPOSPointCardRW@@@ATL@@6B?$ISpecifyPropertyPagesImpl@VCOPOSPointCardRW@@@1@@ 10020360     PointCardRW.obj
 0002:00001370       ??_7?$CComObject@VCOPOSPointCardRW@@@ATL@@6B?$IQuickActivateImpl@VCOPOSPointCardRW@@@1@@ 10020370     PointCardRW.obj
 0002:00001388       ??_7?$CComObject@VCOPOSPointCardRW@@@ATL@@6B?$IDataObjectImpl@VCOPOSPointCardRW@@@1@@ 10020388     PointCardRW.obj
 0002:000013b8       ??_7?$CComObject@VCOPOSPointCardRW@@@ATL@@6B?$IProvideClassInfo2Impl@$1?CLSID_OPOSPointCardRW@@3U_GUID@@B$1?DIID__IOPOSPointCardRWEvents@@3U2@B$1?LIBID_OposPointCardRW_CCO@@3U2@B$00$0A@VCComTypeInfoHolder@ATL@@@1@@ 100203b8     PointCardRW.obj
 0002:000013cc       ??_7?$CComObject@VCOPOSPointCardRW@@@ATL@@6B?$IObjectSafetyImpl@VCOPOSPointCardRW@@$02@1@@ 100203cc     PointCardRW.obj
 0002:000013e4       ??_7?$CComObject@VCOPOSPointCardRW@@@ATL@@6B?$IPropertyNotifySinkCP@VCOPOSPointCardRW@@VCComDynamicUnkArray@ATL@@@1@@ 100203e4     PointCardRW.obj
 0002:00001404       ??_7?$CComObject@VCOPOSPointCardRW@@@ATL@@6B?$CProxy_IOPOSEvents@VCOPOSPointCardRW@@@@@ 10020404     PointCardRW.obj
 0002:00001424       ??_C@_1O@GBFKGNEO@?$AAA?$AAT?$AAL?$AA?3?$AA?$CF?$AAp@ 10020424     PointCardRW.obj
 0002:00001434       ??_C@_1BA@PICGEGJB@?$AAD?$AAI?$AAS?$AAP?$AAL?$AAA?$AAY@ 10020434     PointCardRW.obj
 0002:00001444       __GUID_9bfbbc02_eff1_101a_84ed_00aa00341d07 10020444     PointCardRW.obj
 0002:00001454       ?_entries@?1??_GetEntries@?$CComEnum@UIEnumConnectionPoints@@$1?_GUID_b196b285_bab4_101a_b69c_00aa00341d07@@3U__s_GUID@@BPAUIConnectionPoint@@V?$_CopyInterface@UIConnectionPoint@@@ATL@@VCComSingleThreadModel@6@@ATL@@SGPBU_ATL_INTMAP_ENTRY@3@XZ@4QBU43@B 10020454     PointCardRW.obj
 0002:0000146c       __GUID_00020412_0000_0000_c000_000000000046 1002046c     PointCardRW.obj
 0002:0000147c       __GUID_00020401_0000_0000_c000_000000000046 1002047c     PointCardRW.obj
 0002:0000148c       ??_7CComClassFactory@ATL@@6B@ 1002048c     PointCardRW.obj
 0002:000014a4       ?_entries@?1??_GetEntries@CComClassFactory@ATL@@SGPBU_ATL_INTMAP_ENTRY@3@XZ@4QBU43@B 100204a4     PointCardRW.obj
 0002:000014bc       __GUID_00000001_0000_0000_c000_000000000046 100204bc     PointCardRW.obj
 0002:000014cc       __GUID_55980ba0_35aa_11cf_b671_00aa004cd6d8 100204cc     PointCardRW.obj
 0002:000014dc       __GUID_b196b28b_bab4_101a_b69c_00aa00341d07 100204dc     PointCardRW.obj
 0002:000014ec       ??_7?$CComObject@V?$CComEnum@UIEnumConnections@@$1?_GUID_b196b287_bab4_101a_b69c_00aa00341d07@@3U__s_GUID@@BUtagCONNECTDATA@@V?$_Copy@UtagCONNECTDATA@@@ATL@@VCComSingleThreadModel@6@@ATL@@@ATL@@6B@ 100204ec     PointCardRW.obj
 0002:0000150c       ?_entries@?1??_GetEntries@?$CComEnum@UIEnumConnections@@$1?_GUID_b196b287_bab4_101a_b69c_00aa00341d07@@3U__s_GUID@@BUtagCONNECTDATA@@V?$_Copy@UtagCONNECTDATA@@@ATL@@VCComSingleThreadModel@6@@ATL@@SGPBU_ATL_INTMAP_ENTRY@3@XZ@4QBU43@B 1002050c     PointCardRW.obj
 0002:00001524       ??_C@_1BK@BIGILECK@?$AAA?$AAd?$AAv?$AAa?$AAp?$AAi?$AA3?$AA2?$AA?4?$AAd?$AAl?$AAl@ 10020524     PointCardRW.obj
 0002:00001540       ??_C@_0BI@MNCFCPFK@RegCreateKeyTransactedW@ 10020540     PointCardRW.obj
 0002:00001558       __GUID_b196b287_bab4_101a_b69c_00aa00341d07 10020558     PointCardRW.obj
 0002:00001568       __GUID_b196b285_bab4_101a_b69c_00aa00341d07 10020568     PointCardRW.obj
 0002:00001578       __GUID_a6bc3ac0_dbaa_11ce_9de3_00aa004bb851 10020578     PointCardRW.obj
 0002:00001588       _IID_IOPOSPointCardRW_1_5  10020588     PointCardRW.obj
 0002:00001598       __GUID_0000010c_0000_0000_c000_000000000046 10020598     PointCardRW.obj
 0002:000015a8       __GUID_00000146_0000_0000_c000_000000000046 100205a8     PointCardRW.obj
 0002:000015b8       _IID_IOPOSPointCardRW_1_7  100205b8     PointCardRW.obj
 0002:000015c8       _IID_IOPOSPointCardRW_1_8  100205c8     PointCardRW.obj
 0002:000015d8       _IID_IOPOSPointCardRW_1_9  100205d8     PointCardRW.obj
 0002:000015e8       _IID_IOPOSPointCardRW_1_10 100205e8     PointCardRW.obj
 0002:000015f8       __GUID_00000114_0000_0000_c000_000000000046 100205f8     PointCardRW.obj
 0002:00001608       _IID_IOPOSPointCardRW      10020608     PointCardRW.obj
 0002:00001618       _LIBID_OposPointCardRW_CCO 10020618     PointCardRW.obj
 0002:00001628       _DIID__IOPOSPointCardRWEvents 10020628     PointCardRW.obj
 0002:00001638       _CLSID_OPOSPointCardRW     10020638     PointCardRW.obj
 0002:00001648       ??_7CComModule@ATL@@6B@    10020648     PointCardRW.obj
 0002:00001670       ??_C@_0BG@EKFFMJIO@RegOpenKeyTransactedW@ 10020670     PointCardRW.obj
 0002:00001688       ??_C@_0BI@HAKLOOGP@RegDeleteKeyTransactedW@ 10020688     PointCardRW.obj
 0002:000016a0       ??_C@_19ILOCMLCJ@?$AA?4?$AAt?$AAl?$AAb@ 100206a0     PointCardRW.obj
 0002:000016ac       __GUID_0002e012_0000_0000_c000_000000000046 100206ac     PointCardRW.obj
 0002:000016bc       ??_C@_1O@FHBGLCIO@?$AAC?$AAL?$AAS?$AAI?$AAD?$AA?2@ 100206bc     PointCardRW.obj
 0002:000016cc       ??_C@_1CK@IFBKBFAA@?$AA?2?$AAR?$AAe?$AAq?$AAu?$AAi?$AAr?$AAe?$AAd?$AA?5?$AAC?$AAa?$AAt?$AAe?$AAg@ 100206cc     PointCardRW.obj
 0002:000016f8       ??_C@_1DA@BIHALFED@?$AA?2?$AAI?$AAm?$AAp?$AAl?$AAe?$AAm?$AAe?$AAn?$AAt?$AAe?$AAd?$AA?5?$AAC?$AAa@ 100206f8     PointCardRW.obj
 0002:00001728       ??_C@_1BK@EDKOLFBJ@?$AAO?$AAL?$AAE?$AAA?$AAU?$AAT?$AA3?$AA2?$AA?4?$AAD?$AAL?$AAL@ 10020728     PointCardRW.obj
 0002:00001744       ??_C@_0BJ@CNLFOMHB@UnRegisterTypeLibForUser@ 10020744     PointCardRW.obj
 0002:00001760       ??_C@_0BH@LBOMMKPJ@RegisterTypeLibForUser@ 10020760     PointCardRW.obj
 0002:00001778       ??_C@_0P@MMNMMLGK@COFreezeEvents@ 10020778     PointCardRWImpl.obj
 0002:00001788       ??_C@_0BC@OGCGGIMP@GetPropertyNumber@ 10020788     PointCardRWImpl.obj
 0002:0000179c       ??_C@_0BC@MDCNODNB@SetPropertyNumber@ 1002079c     PointCardRWImpl.obj
 0002:000017b0       ??_C@_0BC@CFCCMIMD@GetPropertyString@ 100207b0     PointCardRWImpl.obj
 0002:000017c4       ??_C@_0BC@CJEDNN@SetPropertyString@ 100207c4     PointCardRWImpl.obj
 0002:000017d8       ??_C@_0M@LNPKKKDA@OpenService@ 100207d8     PointCardRWImpl.obj
 0002:000017e4       ??_C@_0M@PCMCHHMH@CheckHealth@ 100207e4     PointCardRWImpl.obj
 0002:000017f0       ??_C@_0M@JGMIDNEK@ClaimDevice@ 100207f0     PointCardRWImpl.obj
 0002:000017fc       ??_C@_0L@BNEIFEJC@ClearInput@ 100207fc     PointCardRWImpl.obj
 0002:00001808       ??_C@_0M@JMBCPNGJ@ClearOutput@ 10020808     PointCardRWImpl.obj
 0002:00001814       ??_C@_0N@DDFIIBMP@CloseService@ 10020814     PointCardRWImpl.obj
 0002:00001824       ??_C@_08EEIHICPC@DirectIO@ 10020824     PointCardRWImpl.obj
 0002:00001830       ??_C@_0O@BCPMENMJ@ReleaseDevice@ 10020830     PointCardRWImpl.obj
 0002:00001840       ??_C@_0P@DPMKPLAE@BeginInsertion@ 10020840     PointCardRWImpl.obj
 0002:00001850       ??_C@_0N@PCJLGBKP@BeginRemoval@ 10020850     PointCardRWImpl.obj
 0002:00001860       ??_C@_09JOLGHOFM@CleanCard@ 10020860     PointCardRWImpl.obj
 0002:0000186c       ??_C@_0BA@DIBCHCJJ@ClearPrintWrite@ 1002086c     PointCardRWImpl.obj
 0002:0000187c       ??_C@_0N@MIHLNKHM@EndInsertion@ 1002087c     PointCardRWImpl.obj
 0002:0000188c       ??_C@_0L@FCEKAOMI@EndRemoval@ 1002088c     PointCardRWImpl.obj
 0002:00001898       ??_C@_0L@KMDJNLNL@PrintWrite@ 10020898     PointCardRWImpl.obj
 0002:000018a4       ??_C@_0M@BCMAIKNJ@RotatePrint@ 100208a4     PointCardRWImpl.obj
 0002:000018b0       ??_C@_0N@MBAILECK@ValidateData@ 100208b0     PointCardRWImpl.obj
 0002:000018c0       ??_C@_0BA@GFABKEEE@ResetStatistics@ 100208c0     PointCardRWImpl.obj
 0002:000018d0       ??_C@_0BD@DPALHJGC@RetrieveStatistics@ 100208d0     PointCardRWImpl.obj
 0002:000018e4       ??_C@_0BB@KOHIKNFC@UpdateStatistics@ 100208e4     PointCardRWImpl.obj
 0002:000018f8       ??_C@_0BH@PBKBNMGB@CompareFirmwareVersion@ 100208f8     PointCardRWImpl.obj
 0002:00001910       ??_C@_0P@FBPDPIPA@UpdateFirmware@ 10020910     PointCardRWImpl.obj
 0002:00001920       ??_C@_0BF@CMAPCJGM@ClearInputProperties@ 10020920     PointCardRWImpl.obj
 0002:00001938       ??_7?$CProxy_IOPOSEvents@VCOPOSPointCardRW@@@@6B@ 10020938     PointCardRWImpl.obj
 0002:00001958       ??_C@_1BA@IFHENID@?$AA?$FL?$AAE?$AAr?$AAr?$AAo?$AAr?$AA?$FN@ 10020958     PointCardRWImpl.obj
 0002:00001968       ??_C@_0CO@JMLGEGNF@SOFTWARE?2OLEforRetail?2ServiceOP@ 10020968     PointCardRWImpl.obj
 0002:00001998       ??_C@_1M@IAIJHCCH@?$AAC?$AAl?$AAo?$AAs?$AAe@ 10020998     PointCardRWImpl.obj
 0002:000019a4       ??_C@_1M@PCPKGJAH@?$AAC?$AAl?$AAa?$AAi?$AAm@ 100209a4     PointCardRWImpl.obj
 0002:000019b0       ??_C@_1BA@NDFKIOCP@?$AAR?$AAe?$AAl?$AAe?$AAa?$AAs?$AAe@ 100209b0     PointCardRWImpl.obj
 0002:000019c0       ??_C@_0M@PBOLLKCJ@PointCardRW@ 100209c0     PointCardRWImpl.obj
 0002:000019cc       ??_C@_1BM@IJMNMBPK@?$AAG?$AAe?$AAt?$AAO?$AAp?$AAe?$AAn?$AAR?$AAe?$AAs?$AAu?$AAl?$AAt@ 100209cc     PointCardRWImpl.obj
 0002:000019e8       _GUID_NULL                 100209e8     uuid:cguid_i.obj
 0002:000019f8       _CLSID_StdGlobalInterfaceTable 100209f8     uuid:cguid_i.obj
 0002:00001a08       _IID_IDispatch             10020a08     uuid:oaidl_i.obj
 0002:00001a18       _IID_IPropertyNotifySink   10020a18     uuid:ocidl_i.obj
 0002:00001a28       _CLSID_StdComponentCategoriesMgr 10020a28     uuid:ieguids.obj
 0002:00001a38       _IID_IUnknown              10020a38     uuid:unknwn_i.obj
 0002:00001a48       ??_C@_1EC@JIJBPKFM@?$AAa?$AAp?$AAi?$AA?9?$AAm?$AAs?$AA?9?$AAw?$AAi?$AAn?$AA?9?$AAc?$AAo?$AAr?$AAe@ 10020a48     LIBCMT:thread_safe_statics.obj
 0002:00001a8c       ??_C@_1BK@MGMFAEKH@?$AAk?$AAe?$AAr?$AAn?$AAe?$AAl?$AA3?$AA2?$AA?4?$AAd?$AAl?$AAl@ 10020a8c     LIBCMT:thread_safe_statics.obj
 0002:00001aa8       ??_C@_0BM@HLJJNPAH@InitializeConditionVariable@ 10020aa8     LIBCMT:thread_safe_statics.obj
 0002:00001ac4       ??_C@_0BJ@JEBJOJFJ@SleepConditionVariableCS@ 10020ac4     LIBCMT:thread_safe_statics.obj
 0002:00001ae0       ??_C@_0BJ@PGPPEPCC@WakeAllConditionVariable@ 10020ae0     LIBCMT:thread_safe_statics.obj
 0002:00001af9       ?nothrow@std@@3Unothrow_t@1@B 10020af9     LIBCMT:std_nothrow.obj
 0002:00001b04       __pDefaultRawDllMain       10020b04     LIBCMT:dll_dllmain.obj
 0002:00001b04       __pRawDllMain              10020b04     LIBCMT:dll_dllmain.obj
 0002:00001b0c       ??_7exception@std@@6B@     10020b0c     LIBCMT:throw_bad_alloc.obj
 0002:00001b14       ??_C@_0BC@EOODALEL@Unknown?5exception@ 10020b14     LIBCMT:throw_bad_alloc.obj
 0002:00001b2c       ??_7bad_alloc@std@@6B@     10020b2c     LIBCMT:throw_bad_alloc.obj
 0002:00001b34       ??_C@_0P@GHFPNOJB@bad?5allocation@ 10020b34     LIBCMT:throw_bad_alloc.obj
 0002:00001b48       ??_7bad_array_new_length@std@@6B@ 10020b48     LIBCMT:throw_bad_alloc.obj
 0002:00001b50       ??_C@_0BF@KINCDENJ@bad?5array?5new?5length@ 10020b50     LIBCMT:throw_bad_alloc.obj
 0002:00001b6c       ??_7type_info@@6B@         10020b6c     LIBCMT:std_type_info_static.obj
 0002:00001b70       _GUID_ATLVer110            10020b70     atls:atlbase.obj
 0002:00001b80       ??_C@_1IC@ONKHOIDK@?$AAE?$AAR?$AAR?$AAO?$AAR?$AA?5?$AA?3?$AA?5?$AAU?$AAn?$AAa?$AAb?$AAl?$AAe?$AA?5@ 10020b80     atls:atlbase.obj
 0002:00001c04       ??_C@_0N@FJEPLCIH@atlthunk?4dll@ 10020c04     atls:atlthunk.obj
 0002:00001c14       ??_C@_0BG@GAKFHCBM@AtlThunk_AllocateData@ 10020c14     atls:atlthunk.obj
 0002:00001c2c       ??_C@_0BC@JKONFIAH@AtlThunk_InitData@ 10020c2c     atls:atlthunk.obj
 0002:00001c40       ??_C@_0BE@IAOEELAK@AtlThunk_DataToCode@ 10020c40     atls:atlthunk.obj
 0002:00001c54       ??_C@_0BC@GBGKAIPI@AtlThunk_FreeData@ 10020c54     atls:atlthunk.obj
 0002:00001c94       ??_C@_1DM@KHCHBNEB@?$AAa?$AAp?$AAi?$AA?9?$AAm?$AAs?$AA?9?$AAw?$AAi?$AAn?$AA?9?$AAc?$AAo?$AAr?$AAe@ 10020c94     libvcruntime:winapi_downlevel.obj
 0002:00001cd0       ??_C@_1DK@LPPGFMPP@?$AAa?$AAp?$AAi?$AA?9?$AAm?$AAs?$AA?9?$AAw?$AAi?$AAn?$AA?9?$AAc?$AAo?$AAr?$AAe@ 10020cd0     libvcruntime:winapi_downlevel.obj
 0002:00001d0c       ??_C@_1BC@GDMECMAK@?$AAk?$AAe?$AAr?$AAn?$AAe?$AAl?$AA3?$AA2@ 10020d0c     libvcruntime:winapi_downlevel.obj
 0002:00001d20       ??_C@_1BA@PFFKHIOG@?$AAa?$AAp?$AAi?$AA?9?$AAm?$AAs?$AA?9@ 10020d20     libvcruntime:winapi_downlevel.obj
 0002:00001d30       ??_C@_1BA@IAIFMGEF@?$AAe?$AAx?$AAt?$AA?9?$AAm?$AAs?$AA?9@ 10020d30     libvcruntime:winapi_downlevel.obj
 0002:00001d48       ??_C@_08KNHFBNJ@FlsAlloc@  10020d48     libvcruntime:winapi_downlevel.obj
 0002:00001d5c       ??_C@_07PEJMOBNF@FlsFree@  10020d5c     libvcruntime:winapi_downlevel.obj
 0002:00001d6c       ??_C@_0M@GDNOONDI@FlsGetValue@ 10020d6c     libvcruntime:winapi_downlevel.obj
 0002:00001d80       ??_C@_0M@JCPCPOEF@FlsSetValue@ 10020d80     libvcruntime:winapi_downlevel.obj
 0002:00001d94       ??_C@_0BM@HCFOFFN@InitializeCriticalSectionEx@ 10020d94     libvcruntime:winapi_downlevel.obj
 0002:00001db4       ??_7bad_exception@std@@6B@ 10020db4     libvcruntime:frame.obj
 0002:00001dbc       ??_C@_0O@DPKOEFFH@bad?5exception@ 10020dbc     libvcruntime:frame.obj
 0002:00001f6c       ??_C@_08EHJDFFNH@__based?$CI@ 10020f6c     libvcruntime:undname.obj
 0002:00001f78       ??_C@_07KOLFKCDI@__cdecl@  10020f78     libvcruntime:undname.obj
 0002:00001f80       ??_C@_08GHMPAG@__pascal@   10020f80     libvcruntime:undname.obj
 0002:00001f8c       ??_C@_09IFJBGAPI@__stdcall@ 10020f8c     libvcruntime:undname.obj
 0002:00001f98       ??_C@_0L@NPHFGOKO@__thiscall@ 10020f98     libvcruntime:undname.obj
 0002:00001fa4       ??_C@_0L@JMKHOMEK@__fastcall@ 10020fa4     libvcruntime:undname.obj
 0002:00001fb0       ??_C@_0N@BCKKPABJ@__vectorcall@ 10020fb0     libvcruntime:undname.obj
 0002:00001fc0       ??_C@_09HIJEGCPM@__clrcall@ 10020fc0     libvcruntime:undname.obj
 0002:00001fcc       ??_C@_06GHPCKEAG@__eabi@   10020fcc     libvcruntime:undname.obj
 0002:00001fd4       ??_C@_09IOPIDJLG@__swift_1@ 10020fd4     libvcruntime:undname.obj
 0002:00001fe0       ??_C@_09KFNFGKHF@__swift_2@ 10020fe0     libvcruntime:undname.obj
 0002:00001fec       ??_C@_07JOMMBBKO@__ptr64@  10020fec     libvcruntime:undname.obj
 0002:00001ff4       ??_C@_0L@PILCLIHE@__restrict@ 10020ff4     libvcruntime:undname.obj
 0002:00002000       ??_C@_0M@GFIIJFMG@__unaligned@ 10021000     libvcruntime:undname.obj
 0002:0000200c       ??_C@_09DHDLOLLB@restrict?$CI@ 1002100c     libvcruntime:undname.obj
 0002:00002016       ??_C@_00CNPNBAHC@@         10021016     libvcruntime:undname.obj
 0002:00002018       ??_C@_04NIHEBCM@?5new@     10021018     libvcruntime:undname.obj
 0002:00002020       ??_C@_07FPCDHGMM@?5delete@ 10021020     libvcruntime:undname.obj
 0002:00002028       ??_C@_01NEMOKFLO@?$DN@     10021028     libvcruntime:undname.obj
 0002:0000202c       ??_C@_02GPIOPFAK@?$DO?$DO@ 1002102c     libvcruntime:undname.obj
 0002:00002030       ??_C@_02FODMEDOG@?$DM?$DM@ 10021030     libvcruntime:undname.obj
 0002:00002034       ??_C@_01DCLJPIOD@?$CB@     10021034     libvcruntime:undname.obj
 0002:00002038       ??_C@_02EGOFBIJA@?$DN?$DN@ 10021038     libvcruntime:undname.obj
 0002:0000203c       ??_C@_02FDNJECIE@?$CB?$DN@ 1002103c     libvcruntime:undname.obj
 0002:00002040       ??_C@_02GPECMEKF@?$FL?$FN@ 10021040     libvcruntime:undname.obj
 0002:00002044       ??_C@_08LHJFAFGD@operator@ 10021044     libvcruntime:undname.obj
 0002:00002050       ??_C@_02HBOOOICD@?9?$DO@   10021050     libvcruntime:undname.obj
 0002:00002054       ??_C@_01NBENCBCI@?$CK@     10021054     libvcruntime:undname.obj
 0002:00002058       ??_C@_02ECNGHCIF@?$CL?$CL@ 10021058     libvcruntime:undname.obj
 0002:0000205c       ??_C@_02BAABKJLB@?9?9@     1002105c     libvcruntime:undname.obj
 0002:00002060       ??_C@_01JOAMLHOP@?9@       10021060     libvcruntime:undname.obj
 0002:00002064       ??_C@_01MIFGBAGJ@?$CL@     10021064     libvcruntime:undname.obj
 0002:00002068       ??_C@_01HNPIGOCE@?$CG@     10021068     libvcruntime:undname.obj
 0002:0000206c       ??_C@_03MNHNFDLC@?9?$DO?$CK@ 1002106c     libvcruntime:undname.obj
 0002:00002070       ??_C@_01KMDKNFGN@?1@       10021070     libvcruntime:undname.obj
 0002:00002074       ??_C@_01FGNFDNOH@?$CF@     10021074     libvcruntime:undname.obj
 0002:00002078       ??_C@_01MNNFJEPP@?$DM@     10021078     libvcruntime:undname.obj
 0002:0000207c       ??_C@_02EHCHHCKH@?$DM?$DN@ 1002107c     libvcruntime:undname.obj
 0002:00002080       ??_C@_01PPODPGHN@?$DO@     10021080     libvcruntime:undname.obj
 0002:00002084       ??_C@_02EEKDKGMJ@?$DO?$DN@ 10021084     libvcruntime:undname.obj
 0002:00002088       ??_C@_01IHBHIGKO@?0@       10021088     libvcruntime:undname.obj
 0002:0000208c       ??_C@_02HCKGKOFO@?$CI?$CJ@ 1002108c     libvcruntime:undname.obj
 0002:00002090       ??_C@_01PJKLJHI@?$HO@      10021090     libvcruntime:undname.obj
 0002:00002094       ??_C@_01JKBOJNNK@?$FO@     10021094     libvcruntime:undname.obj
 0002:00002098       ??_C@_01DNKMNLPK@?$HM@     10021098     libvcruntime:undname.obj
 0002:0000209c       ??_C@_02PPKAJPJL@?$CG?$CG@ 1002109c     libvcruntime:undname.obj
 0002:000020a0       ??_C@_02NONPIBCD@?$HM?$HM@ 100210a0     libvcruntime:undname.obj
 0002:000020a4       ??_C@_02FPIMKNGF@?$CK?$DN@ 100210a4     libvcruntime:undname.obj
 0002:000020a8       ??_C@_02FOEOMHFC@?$CL?$DN@ 100210a8     libvcruntime:undname.obj
 0002:000020ac       ??_C@_02FKMDLLOA@?9?$DN@   100210ac     libvcruntime:undname.obj
 0002:000020b0       ??_C@_02FJEHGPIO@?1?$DN@   100210b0     libvcruntime:undname.obj
 0002:000020b4       ??_C@_02FENAOKFI@?$CF?$DN@ 100210b4     libvcruntime:undname.obj
 0002:000020b8       ??_C@_03IKFCCPFF@?$DO?$DO?$DN@ 100210b8     libvcruntime:undname.obj
 0002:000020bc       ??_C@_03CDNPDDLA@?$DM?$DM?$DN@ 100210bc     libvcruntime:undname.obj
 0002:000020c0       ??_C@_02FGJGFEAB@?$CG?$DN@ 100210c0     libvcruntime:undname.obj
 0002:000020c4       ??_C@_02DHLNPPGH@?$HM?$DN@ 100210c4     libvcruntime:undname.obj
 0002:000020c8       ??_C@_02MHEGNOJ@?$FO?$DN@  100210c8     libvcruntime:undname.obj
 0002:000020cc       ??_C@_09IFPLHPGF@?$GAvftable?8@ 100210cc     libvcruntime:undname.obj
 0002:000020d8       ??_C@_09BLBHBJP@?$GAvbtable?8@ 100210d8     libvcruntime:undname.obj
 0002:000020e4       ??_C@_07FEEIOKP@?$GAvcall?8@ 100210e4     libvcruntime:undname.obj
 0002:000020ec       ??_C@_08LLFFHHDJ@?$GAtypeof?8@ 100210ec     libvcruntime:undname.obj
 0002:000020f8       ??_C@_0BF@KDPPACIK@?$GAlocal?5static?5guard?8@ 100210f8     libvcruntime:undname.obj
 0002:00002110       ??_C@_08OBABFOLI@?$GAstring?8@ 10021110     libvcruntime:undname.obj
 0002:0000211c       ??_C@_0BD@JDLKDPAB@?$GAvbase?5destructor?8@ 1002111c     libvcruntime:undname.obj
 0002:00002130       ??_C@_0BN@DEGPLNFK@?$GAvector?5deleting?5destructor?8@ 10021130     libvcruntime:undname.obj
 0002:00002150       ??_C@_0BO@OBMKPJIG@?$GAdefault?5constructor?5closure?8@ 10021150     libvcruntime:undname.obj
 0002:00002170       ??_C@_0BN@IMDCHIKM@?$GAscalar?5deleting?5destructor?8@ 10021170     libvcruntime:undname.obj
 0002:00002190       ??_C@_0BO@PFGOCPJJ@?$GAvector?5constructor?5iterator?8@ 10021190     libvcruntime:undname.obj
 0002:000021b0       ??_C@_0BN@LFPFMEDL@?$GAvector?5destructor?5iterator?8@ 100211b0     libvcruntime:undname.obj
 0002:000021d0       ??_C@_0CE@IKBNEHA@?$GAvector?5vbase?5constructor?5itera@ 100211d0     libvcruntime:undname.obj
 0002:000021f4       ??_C@_0BL@NILFHHPC@?$GAvirtual?5displacement?5map?8@ 100211f4     libvcruntime:undname.obj
 0002:00002210       ??_C@_0CB@JONCMFFK@?$GAeh?5vector?5constructor?5iterator@ 10021210     libvcruntime:undname.obj
 0002:00002234       ??_C@_0CA@GCEOPDGL@?$GAeh?5vector?5destructor?5iterator?8@ 10021234     libvcruntime:undname.obj
 0002:00002254       ??_C@_0CH@OOJPLCPH@?$GAeh?5vector?5vbase?5constructor?5it@ 10021254     libvcruntime:undname.obj
 0002:0000227c       ??_C@_0BL@LLKPOHJI@?$GAcopy?5constructor?5closure?8@ 1002127c     libvcruntime:undname.obj
 0002:00002298       ??_C@_0BA@KBCDOMBN@?$GAudt?5returning?8@ 10021298     libvcruntime:undname.obj
 0002:000022a8       ??_C@_03KLGMFNMG@?$GAEH@   100212a8     libvcruntime:undname.obj
 0002:000022ac       ??_C@_05KHLCHHI@?$GARTTI@  100212ac     libvcruntime:undname.obj
 0002:000022b4       ??_C@_0BA@KKLDJDLB@?$GAlocal?5vftable?8@ 100212b4     libvcruntime:undname.obj
 0002:000022c4       ??_C@_0CE@IIHCMGGL@?$GAlocal?5vftable?5constructor?5clos@ 100212c4     libvcruntime:undname.obj
 0002:000022e8       ??_C@_06FHBGPFGH@?5new?$FL?$FN@ 100212e8     libvcruntime:undname.obj
 0002:000022f0       ??_C@_09LBNFPBCA@?5delete?$FL?$FN@ 100212f0     libvcruntime:undname.obj
 0002:000022fc       ??_C@_0P@HJKNJFNN@?$GAomni?5callsig?8@ 100212fc     libvcruntime:undname.obj
 0002:0000230c       ??_C@_0BL@CNOONJFP@?$GAplacement?5delete?5closure?8@ 1002130c     libvcruntime:undname.obj
 0002:00002328       ??_C@_0BN@CKNJLHMB@?$GAplacement?5delete?$FL?$FN?5closure?8@ 10021328     libvcruntime:undname.obj
 0002:00002348       ??_C@_0CG@CFDHKGGD@?$GAmanaged?5vector?5constructor?5ite@ 10021348     libvcruntime:undname.obj
 0002:00002370       ??_C@_0CF@IMGKMJNO@?$GAmanaged?5vector?5destructor?5iter@ 10021370     libvcruntime:undname.obj
 0002:00002398       ??_C@_0CG@HLDDJMAG@?$GAeh?5vector?5copy?5constructor?5ite@ 10021398     libvcruntime:undname.obj
 0002:000023c0       ??_C@_0CM@FCBBDIGB@?$GAeh?5vector?5vbase?5copy?5construct@ 100213c0     libvcruntime:undname.obj
 0002:000023ec       ??_C@_0BL@CLIPGLGB@?$GAdynamic?5initializer?5for?5?8@ 100213ec     libvcruntime:undname.obj
 0002:00002408       ??_C@_0CB@PDBIFEP@?$GAdynamic?5atexit?5destructor?5for?5@ 10021408     libvcruntime:undname.obj
 0002:0000242c       ??_C@_0CD@CGAJBKEJ@?$GAvector?5copy?5constructor?5iterat@ 1002142c     libvcruntime:undname.obj
 0002:00002450       ??_C@_0CJ@GJELGAMM@?$GAvector?5vbase?5copy?5constructor?5@ 10021450     libvcruntime:undname.obj
 0002:0000247c       ??_C@_0CL@FGIJHLCE@?$GAmanaged?5vector?5copy?5constructo@ 1002147c     libvcruntime:undname.obj
 0002:000024a8       ??_C@_0BM@PMGGMLDN@?$GAlocal?5static?5thread?5guard?8@ 100214a8     libvcruntime:undname.obj
 0002:000024c4       ??_C@_0N@BDNMDMOL@operator?5?$CC?$CC?5@ 100214c4     libvcruntime:undname.obj
 0002:000024d4       ??_C@_0BC@GGEBGALA@operator?5co_await@ 100214d4     libvcruntime:undname.obj
 0002:000024e8       ??_C@_0BC@DAFEJGAK@?5Type?5Descriptor?8@ 100214e8     libvcruntime:undname.obj
 0002:000024fc       ??_C@_0BM@LDKODKLH@?5Base?5Class?5Descriptor?5at?5?$CI@ 100214fc     libvcruntime:undname.obj
 0002:00002518       ??_C@_0BD@LGICGFMM@?5Base?5Class?5Array?8@ 10021518     libvcruntime:undname.obj
 0002:0000252c       ??_C@_0BN@MECKDCOJ@?5Class?5Hierarchy?5Descriptor?8@ 1002152c     libvcruntime:undname.obj
 0002:0000254c       ??_C@_0BK@CFCOFLF@?5Complete?5Object?5Locator?8@ 1002154c     libvcruntime:undname.obj
 0002:00002568       __pDestructExceptionObject 10021568     libvcruntime:ehhelpers.obj
 0002:000026d0       _format_validation_lookup_table 100216d0     libucrt:output.obj
 0002:0000272c       ??_C@_1O@CEDCILHN@?$AA?$CI?$AAn?$AAu?$AAl?$AAl?$AA?$CJ?$AA?$AA@ 1002172c     libucrt:output.obj
 0002:0000273c       ??_C@_06OJHGLDPL@?$CInull?$CJ?$AA@ 1002173c     libucrt:output.obj
 0002:00002748       ___acrt_exception_action_table 10021748     libucrt:exception_filter.obj
 0002:000027d8       ___acrt_signal_action_table_count 100217d8     libucrt:exception_filter.obj
 0002:000027dc       ___acrt_signal_action_first_fpe_index 100217dc     libucrt:exception_filter.obj
 0002:000027e0       ___acrt_signal_action_fpe_count 100217e0     libucrt:exception_filter.obj
 0002:000027e4       ??_C@_1BI@BGOHAHKC@?$AAm?$AAs?$AAc?$AAo?$AAr?$AAe?$AAe?$AA?4?$AAd?$AAl?$AAl?$AA?$AA@ 100217e4     libucrt:exit.obj
 0002:000027fc       ??_C@_0P@MIGLKIOC@CorExitProcess?$AA@ 100217fc     libucrt:exit.obj
 0002:000028d8       ??_C@_1EA@JGEFHKEI@?$AAa?$AAp?$AAi?$AA?9?$AAm?$AAs?$AA?9?$AAw?$AAi?$AAn?$AA?9?$AAc?$AAo?$AAr?$AAe?$AA?9?$AAd?$AAa?$AAt?$AAe?$AAt?$AAi?$AAm?$AAe?$AA?9?$AAl?$AA1?$AA?9?$AA1?$AA?9?$AA1?$AA?$AA@ 100218d8     libucrt:winapi_thunks.obj
 0002:00002918       ??_C@_1DM@KHCHBNEB@?$AAa?$AAp?$AAi?$AA?9?$AAm?$AAs?$AA?9?$AAw?$AAi?$AAn?$AA?9?$AAc?$AAo?$AAr?$AAe?$AA?9?$AAf?$AAi?$AAb?$AAe?$AAr?$AAs?$AA?9?$AAl?$AA1?$AA?9?$AA1?$AA?9?$AA1?$AA?$AA@ 10021918     libucrt:winapi_thunks.obj
 0002:00002958       ??_C@_1EI@MPIAOHOC@?$AAa?$AAp?$AAi?$AA?9?$AAm?$AAs?$AA?9?$AAw?$AAi?$AAn?$AA?9?$AAc?$AAo?$AAr?$AAe?$AA?9?$AAl?$AAo?$AAc?$AAa?$AAl?$AAi?$AAz?$AAa?$AAt?$AAi?$AAo?$AAn?$AA?9?$AAl?$AA1?$AA?9@ 10021958     libucrt:winapi_thunks.obj
 0002:000029a0       ??_C@_1FK@FPHCKFIE@?$AAa?$AAp?$AAi?$AA?9?$AAm?$AAs?$AA?9?$AAw?$AAi?$AAn?$AA?9?$AAc?$AAo?$AAr?$AAe?$AA?9?$AAl?$AAo?$AAc?$AAa?$AAl?$AAi?$AAz?$AAa?$AAt?$AAi?$AAo?$AAn?$AA?9?$AAo?$AAb?$AAs@ 100219a0     libucrt:winapi_thunks.obj
 0002:00002a00       ??_C@_1EM@DILCGIIO@?$AAa?$AAp?$AAi?$AA?9?$AAm?$AAs?$AA?9?$AAw?$AAi?$AAn?$AA?9?$AAc?$AAo?$AAr?$AAe?$AA?9?$AAp?$AAr?$AAo?$AAc?$AAe?$AAs?$AAs?$AAt?$AAh?$AAr?$AAe?$AAa?$AAd?$AAs?$AA?9?$AAl@ 10021a00     libucrt:winapi_thunks.obj
 0002:00002a4c       ??_C@_1DM@LNCGDDPN@?$AAa?$AAp?$AAi?$AA?9?$AAm?$AAs?$AA?9?$AAw?$AAi?$AAn?$AA?9?$AAc?$AAo?$AAr?$AAe?$AA?9?$AAs?$AAt?$AAr?$AAi?$AAn?$AAg?$AA?9?$AAl?$AA1?$AA?9?$AA1?$AA?9?$AA0?$AA?$AA@ 10021a4c     libucrt:winapi_thunks.obj
 0002:00002a88       ??_C@_1DK@LPPGFMPP@?$AAa?$AAp?$AAi?$AA?9?$AAm?$AAs?$AA?9?$AAw?$AAi?$AAn?$AA?9?$AAc?$AAo?$AAr?$AAe?$AA?9?$AAs?$AAy?$AAn?$AAc?$AAh?$AA?9?$AAl?$AA1?$AA?9?$AA2?$AA?9?$AA0?$AA?$AA@ 10021a88     libucrt:winapi_thunks.obj
 0002:00002ac4       ??_C@_1DO@FPAPJEMD@?$AAa?$AAp?$AAi?$AA?9?$AAm?$AAs?$AA?9?$AAw?$AAi?$AAn?$AA?9?$AAc?$AAo?$AAr?$AAe?$AA?9?$AAs?$AAy?$AAs?$AAi?$AAn?$AAf?$AAo?$AA?9?$AAl?$AA1?$AA?9?$AA2?$AA?9?$AA1?$AA?$AA@ 10021ac4     libucrt:winapi_thunks.obj
 0002:00002b04       ??_C@_1DK@NDHNAHIO@?$AAa?$AAp?$AAi?$AA?9?$AAm?$AAs?$AA?9?$AAw?$AAi?$AAn?$AA?9?$AAc?$AAo?$AAr?$AAe?$AA?9?$AAw?$AAi?$AAn?$AAr?$AAt?$AA?9?$AAl?$AA1?$AA?9?$AA1?$AA?9?$AA0?$AA?$AA@ 10021b04     libucrt:winapi_thunks.obj
 0002:00002b40       ??_C@_1DM@KGHDGBCM@?$AAa?$AAp?$AAi?$AA?9?$AAm?$AAs?$AA?9?$AAw?$AAi?$AAn?$AA?9?$AAc?$AAo?$AAr?$AAe?$AA?9?$AAx?$AAs?$AAt?$AAa?$AAt?$AAe?$AA?9?$AAl?$AA2?$AA?9?$AA1?$AA?9?$AA0?$AA?$AA@ 10021b40     libucrt:winapi_thunks.obj
 0002:00002b80       ??_C@_1EO@IJIOEFOH@?$AAa?$AAp?$AAi?$AA?9?$AAm?$AAs?$AA?9?$AAw?$AAi?$AAn?$AA?9?$AAr?$AAt?$AAc?$AAo?$AAr?$AAe?$AA?9?$AAn?$AAt?$AAu?$AAs?$AAe?$AAr?$AA?9?$AAw?$AAi?$AAn?$AAd?$AAo?$AAw?$AA?9@ 10021b80     libucrt:winapi_thunks.obj
 0002:00002bd0       ??_C@_1FG@HHGEKANL@?$AAa?$AAp?$AAi?$AA?9?$AAm?$AAs?$AA?9?$AAw?$AAi?$AAn?$AA?9?$AAs?$AAe?$AAc?$AAu?$AAr?$AAi?$AAt?$AAy?$AA?9?$AAs?$AAy?$AAs?$AAt?$AAe?$AAm?$AAf?$AAu?$AAn?$AAc?$AAt?$AAi@ 10021bd0     libucrt:winapi_thunks.obj
 0002:00002c28       ??_C@_1EG@DBIOJECG@?$AAe?$AAx?$AAt?$AA?9?$AAm?$AAs?$AA?9?$AAw?$AAi?$AAn?$AA?9?$AAn?$AAt?$AAu?$AAs?$AAe?$AAr?$AA?9?$AAd?$AAi?$AAa?$AAl?$AAo?$AAg?$AAb?$AAo?$AAx?$AA?9?$AAl?$AA1?$AA?9?$AA1@ 10021c28     libucrt:winapi_thunks.obj
 0002:00002c70       ??_C@_1EO@FIHMJCLF@?$AAe?$AAx?$AAt?$AA?9?$AAm?$AAs?$AA?9?$AAw?$AAi?$AAn?$AA?9?$AAn?$AAt?$AAu?$AAs?$AAe?$AAr?$AA?9?$AAw?$AAi?$AAn?$AAd?$AAo?$AAw?$AAs?$AAt?$AAa?$AAt?$AAi?$AAo?$AAn?$AA?9@ 10021c70     libucrt:winapi_thunks.obj
 0002:00002cc0       ??_C@_1BC@DNHGCMLG@?$AAa?$AAd?$AAv?$AAa?$AAp?$AAi?$AA3?$AA2?$AA?$AA@ 10021cc0     libucrt:winapi_thunks.obj
 0002:00002cd4       ??_C@_1BC@GDMECMAK@?$AAk?$AAe?$AAr?$AAn?$AAe?$AAl?$AA3?$AA2?$AA?$AA@ 10021cd4     libucrt:winapi_thunks.obj
 0002:00002ce8       ??_C@_1M@OAIMIKLP@?$AAn?$AAt?$AAd?$AAl?$AAl?$AA?$AA@ 10021ce8     libucrt:winapi_thunks.obj
 0002:00002cf8       ??_C@_1EG@DPGNFKGC@?$AAa?$AAp?$AAi?$AA?9?$AAm?$AAs?$AA?9?$AAw?$AAi?$AAn?$AA?9?$AAa?$AAp?$AAp?$AAm?$AAo?$AAd?$AAe?$AAl?$AA?9?$AAr?$AAu?$AAn?$AAt?$AAi?$AAm?$AAe?$AA?9?$AAl?$AA1?$AA?9?$AA1@ 10021cf8     libucrt:winapi_thunks.obj
 0002:00002d40       ??_C@_1O@BCCLBEOE@?$AAu?$AAs?$AAe?$AAr?$AA3?$AA2?$AA?$AA@ 10021d40     libucrt:winapi_thunks.obj
 0002:00002d50       ??_C@_1BA@PFFKHIOG@?$AAa?$AAp?$AAi?$AA?9?$AAm?$AAs?$AA?9?$AA?$AA@ 10021d50     libucrt:winapi_thunks.obj
 0002:00002d60       ??_C@_1BA@IAIFMGEF@?$AAe?$AAx?$AAt?$AA?9?$AAm?$AAs?$AA?9?$AA?$AA@ 10021d60     libucrt:winapi_thunks.obj
 0002:00002d78       ??_C@_08KNHFBNJ@FlsAlloc?$AA@ 10021d78     libucrt:winapi_thunks.obj
 0002:00002d8c       ??_C@_07PEJMOBNF@FlsFree?$AA@ 10021d8c     libucrt:winapi_thunks.obj
 0002:00002d9c       ??_C@_0M@GDNOONDI@FlsGetValue?$AA@ 10021d9c     libucrt:winapi_thunks.obj
 0002:00002db0       ??_C@_0M@JCPCPOEF@FlsSetValue?$AA@ 10021db0     libucrt:winapi_thunks.obj
 0002:00002dc4       ??_C@_0BM@HCFOFFN@InitializeCriticalSectionEx?$AA@ 10021dc4     libucrt:winapi_thunks.obj
 0002:00002de8       ??_C@_0O@KKBNKAPF@LCMapStringEx?$AA@ 10021de8     libucrt:winapi_thunks.obj
 0002:00002e00       ??_C@_0BB@HBDEELFH@LocaleNameToLCID?$AA@ 10021e00     libucrt:winapi_thunks.obj
 0002:00002e18       ??_C@_0CF@OJOFEIGO@AppPolicyGetProcessTerminationMe@ 10021e18     libucrt:winapi_thunks.obj
 0002:00002e48       ??_C@_0BI@BKLFFAPO@SetThreadStackGuarantee?$AA@ 10021e48     libucrt:winapi_thunks.obj
 0002:00002e60       ??_C@_03OEIAHPBN@INF?$AA@  10021e60     libucrt:cvt.obj
 0002:00002e64       ??_C@_03OJHLLCGB@inf?$AA@  10021e64     libucrt:cvt.obj
 0002:00002e68       ??_C@_03LKNCIKJB@NAN?$AA@  10021e68     libucrt:cvt.obj
 0002:00002e6c       ??_C@_03LHCJEHON@nan?$AA@  10021e6c     libucrt:cvt.obj
 0002:00002e70       ??_C@_09OFJJIMPC@NAN?$CISNAN?$CJ?$AA@ 10021e70     libucrt:cvt.obj
 0002:00002e7c       ??_C@_09IPFBKMDL@nan?$CIsnan?$CJ?$AA@ 10021e7c     libucrt:cvt.obj
 0002:00002e88       ??_C@_08IKHNHAJ@NAN?$CIIND?$CJ?$AA@ 10021e88     libucrt:cvt.obj
 0002:00002e94       ??_C@_08OFCDMILK@nan?$CIind?$CJ?$AA@ 10021e94     libucrt:cvt.obj
 0002:00002ea0       ??_C@_05KLBDPFGC@e?$CL000?$AA@ 10021ea0     libucrt:cvt.obj
 0002:00002ea8       ??_C@_03KOEHGMDN@Sun?$AA@  10021ea8     libucrt:nlsdata.obj
 0002:00002eac       ??_C@_03PDAGKDH@Mon?$AA@   10021eac     libucrt:nlsdata.obj
 0002:00002eb0       ??_C@_03NAGEINEP@Tue?$AA@  10021eb0     libucrt:nlsdata.obj
 0002:00002eb4       ??_C@_03MHOMLAJA@Wed?$AA@  10021eb4     libucrt:nlsdata.obj
 0002:00002eb8       ??_C@_03IOFIKPDN@Thu?$AA@  10021eb8     libucrt:nlsdata.obj
 0002:00002ebc       ??_C@_03IDIOELNC@Fri?$AA@  10021ebc     libucrt:nlsdata.obj
 0002:00002ec0       ??_C@_03FEFJNEK@Sat?$AA@   10021ec0     libucrt:nlsdata.obj
 0002:00002ec4       ??_C@_06OOPIFAJ@Sunday?$AA@ 10021ec4     libucrt:nlsdata.obj
 0002:00002ecc       ??_C@_06JLEDEDGH@Monday?$AA@ 10021ecc     libucrt:nlsdata.obj
 0002:00002ed4       ??_C@_07BAAGCFCM@Tuesday?$AA@ 10021ed4     libucrt:nlsdata.obj
 0002:00002edc       ??_C@_09DLIGFAKA@Wednesday?$AA@ 10021edc     libucrt:nlsdata.obj
 0002:00002ee8       ??_C@_08HACCIKIA@Thursday?$AA@ 10021ee8     libucrt:nlsdata.obj
 0002:00002ef4       ??_C@_06JECMNKMI@Friday?$AA@ 10021ef4     libucrt:nlsdata.obj
 0002:00002efc       ??_C@_08INBOOONO@Saturday?$AA@ 10021efc     libucrt:nlsdata.obj
 0002:00002f08       ??_C@_03JIHJHPIE@Jan?$AA@  10021f08     libucrt:nlsdata.obj
 0002:00002f0c       ??_C@_03HJBDCHOM@Feb?$AA@  10021f0c     libucrt:nlsdata.obj
 0002:00002f10       ??_C@_03ODNJBKGA@Mar?$AA@  10021f10     libucrt:nlsdata.obj
 0002:00002f14       ??_C@_03LEOLGMJP@Apr?$AA@  10021f14     libucrt:nlsdata.obj
 0002:00002f18       ??_C@_03CNMDKL@May?$AA@    10021f18     libucrt:nlsdata.obj
 0002:00002f1c       ??_C@_03IDFGHECI@Jun?$AA@  10021f1c     libucrt:nlsdata.obj
 0002:00002f20       ??_C@_03LBGABGKK@Jul?$AA@  10021f20     libucrt:nlsdata.obj
 0002:00002f24       ??_C@_03IFJFEIGA@Aug?$AA@  10021f24     libucrt:nlsdata.obj
 0002:00002f28       ??_C@_03GGCAPAJC@Sep?$AA@  10021f28     libucrt:nlsdata.obj
 0002:00002f2c       ??_C@_03BMAOKBAD@Oct?$AA@  10021f2c     libucrt:nlsdata.obj
 0002:00002f30       ??_C@_03JPJOFNIA@Nov?$AA@  10021f30     libucrt:nlsdata.obj
 0002:00002f34       ??_C@_03MKABNOCG@Dec?$AA@  10021f34     libucrt:nlsdata.obj
 0002:00002f38       ??_C@_07CGJPFGJA@January?$AA@ 10021f38     libucrt:nlsdata.obj
 0002:00002f40       ??_C@_08GNJGEPFN@February?$AA@ 10021f40     libucrt:nlsdata.obj
 0002:00002f4c       ??_C@_05HPCKOFNC@March?$AA@ 10021f4c     libucrt:nlsdata.obj
 0002:00002f54       ??_C@_05DMJDNLEJ@April?$AA@ 10021f54     libucrt:nlsdata.obj
 0002:00002f5c       ??_C@_04CNLMGBGM@June?$AA@ 10021f5c     libucrt:nlsdata.obj
 0002:00002f64       ??_C@_04MIEPOIFP@July?$AA@ 10021f64     libucrt:nlsdata.obj
 0002:00002f6c       ??_C@_06LBBHFDDG@August?$AA@ 10021f6c     libucrt:nlsdata.obj
 0002:00002f74       ??_C@_09BHHEALKD@September?$AA@ 10021f74     libucrt:nlsdata.obj
 0002:00002f80       ??_C@_07JJNFCEND@October?$AA@ 10021f80     libucrt:nlsdata.obj
 0002:00002f88       ??_C@_08HCHEGEOA@November?$AA@ 10021f88     libucrt:nlsdata.obj
 0002:00002f94       ??_C@_08EDHMEBNP@December?$AA@ 10021f94     libucrt:nlsdata.obj
 0002:00002fa0       ??_C@_02DEDBPAFC@AM?$AA@   10021fa0     libucrt:nlsdata.obj
 0002:00002fa4       ??_C@_02CJNFDJBF@PM?$AA@   10021fa4     libucrt:nlsdata.obj
 0002:00002fa8       ??_C@_08BPBNCDIB@MM?1dd?1yy?$AA@ 10021fa8     libucrt:nlsdata.obj
 0002:00002fb4       ??_C@_0BE@CKGJFCPC@dddd?0?5MMMM?5dd?0?5yyyy?$AA@ 10021fb4     libucrt:nlsdata.obj
 0002:00002fc8       ??_C@_08JCCMCCIL@HH?3mm?3ss?$AA@ 10021fc8     libucrt:nlsdata.obj
 0002:00002fd4       ??_C@_17MBGCMIPB@?$AAS?$AAu?$AAn?$AA?$AA@ 10021fd4     libucrt:nlsdata.obj
 0002:00002fdc       ??_C@_17KBOMKBF@?$AAM?$AAo?$AAn?$AA?$AA@ 10021fdc     libucrt:nlsdata.obj
 0002:00002fe4       ??_C@_17BMKGEGOJ@?$AAT?$AAu?$AAe?$AA?$AA@ 10021fe4     libucrt:nlsdata.obj
 0002:00002fec       ??_C@_17CJEDCEPE@?$AAW?$AAe?$AAd?$AA?$AA@ 10021fec     libucrt:nlsdata.obj
 0002:00002ff4       ??_C@_17PDPHAADD@?$AAT?$AAh?$AAu?$AA?$AA@ 10021ff4     libucrt:nlsdata.obj
 0002:00002ffc       ??_C@_17HFOLPPLP@?$AAF?$AAr?$AAi?$AA?$AA@ 10021ffc     libucrt:nlsdata.obj
 0002:00003004       ??_C@_17GGIBDPIH@?$AAS?$AAa?$AAt?$AA?$AA@ 10022004     libucrt:nlsdata.obj
 0002:0000300c       ??_C@_1O@IHNHDHPB@?$AAS?$AAu?$AAn?$AAd?$AAa?$AAy?$AA?$AA@ 1002200c     libucrt:nlsdata.obj
 0002:0000301c       ??_C@_1O@MMNBFLIA@?$AAM?$AAo?$AAn?$AAd?$AAa?$AAy?$AA?$AA@ 1002201c     libucrt:nlsdata.obj
 0002:0000302c       ??_C@_1BA@ENFBFFEK@?$AAT?$AAu?$AAe?$AAs?$AAd?$AAa?$AAy?$AA?$AA@ 1002202c     libucrt:nlsdata.obj
 0002:0000303c       ??_C@_1BE@EBOGMDOH@?$AAW?$AAe?$AAd?$AAn?$AAe?$AAs?$AAd?$AAa?$AAy?$AA?$AA@ 1002203c     libucrt:nlsdata.obj
 0002:00003050       ??_C@_1BC@HHMNLIHE@?$AAT?$AAh?$AAu?$AAr?$AAs?$AAd?$AAa?$AAy?$AA?$AA@ 10022050     libucrt:nlsdata.obj
 0002:00003064       ??_C@_1O@PDICJHAG@?$AAF?$AAr?$AAi?$AAd?$AAa?$AAy?$AA?$AA@ 10022064     libucrt:nlsdata.obj
 0002:00003074       ??_C@_1BC@ENMNNPAJ@?$AAS?$AAa?$AAt?$AAu?$AAr?$AAd?$AAa?$AAy?$AA?$AA@ 10022074     libucrt:nlsdata.obj
 0002:00003088       ??_C@_17DKNBKCHM@?$AAJ?$AAa?$AAn?$AA?$AA@ 10022088     libucrt:nlsdata.obj
 0002:00003090       ??_C@_17LMDJEKJN@?$AAF?$AAe?$AAb?$AA?$AA@ 10022090     libucrt:nlsdata.obj
 0002:00003098       ??_C@_17CKNLEDEC@?$AAM?$AAa?$AAr?$AA?$AA@ 10022098     libucrt:nlsdata.obj
 0002:000030a0       ??_C@_17LFPOIHDD@?$AAA?$AAp?$AAr?$AA?$AA@ 100220a0     libucrt:nlsdata.obj
 0002:000030a8       ??_C@_17PNNKMEED@?$AAM?$AAa?$AAy?$AA?$AA@ 100220a8     libucrt:nlsdata.obj
 0002:000030b0       ??_C@_17KCJGOCPB@?$AAJ?$AAu?$AAn?$AA?$AA@ 100220b0     libucrt:nlsdata.obj
 0002:000030b8       ??_C@_17IJPCKHK@?$AAJ?$AAu?$AAl?$AA?$AA@ 100220b8     libucrt:nlsdata.obj
 0002:000030c0       ??_C@_17ICPELBCN@?$AAA?$AAu?$AAg?$AA?$AA@ 100220c0     libucrt:nlsdata.obj
 0002:000030c8       ??_C@_17HCHCOKMG@?$AAS?$AAe?$AAp?$AA?$AA@ 100220c8     libucrt:nlsdata.obj
 0002:000030d0       ??_C@_17FNLKOI@?$AAO?$AAc?$AAt?$AA?$AA@ 100220d0     libucrt:nlsdata.obj
 0002:000030d8       ??_C@_17BBDMLCIG@?$AAN?$AAo?$AAv?$AA?$AA@ 100220d8     libucrt:nlsdata.obj
 0002:000030e0       ??_C@_17EGKACKIF@?$AAD?$AAe?$AAc?$AA?$AA@ 100220e0     libucrt:nlsdata.obj
 0002:000030e8       ??_C@_1BA@EFMEIEBA@?$AAJ?$AAa?$AAn?$AAu?$AAa?$AAr?$AAy?$AA?$AA@ 100220e8     libucrt:nlsdata.obj
 0002:000030f8       ??_C@_1BC@JGDDFFAM@?$AAF?$AAe?$AAb?$AAr?$AAu?$AAa?$AAr?$AAy?$AA?$AA@ 100220f8     libucrt:nlsdata.obj
 0002:0000310c       ??_C@_1M@IKEENEDF@?$AAM?$AAa?$AAr?$AAc?$AAh?$AA?$AA@ 1002210c     libucrt:nlsdata.obj
 0002:00003118       ??_C@_1M@GJNLMHFD@?$AAA?$AAp?$AAr?$AAi?$AAl?$AA?$AA@ 10022118     libucrt:nlsdata.obj
 0002:00003124       ??_C@_19EPFLPGAP@?$AAJ?$AAu?$AAn?$AAe?$AA?$AA@ 10022124     libucrt:nlsdata.obj
 0002:00003130       ??_C@_19BIFMLPCD@?$AAJ?$AAu?$AAl?$AAy?$AA?$AA@ 10022130     libucrt:nlsdata.obj
 0002:0000313c       ??_C@_1O@PAHLKOAC@?$AAA?$AAu?$AAg?$AAu?$AAs?$AAt?$AA?$AA@ 1002213c     libucrt:nlsdata.obj
 0002:0000314c       ??_C@_1BE@DKAAMBJL@?$AAS?$AAe?$AAp?$AAt?$AAe?$AAm?$AAb?$AAe?$AAr?$AA?$AA@ 1002214c     libucrt:nlsdata.obj
 0002:00003160       ??_C@_1BA@EPANDLNG@?$AAO?$AAc?$AAt?$AAo?$AAb?$AAe?$AAr?$AA?$AA@ 10022160     libucrt:nlsdata.obj
 0002:00003170       ??_C@_1BC@BGLIFPF@?$AAN?$AAo?$AAv?$AAe?$AAm?$AAb?$AAe?$AAr?$AA?$AA@ 10022170     libucrt:nlsdata.obj
 0002:00003184       ??_C@_1BC@FEMKIFH@?$AAD?$AAe?$AAc?$AAe?$AAm?$AAb?$AAe?$AAr?$AA?$AA@ 10022184     libucrt:nlsdata.obj
 0002:00003198       ??_C@_15ODEHAHHF@?$AAA?$AAM?$AA?$AA@ 10022198     libucrt:nlsdata.obj
 0002:000031a0       ??_C@_15CLMNNGEL@?$AAP?$AAM?$AA?$AA@ 100221a0     libucrt:nlsdata.obj
 0002:000031a8       ??_C@_1BC@IEBCMHCM@?$AAM?$AAM?$AA?1?$AAd?$AAd?$AA?1?$AAy?$AAy?$AA?$AA@ 100221a8     libucrt:nlsdata.obj
 0002:000031bc       ??_C@_1CI@KNAKOEBC@?$AAd?$AAd?$AAd?$AAd?$AA?0?$AA?5?$AAM?$AAM?$AAM?$AAM?$AA?5?$AAd?$AAd?$AA?0?$AA?5?$AAy?$AAy?$AAy?$AAy?$AA?$AA@ 100221bc     libucrt:nlsdata.obj
 0002:000031e4       ??_C@_1BC@GDGBMEMK@?$AAH?$AAH?$AA?3?$AAm?$AAm?$AA?3?$AAs?$AAs?$AA?$AA@ 100221e4     libucrt:nlsdata.obj
 0002:000031f8       ??_C@_1M@BMHNFIME@?$AAe?$AAn?$AA?9?$AAU?$AAS?$AA?$AA@ 100221f8     libucrt:nlsdata.obj
 0002:00003208       ___lc_time_c               10022208     libucrt:nlsdata.obj
 0002:0000337c       ??_C@_1M@HPNHIDJI@?$AAj?$AAa?$AA?9?$AAJ?$AAP?$AA?$AA@ 1002237c     libucrt:mbctype.obj
 0002:00003388       ??_C@_1M@BIBDDEMK@?$AAz?$AAh?$AA?9?$AAC?$AAN?$AA?$AA@ 10022388     libucrt:mbctype.obj
 0002:00003394       ??_C@_1M@JLOOOEGK@?$AAk?$AAo?$AA?9?$AAK?$AAR?$AA?$AA@ 10022394     libucrt:mbctype.obj
 0002:000033a0       ??_C@_1M@CLNBBOPM@?$AAz?$AAh?$AA?9?$AAT?$AAW?$AA?$AA@ 100223a0     libucrt:mbctype.obj
 0002:000033b0       __wctype                   100223b0     libucrt:ctype.obj
 0002:000035b8       ___newctype                100225b8     libucrt:ctype.obj
 0002:000038b8       ___newclmap                100228b8     libucrt:ctype.obj
 0002:00003a38       ___newcumap                10022a38     libucrt:ctype.obj
 0002:000042d8       ??_C@_15EMKDOKLE@?$AAa?$AAr?$AA?$AA@ 100232d8     libucrt:lcidtoname_downlevel.obj
 0002:000042e0       ??_C@_15KNPADPLH@?$AAb?$AAg?$AA?$AA@ 100232e0     libucrt:lcidtoname_downlevel.obj
 0002:000042e8       ??_C@_15EDMHLDMO@?$AAc?$AAa?$AA?$AA@ 100232e8     libucrt:lcidtoname_downlevel.obj
 0002:000042f0       ??_C@_1O@BPEAJADD@?$AAz?$AAh?$AA?9?$AAC?$AAH?$AAS?$AA?$AA@ 100232f0     libucrt:lcidtoname_downlevel.obj
 0002:00004300       ??_C@_15LJNHCMNK@?$AAc?$AAs?$AA?$AA@ 10023300     libucrt:lcidtoname_downlevel.obj
 0002:00004308       ??_C@_15FOMCIDHG@?$AAd?$AAa?$AA?$AA@ 10023308     libucrt:lcidtoname_downlevel.obj
 0002:00004310       ??_C@_15NBKABECB@?$AAd?$AAe?$AA?$AA@ 10023310     libucrt:lcidtoname_downlevel.obj
 0002:00004318       ??_C@_15GHPEIIAO@?$AAe?$AAl?$AA?$AA@ 10023318     libucrt:lcidtoname_downlevel.obj
 0002:00004320       ??_C@_15MNPNEAIF@?$AAe?$AAn?$AA?$AA@ 10023320     libucrt:lcidtoname_downlevel.obj
 0002:00004328       ??_C@_15GPIOMPMH@?$AAe?$AAs?$AA?$AA@ 10023328     libucrt:lcidtoname_downlevel.obj
 0002:00004330       ??_C@_15NGLOAKJC@?$AAf?$AAi?$AA?$AA@ 10023330     libucrt:lcidtoname_downlevel.obj
 0002:00004338       ??_C@_15FBKGNKAM@?$AAf?$AAr?$AA?$AA@ 10023338     libucrt:lcidtoname_downlevel.obj
 0002:00004340       ??_C@_15KGGCNEFK@?$AAh?$AAe?$AA?$AA@ 10023340     libucrt:lcidtoname_downlevel.obj
 0002:00004348       ??_C@_15PGHLIDMF@?$AAh?$AAu?$AA?$AA@ 10023348     libucrt:lcidtoname_downlevel.obj
 0002:00004350       ??_C@_15BIEMAPLM@?$AAi?$AAs?$AA?$AA@ 10023350     libucrt:lcidtoname_downlevel.obj
 0002:00004358       ??_C@_15IFJLDHAF@?$AAi?$AAt?$AA?$AA@ 10023358     libucrt:lcidtoname_downlevel.obj
 0002:00004360       ??_C@_15GEMIOCAG@?$AAj?$AAa?$AA?$AA@ 10023360     libucrt:lcidtoname_downlevel.obj
 0002:00004368       ??_C@_15EPELEGJA@?$AAk?$AAo?$AA?$AA@ 10023368     libucrt:lcidtoname_downlevel.obj
 0002:00004370       ??_C@_15NDDHIMN@?$AAn?$AAl?$AA?$AA@ 10023370     libucrt:lcidtoname_downlevel.obj
 0002:00004378       ??_C@_15BPIGNHCD@?$AAn?$AAo?$AA?$AA@ 10023378     libucrt:lcidtoname_downlevel.obj
 0002:00004380       ??_C@_15DEOPBLCG@?$AAp?$AAl?$AA?$AA@ 10023380     libucrt:lcidtoname_downlevel.obj
 0002:00004388       ??_C@_15KBECGEFG@?$AAp?$AAt?$AA?$AA@ 10023388     libucrt:lcidtoname_downlevel.obj
 0002:00004390       ??_C@_15GLJCBFMD@?$AAr?$AAo?$AA?$AA@ 10023390     libucrt:lcidtoname_downlevel.obj
 0002:00004398       ??_C@_15FEDGKCDI@?$AAr?$AAu?$AA?$AA@ 10023398     libucrt:lcidtoname_downlevel.obj
 0002:000043a0       ??_C@_15GLKMLLHM@?$AAh?$AAr?$AA?$AA@ 100233a0     libucrt:lcidtoname_downlevel.obj
 0002:000043a8       ??_C@_15CPKMFBDB@?$AAs?$AAk?$AA?$AA@ 100233a8     libucrt:lcidtoname_downlevel.obj
 0002:000043b0       ??_C@_15BAAIOGMK@?$AAs?$AAq?$AA?$AA@ 100233b0     libucrt:lcidtoname_downlevel.obj
 0002:000043b8       ??_C@_15INNPNOHD@?$AAs?$AAv?$AA?$AA@ 100233b8     libucrt:lcidtoname_downlevel.obj
 0002:000043c0       ??_C@_15CABMMOGH@?$AAt?$AAh?$AA?$AA@ 100233c0     libucrt:lcidtoname_downlevel.obj
 0002:000043c8       ??_C@_15BPLIHJJM@?$AAt?$AAr?$AA?$AA@ 100233c8     libucrt:lcidtoname_downlevel.obj
 0002:000043d0       ??_C@_15NEOEKKDJ@?$AAu?$AAr?$AA?$AA@ 100233d0     libucrt:lcidtoname_downlevel.obj
 0002:000043d8       ??_C@_15NFICGAJK@?$AAi?$AAd?$AA?$AA@ 100233d8     libucrt:lcidtoname_downlevel.obj
 0002:000043e0       ??_C@_15PJPFLCCM@?$AAu?$AAk?$AA?$AA@ 100233e0     libucrt:lcidtoname_downlevel.obj
 0002:000043e8       ??_C@_15HPJPHDM@?$AAb?$AAe?$AA?$AA@ 100233e8     libucrt:lcidtoname_downlevel.obj
 0002:000043f0       ??_C@_15LCHLGJII@?$AAs?$AAl?$AA?$AA@ 100233f0     libucrt:lcidtoname_downlevel.obj
 0002:000043f8       ??_C@_15PCFJPHHO@?$AAe?$AAt?$AA?$AA@ 100233f8     libucrt:lcidtoname_downlevel.obj
 0002:00004400       ??_C@_15HPFPGODN@?$AAl?$AAv?$AA?$AA@ 10023400     libucrt:lcidtoname_downlevel.obj
 0002:00004408       ??_C@_15NFFGKGLG@?$AAl?$AAt?$AA?$AA@ 10023408     libucrt:lcidtoname_downlevel.obj
 0002:00004410       ??_C@_15BDAKCCHN@?$AAf?$AAa?$AA?$AA@ 10023410     libucrt:lcidtoname_downlevel.obj
 0002:00004418       ??_C@_15NFGIAIAJ@?$AAv?$AAi?$AA?$AA@ 10023418     libucrt:lcidtoname_downlevel.obj
 0002:00004420       ??_C@_15LMKNDMHN@?$AAh?$AAy?$AA?$AA@ 10023420     libucrt:lcidtoname_downlevel.obj
 0002:00004428       ??_C@_15IJBHMCFL@?$AAa?$AAz?$AA?$AA@ 10023428     libucrt:lcidtoname_downlevel.obj
 0002:00004430       ??_C@_15EKOFJABL@?$AAe?$AAu?$AA?$AA@ 10023430     libucrt:lcidtoname_downlevel.obj
 0002:00004438       ??_C@_15BGHADCNK@?$AAm?$AAk?$AA?$AA@ 10023438     libucrt:lcidtoname_downlevel.obj
 0002:00004440       ??_C@_15JDNICKHM@?$AAa?$AAf?$AA?$AA@ 10023440     libucrt:lcidtoname_downlevel.obj
 0002:00004448       ??_C@_15KPJEDBKD@?$AAk?$AAa?$AA?$AA@ 10023448     libucrt:lcidtoname_downlevel.obj
 0002:00004450       ??_C@_15PDNFFFEO@?$AAf?$AAo?$AA?$AA@ 10023450     libucrt:lcidtoname_downlevel.obj
 0002:00004458       ??_C@_15OMLEGLOC@?$AAh?$AAi?$AA?$AA@ 10023458     libucrt:lcidtoname_downlevel.obj
 0002:00004460       ??_C@_15IDNNENKK@?$AAm?$AAs?$AA?$AA@ 10023460     libucrt:lcidtoname_downlevel.obj
 0002:00004468       ??_C@_15MACJNBMH@?$AAk?$AAk?$AA?$AA@ 10023468     libucrt:lcidtoname_downlevel.obj
 0002:00004470       ??_C@_15DKDJEOND@?$AAk?$AAy?$AA?$AA@ 10023470     libucrt:lcidtoname_downlevel.obj
 0002:00004478       ??_C@_15DFGDLJBG@?$AAs?$AAw?$AA?$AA@ 10023478     libucrt:lcidtoname_downlevel.obj
 0002:00004480       ??_C@_15BBFAICNG@?$AAu?$AAz?$AA?$AA@ 10023480     libucrt:lcidtoname_downlevel.obj
 0002:00004488       ??_C@_15DKNDCGEA@?$AAt?$AAt?$AA?$AA@ 10023488     libucrt:lcidtoname_downlevel.obj
 0002:00004490       ??_C@_15MGIFMDPL@?$AAp?$AAa?$AA?$AA@ 10023490     libucrt:lcidtoname_downlevel.obj
 0002:00004498       ??_C@_15HCNDBBA@?$AAg?$AAu?$AA?$AA@ 10023498     libucrt:lcidtoname_downlevel.obj
 0002:000044a0       ??_C@_15FNBEIBON@?$AAt?$AAa?$AA?$AA@ 100234a0     libucrt:lcidtoname_downlevel.obj
 0002:000044a8       ??_C@_15NCHGBGLK@?$AAt?$AAe?$AA?$AA@ 100234a8     libucrt:lcidtoname_downlevel.obj
 0002:000044b0       ??_C@_15PHPHCBPF@?$AAk?$AAn?$AA?$AA@ 100234b0     libucrt:lcidtoname_downlevel.obj
 0002:000044b8       ??_C@_15DLGBCKMP@?$AAm?$AAr?$AA?$AA@ 100234b8     libucrt:lcidtoname_downlevel.obj
 0002:000044c0       ??_C@_15EABBLBFF@?$AAs?$AAa?$AA?$AA@ 100234c0     libucrt:lcidtoname_downlevel.obj
 0002:000044c8       ??_C@_15CBKOMCOI@?$AAm?$AAn?$AA?$AA@ 100234c8     libucrt:lcidtoname_downlevel.obj
 0002:000044d0       ??_C@_15CKDMCJAF@?$AAg?$AAl?$AA?$AA@ 100234d0     libucrt:lcidtoname_downlevel.obj
 0002:000044d8       ??_C@_17CNJFBPG@?$AAk?$AAo?$AAk?$AA?$AA@ 100234d8     libucrt:lcidtoname_downlevel.obj
 0002:000044e0       ??_C@_17FFBJICPL@?$AAs?$AAy?$AAr?$AA?$AA@ 100234e0     libucrt:lcidtoname_downlevel.obj
 0002:000044e8       ??_C@_17KPNDCPAF@?$AAd?$AAi?$AAv?$AA?$AA@ 100234e8     libucrt:lcidtoname_downlevel.obj
 0002:000044f0       ??_C@_11LOCGONAA@?$AA?$AA@ 100234f0     libucrt:lcidtoname_downlevel.obj
 0002:000044f4       ??_C@_1M@OKAHONE@?$AAa?$AAr?$AA?9?$AAS?$AAA?$AA?$AA@ 100234f4     libucrt:lcidtoname_downlevel.obj
 0002:00004500       ??_C@_1M@FFFIGIGK@?$AAb?$AAg?$AA?9?$AAB?$AAG?$AA?$AA@ 10023500     libucrt:lcidtoname_downlevel.obj
 0002:0000450c       ??_C@_1M@BJNKEDC@?$AAc?$AAa?$AA?9?$AAE?$AAS?$AA?$AA@ 1002350c     libucrt:lcidtoname_downlevel.obj
 0002:00004518       ??_C@_1M@IJJHFJHA@?$AAc?$AAs?$AA?9?$AAC?$AAZ?$AA?$AA@ 10023518     libucrt:lcidtoname_downlevel.obj
 0002:00004524       ??_C@_1M@CLPEOBGI@?$AAd?$AAa?$AA?9?$AAD?$AAK?$AA?$AA@ 10023524     libucrt:lcidtoname_downlevel.obj
 0002:00004530       ??_C@_1M@MCMADGCB@?$AAd?$AAe?$AA?9?$AAD?$AAE?$AA?$AA@ 10023530     libucrt:lcidtoname_downlevel.obj
 0002:0000453c       ??_C@_1M@OOCKEMAM@?$AAe?$AAl?$AA?9?$AAG?$AAR?$AA?$AA@ 1002353c     libucrt:lcidtoname_downlevel.obj
 0002:00004548       ??_C@_1M@DDNJFGID@?$AAf?$AAi?$AA?9?$AAF?$AAI?$AA?$AA@ 10023548     libucrt:lcidtoname_downlevel.obj
 0002:00004554       ??_C@_1M@GLIPPMAC@?$AAf?$AAr?$AA?9?$AAF?$AAR?$AA?$AA@ 10023554     libucrt:lcidtoname_downlevel.obj
 0002:00004560       ??_C@_1M@GFMCHPE@?$AAh?$AAe?$AA?9?$AAI?$AAL?$AA?$AA@ 10023560     libucrt:lcidtoname_downlevel.obj
 0002:0000456c       ??_C@_1M@MHLPGNKM@?$AAh?$AAu?$AA?9?$AAH?$AAU?$AA?$AA@ 1002356c     libucrt:lcidtoname_downlevel.obj
 0002:00004578       ??_C@_1M@LPDDNNPN@?$AAi?$AAs?$AA?9?$AAI?$AAS?$AA?$AA@ 10023578     libucrt:lcidtoname_downlevel.obj
 0002:00004584       ??_C@_1M@MADIPODN@?$AAi?$AAt?$AA?9?$AAI?$AAT?$AA?$AA@ 10023584     libucrt:lcidtoname_downlevel.obj
 0002:00004590       ??_C@_1M@IHBJJGG@?$AAn?$AAl?$AA?9?$AAN?$AAL?$AA?$AA@ 10023590     libucrt:lcidtoname_downlevel.obj
 0002:0000459c       ??_C@_1M@EANAGDL@?$AAn?$AAb?$AA?9?$AAN?$AAO?$AA?$AA@ 1002359c     libucrt:lcidtoname_downlevel.obj
 0002:000045a8       ??_C@_1M@NEIEMEGP@?$AAp?$AAl?$AA?9?$AAP?$AAL?$AA?$AA@ 100235a8     libucrt:lcidtoname_downlevel.obj
 0002:000045b4       ??_C@_1M@BOCFIGEP@?$AAp?$AAt?$AA?9?$AAB?$AAR?$AA?$AA@ 100235b4     libucrt:lcidtoname_downlevel.obj
 0002:000045c0       ??_C@_1M@IMPFOPBG@?$AAr?$AAo?$AA?9?$AAR?$AAO?$AA?$AA@ 100235c0     libucrt:lcidtoname_downlevel.obj
 0002:000045cc       ??_C@_1M@IDNNEJMM@?$AAr?$AAu?$AA?9?$AAR?$AAU?$AA?$AA@ 100235cc     libucrt:lcidtoname_downlevel.obj
 0002:000045d8       ??_C@_1M@LILEEOGM@?$AAh?$AAr?$AA?9?$AAH?$AAR?$AA?$AA@ 100235d8     libucrt:lcidtoname_downlevel.obj
 0002:000045e4       ??_C@_1M@FKIFEHPB@?$AAs?$AAk?$AA?9?$AAS?$AAK?$AA?$AA@ 100235e4     libucrt:lcidtoname_downlevel.obj
 0002:000045f0       ??_C@_1M@LJMAMNPJ@?$AAs?$AAq?$AA?9?$AAA?$AAL?$AA?$AA@ 100235f0     libucrt:lcidtoname_downlevel.obj
 0002:000045fc       ??_C@_1M@GIAKDKJK@?$AAs?$AAv?$AA?9?$AAS?$AAE?$AA?$AA@ 100235fc     libucrt:lcidtoname_downlevel.obj
 0002:00004608       ??_C@_1M@MKJKIKCL@?$AAt?$AAh?$AA?9?$AAT?$AAH?$AA?$AA@ 10023608     libucrt:lcidtoname_downlevel.obj
 0002:00004614       ??_C@_1M@MFLCCMPB@?$AAt?$AAr?$AA?9?$AAT?$AAR?$AA?$AA@ 10023614     libucrt:lcidtoname_downlevel.obj
 0002:00004620       ??_C@_1M@OIJHDKJN@?$AAu?$AAr?$AA?9?$AAP?$AAK?$AA?$AA@ 10023620     libucrt:lcidtoname_downlevel.obj
 0002:0000462c       ??_C@_1M@LHIPCIEK@?$AAi?$AAd?$AA?9?$AAI?$AAD?$AA?$AA@ 1002362c     libucrt:lcidtoname_downlevel.obj
 0002:00004638       ??_C@_1M@MFMOBGI@?$AAu?$AAk?$AA?9?$AAU?$AAA?$AA?$AA@ 10023638     libucrt:lcidtoname_downlevel.obj
 0002:00004644       ??_C@_1M@OBGLJIPL@?$AAb?$AAe?$AA?9?$AAB?$AAY?$AA?$AA@ 10023644     libucrt:lcidtoname_downlevel.obj
 0002:00004650       ??_C@_1M@BCFAJEAD@?$AAs?$AAl?$AA?9?$AAS?$AAI?$AA?$AA@ 10023650     libucrt:lcidtoname_downlevel.obj
 0002:0000465c       ??_C@_1M@FKFFEDDN@?$AAe?$AAt?$AA?9?$AAE?$AAE?$AA?$AA@ 1002365c     libucrt:lcidtoname_downlevel.obj
 0002:00004668       ??_C@_1M@KGKKAACI@?$AAl?$AAv?$AA?9?$AAL?$AAV?$AA?$AA@ 10023668     libucrt:lcidtoname_downlevel.obj
 0002:00004674       ??_C@_1M@IFGBIJO@?$AAl?$AAt?$AA?9?$AAL?$AAT?$AA?$AA@ 10023674     libucrt:lcidtoname_downlevel.obj
 0002:00004680       ??_C@_1M@FGEAHEDM@?$AAf?$AAa?$AA?9?$AAI?$AAR?$AA?$AA@ 10023680     libucrt:lcidtoname_downlevel.obj
 0002:0000468c       ??_C@_1M@KBMAIBFN@?$AAv?$AAi?$AA?9?$AAV?$AAN?$AA?$AA@ 1002368c     libucrt:lcidtoname_downlevel.obj
 0002:00004698       ??_C@_1M@GPCBKDJK@?$AAh?$AAy?$AA?9?$AAA?$AAM?$AA?$AA@ 10023698     libucrt:lcidtoname_downlevel.obj
 0002:000046a4       ??_C@_1BG@BECMDDJB@?$AAa?$AAz?$AA?9?$AAA?$AAZ?$AA?9?$AAL?$AAa?$AAt?$AAn?$AA?$AA@ 100236a4     libucrt:lcidtoname_downlevel.obj
 0002:000046bc       ??_C@_1M@MAOFCAEA@?$AAe?$AAu?$AA?9?$AAE?$AAS?$AA?$AA@ 100236bc     libucrt:lcidtoname_downlevel.obj
 0002:000046c8       ??_C@_1M@IGHABKPI@?$AAm?$AAk?$AA?9?$AAM?$AAK?$AA?$AA@ 100236c8     libucrt:lcidtoname_downlevel.obj
 0002:000046d4       ??_C@_1M@IAIGNEJG@?$AAt?$AAn?$AA?9?$AAZ?$AAA?$AA?$AA@ 100236d4     libucrt:lcidtoname_downlevel.obj
 0002:000046e0       ??_C@_1M@IIJCOJFA@?$AAx?$AAh?$AA?9?$AAZ?$AAA?$AA?$AA@ 100236e0     libucrt:lcidtoname_downlevel.obj
 0002:000046ec       ??_C@_1M@LGPJHNJH@?$AAz?$AAu?$AA?9?$AAZ?$AAA?$AA?$AA@ 100236ec     libucrt:lcidtoname_downlevel.obj
 0002:000046f8       ??_C@_1M@HOKAOIO@?$AAa?$AAf?$AA?9?$AAZ?$AAA?$AA?$AA@ 100236f8     libucrt:lcidtoname_downlevel.obj
 0002:00004704       ??_C@_1M@DPCLHLIE@?$AAk?$AAa?$AA?9?$AAG?$AAE?$AA?$AA@ 10023704     libucrt:lcidtoname_downlevel.obj
 0002:00004710       ??_C@_1M@BLKMHJBI@?$AAf?$AAo?$AA?9?$AAF?$AAO?$AA?$AA@ 10023710     libucrt:lcidtoname_downlevel.obj
 0002:0000471c       ??_C@_1M@LGGJAPPB@?$AAh?$AAi?$AA?9?$AAI?$AAN?$AA?$AA@ 1002371c     libucrt:lcidtoname_downlevel.obj
 0002:00004728       ??_C@_1M@FIKPIHFE@?$AAm?$AAt?$AA?9?$AAM?$AAT?$AA?$AA@ 10023728     libucrt:lcidtoname_downlevel.obj
 0002:00004734       ??_C@_1M@HEGGPBFA@?$AAs?$AAe?$AA?9?$AAN?$AAO?$AA?$AA@ 10023734     libucrt:lcidtoname_downlevel.obj
 0002:00004740       ??_C@_1M@EIBJEEPA@?$AAm?$AAs?$AA?9?$AAM?$AAY?$AA?$AA@ 10023740     libucrt:lcidtoname_downlevel.obj
 0002:0000474c       ??_C@_1M@FHLBGMPP@?$AAk?$AAk?$AA?9?$AAK?$AAZ?$AA?$AA@ 1002374c     libucrt:lcidtoname_downlevel.obj
 0002:00004758       ??_C@_1M@NGJJLCGI@?$AAk?$AAy?$AA?9?$AAK?$AAG?$AA?$AA@ 10023758     libucrt:lcidtoname_downlevel.obj
 0002:00004764       ??_C@_1M@GIENNBFC@?$AAs?$AAw?$AA?9?$AAK?$AAE?$AA?$AA@ 10023764     libucrt:lcidtoname_downlevel.obj
 0002:00004770       ??_C@_1BG@NDGMJIMJ@?$AAu?$AAz?$AA?9?$AAU?$AAZ?$AA?9?$AAL?$AAa?$AAt?$AAn?$AA?$AA@ 10023770     libucrt:lcidtoname_downlevel.obj
 0002:00004788       ??_C@_1M@IDCCIHBC@?$AAt?$AAt?$AA?9?$AAR?$AAU?$AA?$AA@ 10023788     libucrt:lcidtoname_downlevel.obj
 0002:00004794       ??_C@_1M@LOICPMOJ@?$AAb?$AAn?$AA?9?$AAI?$AAN?$AA?$AA@ 10023794     libucrt:lcidtoname_downlevel.obj
 0002:000047a0       ??_C@_1M@KPKKNEAH@?$AAp?$AAa?$AA?9?$AAI?$AAN?$AA?$AA@ 100237a0     libucrt:lcidtoname_downlevel.obj
 0002:000047ac       ??_C@_1M@PJGPPBOG@?$AAg?$AAu?$AA?9?$AAI?$AAN?$AA?$AA@ 100237ac     libucrt:lcidtoname_downlevel.obj
 0002:000047b8       ??_C@_1M@KMKMOPHI@?$AAt?$AAa?$AA?9?$AAI?$AAN?$AA?$AA@ 100237b8     libucrt:lcidtoname_downlevel.obj
 0002:000047c4       ??_C@_1M@KFEHEPAC@?$AAt?$AAe?$AA?9?$AAI?$AAN?$AA?$AA@ 100237c4     libucrt:lcidtoname_downlevel.obj
 0002:000047d0       ??_C@_1M@CDCLMGHI@?$AAk?$AAn?$AA?9?$AAI?$AAN?$AA?$AA@ 100237d0     libucrt:lcidtoname_downlevel.obj
 0002:000047dc       ??_C@_1M@MIODLDKF@?$AAm?$AAl?$AA?9?$AAI?$AAN?$AA?$AA@ 100237dc     libucrt:lcidtoname_downlevel.obj
 0002:000047e8       ??_C@_1M@PBIEACPO@?$AAm?$AAr?$AA?9?$AAI?$AAN?$AA?$AA@ 100237e8     libucrt:lcidtoname_downlevel.obj
 0002:000047f4       ??_C@_1M@NIDEAGPH@?$AAs?$AAa?$AA?9?$AAI?$AAN?$AA?$AA@ 100237f4     libucrt:lcidtoname_downlevel.obj
 0002:00004800       ??_C@_1M@FHIHCBIO@?$AAm?$AAn?$AA?9?$AAM?$AAN?$AA?$AA@ 10023800     libucrt:lcidtoname_downlevel.obj
 0002:0000480c       ??_C@_1M@JAIJPENP@?$AAc?$AAy?$AA?9?$AAG?$AAB?$AA?$AA@ 1002380c     libucrt:lcidtoname_downlevel.obj
 0002:00004818       ??_C@_1M@PHGFBEPN@?$AAg?$AAl?$AA?9?$AAE?$AAS?$AA?$AA@ 10023818     libucrt:lcidtoname_downlevel.obj
 0002:00004824       ??_C@_1O@KPIPDNCP@?$AAk?$AAo?$AAk?$AA?9?$AAI?$AAN?$AA?$AA@ 10023824     libucrt:lcidtoname_downlevel.obj
 0002:00004834       ??_C@_1O@KNHJLDJA@?$AAs?$AAy?$AAr?$AA?9?$AAS?$AAY?$AA?$AA@ 10023834     libucrt:lcidtoname_downlevel.obj
 0002:00004844       ??_C@_1O@MKEKBLAH@?$AAd?$AAi?$AAv?$AA?9?$AAM?$AAV?$AA?$AA@ 10023844     libucrt:lcidtoname_downlevel.obj
 0002:00004854       ??_C@_1O@OHDCKDDF@?$AAq?$AAu?$AAz?$AA?9?$AAB?$AAO?$AA?$AA@ 10023854     libucrt:lcidtoname_downlevel.obj
 0002:00004864       ??_C@_1M@LEPJNLFD@?$AAn?$AAs?$AA?9?$AAZ?$AAA?$AA?$AA@ 10023864     libucrt:lcidtoname_downlevel.obj
 0002:00004870       ??_C@_1M@OMLEIIJB@?$AAm?$AAi?$AA?9?$AAN?$AAZ?$AA?$AA@ 10023870     libucrt:lcidtoname_downlevel.obj
 0002:0000487c       ??_C@_1M@PMPEAILG@?$AAa?$AAr?$AA?9?$AAI?$AAQ?$AA?$AA@ 1002387c     libucrt:lcidtoname_downlevel.obj
 0002:00004888       ??_C@_1M@CNKPNOEE@?$AAd?$AAe?$AA?9?$AAC?$AAH?$AA?$AA@ 10023888     libucrt:lcidtoname_downlevel.obj
 0002:00004894       ??_C@_1M@LKMGMLKO@?$AAe?$AAn?$AA?9?$AAG?$AAB?$AA?$AA@ 10023894     libucrt:lcidtoname_downlevel.obj
 0002:000048a0       ??_C@_1M@PGKJFFGL@?$AAe?$AAs?$AA?9?$AAM?$AAX?$AA?$AA@ 100238a0     libucrt:lcidtoname_downlevel.obj
 0002:000048ac       ??_C@_1M@DNNANBDC@?$AAf?$AAr?$AA?9?$AAB?$AAE?$AA?$AA@ 100238ac     libucrt:lcidtoname_downlevel.obj
 0002:000048b8       ??_C@_1M@HLGMDFHM@?$AAi?$AAt?$AA?9?$AAC?$AAH?$AA?$AA@ 100238b8     libucrt:lcidtoname_downlevel.obj
 0002:000048c4       ??_C@_1M@CLLBGJH@?$AAn?$AAl?$AA?9?$AAB?$AAE?$AA?$AA@ 100238c4     libucrt:lcidtoname_downlevel.obj
 0002:000048d0       ??_C@_1M@BODBOGLF@?$AAn?$AAn?$AA?9?$AAN?$AAO?$AA?$AA@ 100238d0     libucrt:lcidtoname_downlevel.obj
 0002:000048dc       ??_C@_1M@HFFAHKAD@?$AAp?$AAt?$AA?9?$AAP?$AAT?$AA?$AA@ 100238dc     libucrt:lcidtoname_downlevel.obj
 0002:000048e8       ??_C@_1BG@LNOAKHIE@?$AAs?$AAr?$AA?9?$AAS?$AAP?$AA?9?$AAL?$AAa?$AAt?$AAn?$AA?$AA@ 100238e8     libucrt:lcidtoname_downlevel.obj
 0002:00004900       ??_C@_1M@HBMHBGAK@?$AAs?$AAv?$AA?9?$AAF?$AAI?$AA?$AA@ 10023900     libucrt:lcidtoname_downlevel.obj
 0002:0000490c       ??_C@_1BG@DGCJGJBE@?$AAa?$AAz?$AA?9?$AAA?$AAZ?$AA?9?$AAC?$AAy?$AAr?$AAl?$AA?$AA@ 1002390c     libucrt:lcidtoname_downlevel.obj
 0002:00004924       ??_C@_1M@KEJDAAHB@?$AAs?$AAe?$AA?9?$AAS?$AAE?$AA?$AA@ 10023924     libucrt:lcidtoname_downlevel.obj
 0002:00004930       ??_C@_1M@HEIBJJAD@?$AAm?$AAs?$AA?9?$AAB?$AAN?$AA?$AA@ 10023930     libucrt:lcidtoname_downlevel.obj
 0002:0000493c       ??_C@_1BG@PBGJMCEM@?$AAu?$AAz?$AA?9?$AAU?$AAZ?$AA?9?$AAC?$AAy?$AAr?$AAl?$AA?$AA@ 1002393c     libucrt:lcidtoname_downlevel.obj
 0002:00004954       ??_C@_1O@LAOBCMDF@?$AAq?$AAu?$AAz?$AA?9?$AAE?$AAC?$AA?$AA@ 10023954     libucrt:lcidtoname_downlevel.obj
 0002:00004964       ??_C@_1M@POEEMAIO@?$AAa?$AAr?$AA?9?$AAE?$AAG?$AA?$AA@ 10023964     libucrt:lcidtoname_downlevel.obj
 0002:00004970       ??_C@_1M@EFAKDEDL@?$AAz?$AAh?$AA?9?$AAH?$AAK?$AA?$AA@ 10023970     libucrt:lcidtoname_downlevel.obj
 0002:0000497c       ??_C@_1M@HKKIJHGI@?$AAd?$AAe?$AA?9?$AAA?$AAT?$AA?$AA@ 1002397c     libucrt:lcidtoname_downlevel.obj
 0002:00004988       ??_C@_1M@KBFBEHJF@?$AAe?$AAn?$AA?9?$AAA?$AAU?$AA?$AA@ 10023988     libucrt:lcidtoname_downlevel.obj
 0002:00004994       ??_C@_1M@MNPLFAAH@?$AAe?$AAs?$AA?9?$AAE?$AAS?$AA?$AA@ 10023994     libucrt:lcidtoname_downlevel.obj
 0002:000049a0       ??_C@_1M@HJOOJFMA@?$AAf?$AAr?$AA?9?$AAC?$AAA?$AA?$AA@ 100239a0     libucrt:lcidtoname_downlevel.obj
 0002:000049ac       ??_C@_1BG@JPOFPNAB@?$AAs?$AAr?$AA?9?$AAS?$AAP?$AA?9?$AAC?$AAy?$AAr?$AAl?$AA?$AA@ 100239ac     libucrt:lcidtoname_downlevel.obj
 0002:000049c4       ??_C@_1M@LNFOCMOB@?$AAs?$AAe?$AA?9?$AAF?$AAI?$AA?$AA@ 100239c4     libucrt:lcidtoname_downlevel.obj
 0002:000049d0       ??_C@_1O@MGJBOAMB@?$AAq?$AAu?$AAz?$AA?9?$AAP?$AAE?$AA?$AA@ 100239d0     libucrt:lcidtoname_downlevel.obj
 0002:000049e0       ??_C@_1M@GJINLBOK@?$AAa?$AAr?$AA?9?$AAL?$AAY?$AA?$AA@ 100239e0     libucrt:lcidtoname_downlevel.obj
 0002:000049ec       ??_C@_1M@GGMNHJNL@?$AAz?$AAh?$AA?9?$AAS?$AAG?$AA?$AA@ 100239ec     libucrt:lcidtoname_downlevel.obj
 0002:000049f8       ??_C@_1M@HOIKODND@?$AAd?$AAe?$AA?9?$AAL?$AAU?$AA?$AA@ 100239f8     libucrt:lcidtoname_downlevel.obj
 0002:00004a04       ??_C@_1M@DDOCCGFG@?$AAe?$AAn?$AA?9?$AAC?$AAA?$AA?$AA@ 10023a04     libucrt:lcidtoname_downlevel.obj
 0002:00004a10       ??_C@_1M@BNOEMJLF@?$AAe?$AAs?$AA?9?$AAG?$AAT?$AA?$AA@ 10023a10     libucrt:lcidtoname_downlevel.obj
 0002:00004a1c       ??_C@_1M@EOGNKEK@?$AAf?$AAr?$AA?9?$AAC?$AAH?$AA?$AA@ 10023a1c     libucrt:lcidtoname_downlevel.obj
 0002:00004a28       ??_C@_1M@FLIDJFHL@?$AAh?$AAr?$AA?9?$AAB?$AAA?$AA?$AA@ 10023a28     libucrt:lcidtoname_downlevel.obj
 0002:00004a34       ??_C@_1O@FMCELNAJ@?$AAs?$AAm?$AAj?$AA?9?$AAN?$AAO?$AA?$AA@ 10023a34     libucrt:lcidtoname_downlevel.obj
 0002:00004a44       ??_C@_1M@JHGLJMGJ@?$AAa?$AAr?$AA?9?$AAD?$AAZ?$AA?$AA@ 10023a44     libucrt:lcidtoname_downlevel.obj
 0002:00004a50       ??_C@_1M@JKKFDCNP@?$AAz?$AAh?$AA?9?$AAM?$AAO?$AA?$AA@ 10023a50     libucrt:lcidtoname_downlevel.obj
 0002:00004a5c       ??_C@_1M@GEEFALPE@?$AAd?$AAe?$AA?9?$AAL?$AAI?$AA?$AA@ 10023a5c     libucrt:lcidtoname_downlevel.obj
 0002:00004a68       ??_C@_1M@IGEOFBG@?$AAe?$AAn?$AA?9?$AAN?$AAZ?$AA?$AA@ 10023a68     libucrt:lcidtoname_downlevel.obj
 0002:00004a74       ??_C@_1M@KDBONEHP@?$AAe?$AAs?$AA?9?$AAC?$AAR?$AA?$AA@ 10023a74     libucrt:lcidtoname_downlevel.obj
 0002:00004a80       ??_C@_1M@FHMDOHNN@?$AAf?$AAr?$AA?9?$AAL?$AAU?$AA?$AA@ 10023a80     libucrt:lcidtoname_downlevel.obj
 0002:00004a8c       ??_C@_1BG@NFKKMAFG@?$AAb?$AAs?$AA?9?$AAB?$AAA?$AA?9?$AAL?$AAa?$AAt?$AAn?$AA?$AA@ 10023a8c     libucrt:lcidtoname_downlevel.obj
 0002:00004aa4       ??_C@_1O@IMNBEMCI@?$AAs?$AAm?$AAj?$AA?9?$AAS?$AAE?$AA?$AA@ 10023aa4     libucrt:lcidtoname_downlevel.obj
 0002:00004ab4       ??_C@_1M@DHHMBNDP@?$AAa?$AAr?$AA?9?$AAM?$AAA?$AA?$AA@ 10023ab4     libucrt:lcidtoname_downlevel.obj
 0002:00004ac0       ??_C@_1M@BNBLJCGH@?$AAe?$AAn?$AA?9?$AAI?$AAE?$AA?$AA@ 10023ac0     libucrt:lcidtoname_downlevel.obj
 0002:00004acc       ??_C@_1M@GEPAFMDL@?$AAe?$AAs?$AA?9?$AAP?$AAA?$AA?$AA@ 10023acc     libucrt:lcidtoname_downlevel.obj
 0002:00004ad8       ??_C@_1M@OJONDMDL@?$AAf?$AAr?$AA?9?$AAM?$AAC?$AA?$AA@ 10023ad8     libucrt:lcidtoname_downlevel.obj
 0002:00004ae4       ??_C@_1BG@OBCNFJB@?$AAs?$AAr?$AA?9?$AAB?$AAA?$AA?9?$AAL?$AAa?$AAt?$AAn?$AA?$AA@ 10023ae4     libucrt:lcidtoname_downlevel.obj
 0002:00004afc       ??_C@_1O@KEMEEGPO@?$AAs?$AAm?$AAa?$AA?9?$AAN?$AAO?$AA?$AA@ 10023afc     libucrt:lcidtoname_downlevel.obj
 0002:00004b0c       ??_C@_1M@ELMGFODK@?$AAa?$AAr?$AA?9?$AAT?$AAN?$AA?$AA@ 10023b0c     libucrt:lcidtoname_downlevel.obj
 0002:00004b18       ??_C@_1M@BHDLHFAF@?$AAe?$AAn?$AA?9?$AAZ?$AAA?$AA?$AA@ 10023b18     libucrt:lcidtoname_downlevel.obj
 0002:00004b24       ??_C@_1M@BMGIGLIF@?$AAe?$AAs?$AA?9?$AAD?$AAO?$AA?$AA@ 10023b24     libucrt:lcidtoname_downlevel.obj
 0002:00004b30       ??_C@_1BG@CMBHIPBE@?$AAs?$AAr?$AA?9?$AAB?$AAA?$AA?9?$AAC?$AAy?$AAr?$AAl?$AA?$AA@ 10023b30     libucrt:lcidtoname_downlevel.obj
 0002:00004b48       ??_C@_1O@HEDBLHNP@?$AAs?$AAm?$AAa?$AA?9?$AAS?$AAE?$AA?$AA@ 10023b48     libucrt:lcidtoname_downlevel.obj
 0002:00004b58       ??_C@_1M@DAGCADIM@?$AAa?$AAr?$AA?9?$AAO?$AAM?$AA?$AA@ 10023b58     libucrt:lcidtoname_downlevel.obj
 0002:00004b64       ??_C@_1M@FODLMICG@?$AAe?$AAn?$AA?9?$AAJ?$AAM?$AA?$AA@ 10023b64     libucrt:lcidtoname_downlevel.obj
 0002:00004b70       ??_C@_1M@DNMLCIHB@?$AAe?$AAs?$AA?9?$AAV?$AAE?$AA?$AA@ 10023b70     libucrt:lcidtoname_downlevel.obj
 0002:00004b7c       ??_C@_1O@EOKHMKJK@?$AAs?$AAm?$AAs?$AA?9?$AAF?$AAI?$AA?$AA@ 10023b7c     libucrt:lcidtoname_downlevel.obj
 0002:00004b8c       ??_C@_1M@CAFJMKOF@?$AAa?$AAr?$AA?9?$AAY?$AAE?$AA?$AA@ 10023b8c     libucrt:lcidtoname_downlevel.obj
 0002:00004b98       ??_C@_1M@CBFHIJLI@?$AAe?$AAn?$AA?9?$AAC?$AAB?$AA?$AA@ 10023b98     libucrt:lcidtoname_downlevel.obj
 0002:00004ba4       ??_C@_1M@BGNFLDN@?$AAe?$AAs?$AA?9?$AAC?$AAO?$AA?$AA@ 10023ba4     libucrt:lcidtoname_downlevel.obj
 0002:00004bb0       ??_C@_1O@JMPHMAMC@?$AAs?$AAm?$AAn?$AA?9?$AAF?$AAI?$AA?$AA@ 10023bb0     libucrt:lcidtoname_downlevel.obj
 0002:00004bc0       ??_C@_1M@JLANABKE@?$AAa?$AAr?$AA?9?$AAS?$AAY?$AA?$AA@ 10023bc0     libucrt:lcidtoname_downlevel.obj
 0002:00004bcc       ??_C@_1M@HPKGCFGN@?$AAe?$AAn?$AA?9?$AAB?$AAZ?$AA?$AA@ 10023bcc     libucrt:lcidtoname_downlevel.obj
 0002:00004bd8       ??_C@_1M@OLJCMLGM@?$AAe?$AAs?$AA?9?$AAP?$AAE?$AA?$AA@ 10023bd8     libucrt:lcidtoname_downlevel.obj
 0002:00004be4       ??_C@_1M@MKKGFKLE@?$AAa?$AAr?$AA?9?$AAJ?$AAO?$AA?$AA@ 10023be4     libucrt:lcidtoname_downlevel.obj
 0002:00004bf0       ??_C@_1M@EKPGLDNI@?$AAe?$AAn?$AA?9?$AAT?$AAT?$AA?$AA@ 10023bf0     libucrt:lcidtoname_downlevel.obj
 0002:00004bfc       ??_C@_1M@OONGHFHE@?$AAe?$AAs?$AA?9?$AAA?$AAR?$AA?$AA@ 10023bfc     libucrt:lcidtoname_downlevel.obj
 0002:00004c08       ??_C@_1M@OOJFGBHE@?$AAa?$AAr?$AA?9?$AAL?$AAB?$AA?$AA@ 10023c08     libucrt:lcidtoname_downlevel.obj
 0002:00004c14       ??_C@_1M@GCEJHNEG@?$AAe?$AAn?$AA?9?$AAZ?$AAW?$AA?$AA@ 10023c14     libucrt:lcidtoname_downlevel.obj
 0002:00004c20       ??_C@_1M@JNOCAHJI@?$AAe?$AAs?$AA?9?$AAE?$AAC?$AA?$AA@ 10023c20     libucrt:lcidtoname_downlevel.obj
 0002:00004c2c       ??_C@_1M@JEFHPGGB@?$AAa?$AAr?$AA?9?$AAK?$AAW?$AA?$AA@ 10023c2c     libucrt:lcidtoname_downlevel.obj
 0002:00004c38       ??_C@_1M@MLKIBJOJ@?$AAe?$AAn?$AA?9?$AAP?$AAH?$AA?$AA@ 10023c38     libucrt:lcidtoname_downlevel.obj
 0002:00004c44       ??_C@_1M@BDNIPEND@?$AAe?$AAs?$AA?9?$AAC?$AAL?$AA?$AA@ 10023c44     libucrt:lcidtoname_downlevel.obj
 0002:00004c50       ??_C@_1M@MPNMEKBD@?$AAa?$AAr?$AA?9?$AAA?$AAE?$AA?$AA@ 10023c50     libucrt:lcidtoname_downlevel.obj
 0002:00004c5c       ??_C@_1M@KBJALCPI@?$AAe?$AAs?$AA?9?$AAU?$AAY?$AA?$AA@ 10023c5c     libucrt:lcidtoname_downlevel.obj
 0002:00004c68       ??_C@_1M@LLCCOAGA@?$AAa?$AAr?$AA?9?$AAB?$AAH?$AA?$AA@ 10023c68     libucrt:lcidtoname_downlevel.obj
 0002:00004c74       ??_C@_1M@PBFNCDEL@?$AAe?$AAs?$AA?9?$AAP?$AAY?$AA?$AA@ 10023c74     libucrt:lcidtoname_downlevel.obj
 0002:00004c80       ??_C@_1M@EDGINPNP@?$AAa?$AAr?$AA?9?$AAQ?$AAA?$AA?$AA@ 10023c80     libucrt:lcidtoname_downlevel.obj
 0002:00004c8c       ??_C@_1M@MKDBIIJI@?$AAe?$AAs?$AA?9?$AAB?$AAO?$AA?$AA@ 10023c8c     libucrt:lcidtoname_downlevel.obj
 0002:00004c98       ??_C@_1M@CPKKEBLD@?$AAe?$AAs?$AA?9?$AAS?$AAV?$AA?$AA@ 10023c98     libucrt:lcidtoname_downlevel.obj
 0002:00004ca4       ??_C@_1M@NDBGMMJL@?$AAe?$AAs?$AA?9?$AAH?$AAN?$AA?$AA@ 10023ca4     libucrt:lcidtoname_downlevel.obj
 0002:00004cb0       ??_C@_1M@JIJIBHDP@?$AAe?$AAs?$AA?9?$AAN?$AAI?$AA?$AA@ 10023cb0     libucrt:lcidtoname_downlevel.obj
 0002:00004cbc       ??_C@_1M@CGFMKEEK@?$AAe?$AAs?$AA?9?$AAP?$AAR?$AA?$AA@ 10023cbc     libucrt:lcidtoname_downlevel.obj
 0002:00004cc8       ??_C@_1O@ICJHKIIK@?$AAz?$AAh?$AA?9?$AAC?$AAH?$AAT?$AA?$AA@ 10023cc8     libucrt:lcidtoname_downlevel.obj
 0002:00004cd8       ??_C@_15CLNEJCE@?$AAs?$AAr?$AA?$AA@ 10023cd8     libucrt:lcidtoname_downlevel.obj
 0002:00005400       ??_C@_1M@KAHEKEIG@?$AAa?$AAf?$AA?9?$AAz?$AAa?$AA?$AA@ 10024400     libucrt:lcidtoname_downlevel.obj
 0002:0000540c       ??_C@_1M@GIECOABL@?$AAa?$AAr?$AA?9?$AAa?$AAe?$AA?$AA@ 1002440c     libucrt:lcidtoname_downlevel.obj
 0002:00005418       ??_C@_1M@BMLMEKGI@?$AAa?$AAr?$AA?9?$AAb?$AAh?$AA?$AA@ 10024418     libucrt:lcidtoname_downlevel.obj
 0002:00005424       ??_C@_1M@DAPFDGGB@?$AAa?$AAr?$AA?9?$AAd?$AAz?$AA?$AA@ 10024424     libucrt:lcidtoname_downlevel.obj
 0002:00005430       ??_C@_1M@FJNKGKIG@?$AAa?$AAr?$AA?9?$AAe?$AAg?$AA?$AA@ 10024430     libucrt:lcidtoname_downlevel.obj
 0002:0000543c       ??_C@_1M@FLGKKCLO@?$AAa?$AAr?$AA?9?$AAi?$AAq?$AA?$AA@ 1002443c     libucrt:lcidtoname_downlevel.obj
 0002:00005448       ??_C@_1M@GNDIPALM@?$AAa?$AAr?$AA?9?$AAj?$AAo?$AA?$AA@ 10024448     libucrt:lcidtoname_downlevel.obj
 0002:00005454       ??_C@_1M@DDMJFMGJ@?$AAa?$AAr?$AA?9?$AAk?$AAw?$AA?$AA@ 10024454     libucrt:lcidtoname_downlevel.obj
 0002:00005460       ??_C@_1M@EJALMLHM@?$AAa?$AAr?$AA?9?$AAl?$AAb?$AA?$AA@ 10024460     libucrt:lcidtoname_downlevel.obj
 0002:0000546c       ??_C@_1M@MOBDBLOC@?$AAa?$AAr?$AA?9?$AAl?$AAy?$AA?$AA@ 1002446c     libucrt:lcidtoname_downlevel.obj
 0002:00005478       ??_C@_1M@JAOCLHDH@?$AAa?$AAr?$AA?9?$AAm?$AAa?$AA?$AA@ 10024478     libucrt:lcidtoname_downlevel.obj
 0002:00005484       ??_C@_1M@JHPMKJIE@?$AAa?$AAr?$AA?9?$AAo?$AAm?$AA?$AA@ 10024484     libucrt:lcidtoname_downlevel.obj
 0002:00005490       ??_C@_1M@OEPGHFNH@?$AAa?$AAr?$AA?9?$AAq?$AAa?$AA?$AA@ 10024490     libucrt:lcidtoname_downlevel.obj
 0002:0000549c       ??_C@_1M@KJDONENM@?$AAa?$AAr?$AA?9?$AAs?$AAa?$AA?$AA@ 1002449c     libucrt:lcidtoname_downlevel.obj
 0002:000054a8       ??_C@_1M@DMJDKLKM@?$AAa?$AAr?$AA?9?$AAs?$AAy?$AA?$AA@ 100244a8     libucrt:lcidtoname_downlevel.obj
 0002:000054b4       ??_C@_1M@OMFIPEDC@?$AAa?$AAr?$AA?9?$AAt?$AAn?$AA?$AA@ 100244b4     libucrt:lcidtoname_downlevel.obj
 0002:000054c0       ??_C@_1M@IHMHGAON@?$AAa?$AAr?$AA?9?$AAy?$AAe?$AA?$AA@ 100244c0     libucrt:lcidtoname_downlevel.obj
 0002:000054cc       ??_C@_1BG@KDCPGJGB@?$AAa?$AAz?$AA?9?$AAa?$AAz?$AA?9?$AAc?$AAy?$AAr?$AAl?$AA?$AA@ 100244cc     libucrt:lcidtoname_downlevel.obj
 0002:000054e4       ??_C@_1BG@IBCKDDOE@?$AAa?$AAz?$AA?9?$AAa?$AAz?$AA?9?$AAl?$AAa?$AAt?$AAn?$AA?$AA@ 100244e4     libucrt:lcidtoname_downlevel.obj
 0002:000054fc       ??_C@_1M@EGPFDCPD@?$AAb?$AAe?$AA?9?$AAb?$AAy?$AA?$AA@ 100244fc     libucrt:lcidtoname_downlevel.obj
 0002:00005508       ??_C@_1M@PCMGMCGC@?$AAb?$AAg?$AA?9?$AAb?$AAg?$AA?$AA@ 10024508     libucrt:lcidtoname_downlevel.obj
 0002:00005514       ??_C@_1M@BJBMFGOB@?$AAb?$AAn?$AA?9?$AAi?$AAn?$AA?$AA@ 10024514     libucrt:lcidtoname_downlevel.obj
 0002:00005520       ??_C@_1BG@EAKMMACD@?$AAb?$AAs?$AA?9?$AAb?$AAa?$AA?9?$AAl?$AAa?$AAt?$AAn?$AA?$AA@ 10024520     libucrt:lcidtoname_downlevel.obj
 0002:00005538       ??_C@_1M@KGADAODK@?$AAc?$AAa?$AA?9?$AAe?$AAs?$AA?$AA@ 10024538     libucrt:lcidtoname_downlevel.obj
 0002:00005544       ??_C@_1M@COAJPDHI@?$AAc?$AAs?$AA?9?$AAc?$AAz?$AA?$AA@ 10024544     libucrt:lcidtoname_downlevel.obj
 0002:00005550       ??_C@_1M@DHBHFONH@?$AAc?$AAy?$AA?9?$AAg?$AAb?$AA?$AA@ 10024550     libucrt:lcidtoname_downlevel.obj
 0002:0000555c       ??_C@_1M@IMGKELGA@?$AAd?$AAa?$AA?9?$AAd?$AAk?$AA?$AA@ 1002455c     libucrt:lcidtoname_downlevel.obj
 0002:00005568       ??_C@_1M@NNDGDNGA@?$AAd?$AAe?$AA?9?$AAa?$AAt?$AA?$AA@ 10024568     libucrt:lcidtoname_downlevel.obj
 0002:00005574       ??_C@_1M@IKDBHEEM@?$AAd?$AAe?$AA?9?$AAc?$AAh?$AA?$AA@ 10024574     libucrt:lcidtoname_downlevel.obj
 0002:00005580       ??_C@_1M@GFFOJMCJ@?$AAd?$AAe?$AA?9?$AAd?$AAe?$AA?$AA@ 10024580     libucrt:lcidtoname_downlevel.obj
 0002:0000558c       ??_C@_1M@MDNLKBPM@?$AAd?$AAe?$AA?9?$AAl?$AAi?$AA?$AA@ 1002458c     libucrt:lcidtoname_downlevel.obj
 0002:00005598       ??_C@_1M@NJBEEJNL@?$AAd?$AAe?$AA?9?$AAl?$AAu?$AA?$AA@ 10024598     libucrt:lcidtoname_downlevel.obj
 0002:000055a4       ??_C@_1O@GNNELBAP@?$AAd?$AAi?$AAv?$AA?9?$AAm?$AAv?$AA?$AA@ 100245a4     libucrt:lcidtoname_downlevel.obj
 0002:000055b4       ??_C@_1M@EJLEOGAE@?$AAe?$AAl?$AA?9?$AAg?$AAr?$AA?$AA@ 100245b4     libucrt:lcidtoname_downlevel.obj
 0002:000055c0       ??_C@_1M@GMPONJN@?$AAe?$AAn?$AA?9?$AAa?$AAu?$AA?$AA@ 100245c0     libucrt:lcidtoname_downlevel.obj
 0002:000055cc       ??_C@_1M@NIDIIPGF@?$AAe?$AAn?$AA?9?$AAb?$AAz?$AA?$AA@ 100245cc     libucrt:lcidtoname_downlevel.obj
 0002:000055d8       ??_C@_1M@JEHMIMFO@?$AAe?$AAn?$AA?9?$AAc?$AAa?$AA?$AA@ 100245d8     libucrt:lcidtoname_downlevel.obj
 0002:000055e4       ??_C@_1M@IGMJCDLA@?$AAe?$AAn?$AA?9?$AAc?$AAb?$AA?$AA@ 100245e4     libucrt:lcidtoname_downlevel.obj
 0002:000055f0       ??_C@_1M@BNFIGBKG@?$AAe?$AAn?$AA?9?$AAg?$AAb?$AA?$AA@ 100245f0     libucrt:lcidtoname_downlevel.obj
 0002:000055fc       ??_C@_1M@LKIFDIGP@?$AAe?$AAn?$AA?9?$AAi?$AAe?$AA?$AA@ 100245fc     libucrt:lcidtoname_downlevel.obj
 0002:00005608       ??_C@_1M@PJKFGCCO@?$AAe?$AAn?$AA?9?$AAj?$AAm?$AA?$AA@ 10024608     libucrt:lcidtoname_downlevel.obj
 0002:00005614       ??_C@_1M@KPPKEPBO@?$AAe?$AAn?$AA?9?$AAn?$AAz?$AA?$AA@ 10024614     libucrt:lcidtoname_downlevel.obj
 0002:00005620       ??_C@_1M@GMDGLDOB@?$AAe?$AAn?$AA?9?$AAp?$AAh?$AA?$AA@ 10024620     libucrt:lcidtoname_downlevel.obj
 0002:0000562c       ??_C@_1M@ONGIBJNA@?$AAe?$AAn?$AA?9?$AAt?$AAt?$AA?$AA@ 1002462c     libucrt:lcidtoname_downlevel.obj
 0002:00005638       ??_C@_1M@LLODPCMM@?$AAe?$AAn?$AA?9?$AAu?$AAs?$AA?$AA@ 10024638     libucrt:lcidtoname_downlevel.obj
 0002:00005644       ??_C@_1M@LAKFNPAN@?$AAe?$AAn?$AA?9?$AAz?$AAa?$AA?$AA@ 10024644     libucrt:lcidtoname_downlevel.obj
 0002:00005650       ??_C@_1M@MFNHNHEO@?$AAe?$AAn?$AA?9?$AAz?$AAw?$AA?$AA@ 10024650     libucrt:lcidtoname_downlevel.obj
 0002:0000565c       ??_C@_1M@EJEINPHM@?$AAe?$AAs?$AA?9?$AAa?$AAr?$AA?$AA@ 1002465c     libucrt:lcidtoname_downlevel.obj
 0002:00005668       ??_C@_1M@GNKPCCJA@?$AAe?$AAs?$AA?9?$AAb?$AAo?$AA?$AA@ 10024668     libucrt:lcidtoname_downlevel.obj
 0002:00005674       ??_C@_1M@LEEGFONL@?$AAe?$AAs?$AA?9?$AAc?$AAl?$AA?$AA@ 10024674     libucrt:lcidtoname_downlevel.obj
 0002:00005680       ??_C@_1M@KGPDPBDF@?$AAe?$AAs?$AA?9?$AAc?$AAo?$AA?$AA@ 10024680     libucrt:lcidtoname_downlevel.obj
 0002:0000568c       ??_C@_1M@EIAHOHH@?$AAe?$AAs?$AA?9?$AAc?$AAr?$AA?$AA@ 1002468c     libucrt:lcidtoname_downlevel.obj
 0002:00005698       ??_C@_1M@LLPGMBIN@?$AAe?$AAs?$AA?9?$AAd?$AAo?$AA?$AA@ 10024698     libucrt:lcidtoname_downlevel.obj
 0002:000056a4       ??_C@_1M@DKHMKNJA@?$AAe?$AAs?$AA?9?$AAe?$AAc?$AA?$AA@ 100246a4     libucrt:lcidtoname_downlevel.obj
 0002:000056b0       ??_C@_1M@GKGFPKAP@?$AAe?$AAs?$AA?9?$AAe?$AAs?$AA?$AA@ 100246b0     libucrt:lcidtoname_downlevel.obj
 0002:000056bc       ??_C@_1M@LKHKGDLN@?$AAe?$AAs?$AA?9?$AAg?$AAt?$AA?$AA@ 100246bc     libucrt:lcidtoname_downlevel.obj
 0002:000056c8       ??_C@_1M@HEIIGGJD@?$AAe?$AAs?$AA?9?$AAh?$AAn?$AA?$AA@ 100246c8     libucrt:lcidtoname_downlevel.obj
 0002:000056d4       ??_C@_1M@FBDHPPGD@?$AAe?$AAs?$AA?9?$AAm?$AAx?$AA?$AA@ 100246d4     libucrt:lcidtoname_downlevel.obj
 0002:000056e0       ??_C@_1M@DPAGLNDH@?$AAe?$AAs?$AA?9?$AAn?$AAi?$AA?$AA@ 100246e0     libucrt:lcidtoname_downlevel.obj
 0002:000056ec       ??_C@_1M@MDGOPGDD@?$AAe?$AAs?$AA?9?$AAp?$AAa?$AA?$AA@ 100246ec     libucrt:lcidtoname_downlevel.obj
 0002:000056f8       ??_C@_1M@EMAMGBGE@?$AAe?$AAs?$AA?9?$AAp?$AAe?$AA?$AA@ 100246f8     libucrt:lcidtoname_downlevel.obj
 0002:00005704       ??_C@_1M@IBMCAOEC@?$AAe?$AAs?$AA?9?$AAp?$AAr?$AA?$AA@ 10024704     libucrt:lcidtoname_downlevel.obj
 0002:00005710       ??_C@_1M@FGMDIJED@?$AAe?$AAs?$AA?9?$AAp?$AAy?$AA?$AA@ 10024710     libucrt:lcidtoname_downlevel.obj
 0002:0000571c       ??_C@_1M@IIDEOLLL@?$AAe?$AAs?$AA?9?$AAs?$AAv?$AA?$AA@ 1002471c     libucrt:lcidtoname_downlevel.obj
 0002:00005728       ??_C@_1M@GAOBIPA@?$AAe?$AAs?$AA?9?$AAu?$AAy?$AA?$AA@ 10024728     libucrt:lcidtoname_downlevel.obj
 0002:00005734       ??_C@_1M@JKFFICHJ@?$AAe?$AAs?$AA?9?$AAv?$AAe?$AA?$AA@ 10024734     libucrt:lcidtoname_downlevel.obj
 0002:00005740       ??_C@_1M@PNMLOJDF@?$AAe?$AAt?$AA?9?$AAe?$AAe?$AA?$AA@ 10024740     libucrt:lcidtoname_downlevel.obj
 0002:0000574c       ??_C@_1M@GHHLIKEI@?$AAe?$AAu?$AA?9?$AAe?$AAs?$AA?$AA@ 1002474c     libucrt:lcidtoname_downlevel.obj
 0002:00005758       ??_C@_1M@PBNONODE@?$AAf?$AAa?$AA?9?$AAi?$AAr?$AA?$AA@ 10024758     libucrt:lcidtoname_downlevel.obj
 0002:00005764       ??_C@_1M@JEEHPMIL@?$AAf?$AAi?$AA?9?$AAf?$AAi?$AA?$AA@ 10024764     libucrt:lcidtoname_downlevel.obj
 0002:00005770       ??_C@_1M@LMDCNDBA@?$AAf?$AAo?$AA?9?$AAf?$AAo?$AA?$AA@ 10024770     libucrt:lcidtoname_downlevel.obj
 0002:0000577c       ??_C@_1M@JKEOHLDK@?$AAf?$AAr?$AA?9?$AAb?$AAe?$AA?$AA@ 1002477c     libucrt:lcidtoname_downlevel.obj
 0002:00005788       ??_C@_1M@NOHADPMI@?$AAf?$AAr?$AA?9?$AAc?$AAa?$AA?$AA@ 10024788     libucrt:lcidtoname_downlevel.obj
 0002:00005794       ??_C@_1M@KDHIHAEC@?$AAf?$AAr?$AA?9?$AAc?$AAh?$AA?$AA@ 10024794     libucrt:lcidtoname_downlevel.obj
 0002:000057a0       ??_C@_1M@MMBBFGAK@?$AAf?$AAr?$AA?9?$AAf?$AAr?$AA?$AA@ 100247a0     libucrt:lcidtoname_downlevel.obj
 0002:000057ac       ??_C@_1M@PAFNENNF@?$AAf?$AAr?$AA?9?$AAl?$AAu?$AA?$AA@ 100247ac     libucrt:lcidtoname_downlevel.obj
 0002:000057b8       ??_C@_1M@EOHDJGDD@?$AAf?$AAr?$AA?9?$AAm?$AAc?$AA?$AA@ 100247b8     libucrt:lcidtoname_downlevel.obj
 0002:000057c4       ??_C@_1M@FAPLLOPF@?$AAg?$AAl?$AA?9?$AAe?$AAs?$AA?$AA@ 100247c4     libucrt:lcidtoname_downlevel.obj
 0002:000057d0       ??_C@_1M@FOPBFLOO@?$AAg?$AAu?$AA?9?$AAi?$AAn?$AA?$AA@ 100247d0     libucrt:lcidtoname_downlevel.obj
 0002:000057dc       ??_C@_1M@KBMCINPM@?$AAh?$AAe?$AA?9?$AAi?$AAl?$AA?$AA@ 100247dc     libucrt:lcidtoname_downlevel.obj
 0002:000057e8       ??_C@_1M@BBPHKFPJ@?$AAh?$AAi?$AA?9?$AAi?$AAn?$AA?$AA@ 100247e8     libucrt:lcidtoname_downlevel.obj
 0002:000057f4       ??_C@_1M@PMBNDPHD@?$AAh?$AAr?$AA?9?$AAb?$AAa?$AA?$AA@ 100247f4     libucrt:lcidtoname_downlevel.obj
 0002:00005800       ??_C@_1M@BPCKOEGE@?$AAh?$AAr?$AA?9?$AAh?$AAr?$AA?$AA@ 10024800     libucrt:lcidtoname_downlevel.obj
 0002:0000580c       ??_C@_1M@GACBMHKE@?$AAh?$AAu?$AA?9?$AAh?$AAu?$AA?$AA@ 1002480c     libucrt:lcidtoname_downlevel.obj
 0002:00005818       ??_C@_1M@MILPAJJC@?$AAh?$AAy?$AA?9?$AAa?$AAm?$AA?$AA@ 10024818     libucrt:lcidtoname_downlevel.obj
 0002:00005824       ??_C@_1M@BABBICEC@?$AAi?$AAd?$AA?9?$AAi?$AAd?$AA?$AA@ 10024824     libucrt:lcidtoname_downlevel.obj
 0002:00005830       ??_C@_1M@BIKNHHPF@?$AAi?$AAs?$AA?9?$AAi?$AAs?$AA?$AA@ 10024830     libucrt:lcidtoname_downlevel.obj
 0002:0000583c       ??_C@_1M@NMPCJPHE@?$AAi?$AAt?$AA?9?$AAc?$AAh?$AA?$AA@ 1002483c     libucrt:lcidtoname_downlevel.obj
 0002:00005848       ??_C@_1M@GHKGFEDF@?$AAi?$AAt?$AA?9?$AAi?$AAt?$AA?$AA@ 10024848     libucrt:lcidtoname_downlevel.obj
 0002:00005854       ??_C@_1M@NIEJCJJA@?$AAj?$AAa?$AA?9?$AAj?$AAp?$AA?$AA@ 10024854     libucrt:lcidtoname_downlevel.obj
 0002:00005860       ??_C@_1M@JILFNBIM@?$AAk?$AAa?$AA?9?$AAg?$AAe?$AA?$AA@ 10024860     libucrt:lcidtoname_downlevel.obj
 0002:0000586c       ??_C@_1M@PACPMGPH@?$AAk?$AAk?$AA?9?$AAk?$AAz?$AA?$AA@ 1002486c     libucrt:lcidtoname_downlevel.obj
 0002:00005878       ??_C@_1M@IELFGMHA@?$AAk?$AAn?$AA?9?$AAi?$AAn?$AA?$AA@ 10024878     libucrt:lcidtoname_downlevel.obj
 0002:00005884       ??_C@_1O@IBBJHCH@?$AAk?$AAo?$AAk?$AA?9?$AAi?$AAn?$AA?$AA@ 10024884     libucrt:lcidtoname_downlevel.obj
 0002:00005894       ??_C@_1M@DMHAEOGC@?$AAk?$AAo?$AA?9?$AAk?$AAr?$AA?$AA@ 10024894     libucrt:lcidtoname_downlevel.obj
 0002:000058a0       ??_C@_1M@HBAHBIGA@?$AAk?$AAy?$AA?9?$AAk?$AAg?$AA?$AA@ 100248a0     libucrt:lcidtoname_downlevel.obj
 0002:000058ac       ??_C@_1M@KPMILCJG@?$AAl?$AAt?$AA?9?$AAl?$AAt?$AA?$AA@ 100248ac     libucrt:lcidtoname_downlevel.obj
 0002:000058b8       ??_C@_1M@BDEKKCA@?$AAl?$AAv?$AA?9?$AAl?$AAv?$AA?$AA@ 100248b8     libucrt:lcidtoname_downlevel.obj
 0002:000058c4       ??_C@_1M@ELCKCCJJ@?$AAm?$AAi?$AA?9?$AAn?$AAz?$AA?$AA@ 100248c4     libucrt:lcidtoname_downlevel.obj
 0002:000058d0       ??_C@_1M@CBOOLAPA@?$AAm?$AAk?$AA?9?$AAm?$AAk?$AA?$AA@ 100248d0     libucrt:lcidtoname_downlevel.obj
 0002:000058dc       ??_C@_1M@GPHNBJKN@?$AAm?$AAl?$AA?9?$AAi?$AAn?$AA?$AA@ 100248dc     libucrt:lcidtoname_downlevel.obj
 0002:000058e8       ??_C@_1M@PABJILIG@?$AAm?$AAn?$AA?9?$AAm?$AAn?$AA?$AA@ 100248e8     libucrt:lcidtoname_downlevel.obj
 0002:000058f4       ??_C@_1M@FGBKKIPG@?$AAm?$AAr?$AA?9?$AAi?$AAn?$AA?$AA@ 100248f4     libucrt:lcidtoname_downlevel.obj
 0002:00005900       ??_C@_1M@NDBPDDAL@?$AAm?$AAs?$AA?9?$AAb?$AAn?$AA?$AA@ 10024900     libucrt:lcidtoname_downlevel.obj
 0002:0000590c       ??_C@_1M@OPIHOOPI@?$AAm?$AAs?$AA?9?$AAm?$AAy?$AA?$AA@ 1002490c     libucrt:lcidtoname_downlevel.obj
 0002:00005918       ??_C@_1M@PPDBCNFM@?$AAm?$AAt?$AA?9?$AAm?$AAt?$AA?$AA@ 10024918     libucrt:lcidtoname_downlevel.obj
 0002:00005924       ??_C@_1M@KDJDKMDD@?$AAn?$AAb?$AA?9?$AAn?$AAo?$AA?$AA@ 10024924     libucrt:lcidtoname_downlevel.obj
 0002:00005930       ??_C@_1M@KFCFLMJP@?$AAn?$AAl?$AA?9?$AAb?$AAe?$AA?$AA@ 10024930     libucrt:lcidtoname_downlevel.obj
 0002:0000593c       ??_C@_1M@KPOPDDGO@?$AAn?$AAl?$AA?9?$AAn?$AAl?$AA?$AA@ 1002493c     libucrt:lcidtoname_downlevel.obj
 0002:00005948       ??_C@_1M@LJKPEMLN@?$AAn?$AAn?$AA?9?$AAn?$AAo?$AA?$AA@ 10024948     libucrt:lcidtoname_downlevel.obj
 0002:00005954       ??_C@_1M@BDGHHBFL@?$AAn?$AAs?$AA?9?$AAz?$AAa?$AA?$AA@ 10024954     libucrt:lcidtoname_downlevel.obj
 0002:00005960       ??_C@_1M@IDEHOAP@?$AAp?$AAa?$AA?9?$AAi?$AAn?$AA?$AA@ 10024960     libucrt:lcidtoname_downlevel.obj
 0002:0000596c       ??_C@_1M@HDBKGOGH@?$AAp?$AAl?$AA?9?$AAp?$AAl?$AA?$AA@ 1002496c     libucrt:lcidtoname_downlevel.obj
 0002:00005978       ??_C@_1M@LJLLCMEH@?$AAp?$AAt?$AA?9?$AAb?$AAr?$AA?$AA@ 10024978     libucrt:lcidtoname_downlevel.obj
 0002:00005984       ??_C@_1M@NCMONAAL@?$AAp?$AAt?$AA?9?$AAp?$AAt?$AA?$AA@ 10024984     libucrt:lcidtoname_downlevel.obj
 0002:00005990       ??_C@_1O@EAKMAJDN@?$AAq?$AAu?$AAz?$AA?9?$AAb?$AAo?$AA?$AA@ 10024990     libucrt:lcidtoname_downlevel.obj
 0002:000059a0       ??_C@_1O@BHHPIGDN@?$AAq?$AAu?$AAz?$AA?9?$AAe?$AAc?$AA?$AA@ 100249a0     libucrt:lcidtoname_downlevel.obj
 0002:000059b0       ??_C@_1O@GBAPEKMJ@?$AAq?$AAu?$AAz?$AA?9?$AAp?$AAe?$AA?$AA@ 100249b0     libucrt:lcidtoname_downlevel.obj
 0002:000059c0       ??_C@_1M@CLGLEFBO@?$AAr?$AAo?$AA?9?$AAr?$AAo?$AA?$AA@ 100249c0     libucrt:lcidtoname_downlevel.obj
 0002:000059cc       ??_C@_1M@CEEDODME@?$AAr?$AAu?$AA?9?$AAr?$AAu?$AA?$AA@ 100249cc     libucrt:lcidtoname_downlevel.obj
 0002:000059d8       ??_C@_1M@HPKKKMPP@?$AAs?$AAa?$AA?9?$AAi?$AAn?$AA?$AA@ 100249d8     libucrt:lcidtoname_downlevel.obj
 0002:000059e4       ??_C@_1M@BKMAIGOJ@?$AAs?$AAe?$AA?9?$AAf?$AAi?$AA?$AA@ 100249e4     libucrt:lcidtoname_downlevel.obj
 0002:000059f0       ??_C@_1M@NDPIFLFI@?$AAs?$AAe?$AA?9?$AAn?$AAo?$AA?$AA@ 100249f0     libucrt:lcidtoname_downlevel.obj
 0002:000059fc       ??_C@_1M@DANKKHJ@?$AAs?$AAe?$AA?9?$AAs?$AAe?$AA?$AA@ 100249fc     libucrt:lcidtoname_downlevel.obj
 0002:00005a08       ??_C@_1M@PNBLONPJ@?$AAs?$AAk?$AA?9?$AAs?$AAk?$AA?$AA@ 10024a08     libucrt:lcidtoname_downlevel.obj
 0002:00005a14       ??_C@_1M@LFMODOAL@?$AAs?$AAl?$AA?9?$AAs?$AAi?$AA?$AA@ 10024a14     libucrt:lcidtoname_downlevel.obj
 0002:00005a20       ??_C@_1O@DFKOMPG@?$AAs?$AAm?$AAa?$AA?9?$AAn?$AAo?$AA?$AA@ 10024a20     libucrt:lcidtoname_downlevel.obj
 0002:00005a30       ??_C@_1O@NDKPBNNH@?$AAs?$AAm?$AAa?$AA?9?$AAs?$AAe?$AA?$AA@ 10024a30     libucrt:lcidtoname_downlevel.obj
 0002:00005a40       ??_C@_1O@PLLKBHAB@?$AAs?$AAm?$AAj?$AA?9?$AAn?$AAo?$AA?$AA@ 10024a40     libucrt:lcidtoname_downlevel.obj
 0002:00005a50       ??_C@_1O@CLEPOGCA@?$AAs?$AAm?$AAj?$AA?9?$AAs?$AAe?$AA?$AA@ 10024a50     libucrt:lcidtoname_downlevel.obj
 0002:00005a60       ??_C@_1O@DLGJGKMK@?$AAs?$AAm?$AAn?$AA?9?$AAf?$AAi?$AA?$AA@ 10024a60     libucrt:lcidtoname_downlevel.obj
 0002:00005a70       ??_C@_1O@OJDJGAJC@?$AAs?$AAm?$AAs?$AA?9?$AAf?$AAi?$AA?$AA@ 10024a70     libucrt:lcidtoname_downlevel.obj
 0002:00005a80       ??_C@_1M@BOFOGHPB@?$AAs?$AAq?$AA?9?$AAa?$AAl?$AA?$AA@ 10024a80     libucrt:lcidtoname_downlevel.obj
 0002:00005a8c       ??_C@_1BG@LJBBIPGB@?$AAs?$AAr?$AA?9?$AAb?$AAa?$AA?9?$AAc?$AAy?$AAr?$AAl?$AA?$AA@ 10024a8c     libucrt:lcidtoname_downlevel.obj
 0002:00005aa4       ??_C@_1BG@JLBENFOE@?$AAs?$AAr?$AA?9?$AAb?$AAa?$AA?9?$AAl?$AAa?$AAt?$AAn?$AA?$AA@ 10024aa4     libucrt:lcidtoname_downlevel.obj
 0002:00005abc       ??_C@_1BG@KODPNHE@?$AAs?$AAr?$AA?9?$AAs?$AAp?$AA?9?$AAc?$AAy?$AAr?$AAl?$AA?$AA@ 10024abc     libucrt:lcidtoname_downlevel.obj
 0002:00005ad4       ??_C@_1BG@CIOGKHPB@?$AAs?$AAr?$AA?9?$AAs?$AAp?$AA?9?$AAl?$AAa?$AAt?$AAn?$AA?$AA@ 10024ad4     libucrt:lcidtoname_downlevel.obj
 0002:00005aec       ??_C@_1M@NGFJLMAC@?$AAs?$AAv?$AA?9?$AAf?$AAi?$AA?$AA@ 10024aec     libucrt:lcidtoname_downlevel.obj
 0002:00005af8       ??_C@_1M@MPJEJAJC@?$AAs?$AAv?$AA?9?$AAs?$AAe?$AA?$AA@ 10024af8     libucrt:lcidtoname_downlevel.obj
 0002:00005b04       ??_C@_1M@MPNDHLFK@?$AAs?$AAw?$AA?9?$AAk?$AAe?$AA?$AA@ 10024b04     libucrt:lcidtoname_downlevel.obj
 0002:00005b10       ??_C@_1O@KOHBJJI@?$AAs?$AAy?$AAr?$AA?9?$AAs?$AAy?$AA?$AA@ 10024b10     libucrt:lcidtoname_downlevel.obj
 0002:00005b20       ??_C@_1M@LDCEFHA@?$AAt?$AAa?$AA?9?$AAi?$AAn?$AA?$AA@ 10024b20     libucrt:lcidtoname_downlevel.obj
 0002:00005b2c       ??_C@_1M@CNJOFAK@?$AAt?$AAe?$AA?9?$AAi?$AAn?$AA?$AA@ 10024b2c     libucrt:lcidtoname_downlevel.obj
 0002:00005b38       ??_C@_1M@GNAECACD@?$AAt?$AAh?$AA?9?$AAt?$AAh?$AA?$AA@ 10024b38     libucrt:lcidtoname_downlevel.obj
 0002:00005b44       ??_C@_1M@CHBIHOJO@?$AAt?$AAn?$AA?9?$AAz?$AAa?$AA?$AA@ 10024b44     libucrt:lcidtoname_downlevel.obj
 0002:00005b50       ??_C@_1M@GCCMIGPJ@?$AAt?$AAr?$AA?9?$AAt?$AAr?$AA?$AA@ 10024b50     libucrt:lcidtoname_downlevel.obj
 0002:00005b5c       ??_C@_1M@CELMCNBK@?$AAt?$AAt?$AA?9?$AAr?$AAu?$AA?$AA@ 10024b5c     libucrt:lcidtoname_downlevel.obj
 0002:00005b68       ??_C@_1M@KLMCELGA@?$AAu?$AAk?$AA?9?$AAu?$AAa?$AA?$AA@ 10024b68     libucrt:lcidtoname_downlevel.obj
 0002:00005b74       ??_C@_1M@EPAJJAJF@?$AAu?$AAr?$AA?9?$AAp?$AAk?$AA?$AA@ 10024b74     libucrt:lcidtoname_downlevel.obj
 0002:00005b80       ??_C@_1BG@GEGPMCDJ@?$AAu?$AAz?$AA?9?$AAu?$AAz?$AA?9?$AAc?$AAy?$AAr?$AAl?$AA?$AA@ 10024b80     libucrt:lcidtoname_downlevel.obj
 0002:00005b98       ??_C@_1BG@EGGKJILM@?$AAu?$AAz?$AA?9?$AAu?$AAz?$AA?9?$AAl?$AAa?$AAt?$AAn?$AA?$AA@ 10024b98     libucrt:lcidtoname_downlevel.obj
 0002:00005bb0       ??_C@_1M@GFOCLFF@?$AAv?$AAi?$AA?9?$AAv?$AAn?$AA?$AA@ 10024bb0     libucrt:lcidtoname_downlevel.obj
 0002:00005bbc       ??_C@_1M@CPAMEDFI@?$AAx?$AAh?$AA?9?$AAz?$AAa?$AA?$AA@ 10024bbc     libucrt:lcidtoname_downlevel.obj
 0002:00005bc8       ??_C@_1O@EBKIFIGN@?$AAz?$AAh?$AA?9?$AAc?$AAh?$AAs?$AA?$AA@ 10024bc8     libucrt:lcidtoname_downlevel.obj
 0002:00005bd8       ??_C@_1O@NMHPGANE@?$AAz?$AAh?$AA?9?$AAc?$AAh?$AAt?$AA?$AA@ 10024bd8     libucrt:lcidtoname_downlevel.obj
 0002:00005be8       ??_C@_1M@LPINJOMC@?$AAz?$AAh?$AA?9?$AAc?$AAn?$AA?$AA@ 10024be8     libucrt:lcidtoname_downlevel.obj
 0002:00005bf4       ??_C@_1M@OCJEJODD@?$AAz?$AAh?$AA?9?$AAh?$AAk?$AA?$AA@ 10024bf4     libucrt:lcidtoname_downlevel.obj
 0002:00005c00       ??_C@_1M@DNDLJINH@?$AAz?$AAh?$AA?9?$AAm?$AAo?$AA?$AA@ 10024c00     libucrt:lcidtoname_downlevel.obj
 0002:00005c0c       ??_C@_1M@MBFDNDND@?$AAz?$AAh?$AA?9?$AAs?$AAg?$AA?$AA@ 10024c0c     libucrt:lcidtoname_downlevel.obj
 0002:00005c18       ??_C@_1M@IMEPLEPE@?$AAz?$AAh?$AA?9?$AAt?$AAw?$AA?$AA@ 10024c18     libucrt:lcidtoname_downlevel.obj
 0002:00005c24       ??_C@_1M@BBGHNHJP@?$AAz?$AAu?$AA?9?$AAz?$AAa?$AA?$AA@ 10024c24     libucrt:lcidtoname_downlevel.obj
 0002:00005c30       ?large_power_data@?1??multiply_by_power_of_ten@__crt_strtox@@YA_NAAUbig_integer@2@I@Z@4QBIB 10024c30     libucrt:cfout.obj
 0002:00006538       ?large_power_indices@?1??multiply_by_power_of_ten@__crt_strtox@@YA_NAAUbig_integer@2@I@Z@4QBUunpack_index@?1??12@YA_N0I@Z@B 10025538     libucrt:cfout.obj
 0002:000065d0       ?small_powers_of_ten@?1??multiply_by_power_of_ten@__crt_strtox@@YA_NAAUbig_integer@2@I@Z@4QBIB 100255d0     libucrt:cfout.obj
 0002:000065f4       ??_C@_01GBGANLPD@0?$AA@    100255f4     libucrt:cfout.obj
 0002:000065f8       ??_C@_05DNEBIAHO@1?$CDINF?$AA@ 100255f8     libucrt:cfout.obj
 0002:00006600       ??_C@_06IMKFLFPG@1?$CDQNAN?$AA@ 10025600     libucrt:cfout.obj
 0002:00006608       ??_C@_06PGGFOGJG@1?$CDSNAN?$AA@ 10025608     libucrt:cfout.obj
 0002:00006610       ??_C@_05PHHOCPM@1?$CDIND?$AA@ 10025610     libucrt:cfout.obj
 0002:00006780       __infinity                 10025780     libucrt:87tran.obj
 0002:0000678a       __minfinity                1002578a     libucrt:87tran.obj
 0002:00006794       __logemax                  10025794     libucrt:87tran.obj
 0002:000067ba       __OP_EXPjmptab             100257ba     libucrt:87tran.obj
 0002:000067e0       __indefinite               100257e0     libucrt:87disp.obj
 0002:000067ea       __piby2                    100257ea     libucrt:87disp.obj
 0002:000067f4       __piby4                    100257f4     libucrt:87disp.obj
 0002:00006828       __DEFAULT_CW_in_mem        10025828     libucrt:common.obj
 0002:0000682a       __pi_by_2_to_61            1002582a     libucrt:common.obj
 0002:00006864       ??_C@_03MGHMBJCF@log?$AA@  10025864     libucrt:libm_error.obj
 0002:00006868       ??_C@_05HGHHAHAP@log10?$AA@ 10025868     libucrt:libm_error.obj
 0002:00006870       ??_C@_03KHJOGHMM@exp?$AA@  10025870     libucrt:libm_error.obj
 0002:00006874       ??_C@_03JGHBODFD@pow?$AA@  10025874     libucrt:libm_error.obj
 0002:00006878       ??_C@_04FIHNOPOL@asin?$AA@ 10025878     libucrt:libm_error.obj
 0002:00006880       ??_C@_04PDIFKINK@acos?$AA@ 10025880     libucrt:libm_error.obj
 0002:00006888       ??_C@_04EIAKFFMI@sqrt?$AA@ 10025888     libucrt:libm_error.obj
 0002:00006890       __real@3ff0000000000000    10025890     libucrt:libm_error.obj
 0002:000068b0       ___acrt_log10_table_t      100258b0     libucrt:log10_tables.obj
 0002:00006cc0       ___acrt_log10_table_cb     10025cc0     libucrt:log10_tables.obj
 0002:000070d0       __real@3fe0000000000000    100260d0     libucrt:powhlp.obj
 0002:000071c0       ??_C@_04COOMCNPB@sinh?$AA@ 100261c0     libucrt:fpexcept.obj
 0002:000071c8       ??_C@_04HPJJNFIM@cosh?$AA@ 100261c8     libucrt:fpexcept.obj
 0002:000071d0       ??_C@_04FJHINJAO@tanh?$AA@ 100261d0     libucrt:fpexcept.obj
 0002:000071d8       ??_C@_04MLLJIGOK@atan?$AA@ 100261d8     libucrt:fpexcept.obj
 0002:000071e0       ??_C@_05KNGEOGJB@atan2?$AA@ 100261e0     libucrt:fpexcept.obj
 0002:000071e8       ??_C@_03BLEJJJBH@sin?$AA@  100261e8     libucrt:fpexcept.obj
 0002:000071ec       ??_C@_03LALBNOCG@cos?$AA@  100261ec     libucrt:fpexcept.obj
 0002:000071f0       ??_C@_03IIINPABG@tan?$AA@  100261f0     libucrt:fpexcept.obj
 0002:000071f4       ??_C@_04GFPJNGEK@ceil?$AA@ 100261f4     libucrt:fpexcept.obj
 0002:000071fc       ??_C@_05PBJFFIGL@floor?$AA@ 100261fc     libucrt:fpexcept.obj
 0002:00007204       ??_C@_04ODHECPBC@fabs?$AA@ 10026204     libucrt:fpexcept.obj
 0002:0000720c       ??_C@_04EHEDPDJG@modf?$AA@ 1002620c     libucrt:fpexcept.obj
 0002:00007214       ??_C@_05CEJMAHNP@ldexp?$AA@ 10026214     libucrt:fpexcept.obj
 0002:0000721c       ??_C@_05KBKMEMPO@_cabs?$AA@ 1002621c     libucrt:fpexcept.obj
 0002:00007224       ??_C@_06MEIMCGCF@_hypot?$AA@ 10026224     libucrt:fpexcept.obj
 0002:0000722c       ??_C@_04KEPJIHGP@fmod?$AA@ 1002622c     libucrt:fpexcept.obj
 0002:00007234       ??_C@_05GKKHEGJL@frexp?$AA@ 10026234     libucrt:fpexcept.obj
 0002:0000723c       ??_C@_03MJLDFKDL@_y0?$AA@  1002623c     libucrt:fpexcept.obj
 0002:00007240       ??_C@_03NAKIGLHK@_y1?$AA@  10026240     libucrt:fpexcept.obj
 0002:00007244       ??_C@_03ONILCKOB@_yn?$AA@  10026244     libucrt:fpexcept.obj
 0002:00007248       ??_C@_05JGDBENOH@_logb?$AA@ 10026248     libucrt:fpexcept.obj
 0002:00007250       ??_C@_0L@KDOEJCKC@_nextafter?$AA@ 10026250     libucrt:fpexcept.obj
 0002:00007260       __d_inf                    10026260     libucrt:util.obj
 0002:00007268       __d_max                    10026268     libucrt:util.obj
 0002:00007270       __d_mzero                  10026270     libucrt:util.obj
 0002:00007278       ??_C@_1BA@BALFACEM@?$AAC?$AAO?$AAN?$AAO?$AAU?$AAT?$AA$?$AA?$AA@ 10026278     libucrt:initcon.obj
 0002:000072e8       __load_config_used         100262e8     LIBCMT:loadcfg.obj
 0002:00007388       __tls_used                 10026388     LIBCMT:tlssup.obj
 0002:000073a0       ??_R4exception@std@@6B@    100263a0     LIBCMT:throw_bad_alloc.obj
 0002:000073b4       ??_R3exception@std@@8      100263b4     LIBCMT:throw_bad_alloc.obj
 0002:000073c4       ??_R2exception@std@@8      100263c4     LIBCMT:throw_bad_alloc.obj
 0002:000073cc       ??_R1A@?0A@EA@exception@std@@8 100263cc     LIBCMT:throw_bad_alloc.obj
 0002:000073e8       ??_R4bad_alloc@std@@6B@    100263e8     LIBCMT:throw_bad_alloc.obj
 0002:000073fc       ??_R3bad_alloc@std@@8      100263fc     LIBCMT:throw_bad_alloc.obj
 0002:0000740c       ??_R2bad_alloc@std@@8      1002640c     LIBCMT:throw_bad_alloc.obj
 0002:00007418       ??_R1A@?0A@EA@bad_alloc@std@@8 10026418     LIBCMT:throw_bad_alloc.obj
 0002:00007434       ??_R4bad_array_new_length@std@@6B@ 10026434     LIBCMT:throw_bad_alloc.obj
 0002:00007448       ??_R3bad_array_new_length@std@@8 10026448     LIBCMT:throw_bad_alloc.obj
 0002:00007458       ??_R2bad_array_new_length@std@@8 10026458     LIBCMT:throw_bad_alloc.obj
 0002:00007468       ??_R1A@?0A@EA@bad_array_new_length@std@@8 10026468     LIBCMT:throw_bad_alloc.obj
 0002:00007484       ??_R4type_info@@6B@        10026484     LIBCMT:std_type_info_static.obj
 0002:00007498       ??_R3type_info@@8          10026498     LIBCMT:std_type_info_static.obj
 0002:000074a8       ??_R2type_info@@8          100264a8     LIBCMT:std_type_info_static.obj
 0002:000074b0       ??_R1A@?0A@EA@type_info@@8 100264b0     LIBCMT:std_type_info_static.obj
 0002:000074cc       ??_R4bad_exception@std@@6B@ 100264cc     libvcruntime:frame.obj
 0002:000074e0       ??_R3bad_exception@std@@8  100264e0     libvcruntime:frame.obj
 0002:000074f0       ??_R2bad_exception@std@@8  100264f0     libvcruntime:frame.obj
 0002:000074fc       ??_R1A@?0A@EA@bad_exception@std@@8 100264fc     libvcruntime:frame.obj
 0002:00007520       ___safe_se_handler_table   10026520     <linker-defined>
 0002:00007920       ___rtc_iaa                 10026920     LIBCMT:_initsect_.obj
 0002:00007924       ___rtc_izz                 10026924     LIBCMT:_initsect_.obj
 0002:00007928       ___rtc_taa                 10026928     LIBCMT:_initsect_.obj
 0002:0000792c       ___rtc_tzz                 1002692c     LIBCMT:_initsect_.obj
 0002:00007930       __tls_start                10026930     LIBCMT:tlssup.obj
 0002:00007934       __Init_thread_epoch        10026934     LIBCMT:thread_safe_statics.obj
 0002:00007938       __tls_end                  10026938     LIBCMT:tlssup.obj
 0002:00007a54       __TI2?AVbad_alloc@std@@    10026a54     LIBCMT:throw_bad_alloc.obj
 0002:00007a64       __CTA2?AVbad_alloc@std@@   10026a64     LIBCMT:throw_bad_alloc.obj
 0002:00007a70       __CT??_R0?AVbad_alloc@std@@@8??0bad_alloc@std@@QAE@ABV01@@Z12 10026a70     LIBCMT:throw_bad_alloc.obj
 0002:00007a8c       __CT??_R0?AVexception@std@@@8??0exception@std@@QAE@ABV01@@Z12 10026a8c     LIBCMT:throw_bad_alloc.obj
 0002:00007aa8       __TI3?AVbad_array_new_length@std@@ 10026aa8     LIBCMT:throw_bad_alloc.obj
 0002:00007ab8       __CTA3?AVbad_array_new_length@std@@ 10026ab8     LIBCMT:throw_bad_alloc.obj
 0002:00007ac8       __CT??_R0?AVbad_array_new_length@std@@@8??0bad_array_new_length@std@@QAE@ABV01@@Z12 10026ac8     LIBCMT:throw_bad_alloc.obj
 0002:00007bcc       __TI2?AVbad_exception@std@@ 10026bcc     libvcruntime:frame.obj
 0002:00007bdc       __CTA2?AVbad_exception@std@@ 10026bdc     libvcruntime:frame.obj
 0002:00007be8       __CT??_R0?AVbad_exception@std@@@8??0bad_exception@std@@QAE@ABV01@@Z12 10026be8     libvcruntime:frame.obj
 0002:00007f64       ___pobjMapEntryFirst       10026f64     OposVariant.obj
 0002:00007f68       ___pobjMapEntryLast        10026f68     OposVariant.obj
 0002:0000801c       __IMPORT_DESCRIPTOR_KERNEL32 1002701c     kernel32:KERNEL32.dll
 0002:00008030       __IMPORT_DESCRIPTOR_USER32 10027030     user32:USER32.dll
 0002:00008044       __IMPORT_DESCRIPTOR_GDI32  10027044     gdi32:GDI32.dll
 0002:00008058       __IMPORT_DESCRIPTOR_ADVAPI32 10027058     advapi32:ADVAPI32.dll
 0002:0000806c       __IMPORT_DESCRIPTOR_ole32  1002706c     ole32:ole32.dll
 0002:00008080       __IMPORT_DESCRIPTOR_OLEAUT32 10027080     oleaut32:OLEAUT32.dll
 0002:00008094       __NULL_IMPORT_DESCRIPTOR   10027094     kernel32:KERNEL32.dll
 0003:00000000       ?_tih@?$IProvideClassInfo2Impl@$1?CLSID_OPOSPointCardRW@@3U_GUID@@B$1?DIID__IOPOSPointCardRWEvents@@3U2@B$1?LIBID_OposPointCardRW_CCO@@3U2@B$00$0A@VCComTypeInfoHolder@ATL@@@ATL@@1VCComTypeInfoHolder@2@A 10028000     PointCardRW.obj
 0003:0000001c       ?vszContents@?6??Save@?$IPersistStorageImpl@VCOPOSPointCardRW@@@ATL@@UAGJPAUIStorage@@H@Z@4PB_WB 1002801c     PointCardRW.obj
 0003:00000020       ?wc@?1??GetWndClassInfo@?$CWindowImpl@VCOPOSPointCardRW@@VCWindow@ATL@@V?$CWinTraits@$0FGAAAAAA@$0A@@3@@ATL@@SAAAU_ATL_WNDCLASSINFOW@3@XZ@4U43@A 10028020     PointCardRW.obj
 0003:000000ac       ?s_Claim@?7??GetIDsOfNames@CComTypeInfoHolder@ATL@@QAEJABU_GUID@@PAPA_WIKPAJ@Z@4PA_WA 100280ac     PointCardRW.obj
 0003:000000c4       ?s_Release@?7??GetIDsOfNames@CComTypeInfoHolder@ATL@@QAEJABU_GUID@@PAPA_WIKPAJ@Z@4PA_WA 100280c4     PointCardRW.obj
 0003:000000e0       ?rcDefault@CWindow@ATL@@2UtagRECT@@A 100280e0     PointCardRW.obj
 0003:000000f0       ?_tih@?$IDispatchImpl@UIOPOSPointCardRW@@$1?IID_IOPOSPointCardRW@@3U_GUID@@B$1?LIBID_OposPointCardRW_CCO@@3U3@B$00$0A@VCComTypeInfoHolder@ATL@@@ATL@@1VCComTypeInfoHolder@2@A 100280f0     PointCardRW.obj
 0003:00000158       ?g_ControlVersion@@3JA     10028158     PointCardRWImpl.obj
 0003:0000015c       ?g_WindowName@@3PA_WA      1002815c     PointCardRWImpl.obj
 0003:00000184       ?g_ControlDescription@@3PADA 10028184     PointCardRWImpl.obj
 0003:0000024c       ___scrt_native_dllmain_reason 1002824c     LIBCMT:utility.obj
 0003:00000250       __Init_global_epoch        10028250     LIBCMT:thread_safe_statics.obj
 0003:00000260       ___security_cookie_complement 10028260     LIBCMT:gs_cookie.obj
 0003:00000264       ___security_cookie         10028264     LIBCMT:gs_cookie.obj
 0003:00000268       ___isa_enabled             10028268     LIBCMT:_cpu_disp_.obj
 0003:00000280       __NLG_Destination          10028280     libvcruntime:_exsup_.obj
 0003:00000298       ___abort_behavior          10028298     libucrt:abort.obj
 0003:000002a8       __iob                      100282a8     libucrt:_file.obj
 0003:00000350       ___acrt_initial_locale_data 10028350     libucrt:nlsdata.obj
 0003:00000408       ___acrt_initial_locale_pointers 10028408     libucrt:nlsdata.obj
 0003:00000410       ___acrt_wide_c_locale_string 10028410     libucrt:nlsdata.obj
 0003:00000718       ___acrt_initial_multibyte_data 10028718     libucrt:mbctype.obj
 0003:00000938       __pwctype                  10028938     libucrt:ctype.obj
 0003:0000093c       ___globallocalestatus      1002893c     libucrt:glstatus.obj
 0003:00000940       ___acrt_lconv_static_decimal 10028940     libucrt:localeconv.obj
 0003:00000944       ___acrt_lconv_static_W_decimal 10028944     libucrt:localeconv.obj
 0003:00000948       ___acrt_lconv_c            10028948     libucrt:localeconv.obj
 0003:000009a0       ___dcrt_lowio_console_output_handle 100289a0     libucrt:initcon.obj
 0003:000009b0       __fltused                  100289b0     LIBCMT:fltused.obj
 0003:000009c0       ??_R0?AVbad_alloc@std@@@8  100289c0     LIBCMT:throw_bad_alloc.obj
 0003:000009dc       ??_R0?AVexception@std@@@8  100289dc     LIBCMT:throw_bad_alloc.obj
 0003:000009f8       ??_R0?AVbad_array_new_length@std@@@8 100289f8     LIBCMT:throw_bad_alloc.obj
 0003:00000a20       ??_R0?AVtype_info@@@8      10028a20     LIBCMT:std_type_info_static.obj
 0003:00000a38       ??_R0?AVbad_exception@std@@@8 10028a38     libvcruntime:frame.obj
 0003:00000a58       ?m_bInitFailed@CAtlBaseModule@ATL@@2_NA 10028a58     OposVariant.obj
 0003:00000a5c       ?_pPerfRegFunc@ATL@@3P6AJPAUHINSTANCE__@@@ZA 10028a5c     OposVariant.obj
 0003:00000a60       ?_pPerfUnRegFunc@ATL@@3P6AJXZA 10028a60     OposVariant.obj
 0003:00000a64       ?_AtlRegisterPerUser@ATL@@3_NA 10028a64     OposVariant.obj
 0003:00000a68       ?_pAtlModule@ATL@@3PAVCAtlModule@1@A 10028a68     OposVariant.obj
 0003:00000a6c       ?_pModule@ATL@@3PAVCComModule@1@A 10028a6c     OposVariant.obj
 0003:00000a70       ?_AtlComModule@ATL@@3VCAtlComModule@1@A 10028a70     OposVariant.obj
 0003:00000a98       ?_AtlWinModule@ATL@@3VCAtlWinModule@1@A 10028a98     OposVariant.obj
 0003:00000ac4       ?_entries@?1??GetConnMap@COPOSPointCardRW@@SAPBU_ATL_CONNMAP_ENTRY@ATL@@PAH@Z@4QBU34@B 10028ac4     PointCardRW.obj
 0003:00000ad0       ?$TSS0@?1??GetConnMap@COPOSPointCardRW@@SAPBU_ATL_CONNMAP_ENTRY@ATL@@PAH@Z@4HA 10028ad0     PointCardRW.obj
 0003:00000ad8       ?_OptionsStorage@?1??__local_stdio_printf_options@@9@4_KA 10028ad8     PointCardRW.obj
 0003:00000ae0       ?m_libid@CAtlModule@ATL@@2U_GUID@@A 10028ae0     PointCardRW.obj
 0003:00000af0       ?_Module@@3VCComModule@ATL@@A 10028af0     PointCardRW.obj
 0003:00000b20       ?pConnMap@?$IConnectionPointContainerImpl@VCOPOSPointCardRW@@@ATL@@0PBU_ATL_CONNMAP_ENTRY@2@B 10028b20     PointCardRW.obj
 0003:00000b24       ?s_nInstances@COPOSPointCardRW@@1HA 10028b24     PointCardRWImpl.obj
 0003:00000b28       ___scrt_current_native_startup_state 10028b28     LIBCMT:utility.obj
 0003:00000b2c       ___scrt_native_startup_lock 10028b2c     LIBCMT:utility.obj
 0003:00000e94       __tls_index                10028e94     LIBCMT:tlssup.obj
 0003:00000e9c       ___isa_available           10028e9c     LIBCMT:_cpu_disp_.obj
 0003:00000ea0       ___favor                   10028ea0     LIBCMT:_cpu_disp_.obj
 0003:00000ea4       ___scrt_debugger_hook_flag 10028ea4     LIBCMT:utility_desktop.obj
 0003:00000ea8       ?__type_info_root_node@@3U__type_info_node@@A 10028ea8     LIBCMT:tncleanup.obj
 0003:00000eb0       ?_OptionsStorage@?1??__local_stdio_scanf_options@@9@4_KA 10028eb0     LIBCMT:default_local_stdio_options.obj
 0003:00000eb8       ?_AtlBaseModule@ATL@@3VCAtlBaseModule@1@A 10028eb8     atls:atlbase.obj
 0003:00000ef0       ?__AtlThunkPool@@3PAT_SLIST_HEADER@@A 10028ef0     atls:atlthunk.obj
 0003:00000f08       ___@@_PchSym_@00@UyrmzirvhUrmgvinvwrzgvUexgllohUzgohOmzgrevkilqPBACIAJCBDBUlyqiUcIGUhgwzucOlyq@4B2008FD98C1DD4 10028f08     atls:stdafx.obj
 0003:00000f0c       ___pPurecall               10028f0c     libvcruntime:purevirt_data.obj
 0003:00000f74       ?pArgList@UnDecorator@@0PAVReplicator@@A 10028f74     libvcruntime:undname.obj
 0003:00000f78       ?pZNameList@UnDecorator@@0PAVReplicator@@A 10028f78     libvcruntime:undname.obj
 0003:00000f7c       ?pTemplateArgList@UnDecorator@@0PAVReplicator@@A 10028f7c     libvcruntime:undname.obj
 0003:00000f80       ?gName@UnDecorator@@0PBDB  10028f80     libvcruntime:undname.obj
 0003:00000f84       ?name@UnDecorator@@0PBDB   10028f84     libvcruntime:undname.obj
 0003:00000f88       ?disableFlags@UnDecorator@@0KA 10028f88     libvcruntime:undname.obj
 0003:00000f8c       ?fExplicitTemplateParams@UnDecorator@@0_NA 10028f8c     libvcruntime:undname.obj
 0003:00000f8d       ?fGetTemplateArgumentList@UnDecorator@@0_NA 10028f8d     libvcruntime:undname.obj
 0003:00000f90       ?m_pGetParameter@UnDecorator@@0P6APADJ@ZA 10028f90     libvcruntime:undname.obj
 0003:00000f94       ?m_CHPENameOffset@UnDecorator@@0KA 10028f94     libvcruntime:undname.obj
 0003:00000f98       ?m_recursionLevel@UnDecorator@@0KA 10028f98     libvcruntime:undname.obj
 0003:00000fb0       ?__WinRTOutOfMemoryExceptionCallback@@3P6GPAXXZA 10028fb0     libvcruntime:ehhelpers.obj
 0003:00000fc0       ?c_exit_complete@?1???R<lambda_6e4b09c48022b2350581041d5f6b0c4c>@@QBE@XZ@4_NA 10028fc0     libucrt:exit.obj
 0003:000010d0       __environ_table            100290d0     libucrt:environment_initialization.obj
 0003:000010d4       __wenviron_table           100290d4     libucrt:environment_initialization.obj
 0003:000010d8       ___dcrt_initial_wide_environment 100290d8     libucrt:environment_initialization.obj
 0003:000010dc       ___dcrt_initial_narrow_environment 100290dc     libucrt:environment_initialization.obj
 0003:000010e0       ___acrt_atexit_table       100290e0     libucrt:onexit.obj
 0003:000010ec       ___acrt_at_quick_exit_table 100290ec     libucrt:onexit.obj
 0003:000011d8       __nstream                  100291d8     libucrt:_file.obj
 0003:000011dc       ___piob                    100291dc     libucrt:_file.obj
 0003:000011e4       ___acrt_stdout_buffer      100291e4     libucrt:_sftbuf.obj
 0003:000011e8       ___acrt_stderr_buffer      100291e8     libucrt:_sftbuf.obj
 0003:000011ec       ___acrt_locale_changed_data 100291ec     libucrt:wsetlocale.obj
 0003:000011f0       ___acrt_current_locale_data 100291f0     libucrt:nlsdata.obj
 0003:000011f8       ___pioinfo                 100291f8     libucrt:ioinit.obj
 0003:000013f8       __nhandle                  100293f8     libucrt:ioinit.obj
 0003:00001554       __mbctype                  10029554     libucrt:mbctype.obj
 0003:00001558       __mbcasemap                10029558     libucrt:mbctype.obj
 0003:0000155c       ___acrt_current_multibyte_data 1002955c     libucrt:mbctype.obj
 0003:00001568       ___argc                    10029568     libucrt:argv_data.obj
 0003:0000156c       ___argv                    1002956c     libucrt:argv_data.obj
 0003:00001570       ___wargv                   10029570     libucrt:argv_data.obj
 0003:00001574       __acmdln                   10029574     libucrt:argv_data.obj
 0003:00001578       __wcmdln                   10029578     libucrt:argv_data.obj
 0003:0000157c       __pgmptr                   1002957c     libucrt:argv_data.obj
 0003:00001580       ___acrt_heap               10029580     libucrt:heap_handle.obj
 0003:0000159c       ___acrt_lconv_static_null  1002959c     libucrt:localeconv.obj
 0003:000015a0       ___acrt_lconv_static_W_null 100295a0     libucrt:localeconv.obj
 0003:000015a8       ___fastflag                100295a8     libucrt:fp_flags.obj
 0003:000015b0       ___dyn_tls_init_callback   100295b0     <common>
 0003:000015b4       ___scrt_ucrt_dll_is_in_use 100295b4     <common>
 0003:000015b8       __pmatherr                 100295b8     <common>
 0003:000015bc       ___use_sse2_mathfcns       100295bc     <common>

 entry point at        0001:0000c53d

 Static symbols

 0000:fffce000       .debug$S                   10000000     kernel32:KERNEL32.dll
 0000:fffce000       .debug$S                   10000000     kernel32:KERNEL32.dll
 0000:fffce000       .debug$S                   10000000     kernel32:KERNEL32.dll
 0000:fffce000       .debug$S                   10000000     kernel32:KERNEL32.dll
 0000:fffce000       .debug$S                   10000000     kernel32:KERNEL32.dll
 0000:fffce000       .debug$S                   10000000     kernel32:KERNEL32.dll
 0000:fffce000       .debug$S                   10000000     kernel32:KERNEL32.dll
 0000:fffce000       .debug$S                   10000000     kernel32:KERNEL32.dll
 0000:fffce000       .debug$S                   10000000     kernel32:KERNEL32.dll
 0000:fffce000       .debug$S                   10000000     kernel32:KERNEL32.dll
 0000:fffce000       .debug$S                   10000000     kernel32:KERNEL32.dll
 0000:fffce000       .debug$S                   10000000     kernel32:KERNEL32.dll
 0000:fffce000       .debug$S                   10000000     kernel32:KERNEL32.dll
 0000:fffce000       .debug$S                   10000000     kernel32:KERNEL32.dll
 0000:fffce000       .debug$S                   10000000     kernel32:KERNEL32.dll
 0000:fffce000       .debug$S                   10000000     OPOSPointCardRW.exp
 0000:fffce000       .debug$S                   10000000     kernel32:KERNEL32.dll
 0000:fffce000       .debug$S                   10000000     kernel32:KERNEL32.dll
 0000:fffce000       .debug$S                   10000000     kernel32:KERNEL32.dll
 0000:fffce000       .debug$S                   10000000     kernel32:KERNEL32.dll
 0000:fffce000       .debug$S                   10000000     kernel32:KERNEL32.dll
 0000:fffce000       .debug$S                   10000000     kernel32:KERNEL32.dll
 0000:fffce000       .debug$S                   10000000     kernel32:KERNEL32.dll
 0000:fffce000       .debug$S                   10000000     kernel32:KERNEL32.dll
 0000:fffce000       .debug$S                   10000000     kernel32:KERNEL32.dll
 0000:fffce000       .debug$S                   10000000     kernel32:KERNEL32.dll
 0000:fffce000       .debug$S                   10000000     kernel32:KERNEL32.dll
 0000:fffce000       .debug$S                   10000000     kernel32:KERNEL32.dll
 0000:fffce000       .debug$S                   10000000     kernel32:KERNEL32.dll
 0000:fffce000       .debug$S                   10000000     kernel32:KERNEL32.dll
 0000:fffce000       .debug$S                   10000000     kernel32:KERNEL32.dll
 0000:fffce000       .debug$S                   10000000     kernel32:KERNEL32.dll
 0000:fffce000       .debug$S                   10000000     kernel32:KERNEL32.dll
 0000:fffce000       .debug$S                   10000000     kernel32:KERNEL32.dll
 0000:fffce000       .debug$S                   10000000     kernel32:KERNEL32.dll
 0000:fffce000       .debug$S                   10000000     kernel32:KERNEL32.dll
 0000:fffce000       .debug$S                   10000000     kernel32:KERNEL32.dll
 0000:fffce000       .debug$S                   10000000     kernel32:KERNEL32.dll
 0000:fffce000       .debug$S                   10000000     kernel32:KERNEL32.dll
 0000:fffce000       .debug$S                   10000000     kernel32:KERNEL32.dll
 0000:fffce000       .debug$S                   10000000     kernel32:KERNEL32.dll
 0000:fffce000       .debug$S                   10000000     kernel32:KERNEL32.dll
 0000:fffce000       .debug$S                   10000000     kernel32:KERNEL32.dll
 0000:fffce000       .debug$S                   10000000     kernel32:KERNEL32.dll
 0000:fffce000       .debug$S                   10000000     kernel32:KERNEL32.dll
 0000:fffce000       .debug$S                   10000000     kernel32:KERNEL32.dll
 0000:fffce000       .debug$S                   10000000     kernel32:KERNEL32.dll
 0000:fffce000       .debug$S                   10000000     kernel32:KERNEL32.dll
 0000:fffce000       .debug$S                   10000000     kernel32:KERNEL32.dll
 0000:fffce000       .debug$S                   10000000     kernel32:KERNEL32.dll
 0000:fffce000       .debug$S                   10000000     kernel32:KERNEL32.dll
 0000:fffce000       .debug$S                   10000000     kernel32:KERNEL32.dll
 0000:fffce000       .debug$S                   10000000     kernel32:KERNEL32.dll
 0000:fffce000       .debug$S                   10000000     kernel32:KERNEL32.dll
 0000:fffce000       .debug$S                   10000000     kernel32:KERNEL32.dll
 0000:fffce000       .debug$S                   10000000     kernel32:KERNEL32.dll
 0000:fffce000       .debug$S                   10000000     kernel32:KERNEL32.dll
 0000:fffce000       .debug$S                   10000000     kernel32:KERNEL32.dll
 0000:fffce000       .debug$S                   10000000     kernel32:KERNEL32.dll
 0000:fffce000       .debug$S                   10000000     kernel32:KERNEL32.dll
 0000:fffce000       .debug$S                   10000000     kernel32:KERNEL32.dll
 0000:fffce000       .debug$S                   10000000     kernel32:KERNEL32.dll
 0000:fffce000       .debug$S                   10000000     kernel32:KERNEL32.dll
 0000:fffce000       .debug$S                   10000000     kernel32:KERNEL32.dll
 0000:fffce000       .debug$S                   10000000     kernel32:KERNEL32.dll
 0000:fffce000       .debug$S                   10000000     kernel32:KERNEL32.dll
 0000:fffce000       .debug$S                   10000000     kernel32:KERNEL32.dll
 0000:fffce000       .debug$S                   10000000     kernel32:KERNEL32.dll
 0000:fffce000       .debug$S                   10000000     kernel32:KERNEL32.dll
 0000:fffce000       .debug$S                   10000000     kernel32:KERNEL32.dll
 0000:fffce000       .debug$S                   10000000     kernel32:KERNEL32.dll
 0000:fffce000       .debug$S                   10000000     kernel32:KERNEL32.dll
 0000:fffce000       .debug$S                   10000000     kernel32:KERNEL32.dll
 0000:fffce000       .debug$S                   10000000     kernel32:KERNEL32.dll
 0000:fffce000       .debug$S                   10000000     kernel32:KERNEL32.dll
 0000:fffce000       .debug$S                   10000000     kernel32:KERNEL32.dll
 0000:fffce000       .debug$S                   10000000     kernel32:KERNEL32.dll
 0000:fffce000       .debug$S                   10000000     kernel32:KERNEL32.dll
 0000:fffce000       .debug$S                   10000000     kernel32:KERNEL32.dll
 0000:fffce000       .debug$S                   10000000     kernel32:KERNEL32.dll
 0000:fffce000       .debug$S                   10000000     kernel32:KERNEL32.dll
 0000:fffce000       .debug$S                   10000000     kernel32:KERNEL32.dll
 0000:fffce000       .debug$S                   10000000     kernel32:KERNEL32.dll
 0000:fffce000       .debug$S                   10000000     kernel32:KERNEL32.dll
 0000:fffce000       .debug$S                   10000000     kernel32:KERNEL32.dll
 0000:fffce000       .debug$S                   10000000     kernel32:KERNEL32.dll
 0000:fffce000       .debug$S                   10000000     kernel32:KERNEL32.dll
 0000:fffce000       .debug$S                   10000000     kernel32:KERNEL32.dll
 0000:fffce000       .debug$S                   10000000     kernel32:KERNEL32.dll
 0000:fffce000       .debug$S                   10000000     kernel32:KERNEL32.dll
 0000:fffce000       .debug$S                   10000000     kernel32:KERNEL32.dll
 0000:fffce000       .debug$S                   10000000     kernel32:KERNEL32.dll
 0000:fffce000       .debug$S                   10000000     kernel32:KERNEL32.dll
 0000:fffce000       .debug$S                   10000000     kernel32:KERNEL32.dll
 0000:fffce000       .debug$S                   10000000     kernel32:KERNEL32.dll
 0000:fffce000       .debug$S                   10000000     kernel32:KERNEL32.dll
 0000:fffce000       .debug$S                   10000000     kernel32:KERNEL32.dll
 0000:fffce000       .debug$S                   10000000     kernel32:KERNEL32.dll
 0000:fffce000       .debug$S                   10000000     kernel32:KERNEL32.dll
 0000:fffce000       .debug$S                   10000000     kernel32:KERNEL32.dll
 0000:fffce000       .debug$S                   10000000     kernel32:KERNEL32.dll
 0000:fffce000       .debug$S                   10000000     kernel32:KERNEL32.dll
 0000:fffce000       .debug$S                   10000000     kernel32:KERNEL32.dll
 0000:fffce000       .debug$S                   10000000     kernel32:KERNEL32.dll
 0000:fffce000       .debug$S                   10000000     kernel32:KERNEL32.dll
 0000:fffce000       .debug$S                   10000000     kernel32:KERNEL32.dll
 0000:fffce000       .debug$S                   10000000     kernel32:KERNEL32.dll
 0000:fffce000       .debug$S                   10000000     kernel32:KERNEL32.dll
 0000:fffce000       .debug$S                   10000000     user32:USER32.dll
 0000:fffce000       .debug$S                   10000000     user32:USER32.dll
 0000:fffce000       .debug$S                   10000000     user32:USER32.dll
 0000:fffce000       .debug$S                   10000000     user32:USER32.dll
 0000:fffce000       .debug$S                   10000000     user32:USER32.dll
 0000:fffce000       .debug$S                   10000000     user32:USER32.dll
 0000:fffce000       .debug$S                   10000000     user32:USER32.dll
 0000:fffce000       .debug$S                   10000000     user32:USER32.dll
 0000:fffce000       .debug$S                   10000000     user32:USER32.dll
 0000:fffce000       .debug$S                   10000000     user32:USER32.dll
 0000:fffce000       .debug$S                   10000000     user32:USER32.dll
 0000:fffce000       .debug$S                   10000000     user32:USER32.dll
 0000:fffce000       .debug$S                   10000000     user32:USER32.dll
 0000:fffce000       .debug$S                   10000000     user32:USER32.dll
 0000:fffce000       .debug$S                   10000000     user32:USER32.dll
 0000:fffce000       .debug$S                   10000000     user32:USER32.dll
 0000:fffce000       .debug$S                   10000000     user32:USER32.dll
 0000:fffce000       .debug$S                   10000000     user32:USER32.dll
 0000:fffce000       .debug$S                   10000000     user32:USER32.dll
 0000:fffce000       .debug$S                   10000000     user32:USER32.dll
 0000:fffce000       .debug$S                   10000000     user32:USER32.dll
 0000:fffce000       .debug$S                   10000000     user32:USER32.dll
 0000:fffce000       .debug$S                   10000000     user32:USER32.dll
 0000:fffce000       .debug$S                   10000000     user32:USER32.dll
 0000:fffce000       .debug$S                   10000000     user32:USER32.dll
 0000:fffce000       .debug$S                   10000000     user32:USER32.dll
 0000:fffce000       .debug$S                   10000000     user32:USER32.dll
 0000:fffce000       .debug$S                   10000000     user32:USER32.dll
 0000:fffce000       .debug$S                   10000000     user32:USER32.dll
 0000:fffce000       .debug$S                   10000000     user32:USER32.dll
 0000:fffce000       .debug$S                   10000000     user32:USER32.dll
 0000:fffce000       .debug$S                   10000000     user32:USER32.dll
 0000:fffce000       .debug$S                   10000000     user32:USER32.dll
 0000:fffce000       .debug$S                   10000000     user32:USER32.dll
 0000:fffce000       .debug$S                   10000000     user32:USER32.dll
 0000:fffce000       .debug$S                   10000000     gdi32:GDI32.dll
 0000:fffce000       .debug$S                   10000000     gdi32:GDI32.dll
 0000:fffce000       .debug$S                   10000000     gdi32:GDI32.dll
 0000:fffce000       .debug$S                   10000000     gdi32:GDI32.dll
 0000:fffce000       .debug$S                   10000000     gdi32:GDI32.dll
 0000:fffce000       .debug$S                   10000000     gdi32:GDI32.dll
 0000:fffce000       .debug$S                   10000000     gdi32:GDI32.dll
 0000:fffce000       .debug$S                   10000000     gdi32:GDI32.dll
 0000:fffce000       .debug$S                   10000000     gdi32:GDI32.dll
 0000:fffce000       .debug$S                   10000000     gdi32:GDI32.dll
 0000:fffce000       .debug$S                   10000000     gdi32:GDI32.dll
 0000:fffce000       .debug$S                   10000000     gdi32:GDI32.dll
 0000:fffce000       .debug$S                   10000000     gdi32:GDI32.dll
 0000:fffce000       .debug$S                   10000000     gdi32:GDI32.dll
 0000:fffce000       .debug$S                   10000000     gdi32:GDI32.dll
 0000:fffce000       .debug$S                   10000000     gdi32:GDI32.dll
 0000:fffce000       .debug$S                   10000000     gdi32:GDI32.dll
 0000:fffce000       .debug$S                   10000000     gdi32:GDI32.dll
 0000:fffce000       .debug$S                   10000000     gdi32:GDI32.dll
 0000:fffce000       .debug$S                   10000000     advapi32:ADVAPI32.dll
 0000:fffce000       .debug$S                   10000000     advapi32:ADVAPI32.dll
 0000:fffce000       .debug$S                   10000000     advapi32:ADVAPI32.dll
 0000:fffce000       .debug$S                   10000000     advapi32:ADVAPI32.dll
 0000:fffce000       .debug$S                   10000000     advapi32:ADVAPI32.dll
 0000:fffce000       .debug$S                   10000000     advapi32:ADVAPI32.dll
 0000:fffce000       .debug$S                   10000000     advapi32:ADVAPI32.dll
 0000:fffce000       .debug$S                   10000000     advapi32:ADVAPI32.dll
 0000:fffce000       .debug$S                   10000000     advapi32:ADVAPI32.dll
 0000:fffce000       .debug$S                   10000000     ole32:ole32.dll
 0000:fffce000       .debug$S                   10000000     ole32:ole32.dll
 0000:fffce000       .debug$S                   10000000     ole32:ole32.dll
 0000:fffce000       .debug$S                   10000000     ole32:ole32.dll
 0000:fffce000       .debug$S                   10000000     ole32:ole32.dll
 0000:fffce000       .debug$S                   10000000     ole32:ole32.dll
 0000:fffce000       .debug$S                   10000000     ole32:ole32.dll
 0000:fffce000       .debug$S                   10000000     ole32:ole32.dll
 0000:fffce000       .debug$S                   10000000     ole32:ole32.dll
 0000:fffce000       .debug$S                   10000000     ole32:ole32.dll
 0000:fffce000       .debug$S                   10000000     ole32:ole32.dll
 0000:fffce000       .debug$S                   10000000     ole32:ole32.dll
 0000:fffce000       .debug$S                   10000000     ole32:ole32.dll
 0000:fffce000       .debug$S                   10000000     ole32:ole32.dll
 0000:fffce000       .debug$S                   10000000     oleaut32:OLEAUT32.dll
 0000:fffce000       .debug$S                   10000000     oleaut32:OLEAUT32.dll
 0000:fffce000       .debug$S                   10000000     oleaut32:OLEAUT32.dll
 0000:fffce000       .debug$S                   10000000     oleaut32:OLEAUT32.dll
 0000:fffce000       .debug$S                   10000000     oleaut32:OLEAUT32.dll
 0000:fffce000       .debug$S                   10000000     oleaut32:OLEAUT32.dll
 0000:fffce000       .debug$S                   10000000     oleaut32:OLEAUT32.dll
 0000:fffce000       .debug$S                   10000000     oleaut32:OLEAUT32.dll
 0000:fffce000       .debug$S                   10000000     oleaut32:OLEAUT32.dll
 0000:fffce000       .debug$S                   10000000     oleaut32:OLEAUT32.dll
 0000:fffce000       .debug$S                   10000000     oleaut32:OLEAUT32.dll
 0000:fffce000       .debug$S                   10000000     oleaut32:OLEAUT32.dll
 0000:fffce000       .debug$S                   10000000     oleaut32:OLEAUT32.dll
 0000:fffce000       .debug$S                   10000000     oleaut32:OLEAUT32.dll
 0000:fffce000       .debug$S                   10000000     oleaut32:OLEAUT32.dll
 0000:fffce000       .debug$S                   10000000     oleaut32:OLEAUT32.dll
 0001:00000000       ??__E_AtlComModule@ATL@@YAXXZ 10001000 f   OposVariant.obj
 0001:00000016       ??__E_AtlWinModule@ATL@@YAXXZ 10001016 f   OposVariant.obj
 0001:0000002c       ??__E?pConnMap@?$IConnectionPointContainerImpl@VCOPOSPointCardRW@@@ATL@@0PBU_ATL_CONNMAP_ENTRY@2@B@@YAXXZ 1000102c f   PointCardRW.obj
 0001:0000003a       ??__E_Module@@YAXXZ        1000103a f   PointCardRW.obj
 0001:00000064       ??__E_AtlBaseModule@ATL@@YAXXZ 10001064 f   atls:atlbase.obj
 0001:000007e4       $LN37                      100017e4     PointCardRW.obj
 0001:00005d7c       $LN53                      10006d7c     PointCardRW.obj
 0001:00005d94       $LN49                      10006d94     PointCardRW.obj
 0001:00007bcc       $LN45                      10008bcc     PointCardRW.obj
 0001:00007be4       $LN36                      10008be4     PointCardRW.obj
 0001:00009197       $LN87                      1000a197     PointCardRW.obj
 0001:000091af       $LN81                      1000a1af     PointCardRW.obj
 0001:0000948d       _memcpy_s                  1000a48d f   PointCardRW.obj
 0001:0000b93f       ?find_pe_section@@YAPAU_IMAGE_SECTION_HEADER@@QAEI@Z 1000c93f f   LIBCMT:utility.obj
 0001:0000bc8a       ?__scrt_initialize_thread_safe_statics@@YAHXZ 1000cc8a f   LIBCMT:thread_safe_statics.obj
 0001:0000bcb1       ?__scrt_initialize_thread_safe_statics_platform_specific@@YAXXZ 1000ccb1 f   LIBCMT:thread_safe_statics.obj
 0001:0000bda0       ?__scrt_uninitialize_thread_safe_statics@@YAXXZ 1000cda0 f   LIBCMT:thread_safe_statics.obj
 0001:0000c12d       __catch$??2@YAPAXIABUnothrow_t@std@@@Z$0 1000d12d f   LIBCMT:new_scalar_nothrow.obj
 0001:0000c160       $$000000                   1000d160     LIBCMT:_sehprolg4gs_.obj
 0001:0000c1c0       $$000000                   1000d1c0     LIBCMT:alloca16.obj
 0001:0000c1f0       $$000000                   1000d1f0     LIBCMT:chkstk.obj
 0001:0000c21d       ?dllmain_crt_dispatch@@YGHQAUHINSTANCE__@@KQAX@Z 1000d21d f   LIBCMT:dll_dllmain.obj
 0001:0000c270       ?dllmain_crt_process_attach@@YAHQAUHINSTANCE__@@QAX@Z 1000d270 f   LIBCMT:dll_dllmain.obj
 0001:0000c37a       ?dllmain_crt_process_detach@@YAH_N@Z 1000d37a f   LIBCMT:dll_dllmain.obj
 0001:0000c40c       ?dllmain_dispatch@@YAHQAUHINSTANCE__@@KQAX@Z 1000d40c f   LIBCMT:dll_dllmain.obj
 0001:0000c512       ?dllmain_raw@@YGHQAUHINSTANCE__@@KQAX@Z 1000d512 f   LIBCMT:dll_dllmain.obj
 0001:0000c860       $$000000                   1000d860     LIBCMT:_sehprolg4_.obj
 0001:0000c8bc       ___get_entropy             1000d8bc f   LIBCMT:gs_support.obj
 0001:0000cbb3       ??$GetProcAddressAll@P6GXPAUAtlThunkData_t@@@Z@@YAP6GXPAUAtlThunkData_t@@@ZPAP6GX0@Z@Z 1000dbb3 f   atls:atlthunk.obj
 0001:0000cbb3       ??$GetProcAddressAll@P6GP6GJPAUHWND__@@IIJ@ZPAUAtlThunkData_t@@@Z@@YAP6GP6GJPAUHWND__@@IIJ@ZPAUAtlThunkData_t@@@ZPAP6GP6GJ0IIJ@Z1@Z@Z 1000dbb3 f   atls:atlthunk.obj
 0001:0000cbb3       ??$GetProcAddressAll@P6GXPAUAtlThunkData_t@@PAXI@Z@@YAP6GXPAUAtlThunkData_t@@PAXI@ZPAP6GX01I@Z@Z 1000dbb3 f   atls:atlthunk.obj
 0001:0000cbb3       ??$GetProcAddressAll@P6GPAUAtlThunkData_t@@XZ@@YAP6GPAUAtlThunkData_t@@XZPAP6GPAU0@XZ@Z 1000dbb3 f   atls:atlthunk.obj
 0001:0000cc63       ?GetProcAddressSingle@@YA_NPAUHINSTANCE__@@PBDPAPAX@Z 1000dc63 f   atls:atlthunk.obj
 0001:0000cdb5       ?__InitializeThunkPool@@YAHXZ 1000ddb5 f   atls:atlthunk.obj
 0001:0000d220       _ValidateLocalCookies      1000e220 f   libvcruntime:_chandler4_.obj
 0001:0000e2db       $LN1285                    1000f2db     libvcruntime:_memcmp_.obj
 0001:0000e360       $$000000                   1000f360     libvcruntime:memcpy.obj
 0001:0000e5c4       TrailingUpVec              1000f5c4     libvcruntime:memcpy.obj
 0001:0000e670       TrailingDownVec            1000f670     libvcruntime:memcpy.obj
 0001:0000e8e0       $$000000                   1000f8e0     libvcruntime:memset.obj
 0001:0000efa0       $$000000                   1000ffa0     libvcruntime:memmove.obj
 0001:0000f204       TrailingUpVec              10010204     libvcruntime:memmove.obj
 0001:0000f2b0       TrailingDownVec            100102b0     libvcruntime:memmove.obj
 0001:0000f520       $$000000                   10010520     libvcruntime:_exsup4_.obj
 0001:0000f5b0       __unwind_handler4          100105b0 f   libvcruntime:_exsup4_.obj
 0001:0000f88f       ?try_get_first_available_module@@YAPAUHINSTANCE__@@QBW4module_id@?A0x03f7da57@@0@Z 1001088f f   libvcruntime:winapi_downlevel.obj
 0001:0000f953       ?try_get_function@@YAPAXW4function_id@?A0x03f7da57@@QBDQBW4module_id@2@2@Z 10010953 f   libvcruntime:winapi_downlevel.obj
 0001:0000fb53       ??$BuildCatchObjectHelperInternal@$$CBU_s_HandlerType@@@@YAHPAUEHExceptionRecord@@PAXPBU_s_HandlerType@@PBU_s_CatchableType@@@Z 10010b53 f   libvcruntime:frame.obj
 0001:0000fc92       ??$BuildCatchObjectInternal@$$CBU_s_HandlerType@@@@YAXPAUEHExceptionRecord@@PAXPBU_s_HandlerType@@PBU_s_CatchableType@@@Z 10010c92 f   libvcruntime:frame.obj
 0001:0000fd2b       ??$CatchIt@V__FrameHandler3@@@@YAXPAUEHExceptionRecord@@PAUEHRegistrationNode@@PAU_CONTEXT@@PAXPBU_s_FuncInfo@@PBU_s_HandlerType@@PBU_s_CatchableType@@PBU_s_TryBlockMapEntry@@H1E@Z 10010d2b f   libvcruntime:frame.obj
 0001:0000fdab       ??$FindHandler@V__FrameHandler3@@@@YAXPAUEHExceptionRecord@@PAUEHRegistrationNode@@PAU_CONTEXT@@PAXPBU_s_FuncInfo@@EH1@Z 10010dab f   libvcruntime:frame.obj
 0001:00010139       ??$FindHandlerForForeignException@V__FrameHandler3@@@@YAXPAUEHExceptionRecord@@PAUEHRegistrationNode@@PAU_CONTEXT@@PAXPBU_s_FuncInfo@@HH1@Z 10011139 f   libvcruntime:frame.obj
 0001:0001042c       ?CallCatchBlock@@YAPAXPAUEHExceptionRecord@@PAUEHRegistrationNode@@PAU_CONTEXT@@PBU_s_FuncInfo@@PAXHK@Z 1001142c f   libvcruntime:frame.obj
 0001:000105f0       ?CallUnexpected@@YAXPBU_s_ESTypeList@@@Z 100115f0 f   libvcruntime:frame.obj
 0001:00010610       __catch$?CallUnexpected@@YAXPBU_s_ESTypeList@@@Z$0 10011610 f   libvcruntime:frame.obj
 0001:0001062a       ?ExFilterRethrow@@YAHPAU_EXCEPTION_POINTERS@@@Z 1001162a f   libvcruntime:frame.obj
 0001:00010774       ?IsInExceptionSpec@@YAEPAUEHExceptionRecord@@PBU_s_ESTypeList@@@Z 10011774 f   libvcruntime:frame.obj
 0001:00010840       $$000000                   10011840     libvcruntime:lowhelpr.obj
 0001:00010890       $$000000                   10011890     libvcruntime:_exsup_.obj
 0001:000108b1       __unwind_handler           100118b1 f   libvcruntime:_exsup_.obj
 0001:0001103c       ??$common_tcsncpy_s@_W@@YAHQA_WIQB_WI@Z 1001203c f   libucrt:wcsncpy_s.obj
 0001:00011114       ??$common_vsprintf@Vformat_validation_base@__crt_stdio_output@@_W@@YAH_KQA_WIQB_WQAU__crt_locale_pointers@@QAD@Z 10012114 f   libucrt:output.obj
 0001:0001129d       ??$common_vsprintf_s@_W@@YAH_KQA_WIQB_WQAU__crt_locale_pointers@@QAD@Z 1001229d f   libucrt:output.obj
 0001:0001194a       $LN52                      1001294a     libucrt:output.obj
 0001:00011e3c       $LN19                      10012e3c     libucrt:output.obj
 0001:0001272d       ??R<lambda_6e4b09c48022b2350581041d5f6b0c4c>@@QBE@XZ 1001372d f   libucrt:exit.obj
 0001:00012809       ?atexit_exception_filter@@YAHK@Z 10013809 f   libucrt:exit.obj
 0001:0001281c       ?common_exit@@YAXHW4_crt_exit_cleanup_mode@@W4_crt_exit_return_mode@@@Z 1001381c f   libucrt:exit.obj
 0001:00012872       ?exit_or_terminate_process@@YAXI@Z 10013872 f   libucrt:exit.obj
 0001:000128b4       ?is_managed_app@@YA_NXZ    100138b4 f   libucrt:exit.obj
 0001:000128f8       ?try_cor_exit_process@@YAXI@Z 100138f8 f   libucrt:exit.obj
 0001:0001299c       ??$common_configure_argv@D@@YAHW4_crt_argv_mode@@@Z 1001399c f   libucrt:argv_parsing.obj
 0001:00012ad2       ??$parse_command_line@D@@YAXPADPAPAD0PAI2@Z 10013ad2 f   libucrt:argv_parsing.obj
 0001:00012ca7       ??$common_initialize_environment_nolock@D@@YAHXZ 10013ca7 f   libucrt:environment_initialization.obj
 0001:00012d00       ??$create_environment@D@@YAQAPADQAD@Z 10013d00 f   libucrt:environment_initialization.obj
 0001:00012dd1       ??$free_environment@_W@@YAXQAPA_W@Z 10013dd1 f   libucrt:environment_initialization.obj
 0001:00012dd1       ??$free_environment@D@@YAXQAPAD@Z 10013dd1 f   libucrt:environment_initialization.obj
 0001:00012e40       ??$uninitialize_environment_internal@D@@YAXAAPAPAD@Z 10013e40 f   libucrt:environment_initialization.obj
 0001:00012e5b       ??$uninitialize_environment_internal@_W@@YAXAAPAPA_W@Z 10013e5b f   libucrt:environment_initialization.obj
 0001:00012ff4       ??R<lambda_22ebabd17bc4fa466a2aca6d8deb888d>@@QBEHXZ 10013ff4 f   libucrt:onexit.obj
 0001:00013135       ??R<lambda_f03950bc5685219e0bcd2087efbe011e>@@QBEHXZ 10014135 f   libucrt:onexit.obj
 0001:000132e7       _initialize_global_variables 100142e7 f   libucrt:initialization.obj
 0001:000132f9       _initialize_c              100142f9 f   libucrt:initialization.obj
 0001:00013313       _initialize_environment    10014313 f   libucrt:initialization.obj
 0001:00013313       _uninitialize_global_state_isolation 10014313 f   libucrt:initialization.obj
 0001:00013313       _initialize_global_state_isolation 10014313 f   libucrt:initialization.obj
 0001:00013313       _report_memory_leaks       10014313 f   libucrt:initialization.obj
 0001:00013313       _uninitialize_c            10014313 f   libucrt:initialization.obj
 0001:00013316       _uninitialize_environment  10014316 f   libucrt:initialization.obj
 0001:0001331e       _initialize_pointers       1001431e f   libucrt:initialization.obj
 0001:0001335b       _uninitialize_vcruntime    1001435b f   libucrt:initialization.obj
 0001:00013364       _uninitialize_allocated_memory 10014364 f   libucrt:initialization.obj
 0001:000133c8       ??R<lambda_af42a3ee9806e9a7305d451646e05244>@@QBEXAAPAU__crt_multibyte_data@@@Z 100143c8 f   libucrt:initialization.obj
 0001:00013e40       $$000000                   10014e40     libucrt:strncmp.obj
 0001:000140d6       ?construct_ptd@@YAXQAU__acrt_ptd@@QAPAU__crt_locale_data@@@Z 100150d6 f   libucrt:per_thread_data.obj
 0001:0001414f       ?destroy_fls@@YGXPAX@Z     1001514f f   libucrt:per_thread_data.obj
 0001:00014170       ?destroy_ptd@@YAXQAU__acrt_ptd@@@Z 10015170 f   libucrt:per_thread_data.obj
 0001:00014219       ?replace_current_thread_locale_nolock@@YAXQAU__acrt_ptd@@QAU__crt_locale_data@@@Z 10015219 f   libucrt:per_thread_data.obj
 0001:00014629       ?try_get_LCMapStringEx@@YAP6GHPB_WK0HPA_WHPAU_nlsversioninfo@@PAXJ@ZXZ 10015629 f   libucrt:winapi_thunks.obj
 0001:00014643       ?try_get_LocaleNameToLCID@@YAP6GKPB_WK@ZXZ 10015643 f   libucrt:winapi_thunks.obj
 0001:0001465d       ?try_get_first_available_module@@YAPAUHINSTANCE__@@QBW4module_id@?A0x391cf84c@@0@Z 1001565d f   libucrt:winapi_thunks.obj
 0001:00014725       ?try_get_function@@YAPAXW4function_id@?A0x391cf84c@@QBDQBW4module_id@2@2@Z 10015725 f   libucrt:winapi_thunks.obj
 0001:00014b8a       ??$common_tox_l@$1?internal_isupper_l@@YA_NHQAU__crt_locale_pointers@@@Z$1?internal_map_lower@@YAHH0@Z@@YAHHKQAU__crt_locale_pointers@@@Z 10015b8a f   libucrt:tolower_toupper.obj
 0001:00014cd4       ?internal_isupper_l@@YA_NHQAU__crt_locale_pointers@@@Z 10015cd4 f   libucrt:tolower_toupper.obj
 0001:0001512d       ?fp_format_a@@YAHQBNPADIQADIH_NIQAU__crt_locale_pointers@@@Z 1001612d f   libucrt:cvt.obj
 0001:00015441       ?fp_format_e@@YAHQBNQADI1IH_NIQAU__crt_locale_pointers@@@Z 10016441 f   libucrt:cvt.obj
 0001:000154dc       ?fp_format_e_internal@@YAHQADIH_NIQAU_strflt@@1QAU__crt_locale_pointers@@@Z 100164dc f   libucrt:cvt.obj
 0001:00015627       ?fp_format_f@@YAHQBNQADI1IHQAU__crt_locale_pointers@@@Z 10016627 f   libucrt:cvt.obj
 0001:000156b4       ?fp_format_f_internal@@YAHQADIHQAU_strflt@@_NQAU__crt_locale_pointers@@@Z 100166b4 f   libucrt:cvt.obj
 0001:0001578b       ?fp_format_g@@YAHQBNQADI1IH_NIQAU__crt_locale_pointers@@@Z 1001678b f   libucrt:cvt.obj
 0001:00015853       ?fp_format_nan_or_infinity@@YAHW4__acrt_fp_class@@_NPADI1@Z 10016853 f   libucrt:cvt.obj
 0001:0001594b       ?shift_bytes@@YAXQADI0H@Z  1001694b f   libucrt:cvt.obj
 0001:00015d02       ?initialize_inherited_file_handles_nolock@@YAXXZ 10016d02 f   libucrt:ioinit.obj
 0001:00015db8       ?initialize_stdio_handles_nolock@@YAXXZ 10016db8 f   libucrt:ioinit.obj
 0001:00015fae       ?<lambda_invoker_cdecl>@<lambda_86056e3c024bff449830248dc1621ed2>@@CAHPBX0@Z 10016fae f   libucrt:argv_wildcards.obj
 0001:00015fc6       ??$common_expand_argv_wildcards@D@@YAHQAPADQAPAPAD@Z 10016fc6 f   libucrt:argv_wildcards.obj
 0001:000161a6       ??$copy_and_add_argument_to_buffer@D@@YAHQBD0IAAV?$argument_list@D@?A0x5f5c8891@@@Z 100171a6 f   libucrt:argv_wildcards.obj
 0001:0001625a       ??$expand_argument_wildcards@D@@YAHQAD0AAV?$argument_list@D@?A0x5f5c8891@@@Z 1001725a f   libucrt:argv_wildcards.obj
 0001:000163de       ?expand_if_necessary@?$argument_list@D@?A0x5f5c8891@@AAEHXZ 100173de f   libucrt:argv_wildcards.obj
 0001:000164db       ??R<lambda_ae742caa10f662c28703da3d2ea5e57e>@@QBEXXZ 100174db f   libucrt:mbctype.obj
 0001:0001655e       ?CPtoLocaleName@@YAPB_WH@Z 1001755e f   libucrt:mbctype.obj
 0001:0001659c       ?getSystemCP@@YAHH@Z       1001759c f   libucrt:mbctype.obj
 0001:0001660f       ?setSBCS@@YAXPAU__crt_multibyte_data@@@Z 1001760f f   libucrt:mbctype.obj
 0001:00016674       ?setSBUpLow@@YAXPAU__crt_multibyte_data@@@Z 10017674 f   libucrt:mbctype.obj
 0001:00016808       ?setmbcp_internal@@YAHH_NQAU__acrt_ptd@@QAPAU__crt_multibyte_data@@@Z 10017808 f   libucrt:mbctype.obj
 0001:00016915       ?update_thread_multibyte_data_internal@@YAPAU__crt_multibyte_data@@QAU__acrt_ptd@@QAU1@@Z 10017915 f   libucrt:mbctype.obj
 0001:00016bfa       _memcpy_s                  10017bfa f   libucrt:mbctype.obj
 0001:00016bfa       _memcpy_s                  10017bfa f   libucrt:cfout.obj
 0001:00016c7b       ?x_ismbbtype_l@@YAHPAU__crt_locale_pointers@@IHH@Z 10017c7b f   libucrt:ismbbyte.obj
 0001:00016d05       ?find_end_of_double_null_terminated_sequence@@YAPB_WQB_W@Z 10017d05 f   libucrt:get_environment_from_os.obj
 0001:00016f2c       ?get_global_action_nolock@@YAPAP6AXH@ZH@Z 10017f2c f   libucrt:signal.obj
 0001:00016f6e       ?siglookup@@YAPAU__crt_signal_action_t@@HQAU1@@Z 10017f6e f   libucrt:signal.obj
 0001:0001775d       ?GetTableIndexFromLocaleName@@YAHPB_W@Z 1001875d f   libucrt:lcidtoname_downlevel.obj
 0001:0001787e       ?__acrt_LCMapStringA_stat@@YAHPAU__crt_locale_pointers@@PB_WKPBDHPADHHH@Z 1001887e f   libucrt:lcmapstringa.obj
 0001:00019676       ?common_flush_all@@YAH_N@Z 1001a676 f   libucrt:fflush.obj
 0001:000196b5       ?common_flush_all_should_try_to_flush_stream@@YA_NV__crt_stdio_stream@@QAH@Z 1001a6b5 f   libucrt:fflush.obj
 0001:000196e7       ?is_stream_flushable_or_commitable@@YA_NJ@Z 1001a6e7 f   libucrt:fflush.obj
 0001:000199b8       ?free_crt_array_internal@@YAXQAPBXI@Z 1001a9b8 f   libucrt:inittime.obj
 0001:00019e80       ?shortsort@@YAXPAD0IP6AHPBX1@Z@Z 1001ae80 f   libucrt:qsort.obj
 0001:00019f20       ?swap@@YAXPAD0I@Z          1001af20 f   libucrt:qsort.obj
 0001:0001a2fa       ??$common_tcsncpy_s@D@@YAHQADIQBDI@Z 1001b2fa f   libucrt:strncpy_s.obj
 0001:0001a3c0       $$000000                   1001b3c0     libucrt:strpbrk.obj
 0001:0001a4a4       ?initialize_multibyte@@YAHXZ 1001b4a4 f   libucrt:multibyte_initializer.obj
 0001:0001a590       $$000000                   1001b590     libucrt:log10.obj
 0001:0001a6e0       $$000000                   1001b6e0     libucrt:ceil_pentium4.obj
 0001:0001a7fd       ?write_double_translated_ansi_nolock@@YA?AUwrite_result@?A0x17268360@@HQBDI@Z 1001b7fd f   libucrt:write.obj
 0001:0001a9c2       ?write_double_translated_unicode_nolock@@YA?AUwrite_result@?A0x17268360@@QBDI@Z 1001b9c2 f   libucrt:write.obj
 0001:0001aa2f       ?write_requires_double_translation_nolock@@YA_NH@Z 1001ba2f f   libucrt:write.obj
 0001:0001aaa5       ?write_text_ansi_nolock@@YA?AUwrite_result@?A0x17268360@@HQBDI@Z 1001baa5 f   libucrt:write.obj
 0001:0001ab84       ?write_text_utf16le_nolock@@YA?AUwrite_result@?A0x17268360@@HQBDI@Z 1001bb84 f   libucrt:write.obj
 0001:0001ac72       ?write_text_utf8_nolock@@YA?AUwrite_result@?A0x17268360@@HQBDI@Z 1001bc72 f   libucrt:write.obj
 0001:0001b0a3       ??$common_lseek_nolock@_J@@YA_JH_JH@Z 1001c0a3 f   libucrt:lseek.obj
 0001:0001b367       ___get_abstract_control_sse2 1001c367 f   libucrt:_fenvutils.obj
 0001:0001b3e4       ___get_abstract_control_x87 1001c3e4 f   libucrt:_fenvutils.obj
 0001:0001b457       ___get_machine_control     1001c457 f   libucrt:_fenvutils.obj
 0001:0001b4c8       ___get_machine_control_sse2 1001c4c8 f   libucrt:_fenvutils.obj
 0001:0001b548       ___get_machine_status_sse2 1001c548 f   libucrt:_fenvutils.obj
 0001:0001b5a9       ___get_machine_status_x87  1001c5a9 f   libucrt:_fenvutils.obj
 0001:0001b8f0       $$000000                   1001c8f0     libucrt:log10_pentium4.obj
 0001:0001bb80       $$000000                   1001cb80     libucrt:87tran.obj
 0001:0001bd80       $$000000                   1001cd80     libucrt:87disp.obj
 0001:0001bf80       $$000000                   1001cf80     libucrt:common.obj
 0001:0001c110       $$000000                   1001d110     libucrt:genexcep.obj
 0001:0001c680       $$000000                   1001d680     libucrt:_strnicm.obj
 0001:0001d4d0       $$000000                   1001e4d0     LIBCMT:ulldvrm.obj
 0001:0001d570       $$000000                   1001e570     LIBCMT:llmul.obj
 0001:0001d5b0       $$000000                   1001e5b0     LIBCMT:lldvrm.obj
 0001:0001d690       $$000000                   1001e690     LIBCMT:ullshr.obj
 0001:0001d6b0       $$000000                   1001e6b0     LIBCMT:llshl.obj
 0001:0001d6d0       $$000000                   1001e6d0     LIBCMT:_ftol2_.obj
 0001:0001d790       $$000000                   1001e790     libvcruntime:strrchr.obj
 0001:0001d8d0       $$000000                   1001e8d0     libvcruntime:strchr.obj
 0001:0001d9fb       __ehhandler$?__scrt_initialize_thread_safe_statics_platform_specific@@YAXXZ 1001e9fb f   LIBCMT:thread_safe_statics.obj
 0001:0001da16       __ehhandler$??2@YAPAXIABUnothrow_t@std@@@Z 1001ea16 f   LIBCMT:new_scalar_nothrow.obj
 0001:0001da31       __ehhandler$?CallUnexpected@@YAXPBU_s_ESTypeList@@@Z 1001ea31 f   libvcruntime:frame.obj
 0001:0001da4c       ??__F_AtlComModule@ATL@@YAXXZ 1001ea4c f   OposVariant.obj
 0001:0001da56       ??__F_AtlWinModule@ATL@@YAXXZ 1001ea56 f   OposVariant.obj
 0001:0001da70       ??__F_Module@@YAXXZ        1001ea70 f   PointCardRW.obj
 0001:0001da84       ??__F_AtlBaseModule@ATL@@YAXXZ 1001ea84 f   atls:atlbase.obj
 0002:00000304       ?_AtlBaseModule$initializer$@ATL@@3P6AXXZA 1001f304     atls:atlbase.obj
 0002:00000308       ?_AtlComModule$initializer$@ATL@@3P6AXXZA 1001f308     OposVariant.obj
 0002:0000030c       ?_AtlWinModule$initializer$@ATL@@3P6AXXZA 1001f30c     OposVariant.obj
 0002:00000310       ?_Module$initializer$@@3P6AXXZA 1001f310     PointCardRW.obj
 0002:00000314       ??pConnMap$initializer$@?$IConnectionPointContainerImpl@VCOPOSPointCardRW@@@ATL@@0P6AXXZA@@3P6AXXZA 1001f314     PointCardRW.obj
 0002:00000320       ?__scrt_initialize_tss_var@@3P6AHXZA 1001f320     LIBCMT:thread_safe_statics.obj
 0002:00000758       ?map@?1??HKeyFromString@CRegParser@ATL@@KAPAUHKEY__@@PA_W@Z@4QBUkeymap@?1??123@KAPAU4@0@Z@B 1001f758     PointCardRW.obj
 0002:00001afc       _GS_ExceptionPointers      10020afc     LIBCMT:gs_report.obj
 0002:00001c68       ?ExceptionTemplate@?1??_CxxThrowException@@9@8@4UEHExceptionRecord@@B 10020c68     libvcruntime:throw.obj
 0002:00001c88       ?module_names@?A0x03f7da57@@3QBQB_WB 10020c88     libvcruntime:winapi_downlevel.obj
 0002:00001d40       ?candidate_modules@?1??try_get_FlsAlloc@@YAP6GKP6GXPAX@Z@ZXZ@4QBW4module_id@?A0x03f7da57@@B 10020d40     libvcruntime:winapi_downlevel.obj
 0002:00001d54       ?candidate_modules@?1??try_get_FlsFree@@YAP6GHK@ZXZ@4QBW4module_id@?A0x03f7da57@@B 10020d54     libvcruntime:winapi_downlevel.obj
 0002:00001d64       ?candidate_modules@?1??try_get_FlsGetValue@@YAP6GPAXK@ZXZ@4QBW4module_id@?A0x03f7da57@@B 10020d64     libvcruntime:winapi_downlevel.obj
 0002:00001d78       ?candidate_modules@?1??try_get_FlsSetValue@@YAP6GHKPAX@ZXZ@4QBW4module_id@?A0x03f7da57@@B 10020d78     libvcruntime:winapi_downlevel.obj
 0002:00001d8c       ?candidate_modules@?1??try_get_InitializeCriticalSectionEx@@YAP6GHPAU_RTL_CRITICAL_SECTION@@KK@ZXZ@4QBW4module_id@?A0x03f7da57@@B 10020d8c     libvcruntime:winapi_downlevel.obj
 0002:00001dd0       ?tokenTable@@3QBQBDB       10020dd0     libvcruntime:undname.obj
 0002:00001e10       ?nameTable@@3QBQBDB        10020e10     libvcruntime:undname.obj
 0002:00001f58       ?rttiTable@@3QBQBDB        10020f58     libvcruntime:undname.obj
 0002:00002570       ?errtable@@3QBUerrentry@?A0x31fdb9ec@@B 10021570     libucrt:errno.obj
 0002:00002810       ___acrt_initializers       10021810     libucrt:initialization.obj
 0002:00002888       ?module_names@?A0x391cf84c@@3QBQB_WB 10021888     libucrt:winapi_thunks.obj
 0002:00002d70       ?candidate_modules@?1??try_get_FlsAlloc@@YAP6GKP6GXPAX@Z@ZXZ@4QBW4module_id@?A0x391cf84c@@B 10021d70     libucrt:winapi_thunks.obj
 0002:00002d84       ?candidate_modules@?1??try_get_FlsFree@@YAP6GHK@ZXZ@4QBW4module_id@?A0x391cf84c@@B 10021d84     libucrt:winapi_thunks.obj
 0002:00002d94       ?candidate_modules@?1??try_get_FlsGetValue@@YAP6GPAXK@ZXZ@4QBW4module_id@?A0x391cf84c@@B 10021d94     libucrt:winapi_thunks.obj
 0002:00002da8       ?candidate_modules@?1??try_get_FlsSetValue@@YAP6GHKPAX@ZXZ@4QBW4module_id@?A0x391cf84c@@B 10021da8     libucrt:winapi_thunks.obj
 0002:00002dbc       ?candidate_modules@?1??try_get_InitializeCriticalSectionEx@@YAP6GHPAU_RTL_CRITICAL_SECTION@@KK@ZXZ@4QBW4module_id@?A0x391cf84c@@B 10021dbc     libucrt:winapi_thunks.obj
 0002:00002de0       ?candidate_modules@?1??try_get_LCMapStringEx@@YAP6GHPB_WK0HPA_WHPAU_nlsversioninfo@@PAXJ@ZXZ@4QBW4module_id@?A0x391cf84c@@B 10021de0     libucrt:winapi_thunks.obj
 0002:00002df8       ?candidate_modules@?1??try_get_LocaleNameToLCID@@YAP6GKPB_WK@ZXZ@4QBW4module_id@?A0x391cf84c@@B 10021df8     libucrt:winapi_thunks.obj
 0002:00002e14       ?candidate_modules@?1??try_get_AppPolicyGetProcessTerminationMethod@@YAP6GJPAXPAW4AppPolicyProcessTerminationMethod@@@ZXZ@4QBW4module_id@?A0x391cf84c@@B 10021e14     libucrt:winapi_thunks.obj
 0002:00002e40       ?candidate_modules@?1??try_get_SetThreadStackGuarantee@@YAP6GHPAK@ZXZ@4QBW4module_id@?A0x391cf84c@@B 10021e40     libucrt:winapi_thunks.obj
 0002:0000336c       ?_mb_locale_names@@3QBQB_WB 1002236c     libucrt:mbctype.obj
 0002:00003bb8       ?LcidToLocaleNameTable@?A0x881e4c05@@3QBULcidToLocaleName@1@B 10022bb8     libucrt:lcidtoname_downlevel.obj
 0002:00004ce0       ?LocaleNameToIndexTable@?A0x881e4c05@@3QBULocaleNameIndex@1@B 10023ce0     libucrt:lcidtoname_downlevel.obj
 0002:00006620       LOG_name                   10025620     libucrt:log10.obj
 0002:00006630       _One                       10025630     libucrt:ceil_pentium4.obj
 0002:00006640       _Bns                       10025640     libucrt:ceil_pentium4.obj
 0002:00006650       _Zero                      10025650     libucrt:ceil_pentium4.obj
 0002:00006660       _S                         10025660     libucrt:ceil_pentium4.obj
 0002:00006670       _NegZero                   10025670     libucrt:ceil_pentium4.obj
 0002:00006680       emask                      10025680     libucrt:log10_pentium4.obj
 0002:00006690       CC                         10025690     libucrt:log10_pentium4.obj
 0002:000066a0       Magic                      100256a0     libucrt:log10_pentium4.obj
 0002:000066b0       hi_mask                    100256b0     libucrt:log10_pentium4.obj
 0002:000066c0       LOG10_2                    100256c0     libucrt:log10_pentium4.obj
 0002:000066d0       place_L                    100256d0     libucrt:log10_pentium4.obj
 0002:000066f0       One                        100256f0     libucrt:log10_pentium4.obj
 0002:00006700       Zero                       10025700     libucrt:log10_pentium4.obj
 0002:00006710       Two52                      10025710     libucrt:log10_pentium4.obj
 0002:00006720       Infs                       10025720     libucrt:log10_pentium4.obj
 0002:00006730       NaN                        10025730     libucrt:log10_pentium4.obj
 0002:00006740       coeff                      10025740     libucrt:log10_pentium4.obj
 0002:0000679e       _log2max                   1002579e     libucrt:87tran.obj
 0002:000067a8       _smallarg                  100257a8     libucrt:87tran.obj
 0002:000067b2       _half                      100257b2     libucrt:87tran.obj
 0002:000067fe       One                        100257fe     libucrt:87disp.obj
 0002:00006806       Three                      10025806     libucrt:87disp.obj
 0002:0000680e       XAMtoTagTab                1002580e     libucrt:87disp.obj
 0002:00006820       One                        10025820     libucrt:common.obj
 0002:00006834       DblMax                     10025834     libucrt:common.obj
 0002:0000683c       DblMin                     1002583c     libucrt:common.obj
 0002:00006844       IeeeAdjO                   10025844     libucrt:common.obj
 0002:0000684c       IeeeAdjU                   1002584c     libucrt:common.obj
 0002:00006854       _infinity                  10025854     libucrt:common.obj
 0002:0000685c       _zero                      1002585c     libucrt:common.obj
 0002:00006898       _over                      10025898     libucrt:fpctrl.obj
 0002:000068a4       _under                     100258a4     libucrt:fpctrl.obj
 0002:000070d8       ?_names@?1??_get_fname@@9@9 100260d8     libucrt:fpexcept.obj
 0002:00007940       __sehtable$?_AtlVerifyStackAvailable@_ATL_SAFE_ALLOCA_IMPL@ATL@@YA_NK@Z 10026940     PointCardRW.obj
 0002:00007960       __sehtable$___scrt_is_nonwritable_in_current_image 10026960     LIBCMT:utility.obj
 0002:0000797c       __ehfuncinfo$?__scrt_initialize_thread_safe_statics_platform_specific@@YAXXZ 1002697c     LIBCMT:thread_safe_statics.obj
 0002:000079a0       __catchsym$??2@YAPAXIABUnothrow_t@std@@@Z$2 100269a0     LIBCMT:new_scalar_nothrow.obj
 0002:000079b0       __unwindtable$??2@YAPAXIABUnothrow_t@std@@@Z 100269b0     LIBCMT:new_scalar_nothrow.obj
 0002:000079c0       __tryblocktable$??2@YAPAXIABUnothrow_t@std@@@Z 100269c0     LIBCMT:new_scalar_nothrow.obj
 0002:000079d4       __ehfuncinfo$??2@YAPAXIABUnothrow_t@std@@@Z 100269d4     LIBCMT:new_scalar_nothrow.obj
 0002:000079f8       __sehtable$?dllmain_crt_process_attach@@YAHQAUHINSTANCE__@@QAX@Z 100269f8     LIBCMT:dll_dllmain.obj
 0002:00007a18       __sehtable$?dllmain_crt_process_detach@@YAH_N@Z 10026a18     LIBCMT:dll_dllmain.obj
 0002:00007a38       __sehtable$?dllmain_dispatch@@YAHQAUHINSTANCE__@@KQAX@Z 10026a38     LIBCMT:dll_dllmain.obj
 0002:00007ae8       __sehtable$?FrameUnwindToState@__FrameHandler3@@SAXPAUEHRegistrationNode@@PAXPBU_s_FuncInfo@@H@Z 10026ae8     libvcruntime:frame.obj
 0002:00007b10       __sehtable$?CallCatchBlock@@YAPAXPAUEHExceptionRecord@@PAUEHRegistrationNode@@PAU_CONTEXT@@PBU_s_FuncInfo@@PAXHK@Z 10026b10     libvcruntime:frame.obj
 0002:00007b38       __catchsym$?CallUnexpected@@YAXPBU_s_ESTypeList@@@Z$2 10026b38     libvcruntime:frame.obj
 0002:00007b48       __unwindtable$?CallUnexpected@@YAXPBU_s_ESTypeList@@@Z 10026b48     libvcruntime:frame.obj
 0002:00007b58       __tryblocktable$?CallUnexpected@@YAXPBU_s_ESTypeList@@@Z 10026b58     libvcruntime:frame.obj
 0002:00007b6c       __ehfuncinfo$?CallUnexpected@@YAXPBU_s_ESTypeList@@@Z 10026b6c     libvcruntime:frame.obj
 0002:00007b90       __sehtable$??$BuildCatchObjectHelperInternal@$$CBU_s_HandlerType@@@@YAHPAUEHExceptionRecord@@PAXPBU_s_HandlerType@@PBU_s_CatchableType@@@Z 10026b90     libvcruntime:frame.obj
 0002:00007bb0       __sehtable$??$BuildCatchObjectInternal@$$CBU_s_HandlerType@@@@YAXPAUEHExceptionRecord@@PAXPBU_s_HandlerType@@PBU_s_CatchableType@@@Z 10026bb0     libvcruntime:frame.obj
 0002:00007c08       __sehtable$___DestructExceptionObject 10026c08     libvcruntime:ehhelpers.obj
 0002:00007c28       __sehtable$??R<lambda_6e4b09c48022b2350581041d5f6b0c4c>@@QBE@XZ 10026c28     libucrt:exit.obj
 0002:00007c48       __sehtable$??$?RV<lambda_03b1d95aef87969028cfba75ccab2455>@@AAV<lambda_6e4b09c48022b2350581041d5f6b0c4c>@@V<lambda_22bdf7517842c4b3e53723af5aa32b9e>@@@?$__crt_seh_guarded_call@X@@QAEX$$QAV<lambda_03b1d95aef87969028cfba75ccab2455>@@AAV<lambda_6e4b09c48022b2350581041d5f6b0c4c>@@$$QAV<lambda_22bdf7517842c4b3e53723af5aa32b9e>@@@Z 10026c48     libucrt:exit.obj
 0002:00007c68       __sehtable$??$?RV<lambda_8e746cf0007f6ed984d6f78af1fec997>@@AAV<lambda_22ebabd17bc4fa466a2aca6d8deb888d>@@V<lambda_18ed0c0b38a6dc0daf1e7ac6d6adf05e>@@@?$__crt_seh_guarded_call@H@@QAEH$$QAV<lambda_8e746cf0007f6ed984d6f78af1fec997>@@AAV<lambda_22ebabd17bc4fa466a2aca6d8deb888d>@@$$QAV<lambda_18ed0c0b38a6dc0daf1e7ac6d6adf05e>@@@Z 10026c68     libucrt:onexit.obj
 0002:00007c88       __sehtable$??$?RV<lambda_69a2805e680e0e292e8ba93315fe43a8>@@AAV<lambda_f03950bc5685219e0bcd2087efbe011e>@@V<lambda_03fcd07e894ec930e3f35da366ca99d6>@@@?$__crt_seh_guarded_call@H@@QAEH$$QAV<lambda_69a2805e680e0e292e8ba93315fe43a8>@@AAV<lambda_f03950bc5685219e0bcd2087efbe011e>@@$$QAV<lambda_03fcd07e894ec930e3f35da366ca99d6>@@@Z 10026c88     libucrt:onexit.obj
 0002:00007ca8       __sehtable$__query_new_handler 10026ca8     libucrt:new_handler.obj
 0002:00007cc8       __sehtable$_terminate      10026cc8     libucrt:terminate.obj
 0002:00007ce8       __sehtable$??$?RV<lambda_15ade71b0218206bbe3333a0c9b79046>@@AAV<lambda_da44e0f8b0f19ba52fefafb335991732>@@V<lambda_207f2d024fc103971653565357d6cd41>@@@?$__crt_seh_guarded_call@X@@QAEX$$QAV<lambda_15ade71b0218206bbe3333a0c9b79046>@@AAV<lambda_da44e0f8b0f19ba52fefafb335991732>@@$$QAV<lambda_207f2d024fc103971653565357d6cd41>@@@Z 10026ce8     libucrt:per_thread_data.obj
 0002:00007d08       __sehtable$??$?RV<lambda_a7e850c220f1c8d1e6efeecdedd162c6>@@AAV<lambda_46720907175c18b6c9d2717bc0d2d362>@@V<lambda_9048902d66e8d99359bc9897bbb930a8>@@@?$__crt_seh_guarded_call@X@@QAEX$$QAV<lambda_a7e850c220f1c8d1e6efeecdedd162c6>@@AAV<lambda_46720907175c18b6c9d2717bc0d2d362>@@$$QAV<lambda_9048902d66e8d99359bc9897bbb930a8>@@@Z 10026d08     libucrt:per_thread_data.obj
 0002:00007d28       __sehtable$??$?RV<lambda_38edbb1296d33220d7e4dd0ed76b244a>@@AAV<lambda_5ce1d447e08cb34b2473517608e21441>@@V<lambda_fb385d3da700c9147fc39e65dd577a8c>@@@?$__crt_seh_guarded_call@X@@QAEX$$QAV<lambda_38edbb1296d33220d7e4dd0ed76b244a>@@AAV<lambda_5ce1d447e08cb34b2473517608e21441>@@$$QAV<lambda_fb385d3da700c9147fc39e65dd577a8c>@@@Z 10026d28     libucrt:per_thread_data.obj
 0002:00007d48       __sehtable$??$?RV<lambda_6affb1475c98b40b75cdec977db92e3c>@@AAV<lambda_b8d4b9c228a6ecc3f80208dbb4b4a104>@@V<lambda_608742c3c92a14382c1684fc64f96c88>@@@?$__crt_seh_guarded_call@X@@QAEX$$QAV<lambda_6affb1475c98b40b75cdec977db92e3c>@@AAV<lambda_b8d4b9c228a6ecc3f80208dbb4b4a104>@@$$QAV<lambda_608742c3c92a14382c1684fc64f96c88>@@@Z 10026d48     libucrt:per_thread_data.obj
 0002:00007d68       __sehtable$??$?RV<lambda_e5124f882df8998aaf41531e079ba474>@@AAV<lambda_3e16ef9562a7dcce91392c22ab16ea36>@@V<lambda_e25ca0880e6ef98be67edffd8c599615>@@@?$__crt_seh_guarded_call@X@@QAEX$$QAV<lambda_e5124f882df8998aaf41531e079ba474>@@AAV<lambda_3e16ef9562a7dcce91392c22ab16ea36>@@$$QAV<lambda_e25ca0880e6ef98be67edffd8c599615>@@@Z 10026d68     libucrt:wsetlocale.obj
 0002:00007d88       __sehtable$___acrt_initialize_lowio 10026d88     libucrt:ioinit.obj
 0002:00007da8       __sehtable$?update_thread_multibyte_data_internal@@YAPAU__crt_multibyte_data@@QAU__acrt_ptd@@QAU1@@Z 10026da8     libucrt:mbctype.obj
 0002:00007dc8       __sehtable$??$?RV<lambda_ceb1ee4838e85a9d631eb091e2fbe199>@@AAV<lambda_ae742caa10f662c28703da3d2ea5e57e>@@V<lambda_cd08b5d6af4937fe54fc07d0c9bf6b37>@@@?$__crt_seh_guarded_call@X@@QAEX$$QAV<lambda_ceb1ee4838e85a9d631eb091e2fbe199>@@AAV<lambda_ae742caa10f662c28703da3d2ea5e57e>@@$$QAV<lambda_cd08b5d6af4937fe54fc07d0c9bf6b37>@@@Z 10026dc8     libucrt:mbctype.obj
 0002:00007de8       __sehtable$_raise          10026de8     libucrt:signal.obj
 0002:00007e08       __sehtable$??$?RV<lambda_cbab9ec6f41b0180b23cc171c22676b0>@@AAV<lambda_44731a7d0e6d81c3e6aa82d741081786>@@V<lambda_4b292cb8dd18144e164572427af410ab>@@@?$__crt_seh_guarded_call@P6AXH@Z@@QAEP6AXH@Z$$QAV<lambda_cbab9ec6f41b0180b23cc171c22676b0>@@AAV<lambda_44731a7d0e6d81c3e6aa82d741081786>@@$$QAV<lambda_4b292cb8dd18144e164572427af410ab>@@@Z 10026e08     libucrt:signal.obj
 0002:00007e28       __sehtable$___acrt_update_thread_locale_data 10026e28     libucrt:locale_refcounting.obj
 0002:00007e48       __sehtable$__fcloseall     10026e48     libucrt:closeall.obj
 0002:00007e68       __sehtable$??$?RV<lambda_2866be3712abc81a800a822484c830d8>@@AAV<lambda_39ca0ed439415581b5b15c265174cece>@@V<lambda_2b24c74d71094a6cd0cb82e44167d71b>@@@?$__crt_seh_guarded_call@X@@QAEX$$QAV<lambda_2866be3712abc81a800a822484c830d8>@@AAV<lambda_39ca0ed439415581b5b15c265174cece>@@$$QAV<lambda_2b24c74d71094a6cd0cb82e44167d71b>@@@Z 10026e68     libucrt:fflush.obj
 0002:00007e88       __sehtable$??$?RV<lambda_2cc53f568c5a2bb6f192f930a45d44ea>@@AAV<lambda_ab61a845afdef5b7c387490eaf3616ee>@@V<lambda_c2ffc0b7726aa6be21d5f0026187e748>@@@?$__crt_seh_guarded_call@X@@QAEX$$QAV<lambda_2cc53f568c5a2bb6f192f930a45d44ea>@@AAV<lambda_ab61a845afdef5b7c387490eaf3616ee>@@$$QAV<lambda_c2ffc0b7726aa6be21d5f0026187e748>@@@Z 10026e88     libucrt:fflush.obj
 0002:00007ea8       __sehtable$___acrt_lowio_ensure_fh_exists 10026ea8     libucrt:osfinfo.obj
 0002:00007ec8       __sehtable$__write         10026ec8     libucrt:write.obj
 0002:00007ee8       __sehtable$_fclose         10026ee8     libucrt:fclose.obj
 0002:00007f08       __sehtable$??$?RV<lambda_9e9de3de5fa147e2223d7db92bc10aa6>@@AAV<lambda_38ce7e780aa69e748d6df282ebc68efe>@@V<lambda_8ca6da459f0f6780f1cff60fdc3d00e5>@@@?$__crt_seh_guarded_call@H@@QAEH$$QAV<lambda_9e9de3de5fa147e2223d7db92bc10aa6>@@AAV<lambda_38ce7e780aa69e748d6df282ebc68efe>@@$$QAV<lambda_8ca6da459f0f6780f1cff60fdc3d00e5>@@@Z 10026f08     libucrt:commit.obj
 0002:00007f28       __sehtable$??$?RV<lambda_218ce3db14220d0be481dae8ef3383b6>@@AAV<lambda_628dfdc04ba53c8bfc02c9951375f3f5>@@V<lambda_57dc472bd5c9d5f3b2cbca59b8a843ae>@@@?$__crt_seh_guarded_call@H@@QAEH$$QAV<lambda_218ce3db14220d0be481dae8ef3383b6>@@AAV<lambda_628dfdc04ba53c8bfc02c9951375f3f5>@@$$QAV<lambda_57dc472bd5c9d5f3b2cbca59b8a843ae>@@@Z 10026f28     libucrt:close.obj
 0002:00007f48       __sehtable$__IsNonwritableInCurrentImage 10026f48     LIBCMT:pesect.obj
 0002:00007f70       .edata                     10026f70     OPOSPointCardRW.exp
 0002:00007f98       rgpv                       10026f98     OPOSPointCardRW.exp
 0002:00007fa8       rgszName                   10026fa8     OPOSPointCardRW.exp
 0002:00007fb8       rgwOrd                     10026fb8     OPOSPointCardRW.exp
 0002:00007fc0       szName                     10026fc0     OPOSPointCardRW.exp
 0002:00007fd4       $N00001                    10026fd4     OPOSPointCardRW.exp
 0002:00007fe4       $N00002                    10026fe4     OPOSPointCardRW.exp
 0002:00007ff6       $N00003                    10026ff6     OPOSPointCardRW.exp
 0002:00008008       $N00004                    10027008     OPOSPointCardRW.exp
 0002:00008620       .idata$6                   10027620     kernel32:KERNEL32.dll
 0002:00008834       .idata$6                   10027834     user32:USER32.dll
 0002:00008968       .idata$6                   10027968     gdi32:GDI32.dll
 0002:00008a0e       .idata$6                   10027a0e     advapi32:ADVAPI32.dll
 0002:00008b2a       .idata$6                   10027b2a     ole32:ole32.dll
 0002:00008b34       .idata$6                   10027b34     oleaut32:OLEAUT32.dll
 0003:00000110       ?ObjectMap@@3PAU_ATL_OBJMAP_ENTRY30@ATL@@A 10028110     PointCardRW.obj
 0003:000001c0       ?s_SOMethodNames@@3PAPADA  100281c0     PointCardRWImpl.obj
 0003:00000234       ?s_RequiredMethodsPerRelease@@3PAHA 10028234     PointCardRWImpl.obj
 0003:00000270       ?__vcrt_flsindex@@3KA      10028270     libvcruntime:per_thread_data.obj
 0003:00000290       ?errno_no_memory@@3HA      10028290     libucrt:errno.obj
 0003:00000294       ?doserrno_no_memory@@3KA   10028294     libucrt:errno.obj
 0003:000002a0       ?__acrt_flsindex@@3KA      100282a0     libucrt:per_thread_data.obj
 0003:00000418       __mbctypes                 10028418     libucrt:mbctype.obj
 0003:00000520       __mbcasemaps               10028520     libucrt:mbctype.obj
 0003:00000620       ?__rgctypeflag@@3PADA      10028620     libucrt:mbctype.obj
 0003:00000628       ?__rgcode_page_info@@3PAUcode_page_info@@A 10028628     libucrt:mbctype.obj
 0003:00000b30       ?is_initialized_as_dll@@3_NA 10028b30     LIBCMT:utility.obj
 0003:00000b31       ?module_local_atexit_table_initialized@@3_NA 10028b31     LIBCMT:utility.obj
 0003:00000b34       ?module_local_atexit_table@@3U_onexit_table_t@@A 10028b34     LIBCMT:utility.obj
 0003:00000b40       ?module_local_at_quick_exit_table@@3U_onexit_table_t@@A 10028b40     LIBCMT:utility.obj
 0003:00000b4c       ?_Tss_mutex@@3U_RTL_CRITICAL_SECTION@@A 10028b4c     LIBCMT:thread_safe_statics.obj
 0003:00000b64       ?_Tss_cv@@3U_RTL_CONDITION_VARIABLE@@A 10028b64     LIBCMT:thread_safe_statics.obj
 0003:00000b68       ?_Tss_event@@3PAXA         10028b68     LIBCMT:thread_safe_statics.obj
 0003:00000b6c       ?encoded_sleep_condition_variable_cs@@3P6GHPAU_RTL_CONDITION_VARIABLE@@PAU_RTL_CRITICAL_SECTION@@K@ZA 10028b6c     LIBCMT:thread_safe_statics.obj
 0003:00000b70       ?encoded_wake_all_condition_variable@@3P6GXPAU_RTL_CONDITION_VARIABLE@@@ZA 10028b70     LIBCMT:thread_safe_statics.obj
 0003:00000b78       _GS_ExceptionRecord        10028b78     LIBCMT:gs_report.obj
 0003:00000bc8       _GS_ContextRecord          10028bc8     LIBCMT:gs_report.obj
 0003:00000e98       ?__proc_attached@@3HA      10028e98     LIBCMT:dll_dllmain.obj
 0003:00000ef4       ?AllocateData@@3P6GPAUAtlThunkData_t@@XZA 10028ef4     atls:atlthunk.obj
 0003:00000ef8       ?InitData@@3P6GXPAUAtlThunkData_t@@PAXI@ZA 10028ef8     atls:atlthunk.obj
 0003:00000efc       ?DataToCode@@3P6GP6GJPAUHWND__@@IIJ@ZPAUAtlThunkData_t@@@ZA 10028efc     atls:atlthunk.obj
 0003:00000f00       ?FreeData@@3P6GXPAUAtlThunkData_t@@@ZA 10028f00     atls:atlthunk.obj
 0003:00000f04       ?Initialized@@3_NA         10028f04     atls:atlthunk.obj
 0003:00000f10       ?__vcrt_startup_thread_ptd@@3U__vcrt_ptd@@A 10028f10     libvcruntime:per_thread_data.obj
 0003:00000f38       ___vcrt_lock_table         10028f38     libvcruntime:locks.obj
 0003:00000f50       ___vcrt_locks_initialized  10028f50     libvcruntime:locks.obj
 0003:00000f54       ?module_handles@@3PAPAUHINSTANCE__@@A 10028f54     libvcruntime:winapi_downlevel.obj
 0003:00000f60       ?encoded_function_pointers@@3PAPAXA 10028f60     libvcruntime:winapi_downlevel.obj
 0003:00000f9c       ?heap@@3V_HeapManager@@A   10028f9c     libvcruntime:undname.obj
 0003:00000fb4       ?__acrt_invalid_parameter_handler@@3V?$dual_state_global@P6AXPB_W00II@Z@__crt_state_management@@A 10028fb4     libucrt:invalid_parameter.obj
 0003:00000fb8       ?c_termination_complete@@3JA 10028fb8     libucrt:exit.obj
 0003:00000fbc       ?thread_local_exit_callback_func@@3P6GXPAXK0@ZA 10028fbc     libucrt:exit.obj
 0003:00000fc8       ?program_name@?1???$common_configure_argv@D@@YAHW4_crt_argv_mode@@@Z@4PADA 10028fc8     libucrt:argv_parsing.obj
 0003:000010f8       ?__acrt_new_handler@@3V?$dual_state_global@P6AHI@Z@__crt_state_management@@A 100290f8     libucrt:new_handler.obj
 0003:00001100       ?module_handles@@3PAPAUHINSTANCE__@@A 10029100     libucrt:winapi_thunks.obj
 0003:00001150       ?encoded_function_pointers@@3PAPAXA 10029150     libucrt:winapi_thunks.obj
 0003:000011e0       ?enable_percent_n@@3IA     100291e0     libucrt:printf_count_output.obj
 0003:00001400       ?__acrt_lock_table@@3PAU_RTL_CRITICAL_SECTION@@A 10029400     libucrt:locks.obj
 0003:00001550       ?__acrt_locks_initialized@@3IA 10029550     libucrt:locks.obj
 0003:00001560       ?fSystemSet@@3HA           10029560     libucrt:mbctype.obj
 0003:00001564       ?initialized@?1??__acrt_initialize_multibyte@@9@4_NA 10029564     libucrt:mbctype.obj
 0003:00001584       ?ctrlc_action@@3V?$dual_state_global@P6AXH@Z@__crt_state_management@@A 10029584     libucrt:signal.obj
 0003:00001588       ?ctrlbreak_action@@3V?$dual_state_global@P6AXH@Z@__crt_state_management@@A 10029588     libucrt:signal.obj
 0003:0000158c       ?abort_action@@3V?$dual_state_global@P6AXH@Z@__crt_state_management@@A 1002958c     libucrt:signal.obj
 0003:00001590       ?term_action@@3V?$dual_state_global@P6AXH@Z@__crt_state_management@@A 10029590     libucrt:signal.obj
 0003:00001594       ?user_matherr@@3V?$dual_state_global@P6AHPAU_exception@@@Z@__crt_state_management@@A 10029594     libucrt:matherr.obj
 0003:00001598       ?__acrt_global_new_mode@@3V?$dual_state_global@J@__crt_state_management@@A 10029598     libucrt:new_mode.obj
 0003:000015a4       ?__acrt_app_type@@3W4_crt_app_type@@A 100295a4     libucrt:report_runtime_error.obj
 0003:000015ac       __pmatherr_set             100295ac     libucrt:libm_error.obj
 0004:00000220       $R000000                   1002a220     PointCardRW.res
 0004:00000b98       $R000978                   1002ab98     PointCardRW.res
 0004:00000c80       $R000A60                   1002ac80     PointCardRW.res
 0004:00000ee8       $R000CC8                   1002aee8     PointCardRW.res
 0004:00001418       $R0011F8                   1002b418     PointCardRW.res
 0004:00005de0       $R005BC0                   1002fde0     PointCardRW.res
 0004:00005e18       $R005BF8                   1002fe18     PointCardRW.res
