 OPOSRFIDScanner

 Timestamp is 5ed4599c (Mon Jun  1 10:27:56 2020)

 Preferred load address is 10000000

 Start         Length     Name                   Class
 0001:00000000 00000080H .text$di                CODE
 0001:00000080 0001e863H .text$mn                CODE
 0001:0001e8e3 00000036H .text$x                 CODE
 0001:0001e919 00000042H .text$yd                CODE
 0002:00000000 000002fcH .idata$5                DATA
 0002:000002fc 00000004H .00cfg                  DATA
 0002:00000300 00000004H .CRT$XCA                DATA
 0002:00000304 00000004H .CRT$XCL                DATA
 0002:00000308 00000010H .CRT$XCU                DATA
 0002:00000318 00000004H .CRT$XCZ                DATA
 0002:0000031c 00000004H .CRT$XIA                DATA
 0002:00000320 00000010H .CRT$XIC                DATA
 0002:00000330 00000004H .CRT$XIZ                DATA
 0002:00000334 00000004H .CRT$XLA                DATA
 0002:00000338 00000004H .CRT$XLZ                DATA
 0002:0000033c 00000004H .CRT$XPA                DATA
 0002:00000340 00000008H .CRT$XPX                DATA
 0002:00000348 00000004H .CRT$XPXA               DATA
 0002:0000034c 00000004H .CRT$XPZ                DATA
 0002:00000350 00000004H .CRT$XTA                DATA
 0002:00000354 0000000cH .CRT$XTZ                DATA
 0002:00000358 00000000H .gfids$y                DATA
 0002:00000360 00007368H .rdata                  DATA
 0002:000076c8 00000018H .rdata$T                DATA
 0002:000076e0 00000178H .rdata$r                DATA
 0002:00007858 0000001cH .rdata$sxdata           DATA
 0002:00007874 000003e0H .rdata$zzzdbg           DATA
 0002:00007c54 00000004H .rtc$IAA                DATA
 0002:00007c58 00000004H .rtc$IZZ                DATA
 0002:00007c5c 00000004H .rtc$TAA                DATA
 0002:00007c60 00000004H .rtc$TZZ                DATA
 0002:00007c64 00000004H .tls                    DATA
 0002:00007c68 00000004H .tls$                   DATA
 0002:00007c6c 00000004H .tls$ZZZ                DATA
 0002:00007c70 0000062cH .xdata$x                DATA
 0002:0000829c 00000004H ATL$__a                 DATA
 0002:000082a0 00000010H ATL$__z                 DATA
 0002:000082b0 000000acH .edata                  DATA
 0002:0000835c 00000078H .idata$2                DATA
 0002:000083d4 00000014H .idata$3                DATA
 0002:000083e8 000002fcH .idata$4                DATA
 0002:000086e4 00000bceH .idata$6                DATA
 0003:00000000 00000ac0H .data                   DATA
 0003:00000ac0 00000098H .data$r                 DATA
 0003:00000b58 00000b80H .bss                    DATA
 0004:00000000 00000220H .rsrc$01                DATA
 0004:00000220 00004630H .rsrc$02                DATA

  Address         Publics by Value              Rva+Base       Lib:Object

 0000:00000000       ___arm64x_redirection_metadata 00000000     <absolute>
 0000:00000000       ___x64_code_ranges_to_entry_points 00000000     <absolute>
 0000:00000000       ___guard_iat_count         00000000     <absolute>
 0000:00000000       ___guard_fids_count        00000000     <absolute>
 0000:00000000       ___guard_longjmp_table     00000000     <absolute>
 0000:00000000       ___hybrid_code_map_count   00000000     <absolute>
 0000:00000000       ___dynamic_value_reloc_table 00000000     <absolute>
 0000:00000000       ___guard_longjmp_count     00000000     <absolute>
 0000:00000000       __except_list              00000000     <absolute>
 0000:00000000       ___arm64x_native_entrypoint 00000000     <absolute>
 0000:00000000       ___guard_fids_table        00000000     <absolute>
 0000:00000000       ___guard_eh_cont_count     00000000     <absolute>
 0000:00000000       ___hybrid_auxiliary_iat    00000000     <absolute>
 0000:00000000       ___guard_iat_table         00000000     <absolute>
 0000:00000000       ___volatile_metadata       00000000     <absolute>
 0000:00000000       ___enclave_config          00000000     <absolute>
 0000:00000000       ___AbsoluteZero            00000000     <absolute>
 0000:00000000       ___guard_eh_cont_table     00000000     <absolute>
 0000:00000000       ___hybrid_code_map         00000000     <absolute>
 0000:00000007       ___safe_se_handler_count   00000007     <absolute>
 0000:0000002c       __tls_array                0000002c     <absolute>
 0000:00000100       ___guard_flags             00000100     <absolute>
 0000:00000000       ___ImageBase               10000000     <linker-defined>
 0001:00000080       ?DupWide@_CW@@AAEXXZ       10001080 f   CWString.obj
 0001:0000009c       ?cw_dup@@YGXPBDAAHAAPA_W1@Z 1000109c f   CWString.obj
 0001:00000124       ?cw_memcpy@@YGHPA_WPBDH@Z  10001124 f   CWString.obj
 0001:00000150       ?cw_strcpy@@YAHPA_WPBD@Z   10001150 f   CWString.obj
 0001:00000163       ?cw_strlen@@YAHPBD@Z       10001163 f   CWString.obj
 0001:0000017c       ??0CAtlComModule@ATL@@QAE@XZ 1000117c f i OposVariant.obj
 0001:000001c1       ??0CAtlWinModule@ATL@@QAE@XZ 100011c1 f i OposVariant.obj
 0001:000001f8       ??0OposDispParms@@QAE@PAVOposVariant@@H@Z 100011f8 f   OposVariant.obj
 0001:00000269       ??1OposDispParms@@QAE@XZ   10001269 f   OposVariant.obj
 0001:00000277       ??A?$CSimpleArray@GV?$CSimpleArrayEqualHelper@G@ATL@@@ATL@@QAEAAGH@Z 10001277 f i OposVariant.obj
 0001:0000029c       ??_Estringdispid@CComTypeInfoHolder@ATL@@QAEPAXI@Z 1000129c f i OposVariant.obj
 0001:00000308       ?AtlWinModuleInit@ATL@@YGJPAU_ATL_WIN_MODULE70@1@@Z 10001308 f i OposVariant.obj
 0001:0000032e       ?AtlWinModuleTerm@ATL@@YGJPAU_ATL_WIN_MODULE70@1@PAUHINSTANCE__@@@Z 1000132e f i OposVariant.obj
 0001:00000391       ?ChangeBSTR@OposVariant@@QAEXPAPA_WAAJ@Z 10001391 f   OposVariant.obj
 0001:000003d2       ?ChangeLONG@OposVariant@@QAEXPAJAAJ@Z 100013d2 f   OposVariant.obj
 0001:00000413       ?GetLONG@OposVariant@@QAEJXZ 10001413 f   OposVariant.obj
 0001:0000042e       ?Init@CComCriticalSection@ATL@@QAEJXZ 1000142e f i OposVariant.obj
 0001:00000456       ?RemoveAll@?$CSimpleArray@PAUHINSTANCE__@@V?$CSimpleArrayEqualHelper@PAUHINSTANCE__@@@ATL@@@ATL@@QAEXXZ 10001456 f i atls:atlbase.obj
 0001:00000456       ?RemoveAll@?$CSimpleArray@GV?$CSimpleArrayEqualHelper@G@ATL@@@ATL@@QAEXXZ 10001456 f i OposVariant.obj
 0001:00000473       ?SetBSTR@OposVariant@@QAEXPA_WAAJ@Z 10001473 f   OposVariant.obj
 0001:000004a7       ?SetBSTR_Copy@OposVariant@@QAEXPA_WAAJ@Z 100014a7 f   OposVariant.obj
 0001:000004f7       ?SetBSTR_InOutPtr@OposVariant@@QAE_NPAPA_WAAJ@Z 100014f7 f   OposVariant.obj
 0001:0000052e       ?SetDispatch_Ptr@OposVariant@@QAEXPAUIDispatch@@AAJ@Z 1000152e f   OposVariant.obj
 0001:00000569       ?SetLONG@OposVariant@@QAEXJ@Z 10001569 f   OposVariant.obj
 0001:0000058b       ?SetLONG_Ptr@OposVariant@@QAEXPAJAAJ@Z 1000158b f   OposVariant.obj
 0001:000005be       ?SetString@OposVariant@@QAEXPB_WAAJ@Z 100015be f   OposVariant.obj
 0001:00000604       ?SetVARIANT_BOOL@OposVariant@@QAEXF@Z 10001604 f   OposVariant.obj
 0001:0000062e       ?Term@CAtlComModule@ATL@@QAEXXZ 1000162e f i OposVariant.obj
 0001:00000678       ?_AtlRaiseException@ATL@@YAXKK@Z 10001678 f i OposVariant.obj
 0001:0000068d       ??_E?$CComObject@VCOPOSRFIDScanner@@@ATL@@W3AEPAXI@Z 1000168d f i RFIDScanner.obj
 0001:00000695       ??_E?$CComObject@VCOPOSRFIDScanner@@@ATL@@WEM@AEPAXI@Z 10001695 f i RFIDScanner.obj
 0001:0000069d       ?QueryInterface@?$CComObject@VCOPOSRFIDScanner@@@ATL@@WHA@AGJABU_GUID@@PAPAX@Z 1000169d f i RFIDScanner.obj
 0001:000006a7       ?AddRef@?$CComObject@VCOPOSRFIDScanner@@@ATL@@WHA@AGKXZ 100016a7 f i RFIDScanner.obj
 0001:000006b1       ?Release@?$CComObject@VCOPOSRFIDScanner@@@ATL@@WHA@AGKXZ 100016b1 f i RFIDScanner.obj
 0001:000006bb       ?QueryInterface@?$CComObject@VCOPOSRFIDScanner@@@ATL@@WHE@AGJABU_GUID@@PAPAX@Z 100016bb f i RFIDScanner.obj
 0001:000006c5       ?AddRef@?$CComObject@VCOPOSRFIDScanner@@@ATL@@WHE@AGKXZ 100016c5 f i RFIDScanner.obj
 0001:000006cf       ?Release@?$CComObject@VCOPOSRFIDScanner@@@ATL@@WHE@AGKXZ 100016cf f i RFIDScanner.obj
 0001:000006d9       ?QueryInterface@?$CComObject@VCOPOSRFIDScanner@@@ATL@@WHI@AGJABU_GUID@@PAPAX@Z 100016d9 f i RFIDScanner.obj
 0001:000006e3       ?AddRef@?$CComObject@VCOPOSRFIDScanner@@@ATL@@WHI@AGKXZ 100016e3 f i RFIDScanner.obj
 0001:000006ed       ?Release@?$CComObject@VCOPOSRFIDScanner@@@ATL@@WHI@AGKXZ 100016ed f i RFIDScanner.obj
 0001:000006f7       ?QueryInterface@?$CComObject@VCOPOSRFIDScanner@@@ATL@@WHM@AGJABU_GUID@@PAPAX@Z 100016f7 f i RFIDScanner.obj
 0001:00000701       ?AddRef@?$CComObject@VCOPOSRFIDScanner@@@ATL@@WHM@AGKXZ 10001701 f i RFIDScanner.obj
 0001:0000070b       ?Release@?$CComObject@VCOPOSRFIDScanner@@@ATL@@WHM@AGKXZ 1000170b f i RFIDScanner.obj
 0001:00000715       ?QueryInterface@?$CComObject@VCOPOSRFIDScanner@@@ATL@@WIA@AGJABU_GUID@@PAPAX@Z 10001715 f i RFIDScanner.obj
 0001:00000722       ?AddRef@?$CComObject@VCOPOSRFIDScanner@@@ATL@@WIA@AGKXZ 10001722 f i RFIDScanner.obj
 0001:0000072f       ?Release@?$CComObject@VCOPOSRFIDScanner@@@ATL@@WIA@AGKXZ 1000172f f i RFIDScanner.obj
 0001:0000073c       ?QueryInterface@?$CComObject@VCOPOSRFIDScanner@@@ATL@@WIE@AGJABU_GUID@@PAPAX@Z 1000173c f i RFIDScanner.obj
 0001:00000749       ?AddRef@?$CComObject@VCOPOSRFIDScanner@@@ATL@@WIE@AGKXZ 10001749 f i RFIDScanner.obj
 0001:00000756       ?Release@?$CComObject@VCOPOSRFIDScanner@@@ATL@@WIE@AGKXZ 10001756 f i RFIDScanner.obj
 0001:00000763       ?QueryInterface@?$CComObject@VCOPOSRFIDScanner@@@ATL@@WII@AGJABU_GUID@@PAPAX@Z 10001763 f i RFIDScanner.obj
 0001:00000770       ?AddRef@?$CComObject@VCOPOSRFIDScanner@@@ATL@@WII@AGKXZ 10001770 f i RFIDScanner.obj
 0001:0000077d       ?Release@?$CComObject@VCOPOSRFIDScanner@@@ATL@@WII@AGKXZ 1000177d f i RFIDScanner.obj
 0001:0000078a       ?QueryInterface@?$CComObject@VCOPOSRFIDScanner@@@ATL@@WIM@AGJABU_GUID@@PAPAX@Z 1000178a f i RFIDScanner.obj
 0001:00000797       ?AddRef@?$CComObject@VCOPOSRFIDScanner@@@ATL@@WIM@AGKXZ 10001797 f i RFIDScanner.obj
 0001:000007a4       ?Release@?$CComObject@VCOPOSRFIDScanner@@@ATL@@WIM@AGKXZ 100017a4 f i RFIDScanner.obj
 0001:000007b1       ?QueryInterface@?$CComObject@VCOPOSRFIDScanner@@@ATL@@WJA@AGJABU_GUID@@PAPAX@Z 100017b1 f i RFIDScanner.obj
 0001:000007be       ?AddRef@?$CComObject@VCOPOSRFIDScanner@@@ATL@@WJA@AGKXZ 100017be f i RFIDScanner.obj
 0001:000007cb       ?Release@?$CComObject@VCOPOSRFIDScanner@@@ATL@@WJA@AGKXZ 100017cb f i RFIDScanner.obj
 0001:000007d8       ?QueryInterface@?$CComObject@VCOPOSRFIDScanner@@@ATL@@WJE@AGJABU_GUID@@PAPAX@Z 100017d8 f i RFIDScanner.obj
 0001:000007e5       ?AddRef@?$CComObject@VCOPOSRFIDScanner@@@ATL@@WJE@AGKXZ 100017e5 f i RFIDScanner.obj
 0001:000007f2       ?Release@?$CComObject@VCOPOSRFIDScanner@@@ATL@@WJE@AGKXZ 100017f2 f i RFIDScanner.obj
 0001:000007ff       ?QueryInterface@?$CComObject@VCOPOSRFIDScanner@@@ATL@@WJI@AGJABU_GUID@@PAPAX@Z 100017ff f i RFIDScanner.obj
 0001:0000080c       ?AddRef@?$CComObject@VCOPOSRFIDScanner@@@ATL@@WJI@AGKXZ 1000180c f i RFIDScanner.obj
 0001:00000819       ?Release@?$CComObject@VCOPOSRFIDScanner@@@ATL@@WJI@AGKXZ 10001819 f i RFIDScanner.obj
 0001:00000826       ?QueryInterface@?$CComObject@VCOPOSRFIDScanner@@@ATL@@WJM@AGJABU_GUID@@PAPAX@Z 10001826 f i RFIDScanner.obj
 0001:00000833       ?AddRef@?$CComObject@VCOPOSRFIDScanner@@@ATL@@WJM@AGKXZ 10001833 f i RFIDScanner.obj
 0001:00000840       ?Release@?$CComObject@VCOPOSRFIDScanner@@@ATL@@WJM@AGKXZ 10001840 f i RFIDScanner.obj
 0001:0000084d       ?QueryInterface@?$CComObject@VCOPOSRFIDScanner@@@ATL@@WKA@AGJABU_GUID@@PAPAX@Z 1000184d f i RFIDScanner.obj
 0001:0000085a       ?AddRef@?$CComObject@VCOPOSRFIDScanner@@@ATL@@WKA@AGKXZ 1000185a f i RFIDScanner.obj
 0001:00000867       ?Release@?$CComObject@VCOPOSRFIDScanner@@@ATL@@WKA@AGKXZ 10001867 f i RFIDScanner.obj
 0001:00000874       ?AddRef@?$CComObject@VCOPOSRFIDScanner@@@ATL@@WKI@AGKXZ 10001874 f i RFIDScanner.obj
 0001:00000881       ?Release@?$CComObject@VCOPOSRFIDScanner@@@ATL@@WKI@AGKXZ 10001881 f i RFIDScanner.obj
 0001:0000088e       ?AddRef@?$CComObject@VCOPOSRFIDScanner@@@ATL@@WLE@AGKXZ 1000188e f i RFIDScanner.obj
 0001:0000089b       ?Release@?$CComObject@VCOPOSRFIDScanner@@@ATL@@WLE@AGKXZ 1000189b f i RFIDScanner.obj
 0001:000008a8       ??_E?$CComContainedObject@VCOPOSRFIDScanner@@@ATL@@W3AEPAXI@Z 100018a8 f i RFIDScanner.obj
 0001:000008b0       ??_E?$CComContainedObject@VCOPOSRFIDScanner@@@ATL@@WEM@AEPAXI@Z 100018b0 f i RFIDScanner.obj
 0001:000008b8       ?QueryInterface@?$CComContainedObject@VCOPOSRFIDScanner@@@ATL@@WHA@AGJABU_GUID@@PAPAX@Z 100018b8 f i RFIDScanner.obj
 0001:000008c2       ?AddRef@?$CComContainedObject@VCOPOSRFIDScanner@@@ATL@@WHA@AGKXZ 100018c2 f i RFIDScanner.obj
 0001:000008cc       ?Release@?$CComContainedObject@VCOPOSRFIDScanner@@@ATL@@WHA@AGKXZ 100018cc f i RFIDScanner.obj
 0001:000008d6       ?QueryInterface@?$CComContainedObject@VCOPOSRFIDScanner@@@ATL@@WHE@AGJABU_GUID@@PAPAX@Z 100018d6 f i RFIDScanner.obj
 0001:000008e0       ?AddRef@?$CComContainedObject@VCOPOSRFIDScanner@@@ATL@@WHE@AGKXZ 100018e0 f i RFIDScanner.obj
 0001:000008ea       ?Release@?$CComContainedObject@VCOPOSRFIDScanner@@@ATL@@WHE@AGKXZ 100018ea f i RFIDScanner.obj
 0001:000008f4       ?QueryInterface@?$CComContainedObject@VCOPOSRFIDScanner@@@ATL@@WHI@AGJABU_GUID@@PAPAX@Z 100018f4 f i RFIDScanner.obj
 0001:000008fe       ?AddRef@?$CComContainedObject@VCOPOSRFIDScanner@@@ATL@@WHI@AGKXZ 100018fe f i RFIDScanner.obj
 0001:00000908       ?Release@?$CComContainedObject@VCOPOSRFIDScanner@@@ATL@@WHI@AGKXZ 10001908 f i RFIDScanner.obj
 0001:00000912       ?QueryInterface@?$CComContainedObject@VCOPOSRFIDScanner@@@ATL@@WHM@AGJABU_GUID@@PAPAX@Z 10001912 f i RFIDScanner.obj
 0001:0000091c       ?AddRef@?$CComContainedObject@VCOPOSRFIDScanner@@@ATL@@WHM@AGKXZ 1000191c f i RFIDScanner.obj
 0001:00000926       ?Release@?$CComContainedObject@VCOPOSRFIDScanner@@@ATL@@WHM@AGKXZ 10001926 f i RFIDScanner.obj
 0001:00000930       ?QueryInterface@?$CComContainedObject@VCOPOSRFIDScanner@@@ATL@@WIA@AGJABU_GUID@@PAPAX@Z 10001930 f i RFIDScanner.obj
 0001:0000093d       ?AddRef@?$CComContainedObject@VCOPOSRFIDScanner@@@ATL@@WIA@AGKXZ 1000193d f i RFIDScanner.obj
 0001:0000094a       ?Release@?$CComContainedObject@VCOPOSRFIDScanner@@@ATL@@WIA@AGKXZ 1000194a f i RFIDScanner.obj
 0001:00000957       ?QueryInterface@?$CComContainedObject@VCOPOSRFIDScanner@@@ATL@@WIE@AGJABU_GUID@@PAPAX@Z 10001957 f i RFIDScanner.obj
 0001:00000964       ?AddRef@?$CComContainedObject@VCOPOSRFIDScanner@@@ATL@@WIE@AGKXZ 10001964 f i RFIDScanner.obj
 0001:00000971       ?Release@?$CComContainedObject@VCOPOSRFIDScanner@@@ATL@@WIE@AGKXZ 10001971 f i RFIDScanner.obj
 0001:0000097e       ?QueryInterface@?$CComContainedObject@VCOPOSRFIDScanner@@@ATL@@WII@AGJABU_GUID@@PAPAX@Z 1000197e f i RFIDScanner.obj
 0001:0000098b       ?AddRef@?$CComContainedObject@VCOPOSRFIDScanner@@@ATL@@WII@AGKXZ 1000198b f i RFIDScanner.obj
 0001:00000998       ?Release@?$CComContainedObject@VCOPOSRFIDScanner@@@ATL@@WII@AGKXZ 10001998 f i RFIDScanner.obj
 0001:000009a5       ?QueryInterface@?$CComContainedObject@VCOPOSRFIDScanner@@@ATL@@WIM@AGJABU_GUID@@PAPAX@Z 100019a5 f i RFIDScanner.obj
 0001:000009b2       ?AddRef@?$CComContainedObject@VCOPOSRFIDScanner@@@ATL@@WIM@AGKXZ 100019b2 f i RFIDScanner.obj
 0001:000009bf       ?Release@?$CComContainedObject@VCOPOSRFIDScanner@@@ATL@@WIM@AGKXZ 100019bf f i RFIDScanner.obj
 0001:000009cc       ?QueryInterface@?$CComContainedObject@VCOPOSRFIDScanner@@@ATL@@WJA@AGJABU_GUID@@PAPAX@Z 100019cc f i RFIDScanner.obj
 0001:000009d9       ?AddRef@?$CComContainedObject@VCOPOSRFIDScanner@@@ATL@@WJA@AGKXZ 100019d9 f i RFIDScanner.obj
 0001:000009e6       ?Release@?$CComContainedObject@VCOPOSRFIDScanner@@@ATL@@WJA@AGKXZ 100019e6 f i RFIDScanner.obj
 0001:000009f3       ?QueryInterface@?$CComContainedObject@VCOPOSRFIDScanner@@@ATL@@WJE@AGJABU_GUID@@PAPAX@Z 100019f3 f i RFIDScanner.obj
 0001:00000a00       ?AddRef@?$CComContainedObject@VCOPOSRFIDScanner@@@ATL@@WJE@AGKXZ 10001a00 f i RFIDScanner.obj
 0001:00000a0d       ?Release@?$CComContainedObject@VCOPOSRFIDScanner@@@ATL@@WJE@AGKXZ 10001a0d f i RFIDScanner.obj
 0001:00000a1a       ?QueryInterface@?$CComContainedObject@VCOPOSRFIDScanner@@@ATL@@WJI@AGJABU_GUID@@PAPAX@Z 10001a1a f i RFIDScanner.obj
 0001:00000a27       ?AddRef@?$CComContainedObject@VCOPOSRFIDScanner@@@ATL@@WJI@AGKXZ 10001a27 f i RFIDScanner.obj
 0001:00000a34       ?Release@?$CComContainedObject@VCOPOSRFIDScanner@@@ATL@@WJI@AGKXZ 10001a34 f i RFIDScanner.obj
 0001:00000a41       ?QueryInterface@?$CComContainedObject@VCOPOSRFIDScanner@@@ATL@@WJM@AGJABU_GUID@@PAPAX@Z 10001a41 f i RFIDScanner.obj
 0001:00000a4e       ?AddRef@?$CComContainedObject@VCOPOSRFIDScanner@@@ATL@@WJM@AGKXZ 10001a4e f i RFIDScanner.obj
 0001:00000a5b       ?Release@?$CComContainedObject@VCOPOSRFIDScanner@@@ATL@@WJM@AGKXZ 10001a5b f i RFIDScanner.obj
 0001:00000a68       ?QueryInterface@?$CComContainedObject@VCOPOSRFIDScanner@@@ATL@@WKA@AGJABU_GUID@@PAPAX@Z 10001a68 f i RFIDScanner.obj
 0001:00000a75       ?AddRef@?$CComContainedObject@VCOPOSRFIDScanner@@@ATL@@WKA@AGKXZ 10001a75 f i RFIDScanner.obj
 0001:00000a82       ?Release@?$CComContainedObject@VCOPOSRFIDScanner@@@ATL@@WKA@AGKXZ 10001a82 f i RFIDScanner.obj
 0001:00000a8f       ?AddRef@?$CComContainedObject@VCOPOSRFIDScanner@@@ATL@@WKI@AGKXZ 10001a8f f i RFIDScanner.obj
 0001:00000a9c       ?Release@?$CComContainedObject@VCOPOSRFIDScanner@@@ATL@@WKI@AGKXZ 10001a9c f i RFIDScanner.obj
 0001:00000aa9       ?AddRef@?$CComContainedObject@VCOPOSRFIDScanner@@@ATL@@WLE@AGKXZ 10001aa9 f i RFIDScanner.obj
 0001:00000ab6       ?Release@?$CComContainedObject@VCOPOSRFIDScanner@@@ATL@@WLE@AGKXZ 10001ab6 f i RFIDScanner.obj
 0001:00000ac3       ?CreateInstance@CComClassFactory@ATL@@UAGJPAUIUnknown@@ABU_GUID@@PAPAX@Z 10001ac3 f i RFIDScanner.obj
 0001:00000b01       ?LockServer@CComClassFactory@ATL@@UAGJH@Z 10001b01 f i RFIDScanner.obj
 0001:00000b20       ??_GCComClassFactory@ATL@@UAEPAXI@Z 10001b20 f i RFIDScanner.obj
 0001:00000b20       ??_ECComClassFactory@ATL@@UAEPAXI@Z 10001b20 f i RFIDScanner.obj
 0001:00000b4b       ?GetWindowProc@?$CWindowImplBaseT@VCWindow@ATL@@V?$CWinTraits@$0FGAAAAAA@$0A@@2@@ATL@@UAEP6GJPAUHWND__@@IIJ@ZXZ 10001b4b f i RFIDScanner.obj
 0001:00000b51       ?StartWindowProc@?$CWindowImplBaseT@VCWindow@ATL@@V?$CWinTraits@$0FGAAAAAA@$0A@@2@@ATL@@SGJPAUHWND__@@IIJ@Z 10001b51 f i RFIDScanner.obj
 0001:00000ba5       ?OnFinalMessage@?$CWindowImplBaseT@VCWindow@ATL@@V?$CWinTraits@$0FGAAAAAA@$0A@@2@@ATL@@UAEXPAUHWND__@@@Z 10001ba5 f i RFIDScanner.obj
 0001:00000ba5       ?ObjectMain@CComObjectRootBase@ATL@@SGX_N@Z 10001ba5 f i RFIDScanner.obj
 0001:00000ba8       ?GetTypeInfoCount@?$IDispatchImpl@UIOPOSRFIDScanner@@$1?IID_IOPOSRFIDScanner@@3U_GUID@@B$1?LIBID_OposRFIDScanner_CCO@@3U3@B$00$0A@VCComTypeInfoHolder@ATL@@@ATL@@UAGJPAI@Z 10001ba8 f i RFIDScanner.obj
 0001:00000bc5       ?GetTypeInfo@?$IDispatchImpl@UIOPOSRFIDScanner@@$1?IID_IOPOSRFIDScanner@@3U_GUID@@B$1?LIBID_OposRFIDScanner_CCO@@3U3@B$00$0A@VCComTypeInfoHolder@ATL@@@ATL@@UAGJIKPAPAUITypeInfo@@@Z 10001bc5 f i RFIDScanner.obj
 0001:00000be9       ?GetIDsOfNames@?$IDispatchImpl@UIOPOSRFIDScanner@@$1?IID_IOPOSRFIDScanner@@3U_GUID@@B$1?LIBID_OposRFIDScanner_CCO@@3U3@B$00$0A@VCComTypeInfoHolder@ATL@@@ATL@@UAGJABU_GUID@@PAPA_WIKPAJ@Z 10001be9 f i RFIDScanner.obj
 0001:00000c09       ?Invoke@?$IDispatchImpl@UIOPOSRFIDScanner@@$1?IID_IOPOSRFIDScanner@@3U_GUID@@B$1?LIBID_OposRFIDScanner_CCO@@3U3@B$00$0A@VCComTypeInfoHolder@ATL@@@ATL@@UAGJJABU_GUID@@KGPAUtagDISPPARAMS@@PAUtagVARIANT@@PAUtagEXCEPINFO@@PAI@Z 10001c09 f i RFIDScanner.obj
 0001:00000c17       ?CreateControlWindow@?$CComControl@VCOPOSRFIDScanner@@V?$CWindowImpl@VCOPOSRFIDScanner@@VCWindow@ATL@@V?$CWinTraits@$0FGAAAAAA@$0A@@3@@ATL@@@ATL@@UAEPAUHWND__@@PAU3@AAUtagRECT@@@Z 10001c17 f i RFIDScanner.obj
 0001:00000c46       ?ControlQueryInterface@?$CComControl@VCOPOSRFIDScanner@@V?$CWindowImpl@VCOPOSRFIDScanner@@VCWindow@ATL@@V?$CWinTraits@$0FGAAAAAA@$0A@@3@@ATL@@@ATL@@UAEJABU_GUID@@PAPAX@Z 10001c46 f i RFIDScanner.obj
 0001:00000c61       ?GetUserClassID@?$IOleObjectImpl@VCOPOSRFIDScanner@@@ATL@@UAGJPAU_GUID@@@Z 10001c61 f i RFIDScanner.obj
 0001:00000c61       ?GetClassID@?$IPersistStreamInitImpl@VCOPOSRFIDScanner@@@ATL@@UAGJPAU_GUID@@@Z 10001c61 f i RFIDScanner.obj
 0001:00000c61       ?GetClassID@?$IPersistStorageImpl@VCOPOSRFIDScanner@@@ATL@@UAGJPAU_GUID@@@Z 10001c61 f i RFIDScanner.obj
 0001:00000c85       ?IsDirty@?$IPersistStreamInitImpl@VCOPOSRFIDScanner@@@ATL@@UAGJXZ 10001c85 f i RFIDScanner.obj
 0001:00000ca4       ?Load@?$IPersistStreamInitImpl@VCOPOSRFIDScanner@@@ATL@@UAGJPAUIStream@@@Z 10001ca4 f i RFIDScanner.obj
 0001:00000cc3       ?Save@?$IPersistStreamInitImpl@VCOPOSRFIDScanner@@@ATL@@UAGJPAUIStream@@H@Z 10001cc3 f i RFIDScanner.obj
 0001:00000ce5       ?GetSizeMax@?$IPersistStreamInitImpl@VCOPOSRFIDScanner@@@ATL@@UAGJPAT_ULARGE_INTEGER@@@Z 10001ce5 f i RFIDScanner.obj
 0001:00000ec4       ?InitNew@?$IPersistStreamInitImpl@VCOPOSRFIDScanner@@@ATL@@UAGJXZ 10001ec4 f i RFIDScanner.obj
 0001:00000ee1       ?GetDropTarget@?$IOleInPlaceObjectWindowlessImpl@VCOPOSRFIDScanner@@@ATL@@UAGJPAPAUIDropTarget@@@Z 10001ee1 f i RFIDScanner.obj
 0001:00000ee1       ?OnMnemonic@?$IOleControlImpl@VCOPOSRFIDScanner@@@ATL@@UAGJPAUtagMSG@@@Z 10001ee1 f i RFIDScanner.obj
 0001:00000ee1       ?QueryGetData@?$IDataObjectImpl@VCOPOSRFIDScanner@@@ATL@@UAGJPAUtagFORMATETC@@@Z 10001ee1 f i RFIDScanner.obj
 0001:00000ee1       ?ContextSensitiveHelp@?$IOleInPlaceObjectWindowlessImpl@VCOPOSRFIDScanner@@@ATL@@UAGJH@Z 10001ee1 f i RFIDScanner.obj
 0001:00000ee1       ?ContextSensitiveHelp@?$IOleInPlaceActiveObjectImpl@VCOPOSRFIDScanner@@@ATL@@UAGJH@Z 10001ee1 f i RFIDScanner.obj
 0001:00000ee1       ?GetControlInfo@?$IOleControlImpl@VCOPOSRFIDScanner@@@ATL@@UAGJPAUtagCONTROLINFO@@@Z 10001ee1 f i RFIDScanner.obj
 0001:00000ee1       ?Unfreeze@?$IViewObjectExImpl@VCOPOSRFIDScanner@@@ATL@@UAGJK@Z 10001ee1 f i RFIDScanner.obj
 0001:00000ee1       ?SetColorScheme@?$IOleObjectImpl@VCOPOSRFIDScanner@@@ATL@@UAGJPAUtagLOGPALETTE@@@Z 10001ee1 f i RFIDScanner.obj
 0001:00000ee9       ?SaveCompleted@?$IPersistStorageImpl@VCOPOSRFIDScanner@@@ATL@@UAGJPAUIStorage@@@Z 10001ee9 f i RFIDScanner.obj
 0001:00000ee9       ?OnFrameWindowActivate@?$IOleInPlaceActiveObjectImpl@VCOPOSRFIDScanner@@@ATL@@UAGJH@Z 10001ee9 f i RFIDScanner.obj
 0001:00000ee9       ?OnAmbientPropertyChange@?$IOleControlImpl@VCOPOSRFIDScanner@@@ATL@@UAGJJ@Z 10001ee9 f i RFIDScanner.obj
 0001:00000ee9       ?EnableModeless@?$IOleInPlaceActiveObjectImpl@VCOPOSRFIDScanner@@@ATL@@UAGJH@Z 10001ee9 f i RFIDScanner.obj
 0001:00000eee       ?SetClientSite@?$IOleObjectImpl@VCOPOSRFIDScanner@@@ATL@@UAGJPAUIOleClientSite@@@Z 10001eee f i RFIDScanner.obj
 0001:00000f0b       ?GetClientSite@?$IOleObjectImpl@VCOPOSRFIDScanner@@@ATL@@UAGJPAPAUIOleClientSite@@@Z 10001f0b f i RFIDScanner.obj
 0001:00000f28       ?SetHostNames@?$IOleObjectImpl@VCOPOSRFIDScanner@@@ATL@@UAGJPB_W0@Z 10001f28 f i RFIDScanner.obj
 0001:00000f2d       ?Close@?$IOleObjectImpl@VCOPOSRFIDScanner@@@ATL@@UAGJK@Z 10001f2d f i RFIDScanner.obj
 0001:00000f4a       ?SetMoniker@?$IOleObjectImpl@VCOPOSRFIDScanner@@@ATL@@UAGJKPAUIMoniker@@@Z 10001f4a f i RFIDScanner.obj
 0001:00000f4a       ?QueryInterface@CRegObject@ATL@@UAGJABU_GUID@@PAPAX@Z 10001f4a f i RFIDScanner.obj
 0001:00000f4a       ?EnumFormatEtc@?$IDataObjectImpl@VCOPOSRFIDScanner@@@ATL@@UAGJKPAPAUIEnumFORMATETC@@@Z 10001f4a f i RFIDScanner.obj
 0001:00000f4a       ?GetDataHere@?$IDataObjectImpl@VCOPOSRFIDScanner@@@ATL@@UAGJPAUtagFORMATETC@@PAUtagSTGMEDIUM@@@Z 10001f4a f i RFIDScanner.obj
 0001:00000f4a       ?GetCanonicalFormatEtc@?$IDataObjectImpl@VCOPOSRFIDScanner@@@ATL@@UAGJPAUtagFORMATETC@@0@Z 10001f4a f i RFIDScanner.obj
 0001:00000f4a       ?GetClipboardData@?$IOleObjectImpl@VCOPOSRFIDScanner@@@ATL@@UAGJKPAPAUIDataObject@@@Z 10001f4a f i RFIDScanner.obj
 0001:00000f4a       ?GetRect@?$IViewObjectExImpl@VCOPOSRFIDScanner@@@ATL@@UAGJKPAU_RECTL@@@Z 10001f4a f i RFIDScanner.obj
 0001:00000f52       ?GetMoniker@?$IOleObjectImpl@VCOPOSRFIDScanner@@@ATL@@UAGJKKPAPAUIMoniker@@@Z 10001f52 f i RFIDScanner.obj
 0001:00000f52       ?InitFromData@?$IOleObjectImpl@VCOPOSRFIDScanner@@@ATL@@UAGJPAUIDataObject@@HK@Z 10001f52 f i RFIDScanner.obj
 0001:00000f52       ?SetData@?$IDataObjectImpl@VCOPOSRFIDScanner@@@ATL@@UAGJPAUtagFORMATETC@@PAUtagSTGMEDIUM@@H@Z 10001f52 f i RFIDScanner.obj
 0001:00000f5a       ?DoVerb@?$IOleObjectImpl@VCOPOSRFIDScanner@@@ATL@@UAGJJPAUtagMSG@@PAUIOleClientSite@@JPAUHWND__@@PBUtagRECT@@@Z 10001f5a f i RFIDScanner.obj
 0001:0000104e       ?EnumVerbs@?$IOleObjectImpl@VCOPOSRFIDScanner@@@ATL@@UAGJPAPAUIEnumOLEVERB@@@Z 1000204e f i RFIDScanner.obj
 0001:00001070       ?IsUpToDate@?$IOleObjectImpl@VCOPOSRFIDScanner@@@ATL@@UAGJXZ 10002070 f i RFIDScanner.obj
 0001:00001070       ?Update@?$IOleObjectImpl@VCOPOSRFIDScanner@@@ATL@@UAGJXZ 10002070 f i RFIDScanner.obj
 0001:00001070       ?HandsOffStorage@?$IPersistStorageImpl@VCOPOSRFIDScanner@@@ATL@@UAGJXZ 10002070 f i RFIDScanner.obj
 0001:00001070       ?Release@CRegObject@ATL@@UAGKXZ 10002070 f i RFIDScanner.obj
 0001:00001075       ?GetUserType@?$IOleObjectImpl@VCOPOSRFIDScanner@@@ATL@@UAGJKPAPA_W@Z 10002075 f i RFIDScanner.obj
 0001:0000108d       ?SetExtent@?$IOleObjectImpl@VCOPOSRFIDScanner@@@ATL@@UAGJKPAUtagSIZE@@@Z 1000208d f i RFIDScanner.obj
 0001:000010ad       ?GetExtent@?$IOleObjectImpl@VCOPOSRFIDScanner@@@ATL@@UAGJKPAUtagSIZE@@@Z 100020ad f i RFIDScanner.obj
 0001:000010eb       ?Advise@?$IOleObjectImpl@VCOPOSRFIDScanner@@@ATL@@UAGJPAUIAdviseSink@@PAK@Z 100020eb f i RFIDScanner.obj
 0001:0000110b       ?Unadvise@?$IOleObjectImpl@VCOPOSRFIDScanner@@@ATL@@UAGJK@Z 1000210b f i RFIDScanner.obj
 0001:0000113a       ?EnumAdvise@?$IOleObjectImpl@VCOPOSRFIDScanner@@@ATL@@UAGJPAPAUIEnumSTATDATA@@@Z 1000213a f i RFIDScanner.obj
 0001:0000117a       ?GetMiscStatus@?$IOleObjectImpl@VCOPOSRFIDScanner@@@ATL@@UAGJKPAK@Z 1000217a f i RFIDScanner.obj
 0001:00001192       ?GetWindow@?$IOleInPlaceActiveObjectImpl@VCOPOSRFIDScanner@@@ATL@@UAGJPAPAUHWND__@@@Z 10002192 f i RFIDScanner.obj
 0001:000011df       ?TranslateAcceleratorW@?$IOleInPlaceActiveObjectImpl@VCOPOSRFIDScanner@@@ATL@@UAGJPAUtagMSG@@@Z 100021df f i RFIDScanner.obj
 0001:0000128d       ?OnDocWindowActivate@?$IOleInPlaceActiveObjectImpl@VCOPOSRFIDScanner@@@ATL@@UAGJH@Z 1000228d f i RFIDScanner.obj
 0001:000012af       ?ResizeBorder@?$IOleInPlaceActiveObjectImpl@VCOPOSRFIDScanner@@@ATL@@UAGJPBUtagRECT@@PAUIOleInPlaceUIWindow@@H@Z 100022af f i RFIDScanner.obj
 0001:000012b4       ?Draw@?$IViewObjectExImpl@VCOPOSRFIDScanner@@@ATL@@UAGJKJPAXPAUtagDVTARGETDEVICE@@PAUHDC__@@2PBU_RECTL@@3P6GHK@ZK@Z 100022b4 f i RFIDScanner.obj
 0001:000012e6       ?GetColorSet@?$IViewObjectExImpl@VCOPOSRFIDScanner@@@ATL@@UAGJKJPAXPAUtagDVTARGETDEVICE@@PAUHDC__@@PAPAUtagLOGPALETTE@@@Z 100022e6 f i RFIDScanner.obj
 0001:000012ee       ?Freeze@?$IViewObjectExImpl@VCOPOSRFIDScanner@@@ATL@@UAGJKJPAXPAK@Z 100022ee f i RFIDScanner.obj
 0001:000012f6       ?SetAdvise@?$IViewObjectExImpl@VCOPOSRFIDScanner@@@ATL@@UAGJKKPAUIAdviseSink@@@Z 100022f6 f i RFIDScanner.obj
 0001:00001315       ?GetAdvise@?$IViewObjectExImpl@VCOPOSRFIDScanner@@@ATL@@UAGJPAK0PAPAUIAdviseSink@@@Z 10002315 f i RFIDScanner.obj
 0001:0000134a       ?GetExtent@?$IViewObjectExImpl@VCOPOSRFIDScanner@@@ATL@@UAGJKJPAUtagDVTARGETDEVICE@@PAUtagSIZE@@@Z 1000234a f i RFIDScanner.obj
 0001:0000137b       ?GetViewStatus@?$IViewObjectExImpl@VCOPOSRFIDScanner@@@ATL@@UAGJPAK@Z 1000237b f i RFIDScanner.obj
 0001:00001398       ?QueryHitPoint@?$IViewObjectExImpl@VCOPOSRFIDScanner@@@ATL@@UAGJKPBUtagRECT@@UtagPOINT@@JPAK@Z 10002398 f i RFIDScanner.obj
 0001:000013d9       ?QueryHitRect@?$IViewObjectExImpl@VCOPOSRFIDScanner@@@ATL@@UAGJKPBUtagRECT@@0JPAK@Z 100023d9 f i RFIDScanner.obj
 0001:00001434       ?GetNaturalExtent@?$IViewObjectExImpl@VCOPOSRFIDScanner@@@ATL@@UAGJKJPAUtagDVTARGETDEVICE@@PAUHDC__@@PAUtagExtentInfo@@PAUtagSIZE@@@Z 10002434 f i RFIDScanner.obj
 0001:0000147f       ?GetWindow@?$IOleInPlaceObjectWindowlessImpl@VCOPOSRFIDScanner@@@ATL@@UAGJPAPAUHWND__@@@Z 1000247f f i RFIDScanner.obj
 0001:000014cc       ?InPlaceDeactivate@?$IOleInPlaceObjectWindowlessImpl@VCOPOSRFIDScanner@@@ATL@@UAGJXZ 100024cc f i RFIDScanner.obj
 0001:000014e6       ?UIDeactivate@?$IOleInPlaceObjectWindowlessImpl@VCOPOSRFIDScanner@@@ATL@@UAGJXZ 100024e6 f i RFIDScanner.obj
 0001:00001500       ?SetObjectRects@?$IOleInPlaceObjectWindowlessImpl@VCOPOSRFIDScanner@@@ATL@@UAGJPBUtagRECT@@0@Z 10002500 f i RFIDScanner.obj
 0001:00001520       ?ReactivateAndUndo@?$IOleInPlaceObjectWindowlessImpl@VCOPOSRFIDScanner@@@ATL@@UAGJXZ 10002520 f i RFIDScanner.obj
 0001:00001528       ?OnWindowMessage@?$IOleInPlaceObjectWindowlessImpl@VCOPOSRFIDScanner@@@ATL@@UAGJIIJPAJ@Z 10002528 f i RFIDScanner.obj
 0001:00001598       ?EnumConnectionPoints@?$IConnectionPointContainerImpl@VCOPOSRFIDScanner@@@ATL@@UAGJPAPAUIEnumConnectionPoints@@@Z 10002598 f i RFIDScanner.obj
 0001:00001724       ?FindConnectionPoint@?$IConnectionPointContainerImpl@VCOPOSRFIDScanner@@@ATL@@UAGJABU_GUID@@PAPAUIConnectionPoint@@@Z 10002724 f i RFIDScanner.obj
 0001:000017c7       ?IsDirty@?$IPersistStorageImpl@VCOPOSRFIDScanner@@@ATL@@UAGJXZ 100027c7 f i RFIDScanner.obj
 0001:000017f7       ?InitNew@?$IPersistStorageImpl@VCOPOSRFIDScanner@@@ATL@@UAGJPAUIStorage@@@Z 100027f7 f i RFIDScanner.obj
 0001:00001827       ?Load@?$IPersistStorageImpl@VCOPOSRFIDScanner@@@ATL@@UAGJPAUIStorage@@@Z 10002827 f i RFIDScanner.obj
 0001:00001893       ?Save@?$IPersistStorageImpl@VCOPOSRFIDScanner@@@ATL@@UAGJPAUIStorage@@H@Z 10002893 f i RFIDScanner.obj
 0001:00001906       ?GetPages@?$ISpecifyPropertyPagesImpl@VCOPOSRFIDScanner@@@ATL@@UAGJPAUtagCAUUID@@@Z 10002906 f i RFIDScanner.obj
 0001:0000191d       ?QuickActivate@?$IQuickActivateImpl@VCOPOSRFIDScanner@@@ATL@@UAGJPAUtagQACONTAINER@@PAUtagQACONTROL@@@Z 1000291d f i RFIDScanner.obj
 0001:00001940       ?SetContentExtent@?$IQuickActivateImpl@VCOPOSRFIDScanner@@@ATL@@UAGJPAUtagSIZE@@@Z 10002940 f i RFIDScanner.obj
 0001:0000196c       ?GetContentExtent@?$IQuickActivateImpl@VCOPOSRFIDScanner@@@ATL@@UAGJPAUtagSIZE@@@Z 1000296c f i RFIDScanner.obj
 0001:000019a6       ?GetData@?$IDataObjectImpl@VCOPOSRFIDScanner@@@ATL@@UAGJPAUtagFORMATETC@@PAUtagSTGMEDIUM@@@Z 100029a6 f i RFIDScanner.obj
 0001:000019c9       ?DAdvise@?$IDataObjectImpl@VCOPOSRFIDScanner@@@ATL@@UAGJPAUtagFORMATETC@@KPAUIAdviseSink@@PAK@Z 100029c9 f i RFIDScanner.obj
 0001:00001a0a       ?DUnadvise@?$IDataObjectImpl@VCOPOSRFIDScanner@@@ATL@@UAGJK@Z 10002a0a f i RFIDScanner.obj
 0001:00001a38       ?EnumDAdvise@?$IDataObjectImpl@VCOPOSRFIDScanner@@@ATL@@UAGJPAPAUIEnumSTATDATA@@@Z 10002a38 f i RFIDScanner.obj
 0001:00001a77       ?GetClassInfoW@?$IProvideClassInfo2Impl@$1?CLSID_OPOSRFIDScanner@@3U_GUID@@B$1?DIID__IOPOSRFIDScannerEvents@@3U2@B$1?LIBID_OposRFIDScanner_CCO@@3U2@B$00$0A@VCComTypeInfoHolder@ATL@@@ATL@@UAGJPAPAUITypeInfo@@@Z 10002a77 f i RFIDScanner.obj
 0001:00001a8d       ?GetGUID@?$IProvideClassInfo2Impl@$1?CLSID_OPOSRFIDScanner@@3U_GUID@@B$1?DIID__IOPOSRFIDScannerEvents@@3U2@B$1?LIBID_OposRFIDScanner_CCO@@3U2@B$00$0A@VCComTypeInfoHolder@ATL@@@ATL@@UAGJKPAU_GUID@@@Z 10002a8d f i RFIDScanner.obj
 0001:00001acb       __get_startup_argv_mode    10002acb f i LIBCMT:argv_mode.obj
 0001:00001acb       ?FAccessAllowed@?$IObjectSafetyImpl@VCOPOSRFIDScanner@@$02@ATL@@MAEHXZ 10002acb f i RFIDScanner.obj
 0001:00001acf       ?GetInterfaceSafetyOptions@?$IObjectSafetyImpl@VCOPOSRFIDScanner@@$02@ATL@@UAGJABU_GUID@@PAK1@Z 10002acf f i RFIDScanner.obj
 0001:00001b43       ?SetInterfaceSafetyOptions@?$IObjectSafetyImpl@VCOPOSRFIDScanner@@$02@ATL@@UAGJABU_GUID@@KK@Z 10002b43 f i RFIDScanner.obj
 0001:00001bbd       ?_LocCPQueryInterface@?$IConnectionPointImpl@VCOPOSRFIDScanner@@$1?DIID__IOPOSRFIDScannerEvents@@3U_GUID@@BVCComDynamicUnkArray@ATL@@@ATL@@UAGJABU_GUID@@PAPAX@Z 10002bbd f i RFIDScanner.obj
 0001:00001bbd       ?_LocCPQueryInterface@?$IConnectionPointImpl@VCOPOSRFIDScanner@@$1?IID_IPropertyNotifySink@@3U_GUID@@BVCComDynamicUnkArray@ATL@@@ATL@@UAGJABU_GUID@@PAPAX@Z 10002bbd f i RFIDScanner.obj
 0001:00001c0a       ?GetConnectionInterface@?$IConnectionPointImpl@VCOPOSRFIDScanner@@$1?IID_IPropertyNotifySink@@3U_GUID@@BVCComDynamicUnkArray@ATL@@@ATL@@UAGJPAU_GUID@@@Z 10002c0a f i RFIDScanner.obj
 0001:00001c2e       ?GetConnectionPointContainer@?$IConnectionPointImpl@VCOPOSRFIDScanner@@$1?IID_IPropertyNotifySink@@3U_GUID@@BVCComDynamicUnkArray@ATL@@@ATL@@UAGJPAPAUIConnectionPointContainer@@@Z 10002c2e f i RFIDScanner.obj
 0001:00001c51       ?Advise@?$IConnectionPointImpl@VCOPOSRFIDScanner@@$1?DIID__IOPOSRFIDScannerEvents@@3U_GUID@@BVCComDynamicUnkArray@ATL@@@ATL@@UAGJPAUIUnknown@@PAK@Z 10002c51 f i RFIDScanner.obj
 0001:00001c51       ?Advise@?$IConnectionPointImpl@VCOPOSRFIDScanner@@$1?IID_IPropertyNotifySink@@3U_GUID@@BVCComDynamicUnkArray@ATL@@@ATL@@UAGJPAUIUnknown@@PAK@Z 10002c51 f i RFIDScanner.obj
 0001:00001cf1       ?Unadvise@?$IConnectionPointImpl@VCOPOSRFIDScanner@@$1?DIID__IOPOSRFIDScannerEvents@@3U_GUID@@BVCComDynamicUnkArray@ATL@@@ATL@@UAGJK@Z 10002cf1 f i RFIDScanner.obj
 0001:00001cf1       ?Unadvise@?$IConnectionPointImpl@VCOPOSRFIDScanner@@$1?IID_IPropertyNotifySink@@3U_GUID@@BVCComDynamicUnkArray@ATL@@@ATL@@UAGJK@Z 10002cf1 f i RFIDScanner.obj
 0001:00001d31       ?EnumConnections@?$IConnectionPointImpl@VCOPOSRFIDScanner@@$1?IID_IPropertyNotifySink@@3U_GUID@@BVCComDynamicUnkArray@ATL@@@ATL@@UAGJPAPAUIEnumConnections@@@Z 10002d31 f i RFIDScanner.obj
 0001:00001d31       ?EnumConnections@?$IConnectionPointImpl@VCOPOSRFIDScanner@@$1?DIID__IOPOSRFIDScannerEvents@@3U_GUID@@BVCComDynamicUnkArray@ATL@@@ATL@@UAGJPAPAUIEnumConnections@@@Z 10002d31 f i RFIDScanner.obj
 0001:00001e2c       ?GetObjectDescription@?$CComCoClass@VCOPOSRFIDScanner@@$1?CLSID_OPOSRFIDScanner@@3U_GUID@@B@ATL@@SGPB_WXZ 10002e2c f i RFIDScanner.obj
 0001:00001e2c       ?GetCategoryMap@CComObjectRootBase@ATL@@SAPBU_ATL_CATMAP_ENTRY@2@XZ 10002e2c f i RFIDScanner.obj
 0001:00001e2f       ?GetConnectionInterface@?$IConnectionPointImpl@VCOPOSRFIDScanner@@$1?DIID__IOPOSRFIDScannerEvents@@3U_GUID@@BVCComDynamicUnkArray@ATL@@@ATL@@UAGJPAU_GUID@@@Z 10002e2f f i RFIDScanner.obj
 0001:00001e53       ?GetConnectionPointContainer@?$IConnectionPointImpl@VCOPOSRFIDScanner@@$1?DIID__IOPOSRFIDScannerEvents@@3U_GUID@@BVCComDynamicUnkArray@ATL@@@ATL@@UAGJPAPAUIConnectionPointContainer@@@Z 10002e53 f i RFIDScanner.obj
 0001:00001e76       ?UpdateRegistry@COPOSRFIDScanner@@SGJH@Z 10002e76 f i RFIDScanner.obj
 0001:00001e8e       ?ProcessWindowMessage@COPOSRFIDScanner@@UAEHPAUHWND__@@IIJAAJK@Z 10002e8e f i RFIDScanner.obj
 0001:00001ed7       ?SOData@COPOSRFIDScanner@@MAGJJ@Z 10002ed7 f i RFIDScanner.obj
 0001:00001f10       ?SODirectIO@COPOSRFIDScanner@@MAGJJPAJPAPA_W@Z 10002f10 f i RFIDScanner.obj
 0001:00001f59       ?SOError@COPOSRFIDScanner@@MAGJJJJPAJ@Z 10002f59 f i RFIDScanner.obj
 0001:00001fae       ?SOOutputComplete@COPOSRFIDScanner@@MAGJJ@Z 10002fae f i RFIDScanner.obj
 0001:00001fe7       ?SOStatusUpdate@COPOSRFIDScanner@@MAGJJ@Z 10002fe7 f i RFIDScanner.obj
 0001:00002020       ?Lock@CAtlModule@ATL@@UAEJXZ 10003020 f i RFIDScanner.obj
 0001:0000202a       ?Unlock@CAtlModule@ATL@@UAEJXZ 1000302a f i RFIDScanner.obj
 0001:00002034       ?GetLockCount@CAtlModule@ATL@@UAEJXZ 10003034 f i RFIDScanner.obj
 0001:00002038       ?GetGITPtr@CAtlModule@ATL@@UAEJPAPAUIGlobalInterfaceTable@@@Z 10003038 f i RFIDScanner.obj
 0001:00002084       ?AddCommonRGSReplacements@?$CAtlModuleT@VCComModule@ATL@@@ATL@@UAEJPAUIRegistrarBase@@@Z 10003084 f i RFIDScanner.obj
 0001:0000209e       ?UpdateRegistryFromResourceD@CComModule@ATL@@UAGJPB_WHPAU_ATL_REGMAP_ENTRY@2@@Z 1000309e f i RFIDScanner.obj
 0001:0000209e       ?UpdateRegistryFromResourceD@CComModule@ATL@@UAGJIHPAU_ATL_REGMAP_ENTRY@2@@Z 1000309e f i RFIDScanner.obj
 0001:000020a6       ?UpdateRegistryFromResource@CComModule@ATL@@UAGJPB_WHPAU_ATL_REGMAP_ENTRY@2@@Z 100030a6 f i RFIDScanner.obj
 0001:000020af       ?UpdateRegistryFromResource@CComModule@ATL@@UAGJIHPAU_ATL_REGMAP_ENTRY@2@@Z 100030af f i RFIDScanner.obj
 0001:000020b8       ??_GCComModule@ATL@@UAEPAXI@Z 100030b8 f i RFIDScanner.obj
 0001:000020b8       ??_ECComModule@ATL@@UAEPAXI@Z 100030b8 f i RFIDScanner.obj
 0001:000020e0       ?CreateInstance@?$CComCreator@V?$CComObjectCached@VCComClassFactory@ATL@@@ATL@@@ATL@@SGJPAXABU_GUID@@PAPAX@Z 100030e0 f i RFIDScanner.obj
 0001:00002180       ?CreateInstance@?$CComCreator2@V?$CComCreator@V?$CComObject@VCOPOSRFIDScanner@@@ATL@@@ATL@@V?$CComCreator@V?$CComAggObject@VCOPOSRFIDScanner@@@ATL@@@2@@ATL@@SGJPAXABU_GUID@@PAPAX@Z 10003180 f i RFIDScanner.obj
 0001:000021a0       ?AddRef@?$CComObjectCached@VCComClassFactory@ATL@@@ATL@@UAGKXZ 100031a0 f i RFIDScanner.obj
 0001:000021c7       ?Release@?$CComObjectCached@VCComClassFactory@ATL@@@ATL@@UAGKXZ 100031c7 f i RFIDScanner.obj
 0001:000021fd       ?QueryInterface@?$CComObjectCached@VCComClassFactory@ATL@@@ATL@@UAGJABU_GUID@@PAPAX@Z 100031fd f i RFIDScanner.obj
 0001:00002217       ??_G?$CComObjectCached@VCComClassFactory@ATL@@@ATL@@UAEPAXI@Z 10003217 f i RFIDScanner.obj
 0001:00002217       ??_E?$CComObjectCached@VCComClassFactory@ATL@@@ATL@@UAEPAXI@Z 10003217 f i RFIDScanner.obj
 0001:00002239       ?Next@?$CComEnumImpl@UIEnumConnectionPoints@@$1?_GUID_b196b285_bab4_101a_b69c_00aa00341d07@@3U__s_GUID@@BPAUIConnectionPoint@@V?$_CopyInterface@UIConnectionPoint@@@ATL@@@ATL@@UAGJKPAPAUIConnectionPoint@@PAK@Z 10003239 f i RFIDScanner.obj
 0001:00002310       ?Skip@?$CComEnumImpl@UIEnumConnectionPoints@@$1?_GUID_b196b285_bab4_101a_b69c_00aa00341d07@@3U__s_GUID@@BPAUIConnectionPoint@@V?$_CopyInterface@UIConnectionPoint@@@ATL@@@ATL@@UAGJK@Z 10003310 f i RFIDScanner.obj
 0001:0000233d       ?Reset@?$CComEnumImpl@UIEnumConnectionPoints@@$1?_GUID_b196b285_bab4_101a_b69c_00aa00341d07@@3U__s_GUID@@BPAUIConnectionPoint@@V?$_CopyInterface@UIConnectionPoint@@@ATL@@@ATL@@UAGJXZ 1000333d f i RFIDScanner.obj
 0001:0000233d       ?Reset@?$CComEnumImpl@UIEnumConnections@@$1?_GUID_b196b287_bab4_101a_b69c_00aa00341d07@@3U__s_GUID@@BUtagCONNECTDATA@@V?$_Copy@UtagCONNECTDATA@@@ATL@@@ATL@@UAGJXZ 1000333d f i RFIDScanner.obj
 0001:0000234f       ?Clone@?$CComEnumImpl@UIEnumConnectionPoints@@$1?_GUID_b196b285_bab4_101a_b69c_00aa00341d07@@3U__s_GUID@@BPAUIConnectionPoint@@V?$_CopyInterface@UIConnectionPoint@@@ATL@@@ATL@@UAGJPAPAUIEnumConnectionPoints@@@Z 1000334f f i RFIDScanner.obj
 0001:00002430       ?AddRef@?$CComObject@V?$CComEnum@UIEnumConnections@@$1?_GUID_b196b287_bab4_101a_b69c_00aa00341d07@@3U__s_GUID@@BUtagCONNECTDATA@@V?$_Copy@UtagCONNECTDATA@@@ATL@@VCComSingleThreadModel@6@@ATL@@@ATL@@UAGKXZ 10003430 f i RFIDScanner.obj
 0001:00002430       ?AddRef@?$CComObject@V?$CComEnum@UIEnumConnectionPoints@@$1?_GUID_b196b285_bab4_101a_b69c_00aa00341d07@@3U__s_GUID@@BPAUIConnectionPoint@@V?$_CopyInterface@UIConnectionPoint@@@ATL@@VCComSingleThreadModel@6@@ATL@@@ATL@@UAGKXZ 10003430 f i RFIDScanner.obj
 0001:00002441       ?Release@?$CComObject@V?$CComEnum@UIEnumConnections@@$1?_GUID_b196b287_bab4_101a_b69c_00aa00341d07@@3U__s_GUID@@BUtagCONNECTDATA@@V?$_Copy@UtagCONNECTDATA@@@ATL@@VCComSingleThreadModel@6@@ATL@@@ATL@@UAGKXZ 10003441 f i RFIDScanner.obj
 0001:00002441       ?Release@?$CComObject@V?$CComEnum@UIEnumConnectionPoints@@$1?_GUID_b196b285_bab4_101a_b69c_00aa00341d07@@3U__s_GUID@@BPAUIConnectionPoint@@V?$_CopyInterface@UIConnectionPoint@@@ATL@@VCComSingleThreadModel@6@@ATL@@@ATL@@UAGKXZ 10003441 f i RFIDScanner.obj
 0001:0000247d       ?QueryInterface@?$CComObject@V?$CComEnum@UIEnumConnectionPoints@@$1?_GUID_b196b285_bab4_101a_b69c_00aa00341d07@@3U__s_GUID@@BPAUIConnectionPoint@@V?$_CopyInterface@UIConnectionPoint@@@ATL@@VCComSingleThreadModel@6@@ATL@@@ATL@@UAGJABU_GUID@@PAPAX@Z 1000347d f i RFIDScanner.obj
 0001:00002497       ??_G?$CComObject@V?$CComEnum@UIEnumConnectionPoints@@$1?_GUID_b196b285_bab4_101a_b69c_00aa00341d07@@3U__s_GUID@@BPAUIConnectionPoint@@V?$_CopyInterface@UIConnectionPoint@@@ATL@@VCComSingleThreadModel@6@@ATL@@@ATL@@UAEPAXI@Z 10003497 f i RFIDScanner.obj
 0001:00002497       ??_E?$CComObject@V?$CComEnum@UIEnumConnectionPoints@@$1?_GUID_b196b285_bab4_101a_b69c_00aa00341d07@@3U__s_GUID@@BPAUIConnectionPoint@@V?$_CopyInterface@UIConnectionPoint@@@ATL@@VCComSingleThreadModel@6@@ATL@@@ATL@@UAEPAXI@Z 10003497 f i RFIDScanner.obj
 0001:000024b9       ?AddRef@CRegObject@ATL@@UAGKXZ 100034b9 f i RFIDScanner.obj
 0001:000024bf       ?AddReplacement@CRegObject@ATL@@UAGJPB_W0@Z 100034bf f i RFIDScanner.obj
 0001:000024f8       ?ClearReplacements@CRegObject@ATL@@UAGJXZ 100034f8 f i RFIDScanner.obj
 0001:0000250a       ??_GCRegObject@ATL@@UAEPAXI@Z 1000350a f i RFIDScanner.obj
 0001:0000250a       ??_ECRegObject@ATL@@UAEPAXI@Z 1000350a f i RFIDScanner.obj
 0001:0000252c       ?AddRef@?$CComAggObject@VCOPOSRFIDScanner@@@ATL@@UAGKXZ 1000352c f i RFIDScanner.obj
 0001:0000253d       ?Release@?$CComAggObject@VCOPOSRFIDScanner@@@ATL@@UAGKXZ 1000353d f i RFIDScanner.obj
 0001:00002579       ?QueryInterface@?$CComAggObject@VCOPOSRFIDScanner@@@ATL@@UAGJABU_GUID@@PAPAX@Z 10003579 f i RFIDScanner.obj
 0001:000025c8       ?AddRef@?$CComContainedObject@VCOPOSRFIDScanner@@@ATL@@UAGKXZ 100035c8 f i RFIDScanner.obj
 0001:000025de       ?Release@?$CComContainedObject@VCOPOSRFIDScanner@@@ATL@@UAGKXZ 100035de f i RFIDScanner.obj
 0001:000025f4       ?QueryInterface@?$CComContainedObject@VCOPOSRFIDScanner@@@ATL@@UAGJABU_GUID@@PAPAX@Z 100035f4 f i RFIDScanner.obj
 0001:0000260f       ??_G?$CComAggObject@VCOPOSRFIDScanner@@@ATL@@UAEPAXI@Z 1000360f f i RFIDScanner.obj
 0001:0000260f       ??_E?$CComAggObject@VCOPOSRFIDScanner@@@ATL@@UAEPAXI@Z 1000360f f i RFIDScanner.obj
 0001:00002634       ?AddRef@?$CComObject@VCOPOSRFIDScanner@@@ATL@@UAGKXZ 10003634 f i RFIDScanner.obj
 0001:0000264b       ?Release@?$CComObject@VCOPOSRFIDScanner@@@ATL@@UAGKXZ 1000364b f i RFIDScanner.obj
 0001:0000268d       ?QueryInterface@?$CComObject@VCOPOSRFIDScanner@@@ATL@@UAGJABU_GUID@@PAPAX@Z 1000368d f i RFIDScanner.obj
 0001:000026a7       ?OnDrawAdvanced@CComControlBase@ATL@@UAEJAAUATL_DRAWINFO@@@Z 100036a7 f i RFIDScanner.obj
 0001:0000279a       ?Next@?$CComEnumImpl@UIEnumConnections@@$1?_GUID_b196b287_bab4_101a_b69c_00aa00341d07@@3U__s_GUID@@BUtagCONNECTDATA@@V?$_Copy@UtagCONNECTDATA@@@ATL@@@ATL@@UAGJKPAUtagCONNECTDATA@@PAK@Z 1000379a f i RFIDScanner.obj
 0001:00002871       ?Skip@?$CComEnumImpl@UIEnumConnections@@$1?_GUID_b196b287_bab4_101a_b69c_00aa00341d07@@3U__s_GUID@@BUtagCONNECTDATA@@V?$_Copy@UtagCONNECTDATA@@@ATL@@@ATL@@UAGJK@Z 10003871 f i RFIDScanner.obj
 0001:0000289e       ?Clone@?$CComEnumImpl@UIEnumConnections@@$1?_GUID_b196b287_bab4_101a_b69c_00aa00341d07@@3U__s_GUID@@BUtagCONNECTDATA@@V?$_Copy@UtagCONNECTDATA@@@ATL@@@ATL@@UAGJPAPAUIEnumConnections@@@Z 1000389e f i RFIDScanner.obj
 0001:0000297f       ?QueryInterface@?$CComObject@V?$CComEnum@UIEnumConnections@@$1?_GUID_b196b287_bab4_101a_b69c_00aa00341d07@@3U__s_GUID@@BUtagCONNECTDATA@@V?$_Copy@UtagCONNECTDATA@@@ATL@@VCComSingleThreadModel@6@@ATL@@@ATL@@UAGJABU_GUID@@PAPAX@Z 1000397f f i RFIDScanner.obj
 0001:00002999       ??_E?$CComObject@V?$CComEnum@UIEnumConnections@@$1?_GUID_b196b287_bab4_101a_b69c_00aa00341d07@@3U__s_GUID@@BUtagCONNECTDATA@@V?$_Copy@UtagCONNECTDATA@@@ATL@@VCComSingleThreadModel@6@@ATL@@@ATL@@UAEPAXI@Z 10003999 f i RFIDScanner.obj
 0001:00002999       ??_G?$CComObject@V?$CComEnum@UIEnumConnections@@$1?_GUID_b196b287_bab4_101a_b69c_00aa00341d07@@3U__s_GUID@@BUtagCONNECTDATA@@V?$_Copy@UtagCONNECTDATA@@@ATL@@VCComSingleThreadModel@6@@ATL@@@ATL@@UAEPAXI@Z 10003999 f i RFIDScanner.obj
 0001:000029bb       ??$?4UITypeInfo2@@@?$CComPtr@UITypeInfo@@@ATL@@QAEPAUITypeInfo@@ABV?$CComPtr@UITypeInfo2@@@1@@Z 100039bb f i RFIDScanner.obj
 0001:000029e8       ??$AtlAdd@K@ATL@@YAJPAKKK@Z 100039e8 f i RFIDScanner.obj
 0001:00002a0b       ??$AtlAdd@_K@ATL@@YAJPA_K_K1@Z 10003a0b f i RFIDScanner.obj
 0001:00002a43       ??$AtlAddThrow@K@ATL@@YAKKK@Z 10003a43 f i RFIDScanner.obj
 0001:00002a69       ??$AtlModuleRegisterWndClassInfoT@VAtlModuleRegisterWndClassInfoParamW@ATL@@@ATL@@YAGPAU_ATL_BASE_MODULE70@0@PAU_ATL_WIN_MODULE70@0@PAU_ATL_WNDCLASSINFOW@0@PAP6GJPAUHWND__@@IIJ@ZVAtlModuleRegisterWndClassInfoParamW@0@@Z 10003a69 f i RFIDScanner.obj
 0001:00002bb7       ??$AtlMultiply@H@ATL@@YAJPAHHH@Z 10003bb7 f i RFIDScanner.obj
 0001:00002bef       ??$AtlMultiply@I@ATL@@YAJPAIII@Z 10003bef f i RFIDScanner.obj
 0001:00002bef       ??$AtlMultiply@K@ATL@@YAJPAKKK@Z 10003bef f i RFIDScanner.obj
 0001:00002c11       ??$AtlMultiplyThrow@I@ATL@@YAIII@Z 10003c11 f i RFIDScanner.obj
 0001:00002c37       ??0?$CComAggObject@VCOPOSRFIDScanner@@@ATL@@QAE@PAX@Z 10003c37 f i RFIDScanner.obj
 0001:00002c64       ??0?$CComContainedObject@VCOPOSRFIDScanner@@@ATL@@QAE@PAX@Z 10003c64 f i RFIDScanner.obj
 0001:00002d1d       ??0?$CComObject@V?$CComEnum@UIEnumConnectionPoints@@$1?_GUID_b196b285_bab4_101a_b69c_00aa00341d07@@3U__s_GUID@@BPAUIConnectionPoint@@V?$_CopyInterface@UIConnectionPoint@@@ATL@@VCComSingleThreadModel@6@@ATL@@@ATL@@QAE@PAX@Z 10003d1d f i RFIDScanner.obj
 0001:00002d4b       ??0?$CComObject@V?$CComEnum@UIEnumConnections@@$1?_GUID_b196b287_bab4_101a_b69c_00aa00341d07@@3U__s_GUID@@BUtagCONNECTDATA@@V?$_Copy@UtagCONNECTDATA@@@ATL@@VCComSingleThreadModel@6@@ATL@@@ATL@@QAE@PAX@Z 10003d4b f i RFIDScanner.obj
 0001:00002d79       ??0?$CComObject@VCOPOSRFIDScanner@@@ATL@@QAE@PAX@Z 10003d79 f i RFIDScanner.obj
 0001:00002e30       ??0?$CComQIPtr@UIOleControlSite@@$1?_GUID_b196b289_bab4_101a_b69c_00aa00341d07@@3U__s_GUID@@B@ATL@@QAE@PAUIUnknown@@@Z 10003e30 f i RFIDScanner.obj
 0001:00002e59       ??0CAtlModule@ATL@@QAE@XZ  10003e59 f i RFIDScanner.obj
 0001:00002e9a       ??0CParseBuffer@CRegParser@ATL@@QAE@H@Z 10003e9a f i RFIDScanner.obj
 0001:00002ed0       ??0_ATL_MSG@ATL@@QAE@PAUHWND__@@IIJH@Z 10003ed0 f i RFIDScanner.obj
 0001:00002f08       ??1?$CComAggObject@VCOPOSRFIDScanner@@@ATL@@UAE@XZ 10003f08 f i RFIDScanner.obj
 0001:00002f2c       ??1?$CComEnumImpl@UIEnumConnectionPoints@@$1?_GUID_b196b285_bab4_101a_b69c_00aa00341d07@@3U__s_GUID@@BPAUIConnectionPoint@@V?$_CopyInterface@UIConnectionPoint@@@ATL@@@ATL@@UAE@XZ 10003f2c f i RFIDScanner.obj
 0001:00002f6c       ??1?$CComEnumImpl@UIEnumConnections@@$1?_GUID_b196b287_bab4_101a_b69c_00aa00341d07@@3U__s_GUID@@BUtagCONNECTDATA@@V?$_Copy@UtagCONNECTDATA@@@ATL@@@ATL@@UAE@XZ 10003f6c f i RFIDScanner.obj
 0001:00002fac       ??1?$CComObject@V?$CComEnum@UIEnumConnectionPoints@@$1?_GUID_b196b285_bab4_101a_b69c_00aa00341d07@@3U__s_GUID@@BPAUIConnectionPoint@@V?$_CopyInterface@UIConnectionPoint@@@ATL@@VCComSingleThreadModel@6@@ATL@@@ATL@@UAE@XZ 10003fac f i RFIDScanner.obj
 0001:00002fcf       ??1?$CComObject@V?$CComEnum@UIEnumConnections@@$1?_GUID_b196b287_bab4_101a_b69c_00aa00341d07@@3U__s_GUID@@BUtagCONNECTDATA@@V?$_Copy@UtagCONNECTDATA@@@ATL@@VCComSingleThreadModel@6@@ATL@@@ATL@@UAE@XZ 10003fcf f i RFIDScanner.obj
 0001:00002ff2       ??1?$CComObject@VCOPOSRFIDScanner@@@ATL@@UAE@XZ 10003ff2 f i RFIDScanner.obj
 0001:000030b0       ??1?$CComObjectCached@VCComClassFactory@ATL@@@ATL@@UAE@XZ 100040b0 f i RFIDScanner.obj
 0001:000030c6       ??1?$CComObjectRootEx@VCComMultiThreadModel@ATL@@@ATL@@QAE@XZ 100040c6 f i RFIDScanner.obj
 0001:000030db       ??1CRegObject@ATL@@UAE@XZ  100040db f i RFIDScanner.obj
 0001:000030fb       ??4?$CComPtr@UIOleClientSite@@@ATL@@QAEPAUIOleClientSite@@PAU2@@Z 100040fb f i RFIDScanner.obj
 0001:000030fb       ??4?$CComPtr@UIAdviseSink@@@ATL@@QAEPAUIAdviseSink@@PAU2@@Z 100040fb f i RFIDScanner.obj
 0001:000030fb       ??4?$CComPtr@UIUnknown@@@ATL@@QAEPAUIUnknown@@PAU2@@Z 100040fb f i RFIDScanner.obj
 0001:0000312f       ??_G?$CComContainedObject@VCOPOSRFIDScanner@@@ATL@@UAEPAXI@Z 1000412f f i RFIDScanner.obj
 0001:0000312f       ??_E?$CComContainedObject@VCOPOSRFIDScanner@@@ATL@@UAEPAXI@Z 1000412f f i RFIDScanner.obj
 0001:00003154       ??_E?$CComObject@VCOPOSRFIDScanner@@@ATL@@UAEPAXI@Z 10004154 f i RFIDScanner.obj
 0001:00003154       ??_G?$CComObject@VCOPOSRFIDScanner@@@ATL@@UAEPAXI@Z 10004154 f i RFIDScanner.obj
 0001:00003179       ?Add@?$CSimpleArray@GV?$CSimpleArrayEqualHelper@G@ATL@@@ATL@@QAEHABG@Z 10004179 f i RFIDScanner.obj
 0001:000031fd       ?Add@?$CSimpleMap@PA_WPA_WVCExpansionVectorEqualHelper@ATL@@@ATL@@QAEHABQA_W0@Z 100041fd f i RFIDScanner.obj
 0001:00003252       ?Add@CComDynamicUnkArray@ATL@@QAEKPAUIUnknown@@@Z 10004252 f i RFIDScanner.obj
 0001:00003308       ?Add@CExpansionVector@ATL@@QAEHPB_W0@Z 10004308 f i RFIDScanner.obj
 0001:00003411       ?AddString@CParseBuffer@CRegParser@ATL@@QAEHPB_W@Z 10004411 f i RFIDScanner.obj
 0001:00003446       ?AddTermFunc@CAtlModule@ATL@@QAEJP6GXK@ZK@Z 10004446 f i RFIDScanner.obj
 0001:000034a9       ?AddValue@CRegParser@ATL@@IAEJAAVCRegKey@2@PB_WPA_W@Z 100044a9 f i RFIDScanner.obj
 0001:000037c3       ?Allocate@?$CAtlSafeAllocBufferManager@VCCRTAllocator@ATL@@@_ATL_SAFE_ALLOCA_IMPL@ATL@@QAEPAXK@Z 100047c3 f i RFIDScanner.obj
 0001:000037f0       ?Allocate@?$CTempBuffer@E$0BAA@VCCRTAllocator@ATL@@@ATL@@QAEPAEI@Z 100047f0 f i RFIDScanner.obj
 0001:0000381f       ?Allocate@?$CTempBuffer@_W$0BAA@VCCRTAllocator@ATL@@@ATL@@QAEPA_WI@Z 1000481f f i RFIDScanner.obj
 0001:0000384e       ?Allocate@?$CTempBuffer@_W$0EAA@VCCRTAllocator@ATL@@@ATL@@QAEPA_WI@Z 1000484e f i RFIDScanner.obj
 0001:0000387d       ?AllocateHeap@?$CTempBuffer@E$0BAA@VCCRTAllocator@ATL@@@ATL@@AAEXI@Z 1000487d f i RFIDScanner.obj
 0001:0000387d       ?AllocateHeap@?$CTempBuffer@_W$0BAA@VCCRTAllocator@ATL@@@ATL@@AAEXI@Z 1000487d f i RFIDScanner.obj
 0001:0000387d       ?AllocateHeap@?$CTempBuffer@_W$0EAA@VCCRTAllocator@ATL@@@ATL@@AAEXI@Z 1000487d f i RFIDScanner.obj
 0001:000038a2       ?Append@CParseBuffer@CRegParser@ATL@@QAEHPB_WH@Z 100048a2 f i RFIDScanner.obj
 0001:00003930       ?AtlCoTaskMemCAlloc@ATL@@YAPAXKK@Z 10004930 f i RFIDScanner.obj
 0001:0000395d       ?AtlCoTaskMemRecalloc@ATL@@YAPAXPAXKK@Z 1000495d f i RFIDScanner.obj
 0001:0000398d       ?AtlComModuleGetClassObject@ATL@@YGJPAU_ATL_COM_MODULE70@1@ABU_GUID@@1PAPAX@Z 1000498d f i RFIDScanner.obj
 0001:00003a80       ?AtlComModuleRegisterServer@ATL@@YGJPAU_ATL_COM_MODULE70@1@HPBU_GUID@@@Z 10004a80 f i RFIDScanner.obj
 0001:00003b08       ?AtlComModuleUnregisterServer@ATL@@YGJPAU_ATL_COM_MODULE70@1@HPBU_GUID@@@Z 10004b08 f i RFIDScanner.obj
 0001:00003b90       ?AtlComQIPtrAssign2@ATL@@YAXPAPAUIUnknown@@PAU2@ABU_GUID@@@Z 10004b90 f i RFIDScanner.obj
 0001:00003bbf       ?AtlCreateTargetDC@ATL@@YGPAUHDC__@@PAU2@PAUtagDVTARGETDEVICE@@@Z 10004bbf f i RFIDScanner.obj
 0001:00003c28       ?AtlCrtErrorCheck@ATL@@YAHH@Z 10004c28 f i RFIDScanner.obj
 0001:00003c63       ?AtlHiMetricToPixel@ATL@@YGXPBUtagSIZE@@PAU2@@Z 10004c63 f i RFIDScanner.obj
 0001:00003cd8       ?AtlHresultFromLastError@ATL@@YAJXZ 10004cd8 f i RFIDScanner.obj
 0001:00003cef       ?AtlHresultFromWin32@ATL@@YAJK@Z 10004cef f i RFIDScanner.obj
 0001:00003d04       ?AtlInternalOleLoadFromStream@ATL@@YAJPAUIStream@@ABU_GUID@@PAPAXTClassesAllowedInStream@1@K@Z 10004d04 f i RFIDScanner.obj
 0001:00003e22       ?AtlInternalQueryInterface@ATL@@YGJPAXPBU_ATL_INTMAP_ENTRY@1@ABU_GUID@@PAPAX@Z 10004e22 f i RFIDScanner.obj
 0001:00003ec5       ?AtlLoadTypeLib@ATL@@YGJPAUHINSTANCE__@@PB_WPAPA_WPAPAUITypeLib@@@Z 10004ec5 f i RFIDScanner.obj
 0001:000040a3       ?AtlRegisterClassCategoriesHelper@ATL@@YGJABU_GUID@@PBU_ATL_CATMAP_ENTRY@1@H@Z 100050a3 f i RFIDScanner.obj
 0001:0000439f       ?AtlRegisterTypeLib@ATL@@YGJPAUHINSTANCE__@@PB_W@Z 1000539f f i RFIDScanner.obj
 0001:00004527       ?AtlThrowImpl@ATL@@YGXJ@Z  10005527 f i RFIDScanner.obj
 0001:00004545       ?AtlUnRegisterTypeLib@ATL@@YGJPAUHINSTANCE__@@PB_W@Z 10005545 f i RFIDScanner.obj
 0001:000045f0       ?AtlWinModuleAddCreateWndData@ATL@@YGXPAU_ATL_WIN_MODULE70@1@PAU_AtlCreateWndData@1@PAX@Z 100055f0 f i RFIDScanner.obj
 0001:00004644       ?AtlWinModuleExtractCreateWndData@ATL@@YGPAXPAU_ATL_WIN_MODULE70@1@@Z 10005644 f i RFIDScanner.obj
 0001:000046a7       ?AtlWinModuleRegisterClassExW@ATL@@YGGPAU_ATL_WIN_MODULE70@1@PBUtagWNDCLASSEXW@@@Z 100056a7 f i RFIDScanner.obj
 0001:000046e6       ?CanForceRemoveKey@CRegParser@ATL@@IAEHPB_W@Z 100056e6 f i RFIDScanner.obj
 0001:00004715       ?ChToByte@CRegParser@ATL@@KAE_W@Z 10005715 f i RFIDScanner.obj
 0001:00004748       ?Cleanup@CComTypeInfoHolder@ATL@@SGXK@Z 10005748 f i RFIDScanner.obj
 0001:0000477b       ?ClearReplacements@CExpansionVector@ATL@@QAEJXZ 1000577b f i RFIDScanner.obj
 0001:000047b8       ?Close@CRegKey@ATL@@QAEJXZ 100057b8 f i RFIDScanner.obj
 0001:000047d2       ?CreateInstance@?$CComCreator@V?$CComAggObject@VCOPOSRFIDScanner@@@ATL@@@ATL@@SGJPAXABU_GUID@@PAPAX@Z 100057d2 f i RFIDScanner.obj
 0001:00004847       ?CreateInstance@?$CComCreator@V?$CComObject@VCOPOSRFIDScanner@@@ATL@@@ATL@@SGJPAXABU_GUID@@PAPAX@Z 10005847 f i RFIDScanner.obj
 0001:000048c7       ?CreateInstance@?$CComObject@V?$CComEnum@UIEnumConnectionPoints@@$1?_GUID_b196b285_bab4_101a_b69c_00aa00341d07@@3U__s_GUID@@BPAUIConnectionPoint@@V?$_CopyInterface@UIConnectionPoint@@@ATL@@VCComSingleThreadModel@6@@ATL@@@ATL@@SGJPAPAV12@@Z 100058c7 f i RFIDScanner.obj
 0001:00004911       ?CreateInstance@?$CComObject@V?$CComEnum@UIEnumConnections@@$1?_GUID_b196b287_bab4_101a_b69c_00aa00341d07@@3U__s_GUID@@BUtagCONNECTDATA@@V?$_Copy@UtagCONNECTDATA@@@ATL@@VCComSingleThreadModel@6@@ATL@@@ATL@@SGJPAPAV12@@Z 10005911 f i RFIDScanner.obj
 0001:0000495b       ?DefaultReflectionHandler@?$CWindowImplRoot@VCWindow@ATL@@@ATL@@SAHPAUHWND__@@IIJAAJ@Z 1000595b f i RFIDScanner.obj
 0001:000049ce       ?DeleteSubKey@CRegKey@ATL@@QAEJPB_W@Z 100059ce f i RFIDScanner.obj
 0001:00004a47       ?DoEvent@COPOSRFIDScanner@@IAEXIIJ@Z 10005a47 f i RFIDScanner.obj
 0001:00004ac7       ?DoVerbHide@?$IOleObjectImpl@VCOPOSRFIDScanner@@@ATL@@QAEJPBUtagRECT@@PAUHWND__@@@Z 10005ac7 f i RFIDScanner.obj
 0001:00004afd       ?DoVerbInPlaceActivate@?$IOleObjectImpl@VCOPOSRFIDScanner@@@ATL@@QAEJPBUtagRECT@@PAUHWND__@@@Z 10005afd f i RFIDScanner.obj
 0001:00004b30       ?DoVerbPrimary@?$IOleObjectImpl@VCOPOSRFIDScanner@@@ATL@@QAEJPBUtagRECT@@PAUHWND__@@@Z 10005b30 f i RFIDScanner.obj
 0001:00004bbc       ?DoVerbProperties@CComControlBase@ATL@@QAEJPBUtagRECT@@PAUHWND__@@@Z 10005bbc f i RFIDScanner.obj
 0001:00004d3b       ?DoVerbUIActivate@?$IOleObjectImpl@VCOPOSRFIDScanner@@@ATL@@QAEJPBUtagRECT@@PAUHWND__@@@Z 10005d3b f i RFIDScanner.obj
 0001:00004d78       ?DoesVerbActivate@CComControlBase@ATL@@QAEHJ@Z 10005d78 f i RFIDScanner.obj
 0001:00004d99       ?DoesVerbUIActivate@CComControlBase@ATL@@QAEHJ@Z 10005d99 f i RFIDScanner.obj
 0001:00004dce       ?EndOfVar@CRegParser@ATL@@IAEHXZ 10005dce f i RFIDScanner.obj
 0001:00004dee       ?EscapeSingleQuote@CAtlModule@ATL@@SAXPA_WIPB_W@Z 10005dee f i RFIDScanner.obj
 0001:00004e3d       ?FindKey@?$CSimpleMap@PA_WPA_WVCExpansionVectorEqualHelper@ATL@@@ATL@@QBEHABQA_W@Z 10005e3d f i RFIDScanner.obj
 0001:00004e74       ?FireTheEvent@?$CProxy_IOPOSEvents@VCOPOSRFIDScanner@@@@IAEXPAVOposVariant@@IAAJPB_WJ@Z 10005e74 f i RFIDScanner.obj
 0001:00004f06       ?FireViewChange@CComControlBase@ATL@@QAEJXZ 10005f06 f i RFIDScanner.obj
 0001:00004f4f       ?Fire_DataEvent@?$CProxy_IOPOSEvents@VCOPOSRFIDScanner@@@@QAEXJ@Z 10005f4f f i RFIDScanner.obj
 0001:00004fe5       ?Fire_DirectIOEvent@?$CProxy_IOPOSEvents@VCOPOSRFIDScanner@@@@QAEXJPAJPAPA_W@Z 10005fe5 f i RFIDScanner.obj
 0001:000050d1       ?Fire_ErrorEvent@?$CProxy_IOPOSEvents@VCOPOSRFIDScanner@@@@QAEXJJJPAJ@Z 100060d1 f i RFIDScanner.obj
 0001:000051c2       ?Fire_OutputCompleteEvent@?$CProxy_IOPOSEvents@VCOPOSRFIDScanner@@@@QAEXJ@Z 100061c2 f i RFIDScanner.obj
 0001:00005258       ?Fire_StatusUpdateEvent@?$CProxy_IOPOSEvents@VCOPOSRFIDScanner@@@@QAEXJ@Z 10006258 f i RFIDScanner.obj
 0001:000052ee       ?FreeHeap@?$CTempBuffer@_W$0BAA@VCCRTAllocator@ATL@@@ATL@@AAEXXZ 100062ee f i RFIDScanner.obj
 0001:000052ee       ?FreeHeap@?$CTempBuffer@_W$0EAA@VCCRTAllocator@ATL@@@ATL@@AAEXXZ 100062ee f i RFIDScanner.obj
 0001:000052ee       ?FreeHeap@?$CTempBuffer@E$0BAA@VCCRTAllocator@ATL@@@ATL@@AAEXXZ 100062ee f i RFIDScanner.obj
 0001:000052f7       ?GetAmbientLocaleID@CComControlBase@ATL@@QAEJAAK@Z 100062f7 f i RFIDScanner.obj
 0001:00005353       ?GetAmbientUserMode@CComControlBase@ATL@@QAEJAAH@Z 10006353 f i RFIDScanner.obj
 0001:000053c3       ?GetAt@CComDynamicUnkArray@ATL@@QAEPAUIUnknown@@H@Z 100063c3 f i RFIDScanner.obj
 0001:000053df       ?GetClassObject@CComModule@ATL@@QAEJABU_GUID@@0PAPAX@Z 100063df f i RFIDScanner.obj
 0001:00005481       ?GetConnMap@COPOSRFIDScanner@@SAPBU_ATL_CONNMAP_ENTRY@ATL@@PAH@Z 10006481 f i RFIDScanner.obj
 0001:000054f1       ?GetCookie@CComDynamicUnkArray@ATL@@QAGKPAPAUIUnknown@@@Z 100064f1 f i RFIDScanner.obj
 0001:00005529       ?GetIDsOfNames@CComTypeInfoHolder@ATL@@QAEJABU_GUID@@PAPA_WIKPAJ@Z 10006529 f i RFIDScanner.obj
 0001:00005650       ?GetKeyAt@?$CSimpleMap@PA_WPA_WVCExpansionVectorEqualHelper@ATL@@@ATL@@QBEAAPA_WH@Z 10006650 f i RFIDScanner.obj
 0001:00005675       ?GetPagesHelper@?$ISpecifyPropertyPagesImpl@VCOPOSRFIDScanner@@@ATL@@IAEJPAUtagCAUUID@@PBUATL_PROPMAP_ENTRY@2@@Z 10006675 f i RFIDScanner.obj
 0001:0000579c       ?GetProperty@?$CComPtr@UIDispatch@@@ATL@@SAJPAUIDispatch@@JPAUtagVARIANT@@@Z 1000679c f i RFIDScanner.obj
 0001:000057eb       ?GetSizeMax@CComVariant@ATL@@QBEJPAT_ULARGE_INTEGER@@@Z 100067eb f i RFIDScanner.obj
 0001:000059ad       ?GetTI@CComTypeInfoHolder@ATL@@QAEJK@Z 100069ad f i RFIDScanner.obj
 0001:00005b8c       ?GetTI@CComTypeInfoHolder@ATL@@QAEJKPAPAUITypeInfo@@@Z 10006b8c f i RFIDScanner.obj
 0001:00005bce       ?GetUnknown@CComDynamicUnkArray@ATL@@QAGPAUIUnknown@@K@Z 10006bce f i RFIDScanner.obj
 0001:00005bef       ?GetValueAt@?$CSimpleMap@PA_WPA_WVCExpansionVectorEqualHelper@ATL@@@ATL@@QBEAAPA_WH@Z 10006bef f i RFIDScanner.obj
 0001:00005c15       ?GetZoomInfo@CComControlBase@ATL@@QAEXAAUATL_DRAWINFO@@@Z 10006c15 f i RFIDScanner.obj
 0001:00005ca8       ?HKeyFromString@CRegParser@ATL@@KAPAUHKEY__@@PA_W@Z 10006ca8 f i RFIDScanner.obj
 0001:00005cd6       ?HasSubKeys@CRegParser@ATL@@IAEHPAUHKEY__@@@Z 10006cd6 f i RFIDScanner.obj
 0001:00005d0b       ?IDataObject_GetData@CComControlBase@ATL@@QAEJPAUtagFORMATETC@@PAUtagSTGMEDIUM@@@Z 10006d0b f i RFIDScanner.obj
 0001:00005eb1       ?IOleInPlaceObject_InPlaceDeactivate@CComControlBase@ATL@@QAEJXZ 10006eb1 f i RFIDScanner.obj
 0001:00005f38       ?IOleInPlaceObject_SetObjectRects@CComControlBase@ATL@@QAEJPBUtagRECT@@0@Z 10006f38 f i RFIDScanner.obj
 0001:00006005       ?IOleInPlaceObject_UIDeactivate@CComControlBase@ATL@@QAEJXZ 10007005 f i RFIDScanner.obj
 0001:000060c7       ?IOleObject_Advise@CComControlBase@ATL@@QAEJPAUIAdviseSink@@PAK@Z 100070c7 f i RFIDScanner.obj
 0001:000060f1       ?IOleObject_Close@CComControlBase@ATL@@QAEJK@Z 100070f1 f i RFIDScanner.obj
 0001:000061d5       ?IOleObject_GetClientSite@CComControlBase@ATL@@QAEJPAPAUIOleClientSite@@@Z 100071d5 f i RFIDScanner.obj
 0001:000061fe       ?IOleObject_SetClientSite@CComControlBase@ATL@@QAEJPAUIOleClientSite@@@Z 100071fe f i RFIDScanner.obj
 0001:0000623d       ?IOleObject_SetExtent@CComControlBase@ATL@@QAEJKPAUtagSIZE@@@Z 1000723d f i RFIDScanner.obj
 0001:000062f1       ?IPSI_GetIPersistStreamInit@?$IPersistStorageImpl@VCOPOSRFIDScanner@@@ATL@@AAEPAUIPersistStreamInit@@XZ 100072f1 f i RFIDScanner.obj
 0001:00006399       ?IPersistStreamInit_Load@?$IPersistStreamInitImpl@VCOPOSRFIDScanner@@@ATL@@QAEJPAUIStream@@PBUATL_PROPMAP_ENTRY@2@@Z 10007399 f i RFIDScanner.obj
 0001:0000660e       ?IPersistStreamInit_Save@?$IPersistStreamInitImpl@VCOPOSRFIDScanner@@@ATL@@QAEJPAUIStream@@HPBUATL_PROPMAP_ENTRY@2@@Z 1000760e f i RFIDScanner.obj
 0001:000067fc       ?IQuickActivate_QuickActivate@CComControlBase@ATL@@QAEJPAUtagQACONTAINER@@PAUtagQACONTROL@@@Z 100077fc f i RFIDScanner.obj
 0001:00006a3e       ?IViewObject_Draw@CComControlBase@ATL@@QAEJKJPAXPAUtagDVTARGETDEVICE@@PAUHDC__@@2PBU_RECTL@@3@Z 10007a3e f i RFIDScanner.obj
 0001:00006ae6       ?InPlaceActivate@CComControlBase@ATL@@QAEJJPBUtagRECT@@@Z 10007ae6 f i RFIDScanner.obj
 0001:00006d57       ?Init@?$CComEnumImpl@UIEnumConnectionPoints@@$1?_GUID_b196b285_bab4_101a_b69c_00aa00341d07@@3U__s_GUID@@BPAUIConnectionPoint@@V?$_CopyInterface@UIConnectionPoint@@@ATL@@@ATL@@QAEJPAPAUIConnectionPoint@@0PAUIUnknown@@W4CComEnumFlags@2@@Z 10007d57 f i RFIDScanner.obj
 0001:00006e36       ?Init@?$CComEnumImpl@UIEnumConnections@@$1?_GUID_b196b287_bab4_101a_b69c_00aa00341d07@@3U__s_GUID@@BUtagCONNECTDATA@@V?$_Copy@UtagCONNECTDATA@@@ATL@@@ATL@@QAEJPAUtagCONNECTDATA@@0PAUIUnknown@@W4CComEnumFlags@2@@Z 10007e36 f i RFIDScanner.obj
 0001:00006f15       ?Init@CComModule@ATL@@QAEJPAU_ATL_OBJMAP_ENTRY30@2@PAUHINSTANCE__@@PBU_GUID@@@Z 10007f15 f i RFIDScanner.obj
 0001:00006f74       ?Init@CDynamicStdCallThunk2@ATL@@QAEHKPAX@Z 10007f74 f i RFIDScanner.obj
 0001:00006f9f       ?InlineIsEqualUnknown@ATL@@YGHABU_GUID@@@Z 10007f9f f i RFIDScanner.obj
 0001:00006fc7       ?InternalSetAtIndex@?$CSimpleMap@PA_WPA_WVCExpansionVectorEqualHelper@ATL@@@ATL@@QAEXHABQA_W0@Z 10007fc7 f i RFIDScanner.obj
 0001:00006ff1       ?Invoke@CComTypeInfoHolder@ATL@@QAEJPAUIDispatch@@JABU_GUID@@KGPAUtagDISPPARAMS@@PAUtagVARIANT@@PAUtagEXCEPINFO@@PAI@Z 10007ff1 f i RFIDScanner.obj
 0001:00007034       ?IsEqualObject@?$CComPtrBase@UIOleClientSite@@@ATL@@QAE_NPAUIUnknown@@@Z 10008034 f i RFIDScanner.obj
 0001:00007034       ?IsEqualObject@?$CComPtrBase@UITypeInfo@@@ATL@@QAE_NPAUIUnknown@@@Z 10008034 f i RFIDScanner.obj
 0001:000070a1       ?IsSpace@CRegParser@ATL@@IAEH_W@Z 100080a1 f i RFIDScanner.obj
 0001:000070cb       ?LoadNameCache@CComTypeInfoHolder@ATL@@QAEJPAUITypeInfo@@@Z 100080cb f i RFIDScanner.obj
 0001:00007200       ?Lookup@?$CSimpleMap@PA_WPA_WVCExpansionVectorEqualHelper@ATL@@@ATL@@QBEPA_WABQA_W@Z 10008200 f i RFIDScanner.obj
 0001:00007226       ?NextToken@CRegParser@ATL@@IAEJPA_W@Z 10008226 f i RFIDScanner.obj
 0001:0000735e       ?OnKillFocus@CComControlBase@ATL@@QAEJIIJAAH@Z 1000835e f i RFIDScanner.obj
 0001:000073b9       ?OnMouseActivate@CComControlBase@ATL@@QAEJIIJAAH@Z 100083b9 f i RFIDScanner.obj
 0001:00007427       ?OnPaint@CComControlBase@ATL@@QAEJIIJAAH@Z 10008427 f i RFIDScanner.obj
 0001:000074d9       ?OnSetFocus@CComControlBase@ATL@@QAEJIIJAAH@Z 100084d9 f i RFIDScanner.obj
 0001:00007562       ?Open@CRegKey@ATL@@QAEJPAUHKEY__@@PB_WK@Z 10008562 f i RFIDScanner.obj
 0001:000075b7       ?PreProcessBuffer@CRegParser@ATL@@QAEJPA_WPAPA_W@Z 100085b7 f i RFIDScanner.obj
 0001:00007826       ?ProcessWindowMessage@?$CComControl@VCOPOSRFIDScanner@@V?$CWindowImpl@VCOPOSRFIDScanner@@VCWindow@ATL@@V?$CWinTraits@$0FGAAAAAA@$0A@@3@@ATL@@@ATL@@UAEHPAUHWND__@@IIJAAJK@Z 10008826 f i RFIDScanner.obj
 0001:000078c5       ?ReadFromStream@CComBSTR@ATL@@QAEJPAUIStream@@@Z 100088c5 f i RFIDScanner.obj
 0001:000079e8       ?ReadFromStream@CComVariant@ATL@@QAEJPAUIStream@@GTClassesAllowedInStream@2@K@Z 100089e8 f i RFIDScanner.obj
 0001:00007b72       ?RecurseDeleteKey@CRegKey@ATL@@QAEJPB_W@Z 10008b72 f i RFIDScanner.obj
 0001:00007c60       ?RegCreateKeyExW@CAtlTransactionManager@ATL@@QAEJPAUHKEY__@@PB_WKPA_WKKQAU_SECURITY_ATTRIBUTES@@PAPAU3@PAK@Z 10008c60 f i RFIDScanner.obj
 0001:00007cc3       ?RegDeleteKeyW@CAtlTransactionManager@ATL@@QAEJPAUHKEY__@@PB_W@Z 10008cc3 f i RFIDScanner.obj
 0001:00007d15       ?RegOpenKeyExW@CAtlTransactionManager@ATL@@QAEJPAUHKEY__@@PB_WKKPAPAU3@@Z 10008d15 f i RFIDScanner.obj
 0001:00007d6c       ?Register@_ATL_WNDCLASSINFOW@ATL@@QAEGPAP6GJPAUHWND__@@IIJ@Z@Z 10008d6c f i RFIDScanner.obj
 0001:00007d8c       ?RegisterBuffer@CRegParser@ATL@@QAEJPA_WH@Z 10008d8c f i RFIDScanner.obj
 0001:00007ed3       ?RegisterFromResource@CRegObject@ATL@@IAEJPB_W00H@Z 10008ed3 f i RFIDScanner.obj
 0001:00008009       ?RegisterServer@?$CAtlModuleT@VCComModule@ATL@@@ATL@@QAEJHPBU_GUID@@@Z 10009009 f i RFIDScanner.obj
 0001:00008037       ?RegisterServer@CComModule@ATL@@QAEJHPBU_GUID@@@Z 10009037 f i RFIDScanner.obj
 0001:000080ad       ?RegisterSubkeys@CRegParser@ATL@@IAEJPA_WPAUHKEY__@@HH@Z 100090ad f i RFIDScanner.obj
 0001:0000875a       ?Remove@CComDynamicUnkArray@ATL@@QAEHK@Z 1000975a f i RFIDScanner.obj
 0001:00008783       ?RemoveAll@?$CSimpleMap@PA_WPA_WVCExpansionVectorEqualHelper@ATL@@@ATL@@QAEXXZ 10009783 f i RFIDScanner.obj
 0001:000087af       ?ResourceRegisterSz@CRegObject@ATL@@QAGJPB_W00@Z 100097af f i RFIDScanner.obj
 0001:000087dc       ?ResourceUnregisterSz@CRegObject@ATL@@QAGJPB_W00@Z 100097dc f i RFIDScanner.obj
 0001:00008809       ?SendOnDataChange@CComControlBase@ATL@@QAEJK@Z 10009809 f i RFIDScanner.obj
 0001:00008856       ?SetControlFocus@CComControlBase@ATL@@QAEHH@Z 10009856 f i RFIDScanner.obj
 0001:000088f3       ?SetMultiStringValue@CRegKey@ATL@@QAEJPB_W0@Z 100098f3 f i RFIDScanner.obj
 0001:0000894f       ?SetStringValue@CRegKey@ATL@@QAEJPB_W0K@Z 1000994f f i RFIDScanner.obj
 0001:00008998       ?SkipAssignment@CRegParser@ATL@@IAEJPA_W@Z 10009998 f i RFIDScanner.obj
 0001:000089fd       ?SkipWhiteSpace@CRegParser@ATL@@IAEXXZ 100099fd f i RFIDScanner.obj
 0001:00008a1f       ?StrChrW@CRegParser@ATL@@KAPA_WPA_W_W@Z 10009a1f f i RFIDScanner.obj
 0001:00008a5c       ?Term@CAtlModule@ATL@@QAEXXZ 10009a5c f i RFIDScanner.obj
 0001:00008aaf       ?Term@CComModule@ATL@@QAEXXZ 10009aaf f i RFIDScanner.obj
 0001:00008b07       ?UnregisterServer@?$CAtlModuleT@VCComModule@ATL@@@ATL@@QAEJHPBU_GUID@@@Z 10009b07 f i RFIDScanner.obj
 0001:00008b2d       ?UnregisterServer@CComModule@ATL@@QAEJHPBU_GUID@@@Z 10009b2d f i RFIDScanner.obj
 0001:00008ba3       ?UpdateRegistryFromResource@CAtlModule@ATL@@QAGJIHPAU_ATL_REGMAP_ENTRY@2@@Z 10009ba3 f i RFIDScanner.obj
 0001:00008d6e       ?UpdateRegistryFromResource@CAtlModule@ATL@@QAGJPB_WHPAU_ATL_REGMAP_ENTRY@2@@Z 10009d6e f i RFIDScanner.obj
 0001:00008f3f       ?VTFromRegType@CRegParser@ATL@@KAHPB_WAAG@Z 10009f3f f i RFIDScanner.obj
 0001:00008fac       ?WindowProc@?$CWindowImplBaseT@VCWindow@ATL@@V?$CWinTraits@$0FGAAAAAA@$0A@@2@@ATL@@SGJPAUHWND__@@IIJ@Z 10009fac f i RFIDScanner.obj
 0001:0000909e       ?WriteToStream@CComBSTR@ATL@@QAEJPAUIStream@@@Z 1000a09e f i RFIDScanner.obj
 0001:00009100       ?WriteToStream@CComVariant@ATL@@QAEJPAUIStream@@@Z 1000a100 f i RFIDScanner.obj
 0001:0000927a       ?WriteToStream@CComVariant@ATL@@QAEJPAUIStream@@G@Z 1000a27a f i RFIDScanner.obj
 0001:000092e3       ?_AtlInitialConstruct@?$CComObjectRootEx@VCComMultiThreadModel@ATL@@@ATL@@QAEJXZ 1000a2e3 f i RFIDScanner.obj
 0001:000092f8       ?_AtlVerifyStackAvailable@_ATL_SAFE_ALLOCA_IMPL@ATL@@YA_NK@Z 1000a2f8 f i RFIDScanner.obj
 0001:00009376       ?atlCreate@?$CWindowImpl@VCOPOSRFIDScanner@@VCWindow@ATL@@V?$CWinTraits@$0FGAAAAAA@$0A@@3@@ATL@@QAEPAUHWND__@@PAU3@V_U_RECT@2@PB_WKKV_U_MENUorID@2@PAX@Z 1000a376 f i RFIDScanner.obj
 0001:000093ba       ?atlCreate@?$CWindowImplBaseT@VCWindow@ATL@@V?$CWinTraits@$0FGAAAAAA@$0A@@2@@ATL@@QAEPAUHWND__@@PAU3@V_U_RECT@2@PB_WKKV_U_MENUorID@2@GPAX@Z 1000a3ba f i RFIDScanner.obj
 0001:00009456       ?copy@?$_Copy@UtagCONNECTDATA@@@ATL@@SAJPAUtagCONNECTDATA@@PBU3@@Z 1000a456 f i RFIDScanner.obj
 0001:0000948c       ?copy@?$_CopyInterface@UIConnectionPoint@@@ATL@@SAJPAPAUIConnectionPoint@@PBQAU3@@Z 1000a48c f i RFIDScanner.obj
 0001:000094ba       ?memcpy_s@Checked@ATL@@YAXPAXIPBXI@Z 1000a4ba f i RFIDScanner.obj
 0001:000094d9       ?ocscpy_s@@YA_NPA_WIPB_W@Z 1000a4d9 f i RFIDScanner.obj
 0001:00009523       ?wcscpy_s@Checked@ATL@@YAXPA_WIPB_W@Z 1000a523 f i RFIDScanner.obj
 0001:0000953f       _DllCanUnloadNow@0         1000a53f f   RFIDScanner.obj
 0001:0000954b       _DllGetClassObject@12      1000a54b f   RFIDScanner.obj
 0001:00009559       _DllMain@12                1000a559 f   RFIDScanner.obj
 0001:0000959b       _DllRegisterServer@0       1000a59b f   RFIDScanner.obj
 0001:000095aa       _DllUnregisterServer@0     1000a5aa f   RFIDScanner.obj
 0001:000095b9       _InlineIsEqualGUID         1000a5b9 f i RFIDScanner.obj
 0001:000095e9       ___local_stdio_printf_options 1000a5e9 f i RFIDScanner.obj
 0001:000095ef       __vswprintf_s_l            1000a5ef f i RFIDScanner.obj
 0001:0000969c       _swprintf_s                1000a69c f i RFIDScanner.obj
 0001:000096b8       ??0?$CComControl@VCOPOSRFIDScanner@@V?$CWindowImpl@VCOPOSRFIDScanner@@VCWindow@ATL@@V?$CWinTraits@$0FGAAAAAA@$0A@@3@@ATL@@@ATL@@QAE@XZ 1000a6b8 f i RFIDScannerImpl.obj
 0001:000096df       ??0?$CProxy_IOPOSEvents@VCOPOSRFIDScanner@@@@QAE@XZ 1000a6df f i RFIDScannerImpl.obj
 0001:00009702       ??0CComControlBase@ATL@@QAE@AAPAUHWND__@@@Z 1000a702 f i RFIDScannerImpl.obj
 0001:0000974c       ??0COPOSRFIDScanner@@QAE@XZ 1000a74c f   RFIDScannerImpl.obj
 0001:00009782       ??1?$CComControl@VCOPOSRFIDScanner@@V?$CWindowImpl@VCOPOSRFIDScanner@@VCWindow@ATL@@V?$CWinTraits@$0FGAAAAAA@$0A@@3@@ATL@@@ATL@@UAE@XZ 1000a782 f i RFIDScannerImpl.obj
 0001:0000979b       ??1?$IConnectionPointImpl@VCOPOSRFIDScanner@@$1?DIID__IOPOSRFIDScannerEvents@@3U_GUID@@BVCComDynamicUnkArray@ATL@@@ATL@@QAE@XZ 1000a79b f i RFIDScannerImpl.obj
 0001:0000979b       ??1?$IConnectionPointImpl@VCOPOSRFIDScanner@@$1?IID_IPropertyNotifySink@@3U_GUID@@BVCComDynamicUnkArray@ATL@@@ATL@@QAE@XZ 1000a79b f i RFIDScannerImpl.obj
 0001:000097d8       ??1CComControlBase@ATL@@UAE@XZ 1000a7d8 f i RFIDScannerImpl.obj
 0001:0000983b       ??1COPOSRFIDScanner@@UAE@XZ 1000a83b f   RFIDScannerImpl.obj
 0001:00009883       ?CheckHealth@COPOSRFIDScanner@@UAGJJPAJ@Z 1000a883 f   RFIDScannerImpl.obj
 0001:000098d2       ?ClaimDevice@COPOSRFIDScanner@@UAGJJPAJ@Z 1000a8d2 f   RFIDScannerImpl.obj
 0001:00009947       ?ClearInput@COPOSRFIDScanner@@UAGJPAJ@Z 1000a947 f   RFIDScannerImpl.obj
 0001:00009962       ?ClearInputProperties@COPOSRFIDScanner@@UAGJPAJ@Z 1000a962 f   RFIDScannerImpl.obj
 0001:0000997d       ?ClearOutput@COPOSRFIDScanner@@UAGJPAJ@Z 1000a97d f   RFIDScannerImpl.obj
 0001:00009998       ?Close@COPOSRFIDScanner@@UAGJPAJ@Z 1000a998 f   RFIDScannerImpl.obj
 0001:00009a06       ?CompareFirmwareVersion@COPOSRFIDScanner@@UAGJPA_WPAJ1@Z 1000aa06 f   RFIDScannerImpl.obj
 0001:00009a86       ?DirectIO@COPOSRFIDScanner@@UAGJJPAJPAPA_W0@Z 1000aa86 f   RFIDScannerImpl.obj
 0001:00009b34       ?DisableTag@COPOSRFIDScanner@@UAGJPA_WJ0PAJ@Z 1000ab34 f   RFIDScannerImpl.obj
 0001:00009be2       ?DoInvoke@COPOSRFIDScanner@@IAEJJPAVOposVariant@@IHPAJ_N@Z 1000abe2 f   RFIDScannerImpl.obj
 0001:00009cbe       ?EventClose@COPOSRFIDScanner@@IAEXXZ 1000acbe f i RFIDScannerImpl.obj
 0001:00009cf1       ?EventInit@COPOSRFIDScanner@@IAEJXZ 1000acf1 f i RFIDScannerImpl.obj
 0001:00009dbd       ?EventUninit@COPOSRFIDScanner@@IAEXXZ 1000adbd f i RFIDScannerImpl.obj
 0001:00009e0f       ?EventWindowProc@COPOSRFIDScanner@@IAGJIIJ@Z 1000ae0f f i RFIDScannerImpl.obj
 0001:00009f0d       ?FinalConstruct@COPOSRFIDScanner@@QAEJXZ 1000af0d f   RFIDScannerImpl.obj
 0001:00009f46       ?FireEventCleanup@COPOSRFIDScanner@@IAEXXZ 1000af46 f i RFIDScannerImpl.obj
 0001:00009f5c       ?FireEventSetup@COPOSRFIDScanner@@IAE_NXZ 1000af5c f i RFIDScannerImpl.obj
 0001:00009f90       ?FirstTag@COPOSRFIDScanner@@UAGJPAJ@Z 1000af90 f   RFIDScannerImpl.obj
 0001:00009fab       ?FreezeEvents@COPOSRFIDScanner@@MAGJH@Z 1000afab f   RFIDScannerImpl.obj
 0001:0000a00b       ?GetOposProp@COPOSRFIDScanner@@IAEJJPAFJ@Z 1000b00b f   RFIDScannerImpl.obj
 0001:0000a02e       ?GetOposProp@COPOSRFIDScanner@@IAEJJPAJJ@Z 1000b02e f   RFIDScannerImpl.obj
 0001:0000a0fd       ?GetOposProp@COPOSRFIDScanner@@IAEJJPAPA_WJ@Z 1000b0fd f   RFIDScannerImpl.obj
 0001:0000a1d9       ?LockTag@COPOSRFIDScanner@@UAGJPA_WJ0PAJ@Z 1000b1d9 f   RFIDScannerImpl.obj
 0001:0000a287       ?NextTag@COPOSRFIDScanner@@UAGJPAJ@Z 1000b287 f   RFIDScannerImpl.obj
 0001:0000a2a2       ?OnDraw@COPOSRFIDScanner@@MAEJAAUATL_DRAWINFO@@@Z 1000b2a2 f   RFIDScannerImpl.obj
 0001:0000a342       ?Open@COPOSRFIDScanner@@UAGJPA_WPAJ@Z 1000b342 f   RFIDScannerImpl.obj
 0001:0000ab84       ?PreviousTag@COPOSRFIDScanner@@UAGJPAJ@Z 1000bb84 f   RFIDScannerImpl.obj
 0001:0000ab9f       ?ReadTags@COPOSRFIDScanner@@UAGJJPA_W0JJJ0PAJ@Z 1000bb9f f   RFIDScannerImpl.obj
 0001:0000acb3       ?ReleaseDevice@COPOSRFIDScanner@@UAGJPAJ@Z 1000bcb3 f   RFIDScannerImpl.obj
 0001:0000ad02       ?ResetStatistics@COPOSRFIDScanner@@UAGJPA_WPAJ@Z 1000bd02 f   RFIDScannerImpl.obj
 0001:0000ad59       ?RetrieveStatistics@COPOSRFIDScanner@@UAGJPAPA_WPAJ@Z 1000bd59 f   RFIDScannerImpl.obj
 0001:0000adb0       ?SOProcessID@COPOSRFIDScanner@@UAGJPAJ@Z 1000bdb0 f   RFIDScannerImpl.obj
 0001:0000adc4       ?SetCOFreezeEvents@COPOSRFIDScanner@@IAEXF@Z 1000bdc4 f   RFIDScannerImpl.obj
 0001:0000ae64       ?SetOposProp@COPOSRFIDScanner@@IAEJJJJ@Z 1000be64 f   RFIDScannerImpl.obj
 0001:0000af5b       ?StartReadTags@COPOSRFIDScanner@@UAGJJPA_W0JJ0PAJ@Z 1000bf5b f   RFIDScannerImpl.obj
 0001:0000b061       ?StopReadTags@COPOSRFIDScanner@@UAGJPA_WPAJ@Z 1000c061 f   RFIDScannerImpl.obj
 0001:0000b0b8       ?UpdateFirmware@COPOSRFIDScanner@@UAGJPA_WPAJ@Z 1000c0b8 f   RFIDScannerImpl.obj
 0001:0000b10f       ?UpdateStatistics@COPOSRFIDScanner@@UAGJPA_WPAJ@Z 1000c10f f   RFIDScannerImpl.obj
 0001:0000b166       ?WriteTagData@COPOSRFIDScanner@@UAGJPA_W0JJ0PAJ@Z 1000c166 f   RFIDScannerImpl.obj
 0001:0000b249       ?WriteTagID@COPOSRFIDScanner@@UAGJPA_W0J0PAJ@Z 1000c249 f   RFIDScannerImpl.obj
 0001:0000b30c       ?get_AutoDisable@COPOSRFIDScanner@@UAGJPAF@Z 1000c30c f   RFIDScannerImpl.obj
 0001:0000b322       ?get_BinaryConversion@COPOSRFIDScanner@@UAGJPAJ@Z 1000c322 f   RFIDScannerImpl.obj
 0001:0000b338       ?get_CapCompareFirmwareVersion@COPOSRFIDScanner@@UAGJPAF@Z 1000c338 f   RFIDScannerImpl.obj
 0001:0000b351       ?get_CapContinuousRead@COPOSRFIDScanner@@UAGJPAF@Z 1000c351 f   RFIDScannerImpl.obj
 0001:0000b36a       ?get_CapDisableTag@COPOSRFIDScanner@@UAGJPAF@Z 1000c36a f   RFIDScannerImpl.obj
 0001:0000b383       ?get_CapLockTag@COPOSRFIDScanner@@UAGJPAF@Z 1000c383 f   RFIDScannerImpl.obj
 0001:0000b39c       ?get_CapMultipleProtocols@COPOSRFIDScanner@@UAGJPAJ@Z 1000c39c f   RFIDScannerImpl.obj
 0001:0000b3b5       ?get_CapPowerReporting@COPOSRFIDScanner@@UAGJPAJ@Z 1000c3b5 f   RFIDScannerImpl.obj
 0001:0000b3ce       ?get_CapReadTimer@COPOSRFIDScanner@@UAGJPAF@Z 1000c3ce f   RFIDScannerImpl.obj
 0001:0000b3e7       ?get_CapStatisticsReporting@COPOSRFIDScanner@@UAGJPAF@Z 1000c3e7 f   RFIDScannerImpl.obj
 0001:0000b400       ?get_CapUpdateFirmware@COPOSRFIDScanner@@UAGJPAF@Z 1000c400 f   RFIDScannerImpl.obj
 0001:0000b419       ?get_CapUpdateStatistics@COPOSRFIDScanner@@UAGJPAF@Z 1000c419 f   RFIDScannerImpl.obj
 0001:0000b432       ?get_CapWriteTag@COPOSRFIDScanner@@UAGJPAJ@Z 1000c432 f   RFIDScannerImpl.obj
 0001:0000b44b       ?get_CheckHealthText@COPOSRFIDScanner@@UAGJPAPA_W@Z 1000c44b f   RFIDScannerImpl.obj
 0001:0000b464       ?get_Claimed@COPOSRFIDScanner@@UAGJPAF@Z 1000c464 f   RFIDScannerImpl.obj
 0001:0000b47a       ?get_ContinuousReadMode@COPOSRFIDScanner@@UAGJPAF@Z 1000c47a f   RFIDScannerImpl.obj
 0001:0000b493       ?get_ControlObjectDescription@COPOSRFIDScanner@@UAGJPAPA_W@Z 1000c493 f   RFIDScannerImpl.obj
 0001:0000b4e1       ?get_ControlObjectVersion@COPOSRFIDScanner@@UAGJPAJ@Z 1000c4e1 f   RFIDScannerImpl.obj
 0001:0000b4f4       ?get_CurrentTagID@COPOSRFIDScanner@@UAGJPAPA_W@Z 1000c4f4 f   RFIDScannerImpl.obj
 0001:0000b50d       ?get_CurrentTagProtocol@COPOSRFIDScanner@@UAGJPAJ@Z 1000c50d f   RFIDScannerImpl.obj
 0001:0000b526       ?get_CurrentTagUserData@COPOSRFIDScanner@@UAGJPAPA_W@Z 1000c526 f   RFIDScannerImpl.obj
 0001:0000b53f       ?get_DataCount@COPOSRFIDScanner@@UAGJPAJ@Z 1000c53f f   RFIDScannerImpl.obj
 0001:0000b555       ?get_DataEventEnabled@COPOSRFIDScanner@@UAGJPAF@Z 1000c555 f   RFIDScannerImpl.obj
 0001:0000b56b       ?get_DeviceDescription@COPOSRFIDScanner@@UAGJPAPA_W@Z 1000c56b f   RFIDScannerImpl.obj
 0001:0000b584       ?get_DeviceEnabled@COPOSRFIDScanner@@UAGJPAF@Z 1000c584 f   RFIDScannerImpl.obj
 0001:0000b59a       ?get_DeviceName@COPOSRFIDScanner@@UAGJPAPA_W@Z 1000c59a f   RFIDScannerImpl.obj
 0001:0000b5b3       ?get_FreezeEvents@COPOSRFIDScanner@@UAGJPAF@Z 1000c5b3 f   RFIDScannerImpl.obj
 0001:0000b5c9       ?get_OpenResult@COPOSRFIDScanner@@UAGJPAJ@Z 1000c5c9 f   RFIDScannerImpl.obj
 0001:0000b5e0       ?get_OutputID@COPOSRFIDScanner@@UAGJPAJ@Z 1000c5e0 f   RFIDScannerImpl.obj
 0001:0000b5f6       ?get_PowerNotify@COPOSRFIDScanner@@UAGJPAJ@Z 1000c5f6 f   RFIDScannerImpl.obj
 0001:0000b60c       ?get_PowerState@COPOSRFIDScanner@@UAGJPAJ@Z 1000c60c f   RFIDScannerImpl.obj
 0001:0000b622       ?get_ProtocolMask@COPOSRFIDScanner@@UAGJPAJ@Z 1000c622 f   RFIDScannerImpl.obj
 0001:0000b63b       ?get_ReadTimerInterval@COPOSRFIDScanner@@UAGJPAJ@Z 1000c63b f   RFIDScannerImpl.obj
 0001:0000b654       ?get_ResultCode@COPOSRFIDScanner@@UAGJPAJ@Z 1000c654 f   RFIDScannerImpl.obj
 0001:0000b692       ?get_ResultCodeExtended@COPOSRFIDScanner@@UAGJPAJ@Z 1000c692 f   RFIDScannerImpl.obj
 0001:0000b6a8       ?get_ServiceObjectDescription@COPOSRFIDScanner@@UAGJPAPA_W@Z 1000c6a8 f   RFIDScannerImpl.obj
 0001:0000b6c1       ?get_ServiceObjectVersion@COPOSRFIDScanner@@UAGJPAJ@Z 1000c6c1 f   RFIDScannerImpl.obj
 0001:0000b6d7       ?get_State@COPOSRFIDScanner@@UAGJPAJ@Z 1000c6d7 f   RFIDScannerImpl.obj
 0001:0000b703       ?get_TagCount@COPOSRFIDScanner@@UAGJPAJ@Z 1000c703 f   RFIDScannerImpl.obj
 0001:0000b71c       ?put_AutoDisable@COPOSRFIDScanner@@UAGJF@Z 1000c71c f   RFIDScannerImpl.obj
 0001:0000b739       ?put_BinaryConversion@COPOSRFIDScanner@@UAGJJ@Z 1000c739 f   RFIDScannerImpl.obj
 0001:0000b74f       ?put_DataEventEnabled@COPOSRFIDScanner@@UAGJF@Z 1000c74f f   RFIDScannerImpl.obj
 0001:0000b76c       ?put_DeviceEnabled@COPOSRFIDScanner@@UAGJF@Z 1000c76c f   RFIDScannerImpl.obj
 0001:0000b789       ?put_FreezeEvents@COPOSRFIDScanner@@UAGJF@Z 1000c789 f   RFIDScannerImpl.obj
 0001:0000b7d5       ?put_PowerNotify@COPOSRFIDScanner@@UAGJJ@Z 1000c7d5 f   RFIDScannerImpl.obj
 0001:0000b7eb       ?put_ProtocolMask@COPOSRFIDScanner@@UAGJJ@Z 1000c7eb f   RFIDScannerImpl.obj
 0001:0000b804       ?put_ReadTimerInterval@COPOSRFIDScanner@@UAGJJ@Z 1000c804 f   RFIDScannerImpl.obj
 0001:0000b81d       ?s_EventWindowProc@COPOSRFIDScanner@@KGJPAUHWND__@@IIJ@Z 1000c81d f i RFIDScannerImpl.obj
 0001:0000b86f       ??_U@YAPAXI@Z              1000c86f f   LIBCMT:new_array.obj
 0001:0000b878       ??3@YAXPAXI@Z              1000c878 f   LIBCMT:delete_scalar_size.obj
 0001:0000b886       ??_V@YAXPAX@Z              1000c886 f   LIBCMT:delete_array.obj
 0001:0000b88b       ??_V@YAXPAXI@Z             1000c88b f   LIBCMT:delete_array_size.obj
 0001:0000b8dd       ___scrt_acquire_startup_lock 1000c8dd f   LIBCMT:utility.obj
 0001:0000b90f       ___scrt_dllmain_after_initialize_c 1000c90f f   LIBCMT:utility.obj
 0001:0000b93a       ___scrt_dllmain_before_initialize_c 1000c93a f   LIBCMT:utility.obj
 0001:0000b948       ___scrt_dllmain_crt_thread_attach 1000c948 f   LIBCMT:utility.obj
 0001:0000b967       ___scrt_dllmain_crt_thread_detach 1000c967 f   LIBCMT:utility.obj
 0001:0000b974       ___scrt_dllmain_exception_filter 1000c974 f   LIBCMT:utility.obj
 0001:0000b9a8       ___scrt_dllmain_uninitialize_c 1000c9a8 f   LIBCMT:utility.obj
 0001:0000b9cb       ___scrt_dllmain_uninitialize_critical 1000c9cb f   LIBCMT:utility.obj
 0001:0000b9d8       ___scrt_initialize_crt     1000c9d8 f   LIBCMT:utility.obj
 0001:0000ba11       ___scrt_initialize_onexit_tables 1000ca11 f   LIBCMT:utility.obj
 0001:0000ba98       ___scrt_is_nonwritable_in_current_image 1000ca98 f   LIBCMT:utility.obj
 0001:0000bb2c       ___scrt_release_startup_lock 1000cb2c f   LIBCMT:utility.obj
 0001:0000bb49       ___scrt_uninitialize_crt   1000cb49 f   LIBCMT:utility.obj
 0001:0000bb71       __onexit                   1000cb71 f   LIBCMT:utility.obj
 0001:0000bb9e       _atexit                    1000cb9e f   LIBCMT:utility.obj
 0001:0000bbb3       ??3@YAXPAX@Z               1000cbb3 f   LIBCMT:delete_scalar.obj
 0001:0000bc7d       __Init_thread_footer       1000cc7d f   LIBCMT:thread_safe_statics.obj
 0001:0000bcc7       __Init_thread_header       1000ccc7 f   LIBCMT:thread_safe_statics.obj
 0001:0000bd19       __Init_thread_notify       1000cd19 f   LIBCMT:thread_safe_statics.obj
 0001:0000bd4f       __Init_thread_wait         1000cd4f f   LIBCMT:thread_safe_statics.obj
 0001:0000bd9d       ___raise_securityfailure   1000cd9d f   LIBCMT:gs_report.obj
 0001:0000bdc5       ___report_gsfailure        1000cdc5 f   LIBCMT:gs_report.obj
 0001:0000bebe       ___report_rangecheckfailure 1000cebe f   LIBCMT:gs_report.obj
 0001:0000beca       ___report_securityfailure  1000ceca f   LIBCMT:gs_report.obj
 0001:0000bf98       ??2@YAPAXIABUnothrow_t@std@@@Z 1000cf98 f   LIBCMT:new_scalar_nothrow.obj
 0001:0000bfe8       ??_U@YAPAXIABUnothrow_t@std@@@Z 1000cfe8 f   LIBCMT:new_array_nothrow.obj
 0001:0000bff1       @__security_check_cookie@4 1000cff1 f   LIBCMT:secchk.obj
 0001:0000c010       __SEH_prolog4_GS           1000d010 f   LIBCMT:sehprolg4gs.obj
 0001:0000c059       __SEH_epilog4_GS           1000d059 f   LIBCMT:sehprolg4gs.obj
 0001:0000c070       __alloca_probe_16          1000d070 f   LIBCMT:alloca16.obj
 0001:0000c086       __alloca_probe_8           1000d086     LIBCMT:alloca16.obj
 0001:0000c0a0       __alloca_probe             1000d0a0 f   LIBCMT:chkstk.obj
 0001:0000c0a0       __chkstk                   1000d0a0 f   LIBCMT:chkstk.obj
 0001:0000c40d       __DllMainCRTStartup@12     1000d40d f   LIBCMT:dll_dllmain.obj
 0001:0000c430       ??2@YAPAXI@Z               1000d430 f   LIBCMT:new_scalar.obj
 0001:0000c460       ___isa_available_init      1000d460 f   LIBCMT:cpu_disp.obj
 0001:0000c630       ___scrt_is_ucrt_dll_in_use 1000d630 f   LIBCMT:ucrt_detection.obj
 0001:0000c63c       ___scrt_fastfail           1000d63c f   LIBCMT:utility_desktop.obj
 0001:0000c756       __crt_debugger_hook        1000d756 f   LIBCMT:utility_desktop.obj
 0001:0000c760       __SEH_prolog4              1000d760 f   LIBCMT:sehprolg4.obj
 0001:0000c7a6       __SEH_epilog4              1000d7a6 f   LIBCMT:sehprolg4.obj
 0001:0000c7bb       @_guard_check_icall_nop@4  1000d7bb f i LIBCMT:guard_support.obj
 0001:0000c809       ___security_init_cookie    1000d809 f   LIBCMT:gs_support.obj
 0001:0000c854       ?__scrt_initialize_type_info@@YAXXZ 1000d854 f   LIBCMT:tncleanup.obj
 0001:0000c860       ?__scrt_uninitialize_type_info@@YAXXZ 1000d860 f   LIBCMT:tncleanup.obj
 0001:0000c86c       ___local_stdio_scanf_options 1000d86c f i LIBCMT:default_local_stdio_options.obj
 0001:0000c872       ___scrt_initialize_default_local_stdio_options 1000d872 f   LIBCMT:default_local_stdio_options.obj
 0001:0000c88f       ___scrt_get_dyn_tls_init_callback 1000d88f f   LIBCMT:dyn_tls_init.obj
 0001:0000c895       __RTC_Initialize           1000d895 f   LIBCMT:initsect.obj
 0001:0000c8c1       __RTC_Terminate            1000d8c1 f   LIBCMT:initsect.obj
 0001:0000c8ed       ??0bad_alloc@std@@QAE@ABV01@@Z 1000d8ed f i LIBCMT:throw_bad_alloc.obj
 0001:0000c908       ??0bad_alloc@std@@QAE@XZ   1000d908 f i LIBCMT:throw_bad_alloc.obj
 0001:0000c920       ??0bad_array_new_length@std@@QAE@ABV01@@Z 1000d920 f i LIBCMT:throw_bad_alloc.obj
 0001:0000c93b       ??0bad_array_new_length@std@@QAE@XZ 1000d93b f i LIBCMT:throw_bad_alloc.obj
 0001:0000c953       ??0exception@std@@QAE@ABV01@@Z 1000d953 f i LIBCMT:throw_bad_alloc.obj
 0001:0000c97f       ??1bad_alloc@std@@UAE@XZ   1000d97f f i LIBCMT:throw_bad_alloc.obj
 0001:0000c97f       ??1bad_array_new_length@std@@UAE@XZ 1000d97f f i LIBCMT:throw_bad_alloc.obj
 0001:0000c97f       ??1bad_exception@std@@UAE@XZ 1000d97f f i libvcruntime:frame.obj
 0001:0000c990       ??_Ebad_exception@std@@UAEPAXI@Z 1000d990 f i libvcruntime:frame.obj
 0001:0000c990       ??_Ebad_alloc@std@@UAEPAXI@Z 1000d990 f i LIBCMT:throw_bad_alloc.obj
 0001:0000c990       ??_Gbad_alloc@std@@UAEPAXI@Z 1000d990 f i LIBCMT:throw_bad_alloc.obj
 0001:0000c990       ??_Gbad_array_new_length@std@@UAEPAXI@Z 1000d990 f i LIBCMT:throw_bad_alloc.obj
 0001:0000c990       ??_Gbad_exception@std@@UAEPAXI@Z 1000d990 f i libvcruntime:frame.obj
 0001:0000c990       ??_Ebad_array_new_length@std@@UAEPAXI@Z 1000d990 f i LIBCMT:throw_bad_alloc.obj
 0001:0000c990       ??_Gexception@std@@UAEPAXI@Z 1000d990 f i LIBCMT:throw_bad_alloc.obj
 0001:0000c990       ??_Eexception@std@@UAEPAXI@Z 1000d990 f i LIBCMT:throw_bad_alloc.obj
 0001:0000c9bd       ?__scrt_throw_std_bad_alloc@@YAXXZ 1000d9bd f   LIBCMT:throw_bad_alloc.obj
 0001:0000c9da       ?__scrt_throw_std_bad_array_new_length@@YAXXZ 1000d9da f   LIBCMT:throw_bad_alloc.obj
 0001:0000c9f7       ?what@exception@std@@UBEPBDXZ 1000d9f7 f i LIBCMT:throw_bad_alloc.obj
 0001:0000ca04       ??_Gtype_info@@UAEPAXI@Z   1000da04 f i LIBCMT:std_type_info_static.obj
 0001:0000ca04       ??_Etype_info@@UAEPAXI@Z   1000da04 f i LIBCMT:std_type_info_static.obj
 0001:0000ca27       ??0CAtlBaseModule@ATL@@QAE@XZ 1000da27 f   atls:atlbase.obj
 0001:0000ca7a       ??0_ATL_BASE_MODULE70@ATL@@QAE@XZ 1000da7a f i atls:atlbase.obj
 0001:0000ca9d       ??1CAtlBaseModule@ATL@@QAE@XZ 1000da9d f   atls:atlbase.obj
 0001:0000cb8a       ?Init@_stdcallthunk@ATL@@QAEHKPAX@Z 1000db8a f i atls:atlthunk.obj
 0001:0000cbbf       ?__AllocStdCallThunk_cmn@@YAPAXXZ 1000dbbf f   atls:atlthunk.obj
 0001:0000cc85       ?__FreeStdCallThunk_cmn@@YAXPAX@Z 1000dc85 f   atls:atlthunk.obj
 0001:0000cd20       _AtlThunk_AllocateData@0   1000dd20 f   atls:atlthunk.obj
 0001:0000cd85       _AtlThunk_DataToCode@4     1000dd85 f   atls:atlthunk.obj
 0001:0000cdcc       _AtlThunk_FreeData@4       1000ddcc f   atls:atlthunk.obj
 0001:0000ce22       _AtlThunk_InitData@12      1000de22 f   atls:atlthunk.obj
 0001:0000ce71       __get_purecall_handler     1000de71 f   libvcruntime:purevirt.obj
 0001:0000ce77       __purecall                 1000de77 f   libvcruntime:purevirt.obj
 0001:0000ce93       _wcsstr                    1000de93 f   libvcruntime:wcsstr.obj
 0001:0000d140       __except_handler4          1000e140 f   libvcruntime:chandler4.obj
 0001:0000d29e       _memcmp                    1000e29e f   libvcruntime:memcmp.obj
 0001:0000e1b0       _memcpy                    1000f1b0 f   libvcruntime:memcpy.obj
 0001:0000e730       _memset                    1000f730 f   libvcruntime:memset.obj
 0001:0000e88a       ___vcrt_initialize         1000f88a f   libvcruntime:initialization.obj
 0001:0000e8a9       ___vcrt_thread_attach      1000f8a9 f   libvcruntime:initialization.obj
 0001:0000e8b4       ___vcrt_thread_detach      1000f8b4 f   libvcruntime:initialization.obj
 0001:0000e8bf       ___vcrt_uninitialize       1000f8bf f   libvcruntime:initialization.obj
 0001:0000e8d6       ___vcrt_uninitialize_critical 1000f8d6 f   libvcruntime:initialization.obj
 0001:0000e8de       ?GetRangeOfTrysToCheck@__FrameHandler3@@SA?AU?$pair@Viterator@TryBlockMap@__FrameHandler3@@V123@@std@@AAVTryBlockMap@1@HPAXPBU_s_FuncInfo@@H@Z 1000f8de f   libvcruntime:trnsctrl.obj
 0001:0000e94e       ?_CallCatchBlock2@@YAPAXPAUEHRegistrationNode@@PBU_s_FuncInfo@@PAXHK@Z 1000f94e f   libvcruntime:trnsctrl.obj
 0001:0000e9ac       ?_CallSETranslator@@YAHPAUEHExceptionRecord@@PAUEHRegistrationNode@@PAX2PBU_s_FuncInfo@@H1@Z 1000f9ac f   libvcruntime:trnsctrl.obj
 0001:0000ea92       ?_JumpToContinuation@@YGXPAXPAUEHRegistrationNode@@@Z 1000fa92 f   libvcruntime:trnsctrl.obj
 0001:0000eac2       ?_UnwindNestedFrames@@YGXPAUEHRegistrationNode@@PAUEHExceptionRecord@@@Z 1000fac2 f   libvcruntime:trnsctrl.obj
 0001:0000eb15       __CatchGuardHandler        1000fb15 f   libvcruntime:trnsctrl.obj
 0001:0000eb46       __CreateFrameInfo          1000fb46 f   libvcruntime:trnsctrl.obj
 0001:0000eb6a       __FindAndUnlinkFrame       1000fb6a f   libvcruntime:trnsctrl.obj
 0001:0000ebb2       __TranslatorGuardHandler   1000fbb2 f   libvcruntime:trnsctrl.obj
 0001:0000ec4f       ___CxxFrameHandler3        1000fc4f f   libvcruntime:trnsctrl.obj
 0001:0000ec85       ___DestructExceptionObject 1000fc85 f   libvcruntime:ehhelpers.obj
 0001:0000ed26       ?_CallMemberFunction0@@YGXQAX0@Z 1000fd26 f i libvcruntime:ehhelpers.obj
 0001:0000ed8b       __IsExceptionObjectToBeDestroyed 1000fd8b f   libvcruntime:ehhelpers.obj
 0001:0000edb1       ___AdjustPointer           1000fdb1 f   libvcruntime:ehhelpers.obj
 0001:0000edd6       ___FrameUnwindFilter       1000fdd6 f   libvcruntime:ehhelpers.obj
 0001:0000ee2c       ___std_type_info_compare   1000fe2c f   libvcruntime:std_type_info.obj
 0001:0000ee68       ___std_type_info_destroy_list 1000fe68 f   libvcruntime:std_type_info.obj
 0001:0000ee8b       ___std_exception_copy      1000fe8b f   libvcruntime:std_exception.obj
 0001:0000eeee       ___std_exception_destroy   1000feee f   libvcruntime:std_exception.obj
 0001:0000ef0d       __CxxThrowException@8      1000ff0d f   libvcruntime:throw.obj
 0001:0000ef80       _memmove                   1000ff80 f   libvcruntime:memmove.obj
 0001:0000f500       __local_unwind4            10010500 f   libvcruntime:exsup4.obj
 0001:0000f5d8       __seh_longjmp_unwind4@4    100105d8 f   libvcruntime:exsup4.obj
 0001:0000f600       @_EH4_CallFilterFunc@8     10010600 f   libvcruntime:exsup4.obj
 0001:0000f618       @_EH4_TransferToHandler@8  10010618 f   libvcruntime:exsup4.obj
 0001:0000f634       @_EH4_GlobalUnwind2@8      10010634 f   libvcruntime:exsup4.obj
 0001:0000f650       @_EH4_LocalUnwind@16       10010650 f   libvcruntime:exsup4.obj
 0001:0000f667       ___except_validate_context_record 10010667 f   libvcruntime:jbcxrval.obj
 0001:0000f697       ___except_validate_jump_buffer 10010697 f   libvcruntime:jbcxrval.obj
 0001:0000f6c4       ___vcrt_freefls@4          100106c4 f   libvcruntime:per_thread_data.obj
 0001:0000f6e0       ___vcrt_freeptd            100106e0 f   libvcruntime:per_thread_data.obj
 0001:0000f716       ___vcrt_getptd             10010716 f   libvcruntime:per_thread_data.obj
 0001:0000f724       ___vcrt_getptd_noexit      10010724 f   libvcruntime:per_thread_data.obj
 0001:0000f7b6       ___vcrt_initialize_ptd     100107b6 f   libvcruntime:per_thread_data.obj
 0001:0000f7e9       ___vcrt_uninitialize_ptd   100107e9 f   libvcruntime:per_thread_data.obj
 0001:0000f804       ___vcrt_initialize_locks   10010804 f   libvcruntime:locks.obj
 0001:0000f840       ___vcrt_uninitialize_locks 10010840 f   libvcruntime:locks.obj
 0001:0000ffb2       ??$TypeMatchHelper@V__FrameHandler3@@@@YAHPBU_s_HandlerType@@PBU_s_CatchableType@@PBU_s_ThrowInfo@@@Z 10010fb2 f i libvcruntime:frame.obj
 0001:00010040       ??$__InternalCxxFrameHandler@V__FrameHandler3@@@@YA?AW4_EXCEPTION_DISPOSITION@@PAUEHExceptionRecord@@PAUEHRegistrationNode@@PAU_CONTEXT@@PAXPBU_s_FuncInfo@@H1E@Z 10011040 f i libvcruntime:frame.obj
 0001:00010142       ??0bad_exception@std@@QAE@ABV01@@Z 10011142 f i libvcruntime:frame.obj
 0001:0001015d       ??0bad_exception@std@@QAE@XZ 1001115d f i libvcruntime:frame.obj
 0001:00010175       ??8type_info@@QBE_NABV0@@Z 10011175 f i libvcruntime:frame.obj
 0001:000103dc       ?FrameUnwindToEmptyState@__FrameHandler3@@SAXPAUEHRegistrationNode@@PAXPBU_s_FuncInfo@@@Z 100113dc f   libvcruntime:frame.obj
 0001:000103f4       ?FrameUnwindToState@__FrameHandler3@@SAXPAUEHRegistrationNode@@PAXPBU_s_FuncInfo@@H@Z 100113f4 f   libvcruntime:frame.obj
 0001:00010576       ?_CallMemberFunction1@@YGXQAX00@Z 10011576 f i libvcruntime:frame.obj
 0001:00010586       ?_CallMemberFunction2@@YGXQAX00H@Z 10011586 f i libvcruntime:frame.obj
 0001:00010599       ?getESTypes@__FrameHandler3@@SAPBU_s_ESTypeList@@PBU_s_FuncInfo@@@Z 10011599 f i libvcruntime:frame.obj
 0001:000105b0       __CallSettingFrame@12      100115b0 f   libvcruntime:lowhelpr.obj
 0001:000105d7       __NLG_Return               100115d7     libvcruntime:lowhelpr.obj
 0001:00010600       __global_unwind2           10011600 f   libvcruntime:exsup.obj
 0001:00010666       __local_unwind2            10011666 f   libvcruntime:exsup.obj
 0001:000106ea       __abnormal_termination     100116ea f   libvcruntime:exsup.obj
 0001:00010710       __NLG_Notify1              10011710 f   libvcruntime:exsup.obj
 0001:0001071c       __NLG_Notify               1001171c f   libvcruntime:exsup.obj
 0001:00010733       __NLG_Dispatch             10011733     libvcruntime:exsup.obj
 0001:00010733       __NLG_Dispatch2            10011733     libvcruntime:exsup.obj
 0001:0001073b       __NLG_Call                 1001173b f   libvcruntime:exsup.obj
 0001:0001073d       __NLG_Return2              1001173d     libvcruntime:exsup.obj
 0001:00010821       ___vcrt_FlsAlloc           10011821 f   libvcruntime:winapi_downlevel.obj
 0001:0001085c       ___vcrt_FlsFree            1001185c f   libvcruntime:winapi_downlevel.obj
 0001:00010897       ___vcrt_FlsGetValue        10011897 f   libvcruntime:winapi_downlevel.obj
 0001:000108d2       ___vcrt_FlsSetValue        100118d2 f   libvcruntime:winapi_downlevel.obj
 0001:00010910       ___vcrt_InitializeCriticalSectionEx 10011910 f   libvcruntime:winapi_downlevel.obj
 0001:00010957       _unexpected                10011957 f   libvcruntime:unexpected.obj
 0001:00010974       ?GetCurrentState@__FrameHandler3@@SAHPAUEHRegistrationNode@@PAXPBU_s_FuncInfo@@@Z 10011974 f   libvcruntime:ehstate.obj
 0001:00010991       ?SetState@__FrameHandler3@@SAXPAUEHRegistrationNode@@PBU_s_FuncInfo@@H@Z 10011991 f   libvcruntime:ehstate.obj
 0001:0001099f       _free                      1001199f f   libucrt:free.obj
 0001:000109ba       ___acrt_call_reportfault   100119ba f   libucrt:invalid_parameter.obj
 0001:00010af3       ___acrt_initialize_invalid_parameter_handler 10011af3 f   libucrt:invalid_parameter.obj
 0001:00010b02       __invalid_parameter        10011b02 f   libucrt:invalid_parameter.obj
 0001:00010b66       __invalid_parameter_noinfo 10011b66 f   libucrt:invalid_parameter.obj
 0001:00010b76       __invoke_watson            10011b76 f   libucrt:invalid_parameter.obj
 0001:00010baa       ___acrt_errno_from_os_error 10011baa f   libucrt:errno.obj
 0001:00010bed       ___acrt_errno_map_os_error 10011bed f   libucrt:errno.obj
 0001:00010c10       ___doserrno                10011c10 f   libucrt:errno.obj
 0001:00010c23       __errno                    10011c23 f   libucrt:errno.obj
 0001:00010c36       _calloc                    10011c36 f   libucrt:calloc.obj
 0001:00010c41       _malloc                    10011c41 f   libucrt:malloc.obj
 0001:00010c4c       __recalloc                 10011c4c f   libucrt:recalloc.obj
 0001:00010c57       __recalloc_base            10011c57 f   libucrt:recalloc.obj
 0001:00010cc4       __resetstkoflw             10011cc4 f   libucrt:resetstk.obj
 0001:00010d89       _wcscat_s                  10011d89 f   libucrt:wcscat_s.obj
 0001:00010dfe       _wcscpy_s                  10011dfe f   libucrt:wcscpy_s.obj
 0001:00010f2d       _wcsncpy_s                 10011f2d f   libucrt:wcsncpy_s.obj
 0001:00011139       ??$count@D@formatting_buffer@__crt_stdio_output@@QBEIXZ 10012139 f i libucrt:output.obj
 0001:00011151       ??$count@_W@formatting_buffer@__crt_stdio_output@@QBEIXZ 10012151 f i libucrt:output.obj
 0001:0001116a       ??$ensure_buffer_is_big_enough@D@formatting_buffer@__crt_stdio_output@@QAE_NI@Z 1001216a f i libucrt:output.obj
 0001:000111e7       ??$ensure_buffer_is_big_enough@_W@formatting_buffer@__crt_stdio_output@@QAE_NI@Z 100121e7 f i libucrt:output.obj
 0001:00011265       ??$is_wide_character_specifier@_W@__crt_stdio_output@@YA_N_K_WW4length_modifier@0@@Z 10012265 f i libucrt:output.obj
 0001:000112b3       ??$scratch_data@D@formatting_buffer@__crt_stdio_output@@QAEPADXZ 100122b3 f i libucrt:output.obj
 0001:000112d1       ??$type_case_integer_parse_into_buffer@I@?$output_processor@_WV?$string_output_adapter@_W@__crt_stdio_output@@V?$format_validation_base@_WV?$string_output_adapter@_W@__crt_stdio_output@@@2@@__crt_stdio_output@@AAEXII_N@Z 100122d1 f i libucrt:output.obj
 0001:00011358       ??$type_case_integer_parse_into_buffer@_K@?$output_processor@_WV?$string_output_adapter@_W@__crt_stdio_output@@V?$format_validation_base@_WV?$string_output_adapter@_W@__crt_stdio_output@@@2@@__crt_stdio_output@@AAEX_KI_N@Z 10012358 f i libucrt:output.obj
 0001:000113fa       ??$write_multiple_characters@V?$string_output_adapter@_W@__crt_stdio_output@@D@__crt_stdio_output@@YAXABV?$string_output_adapter@_W@0@DHQAH@Z 100123fa f i libucrt:output.obj
 0001:0001142b       ??0?$common_data@_W@__crt_stdio_output@@IAE@XZ 1001242b f i libucrt:output.obj
 0001:00011475       ??0?$output_adapter_data@_WV?$string_output_adapter@_W@__crt_stdio_output@@@__crt_stdio_output@@IAE@ABV?$string_output_adapter@_W@1@_KQB_WQAU__crt_locale_pointers@@QAD@Z 10012475 f i libucrt:output.obj
 0001:000114b1       ??0_LocaleUpdate@@QAE@QAU__crt_locale_pointers@@@Z 100124b1 f i libucrt:output.obj
 0001:00011534       ??1formatting_buffer@__crt_stdio_output@@QAE@XZ 10012534 f i libucrt:output.obj
 0001:0001154e       ??4?$__crt_unique_heap_ptr@DU__crt_internal_free_policy@@@@QAEAAV0@$$QAV0@@Z 1001254e f i libucrt:output.obj
 0001:00011580       ?crop_zeroes@__crt_stdio_output@@YAXPADQAU__crt_locale_pointers@@@Z 10012580 f i libucrt:output.obj
 0001:00011601       ?find_next_state@?$output_processor@_WV?$string_output_adapter@_W@__crt_stdio_output@@V?$format_validation_base@_WV?$string_output_adapter@_W@__crt_stdio_output@@@2@@__crt_stdio_output@@ABE?AW4state@2@_WW432@@Z 10012601 f i libucrt:output.obj
 0001:00011640       ?force_decimal_point@__crt_stdio_output@@YAXPADQAU__crt_locale_pointers@@@Z 10012640 f i libucrt:output.obj
 0001:000116a5       ?parse_int_from_format_string@?$output_processor@_WV?$string_output_adapter@_W@__crt_stdio_output@@V?$format_validation_base@_WV?$string_output_adapter@_W@__crt_stdio_output@@@2@@__crt_stdio_output@@AAE_NQAH@Z 100126a5 f i libucrt:output.obj
 0001:0001171b       ?process@?$output_processor@_WV?$string_output_adapter@_W@__crt_stdio_output@@V?$format_validation_base@_WV?$string_output_adapter@_W@__crt_stdio_output@@@2@@__crt_stdio_output@@QAEHXZ 1001271b f i libucrt:output.obj
 0001:00011843       ?state_case_flag@?$output_processor@_WV?$string_output_adapter@_W@__crt_stdio_output@@V?$format_validation_base@_WV?$string_output_adapter@_W@__crt_stdio_output@@@2@@__crt_stdio_output@@AAE_NXZ 10012843 f i libucrt:output.obj
 0001:00011880       ?state_case_normal@?$output_processor@_WV?$string_output_adapter@_W@__crt_stdio_output@@V?$format_validation_base@_WV?$string_output_adapter@_W@__crt_stdio_output@@@2@@__crt_stdio_output@@AAE_NXZ 10012880 f i libucrt:output.obj
 0001:0001189f       ?state_case_normal_common@?$output_processor@_WV?$string_output_adapter@_W@__crt_stdio_output@@V?$format_validation_base@_WV?$string_output_adapter@_W@__crt_stdio_output@@@2@@__crt_stdio_output@@AAE_NXZ 1001289f f i libucrt:output.obj
 0001:000118ba       ?state_case_precision@?$output_processor@_WV?$string_output_adapter@_W@__crt_stdio_output@@V?$format_validation_base@_WV?$string_output_adapter@_W@__crt_stdio_output@@@2@@__crt_stdio_output@@AAE_NXZ 100128ba f i libucrt:output.obj
 0001:000118e1       ?state_case_size@?$output_processor@_WV?$string_output_adapter@_W@__crt_stdio_output@@V?$format_validation_base@_WV?$string_output_adapter@_W@__crt_stdio_output@@@2@@__crt_stdio_output@@AAE_NXZ 100128e1 f i libucrt:output.obj
 0001:00011a59       ?state_case_type@?$output_processor@_WV?$string_output_adapter@_W@__crt_stdio_output@@V?$format_validation_base@_WV?$string_output_adapter@_W@__crt_stdio_output@@@2@@__crt_stdio_output@@AAE_NXZ 10012a59 f i libucrt:output.obj
 0001:00011cb6       ?state_case_width@?$output_processor@_WV?$string_output_adapter@_W@__crt_stdio_output@@V?$format_validation_base@_WV?$string_output_adapter@_W@__crt_stdio_output@@@2@@__crt_stdio_output@@AAE_NXZ 10012cb6 f i libucrt:output.obj
 0001:00011cf0       ?to_integer_size@__crt_stdio_output@@YAIW4length_modifier@1@@Z 10012cf0 f i libucrt:output.obj
 0001:00011d4c       ?type_case_Z@?$output_processor@_WV?$string_output_adapter@_W@__crt_stdio_output@@V?$format_validation_base@_WV?$string_output_adapter@_W@__crt_stdio_output@@@2@@__crt_stdio_output@@AAE_NXZ 10012d4c f i libucrt:output.obj
 0001:00011da6       ?type_case_a@?$output_processor@_WV?$string_output_adapter@_W@__crt_stdio_output@@V?$format_validation_base@_WV?$string_output_adapter@_W@__crt_stdio_output@@@2@@__crt_stdio_output@@AAE_NXZ 10012da6 f i libucrt:output.obj
 0001:00011f0d       ?type_case_c_tchar@?$output_processor@_WV?$string_output_adapter@_W@__crt_stdio_output@@V?$format_validation_base@_WV?$string_output_adapter@_W@__crt_stdio_output@@@2@@__crt_stdio_output@@AAE_N_W@Z 10012f0d f i libucrt:output.obj
 0001:00011fa3       ?type_case_integer@?$output_processor@_WV?$string_output_adapter@_W@__crt_stdio_output@@V?$format_validation_base@_WV?$string_output_adapter@_W@__crt_stdio_output@@@2@@__crt_stdio_output@@AAE_NI_N@Z 10012fa3 f i libucrt:output.obj
 0001:000120f8       ?type_case_n@?$output_processor@_WV?$string_output_adapter@_W@__crt_stdio_output@@V?$format_validation_base@_WV?$string_output_adapter@_W@__crt_stdio_output@@@2@@__crt_stdio_output@@AAE_NXZ 100130f8 f i libucrt:output.obj
 0001:0001216c       ?type_case_o@?$output_processor@_WV?$string_output_adapter@_W@__crt_stdio_output@@V?$format_validation_base@_WV?$string_output_adapter@_W@__crt_stdio_output@@@2@@__crt_stdio_output@@AAE_NXZ 1001316c f i libucrt:output.obj
 0001:0001218b       ?type_case_p@?$output_processor@_WV?$string_output_adapter@_W@__crt_stdio_output@@V?$format_validation_base@_WV?$string_output_adapter@_W@__crt_stdio_output@@@2@@__crt_stdio_output@@AAE_NXZ 1001318b f i libucrt:output.obj
 0001:000121a3       ?type_case_s@?$output_processor@_WV?$string_output_adapter@_W@__crt_stdio_output@@V?$format_validation_base@_WV?$string_output_adapter@_W@__crt_stdio_output@@@2@@__crt_stdio_output@@AAE_NXZ 100131a3 f i libucrt:output.obj
 0001:00012216       ?type_case_s_compute_narrow_string_length@?$output_processor@_WV?$string_output_adapter@_W@__crt_stdio_output@@V?$format_validation_base@_WV?$string_output_adapter@_W@__crt_stdio_output@@@2@@__crt_stdio_output@@ABEHH_W@Z 10013216 f i libucrt:output.obj
 0001:0001225d       ?validate@?$string_output_adapter@_W@__crt_stdio_output@@QBE_NXZ 1001325d f i libucrt:output.obj
 0001:0001225d       ?validate@?$c_string_character_source@_W@__crt_strtox@@QBE_NXZ 1001325d f i libucrt:atox.obj
 0001:00012278       ?validate_and_update_state_at_end_of_format_string@?$format_validation_base@_WV?$string_output_adapter@_W@__crt_stdio_output@@@__crt_stdio_output@@IBE_NXZ 10013278 f i libucrt:output.obj
 0001:0001229a       ?write_character@?$string_output_adapter@_W@__crt_stdio_output@@QBE_N_WQAH@Z 1001329a f i libucrt:output.obj
 0001:000122df       ?write_stored_string_tchar@?$output_processor@_WV?$string_output_adapter@_W@__crt_stdio_output@@V?$format_validation_base@_WV?$string_output_adapter@_W@__crt_stdio_output@@@2@@__crt_stdio_output@@AAE_N_W@Z 100132df f i libucrt:output.obj
 0001:0001236c       ?write_string@?$string_output_adapter@_W@__crt_stdio_output@@QBEXQB_WHQAHAAV__crt_deferred_errno_cache@@@Z 1001336c f i libucrt:output.obj
 0001:000123dd       ___acrt_locale_get_ctype_array_value 100133dd f i libucrt:output.obj
 0001:000123ff       ___stdio_common_vswprintf_s 100133ff f   libucrt:output.obj
 0001:00012423       __seh_filter_dll           10013423 f   libucrt:exception_filter.obj
 0001:00012443       __seh_filter_exe           10013443 f   libucrt:exception_filter.obj
 0001:00012811       ___acrt_initialize_thread_local_exit_callback 10013811 f   libucrt:exit.obj
 0001:00012820       __cexit                    10013820 f   libucrt:exit.obj
 0001:0001282f       __exit                     1001382f f   libucrt:exit.obj
 0001:00012845       __is_c_termination_complete 10013845 f   libucrt:exit.obj
 0001:00012af6       ___acrt_allocate_buffer_for_argv 10013af6 f   libucrt:argv_parsing.obj
 0001:00012b45       __configure_narrow_argv    10013b45 f   libucrt:argv_parsing.obj
 0001:00012ca2       ??$uninitialize@A6AXAAPAPA_W@Z@?$dual_state_global@PAPA_W@__crt_state_management@@QAEXA6AXAAPAPA_W@Z@Z 10013ca2 f i libucrt:environment_initialization.obj
 0001:00012ca2       ??$uninitialize@A6AXAAPAPAD@Z@?$dual_state_global@PAPAD@__crt_state_management@@QAEXA6AXAAPAPAD@Z@Z 10013ca2 f i libucrt:environment_initialization.obj
 0001:00012d01       ___dcrt_uninitialize_environments_nolock 10013d01 f   libucrt:environment_initialization.obj
 0001:00012d38       __initialize_narrow_environment 10013d38 f   libucrt:environment_initialization.obj
 0001:00012df3       ??$__crt_fast_encode_pointer@PAX@@YAPAXQAX@Z 10013df3 f i libucrt:initialization.obj
 0001:00012df3       ??$__crt_fast_encode_pointer@PAP6AXXZ@@YAPAP6AXXZQAP6AXXZ@Z 10013df3 f i libucrt:onexit.obj
 0001:00012df3       ??$__crt_fast_encode_pointer@P6AHXZ@@YAP6AHXZQ6AHXZ@Z 10013df3 f i libucrt:onexit.obj
 0001:00013015       __crt_atexit               10014015 f   libucrt:onexit.obj
 0001:0001302b       __execute_onexit_table     1001402b f   libucrt:onexit.obj
 0001:00013058       __initialize_onexit_table  10014058 f   libucrt:onexit.obj
 0001:00013081       __register_onexit_function 10014081 f   libucrt:onexit.obj
 0001:000130db       ___acrt_uninitialize_command_line 100140db f   libucrt:argv_data.obj
 0001:000131b2       ___acrt_initialize         100141b2 f   libucrt:initialization.obj
 0001:000131c4       ___acrt_thread_attach      100141c4 f   libucrt:initialization.obj
 0001:000131cf       ___acrt_thread_detach      100141cf f   libucrt:initialization.obj
 0001:000131d7       ___acrt_uninitialize       100141d7 f   libucrt:initialization.obj
 0001:00013207       ___acrt_uninitialize_critical 10014207 f   libucrt:initialization.obj
 0001:00013219       __initterm                 10014219 f   libucrt:initterm.obj
 0001:0001325e       __initterm_e               1001425e f   libucrt:initterm.obj
 0001:0001328c       ___acrt_initialize_new_handler 1001428c f   libucrt:new_handler.obj
 0001:0001329b       __callnewh                 1001429b f   libucrt:new_handler.obj
 0001:000132c8       __query_new_handler        100142c8 f   libucrt:new_handler.obj
 0001:00013324       _terminate                 10014324 f   libucrt:terminate.obj
 0001:00013360       _abort                     10014360 f   libucrt:abort.obj
 0001:000133a4       _strcpy_s                  100143a4 f   libucrt:strcpy_s.obj
 0001:000133fe       ??$is_overflow_condition@K@__crt_strtox@@YA_NIK@Z 100143fe f i libucrt:atox.obj
 0001:0001342f       ??$parse_integer@KV?$c_string_character_source@_W@__crt_strtox@@@__crt_strtox@@YAKQAU__crt_locale_pointers@@V?$c_string_character_source@_W@0@H_N@Z 1001442f f i libucrt:atox.obj
 0001:00013a37       ?unget@?$c_string_character_source@_W@__crt_strtox@@QAEX_W@Z 10014a37 f i libucrt:atox.obj
 0001:00013a70       _strncmp                   10014a70 f   libucrt:strncmp.obj
 0001:00013ae8       _wcsncmp                   10014ae8 f   libucrt:wcsncmp.obj
 0001:00013b22       __free_base                10014b22 f   libucrt:free_base.obj
 0001:00013e9a       ___acrt_freeptd            10014e9a f   libucrt:per_thread_data.obj
 0001:00013ec6       ___acrt_getptd             10014ec6 f   libucrt:per_thread_data.obj
 0001:00013f83       ___acrt_getptd_head        10014f83 f   libucrt:per_thread_data.obj
 0001:0001401d       ___acrt_getptd_noexit      1001501d f   libucrt:per_thread_data.obj
 0001:000140d2       ___acrt_initialize_ptd     100150d2 f   libucrt:per_thread_data.obj
 0001:000140fe       ___acrt_uninitialize_ptd   100150fe f   libucrt:per_thread_data.obj
 0001:00014118       __calloc_base              10015118 f   libucrt:calloc_base.obj
 0001:00014175       __malloc_base              10015175 f   libucrt:malloc_base.obj
 0001:000141c3       __msize_base               100151c3 f   libucrt:msize.obj
 0001:000141f6       __realloc_base             100151f6 f   libucrt:realloc_base.obj
 0001:000143f7       ___acrt_AppPolicyGetProcessTerminationMethodInternal@4 100153f7 f   libucrt:winapi_thunks.obj
 0001:00014437       ___acrt_AreFileApisANSI@0  10015437 f   libucrt:winapi_thunks.obj
 0001:00014456       ___acrt_FlsAlloc@4         10015456 f   libucrt:winapi_thunks.obj
 0001:00014495       ___acrt_FlsFree@4          10015495 f   libucrt:winapi_thunks.obj
 0001:000144d4       ___acrt_FlsGetValue@4      100154d4 f   libucrt:winapi_thunks.obj
 0001:00014513       ___acrt_FlsSetValue@8      10015513 f   libucrt:winapi_thunks.obj
 0001:00014555       ___acrt_InitializeCriticalSectionEx@12 10015555 f   libucrt:winapi_thunks.obj
 0001:000145a0       ___acrt_LCMapStringEx@36   100155a0 f   libucrt:winapi_thunks.obj
 0001:000145fd       ___acrt_LocaleNameToLCID@8 100155fd f   libucrt:winapi_thunks.obj
 0001:0001462e       ___acrt_SetThreadStackGuarantee@4 1001562e f   libucrt:winapi_thunks.obj
 0001:00014669       ___acrt_initialize_winapi_thunks 10015669 f   libucrt:winapi_thunks.obj
 0001:00014694       ___acrt_uninitialize_winapi_thunks 10015694 f   libucrt:winapi_thunks.obj
 0001:000146ca       ??$make_c_string_character_source@_WPAPA_W@__crt_strtox@@YA?AV?$c_string_character_source@_W@0@QB_WQAPA_W@Z 100156ca f i libucrt:strtox.obj
 0001:000146e5       _wcstol                    100156e5 f   libucrt:strtox.obj
 0001:0001470f       __mbtowc_l                 1001570f f   libucrt:mbtowc.obj
 0001:00014851       _mbtowc                    10015851 f   libucrt:mbtowc.obj
 0001:0001486b       _wcsnlen                   1001586b f   libucrt:strnlen.obj
 0001:00014a1b       ___acrt_update_locale_info 10015a1b f   libucrt:locale_update.obj
 0001:00014a48       ___acrt_update_multibyte_info 10015a48 f   libucrt:locale_update.obj
 0001:00014a75       ?__acrt_fp_classify@@YA?AW4__acrt_fp_class@@ABN@Z 10015a75 f i libucrt:cvt.obj
 0001:00015427       ___acrt_fp_format          10016427 f   libucrt:cvt.obj
 0001:00015585       __fileno                   10016585 f   libucrt:fileno.obj
 0001:000155ac       ___acrt_initialize_stdio   100165ac f   libucrt:_file.obj
 0001:00015674       ___acrt_uninitialize_stdio 10016674 f   libucrt:_file.obj
 0001:000156c0       __lock_file                100166c0 f   libucrt:_file.obj
 0001:000156d4       __unlock_file              100166d4 f   libucrt:_file.obj
 0001:000156e8       __get_printf_count_output  100166e8 f   libucrt:printf_count_output.obj
 0001:0001576b       ___acrt_set_locale_changed 1001676b f   libucrt:wsetlocale.obj
 0001:00015776       ___acrt_uninitialize_locale 10016776 f   libucrt:wsetlocale.obj
 0001:00015907       ___acrt_initialize_lowio   10016907 f   libucrt:ioinit.obj
 0001:00015967       ___acrt_uninitialize_lowio 10016967 f   libucrt:ioinit.obj
 0001:00015993       ___acrt_initialize_locks   10016993 f   libucrt:locks.obj
 0001:000159d4       ___acrt_lock               100169d4 f   libucrt:locks.obj
 0001:000159eb       ___acrt_uninitialize_locks 100169eb f   libucrt:locks.obj
 0001:00015a1c       ___acrt_unlock             10016a1c f   libucrt:locks.obj
 0001:00015a33       ___acrt_get_process_end_policy 10016a33 f   libucrt:win_policies.obj
 0001:00015bfd       ??$__acrt_mbs_to_wcs_cp@U__crt_win32_buffer_internal_dynamic_resizing@@@@YAHQBDAAV?$__crt_win32_buffer@_WU__crt_win32_buffer_internal_dynamic_resizing@@@@I@Z 10016bfd f i libucrt:argv_wildcards.obj
 0001:00016111       ?__acrt_get_utf8_acp_compatibility_codepage@@YAIXZ 10017111 f i libucrt:argv_wildcards.obj
 0001:00016150       ?_deallocate@?$__crt_win32_buffer@_WU__crt_win32_buffer_internal_dynamic_resizing@@@@AAEXXZ 10017150 f i libucrt:argv_wildcards.obj
 0001:00016150       ?_deallocate@?$__crt_win32_buffer@DU__crt_win32_buffer_internal_dynamic_resizing@@@@AAEXXZ 10017150 f i libucrt:argv_wildcards.obj
 0001:0001616a       ?allocate@?$__crt_win32_buffer@DU__crt_win32_buffer_internal_dynamic_resizing@@@@QAEHI@Z 1001716a f i libucrt:argv_wildcards.obj
 0001:000161a6       ?allocate@?$__crt_win32_buffer@_WU__crt_win32_buffer_internal_dynamic_resizing@@@@QAEHI@Z 100171a6 f i libucrt:argv_wildcards.obj
 0001:000161e5       ?allocate@__crt_win32_buffer_internal_dynamic_resizing@@SAHQAPAXIABV__crt_win32_buffer_empty_debug_info@@@Z 100171e5 f i libucrt:argv_wildcards.obj
 0001:0001628b       ___acrt_expand_narrow_argv_wildcards 1001728b f   libucrt:argv_wildcards.obj
 0001:0001635d       ?allocate@?$__crt_win32_buffer@DU__crt_win32_buffer_no_resizing@@@@QAEHI@Z 1001735d f i libucrt:getmodulefilenamea.obj
 0001:00016384       ?set_to_nullptr@?$__crt_win32_buffer@DU__crt_win32_buffer_no_resizing@@@@QAEXXZ 10017384 f i libucrt:getmodulefilenamea.obj
 0001:00016398       ___acrt_GetModuleFileNameA 10017398 f   libucrt:getmodulefilenamea.obj
 0001:00016951       ___acrt_initialize_multibyte 10017951 f   libucrt:mbctype.obj
 0001:00016999       ___acrt_update_thread_multibyte_data 10017999 f   libucrt:mbctype.obj
 0001:000169ac       __setmbcp_nolock           100179ac f   libucrt:mbctype.obj
 0001:00016c77       __ismbblead                10017c77 f   libucrt:ismbbyte.obj
 0001:00016c8f       ___acrt_initialize_command_line 10017c8f f   libucrt:argv_data.obj
 0001:00016ca8       ___acrt_MultiByteToWideChar 10017ca8 f   libucrt:multibytetowidechar.obj
 0001:00016d24       ___acrt_WideCharToMultiByte 10017d24 f   libucrt:widechartomultibyte.obj
 0001:00016e12       ___dcrt_get_narrow_environment_from_os 10017e12 f   libucrt:get_environment_from_os.obj
 0001:00016e96       ___acrt_initialize_heap    10017e96 f   libucrt:heap_handle.obj
 0001:00016ea7       ___acrt_uninitialize_heap  10017ea7 f   libucrt:heap_handle.obj
 0001:00016eb1       ___acrt_execute_initializers 10017eb1 f   libucrt:shared_initialization.obj
 0001:00016f19       ___acrt_execute_uninitializers 10017f19 f   libucrt:shared_initialization.obj
 0001:00017018       ___acrt_get_sigabrt_handler 10018018 f   libucrt:signal.obj
 0001:0001703f       ___acrt_initialize_signal_handlers 1001803f f   libucrt:signal.obj
 0001:0001705d       _raise                     1001805d f   libucrt:signal.obj
 0001:00017250       ___acrt_has_user_matherr   10018250 f   libucrt:matherr.obj
 0001:00017268       ___acrt_initialize_user_matherr 10018268 f   libucrt:matherr.obj
 0001:00017277       ___acrt_invoke_user_matherr 10018277 f   libucrt:matherr.obj
 0001:00017486       ___acrt_stdio_flush_nolock 10018486 f   libucrt:fflush.obj
 0001:000174eb       __fflush_nolock            100184eb f   libucrt:fflush.obj
 0001:00017533       __flushall                 10018533 f   libucrt:fflush.obj
 0001:0001753c       ___pctype_func             1001853c f   libucrt:ctype.obj
 0001:00017560       _iswctype                  10018560 f   libucrt:iswctype.obj
 0001:000175c9       ___acrt_add_locale_ref     100185c9 f   libucrt:locale_refcounting.obj
 0001:00017646       ___acrt_free_locale        10018646 f   libucrt:locale_refcounting.obj
 0001:0001778e       ___acrt_locale_add_lc_time_reference 1001878e f   libucrt:locale_refcounting.obj
 0001:000177b7       ___acrt_locale_free_lc_time_if_unreferenced 100187b7 f   libucrt:locale_refcounting.obj
 0001:000177e8       ___acrt_locale_release_lc_time_reference 100187e8 f   libucrt:locale_refcounting.obj
 0001:00017811       ___acrt_release_locale_ref 10018811 f   libucrt:locale_refcounting.obj
 0001:00017892       ___acrt_update_thread_locale_data 10018892 f   libucrt:locale_refcounting.obj
 0001:00017913       __updatetlocinfoEx_nolock  10018913 f   libucrt:locale_refcounting.obj
 0001:00017963       __query_new_mode           10018963 f   libucrt:new_mode.obj
 0001:000179ba       ___acrt_DownlevelLocaleNameToLCID 100189ba f   libucrt:lcidtoname_downlevel.obj
 0001:000179e6       __isleadbyte_l             100189e6 f i libucrt:_wctype.obj
 0001:00017a4c       ?__mbrtowc_utf8@__crt_mbstring@@YAIPA_WPBDIPAU_Mbstatet@@@Z 10018a4c f   libucrt:mbrtowc.obj
 0001:00017a8c       ?__mbsrtowcs_utf8@__crt_mbstring@@YAIPA_WPAPBDIPAU_Mbstatet@@@Z 10018a8c f   libucrt:mbrtowc.obj
 0001:00017b87       ?return_illegal_sequence@__crt_mbstring@@YAIPAU_Mbstatet@@@Z 10018b87 f i libucrt:c32rtomb.obj
 0001:00017c11       ___acrt_fp_strflt_to_string 10018c11 f   libucrt:_fptostr.obj
 0001:00017cf0       ?divide@__crt_strtox@@YA_KAAUbig_integer@1@ABU21@@Z 10018cf0 f i libucrt:cfout.obj
 0001:00018188       ___acrt_fltout             10019188 f   libucrt:cfout.obj
 0001:0001968f       _fegetround                1001a68f f   libucrt:fegetround.obj
 0001:0001969c       __fcloseall                1001a69c f   libucrt:closeall.obj
 0001:00019747       ___acrt_stdio_free_buffer_nolock 1001a747 f   libucrt:_freebuf.obj
 0001:00019787       __isatty                   1001a787 f   libucrt:isatty.obj
 0001:000197dd       ___acrt_locale_free_monetary 1001a7dd f   libucrt:initmon.obj
 0001:000198db       ___acrt_locale_free_numeric 1001a8db f   libucrt:initnum.obj
 0001:0001997c       ___acrt_locale_free_time   1001a97c f   libucrt:inittime.obj
 0001:00019a60       ___acrt_GetStringTypeA     1001aa60 f   libucrt:getstringtypea.obj
 0001:00019b63       __freea_crt                1001ab63 f i libucrt:getstringtypea.obj
 0001:00019b83       ___acrt_lowio_create_handle_array 1001ab83 f   libucrt:osfinfo.obj
 0001:00019bfe       ___acrt_lowio_destroy_handle_array 1001abfe f   libucrt:osfinfo.obj
 0001:00019c33       ___acrt_lowio_ensure_fh_exists 1001ac33 f   libucrt:osfinfo.obj
 0001:00019cd1       ___acrt_lowio_lock_fh      1001acd1 f   libucrt:osfinfo.obj
 0001:00019cf4       ___acrt_lowio_unlock_fh    1001acf4 f   libucrt:osfinfo.obj
 0001:00019d17       __free_osfhnd              1001ad17 f   libucrt:osfinfo.obj
 0001:00019da8       __get_osfhandle            1001ada8 f   libucrt:osfinfo.obj
 0001:00019e20       _qsort                     1001ae20 f   libucrt:qsort.obj
 0001:0001a3c1       _strncpy_s                 1001b3c1 f   libucrt:strncpy_s.obj
 0001:0001a3d0       _strpbrk                   1001b3d0 f   libucrt:strpbrk.obj
 0001:0001a410       __mbsdec                   1001b410 f   libucrt:mbsdec.obj
 0001:0001a427       __mbsdec_l                 1001b427 f   libucrt:mbsdec.obj
 0001:0001a69e       ___acrt_LCMapStringA       1001b69e f   libucrt:lcmapstringa.obj
 0001:0001a798       __commit                   1001b798 f   libucrt:commit.obj
 0001:0001af90       __write                    1001bf90 f   libucrt:write.obj
 0001:0001b082       __write_nolock             1001c082 f   libucrt:write.obj
 0001:0001b25c       ___acrt_GetStringTypeW     1001c25c f   libucrt:getstringtypew.obj
 0001:0001b275       ___ascii_wcsnicmp          1001c275 f   libucrt:wcsnicmp.obj
 0001:0001b2c4       ?__mbrtoc32_utf8@__crt_mbstring@@YAIPA_UPBDIPAU_Mbstatet@@@Z 1001c2c4 f   libucrt:mbrtoc32.obj
 0001:0001b46b       __controlfp_s              1001c46b f   libucrt:contrlfp.obj
 0001:0001b4ca       _fegetenv                  1001c4ca f   libucrt:fegetenv.obj
 0001:0001b4e7       _fesetenv                  1001c4e7 f   libucrt:fesetenv.obj
 0001:0001b532       _feholdexcept              1001c532 f   libucrt:feholdexcept.obj
 0001:0001b580       __CIlog10                  1001c580 f   libucrt:log10_impl.obj
 0001:0001b5bb       __CIlog10_default          1001c5bb f   libucrt:log10_impl.obj
 0001:0001b5cf       __log10_default            1001c5cf     libucrt:log10_impl.obj
 0001:0001b690       _ceil                      1001c690 f   libucrt:ceil_pentium4.obj
 0001:0001b6d0       __ceil_pentium4            1001c6d0 f   libucrt:ceil_pentium4.obj
 0001:0001baca       ___acrt_fenv_get_common_round_control 1001caca f   libucrt:_fenvutils.obj
 0001:0001baec       ___acrt_fenv_get_control   1001caec f   libucrt:_fenvutils.obj
 0001:0001bb6c       ___acrt_fenv_get_status    1001cb6c f   libucrt:_fenvutils.obj
 0001:0001bc24       ___acrt_fenv_set_control   1001cc24 f   libucrt:_fenvutils.obj
 0001:0001bc8c       ___acrt_fenv_set_status    1001cc8c f   libucrt:_fenvutils.obj
 0001:0001bdff       __lseeki64_nolock          1001cdff f   libucrt:lseek.obj
 0001:0001be1a       __fclose_nolock            1001ce1a f   libucrt:fclose.obj
 0001:0001be91       _fclose                    1001ce91 f   libucrt:fclose.obj
 0001:0001bf15       __query_app_type           1001cf15 f   libucrt:report_runtime_error.obj
 0001:0001bf1b       ___strncnt                 1001cf1b f   libucrt:strncnt.obj
 0001:0001bf37       __putwch_nolock            1001cf37 f   libucrt:putwch.obj
 0001:0001c010       __clearfp                  1001d010 f   libucrt:ieee87.obj
 0001:0001c0ee       __control87                1001d0ee f   libucrt:ieee87.obj
 0001:0001c48d       ___acrt_initialize_sse2    1001d48d f   libucrt:mathfcns.obj
 0001:0001c4a0       __CIlog10_pentium4         1001d4a0 f   libucrt:log10_pentium4.obj
 0001:0001c4b8       __log10_pentium4           1001d4b8     libucrt:log10_pentium4.obj
 0001:0001c750       __fFEXP                    1001d750 f   libucrt:87tran.obj
 0001:0001c7a7       __rtinfpopse               1001d7a7     libucrt:87tran.obj
 0001:0001c7a9       __rtinfnpopse              1001d7a9     libucrt:87tran.obj
 0001:0001c7b9       __fFLN                     1001d7b9     libucrt:87tran.obj
 0001:0001c86e       __rtinfpop                 1001d86e     libucrt:87tran.obj
 0001:0001c870       __rtinfnpop                1001d870     libucrt:87tran.obj
 0001:0001c880       __rtforexpinf              1001d880 f   libucrt:87tran.obj
 0001:0001c88d       __ffexpm1                  1001d88d     libucrt:87tran.obj
 0001:0001c940       __trandisp1                1001d940 f   libucrt:87disp.obj
 0001:0001c9b5       __trandisp2                1001d9b5 f   libucrt:87disp.obj
 0001:0001ca4f       __rttospopde               1001da4f     libucrt:87disp.obj
 0001:0001ca54       __rttospop                 1001da54     libucrt:87disp.obj
 0001:0001ca60       __rtnospop                 1001da60 f   libucrt:87disp.obj
 0001:0001ca70       __rttosnpop                1001da70 f   libucrt:87disp.obj
 0001:0001ca71       __rtnospopde               1001da71     libucrt:87disp.obj
 0001:0001ca78       __rtzeropop                1001da78     libucrt:87disp.obj
 0001:0001ca7a       __rtzeronpop               1001da7a     libucrt:87disp.obj
 0001:0001ca80       __rtzerospop               1001da80 f   libucrt:87disp.obj
 0001:0001ca8d       __rtonepop                 1001da8d     libucrt:87disp.obj
 0001:0001ca90       __rtonenpop                1001da90 f   libucrt:87disp.obj
 0001:0001caa0       __tosnan1                  1001daa0 f   libucrt:87disp.obj
 0001:0001cad0       __nosnan2                  1001dad0 f   libucrt:87disp.obj
 0001:0001cae0       __tosnan2                  1001dae0 f   libucrt:87disp.obj
 0001:0001cb10       __nan2                     1001db10 f   libucrt:87disp.obj
 0001:0001cb50       __rtindfpop                1001db50 f   libucrt:87disp.obj
 0001:0001cb52       __rtindfnpop               1001db52     libucrt:87disp.obj
 0001:0001cb63       __rttosnpopde              1001db63     libucrt:87disp.obj
 0001:0001cb70       __rtatan2inf               1001db70 f   libucrt:87disp.obj
 0001:0001cb8d       __rtchsifneg               1001db8d     libucrt:87disp.obj
 0001:0001cba0       __twoToTOS                 1001dba0 f   libucrt:common.obj
 0001:0001cbb5       __load_CW                  1001dbb5 f   libucrt:common.obj
 0001:0001cbcc       __convertTOStoQNaN         1001dbcc f   libucrt:common.obj
 0001:0001cbe5       __fload_withFB             1001dbe5 f   libucrt:common.obj
 0001:0001cc28       __checkTOS_withFB          1001dc28 f   libucrt:common.obj
 0001:0001cc3e       __fast_exit                1001dc3e f   libucrt:common.obj
 0001:0001cc4b       __math_exit                1001dc4b f   libucrt:common.obj
 0001:0001cc75       __check_overflow_exit      1001dc75 f   libucrt:common.obj
 0001:0001cc89       __check_range_exit         1001dc89 f   libucrt:common.obj
 0001:0001cd30       __startTwoArgErrorHandling 1001dd30 f   libucrt:genexcep.obj
 0001:0001cd47       __startOneArgErrorHandling 1001dd47 f   libucrt:genexcep.obj
 0001:0001cd83       ___libm_error_support      1001dd83 f   libucrt:libm_error.obj
 0001:0001cf77       __ceil_default             1001df77 f   libucrt:ceil.obj
 0001:0001d0b8       __close                    1001e0b8 f   libucrt:close.obj
 0001:0001d145       __close_nolock             1001e145 f   libucrt:close.obj
 0001:0001d1e1       ?__acrt_stdio_free_stream@@YAXV__crt_stdio_stream@@@Z 1001e1e1 f   libucrt:stream.obj
 0001:0001d220       ___ascii_strnicmp          1001e220 f   libucrt:_strnicm.obj
 0001:0001d2a0       ___dcrt_lowio_ensure_console_output_initialized 1001e2a0 f   libucrt:initcon.obj
 0001:0001d2bf       ___dcrt_terminate_console_output 1001e2bf f   libucrt:initcon.obj
 0001:0001d2d6       ___dcrt_write_console      1001e2d6 f   libucrt:initcon.obj
 0001:0001d32b       ___set_fpsr_sse2           1001e32b f   libucrt:fpctrl.obj
 0001:0001d3ab       __clrfp                    1001e3ab f   libucrt:fpctrl.obj
 0001:0001d3bc       __ctrlfp                   1001e3bc f   libucrt:fpctrl.obj
 0001:0001d3e6       __set_statfp               1001e3e6 f   libucrt:fpctrl.obj
 0001:0001d43f       __statfp                   1001e43f f   libucrt:fpctrl.obj
 0001:0001d44f       __d_inttype                1001e44f f   libucrt:powhlp.obj
 0001:0001d4b7       __powhlp                   1001e4b7 f   libucrt:powhlp.obj
 0001:0001d5e2       __87except                 1001e5e2 f   libucrt:87except.obj
 0001:0001d6ec       __frnd                     1001e6ec f   libucrt:frnd.obj
 0001:0001d700       __errcode                  1001e700 f   libucrt:fpexcept.obj
 0001:0001d734       __except1                  1001e734 f   libucrt:fpexcept.obj
 0001:0001d802       __handle_exc               1001e802 f   libucrt:fpexcept.obj
 0001:0001d9ed       __raise_exc                1001e9ed f   libucrt:fpexcept.obj
 0001:0001da10       __raise_exc_ex             1001ea10 f   libucrt:fpexcept.obj
 0001:0001dd06       __set_errno_from_matherr   1001ed06 f   libucrt:fpexcept.obj
 0001:0001dd35       __umatherr                 1001ed35 f   libucrt:fpexcept.obj
 0001:0001ddd5       __decomp                   1001edd5 f   libucrt:util.obj
 0001:0001dea7       __set_exp                  1001eea7 f   libucrt:util.obj
 0001:0001ded4       __sptype                   1001eed4 f   libucrt:util.obj
 0001:0001df32       __fpclass                  1001ef32 f   libucrt:ieeemisc.obj
 0001:0001dfd6       _IsProcessorFeaturePresent@4 1001efd6 f   kernel32:KERNEL32.dll
 0001:0001dfe0       __FindPESection            1001efe0 f   LIBCMT:pesect.obj
 0001:0001e030       __IsNonwritableInCurrentImage 1001f030 f   LIBCMT:pesect.obj
 0001:0001e0f0       __ValidateImageBase        1001f0f0 f   LIBCMT:pesect.obj
 0001:0001e123       __EH_prolog3_catch         1001f123 f   LIBCMT:ehprolg3.obj
 0001:0001e160       __aulldvrm                 1001f160 f   LIBCMT:ulldvrm.obj
 0001:0001e200       __allmul                   1001f200 f   LIBCMT:llmul.obj
 0001:0001e240       __alldvrm                  1001f240 f   LIBCMT:lldvrm.obj
 0001:0001e320       __allshl                   1001f320 f   LIBCMT:llshl.obj
 0001:0001e340       __aullshr                  1001f340 f   LIBCMT:ullshr.obj
 0001:0001e360       __ftol2_sse                1001f360     LIBCMT:ftol2.obj
 0001:0001e360       __ftoi2                    1001f360 f   LIBCMT:ftol2.obj
 0001:0001e360       __ftol2_sse_excpt          1001f360     LIBCMT:ftol2.obj
 0001:0001e3e0       __ftoui2                   1001f3e0 f   LIBCMT:ftol2.obj
 0001:0001e490       __ftol2                    1001f490 f   LIBCMT:ftol2.obj
 0001:0001e540       __ftoul2                   1001f540 f   LIBCMT:ftol2.obj
 0001:0001e600       _strrchr                   1001f600 f   libvcruntime:strrchr.obj
 0001:0001e740       _strchr                    1001f740 f   libvcruntime:strchr.obj
 0001:0001e7ae       ___from_strstr_to_strchr   1001f7ae     libvcruntime:strchr.obj
 0001:0001e86b       __filter_x86_sse2_floating_point_exception_default 1001f86b f   LIBCMT:x86_exception_filter.obj
 0001:0001e86b       __filter_x86_sse2_floating_point_exception 1001f86b f   LIBCMT:x86_exception_filter.obj
 0002:00000000       __imp__RegQueryValueExW@24 10020000     advapi32:ADVAPI32.dll
 0002:00000004       __imp__RegSetValueExW@24   10020004     advapi32:ADVAPI32.dll
 0002:00000008       __imp__RegQueryInfoKeyW@48 10020008     advapi32:ADVAPI32.dll
 0002:0000000c       __imp__RegOpenKeyExW@20    1002000c     advapi32:ADVAPI32.dll
 0002:00000010       __imp__RegEnumKeyExW@32    10020010     advapi32:ADVAPI32.dll
 0002:00000014       __imp__RegDeleteValueW@8   10020014     advapi32:ADVAPI32.dll
 0002:00000018       __imp__RegDeleteKeyW@8     10020018     advapi32:ADVAPI32.dll
 0002:0000001c       __imp__RegCreateKeyExW@36  1002001c     advapi32:ADVAPI32.dll
 0002:00000020       __imp__RegCloseKey@4       10020020     advapi32:ADVAPI32.dll
 0002:00000024       \177ADVAPI32_NULL_THUNK_DATA 10020024     advapi32:ADVAPI32.dll
 0002:00000028       __imp__GetObjectW@12       10020028     gdi32:GDI32.dll
 0002:0000002c       __imp__SelectObject@8      1002002c     gdi32:GDI32.dll
 0002:00000030       __imp__DeleteObject@4      10020030     gdi32:GDI32.dll
 0002:00000034       __imp__CreateCompatibleDC@4 10020034     gdi32:GDI32.dll
 0002:00000038       __imp__BitBlt@36           10020038     gdi32:GDI32.dll
 0002:0000003c       __imp__SetWindowOrgEx@16   1002003c     gdi32:GDI32.dll
 0002:00000040       __imp__SetWindowExtEx@16   10020040     gdi32:GDI32.dll
 0002:00000044       __imp__SetViewportOrgEx@16 10020044     gdi32:GDI32.dll
 0002:00000048       __imp__LPtoDP@12           10020048     gdi32:GDI32.dll
 0002:0000004c       __imp__SetMapMode@8        1002004c     gdi32:GDI32.dll
 0002:00000050       __imp__SaveDC@4            10020050     gdi32:GDI32.dll
 0002:00000054       __imp__RestoreDC@8         10020054     gdi32:GDI32.dll
 0002:00000058       __imp__GetDeviceCaps@8     10020058     gdi32:GDI32.dll
 0002:0000005c       __imp__DeleteMetaFile@4    1002005c     gdi32:GDI32.dll
 0002:00000060       __imp__DeleteDC@4          10020060     gdi32:GDI32.dll
 0002:00000064       __imp__CreateRectRgnIndirect@4 10020064     gdi32:GDI32.dll
 0002:00000068       __imp__CreateMetaFileW@4   10020068     gdi32:GDI32.dll
 0002:0000006c       __imp__CreateDCW@16        1002006c     gdi32:GDI32.dll
 0002:00000070       __imp__CloseMetaFile@4     10020070     gdi32:GDI32.dll
 0002:00000074       \177GDI32_NULL_THUNK_DATA  10020074     gdi32:GDI32.dll
 0002:00000078       __imp__CloseHandle@4       10020078     kernel32:KERNEL32.dll
 0002:0000007c       __imp__SetEvent@4          1002007c     kernel32:KERNEL32.dll
 0002:00000080       __imp__CreateMutexW@12     10020080     kernel32:KERNEL32.dll
 0002:00000084       __imp__CreateEventW@16     10020084     kernel32:KERNEL32.dll
 0002:00000088       __imp__GetCurrentProcessId@0 10020088     kernel32:KERNEL32.dll
 0002:0000008c       __imp__CreateFileW@28      1002008c     kernel32:KERNEL32.dll
 0002:00000090       __imp__GetConsoleMode@8    10020090     kernel32:KERNEL32.dll
 0002:00000094       __imp__GetConsoleOutputCP@0 10020094     kernel32:KERNEL32.dll
 0002:00000098       __imp__WriteFile@20        10020098     kernel32:KERNEL32.dll
 0002:0000009c       __imp__FlushFileBuffers@4  1002009c     kernel32:KERNEL32.dll
 0002:000000a0       __imp__SetStdHandle@8      100200a0     kernel32:KERNEL32.dll
 0002:000000a4       __imp__GetStringTypeW@16   100200a4     kernel32:KERNEL32.dll
 0002:000000a8       __imp__SetFilePointerEx@20 100200a8     kernel32:KERNEL32.dll
 0002:000000ac       __imp__FreeEnvironmentStringsW@4 100200ac     kernel32:KERNEL32.dll
 0002:000000b0       __imp__GetEnvironmentStringsW@0 100200b0     kernel32:KERNEL32.dll
 0002:000000b4       __imp__lstrcmpiW@8         100200b4     kernel32:KERNEL32.dll
 0002:000000b8       __imp__GetCommandLineA@0   100200b8     kernel32:KERNEL32.dll
 0002:000000bc       __imp__GetCPInfo@8         100200bc     kernel32:KERNEL32.dll
 0002:000000c0       __imp__GetOEMCP@0          100200c0     kernel32:KERNEL32.dll
 0002:000000c4       __imp__GetACP@0            100200c4     kernel32:KERNEL32.dll
 0002:000000c8       __imp__IsValidCodePage@4   100200c8     kernel32:KERNEL32.dll
 0002:000000cc       __imp__FindNextFileW@8     100200cc     kernel32:KERNEL32.dll
 0002:000000d0       __imp__FindFirstFileExW@24 100200d0     kernel32:KERNEL32.dll
 0002:000000d4       __imp__FindClose@4         100200d4     kernel32:KERNEL32.dll
 0002:000000d8       __imp__GetFileType@4       100200d8     kernel32:KERNEL32.dll
 0002:000000dc       __imp__GetStdHandle@4      100200dc     kernel32:KERNEL32.dll
 0002:000000e0       __imp__LCMapStringW@24     100200e0     kernel32:KERNEL32.dll
 0002:000000e4       __imp__HeapReAlloc@16      100200e4     kernel32:KERNEL32.dll
 0002:000000e8       __imp__HeapSize@12         100200e8     kernel32:KERNEL32.dll
 0002:000000ec       __imp__MulDiv@12           100200ec     kernel32:KERNEL32.dll
 0002:000000f0       __imp__GlobalLock@4        100200f0     kernel32:KERNEL32.dll
 0002:000000f4       __imp__GlobalUnlock@4      100200f4     kernel32:KERNEL32.dll
 0002:000000f8       __imp__GlobalAlloc@8       100200f8     kernel32:KERNEL32.dll
 0002:000000fc       __imp__FindResourceW@12    100200fc     kernel32:KERNEL32.dll
 0002:00000100       __imp__SizeofResource@8    10020100     kernel32:KERNEL32.dll
 0002:00000104       __imp__LoadResource@8      10020104     kernel32:KERNEL32.dll
 0002:00000108       __imp__LoadLibraryExW@12   10020108     kernel32:KERNEL32.dll
 0002:0000010c       __imp__GetProcAddress@8    1002010c     kernel32:KERNEL32.dll
 0002:00000110       __imp__GetModuleHandleW@4  10020110     kernel32:KERNEL32.dll
 0002:00000114       __imp__GetModuleFileNameW@12 10020114     kernel32:KERNEL32.dll
 0002:00000118       __imp__FreeLibrary@4       10020118     kernel32:KERNEL32.dll
 0002:0000011c       __imp__DisableThreadLibraryCalls@4 1002011c     kernel32:KERNEL32.dll
 0002:00000120       __imp__GetCurrentThreadId@0 10020120     kernel32:KERNEL32.dll
 0002:00000124       __imp__Sleep@4             10020124     kernel32:KERNEL32.dll
 0002:00000128       __imp__WaitForSingleObject@8 10020128     kernel32:KERNEL32.dll
 0002:0000012c       __imp__ReleaseMutex@4      1002012c     kernel32:KERNEL32.dll
 0002:00000130       __imp__ResetEvent@4        10020130     kernel32:KERNEL32.dll
 0002:00000134       __imp__EnterCriticalSection@4 10020134     kernel32:KERNEL32.dll
 0002:00000138       __imp__LeaveCriticalSection@4 10020138     kernel32:KERNEL32.dll
 0002:0000013c       __imp__SetLastError@4      1002013c     kernel32:KERNEL32.dll
 0002:00000140       __imp__EncodePointer@4     10020140     kernel32:KERNEL32.dll
 0002:00000144       __imp__DeleteCriticalSection@4 10020144     kernel32:KERNEL32.dll
 0002:00000148       __imp__InitializeCriticalSectionEx@12 10020148     kernel32:KERNEL32.dll
 0002:0000014c       __imp__GetLastError@0      1002014c     kernel32:KERNEL32.dll
 0002:00000150       __imp__RaiseException@16   10020150     kernel32:KERNEL32.dll
 0002:00000154       __imp__DecodePointer@4     10020154     kernel32:KERNEL32.dll
 0002:00000158       __imp__WideCharToMultiByte@32 10020158     kernel32:KERNEL32.dll
 0002:0000015c       __imp__GetCommandLineW@0   1002015c     kernel32:KERNEL32.dll
 0002:00000160       __imp__MultiByteToWideChar@24 10020160     kernel32:KERNEL32.dll
 0002:00000164       __imp__WriteConsoleW@20    10020164     kernel32:KERNEL32.dll
 0002:00000168       __imp__GetModuleHandleExW@12 10020168     kernel32:KERNEL32.dll
 0002:0000016c       __imp__ExitProcess@4       1002016c     kernel32:KERNEL32.dll
 0002:00000170       __imp__VirtualQuery@12     10020170     kernel32:KERNEL32.dll
 0002:00000174       __imp__VirtualProtect@16   10020174     kernel32:KERNEL32.dll
 0002:00000178       __imp__GetSystemInfo@4     10020178     kernel32:KERNEL32.dll
 0002:0000017c       __imp__TlsFree@4           1002017c     kernel32:KERNEL32.dll
 0002:00000180       __imp__TlsSetValue@8       10020180     kernel32:KERNEL32.dll
 0002:00000184       __imp__TlsGetValue@4       10020184     kernel32:KERNEL32.dll
 0002:00000188       __imp__TlsAlloc@0          10020188     kernel32:KERNEL32.dll
 0002:0000018c       __imp__InterlockedFlushSList@4 1002018c     kernel32:KERNEL32.dll
 0002:00000190       __imp__RtlUnwind@16        10020190     kernel32:KERNEL32.dll
 0002:00000194       __imp__LoadLibraryExA@12   10020194     kernel32:KERNEL32.dll
 0002:00000198       __imp__VirtualFree@12      10020198     kernel32:KERNEL32.dll
 0002:0000019c       __imp__VirtualAlloc@16     1002019c     kernel32:KERNEL32.dll
 0002:000001a0       __imp__FlushInstructionCache@12 100201a0     kernel32:KERNEL32.dll
 0002:000001a4       __imp__InterlockedPushEntrySList@8 100201a4     kernel32:KERNEL32.dll
 0002:000001a8       __imp__InterlockedPopEntrySList@4 100201a8     kernel32:KERNEL32.dll
 0002:000001ac       __imp__GetProcessHeap@0    100201ac     kernel32:KERNEL32.dll
 0002:000001b0       __imp__HeapFree@12         100201b0     kernel32:KERNEL32.dll
 0002:000001b4       __imp__HeapAlloc@12        100201b4     kernel32:KERNEL32.dll
 0002:000001b8       __imp__OutputDebugStringW@4 100201b8     kernel32:KERNEL32.dll
 0002:000001bc       __imp__InitializeSListHead@4 100201bc     kernel32:KERNEL32.dll
 0002:000001c0       __imp__GetSystemTimeAsFileTime@4 100201c0     kernel32:KERNEL32.dll
 0002:000001c4       __imp__QueryPerformanceCounter@4 100201c4     kernel32:KERNEL32.dll
 0002:000001c8       __imp__GetStartupInfoW@4   100201c8     kernel32:KERNEL32.dll
 0002:000001cc       __imp__IsDebuggerPresent@0 100201cc     kernel32:KERNEL32.dll
 0002:000001d0       __imp__IsProcessorFeaturePresent@4 100201d0     kernel32:KERNEL32.dll
 0002:000001d4       __imp__TerminateProcess@8  100201d4     kernel32:KERNEL32.dll
 0002:000001d8       __imp__GetCurrentProcess@0 100201d8     kernel32:KERNEL32.dll
 0002:000001dc       __imp__SetUnhandledExceptionFilter@4 100201dc     kernel32:KERNEL32.dll
 0002:000001e0       __imp__UnhandledExceptionFilter@4 100201e0     kernel32:KERNEL32.dll
 0002:000001e4       __imp__InitializeCriticalSectionAndSpinCount@8 100201e4     kernel32:KERNEL32.dll
 0002:000001e8       __imp__WaitForSingleObjectEx@12 100201e8     kernel32:KERNEL32.dll
 0002:000001ec       \177KERNEL32_NULL_THUNK_DATA 100201ec     kernel32:KERNEL32.dll
 0002:000001f0       __imp__OleCreatePropertyFrame@44 100201f0     oleaut32:OLEAUT32.dll
 0002:000001f4       __imp__UnRegisterTypeLib@20 100201f4     oleaut32:OLEAUT32.dll
 0002:000001f8       __imp__RegisterTypeLib@12  100201f8     oleaut32:OLEAUT32.dll
 0002:000001fc       __imp__LoadRegTypeLib@20   100201fc     oleaut32:OLEAUT32.dll
 0002:00000200       __imp__LoadTypeLib@8       10020200     oleaut32:OLEAUT32.dll
 0002:00000204       __imp__VarUI4FromStr@16    10020204     oleaut32:OLEAUT32.dll
 0002:00000208       __imp__VariantInit@4       10020208     oleaut32:OLEAUT32.dll
 0002:0000020c       __imp__SysAllocStringByteLen@8 1002020c     oleaut32:OLEAUT32.dll
 0002:00000210       __imp__SysStringByteLen@4  10020210     oleaut32:OLEAUT32.dll
 0002:00000214       __imp__VariantChangeType@16 10020214     oleaut32:OLEAUT32.dll
 0002:00000218       __imp__VariantClear@4      10020218     oleaut32:OLEAUT32.dll
 0002:0000021c       __imp__SysStringLen@4      1002021c     oleaut32:OLEAUT32.dll
 0002:00000220       __imp__SysFreeString@4     10020220     oleaut32:OLEAUT32.dll
 0002:00000224       __imp__SysAllocStringLen@8 10020224     oleaut32:OLEAUT32.dll
 0002:00000228       __imp__SysAllocString@4    10020228     oleaut32:OLEAUT32.dll
 0002:0000022c       \177OLEAUT32_NULL_THUNK_DATA 1002022c     oleaut32:OLEAUT32.dll
 0002:00000230       __imp__UnregisterClassW@8  10020230     user32:USER32.dll
 0002:00000234       __imp__PostMessageW@16     10020234     user32:USER32.dll
 0002:00000238       __imp__DefWindowProcW@16   10020238     user32:USER32.dll
 0002:0000023c       __imp__CallWindowProcW@20  1002023c     user32:USER32.dll
 0002:00000240       __imp__RegisterClassExW@4  10020240     user32:USER32.dll
 0002:00000244       __imp__GetClassInfoExW@12  10020244     user32:USER32.dll
 0002:00000248       __imp__CreateWindowExW@48  10020248     user32:USER32.dll
 0002:0000024c       __imp__IsWindow@4          1002024c     user32:USER32.dll
 0002:00000250       __imp__IsChild@8           10020250     user32:USER32.dll
 0002:00000254       __imp__DestroyWindow@4     10020254     user32:USER32.dll
 0002:00000258       __imp__ShowWindow@8        10020258     user32:USER32.dll
 0002:0000025c       __imp__SetWindowPos@28     1002025c     user32:USER32.dll
 0002:00000260       __imp__CharNextW@4         10020260     user32:USER32.dll
 0002:00000264       __imp__SetFocus@4          10020264     user32:USER32.dll
 0002:00000268       __imp__LoadBitmapW@8       10020268     user32:USER32.dll
 0002:0000026c       __imp__RegisterClassW@4    1002026c     user32:USER32.dll
 0002:00000270       __imp__PeekMessageW@20     10020270     user32:USER32.dll
 0002:00000274       __imp__LoadCursorW@8       10020274     user32:USER32.dll
 0002:00000278       __imp__GetParent@4         10020278     user32:USER32.dll
 0002:0000027c       __imp__SetWindowLongW@12   1002027c     user32:USER32.dll
 0002:00000280       __imp__GetWindowLongW@8    10020280     user32:USER32.dll
 0002:00000284       __imp__PtInRect@12         10020284     user32:USER32.dll
 0002:00000288       __imp__EqualRect@8         10020288     user32:USER32.dll
 0002:0000028c       __imp__OffsetRect@12       1002028c     user32:USER32.dll
 0002:00000290       __imp__UnionRect@12        10020290     user32:USER32.dll
 0002:00000294       __imp__IntersectRect@12    10020294     user32:USER32.dll
 0002:00000298       __imp__GetClientRect@8     10020298     user32:USER32.dll
 0002:0000029c       __imp__InvalidateRect@12   1002029c     user32:USER32.dll
 0002:000002a0       __imp__SetWindowRgn@12     100202a0     user32:USER32.dll
 0002:000002a4       __imp__EndPaint@8          100202a4     user32:USER32.dll
 0002:000002a8       __imp__BeginPaint@8        100202a8     user32:USER32.dll
 0002:000002ac       __imp__ReleaseDC@8         100202ac     user32:USER32.dll
 0002:000002b0       __imp__GetDC@4             100202b0     user32:USER32.dll
 0002:000002b4       __imp__GetKeyState@4       100202b4     user32:USER32.dll
 0002:000002b8       __imp__GetFocus@0          100202b8     user32:USER32.dll
 0002:000002bc       \177USER32_NULL_THUNK_DATA 100202bc     user32:USER32.dll
 0002:000002c0       __imp__StringFromGUID2@12  100202c0     ole32:ole32.dll
 0002:000002c4       __imp__CoTaskMemAlloc@4    100202c4     ole32:ole32.dll
 0002:000002c8       __imp__CoTaskMemRealloc@8  100202c8     ole32:ole32.dll
 0002:000002cc       __imp__CoTaskMemFree@4     100202cc     ole32:ole32.dll
 0002:000002d0       __imp__ReadClassStm@8      100202d0     ole32:ole32.dll
 0002:000002d4       __imp__WriteClassStm@8     100202d4     ole32:ole32.dll
 0002:000002d8       __imp__CreateDataAdviseHolder@4 100202d8     ole32:ole32.dll
 0002:000002dc       __imp__OleSaveToStream@8   100202dc     ole32:ole32.dll
 0002:000002e0       __imp__CreateOleAdviseHolder@4 100202e0     ole32:ole32.dll
 0002:000002e4       __imp__OleRegGetUserType@12 100202e4     ole32:ole32.dll
 0002:000002e8       __imp__OleRegGetMiscStatus@12 100202e8     ole32:ole32.dll
 0002:000002ec       __imp__OleRegEnumVerbs@8   100202ec     ole32:ole32.dll
 0002:000002f0       __imp__CLSIDFromProgID@8   100202f0     ole32:ole32.dll
 0002:000002f4       __imp__CoCreateInstance@20 100202f4     ole32:ole32.dll
 0002:000002f8       \177ole32_NULL_THUNK_DATA  100202f8     ole32:ole32.dll
 0002:000002fc       ___guard_check_icall_fptr  100202fc     LIBCMT:guard_support.obj
 0002:00000300       ___xc_a                    10020300     LIBCMT:initializers.obj
 0002:00000318       ___xc_z                    10020318     LIBCMT:initializers.obj
 0002:0000031c       ___xi_a                    1002031c     LIBCMT:initializers.obj
 0002:00000324       ___acrt_stdio_initializer  10020324     libucrt:stdio_initializer.obj
 0002:00000328       ___acrt_multibyte_initializer 10020328     libucrt:multibyte_initializer.obj
 0002:0000032c       ___acrt_tran_sse2_initializer 1002032c     libucrt:sse2_initializer.obj
 0002:00000330       ___xi_z                    10020330     LIBCMT:initializers.obj
 0002:00000334       ___xl_a                    10020334     LIBCMT:tlssup.obj
 0002:00000338       ___xl_z                    10020338     LIBCMT:tlssup.obj
 0002:0000033c       ___xp_a                    1002033c     LIBCMT:initializers.obj
 0002:00000340       ___acrt_locale_terminator  10020340     libucrt:locale_initializer.obj
 0002:00000344       ___dcrt_console_output_terminator 10020344     libucrt:console_output_initializer.obj
 0002:00000348       ___acrt_stdio_terminator   10020348     libucrt:stdio_initializer.obj
 0002:0000034c       ___xp_z                    1002034c     LIBCMT:initializers.obj
 0002:00000350       ___xt_a                    10020350     LIBCMT:initializers.obj
 0002:00000354       ___xt_z                    10020354     LIBCMT:initializers.obj
 0002:00000360       ??_C@_13HADIAKP@?$AAS@     10020360     OposVariant.obj
 0002:00000364       ??_C@_13LHMFKAAD@?$AAM@    10020364     OposVariant.obj
 0002:00000368       ??_C@_13MKMNOPIJ@?$AAD@    10020368     OposVariant.obj
 0002:0000036c       ??_C@_13OPKGLAFF@?$AAB@    1002036c     OposVariant.obj
 0002:00000370       ??_C@_17LLMMEOJD@?$AAV?$AAa?$AAl@ 10020370     OposVariant.obj
 0002:00000378       ??_C@_1BI@JFAIJMHL@?$AAF?$AAo?$AAr?$AAc?$AAe?$AAR?$AAe?$AAm?$AAo?$AAv?$AAe@ 10020378     OposVariant.obj
 0002:00000390       ??_C@_1BC@GCKHIPE@?$AAN?$AAo?$AAR?$AAe?$AAm?$AAo?$AAv?$AAe@ 10020390     OposVariant.obj
 0002:000003a4       ??_C@_1O@JDLOHAN@?$AAD?$AAe?$AAl?$AAe?$AAt?$AAe@ 100203a4     OposVariant.obj
 0002:000003b4       ??_C@_11LOCGONAA@@         100203b4     OposVariant.obj
 0002:000003b8       ??_7CComClassFactory@ATL@@6B@ 100203b8     RFIDScanner.obj
 0002:000003d0       ?_entries@?1??_GetEntries@CComClassFactory@ATL@@SGPBU_ATL_INTMAP_ENTRY@3@XZ@4QBU43@B 100203d0     RFIDScanner.obj
 0002:000003e8       __GUID_00000001_0000_0000_c000_000000000046 100203e8     RFIDScanner.obj
 0002:000003f8       _IID_IOPOSRFIDScanner_1_12 100203f8     RFIDScanner.obj
 0002:00000408       _IID_IOPOSRFIDScanner      10020408     RFIDScanner.obj
 0002:00000418       _LIBID_OposRFIDScanner_CCO 10020418     RFIDScanner.obj
 0002:00000428       _DIID__IOPOSRFIDScannerEvents 10020428     RFIDScanner.obj
 0002:00000438       _CLSID_OPOSRFIDScanner     10020438     RFIDScanner.obj
 0002:00000448       __GUID_00000114_0000_0000_c000_000000000046 10020448     RFIDScanner.obj
 0002:00000458       ??_C@_1BK@BIGILECK@?$AAA?$AAd?$AAv?$AAa?$AAp?$AAi?$AA3?$AA2?$AA?4?$AAd?$AAl?$AAl@ 10020458     RFIDScanner.obj
 0002:00000474       ??_C@_0BI@MNCFCPFK@RegCreateKeyTransactedW@ 10020474     RFIDScanner.obj
 0002:0000048c       __GUID_b196b287_bab4_101a_b69c_00aa00341d07 1002048c     RFIDScanner.obj
 0002:0000049c       __GUID_b196b285_bab4_101a_b69c_00aa00341d07 1002049c     RFIDScanner.obj
 0002:000004ac       __GUID_a6bc3ac0_dbaa_11ce_9de3_00aa004bb851 100204ac     RFIDScanner.obj
 0002:000004bc       __GUID_0000010c_0000_0000_c000_000000000046 100204bc     RFIDScanner.obj
 0002:000004cc       __GUID_00000146_0000_0000_c000_000000000046 100204cc     RFIDScanner.obj
 0002:000004e0       ?_entries@?1??_GetEntries@COPOSRFIDScanner@@SGPBU_ATL_INTMAP_ENTRY@ATL@@XZ@4QBU34@B 100204e0     RFIDScanner.obj
 0002:00000600       __GUID_cf51ed10_62fe_11cf_bf86_00a0c9034836 10020600     RFIDScanner.obj
 0002:00000610       __GUID_0000010a_0000_0000_c000_000000000046 10020610     RFIDScanner.obj
 0002:00000620       __GUID_b196b283_bab4_101a_b69c_00aa00341d07 10020620     RFIDScanner.obj
 0002:00000630       __GUID_cb5bdc81_93c1_11cf_8f20_00805f2cd064 10020630     RFIDScanner.obj
 0002:00000640       ?pPropMap@?1??GetPropertyMap@COPOSRFIDScanner@@SAPBUATL_PROPMAP_ENTRY@ATL@@XZ@4QBU34@B 10020640     RFIDScanner.obj
 0002:000006ac       ??_C@_17DGDADEHL@?$AA_?$AAc?$AAx@ 100206ac     RFIDScanner.obj
 0002:000006b4       ??_C@_17IOIMFDBO@?$AA_?$AAc?$AAy@ 100206b4     RFIDScanner.obj
 0002:000006bc       ??_7CComModule@ATL@@6B@    100206bc     RFIDScanner.obj
 0002:000006e4       __GUID_922eada0_3424_11cf_b670_00aa004cd6d8 100206e4     RFIDScanner.obj
 0002:000006f4       __GUID_9c2cad80_3424_11cf_b670_00aa004cd6d8 100206f4     RFIDScanner.obj
 0002:00000704       __GUID_00000119_0000_0000_c000_000000000046 10020704     RFIDScanner.obj
 0002:00000714       __GUID_b196b289_bab4_101a_b69c_00aa00341d07 10020714     RFIDScanner.obj
 0002:00000724       __GUID_00000000_0000_0000_c000_000000000046 10020724     RFIDScanner.obj
 0002:00000734       __GUID_00020400_0000_0000_c000_000000000046 10020734     RFIDScanner.obj
 0002:00000744       ??_7?$CComObjectCached@VCComClassFactory@ATL@@@ATL@@6B@ 10020744     RFIDScanner.obj
 0002:0000075c       __GUID_00000117_0000_0000_c000_000000000046 1002075c     RFIDScanner.obj
 0002:0000076c       ??_C@_1CE@PGFMOFKI@?$AAS?$AAt?$AAa?$AAt?$AAu?$AAs?$AAU?$AAp?$AAd?$AAa?$AAt?$AAe?$AAE?$AAv?$AAe@ 1002076c     RFIDScanner.obj
 0002:00000790       ??_C@_1CI@HLBJDONE@?$AAO?$AAu?$AAt?$AAp?$AAu?$AAt?$AAC?$AAo?$AAm?$AAp?$AAl?$AAe?$AAt?$AAe?$AAE@ 10020790     RFIDScanner.obj
 0002:000007b8       ??_C@_1BG@LODEBHDD@?$AAE?$AAr?$AAr?$AAo?$AAr?$AAE?$AAv?$AAe?$AAn?$AAt@ 100207b8     RFIDScanner.obj
 0002:000007d0       ??_C@_1BM@CBGEBBBJ@?$AAD?$AAi?$AAr?$AAe?$AAc?$AAt?$AAI?$AAO?$AAE?$AAv?$AAe?$AAn?$AAt@ 100207d0     RFIDScanner.obj
 0002:000007ec       ??_C@_1BE@IEBMACEM@?$AAD?$AAa?$AAt?$AAa?$AAE?$AAv?$AAe?$AAn?$AAt@ 100207ec     RFIDScanner.obj
 0002:00000800       __GUID_b196b286_bab4_101a_b69c_00aa00341d07 10020800     RFIDScanner.obj
 0002:00000810       ??_C@_1BC@ENICKDH@?$AAC?$AAo?$AAn?$AAt?$AAe?$AAn?$AAt?$AAs@ 10020810     RFIDScanner.obj
 0002:00000824       ??_7?$CComObject@V?$CComEnum@UIEnumConnectionPoints@@$1?_GUID_b196b285_bab4_101a_b69c_00aa00341d07@@3U__s_GUID@@BPAUIConnectionPoint@@V?$_CopyInterface@UIConnectionPoint@@@ATL@@VCComSingleThreadModel@6@@ATL@@@ATL@@6B@ 10020824     RFIDScanner.obj
 0002:00000844       ??_C@_1M@KANJNLFF@?$AAC?$AAL?$AAS?$AAI?$AAD@ 10020844     RFIDScanner.obj
 0002:00000850       ??_C@_1M@EJNEECMJ@?$AAA?$AAp?$AAp?$AAI?$AAD@ 10020850     RFIDScanner.obj
 0002:0000085c       __GUID_0000010e_0000_0000_c000_000000000046 1002085c     RFIDScanner.obj
 0002:0000086c       __GUID_b196b288_bab4_101a_b69c_00aa00341d07 1002086c     RFIDScanner.obj
 0002:0000087c       ?rgszNeverDelete@CRegParser@ATL@@1QBQB_WB 1002087c     RFIDScanner.obj
 0002:000008ac       ??_7CRegObject@ATL@@6B@    100208ac     RFIDScanner.obj
 0002:000008c4       __GUID_00000113_0000_0000_c000_000000000046 100208c4     RFIDScanner.obj
 0002:000008d4       __GUID_1c2056cc_5ef4_101b_8bc8_00aa003e3b29 100208d4     RFIDScanner.obj
 0002:000008e4       ??_C@_1CK@OEKPKBNA@?$AAC?$AAo?$AAm?$AAp?$AAo?$AAn?$AAe?$AAn?$AAt?$AA?5?$AAC?$AAa?$AAt?$AAe?$AAg@ 100208e4     RFIDScanner.obj
 0002:00000910       ??_C@_1BC@NKMMNMGL@?$AAF?$AAi?$AAl?$AAe?$AAT?$AAy?$AAp?$AAe@ 10020910     RFIDScanner.obj
 0002:00000924       ??_C@_1BE@EKPAFMCP@?$AAI?$AAn?$AAt?$AAe?$AAr?$AAf?$AAa?$AAc?$AAe@ 10020924     RFIDScanner.obj
 0002:00000938       ??_C@_1BC@MAICEHGI@?$AAH?$AAa?$AAr?$AAd?$AAw?$AAa?$AAr?$AAe@ 10020938     RFIDScanner.obj
 0002:0000094c       ??_C@_19HLLLM@?$AAM?$AAi?$AAm?$AAe@ 1002094c     RFIDScanner.obj
 0002:00000958       ??_C@_17OMAOINJK@?$AAS?$AAA?$AAM@ 10020958     RFIDScanner.obj
 0002:00000960       ??_C@_1BC@IBECJAAI@?$AAS?$AAE?$AAC?$AAU?$AAR?$AAI?$AAT?$AAY@ 10020960     RFIDScanner.obj
 0002:00000974       ??_C@_1O@GBFINDKL@?$AAS?$AAY?$AAS?$AAT?$AAE?$AAM@ 10020974     RFIDScanner.obj
 0002:00000984       ??_C@_1BC@EAHCMADO@?$AAS?$AAo?$AAf?$AAt?$AAw?$AAa?$AAr?$AAe@ 10020984     RFIDScanner.obj
 0002:00000998       ??_C@_1BA@JIHHIEDE@?$AAT?$AAy?$AAp?$AAe?$AAL?$AAi?$AAb@ 10020998     RFIDScanner.obj
 0002:000009a8       ?map@?1??HKeyFromString@CRegParser@ATL@@KAPAUHKEY__@@PA_W@Z@4QBUkeymap@?1??123@KAPAU4@0@Z@B 100209a8     RFIDScanner.obj
 0002:00000a18       ??_C@_19NCHLBIN@?$AAH?$AAK?$AAC?$AAR@ 10020a18     RFIDScanner.obj
 0002:00000a24       ??_C@_19JAPAIJDE@?$AAH?$AAK?$AAC?$AAU@ 10020a24     RFIDScanner.obj
 0002:00000a30       ??_C@_19PEALEEJB@?$AAH?$AAK?$AAL?$AAM@ 10020a30     RFIDScanner.obj
 0002:00000a3c       ??_C@_17PJOJPMPB@?$AAH?$AAK?$AAU@ 10020a3c     RFIDScanner.obj
 0002:00000a44       ??_C@_19PNBHMJPL@?$AAH?$AAK?$AAP?$AAD@ 10020a44     RFIDScanner.obj
 0002:00000a50       ??_C@_19GFFAIJHG@?$AAH?$AAK?$AAD?$AAD@ 10020a50     RFIDScanner.obj
 0002:00000a5c       ??_C@_19OFICIBHH@?$AAH?$AAK?$AAC?$AAC@ 10020a5c     RFIDScanner.obj
 0002:00000a68       ??_C@_1CE@PACHPJFI@?$AAH?$AAK?$AAE?$AAY?$AA_?$AAC?$AAL?$AAA?$AAS?$AAS?$AAE?$AAS?$AA_?$AAR?$AAO@ 10020a68     RFIDScanner.obj
 0002:00000a8c       ??_C@_1CE@HLHNCBPM@?$AAH?$AAK?$AAE?$AAY?$AA_?$AAC?$AAU?$AAR?$AAR?$AAE?$AAN?$AAT?$AA_?$AAU?$AAS@ 10020a8c     RFIDScanner.obj
 0002:00000ab0       ??_C@_1CG@GFBEANJL@?$AAH?$AAK?$AAE?$AAY?$AA_?$AAL?$AAO?$AAC?$AAA?$AAL?$AA_?$AAM?$AAA?$AAC?$AAH@ 10020ab0     RFIDScanner.obj
 0002:00000ad8       ??_C@_1BG@BGODANIO@?$AAH?$AAK?$AAE?$AAY?$AA_?$AAU?$AAS?$AAE?$AAR?$AAS@ 10020ad8     RFIDScanner.obj
 0002:00000af0       ??_C@_1CM@KHNNAOIC@?$AAH?$AAK?$AAE?$AAY?$AA_?$AAP?$AAE?$AAR?$AAF?$AAO?$AAR?$AAM?$AAA?$AAN?$AAC@ 10020af0     RFIDScanner.obj
 0002:00000b1c       ??_C@_1BM@HAGMMHIA@?$AAH?$AAK?$AAE?$AAY?$AA_?$AAD?$AAY?$AAN?$AA_?$AAD?$AAA?$AAT?$AAA@ 10020b1c     RFIDScanner.obj
 0002:00000b38       ??_C@_1CI@BBJOACGG@?$AAH?$AAK?$AAE?$AAY?$AA_?$AAC?$AAU?$AAR?$AAR?$AAE?$AAN?$AAT?$AA_?$AAC?$AAO@ 10020b38     RFIDScanner.obj
 0002:00000b60       __GUID_00000112_0000_0000_c000_000000000046 10020b60     RFIDScanner.obj
 0002:00000b70       __GUID_00000109_0000_0000_c000_000000000046 10020b70     RFIDScanner.obj
 0002:00000b80       __GUID_7fd52380_4e07_101b_ae2d_08002b2ec713 10020b80     RFIDScanner.obj
 0002:00000b90       __GUID_3af24292_0c96_11ce_a0cf_00aa00600ab8 10020b90     RFIDScanner.obj
 0002:00000ba0       __GUID_00000127_0000_0000_c000_000000000046 10020ba0     RFIDScanner.obj
 0002:00000bb0       __GUID_0000010d_0000_0000_c000_000000000046 10020bb0     RFIDScanner.obj
 0002:00000bc0       ??_C@_1EA@NHKLICFA@?$AAH?$AAK?$AAC?$AAU?$AA?$AN?$AA?6?$AA?$HL?$AA?7?$AAS?$AAo?$AAf?$AAt?$AAw?$AAa?$AAr@ 10020bc0     RFIDScanner.obj
 0002:00000c00       ??_C@_1BE@LJOLIMEM@?$AA?$AN?$AA?6?$AA?7?$AA?$HN?$AA?$AN?$AA?6?$AA?$HN?$AA?$AN?$AA?6@ 10020c00     RFIDScanner.obj
 0002:00000c14       ??_C@_1M@PPPPCDEP@?$AAA?$AAP?$AAP?$AAI?$AAD@ 10020c14     RFIDScanner.obj
 0002:00000c20       ??_C@_1O@MNLDABAF@?$AAM?$AAo?$AAd?$AAu?$AAl?$AAe@ 10020c20     RFIDScanner.obj
 0002:00000c30       ??_C@_1BG@JBACFMF@?$AAM?$AAo?$AAd?$AAu?$AAl?$AAe?$AA_?$AAR?$AAa?$AAw@ 10020c30     RFIDScanner.obj
 0002:00000c48       ??_C@_1BC@KAILKFFG@?$AAR?$AAE?$AAG?$AAI?$AAS?$AAT?$AAR?$AAY@ 10020c48     RFIDScanner.obj
 0002:00000c5c       ??_7?$CComContainedObject@VCOPOSRFIDScanner@@@ATL@@6B?$IDispatchImpl@UIOPOSRFIDScanner@@$1?IID_IOPOSRFIDScanner@@3U_GUID@@B$1?LIBID_OposRFIDScanner_CCO@@3U3@B$00$0A@VCComTypeInfoHolder@ATL@@@1@@ 10020c5c     RFIDScanner.obj
 0002:00000dac       ??_7?$CComContainedObject@VCOPOSRFIDScanner@@@ATL@@6BCComControlBase@1@@ 10020dac     RFIDScanner.obj
 0002:00000dc0       ??_7?$CComContainedObject@VCOPOSRFIDScanner@@@ATL@@6B?$CWindowImpl@VCOPOSRFIDScanner@@VCWindow@ATL@@V?$CWinTraits@$0FGAAAAAA@$0A@@3@@1@@ 10020dc0     RFIDScanner.obj
 0002:00000dd0       ??_7?$CComContainedObject@VCOPOSRFIDScanner@@@ATL@@6B?$IPersistStreamInitImpl@VCOPOSRFIDScanner@@@1@@ 10020dd0     RFIDScanner.obj
 0002:00000df4       ??_7?$CComContainedObject@VCOPOSRFIDScanner@@@ATL@@6B?$IOleControlImpl@VCOPOSRFIDScanner@@@1@@ 10020df4     RFIDScanner.obj
 0002:00000e10       ??_7?$CComContainedObject@VCOPOSRFIDScanner@@@ATL@@6B?$IOleObjectImpl@VCOPOSRFIDScanner@@@1@@ 10020e10     RFIDScanner.obj
 0002:00000e70       ??_7?$CComContainedObject@VCOPOSRFIDScanner@@@ATL@@6B?$IOleInPlaceActiveObjectImpl@VCOPOSRFIDScanner@@@1@@ 10020e70     RFIDScanner.obj
 0002:00000e98       ??_7?$CComContainedObject@VCOPOSRFIDScanner@@@ATL@@6B?$IViewObjectExImpl@VCOPOSRFIDScanner@@@1@@ 10020e98     RFIDScanner.obj
 0002:00000ed4       ??_7?$CComContainedObject@VCOPOSRFIDScanner@@@ATL@@6B?$IOleInPlaceObjectWindowlessImpl@VCOPOSRFIDScanner@@@1@@ 10020ed4     RFIDScanner.obj
 0002:00000f00       ??_7?$CComContainedObject@VCOPOSRFIDScanner@@@ATL@@6B?$IConnectionPointContainerImpl@VCOPOSRFIDScanner@@@1@@ 10020f00     RFIDScanner.obj
 0002:00000f14       ??_7?$CComContainedObject@VCOPOSRFIDScanner@@@ATL@@6B?$IPersistStorageImpl@VCOPOSRFIDScanner@@@1@@ 10020f14     RFIDScanner.obj
 0002:00000f3c       ??_7?$CComContainedObject@VCOPOSRFIDScanner@@@ATL@@6B?$ISpecifyPropertyPagesImpl@VCOPOSRFIDScanner@@@1@@ 10020f3c     RFIDScanner.obj
 0002:00000f4c       ??_7?$CComContainedObject@VCOPOSRFIDScanner@@@ATL@@6B?$IQuickActivateImpl@VCOPOSRFIDScanner@@@1@@ 10020f4c     RFIDScanner.obj
 0002:00000f64       ??_7?$CComContainedObject@VCOPOSRFIDScanner@@@ATL@@6B?$IDataObjectImpl@VCOPOSRFIDScanner@@@1@@ 10020f64     RFIDScanner.obj
 0002:00000f94       ??_7?$CComContainedObject@VCOPOSRFIDScanner@@@ATL@@6B?$IProvideClassInfo2Impl@$1?CLSID_OPOSRFIDScanner@@3U_GUID@@B$1?DIID__IOPOSRFIDScannerEvents@@3U2@B$1?LIBID_OposRFIDScanner_CCO@@3U2@B$00$0A@VCComTypeInfoHolder@ATL@@@1@@ 10020f94     RFIDScanner.obj
 0002:00000fa8       ??_7?$CComContainedObject@VCOPOSRFIDScanner@@@ATL@@6B?$IObjectSafetyImpl@VCOPOSRFIDScanner@@$02@1@@ 10020fa8     RFIDScanner.obj
 0002:00000fc0       ??_7?$CComContainedObject@VCOPOSRFIDScanner@@@ATL@@6B?$IPropertyNotifySinkCP@VCOPOSRFIDScanner@@VCComDynamicUnkArray@ATL@@@1@@ 10020fc0     RFIDScanner.obj
 0002:00000fe0       ??_7?$CComContainedObject@VCOPOSRFIDScanner@@@ATL@@6B?$CProxy_IOPOSEvents@VCOPOSRFIDScanner@@@@@ 10020fe0     RFIDScanner.obj
 0002:00001000       ??_7?$CComAggObject@VCOPOSRFIDScanner@@@ATL@@6B@ 10021000     RFIDScanner.obj
 0002:00001010       ??_7?$CComObject@VCOPOSRFIDScanner@@@ATL@@6B?$IDispatchImpl@UIOPOSRFIDScanner@@$1?IID_IOPOSRFIDScanner@@3U_GUID@@B$1?LIBID_OposRFIDScanner_CCO@@3U3@B$00$0A@VCComTypeInfoHolder@ATL@@@1@@ 10021010     RFIDScanner.obj
 0002:00001160       ??_7?$CComObject@VCOPOSRFIDScanner@@@ATL@@6BCComControlBase@1@@ 10021160     RFIDScanner.obj
 0002:00001174       ??_7?$CComObject@VCOPOSRFIDScanner@@@ATL@@6B?$CWindowImpl@VCOPOSRFIDScanner@@VCWindow@ATL@@V?$CWinTraits@$0FGAAAAAA@$0A@@3@@1@@ 10021174     RFIDScanner.obj
 0002:00001184       ??_7?$CComObject@VCOPOSRFIDScanner@@@ATL@@6B?$IPersistStreamInitImpl@VCOPOSRFIDScanner@@@1@@ 10021184     RFIDScanner.obj
 0002:000011a8       ??_7?$CComObject@VCOPOSRFIDScanner@@@ATL@@6B?$IOleControlImpl@VCOPOSRFIDScanner@@@1@@ 100211a8     RFIDScanner.obj
 0002:000011c4       ??_7?$CComObject@VCOPOSRFIDScanner@@@ATL@@6B?$IOleObjectImpl@VCOPOSRFIDScanner@@@1@@ 100211c4     RFIDScanner.obj
 0002:00001224       ??_7?$CComObject@VCOPOSRFIDScanner@@@ATL@@6B?$IOleInPlaceActiveObjectImpl@VCOPOSRFIDScanner@@@1@@ 10021224     RFIDScanner.obj
 0002:0000124c       ??_7?$CComObject@VCOPOSRFIDScanner@@@ATL@@6B?$IViewObjectExImpl@VCOPOSRFIDScanner@@@1@@ 1002124c     RFIDScanner.obj
 0002:00001288       ??_7?$CComObject@VCOPOSRFIDScanner@@@ATL@@6B?$IOleInPlaceObjectWindowlessImpl@VCOPOSRFIDScanner@@@1@@ 10021288     RFIDScanner.obj
 0002:000012b4       ??_7?$CComObject@VCOPOSRFIDScanner@@@ATL@@6B?$IConnectionPointContainerImpl@VCOPOSRFIDScanner@@@1@@ 100212b4     RFIDScanner.obj
 0002:000012c8       ??_7?$CComObject@VCOPOSRFIDScanner@@@ATL@@6B?$IPersistStorageImpl@VCOPOSRFIDScanner@@@1@@ 100212c8     RFIDScanner.obj
 0002:000012f0       ??_7?$CComObject@VCOPOSRFIDScanner@@@ATL@@6B?$ISpecifyPropertyPagesImpl@VCOPOSRFIDScanner@@@1@@ 100212f0     RFIDScanner.obj
 0002:00001300       ??_7?$CComObject@VCOPOSRFIDScanner@@@ATL@@6B?$IQuickActivateImpl@VCOPOSRFIDScanner@@@1@@ 10021300     RFIDScanner.obj
 0002:00001318       ??_7?$CComObject@VCOPOSRFIDScanner@@@ATL@@6B?$IDataObjectImpl@VCOPOSRFIDScanner@@@1@@ 10021318     RFIDScanner.obj
 0002:00001348       ??_7?$CComObject@VCOPOSRFIDScanner@@@ATL@@6B?$IProvideClassInfo2Impl@$1?CLSID_OPOSRFIDScanner@@3U_GUID@@B$1?DIID__IOPOSRFIDScannerEvents@@3U2@B$1?LIBID_OposRFIDScanner_CCO@@3U2@B$00$0A@VCComTypeInfoHolder@ATL@@@1@@ 10021348     RFIDScanner.obj
 0002:0000135c       ??_7?$CComObject@VCOPOSRFIDScanner@@@ATL@@6B?$IObjectSafetyImpl@VCOPOSRFIDScanner@@$02@1@@ 1002135c     RFIDScanner.obj
 0002:00001374       ??_7?$CComObject@VCOPOSRFIDScanner@@@ATL@@6B?$IPropertyNotifySinkCP@VCOPOSRFIDScanner@@VCComDynamicUnkArray@ATL@@@1@@ 10021374     RFIDScanner.obj
 0002:00001394       ??_7?$CComObject@VCOPOSRFIDScanner@@@ATL@@6B?$CProxy_IOPOSEvents@VCOPOSRFIDScanner@@@@@ 10021394     RFIDScanner.obj
 0002:000013b4       ??_C@_1O@GBFKGNEO@?$AAA?$AAT?$AAL?$AA?3?$AA?$CF?$AAp@ 100213b4     RFIDScanner.obj
 0002:000013c4       ??_C@_1BA@PICGEGJB@?$AAD?$AAI?$AAS?$AAP?$AAL?$AAA?$AAY@ 100213c4     RFIDScanner.obj
 0002:000013d4       __GUID_9bfbbc02_eff1_101a_84ed_00aa00341d07 100213d4     RFIDScanner.obj
 0002:000013e4       __GUID_b196b284_bab4_101a_b69c_00aa00341d07 100213e4     RFIDScanner.obj
 0002:000013f4       ?_entries@?1??_GetEntries@?$CComEnum@UIEnumConnectionPoints@@$1?_GUID_b196b285_bab4_101a_b69c_00aa00341d07@@3U__s_GUID@@BPAUIConnectionPoint@@V?$_CopyInterface@UIConnectionPoint@@@ATL@@VCComSingleThreadModel@6@@ATL@@SGPBU_ATL_INTMAP_ENTRY@3@XZ@4QBU43@B 100213f4     RFIDScanner.obj
 0002:0000140c       __GUID_00020412_0000_0000_c000_000000000046 1002140c     RFIDScanner.obj
 0002:0000141c       __GUID_00020401_0000_0000_c000_000000000046 1002141c     RFIDScanner.obj
 0002:0000142c       __GUID_55980ba0_35aa_11cf_b671_00aa004cd6d8 1002142c     RFIDScanner.obj
 0002:0000143c       ??_7?$CComObject@V?$CComEnum@UIEnumConnections@@$1?_GUID_b196b287_bab4_101a_b69c_00aa00341d07@@3U__s_GUID@@BUtagCONNECTDATA@@V?$_Copy@UtagCONNECTDATA@@@ATL@@VCComSingleThreadModel@6@@ATL@@@ATL@@6B@ 1002143c     RFIDScanner.obj
 0002:0000145c       __GUID_b196b28b_bab4_101a_b69c_00aa00341d07 1002145c     RFIDScanner.obj
 0002:0000146c       ?_entries@?1??_GetEntries@?$CComEnum@UIEnumConnections@@$1?_GUID_b196b287_bab4_101a_b69c_00aa00341d07@@3U__s_GUID@@BUtagCONNECTDATA@@V?$_Copy@UtagCONNECTDATA@@@ATL@@VCComSingleThreadModel@6@@ATL@@SGPBU_ATL_INTMAP_ENTRY@3@XZ@4QBU43@B 1002146c     RFIDScanner.obj
 0002:00001484       ??_C@_0BG@EKFFMJIO@RegOpenKeyTransactedW@ 10021484     RFIDScanner.obj
 0002:0000149c       ??_C@_0BI@HAKLOOGP@RegDeleteKeyTransactedW@ 1002149c     RFIDScanner.obj
 0002:000014b4       ??_C@_0BA@LILAPHGE@RegDeleteKeyExW@ 100214b4     RFIDScanner.obj
 0002:000014c4       ??_C@_19ILOCMLCJ@?$AA?4?$AAt?$AAl?$AAb@ 100214c4     RFIDScanner.obj
 0002:000014d0       __GUID_0002e012_0000_0000_c000_000000000046 100214d0     RFIDScanner.obj
 0002:000014e0       ??_C@_1O@FHBGLCIO@?$AAC?$AAL?$AAS?$AAI?$AAD?$AA?2@ 100214e0     RFIDScanner.obj
 0002:000014f0       ??_C@_1CK@IFBKBFAA@?$AA?2?$AAR?$AAe?$AAq?$AAu?$AAi?$AAr?$AAe?$AAd?$AA?5?$AAC?$AAa?$AAt?$AAe?$AAg@ 100214f0     RFIDScanner.obj
 0002:0000151c       ??_C@_1DA@BIHALFED@?$AA?2?$AAI?$AAm?$AAp?$AAl?$AAe?$AAm?$AAe?$AAn?$AAt?$AAe?$AAd?$AA?5?$AAC?$AAa@ 1002151c     RFIDScanner.obj
 0002:0000154c       ??_C@_1BK@EDKOLFBJ@?$AAO?$AAL?$AAE?$AAA?$AAU?$AAT?$AA3?$AA2?$AA?4?$AAD?$AAL?$AAL@ 1002154c     RFIDScanner.obj
 0002:00001568       ??_C@_0BJ@CNLFOMHB@UnRegisterTypeLibForUser@ 10021568     RFIDScanner.obj
 0002:00001584       ??_C@_0BH@LBOMMKPJ@RegisterTypeLibForUser@ 10021584     RFIDScanner.obj
 0002:0000159c       ??_C@_0P@MMNMMLGK@COFreezeEvents@ 1002159c     RFIDScannerImpl.obj
 0002:000015ac       ??_C@_0BC@OGCGGIMP@GetPropertyNumber@ 100215ac     RFIDScannerImpl.obj
 0002:000015c0       ??_C@_0BC@MDCNODNB@SetPropertyNumber@ 100215c0     RFIDScannerImpl.obj
 0002:000015d4       ??_C@_0BC@CFCCMIMD@GetPropertyString@ 100215d4     RFIDScannerImpl.obj
 0002:000015e8       ??_C@_0BC@CJEDNN@SetPropertyString@ 100215e8     RFIDScannerImpl.obj
 0002:000015fc       ??_C@_0M@LNPKKKDA@OpenService@ 100215fc     RFIDScannerImpl.obj
 0002:00001608       ??_C@_0M@PCMCHHMH@CheckHealth@ 10021608     RFIDScannerImpl.obj
 0002:00001614       ??_C@_0M@JGMIDNEK@ClaimDevice@ 10021614     RFIDScannerImpl.obj
 0002:00001620       ??_C@_0L@BNEIFEJC@ClearInput@ 10021620     RFIDScannerImpl.obj
 0002:0000162c       ??_C@_0M@JMBCPNGJ@ClearOutput@ 1002162c     RFIDScannerImpl.obj
 0002:00001638       ??_C@_0N@DDFIIBMP@CloseService@ 10021638     RFIDScannerImpl.obj
 0002:00001648       ??_C@_08EEIHICPC@DirectIO@ 10021648     RFIDScannerImpl.obj
 0002:00001654       ??_C@_0O@BCPMENMJ@ReleaseDevice@ 10021654     RFIDScannerImpl.obj
 0002:00001664       ??_C@_0BA@GFABKEEE@ResetStatistics@ 10021664     RFIDScannerImpl.obj
 0002:00001674       ??_C@_0BD@DPALHJGC@RetrieveStatistics@ 10021674     RFIDScannerImpl.obj
 0002:00001688       ??_C@_0BB@KOHIKNFC@UpdateStatistics@ 10021688     RFIDScannerImpl.obj
 0002:0000169c       ??_C@_0BH@PBKBNMGB@CompareFirmwareVersion@ 1002169c     RFIDScannerImpl.obj
 0002:000016b4       ??_C@_0P@FBPDPIPA@UpdateFirmware@ 100216b4     RFIDScannerImpl.obj
 0002:000016c4       ??_C@_0BF@CMAPCJGM@ClearInputProperties@ 100216c4     RFIDScannerImpl.obj
 0002:000016dc       ??_C@_0L@BPHPPKKD@DisableTag@ 100216dc     RFIDScannerImpl.obj
 0002:000016e8       ??_C@_08KGAPBGKM@FirstTag@ 100216e8     RFIDScannerImpl.obj
 0002:000016f4       ??_C@_07NOFFDEBC@LockTag@  100216f4     RFIDScannerImpl.obj
 0002:000016fc       ??_C@_07LDKBJOCK@NextTag@  100216fc     RFIDScannerImpl.obj
 0002:00001704       ??_C@_0M@NKGJLILG@PreviousTag@ 10021704     RFIDScannerImpl.obj
 0002:00001710       ??_C@_08GEHOCIJO@ReadTags@ 10021710     RFIDScannerImpl.obj
 0002:0000171c       ??_C@_0O@JIPAFDBE@StartReadTags@ 1002171c     RFIDScannerImpl.obj
 0002:0000172c       ??_C@_0N@CLGKHMOA@StopReadTags@ 1002172c     RFIDScannerImpl.obj
 0002:0000173c       ??_C@_0N@GGGHKPIB@WriteTagData@ 1002173c     RFIDScannerImpl.obj
 0002:0000174c       ??_C@_0L@EIPHPPCO@WriteTagID@ 1002174c     RFIDScannerImpl.obj
 0002:00001758       ??_7?$CProxy_IOPOSEvents@VCOPOSRFIDScanner@@@@6B@ 10021758     RFIDScannerImpl.obj
 0002:00001778       ??_C@_1BA@IFHENID@?$AA?$FL?$AAE?$AAr?$AAr?$AAo?$AAr?$AA?$FN@ 10021778     RFIDScannerImpl.obj
 0002:00001788       ??_C@_0CO@OKKKIJDD@SOFTWARE?2OLEforRetail?2ServiceOP@ 10021788     RFIDScannerImpl.obj
 0002:000017b8       ??_C@_1M@IAIJHCCH@?$AAC?$AAl?$AAo?$AAs?$AAe@ 100217b8     RFIDScannerImpl.obj
 0002:000017c4       ??_C@_1M@PCPKGJAH@?$AAC?$AAl?$AAa?$AAi?$AAm@ 100217c4     RFIDScannerImpl.obj
 0002:000017d0       ??_C@_1BA@NDFKIOCP@?$AAR?$AAe?$AAl?$AAe?$AAa?$AAs?$AAe@ 100217d0     RFIDScannerImpl.obj
 0002:000017e0       ??_C@_0M@IHPHHFMP@RFIDScanner@ 100217e0     RFIDScannerImpl.obj
 0002:000017ec       ??_C@_1BM@IJMNMBPK@?$AAG?$AAe?$AAt?$AAO?$AAp?$AAe?$AAn?$AAR?$AAe?$AAs?$AAu?$AAl?$AAt@ 100217ec     RFIDScannerImpl.obj
 0002:00001808       _IID_IPropertyNotifySink   10021808     uuid:ocidl_i.obj
 0002:00001818       _GUID_NULL                 10021818     uuid:cguid_i.obj
 0002:00001828       _CLSID_StdGlobalInterfaceTable 10021828     uuid:cguid_i.obj
 0002:00001838       _IID_IDispatch             10021838     uuid:oaidl_i.obj
 0002:00001848       _CLSID_StdComponentCategoriesMgr 10021848     uuid:ieguids.obj
 0002:00001858       _IID_IUnknown              10021858     uuid:unknwn_i.obj
 0002:00001868       ??_C@_1EC@JIJBPKFM@?$AAa?$AAp?$AAi?$AA?9?$AAm?$AAs?$AA?9?$AAw?$AAi?$AAn?$AA?9?$AAc?$AAo?$AAr?$AAe@ 10021868     LIBCMT:thread_safe_statics.obj
 0002:000018ac       ??_C@_1BK@MGMFAEKH@?$AAk?$AAe?$AAr?$AAn?$AAe?$AAl?$AA3?$AA2?$AA?4?$AAd?$AAl?$AAl@ 100218ac     LIBCMT:thread_safe_statics.obj
 0002:000018c8       ??_C@_0BJ@JEBJOJFJ@SleepConditionVariableCS@ 100218c8     LIBCMT:thread_safe_statics.obj
 0002:000018e4       ??_C@_0BJ@PGPPEPCC@WakeAllConditionVariable@ 100218e4     LIBCMT:thread_safe_statics.obj
 0002:000018fd       ?nothrow@std@@3Unothrow_t@1@B 100218fd     LIBCMT:std_nothrow.obj
 0002:00001908       __pDefaultRawDllMain       10021908     LIBCMT:dll_dllmain.obj
 0002:00001908       __pRawDllMain              10021908     LIBCMT:dll_dllmain.obj
 0002:00001910       ??_7exception@std@@6B@     10021910     LIBCMT:throw_bad_alloc.obj
 0002:00001918       ??_C@_0BC@EOODALEL@Unknown?5exception@ 10021918     LIBCMT:throw_bad_alloc.obj
 0002:00001930       ??_7bad_alloc@std@@6B@     10021930     LIBCMT:throw_bad_alloc.obj
 0002:00001938       ??_C@_0P@GHFPNOJB@bad?5allocation@ 10021938     LIBCMT:throw_bad_alloc.obj
 0002:0000194c       ??_7bad_array_new_length@std@@6B@ 1002194c     LIBCMT:throw_bad_alloc.obj
 0002:00001954       ??_C@_0BF@KINCDENJ@bad?5array?5new?5length@ 10021954     LIBCMT:throw_bad_alloc.obj
 0002:00001970       ??_7type_info@@6B@         10021970     LIBCMT:std_type_info_static.obj
 0002:00001974       _GUID_ATLVer110            10021974     atls:atlbase.obj
 0002:00001988       ??_C@_1IC@ONKHOIDK@?$AAE?$AAR?$AAR?$AAO?$AAR?$AA?5?$AA?3?$AA?5?$AAU?$AAn?$AAa?$AAb?$AAl?$AAe?$AA?5@ 10021988     atls:atlbase.obj
 0002:00001a0c       ??_C@_0N@FJEPLCIH@atlthunk?4dll@ 10021a0c     atls:atlthunk.obj
 0002:00001a1c       ??_C@_0BG@GAKFHCBM@AtlThunk_AllocateData@ 10021a1c     atls:atlthunk.obj
 0002:00001a34       ??_C@_0BC@JKONFIAH@AtlThunk_InitData@ 10021a34     atls:atlthunk.obj
 0002:00001a48       ??_C@_0BE@IAOEELAK@AtlThunk_DataToCode@ 10021a48     atls:atlthunk.obj
 0002:00001a5c       ??_C@_0BC@GBGKAIPI@AtlThunk_FreeData@ 10021a5c     atls:atlthunk.obj
 0002:00001a70       __pDestructExceptionObject 10021a70     libvcruntime:ehhelpers.obj
 0002:00001a78       ??_7bad_exception@std@@6B@ 10021a78     libvcruntime:frame.obj
 0002:00001a80       ??_C@_0O@DPKOEFFH@bad?5exception@ 10021a80     libvcruntime:frame.obj
 0002:00001e10       ??_C@_08EHJDFFNH@__based?$CI@ 10021e10     libvcruntime:undname.obj
 0002:00001e1c       ??_C@_07KOLFKCDI@__cdecl@  10021e1c     libvcruntime:undname.obj
 0002:00001e24       ??_C@_08GHMPAG@__pascal@   10021e24     libvcruntime:undname.obj
 0002:00001e30       ??_C@_09IFJBGAPI@__stdcall@ 10021e30     libvcruntime:undname.obj
 0002:00001e3c       ??_C@_0L@NPHFGOKO@__thiscall@ 10021e3c     libvcruntime:undname.obj
 0002:00001e48       ??_C@_0L@JMKHOMEK@__fastcall@ 10021e48     libvcruntime:undname.obj
 0002:00001e54       ??_C@_0N@BCKKPABJ@__vectorcall@ 10021e54     libvcruntime:undname.obj
 0002:00001e64       ??_C@_09HIJEGCPM@__clrcall@ 10021e64     libvcruntime:undname.obj
 0002:00001e70       ??_C@_06GHPCKEAG@__eabi@   10021e70     libvcruntime:undname.obj
 0002:00001e78       ??_C@_09IOPIDJLG@__swift_1@ 10021e78     libvcruntime:undname.obj
 0002:00001e84       ??_C@_09KFNFGKHF@__swift_2@ 10021e84     libvcruntime:undname.obj
 0002:00001e90       ??_C@_07JOMMBBKO@__ptr64@  10021e90     libvcruntime:undname.obj
 0002:00001e98       ??_C@_0L@PILCLIHE@__restrict@ 10021e98     libvcruntime:undname.obj
 0002:00001ea4       ??_C@_0M@GFIIJFMG@__unaligned@ 10021ea4     libvcruntime:undname.obj
 0002:00001eb0       ??_C@_09DHDLOLLB@restrict?$CI@ 10021eb0     libvcruntime:undname.obj
 0002:00001eba       ??_C@_00CNPNBAHC@@         10021eba     libvcruntime:undname.obj
 0002:00001ebc       ??_C@_04NIHEBCM@?5new@     10021ebc     libvcruntime:undname.obj
 0002:00001ec4       ??_C@_07FPCDHGMM@?5delete@ 10021ec4     libvcruntime:undname.obj
 0002:00001ecc       ??_C@_01NEMOKFLO@?$DN@     10021ecc     libvcruntime:undname.obj
 0002:00001ed0       ??_C@_02GPIOPFAK@?$DO?$DO@ 10021ed0     libvcruntime:undname.obj
 0002:00001ed4       ??_C@_02FODMEDOG@?$DM?$DM@ 10021ed4     libvcruntime:undname.obj
 0002:00001ed8       ??_C@_01DCLJPIOD@?$CB@     10021ed8     libvcruntime:undname.obj
 0002:00001edc       ??_C@_02EGOFBIJA@?$DN?$DN@ 10021edc     libvcruntime:undname.obj
 0002:00001ee0       ??_C@_02FDNJECIE@?$CB?$DN@ 10021ee0     libvcruntime:undname.obj
 0002:00001ee4       ??_C@_02GPECMEKF@?$FL?$FN@ 10021ee4     libvcruntime:undname.obj
 0002:00001ee8       ??_C@_08LHJFAFGD@operator@ 10021ee8     libvcruntime:undname.obj
 0002:00001ef4       ??_C@_02HBOOOICD@?9?$DO@   10021ef4     libvcruntime:undname.obj
 0002:00001ef8       ??_C@_01NBENCBCI@?$CK@     10021ef8     libvcruntime:undname.obj
 0002:00001efc       ??_C@_02ECNGHCIF@?$CL?$CL@ 10021efc     libvcruntime:undname.obj
 0002:00001f00       ??_C@_02BAABKJLB@?9?9@     10021f00     libvcruntime:undname.obj
 0002:00001f04       ??_C@_01JOAMLHOP@?9@       10021f04     libvcruntime:undname.obj
 0002:00001f08       ??_C@_01MIFGBAGJ@?$CL@     10021f08     libvcruntime:undname.obj
 0002:00001f0c       ??_C@_01HNPIGOCE@?$CG@     10021f0c     libvcruntime:undname.obj
 0002:00001f10       ??_C@_03MNHNFDLC@?9?$DO?$CK@ 10021f10     libvcruntime:undname.obj
 0002:00001f14       ??_C@_01KMDKNFGN@?1@       10021f14     libvcruntime:undname.obj
 0002:00001f18       ??_C@_01FGNFDNOH@?$CF@     10021f18     libvcruntime:undname.obj
 0002:00001f1c       ??_C@_01MNNFJEPP@?$DM@     10021f1c     libvcruntime:undname.obj
 0002:00001f20       ??_C@_02EHCHHCKH@?$DM?$DN@ 10021f20     libvcruntime:undname.obj
 0002:00001f24       ??_C@_01PPODPGHN@?$DO@     10021f24     libvcruntime:undname.obj
 0002:00001f28       ??_C@_02EEKDKGMJ@?$DO?$DN@ 10021f28     libvcruntime:undname.obj
 0002:00001f2c       ??_C@_01IHBHIGKO@?0@       10021f2c     libvcruntime:undname.obj
 0002:00001f30       ??_C@_02HCKGKOFO@?$CI?$CJ@ 10021f30     libvcruntime:undname.obj
 0002:00001f34       ??_C@_01PJKLJHI@?$HO@      10021f34     libvcruntime:undname.obj
 0002:00001f38       ??_C@_01JKBOJNNK@?$FO@     10021f38     libvcruntime:undname.obj
 0002:00001f3c       ??_C@_01DNKMNLPK@?$HM@     10021f3c     libvcruntime:undname.obj
 0002:00001f40       ??_C@_02PPKAJPJL@?$CG?$CG@ 10021f40     libvcruntime:undname.obj
 0002:00001f44       ??_C@_02NONPIBCD@?$HM?$HM@ 10021f44     libvcruntime:undname.obj
 0002:00001f48       ??_C@_02FPIMKNGF@?$CK?$DN@ 10021f48     libvcruntime:undname.obj
 0002:00001f4c       ??_C@_02FOEOMHFC@?$CL?$DN@ 10021f4c     libvcruntime:undname.obj
 0002:00001f50       ??_C@_02FKMDLLOA@?9?$DN@   10021f50     libvcruntime:undname.obj
 0002:00001f54       ??_C@_02FJEHGPIO@?1?$DN@   10021f54     libvcruntime:undname.obj
 0002:00001f58       ??_C@_02FENAOKFI@?$CF?$DN@ 10021f58     libvcruntime:undname.obj
 0002:00001f5c       ??_C@_03IKFCCPFF@?$DO?$DO?$DN@ 10021f5c     libvcruntime:undname.obj
 0002:00001f60       ??_C@_03CDNPDDLA@?$DM?$DM?$DN@ 10021f60     libvcruntime:undname.obj
 0002:00001f64       ??_C@_02FGJGFEAB@?$CG?$DN@ 10021f64     libvcruntime:undname.obj
 0002:00001f68       ??_C@_02DHLNPPGH@?$HM?$DN@ 10021f68     libvcruntime:undname.obj
 0002:00001f6c       ??_C@_02MHEGNOJ@?$FO?$DN@  10021f6c     libvcruntime:undname.obj
 0002:00001f70       ??_C@_09IFPLHPGF@?$GAvftable?8@ 10021f70     libvcruntime:undname.obj
 0002:00001f7c       ??_C@_09BLBHBJP@?$GAvbtable?8@ 10021f7c     libvcruntime:undname.obj
 0002:00001f88       ??_C@_07FEEIOKP@?$GAvcall?8@ 10021f88     libvcruntime:undname.obj
 0002:00001f90       ??_C@_08LLFFHHDJ@?$GAtypeof?8@ 10021f90     libvcruntime:undname.obj
 0002:00001f9c       ??_C@_0BF@KDPPACIK@?$GAlocal?5static?5guard?8@ 10021f9c     libvcruntime:undname.obj
 0002:00001fb4       ??_C@_08OBABFOLI@?$GAstring?8@ 10021fb4     libvcruntime:undname.obj
 0002:00001fc0       ??_C@_0BD@JDLKDPAB@?$GAvbase?5destructor?8@ 10021fc0     libvcruntime:undname.obj
 0002:00001fd4       ??_C@_0BN@DEGPLNFK@?$GAvector?5deleting?5destructor?8@ 10021fd4     libvcruntime:undname.obj
 0002:00001ff4       ??_C@_0BO@OBMKPJIG@?$GAdefault?5constructor?5closure?8@ 10021ff4     libvcruntime:undname.obj
 0002:00002014       ??_C@_0BN@IMDCHIKM@?$GAscalar?5deleting?5destructor?8@ 10022014     libvcruntime:undname.obj
 0002:00002034       ??_C@_0BO@PFGOCPJJ@?$GAvector?5constructor?5iterator?8@ 10022034     libvcruntime:undname.obj
 0002:00002054       ??_C@_0BN@LFPFMEDL@?$GAvector?5destructor?5iterator?8@ 10022054     libvcruntime:undname.obj
 0002:00002074       ??_C@_0CE@IKBNEHA@?$GAvector?5vbase?5constructor?5itera@ 10022074     libvcruntime:undname.obj
 0002:00002098       ??_C@_0BL@NILFHHPC@?$GAvirtual?5displacement?5map?8@ 10022098     libvcruntime:undname.obj
 0002:000020b4       ??_C@_0CB@JONCMFFK@?$GAeh?5vector?5constructor?5iterator@ 100220b4     libvcruntime:undname.obj
 0002:000020d8       ??_C@_0CA@GCEOPDGL@?$GAeh?5vector?5destructor?5iterator?8@ 100220d8     libvcruntime:undname.obj
 0002:000020f8       ??_C@_0CH@OOJPLCPH@?$GAeh?5vector?5vbase?5constructor?5it@ 100220f8     libvcruntime:undname.obj
 0002:00002120       ??_C@_0BL@LLKPOHJI@?$GAcopy?5constructor?5closure?8@ 10022120     libvcruntime:undname.obj
 0002:0000213c       ??_C@_0BA@KBCDOMBN@?$GAudt?5returning?8@ 1002213c     libvcruntime:undname.obj
 0002:0000214c       ??_C@_03KLGMFNMG@?$GAEH@   1002214c     libvcruntime:undname.obj
 0002:00002150       ??_C@_05KHLCHHI@?$GARTTI@  10022150     libvcruntime:undname.obj
 0002:00002158       ??_C@_0BA@KKLDJDLB@?$GAlocal?5vftable?8@ 10022158     libvcruntime:undname.obj
 0002:00002168       ??_C@_0CE@IIHCMGGL@?$GAlocal?5vftable?5constructor?5clos@ 10022168     libvcruntime:undname.obj
 0002:0000218c       ??_C@_06FHBGPFGH@?5new?$FL?$FN@ 1002218c     libvcruntime:undname.obj
 0002:00002194       ??_C@_09LBNFPBCA@?5delete?$FL?$FN@ 10022194     libvcruntime:undname.obj
 0002:000021a0       ??_C@_0P@HJKNJFNN@?$GAomni?5callsig?8@ 100221a0     libvcruntime:undname.obj
 0002:000021b0       ??_C@_0BL@CNOONJFP@?$GAplacement?5delete?5closure?8@ 100221b0     libvcruntime:undname.obj
 0002:000021cc       ??_C@_0BN@CKNJLHMB@?$GAplacement?5delete?$FL?$FN?5closure?8@ 100221cc     libvcruntime:undname.obj
 0002:000021ec       ??_C@_0CG@CFDHKGGD@?$GAmanaged?5vector?5constructor?5ite@ 100221ec     libvcruntime:undname.obj
 0002:00002214       ??_C@_0CF@IMGKMJNO@?$GAmanaged?5vector?5destructor?5iter@ 10022214     libvcruntime:undname.obj
 0002:0000223c       ??_C@_0CG@HLDDJMAG@?$GAeh?5vector?5copy?5constructor?5ite@ 1002223c     libvcruntime:undname.obj
 0002:00002264       ??_C@_0CM@FCBBDIGB@?$GAeh?5vector?5vbase?5copy?5construct@ 10022264     libvcruntime:undname.obj
 0002:00002290       ??_C@_0BL@CLIPGLGB@?$GAdynamic?5initializer?5for?5?8@ 10022290     libvcruntime:undname.obj
 0002:000022ac       ??_C@_0CB@PDBIFEP@?$GAdynamic?5atexit?5destructor?5for?5@ 100222ac     libvcruntime:undname.obj
 0002:000022d0       ??_C@_0CD@CGAJBKEJ@?$GAvector?5copy?5constructor?5iterat@ 100222d0     libvcruntime:undname.obj
 0002:000022f4       ??_C@_0CJ@GJELGAMM@?$GAvector?5vbase?5copy?5constructor?5@ 100222f4     libvcruntime:undname.obj
 0002:00002320       ??_C@_0CL@FGIJHLCE@?$GAmanaged?5vector?5copy?5constructo@ 10022320     libvcruntime:undname.obj
 0002:0000234c       ??_C@_0BM@PMGGMLDN@?$GAlocal?5static?5thread?5guard?8@ 1002234c     libvcruntime:undname.obj
 0002:00002368       ??_C@_0N@BDNMDMOL@operator?5?$CC?$CC?5@ 10022368     libvcruntime:undname.obj
 0002:00002378       ??_C@_0BC@GGEBGALA@operator?5co_await@ 10022378     libvcruntime:undname.obj
 0002:0000238c       ??_C@_0M@GAAIMMOH@operator?$DM?$DN?$DO@ 1002238c     libvcruntime:undname.obj
 0002:00002398       ??_C@_0BC@DAFEJGAK@?5Type?5Descriptor?8@ 10022398     libvcruntime:undname.obj
 0002:000023ac       ??_C@_0BM@LDKODKLH@?5Base?5Class?5Descriptor?5at?5?$CI@ 100223ac     libvcruntime:undname.obj
 0002:000023c8       ??_C@_0BD@LGICGFMM@?5Base?5Class?5Array?8@ 100223c8     libvcruntime:undname.obj
 0002:000023dc       ??_C@_0BN@MECKDCOJ@?5Class?5Hierarchy?5Descriptor?8@ 100223dc     libvcruntime:undname.obj
 0002:000023fc       ??_C@_0BK@CFCOFLF@?5Complete?5Object?5Locator?8@ 100223fc     libvcruntime:undname.obj
 0002:00002418       ??_C@_0BG@JNJLAMPM@?$GAanonymous?5namespace?8@ 10022418     libvcruntime:undname.obj
 0002:0000243c       ??_C@_1DM@KHCHBNEB@?$AAa?$AAp?$AAi?$AA?9?$AAm?$AAs?$AA?9?$AAw?$AAi?$AAn?$AA?9?$AAc?$AAo?$AAr?$AAe@ 1002243c     libvcruntime:winapi_downlevel.obj
 0002:00002478       ??_C@_1DK@LPPGFMPP@?$AAa?$AAp?$AAi?$AA?9?$AAm?$AAs?$AA?9?$AAw?$AAi?$AAn?$AA?9?$AAc?$AAo?$AAr?$AAe@ 10022478     libvcruntime:winapi_downlevel.obj
 0002:000024b4       ??_C@_1BC@GDMECMAK@?$AAk?$AAe?$AAr?$AAn?$AAe?$AAl?$AA3?$AA2@ 100224b4     libvcruntime:winapi_downlevel.obj
 0002:000024c8       ??_C@_1BA@PFFKHIOG@?$AAa?$AAp?$AAi?$AA?9?$AAm?$AAs?$AA?9@ 100224c8     libvcruntime:winapi_downlevel.obj
 0002:000024e0       ??_C@_08KNHFBNJ@FlsAlloc@  100224e0     libvcruntime:winapi_downlevel.obj
 0002:000024f4       ??_C@_07PEJMOBNF@FlsFree@  100224f4     libvcruntime:winapi_downlevel.obj
 0002:00002504       ??_C@_0M@GDNOONDI@FlsGetValue@ 10022504     libvcruntime:winapi_downlevel.obj
 0002:00002518       ??_C@_0M@JCPCPOEF@FlsSetValue@ 10022518     libvcruntime:winapi_downlevel.obj
 0002:0000252c       ??_C@_0BM@HCFOFFN@InitializeCriticalSectionEx@ 1002252c     libvcruntime:winapi_downlevel.obj
 0002:000026b0       ?format_validation_lookup_table_spectre@__crt_stdio_output@@3V?$spectre_mitigated_lookup_table@Ustate_transition_pair@__crt_stdio_output@@$0IA@@1@B 100226b0     libucrt:output.obj
 0002:00002ab0       ??_C@_1O@CEDCILHN@?$AA?$CI?$AAn?$AAu?$AAl?$AAl?$AA?$CJ@ 10022ab0     libucrt:output.obj
 0002:00002ac0       ??_C@_06OJHGLDPL@?$CInull?$CJ@ 10022ac0     libucrt:output.obj
 0002:00002ac8       ___acrt_exception_action_table 10022ac8     libucrt:exception_filter.obj
 0002:00002b58       ___acrt_signal_action_table_count 10022b58     libucrt:exception_filter.obj
 0002:00002b5c       ___acrt_signal_action_first_fpe_index 10022b5c     libucrt:exception_filter.obj
 0002:00002b60       ___acrt_signal_action_fpe_count 10022b60     libucrt:exception_filter.obj
 0002:00002b64       ??_C@_1BI@BGOHAHKC@?$AAm?$AAs?$AAc?$AAo?$AAr?$AAe?$AAe?$AA?4?$AAd?$AAl?$AAl@ 10022b64     libucrt:exit.obj
 0002:00002b7c       ??_C@_0P@MIGLKIOC@CorExitProcess@ 10022b7c     libucrt:exit.obj
 0002:00002c60       ??_C@_1EA@JGEFHKEI@?$AAa?$AAp?$AAi?$AA?9?$AAm?$AAs?$AA?9?$AAw?$AAi?$AAn?$AA?9?$AAc?$AAo?$AAr?$AAe@ 10022c60     libucrt:winapi_thunks.obj
 0002:00002ca0       ??_C@_1DI@IJCEHOCB@?$AAa?$AAp?$AAi?$AA?9?$AAm?$AAs?$AA?9?$AAw?$AAi?$AAn?$AA?9?$AAc?$AAo?$AAr?$AAe@ 10022ca0     libucrt:winapi_thunks.obj
 0002:00002cd8       ??_C@_1EI@MPIAOHOC@?$AAa?$AAp?$AAi?$AA?9?$AAm?$AAs?$AA?9?$AAw?$AAi?$AAn?$AA?9?$AAc?$AAo?$AAr?$AAe@ 10022cd8     libucrt:winapi_thunks.obj
 0002:00002d20       ??_C@_1FK@FPHCKFIE@?$AAa?$AAp?$AAi?$AA?9?$AAm?$AAs?$AA?9?$AAw?$AAi?$AAn?$AA?9?$AAc?$AAo?$AAr?$AAe@ 10022d20     libucrt:winapi_thunks.obj
 0002:00002d80       ??_C@_1EM@DILCGIIO@?$AAa?$AAp?$AAi?$AA?9?$AAm?$AAs?$AA?9?$AAw?$AAi?$AAn?$AA?9?$AAc?$AAo?$AAr?$AAe@ 10022d80     libucrt:winapi_thunks.obj
 0002:00002dcc       ??_C@_1DM@LNCGDDPN@?$AAa?$AAp?$AAi?$AA?9?$AAm?$AAs?$AA?9?$AAw?$AAi?$AAn?$AA?9?$AAc?$AAo?$AAr?$AAe@ 10022dcc     libucrt:winapi_thunks.obj
 0002:00002e08       ??_C@_1DO@FPAPJEMD@?$AAa?$AAp?$AAi?$AA?9?$AAm?$AAs?$AA?9?$AAw?$AAi?$AAn?$AA?9?$AAc?$AAo?$AAr?$AAe@ 10022e08     libucrt:winapi_thunks.obj
 0002:00002e48       ??_C@_1DK@NDHNAHIO@?$AAa?$AAp?$AAi?$AA?9?$AAm?$AAs?$AA?9?$AAw?$AAi?$AAn?$AA?9?$AAc?$AAo?$AAr?$AAe@ 10022e48     libucrt:winapi_thunks.obj
 0002:00002e84       ??_C@_1DM@KGHDGBCM@?$AAa?$AAp?$AAi?$AA?9?$AAm?$AAs?$AA?9?$AAw?$AAi?$AAn?$AA?9?$AAc?$AAo?$AAr?$AAe@ 10022e84     libucrt:winapi_thunks.obj
 0002:00002ec0       ??_C@_1EO@IJIOEFOH@?$AAa?$AAp?$AAi?$AA?9?$AAm?$AAs?$AA?9?$AAw?$AAi?$AAn?$AA?9?$AAr?$AAt?$AAc?$AAo@ 10022ec0     libucrt:winapi_thunks.obj
 0002:00002f10       ??_C@_1FG@HHGEKANL@?$AAa?$AAp?$AAi?$AA?9?$AAm?$AAs?$AA?9?$AAw?$AAi?$AAn?$AA?9?$AAs?$AAe?$AAc?$AAu@ 10022f10     libucrt:winapi_thunks.obj
 0002:00002f68       ??_C@_1EG@DBIOJECG@?$AAe?$AAx?$AAt?$AA?9?$AAm?$AAs?$AA?9?$AAw?$AAi?$AAn?$AA?9?$AAn?$AAt?$AAu?$AAs@ 10022f68     libucrt:winapi_thunks.obj
 0002:00002fb0       ??_C@_1EO@FIHMJCLF@?$AAe?$AAx?$AAt?$AA?9?$AAm?$AAs?$AA?9?$AAw?$AAi?$AAn?$AA?9?$AAn?$AAt?$AAu?$AAs@ 10022fb0     libucrt:winapi_thunks.obj
 0002:00003000       ??_C@_1BC@DNHGCMLG@?$AAa?$AAd?$AAv?$AAa?$AAp?$AAi?$AA3?$AA2@ 10023000     libucrt:winapi_thunks.obj
 0002:00003014       ??_C@_1M@OAIMIKLP@?$AAn?$AAt?$AAd?$AAl?$AAl@ 10023014     libucrt:winapi_thunks.obj
 0002:00003020       ??_C@_1EG@DPGNFKGC@?$AAa?$AAp?$AAi?$AA?9?$AAm?$AAs?$AA?9?$AAw?$AAi?$AAn?$AA?9?$AAa?$AAp?$AAp?$AAm@ 10023020     libucrt:winapi_thunks.obj
 0002:00003068       ??_C@_1O@BCCLBEOE@?$AAu?$AAs?$AAe?$AAr?$AA3?$AA2@ 10023068     libucrt:winapi_thunks.obj
 0002:00003078       ??_C@_1BA@IAIFMGEF@?$AAe?$AAx?$AAt?$AA?9?$AAm?$AAs?$AA?9@ 10023078     libucrt:winapi_thunks.obj
 0002:0000308c       ??_C@_0BA@FHFNEAED@AreFileApisANSI@ 1002308c     libucrt:winapi_thunks.obj
 0002:000030cc       ??_C@_0O@KKBNKAPF@LCMapStringEx@ 100230cc     libucrt:winapi_thunks.obj
 0002:000030e4       ??_C@_0BB@HBDEELFH@LocaleNameToLCID@ 100230e4     libucrt:winapi_thunks.obj
 0002:000030fc       ??_C@_0CF@OJOFEIGO@AppPolicyGetProcessTerminationM@ 100230fc     libucrt:winapi_thunks.obj
 0002:0000312c       ??_C@_0BI@BKLFFAPO@SetThreadStackGuarantee@ 1002312c     libucrt:winapi_thunks.obj
 0002:00003188       ??_C@_03OEIAHPBN@INF@      10023188     libucrt:cvt.obj
 0002:0000318c       ??_C@_03OJHLLCGB@inf@      1002318c     libucrt:cvt.obj
 0002:00003190       ??_C@_03LKNCIKJB@NAN@      10023190     libucrt:cvt.obj
 0002:00003194       ??_C@_03LHCJEHON@nan@      10023194     libucrt:cvt.obj
 0002:00003198       ??_C@_09OFJJIMPC@NAN?$CISNAN?$CJ@ 10023198     libucrt:cvt.obj
 0002:000031a4       ??_C@_09IPFBKMDL@nan?$CIsnan?$CJ@ 100231a4     libucrt:cvt.obj
 0002:000031b0       ??_C@_08IKHNHAJ@NAN?$CIIND?$CJ@ 100231b0     libucrt:cvt.obj
 0002:000031bc       ??_C@_08OFCDMILK@nan?$CIind?$CJ@ 100231bc     libucrt:cvt.obj
 0002:000031c8       ??_C@_05KLBDPFGC@e?$CL000@ 100231c8     libucrt:cvt.obj
 0002:000031d0       ___lc_time_c               100231d0     libucrt:nlsdata.obj
 0002:00003334       ??_C@_03KOEHGMDN@Sun@      10023334     libucrt:nlsdata.obj
 0002:00003338       ??_C@_03PDAGKDH@Mon@       10023338     libucrt:nlsdata.obj
 0002:0000333c       ??_C@_03NAGEINEP@Tue@      1002333c     libucrt:nlsdata.obj
 0002:00003340       ??_C@_03MHOMLAJA@Wed@      10023340     libucrt:nlsdata.obj
 0002:00003344       ??_C@_03IOFIKPDN@Thu@      10023344     libucrt:nlsdata.obj
 0002:00003348       ??_C@_03IDIOELNC@Fri@      10023348     libucrt:nlsdata.obj
 0002:0000334c       ??_C@_03FEFJNEK@Sat@       1002334c     libucrt:nlsdata.obj
 0002:00003350       ??_C@_06OOPIFAJ@Sunday@    10023350     libucrt:nlsdata.obj
 0002:00003358       ??_C@_06JLEDEDGH@Monday@   10023358     libucrt:nlsdata.obj
 0002:00003360       ??_C@_07BAAGCFCM@Tuesday@  10023360     libucrt:nlsdata.obj
 0002:00003368       ??_C@_09DLIGFAKA@Wednesday@ 10023368     libucrt:nlsdata.obj
 0002:00003374       ??_C@_08HACCIKIA@Thursday@ 10023374     libucrt:nlsdata.obj
 0002:00003380       ??_C@_06JECMNKMI@Friday@   10023380     libucrt:nlsdata.obj
 0002:00003388       ??_C@_08INBOOONO@Saturday@ 10023388     libucrt:nlsdata.obj
 0002:00003394       ??_C@_03JIHJHPIE@Jan@      10023394     libucrt:nlsdata.obj
 0002:00003398       ??_C@_03HJBDCHOM@Feb@      10023398     libucrt:nlsdata.obj
 0002:0000339c       ??_C@_03ODNJBKGA@Mar@      1002339c     libucrt:nlsdata.obj
 0002:000033a0       ??_C@_03LEOLGMJP@Apr@      100233a0     libucrt:nlsdata.obj
 0002:000033a4       ??_C@_03CNMDKL@May@        100233a4     libucrt:nlsdata.obj
 0002:000033a8       ??_C@_03IDFGHECI@Jun@      100233a8     libucrt:nlsdata.obj
 0002:000033ac       ??_C@_03LBGABGKK@Jul@      100233ac     libucrt:nlsdata.obj
 0002:000033b0       ??_C@_03IFJFEIGA@Aug@      100233b0     libucrt:nlsdata.obj
 0002:000033b4       ??_C@_03GGCAPAJC@Sep@      100233b4     libucrt:nlsdata.obj
 0002:000033b8       ??_C@_03BMAOKBAD@Oct@      100233b8     libucrt:nlsdata.obj
 0002:000033bc       ??_C@_03JPJOFNIA@Nov@      100233bc     libucrt:nlsdata.obj
 0002:000033c0       ??_C@_03MKABNOCG@Dec@      100233c0     libucrt:nlsdata.obj
 0002:000033c4       ??_C@_07CGJPFGJA@January@  100233c4     libucrt:nlsdata.obj
 0002:000033cc       ??_C@_08GNJGEPFN@February@ 100233cc     libucrt:nlsdata.obj
 0002:000033d8       ??_C@_05HPCKOFNC@March@    100233d8     libucrt:nlsdata.obj
 0002:000033e0       ??_C@_05DMJDNLEJ@April@    100233e0     libucrt:nlsdata.obj
 0002:000033e8       ??_C@_04CNLMGBGM@June@     100233e8     libucrt:nlsdata.obj
 0002:000033f0       ??_C@_04MIEPOIFP@July@     100233f0     libucrt:nlsdata.obj
 0002:000033f8       ??_C@_06LBBHFDDG@August@   100233f8     libucrt:nlsdata.obj
 0002:00003400       ??_C@_09BHHEALKD@September@ 10023400     libucrt:nlsdata.obj
 0002:0000340c       ??_C@_07JJNFCEND@October@  1002340c     libucrt:nlsdata.obj
 0002:00003414       ??_C@_08HCHEGEOA@November@ 10023414     libucrt:nlsdata.obj
 0002:00003420       ??_C@_08EDHMEBNP@December@ 10023420     libucrt:nlsdata.obj
 0002:0000342c       ??_C@_02DEDBPAFC@AM@       1002342c     libucrt:nlsdata.obj
 0002:00003430       ??_C@_02CJNFDJBF@PM@       10023430     libucrt:nlsdata.obj
 0002:00003434       ??_C@_08BPBNCDIB@MM?1dd?1yy@ 10023434     libucrt:nlsdata.obj
 0002:00003440       ??_C@_0BE@CKGJFCPC@dddd?0?5MMMM?5dd?0?5yyyy@ 10023440     libucrt:nlsdata.obj
 0002:00003454       ??_C@_08JCCMCCIL@HH?3mm?3ss@ 10023454     libucrt:nlsdata.obj
 0002:00003460       ??_C@_17MBGCMIPB@?$AAS?$AAu?$AAn@ 10023460     libucrt:nlsdata.obj
 0002:00003468       ??_C@_17KBOMKBF@?$AAM?$AAo?$AAn@ 10023468     libucrt:nlsdata.obj
 0002:00003470       ??_C@_17BMKGEGOJ@?$AAT?$AAu?$AAe@ 10023470     libucrt:nlsdata.obj
 0002:00003478       ??_C@_17CJEDCEPE@?$AAW?$AAe?$AAd@ 10023478     libucrt:nlsdata.obj
 0002:00003480       ??_C@_17PDPHAADD@?$AAT?$AAh?$AAu@ 10023480     libucrt:nlsdata.obj
 0002:00003488       ??_C@_17HFOLPPLP@?$AAF?$AAr?$AAi@ 10023488     libucrt:nlsdata.obj
 0002:00003490       ??_C@_17GGIBDPIH@?$AAS?$AAa?$AAt@ 10023490     libucrt:nlsdata.obj
 0002:00003498       ??_C@_1O@IHNHDHPB@?$AAS?$AAu?$AAn?$AAd?$AAa?$AAy@ 10023498     libucrt:nlsdata.obj
 0002:000034a8       ??_C@_1O@MMNBFLIA@?$AAM?$AAo?$AAn?$AAd?$AAa?$AAy@ 100234a8     libucrt:nlsdata.obj
 0002:000034b8       ??_C@_1BA@ENFBFFEK@?$AAT?$AAu?$AAe?$AAs?$AAd?$AAa?$AAy@ 100234b8     libucrt:nlsdata.obj
 0002:000034c8       ??_C@_1BE@EBOGMDOH@?$AAW?$AAe?$AAd?$AAn?$AAe?$AAs?$AAd?$AAa?$AAy@ 100234c8     libucrt:nlsdata.obj
 0002:000034dc       ??_C@_1BC@HHMNLIHE@?$AAT?$AAh?$AAu?$AAr?$AAs?$AAd?$AAa?$AAy@ 100234dc     libucrt:nlsdata.obj
 0002:000034f0       ??_C@_1O@PDICJHAG@?$AAF?$AAr?$AAi?$AAd?$AAa?$AAy@ 100234f0     libucrt:nlsdata.obj
 0002:00003500       ??_C@_1BC@ENMNNPAJ@?$AAS?$AAa?$AAt?$AAu?$AAr?$AAd?$AAa?$AAy@ 10023500     libucrt:nlsdata.obj
 0002:00003514       ??_C@_17DKNBKCHM@?$AAJ?$AAa?$AAn@ 10023514     libucrt:nlsdata.obj
 0002:0000351c       ??_C@_17LMDJEKJN@?$AAF?$AAe?$AAb@ 1002351c     libucrt:nlsdata.obj
 0002:00003524       ??_C@_17CKNLEDEC@?$AAM?$AAa?$AAr@ 10023524     libucrt:nlsdata.obj
 0002:0000352c       ??_C@_17LFPOIHDD@?$AAA?$AAp?$AAr@ 1002352c     libucrt:nlsdata.obj
 0002:00003534       ??_C@_17PNNKMEED@?$AAM?$AAa?$AAy@ 10023534     libucrt:nlsdata.obj
 0002:0000353c       ??_C@_17KCJGOCPB@?$AAJ?$AAu?$AAn@ 1002353c     libucrt:nlsdata.obj
 0002:00003544       ??_C@_17IJPCKHK@?$AAJ?$AAu?$AAl@ 10023544     libucrt:nlsdata.obj
 0002:0000354c       ??_C@_17ICPELBCN@?$AAA?$AAu?$AAg@ 1002354c     libucrt:nlsdata.obj
 0002:00003554       ??_C@_17HCHCOKMG@?$AAS?$AAe?$AAp@ 10023554     libucrt:nlsdata.obj
 0002:0000355c       ??_C@_17FNLKOI@?$AAO?$AAc?$AAt@ 1002355c     libucrt:nlsdata.obj
 0002:00003564       ??_C@_17BBDMLCIG@?$AAN?$AAo?$AAv@ 10023564     libucrt:nlsdata.obj
 0002:0000356c       ??_C@_17EGKACKIF@?$AAD?$AAe?$AAc@ 1002356c     libucrt:nlsdata.obj
 0002:00003574       ??_C@_1BA@EFMEIEBA@?$AAJ?$AAa?$AAn?$AAu?$AAa?$AAr?$AAy@ 10023574     libucrt:nlsdata.obj
 0002:00003584       ??_C@_1BC@JGDDFFAM@?$AAF?$AAe?$AAb?$AAr?$AAu?$AAa?$AAr?$AAy@ 10023584     libucrt:nlsdata.obj
 0002:00003598       ??_C@_1M@IKEENEDF@?$AAM?$AAa?$AAr?$AAc?$AAh@ 10023598     libucrt:nlsdata.obj
 0002:000035a4       ??_C@_1M@GJNLMHFD@?$AAA?$AAp?$AAr?$AAi?$AAl@ 100235a4     libucrt:nlsdata.obj
 0002:000035b0       ??_C@_19EPFLPGAP@?$AAJ?$AAu?$AAn?$AAe@ 100235b0     libucrt:nlsdata.obj
 0002:000035bc       ??_C@_19BIFMLPCD@?$AAJ?$AAu?$AAl?$AAy@ 100235bc     libucrt:nlsdata.obj
 0002:000035c8       ??_C@_1O@PAHLKOAC@?$AAA?$AAu?$AAg?$AAu?$AAs?$AAt@ 100235c8     libucrt:nlsdata.obj
 0002:000035d8       ??_C@_1BE@DKAAMBJL@?$AAS?$AAe?$AAp?$AAt?$AAe?$AAm?$AAb?$AAe?$AAr@ 100235d8     libucrt:nlsdata.obj
 0002:000035ec       ??_C@_1BA@EPANDLNG@?$AAO?$AAc?$AAt?$AAo?$AAb?$AAe?$AAr@ 100235ec     libucrt:nlsdata.obj
 0002:000035fc       ??_C@_1BC@BGLIFPF@?$AAN?$AAo?$AAv?$AAe?$AAm?$AAb?$AAe?$AAr@ 100235fc     libucrt:nlsdata.obj
 0002:00003610       ??_C@_1BC@FEMKIFH@?$AAD?$AAe?$AAc?$AAe?$AAm?$AAb?$AAe?$AAr@ 10023610     libucrt:nlsdata.obj
 0002:00003624       ??_C@_15ODEHAHHF@?$AAA?$AAM@ 10023624     libucrt:nlsdata.obj
 0002:0000362c       ??_C@_15CLMNNGEL@?$AAP?$AAM@ 1002362c     libucrt:nlsdata.obj
 0002:00003634       ??_C@_1BC@IEBCMHCM@?$AAM?$AAM?$AA?1?$AAd?$AAd?$AA?1?$AAy?$AAy@ 10023634     libucrt:nlsdata.obj
 0002:00003648       ??_C@_1CI@KNAKOEBC@?$AAd?$AAd?$AAd?$AAd?$AA?0?$AA?5?$AAM?$AAM?$AAM?$AAM?$AA?5?$AAd?$AAd?$AA?0?$AA?5@ 10023648     libucrt:nlsdata.obj
 0002:00003670       ??_C@_1BC@GDGBMEMK@?$AAH?$AAH?$AA?3?$AAm?$AAm?$AA?3?$AAs?$AAs@ 10023670     libucrt:nlsdata.obj
 0002:00003684       ??_C@_1M@BMHNFIME@?$AAe?$AAn?$AA?9?$AAU?$AAS@ 10023684     libucrt:nlsdata.obj
 0002:000036a0       ??_C@_1M@HPNHIDJI@?$AAj?$AAa?$AA?9?$AAJ?$AAP@ 100236a0     libucrt:mbctype.obj
 0002:000036ac       ??_C@_1M@BIBDDEMK@?$AAz?$AAh?$AA?9?$AAC?$AAN@ 100236ac     libucrt:mbctype.obj
 0002:000036b8       ??_C@_1M@JLOOOEGK@?$AAk?$AAo?$AA?9?$AAK?$AAR@ 100236b8     libucrt:mbctype.obj
 0002:000036c4       ??_C@_1M@CLNBBOPM@?$AAz?$AAh?$AA?9?$AAT?$AAW@ 100236c4     libucrt:mbctype.obj
 0002:000036d0       ___newctype                100236d0     libucrt:ctype.obj
 0002:000039d0       ___newclmap                100239d0     libucrt:ctype.obj
 0002:00003b50       ___newcumap                10023b50     libucrt:ctype.obj
 0002:00003cd0       __wctype                   10023cd0     libucrt:ctype.obj
 0002:000045f8       ??_C@_15EMKDOKLE@?$AAa?$AAr@ 100245f8     libucrt:lcidtoname_downlevel.obj
 0002:00004600       ??_C@_15KNPADPLH@?$AAb?$AAg@ 10024600     libucrt:lcidtoname_downlevel.obj
 0002:00004608       ??_C@_15EDMHLDMO@?$AAc?$AAa@ 10024608     libucrt:lcidtoname_downlevel.obj
 0002:00004610       ??_C@_1O@BPEAJADD@?$AAz?$AAh?$AA?9?$AAC?$AAH?$AAS@ 10024610     libucrt:lcidtoname_downlevel.obj
 0002:00004620       ??_C@_15LJNHCMNK@?$AAc?$AAs@ 10024620     libucrt:lcidtoname_downlevel.obj
 0002:00004628       ??_C@_15FOMCIDHG@?$AAd?$AAa@ 10024628     libucrt:lcidtoname_downlevel.obj
 0002:00004630       ??_C@_15NBKABECB@?$AAd?$AAe@ 10024630     libucrt:lcidtoname_downlevel.obj
 0002:00004638       ??_C@_15GHPEIIAO@?$AAe?$AAl@ 10024638     libucrt:lcidtoname_downlevel.obj
 0002:00004640       ??_C@_15MNPNEAIF@?$AAe?$AAn@ 10024640     libucrt:lcidtoname_downlevel.obj
 0002:00004648       ??_C@_15GPIOMPMH@?$AAe?$AAs@ 10024648     libucrt:lcidtoname_downlevel.obj
 0002:00004650       ??_C@_15NGLOAKJC@?$AAf?$AAi@ 10024650     libucrt:lcidtoname_downlevel.obj
 0002:00004658       ??_C@_15FBKGNKAM@?$AAf?$AAr@ 10024658     libucrt:lcidtoname_downlevel.obj
 0002:00004660       ??_C@_15KGGCNEFK@?$AAh?$AAe@ 10024660     libucrt:lcidtoname_downlevel.obj
 0002:00004668       ??_C@_15PGHLIDMF@?$AAh?$AAu@ 10024668     libucrt:lcidtoname_downlevel.obj
 0002:00004670       ??_C@_15BIEMAPLM@?$AAi?$AAs@ 10024670     libucrt:lcidtoname_downlevel.obj
 0002:00004678       ??_C@_15IFJLDHAF@?$AAi?$AAt@ 10024678     libucrt:lcidtoname_downlevel.obj
 0002:00004680       ??_C@_15GEMIOCAG@?$AAj?$AAa@ 10024680     libucrt:lcidtoname_downlevel.obj
 0002:00004688       ??_C@_15EPELEGJA@?$AAk?$AAo@ 10024688     libucrt:lcidtoname_downlevel.obj
 0002:00004690       ??_C@_15NDDHIMN@?$AAn?$AAl@ 10024690     libucrt:lcidtoname_downlevel.obj
 0002:00004698       ??_C@_15BPIGNHCD@?$AAn?$AAo@ 10024698     libucrt:lcidtoname_downlevel.obj
 0002:000046a0       ??_C@_15DEOPBLCG@?$AAp?$AAl@ 100246a0     libucrt:lcidtoname_downlevel.obj
 0002:000046a8       ??_C@_15KBECGEFG@?$AAp?$AAt@ 100246a8     libucrt:lcidtoname_downlevel.obj
 0002:000046b0       ??_C@_15GLJCBFMD@?$AAr?$AAo@ 100246b0     libucrt:lcidtoname_downlevel.obj
 0002:000046b8       ??_C@_15FEDGKCDI@?$AAr?$AAu@ 100246b8     libucrt:lcidtoname_downlevel.obj
 0002:000046c0       ??_C@_15GLKMLLHM@?$AAh?$AAr@ 100246c0     libucrt:lcidtoname_downlevel.obj
 0002:000046c8       ??_C@_15CPKMFBDB@?$AAs?$AAk@ 100246c8     libucrt:lcidtoname_downlevel.obj
 0002:000046d0       ??_C@_15BAAIOGMK@?$AAs?$AAq@ 100246d0     libucrt:lcidtoname_downlevel.obj
 0002:000046d8       ??_C@_15INNPNOHD@?$AAs?$AAv@ 100246d8     libucrt:lcidtoname_downlevel.obj
 0002:000046e0       ??_C@_15CABMMOGH@?$AAt?$AAh@ 100246e0     libucrt:lcidtoname_downlevel.obj
 0002:000046e8       ??_C@_15BPLIHJJM@?$AAt?$AAr@ 100246e8     libucrt:lcidtoname_downlevel.obj
 0002:000046f0       ??_C@_15NEOEKKDJ@?$AAu?$AAr@ 100246f0     libucrt:lcidtoname_downlevel.obj
 0002:000046f8       ??_C@_15NFICGAJK@?$AAi?$AAd@ 100246f8     libucrt:lcidtoname_downlevel.obj
 0002:00004700       ??_C@_15PJPFLCCM@?$AAu?$AAk@ 10024700     libucrt:lcidtoname_downlevel.obj
 0002:00004708       ??_C@_15HPJPHDM@?$AAb?$AAe@ 10024708     libucrt:lcidtoname_downlevel.obj
 0002:00004710       ??_C@_15LCHLGJII@?$AAs?$AAl@ 10024710     libucrt:lcidtoname_downlevel.obj
 0002:00004718       ??_C@_15PCFJPHHO@?$AAe?$AAt@ 10024718     libucrt:lcidtoname_downlevel.obj
 0002:00004720       ??_C@_15HPFPGODN@?$AAl?$AAv@ 10024720     libucrt:lcidtoname_downlevel.obj
 0002:00004728       ??_C@_15NFFGKGLG@?$AAl?$AAt@ 10024728     libucrt:lcidtoname_downlevel.obj
 0002:00004730       ??_C@_15BDAKCCHN@?$AAf?$AAa@ 10024730     libucrt:lcidtoname_downlevel.obj
 0002:00004738       ??_C@_15NFGIAIAJ@?$AAv?$AAi@ 10024738     libucrt:lcidtoname_downlevel.obj
 0002:00004740       ??_C@_15LMKNDMHN@?$AAh?$AAy@ 10024740     libucrt:lcidtoname_downlevel.obj
 0002:00004748       ??_C@_15IJBHMCFL@?$AAa?$AAz@ 10024748     libucrt:lcidtoname_downlevel.obj
 0002:00004750       ??_C@_15EKOFJABL@?$AAe?$AAu@ 10024750     libucrt:lcidtoname_downlevel.obj
 0002:00004758       ??_C@_15BGHADCNK@?$AAm?$AAk@ 10024758     libucrt:lcidtoname_downlevel.obj
 0002:00004760       ??_C@_15JDNICKHM@?$AAa?$AAf@ 10024760     libucrt:lcidtoname_downlevel.obj
 0002:00004768       ??_C@_15KPJEDBKD@?$AAk?$AAa@ 10024768     libucrt:lcidtoname_downlevel.obj
 0002:00004770       ??_C@_15PDNFFFEO@?$AAf?$AAo@ 10024770     libucrt:lcidtoname_downlevel.obj
 0002:00004778       ??_C@_15OMLEGLOC@?$AAh?$AAi@ 10024778     libucrt:lcidtoname_downlevel.obj
 0002:00004780       ??_C@_15IDNNENKK@?$AAm?$AAs@ 10024780     libucrt:lcidtoname_downlevel.obj
 0002:00004788       ??_C@_15MACJNBMH@?$AAk?$AAk@ 10024788     libucrt:lcidtoname_downlevel.obj
 0002:00004790       ??_C@_15DKDJEOND@?$AAk?$AAy@ 10024790     libucrt:lcidtoname_downlevel.obj
 0002:00004798       ??_C@_15DFGDLJBG@?$AAs?$AAw@ 10024798     libucrt:lcidtoname_downlevel.obj
 0002:000047a0       ??_C@_15BBFAICNG@?$AAu?$AAz@ 100247a0     libucrt:lcidtoname_downlevel.obj
 0002:000047a8       ??_C@_15DKNDCGEA@?$AAt?$AAt@ 100247a8     libucrt:lcidtoname_downlevel.obj
 0002:000047b0       ??_C@_15MGIFMDPL@?$AAp?$AAa@ 100247b0     libucrt:lcidtoname_downlevel.obj
 0002:000047b8       ??_C@_15HCNDBBA@?$AAg?$AAu@ 100247b8     libucrt:lcidtoname_downlevel.obj
 0002:000047c0       ??_C@_15FNBEIBON@?$AAt?$AAa@ 100247c0     libucrt:lcidtoname_downlevel.obj
 0002:000047c8       ??_C@_15NCHGBGLK@?$AAt?$AAe@ 100247c8     libucrt:lcidtoname_downlevel.obj
 0002:000047d0       ??_C@_15PHPHCBPF@?$AAk?$AAn@ 100247d0     libucrt:lcidtoname_downlevel.obj
 0002:000047d8       ??_C@_15DLGBCKMP@?$AAm?$AAr@ 100247d8     libucrt:lcidtoname_downlevel.obj
 0002:000047e0       ??_C@_15EABBLBFF@?$AAs?$AAa@ 100247e0     libucrt:lcidtoname_downlevel.obj
 0002:000047e8       ??_C@_15CBKOMCOI@?$AAm?$AAn@ 100247e8     libucrt:lcidtoname_downlevel.obj
 0002:000047f0       ??_C@_15CKDMCJAF@?$AAg?$AAl@ 100247f0     libucrt:lcidtoname_downlevel.obj
 0002:000047f8       ??_C@_17CNJFBPG@?$AAk?$AAo?$AAk@ 100247f8     libucrt:lcidtoname_downlevel.obj
 0002:00004800       ??_C@_17FFBJICPL@?$AAs?$AAy?$AAr@ 10024800     libucrt:lcidtoname_downlevel.obj
 0002:00004808       ??_C@_17KPNDCPAF@?$AAd?$AAi?$AAv@ 10024808     libucrt:lcidtoname_downlevel.obj
 0002:00004810       ??_C@_1M@OKAHONE@?$AAa?$AAr?$AA?9?$AAS?$AAA@ 10024810     libucrt:lcidtoname_downlevel.obj
 0002:0000481c       ??_C@_1M@FFFIGIGK@?$AAb?$AAg?$AA?9?$AAB?$AAG@ 1002481c     libucrt:lcidtoname_downlevel.obj
 0002:00004828       ??_C@_1M@BJNKEDC@?$AAc?$AAa?$AA?9?$AAE?$AAS@ 10024828     libucrt:lcidtoname_downlevel.obj
 0002:00004834       ??_C@_1M@IJJHFJHA@?$AAc?$AAs?$AA?9?$AAC?$AAZ@ 10024834     libucrt:lcidtoname_downlevel.obj
 0002:00004840       ??_C@_1M@CLPEOBGI@?$AAd?$AAa?$AA?9?$AAD?$AAK@ 10024840     libucrt:lcidtoname_downlevel.obj
 0002:0000484c       ??_C@_1M@MCMADGCB@?$AAd?$AAe?$AA?9?$AAD?$AAE@ 1002484c     libucrt:lcidtoname_downlevel.obj
 0002:00004858       ??_C@_1M@OOCKEMAM@?$AAe?$AAl?$AA?9?$AAG?$AAR@ 10024858     libucrt:lcidtoname_downlevel.obj
 0002:00004864       ??_C@_1M@DDNJFGID@?$AAf?$AAi?$AA?9?$AAF?$AAI@ 10024864     libucrt:lcidtoname_downlevel.obj
 0002:00004870       ??_C@_1M@GLIPPMAC@?$AAf?$AAr?$AA?9?$AAF?$AAR@ 10024870     libucrt:lcidtoname_downlevel.obj
 0002:0000487c       ??_C@_1M@GFMCHPE@?$AAh?$AAe?$AA?9?$AAI?$AAL@ 1002487c     libucrt:lcidtoname_downlevel.obj
 0002:00004888       ??_C@_1M@MHLPGNKM@?$AAh?$AAu?$AA?9?$AAH?$AAU@ 10024888     libucrt:lcidtoname_downlevel.obj
 0002:00004894       ??_C@_1M@LPDDNNPN@?$AAi?$AAs?$AA?9?$AAI?$AAS@ 10024894     libucrt:lcidtoname_downlevel.obj
 0002:000048a0       ??_C@_1M@MADIPODN@?$AAi?$AAt?$AA?9?$AAI?$AAT@ 100248a0     libucrt:lcidtoname_downlevel.obj
 0002:000048ac       ??_C@_1M@IHBJJGG@?$AAn?$AAl?$AA?9?$AAN?$AAL@ 100248ac     libucrt:lcidtoname_downlevel.obj
 0002:000048b8       ??_C@_1M@EANAGDL@?$AAn?$AAb?$AA?9?$AAN?$AAO@ 100248b8     libucrt:lcidtoname_downlevel.obj
 0002:000048c4       ??_C@_1M@NEIEMEGP@?$AAp?$AAl?$AA?9?$AAP?$AAL@ 100248c4     libucrt:lcidtoname_downlevel.obj
 0002:000048d0       ??_C@_1M@BOCFIGEP@?$AAp?$AAt?$AA?9?$AAB?$AAR@ 100248d0     libucrt:lcidtoname_downlevel.obj
 0002:000048dc       ??_C@_1M@IMPFOPBG@?$AAr?$AAo?$AA?9?$AAR?$AAO@ 100248dc     libucrt:lcidtoname_downlevel.obj
 0002:000048e8       ??_C@_1M@IDNNEJMM@?$AAr?$AAu?$AA?9?$AAR?$AAU@ 100248e8     libucrt:lcidtoname_downlevel.obj
 0002:000048f4       ??_C@_1M@LILEEOGM@?$AAh?$AAr?$AA?9?$AAH?$AAR@ 100248f4     libucrt:lcidtoname_downlevel.obj
 0002:00004900       ??_C@_1M@FKIFEHPB@?$AAs?$AAk?$AA?9?$AAS?$AAK@ 10024900     libucrt:lcidtoname_downlevel.obj
 0002:0000490c       ??_C@_1M@LJMAMNPJ@?$AAs?$AAq?$AA?9?$AAA?$AAL@ 1002490c     libucrt:lcidtoname_downlevel.obj
 0002:00004918       ??_C@_1M@GIAKDKJK@?$AAs?$AAv?$AA?9?$AAS?$AAE@ 10024918     libucrt:lcidtoname_downlevel.obj
 0002:00004924       ??_C@_1M@MKJKIKCL@?$AAt?$AAh?$AA?9?$AAT?$AAH@ 10024924     libucrt:lcidtoname_downlevel.obj
 0002:00004930       ??_C@_1M@MFLCCMPB@?$AAt?$AAr?$AA?9?$AAT?$AAR@ 10024930     libucrt:lcidtoname_downlevel.obj
 0002:0000493c       ??_C@_1M@OIJHDKJN@?$AAu?$AAr?$AA?9?$AAP?$AAK@ 1002493c     libucrt:lcidtoname_downlevel.obj
 0002:00004948       ??_C@_1M@LHIPCIEK@?$AAi?$AAd?$AA?9?$AAI?$AAD@ 10024948     libucrt:lcidtoname_downlevel.obj
 0002:00004954       ??_C@_1M@MFMOBGI@?$AAu?$AAk?$AA?9?$AAU?$AAA@ 10024954     libucrt:lcidtoname_downlevel.obj
 0002:00004960       ??_C@_1M@OBGLJIPL@?$AAb?$AAe?$AA?9?$AAB?$AAY@ 10024960     libucrt:lcidtoname_downlevel.obj
 0002:0000496c       ??_C@_1M@BCFAJEAD@?$AAs?$AAl?$AA?9?$AAS?$AAI@ 1002496c     libucrt:lcidtoname_downlevel.obj
 0002:00004978       ??_C@_1M@FKFFEDDN@?$AAe?$AAt?$AA?9?$AAE?$AAE@ 10024978     libucrt:lcidtoname_downlevel.obj
 0002:00004984       ??_C@_1M@KGKKAACI@?$AAl?$AAv?$AA?9?$AAL?$AAV@ 10024984     libucrt:lcidtoname_downlevel.obj
 0002:00004990       ??_C@_1M@IFGBIJO@?$AAl?$AAt?$AA?9?$AAL?$AAT@ 10024990     libucrt:lcidtoname_downlevel.obj
 0002:0000499c       ??_C@_1M@FGEAHEDM@?$AAf?$AAa?$AA?9?$AAI?$AAR@ 1002499c     libucrt:lcidtoname_downlevel.obj
 0002:000049a8       ??_C@_1M@KBMAIBFN@?$AAv?$AAi?$AA?9?$AAV?$AAN@ 100249a8     libucrt:lcidtoname_downlevel.obj
 0002:000049b4       ??_C@_1M@GPCBKDJK@?$AAh?$AAy?$AA?9?$AAA?$AAM@ 100249b4     libucrt:lcidtoname_downlevel.obj
 0002:000049c0       ??_C@_1BG@BECMDDJB@?$AAa?$AAz?$AA?9?$AAA?$AAZ?$AA?9?$AAL?$AAa?$AAt?$AAn@ 100249c0     libucrt:lcidtoname_downlevel.obj
 0002:000049d8       ??_C@_1M@MAOFCAEA@?$AAe?$AAu?$AA?9?$AAE?$AAS@ 100249d8     libucrt:lcidtoname_downlevel.obj
 0002:000049e4       ??_C@_1M@IGHABKPI@?$AAm?$AAk?$AA?9?$AAM?$AAK@ 100249e4     libucrt:lcidtoname_downlevel.obj
 0002:000049f0       ??_C@_1M@IAIGNEJG@?$AAt?$AAn?$AA?9?$AAZ?$AAA@ 100249f0     libucrt:lcidtoname_downlevel.obj
 0002:000049fc       ??_C@_1M@IIJCOJFA@?$AAx?$AAh?$AA?9?$AAZ?$AAA@ 100249fc     libucrt:lcidtoname_downlevel.obj
 0002:00004a08       ??_C@_1M@LGPJHNJH@?$AAz?$AAu?$AA?9?$AAZ?$AAA@ 10024a08     libucrt:lcidtoname_downlevel.obj
 0002:00004a14       ??_C@_1M@HOKAOIO@?$AAa?$AAf?$AA?9?$AAZ?$AAA@ 10024a14     libucrt:lcidtoname_downlevel.obj
 0002:00004a20       ??_C@_1M@DPCLHLIE@?$AAk?$AAa?$AA?9?$AAG?$AAE@ 10024a20     libucrt:lcidtoname_downlevel.obj
 0002:00004a2c       ??_C@_1M@BLKMHJBI@?$AAf?$AAo?$AA?9?$AAF?$AAO@ 10024a2c     libucrt:lcidtoname_downlevel.obj
 0002:00004a38       ??_C@_1M@LGGJAPPB@?$AAh?$AAi?$AA?9?$AAI?$AAN@ 10024a38     libucrt:lcidtoname_downlevel.obj
 0002:00004a44       ??_C@_1M@FIKPIHFE@?$AAm?$AAt?$AA?9?$AAM?$AAT@ 10024a44     libucrt:lcidtoname_downlevel.obj
 0002:00004a50       ??_C@_1M@HEGGPBFA@?$AAs?$AAe?$AA?9?$AAN?$AAO@ 10024a50     libucrt:lcidtoname_downlevel.obj
 0002:00004a5c       ??_C@_1M@EIBJEEPA@?$AAm?$AAs?$AA?9?$AAM?$AAY@ 10024a5c     libucrt:lcidtoname_downlevel.obj
 0002:00004a68       ??_C@_1M@FHLBGMPP@?$AAk?$AAk?$AA?9?$AAK?$AAZ@ 10024a68     libucrt:lcidtoname_downlevel.obj
 0002:00004a74       ??_C@_1M@NGJJLCGI@?$AAk?$AAy?$AA?9?$AAK?$AAG@ 10024a74     libucrt:lcidtoname_downlevel.obj
 0002:00004a80       ??_C@_1M@GIENNBFC@?$AAs?$AAw?$AA?9?$AAK?$AAE@ 10024a80     libucrt:lcidtoname_downlevel.obj
 0002:00004a8c       ??_C@_1BG@NDGMJIMJ@?$AAu?$AAz?$AA?9?$AAU?$AAZ?$AA?9?$AAL?$AAa?$AAt?$AAn@ 10024a8c     libucrt:lcidtoname_downlevel.obj
 0002:00004aa4       ??_C@_1M@IDCCIHBC@?$AAt?$AAt?$AA?9?$AAR?$AAU@ 10024aa4     libucrt:lcidtoname_downlevel.obj
 0002:00004ab0       ??_C@_1M@LOICPMOJ@?$AAb?$AAn?$AA?9?$AAI?$AAN@ 10024ab0     libucrt:lcidtoname_downlevel.obj
 0002:00004abc       ??_C@_1M@KPKKNEAH@?$AAp?$AAa?$AA?9?$AAI?$AAN@ 10024abc     libucrt:lcidtoname_downlevel.obj
 0002:00004ac8       ??_C@_1M@PJGPPBOG@?$AAg?$AAu?$AA?9?$AAI?$AAN@ 10024ac8     libucrt:lcidtoname_downlevel.obj
 0002:00004ad4       ??_C@_1M@KMKMOPHI@?$AAt?$AAa?$AA?9?$AAI?$AAN@ 10024ad4     libucrt:lcidtoname_downlevel.obj
 0002:00004ae0       ??_C@_1M@KFEHEPAC@?$AAt?$AAe?$AA?9?$AAI?$AAN@ 10024ae0     libucrt:lcidtoname_downlevel.obj
 0002:00004aec       ??_C@_1M@CDCLMGHI@?$AAk?$AAn?$AA?9?$AAI?$AAN@ 10024aec     libucrt:lcidtoname_downlevel.obj
 0002:00004af8       ??_C@_1M@MIODLDKF@?$AAm?$AAl?$AA?9?$AAI?$AAN@ 10024af8     libucrt:lcidtoname_downlevel.obj
 0002:00004b04       ??_C@_1M@PBIEACPO@?$AAm?$AAr?$AA?9?$AAI?$AAN@ 10024b04     libucrt:lcidtoname_downlevel.obj
 0002:00004b10       ??_C@_1M@NIDEAGPH@?$AAs?$AAa?$AA?9?$AAI?$AAN@ 10024b10     libucrt:lcidtoname_downlevel.obj
 0002:00004b1c       ??_C@_1M@FHIHCBIO@?$AAm?$AAn?$AA?9?$AAM?$AAN@ 10024b1c     libucrt:lcidtoname_downlevel.obj
 0002:00004b28       ??_C@_1M@JAIJPENP@?$AAc?$AAy?$AA?9?$AAG?$AAB@ 10024b28     libucrt:lcidtoname_downlevel.obj
 0002:00004b34       ??_C@_1M@PHGFBEPN@?$AAg?$AAl?$AA?9?$AAE?$AAS@ 10024b34     libucrt:lcidtoname_downlevel.obj
 0002:00004b40       ??_C@_1O@KPIPDNCP@?$AAk?$AAo?$AAk?$AA?9?$AAI?$AAN@ 10024b40     libucrt:lcidtoname_downlevel.obj
 0002:00004b50       ??_C@_1O@KNHJLDJA@?$AAs?$AAy?$AAr?$AA?9?$AAS?$AAY@ 10024b50     libucrt:lcidtoname_downlevel.obj
 0002:00004b60       ??_C@_1O@MKEKBLAH@?$AAd?$AAi?$AAv?$AA?9?$AAM?$AAV@ 10024b60     libucrt:lcidtoname_downlevel.obj
 0002:00004b70       ??_C@_1O@OHDCKDDF@?$AAq?$AAu?$AAz?$AA?9?$AAB?$AAO@ 10024b70     libucrt:lcidtoname_downlevel.obj
 0002:00004b80       ??_C@_1M@LEPJNLFD@?$AAn?$AAs?$AA?9?$AAZ?$AAA@ 10024b80     libucrt:lcidtoname_downlevel.obj
 0002:00004b8c       ??_C@_1M@OMLEIIJB@?$AAm?$AAi?$AA?9?$AAN?$AAZ@ 10024b8c     libucrt:lcidtoname_downlevel.obj
 0002:00004b98       ??_C@_1M@PMPEAILG@?$AAa?$AAr?$AA?9?$AAI?$AAQ@ 10024b98     libucrt:lcidtoname_downlevel.obj
 0002:00004ba4       ??_C@_1M@CNKPNOEE@?$AAd?$AAe?$AA?9?$AAC?$AAH@ 10024ba4     libucrt:lcidtoname_downlevel.obj
 0002:00004bb0       ??_C@_1M@LKMGMLKO@?$AAe?$AAn?$AA?9?$AAG?$AAB@ 10024bb0     libucrt:lcidtoname_downlevel.obj
 0002:00004bbc       ??_C@_1M@PGKJFFGL@?$AAe?$AAs?$AA?9?$AAM?$AAX@ 10024bbc     libucrt:lcidtoname_downlevel.obj
 0002:00004bc8       ??_C@_1M@DNNANBDC@?$AAf?$AAr?$AA?9?$AAB?$AAE@ 10024bc8     libucrt:lcidtoname_downlevel.obj
 0002:00004bd4       ??_C@_1M@HLGMDFHM@?$AAi?$AAt?$AA?9?$AAC?$AAH@ 10024bd4     libucrt:lcidtoname_downlevel.obj
 0002:00004be0       ??_C@_1M@CLLBGJH@?$AAn?$AAl?$AA?9?$AAB?$AAE@ 10024be0     libucrt:lcidtoname_downlevel.obj
 0002:00004bec       ??_C@_1M@BODBOGLF@?$AAn?$AAn?$AA?9?$AAN?$AAO@ 10024bec     libucrt:lcidtoname_downlevel.obj
 0002:00004bf8       ??_C@_1M@HFFAHKAD@?$AAp?$AAt?$AA?9?$AAP?$AAT@ 10024bf8     libucrt:lcidtoname_downlevel.obj
 0002:00004c04       ??_C@_1BG@LNOAKHIE@?$AAs?$AAr?$AA?9?$AAS?$AAP?$AA?9?$AAL?$AAa?$AAt?$AAn@ 10024c04     libucrt:lcidtoname_downlevel.obj
 0002:00004c1c       ??_C@_1M@HBMHBGAK@?$AAs?$AAv?$AA?9?$AAF?$AAI@ 10024c1c     libucrt:lcidtoname_downlevel.obj
 0002:00004c28       ??_C@_1BG@DGCJGJBE@?$AAa?$AAz?$AA?9?$AAA?$AAZ?$AA?9?$AAC?$AAy?$AAr?$AAl@ 10024c28     libucrt:lcidtoname_downlevel.obj
 0002:00004c40       ??_C@_1M@KEJDAAHB@?$AAs?$AAe?$AA?9?$AAS?$AAE@ 10024c40     libucrt:lcidtoname_downlevel.obj
 0002:00004c4c       ??_C@_1M@HEIBJJAD@?$AAm?$AAs?$AA?9?$AAB?$AAN@ 10024c4c     libucrt:lcidtoname_downlevel.obj
 0002:00004c58       ??_C@_1BG@PBGJMCEM@?$AAu?$AAz?$AA?9?$AAU?$AAZ?$AA?9?$AAC?$AAy?$AAr?$AAl@ 10024c58     libucrt:lcidtoname_downlevel.obj
 0002:00004c70       ??_C@_1O@LAOBCMDF@?$AAq?$AAu?$AAz?$AA?9?$AAE?$AAC@ 10024c70     libucrt:lcidtoname_downlevel.obj
 0002:00004c80       ??_C@_1M@POEEMAIO@?$AAa?$AAr?$AA?9?$AAE?$AAG@ 10024c80     libucrt:lcidtoname_downlevel.obj
 0002:00004c8c       ??_C@_1M@EFAKDEDL@?$AAz?$AAh?$AA?9?$AAH?$AAK@ 10024c8c     libucrt:lcidtoname_downlevel.obj
 0002:00004c98       ??_C@_1M@HKKIJHGI@?$AAd?$AAe?$AA?9?$AAA?$AAT@ 10024c98     libucrt:lcidtoname_downlevel.obj
 0002:00004ca4       ??_C@_1M@KBFBEHJF@?$AAe?$AAn?$AA?9?$AAA?$AAU@ 10024ca4     libucrt:lcidtoname_downlevel.obj
 0002:00004cb0       ??_C@_1M@MNPLFAAH@?$AAe?$AAs?$AA?9?$AAE?$AAS@ 10024cb0     libucrt:lcidtoname_downlevel.obj
 0002:00004cbc       ??_C@_1M@HJOOJFMA@?$AAf?$AAr?$AA?9?$AAC?$AAA@ 10024cbc     libucrt:lcidtoname_downlevel.obj
 0002:00004cc8       ??_C@_1BG@JPOFPNAB@?$AAs?$AAr?$AA?9?$AAS?$AAP?$AA?9?$AAC?$AAy?$AAr?$AAl@ 10024cc8     libucrt:lcidtoname_downlevel.obj
 0002:00004ce0       ??_C@_1M@LNFOCMOB@?$AAs?$AAe?$AA?9?$AAF?$AAI@ 10024ce0     libucrt:lcidtoname_downlevel.obj
 0002:00004cec       ??_C@_1O@MGJBOAMB@?$AAq?$AAu?$AAz?$AA?9?$AAP?$AAE@ 10024cec     libucrt:lcidtoname_downlevel.obj
 0002:00004cfc       ??_C@_1M@GJINLBOK@?$AAa?$AAr?$AA?9?$AAL?$AAY@ 10024cfc     libucrt:lcidtoname_downlevel.obj
 0002:00004d08       ??_C@_1M@GGMNHJNL@?$AAz?$AAh?$AA?9?$AAS?$AAG@ 10024d08     libucrt:lcidtoname_downlevel.obj
 0002:00004d14       ??_C@_1M@HOIKODND@?$AAd?$AAe?$AA?9?$AAL?$AAU@ 10024d14     libucrt:lcidtoname_downlevel.obj
 0002:00004d20       ??_C@_1M@DDOCCGFG@?$AAe?$AAn?$AA?9?$AAC?$AAA@ 10024d20     libucrt:lcidtoname_downlevel.obj
 0002:00004d2c       ??_C@_1M@BNOEMJLF@?$AAe?$AAs?$AA?9?$AAG?$AAT@ 10024d2c     libucrt:lcidtoname_downlevel.obj
 0002:00004d38       ??_C@_1M@EOGNKEK@?$AAf?$AAr?$AA?9?$AAC?$AAH@ 10024d38     libucrt:lcidtoname_downlevel.obj
 0002:00004d44       ??_C@_1M@FLIDJFHL@?$AAh?$AAr?$AA?9?$AAB?$AAA@ 10024d44     libucrt:lcidtoname_downlevel.obj
 0002:00004d50       ??_C@_1O@FMCELNAJ@?$AAs?$AAm?$AAj?$AA?9?$AAN?$AAO@ 10024d50     libucrt:lcidtoname_downlevel.obj
 0002:00004d60       ??_C@_1M@JHGLJMGJ@?$AAa?$AAr?$AA?9?$AAD?$AAZ@ 10024d60     libucrt:lcidtoname_downlevel.obj
 0002:00004d6c       ??_C@_1M@JKKFDCNP@?$AAz?$AAh?$AA?9?$AAM?$AAO@ 10024d6c     libucrt:lcidtoname_downlevel.obj
 0002:00004d78       ??_C@_1M@GEEFALPE@?$AAd?$AAe?$AA?9?$AAL?$AAI@ 10024d78     libucrt:lcidtoname_downlevel.obj
 0002:00004d84       ??_C@_1M@IGEOFBG@?$AAe?$AAn?$AA?9?$AAN?$AAZ@ 10024d84     libucrt:lcidtoname_downlevel.obj
 0002:00004d90       ??_C@_1M@KDBONEHP@?$AAe?$AAs?$AA?9?$AAC?$AAR@ 10024d90     libucrt:lcidtoname_downlevel.obj
 0002:00004d9c       ??_C@_1M@FHMDOHNN@?$AAf?$AAr?$AA?9?$AAL?$AAU@ 10024d9c     libucrt:lcidtoname_downlevel.obj
 0002:00004da8       ??_C@_1BG@NFKKMAFG@?$AAb?$AAs?$AA?9?$AAB?$AAA?$AA?9?$AAL?$AAa?$AAt?$AAn@ 10024da8     libucrt:lcidtoname_downlevel.obj
 0002:00004dc0       ??_C@_1O@IMNBEMCI@?$AAs?$AAm?$AAj?$AA?9?$AAS?$AAE@ 10024dc0     libucrt:lcidtoname_downlevel.obj
 0002:00004dd0       ??_C@_1M@DHHMBNDP@?$AAa?$AAr?$AA?9?$AAM?$AAA@ 10024dd0     libucrt:lcidtoname_downlevel.obj
 0002:00004ddc       ??_C@_1M@BNBLJCGH@?$AAe?$AAn?$AA?9?$AAI?$AAE@ 10024ddc     libucrt:lcidtoname_downlevel.obj
 0002:00004de8       ??_C@_1M@GEPAFMDL@?$AAe?$AAs?$AA?9?$AAP?$AAA@ 10024de8     libucrt:lcidtoname_downlevel.obj
 0002:00004df4       ??_C@_1M@OJONDMDL@?$AAf?$AAr?$AA?9?$AAM?$AAC@ 10024df4     libucrt:lcidtoname_downlevel.obj
 0002:00004e00       ??_C@_1BG@OBCNFJB@?$AAs?$AAr?$AA?9?$AAB?$AAA?$AA?9?$AAL?$AAa?$AAt?$AAn@ 10024e00     libucrt:lcidtoname_downlevel.obj
 0002:00004e18       ??_C@_1O@KEMEEGPO@?$AAs?$AAm?$AAa?$AA?9?$AAN?$AAO@ 10024e18     libucrt:lcidtoname_downlevel.obj
 0002:00004e28       ??_C@_1M@ELMGFODK@?$AAa?$AAr?$AA?9?$AAT?$AAN@ 10024e28     libucrt:lcidtoname_downlevel.obj
 0002:00004e34       ??_C@_1M@BHDLHFAF@?$AAe?$AAn?$AA?9?$AAZ?$AAA@ 10024e34     libucrt:lcidtoname_downlevel.obj
 0002:00004e40       ??_C@_1M@BMGIGLIF@?$AAe?$AAs?$AA?9?$AAD?$AAO@ 10024e40     libucrt:lcidtoname_downlevel.obj
 0002:00004e4c       ??_C@_1BG@CMBHIPBE@?$AAs?$AAr?$AA?9?$AAB?$AAA?$AA?9?$AAC?$AAy?$AAr?$AAl@ 10024e4c     libucrt:lcidtoname_downlevel.obj
 0002:00004e64       ??_C@_1O@HEDBLHNP@?$AAs?$AAm?$AAa?$AA?9?$AAS?$AAE@ 10024e64     libucrt:lcidtoname_downlevel.obj
 0002:00004e74       ??_C@_1M@DAGCADIM@?$AAa?$AAr?$AA?9?$AAO?$AAM@ 10024e74     libucrt:lcidtoname_downlevel.obj
 0002:00004e80       ??_C@_1M@FODLMICG@?$AAe?$AAn?$AA?9?$AAJ?$AAM@ 10024e80     libucrt:lcidtoname_downlevel.obj
 0002:00004e8c       ??_C@_1M@DNMLCIHB@?$AAe?$AAs?$AA?9?$AAV?$AAE@ 10024e8c     libucrt:lcidtoname_downlevel.obj
 0002:00004e98       ??_C@_1O@EOKHMKJK@?$AAs?$AAm?$AAs?$AA?9?$AAF?$AAI@ 10024e98     libucrt:lcidtoname_downlevel.obj
 0002:00004ea8       ??_C@_1M@CAFJMKOF@?$AAa?$AAr?$AA?9?$AAY?$AAE@ 10024ea8     libucrt:lcidtoname_downlevel.obj
 0002:00004eb4       ??_C@_1M@CBFHIJLI@?$AAe?$AAn?$AA?9?$AAC?$AAB@ 10024eb4     libucrt:lcidtoname_downlevel.obj
 0002:00004ec0       ??_C@_1M@BGNFLDN@?$AAe?$AAs?$AA?9?$AAC?$AAO@ 10024ec0     libucrt:lcidtoname_downlevel.obj
 0002:00004ecc       ??_C@_1O@JMPHMAMC@?$AAs?$AAm?$AAn?$AA?9?$AAF?$AAI@ 10024ecc     libucrt:lcidtoname_downlevel.obj
 0002:00004edc       ??_C@_1M@JLANABKE@?$AAa?$AAr?$AA?9?$AAS?$AAY@ 10024edc     libucrt:lcidtoname_downlevel.obj
 0002:00004ee8       ??_C@_1M@HPKGCFGN@?$AAe?$AAn?$AA?9?$AAB?$AAZ@ 10024ee8     libucrt:lcidtoname_downlevel.obj
 0002:00004ef4       ??_C@_1M@OLJCMLGM@?$AAe?$AAs?$AA?9?$AAP?$AAE@ 10024ef4     libucrt:lcidtoname_downlevel.obj
 0002:00004f00       ??_C@_1M@MKKGFKLE@?$AAa?$AAr?$AA?9?$AAJ?$AAO@ 10024f00     libucrt:lcidtoname_downlevel.obj
 0002:00004f0c       ??_C@_1M@EKPGLDNI@?$AAe?$AAn?$AA?9?$AAT?$AAT@ 10024f0c     libucrt:lcidtoname_downlevel.obj
 0002:00004f18       ??_C@_1M@OONGHFHE@?$AAe?$AAs?$AA?9?$AAA?$AAR@ 10024f18     libucrt:lcidtoname_downlevel.obj
 0002:00004f24       ??_C@_1M@OOJFGBHE@?$AAa?$AAr?$AA?9?$AAL?$AAB@ 10024f24     libucrt:lcidtoname_downlevel.obj
 0002:00004f30       ??_C@_1M@GCEJHNEG@?$AAe?$AAn?$AA?9?$AAZ?$AAW@ 10024f30     libucrt:lcidtoname_downlevel.obj
 0002:00004f3c       ??_C@_1M@JNOCAHJI@?$AAe?$AAs?$AA?9?$AAE?$AAC@ 10024f3c     libucrt:lcidtoname_downlevel.obj
 0002:00004f48       ??_C@_1M@JEFHPGGB@?$AAa?$AAr?$AA?9?$AAK?$AAW@ 10024f48     libucrt:lcidtoname_downlevel.obj
 0002:00004f54       ??_C@_1M@MLKIBJOJ@?$AAe?$AAn?$AA?9?$AAP?$AAH@ 10024f54     libucrt:lcidtoname_downlevel.obj
 0002:00004f60       ??_C@_1M@BDNIPEND@?$AAe?$AAs?$AA?9?$AAC?$AAL@ 10024f60     libucrt:lcidtoname_downlevel.obj
 0002:00004f6c       ??_C@_1M@MPNMEKBD@?$AAa?$AAr?$AA?9?$AAA?$AAE@ 10024f6c     libucrt:lcidtoname_downlevel.obj
 0002:00004f78       ??_C@_1M@KBJALCPI@?$AAe?$AAs?$AA?9?$AAU?$AAY@ 10024f78     libucrt:lcidtoname_downlevel.obj
 0002:00004f84       ??_C@_1M@LLCCOAGA@?$AAa?$AAr?$AA?9?$AAB?$AAH@ 10024f84     libucrt:lcidtoname_downlevel.obj
 0002:00004f90       ??_C@_1M@PBFNCDEL@?$AAe?$AAs?$AA?9?$AAP?$AAY@ 10024f90     libucrt:lcidtoname_downlevel.obj
 0002:00004f9c       ??_C@_1M@EDGINPNP@?$AAa?$AAr?$AA?9?$AAQ?$AAA@ 10024f9c     libucrt:lcidtoname_downlevel.obj
 0002:00004fa8       ??_C@_1M@MKDBIIJI@?$AAe?$AAs?$AA?9?$AAB?$AAO@ 10024fa8     libucrt:lcidtoname_downlevel.obj
 0002:00004fb4       ??_C@_1M@CPKKEBLD@?$AAe?$AAs?$AA?9?$AAS?$AAV@ 10024fb4     libucrt:lcidtoname_downlevel.obj
 0002:00004fc0       ??_C@_1M@NDBGMMJL@?$AAe?$AAs?$AA?9?$AAH?$AAN@ 10024fc0     libucrt:lcidtoname_downlevel.obj
 0002:00004fcc       ??_C@_1M@JIJIBHDP@?$AAe?$AAs?$AA?9?$AAN?$AAI@ 10024fcc     libucrt:lcidtoname_downlevel.obj
 0002:00004fd8       ??_C@_1M@CGFMKEEK@?$AAe?$AAs?$AA?9?$AAP?$AAR@ 10024fd8     libucrt:lcidtoname_downlevel.obj
 0002:00004fe4       ??_C@_1O@ICJHKIIK@?$AAz?$AAh?$AA?9?$AAC?$AAH?$AAT@ 10024fe4     libucrt:lcidtoname_downlevel.obj
 0002:00004ff4       ??_C@_15CLNEJCE@?$AAs?$AAr@ 10024ff4     libucrt:lcidtoname_downlevel.obj
 0002:00005720       ??_C@_1M@KAHEKEIG@?$AAa?$AAf?$AA?9?$AAz?$AAa@ 10025720     libucrt:lcidtoname_downlevel.obj
 0002:0000572c       ??_C@_1M@GIECOABL@?$AAa?$AAr?$AA?9?$AAa?$AAe@ 1002572c     libucrt:lcidtoname_downlevel.obj
 0002:00005738       ??_C@_1M@BMLMEKGI@?$AAa?$AAr?$AA?9?$AAb?$AAh@ 10025738     libucrt:lcidtoname_downlevel.obj
 0002:00005744       ??_C@_1M@DAPFDGGB@?$AAa?$AAr?$AA?9?$AAd?$AAz@ 10025744     libucrt:lcidtoname_downlevel.obj
 0002:00005750       ??_C@_1M@FJNKGKIG@?$AAa?$AAr?$AA?9?$AAe?$AAg@ 10025750     libucrt:lcidtoname_downlevel.obj
 0002:0000575c       ??_C@_1M@FLGKKCLO@?$AAa?$AAr?$AA?9?$AAi?$AAq@ 1002575c     libucrt:lcidtoname_downlevel.obj
 0002:00005768       ??_C@_1M@GNDIPALM@?$AAa?$AAr?$AA?9?$AAj?$AAo@ 10025768     libucrt:lcidtoname_downlevel.obj
 0002:00005774       ??_C@_1M@DDMJFMGJ@?$AAa?$AAr?$AA?9?$AAk?$AAw@ 10025774     libucrt:lcidtoname_downlevel.obj
 0002:00005780       ??_C@_1M@EJALMLHM@?$AAa?$AAr?$AA?9?$AAl?$AAb@ 10025780     libucrt:lcidtoname_downlevel.obj
 0002:0000578c       ??_C@_1M@MOBDBLOC@?$AAa?$AAr?$AA?9?$AAl?$AAy@ 1002578c     libucrt:lcidtoname_downlevel.obj
 0002:00005798       ??_C@_1M@JAOCLHDH@?$AAa?$AAr?$AA?9?$AAm?$AAa@ 10025798     libucrt:lcidtoname_downlevel.obj
 0002:000057a4       ??_C@_1M@JHPMKJIE@?$AAa?$AAr?$AA?9?$AAo?$AAm@ 100257a4     libucrt:lcidtoname_downlevel.obj
 0002:000057b0       ??_C@_1M@OEPGHFNH@?$AAa?$AAr?$AA?9?$AAq?$AAa@ 100257b0     libucrt:lcidtoname_downlevel.obj
 0002:000057bc       ??_C@_1M@KJDONENM@?$AAa?$AAr?$AA?9?$AAs?$AAa@ 100257bc     libucrt:lcidtoname_downlevel.obj
 0002:000057c8       ??_C@_1M@DMJDKLKM@?$AAa?$AAr?$AA?9?$AAs?$AAy@ 100257c8     libucrt:lcidtoname_downlevel.obj
 0002:000057d4       ??_C@_1M@OMFIPEDC@?$AAa?$AAr?$AA?9?$AAt?$AAn@ 100257d4     libucrt:lcidtoname_downlevel.obj
 0002:000057e0       ??_C@_1M@IHMHGAON@?$AAa?$AAr?$AA?9?$AAy?$AAe@ 100257e0     libucrt:lcidtoname_downlevel.obj
 0002:000057ec       ??_C@_1BG@KDCPGJGB@?$AAa?$AAz?$AA?9?$AAa?$AAz?$AA?9?$AAc?$AAy?$AAr?$AAl@ 100257ec     libucrt:lcidtoname_downlevel.obj
 0002:00005804       ??_C@_1BG@IBCKDDOE@?$AAa?$AAz?$AA?9?$AAa?$AAz?$AA?9?$AAl?$AAa?$AAt?$AAn@ 10025804     libucrt:lcidtoname_downlevel.obj
 0002:0000581c       ??_C@_1M@EGPFDCPD@?$AAb?$AAe?$AA?9?$AAb?$AAy@ 1002581c     libucrt:lcidtoname_downlevel.obj
 0002:00005828       ??_C@_1M@PCMGMCGC@?$AAb?$AAg?$AA?9?$AAb?$AAg@ 10025828     libucrt:lcidtoname_downlevel.obj
 0002:00005834       ??_C@_1M@BJBMFGOB@?$AAb?$AAn?$AA?9?$AAi?$AAn@ 10025834     libucrt:lcidtoname_downlevel.obj
 0002:00005840       ??_C@_1BG@EAKMMACD@?$AAb?$AAs?$AA?9?$AAb?$AAa?$AA?9?$AAl?$AAa?$AAt?$AAn@ 10025840     libucrt:lcidtoname_downlevel.obj
 0002:00005858       ??_C@_1M@KGADAODK@?$AAc?$AAa?$AA?9?$AAe?$AAs@ 10025858     libucrt:lcidtoname_downlevel.obj
 0002:00005864       ??_C@_1M@COAJPDHI@?$AAc?$AAs?$AA?9?$AAc?$AAz@ 10025864     libucrt:lcidtoname_downlevel.obj
 0002:00005870       ??_C@_1M@DHBHFONH@?$AAc?$AAy?$AA?9?$AAg?$AAb@ 10025870     libucrt:lcidtoname_downlevel.obj
 0002:0000587c       ??_C@_1M@IMGKELGA@?$AAd?$AAa?$AA?9?$AAd?$AAk@ 1002587c     libucrt:lcidtoname_downlevel.obj
 0002:00005888       ??_C@_1M@NNDGDNGA@?$AAd?$AAe?$AA?9?$AAa?$AAt@ 10025888     libucrt:lcidtoname_downlevel.obj
 0002:00005894       ??_C@_1M@IKDBHEEM@?$AAd?$AAe?$AA?9?$AAc?$AAh@ 10025894     libucrt:lcidtoname_downlevel.obj
 0002:000058a0       ??_C@_1M@GFFOJMCJ@?$AAd?$AAe?$AA?9?$AAd?$AAe@ 100258a0     libucrt:lcidtoname_downlevel.obj
 0002:000058ac       ??_C@_1M@MDNLKBPM@?$AAd?$AAe?$AA?9?$AAl?$AAi@ 100258ac     libucrt:lcidtoname_downlevel.obj
 0002:000058b8       ??_C@_1M@NJBEEJNL@?$AAd?$AAe?$AA?9?$AAl?$AAu@ 100258b8     libucrt:lcidtoname_downlevel.obj
 0002:000058c4       ??_C@_1O@GNNELBAP@?$AAd?$AAi?$AAv?$AA?9?$AAm?$AAv@ 100258c4     libucrt:lcidtoname_downlevel.obj
 0002:000058d4       ??_C@_1M@EJLEOGAE@?$AAe?$AAl?$AA?9?$AAg?$AAr@ 100258d4     libucrt:lcidtoname_downlevel.obj
 0002:000058e0       ??_C@_1M@GMPONJN@?$AAe?$AAn?$AA?9?$AAa?$AAu@ 100258e0     libucrt:lcidtoname_downlevel.obj
 0002:000058ec       ??_C@_1M@NIDIIPGF@?$AAe?$AAn?$AA?9?$AAb?$AAz@ 100258ec     libucrt:lcidtoname_downlevel.obj
 0002:000058f8       ??_C@_1M@JEHMIMFO@?$AAe?$AAn?$AA?9?$AAc?$AAa@ 100258f8     libucrt:lcidtoname_downlevel.obj
 0002:00005904       ??_C@_1M@IGMJCDLA@?$AAe?$AAn?$AA?9?$AAc?$AAb@ 10025904     libucrt:lcidtoname_downlevel.obj
 0002:00005910       ??_C@_1M@BNFIGBKG@?$AAe?$AAn?$AA?9?$AAg?$AAb@ 10025910     libucrt:lcidtoname_downlevel.obj
 0002:0000591c       ??_C@_1M@LKIFDIGP@?$AAe?$AAn?$AA?9?$AAi?$AAe@ 1002591c     libucrt:lcidtoname_downlevel.obj
 0002:00005928       ??_C@_1M@PJKFGCCO@?$AAe?$AAn?$AA?9?$AAj?$AAm@ 10025928     libucrt:lcidtoname_downlevel.obj
 0002:00005934       ??_C@_1M@KPPKEPBO@?$AAe?$AAn?$AA?9?$AAn?$AAz@ 10025934     libucrt:lcidtoname_downlevel.obj
 0002:00005940       ??_C@_1M@GMDGLDOB@?$AAe?$AAn?$AA?9?$AAp?$AAh@ 10025940     libucrt:lcidtoname_downlevel.obj
 0002:0000594c       ??_C@_1M@ONGIBJNA@?$AAe?$AAn?$AA?9?$AAt?$AAt@ 1002594c     libucrt:lcidtoname_downlevel.obj
 0002:00005958       ??_C@_1M@LLODPCMM@?$AAe?$AAn?$AA?9?$AAu?$AAs@ 10025958     libucrt:lcidtoname_downlevel.obj
 0002:00005964       ??_C@_1M@LAKFNPAN@?$AAe?$AAn?$AA?9?$AAz?$AAa@ 10025964     libucrt:lcidtoname_downlevel.obj
 0002:00005970       ??_C@_1M@MFNHNHEO@?$AAe?$AAn?$AA?9?$AAz?$AAw@ 10025970     libucrt:lcidtoname_downlevel.obj
 0002:0000597c       ??_C@_1M@EJEINPHM@?$AAe?$AAs?$AA?9?$AAa?$AAr@ 1002597c     libucrt:lcidtoname_downlevel.obj
 0002:00005988       ??_C@_1M@GNKPCCJA@?$AAe?$AAs?$AA?9?$AAb?$AAo@ 10025988     libucrt:lcidtoname_downlevel.obj
 0002:00005994       ??_C@_1M@LEEGFONL@?$AAe?$AAs?$AA?9?$AAc?$AAl@ 10025994     libucrt:lcidtoname_downlevel.obj
 0002:000059a0       ??_C@_1M@KGPDPBDF@?$AAe?$AAs?$AA?9?$AAc?$AAo@ 100259a0     libucrt:lcidtoname_downlevel.obj
 0002:000059ac       ??_C@_1M@EIAHOHH@?$AAe?$AAs?$AA?9?$AAc?$AAr@ 100259ac     libucrt:lcidtoname_downlevel.obj
 0002:000059b8       ??_C@_1M@LLPGMBIN@?$AAe?$AAs?$AA?9?$AAd?$AAo@ 100259b8     libucrt:lcidtoname_downlevel.obj
 0002:000059c4       ??_C@_1M@DKHMKNJA@?$AAe?$AAs?$AA?9?$AAe?$AAc@ 100259c4     libucrt:lcidtoname_downlevel.obj
 0002:000059d0       ??_C@_1M@GKGFPKAP@?$AAe?$AAs?$AA?9?$AAe?$AAs@ 100259d0     libucrt:lcidtoname_downlevel.obj
 0002:000059dc       ??_C@_1M@LKHKGDLN@?$AAe?$AAs?$AA?9?$AAg?$AAt@ 100259dc     libucrt:lcidtoname_downlevel.obj
 0002:000059e8       ??_C@_1M@HEIIGGJD@?$AAe?$AAs?$AA?9?$AAh?$AAn@ 100259e8     libucrt:lcidtoname_downlevel.obj
 0002:000059f4       ??_C@_1M@FBDHPPGD@?$AAe?$AAs?$AA?9?$AAm?$AAx@ 100259f4     libucrt:lcidtoname_downlevel.obj
 0002:00005a00       ??_C@_1M@DPAGLNDH@?$AAe?$AAs?$AA?9?$AAn?$AAi@ 10025a00     libucrt:lcidtoname_downlevel.obj
 0002:00005a0c       ??_C@_1M@MDGOPGDD@?$AAe?$AAs?$AA?9?$AAp?$AAa@ 10025a0c     libucrt:lcidtoname_downlevel.obj
 0002:00005a18       ??_C@_1M@EMAMGBGE@?$AAe?$AAs?$AA?9?$AAp?$AAe@ 10025a18     libucrt:lcidtoname_downlevel.obj
 0002:00005a24       ??_C@_1M@IBMCAOEC@?$AAe?$AAs?$AA?9?$AAp?$AAr@ 10025a24     libucrt:lcidtoname_downlevel.obj
 0002:00005a30       ??_C@_1M@FGMDIJED@?$AAe?$AAs?$AA?9?$AAp?$AAy@ 10025a30     libucrt:lcidtoname_downlevel.obj
 0002:00005a3c       ??_C@_1M@IIDEOLLL@?$AAe?$AAs?$AA?9?$AAs?$AAv@ 10025a3c     libucrt:lcidtoname_downlevel.obj
 0002:00005a48       ??_C@_1M@GAOBIPA@?$AAe?$AAs?$AA?9?$AAu?$AAy@ 10025a48     libucrt:lcidtoname_downlevel.obj
 0002:00005a54       ??_C@_1M@JKFFICHJ@?$AAe?$AAs?$AA?9?$AAv?$AAe@ 10025a54     libucrt:lcidtoname_downlevel.obj
 0002:00005a60       ??_C@_1M@PNMLOJDF@?$AAe?$AAt?$AA?9?$AAe?$AAe@ 10025a60     libucrt:lcidtoname_downlevel.obj
 0002:00005a6c       ??_C@_1M@GHHLIKEI@?$AAe?$AAu?$AA?9?$AAe?$AAs@ 10025a6c     libucrt:lcidtoname_downlevel.obj
 0002:00005a78       ??_C@_1M@PBNONODE@?$AAf?$AAa?$AA?9?$AAi?$AAr@ 10025a78     libucrt:lcidtoname_downlevel.obj
 0002:00005a84       ??_C@_1M@JEEHPMIL@?$AAf?$AAi?$AA?9?$AAf?$AAi@ 10025a84     libucrt:lcidtoname_downlevel.obj
 0002:00005a90       ??_C@_1M@LMDCNDBA@?$AAf?$AAo?$AA?9?$AAf?$AAo@ 10025a90     libucrt:lcidtoname_downlevel.obj
 0002:00005a9c       ??_C@_1M@JKEOHLDK@?$AAf?$AAr?$AA?9?$AAb?$AAe@ 10025a9c     libucrt:lcidtoname_downlevel.obj
 0002:00005aa8       ??_C@_1M@NOHADPMI@?$AAf?$AAr?$AA?9?$AAc?$AAa@ 10025aa8     libucrt:lcidtoname_downlevel.obj
 0002:00005ab4       ??_C@_1M@KDHIHAEC@?$AAf?$AAr?$AA?9?$AAc?$AAh@ 10025ab4     libucrt:lcidtoname_downlevel.obj
 0002:00005ac0       ??_C@_1M@MMBBFGAK@?$AAf?$AAr?$AA?9?$AAf?$AAr@ 10025ac0     libucrt:lcidtoname_downlevel.obj
 0002:00005acc       ??_C@_1M@PAFNENNF@?$AAf?$AAr?$AA?9?$AAl?$AAu@ 10025acc     libucrt:lcidtoname_downlevel.obj
 0002:00005ad8       ??_C@_1M@EOHDJGDD@?$AAf?$AAr?$AA?9?$AAm?$AAc@ 10025ad8     libucrt:lcidtoname_downlevel.obj
 0002:00005ae4       ??_C@_1M@FAPLLOPF@?$AAg?$AAl?$AA?9?$AAe?$AAs@ 10025ae4     libucrt:lcidtoname_downlevel.obj
 0002:00005af0       ??_C@_1M@FOPBFLOO@?$AAg?$AAu?$AA?9?$AAi?$AAn@ 10025af0     libucrt:lcidtoname_downlevel.obj
 0002:00005afc       ??_C@_1M@KBMCINPM@?$AAh?$AAe?$AA?9?$AAi?$AAl@ 10025afc     libucrt:lcidtoname_downlevel.obj
 0002:00005b08       ??_C@_1M@BBPHKFPJ@?$AAh?$AAi?$AA?9?$AAi?$AAn@ 10025b08     libucrt:lcidtoname_downlevel.obj
 0002:00005b14       ??_C@_1M@PMBNDPHD@?$AAh?$AAr?$AA?9?$AAb?$AAa@ 10025b14     libucrt:lcidtoname_downlevel.obj
 0002:00005b20       ??_C@_1M@BPCKOEGE@?$AAh?$AAr?$AA?9?$AAh?$AAr@ 10025b20     libucrt:lcidtoname_downlevel.obj
 0002:00005b2c       ??_C@_1M@GACBMHKE@?$AAh?$AAu?$AA?9?$AAh?$AAu@ 10025b2c     libucrt:lcidtoname_downlevel.obj
 0002:00005b38       ??_C@_1M@MILPAJJC@?$AAh?$AAy?$AA?9?$AAa?$AAm@ 10025b38     libucrt:lcidtoname_downlevel.obj
 0002:00005b44       ??_C@_1M@BABBICEC@?$AAi?$AAd?$AA?9?$AAi?$AAd@ 10025b44     libucrt:lcidtoname_downlevel.obj
 0002:00005b50       ??_C@_1M@BIKNHHPF@?$AAi?$AAs?$AA?9?$AAi?$AAs@ 10025b50     libucrt:lcidtoname_downlevel.obj
 0002:00005b5c       ??_C@_1M@NMPCJPHE@?$AAi?$AAt?$AA?9?$AAc?$AAh@ 10025b5c     libucrt:lcidtoname_downlevel.obj
 0002:00005b68       ??_C@_1M@GHKGFEDF@?$AAi?$AAt?$AA?9?$AAi?$AAt@ 10025b68     libucrt:lcidtoname_downlevel.obj
 0002:00005b74       ??_C@_1M@NIEJCJJA@?$AAj?$AAa?$AA?9?$AAj?$AAp@ 10025b74     libucrt:lcidtoname_downlevel.obj
 0002:00005b80       ??_C@_1M@JILFNBIM@?$AAk?$AAa?$AA?9?$AAg?$AAe@ 10025b80     libucrt:lcidtoname_downlevel.obj
 0002:00005b8c       ??_C@_1M@PACPMGPH@?$AAk?$AAk?$AA?9?$AAk?$AAz@ 10025b8c     libucrt:lcidtoname_downlevel.obj
 0002:00005b98       ??_C@_1M@IELFGMHA@?$AAk?$AAn?$AA?9?$AAi?$AAn@ 10025b98     libucrt:lcidtoname_downlevel.obj
 0002:00005ba4       ??_C@_1O@IBBJHCH@?$AAk?$AAo?$AAk?$AA?9?$AAi?$AAn@ 10025ba4     libucrt:lcidtoname_downlevel.obj
 0002:00005bb4       ??_C@_1M@DMHAEOGC@?$AAk?$AAo?$AA?9?$AAk?$AAr@ 10025bb4     libucrt:lcidtoname_downlevel.obj
 0002:00005bc0       ??_C@_1M@HBAHBIGA@?$AAk?$AAy?$AA?9?$AAk?$AAg@ 10025bc0     libucrt:lcidtoname_downlevel.obj
 0002:00005bcc       ??_C@_1M@KPMILCJG@?$AAl?$AAt?$AA?9?$AAl?$AAt@ 10025bcc     libucrt:lcidtoname_downlevel.obj
 0002:00005bd8       ??_C@_1M@BDEKKCA@?$AAl?$AAv?$AA?9?$AAl?$AAv@ 10025bd8     libucrt:lcidtoname_downlevel.obj
 0002:00005be4       ??_C@_1M@ELCKCCJJ@?$AAm?$AAi?$AA?9?$AAn?$AAz@ 10025be4     libucrt:lcidtoname_downlevel.obj
 0002:00005bf0       ??_C@_1M@CBOOLAPA@?$AAm?$AAk?$AA?9?$AAm?$AAk@ 10025bf0     libucrt:lcidtoname_downlevel.obj
 0002:00005bfc       ??_C@_1M@GPHNBJKN@?$AAm?$AAl?$AA?9?$AAi?$AAn@ 10025bfc     libucrt:lcidtoname_downlevel.obj
 0002:00005c08       ??_C@_1M@PABJILIG@?$AAm?$AAn?$AA?9?$AAm?$AAn@ 10025c08     libucrt:lcidtoname_downlevel.obj
 0002:00005c14       ??_C@_1M@FGBKKIPG@?$AAm?$AAr?$AA?9?$AAi?$AAn@ 10025c14     libucrt:lcidtoname_downlevel.obj
 0002:00005c20       ??_C@_1M@NDBPDDAL@?$AAm?$AAs?$AA?9?$AAb?$AAn@ 10025c20     libucrt:lcidtoname_downlevel.obj
 0002:00005c2c       ??_C@_1M@OPIHOOPI@?$AAm?$AAs?$AA?9?$AAm?$AAy@ 10025c2c     libucrt:lcidtoname_downlevel.obj
 0002:00005c38       ??_C@_1M@PPDBCNFM@?$AAm?$AAt?$AA?9?$AAm?$AAt@ 10025c38     libucrt:lcidtoname_downlevel.obj
 0002:00005c44       ??_C@_1M@KDJDKMDD@?$AAn?$AAb?$AA?9?$AAn?$AAo@ 10025c44     libucrt:lcidtoname_downlevel.obj
 0002:00005c50       ??_C@_1M@KFCFLMJP@?$AAn?$AAl?$AA?9?$AAb?$AAe@ 10025c50     libucrt:lcidtoname_downlevel.obj
 0002:00005c5c       ??_C@_1M@KPOPDDGO@?$AAn?$AAl?$AA?9?$AAn?$AAl@ 10025c5c     libucrt:lcidtoname_downlevel.obj
 0002:00005c68       ??_C@_1M@LJKPEMLN@?$AAn?$AAn?$AA?9?$AAn?$AAo@ 10025c68     libucrt:lcidtoname_downlevel.obj
 0002:00005c74       ??_C@_1M@BDGHHBFL@?$AAn?$AAs?$AA?9?$AAz?$AAa@ 10025c74     libucrt:lcidtoname_downlevel.obj
 0002:00005c80       ??_C@_1M@IDEHOAP@?$AAp?$AAa?$AA?9?$AAi?$AAn@ 10025c80     libucrt:lcidtoname_downlevel.obj
 0002:00005c8c       ??_C@_1M@HDBKGOGH@?$AAp?$AAl?$AA?9?$AAp?$AAl@ 10025c8c     libucrt:lcidtoname_downlevel.obj
 0002:00005c98       ??_C@_1M@LJLLCMEH@?$AAp?$AAt?$AA?9?$AAb?$AAr@ 10025c98     libucrt:lcidtoname_downlevel.obj
 0002:00005ca4       ??_C@_1M@NCMONAAL@?$AAp?$AAt?$AA?9?$AAp?$AAt@ 10025ca4     libucrt:lcidtoname_downlevel.obj
 0002:00005cb0       ??_C@_1O@EAKMAJDN@?$AAq?$AAu?$AAz?$AA?9?$AAb?$AAo@ 10025cb0     libucrt:lcidtoname_downlevel.obj
 0002:00005cc0       ??_C@_1O@BHHPIGDN@?$AAq?$AAu?$AAz?$AA?9?$AAe?$AAc@ 10025cc0     libucrt:lcidtoname_downlevel.obj
 0002:00005cd0       ??_C@_1O@GBAPEKMJ@?$AAq?$AAu?$AAz?$AA?9?$AAp?$AAe@ 10025cd0     libucrt:lcidtoname_downlevel.obj
 0002:00005ce0       ??_C@_1M@CLGLEFBO@?$AAr?$AAo?$AA?9?$AAr?$AAo@ 10025ce0     libucrt:lcidtoname_downlevel.obj
 0002:00005cec       ??_C@_1M@CEEDODME@?$AAr?$AAu?$AA?9?$AAr?$AAu@ 10025cec     libucrt:lcidtoname_downlevel.obj
 0002:00005cf8       ??_C@_1M@HPKKKMPP@?$AAs?$AAa?$AA?9?$AAi?$AAn@ 10025cf8     libucrt:lcidtoname_downlevel.obj
 0002:00005d04       ??_C@_1M@BKMAIGOJ@?$AAs?$AAe?$AA?9?$AAf?$AAi@ 10025d04     libucrt:lcidtoname_downlevel.obj
 0002:00005d10       ??_C@_1M@NDPIFLFI@?$AAs?$AAe?$AA?9?$AAn?$AAo@ 10025d10     libucrt:lcidtoname_downlevel.obj
 0002:00005d1c       ??_C@_1M@DANKKHJ@?$AAs?$AAe?$AA?9?$AAs?$AAe@ 10025d1c     libucrt:lcidtoname_downlevel.obj
 0002:00005d28       ??_C@_1M@PNBLONPJ@?$AAs?$AAk?$AA?9?$AAs?$AAk@ 10025d28     libucrt:lcidtoname_downlevel.obj
 0002:00005d34       ??_C@_1M@LFMODOAL@?$AAs?$AAl?$AA?9?$AAs?$AAi@ 10025d34     libucrt:lcidtoname_downlevel.obj
 0002:00005d40       ??_C@_1O@DFKOMPG@?$AAs?$AAm?$AAa?$AA?9?$AAn?$AAo@ 10025d40     libucrt:lcidtoname_downlevel.obj
 0002:00005d50       ??_C@_1O@NDKPBNNH@?$AAs?$AAm?$AAa?$AA?9?$AAs?$AAe@ 10025d50     libucrt:lcidtoname_downlevel.obj
 0002:00005d60       ??_C@_1O@PLLKBHAB@?$AAs?$AAm?$AAj?$AA?9?$AAn?$AAo@ 10025d60     libucrt:lcidtoname_downlevel.obj
 0002:00005d70       ??_C@_1O@CLEPOGCA@?$AAs?$AAm?$AAj?$AA?9?$AAs?$AAe@ 10025d70     libucrt:lcidtoname_downlevel.obj
 0002:00005d80       ??_C@_1O@DLGJGKMK@?$AAs?$AAm?$AAn?$AA?9?$AAf?$AAi@ 10025d80     libucrt:lcidtoname_downlevel.obj
 0002:00005d90       ??_C@_1O@OJDJGAJC@?$AAs?$AAm?$AAs?$AA?9?$AAf?$AAi@ 10025d90     libucrt:lcidtoname_downlevel.obj
 0002:00005da0       ??_C@_1M@BOFOGHPB@?$AAs?$AAq?$AA?9?$AAa?$AAl@ 10025da0     libucrt:lcidtoname_downlevel.obj
 0002:00005dac       ??_C@_1BG@LJBBIPGB@?$AAs?$AAr?$AA?9?$AAb?$AAa?$AA?9?$AAc?$AAy?$AAr?$AAl@ 10025dac     libucrt:lcidtoname_downlevel.obj
 0002:00005dc4       ??_C@_1BG@JLBENFOE@?$AAs?$AAr?$AA?9?$AAb?$AAa?$AA?9?$AAl?$AAa?$AAt?$AAn@ 10025dc4     libucrt:lcidtoname_downlevel.obj
 0002:00005ddc       ??_C@_1BG@KODPNHE@?$AAs?$AAr?$AA?9?$AAs?$AAp?$AA?9?$AAc?$AAy?$AAr?$AAl@ 10025ddc     libucrt:lcidtoname_downlevel.obj
 0002:00005df4       ??_C@_1BG@CIOGKHPB@?$AAs?$AAr?$AA?9?$AAs?$AAp?$AA?9?$AAl?$AAa?$AAt?$AAn@ 10025df4     libucrt:lcidtoname_downlevel.obj
 0002:00005e0c       ??_C@_1M@NGFJLMAC@?$AAs?$AAv?$AA?9?$AAf?$AAi@ 10025e0c     libucrt:lcidtoname_downlevel.obj
 0002:00005e18       ??_C@_1M@MPJEJAJC@?$AAs?$AAv?$AA?9?$AAs?$AAe@ 10025e18     libucrt:lcidtoname_downlevel.obj
 0002:00005e24       ??_C@_1M@MPNDHLFK@?$AAs?$AAw?$AA?9?$AAk?$AAe@ 10025e24     libucrt:lcidtoname_downlevel.obj
 0002:00005e30       ??_C@_1O@KOHBJJI@?$AAs?$AAy?$AAr?$AA?9?$AAs?$AAy@ 10025e30     libucrt:lcidtoname_downlevel.obj
 0002:00005e40       ??_C@_1M@LDCEFHA@?$AAt?$AAa?$AA?9?$AAi?$AAn@ 10025e40     libucrt:lcidtoname_downlevel.obj
 0002:00005e4c       ??_C@_1M@CNJOFAK@?$AAt?$AAe?$AA?9?$AAi?$AAn@ 10025e4c     libucrt:lcidtoname_downlevel.obj
 0002:00005e58       ??_C@_1M@GNAECACD@?$AAt?$AAh?$AA?9?$AAt?$AAh@ 10025e58     libucrt:lcidtoname_downlevel.obj
 0002:00005e64       ??_C@_1M@CHBIHOJO@?$AAt?$AAn?$AA?9?$AAz?$AAa@ 10025e64     libucrt:lcidtoname_downlevel.obj
 0002:00005e70       ??_C@_1M@GCCMIGPJ@?$AAt?$AAr?$AA?9?$AAt?$AAr@ 10025e70     libucrt:lcidtoname_downlevel.obj
 0002:00005e7c       ??_C@_1M@CELMCNBK@?$AAt?$AAt?$AA?9?$AAr?$AAu@ 10025e7c     libucrt:lcidtoname_downlevel.obj
 0002:00005e88       ??_C@_1M@KLMCELGA@?$AAu?$AAk?$AA?9?$AAu?$AAa@ 10025e88     libucrt:lcidtoname_downlevel.obj
 0002:00005e94       ??_C@_1M@EPAJJAJF@?$AAu?$AAr?$AA?9?$AAp?$AAk@ 10025e94     libucrt:lcidtoname_downlevel.obj
 0002:00005ea0       ??_C@_1BG@GEGPMCDJ@?$AAu?$AAz?$AA?9?$AAu?$AAz?$AA?9?$AAc?$AAy?$AAr?$AAl@ 10025ea0     libucrt:lcidtoname_downlevel.obj
 0002:00005eb8       ??_C@_1BG@EGGKJILM@?$AAu?$AAz?$AA?9?$AAu?$AAz?$AA?9?$AAl?$AAa?$AAt?$AAn@ 10025eb8     libucrt:lcidtoname_downlevel.obj
 0002:00005ed0       ??_C@_1M@GFOCLFF@?$AAv?$AAi?$AA?9?$AAv?$AAn@ 10025ed0     libucrt:lcidtoname_downlevel.obj
 0002:00005edc       ??_C@_1M@CPAMEDFI@?$AAx?$AAh?$AA?9?$AAz?$AAa@ 10025edc     libucrt:lcidtoname_downlevel.obj
 0002:00005ee8       ??_C@_1O@EBKIFIGN@?$AAz?$AAh?$AA?9?$AAc?$AAh?$AAs@ 10025ee8     libucrt:lcidtoname_downlevel.obj
 0002:00005ef8       ??_C@_1O@NMHPGANE@?$AAz?$AAh?$AA?9?$AAc?$AAh?$AAt@ 10025ef8     libucrt:lcidtoname_downlevel.obj
 0002:00005f08       ??_C@_1M@LPINJOMC@?$AAz?$AAh?$AA?9?$AAc?$AAn@ 10025f08     libucrt:lcidtoname_downlevel.obj
 0002:00005f14       ??_C@_1M@OCJEJODD@?$AAz?$AAh?$AA?9?$AAh?$AAk@ 10025f14     libucrt:lcidtoname_downlevel.obj
 0002:00005f20       ??_C@_1M@DNDLJINH@?$AAz?$AAh?$AA?9?$AAm?$AAo@ 10025f20     libucrt:lcidtoname_downlevel.obj
 0002:00005f2c       ??_C@_1M@MBFDNDND@?$AAz?$AAh?$AA?9?$AAs?$AAg@ 10025f2c     libucrt:lcidtoname_downlevel.obj
 0002:00005f38       ??_C@_1M@IMEPLEPE@?$AAz?$AAh?$AA?9?$AAt?$AAw@ 10025f38     libucrt:lcidtoname_downlevel.obj
 0002:00005f44       ??_C@_1M@BBGHNHJP@?$AAz?$AAu?$AA?9?$AAz?$AAa@ 10025f44     libucrt:lcidtoname_downlevel.obj
 0002:00005f50       ?large_power_data@?1??multiply_by_power_of_ten@__crt_strtox@@YA_NAAUbig_integer@2@I@Z@4QBIB 10025f50     libucrt:cfout.obj
 0002:00006858       ?large_power_indices@?1??multiply_by_power_of_ten@__crt_strtox@@YA_NAAUbig_integer@2@I@Z@4QBUunpack_index@?1??12@YA_N0I@Z@B 10026858     libucrt:cfout.obj
 0002:000068f0       ?small_powers_of_ten@?1??multiply_by_power_of_ten@__crt_strtox@@YA_NAAUbig_integer@2@I@Z@4QBIB 100268f0     libucrt:cfout.obj
 0002:00006914       ??_C@_01GBGANLPD@0@        10026914     libucrt:cfout.obj
 0002:00006918       ??_C@_05DNEBIAHO@1?$CDINF@ 10026918     libucrt:cfout.obj
 0002:00006920       ??_C@_06IMKFLFPG@1?$CDQNAN@ 10026920     libucrt:cfout.obj
 0002:00006928       ??_C@_06PGGFOGJG@1?$CDSNAN@ 10026928     libucrt:cfout.obj
 0002:00006930       ??_C@_05PHHOCPM@1?$CDIND@  10026930     libucrt:cfout.obj
 0002:00006aa0       __infinity                 10026aa0     libucrt:87tran.obj
 0002:00006aaa       __minfinity                10026aaa     libucrt:87tran.obj
 0002:00006ab4       __logemax                  10026ab4     libucrt:87tran.obj
 0002:00006ada       __OP_EXPjmptab             10026ada     libucrt:87tran.obj
 0002:00006b00       __indefinite               10026b00     libucrt:87disp.obj
 0002:00006b0a       __piby2                    10026b0a     libucrt:87disp.obj
 0002:00006b14       __piby4                    10026b14     libucrt:87disp.obj
 0002:00006b48       __DEFAULT_CW_in_mem        10026b48     libucrt:common.obj
 0002:00006b4a       __pi_by_2_to_61            10026b4a     libucrt:common.obj
 0002:00006b84       ??_C@_03MGHMBJCF@log@      10026b84     libucrt:libm_error.obj
 0002:00006b88       ??_C@_05HGHHAHAP@log10@    10026b88     libucrt:libm_error.obj
 0002:00006b90       ??_C@_03KHJOGHMM@exp@      10026b90     libucrt:libm_error.obj
 0002:00006b94       ??_C@_03JGHBODFD@pow@      10026b94     libucrt:libm_error.obj
 0002:00006b98       ??_C@_04FIHNOPOL@asin@     10026b98     libucrt:libm_error.obj
 0002:00006ba0       ??_C@_04PDIFKINK@acos@     10026ba0     libucrt:libm_error.obj
 0002:00006ba8       ??_C@_04EIAKFFMI@sqrt@     10026ba8     libucrt:libm_error.obj
 0002:00006bb0       __real@3ff0000000000000    10026bb0     libucrt:libm_error.obj
 0002:00006bb8       ??_C@_1BA@BALFACEM@?$AAC?$AAO?$AAN?$AAO?$AAU?$AAT?$AA$@ 10026bb8     libucrt:initcon.obj
 0002:00006be0       ___acrt_log10_table_t      10026be0     libucrt:log10_tables.obj
 0002:00006ff0       ___acrt_log10_table_cb     10026ff0     libucrt:log10_tables.obj
 0002:00007400       __real@3fe0000000000000    10027400     libucrt:powhlp.obj
 0002:000074f0       ??_C@_04COOMCNPB@sinh@     100274f0     libucrt:fpexcept.obj
 0002:000074f8       ??_C@_04HPJJNFIM@cosh@     100274f8     libucrt:fpexcept.obj
 0002:00007500       ??_C@_04FJHINJAO@tanh@     10027500     libucrt:fpexcept.obj
 0002:00007508       ??_C@_04MLLJIGOK@atan@     10027508     libucrt:fpexcept.obj
 0002:00007510       ??_C@_05KNGEOGJB@atan2@    10027510     libucrt:fpexcept.obj
 0002:00007518       ??_C@_03BLEJJJBH@sin@      10027518     libucrt:fpexcept.obj
 0002:0000751c       ??_C@_03LALBNOCG@cos@      1002751c     libucrt:fpexcept.obj
 0002:00007520       ??_C@_03IIINPABG@tan@      10027520     libucrt:fpexcept.obj
 0002:00007524       ??_C@_04GFPJNGEK@ceil@     10027524     libucrt:fpexcept.obj
 0002:0000752c       ??_C@_05PBJFFIGL@floor@    1002752c     libucrt:fpexcept.obj
 0002:00007534       ??_C@_04ODHECPBC@fabs@     10027534     libucrt:fpexcept.obj
 0002:0000753c       ??_C@_04EHEDPDJG@modf@     1002753c     libucrt:fpexcept.obj
 0002:00007544       ??_C@_05CEJMAHNP@ldexp@    10027544     libucrt:fpexcept.obj
 0002:0000754c       ??_C@_05KBKMEMPO@_cabs@    1002754c     libucrt:fpexcept.obj
 0002:00007554       ??_C@_06MEIMCGCF@_hypot@   10027554     libucrt:fpexcept.obj
 0002:0000755c       ??_C@_04KEPJIHGP@fmod@     1002755c     libucrt:fpexcept.obj
 0002:00007564       ??_C@_05GKKHEGJL@frexp@    10027564     libucrt:fpexcept.obj
 0002:0000756c       ??_C@_03MJLDFKDL@_y0@      1002756c     libucrt:fpexcept.obj
 0002:00007570       ??_C@_03NAKIGLHK@_y1@      10027570     libucrt:fpexcept.obj
 0002:00007574       ??_C@_03ONILCKOB@_yn@      10027574     libucrt:fpexcept.obj
 0002:00007578       ??_C@_05JGDBENOH@_logb@    10027578     libucrt:fpexcept.obj
 0002:00007580       ??_C@_0L@KDOEJCKC@_nextafter@ 10027580     libucrt:fpexcept.obj
 0002:00007590       __d_inf                    10027590     libucrt:util.obj
 0002:00007598       __d_max                    10027598     libucrt:util.obj
 0002:000075a0       __d_mzero                  100275a0     libucrt:util.obj
 0002:00007610       __load_config_used         10027610     LIBCMT:loadcfg.obj
 0002:000076c8       __tls_used                 100276c8     LIBCMT:tlssup.obj
 0002:000076e0       ??_R4exception@std@@6B@    100276e0     LIBCMT:throw_bad_alloc.obj
 0002:000076f4       ??_R3exception@std@@8      100276f4     LIBCMT:throw_bad_alloc.obj
 0002:00007704       ??_R2exception@std@@8      10027704     LIBCMT:throw_bad_alloc.obj
 0002:0000770c       ??_R1A@?0A@EA@exception@std@@8 1002770c     LIBCMT:throw_bad_alloc.obj
 0002:00007728       ??_R4bad_alloc@std@@6B@    10027728     LIBCMT:throw_bad_alloc.obj
 0002:0000773c       ??_R3bad_alloc@std@@8      1002773c     LIBCMT:throw_bad_alloc.obj
 0002:0000774c       ??_R2bad_alloc@std@@8      1002774c     LIBCMT:throw_bad_alloc.obj
 0002:00007758       ??_R1A@?0A@EA@bad_alloc@std@@8 10027758     LIBCMT:throw_bad_alloc.obj
 0002:00007774       ??_R4bad_array_new_length@std@@6B@ 10027774     LIBCMT:throw_bad_alloc.obj
 0002:00007788       ??_R3bad_array_new_length@std@@8 10027788     LIBCMT:throw_bad_alloc.obj
 0002:00007798       ??_R2bad_array_new_length@std@@8 10027798     LIBCMT:throw_bad_alloc.obj
 0002:000077a8       ??_R1A@?0A@EA@bad_array_new_length@std@@8 100277a8     LIBCMT:throw_bad_alloc.obj
 0002:000077c4       ??_R4type_info@@6B@        100277c4     LIBCMT:std_type_info_static.obj
 0002:000077d8       ??_R3type_info@@8          100277d8     LIBCMT:std_type_info_static.obj
 0002:000077e8       ??_R2type_info@@8          100277e8     LIBCMT:std_type_info_static.obj
 0002:000077f0       ??_R1A@?0A@EA@type_info@@8 100277f0     LIBCMT:std_type_info_static.obj
 0002:0000780c       ??_R4bad_exception@std@@6B@ 1002780c     libvcruntime:frame.obj
 0002:00007820       ??_R3bad_exception@std@@8  10027820     libvcruntime:frame.obj
 0002:00007830       ??_R2bad_exception@std@@8  10027830     libvcruntime:frame.obj
 0002:0000783c       ??_R1A@?0A@EA@bad_exception@std@@8 1002783c     libvcruntime:frame.obj
 0002:00007858       ___safe_se_handler_table   10027858     <linker-defined>
 0002:00007c54       ___rtc_iaa                 10027c54     LIBCMT:initsect.obj
 0002:00007c58       ___rtc_izz                 10027c58     LIBCMT:initsect.obj
 0002:00007c5c       ___rtc_taa                 10027c5c     LIBCMT:initsect.obj
 0002:00007c60       ___rtc_tzz                 10027c60     LIBCMT:initsect.obj
 0002:00007c64       __tls_start                10027c64     LIBCMT:tlssup.obj
 0002:00007c68       __Init_thread_epoch        10027c68     LIBCMT:thread_safe_statics.obj
 0002:00007c6c       __tls_end                  10027c6c     LIBCMT:tlssup.obj
 0002:00007d6c       __TI2?AVbad_alloc@std@@    10027d6c     LIBCMT:throw_bad_alloc.obj
 0002:00007d7c       __CTA2?AVbad_alloc@std@@   10027d7c     LIBCMT:throw_bad_alloc.obj
 0002:00007d88       __CT??_R0?AVbad_alloc@std@@@8??0bad_alloc@std@@QAE@ABV01@@Z12 10027d88     LIBCMT:throw_bad_alloc.obj
 0002:00007da4       __CT??_R0?AVexception@std@@@8??0exception@std@@QAE@ABV01@@Z12 10027da4     LIBCMT:throw_bad_alloc.obj
 0002:00007dc0       __TI3?AVbad_array_new_length@std@@ 10027dc0     LIBCMT:throw_bad_alloc.obj
 0002:00007dd0       __CTA3?AVbad_array_new_length@std@@ 10027dd0     LIBCMT:throw_bad_alloc.obj
 0002:00007de0       __CT??_R0?AVbad_array_new_length@std@@@8??0bad_array_new_length@std@@QAE@ABV01@@Z12 10027de0     LIBCMT:throw_bad_alloc.obj
 0002:00007f04       __TI2?AVbad_exception@std@@ 10027f04     libvcruntime:frame.obj
 0002:00007f14       __CTA2?AVbad_exception@std@@ 10027f14     libvcruntime:frame.obj
 0002:00007f20       __CT??_R0?AVbad_exception@std@@@8??0bad_exception@std@@QAE@ABV01@@Z12 10027f20     libvcruntime:frame.obj
 0002:0000829c       ___pobjMapEntryFirst       1002829c     OposVariant.obj
 0002:000082a0       ___pobjMapEntryLast        100282a0     OposVariant.obj
 0002:0000835c       __IMPORT_DESCRIPTOR_KERNEL32 1002835c     kernel32:KERNEL32.dll
 0002:00008370       __IMPORT_DESCRIPTOR_USER32 10028370     user32:USER32.dll
 0002:00008384       __IMPORT_DESCRIPTOR_GDI32  10028384     gdi32:GDI32.dll
 0002:00008398       __IMPORT_DESCRIPTOR_ADVAPI32 10028398     advapi32:ADVAPI32.dll
 0002:000083ac       __IMPORT_DESCRIPTOR_ole32  100283ac     ole32:ole32.dll
 0002:000083c0       __IMPORT_DESCRIPTOR_OLEAUT32 100283c0     oleaut32:OLEAUT32.dll
 0002:000083d4       __NULL_IMPORT_DESCRIPTOR   100283d4     kernel32:KERNEL32.dll
 0003:00000000       ?s_Claim@?7??GetIDsOfNames@CComTypeInfoHolder@ATL@@QAEJABU_GUID@@PAPA_WIKPAJ@Z@4PA_WA 1002a000     RFIDScanner.obj
 0003:00000018       ?s_Release@?7??GetIDsOfNames@CComTypeInfoHolder@ATL@@QAEJABU_GUID@@PAPA_WIKPAJ@Z@4PA_WA 1002a018     RFIDScanner.obj
 0003:00000034       ?_tih@?$IDispatchImpl@UIOPOSRFIDScanner@@$1?IID_IOPOSRFIDScanner@@3U_GUID@@B$1?LIBID_OposRFIDScanner_CCO@@3U3@B$00$0A@VCComTypeInfoHolder@ATL@@@ATL@@1VCComTypeInfoHolder@2@A 1002a034     RFIDScanner.obj
 0003:00000050       ?_tih@?$IProvideClassInfo2Impl@$1?CLSID_OPOSRFIDScanner@@3U_GUID@@B$1?DIID__IOPOSRFIDScannerEvents@@3U2@B$1?LIBID_OposRFIDScanner_CCO@@3U2@B$00$0A@VCComTypeInfoHolder@ATL@@@ATL@@1VCComTypeInfoHolder@2@A 1002a050     RFIDScanner.obj
 0003:0000006c       ?vszContents@?6??Save@?$IPersistStorageImpl@VCOPOSRFIDScanner@@@ATL@@UAGJPAUIStorage@@H@Z@4PB_WB 1002a06c     RFIDScanner.obj
 0003:00000070       ?wc@?1??GetWndClassInfo@?$CWindowImpl@VCOPOSRFIDScanner@@VCWindow@ATL@@V?$CWinTraits@$0FGAAAAAA@$0A@@3@@ATL@@SAAAU_ATL_WNDCLASSINFOW@3@XZ@4U43@A 1002a070     RFIDScanner.obj
 0003:000000fc       ?rcDefault@CWindow@ATL@@2UtagRECT@@A 1002a0fc     RFIDScanner.obj
 0003:00000158       ?g_WindowName@@3PA_WA      1002a158     RFIDScannerImpl.obj
 0003:00000180       ?g_ControlDescription@@3PADA 1002a180     RFIDScannerImpl.obj
 0003:000001cc       ?g_ControlVersion@@3JA     1002a1cc     RFIDScannerImpl.obj
 0003:0000024c       ___scrt_native_dllmain_reason 1002a24c     LIBCMT:utility.obj
 0003:00000250       __Init_global_epoch        1002a250     LIBCMT:thread_safe_statics.obj
 0003:00000260       ___security_cookie_complement 1002a260     LIBCMT:gs_cookie.obj
 0003:00000264       ___security_cookie         1002a264     LIBCMT:gs_cookie.obj
 0003:00000268       ___isa_enabled             1002a268     LIBCMT:cpu_disp.obj
 0003:00000280       __NLG_Destination          1002a280     libvcruntime:exsup.obj
 0003:00000298       ___abort_behavior          1002a298     libucrt:abort.obj
 0003:000002a8       __iob                      1002a2a8     libucrt:_file.obj
 0003:00000350       ___acrt_initial_locale_data 1002a350     libucrt:nlsdata.obj
 0003:00000408       ___acrt_initial_locale_pointers 1002a408     libucrt:nlsdata.obj
 0003:00000410       ___acrt_wide_c_locale_string 1002a410     libucrt:nlsdata.obj
 0003:00000418       ___acrt_initial_multibyte_data 1002a418     libucrt:mbctype.obj
 0003:00000938       __pwctype                  1002a938     libucrt:ctype.obj
 0003:0000093c       ___globallocalestatus      1002a93c     libucrt:glstatus.obj
 0003:00000940       ___acrt_lconv_c            1002a940     libucrt:localeconv.obj
 0003:00000990       ___acrt_lconv_static_decimal 1002a990     libucrt:localeconv.obj
 0003:00000994       ___acrt_lconv_static_W_decimal 1002a994     libucrt:localeconv.obj
 0003:000009a0       __lookuptrailbytes         1002a9a0     libucrt:read.obj
 0003:00000ab0       __fltused                  1002aab0     LIBCMT:fltused.obj
 0003:00000ac0       ??_R0?AVbad_alloc@std@@@8  1002aac0     LIBCMT:throw_bad_alloc.obj
 0003:00000adc       ??_R0?AVexception@std@@@8  1002aadc     LIBCMT:throw_bad_alloc.obj
 0003:00000af8       ??_R0?AVbad_array_new_length@std@@@8 1002aaf8     LIBCMT:throw_bad_alloc.obj
 0003:00000b20       ??_R0?AVtype_info@@@8      1002ab20     LIBCMT:std_type_info_static.obj
 0003:00000b38       ??_R0?AVbad_exception@std@@@8 1002ab38     libvcruntime:frame.obj
 0003:00000b58       ?m_bInitFailed@CAtlBaseModule@ATL@@2_NA 1002ab58     OposVariant.obj
 0003:00000b5c       ?_pPerfRegFunc@ATL@@3P6AJPAUHINSTANCE__@@@ZA 1002ab5c     OposVariant.obj
 0003:00000b60       ?_pPerfUnRegFunc@ATL@@3P6AJXZA 1002ab60     OposVariant.obj
 0003:00000b64       ?_AtlRegisterPerUser@ATL@@3_NA 1002ab64     OposVariant.obj
 0003:00000b68       ?_pAtlModule@ATL@@3PAVCAtlModule@1@A 1002ab68     OposVariant.obj
 0003:00000b6c       ?_pModule@ATL@@3PAVCComModule@1@A 1002ab6c     OposVariant.obj
 0003:00000b70       ?_AtlComModule@ATL@@3VCAtlComModule@1@A 1002ab70     OposVariant.obj
 0003:00000b98       ?_AtlWinModule@ATL@@3VCAtlWinModule@1@A 1002ab98     OposVariant.obj
 0003:00000bc4       ?m_libid@CAtlModule@ATL@@2U_GUID@@A 1002abc4     RFIDScanner.obj
 0003:00000bd4       ?_entries@?1??GetConnMap@COPOSRFIDScanner@@SAPBU_ATL_CONNMAP_ENTRY@ATL@@PAH@Z@4QBU34@B 1002abd4     RFIDScanner.obj
 0003:00000be0       ?$TSS0@?1??GetConnMap@COPOSRFIDScanner@@SAPBU_ATL_CONNMAP_ENTRY@ATL@@PAH@Z@4HA 1002abe0     RFIDScanner.obj
 0003:00000be8       ?_OptionsStorage@?1??__local_stdio_printf_options@@9@4_KA 1002abe8     RFIDScanner.obj
 0003:00000bf0       ?pfnRegDeleteKeyEx@?1??DeleteSubKey@CRegKey@ATL@@QAEJPB_W@Z@4P6GJPAUHKEY__@@0KK@ZA 1002abf0     RFIDScanner.obj
 0003:00000bf4       ?bInitialized@?1??DeleteSubKey@CRegKey@ATL@@QAEJPB_W@Z@4_NA 1002abf4     RFIDScanner.obj
 0003:00000bf8       ?_Module@@3VCComModule@ATL@@A 1002abf8     RFIDScanner.obj
 0003:00000c28       ?pConnMap@?$IConnectionPointContainerImpl@VCOPOSRFIDScanner@@@ATL@@0PBU_ATL_CONNMAP_ENTRY@2@B 1002ac28     RFIDScanner.obj
 0003:00000c2c       ?s_nInstances@COPOSRFIDScanner@@1HA 1002ac2c     RFIDScannerImpl.obj
 0003:00000c30       ___scrt_current_native_startup_state 1002ac30     LIBCMT:utility.obj
 0003:00000c34       ___scrt_native_startup_lock 1002ac34     LIBCMT:utility.obj
 0003:00000f9c       __tls_index                1002af9c     LIBCMT:tlssup.obj
 0003:00000fa4       ___isa_available           1002afa4     LIBCMT:cpu_disp.obj
 0003:00000fa8       ___favor                   1002afa8     LIBCMT:cpu_disp.obj
 0003:00000fac       ___scrt_debugger_hook_flag 1002afac     LIBCMT:utility_desktop.obj
 0003:00000fb0       ?__type_info_root_node@@3U__type_info_node@@A 1002afb0     LIBCMT:tncleanup.obj
 0003:00000fb8       ?_OptionsStorage@?1??__local_stdio_scanf_options@@9@4_KA 1002afb8     LIBCMT:default_local_stdio_options.obj
 0003:00000fc0       ?_AtlBaseModule@ATL@@3VCAtlBaseModule@1@A 1002afc0     atls:atlbase.obj
 0003:00000ff8       ?__AtlThunkPool@@3PAT_SLIST_HEADER@@A 1002aff8     atls:atlthunk.obj
 0003:00001010       ___@@_PchSym_@00@UztvmgUPdlipUEUhUrmgvinvwrzgvUexgllohUzgohOmzgrevkilqPBACIAJCBDBUlyqiUcIGUhgwzucOlyq@4B2008FD98C1DD4 1002b010     atls:stdafx.obj
 0003:00001014       ?__WinRTOutOfMemoryExceptionCallback@@3P6GPAXXZA 1002b014     libvcruntime:ehhelpers.obj
 0003:00001018       ___pPurecall               1002b018     libvcruntime:purevirt_data.obj
 0003:00001060       ?pArgList@UnDecorator@@0PAVReplicator@@A 1002b060     libvcruntime:undname.obj
 0003:00001064       ?pZNameList@UnDecorator@@0PAVReplicator@@A 1002b064     libvcruntime:undname.obj
 0003:00001068       ?pTemplateArgList@UnDecorator@@0PAVReplicator@@A 1002b068     libvcruntime:undname.obj
 0003:0000106c       ?gName@UnDecorator@@0PBDB  1002b06c     libvcruntime:undname.obj
 0003:00001070       ?name@UnDecorator@@0PBDB   1002b070     libvcruntime:undname.obj
 0003:00001074       ?disableFlags@UnDecorator@@0KA 1002b074     libvcruntime:undname.obj
 0003:00001078       ?fExplicitTemplateParams@UnDecorator@@0_NA 1002b078     libvcruntime:undname.obj
 0003:00001079       ?fGetTemplateArgumentList@UnDecorator@@0_NA 1002b079     libvcruntime:undname.obj
 0003:0000107c       ?m_pGetParameter@UnDecorator@@0P6APADJ@ZA 1002b07c     libvcruntime:undname.obj
 0003:00001080       ?m_CHPENameOffset@UnDecorator@@0KA 1002b080     libvcruntime:undname.obj
 0003:00001084       ?m_recursionLevel@UnDecorator@@0KA 1002b084     libvcruntime:undname.obj
 0003:000010c8       ?c_exit_complete@?1???R<lambda_6e4b09c48022b2350581041d5f6b0c4c>@@QBE@XZ@4_NA 1002b0c8     libucrt:exit.obj
 0003:000011d8       __environ_table            1002b1d8     libucrt:environment_initialization.obj
 0003:000011dc       __wenviron_table           1002b1dc     libucrt:environment_initialization.obj
 0003:000011e0       ___dcrt_initial_wide_environment 1002b1e0     libucrt:environment_initialization.obj
 0003:000011e4       ___dcrt_initial_narrow_environment 1002b1e4     libucrt:environment_initialization.obj
 0003:000011e8       ___acrt_atexit_table       1002b1e8     libucrt:onexit.obj
 0003:000011f4       ___acrt_at_quick_exit_table 1002b1f4     libucrt:onexit.obj
 0003:000012e8       __nstream                  1002b2e8     libucrt:_file.obj
 0003:000012ec       ___piob                    1002b2ec     libucrt:_file.obj
 0003:000012f4       ___acrt_stdout_buffer      1002b2f4     libucrt:_sftbuf.obj
 0003:000012f8       ___acrt_stderr_buffer      1002b2f8     libucrt:_sftbuf.obj
 0003:000012fc       ___acrt_locale_changed_data 1002b2fc     libucrt:wsetlocale.obj
 0003:00001300       ___acrt_current_locale_data 1002b300     libucrt:nlsdata.obj
 0003:00001308       ___pioinfo                 1002b308     libucrt:ioinit.obj
 0003:00001508       __nhandle                  1002b508     libucrt:ioinit.obj
 0003:00001664       __mbctype                  1002b664     libucrt:mbctype.obj
 0003:00001668       __mbcasemap                1002b668     libucrt:mbctype.obj
 0003:0000166c       ___acrt_current_multibyte_data 1002b66c     libucrt:mbctype.obj
 0003:00001678       __pgmptr                   1002b678     libucrt:argv_data.obj
 0003:0000167c       ___argc                    1002b67c     libucrt:argv_data.obj
 0003:00001680       ___argv                    1002b680     libucrt:argv_data.obj
 0003:00001684       ___wargv                   1002b684     libucrt:argv_data.obj
 0003:00001688       __acmdln                   1002b688     libucrt:argv_data.obj
 0003:0000168c       __wcmdln                   1002b68c     libucrt:argv_data.obj
 0003:00001690       ___acrt_heap               1002b690     libucrt:heap_handle.obj
 0003:000016ac       ___acrt_lconv_static_null  1002b6ac     libucrt:localeconv.obj
 0003:000016b0       ___acrt_lconv_static_W_null 1002b6b0     libucrt:localeconv.obj
 0003:000016c0       ___fastflag                1002b6c0     libucrt:fp_flags.obj
 0003:000016c8       ___dyn_tls_init_callback   1002b6c8     <common>
 0003:000016cc       ___scrt_ucrt_dll_is_in_use 1002b6cc     <common>
 0003:000016d0       __pmatherr                 1002b6d0     <common>
 0003:000016d4       ___use_sse2_mathfcns       1002b6d4     <common>

 entry point at        0001:0000c40d

 Static symbols

 0000:fffcd000       .debug$S                   10000000     OPOSRFIDScanner.exp
 0000:fffcd000       .debug$S                   10000000     advapi32:ADVAPI32.dll
 0000:fffcd000       .debug$S                   10000000     advapi32:ADVAPI32.dll
 0000:fffcd000       .debug$S                   10000000     advapi32:ADVAPI32.dll
 0000:fffcd000       .debug$S                   10000000     advapi32:ADVAPI32.dll
 0000:fffcd000       .debug$S                   10000000     advapi32:ADVAPI32.dll
 0000:fffcd000       .debug$S                   10000000     advapi32:ADVAPI32.dll
 0000:fffcd000       .debug$S                   10000000     advapi32:ADVAPI32.dll
 0000:fffcd000       .debug$S                   10000000     advapi32:ADVAPI32.dll
 0000:fffcd000       .debug$S                   10000000     advapi32:ADVAPI32.dll
 0000:fffcd000       .debug$S                   10000000     gdi32:GDI32.dll
 0000:fffcd000       .debug$S                   10000000     gdi32:GDI32.dll
 0000:fffcd000       .debug$S                   10000000     gdi32:GDI32.dll
 0000:fffcd000       .debug$S                   10000000     gdi32:GDI32.dll
 0000:fffcd000       .debug$S                   10000000     gdi32:GDI32.dll
 0000:fffcd000       .debug$S                   10000000     gdi32:GDI32.dll
 0000:fffcd000       .debug$S                   10000000     gdi32:GDI32.dll
 0000:fffcd000       .debug$S                   10000000     gdi32:GDI32.dll
 0000:fffcd000       .debug$S                   10000000     gdi32:GDI32.dll
 0000:fffcd000       .debug$S                   10000000     gdi32:GDI32.dll
 0000:fffcd000       .debug$S                   10000000     gdi32:GDI32.dll
 0000:fffcd000       .debug$S                   10000000     gdi32:GDI32.dll
 0000:fffcd000       .debug$S                   10000000     gdi32:GDI32.dll
 0000:fffcd000       .debug$S                   10000000     gdi32:GDI32.dll
 0000:fffcd000       .debug$S                   10000000     gdi32:GDI32.dll
 0000:fffcd000       .debug$S                   10000000     gdi32:GDI32.dll
 0000:fffcd000       .debug$S                   10000000     gdi32:GDI32.dll
 0000:fffcd000       .debug$S                   10000000     gdi32:GDI32.dll
 0000:fffcd000       .debug$S                   10000000     gdi32:GDI32.dll
 0000:fffcd000       .debug$S                   10000000     kernel32:KERNEL32.dll
 0000:fffcd000       .debug$S                   10000000     kernel32:KERNEL32.dll
 0000:fffcd000       .debug$S                   10000000     kernel32:KERNEL32.dll
 0000:fffcd000       .debug$S                   10000000     kernel32:KERNEL32.dll
 0000:fffcd000       .debug$S                   10000000     kernel32:KERNEL32.dll
 0000:fffcd000       .debug$S                   10000000     kernel32:KERNEL32.dll
 0000:fffcd000       .debug$S                   10000000     kernel32:KERNEL32.dll
 0000:fffcd000       .debug$S                   10000000     kernel32:KERNEL32.dll
 0000:fffcd000       .debug$S                   10000000     kernel32:KERNEL32.dll
 0000:fffcd000       .debug$S                   10000000     kernel32:KERNEL32.dll
 0000:fffcd000       .debug$S                   10000000     kernel32:KERNEL32.dll
 0000:fffcd000       .debug$S                   10000000     kernel32:KERNEL32.dll
 0000:fffcd000       .debug$S                   10000000     kernel32:KERNEL32.dll
 0000:fffcd000       .debug$S                   10000000     kernel32:KERNEL32.dll
 0000:fffcd000       .debug$S                   10000000     kernel32:KERNEL32.dll
 0000:fffcd000       .debug$S                   10000000     kernel32:KERNEL32.dll
 0000:fffcd000       .debug$S                   10000000     kernel32:KERNEL32.dll
 0000:fffcd000       .debug$S                   10000000     kernel32:KERNEL32.dll
 0000:fffcd000       .debug$S                   10000000     kernel32:KERNEL32.dll
 0000:fffcd000       .debug$S                   10000000     kernel32:KERNEL32.dll
 0000:fffcd000       .debug$S                   10000000     kernel32:KERNEL32.dll
 0000:fffcd000       .debug$S                   10000000     kernel32:KERNEL32.dll
 0000:fffcd000       .debug$S                   10000000     kernel32:KERNEL32.dll
 0000:fffcd000       .debug$S                   10000000     kernel32:KERNEL32.dll
 0000:fffcd000       .debug$S                   10000000     kernel32:KERNEL32.dll
 0000:fffcd000       .debug$S                   10000000     kernel32:KERNEL32.dll
 0000:fffcd000       .debug$S                   10000000     kernel32:KERNEL32.dll
 0000:fffcd000       .debug$S                   10000000     kernel32:KERNEL32.dll
 0000:fffcd000       .debug$S                   10000000     kernel32:KERNEL32.dll
 0000:fffcd000       .debug$S                   10000000     kernel32:KERNEL32.dll
 0000:fffcd000       .debug$S                   10000000     kernel32:KERNEL32.dll
 0000:fffcd000       .debug$S                   10000000     kernel32:KERNEL32.dll
 0000:fffcd000       .debug$S                   10000000     kernel32:KERNEL32.dll
 0000:fffcd000       .debug$S                   10000000     kernel32:KERNEL32.dll
 0000:fffcd000       .debug$S                   10000000     kernel32:KERNEL32.dll
 0000:fffcd000       .debug$S                   10000000     kernel32:KERNEL32.dll
 0000:fffcd000       .debug$S                   10000000     kernel32:KERNEL32.dll
 0000:fffcd000       .debug$S                   10000000     kernel32:KERNEL32.dll
 0000:fffcd000       .debug$S                   10000000     kernel32:KERNEL32.dll
 0000:fffcd000       .debug$S                   10000000     kernel32:KERNEL32.dll
 0000:fffcd000       .debug$S                   10000000     kernel32:KERNEL32.dll
 0000:fffcd000       .debug$S                   10000000     kernel32:KERNEL32.dll
 0000:fffcd000       .debug$S                   10000000     kernel32:KERNEL32.dll
 0000:fffcd000       .debug$S                   10000000     kernel32:KERNEL32.dll
 0000:fffcd000       .debug$S                   10000000     kernel32:KERNEL32.dll
 0000:fffcd000       .debug$S                   10000000     kernel32:KERNEL32.dll
 0000:fffcd000       .debug$S                   10000000     kernel32:KERNEL32.dll
 0000:fffcd000       .debug$S                   10000000     kernel32:KERNEL32.dll
 0000:fffcd000       .debug$S                   10000000     kernel32:KERNEL32.dll
 0000:fffcd000       .debug$S                   10000000     kernel32:KERNEL32.dll
 0000:fffcd000       .debug$S                   10000000     kernel32:KERNEL32.dll
 0000:fffcd000       .debug$S                   10000000     kernel32:KERNEL32.dll
 0000:fffcd000       .debug$S                   10000000     kernel32:KERNEL32.dll
 0000:fffcd000       .debug$S                   10000000     kernel32:KERNEL32.dll
 0000:fffcd000       .debug$S                   10000000     kernel32:KERNEL32.dll
 0000:fffcd000       .debug$S                   10000000     kernel32:KERNEL32.dll
 0000:fffcd000       .debug$S                   10000000     kernel32:KERNEL32.dll
 0000:fffcd000       .debug$S                   10000000     kernel32:KERNEL32.dll
 0000:fffcd000       .debug$S                   10000000     kernel32:KERNEL32.dll
 0000:fffcd000       .debug$S                   10000000     kernel32:KERNEL32.dll
 0000:fffcd000       .debug$S                   10000000     kernel32:KERNEL32.dll
 0000:fffcd000       .debug$S                   10000000     kernel32:KERNEL32.dll
 0000:fffcd000       .debug$S                   10000000     kernel32:KERNEL32.dll
 0000:fffcd000       .debug$S                   10000000     kernel32:KERNEL32.dll
 0000:fffcd000       .debug$S                   10000000     kernel32:KERNEL32.dll
 0000:fffcd000       .debug$S                   10000000     kernel32:KERNEL32.dll
 0000:fffcd000       .debug$S                   10000000     kernel32:KERNEL32.dll
 0000:fffcd000       .debug$S                   10000000     kernel32:KERNEL32.dll
 0000:fffcd000       .debug$S                   10000000     kernel32:KERNEL32.dll
 0000:fffcd000       .debug$S                   10000000     kernel32:KERNEL32.dll
 0000:fffcd000       .debug$S                   10000000     kernel32:KERNEL32.dll
 0000:fffcd000       .debug$S                   10000000     kernel32:KERNEL32.dll
 0000:fffcd000       .debug$S                   10000000     kernel32:KERNEL32.dll
 0000:fffcd000       .debug$S                   10000000     kernel32:KERNEL32.dll
 0000:fffcd000       .debug$S                   10000000     kernel32:KERNEL32.dll
 0000:fffcd000       .debug$S                   10000000     kernel32:KERNEL32.dll
 0000:fffcd000       .debug$S                   10000000     kernel32:KERNEL32.dll
 0000:fffcd000       .debug$S                   10000000     kernel32:KERNEL32.dll
 0000:fffcd000       .debug$S                   10000000     kernel32:KERNEL32.dll
 0000:fffcd000       .debug$S                   10000000     kernel32:KERNEL32.dll
 0000:fffcd000       .debug$S                   10000000     kernel32:KERNEL32.dll
 0000:fffcd000       .debug$S                   10000000     kernel32:KERNEL32.dll
 0000:fffcd000       .debug$S                   10000000     kernel32:KERNEL32.dll
 0000:fffcd000       .debug$S                   10000000     kernel32:KERNEL32.dll
 0000:fffcd000       .debug$S                   10000000     kernel32:KERNEL32.dll
 0000:fffcd000       .debug$S                   10000000     kernel32:KERNEL32.dll
 0000:fffcd000       .debug$S                   10000000     kernel32:KERNEL32.dll
 0000:fffcd000       .debug$S                   10000000     kernel32:KERNEL32.dll
 0000:fffcd000       .debug$S                   10000000     kernel32:KERNEL32.dll
 0000:fffcd000       .debug$S                   10000000     kernel32:KERNEL32.dll
 0000:fffcd000       .debug$S                   10000000     kernel32:KERNEL32.dll
 0000:fffcd000       .debug$S                   10000000     kernel32:KERNEL32.dll
 0000:fffcd000       .debug$S                   10000000     kernel32:KERNEL32.dll
 0000:fffcd000       .debug$S                   10000000     kernel32:KERNEL32.dll
 0000:fffcd000       .debug$S                   10000000     kernel32:KERNEL32.dll
 0000:fffcd000       .debug$S                   10000000     kernel32:KERNEL32.dll
 0000:fffcd000       .debug$S                   10000000     kernel32:KERNEL32.dll
 0000:fffcd000       .debug$S                   10000000     kernel32:KERNEL32.dll
 0000:fffcd000       .debug$S                   10000000     kernel32:KERNEL32.dll
 0000:fffcd000       .debug$S                   10000000     kernel32:KERNEL32.dll
 0000:fffcd000       .debug$S                   10000000     kernel32:KERNEL32.dll
 0000:fffcd000       .debug$S                   10000000     kernel32:KERNEL32.dll
 0000:fffcd000       .debug$S                   10000000     kernel32:KERNEL32.dll
 0000:fffcd000       .debug$S                   10000000     kernel32:KERNEL32.dll
 0000:fffcd000       .debug$S                   10000000     kernel32:KERNEL32.dll
 0000:fffcd000       .debug$S                   10000000     kernel32:KERNEL32.dll
 0000:fffcd000       .debug$S                   10000000     ole32:ole32.dll
 0000:fffcd000       .debug$S                   10000000     ole32:ole32.dll
 0000:fffcd000       .debug$S                   10000000     ole32:ole32.dll
 0000:fffcd000       .debug$S                   10000000     ole32:ole32.dll
 0000:fffcd000       .debug$S                   10000000     ole32:ole32.dll
 0000:fffcd000       .debug$S                   10000000     ole32:ole32.dll
 0000:fffcd000       .debug$S                   10000000     ole32:ole32.dll
 0000:fffcd000       .debug$S                   10000000     ole32:ole32.dll
 0000:fffcd000       .debug$S                   10000000     ole32:ole32.dll
 0000:fffcd000       .debug$S                   10000000     ole32:ole32.dll
 0000:fffcd000       .debug$S                   10000000     ole32:ole32.dll
 0000:fffcd000       .debug$S                   10000000     ole32:ole32.dll
 0000:fffcd000       .debug$S                   10000000     ole32:ole32.dll
 0000:fffcd000       .debug$S                   10000000     ole32:ole32.dll
 0000:fffcd000       .debug$S                   10000000     oleaut32:OLEAUT32.dll
 0000:fffcd000       .debug$S                   10000000     oleaut32:OLEAUT32.dll
 0000:fffcd000       .debug$S                   10000000     oleaut32:OLEAUT32.dll
 0000:fffcd000       .debug$S                   10000000     oleaut32:OLEAUT32.dll
 0000:fffcd000       .debug$S                   10000000     oleaut32:OLEAUT32.dll
 0000:fffcd000       .debug$S                   10000000     oleaut32:OLEAUT32.dll
 0000:fffcd000       .debug$S                   10000000     oleaut32:OLEAUT32.dll
 0000:fffcd000       .debug$S                   10000000     oleaut32:OLEAUT32.dll
 0000:fffcd000       .debug$S                   10000000     oleaut32:OLEAUT32.dll
 0000:fffcd000       .debug$S                   10000000     oleaut32:OLEAUT32.dll
 0000:fffcd000       .debug$S                   10000000     oleaut32:OLEAUT32.dll
 0000:fffcd000       .debug$S                   10000000     oleaut32:OLEAUT32.dll
 0000:fffcd000       .debug$S                   10000000     oleaut32:OLEAUT32.dll
 0000:fffcd000       .debug$S                   10000000     oleaut32:OLEAUT32.dll
 0000:fffcd000       .debug$S                   10000000     oleaut32:OLEAUT32.dll
 0000:fffcd000       .debug$S                   10000000     oleaut32:OLEAUT32.dll
 0000:fffcd000       .debug$S                   10000000     user32:USER32.dll
 0000:fffcd000       .debug$S                   10000000     user32:USER32.dll
 0000:fffcd000       .debug$S                   10000000     user32:USER32.dll
 0000:fffcd000       .debug$S                   10000000     user32:USER32.dll
 0000:fffcd000       .debug$S                   10000000     user32:USER32.dll
 0000:fffcd000       .debug$S                   10000000     user32:USER32.dll
 0000:fffcd000       .debug$S                   10000000     user32:USER32.dll
 0000:fffcd000       .debug$S                   10000000     user32:USER32.dll
 0000:fffcd000       .debug$S                   10000000     user32:USER32.dll
 0000:fffcd000       .debug$S                   10000000     user32:USER32.dll
 0000:fffcd000       .debug$S                   10000000     user32:USER32.dll
 0000:fffcd000       .debug$S                   10000000     user32:USER32.dll
 0000:fffcd000       .debug$S                   10000000     user32:USER32.dll
 0000:fffcd000       .debug$S                   10000000     user32:USER32.dll
 0000:fffcd000       .debug$S                   10000000     user32:USER32.dll
 0000:fffcd000       .debug$S                   10000000     user32:USER32.dll
 0000:fffcd000       .debug$S                   10000000     user32:USER32.dll
 0000:fffcd000       .debug$S                   10000000     user32:USER32.dll
 0000:fffcd000       .debug$S                   10000000     user32:USER32.dll
 0000:fffcd000       .debug$S                   10000000     user32:USER32.dll
 0000:fffcd000       .debug$S                   10000000     user32:USER32.dll
 0000:fffcd000       .debug$S                   10000000     user32:USER32.dll
 0000:fffcd000       .debug$S                   10000000     user32:USER32.dll
 0000:fffcd000       .debug$S                   10000000     user32:USER32.dll
 0000:fffcd000       .debug$S                   10000000     user32:USER32.dll
 0000:fffcd000       .debug$S                   10000000     user32:USER32.dll
 0000:fffcd000       .debug$S                   10000000     user32:USER32.dll
 0000:fffcd000       .debug$S                   10000000     user32:USER32.dll
 0000:fffcd000       .debug$S                   10000000     user32:USER32.dll
 0000:fffcd000       .debug$S                   10000000     user32:USER32.dll
 0000:fffcd000       .debug$S                   10000000     user32:USER32.dll
 0000:fffcd000       .debug$S                   10000000     user32:USER32.dll
 0000:fffcd000       .debug$S                   10000000     user32:USER32.dll
 0000:fffcd000       .debug$S                   10000000     user32:USER32.dll
 0000:fffcd000       .debug$S                   10000000     user32:USER32.dll
 0001:00000000       ??__E_AtlComModule@ATL@@YAXXZ 10001000 f   OposVariant.obj
 0001:00000016       ??__E_AtlWinModule@ATL@@YAXXZ 10001016 f   OposVariant.obj
 0001:0000002c       ??__E?pConnMap@?$IConnectionPointContainerImpl@VCOPOSRFIDScanner@@@ATL@@0PBU_ATL_CONNMAP_ENTRY@2@B@@YAXXZ 1000102c f   RFIDScanner.obj
 0001:0000003a       ??__E_Module@@YAXXZ        1000103a f   RFIDScanner.obj
 0001:00000064       ??__E_AtlBaseModule@ATL@@YAXXZ 10001064 f   atls:atlbase.obj
 0001:0000102e       $LN24                      1000202e     RFIDScanner.obj
 0001:0000597f       $LN48                      1000697f     RFIDScanner.obj
 0001:00005997       $LN47                      10006997     RFIDScanner.obj
 0001:00007b44       $LN38                      10008b44     RFIDScanner.obj
 0001:00007b5c       $LN37                      10008b5c     RFIDScanner.obj
 0001:0000924c       $LN76                      1000a24c     RFIDScanner.obj
 0001:00009264       $LN75                      1000a264     RFIDScanner.obj
 0001:0000961d       _memcpy_s                  1000a61d f   RFIDScanner.obj
 0001:0000b899       ?find_pe_section@@YAPAU_IMAGE_SECTION_HEADER@@QAEI@Z 1000c899 f   LIBCMT:utility.obj
 0001:0000bbb8       ?__scrt_initialize_thread_safe_statics@@YAHXZ 1000cbb8 f   LIBCMT:thread_safe_statics.obj
 0001:0000bbdf       ?__scrt_initialize_thread_safe_statics_platform_specific@@YAXXZ 1000cbdf f   LIBCMT:thread_safe_statics.obj
 0001:0000bc61       ?__scrt_uninitialize_thread_safe_statics@@YAXXZ 1000cc61 f   LIBCMT:thread_safe_statics.obj
 0001:0000bfd0       __catch$??2@YAPAXIABUnothrow_t@std@@@Z$0 1000cfd0 f   LIBCMT:new_scalar_nothrow.obj
 0001:0000c010       $$000000                   1000d010     LIBCMT:sehprolg4gs.obj
 0001:0000c070       $$000000                   1000d070     LIBCMT:alloca16.obj
 0001:0000c0a0       $$000000                   1000d0a0     LIBCMT:chkstk.obj
 0001:0000c0cd       ?dllmain_crt_dispatch@@YGHQAUHINSTANCE__@@KQAX@Z 1000d0cd f   LIBCMT:dll_dllmain.obj
 0001:0000c120       ?dllmain_crt_process_attach@@YAHQAUHINSTANCE__@@QAX@Z 1000d120 f   LIBCMT:dll_dllmain.obj
 0001:0000c227       ?dllmain_crt_process_detach@@YAH_N@Z 1000d227 f   LIBCMT:dll_dllmain.obj
 0001:0000c2d7       ?dllmain_dispatch@@YAHQAUHINSTANCE__@@KQAX@Z 1000d2d7 f   LIBCMT:dll_dllmain.obj
 0001:0000c3e2       ?dllmain_raw@@YGHQAUHINSTANCE__@@KQAX@Z 1000d3e2 f   LIBCMT:dll_dllmain.obj
 0001:0000c760       $$000000                   1000d760     LIBCMT:sehprolg4.obj
 0001:0000c7bc       ___get_entropy             1000d7bc f   LIBCMT:gs_support.obj
 0001:0000cab3       ??$GetProcAddressAll@P6GP6GJPAUHWND__@@IIJ@ZPAUAtlThunkData_t@@@Z@@YAP6GP6GJPAUHWND__@@IIJ@ZPAUAtlThunkData_t@@@ZPAP6GP6GJ0IIJ@Z1@Z@Z 1000dab3 f   atls:atlthunk.obj
 0001:0000cab3       ??$GetProcAddressAll@P6GPAUAtlThunkData_t@@XZ@@YAP6GPAUAtlThunkData_t@@XZPAP6GPAU0@XZ@Z 1000dab3 f   atls:atlthunk.obj
 0001:0000cab3       ??$GetProcAddressAll@P6GXPAUAtlThunkData_t@@@Z@@YAP6GXPAUAtlThunkData_t@@@ZPAP6GX0@Z@Z 1000dab3 f   atls:atlthunk.obj
 0001:0000cab3       ??$GetProcAddressAll@P6GXPAUAtlThunkData_t@@PAXI@Z@@YAP6GXPAUAtlThunkData_t@@PAXI@ZPAP6GX01I@Z@Z 1000dab3 f   atls:atlthunk.obj
 0001:0000cb63       ?GetProcAddressSingle@@YA_NPAUHINSTANCE__@@PBDPAPAX@Z 1000db63 f   atls:atlthunk.obj
 0001:0000ccb5       ?__InitializeThunkPool@@YAHXZ 1000dcb5 f   atls:atlthunk.obj
 0001:0000d100       _ValidateLocalCookies      1000e100 f   libvcruntime:chandler4.obj
 0001:0000e12a       $LN1250                    1000f12a     libvcruntime:memcmp.obj
 0001:0000e1b0       $$000000                   1000f1b0     libvcruntime:memcpy.obj
 0001:0000e414       TrailingUpVec              1000f414     libvcruntime:memcpy.obj
 0001:0000e4c0       TrailingDownVec            1000f4c0     libvcruntime:memcpy.obj
 0001:0000e730       $$000000                   1000f730     libvcruntime:memset.obj
 0001:0000ed33       ?_FilterSetCurrentException@@YAKPAU_EXCEPTION_POINTERS@@E@Z 1000fd33 f   libvcruntime:ehhelpers.obj
 0001:0000ef80       $$000000                   1000ff80     libvcruntime:memmove.obj
 0001:0000f1e4       TrailingUpVec              100101e4     libvcruntime:memmove.obj
 0001:0000f290       TrailingDownVec            10010290     libvcruntime:memmove.obj
 0001:0000f500       $$000000                   10010500     libvcruntime:exsup4.obj
 0001:0000f590       __unwind_handler4          10010590 f   libvcruntime:exsup4.obj
 0001:0000f86f       ??$BuildCatchObjectHelperInternal@V__FrameHandler3@@@@YAHPAUEHExceptionRecord@@PAXPBU_s_HandlerType@@PBU_s_CatchableType@@@Z 1001086f f   libvcruntime:frame.obj
 0001:0000f9ad       ??$BuildCatchObjectInternal@V__FrameHandler3@@@@YAXPAUEHExceptionRecord@@PAXPBU_s_HandlerType@@PBU_s_CatchableType@@@Z 100109ad f   libvcruntime:frame.obj
 0001:0000fa46       ??$CatchIt@V__FrameHandler3@@@@YAXPAUEHExceptionRecord@@PAUEHRegistrationNode@@PAU_CONTEXT@@PAXPBU_s_FuncInfo@@PBU_s_HandlerType@@PBU_s_CatchableType@@PBU_s_TryBlockMapEntry@@H1EE@Z 10010a46 f   libvcruntime:frame.obj
 0001:0000fac6       ??$FindHandler@V__FrameHandler3@@@@YAXPAUEHExceptionRecord@@PAUEHRegistrationNode@@PAU_CONTEXT@@PAXPBU_s_FuncInfo@@EH1@Z 10010ac6 f   libvcruntime:frame.obj
 0001:0000fe7c       ??$FindHandlerForForeignException@V__FrameHandler3@@@@YAXPAUEHExceptionRecord@@PAUEHRegistrationNode@@PAU_CONTEXT@@PAXPBU_s_FuncInfo@@HH1@Z 10010e7c f   libvcruntime:frame.obj
 0001:00010194       ?CallCatchBlock@@YAPAXPAUEHExceptionRecord@@PAUEHRegistrationNode@@PAU_CONTEXT@@PBU_s_FuncInfo@@PAXHK@Z 10011194 f   libvcruntime:frame.obj
 0001:00010358       ?CallUnexpected@@YAXPBU_s_ESTypeList@@@Z 10011358 f   libvcruntime:frame.obj
 0001:00010378       __catch$?CallUnexpected@@YAXPBU_s_ESTypeList@@@Z$0 10011378 f   libvcruntime:frame.obj
 0001:00010392       ?ExFilterRethrow@@YAHPAU_EXCEPTION_POINTERS@@@Z 10011392 f   libvcruntime:frame.obj
 0001:000104dc       ?IsInExceptionSpec@@YAEPAUEHExceptionRecord@@PBU_s_ESTypeList@@@Z 100114dc f   libvcruntime:frame.obj
 0001:000105b0       $$000000                   100115b0     libvcruntime:lowhelpr.obj
 0001:00010600       $$000000                   10011600     libvcruntime:exsup.obj
 0001:00010621       __unwind_handler           10011621 f   libvcruntime:exsup.obj
 0001:0001073e       ?try_get_first_available_module@@YAPAUHINSTANCE__@@QBW4module_id@?A0x9d0f8d90@@0@Z 1001173e f   libvcruntime:winapi_downlevel.obj
 0001:000107d8       ?try_get_function@@YAPAXW4function_id@?A0x9d0f8d90@@QBDQBW4module_id@2@2@Z 100117d8 f   libvcruntime:winapi_downlevel.obj
 0001:00010e62       ??$common_tcsncpy_s@_W@@YAHQA_WIQB_WI@Z 10011e62 f   libucrt:wcsncpy_s.obj
 0001:00010f38       ??$common_vsprintf@Vformat_validation_base@__crt_stdio_output@@_W@@YAH_KQA_WIQB_WQAU__crt_locale_pointers@@QAD@Z 10011f38 f   libucrt:output.obj
 0001:000110bf       ??$common_vsprintf_s@_W@@YAH_KQA_WIQB_WQAU__crt_locale_pointers@@QAD@Z 100120bf f   libucrt:output.obj
 0001:00011823       $LN48                      10012823     libucrt:output.obj
 0001:00011d2c       $LN18                      10012d2c     libucrt:output.obj
 0001:00011d40       $LN17                      10012d40     libucrt:output.obj
 0001:0001259b       ??$?RV<lambda_03b1d95aef87969028cfba75ccab2455>@@AAV<lambda_6e4b09c48022b2350581041d5f6b0c4c>@@V<lambda_22bdf7517842c4b3e53723af5aa32b9e>@@@?$__crt_seh_guarded_call@X@@QAEX$$QAV<lambda_03b1d95aef87969028cfba75ccab2455>@@AAV<lambda_6e4b09c48022b2350581041d5f6b0c4c>@@$$QAV<lambda_22bdf7517842c4b3e53723af5aa32b9e>@@@Z 1001359b f   libucrt:exit.obj
 0001:000125e8       ??R<lambda_6e4b09c48022b2350581041d5f6b0c4c>@@QBE@XZ 100135e8 f   libucrt:exit.obj
 0001:000126c2       ?atexit_exception_filter@@YAHK@Z 100136c2 f   libucrt:exit.obj
 0001:000126d5       ?common_exit@@YAXHW4_crt_exit_cleanup_mode@@W4_crt_exit_return_mode@@@Z 100136d5 f   libucrt:exit.obj
 0001:00012739       ?exit_or_terminate_process@@YAXI@Z 10013739 f   libucrt:exit.obj
 0001:0001277b       ?is_managed_app@@YA_NXZ    1001377b f   libucrt:exit.obj
 0001:000127be       ?try_cor_exit_process@@YAXI@Z 100137be f   libucrt:exit.obj
 0001:0001284c       ??$common_configure_argv@D@@YAHW4_crt_argv_mode@@@Z 1001384c f   libucrt:argv_parsing.obj
 0001:00012982       ??$parse_command_line@D@@YAXPADPAPAD0PAI2@Z 10013982 f   libucrt:argv_parsing.obj
 0001:00012b50       ??$common_initialize_environment_nolock@D@@YAHXZ 10013b50 f   libucrt:environment_initialization.obj
 0001:00012ba3       ??$create_environment@D@@YAQAPADQAD@Z 10013ba3 f   libucrt:environment_initialization.obj
 0001:00012c73       ??$free_environment@D@@YAXQAPAD@Z 10013c73 f   libucrt:environment_initialization.obj
 0001:00012c73       ??$free_environment@_W@@YAXQAPA_W@Z 10013c73 f   libucrt:environment_initialization.obj
 0001:00012ccb       ??$uninitialize_environment_internal@D@@YAXAAPAPAD@Z 10013ccb f   libucrt:environment_initialization.obj
 0001:00012ce6       ??$uninitialize_environment_internal@_W@@YAXAAPAPA_W@Z 10013ce6 f   libucrt:environment_initialization.obj
 0001:00012d3d       ??$?RV<lambda_69a2805e680e0e292e8ba93315fe43a8>@@AAV<lambda_f03950bc5685219e0bcd2087efbe011e>@@V<lambda_03fcd07e894ec930e3f35da366ca99d6>@@@?$__crt_seh_guarded_call@H@@QAEH$$QAV<lambda_69a2805e680e0e292e8ba93315fe43a8>@@AAV<lambda_f03950bc5685219e0bcd2087efbe011e>@@$$QAV<lambda_03fcd07e894ec930e3f35da366ca99d6>@@@Z 10013d3d f   libucrt:onexit.obj
 0001:00012d98       ??$?RV<lambda_8e746cf0007f6ed984d6f78af1fec997>@@AAV<lambda_22ebabd17bc4fa466a2aca6d8deb888d>@@V<lambda_18ed0c0b38a6dc0daf1e7ac6d6adf05e>@@@?$__crt_seh_guarded_call@H@@QAEH$$QAV<lambda_8e746cf0007f6ed984d6f78af1fec997>@@AAV<lambda_22ebabd17bc4fa466a2aca6d8deb888d>@@$$QAV<lambda_18ed0c0b38a6dc0daf1e7ac6d6adf05e>@@@Z 10013d98 f   libucrt:onexit.obj
 0001:00012e12       ??R<lambda_22ebabd17bc4fa466a2aca6d8deb888d>@@QBEHXZ 10013e12 f   libucrt:onexit.obj
 0001:00012f3b       ??R<lambda_f03950bc5685219e0bcd2087efbe011e>@@QBEHXZ 10013f3b f   libucrt:onexit.obj
 0001:000130b4       _initialize_global_variables 100140b4 f   libucrt:initialization.obj
 0001:000130c1       _initialize_c              100140c1 f   libucrt:initialization.obj
 0001:000130db       _initialize_environment    100140db f   libucrt:initialization.obj
 0001:000130db       _initialize_global_state_isolation 100140db f   libucrt:initialization.obj
 0001:000130db       _report_memory_leaks       100140db f   libucrt:initialization.obj
 0001:000130db       _uninitialize_c            100140db f   libucrt:initialization.obj
 0001:000130db       _uninitialize_global_state_isolation 100140db f   libucrt:initialization.obj
 0001:000130de       _uninitialize_environment  100140de f   libucrt:initialization.obj
 0001:000130e6       _initialize_pointers       100140e6 f   libucrt:initialization.obj
 0001:00013114       _uninitialize_vcruntime    10014114 f   libucrt:initialization.obj
 0001:0001311d       _uninitialize_allocated_memory 1001411d f   libucrt:initialization.obj
 0001:00013134       _uninitialize_allocated_io_buffers 10014134 f   libucrt:initialization.obj
 0001:00013184       ??R<lambda_af42a3ee9806e9a7305d451646e05244>@@QBEXAAPAU__crt_multibyte_data@@@Z 10014184 f   libucrt:initialization.obj
 0001:00013a70       $$000000                   10014a70     libucrt:strncmp.obj
 0001:00013b5c       ??$?RV<lambda_15ade71b0218206bbe3333a0c9b79046>@@AAV<lambda_da44e0f8b0f19ba52fefafb335991732>@@V<lambda_207f2d024fc103971653565357d6cd41>@@@?$__crt_seh_guarded_call@X@@QAEX$$QAV<lambda_15ade71b0218206bbe3333a0c9b79046>@@AAV<lambda_da44e0f8b0f19ba52fefafb335991732>@@$$QAV<lambda_207f2d024fc103971653565357d6cd41>@@@Z 10014b5c f   libucrt:per_thread_data.obj
 0001:00013bae       ??$?RV<lambda_38edbb1296d33220d7e4dd0ed76b244a>@@AAV<lambda_5ce1d447e08cb34b2473517608e21441>@@V<lambda_fb385d3da700c9147fc39e65dd577a8c>@@@?$__crt_seh_guarded_call@X@@QAEX$$QAV<lambda_38edbb1296d33220d7e4dd0ed76b244a>@@AAV<lambda_5ce1d447e08cb34b2473517608e21441>@@$$QAV<lambda_fb385d3da700c9147fc39e65dd577a8c>@@@Z 10014bae f   libucrt:per_thread_data.obj
 0001:00013c19       ??$?RV<lambda_6affb1475c98b40b75cdec977db92e3c>@@AAV<lambda_b8d4b9c228a6ecc3f80208dbb4b4a104>@@V<lambda_608742c3c92a14382c1684fc64f96c88>@@@?$__crt_seh_guarded_call@X@@QAEX$$QAV<lambda_6affb1475c98b40b75cdec977db92e3c>@@AAV<lambda_b8d4b9c228a6ecc3f80208dbb4b4a104>@@$$QAV<lambda_608742c3c92a14382c1684fc64f96c88>@@@Z 10014c19 f   libucrt:per_thread_data.obj
 0001:00013c6e       ??$?RV<lambda_a7e850c220f1c8d1e6efeecdedd162c6>@@AAV<lambda_46720907175c18b6c9d2717bc0d2d362>@@V<lambda_9048902d66e8d99359bc9897bbb930a8>@@@?$__crt_seh_guarded_call@X@@QAEX$$QAV<lambda_a7e850c220f1c8d1e6efeecdedd162c6>@@AAV<lambda_46720907175c18b6c9d2717bc0d2d362>@@$$QAV<lambda_9048902d66e8d99359bc9897bbb930a8>@@@Z 10014c6e f   libucrt:per_thread_data.obj
 0001:00013cc8       ?construct_ptd@@YAXQAU__acrt_ptd@@QAPAU__crt_locale_data@@@Z 10014cc8 f   libucrt:per_thread_data.obj
 0001:00013d61       ?destroy_fls@@YGXPAX@Z     10014d61 f   libucrt:per_thread_data.obj
 0001:00013d82       ?destroy_ptd@@YAXQAU__acrt_ptd@@@Z 10014d82 f   libucrt:per_thread_data.obj
 0001:00013e4f       ?replace_current_thread_locale_nolock@@YAXQAU__acrt_ptd@@QAU__crt_locale_data@@@Z 10014e4f f   libucrt:per_thread_data.obj
 0001:0001425f       ?try_get_AreFileApisANSI@@YAP6GHXZXZ 1001525f f   libucrt:winapi_thunks.obj
 0001:00014279       ?try_get_LCMapStringEx@@YAP6GHPB_WK0HPA_WHPAU_nlsversioninfo@@PAXJ@ZXZ 10015279 f   libucrt:winapi_thunks.obj
 0001:00014293       ?try_get_LocaleNameToLCID@@YAP6GKPB_WK@ZXZ 10015293 f   libucrt:winapi_thunks.obj
 0001:000142ad       ?try_get_first_available_module@@YAPAUHINSTANCE__@@QBW4module_id@?A0x391cf84c@@0@Z 100152ad f   libucrt:winapi_thunks.obj
 0001:00014374       ?try_get_function@@YAPAXW4function_id@?A0x391cf84c@@QBDQBW4module_id@2@2@Z 10015374 f   libucrt:winapi_thunks.obj
 0001:00014ad7       ?fe_to_nearest@@YA_NQBN_KF@Z 10015ad7 f   libucrt:cvt.obj
 0001:00014b7a       ?fp_format_a@@YAHQBNPADIQADIH_NIQAU__crt_locale_pointers@@W4__acrt_rounding_mode@@@Z 10015b7a f   libucrt:cvt.obj
 0001:00014e89       ?fp_format_e@@YAHQBNQADI1IH_NIQAU__crt_locale_pointers@@W4__acrt_rounding_mode@@@Z 10015e89 f   libucrt:cvt.obj
 0001:00014f31       ?fp_format_e_internal@@YAHQADIH_NIQAU_strflt@@1QAU__crt_locale_pointers@@@Z 10015f31 f   libucrt:cvt.obj
 0001:00015079       ?fp_format_f@@YAHQBNQADI1IHQAU__crt_locale_pointers@@W4__acrt_rounding_mode@@@Z 10016079 f   libucrt:cvt.obj
 0001:0001510a       ?fp_format_f_internal@@YAHQADIHQAU_strflt@@_NQAU__crt_locale_pointers@@@Z 1001610a f   libucrt:cvt.obj
 0001:00015202       ?fp_format_g@@YAHQBNQADI1IH_NIQAU__crt_locale_pointers@@@Z 10016202 f   libucrt:cvt.obj
 0001:000152cb       ?fp_format_nan_or_infinity@@YAHW4__acrt_fp_class@@_NPADI1@Z 100162cb f   libucrt:cvt.obj
 0001:00015360       ?shift_bytes@@YAXQADI0H@Z  10016360 f   libucrt:cvt.obj
 0001:00015394       ?should_round_up@@YA_NQBN_KFW4__acrt_rounding_mode@@@Z 10016394 f   libucrt:cvt.obj
 0001:000156fd       ??$?RV<lambda_e5124f882df8998aaf41531e079ba474>@@AAV<lambda_3e16ef9562a7dcce91392c22ab16ea36>@@V<lambda_e25ca0880e6ef98be67edffd8c599615>@@@?$__crt_seh_guarded_call@X@@QAEX$$QAV<lambda_e5124f882df8998aaf41531e079ba474>@@AAV<lambda_3e16ef9562a7dcce91392c22ab16ea36>@@$$QAV<lambda_e25ca0880e6ef98be67edffd8c599615>@@@Z 100166fd f   libucrt:wsetlocale.obj
 0001:0001579d       ?initialize_inherited_file_handles_nolock@@YAXXZ 1001679d f   libucrt:ioinit.obj
 0001:00015853       ?initialize_stdio_handles_nolock@@YAXXZ 10016853 f   libucrt:ioinit.obj
 0001:00015a64       ?<lambda_invoker_cdecl>@<lambda_838c7f62c73c983481e27c09e84b0b5d>@@CAHPBX0@Z 10016a64 f   libucrt:argv_wildcards.obj
 0001:00015a7c       ??$__acrt_convert_wcs_mbs_cp@D_WV<lambda_62f6974d9771e494a5ea317cc32e971c>@@U__crt_win32_buffer_internal_dynamic_resizing@@@@YAHQBDAAV?$__crt_win32_buffer@_WU__crt_win32_buffer_internal_dynamic_resizing@@@@ABV<lambda_62f6974d9771e494a5ea317cc32e971c>@@I@Z 10016a7c f   libucrt:argv_wildcards.obj
 0001:00015b2e       ??$__acrt_convert_wcs_mbs_cp@_WDV<lambda_28bda7af82a03b66c1cb3803a755f95d>@@U__crt_win32_buffer_internal_dynamic_resizing@@@@YAHQB_WAAV?$__crt_win32_buffer@DU__crt_win32_buffer_internal_dynamic_resizing@@@@ABV<lambda_28bda7af82a03b66c1cb3803a755f95d>@@I@Z 10016b2e f   libucrt:argv_wildcards.obj
 0001:00015c1a       ??$common_expand_argv_wildcards@D@@YAHQAPADQAPAPAD@Z 10016c1a f   libucrt:argv_wildcards.obj
 0001:00015e09       ??$copy_and_add_argument_to_buffer@D@@YAHQBD0IAAV?$argument_list@D@?A0x5f5c8891@@@Z 10016e09 f   libucrt:argv_wildcards.obj
 0001:00015eba       ??$expand_argument_wildcards@D@@YAHQAD0AAV?$argument_list@D@?A0x5f5c8891@@@Z 10016eba f   libucrt:argv_wildcards.obj
 0001:00016204       ?expand_if_necessary@?$argument_list@D@?A0x5f5c8891@@AAEHXZ 10017204 f   libucrt:argv_wildcards.obj
 0001:00016296       ??$__acrt_convert_wcs_mbs_cp@_WDV<lambda_0fec1a7b3f42a53036604e18c2d5e07e>@@U__crt_win32_buffer_no_resizing@@@@YAHQB_WAAV?$__crt_win32_buffer@DU__crt_win32_buffer_no_resizing@@@@ABV<lambda_0fec1a7b3f42a53036604e18c2d5e07e>@@I@Z 10017296 f   libucrt:getmodulefilenamea.obj
 0001:00016439       ??$?RV<lambda_ceb1ee4838e85a9d631eb091e2fbe199>@@AAV<lambda_ae742caa10f662c28703da3d2ea5e57e>@@V<lambda_cd08b5d6af4937fe54fc07d0c9bf6b37>@@@?$__crt_seh_guarded_call@X@@QAEX$$QAV<lambda_ceb1ee4838e85a9d631eb091e2fbe199>@@AAV<lambda_ae742caa10f662c28703da3d2ea5e57e>@@$$QAV<lambda_cd08b5d6af4937fe54fc07d0c9bf6b37>@@@Z 10017439 f   libucrt:mbctype.obj
 0001:00016486       ??R<lambda_ae742caa10f662c28703da3d2ea5e57e>@@QBEXXZ 10017486 f   libucrt:mbctype.obj
 0001:00016509       ?CPtoLocaleName@@YAPB_WH@Z 10017509 f   libucrt:mbctype.obj
 0001:00016547       ?getSystemCP@@YAHH@Z       10017547 f   libucrt:mbctype.obj
 0001:000165b8       ?setSBCS@@YAXPAU__crt_multibyte_data@@@Z 100175b8 f   libucrt:mbctype.obj
 0001:0001661d       ?setSBUpLow@@YAXPAU__crt_multibyte_data@@@Z 1001761d f   libucrt:mbctype.obj
 0001:0001679d       ?setmbcp_internal@@YAHH_NQAU__acrt_ptd@@QAPAU__crt_multibyte_data@@@Z 1001779d f   libucrt:mbctype.obj
 0001:000168b1       ?update_thread_multibyte_data_internal@@YAPAU__crt_multibyte_data@@QAU__acrt_ptd@@QAPAU1@@Z 100178b1 f   libucrt:mbctype.obj
 0001:00016b9f       _memcpy_s                  10017b9f f   libucrt:cfout.obj
 0001:00016b9f       _memcpy_s                  10017b9f f   libucrt:mbctype.obj
 0001:00016c20       ?x_ismbbtype_l@@YAHPAU__crt_locale_pointers@@IHH@Z 10017c20 f   libucrt:ismbbyte.obj
 0001:00016ddb       ?find_end_of_double_null_terminated_sequence@@YAPB_WQB_W@Z 10017ddb f   libucrt:get_environment_from_os.obj
 0001:00016f4a       ??$?RV<lambda_cbab9ec6f41b0180b23cc171c22676b0>@@AAV<lambda_44731a7d0e6d81c3e6aa82d741081786>@@V<lambda_4b292cb8dd18144e164572427af410ab>@@@?$__crt_seh_guarded_call@P6AXH@Z@@QAEP6AXH@Z$$QAV<lambda_cbab9ec6f41b0180b23cc171c22676b0>@@AAV<lambda_44731a7d0e6d81c3e6aa82d741081786>@@$$QAV<lambda_4b292cb8dd18144e164572427af410ab>@@@Z 10017f4a f   libucrt:signal.obj
 0001:00016fae       ?get_global_action_nolock@@YAPAP6AXH@ZH@Z 10017fae f   libucrt:signal.obj
 0001:00016ff0       ?siglookup@@YAPAU__crt_signal_action_t@@HQAU1@@Z 10017ff0 f   libucrt:signal.obj
 0001:000172a9       ??$?RV<lambda_2866be3712abc81a800a822484c830d8>@@AAV<lambda_39ca0ed439415581b5b15c265174cece>@@V<lambda_2b24c74d71094a6cd0cb82e44167d71b>@@@?$__crt_seh_guarded_call@X@@QAEX$$QAV<lambda_2866be3712abc81a800a822484c830d8>@@AAV<lambda_39ca0ed439415581b5b15c265174cece>@@$$QAV<lambda_2b24c74d71094a6cd0cb82e44167d71b>@@@Z 100182a9 f   libucrt:fflush.obj
 0001:00017335       ??$?RV<lambda_2cc53f568c5a2bb6f192f930a45d44ea>@@AAV<lambda_ab61a845afdef5b7c387490eaf3616ee>@@V<lambda_c2ffc0b7726aa6be21d5f0026187e748>@@@?$__crt_seh_guarded_call@X@@QAEX$$QAV<lambda_2cc53f568c5a2bb6f192f930a45d44ea>@@AAV<lambda_ab61a845afdef5b7c387490eaf3616ee>@@$$QAV<lambda_c2ffc0b7726aa6be21d5f0026187e748>@@@Z 10018335 f   libucrt:fflush.obj
 0001:000173e1       ?common_flush_all@@YAH_N@Z 100183e1 f   libucrt:fflush.obj
 0001:0001742e       ?common_flush_all_should_try_to_flush_stream@@YA_NV__crt_stdio_stream@@QAH@Z 1001842e f   libucrt:fflush.obj
 0001:00017461       ?is_stream_flushable_or_commitable@@YA_NJ@Z 10018461 f   libucrt:fflush.obj
 0001:0001796a       ?GetTableIndexFromLocaleName@@YAHPB_W@Z 1001896a f   libucrt:lcidtoname_downlevel.obj
 0001:00017a20       ??R<lambda_3d301b9e52f5099be73030e1f0bf487e>@@QBEIPBD@Z 10018a20 f   libucrt:mbrtowc.obj
 0001:00017ba6       ?should_round_up@@YA_NQBDHW4__acrt_has_trailing_digits@@W4__acrt_rounding_mode@@@Z 10018ba6 f   libucrt:_fptostr.obj
 0001:00019944       ?free_crt_array_internal@@YAXQAPBXI@Z 1001a944 f   libucrt:inittime.obj
 0001:0001a30e       ??$common_tcsncpy_s@D@@YAHQADIQBDI@Z 1001b30e f   libucrt:strncpy_s.obj
 0001:0001a3d0       $$000000                   1001b3d0     libucrt:strpbrk.obj
 0001:0001a4b4       ?__acrt_LCMapStringA_stat@@YAHPAU__crt_locale_pointers@@PB_WKPBDHPADHHH@Z 1001b4b4 f   libucrt:lcmapstringa.obj
 0001:0001a6e7       ?initialize_multibyte@@YAHXZ 1001b6e7 f   libucrt:multibyte_initializer.obj
 0001:0001a6f6       ??$?RV<lambda_9e9de3de5fa147e2223d7db92bc10aa6>@@AAV<lambda_38ce7e780aa69e748d6df282ebc68efe>@@V<lambda_8ca6da459f0f6780f1cff60fdc3d00e5>@@@?$__crt_seh_guarded_call@H@@QAEH$$QAV<lambda_9e9de3de5fa147e2223d7db92bc10aa6>@@AAV<lambda_38ce7e780aa69e748d6df282ebc68efe>@@$$QAV<lambda_8ca6da459f0f6780f1cff60fdc3d00e5>@@@Z 1001b6f6 f   libucrt:commit.obj
 0001:0001a815       ?write_double_translated_ansi_nolock@@YA?AUwrite_result@?A0x17268360@@HQBDI@Z 1001b815 f   libucrt:write.obj
 0001:0001abc1       ?write_double_translated_unicode_nolock@@YA?AUwrite_result@?A0x17268360@@QBDI@Z 1001bbc1 f   libucrt:write.obj
 0001:0001ac29       ?write_requires_double_translation_nolock@@YA_NH@Z 1001bc29 f   libucrt:write.obj
 0001:0001ac9a       ?write_text_ansi_nolock@@YA?AUwrite_result@?A0x17268360@@HQBDI@Z 1001bc9a f   libucrt:write.obj
 0001:0001ad75       ?write_text_utf16le_nolock@@YA?AUwrite_result@?A0x17268360@@HQBDI@Z 1001bd75 f   libucrt:write.obj
 0001:0001ae5e       ?write_text_utf8_nolock@@YA?AUwrite_result@?A0x17268360@@HQBDI@Z 1001be5e f   libucrt:write.obj
 0001:0001b580       $$000000                   1001c580     libucrt:log10_impl.obj
 0001:0001b690       $$000000                   1001c690     libucrt:ceil_pentium4.obj
 0001:0001b7ad       ?to_abstract_control@@YA?AW4__acrt_fenv_abstract_control@@W4__acrt_fenv_machine_sse_control@@@Z 1001c7ad f   libucrt:_fenvutils.obj
 0001:0001b869       ?to_abstract_control@@YA?AW4__acrt_fenv_abstract_control@@W4__acrt_fenv_machine_x87_control@@@Z 1001c869 f   libucrt:_fenvutils.obj
 0001:0001b922       ?to_machine_sse_control@@YA?AW4__acrt_fenv_machine_sse_control@@W4__acrt_fenv_abstract_control@@@Z 1001c922 f   libucrt:_fenvutils.obj
 0001:0001b9ef       ?to_machine_x87_control@@YA?AW4__acrt_fenv_machine_x87_control@@W4__acrt_fenv_abstract_control@@@Z 1001c9ef f   libucrt:_fenvutils.obj
 0001:0001bd83       ??$common_lseek_nolock@_J@@YA_JH_JH@Z 1001cd83 f   libucrt:lseek.obj
 0001:0001bf69       ___hw_cw_sse2              1001cf69 f   libucrt:ieee87.obj
 0001:0001c3ef       __hw_cw                    1001d3ef f   libucrt:ieee87.obj
 0001:0001c4a0       $$000000                   1001d4a0     libucrt:log10_pentium4.obj
 0001:0001c730       $$000000                   1001d730     libucrt:87tran.obj
 0001:0001c940       $$000000                   1001d940     libucrt:87disp.obj
 0001:0001cba0       $$000000                   1001dba0     libucrt:common.obj
 0001:0001cd30       $$000000                   1001dd30     libucrt:genexcep.obj
 0001:0001d02c       ??$?RV<lambda_218ce3db14220d0be481dae8ef3383b6>@@AAV<lambda_628dfdc04ba53c8bfc02c9951375f3f5>@@V<lambda_57dc472bd5c9d5f3b2cbca59b8a843ae>@@@?$__crt_seh_guarded_call@H@@QAEH$$QAV<lambda_218ce3db14220d0be481dae8ef3383b6>@@AAV<lambda_628dfdc04ba53c8bfc02c9951375f3f5>@@$$QAV<lambda_57dc472bd5c9d5f3b2cbca59b8a843ae>@@@Z 1001e02c f   libucrt:close.obj
 0001:0001d220       $$000000                   1001e220     libucrt:_strnicm.obj
 0001:0001d281       ?__dcrt_lowio_initialize_console_output@@YAXXZ 1001e281 f   libucrt:initcon.obj
 0001:0001e160       $$000000                   1001f160     LIBCMT:ulldvrm.obj
 0001:0001e200       $$000000                   1001f200     LIBCMT:llmul.obj
 0001:0001e240       $$000000                   1001f240     LIBCMT:lldvrm.obj
 0001:0001e320       $$000000                   1001f320     LIBCMT:llshl.obj
 0001:0001e340       $$000000                   1001f340     LIBCMT:ullshr.obj
 0001:0001e360       $$000000                   1001f360     LIBCMT:ftol2.obj
 0001:0001e600       $$000000                   1001f600     libvcruntime:strrchr.obj
 0001:0001e740       $$000000                   1001f740     libvcruntime:strchr.obj
 0001:0001e8e3       __ehhandler$??2@YAPAXIABUnothrow_t@std@@@Z 1001f8e3 f   LIBCMT:new_scalar_nothrow.obj
 0001:0001e8fe       __ehhandler$?CallUnexpected@@YAXPBU_s_ESTypeList@@@Z 1001f8fe f   libvcruntime:frame.obj
 0001:0001e919       ??__F_AtlComModule@ATL@@YAXXZ 1001f919 f   OposVariant.obj
 0001:0001e923       ??__F_AtlWinModule@ATL@@YAXXZ 1001f923 f   OposVariant.obj
 0001:0001e93d       ??__F_Module@@YAXXZ        1001f93d f   RFIDScanner.obj
 0001:0001e951       ??__F_AtlBaseModule@ATL@@YAXXZ 1001f951 f   atls:atlbase.obj
 0002:00000304       ?_AtlBaseModule$initializer$@ATL@@3P6AXXZA 10020304     atls:atlbase.obj
 0002:00000308       ?_AtlComModule$initializer$@ATL@@3P6AXXZA 10020308     OposVariant.obj
 0002:0000030c       ?_AtlWinModule$initializer$@ATL@@3P6AXXZA 1002030c     OposVariant.obj
 0002:00000310       ?_Module$initializer$@@3P6AXXZA 10020310     RFIDScanner.obj
 0002:00000314       ??pConnMap$initializer$@?$IConnectionPointContainerImpl@VCOPOSRFIDScanner@@@ATL@@0P6AXXZA@@3P6AXXZA 10020314     RFIDScanner.obj
 0002:00000320       ?__scrt_initialize_tss_var@@3P6AHXZA 10020320     LIBCMT:thread_safe_statics.obj
 0002:00001900       _GS_ExceptionPointers      10021900     LIBCMT:gs_report.obj
 0002:00001a90       ?tokenTable@@3QBUStringLiteral@@B 10021a90     libvcruntime:undname.obj
 0002:00001b10       ?nameTable@@3QBUStringLiteral@@B 10021b10     libvcruntime:undname.obj
 0002:00001da8       ?rttiTable@@3QBUStringLiteral@@B 10021da8     libvcruntime:undname.obj
 0002:00001dd0       ?IndirectionName@@3QBUStringLiteral@@B 10021dd0     libvcruntime:undname.obj
 0002:00001e00       ?PrefixName@@3QBUStringLiteral@@B 10021e00     libvcruntime:undname.obj
 0002:00002430       ?module_names@?A0x9d0f8d90@@3QBQB_WB 10022430     libvcruntime:winapi_downlevel.obj
 0002:000024d8       ?candidate_modules@?1??try_get_FlsAlloc@@YAP6GKP6GXPAX@Z@ZXZ@4QBW4module_id@?A0x9d0f8d90@@B 100224d8     libvcruntime:winapi_downlevel.obj
 0002:000024ec       ?candidate_modules@?1??try_get_FlsFree@@YAP6GHK@ZXZ@4QBW4module_id@?A0x9d0f8d90@@B 100224ec     libvcruntime:winapi_downlevel.obj
 0002:000024fc       ?candidate_modules@?1??try_get_FlsGetValue@@YAP6GPAXK@ZXZ@4QBW4module_id@?A0x9d0f8d90@@B 100224fc     libvcruntime:winapi_downlevel.obj
 0002:00002510       ?candidate_modules@?1??try_get_FlsSetValue@@YAP6GHKPAX@ZXZ@4QBW4module_id@?A0x9d0f8d90@@B 10022510     libvcruntime:winapi_downlevel.obj
 0002:00002524       ?candidate_modules@?1??try_get_InitializeCriticalSectionEx@@YAP6GHPAU_RTL_CRITICAL_SECTION@@KK@ZXZ@4QBW4module_id@?A0x9d0f8d90@@B 10022524     libvcruntime:winapi_downlevel.obj
 0002:00002548       ?errtable@@3QBUerrentry@?A0x31fdb9ec@@B 10022548     libucrt:errno.obj
 0002:00002b90       ___acrt_initializers       10022b90     libucrt:initialization.obj
 0002:00002c10       ?module_names@?A0x391cf84c@@3QBQB_WB 10022c10     libucrt:winapi_thunks.obj
 0002:00003088       ?candidate_modules@?1??try_get_AreFileApisANSI@@YAP6GHXZXZ@4QBW4module_id@?A0x391cf84c@@B 10023088     libucrt:winapi_thunks.obj
 0002:0000309c       ?candidate_modules@?1??try_get_FlsAlloc@@YAP6GKP6GXPAX@Z@ZXZ@4QBW4module_id@?A0x391cf84c@@B 1002309c     libucrt:winapi_thunks.obj
 0002:000030a4       ?candidate_modules@?1??try_get_FlsFree@@YAP6GHK@ZXZ@4QBW4module_id@?A0x391cf84c@@B 100230a4     libucrt:winapi_thunks.obj
 0002:000030ac       ?candidate_modules@?1??try_get_FlsGetValue@@YAP6GPAXK@ZXZ@4QBW4module_id@?A0x391cf84c@@B 100230ac     libucrt:winapi_thunks.obj
 0002:000030b4       ?candidate_modules@?1??try_get_FlsSetValue@@YAP6GHKPAX@ZXZ@4QBW4module_id@?A0x391cf84c@@B 100230b4     libucrt:winapi_thunks.obj
 0002:000030bc       ?candidate_modules@?1??try_get_InitializeCriticalSectionEx@@YAP6GHPAU_RTL_CRITICAL_SECTION@@KK@ZXZ@4QBW4module_id@?A0x391cf84c@@B 100230bc     libucrt:winapi_thunks.obj
 0002:000030c4       ?candidate_modules@?1??try_get_LCMapStringEx@@YAP6GHPB_WK0HPA_WHPAU_nlsversioninfo@@PAXJ@ZXZ@4QBW4module_id@?A0x391cf84c@@B 100230c4     libucrt:winapi_thunks.obj
 0002:000030dc       ?candidate_modules@?1??try_get_LocaleNameToLCID@@YAP6GKPB_WK@ZXZ@4QBW4module_id@?A0x391cf84c@@B 100230dc     libucrt:winapi_thunks.obj
 0002:000030f8       ?candidate_modules@?1??try_get_AppPolicyGetProcessTerminationMethod@@YAP6GJPAXPAW4AppPolicyProcessTerminationMethod@@@ZXZ@4QBW4module_id@?A0x391cf84c@@B 100230f8     libucrt:winapi_thunks.obj
 0002:00003124       ?candidate_modules@?1??try_get_SetThreadStackGuarantee@@YAP6GHPAK@ZXZ@4QBW4module_id@?A0x391cf84c@@B 10023124     libucrt:winapi_thunks.obj
 0002:00003148       ?strings@?1??fp_format_nan_or_infinity@@YAHW4__acrt_fp_class@@_NPADI1@Z@4QAY03QBDA 10023148     libucrt:cvt.obj
 0002:00003690       ?_mb_locale_names@@3QBQB_WB 10023690     libucrt:mbctype.obj
 0002:00003ed8       ?LcidToLocaleNameTable@?A0x881e4c05@@3QBULcidToLocaleName@1@B 10023ed8     libucrt:lcidtoname_downlevel.obj
 0002:00005000       ?LocaleNameToIndexTable@?A0x881e4c05@@3QBULocaleNameIndex@1@B 10025000     libucrt:lcidtoname_downlevel.obj
 0002:00006940       LOG_name                   10026940     libucrt:log10_impl.obj
 0002:00006950       _One                       10026950     libucrt:ceil_pentium4.obj
 0002:00006960       _Bns                       10026960     libucrt:ceil_pentium4.obj
 0002:00006970       _Zero                      10026970     libucrt:ceil_pentium4.obj
 0002:00006980       _S                         10026980     libucrt:ceil_pentium4.obj
 0002:00006990       _NegZero                   10026990     libucrt:ceil_pentium4.obj
 0002:000069a0       emask                      100269a0     libucrt:log10_pentium4.obj
 0002:000069b0       CC                         100269b0     libucrt:log10_pentium4.obj
 0002:000069c0       Magic                      100269c0     libucrt:log10_pentium4.obj
 0002:000069d0       hi_mask                    100269d0     libucrt:log10_pentium4.obj
 0002:000069e0       LOG10_2                    100269e0     libucrt:log10_pentium4.obj
 0002:000069f0       place_L                    100269f0     libucrt:log10_pentium4.obj
 0002:00006a10       One                        10026a10     libucrt:log10_pentium4.obj
 0002:00006a20       Zero                       10026a20     libucrt:log10_pentium4.obj
 0002:00006a30       Two52                      10026a30     libucrt:log10_pentium4.obj
 0002:00006a40       Infs                       10026a40     libucrt:log10_pentium4.obj
 0002:00006a50       NaN                        10026a50     libucrt:log10_pentium4.obj
 0002:00006a60       coeff                      10026a60     libucrt:log10_pentium4.obj
 0002:00006abe       _log2max                   10026abe     libucrt:87tran.obj
 0002:00006ac8       _smallarg                  10026ac8     libucrt:87tran.obj
 0002:00006ad2       _half                      10026ad2     libucrt:87tran.obj
 0002:00006b1e       One                        10026b1e     libucrt:87disp.obj
 0002:00006b26       Three                      10026b26     libucrt:87disp.obj
 0002:00006b2e       XAMtoTagTab                10026b2e     libucrt:87disp.obj
 0002:00006b40       One                        10026b40     libucrt:common.obj
 0002:00006b54       DblMax                     10026b54     libucrt:common.obj
 0002:00006b5c       DblMin                     10026b5c     libucrt:common.obj
 0002:00006b64       IeeeAdjO                   10026b64     libucrt:common.obj
 0002:00006b6c       IeeeAdjU                   10026b6c     libucrt:common.obj
 0002:00006b74       _infinity                  10026b74     libucrt:common.obj
 0002:00006b7c       _zero                      10026b7c     libucrt:common.obj
 0002:00006bc8       _over                      10026bc8     libucrt:fpctrl.obj
 0002:00006bd4       _under                     10026bd4     libucrt:fpctrl.obj
 0002:00007408       ?_names@?1??_get_fname@@9@9 10027408     libucrt:fpexcept.obj
 0002:000075b0       two32                      100275b0     LIBCMT:ftol2.obj
 0002:000075b4       two63                      100275b4     LIBCMT:ftol2.obj
 0002:000075b8       _NaN                       100275b8     LIBCMT:ftol2.obj
 0002:00007c70       __sehtable$?_AtlVerifyStackAvailable@_ATL_SAFE_ALLOCA_IMPL@ATL@@YA_NK@Z 10027c70     RFIDScanner.obj
 0002:00007c90       __sehtable$___scrt_is_nonwritable_in_current_image 10027c90     LIBCMT:utility.obj
 0002:00007cac       __catchsym$??2@YAPAXIABUnothrow_t@std@@@Z$2 10027cac     LIBCMT:new_scalar_nothrow.obj
 0002:00007cbc       __unwindtable$??2@YAPAXIABUnothrow_t@std@@@Z 10027cbc     LIBCMT:new_scalar_nothrow.obj
 0002:00007ccc       __tryblocktable$??2@YAPAXIABUnothrow_t@std@@@Z 10027ccc     LIBCMT:new_scalar_nothrow.obj
 0002:00007ce0       __ehfuncinfo$??2@YAPAXIABUnothrow_t@std@@@Z 10027ce0     LIBCMT:new_scalar_nothrow.obj
 0002:00007d08       __sehtable$?dllmain_crt_process_attach@@YAHQAUHINSTANCE__@@QAX@Z 10027d08     LIBCMT:dll_dllmain.obj
 0002:00007d28       __sehtable$?dllmain_crt_process_detach@@YAH_N@Z 10027d28     LIBCMT:dll_dllmain.obj
 0002:00007d50       __sehtable$?dllmain_dispatch@@YAHQAUHINSTANCE__@@KQAX@Z 10027d50     LIBCMT:dll_dllmain.obj
 0002:00007e00       __sehtable$___DestructExceptionObject 10027e00     libvcruntime:ehhelpers.obj
 0002:00007e20       __sehtable$?FrameUnwindToState@__FrameHandler3@@SAXPAUEHRegistrationNode@@PAXPBU_s_FuncInfo@@H@Z 10027e20     libvcruntime:frame.obj
 0002:00007e48       __sehtable$?CallCatchBlock@@YAPAXPAUEHExceptionRecord@@PAUEHRegistrationNode@@PAU_CONTEXT@@PBU_s_FuncInfo@@PAXHK@Z 10027e48     libvcruntime:frame.obj
 0002:00007e70       __catchsym$?CallUnexpected@@YAXPBU_s_ESTypeList@@@Z$2 10027e70     libvcruntime:frame.obj
 0002:00007e80       __unwindtable$?CallUnexpected@@YAXPBU_s_ESTypeList@@@Z 10027e80     libvcruntime:frame.obj
 0002:00007e90       __tryblocktable$?CallUnexpected@@YAXPBU_s_ESTypeList@@@Z 10027e90     libvcruntime:frame.obj
 0002:00007ea4       __ehfuncinfo$?CallUnexpected@@YAXPBU_s_ESTypeList@@@Z 10027ea4     libvcruntime:frame.obj
 0002:00007ec8       __sehtable$??$BuildCatchObjectHelperInternal@V__FrameHandler3@@@@YAHPAUEHExceptionRecord@@PAXPBU_s_HandlerType@@PBU_s_CatchableType@@@Z 10027ec8     libvcruntime:frame.obj
 0002:00007ee8       __sehtable$??$BuildCatchObjectInternal@V__FrameHandler3@@@@YAXPAUEHExceptionRecord@@PAXPBU_s_HandlerType@@PBU_s_CatchableType@@@Z 10027ee8     libvcruntime:frame.obj
 0002:00007f40       __sehtable$??R<lambda_6e4b09c48022b2350581041d5f6b0c4c>@@QBE@XZ 10027f40     libucrt:exit.obj
 0002:00007f60       __sehtable$??$?RV<lambda_03b1d95aef87969028cfba75ccab2455>@@AAV<lambda_6e4b09c48022b2350581041d5f6b0c4c>@@V<lambda_22bdf7517842c4b3e53723af5aa32b9e>@@@?$__crt_seh_guarded_call@X@@QAEX$$QAV<lambda_03b1d95aef87969028cfba75ccab2455>@@AAV<lambda_6e4b09c48022b2350581041d5f6b0c4c>@@$$QAV<lambda_22bdf7517842c4b3e53723af5aa32b9e>@@@Z 10027f60     libucrt:exit.obj
 0002:00007f80       __sehtable$??$?RV<lambda_8e746cf0007f6ed984d6f78af1fec997>@@AAV<lambda_22ebabd17bc4fa466a2aca6d8deb888d>@@V<lambda_18ed0c0b38a6dc0daf1e7ac6d6adf05e>@@@?$__crt_seh_guarded_call@H@@QAEH$$QAV<lambda_8e746cf0007f6ed984d6f78af1fec997>@@AAV<lambda_22ebabd17bc4fa466a2aca6d8deb888d>@@$$QAV<lambda_18ed0c0b38a6dc0daf1e7ac6d6adf05e>@@@Z 10027f80     libucrt:onexit.obj
 0002:00007fa0       __sehtable$??$?RV<lambda_69a2805e680e0e292e8ba93315fe43a8>@@AAV<lambda_f03950bc5685219e0bcd2087efbe011e>@@V<lambda_03fcd07e894ec930e3f35da366ca99d6>@@@?$__crt_seh_guarded_call@H@@QAEH$$QAV<lambda_69a2805e680e0e292e8ba93315fe43a8>@@AAV<lambda_f03950bc5685219e0bcd2087efbe011e>@@$$QAV<lambda_03fcd07e894ec930e3f35da366ca99d6>@@@Z 10027fa0     libucrt:onexit.obj
 0002:00007fc0       __sehtable$__query_new_handler 10027fc0     libucrt:new_handler.obj
 0002:00007fe0       __sehtable$_terminate      10027fe0     libucrt:terminate.obj
 0002:00008000       __sehtable$??$?RV<lambda_15ade71b0218206bbe3333a0c9b79046>@@AAV<lambda_da44e0f8b0f19ba52fefafb335991732>@@V<lambda_207f2d024fc103971653565357d6cd41>@@@?$__crt_seh_guarded_call@X@@QAEX$$QAV<lambda_15ade71b0218206bbe3333a0c9b79046>@@AAV<lambda_da44e0f8b0f19ba52fefafb335991732>@@$$QAV<lambda_207f2d024fc103971653565357d6cd41>@@@Z 10028000     libucrt:per_thread_data.obj
 0002:00008020       __sehtable$??$?RV<lambda_a7e850c220f1c8d1e6efeecdedd162c6>@@AAV<lambda_46720907175c18b6c9d2717bc0d2d362>@@V<lambda_9048902d66e8d99359bc9897bbb930a8>@@@?$__crt_seh_guarded_call@X@@QAEX$$QAV<lambda_a7e850c220f1c8d1e6efeecdedd162c6>@@AAV<lambda_46720907175c18b6c9d2717bc0d2d362>@@$$QAV<lambda_9048902d66e8d99359bc9897bbb930a8>@@@Z 10028020     libucrt:per_thread_data.obj
 0002:00008040       __sehtable$??$?RV<lambda_38edbb1296d33220d7e4dd0ed76b244a>@@AAV<lambda_5ce1d447e08cb34b2473517608e21441>@@V<lambda_fb385d3da700c9147fc39e65dd577a8c>@@@?$__crt_seh_guarded_call@X@@QAEX$$QAV<lambda_38edbb1296d33220d7e4dd0ed76b244a>@@AAV<lambda_5ce1d447e08cb34b2473517608e21441>@@$$QAV<lambda_fb385d3da700c9147fc39e65dd577a8c>@@@Z 10028040     libucrt:per_thread_data.obj
 0002:00008060       __sehtable$??$?RV<lambda_6affb1475c98b40b75cdec977db92e3c>@@AAV<lambda_b8d4b9c228a6ecc3f80208dbb4b4a104>@@V<lambda_608742c3c92a14382c1684fc64f96c88>@@@?$__crt_seh_guarded_call@X@@QAEX$$QAV<lambda_6affb1475c98b40b75cdec977db92e3c>@@AAV<lambda_b8d4b9c228a6ecc3f80208dbb4b4a104>@@$$QAV<lambda_608742c3c92a14382c1684fc64f96c88>@@@Z 10028060     libucrt:per_thread_data.obj
 0002:00008080       __sehtable$??$?RV<lambda_e5124f882df8998aaf41531e079ba474>@@AAV<lambda_3e16ef9562a7dcce91392c22ab16ea36>@@V<lambda_e25ca0880e6ef98be67edffd8c599615>@@@?$__crt_seh_guarded_call@X@@QAEX$$QAV<lambda_e5124f882df8998aaf41531e079ba474>@@AAV<lambda_3e16ef9562a7dcce91392c22ab16ea36>@@$$QAV<lambda_e25ca0880e6ef98be67edffd8c599615>@@@Z 10028080     libucrt:wsetlocale.obj
 0002:000080a0       __sehtable$___acrt_initialize_lowio 100280a0     libucrt:ioinit.obj
 0002:000080c0       __sehtable$?update_thread_multibyte_data_internal@@YAPAU__crt_multibyte_data@@QAU__acrt_ptd@@QAPAU1@@Z 100280c0     libucrt:mbctype.obj
 0002:000080e0       __sehtable$??$?RV<lambda_ceb1ee4838e85a9d631eb091e2fbe199>@@AAV<lambda_ae742caa10f662c28703da3d2ea5e57e>@@V<lambda_cd08b5d6af4937fe54fc07d0c9bf6b37>@@@?$__crt_seh_guarded_call@X@@QAEX$$QAV<lambda_ceb1ee4838e85a9d631eb091e2fbe199>@@AAV<lambda_ae742caa10f662c28703da3d2ea5e57e>@@$$QAV<lambda_cd08b5d6af4937fe54fc07d0c9bf6b37>@@@Z 100280e0     libucrt:mbctype.obj
 0002:00008100       __sehtable$_raise          10028100     libucrt:signal.obj
 0002:00008120       __sehtable$??$?RV<lambda_cbab9ec6f41b0180b23cc171c22676b0>@@AAV<lambda_44731a7d0e6d81c3e6aa82d741081786>@@V<lambda_4b292cb8dd18144e164572427af410ab>@@@?$__crt_seh_guarded_call@P6AXH@Z@@QAEP6AXH@Z$$QAV<lambda_cbab9ec6f41b0180b23cc171c22676b0>@@AAV<lambda_44731a7d0e6d81c3e6aa82d741081786>@@$$QAV<lambda_4b292cb8dd18144e164572427af410ab>@@@Z 10028120     libucrt:signal.obj
 0002:00008140       __sehtable$??$?RV<lambda_2866be3712abc81a800a822484c830d8>@@AAV<lambda_39ca0ed439415581b5b15c265174cece>@@V<lambda_2b24c74d71094a6cd0cb82e44167d71b>@@@?$__crt_seh_guarded_call@X@@QAEX$$QAV<lambda_2866be3712abc81a800a822484c830d8>@@AAV<lambda_39ca0ed439415581b5b15c265174cece>@@$$QAV<lambda_2b24c74d71094a6cd0cb82e44167d71b>@@@Z 10028140     libucrt:fflush.obj
 0002:00008160       __sehtable$??$?RV<lambda_2cc53f568c5a2bb6f192f930a45d44ea>@@AAV<lambda_ab61a845afdef5b7c387490eaf3616ee>@@V<lambda_c2ffc0b7726aa6be21d5f0026187e748>@@@?$__crt_seh_guarded_call@X@@QAEX$$QAV<lambda_2cc53f568c5a2bb6f192f930a45d44ea>@@AAV<lambda_ab61a845afdef5b7c387490eaf3616ee>@@$$QAV<lambda_c2ffc0b7726aa6be21d5f0026187e748>@@@Z 10028160     libucrt:fflush.obj
 0002:00008180       __sehtable$___acrt_update_thread_locale_data 10028180     libucrt:locale_refcounting.obj
 0002:000081a0       __sehtable$__fcloseall     100281a0     libucrt:closeall.obj
 0002:000081c0       __sehtable$___acrt_lowio_ensure_fh_exists 100281c0     libucrt:osfinfo.obj
 0002:000081e0       __sehtable$??$?RV<lambda_9e9de3de5fa147e2223d7db92bc10aa6>@@AAV<lambda_38ce7e780aa69e748d6df282ebc68efe>@@V<lambda_8ca6da459f0f6780f1cff60fdc3d00e5>@@@?$__crt_seh_guarded_call@H@@QAEH$$QAV<lambda_9e9de3de5fa147e2223d7db92bc10aa6>@@AAV<lambda_38ce7e780aa69e748d6df282ebc68efe>@@$$QAV<lambda_8ca6da459f0f6780f1cff60fdc3d00e5>@@@Z 100281e0     libucrt:commit.obj
 0002:00008200       __sehtable$__write         10028200     libucrt:write.obj
 0002:00008220       __sehtable$_fclose         10028220     libucrt:fclose.obj
 0002:00008240       __sehtable$??$?RV<lambda_218ce3db14220d0be481dae8ef3383b6>@@AAV<lambda_628dfdc04ba53c8bfc02c9951375f3f5>@@V<lambda_57dc472bd5c9d5f3b2cbca59b8a843ae>@@@?$__crt_seh_guarded_call@H@@QAEH$$QAV<lambda_218ce3db14220d0be481dae8ef3383b6>@@AAV<lambda_628dfdc04ba53c8bfc02c9951375f3f5>@@$$QAV<lambda_57dc472bd5c9d5f3b2cbca59b8a843ae>@@@Z 10028240     libucrt:close.obj
 0002:00008260       __sehtable$___set_fpsr_sse2 10028260     libucrt:fpctrl.obj
 0002:00008280       __sehtable$__IsNonwritableInCurrentImage 10028280     LIBCMT:pesect.obj
 0002:000082b0       .edata                     100282b0     OPOSRFIDScanner.exp
 0002:000082d8       rgpv                       100282d8     OPOSRFIDScanner.exp
 0002:000082e8       rgszName                   100282e8     OPOSRFIDScanner.exp
 0002:000082f8       rgwOrd                     100282f8     OPOSRFIDScanner.exp
 0002:00008300       szName                     10028300     OPOSRFIDScanner.exp
 0002:00008314       $N00001                    10028314     OPOSRFIDScanner.exp
 0002:00008324       $N00002                    10028324     OPOSRFIDScanner.exp
 0002:00008336       $N00003                    10028336     OPOSRFIDScanner.exp
 0002:00008348       $N00004                    10028348     OPOSRFIDScanner.exp
 0002:00008956       .idata$6                   10028956     kernel32:KERNEL32.dll
 0002:00008b6a       .idata$6                   10028b6a     user32:USER32.dll
 0002:00008c9e       .idata$6                   10028c9e     gdi32:GDI32.dll
 0002:00008d44       .idata$6                   10028d44     advapi32:ADVAPI32.dll
 0002:00008e60       .idata$6                   10028e60     ole32:ole32.dll
 0002:00008e6a       .idata$6                   10028e6a     oleaut32:OLEAUT32.dll
 0003:00000110       ?ObjectMap@@3PAU_ATL_OBJMAP_ENTRY30@ATL@@A 1002a110     RFIDScanner.obj
 0003:000001d0       ?s_SOMethodNames@@3PAPADA  1002a1d0     RFIDScannerImpl.obj
 0003:00000248       ?s_RequiredMethodsPerRelease@@3PAHA 1002a248     RFIDScannerImpl.obj
 0003:00000270       ?__vcrt_flsindex@@3KA      1002a270     libvcruntime:per_thread_data.obj
 0003:00000290       ?errno_no_memory@@3HA      1002a290     libucrt:errno.obj
 0003:00000294       ?doserrno_no_memory@@3KA   1002a294     libucrt:errno.obj
 0003:000002a0       ?__acrt_flsindex@@3KA      1002a2a0     libucrt:per_thread_data.obj
 0003:00000638       __mbctypes                 1002a638     libucrt:mbctype.obj
 0003:00000740       __mbcasemaps               1002a740     libucrt:mbctype.obj
 0003:00000840       ?__rgctypeflag@@3PADA      1002a840     libucrt:mbctype.obj
 0003:00000848       ?__rgcode_page_info@@3PAUcode_page_info@@A 1002a848     libucrt:mbctype.obj
 0003:00000aa0       ?__dcrt_lowio_console_output_handle@@3PAXA 1002aaa0     libucrt:initcon.obj
 0003:00000aa4       ?__DAZ_ENABLED@?1??__set_fpsr_sse2@@9@9 1002aaa4     libucrt:fpctrl.obj
 0003:00000c38       ?is_initialized_as_dll@@3_NA 1002ac38     LIBCMT:utility.obj
 0003:00000c39       ?module_local_atexit_table_initialized@@3_NA 1002ac39     LIBCMT:utility.obj
 0003:00000c3c       ?module_local_atexit_table@@3U_onexit_table_t@@A 1002ac3c     LIBCMT:utility.obj
 0003:00000c48       ?module_local_at_quick_exit_table@@3U_onexit_table_t@@A 1002ac48     LIBCMT:utility.obj
 0003:00000c54       ?g_tss_cv@@3U_RTL_CONDITION_VARIABLE@@A 1002ac54     LIBCMT:thread_safe_statics.obj
 0003:00000c58       ?g_tss_event@@3PAXA        1002ac58     LIBCMT:thread_safe_statics.obj
 0003:00000c5c       ?g_tss_mutex@@3U_RTL_CRITICAL_SECTION@@A 1002ac5c     LIBCMT:thread_safe_statics.obj
 0003:00000c74       ?g_sleep_condition_variable_cs@@3P6GHPAU_RTL_CONDITION_VARIABLE@@PAU_RTL_CRITICAL_SECTION@@K@ZA 1002ac74     LIBCMT:thread_safe_statics.obj
 0003:00000c78       ?g_wake_all_condition_variable@@3P6GXPAU_RTL_CONDITION_VARIABLE@@@ZA 1002ac78     LIBCMT:thread_safe_statics.obj
 0003:00000c80       _GS_ExceptionRecord        1002ac80     LIBCMT:gs_report.obj
 0003:00000cd0       _GS_ContextRecord          1002acd0     LIBCMT:gs_report.obj
 0003:00000fa0       ?__proc_attached@@3HA      1002afa0     LIBCMT:dll_dllmain.obj
 0003:00000ffc       ?AllocateData@@3P6GPAUAtlThunkData_t@@XZA 1002affc     atls:atlthunk.obj
 0003:00001000       ?InitData@@3P6GXPAUAtlThunkData_t@@PAXI@ZA 1002b000     atls:atlthunk.obj
 0003:00001004       ?DataToCode@@3P6GP6GJPAUHWND__@@IIJ@ZPAUAtlThunkData_t@@@ZA 1002b004     atls:atlthunk.obj
 0003:00001008       ?FreeData@@3P6GXPAUAtlThunkData_t@@@ZA 1002b008     atls:atlthunk.obj
 0003:0000100c       ?Initialized@@3_NA         1002b00c     atls:atlthunk.obj
 0003:0000101c       ?__vcrt_startup_thread_ptd@@3U__vcrt_ptd@@A 1002b01c     libvcruntime:per_thread_data.obj
 0003:00001044       ___vcrt_lock_table         1002b044     libvcruntime:locks.obj
 0003:0000105c       ___vcrt_locks_initialized  1002b05c     libvcruntime:locks.obj
 0003:00001088       ?heap@@3V_HeapManager@@A   1002b088     libvcruntime:undname.obj
 0003:0000109c       ?module_handles@@3PAPAUHINSTANCE__@@A 1002b09c     libvcruntime:winapi_downlevel.obj
 0003:000010a8       ?function_pointers@@3PAPAXA 1002b0a8     libvcruntime:winapi_downlevel.obj
 0003:000010bc       ?__acrt_invalid_parameter_handler@@3V?$dual_state_global@P6AXPB_W00II@Z@__crt_state_management@@A 1002b0bc     libucrt:invalid_parameter.obj
 0003:000010c0       ?c_termination_complete@@3JA 1002b0c0     libucrt:exit.obj
 0003:000010c4       ?thread_local_exit_callback_func@@3P6GXPAXK0@ZA 1002b0c4     libucrt:exit.obj
 0003:000010d0       ?program_name@?1???$common_configure_argv@D@@YAHW4_crt_argv_mode@@@Z@4PADA 1002b0d0     libucrt:argv_parsing.obj
 0003:00001200       ?__acrt_new_handler@@3V?$dual_state_global@P6AHI@Z@__crt_state_management@@A 1002b200     libucrt:new_handler.obj
 0003:00001208       ?module_handles@@3PAPAUHINSTANCE__@@A 1002b208     libucrt:winapi_thunks.obj
 0003:00001258       ?encoded_function_pointers@@3PAPAXA 1002b258     libucrt:winapi_thunks.obj
 0003:000012e0       ?internal_state@?1??_mbtowc_l@@9@4U_Mbstatet@@A 1002b2e0     libucrt:mbtowc.obj
 0003:000012f0       ?enable_percent_n@@3IA     1002b2f0     libucrt:printf_count_output.obj
 0003:00001510       ?__acrt_lock_table@@3PAU_RTL_CRITICAL_SECTION@@A 1002b510     libucrt:locks.obj
 0003:00001660       ?__acrt_locks_initialized@@3IA 1002b660     libucrt:locks.obj
 0003:00001670       ?fSystemSet@@3HA           1002b670     libucrt:mbctype.obj
 0003:00001674       ?initialized@?1??__acrt_initialize_multibyte@@9@4_NA 1002b674     libucrt:mbctype.obj
 0003:00001694       ?ctrlc_action@@3V?$dual_state_global@P6AXH@Z@__crt_state_management@@A 1002b694     libucrt:signal.obj
 0003:00001698       ?ctrlbreak_action@@3V?$dual_state_global@P6AXH@Z@__crt_state_management@@A 1002b698     libucrt:signal.obj
 0003:0000169c       ?abort_action@@3V?$dual_state_global@P6AXH@Z@__crt_state_management@@A 1002b69c     libucrt:signal.obj
 0003:000016a0       ?term_action@@3V?$dual_state_global@P6AXH@Z@__crt_state_management@@A 1002b6a0     libucrt:signal.obj
 0003:000016a4       ?user_matherr@@3V?$dual_state_global@P6AHPAU_exception@@@Z@__crt_state_management@@A 1002b6a4     libucrt:matherr.obj
 0003:000016a8       ?__acrt_global_new_mode@@3V?$dual_state_global@J@__crt_state_management@@A 1002b6a8     libucrt:new_mode.obj
 0003:000016b4       ?internal_pst@?1??__mbrtoc32_utf8@__crt_mbstring@@YAIPA_UPBDIPAU_Mbstatet@@@Z@4U3@A 1002b6b4     libucrt:mbrtoc32.obj
 0003:000016bc       ?__acrt_app_type@@3W4_crt_app_type@@A 1002b6bc     libucrt:report_runtime_error.obj
 0003:000016c4       __pmatherr_set             1002b6c4     libucrt:libm_error.obj
 0004:00000220       $R000000                   1002c220     RFIDScanner.res
 0004:00000bc0       $R0009A0                   1002cbc0     RFIDScanner.res
 0004:00000ca8       $R000A88                   1002cca8     RFIDScanner.res
 0004:00000f10       $R000CF0                   1002cf10     RFIDScanner.res
 0004:00001420       $R001200                   1002d420     RFIDScanner.res
 0004:00004698       $R004478                   10030698     RFIDScanner.res
 0004:000046d0       $R0044B0                   100306d0     RFIDScanner.res
