 OPOSLights

 Timestamp is 5defa9ad (Tue Dec 10 23:20:29 2019)

 Preferred load address is 10000000

 Start         Length     Name                   Class
 0001:00000000 00000080H .text$di                CODE
 0001:00000080 0001d543H .text$mn                CODE
 0001:0001d5c3 00000036H .text$x                 CODE
 0001:0001d5f9 00000042H .text$yd                CODE
 0002:00000000 000002fcH .idata$5                DATA
 0002:000002fc 00000004H .00cfg                  DATA
 0002:00000300 00000004H .CRT$XCA                DATA
 0002:00000304 00000004H .CRT$XCL                DATA
 0002:00000308 00000010H .CRT$XCU                DATA
 0002:00000318 00000004H .CRT$XCZ                DATA
 0002:0000031c 00000004H .CRT$XIA                DATA
 0002:00000320 00000010H .CRT$XIC                DATA
 0002:00000330 00000004H .CRT$XIZ                DATA
 0002:00000334 00000004H .CRT$XLA                DATA
 0002:00000338 00000004H .CRT$XLZ                DATA
 0002:0000033c 00000004H .CRT$XPA                DATA
 0002:00000340 00000008H .CRT$XPX                DATA
 0002:00000348 00000004H .CRT$XPXA               DATA
 0002:0000034c 00000004H .CRT$XPZ                DATA
 0002:00000350 00000004H .CRT$XTA                DATA
 0002:00000354 0000000cH .CRT$XTZ                DATA
 0002:00000358 00000000H .gfids$y                DATA
 0002:00000360 00006decH .rdata                  DATA
 0002:0000714c 00000018H .rdata$T                DATA
 0002:00007164 0000017cH .rdata$r                DATA
 0002:000072e0 0000001cH .rdata$sxdata           DATA
 0002:000072fc 000003dcH .rdata$zzzdbg           DATA
 0002:000076d8 00000004H .rtc$IAA                DATA
 0002:000076dc 00000004H .rtc$IZZ                DATA
 0002:000076e0 00000004H .rtc$TAA                DATA
 0002:000076e4 00000004H .rtc$TZZ                DATA
 0002:000076e8 00000004H .tls                    DATA
 0002:000076ec 00000004H .tls$                   DATA
 0002:000076f0 00000008H .tls$ZZZ                DATA
 0002:000076f8 0000060cH .xdata$x                DATA
 0002:00007d04 00000004H ATL$__a                 DATA
 0002:00007d08 00000008H ATL$__z                 DATA
 0002:00007d10 000000a8H .edata                  DATA
 0002:00007db8 00000078H .idata$2                DATA
 0002:00007e30 00000014H .idata$3                DATA
 0002:00007e44 000002fcH .idata$4                DATA
 0002:00008140 00000bc8H .idata$6                DATA
 0003:00000000 00000a80H .data                   DATA
 0003:00000a80 00000098H .data$r                 DATA
 0003:00000b18 00000b80H .bss                    DATA
 0004:00000000 00000220H .rsrc$01                DATA
 0004:00000220 000036a8H .rsrc$02                DATA

  Address         Publics by Value              Rva+Base       Lib:Object

 0000:00000000       ___guard_fids_count        00000000     <absolute>
 0000:00000000       ___hybrid_code_map_count   00000000     <absolute>
 0000:00000000       ___guard_iat_count         00000000     <absolute>
 0000:00000000       ___hybrid_auxiliary_iat    00000000     <absolute>
 0000:00000000       ___volatile_metadata       00000000     <absolute>
 0000:00000000       ___dynamic_value_reloc_table 00000000     <absolute>
 0000:00000000       ___guard_longjmp_count     00000000     <absolute>
 0000:00000000       ___guard_fids_table        00000000     <absolute>
 0000:00000000       ___guard_longjmp_table     00000000     <absolute>
 0000:00000000       ___AbsoluteZero            00000000     <absolute>
 0000:00000000       __except_list              00000000     <absolute>
 0000:00000000       ___guard_iat_table         00000000     <absolute>
 0000:00000000       ___enclave_config          00000000     <absolute>
 0000:00000000       ___hybrid_code_map         00000000     <absolute>
 0000:00000007       ___safe_se_handler_count   00000007     <absolute>
 0000:0000002c       __tls_array                0000002c     <absolute>
 0000:00000100       ___guard_flags             00000100     <absolute>
 0000:00000000       ___ImageBase               10000000     <linker-defined>
 0001:00000080       ?DupWide@_CW@@AAEXXZ       10001080 f   CWString.obj
 0001:0000009c       ?cw_dup@@YGXPBDAAHAAPA_W1@Z 1000109c f   CWString.obj
 0001:00000124       ?cw_memcpy@@YGHPA_WPBDH@Z  10001124 f   CWString.obj
 0001:00000150       ?cw_strcpy@@YAHPA_WPBD@Z   10001150 f   CWString.obj
 0001:00000163       ?cw_strlen@@YAHPBD@Z       10001163 f   CWString.obj
 0001:0000017c       ??0CAtlComModule@ATL@@QAE@XZ 1000117c f i OposVariant.obj
 0001:000001c1       ??0CAtlWinModule@ATL@@QAE@XZ 100011c1 f i OposVariant.obj
 0001:000001f8       ??0OposDispParms@@QAE@PAVOposVariant@@H@Z 100011f8 f   OposVariant.obj
 0001:00000269       ??1OposDispParms@@QAE@XZ   10001269 f   OposVariant.obj
 0001:00000277       ??A?$CSimpleArray@GV?$CSimpleArrayEqualHelper@G@ATL@@@ATL@@QAEAAGH@Z 10001277 f i OposVariant.obj
 0001:0000029c       ??_Estringdispid@CComTypeInfoHolder@ATL@@QAEPAXI@Z 1000129c f i OposVariant.obj
 0001:00000308       ?AtlWinModuleInit@ATL@@YGJPAU_ATL_WIN_MODULE70@1@@Z 10001308 f i OposVariant.obj
 0001:0000032e       ?AtlWinModuleTerm@ATL@@YGJPAU_ATL_WIN_MODULE70@1@PAUHINSTANCE__@@@Z 1000132e f i OposVariant.obj
 0001:00000391       ?ChangeBSTR@OposVariant@@QAEXPAPA_WAAJ@Z 10001391 f   OposVariant.obj
 0001:000003d2       ?ChangeLONG@OposVariant@@QAEXPAJAAJ@Z 100013d2 f   OposVariant.obj
 0001:00000413       ?GetLONG@OposVariant@@QAEJXZ 10001413 f   OposVariant.obj
 0001:0000042e       ?Init@CComCriticalSection@ATL@@QAEJXZ 1000142e f i OposVariant.obj
 0001:00000456       ?RemoveAll@?$CSimpleArray@PAUHINSTANCE__@@V?$CSimpleArrayEqualHelper@PAUHINSTANCE__@@@ATL@@@ATL@@QAEXXZ 10001456 f i atls:atlbase.obj
 0001:00000456       ?RemoveAll@?$CSimpleArray@GV?$CSimpleArrayEqualHelper@G@ATL@@@ATL@@QAEXXZ 10001456 f i OposVariant.obj
 0001:00000473       ?SetBSTR@OposVariant@@QAEXPA_WAAJ@Z 10001473 f   OposVariant.obj
 0001:000004a7       ?SetBSTR_Copy@OposVariant@@QAEXPA_WAAJ@Z 100014a7 f   OposVariant.obj
 0001:000004f7       ?SetBSTR_InOutPtr@OposVariant@@QAE_NPAPA_WAAJ@Z 100014f7 f   OposVariant.obj
 0001:0000052e       ?SetDispatch_Ptr@OposVariant@@QAEXPAUIDispatch@@AAJ@Z 1000152e f   OposVariant.obj
 0001:00000569       ?SetLONG@OposVariant@@QAEXJ@Z 10001569 f   OposVariant.obj
 0001:0000058b       ?SetLONG_Ptr@OposVariant@@QAEXPAJAAJ@Z 1000158b f   OposVariant.obj
 0001:000005be       ?SetString@OposVariant@@QAEXPB_WAAJ@Z 100015be f   OposVariant.obj
 0001:00000604       ?SetVARIANT_BOOL@OposVariant@@QAEXF@Z 10001604 f   OposVariant.obj
 0001:0000062e       ?Term@CAtlComModule@ATL@@QAEXXZ 1000162e f i OposVariant.obj
 0001:00000678       ?_AtlRaiseException@ATL@@YAXKK@Z 10001678 f i OposVariant.obj
 0001:0000068d       ?CreateInstance@CComClassFactory@ATL@@UAGJPAUIUnknown@@ABU_GUID@@PAPAX@Z 1000168d f i Lights.obj
 0001:000006cb       ?LockServer@CComClassFactory@ATL@@UAGJH@Z 100016cb f i Lights.obj
 0001:000006ea       ??_ECComClassFactory@ATL@@UAEPAXI@Z 100016ea f i Lights.obj
 0001:000006ea       ??_GCComClassFactory@ATL@@UAEPAXI@Z 100016ea f i Lights.obj
 0001:00000715       ?GetWindowProc@?$CWindowImplBaseT@VCWindow@ATL@@V?$CWinTraits@$0FGAAAAAA@$0A@@2@@ATL@@UAEP6GJPAUHWND__@@IIJ@ZXZ 10001715 f i Lights.obj
 0001:0000071b       ?StartWindowProc@?$CWindowImplBaseT@VCWindow@ATL@@V?$CWinTraits@$0FGAAAAAA@$0A@@2@@ATL@@SGJPAUHWND__@@IIJ@Z 1000171b f i Lights.obj
 0001:0000076f       ?OnFinalMessage@?$CWindowImplBaseT@VCWindow@ATL@@V?$CWinTraits@$0FGAAAAAA@$0A@@2@@ATL@@UAEXPAUHWND__@@@Z 1000176f f i Lights.obj
 0001:0000076f       ?ObjectMain@CComObjectRootBase@ATL@@SGX_N@Z 1000176f f i Lights.obj
 0001:00000772       ?GetTypeInfoCount@?$IDispatchImpl@UIOPOSLights@@$1?IID_IOPOSLights@@3U_GUID@@B$1?LIBID_OposLights_CCO@@3U3@B$00$0A@VCComTypeInfoHolder@ATL@@@ATL@@UAGJPAI@Z 10001772 f i Lights.obj
 0001:0000078f       ?GetTypeInfo@?$IDispatchImpl@UIOPOSLights@@$1?IID_IOPOSLights@@3U_GUID@@B$1?LIBID_OposLights_CCO@@3U3@B$00$0A@VCComTypeInfoHolder@ATL@@@ATL@@UAGJIKPAPAUITypeInfo@@@Z 1000178f f i Lights.obj
 0001:000007b3       ?GetIDsOfNames@?$IDispatchImpl@UIOPOSLights@@$1?IID_IOPOSLights@@3U_GUID@@B$1?LIBID_OposLights_CCO@@3U3@B$00$0A@VCComTypeInfoHolder@ATL@@@ATL@@UAGJABU_GUID@@PAPA_WIKPAJ@Z 100017b3 f i Lights.obj
 0001:000007d3       ?Invoke@?$IDispatchImpl@UIOPOSLights@@$1?IID_IOPOSLights@@3U_GUID@@B$1?LIBID_OposLights_CCO@@3U3@B$00$0A@VCComTypeInfoHolder@ATL@@@ATL@@UAGJJABU_GUID@@KGPAUtagDISPPARAMS@@PAUtagVARIANT@@PAUtagEXCEPINFO@@PAI@Z 100017d3 f i Lights.obj
 0001:000007e1       ?CreateControlWindow@?$CComControl@VCOPOSLights@@V?$CWindowImpl@VCOPOSLights@@VCWindow@ATL@@V?$CWinTraits@$0FGAAAAAA@$0A@@3@@ATL@@@ATL@@UAEPAUHWND__@@PAU3@AAUtagRECT@@@Z 100017e1 f i Lights.obj
 0001:00000810       ?ControlQueryInterface@?$CComControl@VCOPOSLights@@V?$CWindowImpl@VCOPOSLights@@VCWindow@ATL@@V?$CWinTraits@$0FGAAAAAA@$0A@@3@@ATL@@@ATL@@UAEJABU_GUID@@PAPAX@Z 10001810 f i Lights.obj
 0001:0000082b       ?GetClassID@?$IPersistStorageImpl@VCOPOSLights@@@ATL@@UAGJPAU_GUID@@@Z 1000182b f i Lights.obj
 0001:0000082b       ?GetClassID@?$IPersistStreamInitImpl@VCOPOSLights@@@ATL@@UAGJPAU_GUID@@@Z 1000182b f i Lights.obj
 0001:0000082b       ?GetUserClassID@?$IOleObjectImpl@VCOPOSLights@@@ATL@@UAGJPAU_GUID@@@Z 1000182b f i Lights.obj
 0001:0000084f       ?IsDirty@?$IPersistStreamInitImpl@VCOPOSLights@@@ATL@@UAGJXZ 1000184f f i Lights.obj
 0001:0000086e       ?Load@?$IPersistStreamInitImpl@VCOPOSLights@@@ATL@@UAGJPAUIStream@@@Z 1000186e f i Lights.obj
 0001:0000088d       ?Save@?$IPersistStreamInitImpl@VCOPOSLights@@@ATL@@UAGJPAUIStream@@H@Z 1000188d f i Lights.obj
 0001:000008af       ?GetSizeMax@?$IPersistStreamInitImpl@VCOPOSLights@@@ATL@@UAGJPAT_ULARGE_INTEGER@@@Z 100018af f i Lights.obj
 0001:00000a8e       ?InitNew@?$IPersistStreamInitImpl@VCOPOSLights@@@ATL@@UAGJXZ 10001a8e f i Lights.obj
 0001:00000aab       ?SetColorScheme@?$IOleObjectImpl@VCOPOSLights@@@ATL@@UAGJPAUtagLOGPALETTE@@@Z 10001aab f i Lights.obj
 0001:00000aab       ?GetControlInfo@?$IOleControlImpl@VCOPOSLights@@@ATL@@UAGJPAUtagCONTROLINFO@@@Z 10001aab f i Lights.obj
 0001:00000aab       ?QueryGetData@?$IDataObjectImpl@VCOPOSLights@@@ATL@@UAGJPAUtagFORMATETC@@@Z 10001aab f i Lights.obj
 0001:00000aab       ?OnMnemonic@?$IOleControlImpl@VCOPOSLights@@@ATL@@UAGJPAUtagMSG@@@Z 10001aab f i Lights.obj
 0001:00000aab       ?ContextSensitiveHelp@?$IOleInPlaceObjectWindowlessImpl@VCOPOSLights@@@ATL@@UAGJH@Z 10001aab f i Lights.obj
 0001:00000aab       ?SOOutputCompleteDummy@COPOSLights@@MAGJJ@Z 10001aab f i Lights.obj
 0001:00000aab       ?SODataDummy@COPOSLights@@MAGJJ@Z 10001aab f i Lights.obj
 0001:00000aab       ?ContextSensitiveHelp@?$IOleInPlaceActiveObjectImpl@VCOPOSLights@@@ATL@@UAGJH@Z 10001aab f i Lights.obj
 0001:00000aab       ?Unfreeze@?$IViewObjectExImpl@VCOPOSLights@@@ATL@@UAGJK@Z 10001aab f i Lights.obj
 0001:00000aab       ?GetDropTarget@?$IOleInPlaceObjectWindowlessImpl@VCOPOSLights@@@ATL@@UAGJPAPAUIDropTarget@@@Z 10001aab f i Lights.obj
 0001:00000ab3       ?OnFrameWindowActivate@?$IOleInPlaceActiveObjectImpl@VCOPOSLights@@@ATL@@UAGJH@Z 10001ab3 f i Lights.obj
 0001:00000ab3       ?EnableModeless@?$IOleInPlaceActiveObjectImpl@VCOPOSLights@@@ATL@@UAGJH@Z 10001ab3 f i Lights.obj
 0001:00000ab3       ?OnAmbientPropertyChange@?$IOleControlImpl@VCOPOSLights@@@ATL@@UAGJJ@Z 10001ab3 f i Lights.obj
 0001:00000ab3       ?SaveCompleted@?$IPersistStorageImpl@VCOPOSLights@@@ATL@@UAGJPAUIStorage@@@Z 10001ab3 f i Lights.obj
 0001:00000ab8       ?SetClientSite@?$IOleObjectImpl@VCOPOSLights@@@ATL@@UAGJPAUIOleClientSite@@@Z 10001ab8 f i Lights.obj
 0001:00000ad5       ?GetClientSite@?$IOleObjectImpl@VCOPOSLights@@@ATL@@UAGJPAPAUIOleClientSite@@@Z 10001ad5 f i Lights.obj
 0001:00000af2       ?SetHostNames@?$IOleObjectImpl@VCOPOSLights@@@ATL@@UAGJPB_W0@Z 10001af2 f i Lights.obj
 0001:00000af7       ?Close@?$IOleObjectImpl@VCOPOSLights@@@ATL@@UAGJK@Z 10001af7 f i Lights.obj
 0001:00000b14       ?GetClipboardData@?$IOleObjectImpl@VCOPOSLights@@@ATL@@UAGJKPAPAUIDataObject@@@Z 10001b14 f i Lights.obj
 0001:00000b14       ?EnumFormatEtc@?$IDataObjectImpl@VCOPOSLights@@@ATL@@UAGJKPAPAUIEnumFORMATETC@@@Z 10001b14 f i Lights.obj
 0001:00000b14       ?GetDataHere@?$IDataObjectImpl@VCOPOSLights@@@ATL@@UAGJPAUtagFORMATETC@@PAUtagSTGMEDIUM@@@Z 10001b14 f i Lights.obj
 0001:00000b14       ?GetCanonicalFormatEtc@?$IDataObjectImpl@VCOPOSLights@@@ATL@@UAGJPAUtagFORMATETC@@0@Z 10001b14 f i Lights.obj
 0001:00000b14       ?SetMoniker@?$IOleObjectImpl@VCOPOSLights@@@ATL@@UAGJKPAUIMoniker@@@Z 10001b14 f i Lights.obj
 0001:00000b14       ?QueryInterface@CRegObject@ATL@@UAGJABU_GUID@@PAPAX@Z 10001b14 f i Lights.obj
 0001:00000b14       ?GetRect@?$IViewObjectExImpl@VCOPOSLights@@@ATL@@UAGJKPAU_RECTL@@@Z 10001b14 f i Lights.obj
 0001:00000b1c       ?SetData@?$IDataObjectImpl@VCOPOSLights@@@ATL@@UAGJPAUtagFORMATETC@@PAUtagSTGMEDIUM@@H@Z 10001b1c f i Lights.obj
 0001:00000b1c       ?GetMoniker@?$IOleObjectImpl@VCOPOSLights@@@ATL@@UAGJKKPAPAUIMoniker@@@Z 10001b1c f i Lights.obj
 0001:00000b1c       ?InitFromData@?$IOleObjectImpl@VCOPOSLights@@@ATL@@UAGJPAUIDataObject@@HK@Z 10001b1c f i Lights.obj
 0001:00000b24       ?DoVerb@?$IOleObjectImpl@VCOPOSLights@@@ATL@@UAGJJPAUtagMSG@@PAUIOleClientSite@@JPAUHWND__@@PBUtagRECT@@@Z 10001b24 f i Lights.obj
 0001:00000c18       ?EnumVerbs@?$IOleObjectImpl@VCOPOSLights@@@ATL@@UAGJPAPAUIEnumOLEVERB@@@Z 10001c18 f i Lights.obj
 0001:00000c3a       ?IsUpToDate@?$IOleObjectImpl@VCOPOSLights@@@ATL@@UAGJXZ 10001c3a f i Lights.obj
 0001:00000c3a       ?Release@CRegObject@ATL@@UAGKXZ 10001c3a f i Lights.obj
 0001:00000c3a       ?Update@?$IOleObjectImpl@VCOPOSLights@@@ATL@@UAGJXZ 10001c3a f i Lights.obj
 0001:00000c3a       ?HandsOffStorage@?$IPersistStorageImpl@VCOPOSLights@@@ATL@@UAGJXZ 10001c3a f i Lights.obj
 0001:00000c3f       ?GetUserType@?$IOleObjectImpl@VCOPOSLights@@@ATL@@UAGJKPAPA_W@Z 10001c3f f i Lights.obj
 0001:00000c57       ?SetExtent@?$IOleObjectImpl@VCOPOSLights@@@ATL@@UAGJKPAUtagSIZE@@@Z 10001c57 f i Lights.obj
 0001:00000c77       ?GetExtent@?$IOleObjectImpl@VCOPOSLights@@@ATL@@UAGJKPAUtagSIZE@@@Z 10001c77 f i Lights.obj
 0001:00000cb5       ?Advise@?$IOleObjectImpl@VCOPOSLights@@@ATL@@UAGJPAUIAdviseSink@@PAK@Z 10001cb5 f i Lights.obj
 0001:00000cd5       ?Unadvise@?$IOleObjectImpl@VCOPOSLights@@@ATL@@UAGJK@Z 10001cd5 f i Lights.obj
 0001:00000d04       ?EnumAdvise@?$IOleObjectImpl@VCOPOSLights@@@ATL@@UAGJPAPAUIEnumSTATDATA@@@Z 10001d04 f i Lights.obj
 0001:00000d44       ?GetMiscStatus@?$IOleObjectImpl@VCOPOSLights@@@ATL@@UAGJKPAK@Z 10001d44 f i Lights.obj
 0001:00000d5c       ?GetWindow@?$IOleInPlaceActiveObjectImpl@VCOPOSLights@@@ATL@@UAGJPAPAUHWND__@@@Z 10001d5c f i Lights.obj
 0001:00000da9       ?TranslateAcceleratorW@?$IOleInPlaceActiveObjectImpl@VCOPOSLights@@@ATL@@UAGJPAUtagMSG@@@Z 10001da9 f i Lights.obj
 0001:00000e57       ?OnDocWindowActivate@?$IOleInPlaceActiveObjectImpl@VCOPOSLights@@@ATL@@UAGJH@Z 10001e57 f i Lights.obj
 0001:00000e79       ?ResizeBorder@?$IOleInPlaceActiveObjectImpl@VCOPOSLights@@@ATL@@UAGJPBUtagRECT@@PAUIOleInPlaceUIWindow@@H@Z 10001e79 f i Lights.obj
 0001:00000e7e       ?Draw@?$IViewObjectExImpl@VCOPOSLights@@@ATL@@UAGJKJPAXPAUtagDVTARGETDEVICE@@PAUHDC__@@2PBU_RECTL@@3P6GHK@ZK@Z 10001e7e f i Lights.obj
 0001:00000eb0       ?GetColorSet@?$IViewObjectExImpl@VCOPOSLights@@@ATL@@UAGJKJPAXPAUtagDVTARGETDEVICE@@PAUHDC__@@PAPAUtagLOGPALETTE@@@Z 10001eb0 f i Lights.obj
 0001:00000eb8       ?Freeze@?$IViewObjectExImpl@VCOPOSLights@@@ATL@@UAGJKJPAXPAK@Z 10001eb8 f i Lights.obj
 0001:00000eb8       ?SOErrorDummy@COPOSLights@@MAGJJJJPAJ@Z 10001eb8 f i Lights.obj
 0001:00000ec0       ?SetAdvise@?$IViewObjectExImpl@VCOPOSLights@@@ATL@@UAGJKKPAUIAdviseSink@@@Z 10001ec0 f i Lights.obj
 0001:00000edf       ?GetAdvise@?$IViewObjectExImpl@VCOPOSLights@@@ATL@@UAGJPAK0PAPAUIAdviseSink@@@Z 10001edf f i Lights.obj
 0001:00000f14       ?GetExtent@?$IViewObjectExImpl@VCOPOSLights@@@ATL@@UAGJKJPAUtagDVTARGETDEVICE@@PAUtagSIZE@@@Z 10001f14 f i Lights.obj
 0001:00000f45       ?GetViewStatus@?$IViewObjectExImpl@VCOPOSLights@@@ATL@@UAGJPAK@Z 10001f45 f i Lights.obj
 0001:00000f62       ?QueryHitPoint@?$IViewObjectExImpl@VCOPOSLights@@@ATL@@UAGJKPBUtagRECT@@UtagPOINT@@JPAK@Z 10001f62 f i Lights.obj
 0001:00000fa3       ?QueryHitRect@?$IViewObjectExImpl@VCOPOSLights@@@ATL@@UAGJKPBUtagRECT@@0JPAK@Z 10001fa3 f i Lights.obj
 0001:00000ffe       ?GetNaturalExtent@?$IViewObjectExImpl@VCOPOSLights@@@ATL@@UAGJKJPAUtagDVTARGETDEVICE@@PAUHDC__@@PAUtagExtentInfo@@PAUtagSIZE@@@Z 10001ffe f i Lights.obj
 0001:00001049       ?GetWindow@?$IOleInPlaceObjectWindowlessImpl@VCOPOSLights@@@ATL@@UAGJPAPAUHWND__@@@Z 10002049 f i Lights.obj
 0001:00001096       ?InPlaceDeactivate@?$IOleInPlaceObjectWindowlessImpl@VCOPOSLights@@@ATL@@UAGJXZ 10002096 f i Lights.obj
 0001:000010b0       ?UIDeactivate@?$IOleInPlaceObjectWindowlessImpl@VCOPOSLights@@@ATL@@UAGJXZ 100020b0 f i Lights.obj
 0001:000010ca       ?SetObjectRects@?$IOleInPlaceObjectWindowlessImpl@VCOPOSLights@@@ATL@@UAGJPBUtagRECT@@0@Z 100020ca f i Lights.obj
 0001:000010ea       ?ReactivateAndUndo@?$IOleInPlaceObjectWindowlessImpl@VCOPOSLights@@@ATL@@UAGJXZ 100020ea f i Lights.obj
 0001:000010f2       ?OnWindowMessage@?$IOleInPlaceObjectWindowlessImpl@VCOPOSLights@@@ATL@@UAGJIIJPAJ@Z 100020f2 f i Lights.obj
 0001:00001162       ?EnumConnectionPoints@?$IConnectionPointContainerImpl@VCOPOSLights@@@ATL@@UAGJPAPAUIEnumConnectionPoints@@@Z 10002162 f i Lights.obj
 0001:000012dc       ?FindConnectionPoint@?$IConnectionPointContainerImpl@VCOPOSLights@@@ATL@@UAGJABU_GUID@@PAPAUIConnectionPoint@@@Z 100022dc f i Lights.obj
 0001:0000137f       ?IsDirty@?$IPersistStorageImpl@VCOPOSLights@@@ATL@@UAGJXZ 1000237f f i Lights.obj
 0001:000013b3       ?InitNew@?$IPersistStorageImpl@VCOPOSLights@@@ATL@@UAGJPAUIStorage@@@Z 100023b3 f i Lights.obj
 0001:000013e7       ?Load@?$IPersistStorageImpl@VCOPOSLights@@@ATL@@UAGJPAUIStorage@@@Z 100023e7 f i Lights.obj
 0001:00001453       ?Save@?$IPersistStorageImpl@VCOPOSLights@@@ATL@@UAGJPAUIStorage@@H@Z 10002453 f i Lights.obj
 0001:000014c6       ?GetPages@?$ISpecifyPropertyPagesImpl@VCOPOSLights@@@ATL@@UAGJPAUtagCAUUID@@@Z 100024c6 f i Lights.obj
 0001:000014dd       ?QuickActivate@?$IQuickActivateImpl@VCOPOSLights@@@ATL@@UAGJPAUtagQACONTAINER@@PAUtagQACONTROL@@@Z 100024dd f i Lights.obj
 0001:00001500       ?SetContentExtent@?$IQuickActivateImpl@VCOPOSLights@@@ATL@@UAGJPAUtagSIZE@@@Z 10002500 f i Lights.obj
 0001:0000152c       ?GetContentExtent@?$IQuickActivateImpl@VCOPOSLights@@@ATL@@UAGJPAUtagSIZE@@@Z 1000252c f i Lights.obj
 0001:00001566       ?GetData@?$IDataObjectImpl@VCOPOSLights@@@ATL@@UAGJPAUtagFORMATETC@@PAUtagSTGMEDIUM@@@Z 10002566 f i Lights.obj
 0001:00001589       ?DAdvise@?$IDataObjectImpl@VCOPOSLights@@@ATL@@UAGJPAUtagFORMATETC@@KPAUIAdviseSink@@PAK@Z 10002589 f i Lights.obj
 0001:000015ca       ?DUnadvise@?$IDataObjectImpl@VCOPOSLights@@@ATL@@UAGJK@Z 100025ca f i Lights.obj
 0001:000015f8       ?EnumDAdvise@?$IDataObjectImpl@VCOPOSLights@@@ATL@@UAGJPAPAUIEnumSTATDATA@@@Z 100025f8 f i Lights.obj
 0001:00001637       ?GetClassInfoW@?$IProvideClassInfo2Impl@$1?CLSID_OPOSLights@@3U_GUID@@B$1?DIID__IOPOSLightsEvents@@3U2@B$1?LIBID_OposLights_CCO@@3U2@B$00$0A@VCComTypeInfoHolder@ATL@@@ATL@@UAGJPAPAUITypeInfo@@@Z 10002637 f i Lights.obj
 0001:0000164d       ?GetGUID@?$IProvideClassInfo2Impl@$1?CLSID_OPOSLights@@3U_GUID@@B$1?DIID__IOPOSLightsEvents@@3U2@B$1?LIBID_OposLights_CCO@@3U2@B$00$0A@VCComTypeInfoHolder@ATL@@@ATL@@UAGJKPAU_GUID@@@Z 1000264d f i Lights.obj
 0001:0000168b       ?FAccessAllowed@?$IObjectSafetyImpl@VCOPOSLights@@$02@ATL@@MAEHXZ 1000268b f i Lights.obj
 0001:0000168b       __get_startup_argv_mode    1000268b f i LIBCMT:argv_mode.obj
 0001:0000168f       ?GetInterfaceSafetyOptions@?$IObjectSafetyImpl@VCOPOSLights@@$02@ATL@@UAGJABU_GUID@@PAK1@Z 1000268f f i Lights.obj
 0001:00001703       ?SetInterfaceSafetyOptions@?$IObjectSafetyImpl@VCOPOSLights@@$02@ATL@@UAGJABU_GUID@@KK@Z 10002703 f i Lights.obj
 0001:0000177d       ?_LocCPQueryInterface@?$IConnectionPointImpl@VCOPOSLights@@$1?DIID__IOPOSLightsEvents@@3U_GUID@@BVCComDynamicUnkArray@ATL@@@ATL@@UAGJABU_GUID@@PAPAX@Z 1000277d f i Lights.obj
 0001:0000177d       ?_LocCPQueryInterface@?$IConnectionPointImpl@VCOPOSLights@@$1?IID_IPropertyNotifySink@@3U_GUID@@BVCComDynamicUnkArray@ATL@@@ATL@@UAGJABU_GUID@@PAPAX@Z 1000277d f i Lights.obj
 0001:000017ca       ?GetConnectionInterface@?$IConnectionPointImpl@VCOPOSLights@@$1?IID_IPropertyNotifySink@@3U_GUID@@BVCComDynamicUnkArray@ATL@@@ATL@@UAGJPAU_GUID@@@Z 100027ca f i Lights.obj
 0001:000017ee       ?GetConnectionPointContainer@?$IConnectionPointImpl@VCOPOSLights@@$1?IID_IPropertyNotifySink@@3U_GUID@@BVCComDynamicUnkArray@ATL@@@ATL@@UAGJPAPAUIConnectionPointContainer@@@Z 100027ee f i Lights.obj
 0001:00001811       ?Advise@?$IConnectionPointImpl@VCOPOSLights@@$1?DIID__IOPOSLightsEvents@@3U_GUID@@BVCComDynamicUnkArray@ATL@@@ATL@@UAGJPAUIUnknown@@PAK@Z 10002811 f i Lights.obj
 0001:00001811       ?Advise@?$IConnectionPointImpl@VCOPOSLights@@$1?IID_IPropertyNotifySink@@3U_GUID@@BVCComDynamicUnkArray@ATL@@@ATL@@UAGJPAUIUnknown@@PAK@Z 10002811 f i Lights.obj
 0001:000018b2       ?Unadvise@?$IConnectionPointImpl@VCOPOSLights@@$1?DIID__IOPOSLightsEvents@@3U_GUID@@BVCComDynamicUnkArray@ATL@@@ATL@@UAGJK@Z 100028b2 f i Lights.obj
 0001:000018b2       ?Unadvise@?$IConnectionPointImpl@VCOPOSLights@@$1?IID_IPropertyNotifySink@@3U_GUID@@BVCComDynamicUnkArray@ATL@@@ATL@@UAGJK@Z 100028b2 f i Lights.obj
 0001:000018f2       ?EnumConnections@?$IConnectionPointImpl@VCOPOSLights@@$1?IID_IPropertyNotifySink@@3U_GUID@@BVCComDynamicUnkArray@ATL@@@ATL@@UAGJPAPAUIEnumConnections@@@Z 100028f2 f i Lights.obj
 0001:000018f2       ?EnumConnections@?$IConnectionPointImpl@VCOPOSLights@@$1?DIID__IOPOSLightsEvents@@3U_GUID@@BVCComDynamicUnkArray@ATL@@@ATL@@UAGJPAPAUIEnumConnections@@@Z 100028f2 f i Lights.obj
 0001:000019f8       ?GetObjectDescription@?$CComCoClass@VCOPOSLights@@$1?CLSID_OPOSLights@@3U_GUID@@B@ATL@@SGPB_WXZ 100029f8 f i Lights.obj
 0001:000019f8       ?GetCategoryMap@CComObjectRootBase@ATL@@SAPBU_ATL_CATMAP_ENTRY@2@XZ 100029f8 f i Lights.obj
 0001:000019fb       ?GetConnectionInterface@?$IConnectionPointImpl@VCOPOSLights@@$1?DIID__IOPOSLightsEvents@@3U_GUID@@BVCComDynamicUnkArray@ATL@@@ATL@@UAGJPAU_GUID@@@Z 100029fb f i Lights.obj
 0001:00001a1f       ?GetConnectionPointContainer@?$IConnectionPointImpl@VCOPOSLights@@$1?DIID__IOPOSLightsEvents@@3U_GUID@@BVCComDynamicUnkArray@ATL@@@ATL@@UAGJPAPAUIConnectionPointContainer@@@Z 10002a1f f i Lights.obj
 0001:00001a42       ?UpdateRegistry@COPOSLights@@SGJH@Z 10002a42 f i Lights.obj
 0001:00001a5a       ?ProcessWindowMessage@COPOSLights@@UAEHPAUHWND__@@IIJAAJK@Z 10002a5a f i Lights.obj
 0001:00001aa3       ?SODirectIO@COPOSLights@@MAGJJPAJPAPA_W@Z 10002aa3 f i Lights.obj
 0001:00001aec       ?SOStatusUpdate@COPOSLights@@MAGJJ@Z 10002aec f i Lights.obj
 0001:00001b25       ?Lock@CAtlModule@ATL@@UAEJXZ 10002b25 f i Lights.obj
 0001:00001b2f       ?Unlock@CAtlModule@ATL@@UAEJXZ 10002b2f f i Lights.obj
 0001:00001b39       ?GetLockCount@CAtlModule@ATL@@UAEJXZ 10002b39 f i Lights.obj
 0001:00001b3d       ?GetGITPtr@CAtlModule@ATL@@UAEJPAPAUIGlobalInterfaceTable@@@Z 10002b3d f i Lights.obj
 0001:00001b89       ?AddCommonRGSReplacements@?$CAtlModuleT@VCComModule@ATL@@@ATL@@UAEJPAUIRegistrarBase@@@Z 10002b89 f i Lights.obj
 0001:00001ba3       ?CreateInstance@?$CComCreator@V?$CComObjectCached@VCComClassFactory@ATL@@@ATL@@@ATL@@SGJPAXABU_GUID@@PAPAX@Z 10002ba3 f i Lights.obj
 0001:00001c4f       ?CreateInstance@?$CComCreator2@V?$CComCreator@V?$CComObject@VCOPOSLights@@@ATL@@@ATL@@V?$CComCreator@V?$CComAggObject@VCOPOSLights@@@ATL@@@2@@ATL@@SGJPAXABU_GUID@@PAPAX@Z 10002c4f f i Lights.obj
 0001:00001c6f       ?UpdateRegistryFromResourceD@CComModule@ATL@@UAGJIHPAU_ATL_REGMAP_ENTRY@2@@Z 10002c6f f i Lights.obj
 0001:00001c6f       ?UpdateRegistryFromResourceD@CComModule@ATL@@UAGJPB_WHPAU_ATL_REGMAP_ENTRY@2@@Z 10002c6f f i Lights.obj
 0001:00001c77       ?UpdateRegistryFromResource@CComModule@ATL@@UAGJPB_WHPAU_ATL_REGMAP_ENTRY@2@@Z 10002c77 f i Lights.obj
 0001:00001c80       ?UpdateRegistryFromResource@CComModule@ATL@@UAGJIHPAU_ATL_REGMAP_ENTRY@2@@Z 10002c80 f i Lights.obj
 0001:00001c89       ?AddRef@?$CComObjectCached@VCComClassFactory@ATL@@@ATL@@UAGKXZ 10002c89 f i Lights.obj
 0001:00001cb0       ?Release@?$CComObjectCached@VCComClassFactory@ATL@@@ATL@@UAGKXZ 10002cb0 f i Lights.obj
 0001:00001ce6       ?QueryInterface@?$CComObjectCached@VCComClassFactory@ATL@@@ATL@@UAGJABU_GUID@@PAPAX@Z 10002ce6 f i Lights.obj
 0001:00001d00       ??_G?$CComObjectCached@VCComClassFactory@ATL@@@ATL@@UAEPAXI@Z 10002d00 f i Lights.obj
 0001:00001d00       ??_E?$CComObjectCached@VCComClassFactory@ATL@@@ATL@@UAEPAXI@Z 10002d00 f i Lights.obj
 0001:00001d22       ??_GCComModule@ATL@@UAEPAXI@Z 10002d22 f i Lights.obj
 0001:00001d22       ??_ECComModule@ATL@@UAEPAXI@Z 10002d22 f i Lights.obj
 0001:00001d4a       ?Next@?$CComEnumImpl@UIEnumConnectionPoints@@$1?_GUID_b196b285_bab4_101a_b69c_00aa00341d07@@3U__s_GUID@@BPAUIConnectionPoint@@V?$_CopyInterface@UIConnectionPoint@@@ATL@@@ATL@@UAGJKPAPAUIConnectionPoint@@PAK@Z 10002d4a f i Lights.obj
 0001:00001e21       ?Skip@?$CComEnumImpl@UIEnumConnectionPoints@@$1?_GUID_b196b285_bab4_101a_b69c_00aa00341d07@@3U__s_GUID@@BPAUIConnectionPoint@@V?$_CopyInterface@UIConnectionPoint@@@ATL@@@ATL@@UAGJK@Z 10002e21 f i Lights.obj
 0001:00001e4e       ?Reset@?$CComEnumImpl@UIEnumConnectionPoints@@$1?_GUID_b196b285_bab4_101a_b69c_00aa00341d07@@3U__s_GUID@@BPAUIConnectionPoint@@V?$_CopyInterface@UIConnectionPoint@@@ATL@@@ATL@@UAGJXZ 10002e4e f i Lights.obj
 0001:00001e4e       ?Reset@?$CComEnumImpl@UIEnumConnections@@$1?_GUID_b196b287_bab4_101a_b69c_00aa00341d07@@3U__s_GUID@@BUtagCONNECTDATA@@V?$_Copy@UtagCONNECTDATA@@@ATL@@@ATL@@UAGJXZ 10002e4e f i Lights.obj
 0001:00001e60       ?Clone@?$CComEnumImpl@UIEnumConnectionPoints@@$1?_GUID_b196b285_bab4_101a_b69c_00aa00341d07@@3U__s_GUID@@BPAUIConnectionPoint@@V?$_CopyInterface@UIConnectionPoint@@@ATL@@@ATL@@UAGJPAPAUIEnumConnectionPoints@@@Z 10002e60 f i Lights.obj
 0001:00001f41       ?AddRef@?$CComObject@V?$CComEnum@UIEnumConnectionPoints@@$1?_GUID_b196b285_bab4_101a_b69c_00aa00341d07@@3U__s_GUID@@BPAUIConnectionPoint@@V?$_CopyInterface@UIConnectionPoint@@@ATL@@VCComSingleThreadModel@6@@ATL@@@ATL@@UAGKXZ 10002f41 f i Lights.obj
 0001:00001f41       ?AddRef@?$CComObject@V?$CComEnum@UIEnumConnections@@$1?_GUID_b196b287_bab4_101a_b69c_00aa00341d07@@3U__s_GUID@@BUtagCONNECTDATA@@V?$_Copy@UtagCONNECTDATA@@@ATL@@VCComSingleThreadModel@6@@ATL@@@ATL@@UAGKXZ 10002f41 f i Lights.obj
 0001:00001f52       ?Release@?$CComObject@V?$CComEnum@UIEnumConnections@@$1?_GUID_b196b287_bab4_101a_b69c_00aa00341d07@@3U__s_GUID@@BUtagCONNECTDATA@@V?$_Copy@UtagCONNECTDATA@@@ATL@@VCComSingleThreadModel@6@@ATL@@@ATL@@UAGKXZ 10002f52 f i Lights.obj
 0001:00001f52       ?Release@?$CComObject@V?$CComEnum@UIEnumConnectionPoints@@$1?_GUID_b196b285_bab4_101a_b69c_00aa00341d07@@3U__s_GUID@@BPAUIConnectionPoint@@V?$_CopyInterface@UIConnectionPoint@@@ATL@@VCComSingleThreadModel@6@@ATL@@@ATL@@UAGKXZ 10002f52 f i Lights.obj
 0001:00001f8e       ?QueryInterface@?$CComObject@V?$CComEnum@UIEnumConnectionPoints@@$1?_GUID_b196b285_bab4_101a_b69c_00aa00341d07@@3U__s_GUID@@BPAUIConnectionPoint@@V?$_CopyInterface@UIConnectionPoint@@@ATL@@VCComSingleThreadModel@6@@ATL@@@ATL@@UAGJABU_GUID@@PAPAX@Z 10002f8e f i Lights.obj
 0001:00001fa8       ??_E?$CComObject@V?$CComEnum@UIEnumConnectionPoints@@$1?_GUID_b196b285_bab4_101a_b69c_00aa00341d07@@3U__s_GUID@@BPAUIConnectionPoint@@V?$_CopyInterface@UIConnectionPoint@@@ATL@@VCComSingleThreadModel@6@@ATL@@@ATL@@UAEPAXI@Z 10002fa8 f i Lights.obj
 0001:00001fa8       ??_G?$CComObject@V?$CComEnum@UIEnumConnectionPoints@@$1?_GUID_b196b285_bab4_101a_b69c_00aa00341d07@@3U__s_GUID@@BPAUIConnectionPoint@@V?$_CopyInterface@UIConnectionPoint@@@ATL@@VCComSingleThreadModel@6@@ATL@@@ATL@@UAEPAXI@Z 10002fa8 f i Lights.obj
 0001:00001fca       ?AddRef@CRegObject@ATL@@UAGKXZ 10002fca f i Lights.obj
 0001:00001fd0       ?AddReplacement@CRegObject@ATL@@UAGJPB_W0@Z 10002fd0 f i Lights.obj
 0001:00002009       ?ClearReplacements@CRegObject@ATL@@UAGJXZ 10003009 f i Lights.obj
 0001:0000201b       ??_ECRegObject@ATL@@UAEPAXI@Z 1000301b f i Lights.obj
 0001:0000201b       ??_GCRegObject@ATL@@UAEPAXI@Z 1000301b f i Lights.obj
 0001:0000203d       ?AddRef@?$CComAggObject@VCOPOSLights@@@ATL@@UAGKXZ 1000303d f i Lights.obj
 0001:0000204e       ?Release@?$CComAggObject@VCOPOSLights@@@ATL@@UAGKXZ 1000304e f i Lights.obj
 0001:0000208a       ?QueryInterface@?$CComAggObject@VCOPOSLights@@@ATL@@UAGJABU_GUID@@PAPAX@Z 1000308a f i Lights.obj
 0001:000020d9       ?AddRef@?$CComContainedObject@VCOPOSLights@@@ATL@@UAGKXZ 100030d9 f i Lights.obj
 0001:000020ef       ?Release@?$CComContainedObject@VCOPOSLights@@@ATL@@UAGKXZ 100030ef f i Lights.obj
 0001:00002105       ?QueryInterface@?$CComContainedObject@VCOPOSLights@@@ATL@@UAGJABU_GUID@@PAPAX@Z 10003105 f i Lights.obj
 0001:00002120       ??_E?$CComAggObject@VCOPOSLights@@@ATL@@UAEPAXI@Z 10003120 f i Lights.obj
 0001:00002120       ??_G?$CComAggObject@VCOPOSLights@@@ATL@@UAEPAXI@Z 10003120 f i Lights.obj
 0001:00002145       ?AddRef@?$CComObject@VCOPOSLights@@@ATL@@UAGKXZ 10003145 f i Lights.obj
 0001:0000215c       ?Release@?$CComObject@VCOPOSLights@@@ATL@@UAGKXZ 1000315c f i Lights.obj
 0001:0000219e       ?QueryInterface@?$CComObject@VCOPOSLights@@@ATL@@UAGJABU_GUID@@PAPAX@Z 1000319e f i Lights.obj
 0001:000021b8       ?OnDrawAdvanced@CComControlBase@ATL@@UAEJAAUATL_DRAWINFO@@@Z 100031b8 f i Lights.obj
 0001:000022ab       ?Next@?$CComEnumImpl@UIEnumConnections@@$1?_GUID_b196b287_bab4_101a_b69c_00aa00341d07@@3U__s_GUID@@BUtagCONNECTDATA@@V?$_Copy@UtagCONNECTDATA@@@ATL@@@ATL@@UAGJKPAUtagCONNECTDATA@@PAK@Z 100032ab f i Lights.obj
 0001:00002382       ?Skip@?$CComEnumImpl@UIEnumConnections@@$1?_GUID_b196b287_bab4_101a_b69c_00aa00341d07@@3U__s_GUID@@BUtagCONNECTDATA@@V?$_Copy@UtagCONNECTDATA@@@ATL@@@ATL@@UAGJK@Z 10003382 f i Lights.obj
 0001:000023af       ?Clone@?$CComEnumImpl@UIEnumConnections@@$1?_GUID_b196b287_bab4_101a_b69c_00aa00341d07@@3U__s_GUID@@BUtagCONNECTDATA@@V?$_Copy@UtagCONNECTDATA@@@ATL@@@ATL@@UAGJPAPAUIEnumConnections@@@Z 100033af f i Lights.obj
 0001:00002490       ?QueryInterface@?$CComObject@V?$CComEnum@UIEnumConnections@@$1?_GUID_b196b287_bab4_101a_b69c_00aa00341d07@@3U__s_GUID@@BUtagCONNECTDATA@@V?$_Copy@UtagCONNECTDATA@@@ATL@@VCComSingleThreadModel@6@@ATL@@@ATL@@UAGJABU_GUID@@PAPAX@Z 10003490 f i Lights.obj
 0001:000024aa       ??_G?$CComObject@V?$CComEnum@UIEnumConnections@@$1?_GUID_b196b287_bab4_101a_b69c_00aa00341d07@@3U__s_GUID@@BUtagCONNECTDATA@@V?$_Copy@UtagCONNECTDATA@@@ATL@@VCComSingleThreadModel@6@@ATL@@@ATL@@UAEPAXI@Z 100034aa f i Lights.obj
 0001:000024aa       ??_E?$CComObject@V?$CComEnum@UIEnumConnections@@$1?_GUID_b196b287_bab4_101a_b69c_00aa00341d07@@3U__s_GUID@@BUtagCONNECTDATA@@V?$_Copy@UtagCONNECTDATA@@@ATL@@VCComSingleThreadModel@6@@ATL@@@ATL@@UAEPAXI@Z 100034aa f i Lights.obj
 0001:000024cc       ??_E?$CComObject@VCOPOSLights@@@ATL@@W3AEPAXI@Z 100034cc f i Lights.obj
 0001:000024d4       ??_E?$CComObject@VCOPOSLights@@@ATL@@WEM@AEPAXI@Z 100034d4 f i Lights.obj
 0001:000024dc       ?QueryInterface@?$CComObject@VCOPOSLights@@@ATL@@WHA@AGJABU_GUID@@PAPAX@Z 100034dc f i Lights.obj
 0001:000024e6       ?AddRef@?$CComObject@VCOPOSLights@@@ATL@@WHA@AGKXZ 100034e6 f i Lights.obj
 0001:000024f0       ?Release@?$CComObject@VCOPOSLights@@@ATL@@WHA@AGKXZ 100034f0 f i Lights.obj
 0001:000024fa       ?QueryInterface@?$CComObject@VCOPOSLights@@@ATL@@WHE@AGJABU_GUID@@PAPAX@Z 100034fa f i Lights.obj
 0001:00002504       ?AddRef@?$CComObject@VCOPOSLights@@@ATL@@WHE@AGKXZ 10003504 f i Lights.obj
 0001:0000250e       ?Release@?$CComObject@VCOPOSLights@@@ATL@@WHE@AGKXZ 1000350e f i Lights.obj
 0001:00002518       ?QueryInterface@?$CComObject@VCOPOSLights@@@ATL@@WHI@AGJABU_GUID@@PAPAX@Z 10003518 f i Lights.obj
 0001:00002522       ?AddRef@?$CComObject@VCOPOSLights@@@ATL@@WHI@AGKXZ 10003522 f i Lights.obj
 0001:0000252c       ?Release@?$CComObject@VCOPOSLights@@@ATL@@WHI@AGKXZ 1000352c f i Lights.obj
 0001:00002536       ?QueryInterface@?$CComObject@VCOPOSLights@@@ATL@@WHM@AGJABU_GUID@@PAPAX@Z 10003536 f i Lights.obj
 0001:00002540       ?AddRef@?$CComObject@VCOPOSLights@@@ATL@@WHM@AGKXZ 10003540 f i Lights.obj
 0001:0000254a       ?Release@?$CComObject@VCOPOSLights@@@ATL@@WHM@AGKXZ 1000354a f i Lights.obj
 0001:00002554       ?QueryInterface@?$CComObject@VCOPOSLights@@@ATL@@WIA@AGJABU_GUID@@PAPAX@Z 10003554 f i Lights.obj
 0001:00002561       ?AddRef@?$CComObject@VCOPOSLights@@@ATL@@WIA@AGKXZ 10003561 f i Lights.obj
 0001:0000256e       ?Release@?$CComObject@VCOPOSLights@@@ATL@@WIA@AGKXZ 1000356e f i Lights.obj
 0001:0000257b       ?QueryInterface@?$CComObject@VCOPOSLights@@@ATL@@WIE@AGJABU_GUID@@PAPAX@Z 1000357b f i Lights.obj
 0001:00002588       ?AddRef@?$CComObject@VCOPOSLights@@@ATL@@WIE@AGKXZ 10003588 f i Lights.obj
 0001:00002595       ?Release@?$CComObject@VCOPOSLights@@@ATL@@WIE@AGKXZ 10003595 f i Lights.obj
 0001:000025a2       ?QueryInterface@?$CComObject@VCOPOSLights@@@ATL@@WII@AGJABU_GUID@@PAPAX@Z 100035a2 f i Lights.obj
 0001:000025af       ?AddRef@?$CComObject@VCOPOSLights@@@ATL@@WII@AGKXZ 100035af f i Lights.obj
 0001:000025bc       ?Release@?$CComObject@VCOPOSLights@@@ATL@@WII@AGKXZ 100035bc f i Lights.obj
 0001:000025c9       ?QueryInterface@?$CComObject@VCOPOSLights@@@ATL@@WIM@AGJABU_GUID@@PAPAX@Z 100035c9 f i Lights.obj
 0001:000025d6       ?AddRef@?$CComObject@VCOPOSLights@@@ATL@@WIM@AGKXZ 100035d6 f i Lights.obj
 0001:000025e3       ?Release@?$CComObject@VCOPOSLights@@@ATL@@WIM@AGKXZ 100035e3 f i Lights.obj
 0001:000025f0       ?QueryInterface@?$CComObject@VCOPOSLights@@@ATL@@WJA@AGJABU_GUID@@PAPAX@Z 100035f0 f i Lights.obj
 0001:000025fd       ?AddRef@?$CComObject@VCOPOSLights@@@ATL@@WJA@AGKXZ 100035fd f i Lights.obj
 0001:0000260a       ?Release@?$CComObject@VCOPOSLights@@@ATL@@WJA@AGKXZ 1000360a f i Lights.obj
 0001:00002617       ?QueryInterface@?$CComObject@VCOPOSLights@@@ATL@@WJE@AGJABU_GUID@@PAPAX@Z 10003617 f i Lights.obj
 0001:00002624       ?AddRef@?$CComObject@VCOPOSLights@@@ATL@@WJE@AGKXZ 10003624 f i Lights.obj
 0001:00002631       ?Release@?$CComObject@VCOPOSLights@@@ATL@@WJE@AGKXZ 10003631 f i Lights.obj
 0001:0000263e       ?QueryInterface@?$CComObject@VCOPOSLights@@@ATL@@WJI@AGJABU_GUID@@PAPAX@Z 1000363e f i Lights.obj
 0001:0000264b       ?AddRef@?$CComObject@VCOPOSLights@@@ATL@@WJI@AGKXZ 1000364b f i Lights.obj
 0001:00002658       ?Release@?$CComObject@VCOPOSLights@@@ATL@@WJI@AGKXZ 10003658 f i Lights.obj
 0001:00002665       ?QueryInterface@?$CComObject@VCOPOSLights@@@ATL@@WJM@AGJABU_GUID@@PAPAX@Z 10003665 f i Lights.obj
 0001:00002672       ?AddRef@?$CComObject@VCOPOSLights@@@ATL@@WJM@AGKXZ 10003672 f i Lights.obj
 0001:0000267f       ?Release@?$CComObject@VCOPOSLights@@@ATL@@WJM@AGKXZ 1000367f f i Lights.obj
 0001:0000268c       ?QueryInterface@?$CComObject@VCOPOSLights@@@ATL@@WKA@AGJABU_GUID@@PAPAX@Z 1000368c f i Lights.obj
 0001:00002699       ?AddRef@?$CComObject@VCOPOSLights@@@ATL@@WKA@AGKXZ 10003699 f i Lights.obj
 0001:000026a6       ?Release@?$CComObject@VCOPOSLights@@@ATL@@WKA@AGKXZ 100036a6 f i Lights.obj
 0001:000026b3       ?AddRef@?$CComObject@VCOPOSLights@@@ATL@@WKI@AGKXZ 100036b3 f i Lights.obj
 0001:000026c0       ?Release@?$CComObject@VCOPOSLights@@@ATL@@WKI@AGKXZ 100036c0 f i Lights.obj
 0001:000026cd       ?AddRef@?$CComObject@VCOPOSLights@@@ATL@@WLE@AGKXZ 100036cd f i Lights.obj
 0001:000026da       ?Release@?$CComObject@VCOPOSLights@@@ATL@@WLE@AGKXZ 100036da f i Lights.obj
 0001:000026e7       ??_E?$CComContainedObject@VCOPOSLights@@@ATL@@W3AEPAXI@Z 100036e7 f i Lights.obj
 0001:000026ef       ??_E?$CComContainedObject@VCOPOSLights@@@ATL@@WEM@AEPAXI@Z 100036ef f i Lights.obj
 0001:000026f7       ?QueryInterface@?$CComContainedObject@VCOPOSLights@@@ATL@@WHA@AGJABU_GUID@@PAPAX@Z 100036f7 f i Lights.obj
 0001:00002701       ?AddRef@?$CComContainedObject@VCOPOSLights@@@ATL@@WHA@AGKXZ 10003701 f i Lights.obj
 0001:0000270b       ?Release@?$CComContainedObject@VCOPOSLights@@@ATL@@WHA@AGKXZ 1000370b f i Lights.obj
 0001:00002715       ?QueryInterface@?$CComContainedObject@VCOPOSLights@@@ATL@@WHE@AGJABU_GUID@@PAPAX@Z 10003715 f i Lights.obj
 0001:0000271f       ?AddRef@?$CComContainedObject@VCOPOSLights@@@ATL@@WHE@AGKXZ 1000371f f i Lights.obj
 0001:00002729       ?Release@?$CComContainedObject@VCOPOSLights@@@ATL@@WHE@AGKXZ 10003729 f i Lights.obj
 0001:00002733       ?QueryInterface@?$CComContainedObject@VCOPOSLights@@@ATL@@WHI@AGJABU_GUID@@PAPAX@Z 10003733 f i Lights.obj
 0001:0000273d       ?AddRef@?$CComContainedObject@VCOPOSLights@@@ATL@@WHI@AGKXZ 1000373d f i Lights.obj
 0001:00002747       ?Release@?$CComContainedObject@VCOPOSLights@@@ATL@@WHI@AGKXZ 10003747 f i Lights.obj
 0001:00002751       ?QueryInterface@?$CComContainedObject@VCOPOSLights@@@ATL@@WHM@AGJABU_GUID@@PAPAX@Z 10003751 f i Lights.obj
 0001:0000275b       ?AddRef@?$CComContainedObject@VCOPOSLights@@@ATL@@WHM@AGKXZ 1000375b f i Lights.obj
 0001:00002765       ?Release@?$CComContainedObject@VCOPOSLights@@@ATL@@WHM@AGKXZ 10003765 f i Lights.obj
 0001:0000276f       ?QueryInterface@?$CComContainedObject@VCOPOSLights@@@ATL@@WIA@AGJABU_GUID@@PAPAX@Z 1000376f f i Lights.obj
 0001:0000277c       ?AddRef@?$CComContainedObject@VCOPOSLights@@@ATL@@WIA@AGKXZ 1000377c f i Lights.obj
 0001:00002789       ?Release@?$CComContainedObject@VCOPOSLights@@@ATL@@WIA@AGKXZ 10003789 f i Lights.obj
 0001:00002796       ?QueryInterface@?$CComContainedObject@VCOPOSLights@@@ATL@@WIE@AGJABU_GUID@@PAPAX@Z 10003796 f i Lights.obj
 0001:000027a3       ?AddRef@?$CComContainedObject@VCOPOSLights@@@ATL@@WIE@AGKXZ 100037a3 f i Lights.obj
 0001:000027b0       ?Release@?$CComContainedObject@VCOPOSLights@@@ATL@@WIE@AGKXZ 100037b0 f i Lights.obj
 0001:000027bd       ?QueryInterface@?$CComContainedObject@VCOPOSLights@@@ATL@@WII@AGJABU_GUID@@PAPAX@Z 100037bd f i Lights.obj
 0001:000027ca       ?AddRef@?$CComContainedObject@VCOPOSLights@@@ATL@@WII@AGKXZ 100037ca f i Lights.obj
 0001:000027d7       ?Release@?$CComContainedObject@VCOPOSLights@@@ATL@@WII@AGKXZ 100037d7 f i Lights.obj
 0001:000027e4       ?QueryInterface@?$CComContainedObject@VCOPOSLights@@@ATL@@WIM@AGJABU_GUID@@PAPAX@Z 100037e4 f i Lights.obj
 0001:000027f1       ?AddRef@?$CComContainedObject@VCOPOSLights@@@ATL@@WIM@AGKXZ 100037f1 f i Lights.obj
 0001:000027fe       ?Release@?$CComContainedObject@VCOPOSLights@@@ATL@@WIM@AGKXZ 100037fe f i Lights.obj
 0001:0000280b       ?QueryInterface@?$CComContainedObject@VCOPOSLights@@@ATL@@WJA@AGJABU_GUID@@PAPAX@Z 1000380b f i Lights.obj
 0001:00002818       ?AddRef@?$CComContainedObject@VCOPOSLights@@@ATL@@WJA@AGKXZ 10003818 f i Lights.obj
 0001:00002825       ?Release@?$CComContainedObject@VCOPOSLights@@@ATL@@WJA@AGKXZ 10003825 f i Lights.obj
 0001:00002832       ?QueryInterface@?$CComContainedObject@VCOPOSLights@@@ATL@@WJE@AGJABU_GUID@@PAPAX@Z 10003832 f i Lights.obj
 0001:0000283f       ?AddRef@?$CComContainedObject@VCOPOSLights@@@ATL@@WJE@AGKXZ 1000383f f i Lights.obj
 0001:0000284c       ?Release@?$CComContainedObject@VCOPOSLights@@@ATL@@WJE@AGKXZ 1000384c f i Lights.obj
 0001:00002859       ?QueryInterface@?$CComContainedObject@VCOPOSLights@@@ATL@@WJI@AGJABU_GUID@@PAPAX@Z 10003859 f i Lights.obj
 0001:00002866       ?AddRef@?$CComContainedObject@VCOPOSLights@@@ATL@@WJI@AGKXZ 10003866 f i Lights.obj
 0001:00002873       ?Release@?$CComContainedObject@VCOPOSLights@@@ATL@@WJI@AGKXZ 10003873 f i Lights.obj
 0001:00002880       ?QueryInterface@?$CComContainedObject@VCOPOSLights@@@ATL@@WJM@AGJABU_GUID@@PAPAX@Z 10003880 f i Lights.obj
 0001:0000288d       ?AddRef@?$CComContainedObject@VCOPOSLights@@@ATL@@WJM@AGKXZ 1000388d f i Lights.obj
 0001:0000289a       ?Release@?$CComContainedObject@VCOPOSLights@@@ATL@@WJM@AGKXZ 1000389a f i Lights.obj
 0001:000028a7       ?QueryInterface@?$CComContainedObject@VCOPOSLights@@@ATL@@WKA@AGJABU_GUID@@PAPAX@Z 100038a7 f i Lights.obj
 0001:000028b4       ?AddRef@?$CComContainedObject@VCOPOSLights@@@ATL@@WKA@AGKXZ 100038b4 f i Lights.obj
 0001:000028c1       ?Release@?$CComContainedObject@VCOPOSLights@@@ATL@@WKA@AGKXZ 100038c1 f i Lights.obj
 0001:000028ce       ?AddRef@?$CComContainedObject@VCOPOSLights@@@ATL@@WKI@AGKXZ 100038ce f i Lights.obj
 0001:000028db       ?Release@?$CComContainedObject@VCOPOSLights@@@ATL@@WKI@AGKXZ 100038db f i Lights.obj
 0001:000028e8       ?AddRef@?$CComContainedObject@VCOPOSLights@@@ATL@@WLE@AGKXZ 100038e8 f i Lights.obj
 0001:000028f5       ?Release@?$CComContainedObject@VCOPOSLights@@@ATL@@WLE@AGKXZ 100038f5 f i Lights.obj
 0001:00002902       ??$?4UITypeInfo2@@@?$CComPtr@UITypeInfo@@@ATL@@QAEPAUITypeInfo@@ABV?$CComPtr@UITypeInfo2@@@1@@Z 10003902 f i Lights.obj
 0001:0000292f       ??$AtlAdd@K@ATL@@YAJPAKKK@Z 1000392f f i Lights.obj
 0001:00002952       ??$AtlAdd@_K@ATL@@YAJPA_K_K1@Z 10003952 f i Lights.obj
 0001:0000298a       ??$AtlAddThrow@K@ATL@@YAKKK@Z 1000398a f i Lights.obj
 0001:000029b0       ??$AtlModuleRegisterWndClassInfoT@VAtlModuleRegisterWndClassInfoParamW@ATL@@@ATL@@YAGPAU_ATL_BASE_MODULE70@0@PAU_ATL_WIN_MODULE70@0@PAU_ATL_WNDCLASSINFOW@0@PAP6GJPAUHWND__@@IIJ@ZVAtlModuleRegisterWndClassInfoParamW@0@@Z 100039b0 f i Lights.obj
 0001:00002afe       ??$AtlMultiply@H@ATL@@YAJPAHHH@Z 10003afe f i Lights.obj
 0001:00002b36       ??$AtlMultiply@K@ATL@@YAJPAKKK@Z 10003b36 f i Lights.obj
 0001:00002b36       ??$AtlMultiply@I@ATL@@YAJPAIII@Z 10003b36 f i Lights.obj
 0001:00002b58       ??$AtlMultiplyThrow@I@ATL@@YAIII@Z 10003b58 f i Lights.obj
 0001:00002b7e       ??0?$CComAggObject@VCOPOSLights@@@ATL@@QAE@PAX@Z 10003b7e f i Lights.obj
 0001:00002bab       ??0?$CComContainedObject@VCOPOSLights@@@ATL@@QAE@PAX@Z 10003bab f i Lights.obj
 0001:00002c64       ??0?$CComObject@V?$CComEnum@UIEnumConnectionPoints@@$1?_GUID_b196b285_bab4_101a_b69c_00aa00341d07@@3U__s_GUID@@BPAUIConnectionPoint@@V?$_CopyInterface@UIConnectionPoint@@@ATL@@VCComSingleThreadModel@6@@ATL@@@ATL@@QAE@PAX@Z 10003c64 f i Lights.obj
 0001:00002c92       ??0?$CComObject@V?$CComEnum@UIEnumConnections@@$1?_GUID_b196b287_bab4_101a_b69c_00aa00341d07@@3U__s_GUID@@BUtagCONNECTDATA@@V?$_Copy@UtagCONNECTDATA@@@ATL@@VCComSingleThreadModel@6@@ATL@@@ATL@@QAE@PAX@Z 10003c92 f i Lights.obj
 0001:00002cc0       ??0?$CComObject@VCOPOSLights@@@ATL@@QAE@PAX@Z 10003cc0 f i Lights.obj
 0001:00002d77       ??0?$CComQIPtr@UIOleControlSite@@$1?_GUID_b196b289_bab4_101a_b69c_00aa00341d07@@3U__s_GUID@@B@ATL@@QAE@PAUIUnknown@@@Z 10003d77 f i Lights.obj
 0001:00002da0       ??0CAtlModule@ATL@@QAE@XZ  10003da0 f i Lights.obj
 0001:00002de1       ??0CParseBuffer@CRegParser@ATL@@QAE@H@Z 10003de1 f i Lights.obj
 0001:00002e17       ??0_ATL_MSG@ATL@@QAE@PAUHWND__@@IIJH@Z 10003e17 f i Lights.obj
 0001:00002e4f       ??1?$CComAggObject@VCOPOSLights@@@ATL@@UAE@XZ 10003e4f f i Lights.obj
 0001:00002e73       ??1?$CComEnumImpl@UIEnumConnectionPoints@@$1?_GUID_b196b285_bab4_101a_b69c_00aa00341d07@@3U__s_GUID@@BPAUIConnectionPoint@@V?$_CopyInterface@UIConnectionPoint@@@ATL@@@ATL@@UAE@XZ 10003e73 f i Lights.obj
 0001:00002eb3       ??1?$CComEnumImpl@UIEnumConnections@@$1?_GUID_b196b287_bab4_101a_b69c_00aa00341d07@@3U__s_GUID@@BUtagCONNECTDATA@@V?$_Copy@UtagCONNECTDATA@@@ATL@@@ATL@@UAE@XZ 10003eb3 f i Lights.obj
 0001:00002ef3       ??1?$CComObject@V?$CComEnum@UIEnumConnectionPoints@@$1?_GUID_b196b285_bab4_101a_b69c_00aa00341d07@@3U__s_GUID@@BPAUIConnectionPoint@@V?$_CopyInterface@UIConnectionPoint@@@ATL@@VCComSingleThreadModel@6@@ATL@@@ATL@@UAE@XZ 10003ef3 f i Lights.obj
 0001:00002f16       ??1?$CComObject@V?$CComEnum@UIEnumConnections@@$1?_GUID_b196b287_bab4_101a_b69c_00aa00341d07@@3U__s_GUID@@BUtagCONNECTDATA@@V?$_Copy@UtagCONNECTDATA@@@ATL@@VCComSingleThreadModel@6@@ATL@@@ATL@@UAE@XZ 10003f16 f i Lights.obj
 0001:00002f39       ??1?$CComObject@VCOPOSLights@@@ATL@@UAE@XZ 10003f39 f i Lights.obj
 0001:00002ff7       ??1?$CComObjectCached@VCComClassFactory@ATL@@@ATL@@UAE@XZ 10003ff7 f i Lights.obj
 0001:0000300d       ??1?$CComObjectRootEx@VCComMultiThreadModel@ATL@@@ATL@@QAE@XZ 1000400d f i Lights.obj
 0001:00003022       ??1CRegObject@ATL@@UAE@XZ  10004022 f i Lights.obj
 0001:00003042       ??4?$CComPtr@UIOleClientSite@@@ATL@@QAEPAUIOleClientSite@@PAU2@@Z 10004042 f i Lights.obj
 0001:00003042       ??4?$CComPtr@UIUnknown@@@ATL@@QAEPAUIUnknown@@PAU2@@Z 10004042 f i Lights.obj
 0001:00003042       ??4?$CComPtr@UIAdviseSink@@@ATL@@QAEPAUIAdviseSink@@PAU2@@Z 10004042 f i Lights.obj
 0001:00003076       ??_E?$CComContainedObject@VCOPOSLights@@@ATL@@UAEPAXI@Z 10004076 f i Lights.obj
 0001:00003076       ??_G?$CComContainedObject@VCOPOSLights@@@ATL@@UAEPAXI@Z 10004076 f i Lights.obj
 0001:0000309b       ??_E?$CComObject@VCOPOSLights@@@ATL@@UAEPAXI@Z 1000409b f i Lights.obj
 0001:0000309b       ??_G?$CComObject@VCOPOSLights@@@ATL@@UAEPAXI@Z 1000409b f i Lights.obj
 0001:000030c0       ?Add@?$CSimpleArray@GV?$CSimpleArrayEqualHelper@G@ATL@@@ATL@@QAEHABG@Z 100040c0 f i Lights.obj
 0001:00003144       ?Add@?$CSimpleMap@PA_WPA_WVCExpansionVectorEqualHelper@ATL@@@ATL@@QAEHABQA_W0@Z 10004144 f i Lights.obj
 0001:00003199       ?Add@CComDynamicUnkArray@ATL@@QAEKPAUIUnknown@@@Z 10004199 f i Lights.obj
 0001:0000324f       ?Add@CExpansionVector@ATL@@QAEHPB_W0@Z 1000424f f i Lights.obj
 0001:00003358       ?AddString@CParseBuffer@CRegParser@ATL@@QAEHPB_W@Z 10004358 f i Lights.obj
 0001:0000338d       ?AddTermFunc@CAtlModule@ATL@@QAEJP6GXK@ZK@Z 1000438d f i Lights.obj
 0001:000033f0       ?AddValue@CRegParser@ATL@@IAEJAAVCRegKey@2@PB_WPA_W@Z 100043f0 f i Lights.obj
 0001:0000370a       ?Allocate@?$CAtlSafeAllocBufferManager@VCCRTAllocator@ATL@@@_ATL_SAFE_ALLOCA_IMPL@ATL@@QAEPAXK@Z 1000470a f i Lights.obj
 0001:00003737       ?Allocate@?$CTempBuffer@E$0BAA@VCCRTAllocator@ATL@@@ATL@@QAEPAEI@Z 10004737 f i Lights.obj
 0001:00003766       ?Allocate@?$CTempBuffer@_W$0BAA@VCCRTAllocator@ATL@@@ATL@@QAEPA_WI@Z 10004766 f i Lights.obj
 0001:00003795       ?Allocate@?$CTempBuffer@_W$0EAA@VCCRTAllocator@ATL@@@ATL@@QAEPA_WI@Z 10004795 f i Lights.obj
 0001:000037c4       ?AllocateHeap@?$CTempBuffer@E$0BAA@VCCRTAllocator@ATL@@@ATL@@AAEXI@Z 100047c4 f i Lights.obj
 0001:000037c4       ?AllocateHeap@?$CTempBuffer@_W$0BAA@VCCRTAllocator@ATL@@@ATL@@AAEXI@Z 100047c4 f i Lights.obj
 0001:000037c4       ?AllocateHeap@?$CTempBuffer@_W$0EAA@VCCRTAllocator@ATL@@@ATL@@AAEXI@Z 100047c4 f i Lights.obj
 0001:000037e9       ?Append@CParseBuffer@CRegParser@ATL@@QAEHPB_WH@Z 100047e9 f i Lights.obj
 0001:00003877       ?AtlCoTaskMemCAlloc@ATL@@YAPAXKK@Z 10004877 f i Lights.obj
 0001:000038a4       ?AtlCoTaskMemRecalloc@ATL@@YAPAXPAXKK@Z 100048a4 f i Lights.obj
 0001:000038d4       ?AtlComModuleGetClassObject@ATL@@YGJPAU_ATL_COM_MODULE70@1@ABU_GUID@@1PAPAX@Z 100048d4 f i Lights.obj
 0001:000039c7       ?AtlComModuleRegisterServer@ATL@@YGJPAU_ATL_COM_MODULE70@1@HPBU_GUID@@@Z 100049c7 f i Lights.obj
 0001:00003a4f       ?AtlComModuleUnregisterServer@ATL@@YGJPAU_ATL_COM_MODULE70@1@HPBU_GUID@@@Z 10004a4f f i Lights.obj
 0001:00003ad7       ?AtlComQIPtrAssign2@ATL@@YAXPAPAUIUnknown@@PAU2@ABU_GUID@@@Z 10004ad7 f i Lights.obj
 0001:00003b06       ?AtlCreateTargetDC@ATL@@YGPAUHDC__@@PAU2@PAUtagDVTARGETDEVICE@@@Z 10004b06 f i Lights.obj
 0001:00003b6f       ?AtlCrtErrorCheck@ATL@@YAHH@Z 10004b6f f i Lights.obj
 0001:00003baa       ?AtlHiMetricToPixel@ATL@@YGXPBUtagSIZE@@PAU2@@Z 10004baa f i Lights.obj
 0001:00003c1f       ?AtlHresultFromLastError@ATL@@YAJXZ 10004c1f f i Lights.obj
 0001:00003c36       ?AtlHresultFromWin32@ATL@@YAJK@Z 10004c36 f i Lights.obj
 0001:00003c4b       ?AtlInternalOleLoadFromStream@ATL@@YAJPAUIStream@@ABU_GUID@@PAPAXTClassesAllowedInStream@1@K@Z 10004c4b f i Lights.obj
 0001:00003d71       ?AtlInternalQueryInterface@ATL@@YGJPAXPBU_ATL_INTMAP_ENTRY@1@ABU_GUID@@PAPAX@Z 10004d71 f i Lights.obj
 0001:00003e14       ?AtlLoadTypeLib@ATL@@YGJPAUHINSTANCE__@@PB_WPAPA_WPAPAUITypeLib@@@Z 10004e14 f i Lights.obj
 0001:00003ff2       ?AtlRegisterClassCategoriesHelper@ATL@@YGJABU_GUID@@PBU_ATL_CATMAP_ENTRY@1@H@Z 10004ff2 f i Lights.obj
 0001:000042ee       ?AtlRegisterTypeLib@ATL@@YGJPAUHINSTANCE__@@PB_W@Z 100052ee f i Lights.obj
 0001:00004476       ?AtlThrowImpl@ATL@@YGXJ@Z  10005476 f i Lights.obj
 0001:00004494       ?AtlUnRegisterTypeLib@ATL@@YGJPAUHINSTANCE__@@PB_W@Z 10005494 f i Lights.obj
 0001:0000453f       ?AtlWinModuleAddCreateWndData@ATL@@YGXPAU_ATL_WIN_MODULE70@1@PAU_AtlCreateWndData@1@PAX@Z 1000553f f i Lights.obj
 0001:00004593       ?AtlWinModuleExtractCreateWndData@ATL@@YGPAXPAU_ATL_WIN_MODULE70@1@@Z 10005593 f i Lights.obj
 0001:000045f6       ?AtlWinModuleRegisterClassExW@ATL@@YGGPAU_ATL_WIN_MODULE70@1@PBUtagWNDCLASSEXW@@@Z 100055f6 f i Lights.obj
 0001:00004635       ?CanForceRemoveKey@CRegParser@ATL@@IAEHPB_W@Z 10005635 f i Lights.obj
 0001:00004664       ?ChToByte@CRegParser@ATL@@KAE_W@Z 10005664 f i Lights.obj
 0001:00004697       ?Cleanup@CComTypeInfoHolder@ATL@@SGXK@Z 10005697 f i Lights.obj
 0001:000046ca       ?ClearReplacements@CExpansionVector@ATL@@QAEJXZ 100056ca f i Lights.obj
 0001:00004707       ?Close@CRegKey@ATL@@QAEJXZ 10005707 f i Lights.obj
 0001:00004721       ?CreateInstance@?$CComCreator@V?$CComAggObject@VCOPOSLights@@@ATL@@@ATL@@SGJPAXABU_GUID@@PAPAX@Z 10005721 f i Lights.obj
 0001:00004797       ?CreateInstance@?$CComCreator@V?$CComObject@VCOPOSLights@@@ATL@@@ATL@@SGJPAXABU_GUID@@PAPAX@Z 10005797 f i Lights.obj
 0001:00004818       ?CreateInstance@?$CComObject@V?$CComEnum@UIEnumConnectionPoints@@$1?_GUID_b196b285_bab4_101a_b69c_00aa00341d07@@3U__s_GUID@@BPAUIConnectionPoint@@V?$_CopyInterface@UIConnectionPoint@@@ATL@@VCComSingleThreadModel@6@@ATL@@@ATL@@SGJPAPAV12@@Z 10005818 f i Lights.obj
 0001:0000485f       ?CreateInstance@?$CComObject@V?$CComEnum@UIEnumConnections@@$1?_GUID_b196b287_bab4_101a_b69c_00aa00341d07@@3U__s_GUID@@BUtagCONNECTDATA@@V?$_Copy@UtagCONNECTDATA@@@ATL@@VCComSingleThreadModel@6@@ATL@@@ATL@@SGJPAPAV12@@Z 1000585f f i Lights.obj
 0001:000048a6       ?DefaultReflectionHandler@?$CWindowImplRoot@VCWindow@ATL@@@ATL@@SAHPAUHWND__@@IIJAAJ@Z 100058a6 f i Lights.obj
 0001:00004919       ?DeleteSubKey@CRegKey@ATL@@QAEJPB_W@Z 10005919 f i Lights.obj
 0001:00004992       ?DoEvent@COPOSLights@@IAEXIIJ@Z 10005992 f i Lights.obj
 0001:00004a12       ?DoVerbHide@?$IOleObjectImpl@VCOPOSLights@@@ATL@@QAEJPBUtagRECT@@PAUHWND__@@@Z 10005a12 f i Lights.obj
 0001:00004a48       ?DoVerbInPlaceActivate@?$IOleObjectImpl@VCOPOSLights@@@ATL@@QAEJPBUtagRECT@@PAUHWND__@@@Z 10005a48 f i Lights.obj
 0001:00004a7b       ?DoVerbPrimary@?$IOleObjectImpl@VCOPOSLights@@@ATL@@QAEJPBUtagRECT@@PAUHWND__@@@Z 10005a7b f i Lights.obj
 0001:00004b07       ?DoVerbProperties@CComControlBase@ATL@@QAEJPBUtagRECT@@PAUHWND__@@@Z 10005b07 f i Lights.obj
 0001:00004c86       ?DoVerbUIActivate@?$IOleObjectImpl@VCOPOSLights@@@ATL@@QAEJPBUtagRECT@@PAUHWND__@@@Z 10005c86 f i Lights.obj
 0001:00004cc3       ?DoesVerbActivate@CComControlBase@ATL@@QAEHJ@Z 10005cc3 f i Lights.obj
 0001:00004ce4       ?DoesVerbUIActivate@CComControlBase@ATL@@QAEHJ@Z 10005ce4 f i Lights.obj
 0001:00004d19       ?EndOfVar@CRegParser@ATL@@IAEHXZ 10005d19 f i Lights.obj
 0001:00004d39       ?EscapeSingleQuote@CAtlModule@ATL@@SAXPA_WIPB_W@Z 10005d39 f i Lights.obj
 0001:00004d88       ?FindKey@?$CSimpleMap@PA_WPA_WVCExpansionVectorEqualHelper@ATL@@@ATL@@QBEHABQA_W@Z 10005d88 f i Lights.obj
 0001:00004dbf       ?FireTheEvent@?$CProxy_IOPOSEvents@VCOPOSLights@@@@IAEXPAVOposVariant@@IAAJPB_WJ@Z 10005dbf f i Lights.obj
 0001:00004e51       ?FireViewChange@CComControlBase@ATL@@QAEJXZ 10005e51 f i Lights.obj
 0001:00004e9a       ?Fire_DirectIOEvent@?$CProxy_IOPOSEvents@VCOPOSLights@@@@QAEXJPAJPAPA_W@Z 10005e9a f i Lights.obj
 0001:00004f83       ?Fire_StatusUpdateEvent@?$CProxy_IOPOSEvents@VCOPOSLights@@@@QAEXJ@Z 10005f83 f i Lights.obj
 0001:00005016       ?FreeHeap@?$CTempBuffer@E$0BAA@VCCRTAllocator@ATL@@@ATL@@AAEXXZ 10006016 f i Lights.obj
 0001:00005016       ?FreeHeap@?$CTempBuffer@_W$0BAA@VCCRTAllocator@ATL@@@ATL@@AAEXXZ 10006016 f i Lights.obj
 0001:00005016       ?FreeHeap@?$CTempBuffer@_W$0EAA@VCCRTAllocator@ATL@@@ATL@@AAEXXZ 10006016 f i Lights.obj
 0001:0000501f       ?GetAmbientLocaleID@CComControlBase@ATL@@QAEJAAK@Z 1000601f f i Lights.obj
 0001:0000507b       ?GetAmbientUserMode@CComControlBase@ATL@@QAEJAAH@Z 1000607b f i Lights.obj
 0001:000050eb       ?GetAt@CComDynamicUnkArray@ATL@@QAEPAUIUnknown@@H@Z 100060eb f i Lights.obj
 0001:00005107       ?GetClassObject@CComModule@ATL@@QAEJABU_GUID@@0PAPAX@Z 10006107 f i Lights.obj
 0001:000051a9       ?GetConnMap@COPOSLights@@SAPBU_ATL_CONNMAP_ENTRY@ATL@@PAH@Z 100061a9 f i Lights.obj
 0001:00005219       ?GetCookie@CComDynamicUnkArray@ATL@@QAGKPAPAUIUnknown@@@Z 10006219 f i Lights.obj
 0001:00005251       ?GetIDsOfNames@CComTypeInfoHolder@ATL@@QAEJABU_GUID@@PAPA_WIKPAJ@Z 10006251 f i Lights.obj
 0001:00005378       ?GetKeyAt@?$CSimpleMap@PA_WPA_WVCExpansionVectorEqualHelper@ATL@@@ATL@@QBEAAPA_WH@Z 10006378 f i Lights.obj
 0001:0000539d       ?GetPagesHelper@?$ISpecifyPropertyPagesImpl@VCOPOSLights@@@ATL@@IAEJPAUtagCAUUID@@PBUATL_PROPMAP_ENTRY@2@@Z 1000639d f i Lights.obj
 0001:000054c4       ?GetProperty@?$CComPtr@UIDispatch@@@ATL@@SAJPAUIDispatch@@JPAUtagVARIANT@@@Z 100064c4 f i Lights.obj
 0001:00005513       ?GetSizeMax@CComVariant@ATL@@QBEJPAT_ULARGE_INTEGER@@@Z 10006513 f i Lights.obj
 0001:000056d9       ?GetTI@CComTypeInfoHolder@ATL@@QAEJK@Z 100066d9 f i Lights.obj
 0001:000058b8       ?GetTI@CComTypeInfoHolder@ATL@@QAEJKPAPAUITypeInfo@@@Z 100068b8 f i Lights.obj
 0001:000058fa       ?GetUnknown@CComDynamicUnkArray@ATL@@QAGPAUIUnknown@@K@Z 100068fa f i Lights.obj
 0001:0000591b       ?GetValueAt@?$CSimpleMap@PA_WPA_WVCExpansionVectorEqualHelper@ATL@@@ATL@@QBEAAPA_WH@Z 1000691b f i Lights.obj
 0001:00005941       ?GetZoomInfo@CComControlBase@ATL@@QAEXAAUATL_DRAWINFO@@@Z 10006941 f i Lights.obj
 0001:000059d4       ?HKeyFromString@CRegParser@ATL@@KAPAUHKEY__@@PA_W@Z 100069d4 f i Lights.obj
 0001:00005a02       ?HasSubKeys@CRegParser@ATL@@IAEHPAUHKEY__@@@Z 10006a02 f i Lights.obj
 0001:00005a37       ?IDataObject_GetData@CComControlBase@ATL@@QAEJPAUtagFORMATETC@@PAUtagSTGMEDIUM@@@Z 10006a37 f i Lights.obj
 0001:00005bdd       ?IOleInPlaceObject_InPlaceDeactivate@CComControlBase@ATL@@QAEJXZ 10006bdd f i Lights.obj
 0001:00005c64       ?IOleInPlaceObject_SetObjectRects@CComControlBase@ATL@@QAEJPBUtagRECT@@0@Z 10006c64 f i Lights.obj
 0001:00005d31       ?IOleInPlaceObject_UIDeactivate@CComControlBase@ATL@@QAEJXZ 10006d31 f i Lights.obj
 0001:00005df3       ?IOleObject_Advise@CComControlBase@ATL@@QAEJPAUIAdviseSink@@PAK@Z 10006df3 f i Lights.obj
 0001:00005e1d       ?IOleObject_Close@CComControlBase@ATL@@QAEJK@Z 10006e1d f i Lights.obj
 0001:00005f01       ?IOleObject_GetClientSite@CComControlBase@ATL@@QAEJPAPAUIOleClientSite@@@Z 10006f01 f i Lights.obj
 0001:00005f2a       ?IOleObject_SetClientSite@CComControlBase@ATL@@QAEJPAUIOleClientSite@@@Z 10006f2a f i Lights.obj
 0001:00005f69       ?IOleObject_SetExtent@CComControlBase@ATL@@QAEJKPAUtagSIZE@@@Z 10006f69 f i Lights.obj
 0001:0000601d       ?IPSI_GetIPersistStreamInit@?$IPersistStorageImpl@VCOPOSLights@@@ATL@@AAEPAUIPersistStreamInit@@XZ 1000701d f i Lights.obj
 0001:000060c5       ?IPersistStreamInit_Load@?$IPersistStreamInitImpl@VCOPOSLights@@@ATL@@QAEJPAUIStream@@PBUATL_PROPMAP_ENTRY@2@@Z 100070c5 f i Lights.obj
 0001:00006341       ?IPersistStreamInit_Save@?$IPersistStreamInitImpl@VCOPOSLights@@@ATL@@QAEJPAUIStream@@HPBUATL_PROPMAP_ENTRY@2@@Z 10007341 f i Lights.obj
 0001:0000652f       ?IQuickActivate_QuickActivate@CComControlBase@ATL@@QAEJPAUtagQACONTAINER@@PAUtagQACONTROL@@@Z 1000752f f i Lights.obj
 0001:00006771       ?IViewObject_Draw@CComControlBase@ATL@@QAEJKJPAXPAUtagDVTARGETDEVICE@@PAUHDC__@@2PBU_RECTL@@3@Z 10007771 f i Lights.obj
 0001:00006819       ?InPlaceActivate@CComControlBase@ATL@@QAEJJPBUtagRECT@@@Z 10007819 f i Lights.obj
 0001:00006a8a       ?Init@?$CComEnumImpl@UIEnumConnectionPoints@@$1?_GUID_b196b285_bab4_101a_b69c_00aa00341d07@@3U__s_GUID@@BPAUIConnectionPoint@@V?$_CopyInterface@UIConnectionPoint@@@ATL@@@ATL@@QAEJPAPAUIConnectionPoint@@0PAUIUnknown@@W4CComEnumFlags@2@@Z 10007a8a f i Lights.obj
 0001:00006b69       ?Init@?$CComEnumImpl@UIEnumConnections@@$1?_GUID_b196b287_bab4_101a_b69c_00aa00341d07@@3U__s_GUID@@BUtagCONNECTDATA@@V?$_Copy@UtagCONNECTDATA@@@ATL@@@ATL@@QAEJPAUtagCONNECTDATA@@0PAUIUnknown@@W4CComEnumFlags@2@@Z 10007b69 f i Lights.obj
 0001:00006c48       ?Init@CComModule@ATL@@QAEJPAU_ATL_OBJMAP_ENTRY30@2@PAUHINSTANCE__@@PBU_GUID@@@Z 10007c48 f i Lights.obj
 0001:00006ca7       ?Init@CDynamicStdCallThunk2@ATL@@QAEHKPAX@Z 10007ca7 f i Lights.obj
 0001:00006cd2       ?InlineIsEqualUnknown@ATL@@YGHABU_GUID@@@Z 10007cd2 f i Lights.obj
 0001:00006cfa       ?InternalSetAtIndex@?$CSimpleMap@PA_WPA_WVCExpansionVectorEqualHelper@ATL@@@ATL@@QAEXHABQA_W0@Z 10007cfa f i Lights.obj
 0001:00006d24       ?Invoke@CComTypeInfoHolder@ATL@@QAEJPAUIDispatch@@JABU_GUID@@KGPAUtagDISPPARAMS@@PAUtagVARIANT@@PAUtagEXCEPINFO@@PAI@Z 10007d24 f i Lights.obj
 0001:00006d67       ?IsEqualObject@?$CComPtrBase@UIOleClientSite@@@ATL@@QAE_NPAUIUnknown@@@Z 10007d67 f i Lights.obj
 0001:00006d67       ?IsEqualObject@?$CComPtrBase@UITypeInfo@@@ATL@@QAE_NPAUIUnknown@@@Z 10007d67 f i Lights.obj
 0001:00006dd4       ?IsSpace@CRegParser@ATL@@IAEH_W@Z 10007dd4 f i Lights.obj
 0001:00006dfe       ?LoadNameCache@CComTypeInfoHolder@ATL@@QAEJPAUITypeInfo@@@Z 10007dfe f i Lights.obj
 0001:00006f4a       ?Lookup@?$CSimpleMap@PA_WPA_WVCExpansionVectorEqualHelper@ATL@@@ATL@@QBEPA_WABQA_W@Z 10007f4a f i Lights.obj
 0001:00006f70       ?NextToken@CRegParser@ATL@@IAEJPA_W@Z 10007f70 f i Lights.obj
 0001:000070a8       ?OnKillFocus@CComControlBase@ATL@@QAEJIIJAAH@Z 100080a8 f i Lights.obj
 0001:00007103       ?OnMouseActivate@CComControlBase@ATL@@QAEJIIJAAH@Z 10008103 f i Lights.obj
 0001:00007171       ?OnPaint@CComControlBase@ATL@@QAEJIIJAAH@Z 10008171 f i Lights.obj
 0001:00007223       ?OnSetFocus@CComControlBase@ATL@@QAEJIIJAAH@Z 10008223 f i Lights.obj
 0001:000072ac       ?Open@CRegKey@ATL@@QAEJPAUHKEY__@@PB_WK@Z 100082ac f i Lights.obj
 0001:00007301       ?PreProcessBuffer@CRegParser@ATL@@QAEJPA_WPAPA_W@Z 10008301 f i Lights.obj
 0001:0000756b       ?ProcessWindowMessage@?$CComControl@VCOPOSLights@@V?$CWindowImpl@VCOPOSLights@@VCWindow@ATL@@V?$CWinTraits@$0FGAAAAAA@$0A@@3@@ATL@@@ATL@@UAEHPAUHWND__@@IIJAAJK@Z 1000856b f i Lights.obj
 0001:0000760a       ?ReadFromStream@CComBSTR@ATL@@QAEJPAUIStream@@@Z 1000860a f i Lights.obj
 0001:00007738       ?ReadFromStream@CComVariant@ATL@@QAEJPAUIStream@@GTClassesAllowedInStream@2@K@Z 10008738 f i Lights.obj
 0001:000078be       ?RecurseDeleteKey@CRegKey@ATL@@QAEJPB_W@Z 100088be f i Lights.obj
 0001:000079ac       ?RegCreateKeyExW@CAtlTransactionManager@ATL@@QAEJPAUHKEY__@@PB_WKPA_WKKQAU_SECURITY_ATTRIBUTES@@PAPAU3@PAK@Z 100089ac f i Lights.obj
 0001:00007a0f       ?RegDeleteKeyW@CAtlTransactionManager@ATL@@QAEJPAUHKEY__@@PB_W@Z 10008a0f f i Lights.obj
 0001:00007a61       ?RegOpenKeyExW@CAtlTransactionManager@ATL@@QAEJPAUHKEY__@@PB_WKKPAPAU3@@Z 10008a61 f i Lights.obj
 0001:00007ab8       ?Register@_ATL_WNDCLASSINFOW@ATL@@QAEGPAP6GJPAUHWND__@@IIJ@Z@Z 10008ab8 f i Lights.obj
 0001:00007ad8       ?RegisterBuffer@CRegParser@ATL@@QAEJPA_WH@Z 10008ad8 f i Lights.obj
 0001:00007c11       ?RegisterFromResource@CRegObject@ATL@@IAEJPB_W00H@Z 10008c11 f i Lights.obj
 0001:00007d47       ?RegisterServer@?$CAtlModuleT@VCComModule@ATL@@@ATL@@QAEJHPBU_GUID@@@Z 10008d47 f i Lights.obj
 0001:00007d75       ?RegisterServer@CComModule@ATL@@QAEJHPBU_GUID@@@Z 10008d75 f i Lights.obj
 0001:00007deb       ?RegisterSubkeys@CRegParser@ATL@@IAEJPA_WPAUHKEY__@@HH@Z 10008deb f i Lights.obj
 0001:00008492       ?Remove@CComDynamicUnkArray@ATL@@QAEHK@Z 10009492 f i Lights.obj
 0001:000084bb       ?RemoveAll@?$CSimpleMap@PA_WPA_WVCExpansionVectorEqualHelper@ATL@@@ATL@@QAEXXZ 100094bb f i Lights.obj
 0001:000084e7       ?ResourceRegisterSz@CRegObject@ATL@@QAGJPB_W00@Z 100094e7 f i Lights.obj
 0001:00008514       ?ResourceUnregisterSz@CRegObject@ATL@@QAGJPB_W00@Z 10009514 f i Lights.obj
 0001:00008541       ?SendOnDataChange@CComControlBase@ATL@@QAEJK@Z 10009541 f i Lights.obj
 0001:0000858e       ?SetControlFocus@CComControlBase@ATL@@QAEHH@Z 1000958e f i Lights.obj
 0001:0000862b       ?SetMultiStringValue@CRegKey@ATL@@QAEJPB_W0@Z 1000962b f i Lights.obj
 0001:00008687       ?SetStringValue@CRegKey@ATL@@QAEJPB_W0K@Z 10009687 f i Lights.obj
 0001:000086d0       ?SkipAssignment@CRegParser@ATL@@IAEJPA_W@Z 100096d0 f i Lights.obj
 0001:00008735       ?SkipWhiteSpace@CRegParser@ATL@@IAEXXZ 10009735 f i Lights.obj
 0001:00008757       ?StrChrW@CRegParser@ATL@@KAPA_WPA_W_W@Z 10009757 f i Lights.obj
 0001:00008794       ?Term@CAtlModule@ATL@@QAEXXZ 10009794 f i Lights.obj
 0001:000087e7       ?Term@CComModule@ATL@@QAEXXZ 100097e7 f i Lights.obj
 0001:0000883f       ?UnregisterServer@?$CAtlModuleT@VCComModule@ATL@@@ATL@@QAEJHPBU_GUID@@@Z 1000983f f i Lights.obj
 0001:00008865       ?UnregisterServer@CComModule@ATL@@QAEJHPBU_GUID@@@Z 10009865 f i Lights.obj
 0001:000088db       ?UpdateRegistryFromResource@CAtlModule@ATL@@QAGJIHPAU_ATL_REGMAP_ENTRY@2@@Z 100098db f i Lights.obj
 0001:00008aa6       ?UpdateRegistryFromResource@CAtlModule@ATL@@QAGJPB_WHPAU_ATL_REGMAP_ENTRY@2@@Z 10009aa6 f i Lights.obj
 0001:00008c77       ?VTFromRegType@CRegParser@ATL@@KAHPB_WAAG@Z 10009c77 f i Lights.obj
 0001:00008ce4       ?WindowProc@?$CWindowImplBaseT@VCWindow@ATL@@V?$CWinTraits@$0FGAAAAAA@$0A@@2@@ATL@@SGJPAUHWND__@@IIJ@Z 10009ce4 f i Lights.obj
 0001:00008dd6       ?WriteToStream@CComBSTR@ATL@@QAEJPAUIStream@@@Z 10009dd6 f i Lights.obj
 0001:00008e38       ?WriteToStream@CComVariant@ATL@@QAEJPAUIStream@@@Z 10009e38 f i Lights.obj
 0001:00008fb2       ?WriteToStream@CComVariant@ATL@@QAEJPAUIStream@@G@Z 10009fb2 f i Lights.obj
 0001:0000901b       ?_AtlInitialConstruct@?$CComObjectRootEx@VCComMultiThreadModel@ATL@@@ATL@@QAEJXZ 1000a01b f i Lights.obj
 0001:00009030       ?_AtlVerifyStackAvailable@_ATL_SAFE_ALLOCA_IMPL@ATL@@YA_NK@Z 1000a030 f i Lights.obj
 0001:000090ae       ?atlCreate@?$CWindowImpl@VCOPOSLights@@VCWindow@ATL@@V?$CWinTraits@$0FGAAAAAA@$0A@@3@@ATL@@QAEPAUHWND__@@PAU3@V_U_RECT@2@PB_WKKV_U_MENUorID@2@PAX@Z 1000a0ae f i Lights.obj
 0001:000090f2       ?atlCreate@?$CWindowImplBaseT@VCWindow@ATL@@V?$CWinTraits@$0FGAAAAAA@$0A@@2@@ATL@@QAEPAUHWND__@@PAU3@V_U_RECT@2@PB_WKKV_U_MENUorID@2@GPAX@Z 1000a0f2 f i Lights.obj
 0001:0000918e       ?copy@?$_Copy@UtagCONNECTDATA@@@ATL@@SAJPAUtagCONNECTDATA@@PBU3@@Z 1000a18e f i Lights.obj
 0001:000091c4       ?copy@?$_CopyInterface@UIConnectionPoint@@@ATL@@SAJPAPAUIConnectionPoint@@PBQAU3@@Z 1000a1c4 f i Lights.obj
 0001:000091f2       ?memcpy_s@Checked@ATL@@YAXPAXIPBXI@Z 1000a1f2 f i Lights.obj
 0001:00009211       ?ocscpy_s@@YA_NPA_WIPB_W@Z 1000a211 f i Lights.obj
 0001:0000925b       ?wcscpy_s@Checked@ATL@@YAXPA_WIPB_W@Z 1000a25b f i Lights.obj
 0001:00009277       _DllCanUnloadNow@0         1000a277 f   Lights.obj
 0001:00009283       _DllGetClassObject@12      1000a283 f   Lights.obj
 0001:00009291       _DllMain@12                1000a291 f   Lights.obj
 0001:000092d3       _DllRegisterServer@0       1000a2d3 f   Lights.obj
 0001:000092e2       _DllUnregisterServer@0     1000a2e2 f   Lights.obj
 0001:000092f1       _InlineIsEqualGUID         1000a2f1 f i Lights.obj
 0001:00009321       ___local_stdio_printf_options 1000a321 f i Lights.obj
 0001:00009327       __vswprintf_s_l            1000a327 f i Lights.obj
 0001:000093d4       _swprintf_s                1000a3d4 f i Lights.obj
 0001:000093f0       ??0?$CComControl@VCOPOSLights@@V?$CWindowImpl@VCOPOSLights@@VCWindow@ATL@@V?$CWinTraits@$0FGAAAAAA@$0A@@3@@ATL@@@ATL@@QAE@XZ 1000a3f0 f i LightsImpl.obj
 0001:00009417       ??0CComControlBase@ATL@@QAE@AAPAUHWND__@@@Z 1000a417 f i LightsImpl.obj
 0001:00009461       ??0COPOSLights@@QAE@XZ     1000a461 f   LightsImpl.obj
 0001:000094b0       ??1?$CComControl@VCOPOSLights@@V?$CWindowImpl@VCOPOSLights@@VCWindow@ATL@@V?$CWinTraits@$0FGAAAAAA@$0A@@3@@ATL@@@ATL@@UAE@XZ 1000a4b0 f i LightsImpl.obj
 0001:000094c9       ??1?$IConnectionPointImpl@VCOPOSLights@@$1?DIID__IOPOSLightsEvents@@3U_GUID@@BVCComDynamicUnkArray@ATL@@@ATL@@QAE@XZ 1000a4c9 f i LightsImpl.obj
 0001:000094c9       ??1?$IConnectionPointImpl@VCOPOSLights@@$1?IID_IPropertyNotifySink@@3U_GUID@@BVCComDynamicUnkArray@ATL@@@ATL@@QAE@XZ 1000a4c9 f i LightsImpl.obj
 0001:00009506       ??1CComControlBase@ATL@@UAE@XZ 1000a506 f i LightsImpl.obj
 0001:00009569       ??1COPOSLights@@UAE@XZ     1000a569 f   LightsImpl.obj
 0001:000095b1       ?CheckHealth@COPOSLights@@UAGJJPAJ@Z 1000a5b1 f   LightsImpl.obj
 0001:00009600       ?ClaimDevice@COPOSLights@@UAGJJPAJ@Z 1000a600 f   LightsImpl.obj
 0001:00009675       ?Close@COPOSLights@@UAGJPAJ@Z 1000a675 f   LightsImpl.obj
 0001:000096e3       ?CompareFirmwareVersion@COPOSLights@@UAGJPA_WPAJ1@Z 1000a6e3 f   LightsImpl.obj
 0001:00009763       ?DirectIO@COPOSLights@@UAGJJPAJPAPA_W0@Z 1000a763 f   LightsImpl.obj
 0001:00009811       ?DoInvoke@COPOSLights@@IAEJJPAVOposVariant@@IHPAJ_N@Z 1000a811 f   LightsImpl.obj
 0001:000098ed       ?EventClose@COPOSLights@@IAEXXZ 1000a8ed f i LightsImpl.obj
 0001:00009920       ?EventInit@COPOSLights@@IAEJXZ 1000a920 f i LightsImpl.obj
 0001:000099ec       ?EventUninit@COPOSLights@@IAEXXZ 1000a9ec f i LightsImpl.obj
 0001:00009a3e       ?EventWindowProc@COPOSLights@@IAGJIIJ@Z 1000aa3e f i LightsImpl.obj
 0001:00009ab5       ?FinalConstruct@COPOSLights@@QAEJXZ 1000aab5 f   LightsImpl.obj
 0001:00009aee       ?FireEventCleanup@COPOSLights@@IAEXXZ 1000aaee f i LightsImpl.obj
 0001:00009b04       ?FireEventSetup@COPOSLights@@IAE_NXZ 1000ab04 f i LightsImpl.obj
 0001:00009b38       ?FreezeEvents@COPOSLights@@MAGJH@Z 1000ab38 f   LightsImpl.obj
 0001:00009b89       ?GetOposProp@COPOSLights@@IAEJJPAFJ@Z 1000ab89 f   LightsImpl.obj
 0001:00009bac       ?GetOposProp@COPOSLights@@IAEJJPAJJ@Z 1000abac f   LightsImpl.obj
 0001:00009c7b       ?GetOposProp@COPOSLights@@IAEJJPAPA_WJ@Z 1000ac7b f   LightsImpl.obj
 0001:00009d57       ?OnDraw@COPOSLights@@MAEJAAUATL_DRAWINFO@@@Z 1000ad57 f   LightsImpl.obj
 0001:00009df7       ?Open@COPOSLights@@UAGJPA_WPAJ@Z 1000adf7 f   LightsImpl.obj
 0001:0000a639       ?ReleaseDevice@COPOSLights@@UAGJPAJ@Z 1000b639 f   LightsImpl.obj
 0001:0000a688       ?ResetStatistics@COPOSLights@@UAGJPA_WPAJ@Z 1000b688 f   LightsImpl.obj
 0001:0000a6df       ?RetrieveStatistics@COPOSLights@@UAGJPAPA_WPAJ@Z 1000b6df f   LightsImpl.obj
 0001:0000a736       ?SOProcessID@COPOSLights@@UAGJPAJ@Z 1000b736 f   LightsImpl.obj
 0001:0000a74a       ?SetCOFreezeEvents@COPOSLights@@IAEXF@Z 1000b74a f   LightsImpl.obj
 0001:0000a7ea       ?SetOposProp@COPOSLights@@IAEJJJJ@Z 1000b7ea f   LightsImpl.obj
 0001:0000a8e1       ?SwitchOff@COPOSLights@@UAGJJPAJ@Z 1000b8e1 f   LightsImpl.obj
 0001:0000a930       ?SwitchOn@COPOSLights@@UAGJJJJJJPAJ@Z 1000b930 f   LightsImpl.obj
 0001:0000a9dc       ?UpdateFirmware@COPOSLights@@UAGJPA_WPAJ@Z 1000b9dc f   LightsImpl.obj
 0001:0000aa33       ?UpdateStatistics@COPOSLights@@UAGJPA_WPAJ@Z 1000ba33 f   LightsImpl.obj
 0001:0000aa8a       ?get_BinaryConversion@COPOSLights@@UAGJPAJ@Z 1000ba8a f   LightsImpl.obj
 0001:0000aaa0       ?get_CapAlarm@COPOSLights@@UAGJPAJ@Z 1000baa0 f   LightsImpl.obj
 0001:0000aab9       ?get_CapBlink@COPOSLights@@UAGJPAF@Z 1000bab9 f   LightsImpl.obj
 0001:0000aad2       ?get_CapColor@COPOSLights@@UAGJPAJ@Z 1000bad2 f   LightsImpl.obj
 0001:0000aaeb       ?get_CapCompareFirmwareVersion@COPOSLights@@UAGJPAF@Z 1000baeb f   LightsImpl.obj
 0001:0000ab04       ?get_CapPowerReporting@COPOSLights@@UAGJPAJ@Z 1000bb04 f   LightsImpl.obj
 0001:0000ab1d       ?get_CapStatisticsReporting@COPOSLights@@UAGJPAF@Z 1000bb1d f   LightsImpl.obj
 0001:0000ab36       ?get_CapUpdateFirmware@COPOSLights@@UAGJPAF@Z 1000bb36 f   LightsImpl.obj
 0001:0000ab4f       ?get_CapUpdateStatistics@COPOSLights@@UAGJPAF@Z 1000bb4f f   LightsImpl.obj
 0001:0000ab68       ?get_CheckHealthText@COPOSLights@@UAGJPAPA_W@Z 1000bb68 f   LightsImpl.obj
 0001:0000ab81       ?get_Claimed@COPOSLights@@UAGJPAF@Z 1000bb81 f   LightsImpl.obj
 0001:0000ab97       ?get_ControlObjectDescription@COPOSLights@@UAGJPAPA_W@Z 1000bb97 f   LightsImpl.obj
 0001:0000abe5       ?get_ControlObjectVersion@COPOSLights@@UAGJPAJ@Z 1000bbe5 f   LightsImpl.obj
 0001:0000abf8       ?get_DeviceDescription@COPOSLights@@UAGJPAPA_W@Z 1000bbf8 f   LightsImpl.obj
 0001:0000ac11       ?get_DeviceEnabled@COPOSLights@@UAGJPAF@Z 1000bc11 f   LightsImpl.obj
 0001:0000ac27       ?get_DeviceName@COPOSLights@@UAGJPAPA_W@Z 1000bc27 f   LightsImpl.obj
 0001:0000ac40       ?get_FreezeEvents@COPOSLights@@UAGJPAF@Z 1000bc40 f   LightsImpl.obj
 0001:0000ac56       ?get_MaxLights@COPOSLights@@UAGJPAJ@Z 1000bc56 f   LightsImpl.obj
 0001:0000ac6f       ?get_OpenResult@COPOSLights@@UAGJPAJ@Z 1000bc6f f   LightsImpl.obj
 0001:0000ac86       ?get_PowerNotify@COPOSLights@@UAGJPAJ@Z 1000bc86 f   LightsImpl.obj
 0001:0000ac9c       ?get_PowerState@COPOSLights@@UAGJPAJ@Z 1000bc9c f   LightsImpl.obj
 0001:0000acb2       ?get_ResultCode@COPOSLights@@UAGJPAJ@Z 1000bcb2 f   LightsImpl.obj
 0001:0000acf0       ?get_ResultCodeExtended@COPOSLights@@UAGJPAJ@Z 1000bcf0 f   LightsImpl.obj
 0001:0000ad06       ?get_ServiceObjectDescription@COPOSLights@@UAGJPAPA_W@Z 1000bd06 f   LightsImpl.obj
 0001:0000ad1f       ?get_ServiceObjectVersion@COPOSLights@@UAGJPAJ@Z 1000bd1f f   LightsImpl.obj
 0001:0000ad35       ?get_State@COPOSLights@@UAGJPAJ@Z 1000bd35 f   LightsImpl.obj
 0001:0000ad61       ?put_BinaryConversion@COPOSLights@@UAGJJ@Z 1000bd61 f   LightsImpl.obj
 0001:0000ad77       ?put_DeviceEnabled@COPOSLights@@UAGJF@Z 1000bd77 f   LightsImpl.obj
 0001:0000ad94       ?put_FreezeEvents@COPOSLights@@UAGJF@Z 1000bd94 f   LightsImpl.obj
 0001:0000ade0       ?put_PowerNotify@COPOSLights@@UAGJJ@Z 1000bde0 f   LightsImpl.obj
 0001:0000adf6       ?s_EventWindowProc@COPOSLights@@KGJPAUHWND__@@IIJ@Z 1000bdf6 f i LightsImpl.obj
 0001:0000ae48       ??_U@YAPAXI@Z              1000be48 f   LIBCMT:new_array.obj
 0001:0000ae51       ??3@YAXPAXI@Z              1000be51 f   LIBCMT:delete_scalar_size.obj
 0001:0000ae5f       ??_V@YAXPAX@Z              1000be5f f   LIBCMT:delete_array.obj
 0001:0000ae64       ??_V@YAXPAXI@Z             1000be64 f   LIBCMT:delete_array_size.obj
 0001:0000aeb6       ___scrt_acquire_startup_lock 1000beb6 f   LIBCMT:utility.obj
 0001:0000aee8       ___scrt_dllmain_after_initialize_c 1000bee8 f   LIBCMT:utility.obj
 0001:0000af13       ___scrt_dllmain_before_initialize_c 1000bf13 f   LIBCMT:utility.obj
 0001:0000af21       ___scrt_dllmain_crt_thread_attach 1000bf21 f   LIBCMT:utility.obj
 0001:0000af40       ___scrt_dllmain_crt_thread_detach 1000bf40 f   LIBCMT:utility.obj
 0001:0000af4d       ___scrt_dllmain_exception_filter 1000bf4d f   LIBCMT:utility.obj
 0001:0000af81       ___scrt_dllmain_uninitialize_c 1000bf81 f   LIBCMT:utility.obj
 0001:0000afa4       ___scrt_dllmain_uninitialize_critical 1000bfa4 f   LIBCMT:utility.obj
 0001:0000afb1       ___scrt_initialize_crt     1000bfb1 f   LIBCMT:utility.obj
 0001:0000afea       ___scrt_initialize_onexit_tables 1000bfea f   LIBCMT:utility.obj
 0001:0000b071       ___scrt_is_nonwritable_in_current_image 1000c071 f   LIBCMT:utility.obj
 0001:0000b105       ___scrt_release_startup_lock 1000c105 f   LIBCMT:utility.obj
 0001:0000b122       ___scrt_uninitialize_crt   1000c122 f   LIBCMT:utility.obj
 0001:0000b14a       __onexit                   1000c14a f   LIBCMT:utility.obj
 0001:0000b177       _atexit                    1000c177 f   LIBCMT:utility.obj
 0001:0000b18c       ??3@YAXPAX@Z               1000c18c f   LIBCMT:delete_scalar.obj
 0001:0000b256       __Init_thread_footer       1000c256 f   LIBCMT:thread_safe_statics.obj
 0001:0000b2a0       __Init_thread_header       1000c2a0 f   LIBCMT:thread_safe_statics.obj
 0001:0000b2f2       __Init_thread_notify       1000c2f2 f   LIBCMT:thread_safe_statics.obj
 0001:0000b328       __Init_thread_wait         1000c328 f   LIBCMT:thread_safe_statics.obj
 0001:0000b376       ___raise_securityfailure   1000c376 f   LIBCMT:gs_report.obj
 0001:0000b39e       ___report_gsfailure        1000c39e f   LIBCMT:gs_report.obj
 0001:0000b497       ___report_rangecheckfailure 1000c497 f   LIBCMT:gs_report.obj
 0001:0000b4a3       ___report_securityfailure  1000c4a3 f   LIBCMT:gs_report.obj
 0001:0000b571       ??2@YAPAXIABUnothrow_t@std@@@Z 1000c571 f   LIBCMT:new_scalar_nothrow.obj
 0001:0000b5c1       ??_U@YAPAXIABUnothrow_t@std@@@Z 1000c5c1 f   LIBCMT:new_array_nothrow.obj
 0001:0000b5ca       @__security_check_cookie@4 1000c5ca f   LIBCMT:secchk.obj
 0001:0000b5e0       __SEH_prolog4_GS           1000c5e0 f   LIBCMT:sehprolg4gs.obj
 0001:0000b629       __SEH_epilog4_GS           1000c629 f   LIBCMT:sehprolg4gs.obj
 0001:0000b640       __alloca_probe_16          1000c640 f   LIBCMT:alloca16.obj
 0001:0000b656       __alloca_probe_8           1000c656     LIBCMT:alloca16.obj
 0001:0000b670       __chkstk                   1000c670 f   LIBCMT:chkstk.obj
 0001:0000b670       __alloca_probe             1000c670 f   LIBCMT:chkstk.obj
 0001:0000b9d8       __DllMainCRTStartup@12     1000c9d8 f   LIBCMT:dll_dllmain.obj
 0001:0000b9fb       ??2@YAPAXI@Z               1000c9fb f   LIBCMT:new_scalar.obj
 0001:0000ba2b       ___isa_available_init      1000ca2b f   LIBCMT:cpu_disp.obj
 0001:0000bbfb       ___scrt_is_ucrt_dll_in_use 1000cbfb f   LIBCMT:ucrt_detection.obj
 0001:0000bc07       ___scrt_fastfail           1000cc07 f   LIBCMT:utility_desktop.obj
 0001:0000bd21       __crt_debugger_hook        1000cd21 f   LIBCMT:utility_desktop.obj
 0001:0000bd30       __SEH_prolog4              1000cd30 f   LIBCMT:sehprolg4.obj
 0001:0000bd76       __SEH_epilog4              1000cd76 f   LIBCMT:sehprolg4.obj
 0001:0000bd8b       @_guard_check_icall_nop@4  1000cd8b f i LIBCMT:guard_support.obj
 0001:0000bdd9       ___security_init_cookie    1000cdd9 f   LIBCMT:gs_support.obj
 0001:0000be24       ?__scrt_initialize_type_info@@YAXXZ 1000ce24 f   LIBCMT:tncleanup.obj
 0001:0000be30       ?__scrt_uninitialize_type_info@@YAXXZ 1000ce30 f   LIBCMT:tncleanup.obj
 0001:0000be3c       ___local_stdio_scanf_options 1000ce3c f i LIBCMT:default_local_stdio_options.obj
 0001:0000be42       ___scrt_initialize_default_local_stdio_options 1000ce42 f   LIBCMT:default_local_stdio_options.obj
 0001:0000be5f       ___scrt_get_dyn_tls_init_callback 1000ce5f f   LIBCMT:dyn_tls_init.obj
 0001:0000be65       __RTC_Initialize           1000ce65 f   LIBCMT:initsect.obj
 0001:0000be91       __RTC_Terminate            1000ce91 f   LIBCMT:initsect.obj
 0001:0000bebd       ??0bad_alloc@std@@QAE@ABV01@@Z 1000cebd f i LIBCMT:throw_bad_alloc.obj
 0001:0000bed8       ??0bad_alloc@std@@QAE@XZ   1000ced8 f i LIBCMT:throw_bad_alloc.obj
 0001:0000bef0       ??0bad_array_new_length@std@@QAE@ABV01@@Z 1000cef0 f i LIBCMT:throw_bad_alloc.obj
 0001:0000bf0b       ??0bad_array_new_length@std@@QAE@XZ 1000cf0b f i LIBCMT:throw_bad_alloc.obj
 0001:0000bf23       ??0exception@std@@QAE@ABV01@@Z 1000cf23 f i LIBCMT:throw_bad_alloc.obj
 0001:0000bf4f       ??1bad_alloc@std@@UAE@XZ   1000cf4f f i LIBCMT:throw_bad_alloc.obj
 0001:0000bf4f       ??1bad_array_new_length@std@@UAE@XZ 1000cf4f f i LIBCMT:throw_bad_alloc.obj
 0001:0000bf4f       ??1bad_exception@std@@UAE@XZ 1000cf4f f i libvcruntime:frame.obj
 0001:0000bf60       ??_Eexception@std@@UAEPAXI@Z 1000cf60 f i LIBCMT:throw_bad_alloc.obj
 0001:0000bf60       ??_Gbad_exception@std@@UAEPAXI@Z 1000cf60 f i libvcruntime:frame.obj
 0001:0000bf60       ??_Ebad_array_new_length@std@@UAEPAXI@Z 1000cf60 f i LIBCMT:throw_bad_alloc.obj
 0001:0000bf60       ??_Gexception@std@@UAEPAXI@Z 1000cf60 f i LIBCMT:throw_bad_alloc.obj
 0001:0000bf60       ??_Ebad_exception@std@@UAEPAXI@Z 1000cf60 f i libvcruntime:frame.obj
 0001:0000bf60       ??_Gbad_alloc@std@@UAEPAXI@Z 1000cf60 f i LIBCMT:throw_bad_alloc.obj
 0001:0000bf60       ??_Gbad_array_new_length@std@@UAEPAXI@Z 1000cf60 f i LIBCMT:throw_bad_alloc.obj
 0001:0000bf60       ??_Ebad_alloc@std@@UAEPAXI@Z 1000cf60 f i LIBCMT:throw_bad_alloc.obj
 0001:0000bf8d       ?__scrt_throw_std_bad_alloc@@YAXXZ 1000cf8d f   LIBCMT:throw_bad_alloc.obj
 0001:0000bfaa       ?__scrt_throw_std_bad_array_new_length@@YAXXZ 1000cfaa f   LIBCMT:throw_bad_alloc.obj
 0001:0000bfc7       ?what@exception@std@@UBEPBDXZ 1000cfc7 f i LIBCMT:throw_bad_alloc.obj
 0001:0000bfd4       ??_Etype_info@@UAEPAXI@Z   1000cfd4 f i LIBCMT:std_type_info_static.obj
 0001:0000bfd4       ??_Gtype_info@@UAEPAXI@Z   1000cfd4 f i LIBCMT:std_type_info_static.obj
 0001:0000bff7       ??0CAtlBaseModule@ATL@@QAE@XZ 1000cff7 f   atls:atlbase.obj
 0001:0000c04a       ??0_ATL_BASE_MODULE70@ATL@@QAE@XZ 1000d04a f i atls:atlbase.obj
 0001:0000c06d       ??1CAtlBaseModule@ATL@@QAE@XZ 1000d06d f   atls:atlbase.obj
 0001:0000c15a       ?Init@_stdcallthunk@ATL@@QAEHKPAX@Z 1000d15a f i atls:atlthunk.obj
 0001:0000c18f       ?__AllocStdCallThunk_cmn@@YAPAXXZ 1000d18f f   atls:atlthunk.obj
 0001:0000c255       ?__FreeStdCallThunk_cmn@@YAXPAX@Z 1000d255 f   atls:atlthunk.obj
 0001:0000c2f0       _AtlThunk_AllocateData@0   1000d2f0 f   atls:atlthunk.obj
 0001:0000c355       _AtlThunk_DataToCode@4     1000d355 f   atls:atlthunk.obj
 0001:0000c39c       _AtlThunk_FreeData@4       1000d39c f   atls:atlthunk.obj
 0001:0000c3f2       _AtlThunk_InitData@12      1000d3f2 f   atls:atlthunk.obj
 0001:0000c441       __get_purecall_handler     1000d441 f   libvcruntime:purevirt.obj
 0001:0000c447       __purecall                 1000d447 f   libvcruntime:purevirt.obj
 0001:0000c463       _wcsstr                    1000d463 f   libvcruntime:wcsstr.obj
 0001:0000c720       __except_handler4          1000d720 f   libvcruntime:chandler4.obj
 0001:0000c87e       _memcmp                    1000d87e f   libvcruntime:memcmp.obj
 0001:0000d830       _memcpy                    1000e830 f   libvcruntime:memcpy.obj
 0001:0000ddb0       _memset                    1000edb0 f   libvcruntime:memset.obj
 0001:0000df0a       ___vcrt_initialize         1000ef0a f   libvcruntime:initialization.obj
 0001:0000df29       ___vcrt_thread_attach      1000ef29 f   libvcruntime:initialization.obj
 0001:0000df34       ___vcrt_thread_detach      1000ef34 f   libvcruntime:initialization.obj
 0001:0000df3f       ___vcrt_uninitialize       1000ef3f f   libvcruntime:initialization.obj
 0001:0000df56       ___vcrt_uninitialize_critical 1000ef56 f   libvcruntime:initialization.obj
 0001:0000df5e       ?GetRangeOfTrysToCheck@__FrameHandler3@@SA?AU?$pair@Viterator@TryBlockMap@__FrameHandler3@@V123@@std@@AAVTryBlockMap@1@HPAXPBU_s_FuncInfo@@H@Z 1000ef5e f   libvcruntime:trnsctrl.obj
 0001:0000dfce       ?_CallCatchBlock2@@YAPAXPAUEHRegistrationNode@@PBU_s_FuncInfo@@PAXHK@Z 1000efce f   libvcruntime:trnsctrl.obj
 0001:0000e02c       ?_CallSETranslator@@YAHPAUEHExceptionRecord@@PAUEHRegistrationNode@@PAX2PBU_s_FuncInfo@@H1@Z 1000f02c f   libvcruntime:trnsctrl.obj
 0001:0000e112       ?_JumpToContinuation@@YGXPAXPAUEHRegistrationNode@@@Z 1000f112 f   libvcruntime:trnsctrl.obj
 0001:0000e142       ?_UnwindNestedFrames@@YGXPAUEHRegistrationNode@@PAUEHExceptionRecord@@@Z 1000f142 f   libvcruntime:trnsctrl.obj
 0001:0000e195       __CatchGuardHandler        1000f195 f   libvcruntime:trnsctrl.obj
 0001:0000e1c6       __CreateFrameInfo          1000f1c6 f   libvcruntime:trnsctrl.obj
 0001:0000e1ea       __FindAndUnlinkFrame       1000f1ea f   libvcruntime:trnsctrl.obj
 0001:0000e232       __TranslatorGuardHandler   1000f232 f   libvcruntime:trnsctrl.obj
 0001:0000e2cf       ___CxxFrameHandler3        1000f2cf f   libvcruntime:trnsctrl.obj
 0001:0000e305       ___DestructExceptionObject 1000f305 f   libvcruntime:ehhelpers.obj
 0001:0000e3a6       ?_CallMemberFunction0@@YGXQAX0@Z 1000f3a6 f i libvcruntime:ehhelpers.obj
 0001:0000e40b       __IsExceptionObjectToBeDestroyed 1000f40b f   libvcruntime:ehhelpers.obj
 0001:0000e431       ___AdjustPointer           1000f431 f   libvcruntime:ehhelpers.obj
 0001:0000e456       ___FrameUnwindFilter       1000f456 f   libvcruntime:ehhelpers.obj
 0001:0000e4ac       ___std_type_info_compare   1000f4ac f   libvcruntime:std_type_info.obj
 0001:0000e4e8       ___std_type_info_destroy_list 1000f4e8 f   libvcruntime:std_type_info.obj
 0001:0000e50b       ___std_exception_copy      1000f50b f   libvcruntime:std_exception.obj
 0001:0000e56e       ___std_exception_destroy   1000f56e f   libvcruntime:std_exception.obj
 0001:0000e58d       __CxxThrowException@8      1000f58d f   libvcruntime:throw.obj
 0001:0000e600       _memmove                   1000f600 f   libvcruntime:memmove.obj
 0001:0000eb80       __local_unwind4            1000fb80 f   libvcruntime:exsup4.obj
 0001:0000ec58       __seh_longjmp_unwind4@4    1000fc58 f   libvcruntime:exsup4.obj
 0001:0000ec80       @_EH4_CallFilterFunc@8     1000fc80 f   libvcruntime:exsup4.obj
 0001:0000ec98       @_EH4_TransferToHandler@8  1000fc98 f   libvcruntime:exsup4.obj
 0001:0000ecb4       @_EH4_GlobalUnwind2@8      1000fcb4 f   libvcruntime:exsup4.obj
 0001:0000ecd0       @_EH4_LocalUnwind@16       1000fcd0 f   libvcruntime:exsup4.obj
 0001:0000ece7       ___except_validate_context_record 1000fce7 f   libvcruntime:jbcxrval.obj
 0001:0000ed17       ___except_validate_jump_buffer 1000fd17 f   libvcruntime:jbcxrval.obj
 0001:0000ed44       ___vcrt_freefls@4          1000fd44 f   libvcruntime:per_thread_data.obj
 0001:0000ed60       ___vcrt_freeptd            1000fd60 f   libvcruntime:per_thread_data.obj
 0001:0000ed96       ___vcrt_getptd             1000fd96 f   libvcruntime:per_thread_data.obj
 0001:0000eda4       ___vcrt_getptd_noexit      1000fda4 f   libvcruntime:per_thread_data.obj
 0001:0000ee36       ___vcrt_initialize_ptd     1000fe36 f   libvcruntime:per_thread_data.obj
 0001:0000ee69       ___vcrt_uninitialize_ptd   1000fe69 f   libvcruntime:per_thread_data.obj
 0001:0000ee84       ___vcrt_initialize_locks   1000fe84 f   libvcruntime:locks.obj
 0001:0000eec0       ___vcrt_uninitialize_locks 1000fec0 f   libvcruntime:locks.obj
 0001:0000f632       ??$TypeMatchHelper@V__FrameHandler3@@@@YAHPBU_s_HandlerType@@PBU_s_CatchableType@@PBU_s_ThrowInfo@@@Z 10010632 f i libvcruntime:frame.obj
 0001:0000f6c0       ??$__InternalCxxFrameHandler@V__FrameHandler3@@@@YA?AW4_EXCEPTION_DISPOSITION@@PAUEHExceptionRecord@@PAUEHRegistrationNode@@PAU_CONTEXT@@PAXPBU_s_FuncInfo@@H1E@Z 100106c0 f i libvcruntime:frame.obj
 0001:0000f7c2       ??0bad_exception@std@@QAE@ABV01@@Z 100107c2 f i libvcruntime:frame.obj
 0001:0000f7dd       ??0bad_exception@std@@QAE@XZ 100107dd f i libvcruntime:frame.obj
 0001:0000f7f5       ??8type_info@@QBE_NABV0@@Z 100107f5 f i libvcruntime:frame.obj
 0001:0000fa5c       ?FrameUnwindToEmptyState@__FrameHandler3@@SAXPAUEHRegistrationNode@@PAXPBU_s_FuncInfo@@@Z 10010a5c f   libvcruntime:frame.obj
 0001:0000fa74       ?FrameUnwindToState@__FrameHandler3@@SAXPAUEHRegistrationNode@@PAXPBU_s_FuncInfo@@H@Z 10010a74 f   libvcruntime:frame.obj
 0001:0000fbf6       ?_CallMemberFunction1@@YGXQAX00@Z 10010bf6 f i libvcruntime:frame.obj
 0001:0000fc06       ?_CallMemberFunction2@@YGXQAX00H@Z 10010c06 f i libvcruntime:frame.obj
 0001:0000fc19       ?getESTypes@__FrameHandler3@@SAPBU_s_ESTypeList@@PBU_s_FuncInfo@@@Z 10010c19 f i libvcruntime:frame.obj
 0001:0000fc30       __CallSettingFrame@12      10010c30 f   libvcruntime:lowhelpr.obj
 0001:0000fc57       __NLG_Return               10010c57     libvcruntime:lowhelpr.obj
 0001:0000fc80       __global_unwind2           10010c80 f   libvcruntime:exsup.obj
 0001:0000fce6       __local_unwind2            10010ce6 f   libvcruntime:exsup.obj
 0001:0000fd6a       __abnormal_termination     10010d6a f   libvcruntime:exsup.obj
 0001:0000fd90       __NLG_Notify1              10010d90 f   libvcruntime:exsup.obj
 0001:0000fd9c       __NLG_Notify               10010d9c f   libvcruntime:exsup.obj
 0001:0000fdb3       __NLG_Dispatch             10010db3     libvcruntime:exsup.obj
 0001:0000fdb3       __NLG_Dispatch2            10010db3     libvcruntime:exsup.obj
 0001:0000fdbb       __NLG_Call                 10010dbb f   libvcruntime:exsup.obj
 0001:0000fdbd       __NLG_Return2              10010dbd     libvcruntime:exsup.obj
 0001:0000feb3       ___vcrt_FlsAlloc           10010eb3 f   libvcruntime:winapi_downlevel.obj
 0001:0000feee       ___vcrt_FlsFree            10010eee f   libvcruntime:winapi_downlevel.obj
 0001:0000ff29       ___vcrt_FlsGetValue        10010f29 f   libvcruntime:winapi_downlevel.obj
 0001:0000ff64       ___vcrt_FlsSetValue        10010f64 f   libvcruntime:winapi_downlevel.obj
 0001:0000ffa2       ___vcrt_InitializeCriticalSectionEx 10010fa2 f   libvcruntime:winapi_downlevel.obj
 0001:0000ffe9       _unexpected                10010fe9 f   libvcruntime:unexpected.obj
 0001:00010006       ?GetCurrentState@__FrameHandler3@@SAHPAUEHRegistrationNode@@PAXPBU_s_FuncInfo@@@Z 10011006 f   libvcruntime:ehstate.obj
 0001:00010023       ?SetState@__FrameHandler3@@SAXPAUEHRegistrationNode@@PBU_s_FuncInfo@@H@Z 10011023 f   libvcruntime:ehstate.obj
 0001:00010031       _free                      10011031 f   libucrt:free.obj
 0001:0001004c       ___acrt_call_reportfault   1001104c f   libucrt:invalid_parameter.obj
 0001:00010185       ___acrt_initialize_invalid_parameter_handler 10011185 f   libucrt:invalid_parameter.obj
 0001:00010194       __invalid_parameter        10011194 f   libucrt:invalid_parameter.obj
 0001:000101f8       __invalid_parameter_noinfo 100111f8 f   libucrt:invalid_parameter.obj
 0001:00010208       __invoke_watson            10011208 f   libucrt:invalid_parameter.obj
 0001:0001023c       ___acrt_errno_from_os_error 1001123c f   libucrt:errno.obj
 0001:0001027f       ___acrt_errno_map_os_error 1001127f f   libucrt:errno.obj
 0001:000102a2       ___doserrno                100112a2 f   libucrt:errno.obj
 0001:000102b5       __errno                    100112b5 f   libucrt:errno.obj
 0001:000102c8       _calloc                    100112c8 f   libucrt:calloc.obj
 0001:000102d3       _malloc                    100112d3 f   libucrt:malloc.obj
 0001:000102de       __recalloc                 100112de f   libucrt:recalloc.obj
 0001:000102e9       __recalloc_base            100112e9 f   libucrt:recalloc.obj
 0001:00010356       __resetstkoflw             10011356 f   libucrt:resetstk.obj
 0001:0001041b       _wcscat_s                  1001141b f   libucrt:wcscat_s.obj
 0001:00010490       _wcscpy_s                  10011490 f   libucrt:wcscpy_s.obj
 0001:000105bf       _wcsncpy_s                 100115bf f   libucrt:wcsncpy_s.obj
 0001:000107cb       ??$count@D@formatting_buffer@__crt_stdio_output@@QBEIXZ 100117cb f i libucrt:output.obj
 0001:000107e3       ??$count@_W@formatting_buffer@__crt_stdio_output@@QBEIXZ 100117e3 f i libucrt:output.obj
 0001:000107fc       ??$ensure_buffer_is_big_enough@D@formatting_buffer@__crt_stdio_output@@QAE_NI@Z 100117fc f i libucrt:output.obj
 0001:00010879       ??$ensure_buffer_is_big_enough@_W@formatting_buffer@__crt_stdio_output@@QAE_NI@Z 10011879 f i libucrt:output.obj
 0001:000108f7       ??$is_wide_character_specifier@_W@__crt_stdio_output@@YA_N_K_WW4length_modifier@0@@Z 100118f7 f i libucrt:output.obj
 0001:00010945       ??$scratch_data@D@formatting_buffer@__crt_stdio_output@@QAEPADXZ 10011945 f i libucrt:output.obj
 0001:00010963       ??$type_case_integer_parse_into_buffer@I@?$output_processor@_WV?$string_output_adapter@_W@__crt_stdio_output@@V?$format_validation_base@_WV?$string_output_adapter@_W@__crt_stdio_output@@@2@@__crt_stdio_output@@AAEXII_N@Z 10011963 f i libucrt:output.obj
 0001:000109ea       ??$type_case_integer_parse_into_buffer@_K@?$output_processor@_WV?$string_output_adapter@_W@__crt_stdio_output@@V?$format_validation_base@_WV?$string_output_adapter@_W@__crt_stdio_output@@@2@@__crt_stdio_output@@AAEX_KI_N@Z 100119ea f i libucrt:output.obj
 0001:00010a8c       ??$write_multiple_characters@V?$string_output_adapter@_W@__crt_stdio_output@@D@__crt_stdio_output@@YAXABV?$string_output_adapter@_W@0@DHQAH@Z 10011a8c f i libucrt:output.obj
 0001:00010abd       ??0?$common_data@_W@__crt_stdio_output@@IAE@XZ 10011abd f i libucrt:output.obj
 0001:00010b07       ??0?$output_adapter_data@_WV?$string_output_adapter@_W@__crt_stdio_output@@@__crt_stdio_output@@IAE@ABV?$string_output_adapter@_W@1@_KQB_WQAU__crt_locale_pointers@@QAD@Z 10011b07 f i libucrt:output.obj
 0001:00010b43       ??0_LocaleUpdate@@QAE@QAU__crt_locale_pointers@@@Z 10011b43 f i libucrt:output.obj
 0001:00010bc6       ??1formatting_buffer@__crt_stdio_output@@QAE@XZ 10011bc6 f i libucrt:output.obj
 0001:00010be0       ??4?$__crt_unique_heap_ptr@DU__crt_internal_free_policy@@@@QAEAAV0@$$QAV0@@Z 10011be0 f i libucrt:output.obj
 0001:00010c04       ?crop_zeroes@__crt_stdio_output@@YAXPADQAU__crt_locale_pointers@@@Z 10011c04 f i libucrt:output.obj
 0001:00010c64       ?find_next_state@?$output_processor@_WV?$string_output_adapter@_W@__crt_stdio_output@@V?$format_validation_base@_WV?$string_output_adapter@_W@__crt_stdio_output@@@2@@__crt_stdio_output@@ABE?AW4state@2@_WW432@@Z 10011c64 f i libucrt:output.obj
 0001:00010ca6       ?force_decimal_point@__crt_stdio_output@@YAXPADQAU__crt_locale_pointers@@@Z 10011ca6 f i libucrt:output.obj
 0001:00010d02       ?parse_int_from_format_string@?$output_processor@_WV?$string_output_adapter@_W@__crt_stdio_output@@V?$format_validation_base@_WV?$string_output_adapter@_W@__crt_stdio_output@@@2@@__crt_stdio_output@@AAE_NQAH@Z 10011d02 f i libucrt:output.obj
 0001:00010d78       ?process@?$output_processor@_WV?$string_output_adapter@_W@__crt_stdio_output@@V?$format_validation_base@_WV?$string_output_adapter@_W@__crt_stdio_output@@@2@@__crt_stdio_output@@QAEHXZ 10011d78 f i libucrt:output.obj
 0001:00010ea0       ?state_case_flag@?$output_processor@_WV?$string_output_adapter@_W@__crt_stdio_output@@V?$format_validation_base@_WV?$string_output_adapter@_W@__crt_stdio_output@@@2@@__crt_stdio_output@@AAE_NXZ 10011ea0 f i libucrt:output.obj
 0001:00010edd       ?state_case_normal@?$output_processor@_WV?$string_output_adapter@_W@__crt_stdio_output@@V?$format_validation_base@_WV?$string_output_adapter@_W@__crt_stdio_output@@@2@@__crt_stdio_output@@AAE_NXZ 10011edd f i libucrt:output.obj
 0001:00010efc       ?state_case_normal_common@?$output_processor@_WV?$string_output_adapter@_W@__crt_stdio_output@@V?$format_validation_base@_WV?$string_output_adapter@_W@__crt_stdio_output@@@2@@__crt_stdio_output@@AAE_NXZ 10011efc f i libucrt:output.obj
 0001:00010f17       ?state_case_precision@?$output_processor@_WV?$string_output_adapter@_W@__crt_stdio_output@@V?$format_validation_base@_WV?$string_output_adapter@_W@__crt_stdio_output@@@2@@__crt_stdio_output@@AAE_NXZ 10011f17 f i libucrt:output.obj
 0001:00010f3e       ?state_case_size@?$output_processor@_WV?$string_output_adapter@_W@__crt_stdio_output@@V?$format_validation_base@_WV?$string_output_adapter@_W@__crt_stdio_output@@@2@@__crt_stdio_output@@AAE_NXZ 10011f3e f i libucrt:output.obj
 0001:000110b6       ?state_case_type@?$output_processor@_WV?$string_output_adapter@_W@__crt_stdio_output@@V?$format_validation_base@_WV?$string_output_adapter@_W@__crt_stdio_output@@@2@@__crt_stdio_output@@AAE_NXZ 100120b6 f i libucrt:output.obj
 0001:0001131b       ?state_case_width@?$output_processor@_WV?$string_output_adapter@_W@__crt_stdio_output@@V?$format_validation_base@_WV?$string_output_adapter@_W@__crt_stdio_output@@@2@@__crt_stdio_output@@AAE_NXZ 1001231b f i libucrt:output.obj
 0001:00011347       ?to_integer_size@__crt_stdio_output@@YAIW4length_modifier@1@@Z 10012347 f i libucrt:output.obj
 0001:0001139b       ?type_case_Z@?$output_processor@_WV?$string_output_adapter@_W@__crt_stdio_output@@V?$format_validation_base@_WV?$string_output_adapter@_W@__crt_stdio_output@@@2@@__crt_stdio_output@@AAE_NXZ 1001239b f i libucrt:output.obj
 0001:000113f5       ?type_case_a@?$output_processor@_WV?$string_output_adapter@_W@__crt_stdio_output@@V?$format_validation_base@_WV?$string_output_adapter@_W@__crt_stdio_output@@@2@@__crt_stdio_output@@AAE_NXZ 100123f5 f i libucrt:output.obj
 0001:0001155a       ?type_case_c_tchar@?$output_processor@_WV?$string_output_adapter@_W@__crt_stdio_output@@V?$format_validation_base@_WV?$string_output_adapter@_W@__crt_stdio_output@@@2@@__crt_stdio_output@@AAE_N_W@Z 1001255a f i libucrt:output.obj
 0001:000115f0       ?type_case_integer@?$output_processor@_WV?$string_output_adapter@_W@__crt_stdio_output@@V?$format_validation_base@_WV?$string_output_adapter@_W@__crt_stdio_output@@@2@@__crt_stdio_output@@AAE_NI_N@Z 100125f0 f i libucrt:output.obj
 0001:00011745       ?type_case_n@?$output_processor@_WV?$string_output_adapter@_W@__crt_stdio_output@@V?$format_validation_base@_WV?$string_output_adapter@_W@__crt_stdio_output@@@2@@__crt_stdio_output@@AAE_NXZ 10012745 f i libucrt:output.obj
 0001:000117b9       ?type_case_o@?$output_processor@_WV?$string_output_adapter@_W@__crt_stdio_output@@V?$format_validation_base@_WV?$string_output_adapter@_W@__crt_stdio_output@@@2@@__crt_stdio_output@@AAE_NXZ 100127b9 f i libucrt:output.obj
 0001:000117d8       ?type_case_p@?$output_processor@_WV?$string_output_adapter@_W@__crt_stdio_output@@V?$format_validation_base@_WV?$string_output_adapter@_W@__crt_stdio_output@@@2@@__crt_stdio_output@@AAE_NXZ 100127d8 f i libucrt:output.obj
 0001:000117f0       ?type_case_s@?$output_processor@_WV?$string_output_adapter@_W@__crt_stdio_output@@V?$format_validation_base@_WV?$string_output_adapter@_W@__crt_stdio_output@@@2@@__crt_stdio_output@@AAE_NXZ 100127f0 f i libucrt:output.obj
 0001:00011863       ?type_case_s_compute_narrow_string_length@?$output_processor@_WV?$string_output_adapter@_W@__crt_stdio_output@@V?$format_validation_base@_WV?$string_output_adapter@_W@__crt_stdio_output@@@2@@__crt_stdio_output@@ABEHH_W@Z 10012863 f i libucrt:output.obj
 0001:000118aa       ?validate@?$string_output_adapter@_W@__crt_stdio_output@@QBE_NXZ 100128aa f i libucrt:output.obj
 0001:000118aa       ?validate@?$c_string_character_source@_W@__crt_strtox@@QBE_NXZ 100128aa f i libucrt:atox.obj
 0001:000118c5       ?validate_and_update_state_at_end_of_format_string@?$format_validation_base@_WV?$string_output_adapter@_W@__crt_stdio_output@@@__crt_stdio_output@@IBE_NXZ 100128c5 f i libucrt:output.obj
 0001:000118e7       ?write_character@?$string_output_adapter@_W@__crt_stdio_output@@QBE_N_WQAH@Z 100128e7 f i libucrt:output.obj
 0001:0001192c       ?write_stored_string_tchar@?$output_processor@_WV?$string_output_adapter@_W@__crt_stdio_output@@V?$format_validation_base@_WV?$string_output_adapter@_W@__crt_stdio_output@@@2@@__crt_stdio_output@@AAE_N_W@Z 1001292c f i libucrt:output.obj
 0001:000119bf       ?write_string@?$string_output_adapter@_W@__crt_stdio_output@@QBEXQB_WHQAHAAV__crt_deferred_errno_cache@@@Z 100129bf f i libucrt:output.obj
 0001:00011a30       ___acrt_locale_get_ctype_array_value 10012a30 f i libucrt:output.obj
 0001:00011a52       ___stdio_common_vswprintf_s 10012a52 f   libucrt:output.obj
 0001:00011a76       __seh_filter_dll           10012a76 f   libucrt:exception_filter.obj
 0001:00011a96       __seh_filter_exe           10012a96 f   libucrt:exception_filter.obj
 0001:00011e64       ___acrt_initialize_thread_local_exit_callback 10012e64 f   libucrt:exit.obj
 0001:00011e73       __cexit                    10012e73 f   libucrt:exit.obj
 0001:00011e82       __exit                     10012e82 f   libucrt:exit.obj
 0001:00011e98       __is_c_termination_complete 10012e98 f   libucrt:exit.obj
 0001:0001214c       ___acrt_allocate_buffer_for_argv 1001314c f   libucrt:argv_parsing.obj
 0001:0001219b       __configure_narrow_argv    1001319b f   libucrt:argv_parsing.obj
 0001:000122f8       ??$uninitialize@A6AXAAPAPA_W@Z@?$dual_state_global@PAPA_W@__crt_state_management@@QAEXA6AXAAPAPA_W@Z@Z 100132f8 f i libucrt:environment_initialization.obj
 0001:000122f8       ??$uninitialize@A6AXAAPAPAD@Z@?$dual_state_global@PAPAD@__crt_state_management@@QAEXA6AXAAPAPAD@Z@Z 100132f8 f i libucrt:environment_initialization.obj
 0001:00012357       ___dcrt_uninitialize_environments_nolock 10013357 f   libucrt:environment_initialization.obj
 0001:0001238e       __initialize_narrow_environment 1001338e f   libucrt:environment_initialization.obj
 0001:00012449       ??$__crt_fast_encode_pointer@PAX@@YAPAXQAX@Z 10013449 f i libucrt:initialization.obj
 0001:00012449       ??$__crt_fast_encode_pointer@P6AHXZ@@YAP6AHXZQ6AHXZ@Z 10013449 f i libucrt:onexit.obj
 0001:00012449       ??$__crt_fast_encode_pointer@PAP6AXXZ@@YAPAP6AXXZQAP6AXXZ@Z 10013449 f i libucrt:onexit.obj
 0001:0001266b       __crt_atexit               1001366b f   libucrt:onexit.obj
 0001:00012681       __execute_onexit_table     10013681 f   libucrt:onexit.obj
 0001:000126ae       __initialize_onexit_table  100136ae f   libucrt:onexit.obj
 0001:000126d7       __register_onexit_function 100136d7 f   libucrt:onexit.obj
 0001:0001270a       ___acrt_uninitialize_command_line 1001370a f   libucrt:argv_data.obj
 0001:00012808       ___acrt_initialize         10013808 f   libucrt:initialization.obj
 0001:0001281a       ___acrt_thread_attach      1001381a f   libucrt:initialization.obj
 0001:00012825       ___acrt_thread_detach      10013825 f   libucrt:initialization.obj
 0001:0001282d       ___acrt_uninitialize       1001382d f   libucrt:initialization.obj
 0001:0001285d       ___acrt_uninitialize_critical 1001385d f   libucrt:initialization.obj
 0001:0001286f       __initterm                 1001386f f   libucrt:initterm.obj
 0001:000128b4       __initterm_e               100138b4 f   libucrt:initterm.obj
 0001:000128e2       ___acrt_initialize_new_handler 100138e2 f   libucrt:new_handler.obj
 0001:000128f1       __callnewh                 100138f1 f   libucrt:new_handler.obj
 0001:0001291e       __query_new_handler        1001391e f   libucrt:new_handler.obj
 0001:0001297a       _terminate                 1001397a f   libucrt:terminate.obj
 0001:000129b6       _abort                     100139b6 f   libucrt:abort.obj
 0001:000129fa       _strcpy_s                  100139fa f   libucrt:strcpy_s.obj
 0001:00012a54       ??$is_overflow_condition@K@__crt_strtox@@YA_NIK@Z 10013a54 f i libucrt:atox.obj
 0001:00012a85       ??$parse_integer@KV?$c_string_character_source@_W@__crt_strtox@@@__crt_strtox@@YAKQAU__crt_locale_pointers@@V?$c_string_character_source@_W@0@H_N@Z 10013a85 f i libucrt:atox.obj
 0001:0001308d       ?unget@?$c_string_character_source@_W@__crt_strtox@@QAEX_W@Z 1001408d f i libucrt:atox.obj
 0001:000130c0       _strncmp                   100140c0 f   libucrt:strncmp.obj
 0001:00013138       _wcsncmp                   10014138 f   libucrt:wcsncmp.obj
 0001:00013172       __free_base                10014172 f   libucrt:free_base.obj
 0001:000134ea       ___acrt_freeptd            100144ea f   libucrt:per_thread_data.obj
 0001:00013516       ___acrt_getptd             10014516 f   libucrt:per_thread_data.obj
 0001:000135d3       ___acrt_getptd_head        100145d3 f   libucrt:per_thread_data.obj
 0001:0001366d       ___acrt_getptd_noexit      1001466d f   libucrt:per_thread_data.obj
 0001:00013722       ___acrt_initialize_ptd     10014722 f   libucrt:per_thread_data.obj
 0001:0001374e       ___acrt_uninitialize_ptd   1001474e f   libucrt:per_thread_data.obj
 0001:00013768       __calloc_base              10014768 f   libucrt:calloc_base.obj
 0001:000137c5       __malloc_base              100147c5 f   libucrt:malloc_base.obj
 0001:00013813       __msize_base               10014813 f   libucrt:msize.obj
 0001:00013846       __realloc_base             10014846 f   libucrt:realloc_base.obj
 0001:00013a47       ___acrt_AppPolicyGetProcessTerminationMethodInternal@4 10014a47 f   libucrt:winapi_thunks.obj
 0001:00013a87       ___acrt_AreFileApisANSI@0  10014a87 f   libucrt:winapi_thunks.obj
 0001:00013aa6       ___acrt_FlsAlloc@4         10014aa6 f   libucrt:winapi_thunks.obj
 0001:00013ae5       ___acrt_FlsFree@4          10014ae5 f   libucrt:winapi_thunks.obj
 0001:00013b24       ___acrt_FlsGetValue@4      10014b24 f   libucrt:winapi_thunks.obj
 0001:00013b63       ___acrt_FlsSetValue@8      10014b63 f   libucrt:winapi_thunks.obj
 0001:00013ba5       ___acrt_InitializeCriticalSectionEx@12 10014ba5 f   libucrt:winapi_thunks.obj
 0001:00013bf0       ___acrt_LCMapStringEx@36   10014bf0 f   libucrt:winapi_thunks.obj
 0001:00013c4d       ___acrt_LocaleNameToLCID@8 10014c4d f   libucrt:winapi_thunks.obj
 0001:00013c7e       ___acrt_SetThreadStackGuarantee@4 10014c7e f   libucrt:winapi_thunks.obj
 0001:00013cb9       ___acrt_initialize_winapi_thunks 10014cb9 f   libucrt:winapi_thunks.obj
 0001:00013ce4       ___acrt_uninitialize_winapi_thunks 10014ce4 f   libucrt:winapi_thunks.obj
 0001:00013d1a       ??$make_c_string_character_source@_WPAPA_W@__crt_strtox@@YA?AV?$c_string_character_source@_W@0@QB_WQAPA_W@Z 10014d1a f i libucrt:strtox.obj
 0001:00013d35       _wcstol                    10014d35 f   libucrt:strtox.obj
 0001:00013d5f       __mbtowc_l                 10014d5f f   libucrt:mbtowc.obj
 0001:00013ea1       _mbtowc                    10014ea1 f   libucrt:mbtowc.obj
 0001:00013ebb       _wcsnlen                   10014ebb f   libucrt:strnlen.obj
 0001:0001406b       ___acrt_update_locale_info 1001506b f   libucrt:locale_update.obj
 0001:00014098       ___acrt_update_multibyte_info 10015098 f   libucrt:locale_update.obj
 0001:000140c5       ?__acrt_fp_classify@@YA?AW4__acrt_fp_class@@ABN@Z 100150c5 f i libucrt:cvt.obj
 0001:00014910       ___acrt_fp_format          10015910 f   libucrt:cvt.obj
 0001:00014a4b       __fileno                   10015a4b f   libucrt:fileno.obj
 0001:00014a72       ___acrt_initialize_stdio   10015a72 f   libucrt:_file.obj
 0001:00014b3a       ___acrt_uninitialize_stdio 10015b3a f   libucrt:_file.obj
 0001:00014b86       __lock_file                10015b86 f   libucrt:_file.obj
 0001:00014b9a       __unlock_file              10015b9a f   libucrt:_file.obj
 0001:00014bae       __get_printf_count_output  10015bae f   libucrt:printf_count_output.obj
 0001:00014c31       ___acrt_set_locale_changed 10015c31 f   libucrt:wsetlocale.obj
 0001:00014c3c       ___acrt_uninitialize_locale 10015c3c f   libucrt:wsetlocale.obj
 0001:00014dcd       ___acrt_initialize_lowio   10015dcd f   libucrt:ioinit.obj
 0001:00014e2d       ___acrt_uninitialize_lowio 10015e2d f   libucrt:ioinit.obj
 0001:00014e59       ___acrt_initialize_locks   10015e59 f   libucrt:locks.obj
 0001:00014e9a       ___acrt_lock               10015e9a f   libucrt:locks.obj
 0001:00014eb1       ___acrt_uninitialize_locks 10015eb1 f   libucrt:locks.obj
 0001:00014ee2       ___acrt_unlock             10015ee2 f   libucrt:locks.obj
 0001:00014ef9       ___acrt_get_process_end_policy 10015ef9 f   libucrt:win_policies.obj
 0001:000150c3       ??$__acrt_mbs_to_wcs_cp@U__crt_win32_buffer_internal_dynamic_resizing@@@@YAHQBDAAV?$__crt_win32_buffer@_WU__crt_win32_buffer_internal_dynamic_resizing@@@@I@Z 100160c3 f i libucrt:argv_wildcards.obj
 0001:000155d7       ?__acrt_get_utf8_acp_compatibility_codepage@@YAIXZ 100165d7 f i libucrt:argv_wildcards.obj
 0001:00015616       ?_deallocate@?$__crt_win32_buffer@_WU__crt_win32_buffer_internal_dynamic_resizing@@@@AAEXXZ 10016616 f i libucrt:argv_wildcards.obj
 0001:00015616       ?_deallocate@?$__crt_win32_buffer@DU__crt_win32_buffer_internal_dynamic_resizing@@@@AAEXXZ 10016616 f i libucrt:argv_wildcards.obj
 0001:00015630       ?allocate@?$__crt_win32_buffer@DU__crt_win32_buffer_internal_dynamic_resizing@@@@QAEHI@Z 10016630 f i libucrt:argv_wildcards.obj
 0001:0001566c       ?allocate@?$__crt_win32_buffer@_WU__crt_win32_buffer_internal_dynamic_resizing@@@@QAEHI@Z 1001666c f i libucrt:argv_wildcards.obj
 0001:000156ab       ?allocate@__crt_win32_buffer_internal_dynamic_resizing@@SAHQAPAXIABV__crt_win32_buffer_empty_debug_info@@@Z 100166ab f i libucrt:argv_wildcards.obj
 0001:00015751       ___acrt_expand_narrow_argv_wildcards 10016751 f   libucrt:argv_wildcards.obj
 0001:00015823       ?allocate@?$__crt_win32_buffer@DU__crt_win32_buffer_no_resizing@@@@QAEHI@Z 10016823 f i libucrt:getmodulefilenamea.obj
 0001:0001584a       ?set_to_nullptr@?$__crt_win32_buffer@DU__crt_win32_buffer_no_resizing@@@@QAEXXZ 1001684a f i libucrt:getmodulefilenamea.obj
 0001:0001585e       ___acrt_GetModuleFileNameA 1001685e f   libucrt:getmodulefilenamea.obj
 0001:00015e1d       ___acrt_initialize_multibyte 10016e1d f   libucrt:mbctype.obj
 0001:00015e65       ___acrt_update_thread_multibyte_data 10016e65 f   libucrt:mbctype.obj
 0001:00015e78       __setmbcp_nolock           10016e78 f   libucrt:mbctype.obj
 0001:00016143       __ismbblead                10017143 f   libucrt:ismbbyte.obj
 0001:0001615b       ___acrt_initialize_command_line 1001715b f   libucrt:argv_data.obj
 0001:00016174       ___acrt_MultiByteToWideChar 10017174 f   libucrt:multibytetowidechar.obj
 0001:000161f0       ___acrt_WideCharToMultiByte 100171f0 f   libucrt:widechartomultibyte.obj
 0001:000162d4       ___dcrt_get_narrow_environment_from_os 100172d4 f   libucrt:get_environment_from_os.obj
 0001:00016358       ___acrt_initialize_heap    10017358 f   libucrt:heap_handle.obj
 0001:00016369       ___acrt_uninitialize_heap  10017369 f   libucrt:heap_handle.obj
 0001:00016373       ___acrt_execute_initializers 10017373 f   libucrt:shared_initialization.obj
 0001:000163db       ___acrt_execute_uninitializers 100173db f   libucrt:shared_initialization.obj
 0001:000164da       ___acrt_get_sigabrt_handler 100174da f   libucrt:signal.obj
 0001:00016501       ___acrt_initialize_signal_handlers 10017501 f   libucrt:signal.obj
 0001:0001651f       ___fpecode                 1001751f f   libucrt:signal.obj
 0001:00016528       _raise                     10017528 f   libucrt:signal.obj
 0001:00016723       ___acrt_has_user_matherr   10017723 f   libucrt:matherr.obj
 0001:0001673b       ___acrt_initialize_user_matherr 1001773b f   libucrt:matherr.obj
 0001:0001674a       ___acrt_invoke_user_matherr 1001774a f   libucrt:matherr.obj
 0001:00016959       ___acrt_stdio_flush_nolock 10017959 f   libucrt:fflush.obj
 0001:000169be       __fflush_nolock            100179be f   libucrt:fflush.obj
 0001:00016a06       __flushall                 10017a06 f   libucrt:fflush.obj
 0001:00016a0f       ___pctype_func             10017a0f f   libucrt:ctype.obj
 0001:00016a33       _iswctype                  10017a33 f   libucrt:iswctype.obj
 0001:00016a9c       ___acrt_add_locale_ref     10017a9c f   libucrt:locale_refcounting.obj
 0001:00016b19       ___acrt_free_locale        10017b19 f   libucrt:locale_refcounting.obj
 0001:00016c61       ___acrt_locale_add_lc_time_reference 10017c61 f   libucrt:locale_refcounting.obj
 0001:00016c8a       ___acrt_locale_free_lc_time_if_unreferenced 10017c8a f   libucrt:locale_refcounting.obj
 0001:00016cbb       ___acrt_locale_release_lc_time_reference 10017cbb f   libucrt:locale_refcounting.obj
 0001:00016ce4       ___acrt_release_locale_ref 10017ce4 f   libucrt:locale_refcounting.obj
 0001:00016d65       ___acrt_update_thread_locale_data 10017d65 f   libucrt:locale_refcounting.obj
 0001:00016de6       __updatetlocinfoEx_nolock  10017de6 f   libucrt:locale_refcounting.obj
 0001:00016e36       __query_new_mode           10017e36 f   libucrt:new_mode.obj
 0001:00016e8d       ___acrt_DownlevelLocaleNameToLCID 10017e8d f   libucrt:lcidtoname_downlevel.obj
 0001:00016eb9       __isleadbyte_l             10017eb9 f i libucrt:_wctype.obj
 0001:00016f1f       ?__mbrtowc_utf8@__crt_mbstring@@YAIPA_WPBDIPAU_Mbstatet@@@Z 10017f1f f   libucrt:mbrtowc.obj
 0001:00016f5f       ?__mbsrtowcs_utf8@__crt_mbstring@@YAIPA_WPAPBDIPAU_Mbstatet@@@Z 10017f5f f   libucrt:mbrtowc.obj
 0001:0001705a       ?return_illegal_sequence@__crt_mbstring@@YAIPAU_Mbstatet@@@Z 1001805a f i libucrt:c32rtomb.obj
 0001:00017079       ___acrt_fp_strflt_to_string 10018079 f   libucrt:_fptostr.obj
 0001:00017140       ?divide@__crt_strtox@@YA_KAAUbig_integer@1@ABU21@@Z 10018140 f i libucrt:cfout.obj
 0001:000175d8       ___acrt_fltout             100185d8 f   libucrt:cfout.obj
 0001:00018922       __fcloseall                10019922 f   libucrt:closeall.obj
 0001:000189cd       ___acrt_stdio_free_buffer_nolock 100199cd f   libucrt:_freebuf.obj
 0001:00018a0d       __isatty                   10019a0d f   libucrt:isatty.obj
 0001:00018a63       ___acrt_locale_free_monetary 10019a63 f   libucrt:initmon.obj
 0001:00018b61       ___acrt_locale_free_numeric 10019b61 f   libucrt:initnum.obj
 0001:00018c02       ___acrt_locale_free_time   10019c02 f   libucrt:inittime.obj
 0001:00018ce6       ___acrt_GetStringTypeA     10019ce6 f   libucrt:getstringtypea.obj
 0001:00018de9       __freea_crt                10019de9 f i libucrt:getstringtypea.obj
 0001:00018e09       ___acrt_lowio_create_handle_array 10019e09 f   libucrt:osfinfo.obj
 0001:00018e84       ___acrt_lowio_destroy_handle_array 10019e84 f   libucrt:osfinfo.obj
 0001:00018eb9       ___acrt_lowio_ensure_fh_exists 10019eb9 f   libucrt:osfinfo.obj
 0001:00018f57       ___acrt_lowio_lock_fh      10019f57 f   libucrt:osfinfo.obj
 0001:00018f7a       ___acrt_lowio_unlock_fh    10019f7a f   libucrt:osfinfo.obj
 0001:00018f9d       __free_osfhnd              10019f9d f   libucrt:osfinfo.obj
 0001:0001902e       __get_osfhandle            1001a02e f   libucrt:osfinfo.obj
 0001:000190e0       _qsort                     1001a0e0 f   libucrt:qsort.obj
 0001:000195d7       _strncpy_s                 1001a5d7 f   libucrt:strncpy_s.obj
 0001:000195f0       _strpbrk                   1001a5f0 f   libucrt:strpbrk.obj
 0001:00019630       __mbsdec                   1001a630 f   libucrt:mbsdec.obj
 0001:00019647       __mbsdec_l                 1001a647 f   libucrt:mbsdec.obj
 0001:000198be       ___acrt_LCMapStringA       1001a8be f   libucrt:lcmapstringa.obj
 0001:000199b8       __commit                   1001a9b8 f   libucrt:commit.obj
 0001:0001a1ae       __write                    1001b1ae f   libucrt:write.obj
 0001:0001a2a0       __write_nolock             1001b2a0 f   libucrt:write.obj
 0001:0001a482       ___acrt_GetStringTypeW     1001b482 f   libucrt:getstringtypew.obj
 0001:0001a49b       ___ascii_wcsnicmp          1001b49b f   libucrt:wcsnicmp.obj
 0001:0001a4ea       ?__mbrtoc32_utf8@__crt_mbstring@@YAIPA_UPBDIPAU_Mbstatet@@@Z 1001b4ea f   libucrt:mbrtoc32.obj
 0001:0001a691       _fegetenv                  1001b691 f   libucrt:fegetenv.obj
 0001:0001a6ae       _fesetenv                  1001b6ae f   libucrt:fesetenv.obj
 0001:0001a6f9       _feholdexcept              1001b6f9 f   libucrt:feholdexcept.obj
 0001:0001a750       __CIlog10                  1001b750 f   libucrt:log10_impl.obj
 0001:0001a78b       __CIlog10_default          1001b78b f   libucrt:log10_impl.obj
 0001:0001a79f       __log10_default            1001b79f     libucrt:log10_impl.obj
 0001:0001a860       _ceil                      1001b860 f   libucrt:ceil_pentium4.obj
 0001:0001a8a0       __ceil_pentium4            1001b8a0 f   libucrt:ceil_pentium4.obj
 0001:0001a9f9       __lseeki64_nolock          1001b9f9 f   libucrt:lseek.obj
 0001:0001aa14       __fclose_nolock            1001ba14 f   libucrt:fclose.obj
 0001:0001aa8b       _fclose                    1001ba8b f   libucrt:fclose.obj
 0001:0001ab0f       __query_app_type           1001bb0f f   libucrt:report_runtime_error.obj
 0001:0001ab15       ___strncnt                 1001bb15 f   libucrt:strncnt.obj
 0001:0001ab31       __putwch_nolock            1001bb31 f   libucrt:putwch.obj
 0001:0001ae70       ___acrt_fenv_get_control   1001be70 f   libucrt:_fenvutils.obj
 0001:0001aef0       ___acrt_fenv_get_status    1001bef0 f   libucrt:_fenvutils.obj
 0001:0001afa8       ___acrt_fenv_set_control   1001bfa8 f   libucrt:_fenvutils.obj
 0001:0001b010       ___acrt_fenv_set_status    1001c010 f   libucrt:_fenvutils.obj
 0001:0001b107       __clearfp                  1001c107 f   libucrt:ieee87.obj
 0001:0001b1e5       ___acrt_initialize_sse2    1001c1e5 f   libucrt:mathfcns.obj
 0001:0001b200       __CIlog10_pentium4         1001c200 f   libucrt:log10_pentium4.obj
 0001:0001b218       __log10_pentium4           1001c218     libucrt:log10_pentium4.obj
 0001:0001b4b0       __fFEXP                    1001c4b0 f   libucrt:87tran.obj
 0001:0001b507       __rtinfpopse               1001c507     libucrt:87tran.obj
 0001:0001b509       __rtinfnpopse              1001c509     libucrt:87tran.obj
 0001:0001b519       __fFLN                     1001c519     libucrt:87tran.obj
 0001:0001b5ce       __rtinfpop                 1001c5ce     libucrt:87tran.obj
 0001:0001b5d0       __rtinfnpop                1001c5d0     libucrt:87tran.obj
 0001:0001b5e0       __rtforexpinf              1001c5e0 f   libucrt:87tran.obj
 0001:0001b5ed       __ffexpm1                  1001c5ed     libucrt:87tran.obj
 0001:0001b6a0       __trandisp1                1001c6a0 f   libucrt:87disp.obj
 0001:0001b715       __trandisp2                1001c715 f   libucrt:87disp.obj
 0001:0001b7af       __rttospopde               1001c7af     libucrt:87disp.obj
 0001:0001b7b4       __rttospop                 1001c7b4     libucrt:87disp.obj
 0001:0001b7c0       __rtnospop                 1001c7c0 f   libucrt:87disp.obj
 0001:0001b7d0       __rttosnpop                1001c7d0 f   libucrt:87disp.obj
 0001:0001b7d1       __rtnospopde               1001c7d1     libucrt:87disp.obj
 0001:0001b7d8       __rtzeropop                1001c7d8     libucrt:87disp.obj
 0001:0001b7da       __rtzeronpop               1001c7da     libucrt:87disp.obj
 0001:0001b7e0       __rtzerospop               1001c7e0 f   libucrt:87disp.obj
 0001:0001b7ed       __rtonepop                 1001c7ed     libucrt:87disp.obj
 0001:0001b7f0       __rtonenpop                1001c7f0 f   libucrt:87disp.obj
 0001:0001b800       __tosnan1                  1001c800 f   libucrt:87disp.obj
 0001:0001b830       __nosnan2                  1001c830 f   libucrt:87disp.obj
 0001:0001b840       __tosnan2                  1001c840 f   libucrt:87disp.obj
 0001:0001b870       __nan2                     1001c870 f   libucrt:87disp.obj
 0001:0001b8b0       __rtindfpop                1001c8b0 f   libucrt:87disp.obj
 0001:0001b8b2       __rtindfnpop               1001c8b2     libucrt:87disp.obj
 0001:0001b8c3       __rttosnpopde              1001c8c3     libucrt:87disp.obj
 0001:0001b8d0       __rtatan2inf               1001c8d0 f   libucrt:87disp.obj
 0001:0001b8ed       __rtchsifneg               1001c8ed     libucrt:87disp.obj
 0001:0001b900       __twoToTOS                 1001c900 f   libucrt:common.obj
 0001:0001b915       __load_CW                  1001c915 f   libucrt:common.obj
 0001:0001b92c       __convertTOStoQNaN         1001c92c f   libucrt:common.obj
 0001:0001b945       __fload_withFB             1001c945 f   libucrt:common.obj
 0001:0001b988       __checkTOS_withFB          1001c988 f   libucrt:common.obj
 0001:0001b99e       __fast_exit                1001c99e f   libucrt:common.obj
 0001:0001b9ab       __math_exit                1001c9ab f   libucrt:common.obj
 0001:0001b9d5       __check_overflow_exit      1001c9d5 f   libucrt:common.obj
 0001:0001b9e9       __check_range_exit         1001c9e9 f   libucrt:common.obj
 0001:0001ba90       __startTwoArgErrorHandling 1001ca90 f   libucrt:genexcep.obj
 0001:0001baa7       __startOneArgErrorHandling 1001caa7 f   libucrt:genexcep.obj
 0001:0001bae3       ___libm_error_support      1001cae3 f   libucrt:libm_error.obj
 0001:0001bcd7       __ceil_default             1001ccd7 f   libucrt:ceil.obj
 0001:0001be18       __close                    1001ce18 f   libucrt:close.obj
 0001:0001bea5       __close_nolock             1001cea5 f   libucrt:close.obj
 0001:0001bf41       ?__acrt_stdio_free_stream@@YAXV__crt_stdio_stream@@@Z 1001cf41 f   libucrt:stream.obj
 0001:0001bf80       ___ascii_strnicmp          1001cf80 f   libucrt:_strnicm.obj
 0001:0001c000       ___dcrt_lowio_ensure_console_output_initialized 1001d000 f   libucrt:initcon.obj
 0001:0001c01f       ___dcrt_terminate_console_output 1001d01f f   libucrt:initcon.obj
 0001:0001c036       ___dcrt_write_console      1001d036 f   libucrt:initcon.obj
 0001:0001c08b       __clrfp                    1001d08b f   libucrt:fpctrl.obj
 0001:0001c09c       __ctrlfp                   1001d09c f   libucrt:fpctrl.obj
 0001:0001c0c6       __set_statfp               1001d0c6 f   libucrt:fpctrl.obj
 0001:0001c11f       __statfp                   1001d11f f   libucrt:fpctrl.obj
 0001:0001c12f       __d_inttype                1001d12f f   libucrt:powhlp.obj
 0001:0001c197       __powhlp                   1001d197 f   libucrt:powhlp.obj
 0001:0001c2c2       __87except                 1001d2c2 f   libucrt:87except.obj
 0001:0001c3cc       __frnd                     1001d3cc f   libucrt:frnd.obj
 0001:0001c3e0       __errcode                  1001d3e0 f   libucrt:fpexcept.obj
 0001:0001c414       __except1                  1001d414 f   libucrt:fpexcept.obj
 0001:0001c4e2       __handle_exc               1001d4e2 f   libucrt:fpexcept.obj
 0001:0001c6cd       __raise_exc                1001d6cd f   libucrt:fpexcept.obj
 0001:0001c6f0       __raise_exc_ex             1001d6f0 f   libucrt:fpexcept.obj
 0001:0001c9e6       __set_errno_from_matherr   1001d9e6 f   libucrt:fpexcept.obj
 0001:0001ca15       __umatherr                 1001da15 f   libucrt:fpexcept.obj
 0001:0001cab5       __decomp                   1001dab5 f   libucrt:util.obj
 0001:0001cb87       __set_exp                  1001db87 f   libucrt:util.obj
 0001:0001cbb4       __sptype                   1001dbb4 f   libucrt:util.obj
 0001:0001cc12       __fpclass                  1001dc12 f   libucrt:ieeemisc.obj
 0001:0001ccb6       _IsProcessorFeaturePresent@4 1001dcb6 f   kernel32:KERNEL32.dll
 0001:0001ccc0       __FindPESection            1001dcc0 f   LIBCMT:pesect.obj
 0001:0001cd10       __IsNonwritableInCurrentImage 1001dd10 f   LIBCMT:pesect.obj
 0001:0001cdd0       __ValidateImageBase        1001ddd0 f   LIBCMT:pesect.obj
 0001:0001ce03       __EH_prolog3_catch         1001de03 f   LIBCMT:ehprolg3.obj
 0001:0001ce40       __aulldvrm                 1001de40 f   LIBCMT:ulldvrm.obj
 0001:0001cee0       __allmul                   1001dee0 f   LIBCMT:llmul.obj
 0001:0001cf20       __alldvrm                  1001df20 f   LIBCMT:lldvrm.obj
 0001:0001d000       __aullshr                  1001e000 f   LIBCMT:ullshr.obj
 0001:0001d020       __allshl                   1001e020 f   LIBCMT:llshl.obj
 0001:0001d040       __ftol2_sse                1001e040     LIBCMT:ftol2.obj
 0001:0001d040       __ftoi2                    1001e040 f   LIBCMT:ftol2.obj
 0001:0001d040       __ftol2_sse_excpt          1001e040     LIBCMT:ftol2.obj
 0001:0001d0c0       __ftoui2                   1001e0c0 f   LIBCMT:ftol2.obj
 0001:0001d170       __ftol2                    1001e170 f   LIBCMT:ftol2.obj
 0001:0001d220       __ftoul2                   1001e220 f   LIBCMT:ftol2.obj
 0001:0001d2e0       _strrchr                   1001e2e0 f   libvcruntime:strrchr.obj
 0001:0001d420       _strchr                    1001e420 f   libvcruntime:strchr.obj
 0001:0001d48e       ___from_strstr_to_strchr   1001e48e     libvcruntime:strchr.obj
 0001:0001d54b       __filter_x86_sse2_floating_point_exception 1001e54b f   LIBCMT:x86_exception_filter.obj
 0001:0001d54b       __filter_x86_sse2_floating_point_exception_default 1001e54b f   LIBCMT:x86_exception_filter.obj
 0002:00000000       __imp__RegQueryValueExW@24 1001f000     advapi32:ADVAPI32.dll
 0002:00000004       __imp__RegSetValueExW@24   1001f004     advapi32:ADVAPI32.dll
 0002:00000008       __imp__RegQueryInfoKeyW@48 1001f008     advapi32:ADVAPI32.dll
 0002:0000000c       __imp__RegOpenKeyExW@20    1001f00c     advapi32:ADVAPI32.dll
 0002:00000010       __imp__RegEnumKeyExW@32    1001f010     advapi32:ADVAPI32.dll
 0002:00000014       __imp__RegDeleteValueW@8   1001f014     advapi32:ADVAPI32.dll
 0002:00000018       __imp__RegDeleteKeyW@8     1001f018     advapi32:ADVAPI32.dll
 0002:0000001c       __imp__RegCreateKeyExW@36  1001f01c     advapi32:ADVAPI32.dll
 0002:00000020       __imp__RegCloseKey@4       1001f020     advapi32:ADVAPI32.dll
 0002:00000024       \177ADVAPI32_NULL_THUNK_DATA 1001f024     advapi32:ADVAPI32.dll
 0002:00000028       __imp__GetObjectW@12       1001f028     gdi32:GDI32.dll
 0002:0000002c       __imp__SelectObject@8      1001f02c     gdi32:GDI32.dll
 0002:00000030       __imp__DeleteObject@4      1001f030     gdi32:GDI32.dll
 0002:00000034       __imp__CreateCompatibleDC@4 1001f034     gdi32:GDI32.dll
 0002:00000038       __imp__BitBlt@36           1001f038     gdi32:GDI32.dll
 0002:0000003c       __imp__SetWindowOrgEx@16   1001f03c     gdi32:GDI32.dll
 0002:00000040       __imp__SetWindowExtEx@16   1001f040     gdi32:GDI32.dll
 0002:00000044       __imp__SetViewportOrgEx@16 1001f044     gdi32:GDI32.dll
 0002:00000048       __imp__LPtoDP@12           1001f048     gdi32:GDI32.dll
 0002:0000004c       __imp__SetMapMode@8        1001f04c     gdi32:GDI32.dll
 0002:00000050       __imp__SaveDC@4            1001f050     gdi32:GDI32.dll
 0002:00000054       __imp__RestoreDC@8         1001f054     gdi32:GDI32.dll
 0002:00000058       __imp__GetDeviceCaps@8     1001f058     gdi32:GDI32.dll
 0002:0000005c       __imp__DeleteMetaFile@4    1001f05c     gdi32:GDI32.dll
 0002:00000060       __imp__DeleteDC@4          1001f060     gdi32:GDI32.dll
 0002:00000064       __imp__CreateRectRgnIndirect@4 1001f064     gdi32:GDI32.dll
 0002:00000068       __imp__CreateMetaFileW@4   1001f068     gdi32:GDI32.dll
 0002:0000006c       __imp__CreateDCW@16        1001f06c     gdi32:GDI32.dll
 0002:00000070       __imp__CloseMetaFile@4     1001f070     gdi32:GDI32.dll
 0002:00000074       \177GDI32_NULL_THUNK_DATA  1001f074     gdi32:GDI32.dll
 0002:00000078       __imp__CloseHandle@4       1001f078     kernel32:KERNEL32.dll
 0002:0000007c       __imp__SetEvent@4          1001f07c     kernel32:KERNEL32.dll
 0002:00000080       __imp__CreateMutexW@12     1001f080     kernel32:KERNEL32.dll
 0002:00000084       __imp__CreateEventW@16     1001f084     kernel32:KERNEL32.dll
 0002:00000088       __imp__GetCurrentProcessId@0 1001f088     kernel32:KERNEL32.dll
 0002:0000008c       __imp__CreateFileW@28      1001f08c     kernel32:KERNEL32.dll
 0002:00000090       __imp__GetConsoleMode@8    1001f090     kernel32:KERNEL32.dll
 0002:00000094       __imp__GetConsoleCP@0      1001f094     kernel32:KERNEL32.dll
 0002:00000098       __imp__WriteFile@20        1001f098     kernel32:KERNEL32.dll
 0002:0000009c       __imp__FlushFileBuffers@4  1001f09c     kernel32:KERNEL32.dll
 0002:000000a0       __imp__SetStdHandle@8      1001f0a0     kernel32:KERNEL32.dll
 0002:000000a4       __imp__GetStringTypeW@16   1001f0a4     kernel32:KERNEL32.dll
 0002:000000a8       __imp__SetFilePointerEx@20 1001f0a8     kernel32:KERNEL32.dll
 0002:000000ac       __imp__FreeEnvironmentStringsW@4 1001f0ac     kernel32:KERNEL32.dll
 0002:000000b0       __imp__GetEnvironmentStringsW@0 1001f0b0     kernel32:KERNEL32.dll
 0002:000000b4       __imp__lstrcmpiW@8         1001f0b4     kernel32:KERNEL32.dll
 0002:000000b8       __imp__GetCommandLineA@0   1001f0b8     kernel32:KERNEL32.dll
 0002:000000bc       __imp__GetCPInfo@8         1001f0bc     kernel32:KERNEL32.dll
 0002:000000c0       __imp__GetOEMCP@0          1001f0c0     kernel32:KERNEL32.dll
 0002:000000c4       __imp__GetACP@0            1001f0c4     kernel32:KERNEL32.dll
 0002:000000c8       __imp__IsValidCodePage@4   1001f0c8     kernel32:KERNEL32.dll
 0002:000000cc       __imp__FindNextFileW@8     1001f0cc     kernel32:KERNEL32.dll
 0002:000000d0       __imp__FindFirstFileExW@24 1001f0d0     kernel32:KERNEL32.dll
 0002:000000d4       __imp__FindClose@4         1001f0d4     kernel32:KERNEL32.dll
 0002:000000d8       __imp__GetFileType@4       1001f0d8     kernel32:KERNEL32.dll
 0002:000000dc       __imp__GetStdHandle@4      1001f0dc     kernel32:KERNEL32.dll
 0002:000000e0       __imp__LCMapStringW@24     1001f0e0     kernel32:KERNEL32.dll
 0002:000000e4       __imp__HeapReAlloc@16      1001f0e4     kernel32:KERNEL32.dll
 0002:000000e8       __imp__HeapSize@12         1001f0e8     kernel32:KERNEL32.dll
 0002:000000ec       __imp__MulDiv@12           1001f0ec     kernel32:KERNEL32.dll
 0002:000000f0       __imp__GlobalLock@4        1001f0f0     kernel32:KERNEL32.dll
 0002:000000f4       __imp__GlobalUnlock@4      1001f0f4     kernel32:KERNEL32.dll
 0002:000000f8       __imp__GlobalAlloc@8       1001f0f8     kernel32:KERNEL32.dll
 0002:000000fc       __imp__FindResourceW@12    1001f0fc     kernel32:KERNEL32.dll
 0002:00000100       __imp__SizeofResource@8    1001f100     kernel32:KERNEL32.dll
 0002:00000104       __imp__LoadResource@8      1001f104     kernel32:KERNEL32.dll
 0002:00000108       __imp__LoadLibraryExW@12   1001f108     kernel32:KERNEL32.dll
 0002:0000010c       __imp__GetProcAddress@8    1001f10c     kernel32:KERNEL32.dll
 0002:00000110       __imp__GetModuleHandleW@4  1001f110     kernel32:KERNEL32.dll
 0002:00000114       __imp__GetModuleFileNameW@12 1001f114     kernel32:KERNEL32.dll
 0002:00000118       __imp__FreeLibrary@4       1001f118     kernel32:KERNEL32.dll
 0002:0000011c       __imp__DisableThreadLibraryCalls@4 1001f11c     kernel32:KERNEL32.dll
 0002:00000120       __imp__GetCurrentThreadId@0 1001f120     kernel32:KERNEL32.dll
 0002:00000124       __imp__Sleep@4             1001f124     kernel32:KERNEL32.dll
 0002:00000128       __imp__WaitForSingleObject@8 1001f128     kernel32:KERNEL32.dll
 0002:0000012c       __imp__ReleaseMutex@4      1001f12c     kernel32:KERNEL32.dll
 0002:00000130       __imp__ResetEvent@4        1001f130     kernel32:KERNEL32.dll
 0002:00000134       __imp__EnterCriticalSection@4 1001f134     kernel32:KERNEL32.dll
 0002:00000138       __imp__LeaveCriticalSection@4 1001f138     kernel32:KERNEL32.dll
 0002:0000013c       __imp__SetLastError@4      1001f13c     kernel32:KERNEL32.dll
 0002:00000140       __imp__EncodePointer@4     1001f140     kernel32:KERNEL32.dll
 0002:00000144       __imp__DeleteCriticalSection@4 1001f144     kernel32:KERNEL32.dll
 0002:00000148       __imp__InitializeCriticalSectionEx@12 1001f148     kernel32:KERNEL32.dll
 0002:0000014c       __imp__GetLastError@0      1001f14c     kernel32:KERNEL32.dll
 0002:00000150       __imp__RaiseException@16   1001f150     kernel32:KERNEL32.dll
 0002:00000154       __imp__DecodePointer@4     1001f154     kernel32:KERNEL32.dll
 0002:00000158       __imp__WideCharToMultiByte@32 1001f158     kernel32:KERNEL32.dll
 0002:0000015c       __imp__GetCommandLineW@0   1001f15c     kernel32:KERNEL32.dll
 0002:00000160       __imp__MultiByteToWideChar@24 1001f160     kernel32:KERNEL32.dll
 0002:00000164       __imp__WriteConsoleW@20    1001f164     kernel32:KERNEL32.dll
 0002:00000168       __imp__GetModuleHandleExW@12 1001f168     kernel32:KERNEL32.dll
 0002:0000016c       __imp__ExitProcess@4       1001f16c     kernel32:KERNEL32.dll
 0002:00000170       __imp__VirtualQuery@12     1001f170     kernel32:KERNEL32.dll
 0002:00000174       __imp__VirtualProtect@16   1001f174     kernel32:KERNEL32.dll
 0002:00000178       __imp__GetSystemInfo@4     1001f178     kernel32:KERNEL32.dll
 0002:0000017c       __imp__TlsFree@4           1001f17c     kernel32:KERNEL32.dll
 0002:00000180       __imp__TlsSetValue@8       1001f180     kernel32:KERNEL32.dll
 0002:00000184       __imp__TlsGetValue@4       1001f184     kernel32:KERNEL32.dll
 0002:00000188       __imp__TlsAlloc@0          1001f188     kernel32:KERNEL32.dll
 0002:0000018c       __imp__InterlockedFlushSList@4 1001f18c     kernel32:KERNEL32.dll
 0002:00000190       __imp__RtlUnwind@16        1001f190     kernel32:KERNEL32.dll
 0002:00000194       __imp__LoadLibraryExA@12   1001f194     kernel32:KERNEL32.dll
 0002:00000198       __imp__VirtualFree@12      1001f198     kernel32:KERNEL32.dll
 0002:0000019c       __imp__VirtualAlloc@16     1001f19c     kernel32:KERNEL32.dll
 0002:000001a0       __imp__FlushInstructionCache@12 1001f1a0     kernel32:KERNEL32.dll
 0002:000001a4       __imp__InterlockedPushEntrySList@8 1001f1a4     kernel32:KERNEL32.dll
 0002:000001a8       __imp__InterlockedPopEntrySList@4 1001f1a8     kernel32:KERNEL32.dll
 0002:000001ac       __imp__GetProcessHeap@0    1001f1ac     kernel32:KERNEL32.dll
 0002:000001b0       __imp__HeapFree@12         1001f1b0     kernel32:KERNEL32.dll
 0002:000001b4       __imp__HeapAlloc@12        1001f1b4     kernel32:KERNEL32.dll
 0002:000001b8       __imp__OutputDebugStringW@4 1001f1b8     kernel32:KERNEL32.dll
 0002:000001bc       __imp__InitializeSListHead@4 1001f1bc     kernel32:KERNEL32.dll
 0002:000001c0       __imp__GetSystemTimeAsFileTime@4 1001f1c0     kernel32:KERNEL32.dll
 0002:000001c4       __imp__QueryPerformanceCounter@4 1001f1c4     kernel32:KERNEL32.dll
 0002:000001c8       __imp__GetStartupInfoW@4   1001f1c8     kernel32:KERNEL32.dll
 0002:000001cc       __imp__IsDebuggerPresent@0 1001f1cc     kernel32:KERNEL32.dll
 0002:000001d0       __imp__IsProcessorFeaturePresent@4 1001f1d0     kernel32:KERNEL32.dll
 0002:000001d4       __imp__TerminateProcess@8  1001f1d4     kernel32:KERNEL32.dll
 0002:000001d8       __imp__GetCurrentProcess@0 1001f1d8     kernel32:KERNEL32.dll
 0002:000001dc       __imp__SetUnhandledExceptionFilter@4 1001f1dc     kernel32:KERNEL32.dll
 0002:000001e0       __imp__UnhandledExceptionFilter@4 1001f1e0     kernel32:KERNEL32.dll
 0002:000001e4       __imp__InitializeCriticalSectionAndSpinCount@8 1001f1e4     kernel32:KERNEL32.dll
 0002:000001e8       __imp__WaitForSingleObjectEx@12 1001f1e8     kernel32:KERNEL32.dll
 0002:000001ec       \177KERNEL32_NULL_THUNK_DATA 1001f1ec     kernel32:KERNEL32.dll
 0002:000001f0       __imp__OleCreatePropertyFrame@44 1001f1f0     oleaut32:OLEAUT32.dll
 0002:000001f4       __imp__UnRegisterTypeLib@20 1001f1f4     oleaut32:OLEAUT32.dll
 0002:000001f8       __imp__RegisterTypeLib@12  1001f1f8     oleaut32:OLEAUT32.dll
 0002:000001fc       __imp__LoadRegTypeLib@20   1001f1fc     oleaut32:OLEAUT32.dll
 0002:00000200       __imp__LoadTypeLib@8       1001f200     oleaut32:OLEAUT32.dll
 0002:00000204       __imp__VarUI4FromStr@16    1001f204     oleaut32:OLEAUT32.dll
 0002:00000208       __imp__VariantInit@4       1001f208     oleaut32:OLEAUT32.dll
 0002:0000020c       __imp__SysAllocStringByteLen@8 1001f20c     oleaut32:OLEAUT32.dll
 0002:00000210       __imp__SysStringByteLen@4  1001f210     oleaut32:OLEAUT32.dll
 0002:00000214       __imp__VariantChangeType@16 1001f214     oleaut32:OLEAUT32.dll
 0002:00000218       __imp__VariantClear@4      1001f218     oleaut32:OLEAUT32.dll
 0002:0000021c       __imp__SysStringLen@4      1001f21c     oleaut32:OLEAUT32.dll
 0002:00000220       __imp__SysFreeString@4     1001f220     oleaut32:OLEAUT32.dll
 0002:00000224       __imp__SysAllocStringLen@8 1001f224     oleaut32:OLEAUT32.dll
 0002:00000228       __imp__SysAllocString@4    1001f228     oleaut32:OLEAUT32.dll
 0002:0000022c       \177OLEAUT32_NULL_THUNK_DATA 1001f22c     oleaut32:OLEAUT32.dll
 0002:00000230       __imp__UnregisterClassW@8  1001f230     user32:USER32.dll
 0002:00000234       __imp__PostMessageW@16     1001f234     user32:USER32.dll
 0002:00000238       __imp__DefWindowProcW@16   1001f238     user32:USER32.dll
 0002:0000023c       __imp__CallWindowProcW@20  1001f23c     user32:USER32.dll
 0002:00000240       __imp__RegisterClassExW@4  1001f240     user32:USER32.dll
 0002:00000244       __imp__GetClassInfoExW@12  1001f244     user32:USER32.dll
 0002:00000248       __imp__CreateWindowExW@48  1001f248     user32:USER32.dll
 0002:0000024c       __imp__IsWindow@4          1001f24c     user32:USER32.dll
 0002:00000250       __imp__IsChild@8           1001f250     user32:USER32.dll
 0002:00000254       __imp__DestroyWindow@4     1001f254     user32:USER32.dll
 0002:00000258       __imp__ShowWindow@8        1001f258     user32:USER32.dll
 0002:0000025c       __imp__SetWindowPos@28     1001f25c     user32:USER32.dll
 0002:00000260       __imp__CharNextW@4         1001f260     user32:USER32.dll
 0002:00000264       __imp__SetFocus@4          1001f264     user32:USER32.dll
 0002:00000268       __imp__LoadBitmapW@8       1001f268     user32:USER32.dll
 0002:0000026c       __imp__RegisterClassW@4    1001f26c     user32:USER32.dll
 0002:00000270       __imp__PeekMessageW@20     1001f270     user32:USER32.dll
 0002:00000274       __imp__LoadCursorW@8       1001f274     user32:USER32.dll
 0002:00000278       __imp__GetParent@4         1001f278     user32:USER32.dll
 0002:0000027c       __imp__SetWindowLongW@12   1001f27c     user32:USER32.dll
 0002:00000280       __imp__GetWindowLongW@8    1001f280     user32:USER32.dll
 0002:00000284       __imp__PtInRect@12         1001f284     user32:USER32.dll
 0002:00000288       __imp__EqualRect@8         1001f288     user32:USER32.dll
 0002:0000028c       __imp__OffsetRect@12       1001f28c     user32:USER32.dll
 0002:00000290       __imp__UnionRect@12        1001f290     user32:USER32.dll
 0002:00000294       __imp__IntersectRect@12    1001f294     user32:USER32.dll
 0002:00000298       __imp__GetClientRect@8     1001f298     user32:USER32.dll
 0002:0000029c       __imp__InvalidateRect@12   1001f29c     user32:USER32.dll
 0002:000002a0       __imp__SetWindowRgn@12     1001f2a0     user32:USER32.dll
 0002:000002a4       __imp__EndPaint@8          1001f2a4     user32:USER32.dll
 0002:000002a8       __imp__BeginPaint@8        1001f2a8     user32:USER32.dll
 0002:000002ac       __imp__ReleaseDC@8         1001f2ac     user32:USER32.dll
 0002:000002b0       __imp__GetDC@4             1001f2b0     user32:USER32.dll
 0002:000002b4       __imp__GetKeyState@4       1001f2b4     user32:USER32.dll
 0002:000002b8       __imp__GetFocus@0          1001f2b8     user32:USER32.dll
 0002:000002bc       \177USER32_NULL_THUNK_DATA 1001f2bc     user32:USER32.dll
 0002:000002c0       __imp__StringFromGUID2@12  1001f2c0     ole32:ole32.dll
 0002:000002c4       __imp__CoTaskMemAlloc@4    1001f2c4     ole32:ole32.dll
 0002:000002c8       __imp__CoTaskMemRealloc@8  1001f2c8     ole32:ole32.dll
 0002:000002cc       __imp__CoTaskMemFree@4     1001f2cc     ole32:ole32.dll
 0002:000002d0       __imp__ReadClassStm@8      1001f2d0     ole32:ole32.dll
 0002:000002d4       __imp__WriteClassStm@8     1001f2d4     ole32:ole32.dll
 0002:000002d8       __imp__CreateDataAdviseHolder@4 1001f2d8     ole32:ole32.dll
 0002:000002dc       __imp__OleSaveToStream@8   1001f2dc     ole32:ole32.dll
 0002:000002e0       __imp__CreateOleAdviseHolder@4 1001f2e0     ole32:ole32.dll
 0002:000002e4       __imp__OleRegGetUserType@12 1001f2e4     ole32:ole32.dll
 0002:000002e8       __imp__OleRegGetMiscStatus@12 1001f2e8     ole32:ole32.dll
 0002:000002ec       __imp__OleRegEnumVerbs@8   1001f2ec     ole32:ole32.dll
 0002:000002f0       __imp__CLSIDFromProgID@8   1001f2f0     ole32:ole32.dll
 0002:000002f4       __imp__CoCreateInstance@20 1001f2f4     ole32:ole32.dll
 0002:000002f8       \177ole32_NULL_THUNK_DATA  1001f2f8     ole32:ole32.dll
 0002:000002fc       ___guard_check_icall_fptr  1001f2fc     LIBCMT:guard_support.obj
 0002:00000300       ___xc_a                    1001f300     LIBCMT:initializers.obj
 0002:00000318       ___xc_z                    1001f318     LIBCMT:initializers.obj
 0002:0000031c       ___xi_a                    1001f31c     LIBCMT:initializers.obj
 0002:00000324       ___acrt_stdio_initializer  1001f324     libucrt:stdio_initializer.obj
 0002:00000328       ___acrt_multibyte_initializer 1001f328     libucrt:multibyte_initializer.obj
 0002:0000032c       ___acrt_tran_sse2_initializer 1001f32c     libucrt:sse2_initializer.obj
 0002:00000330       ___xi_z                    1001f330     LIBCMT:initializers.obj
 0002:00000334       ___xl_a                    1001f334     LIBCMT:tlssup.obj
 0002:00000338       ___xl_z                    1001f338     LIBCMT:tlssup.obj
 0002:0000033c       ___xp_a                    1001f33c     LIBCMT:initializers.obj
 0002:00000340       ___acrt_locale_terminator  1001f340     libucrt:locale_initializer.obj
 0002:00000344       ___dcrt_console_output_terminator 1001f344     libucrt:console_output_initializer.obj
 0002:00000348       ___acrt_stdio_terminator   1001f348     libucrt:stdio_initializer.obj
 0002:0000034c       ___xp_z                    1001f34c     LIBCMT:initializers.obj
 0002:00000350       ___xt_a                    1001f350     LIBCMT:initializers.obj
 0002:00000354       ___xt_z                    1001f354     LIBCMT:initializers.obj
 0002:00000360       ??_C@_13HADIAKP@?$AAS@     1001f360     OposVariant.obj
 0002:00000364       ??_C@_13LHMFKAAD@?$AAM@    1001f364     OposVariant.obj
 0002:00000368       ??_C@_13MKMNOPIJ@?$AAD@    1001f368     OposVariant.obj
 0002:0000036c       ??_C@_13OPKGLAFF@?$AAB@    1001f36c     OposVariant.obj
 0002:00000370       ??_C@_17LLMMEOJD@?$AAV?$AAa?$AAl@ 1001f370     OposVariant.obj
 0002:00000378       ??_C@_1BI@JFAIJMHL@?$AAF?$AAo?$AAr?$AAc?$AAe?$AAR?$AAe?$AAm?$AAo?$AAv?$AAe@ 1001f378     OposVariant.obj
 0002:00000390       ??_C@_1BC@GCKHIPE@?$AAN?$AAo?$AAR?$AAe?$AAm?$AAo?$AAv?$AAe@ 1001f390     OposVariant.obj
 0002:000003a4       ??_C@_1O@JDLOHAN@?$AAD?$AAe?$AAl?$AAe?$AAt?$AAe@ 1001f3a4     OposVariant.obj
 0002:000003b4       ??_C@_11LOCGONAA@@         1001f3b4     OposVariant.obj
 0002:000003b8       ??_7CComClassFactory@ATL@@6B@ 1001f3b8     Lights.obj
 0002:000003d0       ?_entries@?1??_GetEntries@CComClassFactory@ATL@@SGPBU_ATL_INTMAP_ENTRY@3@XZ@4QBU43@B 1001f3d0     Lights.obj
 0002:000003e8       __GUID_00000001_0000_0000_c000_000000000046 1001f3e8     Lights.obj
 0002:000003f8       _IID_IOPOSLights_1_12      1001f3f8     Lights.obj
 0002:00000408       _IID_IOPOSLights           1001f408     Lights.obj
 0002:00000418       _LIBID_OposLights_CCO      1001f418     Lights.obj
 0002:00000428       _DIID__IOPOSLightsEvents   1001f428     Lights.obj
 0002:00000438       _CLSID_OPOSLights          1001f438     Lights.obj
 0002:00000448       __GUID_00000114_0000_0000_c000_000000000046 1001f448     Lights.obj
 0002:00000458       ??_C@_1BK@BIGILECK@?$AAA?$AAd?$AAv?$AAa?$AAp?$AAi?$AA3?$AA2?$AA?4?$AAd?$AAl?$AAl@ 1001f458     Lights.obj
 0002:00000474       ??_C@_0BI@MNCFCPFK@RegCreateKeyTransactedW@ 1001f474     Lights.obj
 0002:0000048c       __GUID_b196b287_bab4_101a_b69c_00aa00341d07 1001f48c     Lights.obj
 0002:0000049c       __GUID_b196b285_bab4_101a_b69c_00aa00341d07 1001f49c     Lights.obj
 0002:000004ac       __GUID_a6bc3ac0_dbaa_11ce_9de3_00aa004bb851 1001f4ac     Lights.obj
 0002:000004bc       __GUID_0000010c_0000_0000_c000_000000000046 1001f4bc     Lights.obj
 0002:000004d0       ?_entries@?1??_GetEntries@COPOSLights@@SGPBU_ATL_INTMAP_ENTRY@ATL@@XZ@4QBU34@B 1001f4d0     Lights.obj
 0002:000005f0       __GUID_00000146_0000_0000_c000_000000000046 1001f5f0     Lights.obj
 0002:00000600       __GUID_cf51ed10_62fe_11cf_bf86_00a0c9034836 1001f600     Lights.obj
 0002:00000610       __GUID_0000010a_0000_0000_c000_000000000046 1001f610     Lights.obj
 0002:00000620       __GUID_b196b283_bab4_101a_b69c_00aa00341d07 1001f620     Lights.obj
 0002:00000630       __GUID_cb5bdc81_93c1_11cf_8f20_00805f2cd064 1001f630     Lights.obj
 0002:00000640       ?pPropMap@?1??GetPropertyMap@COPOSLights@@SAPBUATL_PROPMAP_ENTRY@ATL@@XZ@4QBU34@B 1001f640     Lights.obj
 0002:000006ac       ??_C@_17DGDADEHL@?$AA_?$AAc?$AAx@ 1001f6ac     Lights.obj
 0002:000006b4       ??_C@_17IOIMFDBO@?$AA_?$AAc?$AAy@ 1001f6b4     Lights.obj
 0002:000006bc       ??_7?$CComObjectCached@VCComClassFactory@ATL@@@ATL@@6B@ 1001f6bc     Lights.obj
 0002:000006d4       ??_7CComModule@ATL@@6B@    1001f6d4     Lights.obj
 0002:000006fc       ??_C@_1CE@PGFMOFKI@?$AAS?$AAt?$AAa?$AAt?$AAu?$AAs?$AAU?$AAp?$AAd?$AAa?$AAt?$AAe?$AAE?$AAv?$AAe@ 1001f6fc     Lights.obj
 0002:00000720       ??_C@_1BM@CBGEBBBJ@?$AAD?$AAi?$AAr?$AAe?$AAc?$AAt?$AAI?$AAO?$AAE?$AAv?$AAe?$AAn?$AAt@ 1001f720     Lights.obj
 0002:0000073c       __GUID_922eada0_3424_11cf_b670_00aa004cd6d8 1001f73c     Lights.obj
 0002:0000074c       __GUID_9c2cad80_3424_11cf_b670_00aa004cd6d8 1001f74c     Lights.obj
 0002:0000075c       __GUID_00000119_0000_0000_c000_000000000046 1001f75c     Lights.obj
 0002:0000076c       __GUID_b196b286_bab4_101a_b69c_00aa00341d07 1001f76c     Lights.obj
 0002:0000077c       __GUID_b196b289_bab4_101a_b69c_00aa00341d07 1001f77c     Lights.obj
 0002:0000078c       __GUID_00000000_0000_0000_c000_000000000046 1001f78c     Lights.obj
 0002:0000079c       __GUID_00020400_0000_0000_c000_000000000046 1001f79c     Lights.obj
 0002:000007ac       ??_C@_1BC@ENICKDH@?$AAC?$AAo?$AAn?$AAt?$AAe?$AAn?$AAt?$AAs@ 1001f7ac     Lights.obj
 0002:000007c0       __GUID_00000117_0000_0000_c000_000000000046 1001f7c0     Lights.obj
 0002:000007d0       ??_7?$CComObject@V?$CComEnum@UIEnumConnectionPoints@@$1?_GUID_b196b285_bab4_101a_b69c_00aa00341d07@@3U__s_GUID@@BPAUIConnectionPoint@@V?$_CopyInterface@UIConnectionPoint@@@ATL@@VCComSingleThreadModel@6@@ATL@@@ATL@@6B@ 1001f7d0     Lights.obj
 0002:000007f0       ??_C@_1M@KANJNLFF@?$AAC?$AAL?$AAS?$AAI?$AAD@ 1001f7f0     Lights.obj
 0002:000007fc       ??_C@_1M@EJNEECMJ@?$AAA?$AAp?$AAp?$AAI?$AAD@ 1001f7fc     Lights.obj
 0002:00000808       __GUID_0000010e_0000_0000_c000_000000000046 1001f808     Lights.obj
 0002:00000818       __GUID_b196b288_bab4_101a_b69c_00aa00341d07 1001f818     Lights.obj
 0002:00000828       ?rgszNeverDelete@CRegParser@ATL@@1QBQB_WB 1001f828     Lights.obj
 0002:00000858       ??_7CRegObject@ATL@@6B@    1001f858     Lights.obj
 0002:00000870       __GUID_00000113_0000_0000_c000_000000000046 1001f870     Lights.obj
 0002:00000880       __GUID_1c2056cc_5ef4_101b_8bc8_00aa003e3b29 1001f880     Lights.obj
 0002:00000890       ??_C@_1CK@OEKPKBNA@?$AAC?$AAo?$AAm?$AAp?$AAo?$AAn?$AAe?$AAn?$AAt?$AA?5?$AAC?$AAa?$AAt?$AAe?$AAg@ 1001f890     Lights.obj
 0002:000008bc       ??_C@_1BC@NKMMNMGL@?$AAF?$AAi?$AAl?$AAe?$AAT?$AAy?$AAp?$AAe@ 1001f8bc     Lights.obj
 0002:000008d0       ??_C@_1BE@EKPAFMCP@?$AAI?$AAn?$AAt?$AAe?$AAr?$AAf?$AAa?$AAc?$AAe@ 1001f8d0     Lights.obj
 0002:000008e4       ??_C@_1BC@MAICEHGI@?$AAH?$AAa?$AAr?$AAd?$AAw?$AAa?$AAr?$AAe@ 1001f8e4     Lights.obj
 0002:000008f8       ??_C@_19HLLLM@?$AAM?$AAi?$AAm?$AAe@ 1001f8f8     Lights.obj
 0002:00000904       ??_C@_17OMAOINJK@?$AAS?$AAA?$AAM@ 1001f904     Lights.obj
 0002:0000090c       ??_C@_1BC@IBECJAAI@?$AAS?$AAE?$AAC?$AAU?$AAR?$AAI?$AAT?$AAY@ 1001f90c     Lights.obj
 0002:00000920       ??_C@_1O@GBFINDKL@?$AAS?$AAY?$AAS?$AAT?$AAE?$AAM@ 1001f920     Lights.obj
 0002:00000930       ??_C@_1BC@EAHCMADO@?$AAS?$AAo?$AAf?$AAt?$AAw?$AAa?$AAr?$AAe@ 1001f930     Lights.obj
 0002:00000944       ??_C@_1BA@JIHHIEDE@?$AAT?$AAy?$AAp?$AAe?$AAL?$AAi?$AAb@ 1001f944     Lights.obj
 0002:00000958       ?map@?1??HKeyFromString@CRegParser@ATL@@KAPAUHKEY__@@PA_W@Z@4QBUkeymap@?1??123@KAPAU4@0@Z@B 1001f958     Lights.obj
 0002:000009c8       ??_C@_19NCHLBIN@?$AAH?$AAK?$AAC?$AAR@ 1001f9c8     Lights.obj
 0002:000009d4       ??_C@_19JAPAIJDE@?$AAH?$AAK?$AAC?$AAU@ 1001f9d4     Lights.obj
 0002:000009e0       ??_C@_19PEALEEJB@?$AAH?$AAK?$AAL?$AAM@ 1001f9e0     Lights.obj
 0002:000009ec       ??_C@_17PJOJPMPB@?$AAH?$AAK?$AAU@ 1001f9ec     Lights.obj
 0002:000009f4       ??_C@_19PNBHMJPL@?$AAH?$AAK?$AAP?$AAD@ 1001f9f4     Lights.obj
 0002:00000a00       ??_C@_19GFFAIJHG@?$AAH?$AAK?$AAD?$AAD@ 1001fa00     Lights.obj
 0002:00000a0c       ??_C@_19OFICIBHH@?$AAH?$AAK?$AAC?$AAC@ 1001fa0c     Lights.obj
 0002:00000a18       ??_C@_1CE@PACHPJFI@?$AAH?$AAK?$AAE?$AAY?$AA_?$AAC?$AAL?$AAA?$AAS?$AAS?$AAE?$AAS?$AA_?$AAR?$AAO@ 1001fa18     Lights.obj
 0002:00000a3c       ??_C@_1CE@HLHNCBPM@?$AAH?$AAK?$AAE?$AAY?$AA_?$AAC?$AAU?$AAR?$AAR?$AAE?$AAN?$AAT?$AA_?$AAU?$AAS@ 1001fa3c     Lights.obj
 0002:00000a60       ??_C@_1CG@GFBEANJL@?$AAH?$AAK?$AAE?$AAY?$AA_?$AAL?$AAO?$AAC?$AAA?$AAL?$AA_?$AAM?$AAA?$AAC?$AAH@ 1001fa60     Lights.obj
 0002:00000a88       ??_C@_1BG@BGODANIO@?$AAH?$AAK?$AAE?$AAY?$AA_?$AAU?$AAS?$AAE?$AAR?$AAS@ 1001fa88     Lights.obj
 0002:00000aa0       ??_C@_1CM@KHNNAOIC@?$AAH?$AAK?$AAE?$AAY?$AA_?$AAP?$AAE?$AAR?$AAF?$AAO?$AAR?$AAM?$AAA?$AAN?$AAC@ 1001faa0     Lights.obj
 0002:00000acc       ??_C@_1BM@HAGMMHIA@?$AAH?$AAK?$AAE?$AAY?$AA_?$AAD?$AAY?$AAN?$AA_?$AAD?$AAA?$AAT?$AAA@ 1001facc     Lights.obj
 0002:00000ae8       ??_C@_1CI@BBJOACGG@?$AAH?$AAK?$AAE?$AAY?$AA_?$AAC?$AAU?$AAR?$AAR?$AAE?$AAN?$AAT?$AA_?$AAC?$AAO@ 1001fae8     Lights.obj
 0002:00000b10       __GUID_00000112_0000_0000_c000_000000000046 1001fb10     Lights.obj
 0002:00000b20       __GUID_00000109_0000_0000_c000_000000000046 1001fb20     Lights.obj
 0002:00000b30       __GUID_7fd52380_4e07_101b_ae2d_08002b2ec713 1001fb30     Lights.obj
 0002:00000b40       __GUID_3af24292_0c96_11ce_a0cf_00aa00600ab8 1001fb40     Lights.obj
 0002:00000b50       __GUID_00000127_0000_0000_c000_000000000046 1001fb50     Lights.obj
 0002:00000b60       __GUID_0000010d_0000_0000_c000_000000000046 1001fb60     Lights.obj
 0002:00000b70       ??_C@_1M@PPPPCDEP@?$AAA?$AAP?$AAP?$AAI?$AAD@ 1001fb70     Lights.obj
 0002:00000b80       ??_C@_1EA@NHKLICFA@?$AAH?$AAK?$AAC?$AAU?$AA?$AN?$AA?6?$AA?$HL?$AA?7?$AAS?$AAo?$AAf?$AAt?$AAw?$AAa?$AAr@ 1001fb80     Lights.obj
 0002:00000bc0       ??_C@_1BE@LJOLIMEM@?$AA?$AN?$AA?6?$AA?7?$AA?$HN?$AA?$AN?$AA?6?$AA?$HN?$AA?$AN?$AA?6@ 1001fbc0     Lights.obj
 0002:00000bd4       ??_7?$CComContainedObject@VCOPOSLights@@@ATL@@6B?$IDispatchImpl@UIOPOSLights@@$1?IID_IOPOSLights@@3U_GUID@@B$1?LIBID_OposLights_CCO@@3U3@B$00$0A@VCComTypeInfoHolder@ATL@@@1@@ 1001fbd4     Lights.obj
 0002:00000cb4       ??_7?$CComContainedObject@VCOPOSLights@@@ATL@@6BCComControlBase@1@@ 1001fcb4     Lights.obj
 0002:00000cc8       ??_7?$CComContainedObject@VCOPOSLights@@@ATL@@6B?$CWindowImpl@VCOPOSLights@@VCWindow@ATL@@V?$CWinTraits@$0FGAAAAAA@$0A@@3@@1@@ 1001fcc8     Lights.obj
 0002:00000cd8       ??_7?$CComContainedObject@VCOPOSLights@@@ATL@@6B?$IPersistStreamInitImpl@VCOPOSLights@@@1@@ 1001fcd8     Lights.obj
 0002:00000cfc       ??_7?$CComContainedObject@VCOPOSLights@@@ATL@@6B?$IOleControlImpl@VCOPOSLights@@@1@@ 1001fcfc     Lights.obj
 0002:00000d18       ??_C@_1O@MNLDABAF@?$AAM?$AAo?$AAd?$AAu?$AAl?$AAe@ 1001fd18     Lights.obj
 0002:00000d28       ??_7?$CComContainedObject@VCOPOSLights@@@ATL@@6B?$IOleObjectImpl@VCOPOSLights@@@1@@ 1001fd28     Lights.obj
 0002:00000d88       ??_C@_1BG@JBACFMF@?$AAM?$AAo?$AAd?$AAu?$AAl?$AAe?$AA_?$AAR?$AAa?$AAw@ 1001fd88     Lights.obj
 0002:00000da0       ??_7?$CComContainedObject@VCOPOSLights@@@ATL@@6B?$IOleInPlaceActiveObjectImpl@VCOPOSLights@@@1@@ 1001fda0     Lights.obj
 0002:00000dc8       ??_7?$CComContainedObject@VCOPOSLights@@@ATL@@6B?$IViewObjectExImpl@VCOPOSLights@@@1@@ 1001fdc8     Lights.obj
 0002:00000e04       ??_C@_1BC@KAILKFFG@?$AAR?$AAE?$AAG?$AAI?$AAS?$AAT?$AAR?$AAY@ 1001fe04     Lights.obj
 0002:00000e18       ??_7?$CComContainedObject@VCOPOSLights@@@ATL@@6B?$IOleInPlaceObjectWindowlessImpl@VCOPOSLights@@@1@@ 1001fe18     Lights.obj
 0002:00000e44       ??_7?$CComContainedObject@VCOPOSLights@@@ATL@@6B?$IConnectionPointContainerImpl@VCOPOSLights@@@1@@ 1001fe44     Lights.obj
 0002:00000e58       ??_7?$CComContainedObject@VCOPOSLights@@@ATL@@6B?$IPersistStorageImpl@VCOPOSLights@@@1@@ 1001fe58     Lights.obj
 0002:00000e80       ??_7?$CComContainedObject@VCOPOSLights@@@ATL@@6B?$ISpecifyPropertyPagesImpl@VCOPOSLights@@@1@@ 1001fe80     Lights.obj
 0002:00000e90       ??_7?$CComContainedObject@VCOPOSLights@@@ATL@@6B?$IQuickActivateImpl@VCOPOSLights@@@1@@ 1001fe90     Lights.obj
 0002:00000ea8       ??_7?$CComContainedObject@VCOPOSLights@@@ATL@@6B?$IDataObjectImpl@VCOPOSLights@@@1@@ 1001fea8     Lights.obj
 0002:00000ed8       ??_7?$CComContainedObject@VCOPOSLights@@@ATL@@6B?$IProvideClassInfo2Impl@$1?CLSID_OPOSLights@@3U_GUID@@B$1?DIID__IOPOSLightsEvents@@3U2@B$1?LIBID_OposLights_CCO@@3U2@B$00$0A@VCComTypeInfoHolder@ATL@@@1@@ 1001fed8     Lights.obj
 0002:00000eec       ??_7?$CComContainedObject@VCOPOSLights@@@ATL@@6B?$IObjectSafetyImpl@VCOPOSLights@@$02@1@@ 1001feec     Lights.obj
 0002:00000f04       ??_7?$CComContainedObject@VCOPOSLights@@@ATL@@6B?$IPropertyNotifySinkCP@VCOPOSLights@@VCComDynamicUnkArray@ATL@@@1@@ 1001ff04     Lights.obj
 0002:00000f24       ??_7?$CComContainedObject@VCOPOSLights@@@ATL@@6B?$CProxy_IOPOSEvents@VCOPOSLights@@@@@ 1001ff24     Lights.obj
 0002:00000f44       ??_7?$CComAggObject@VCOPOSLights@@@ATL@@6B@ 1001ff44     Lights.obj
 0002:00000f54       ??_7?$CComObject@VCOPOSLights@@@ATL@@6B?$IDispatchImpl@UIOPOSLights@@$1?IID_IOPOSLights@@3U_GUID@@B$1?LIBID_OposLights_CCO@@3U3@B$00$0A@VCComTypeInfoHolder@ATL@@@1@@ 1001ff54     Lights.obj
 0002:00001034       ??_7?$CComObject@VCOPOSLights@@@ATL@@6BCComControlBase@1@@ 10020034     Lights.obj
 0002:00001048       ??_7?$CComObject@VCOPOSLights@@@ATL@@6B?$CWindowImpl@VCOPOSLights@@VCWindow@ATL@@V?$CWinTraits@$0FGAAAAAA@$0A@@3@@1@@ 10020048     Lights.obj
 0002:00001058       ??_7?$CComObject@VCOPOSLights@@@ATL@@6B?$IPersistStreamInitImpl@VCOPOSLights@@@1@@ 10020058     Lights.obj
 0002:0000107c       ??_7?$CComObject@VCOPOSLights@@@ATL@@6B?$IOleControlImpl@VCOPOSLights@@@1@@ 1002007c     Lights.obj
 0002:00001098       ??_7?$CComObject@VCOPOSLights@@@ATL@@6B?$IOleObjectImpl@VCOPOSLights@@@1@@ 10020098     Lights.obj
 0002:000010f8       ??_7?$CComObject@VCOPOSLights@@@ATL@@6B?$IOleInPlaceActiveObjectImpl@VCOPOSLights@@@1@@ 100200f8     Lights.obj
 0002:00001120       ??_7?$CComObject@VCOPOSLights@@@ATL@@6B?$IViewObjectExImpl@VCOPOSLights@@@1@@ 10020120     Lights.obj
 0002:0000115c       ??_7?$CComObject@VCOPOSLights@@@ATL@@6B?$IOleInPlaceObjectWindowlessImpl@VCOPOSLights@@@1@@ 1002015c     Lights.obj
 0002:00001188       ??_7?$CComObject@VCOPOSLights@@@ATL@@6B?$IConnectionPointContainerImpl@VCOPOSLights@@@1@@ 10020188     Lights.obj
 0002:0000119c       ??_7?$CComObject@VCOPOSLights@@@ATL@@6B?$IPersistStorageImpl@VCOPOSLights@@@1@@ 1002019c     Lights.obj
 0002:000011c4       ??_7?$CComObject@VCOPOSLights@@@ATL@@6B?$ISpecifyPropertyPagesImpl@VCOPOSLights@@@1@@ 100201c4     Lights.obj
 0002:000011d4       ??_7?$CComObject@VCOPOSLights@@@ATL@@6B?$IQuickActivateImpl@VCOPOSLights@@@1@@ 100201d4     Lights.obj
 0002:000011ec       ??_7?$CComObject@VCOPOSLights@@@ATL@@6B?$IDataObjectImpl@VCOPOSLights@@@1@@ 100201ec     Lights.obj
 0002:0000121c       ??_7?$CComObject@VCOPOSLights@@@ATL@@6B?$IProvideClassInfo2Impl@$1?CLSID_OPOSLights@@3U_GUID@@B$1?DIID__IOPOSLightsEvents@@3U2@B$1?LIBID_OposLights_CCO@@3U2@B$00$0A@VCComTypeInfoHolder@ATL@@@1@@ 1002021c     Lights.obj
 0002:00001230       ??_7?$CComObject@VCOPOSLights@@@ATL@@6B?$IObjectSafetyImpl@VCOPOSLights@@$02@1@@ 10020230     Lights.obj
 0002:00001248       ??_7?$CComObject@VCOPOSLights@@@ATL@@6B?$IPropertyNotifySinkCP@VCOPOSLights@@VCComDynamicUnkArray@ATL@@@1@@ 10020248     Lights.obj
 0002:00001268       ??_7?$CComObject@VCOPOSLights@@@ATL@@6B?$CProxy_IOPOSEvents@VCOPOSLights@@@@@ 10020268     Lights.obj
 0002:00001288       ??_C@_1O@GBFKGNEO@?$AAA?$AAT?$AAL?$AA?3?$AA?$CF?$AAp@ 10020288     Lights.obj
 0002:00001298       ??_C@_1BA@PICGEGJB@?$AAD?$AAI?$AAS?$AAP?$AAL?$AAA?$AAY@ 10020298     Lights.obj
 0002:000012a8       __GUID_9bfbbc02_eff1_101a_84ed_00aa00341d07 100202a8     Lights.obj
 0002:000012b8       ?_entries@?1??_GetEntries@?$CComEnum@UIEnumConnectionPoints@@$1?_GUID_b196b285_bab4_101a_b69c_00aa00341d07@@3U__s_GUID@@BPAUIConnectionPoint@@V?$_CopyInterface@UIConnectionPoint@@@ATL@@VCComSingleThreadModel@6@@ATL@@SGPBU_ATL_INTMAP_ENTRY@3@XZ@4QBU43@B 100202b8     Lights.obj
 0002:000012d0       __GUID_b196b284_bab4_101a_b69c_00aa00341d07 100202d0     Lights.obj
 0002:000012e0       __GUID_00020412_0000_0000_c000_000000000046 100202e0     Lights.obj
 0002:000012f0       __GUID_00020401_0000_0000_c000_000000000046 100202f0     Lights.obj
 0002:00001300       ??_7?$CComObject@V?$CComEnum@UIEnumConnections@@$1?_GUID_b196b287_bab4_101a_b69c_00aa00341d07@@3U__s_GUID@@BUtagCONNECTDATA@@V?$_Copy@UtagCONNECTDATA@@@ATL@@VCComSingleThreadModel@6@@ATL@@@ATL@@6B@ 10020300     Lights.obj
 0002:00001320       __GUID_55980ba0_35aa_11cf_b671_00aa004cd6d8 10020320     Lights.obj
 0002:00001330       __GUID_b196b28b_bab4_101a_b69c_00aa00341d07 10020330     Lights.obj
 0002:00001340       ?_entries@?1??_GetEntries@?$CComEnum@UIEnumConnections@@$1?_GUID_b196b287_bab4_101a_b69c_00aa00341d07@@3U__s_GUID@@BUtagCONNECTDATA@@V?$_Copy@UtagCONNECTDATA@@@ATL@@VCComSingleThreadModel@6@@ATL@@SGPBU_ATL_INTMAP_ENTRY@3@XZ@4QBU43@B 10020340     Lights.obj
 0002:00001358       ??_C@_0BG@EKFFMJIO@RegOpenKeyTransactedW@ 10020358     Lights.obj
 0002:00001370       ??_C@_0BI@HAKLOOGP@RegDeleteKeyTransactedW@ 10020370     Lights.obj
 0002:00001388       ??_C@_0BA@LILAPHGE@RegDeleteKeyExW@ 10020388     Lights.obj
 0002:00001398       ??_C@_19ILOCMLCJ@?$AA?4?$AAt?$AAl?$AAb@ 10020398     Lights.obj
 0002:000013a4       __GUID_0002e012_0000_0000_c000_000000000046 100203a4     Lights.obj
 0002:000013b4       ??_C@_1O@FHBGLCIO@?$AAC?$AAL?$AAS?$AAI?$AAD?$AA?2@ 100203b4     Lights.obj
 0002:000013c4       ??_C@_1CK@IFBKBFAA@?$AA?2?$AAR?$AAe?$AAq?$AAu?$AAi?$AAr?$AAe?$AAd?$AA?5?$AAC?$AAa?$AAt?$AAe?$AAg@ 100203c4     Lights.obj
 0002:000013f0       ??_C@_1DA@BIHALFED@?$AA?2?$AAI?$AAm?$AAp?$AAl?$AAe?$AAm?$AAe?$AAn?$AAt?$AAe?$AAd?$AA?5?$AAC?$AAa@ 100203f0     Lights.obj
 0002:00001420       ??_C@_1BK@EDKOLFBJ@?$AAO?$AAL?$AAE?$AAA?$AAU?$AAT?$AA3?$AA2?$AA?4?$AAD?$AAL?$AAL@ 10020420     Lights.obj
 0002:0000143c       ??_C@_0BJ@CNLFOMHB@UnRegisterTypeLibForUser@ 1002043c     Lights.obj
 0002:00001458       ??_C@_0BH@LBOMMKPJ@RegisterTypeLibForUser@ 10020458     Lights.obj
 0002:00001470       ??_C@_0P@MMNMMLGK@COFreezeEvents@ 10020470     LightsImpl.obj
 0002:00001480       ??_C@_0BC@OGCGGIMP@GetPropertyNumber@ 10020480     LightsImpl.obj
 0002:00001494       ??_C@_0BC@MDCNODNB@SetPropertyNumber@ 10020494     LightsImpl.obj
 0002:000014a8       ??_C@_0BC@CFCCMIMD@GetPropertyString@ 100204a8     LightsImpl.obj
 0002:000014bc       ??_C@_0BC@CJEDNN@SetPropertyString@ 100204bc     LightsImpl.obj
 0002:000014d0       ??_C@_0M@LNPKKKDA@OpenService@ 100204d0     LightsImpl.obj
 0002:000014dc       ??_C@_0M@PCMCHHMH@CheckHealth@ 100204dc     LightsImpl.obj
 0002:000014e8       ??_C@_0M@JGMIDNEK@ClaimDevice@ 100204e8     LightsImpl.obj
 0002:000014f4       ??_C@_0N@DDFIIBMP@CloseService@ 100204f4     LightsImpl.obj
 0002:00001504       ??_C@_08EEIHICPC@DirectIO@ 10020504     LightsImpl.obj
 0002:00001510       ??_C@_0O@BCPMENMJ@ReleaseDevice@ 10020510     LightsImpl.obj
 0002:00001520       ??_C@_0BA@GFABKEEE@ResetStatistics@ 10020520     LightsImpl.obj
 0002:00001530       ??_C@_0BD@DPALHJGC@RetrieveStatistics@ 10020530     LightsImpl.obj
 0002:00001544       ??_C@_0BB@KOHIKNFC@UpdateStatistics@ 10020544     LightsImpl.obj
 0002:00001558       ??_C@_0BH@PBKBNMGB@CompareFirmwareVersion@ 10020558     LightsImpl.obj
 0002:00001570       ??_C@_0P@FBPDPIPA@UpdateFirmware@ 10020570     LightsImpl.obj
 0002:00001580       ??_C@_09JGLPDJNG@SwitchOff@ 10020580     LightsImpl.obj
 0002:0000158c       ??_C@_08NKJJBGCP@SwitchOn@ 1002058c     LightsImpl.obj
 0002:00001598       ??_7?$CProxy_IOPOSEvents@VCOPOSLights@@@@6B@ 10020598     LightsImpl.obj
 0002:000015b8       ??_C@_1BA@IFHENID@?$AA?$FL?$AAE?$AAr?$AAr?$AAo?$AAr?$AA?$FN@ 100205b8     LightsImpl.obj
 0002:000015c8       ??_C@_0CJ@OKHPIBPI@SOFTWARE?2OLEforRetail?2ServiceOP@ 100205c8     LightsImpl.obj
 0002:000015f4       ??_C@_1M@IAIJHCCH@?$AAC?$AAl?$AAo?$AAs?$AAe@ 100205f4     LightsImpl.obj
 0002:00001600       ??_C@_1M@PCPKGJAH@?$AAC?$AAl?$AAa?$AAi?$AAm@ 10020600     LightsImpl.obj
 0002:0000160c       ??_C@_1BA@NDFKIOCP@?$AAR?$AAe?$AAl?$AAe?$AAa?$AAs?$AAe@ 1002060c     LightsImpl.obj
 0002:0000161c       ??_C@_06EMKJPPBG@Lights@   1002061c     LightsImpl.obj
 0002:00001624       ??_C@_1BM@IJMNMBPK@?$AAG?$AAe?$AAt?$AAO?$AAp?$AAe?$AAn?$AAR?$AAe?$AAs?$AAu?$AAl?$AAt@ 10020624     LightsImpl.obj
 0002:00001640       _IID_IPropertyNotifySink   10020640     uuid:ocidl_i.obj
 0002:00001650       _GUID_NULL                 10020650     uuid:cguid_i.obj
 0002:00001660       _CLSID_StdGlobalInterfaceTable 10020660     uuid:cguid_i.obj
 0002:00001670       _IID_IDispatch             10020670     uuid:oaidl_i.obj
 0002:00001680       _CLSID_StdComponentCategoriesMgr 10020680     uuid:ieguids.obj
 0002:00001690       _IID_IUnknown              10020690     uuid:unknwn_i.obj
 0002:000016a0       ??_C@_1EC@JIJBPKFM@?$AAa?$AAp?$AAi?$AA?9?$AAm?$AAs?$AA?9?$AAw?$AAi?$AAn?$AA?9?$AAc?$AAo?$AAr?$AAe@ 100206a0     LIBCMT:thread_safe_statics.obj
 0002:000016e4       ??_C@_1BK@MGMFAEKH@?$AAk?$AAe?$AAr?$AAn?$AAe?$AAl?$AA3?$AA2?$AA?4?$AAd?$AAl?$AAl@ 100206e4     LIBCMT:thread_safe_statics.obj
 0002:00001700       ??_C@_0BJ@JEBJOJFJ@SleepConditionVariableCS@ 10020700     LIBCMT:thread_safe_statics.obj
 0002:0000171c       ??_C@_0BJ@PGPPEPCC@WakeAllConditionVariable@ 1002071c     LIBCMT:thread_safe_statics.obj
 0002:00001735       ?nothrow@std@@3Unothrow_t@1@B 10020735     LIBCMT:std_nothrow.obj
 0002:00001740       __pDefaultRawDllMain       10020740     LIBCMT:dll_dllmain.obj
 0002:00001740       __pRawDllMain              10020740     LIBCMT:dll_dllmain.obj
 0002:00001748       ??_7exception@std@@6B@     10020748     LIBCMT:throw_bad_alloc.obj
 0002:00001750       ??_C@_0BC@EOODALEL@Unknown?5exception@ 10020750     LIBCMT:throw_bad_alloc.obj
 0002:00001768       ??_7bad_alloc@std@@6B@     10020768     LIBCMT:throw_bad_alloc.obj
 0002:00001770       ??_C@_0P@GHFPNOJB@bad?5allocation@ 10020770     LIBCMT:throw_bad_alloc.obj
 0002:00001784       ??_7bad_array_new_length@std@@6B@ 10020784     LIBCMT:throw_bad_alloc.obj
 0002:0000178c       ??_C@_0BF@KINCDENJ@bad?5array?5new?5length@ 1002078c     LIBCMT:throw_bad_alloc.obj
 0002:000017a8       ??_7type_info@@6B@         100207a8     LIBCMT:std_type_info_static.obj
 0002:000017ac       _GUID_ATLVer110            100207ac     atls:atlbase.obj
 0002:000017c0       ??_C@_1IC@ONKHOIDK@?$AAE?$AAR?$AAR?$AAO?$AAR?$AA?5?$AA?3?$AA?5?$AAU?$AAn?$AAa?$AAb?$AAl?$AAe?$AA?5@ 100207c0     atls:atlbase.obj
 0002:00001844       ??_C@_0N@FJEPLCIH@atlthunk?4dll@ 10020844     atls:atlthunk.obj
 0002:00001854       ??_C@_0BG@GAKFHCBM@AtlThunk_AllocateData@ 10020854     atls:atlthunk.obj
 0002:0000186c       ??_C@_0BC@JKONFIAH@AtlThunk_InitData@ 1002086c     atls:atlthunk.obj
 0002:00001880       ??_C@_0BE@IAOEELAK@AtlThunk_DataToCode@ 10020880     atls:atlthunk.obj
 0002:00001894       ??_C@_0BC@GBGKAIPI@AtlThunk_FreeData@ 10020894     atls:atlthunk.obj
 0002:000018a8       __pDestructExceptionObject 100208a8     libvcruntime:ehhelpers.obj
 0002:000018b0       ??_7bad_exception@std@@6B@ 100208b0     libvcruntime:frame.obj
 0002:000018b8       ??_C@_0O@DPKOEFFH@bad?5exception@ 100208b8     libvcruntime:frame.obj
 0002:00001c48       ??_C@_08EHJDFFNH@__based?$CI@ 10020c48     libvcruntime:undname.obj
 0002:00001c54       ??_C@_07KOLFKCDI@__cdecl@  10020c54     libvcruntime:undname.obj
 0002:00001c5c       ??_C@_08GHMPAG@__pascal@   10020c5c     libvcruntime:undname.obj
 0002:00001c68       ??_C@_09IFJBGAPI@__stdcall@ 10020c68     libvcruntime:undname.obj
 0002:00001c74       ??_C@_0L@NPHFGOKO@__thiscall@ 10020c74     libvcruntime:undname.obj
 0002:00001c80       ??_C@_0L@JMKHOMEK@__fastcall@ 10020c80     libvcruntime:undname.obj
 0002:00001c8c       ??_C@_0N@BCKKPABJ@__vectorcall@ 10020c8c     libvcruntime:undname.obj
 0002:00001c9c       ??_C@_09HIJEGCPM@__clrcall@ 10020c9c     libvcruntime:undname.obj
 0002:00001ca8       ??_C@_06GHPCKEAG@__eabi@   10020ca8     libvcruntime:undname.obj
 0002:00001cb0       ??_C@_09IOPIDJLG@__swift_1@ 10020cb0     libvcruntime:undname.obj
 0002:00001cbc       ??_C@_09KFNFGKHF@__swift_2@ 10020cbc     libvcruntime:undname.obj
 0002:00001cc8       ??_C@_07JOMMBBKO@__ptr64@  10020cc8     libvcruntime:undname.obj
 0002:00001cd0       ??_C@_0L@PILCLIHE@__restrict@ 10020cd0     libvcruntime:undname.obj
 0002:00001cdc       ??_C@_0M@GFIIJFMG@__unaligned@ 10020cdc     libvcruntime:undname.obj
 0002:00001ce8       ??_C@_09DHDLOLLB@restrict?$CI@ 10020ce8     libvcruntime:undname.obj
 0002:00001cf2       ??_C@_00CNPNBAHC@@         10020cf2     libvcruntime:undname.obj
 0002:00001cf4       ??_C@_04NIHEBCM@?5new@     10020cf4     libvcruntime:undname.obj
 0002:00001cfc       ??_C@_07FPCDHGMM@?5delete@ 10020cfc     libvcruntime:undname.obj
 0002:00001d04       ??_C@_01NEMOKFLO@?$DN@     10020d04     libvcruntime:undname.obj
 0002:00001d08       ??_C@_02GPIOPFAK@?$DO?$DO@ 10020d08     libvcruntime:undname.obj
 0002:00001d0c       ??_C@_02FODMEDOG@?$DM?$DM@ 10020d0c     libvcruntime:undname.obj
 0002:00001d10       ??_C@_01DCLJPIOD@?$CB@     10020d10     libvcruntime:undname.obj
 0002:00001d14       ??_C@_02EGOFBIJA@?$DN?$DN@ 10020d14     libvcruntime:undname.obj
 0002:00001d18       ??_C@_02FDNJECIE@?$CB?$DN@ 10020d18     libvcruntime:undname.obj
 0002:00001d1c       ??_C@_02GPECMEKF@?$FL?$FN@ 10020d1c     libvcruntime:undname.obj
 0002:00001d20       ??_C@_08LHJFAFGD@operator@ 10020d20     libvcruntime:undname.obj
 0002:00001d2c       ??_C@_02HBOOOICD@?9?$DO@   10020d2c     libvcruntime:undname.obj
 0002:00001d30       ??_C@_01NBENCBCI@?$CK@     10020d30     libvcruntime:undname.obj
 0002:00001d34       ??_C@_02ECNGHCIF@?$CL?$CL@ 10020d34     libvcruntime:undname.obj
 0002:00001d38       ??_C@_02BAABKJLB@?9?9@     10020d38     libvcruntime:undname.obj
 0002:00001d3c       ??_C@_01JOAMLHOP@?9@       10020d3c     libvcruntime:undname.obj
 0002:00001d40       ??_C@_01MIFGBAGJ@?$CL@     10020d40     libvcruntime:undname.obj
 0002:00001d44       ??_C@_01HNPIGOCE@?$CG@     10020d44     libvcruntime:undname.obj
 0002:00001d48       ??_C@_03MNHNFDLC@?9?$DO?$CK@ 10020d48     libvcruntime:undname.obj
 0002:00001d4c       ??_C@_01KMDKNFGN@?1@       10020d4c     libvcruntime:undname.obj
 0002:00001d50       ??_C@_01FGNFDNOH@?$CF@     10020d50     libvcruntime:undname.obj
 0002:00001d54       ??_C@_01MNNFJEPP@?$DM@     10020d54     libvcruntime:undname.obj
 0002:00001d58       ??_C@_02EHCHHCKH@?$DM?$DN@ 10020d58     libvcruntime:undname.obj
 0002:00001d5c       ??_C@_01PPODPGHN@?$DO@     10020d5c     libvcruntime:undname.obj
 0002:00001d60       ??_C@_02EEKDKGMJ@?$DO?$DN@ 10020d60     libvcruntime:undname.obj
 0002:00001d64       ??_C@_01IHBHIGKO@?0@       10020d64     libvcruntime:undname.obj
 0002:00001d68       ??_C@_02HCKGKOFO@?$CI?$CJ@ 10020d68     libvcruntime:undname.obj
 0002:00001d6c       ??_C@_01PJKLJHI@?$HO@      10020d6c     libvcruntime:undname.obj
 0002:00001d70       ??_C@_01JKBOJNNK@?$FO@     10020d70     libvcruntime:undname.obj
 0002:00001d74       ??_C@_01DNKMNLPK@?$HM@     10020d74     libvcruntime:undname.obj
 0002:00001d78       ??_C@_02PPKAJPJL@?$CG?$CG@ 10020d78     libvcruntime:undname.obj
 0002:00001d7c       ??_C@_02NONPIBCD@?$HM?$HM@ 10020d7c     libvcruntime:undname.obj
 0002:00001d80       ??_C@_02FPIMKNGF@?$CK?$DN@ 10020d80     libvcruntime:undname.obj
 0002:00001d84       ??_C@_02FOEOMHFC@?$CL?$DN@ 10020d84     libvcruntime:undname.obj
 0002:00001d88       ??_C@_02FKMDLLOA@?9?$DN@   10020d88     libvcruntime:undname.obj
 0002:00001d8c       ??_C@_02FJEHGPIO@?1?$DN@   10020d8c     libvcruntime:undname.obj
 0002:00001d90       ??_C@_02FENAOKFI@?$CF?$DN@ 10020d90     libvcruntime:undname.obj
 0002:00001d94       ??_C@_03IKFCCPFF@?$DO?$DO?$DN@ 10020d94     libvcruntime:undname.obj
 0002:00001d98       ??_C@_03CDNPDDLA@?$DM?$DM?$DN@ 10020d98     libvcruntime:undname.obj
 0002:00001d9c       ??_C@_02FGJGFEAB@?$CG?$DN@ 10020d9c     libvcruntime:undname.obj
 0002:00001da0       ??_C@_02DHLNPPGH@?$HM?$DN@ 10020da0     libvcruntime:undname.obj
 0002:00001da4       ??_C@_02MHEGNOJ@?$FO?$DN@  10020da4     libvcruntime:undname.obj
 0002:00001da8       ??_C@_09IFPLHPGF@?$GAvftable?8@ 10020da8     libvcruntime:undname.obj
 0002:00001db4       ??_C@_09BLBHBJP@?$GAvbtable?8@ 10020db4     libvcruntime:undname.obj
 0002:00001dc0       ??_C@_07FEEIOKP@?$GAvcall?8@ 10020dc0     libvcruntime:undname.obj
 0002:00001dc8       ??_C@_08LLFFHHDJ@?$GAtypeof?8@ 10020dc8     libvcruntime:undname.obj
 0002:00001dd4       ??_C@_0BF@KDPPACIK@?$GAlocal?5static?5guard?8@ 10020dd4     libvcruntime:undname.obj
 0002:00001dec       ??_C@_08OBABFOLI@?$GAstring?8@ 10020dec     libvcruntime:undname.obj
 0002:00001df8       ??_C@_0BD@JDLKDPAB@?$GAvbase?5destructor?8@ 10020df8     libvcruntime:undname.obj
 0002:00001e0c       ??_C@_0BN@DEGPLNFK@?$GAvector?5deleting?5destructor?8@ 10020e0c     libvcruntime:undname.obj
 0002:00001e2c       ??_C@_0BO@OBMKPJIG@?$GAdefault?5constructor?5closure?8@ 10020e2c     libvcruntime:undname.obj
 0002:00001e4c       ??_C@_0BN@IMDCHIKM@?$GAscalar?5deleting?5destructor?8@ 10020e4c     libvcruntime:undname.obj
 0002:00001e6c       ??_C@_0BO@PFGOCPJJ@?$GAvector?5constructor?5iterator?8@ 10020e6c     libvcruntime:undname.obj
 0002:00001e8c       ??_C@_0BN@LFPFMEDL@?$GAvector?5destructor?5iterator?8@ 10020e8c     libvcruntime:undname.obj
 0002:00001eac       ??_C@_0CE@IKBNEHA@?$GAvector?5vbase?5constructor?5itera@ 10020eac     libvcruntime:undname.obj
 0002:00001ed0       ??_C@_0BL@NILFHHPC@?$GAvirtual?5displacement?5map?8@ 10020ed0     libvcruntime:undname.obj
 0002:00001eec       ??_C@_0CB@JONCMFFK@?$GAeh?5vector?5constructor?5iterator@ 10020eec     libvcruntime:undname.obj
 0002:00001f10       ??_C@_0CA@GCEOPDGL@?$GAeh?5vector?5destructor?5iterator?8@ 10020f10     libvcruntime:undname.obj
 0002:00001f30       ??_C@_0CH@OOJPLCPH@?$GAeh?5vector?5vbase?5constructor?5it@ 10020f30     libvcruntime:undname.obj
 0002:00001f58       ??_C@_0BL@LLKPOHJI@?$GAcopy?5constructor?5closure?8@ 10020f58     libvcruntime:undname.obj
 0002:00001f74       ??_C@_0BA@KBCDOMBN@?$GAudt?5returning?8@ 10020f74     libvcruntime:undname.obj
 0002:00001f84       ??_C@_03KLGMFNMG@?$GAEH@   10020f84     libvcruntime:undname.obj
 0002:00001f88       ??_C@_05KHLCHHI@?$GARTTI@  10020f88     libvcruntime:undname.obj
 0002:00001f90       ??_C@_0BA@KKLDJDLB@?$GAlocal?5vftable?8@ 10020f90     libvcruntime:undname.obj
 0002:00001fa0       ??_C@_0CE@IIHCMGGL@?$GAlocal?5vftable?5constructor?5clos@ 10020fa0     libvcruntime:undname.obj
 0002:00001fc4       ??_C@_06FHBGPFGH@?5new?$FL?$FN@ 10020fc4     libvcruntime:undname.obj
 0002:00001fcc       ??_C@_09LBNFPBCA@?5delete?$FL?$FN@ 10020fcc     libvcruntime:undname.obj
 0002:00001fd8       ??_C@_0P@HJKNJFNN@?$GAomni?5callsig?8@ 10020fd8     libvcruntime:undname.obj
 0002:00001fe8       ??_C@_0BL@CNOONJFP@?$GAplacement?5delete?5closure?8@ 10020fe8     libvcruntime:undname.obj
 0002:00002004       ??_C@_0BN@CKNJLHMB@?$GAplacement?5delete?$FL?$FN?5closure?8@ 10021004     libvcruntime:undname.obj
 0002:00002024       ??_C@_0CG@CFDHKGGD@?$GAmanaged?5vector?5constructor?5ite@ 10021024     libvcruntime:undname.obj
 0002:0000204c       ??_C@_0CF@IMGKMJNO@?$GAmanaged?5vector?5destructor?5iter@ 1002104c     libvcruntime:undname.obj
 0002:00002074       ??_C@_0CG@HLDDJMAG@?$GAeh?5vector?5copy?5constructor?5ite@ 10021074     libvcruntime:undname.obj
 0002:0000209c       ??_C@_0CM@FCBBDIGB@?$GAeh?5vector?5vbase?5copy?5construct@ 1002109c     libvcruntime:undname.obj
 0002:000020c8       ??_C@_0BL@CLIPGLGB@?$GAdynamic?5initializer?5for?5?8@ 100210c8     libvcruntime:undname.obj
 0002:000020e4       ??_C@_0CB@PDBIFEP@?$GAdynamic?5atexit?5destructor?5for?5@ 100210e4     libvcruntime:undname.obj
 0002:00002108       ??_C@_0CD@CGAJBKEJ@?$GAvector?5copy?5constructor?5iterat@ 10021108     libvcruntime:undname.obj
 0002:0000212c       ??_C@_0CJ@GJELGAMM@?$GAvector?5vbase?5copy?5constructor?5@ 1002112c     libvcruntime:undname.obj
 0002:00002158       ??_C@_0CL@FGIJHLCE@?$GAmanaged?5vector?5copy?5constructo@ 10021158     libvcruntime:undname.obj
 0002:00002184       ??_C@_0BM@PMGGMLDN@?$GAlocal?5static?5thread?5guard?8@ 10021184     libvcruntime:undname.obj
 0002:000021a0       ??_C@_0N@BDNMDMOL@operator?5?$CC?$CC?5@ 100211a0     libvcruntime:undname.obj
 0002:000021b0       ??_C@_0BC@GGEBGALA@operator?5co_await@ 100211b0     libvcruntime:undname.obj
 0002:000021c4       ??_C@_0M@GAAIMMOH@operator?$DM?$DN?$DO@ 100211c4     libvcruntime:undname.obj
 0002:000021d0       ??_C@_0BC@DAFEJGAK@?5Type?5Descriptor?8@ 100211d0     libvcruntime:undname.obj
 0002:000021e4       ??_C@_0BM@LDKODKLH@?5Base?5Class?5Descriptor?5at?5?$CI@ 100211e4     libvcruntime:undname.obj
 0002:00002200       ??_C@_0BD@LGICGFMM@?5Base?5Class?5Array?8@ 10021200     libvcruntime:undname.obj
 0002:00002214       ??_C@_0BN@MECKDCOJ@?5Class?5Hierarchy?5Descriptor?8@ 10021214     libvcruntime:undname.obj
 0002:00002234       ??_C@_0BK@CFCOFLF@?5Complete?5Object?5Locator?8@ 10021234     libvcruntime:undname.obj
 0002:00002250       ??_C@_0BG@JNJLAMPM@?$GAanonymous?5namespace?8@ 10021250     libvcruntime:undname.obj
 0002:00002274       ??_C@_1DM@KHCHBNEB@?$AAa?$AAp?$AAi?$AA?9?$AAm?$AAs?$AA?9?$AAw?$AAi?$AAn?$AA?9?$AAc?$AAo?$AAr?$AAe@ 10021274     libvcruntime:winapi_downlevel.obj
 0002:000022b0       ??_C@_1DK@LPPGFMPP@?$AAa?$AAp?$AAi?$AA?9?$AAm?$AAs?$AA?9?$AAw?$AAi?$AAn?$AA?9?$AAc?$AAo?$AAr?$AAe@ 100212b0     libvcruntime:winapi_downlevel.obj
 0002:000022ec       ??_C@_1BC@GDMECMAK@?$AAk?$AAe?$AAr?$AAn?$AAe?$AAl?$AA3?$AA2@ 100212ec     libvcruntime:winapi_downlevel.obj
 0002:00002300       ??_C@_1BA@PFFKHIOG@?$AAa?$AAp?$AAi?$AA?9?$AAm?$AAs?$AA?9@ 10021300     libvcruntime:winapi_downlevel.obj
 0002:00002318       ??_C@_08KNHFBNJ@FlsAlloc@  10021318     libvcruntime:winapi_downlevel.obj
 0002:0000232c       ??_C@_07PEJMOBNF@FlsFree@  1002132c     libvcruntime:winapi_downlevel.obj
 0002:0000233c       ??_C@_0M@GDNOONDI@FlsGetValue@ 1002133c     libvcruntime:winapi_downlevel.obj
 0002:00002350       ??_C@_0M@JCPCPOEF@FlsSetValue@ 10021350     libvcruntime:winapi_downlevel.obj
 0002:00002364       ??_C@_0BM@HCFOFFN@InitializeCriticalSectionEx@ 10021364     libvcruntime:winapi_downlevel.obj
 0002:000024e8       _format_validation_lookup_table 100214e8     libucrt:output.obj
 0002:00002544       ??_C@_1O@CEDCILHN@?$AA?$CI?$AAn?$AAu?$AAl?$AAl?$AA?$CJ@ 10021544     libucrt:output.obj
 0002:00002554       ??_C@_06OJHGLDPL@?$CInull?$CJ@ 10021554     libucrt:output.obj
 0002:00002560       ___acrt_exception_action_table 10021560     libucrt:exception_filter.obj
 0002:000025f0       ___acrt_signal_action_table_count 100215f0     libucrt:exception_filter.obj
 0002:000025f4       ___acrt_signal_action_first_fpe_index 100215f4     libucrt:exception_filter.obj
 0002:000025f8       ___acrt_signal_action_fpe_count 100215f8     libucrt:exception_filter.obj
 0002:000025fc       ??_C@_1BI@BGOHAHKC@?$AAm?$AAs?$AAc?$AAo?$AAr?$AAe?$AAe?$AA?4?$AAd?$AAl?$AAl@ 100215fc     libucrt:exit.obj
 0002:00002614       ??_C@_0P@MIGLKIOC@CorExitProcess@ 10021614     libucrt:exit.obj
 0002:000026f8       ??_C@_1EA@JGEFHKEI@?$AAa?$AAp?$AAi?$AA?9?$AAm?$AAs?$AA?9?$AAw?$AAi?$AAn?$AA?9?$AAc?$AAo?$AAr?$AAe@ 100216f8     libucrt:winapi_thunks.obj
 0002:00002738       ??_C@_1DI@IJCEHOCB@?$AAa?$AAp?$AAi?$AA?9?$AAm?$AAs?$AA?9?$AAw?$AAi?$AAn?$AA?9?$AAc?$AAo?$AAr?$AAe@ 10021738     libucrt:winapi_thunks.obj
 0002:00002770       ??_C@_1EI@MPIAOHOC@?$AAa?$AAp?$AAi?$AA?9?$AAm?$AAs?$AA?9?$AAw?$AAi?$AAn?$AA?9?$AAc?$AAo?$AAr?$AAe@ 10021770     libucrt:winapi_thunks.obj
 0002:000027b8       ??_C@_1FK@FPHCKFIE@?$AAa?$AAp?$AAi?$AA?9?$AAm?$AAs?$AA?9?$AAw?$AAi?$AAn?$AA?9?$AAc?$AAo?$AAr?$AAe@ 100217b8     libucrt:winapi_thunks.obj
 0002:00002818       ??_C@_1EM@DILCGIIO@?$AAa?$AAp?$AAi?$AA?9?$AAm?$AAs?$AA?9?$AAw?$AAi?$AAn?$AA?9?$AAc?$AAo?$AAr?$AAe@ 10021818     libucrt:winapi_thunks.obj
 0002:00002864       ??_C@_1DM@LNCGDDPN@?$AAa?$AAp?$AAi?$AA?9?$AAm?$AAs?$AA?9?$AAw?$AAi?$AAn?$AA?9?$AAc?$AAo?$AAr?$AAe@ 10021864     libucrt:winapi_thunks.obj
 0002:000028a0       ??_C@_1DO@FPAPJEMD@?$AAa?$AAp?$AAi?$AA?9?$AAm?$AAs?$AA?9?$AAw?$AAi?$AAn?$AA?9?$AAc?$AAo?$AAr?$AAe@ 100218a0     libucrt:winapi_thunks.obj
 0002:000028e0       ??_C@_1DK@NDHNAHIO@?$AAa?$AAp?$AAi?$AA?9?$AAm?$AAs?$AA?9?$AAw?$AAi?$AAn?$AA?9?$AAc?$AAo?$AAr?$AAe@ 100218e0     libucrt:winapi_thunks.obj
 0002:0000291c       ??_C@_1DM@KGHDGBCM@?$AAa?$AAp?$AAi?$AA?9?$AAm?$AAs?$AA?9?$AAw?$AAi?$AAn?$AA?9?$AAc?$AAo?$AAr?$AAe@ 1002191c     libucrt:winapi_thunks.obj
 0002:00002958       ??_C@_1EO@IJIOEFOH@?$AAa?$AAp?$AAi?$AA?9?$AAm?$AAs?$AA?9?$AAw?$AAi?$AAn?$AA?9?$AAr?$AAt?$AAc?$AAo@ 10021958     libucrt:winapi_thunks.obj
 0002:000029a8       ??_C@_1FG@HHGEKANL@?$AAa?$AAp?$AAi?$AA?9?$AAm?$AAs?$AA?9?$AAw?$AAi?$AAn?$AA?9?$AAs?$AAe?$AAc?$AAu@ 100219a8     libucrt:winapi_thunks.obj
 0002:00002a00       ??_C@_1EG@DBIOJECG@?$AAe?$AAx?$AAt?$AA?9?$AAm?$AAs?$AA?9?$AAw?$AAi?$AAn?$AA?9?$AAn?$AAt?$AAu?$AAs@ 10021a00     libucrt:winapi_thunks.obj
 0002:00002a48       ??_C@_1EO@FIHMJCLF@?$AAe?$AAx?$AAt?$AA?9?$AAm?$AAs?$AA?9?$AAw?$AAi?$AAn?$AA?9?$AAn?$AAt?$AAu?$AAs@ 10021a48     libucrt:winapi_thunks.obj
 0002:00002a98       ??_C@_1BC@DNHGCMLG@?$AAa?$AAd?$AAv?$AAa?$AAp?$AAi?$AA3?$AA2@ 10021a98     libucrt:winapi_thunks.obj
 0002:00002aac       ??_C@_1M@OAIMIKLP@?$AAn?$AAt?$AAd?$AAl?$AAl@ 10021aac     libucrt:winapi_thunks.obj
 0002:00002ab8       ??_C@_1EG@DPGNFKGC@?$AAa?$AAp?$AAi?$AA?9?$AAm?$AAs?$AA?9?$AAw?$AAi?$AAn?$AA?9?$AAa?$AAp?$AAp?$AAm@ 10021ab8     libucrt:winapi_thunks.obj
 0002:00002b00       ??_C@_1O@BCCLBEOE@?$AAu?$AAs?$AAe?$AAr?$AA3?$AA2@ 10021b00     libucrt:winapi_thunks.obj
 0002:00002b10       ??_C@_1BA@IAIFMGEF@?$AAe?$AAx?$AAt?$AA?9?$AAm?$AAs?$AA?9@ 10021b10     libucrt:winapi_thunks.obj
 0002:00002b24       ??_C@_0BA@FHFNEAED@AreFileApisANSI@ 10021b24     libucrt:winapi_thunks.obj
 0002:00002b64       ??_C@_0O@KKBNKAPF@LCMapStringEx@ 10021b64     libucrt:winapi_thunks.obj
 0002:00002b7c       ??_C@_0BB@HBDEELFH@LocaleNameToLCID@ 10021b7c     libucrt:winapi_thunks.obj
 0002:00002b94       ??_C@_0CF@OJOFEIGO@AppPolicyGetProcessTerminationM@ 10021b94     libucrt:winapi_thunks.obj
 0002:00002bc4       ??_C@_0BI@BKLFFAPO@SetThreadStackGuarantee@ 10021bc4     libucrt:winapi_thunks.obj
 0002:00002c20       ??_C@_03OEIAHPBN@INF@      10021c20     libucrt:cvt.obj
 0002:00002c24       ??_C@_03OJHLLCGB@inf@      10021c24     libucrt:cvt.obj
 0002:00002c28       ??_C@_03LKNCIKJB@NAN@      10021c28     libucrt:cvt.obj
 0002:00002c2c       ??_C@_03LHCJEHON@nan@      10021c2c     libucrt:cvt.obj
 0002:00002c30       ??_C@_09OFJJIMPC@NAN?$CISNAN?$CJ@ 10021c30     libucrt:cvt.obj
 0002:00002c3c       ??_C@_09IPFBKMDL@nan?$CIsnan?$CJ@ 10021c3c     libucrt:cvt.obj
 0002:00002c48       ??_C@_08IKHNHAJ@NAN?$CIIND?$CJ@ 10021c48     libucrt:cvt.obj
 0002:00002c54       ??_C@_08OFCDMILK@nan?$CIind?$CJ@ 10021c54     libucrt:cvt.obj
 0002:00002c60       ??_C@_05KLBDPFGC@e?$CL000@ 10021c60     libucrt:cvt.obj
 0002:00002c68       ___lc_time_c               10021c68     libucrt:nlsdata.obj
 0002:00002dcc       ??_C@_03KOEHGMDN@Sun@      10021dcc     libucrt:nlsdata.obj
 0002:00002dd0       ??_C@_03PDAGKDH@Mon@       10021dd0     libucrt:nlsdata.obj
 0002:00002dd4       ??_C@_03NAGEINEP@Tue@      10021dd4     libucrt:nlsdata.obj
 0002:00002dd8       ??_C@_03MHOMLAJA@Wed@      10021dd8     libucrt:nlsdata.obj
 0002:00002ddc       ??_C@_03IOFIKPDN@Thu@      10021ddc     libucrt:nlsdata.obj
 0002:00002de0       ??_C@_03IDIOELNC@Fri@      10021de0     libucrt:nlsdata.obj
 0002:00002de4       ??_C@_03FEFJNEK@Sat@       10021de4     libucrt:nlsdata.obj
 0002:00002de8       ??_C@_06OOPIFAJ@Sunday@    10021de8     libucrt:nlsdata.obj
 0002:00002df0       ??_C@_06JLEDEDGH@Monday@   10021df0     libucrt:nlsdata.obj
 0002:00002df8       ??_C@_07BAAGCFCM@Tuesday@  10021df8     libucrt:nlsdata.obj
 0002:00002e00       ??_C@_09DLIGFAKA@Wednesday@ 10021e00     libucrt:nlsdata.obj
 0002:00002e0c       ??_C@_08HACCIKIA@Thursday@ 10021e0c     libucrt:nlsdata.obj
 0002:00002e18       ??_C@_06JECMNKMI@Friday@   10021e18     libucrt:nlsdata.obj
 0002:00002e20       ??_C@_08INBOOONO@Saturday@ 10021e20     libucrt:nlsdata.obj
 0002:00002e2c       ??_C@_03JIHJHPIE@Jan@      10021e2c     libucrt:nlsdata.obj
 0002:00002e30       ??_C@_03HJBDCHOM@Feb@      10021e30     libucrt:nlsdata.obj
 0002:00002e34       ??_C@_03ODNJBKGA@Mar@      10021e34     libucrt:nlsdata.obj
 0002:00002e38       ??_C@_03LEOLGMJP@Apr@      10021e38     libucrt:nlsdata.obj
 0002:00002e3c       ??_C@_03CNMDKL@May@        10021e3c     libucrt:nlsdata.obj
 0002:00002e40       ??_C@_03IDFGHECI@Jun@      10021e40     libucrt:nlsdata.obj
 0002:00002e44       ??_C@_03LBGABGKK@Jul@      10021e44     libucrt:nlsdata.obj
 0002:00002e48       ??_C@_03IFJFEIGA@Aug@      10021e48     libucrt:nlsdata.obj
 0002:00002e4c       ??_C@_03GGCAPAJC@Sep@      10021e4c     libucrt:nlsdata.obj
 0002:00002e50       ??_C@_03BMAOKBAD@Oct@      10021e50     libucrt:nlsdata.obj
 0002:00002e54       ??_C@_03JPJOFNIA@Nov@      10021e54     libucrt:nlsdata.obj
 0002:00002e58       ??_C@_03MKABNOCG@Dec@      10021e58     libucrt:nlsdata.obj
 0002:00002e5c       ??_C@_07CGJPFGJA@January@  10021e5c     libucrt:nlsdata.obj
 0002:00002e64       ??_C@_08GNJGEPFN@February@ 10021e64     libucrt:nlsdata.obj
 0002:00002e70       ??_C@_05HPCKOFNC@March@    10021e70     libucrt:nlsdata.obj
 0002:00002e78       ??_C@_05DMJDNLEJ@April@    10021e78     libucrt:nlsdata.obj
 0002:00002e80       ??_C@_04CNLMGBGM@June@     10021e80     libucrt:nlsdata.obj
 0002:00002e88       ??_C@_04MIEPOIFP@July@     10021e88     libucrt:nlsdata.obj
 0002:00002e90       ??_C@_06LBBHFDDG@August@   10021e90     libucrt:nlsdata.obj
 0002:00002e98       ??_C@_09BHHEALKD@September@ 10021e98     libucrt:nlsdata.obj
 0002:00002ea4       ??_C@_07JJNFCEND@October@  10021ea4     libucrt:nlsdata.obj
 0002:00002eac       ??_C@_08HCHEGEOA@November@ 10021eac     libucrt:nlsdata.obj
 0002:00002eb8       ??_C@_08EDHMEBNP@December@ 10021eb8     libucrt:nlsdata.obj
 0002:00002ec4       ??_C@_02DEDBPAFC@AM@       10021ec4     libucrt:nlsdata.obj
 0002:00002ec8       ??_C@_02CJNFDJBF@PM@       10021ec8     libucrt:nlsdata.obj
 0002:00002ecc       ??_C@_08BPBNCDIB@MM?1dd?1yy@ 10021ecc     libucrt:nlsdata.obj
 0002:00002ed8       ??_C@_0BE@CKGJFCPC@dddd?0?5MMMM?5dd?0?5yyyy@ 10021ed8     libucrt:nlsdata.obj
 0002:00002eec       ??_C@_08JCCMCCIL@HH?3mm?3ss@ 10021eec     libucrt:nlsdata.obj
 0002:00002ef8       ??_C@_17MBGCMIPB@?$AAS?$AAu?$AAn@ 10021ef8     libucrt:nlsdata.obj
 0002:00002f00       ??_C@_17KBOMKBF@?$AAM?$AAo?$AAn@ 10021f00     libucrt:nlsdata.obj
 0002:00002f08       ??_C@_17BMKGEGOJ@?$AAT?$AAu?$AAe@ 10021f08     libucrt:nlsdata.obj
 0002:00002f10       ??_C@_17CJEDCEPE@?$AAW?$AAe?$AAd@ 10021f10     libucrt:nlsdata.obj
 0002:00002f18       ??_C@_17PDPHAADD@?$AAT?$AAh?$AAu@ 10021f18     libucrt:nlsdata.obj
 0002:00002f20       ??_C@_17HFOLPPLP@?$AAF?$AAr?$AAi@ 10021f20     libucrt:nlsdata.obj
 0002:00002f28       ??_C@_17GGIBDPIH@?$AAS?$AAa?$AAt@ 10021f28     libucrt:nlsdata.obj
 0002:00002f30       ??_C@_1O@IHNHDHPB@?$AAS?$AAu?$AAn?$AAd?$AAa?$AAy@ 10021f30     libucrt:nlsdata.obj
 0002:00002f40       ??_C@_1O@MMNBFLIA@?$AAM?$AAo?$AAn?$AAd?$AAa?$AAy@ 10021f40     libucrt:nlsdata.obj
 0002:00002f50       ??_C@_1BA@ENFBFFEK@?$AAT?$AAu?$AAe?$AAs?$AAd?$AAa?$AAy@ 10021f50     libucrt:nlsdata.obj
 0002:00002f60       ??_C@_1BE@EBOGMDOH@?$AAW?$AAe?$AAd?$AAn?$AAe?$AAs?$AAd?$AAa?$AAy@ 10021f60     libucrt:nlsdata.obj
 0002:00002f74       ??_C@_1BC@HHMNLIHE@?$AAT?$AAh?$AAu?$AAr?$AAs?$AAd?$AAa?$AAy@ 10021f74     libucrt:nlsdata.obj
 0002:00002f88       ??_C@_1O@PDICJHAG@?$AAF?$AAr?$AAi?$AAd?$AAa?$AAy@ 10021f88     libucrt:nlsdata.obj
 0002:00002f98       ??_C@_1BC@ENMNNPAJ@?$AAS?$AAa?$AAt?$AAu?$AAr?$AAd?$AAa?$AAy@ 10021f98     libucrt:nlsdata.obj
 0002:00002fac       ??_C@_17DKNBKCHM@?$AAJ?$AAa?$AAn@ 10021fac     libucrt:nlsdata.obj
 0002:00002fb4       ??_C@_17LMDJEKJN@?$AAF?$AAe?$AAb@ 10021fb4     libucrt:nlsdata.obj
 0002:00002fbc       ??_C@_17CKNLEDEC@?$AAM?$AAa?$AAr@ 10021fbc     libucrt:nlsdata.obj
 0002:00002fc4       ??_C@_17LFPOIHDD@?$AAA?$AAp?$AAr@ 10021fc4     libucrt:nlsdata.obj
 0002:00002fcc       ??_C@_17PNNKMEED@?$AAM?$AAa?$AAy@ 10021fcc     libucrt:nlsdata.obj
 0002:00002fd4       ??_C@_17KCJGOCPB@?$AAJ?$AAu?$AAn@ 10021fd4     libucrt:nlsdata.obj
 0002:00002fdc       ??_C@_17IJPCKHK@?$AAJ?$AAu?$AAl@ 10021fdc     libucrt:nlsdata.obj
 0002:00002fe4       ??_C@_17ICPELBCN@?$AAA?$AAu?$AAg@ 10021fe4     libucrt:nlsdata.obj
 0002:00002fec       ??_C@_17HCHCOKMG@?$AAS?$AAe?$AAp@ 10021fec     libucrt:nlsdata.obj
 0002:00002ff4       ??_C@_17FNLKOI@?$AAO?$AAc?$AAt@ 10021ff4     libucrt:nlsdata.obj
 0002:00002ffc       ??_C@_17BBDMLCIG@?$AAN?$AAo?$AAv@ 10021ffc     libucrt:nlsdata.obj
 0002:00003004       ??_C@_17EGKACKIF@?$AAD?$AAe?$AAc@ 10022004     libucrt:nlsdata.obj
 0002:0000300c       ??_C@_1BA@EFMEIEBA@?$AAJ?$AAa?$AAn?$AAu?$AAa?$AAr?$AAy@ 1002200c     libucrt:nlsdata.obj
 0002:0000301c       ??_C@_1BC@JGDDFFAM@?$AAF?$AAe?$AAb?$AAr?$AAu?$AAa?$AAr?$AAy@ 1002201c     libucrt:nlsdata.obj
 0002:00003030       ??_C@_1M@IKEENEDF@?$AAM?$AAa?$AAr?$AAc?$AAh@ 10022030     libucrt:nlsdata.obj
 0002:0000303c       ??_C@_1M@GJNLMHFD@?$AAA?$AAp?$AAr?$AAi?$AAl@ 1002203c     libucrt:nlsdata.obj
 0002:00003048       ??_C@_19EPFLPGAP@?$AAJ?$AAu?$AAn?$AAe@ 10022048     libucrt:nlsdata.obj
 0002:00003054       ??_C@_19BIFMLPCD@?$AAJ?$AAu?$AAl?$AAy@ 10022054     libucrt:nlsdata.obj
 0002:00003060       ??_C@_1O@PAHLKOAC@?$AAA?$AAu?$AAg?$AAu?$AAs?$AAt@ 10022060     libucrt:nlsdata.obj
 0002:00003070       ??_C@_1BE@DKAAMBJL@?$AAS?$AAe?$AAp?$AAt?$AAe?$AAm?$AAb?$AAe?$AAr@ 10022070     libucrt:nlsdata.obj
 0002:00003084       ??_C@_1BA@EPANDLNG@?$AAO?$AAc?$AAt?$AAo?$AAb?$AAe?$AAr@ 10022084     libucrt:nlsdata.obj
 0002:00003094       ??_C@_1BC@BGLIFPF@?$AAN?$AAo?$AAv?$AAe?$AAm?$AAb?$AAe?$AAr@ 10022094     libucrt:nlsdata.obj
 0002:000030a8       ??_C@_1BC@FEMKIFH@?$AAD?$AAe?$AAc?$AAe?$AAm?$AAb?$AAe?$AAr@ 100220a8     libucrt:nlsdata.obj
 0002:000030bc       ??_C@_15ODEHAHHF@?$AAA?$AAM@ 100220bc     libucrt:nlsdata.obj
 0002:000030c4       ??_C@_15CLMNNGEL@?$AAP?$AAM@ 100220c4     libucrt:nlsdata.obj
 0002:000030cc       ??_C@_1BC@IEBCMHCM@?$AAM?$AAM?$AA?1?$AAd?$AAd?$AA?1?$AAy?$AAy@ 100220cc     libucrt:nlsdata.obj
 0002:000030e0       ??_C@_1CI@KNAKOEBC@?$AAd?$AAd?$AAd?$AAd?$AA?0?$AA?5?$AAM?$AAM?$AAM?$AAM?$AA?5?$AAd?$AAd?$AA?0?$AA?5@ 100220e0     libucrt:nlsdata.obj
 0002:00003108       ??_C@_1BC@GDGBMEMK@?$AAH?$AAH?$AA?3?$AAm?$AAm?$AA?3?$AAs?$AAs@ 10022108     libucrt:nlsdata.obj
 0002:0000311c       ??_C@_1M@BMHNFIME@?$AAe?$AAn?$AA?9?$AAU?$AAS@ 1002211c     libucrt:nlsdata.obj
 0002:00003138       ??_C@_1M@HPNHIDJI@?$AAj?$AAa?$AA?9?$AAJ?$AAP@ 10022138     libucrt:mbctype.obj
 0002:00003144       ??_C@_1M@BIBDDEMK@?$AAz?$AAh?$AA?9?$AAC?$AAN@ 10022144     libucrt:mbctype.obj
 0002:00003150       ??_C@_1M@JLOOOEGK@?$AAk?$AAo?$AA?9?$AAK?$AAR@ 10022150     libucrt:mbctype.obj
 0002:0000315c       ??_C@_1M@CLNBBOPM@?$AAz?$AAh?$AA?9?$AAT?$AAW@ 1002215c     libucrt:mbctype.obj
 0002:00003168       ___newctype                10022168     libucrt:ctype.obj
 0002:00003468       ___newclmap                10022468     libucrt:ctype.obj
 0002:000035e8       ___newcumap                100225e8     libucrt:ctype.obj
 0002:00003768       __wctype                   10022768     libucrt:ctype.obj
 0002:00004090       ??_C@_15EMKDOKLE@?$AAa?$AAr@ 10023090     libucrt:lcidtoname_downlevel.obj
 0002:00004098       ??_C@_15KNPADPLH@?$AAb?$AAg@ 10023098     libucrt:lcidtoname_downlevel.obj
 0002:000040a0       ??_C@_15EDMHLDMO@?$AAc?$AAa@ 100230a0     libucrt:lcidtoname_downlevel.obj
 0002:000040a8       ??_C@_1O@BPEAJADD@?$AAz?$AAh?$AA?9?$AAC?$AAH?$AAS@ 100230a8     libucrt:lcidtoname_downlevel.obj
 0002:000040b8       ??_C@_15LJNHCMNK@?$AAc?$AAs@ 100230b8     libucrt:lcidtoname_downlevel.obj
 0002:000040c0       ??_C@_15FOMCIDHG@?$AAd?$AAa@ 100230c0     libucrt:lcidtoname_downlevel.obj
 0002:000040c8       ??_C@_15NBKABECB@?$AAd?$AAe@ 100230c8     libucrt:lcidtoname_downlevel.obj
 0002:000040d0       ??_C@_15GHPEIIAO@?$AAe?$AAl@ 100230d0     libucrt:lcidtoname_downlevel.obj
 0002:000040d8       ??_C@_15MNPNEAIF@?$AAe?$AAn@ 100230d8     libucrt:lcidtoname_downlevel.obj
 0002:000040e0       ??_C@_15GPIOMPMH@?$AAe?$AAs@ 100230e0     libucrt:lcidtoname_downlevel.obj
 0002:000040e8       ??_C@_15NGLOAKJC@?$AAf?$AAi@ 100230e8     libucrt:lcidtoname_downlevel.obj
 0002:000040f0       ??_C@_15FBKGNKAM@?$AAf?$AAr@ 100230f0     libucrt:lcidtoname_downlevel.obj
 0002:000040f8       ??_C@_15KGGCNEFK@?$AAh?$AAe@ 100230f8     libucrt:lcidtoname_downlevel.obj
 0002:00004100       ??_C@_15PGHLIDMF@?$AAh?$AAu@ 10023100     libucrt:lcidtoname_downlevel.obj
 0002:00004108       ??_C@_15BIEMAPLM@?$AAi?$AAs@ 10023108     libucrt:lcidtoname_downlevel.obj
 0002:00004110       ??_C@_15IFJLDHAF@?$AAi?$AAt@ 10023110     libucrt:lcidtoname_downlevel.obj
 0002:00004118       ??_C@_15GEMIOCAG@?$AAj?$AAa@ 10023118     libucrt:lcidtoname_downlevel.obj
 0002:00004120       ??_C@_15EPELEGJA@?$AAk?$AAo@ 10023120     libucrt:lcidtoname_downlevel.obj
 0002:00004128       ??_C@_15NDDHIMN@?$AAn?$AAl@ 10023128     libucrt:lcidtoname_downlevel.obj
 0002:00004130       ??_C@_15BPIGNHCD@?$AAn?$AAo@ 10023130     libucrt:lcidtoname_downlevel.obj
 0002:00004138       ??_C@_15DEOPBLCG@?$AAp?$AAl@ 10023138     libucrt:lcidtoname_downlevel.obj
 0002:00004140       ??_C@_15KBECGEFG@?$AAp?$AAt@ 10023140     libucrt:lcidtoname_downlevel.obj
 0002:00004148       ??_C@_15GLJCBFMD@?$AAr?$AAo@ 10023148     libucrt:lcidtoname_downlevel.obj
 0002:00004150       ??_C@_15FEDGKCDI@?$AAr?$AAu@ 10023150     libucrt:lcidtoname_downlevel.obj
 0002:00004158       ??_C@_15GLKMLLHM@?$AAh?$AAr@ 10023158     libucrt:lcidtoname_downlevel.obj
 0002:00004160       ??_C@_15CPKMFBDB@?$AAs?$AAk@ 10023160     libucrt:lcidtoname_downlevel.obj
 0002:00004168       ??_C@_15BAAIOGMK@?$AAs?$AAq@ 10023168     libucrt:lcidtoname_downlevel.obj
 0002:00004170       ??_C@_15INNPNOHD@?$AAs?$AAv@ 10023170     libucrt:lcidtoname_downlevel.obj
 0002:00004178       ??_C@_15CABMMOGH@?$AAt?$AAh@ 10023178     libucrt:lcidtoname_downlevel.obj
 0002:00004180       ??_C@_15BPLIHJJM@?$AAt?$AAr@ 10023180     libucrt:lcidtoname_downlevel.obj
 0002:00004188       ??_C@_15NEOEKKDJ@?$AAu?$AAr@ 10023188     libucrt:lcidtoname_downlevel.obj
 0002:00004190       ??_C@_15NFICGAJK@?$AAi?$AAd@ 10023190     libucrt:lcidtoname_downlevel.obj
 0002:00004198       ??_C@_15PJPFLCCM@?$AAu?$AAk@ 10023198     libucrt:lcidtoname_downlevel.obj
 0002:000041a0       ??_C@_15HPJPHDM@?$AAb?$AAe@ 100231a0     libucrt:lcidtoname_downlevel.obj
 0002:000041a8       ??_C@_15LCHLGJII@?$AAs?$AAl@ 100231a8     libucrt:lcidtoname_downlevel.obj
 0002:000041b0       ??_C@_15PCFJPHHO@?$AAe?$AAt@ 100231b0     libucrt:lcidtoname_downlevel.obj
 0002:000041b8       ??_C@_15HPFPGODN@?$AAl?$AAv@ 100231b8     libucrt:lcidtoname_downlevel.obj
 0002:000041c0       ??_C@_15NFFGKGLG@?$AAl?$AAt@ 100231c0     libucrt:lcidtoname_downlevel.obj
 0002:000041c8       ??_C@_15BDAKCCHN@?$AAf?$AAa@ 100231c8     libucrt:lcidtoname_downlevel.obj
 0002:000041d0       ??_C@_15NFGIAIAJ@?$AAv?$AAi@ 100231d0     libucrt:lcidtoname_downlevel.obj
 0002:000041d8       ??_C@_15LMKNDMHN@?$AAh?$AAy@ 100231d8     libucrt:lcidtoname_downlevel.obj
 0002:000041e0       ??_C@_15IJBHMCFL@?$AAa?$AAz@ 100231e0     libucrt:lcidtoname_downlevel.obj
 0002:000041e8       ??_C@_15EKOFJABL@?$AAe?$AAu@ 100231e8     libucrt:lcidtoname_downlevel.obj
 0002:000041f0       ??_C@_15BGHADCNK@?$AAm?$AAk@ 100231f0     libucrt:lcidtoname_downlevel.obj
 0002:000041f8       ??_C@_15JDNICKHM@?$AAa?$AAf@ 100231f8     libucrt:lcidtoname_downlevel.obj
 0002:00004200       ??_C@_15KPJEDBKD@?$AAk?$AAa@ 10023200     libucrt:lcidtoname_downlevel.obj
 0002:00004208       ??_C@_15PDNFFFEO@?$AAf?$AAo@ 10023208     libucrt:lcidtoname_downlevel.obj
 0002:00004210       ??_C@_15OMLEGLOC@?$AAh?$AAi@ 10023210     libucrt:lcidtoname_downlevel.obj
 0002:00004218       ??_C@_15IDNNENKK@?$AAm?$AAs@ 10023218     libucrt:lcidtoname_downlevel.obj
 0002:00004220       ??_C@_15MACJNBMH@?$AAk?$AAk@ 10023220     libucrt:lcidtoname_downlevel.obj
 0002:00004228       ??_C@_15DKDJEOND@?$AAk?$AAy@ 10023228     libucrt:lcidtoname_downlevel.obj
 0002:00004230       ??_C@_15DFGDLJBG@?$AAs?$AAw@ 10023230     libucrt:lcidtoname_downlevel.obj
 0002:00004238       ??_C@_15BBFAICNG@?$AAu?$AAz@ 10023238     libucrt:lcidtoname_downlevel.obj
 0002:00004240       ??_C@_15DKNDCGEA@?$AAt?$AAt@ 10023240     libucrt:lcidtoname_downlevel.obj
 0002:00004248       ??_C@_15MGIFMDPL@?$AAp?$AAa@ 10023248     libucrt:lcidtoname_downlevel.obj
 0002:00004250       ??_C@_15HCNDBBA@?$AAg?$AAu@ 10023250     libucrt:lcidtoname_downlevel.obj
 0002:00004258       ??_C@_15FNBEIBON@?$AAt?$AAa@ 10023258     libucrt:lcidtoname_downlevel.obj
 0002:00004260       ??_C@_15NCHGBGLK@?$AAt?$AAe@ 10023260     libucrt:lcidtoname_downlevel.obj
 0002:00004268       ??_C@_15PHPHCBPF@?$AAk?$AAn@ 10023268     libucrt:lcidtoname_downlevel.obj
 0002:00004270       ??_C@_15DLGBCKMP@?$AAm?$AAr@ 10023270     libucrt:lcidtoname_downlevel.obj
 0002:00004278       ??_C@_15EABBLBFF@?$AAs?$AAa@ 10023278     libucrt:lcidtoname_downlevel.obj
 0002:00004280       ??_C@_15CBKOMCOI@?$AAm?$AAn@ 10023280     libucrt:lcidtoname_downlevel.obj
 0002:00004288       ??_C@_15CKDMCJAF@?$AAg?$AAl@ 10023288     libucrt:lcidtoname_downlevel.obj
 0002:00004290       ??_C@_17CNJFBPG@?$AAk?$AAo?$AAk@ 10023290     libucrt:lcidtoname_downlevel.obj
 0002:00004298       ??_C@_17FFBJICPL@?$AAs?$AAy?$AAr@ 10023298     libucrt:lcidtoname_downlevel.obj
 0002:000042a0       ??_C@_17KPNDCPAF@?$AAd?$AAi?$AAv@ 100232a0     libucrt:lcidtoname_downlevel.obj
 0002:000042a8       ??_C@_1M@OKAHONE@?$AAa?$AAr?$AA?9?$AAS?$AAA@ 100232a8     libucrt:lcidtoname_downlevel.obj
 0002:000042b4       ??_C@_1M@FFFIGIGK@?$AAb?$AAg?$AA?9?$AAB?$AAG@ 100232b4     libucrt:lcidtoname_downlevel.obj
 0002:000042c0       ??_C@_1M@BJNKEDC@?$AAc?$AAa?$AA?9?$AAE?$AAS@ 100232c0     libucrt:lcidtoname_downlevel.obj
 0002:000042cc       ??_C@_1M@IJJHFJHA@?$AAc?$AAs?$AA?9?$AAC?$AAZ@ 100232cc     libucrt:lcidtoname_downlevel.obj
 0002:000042d8       ??_C@_1M@CLPEOBGI@?$AAd?$AAa?$AA?9?$AAD?$AAK@ 100232d8     libucrt:lcidtoname_downlevel.obj
 0002:000042e4       ??_C@_1M@MCMADGCB@?$AAd?$AAe?$AA?9?$AAD?$AAE@ 100232e4     libucrt:lcidtoname_downlevel.obj
 0002:000042f0       ??_C@_1M@OOCKEMAM@?$AAe?$AAl?$AA?9?$AAG?$AAR@ 100232f0     libucrt:lcidtoname_downlevel.obj
 0002:000042fc       ??_C@_1M@DDNJFGID@?$AAf?$AAi?$AA?9?$AAF?$AAI@ 100232fc     libucrt:lcidtoname_downlevel.obj
 0002:00004308       ??_C@_1M@GLIPPMAC@?$AAf?$AAr?$AA?9?$AAF?$AAR@ 10023308     libucrt:lcidtoname_downlevel.obj
 0002:00004314       ??_C@_1M@GFMCHPE@?$AAh?$AAe?$AA?9?$AAI?$AAL@ 10023314     libucrt:lcidtoname_downlevel.obj
 0002:00004320       ??_C@_1M@MHLPGNKM@?$AAh?$AAu?$AA?9?$AAH?$AAU@ 10023320     libucrt:lcidtoname_downlevel.obj
 0002:0000432c       ??_C@_1M@LPDDNNPN@?$AAi?$AAs?$AA?9?$AAI?$AAS@ 1002332c     libucrt:lcidtoname_downlevel.obj
 0002:00004338       ??_C@_1M@MADIPODN@?$AAi?$AAt?$AA?9?$AAI?$AAT@ 10023338     libucrt:lcidtoname_downlevel.obj
 0002:00004344       ??_C@_1M@IHBJJGG@?$AAn?$AAl?$AA?9?$AAN?$AAL@ 10023344     libucrt:lcidtoname_downlevel.obj
 0002:00004350       ??_C@_1M@EANAGDL@?$AAn?$AAb?$AA?9?$AAN?$AAO@ 10023350     libucrt:lcidtoname_downlevel.obj
 0002:0000435c       ??_C@_1M@NEIEMEGP@?$AAp?$AAl?$AA?9?$AAP?$AAL@ 1002335c     libucrt:lcidtoname_downlevel.obj
 0002:00004368       ??_C@_1M@BOCFIGEP@?$AAp?$AAt?$AA?9?$AAB?$AAR@ 10023368     libucrt:lcidtoname_downlevel.obj
 0002:00004374       ??_C@_1M@IMPFOPBG@?$AAr?$AAo?$AA?9?$AAR?$AAO@ 10023374     libucrt:lcidtoname_downlevel.obj
 0002:00004380       ??_C@_1M@IDNNEJMM@?$AAr?$AAu?$AA?9?$AAR?$AAU@ 10023380     libucrt:lcidtoname_downlevel.obj
 0002:0000438c       ??_C@_1M@LILEEOGM@?$AAh?$AAr?$AA?9?$AAH?$AAR@ 1002338c     libucrt:lcidtoname_downlevel.obj
 0002:00004398       ??_C@_1M@FKIFEHPB@?$AAs?$AAk?$AA?9?$AAS?$AAK@ 10023398     libucrt:lcidtoname_downlevel.obj
 0002:000043a4       ??_C@_1M@LJMAMNPJ@?$AAs?$AAq?$AA?9?$AAA?$AAL@ 100233a4     libucrt:lcidtoname_downlevel.obj
 0002:000043b0       ??_C@_1M@GIAKDKJK@?$AAs?$AAv?$AA?9?$AAS?$AAE@ 100233b0     libucrt:lcidtoname_downlevel.obj
 0002:000043bc       ??_C@_1M@MKJKIKCL@?$AAt?$AAh?$AA?9?$AAT?$AAH@ 100233bc     libucrt:lcidtoname_downlevel.obj
 0002:000043c8       ??_C@_1M@MFLCCMPB@?$AAt?$AAr?$AA?9?$AAT?$AAR@ 100233c8     libucrt:lcidtoname_downlevel.obj
 0002:000043d4       ??_C@_1M@OIJHDKJN@?$AAu?$AAr?$AA?9?$AAP?$AAK@ 100233d4     libucrt:lcidtoname_downlevel.obj
 0002:000043e0       ??_C@_1M@LHIPCIEK@?$AAi?$AAd?$AA?9?$AAI?$AAD@ 100233e0     libucrt:lcidtoname_downlevel.obj
 0002:000043ec       ??_C@_1M@MFMOBGI@?$AAu?$AAk?$AA?9?$AAU?$AAA@ 100233ec     libucrt:lcidtoname_downlevel.obj
 0002:000043f8       ??_C@_1M@OBGLJIPL@?$AAb?$AAe?$AA?9?$AAB?$AAY@ 100233f8     libucrt:lcidtoname_downlevel.obj
 0002:00004404       ??_C@_1M@BCFAJEAD@?$AAs?$AAl?$AA?9?$AAS?$AAI@ 10023404     libucrt:lcidtoname_downlevel.obj
 0002:00004410       ??_C@_1M@FKFFEDDN@?$AAe?$AAt?$AA?9?$AAE?$AAE@ 10023410     libucrt:lcidtoname_downlevel.obj
 0002:0000441c       ??_C@_1M@KGKKAACI@?$AAl?$AAv?$AA?9?$AAL?$AAV@ 1002341c     libucrt:lcidtoname_downlevel.obj
 0002:00004428       ??_C@_1M@IFGBIJO@?$AAl?$AAt?$AA?9?$AAL?$AAT@ 10023428     libucrt:lcidtoname_downlevel.obj
 0002:00004434       ??_C@_1M@FGEAHEDM@?$AAf?$AAa?$AA?9?$AAI?$AAR@ 10023434     libucrt:lcidtoname_downlevel.obj
 0002:00004440       ??_C@_1M@KBMAIBFN@?$AAv?$AAi?$AA?9?$AAV?$AAN@ 10023440     libucrt:lcidtoname_downlevel.obj
 0002:0000444c       ??_C@_1M@GPCBKDJK@?$AAh?$AAy?$AA?9?$AAA?$AAM@ 1002344c     libucrt:lcidtoname_downlevel.obj
 0002:00004458       ??_C@_1BG@BECMDDJB@?$AAa?$AAz?$AA?9?$AAA?$AAZ?$AA?9?$AAL?$AAa?$AAt?$AAn@ 10023458     libucrt:lcidtoname_downlevel.obj
 0002:00004470       ??_C@_1M@MAOFCAEA@?$AAe?$AAu?$AA?9?$AAE?$AAS@ 10023470     libucrt:lcidtoname_downlevel.obj
 0002:0000447c       ??_C@_1M@IGHABKPI@?$AAm?$AAk?$AA?9?$AAM?$AAK@ 1002347c     libucrt:lcidtoname_downlevel.obj
 0002:00004488       ??_C@_1M@IAIGNEJG@?$AAt?$AAn?$AA?9?$AAZ?$AAA@ 10023488     libucrt:lcidtoname_downlevel.obj
 0002:00004494       ??_C@_1M@IIJCOJFA@?$AAx?$AAh?$AA?9?$AAZ?$AAA@ 10023494     libucrt:lcidtoname_downlevel.obj
 0002:000044a0       ??_C@_1M@LGPJHNJH@?$AAz?$AAu?$AA?9?$AAZ?$AAA@ 100234a0     libucrt:lcidtoname_downlevel.obj
 0002:000044ac       ??_C@_1M@HOKAOIO@?$AAa?$AAf?$AA?9?$AAZ?$AAA@ 100234ac     libucrt:lcidtoname_downlevel.obj
 0002:000044b8       ??_C@_1M@DPCLHLIE@?$AAk?$AAa?$AA?9?$AAG?$AAE@ 100234b8     libucrt:lcidtoname_downlevel.obj
 0002:000044c4       ??_C@_1M@BLKMHJBI@?$AAf?$AAo?$AA?9?$AAF?$AAO@ 100234c4     libucrt:lcidtoname_downlevel.obj
 0002:000044d0       ??_C@_1M@LGGJAPPB@?$AAh?$AAi?$AA?9?$AAI?$AAN@ 100234d0     libucrt:lcidtoname_downlevel.obj
 0002:000044dc       ??_C@_1M@FIKPIHFE@?$AAm?$AAt?$AA?9?$AAM?$AAT@ 100234dc     libucrt:lcidtoname_downlevel.obj
 0002:000044e8       ??_C@_1M@HEGGPBFA@?$AAs?$AAe?$AA?9?$AAN?$AAO@ 100234e8     libucrt:lcidtoname_downlevel.obj
 0002:000044f4       ??_C@_1M@EIBJEEPA@?$AAm?$AAs?$AA?9?$AAM?$AAY@ 100234f4     libucrt:lcidtoname_downlevel.obj
 0002:00004500       ??_C@_1M@FHLBGMPP@?$AAk?$AAk?$AA?9?$AAK?$AAZ@ 10023500     libucrt:lcidtoname_downlevel.obj
 0002:0000450c       ??_C@_1M@NGJJLCGI@?$AAk?$AAy?$AA?9?$AAK?$AAG@ 1002350c     libucrt:lcidtoname_downlevel.obj
 0002:00004518       ??_C@_1M@GIENNBFC@?$AAs?$AAw?$AA?9?$AAK?$AAE@ 10023518     libucrt:lcidtoname_downlevel.obj
 0002:00004524       ??_C@_1BG@NDGMJIMJ@?$AAu?$AAz?$AA?9?$AAU?$AAZ?$AA?9?$AAL?$AAa?$AAt?$AAn@ 10023524     libucrt:lcidtoname_downlevel.obj
 0002:0000453c       ??_C@_1M@IDCCIHBC@?$AAt?$AAt?$AA?9?$AAR?$AAU@ 1002353c     libucrt:lcidtoname_downlevel.obj
 0002:00004548       ??_C@_1M@LOICPMOJ@?$AAb?$AAn?$AA?9?$AAI?$AAN@ 10023548     libucrt:lcidtoname_downlevel.obj
 0002:00004554       ??_C@_1M@KPKKNEAH@?$AAp?$AAa?$AA?9?$AAI?$AAN@ 10023554     libucrt:lcidtoname_downlevel.obj
 0002:00004560       ??_C@_1M@PJGPPBOG@?$AAg?$AAu?$AA?9?$AAI?$AAN@ 10023560     libucrt:lcidtoname_downlevel.obj
 0002:0000456c       ??_C@_1M@KMKMOPHI@?$AAt?$AAa?$AA?9?$AAI?$AAN@ 1002356c     libucrt:lcidtoname_downlevel.obj
 0002:00004578       ??_C@_1M@KFEHEPAC@?$AAt?$AAe?$AA?9?$AAI?$AAN@ 10023578     libucrt:lcidtoname_downlevel.obj
 0002:00004584       ??_C@_1M@CDCLMGHI@?$AAk?$AAn?$AA?9?$AAI?$AAN@ 10023584     libucrt:lcidtoname_downlevel.obj
 0002:00004590       ??_C@_1M@MIODLDKF@?$AAm?$AAl?$AA?9?$AAI?$AAN@ 10023590     libucrt:lcidtoname_downlevel.obj
 0002:0000459c       ??_C@_1M@PBIEACPO@?$AAm?$AAr?$AA?9?$AAI?$AAN@ 1002359c     libucrt:lcidtoname_downlevel.obj
 0002:000045a8       ??_C@_1M@NIDEAGPH@?$AAs?$AAa?$AA?9?$AAI?$AAN@ 100235a8     libucrt:lcidtoname_downlevel.obj
 0002:000045b4       ??_C@_1M@FHIHCBIO@?$AAm?$AAn?$AA?9?$AAM?$AAN@ 100235b4     libucrt:lcidtoname_downlevel.obj
 0002:000045c0       ??_C@_1M@JAIJPENP@?$AAc?$AAy?$AA?9?$AAG?$AAB@ 100235c0     libucrt:lcidtoname_downlevel.obj
 0002:000045cc       ??_C@_1M@PHGFBEPN@?$AAg?$AAl?$AA?9?$AAE?$AAS@ 100235cc     libucrt:lcidtoname_downlevel.obj
 0002:000045d8       ??_C@_1O@KPIPDNCP@?$AAk?$AAo?$AAk?$AA?9?$AAI?$AAN@ 100235d8     libucrt:lcidtoname_downlevel.obj
 0002:000045e8       ??_C@_1O@KNHJLDJA@?$AAs?$AAy?$AAr?$AA?9?$AAS?$AAY@ 100235e8     libucrt:lcidtoname_downlevel.obj
 0002:000045f8       ??_C@_1O@MKEKBLAH@?$AAd?$AAi?$AAv?$AA?9?$AAM?$AAV@ 100235f8     libucrt:lcidtoname_downlevel.obj
 0002:00004608       ??_C@_1O@OHDCKDDF@?$AAq?$AAu?$AAz?$AA?9?$AAB?$AAO@ 10023608     libucrt:lcidtoname_downlevel.obj
 0002:00004618       ??_C@_1M@LEPJNLFD@?$AAn?$AAs?$AA?9?$AAZ?$AAA@ 10023618     libucrt:lcidtoname_downlevel.obj
 0002:00004624       ??_C@_1M@OMLEIIJB@?$AAm?$AAi?$AA?9?$AAN?$AAZ@ 10023624     libucrt:lcidtoname_downlevel.obj
 0002:00004630       ??_C@_1M@PMPEAILG@?$AAa?$AAr?$AA?9?$AAI?$AAQ@ 10023630     libucrt:lcidtoname_downlevel.obj
 0002:0000463c       ??_C@_1M@CNKPNOEE@?$AAd?$AAe?$AA?9?$AAC?$AAH@ 1002363c     libucrt:lcidtoname_downlevel.obj
 0002:00004648       ??_C@_1M@LKMGMLKO@?$AAe?$AAn?$AA?9?$AAG?$AAB@ 10023648     libucrt:lcidtoname_downlevel.obj
 0002:00004654       ??_C@_1M@PGKJFFGL@?$AAe?$AAs?$AA?9?$AAM?$AAX@ 10023654     libucrt:lcidtoname_downlevel.obj
 0002:00004660       ??_C@_1M@DNNANBDC@?$AAf?$AAr?$AA?9?$AAB?$AAE@ 10023660     libucrt:lcidtoname_downlevel.obj
 0002:0000466c       ??_C@_1M@HLGMDFHM@?$AAi?$AAt?$AA?9?$AAC?$AAH@ 1002366c     libucrt:lcidtoname_downlevel.obj
 0002:00004678       ??_C@_1M@CLLBGJH@?$AAn?$AAl?$AA?9?$AAB?$AAE@ 10023678     libucrt:lcidtoname_downlevel.obj
 0002:00004684       ??_C@_1M@BODBOGLF@?$AAn?$AAn?$AA?9?$AAN?$AAO@ 10023684     libucrt:lcidtoname_downlevel.obj
 0002:00004690       ??_C@_1M@HFFAHKAD@?$AAp?$AAt?$AA?9?$AAP?$AAT@ 10023690     libucrt:lcidtoname_downlevel.obj
 0002:0000469c       ??_C@_1BG@LNOAKHIE@?$AAs?$AAr?$AA?9?$AAS?$AAP?$AA?9?$AAL?$AAa?$AAt?$AAn@ 1002369c     libucrt:lcidtoname_downlevel.obj
 0002:000046b4       ??_C@_1M@HBMHBGAK@?$AAs?$AAv?$AA?9?$AAF?$AAI@ 100236b4     libucrt:lcidtoname_downlevel.obj
 0002:000046c0       ??_C@_1BG@DGCJGJBE@?$AAa?$AAz?$AA?9?$AAA?$AAZ?$AA?9?$AAC?$AAy?$AAr?$AAl@ 100236c0     libucrt:lcidtoname_downlevel.obj
 0002:000046d8       ??_C@_1M@KEJDAAHB@?$AAs?$AAe?$AA?9?$AAS?$AAE@ 100236d8     libucrt:lcidtoname_downlevel.obj
 0002:000046e4       ??_C@_1M@HEIBJJAD@?$AAm?$AAs?$AA?9?$AAB?$AAN@ 100236e4     libucrt:lcidtoname_downlevel.obj
 0002:000046f0       ??_C@_1BG@PBGJMCEM@?$AAu?$AAz?$AA?9?$AAU?$AAZ?$AA?9?$AAC?$AAy?$AAr?$AAl@ 100236f0     libucrt:lcidtoname_downlevel.obj
 0002:00004708       ??_C@_1O@LAOBCMDF@?$AAq?$AAu?$AAz?$AA?9?$AAE?$AAC@ 10023708     libucrt:lcidtoname_downlevel.obj
 0002:00004718       ??_C@_1M@POEEMAIO@?$AAa?$AAr?$AA?9?$AAE?$AAG@ 10023718     libucrt:lcidtoname_downlevel.obj
 0002:00004724       ??_C@_1M@EFAKDEDL@?$AAz?$AAh?$AA?9?$AAH?$AAK@ 10023724     libucrt:lcidtoname_downlevel.obj
 0002:00004730       ??_C@_1M@HKKIJHGI@?$AAd?$AAe?$AA?9?$AAA?$AAT@ 10023730     libucrt:lcidtoname_downlevel.obj
 0002:0000473c       ??_C@_1M@KBFBEHJF@?$AAe?$AAn?$AA?9?$AAA?$AAU@ 1002373c     libucrt:lcidtoname_downlevel.obj
 0002:00004748       ??_C@_1M@MNPLFAAH@?$AAe?$AAs?$AA?9?$AAE?$AAS@ 10023748     libucrt:lcidtoname_downlevel.obj
 0002:00004754       ??_C@_1M@HJOOJFMA@?$AAf?$AAr?$AA?9?$AAC?$AAA@ 10023754     libucrt:lcidtoname_downlevel.obj
 0002:00004760       ??_C@_1BG@JPOFPNAB@?$AAs?$AAr?$AA?9?$AAS?$AAP?$AA?9?$AAC?$AAy?$AAr?$AAl@ 10023760     libucrt:lcidtoname_downlevel.obj
 0002:00004778       ??_C@_1M@LNFOCMOB@?$AAs?$AAe?$AA?9?$AAF?$AAI@ 10023778     libucrt:lcidtoname_downlevel.obj
 0002:00004784       ??_C@_1O@MGJBOAMB@?$AAq?$AAu?$AAz?$AA?9?$AAP?$AAE@ 10023784     libucrt:lcidtoname_downlevel.obj
 0002:00004794       ??_C@_1M@GJINLBOK@?$AAa?$AAr?$AA?9?$AAL?$AAY@ 10023794     libucrt:lcidtoname_downlevel.obj
 0002:000047a0       ??_C@_1M@GGMNHJNL@?$AAz?$AAh?$AA?9?$AAS?$AAG@ 100237a0     libucrt:lcidtoname_downlevel.obj
 0002:000047ac       ??_C@_1M@HOIKODND@?$AAd?$AAe?$AA?9?$AAL?$AAU@ 100237ac     libucrt:lcidtoname_downlevel.obj
 0002:000047b8       ??_C@_1M@DDOCCGFG@?$AAe?$AAn?$AA?9?$AAC?$AAA@ 100237b8     libucrt:lcidtoname_downlevel.obj
 0002:000047c4       ??_C@_1M@BNOEMJLF@?$AAe?$AAs?$AA?9?$AAG?$AAT@ 100237c4     libucrt:lcidtoname_downlevel.obj
 0002:000047d0       ??_C@_1M@EOGNKEK@?$AAf?$AAr?$AA?9?$AAC?$AAH@ 100237d0     libucrt:lcidtoname_downlevel.obj
 0002:000047dc       ??_C@_1M@FLIDJFHL@?$AAh?$AAr?$AA?9?$AAB?$AAA@ 100237dc     libucrt:lcidtoname_downlevel.obj
 0002:000047e8       ??_C@_1O@FMCELNAJ@?$AAs?$AAm?$AAj?$AA?9?$AAN?$AAO@ 100237e8     libucrt:lcidtoname_downlevel.obj
 0002:000047f8       ??_C@_1M@JHGLJMGJ@?$AAa?$AAr?$AA?9?$AAD?$AAZ@ 100237f8     libucrt:lcidtoname_downlevel.obj
 0002:00004804       ??_C@_1M@JKKFDCNP@?$AAz?$AAh?$AA?9?$AAM?$AAO@ 10023804     libucrt:lcidtoname_downlevel.obj
 0002:00004810       ??_C@_1M@GEEFALPE@?$AAd?$AAe?$AA?9?$AAL?$AAI@ 10023810     libucrt:lcidtoname_downlevel.obj
 0002:0000481c       ??_C@_1M@IGEOFBG@?$AAe?$AAn?$AA?9?$AAN?$AAZ@ 1002381c     libucrt:lcidtoname_downlevel.obj
 0002:00004828       ??_C@_1M@KDBONEHP@?$AAe?$AAs?$AA?9?$AAC?$AAR@ 10023828     libucrt:lcidtoname_downlevel.obj
 0002:00004834       ??_C@_1M@FHMDOHNN@?$AAf?$AAr?$AA?9?$AAL?$AAU@ 10023834     libucrt:lcidtoname_downlevel.obj
 0002:00004840       ??_C@_1BG@NFKKMAFG@?$AAb?$AAs?$AA?9?$AAB?$AAA?$AA?9?$AAL?$AAa?$AAt?$AAn@ 10023840     libucrt:lcidtoname_downlevel.obj
 0002:00004858       ??_C@_1O@IMNBEMCI@?$AAs?$AAm?$AAj?$AA?9?$AAS?$AAE@ 10023858     libucrt:lcidtoname_downlevel.obj
 0002:00004868       ??_C@_1M@DHHMBNDP@?$AAa?$AAr?$AA?9?$AAM?$AAA@ 10023868     libucrt:lcidtoname_downlevel.obj
 0002:00004874       ??_C@_1M@BNBLJCGH@?$AAe?$AAn?$AA?9?$AAI?$AAE@ 10023874     libucrt:lcidtoname_downlevel.obj
 0002:00004880       ??_C@_1M@GEPAFMDL@?$AAe?$AAs?$AA?9?$AAP?$AAA@ 10023880     libucrt:lcidtoname_downlevel.obj
 0002:0000488c       ??_C@_1M@OJONDMDL@?$AAf?$AAr?$AA?9?$AAM?$AAC@ 1002388c     libucrt:lcidtoname_downlevel.obj
 0002:00004898       ??_C@_1BG@OBCNFJB@?$AAs?$AAr?$AA?9?$AAB?$AAA?$AA?9?$AAL?$AAa?$AAt?$AAn@ 10023898     libucrt:lcidtoname_downlevel.obj
 0002:000048b0       ??_C@_1O@KEMEEGPO@?$AAs?$AAm?$AAa?$AA?9?$AAN?$AAO@ 100238b0     libucrt:lcidtoname_downlevel.obj
 0002:000048c0       ??_C@_1M@ELMGFODK@?$AAa?$AAr?$AA?9?$AAT?$AAN@ 100238c0     libucrt:lcidtoname_downlevel.obj
 0002:000048cc       ??_C@_1M@BHDLHFAF@?$AAe?$AAn?$AA?9?$AAZ?$AAA@ 100238cc     libucrt:lcidtoname_downlevel.obj
 0002:000048d8       ??_C@_1M@BMGIGLIF@?$AAe?$AAs?$AA?9?$AAD?$AAO@ 100238d8     libucrt:lcidtoname_downlevel.obj
 0002:000048e4       ??_C@_1BG@CMBHIPBE@?$AAs?$AAr?$AA?9?$AAB?$AAA?$AA?9?$AAC?$AAy?$AAr?$AAl@ 100238e4     libucrt:lcidtoname_downlevel.obj
 0002:000048fc       ??_C@_1O@HEDBLHNP@?$AAs?$AAm?$AAa?$AA?9?$AAS?$AAE@ 100238fc     libucrt:lcidtoname_downlevel.obj
 0002:0000490c       ??_C@_1M@DAGCADIM@?$AAa?$AAr?$AA?9?$AAO?$AAM@ 1002390c     libucrt:lcidtoname_downlevel.obj
 0002:00004918       ??_C@_1M@FODLMICG@?$AAe?$AAn?$AA?9?$AAJ?$AAM@ 10023918     libucrt:lcidtoname_downlevel.obj
 0002:00004924       ??_C@_1M@DNMLCIHB@?$AAe?$AAs?$AA?9?$AAV?$AAE@ 10023924     libucrt:lcidtoname_downlevel.obj
 0002:00004930       ??_C@_1O@EOKHMKJK@?$AAs?$AAm?$AAs?$AA?9?$AAF?$AAI@ 10023930     libucrt:lcidtoname_downlevel.obj
 0002:00004940       ??_C@_1M@CAFJMKOF@?$AAa?$AAr?$AA?9?$AAY?$AAE@ 10023940     libucrt:lcidtoname_downlevel.obj
 0002:0000494c       ??_C@_1M@CBFHIJLI@?$AAe?$AAn?$AA?9?$AAC?$AAB@ 1002394c     libucrt:lcidtoname_downlevel.obj
 0002:00004958       ??_C@_1M@BGNFLDN@?$AAe?$AAs?$AA?9?$AAC?$AAO@ 10023958     libucrt:lcidtoname_downlevel.obj
 0002:00004964       ??_C@_1O@JMPHMAMC@?$AAs?$AAm?$AAn?$AA?9?$AAF?$AAI@ 10023964     libucrt:lcidtoname_downlevel.obj
 0002:00004974       ??_C@_1M@JLANABKE@?$AAa?$AAr?$AA?9?$AAS?$AAY@ 10023974     libucrt:lcidtoname_downlevel.obj
 0002:00004980       ??_C@_1M@HPKGCFGN@?$AAe?$AAn?$AA?9?$AAB?$AAZ@ 10023980     libucrt:lcidtoname_downlevel.obj
 0002:0000498c       ??_C@_1M@OLJCMLGM@?$AAe?$AAs?$AA?9?$AAP?$AAE@ 1002398c     libucrt:lcidtoname_downlevel.obj
 0002:00004998       ??_C@_1M@MKKGFKLE@?$AAa?$AAr?$AA?9?$AAJ?$AAO@ 10023998     libucrt:lcidtoname_downlevel.obj
 0002:000049a4       ??_C@_1M@EKPGLDNI@?$AAe?$AAn?$AA?9?$AAT?$AAT@ 100239a4     libucrt:lcidtoname_downlevel.obj
 0002:000049b0       ??_C@_1M@OONGHFHE@?$AAe?$AAs?$AA?9?$AAA?$AAR@ 100239b0     libucrt:lcidtoname_downlevel.obj
 0002:000049bc       ??_C@_1M@OOJFGBHE@?$AAa?$AAr?$AA?9?$AAL?$AAB@ 100239bc     libucrt:lcidtoname_downlevel.obj
 0002:000049c8       ??_C@_1M@GCEJHNEG@?$AAe?$AAn?$AA?9?$AAZ?$AAW@ 100239c8     libucrt:lcidtoname_downlevel.obj
 0002:000049d4       ??_C@_1M@JNOCAHJI@?$AAe?$AAs?$AA?9?$AAE?$AAC@ 100239d4     libucrt:lcidtoname_downlevel.obj
 0002:000049e0       ??_C@_1M@JEFHPGGB@?$AAa?$AAr?$AA?9?$AAK?$AAW@ 100239e0     libucrt:lcidtoname_downlevel.obj
 0002:000049ec       ??_C@_1M@MLKIBJOJ@?$AAe?$AAn?$AA?9?$AAP?$AAH@ 100239ec     libucrt:lcidtoname_downlevel.obj
 0002:000049f8       ??_C@_1M@BDNIPEND@?$AAe?$AAs?$AA?9?$AAC?$AAL@ 100239f8     libucrt:lcidtoname_downlevel.obj
 0002:00004a04       ??_C@_1M@MPNMEKBD@?$AAa?$AAr?$AA?9?$AAA?$AAE@ 10023a04     libucrt:lcidtoname_downlevel.obj
 0002:00004a10       ??_C@_1M@KBJALCPI@?$AAe?$AAs?$AA?9?$AAU?$AAY@ 10023a10     libucrt:lcidtoname_downlevel.obj
 0002:00004a1c       ??_C@_1M@LLCCOAGA@?$AAa?$AAr?$AA?9?$AAB?$AAH@ 10023a1c     libucrt:lcidtoname_downlevel.obj
 0002:00004a28       ??_C@_1M@PBFNCDEL@?$AAe?$AAs?$AA?9?$AAP?$AAY@ 10023a28     libucrt:lcidtoname_downlevel.obj
 0002:00004a34       ??_C@_1M@EDGINPNP@?$AAa?$AAr?$AA?9?$AAQ?$AAA@ 10023a34     libucrt:lcidtoname_downlevel.obj
 0002:00004a40       ??_C@_1M@MKDBIIJI@?$AAe?$AAs?$AA?9?$AAB?$AAO@ 10023a40     libucrt:lcidtoname_downlevel.obj
 0002:00004a4c       ??_C@_1M@CPKKEBLD@?$AAe?$AAs?$AA?9?$AAS?$AAV@ 10023a4c     libucrt:lcidtoname_downlevel.obj
 0002:00004a58       ??_C@_1M@NDBGMMJL@?$AAe?$AAs?$AA?9?$AAH?$AAN@ 10023a58     libucrt:lcidtoname_downlevel.obj
 0002:00004a64       ??_C@_1M@JIJIBHDP@?$AAe?$AAs?$AA?9?$AAN?$AAI@ 10023a64     libucrt:lcidtoname_downlevel.obj
 0002:00004a70       ??_C@_1M@CGFMKEEK@?$AAe?$AAs?$AA?9?$AAP?$AAR@ 10023a70     libucrt:lcidtoname_downlevel.obj
 0002:00004a7c       ??_C@_1O@ICJHKIIK@?$AAz?$AAh?$AA?9?$AAC?$AAH?$AAT@ 10023a7c     libucrt:lcidtoname_downlevel.obj
 0002:00004a8c       ??_C@_15CLNEJCE@?$AAs?$AAr@ 10023a8c     libucrt:lcidtoname_downlevel.obj
 0002:000051b8       ??_C@_1M@KAHEKEIG@?$AAa?$AAf?$AA?9?$AAz?$AAa@ 100241b8     libucrt:lcidtoname_downlevel.obj
 0002:000051c4       ??_C@_1M@GIECOABL@?$AAa?$AAr?$AA?9?$AAa?$AAe@ 100241c4     libucrt:lcidtoname_downlevel.obj
 0002:000051d0       ??_C@_1M@BMLMEKGI@?$AAa?$AAr?$AA?9?$AAb?$AAh@ 100241d0     libucrt:lcidtoname_downlevel.obj
 0002:000051dc       ??_C@_1M@DAPFDGGB@?$AAa?$AAr?$AA?9?$AAd?$AAz@ 100241dc     libucrt:lcidtoname_downlevel.obj
 0002:000051e8       ??_C@_1M@FJNKGKIG@?$AAa?$AAr?$AA?9?$AAe?$AAg@ 100241e8     libucrt:lcidtoname_downlevel.obj
 0002:000051f4       ??_C@_1M@FLGKKCLO@?$AAa?$AAr?$AA?9?$AAi?$AAq@ 100241f4     libucrt:lcidtoname_downlevel.obj
 0002:00005200       ??_C@_1M@GNDIPALM@?$AAa?$AAr?$AA?9?$AAj?$AAo@ 10024200     libucrt:lcidtoname_downlevel.obj
 0002:0000520c       ??_C@_1M@DDMJFMGJ@?$AAa?$AAr?$AA?9?$AAk?$AAw@ 1002420c     libucrt:lcidtoname_downlevel.obj
 0002:00005218       ??_C@_1M@EJALMLHM@?$AAa?$AAr?$AA?9?$AAl?$AAb@ 10024218     libucrt:lcidtoname_downlevel.obj
 0002:00005224       ??_C@_1M@MOBDBLOC@?$AAa?$AAr?$AA?9?$AAl?$AAy@ 10024224     libucrt:lcidtoname_downlevel.obj
 0002:00005230       ??_C@_1M@JAOCLHDH@?$AAa?$AAr?$AA?9?$AAm?$AAa@ 10024230     libucrt:lcidtoname_downlevel.obj
 0002:0000523c       ??_C@_1M@JHPMKJIE@?$AAa?$AAr?$AA?9?$AAo?$AAm@ 1002423c     libucrt:lcidtoname_downlevel.obj
 0002:00005248       ??_C@_1M@OEPGHFNH@?$AAa?$AAr?$AA?9?$AAq?$AAa@ 10024248     libucrt:lcidtoname_downlevel.obj
 0002:00005254       ??_C@_1M@KJDONENM@?$AAa?$AAr?$AA?9?$AAs?$AAa@ 10024254     libucrt:lcidtoname_downlevel.obj
 0002:00005260       ??_C@_1M@DMJDKLKM@?$AAa?$AAr?$AA?9?$AAs?$AAy@ 10024260     libucrt:lcidtoname_downlevel.obj
 0002:0000526c       ??_C@_1M@OMFIPEDC@?$AAa?$AAr?$AA?9?$AAt?$AAn@ 1002426c     libucrt:lcidtoname_downlevel.obj
 0002:00005278       ??_C@_1M@IHMHGAON@?$AAa?$AAr?$AA?9?$AAy?$AAe@ 10024278     libucrt:lcidtoname_downlevel.obj
 0002:00005284       ??_C@_1BG@KDCPGJGB@?$AAa?$AAz?$AA?9?$AAa?$AAz?$AA?9?$AAc?$AAy?$AAr?$AAl@ 10024284     libucrt:lcidtoname_downlevel.obj
 0002:0000529c       ??_C@_1BG@IBCKDDOE@?$AAa?$AAz?$AA?9?$AAa?$AAz?$AA?9?$AAl?$AAa?$AAt?$AAn@ 1002429c     libucrt:lcidtoname_downlevel.obj
 0002:000052b4       ??_C@_1M@EGPFDCPD@?$AAb?$AAe?$AA?9?$AAb?$AAy@ 100242b4     libucrt:lcidtoname_downlevel.obj
 0002:000052c0       ??_C@_1M@PCMGMCGC@?$AAb?$AAg?$AA?9?$AAb?$AAg@ 100242c0     libucrt:lcidtoname_downlevel.obj
 0002:000052cc       ??_C@_1M@BJBMFGOB@?$AAb?$AAn?$AA?9?$AAi?$AAn@ 100242cc     libucrt:lcidtoname_downlevel.obj
 0002:000052d8       ??_C@_1BG@EAKMMACD@?$AAb?$AAs?$AA?9?$AAb?$AAa?$AA?9?$AAl?$AAa?$AAt?$AAn@ 100242d8     libucrt:lcidtoname_downlevel.obj
 0002:000052f0       ??_C@_1M@KGADAODK@?$AAc?$AAa?$AA?9?$AAe?$AAs@ 100242f0     libucrt:lcidtoname_downlevel.obj
 0002:000052fc       ??_C@_1M@COAJPDHI@?$AAc?$AAs?$AA?9?$AAc?$AAz@ 100242fc     libucrt:lcidtoname_downlevel.obj
 0002:00005308       ??_C@_1M@DHBHFONH@?$AAc?$AAy?$AA?9?$AAg?$AAb@ 10024308     libucrt:lcidtoname_downlevel.obj
 0002:00005314       ??_C@_1M@IMGKELGA@?$AAd?$AAa?$AA?9?$AAd?$AAk@ 10024314     libucrt:lcidtoname_downlevel.obj
 0002:00005320       ??_C@_1M@NNDGDNGA@?$AAd?$AAe?$AA?9?$AAa?$AAt@ 10024320     libucrt:lcidtoname_downlevel.obj
 0002:0000532c       ??_C@_1M@IKDBHEEM@?$AAd?$AAe?$AA?9?$AAc?$AAh@ 1002432c     libucrt:lcidtoname_downlevel.obj
 0002:00005338       ??_C@_1M@GFFOJMCJ@?$AAd?$AAe?$AA?9?$AAd?$AAe@ 10024338     libucrt:lcidtoname_downlevel.obj
 0002:00005344       ??_C@_1M@MDNLKBPM@?$AAd?$AAe?$AA?9?$AAl?$AAi@ 10024344     libucrt:lcidtoname_downlevel.obj
 0002:00005350       ??_C@_1M@NJBEEJNL@?$AAd?$AAe?$AA?9?$AAl?$AAu@ 10024350     libucrt:lcidtoname_downlevel.obj
 0002:0000535c       ??_C@_1O@GNNELBAP@?$AAd?$AAi?$AAv?$AA?9?$AAm?$AAv@ 1002435c     libucrt:lcidtoname_downlevel.obj
 0002:0000536c       ??_C@_1M@EJLEOGAE@?$AAe?$AAl?$AA?9?$AAg?$AAr@ 1002436c     libucrt:lcidtoname_downlevel.obj
 0002:00005378       ??_C@_1M@GMPONJN@?$AAe?$AAn?$AA?9?$AAa?$AAu@ 10024378     libucrt:lcidtoname_downlevel.obj
 0002:00005384       ??_C@_1M@NIDIIPGF@?$AAe?$AAn?$AA?9?$AAb?$AAz@ 10024384     libucrt:lcidtoname_downlevel.obj
 0002:00005390       ??_C@_1M@JEHMIMFO@?$AAe?$AAn?$AA?9?$AAc?$AAa@ 10024390     libucrt:lcidtoname_downlevel.obj
 0002:0000539c       ??_C@_1M@IGMJCDLA@?$AAe?$AAn?$AA?9?$AAc?$AAb@ 1002439c     libucrt:lcidtoname_downlevel.obj
 0002:000053a8       ??_C@_1M@BNFIGBKG@?$AAe?$AAn?$AA?9?$AAg?$AAb@ 100243a8     libucrt:lcidtoname_downlevel.obj
 0002:000053b4       ??_C@_1M@LKIFDIGP@?$AAe?$AAn?$AA?9?$AAi?$AAe@ 100243b4     libucrt:lcidtoname_downlevel.obj
 0002:000053c0       ??_C@_1M@PJKFGCCO@?$AAe?$AAn?$AA?9?$AAj?$AAm@ 100243c0     libucrt:lcidtoname_downlevel.obj
 0002:000053cc       ??_C@_1M@KPPKEPBO@?$AAe?$AAn?$AA?9?$AAn?$AAz@ 100243cc     libucrt:lcidtoname_downlevel.obj
 0002:000053d8       ??_C@_1M@GMDGLDOB@?$AAe?$AAn?$AA?9?$AAp?$AAh@ 100243d8     libucrt:lcidtoname_downlevel.obj
 0002:000053e4       ??_C@_1M@ONGIBJNA@?$AAe?$AAn?$AA?9?$AAt?$AAt@ 100243e4     libucrt:lcidtoname_downlevel.obj
 0002:000053f0       ??_C@_1M@LLODPCMM@?$AAe?$AAn?$AA?9?$AAu?$AAs@ 100243f0     libucrt:lcidtoname_downlevel.obj
 0002:000053fc       ??_C@_1M@LAKFNPAN@?$AAe?$AAn?$AA?9?$AAz?$AAa@ 100243fc     libucrt:lcidtoname_downlevel.obj
 0002:00005408       ??_C@_1M@MFNHNHEO@?$AAe?$AAn?$AA?9?$AAz?$AAw@ 10024408     libucrt:lcidtoname_downlevel.obj
 0002:00005414       ??_C@_1M@EJEINPHM@?$AAe?$AAs?$AA?9?$AAa?$AAr@ 10024414     libucrt:lcidtoname_downlevel.obj
 0002:00005420       ??_C@_1M@GNKPCCJA@?$AAe?$AAs?$AA?9?$AAb?$AAo@ 10024420     libucrt:lcidtoname_downlevel.obj
 0002:0000542c       ??_C@_1M@LEEGFONL@?$AAe?$AAs?$AA?9?$AAc?$AAl@ 1002442c     libucrt:lcidtoname_downlevel.obj
 0002:00005438       ??_C@_1M@KGPDPBDF@?$AAe?$AAs?$AA?9?$AAc?$AAo@ 10024438     libucrt:lcidtoname_downlevel.obj
 0002:00005444       ??_C@_1M@EIAHOHH@?$AAe?$AAs?$AA?9?$AAc?$AAr@ 10024444     libucrt:lcidtoname_downlevel.obj
 0002:00005450       ??_C@_1M@LLPGMBIN@?$AAe?$AAs?$AA?9?$AAd?$AAo@ 10024450     libucrt:lcidtoname_downlevel.obj
 0002:0000545c       ??_C@_1M@DKHMKNJA@?$AAe?$AAs?$AA?9?$AAe?$AAc@ 1002445c     libucrt:lcidtoname_downlevel.obj
 0002:00005468       ??_C@_1M@GKGFPKAP@?$AAe?$AAs?$AA?9?$AAe?$AAs@ 10024468     libucrt:lcidtoname_downlevel.obj
 0002:00005474       ??_C@_1M@LKHKGDLN@?$AAe?$AAs?$AA?9?$AAg?$AAt@ 10024474     libucrt:lcidtoname_downlevel.obj
 0002:00005480       ??_C@_1M@HEIIGGJD@?$AAe?$AAs?$AA?9?$AAh?$AAn@ 10024480     libucrt:lcidtoname_downlevel.obj
 0002:0000548c       ??_C@_1M@FBDHPPGD@?$AAe?$AAs?$AA?9?$AAm?$AAx@ 1002448c     libucrt:lcidtoname_downlevel.obj
 0002:00005498       ??_C@_1M@DPAGLNDH@?$AAe?$AAs?$AA?9?$AAn?$AAi@ 10024498     libucrt:lcidtoname_downlevel.obj
 0002:000054a4       ??_C@_1M@MDGOPGDD@?$AAe?$AAs?$AA?9?$AAp?$AAa@ 100244a4     libucrt:lcidtoname_downlevel.obj
 0002:000054b0       ??_C@_1M@EMAMGBGE@?$AAe?$AAs?$AA?9?$AAp?$AAe@ 100244b0     libucrt:lcidtoname_downlevel.obj
 0002:000054bc       ??_C@_1M@IBMCAOEC@?$AAe?$AAs?$AA?9?$AAp?$AAr@ 100244bc     libucrt:lcidtoname_downlevel.obj
 0002:000054c8       ??_C@_1M@FGMDIJED@?$AAe?$AAs?$AA?9?$AAp?$AAy@ 100244c8     libucrt:lcidtoname_downlevel.obj
 0002:000054d4       ??_C@_1M@IIDEOLLL@?$AAe?$AAs?$AA?9?$AAs?$AAv@ 100244d4     libucrt:lcidtoname_downlevel.obj
 0002:000054e0       ??_C@_1M@GAOBIPA@?$AAe?$AAs?$AA?9?$AAu?$AAy@ 100244e0     libucrt:lcidtoname_downlevel.obj
 0002:000054ec       ??_C@_1M@JKFFICHJ@?$AAe?$AAs?$AA?9?$AAv?$AAe@ 100244ec     libucrt:lcidtoname_downlevel.obj
 0002:000054f8       ??_C@_1M@PNMLOJDF@?$AAe?$AAt?$AA?9?$AAe?$AAe@ 100244f8     libucrt:lcidtoname_downlevel.obj
 0002:00005504       ??_C@_1M@GHHLIKEI@?$AAe?$AAu?$AA?9?$AAe?$AAs@ 10024504     libucrt:lcidtoname_downlevel.obj
 0002:00005510       ??_C@_1M@PBNONODE@?$AAf?$AAa?$AA?9?$AAi?$AAr@ 10024510     libucrt:lcidtoname_downlevel.obj
 0002:0000551c       ??_C@_1M@JEEHPMIL@?$AAf?$AAi?$AA?9?$AAf?$AAi@ 1002451c     libucrt:lcidtoname_downlevel.obj
 0002:00005528       ??_C@_1M@LMDCNDBA@?$AAf?$AAo?$AA?9?$AAf?$AAo@ 10024528     libucrt:lcidtoname_downlevel.obj
 0002:00005534       ??_C@_1M@JKEOHLDK@?$AAf?$AAr?$AA?9?$AAb?$AAe@ 10024534     libucrt:lcidtoname_downlevel.obj
 0002:00005540       ??_C@_1M@NOHADPMI@?$AAf?$AAr?$AA?9?$AAc?$AAa@ 10024540     libucrt:lcidtoname_downlevel.obj
 0002:0000554c       ??_C@_1M@KDHIHAEC@?$AAf?$AAr?$AA?9?$AAc?$AAh@ 1002454c     libucrt:lcidtoname_downlevel.obj
 0002:00005558       ??_C@_1M@MMBBFGAK@?$AAf?$AAr?$AA?9?$AAf?$AAr@ 10024558     libucrt:lcidtoname_downlevel.obj
 0002:00005564       ??_C@_1M@PAFNENNF@?$AAf?$AAr?$AA?9?$AAl?$AAu@ 10024564     libucrt:lcidtoname_downlevel.obj
 0002:00005570       ??_C@_1M@EOHDJGDD@?$AAf?$AAr?$AA?9?$AAm?$AAc@ 10024570     libucrt:lcidtoname_downlevel.obj
 0002:0000557c       ??_C@_1M@FAPLLOPF@?$AAg?$AAl?$AA?9?$AAe?$AAs@ 1002457c     libucrt:lcidtoname_downlevel.obj
 0002:00005588       ??_C@_1M@FOPBFLOO@?$AAg?$AAu?$AA?9?$AAi?$AAn@ 10024588     libucrt:lcidtoname_downlevel.obj
 0002:00005594       ??_C@_1M@KBMCINPM@?$AAh?$AAe?$AA?9?$AAi?$AAl@ 10024594     libucrt:lcidtoname_downlevel.obj
 0002:000055a0       ??_C@_1M@BBPHKFPJ@?$AAh?$AAi?$AA?9?$AAi?$AAn@ 100245a0     libucrt:lcidtoname_downlevel.obj
 0002:000055ac       ??_C@_1M@PMBNDPHD@?$AAh?$AAr?$AA?9?$AAb?$AAa@ 100245ac     libucrt:lcidtoname_downlevel.obj
 0002:000055b8       ??_C@_1M@BPCKOEGE@?$AAh?$AAr?$AA?9?$AAh?$AAr@ 100245b8     libucrt:lcidtoname_downlevel.obj
 0002:000055c4       ??_C@_1M@GACBMHKE@?$AAh?$AAu?$AA?9?$AAh?$AAu@ 100245c4     libucrt:lcidtoname_downlevel.obj
 0002:000055d0       ??_C@_1M@MILPAJJC@?$AAh?$AAy?$AA?9?$AAa?$AAm@ 100245d0     libucrt:lcidtoname_downlevel.obj
 0002:000055dc       ??_C@_1M@BABBICEC@?$AAi?$AAd?$AA?9?$AAi?$AAd@ 100245dc     libucrt:lcidtoname_downlevel.obj
 0002:000055e8       ??_C@_1M@BIKNHHPF@?$AAi?$AAs?$AA?9?$AAi?$AAs@ 100245e8     libucrt:lcidtoname_downlevel.obj
 0002:000055f4       ??_C@_1M@NMPCJPHE@?$AAi?$AAt?$AA?9?$AAc?$AAh@ 100245f4     libucrt:lcidtoname_downlevel.obj
 0002:00005600       ??_C@_1M@GHKGFEDF@?$AAi?$AAt?$AA?9?$AAi?$AAt@ 10024600     libucrt:lcidtoname_downlevel.obj
 0002:0000560c       ??_C@_1M@NIEJCJJA@?$AAj?$AAa?$AA?9?$AAj?$AAp@ 1002460c     libucrt:lcidtoname_downlevel.obj
 0002:00005618       ??_C@_1M@JILFNBIM@?$AAk?$AAa?$AA?9?$AAg?$AAe@ 10024618     libucrt:lcidtoname_downlevel.obj
 0002:00005624       ??_C@_1M@PACPMGPH@?$AAk?$AAk?$AA?9?$AAk?$AAz@ 10024624     libucrt:lcidtoname_downlevel.obj
 0002:00005630       ??_C@_1M@IELFGMHA@?$AAk?$AAn?$AA?9?$AAi?$AAn@ 10024630     libucrt:lcidtoname_downlevel.obj
 0002:0000563c       ??_C@_1O@IBBJHCH@?$AAk?$AAo?$AAk?$AA?9?$AAi?$AAn@ 1002463c     libucrt:lcidtoname_downlevel.obj
 0002:0000564c       ??_C@_1M@DMHAEOGC@?$AAk?$AAo?$AA?9?$AAk?$AAr@ 1002464c     libucrt:lcidtoname_downlevel.obj
 0002:00005658       ??_C@_1M@HBAHBIGA@?$AAk?$AAy?$AA?9?$AAk?$AAg@ 10024658     libucrt:lcidtoname_downlevel.obj
 0002:00005664       ??_C@_1M@KPMILCJG@?$AAl?$AAt?$AA?9?$AAl?$AAt@ 10024664     libucrt:lcidtoname_downlevel.obj
 0002:00005670       ??_C@_1M@BDEKKCA@?$AAl?$AAv?$AA?9?$AAl?$AAv@ 10024670     libucrt:lcidtoname_downlevel.obj
 0002:0000567c       ??_C@_1M@ELCKCCJJ@?$AAm?$AAi?$AA?9?$AAn?$AAz@ 1002467c     libucrt:lcidtoname_downlevel.obj
 0002:00005688       ??_C@_1M@CBOOLAPA@?$AAm?$AAk?$AA?9?$AAm?$AAk@ 10024688     libucrt:lcidtoname_downlevel.obj
 0002:00005694       ??_C@_1M@GPHNBJKN@?$AAm?$AAl?$AA?9?$AAi?$AAn@ 10024694     libucrt:lcidtoname_downlevel.obj
 0002:000056a0       ??_C@_1M@PABJILIG@?$AAm?$AAn?$AA?9?$AAm?$AAn@ 100246a0     libucrt:lcidtoname_downlevel.obj
 0002:000056ac       ??_C@_1M@FGBKKIPG@?$AAm?$AAr?$AA?9?$AAi?$AAn@ 100246ac     libucrt:lcidtoname_downlevel.obj
 0002:000056b8       ??_C@_1M@NDBPDDAL@?$AAm?$AAs?$AA?9?$AAb?$AAn@ 100246b8     libucrt:lcidtoname_downlevel.obj
 0002:000056c4       ??_C@_1M@OPIHOOPI@?$AAm?$AAs?$AA?9?$AAm?$AAy@ 100246c4     libucrt:lcidtoname_downlevel.obj
 0002:000056d0       ??_C@_1M@PPDBCNFM@?$AAm?$AAt?$AA?9?$AAm?$AAt@ 100246d0     libucrt:lcidtoname_downlevel.obj
 0002:000056dc       ??_C@_1M@KDJDKMDD@?$AAn?$AAb?$AA?9?$AAn?$AAo@ 100246dc     libucrt:lcidtoname_downlevel.obj
 0002:000056e8       ??_C@_1M@KFCFLMJP@?$AAn?$AAl?$AA?9?$AAb?$AAe@ 100246e8     libucrt:lcidtoname_downlevel.obj
 0002:000056f4       ??_C@_1M@KPOPDDGO@?$AAn?$AAl?$AA?9?$AAn?$AAl@ 100246f4     libucrt:lcidtoname_downlevel.obj
 0002:00005700       ??_C@_1M@LJKPEMLN@?$AAn?$AAn?$AA?9?$AAn?$AAo@ 10024700     libucrt:lcidtoname_downlevel.obj
 0002:0000570c       ??_C@_1M@BDGHHBFL@?$AAn?$AAs?$AA?9?$AAz?$AAa@ 1002470c     libucrt:lcidtoname_downlevel.obj
 0002:00005718       ??_C@_1M@IDEHOAP@?$AAp?$AAa?$AA?9?$AAi?$AAn@ 10024718     libucrt:lcidtoname_downlevel.obj
 0002:00005724       ??_C@_1M@HDBKGOGH@?$AAp?$AAl?$AA?9?$AAp?$AAl@ 10024724     libucrt:lcidtoname_downlevel.obj
 0002:00005730       ??_C@_1M@LJLLCMEH@?$AAp?$AAt?$AA?9?$AAb?$AAr@ 10024730     libucrt:lcidtoname_downlevel.obj
 0002:0000573c       ??_C@_1M@NCMONAAL@?$AAp?$AAt?$AA?9?$AAp?$AAt@ 1002473c     libucrt:lcidtoname_downlevel.obj
 0002:00005748       ??_C@_1O@EAKMAJDN@?$AAq?$AAu?$AAz?$AA?9?$AAb?$AAo@ 10024748     libucrt:lcidtoname_downlevel.obj
 0002:00005758       ??_C@_1O@BHHPIGDN@?$AAq?$AAu?$AAz?$AA?9?$AAe?$AAc@ 10024758     libucrt:lcidtoname_downlevel.obj
 0002:00005768       ??_C@_1O@GBAPEKMJ@?$AAq?$AAu?$AAz?$AA?9?$AAp?$AAe@ 10024768     libucrt:lcidtoname_downlevel.obj
 0002:00005778       ??_C@_1M@CLGLEFBO@?$AAr?$AAo?$AA?9?$AAr?$AAo@ 10024778     libucrt:lcidtoname_downlevel.obj
 0002:00005784       ??_C@_1M@CEEDODME@?$AAr?$AAu?$AA?9?$AAr?$AAu@ 10024784     libucrt:lcidtoname_downlevel.obj
 0002:00005790       ??_C@_1M@HPKKKMPP@?$AAs?$AAa?$AA?9?$AAi?$AAn@ 10024790     libucrt:lcidtoname_downlevel.obj
 0002:0000579c       ??_C@_1M@BKMAIGOJ@?$AAs?$AAe?$AA?9?$AAf?$AAi@ 1002479c     libucrt:lcidtoname_downlevel.obj
 0002:000057a8       ??_C@_1M@NDPIFLFI@?$AAs?$AAe?$AA?9?$AAn?$AAo@ 100247a8     libucrt:lcidtoname_downlevel.obj
 0002:000057b4       ??_C@_1M@DANKKHJ@?$AAs?$AAe?$AA?9?$AAs?$AAe@ 100247b4     libucrt:lcidtoname_downlevel.obj
 0002:000057c0       ??_C@_1M@PNBLONPJ@?$AAs?$AAk?$AA?9?$AAs?$AAk@ 100247c0     libucrt:lcidtoname_downlevel.obj
 0002:000057cc       ??_C@_1M@LFMODOAL@?$AAs?$AAl?$AA?9?$AAs?$AAi@ 100247cc     libucrt:lcidtoname_downlevel.obj
 0002:000057d8       ??_C@_1O@DFKOMPG@?$AAs?$AAm?$AAa?$AA?9?$AAn?$AAo@ 100247d8     libucrt:lcidtoname_downlevel.obj
 0002:000057e8       ??_C@_1O@NDKPBNNH@?$AAs?$AAm?$AAa?$AA?9?$AAs?$AAe@ 100247e8     libucrt:lcidtoname_downlevel.obj
 0002:000057f8       ??_C@_1O@PLLKBHAB@?$AAs?$AAm?$AAj?$AA?9?$AAn?$AAo@ 100247f8     libucrt:lcidtoname_downlevel.obj
 0002:00005808       ??_C@_1O@CLEPOGCA@?$AAs?$AAm?$AAj?$AA?9?$AAs?$AAe@ 10024808     libucrt:lcidtoname_downlevel.obj
 0002:00005818       ??_C@_1O@DLGJGKMK@?$AAs?$AAm?$AAn?$AA?9?$AAf?$AAi@ 10024818     libucrt:lcidtoname_downlevel.obj
 0002:00005828       ??_C@_1O@OJDJGAJC@?$AAs?$AAm?$AAs?$AA?9?$AAf?$AAi@ 10024828     libucrt:lcidtoname_downlevel.obj
 0002:00005838       ??_C@_1M@BOFOGHPB@?$AAs?$AAq?$AA?9?$AAa?$AAl@ 10024838     libucrt:lcidtoname_downlevel.obj
 0002:00005844       ??_C@_1BG@LJBBIPGB@?$AAs?$AAr?$AA?9?$AAb?$AAa?$AA?9?$AAc?$AAy?$AAr?$AAl@ 10024844     libucrt:lcidtoname_downlevel.obj
 0002:0000585c       ??_C@_1BG@JLBENFOE@?$AAs?$AAr?$AA?9?$AAb?$AAa?$AA?9?$AAl?$AAa?$AAt?$AAn@ 1002485c     libucrt:lcidtoname_downlevel.obj
 0002:00005874       ??_C@_1BG@KODPNHE@?$AAs?$AAr?$AA?9?$AAs?$AAp?$AA?9?$AAc?$AAy?$AAr?$AAl@ 10024874     libucrt:lcidtoname_downlevel.obj
 0002:0000588c       ??_C@_1BG@CIOGKHPB@?$AAs?$AAr?$AA?9?$AAs?$AAp?$AA?9?$AAl?$AAa?$AAt?$AAn@ 1002488c     libucrt:lcidtoname_downlevel.obj
 0002:000058a4       ??_C@_1M@NGFJLMAC@?$AAs?$AAv?$AA?9?$AAf?$AAi@ 100248a4     libucrt:lcidtoname_downlevel.obj
 0002:000058b0       ??_C@_1M@MPJEJAJC@?$AAs?$AAv?$AA?9?$AAs?$AAe@ 100248b0     libucrt:lcidtoname_downlevel.obj
 0002:000058bc       ??_C@_1M@MPNDHLFK@?$AAs?$AAw?$AA?9?$AAk?$AAe@ 100248bc     libucrt:lcidtoname_downlevel.obj
 0002:000058c8       ??_C@_1O@KOHBJJI@?$AAs?$AAy?$AAr?$AA?9?$AAs?$AAy@ 100248c8     libucrt:lcidtoname_downlevel.obj
 0002:000058d8       ??_C@_1M@LDCEFHA@?$AAt?$AAa?$AA?9?$AAi?$AAn@ 100248d8     libucrt:lcidtoname_downlevel.obj
 0002:000058e4       ??_C@_1M@CNJOFAK@?$AAt?$AAe?$AA?9?$AAi?$AAn@ 100248e4     libucrt:lcidtoname_downlevel.obj
 0002:000058f0       ??_C@_1M@GNAECACD@?$AAt?$AAh?$AA?9?$AAt?$AAh@ 100248f0     libucrt:lcidtoname_downlevel.obj
 0002:000058fc       ??_C@_1M@CHBIHOJO@?$AAt?$AAn?$AA?9?$AAz?$AAa@ 100248fc     libucrt:lcidtoname_downlevel.obj
 0002:00005908       ??_C@_1M@GCCMIGPJ@?$AAt?$AAr?$AA?9?$AAt?$AAr@ 10024908     libucrt:lcidtoname_downlevel.obj
 0002:00005914       ??_C@_1M@CELMCNBK@?$AAt?$AAt?$AA?9?$AAr?$AAu@ 10024914     libucrt:lcidtoname_downlevel.obj
 0002:00005920       ??_C@_1M@KLMCELGA@?$AAu?$AAk?$AA?9?$AAu?$AAa@ 10024920     libucrt:lcidtoname_downlevel.obj
 0002:0000592c       ??_C@_1M@EPAJJAJF@?$AAu?$AAr?$AA?9?$AAp?$AAk@ 1002492c     libucrt:lcidtoname_downlevel.obj
 0002:00005938       ??_C@_1BG@GEGPMCDJ@?$AAu?$AAz?$AA?9?$AAu?$AAz?$AA?9?$AAc?$AAy?$AAr?$AAl@ 10024938     libucrt:lcidtoname_downlevel.obj
 0002:00005950       ??_C@_1BG@EGGKJILM@?$AAu?$AAz?$AA?9?$AAu?$AAz?$AA?9?$AAl?$AAa?$AAt?$AAn@ 10024950     libucrt:lcidtoname_downlevel.obj
 0002:00005968       ??_C@_1M@GFOCLFF@?$AAv?$AAi?$AA?9?$AAv?$AAn@ 10024968     libucrt:lcidtoname_downlevel.obj
 0002:00005974       ??_C@_1M@CPAMEDFI@?$AAx?$AAh?$AA?9?$AAz?$AAa@ 10024974     libucrt:lcidtoname_downlevel.obj
 0002:00005980       ??_C@_1O@EBKIFIGN@?$AAz?$AAh?$AA?9?$AAc?$AAh?$AAs@ 10024980     libucrt:lcidtoname_downlevel.obj
 0002:00005990       ??_C@_1O@NMHPGANE@?$AAz?$AAh?$AA?9?$AAc?$AAh?$AAt@ 10024990     libucrt:lcidtoname_downlevel.obj
 0002:000059a0       ??_C@_1M@LPINJOMC@?$AAz?$AAh?$AA?9?$AAc?$AAn@ 100249a0     libucrt:lcidtoname_downlevel.obj
 0002:000059ac       ??_C@_1M@OCJEJODD@?$AAz?$AAh?$AA?9?$AAh?$AAk@ 100249ac     libucrt:lcidtoname_downlevel.obj
 0002:000059b8       ??_C@_1M@DNDLJINH@?$AAz?$AAh?$AA?9?$AAm?$AAo@ 100249b8     libucrt:lcidtoname_downlevel.obj
 0002:000059c4       ??_C@_1M@MBFDNDND@?$AAz?$AAh?$AA?9?$AAs?$AAg@ 100249c4     libucrt:lcidtoname_downlevel.obj
 0002:000059d0       ??_C@_1M@IMEPLEPE@?$AAz?$AAh?$AA?9?$AAt?$AAw@ 100249d0     libucrt:lcidtoname_downlevel.obj
 0002:000059dc       ??_C@_1M@BBGHNHJP@?$AAz?$AAu?$AA?9?$AAz?$AAa@ 100249dc     libucrt:lcidtoname_downlevel.obj
 0002:000059e8       ?large_power_data@?1??multiply_by_power_of_ten@__crt_strtox@@YA_NAAUbig_integer@2@I@Z@4QBIB 100249e8     libucrt:cfout.obj
 0002:00006388       ?small_powers_of_ten@?1??multiply_by_power_of_ten@__crt_strtox@@YA_NAAUbig_integer@2@I@Z@4QBIB 10025388     libucrt:cfout.obj
 0002:000063ac       ??_C@_01GBGANLPD@0@        100253ac     libucrt:cfout.obj
 0002:000063b0       ??_C@_05DNEBIAHO@1?$CDINF@ 100253b0     libucrt:cfout.obj
 0002:000063b8       ??_C@_06IMKFLFPG@1?$CDQNAN@ 100253b8     libucrt:cfout.obj
 0002:000063c0       ??_C@_06PGGFOGJG@1?$CDSNAN@ 100253c0     libucrt:cfout.obj
 0002:000063c8       ??_C@_05PHHOCPM@1?$CDIND@  100253c8     libucrt:cfout.obj
 0002:00006530       __infinity                 10025530     libucrt:87tran.obj
 0002:0000653a       __minfinity                1002553a     libucrt:87tran.obj
 0002:00006544       __logemax                  10025544     libucrt:87tran.obj
 0002:0000656a       __OP_EXPjmptab             1002556a     libucrt:87tran.obj
 0002:00006590       __indefinite               10025590     libucrt:87disp.obj
 0002:0000659a       __piby2                    1002559a     libucrt:87disp.obj
 0002:000065a4       __piby4                    100255a4     libucrt:87disp.obj
 0002:000065d8       __DEFAULT_CW_in_mem        100255d8     libucrt:common.obj
 0002:000065da       __pi_by_2_to_61            100255da     libucrt:common.obj
 0002:00006614       ??_C@_03MGHMBJCF@log@      10025614     libucrt:libm_error.obj
 0002:00006618       ??_C@_05HGHHAHAP@log10@    10025618     libucrt:libm_error.obj
 0002:00006620       ??_C@_03KHJOGHMM@exp@      10025620     libucrt:libm_error.obj
 0002:00006624       ??_C@_03JGHBODFD@pow@      10025624     libucrt:libm_error.obj
 0002:00006628       ??_C@_04FIHNOPOL@asin@     10025628     libucrt:libm_error.obj
 0002:00006630       ??_C@_04PDIFKINK@acos@     10025630     libucrt:libm_error.obj
 0002:00006638       ??_C@_04EIAKFFMI@sqrt@     10025638     libucrt:libm_error.obj
 0002:00006640       __real@3ff0000000000000    10025640     libucrt:libm_error.obj
 0002:00006648       ??_C@_1BA@BALFACEM@?$AAC?$AAO?$AAN?$AAO?$AAU?$AAT?$AA$@ 10025648     libucrt:initcon.obj
 0002:00006670       ___acrt_log10_table_t      10025670     libucrt:log10_tables.obj
 0002:00006a80       ___acrt_log10_table_cb     10025a80     libucrt:log10_tables.obj
 0002:00006e90       __real@3fe0000000000000    10025e90     libucrt:powhlp.obj
 0002:00006f80       ??_C@_04COOMCNPB@sinh@     10025f80     libucrt:fpexcept.obj
 0002:00006f88       ??_C@_04HPJJNFIM@cosh@     10025f88     libucrt:fpexcept.obj
 0002:00006f90       ??_C@_04FJHINJAO@tanh@     10025f90     libucrt:fpexcept.obj
 0002:00006f98       ??_C@_04MLLJIGOK@atan@     10025f98     libucrt:fpexcept.obj
 0002:00006fa0       ??_C@_05KNGEOGJB@atan2@    10025fa0     libucrt:fpexcept.obj
 0002:00006fa8       ??_C@_03BLEJJJBH@sin@      10025fa8     libucrt:fpexcept.obj
 0002:00006fac       ??_C@_03LALBNOCG@cos@      10025fac     libucrt:fpexcept.obj
 0002:00006fb0       ??_C@_03IIINPABG@tan@      10025fb0     libucrt:fpexcept.obj
 0002:00006fb4       ??_C@_04GFPJNGEK@ceil@     10025fb4     libucrt:fpexcept.obj
 0002:00006fbc       ??_C@_05PBJFFIGL@floor@    10025fbc     libucrt:fpexcept.obj
 0002:00006fc4       ??_C@_04ODHECPBC@fabs@     10025fc4     libucrt:fpexcept.obj
 0002:00006fcc       ??_C@_04EHEDPDJG@modf@     10025fcc     libucrt:fpexcept.obj
 0002:00006fd4       ??_C@_05CEJMAHNP@ldexp@    10025fd4     libucrt:fpexcept.obj
 0002:00006fdc       ??_C@_05KBKMEMPO@_cabs@    10025fdc     libucrt:fpexcept.obj
 0002:00006fe4       ??_C@_06MEIMCGCF@_hypot@   10025fe4     libucrt:fpexcept.obj
 0002:00006fec       ??_C@_04KEPJIHGP@fmod@     10025fec     libucrt:fpexcept.obj
 0002:00006ff4       ??_C@_05GKKHEGJL@frexp@    10025ff4     libucrt:fpexcept.obj
 0002:00006ffc       ??_C@_03MJLDFKDL@_y0@      10025ffc     libucrt:fpexcept.obj
 0002:00007000       ??_C@_03NAKIGLHK@_y1@      10026000     libucrt:fpexcept.obj
 0002:00007004       ??_C@_03ONILCKOB@_yn@      10026004     libucrt:fpexcept.obj
 0002:00007008       ??_C@_05JGDBENOH@_logb@    10026008     libucrt:fpexcept.obj
 0002:00007010       ??_C@_0L@KDOEJCKC@_nextafter@ 10026010     libucrt:fpexcept.obj
 0002:00007020       __d_inf                    10026020     libucrt:util.obj
 0002:00007028       __d_max                    10026028     libucrt:util.obj
 0002:00007030       __d_mzero                  10026030     libucrt:util.obj
 0002:000070a8       __load_config_used         100260a8     LIBCMT:loadcfg.obj
 0002:0000714c       __tls_used                 1002614c     LIBCMT:tlssup.obj
 0002:00007164       ??_R4exception@std@@6B@    10026164     LIBCMT:throw_bad_alloc.obj
 0002:00007178       ??_R3exception@std@@8      10026178     LIBCMT:throw_bad_alloc.obj
 0002:00007188       ??_R2exception@std@@8      10026188     LIBCMT:throw_bad_alloc.obj
 0002:00007190       ??_R1A@?0A@EA@exception@std@@8 10026190     LIBCMT:throw_bad_alloc.obj
 0002:000071ac       ??_R4bad_alloc@std@@6B@    100261ac     LIBCMT:throw_bad_alloc.obj
 0002:000071c0       ??_R3bad_alloc@std@@8      100261c0     LIBCMT:throw_bad_alloc.obj
 0002:000071d0       ??_R2bad_alloc@std@@8      100261d0     LIBCMT:throw_bad_alloc.obj
 0002:000071dc       ??_R1A@?0A@EA@bad_alloc@std@@8 100261dc     LIBCMT:throw_bad_alloc.obj
 0002:000071f8       ??_R4bad_array_new_length@std@@6B@ 100261f8     LIBCMT:throw_bad_alloc.obj
 0002:0000720c       ??_R3bad_array_new_length@std@@8 1002620c     LIBCMT:throw_bad_alloc.obj
 0002:0000721c       ??_R2bad_array_new_length@std@@8 1002621c     LIBCMT:throw_bad_alloc.obj
 0002:0000722c       ??_R1A@?0A@EA@bad_array_new_length@std@@8 1002622c     LIBCMT:throw_bad_alloc.obj
 0002:00007248       ??_R4type_info@@6B@        10026248     LIBCMT:std_type_info_static.obj
 0002:0000725c       ??_R3type_info@@8          1002625c     LIBCMT:std_type_info_static.obj
 0002:0000726c       ??_R2type_info@@8          1002626c     LIBCMT:std_type_info_static.obj
 0002:00007274       ??_R1A@?0A@EA@type_info@@8 10026274     LIBCMT:std_type_info_static.obj
 0002:00007290       ??_R4bad_exception@std@@6B@ 10026290     libvcruntime:frame.obj
 0002:000072a4       ??_R3bad_exception@std@@8  100262a4     libvcruntime:frame.obj
 0002:000072b4       ??_R2bad_exception@std@@8  100262b4     libvcruntime:frame.obj
 0002:000072c0       ??_R1A@?0A@EA@bad_exception@std@@8 100262c0     libvcruntime:frame.obj
 0002:000072e0       ___safe_se_handler_table   100262e0     <linker-defined>
 0002:000076d8       ___rtc_iaa                 100266d8     LIBCMT:initsect.obj
 0002:000076dc       ___rtc_izz                 100266dc     LIBCMT:initsect.obj
 0002:000076e0       ___rtc_taa                 100266e0     LIBCMT:initsect.obj
 0002:000076e4       ___rtc_tzz                 100266e4     LIBCMT:initsect.obj
 0002:000076e8       __tls_start                100266e8     LIBCMT:tlssup.obj
 0002:000076ec       __Init_thread_epoch        100266ec     LIBCMT:thread_safe_statics.obj
 0002:000076f0       __tls_end                  100266f0     LIBCMT:tlssup.obj
 0002:000077f4       __TI2?AVbad_alloc@std@@    100267f4     LIBCMT:throw_bad_alloc.obj
 0002:00007804       __CTA2?AVbad_alloc@std@@   10026804     LIBCMT:throw_bad_alloc.obj
 0002:00007810       __CT??_R0?AVbad_alloc@std@@@8??0bad_alloc@std@@QAE@ABV01@@Z12 10026810     LIBCMT:throw_bad_alloc.obj
 0002:0000782c       __CT??_R0?AVexception@std@@@8??0exception@std@@QAE@ABV01@@Z12 1002682c     LIBCMT:throw_bad_alloc.obj
 0002:00007848       __TI3?AVbad_array_new_length@std@@ 10026848     LIBCMT:throw_bad_alloc.obj
 0002:00007858       __CTA3?AVbad_array_new_length@std@@ 10026858     LIBCMT:throw_bad_alloc.obj
 0002:00007868       __CT??_R0?AVbad_array_new_length@std@@@8??0bad_array_new_length@std@@QAE@ABV01@@Z12 10026868     LIBCMT:throw_bad_alloc.obj
 0002:0000798c       __TI2?AVbad_exception@std@@ 1002698c     libvcruntime:frame.obj
 0002:0000799c       __CTA2?AVbad_exception@std@@ 1002699c     libvcruntime:frame.obj
 0002:000079a8       __CT??_R0?AVbad_exception@std@@@8??0bad_exception@std@@QAE@ABV01@@Z12 100269a8     libvcruntime:frame.obj
 0002:00007d04       ___pobjMapEntryFirst       10026d04     OposVariant.obj
 0002:00007d08       ___pobjMapEntryLast        10026d08     OposVariant.obj
 0002:00007db8       __IMPORT_DESCRIPTOR_KERNEL32 10026db8     kernel32:KERNEL32.dll
 0002:00007dcc       __IMPORT_DESCRIPTOR_USER32 10026dcc     user32:USER32.dll
 0002:00007de0       __IMPORT_DESCRIPTOR_GDI32  10026de0     gdi32:GDI32.dll
 0002:00007df4       __IMPORT_DESCRIPTOR_ADVAPI32 10026df4     advapi32:ADVAPI32.dll
 0002:00007e08       __IMPORT_DESCRIPTOR_ole32  10026e08     ole32:ole32.dll
 0002:00007e1c       __IMPORT_DESCRIPTOR_OLEAUT32 10026e1c     oleaut32:OLEAUT32.dll
 0002:00007e30       __NULL_IMPORT_DESCRIPTOR   10026e30     kernel32:KERNEL32.dll
 0003:00000000       ?s_Claim@?7??GetIDsOfNames@CComTypeInfoHolder@ATL@@QAEJABU_GUID@@PAPA_WIKPAJ@Z@4PA_WA 10028000     Lights.obj
 0003:00000018       ?s_Release@?7??GetIDsOfNames@CComTypeInfoHolder@ATL@@QAEJABU_GUID@@PAPA_WIKPAJ@Z@4PA_WA 10028018     Lights.obj
 0003:00000034       ?_tih@?$IDispatchImpl@UIOPOSLights@@$1?IID_IOPOSLights@@3U_GUID@@B$1?LIBID_OposLights_CCO@@3U3@B$00$0A@VCComTypeInfoHolder@ATL@@@ATL@@1VCComTypeInfoHolder@2@A 10028034     Lights.obj
 0003:00000050       ?_tih@?$IProvideClassInfo2Impl@$1?CLSID_OPOSLights@@3U_GUID@@B$1?DIID__IOPOSLightsEvents@@3U2@B$1?LIBID_OposLights_CCO@@3U2@B$00$0A@VCComTypeInfoHolder@ATL@@@ATL@@1VCComTypeInfoHolder@2@A 10028050     Lights.obj
 0003:0000006c       ?vszContents@?6??Save@?$IPersistStorageImpl@VCOPOSLights@@@ATL@@UAGJPAUIStorage@@H@Z@4PB_WB 1002806c     Lights.obj
 0003:00000070       ?wc@?1??GetWndClassInfo@?$CWindowImpl@VCOPOSLights@@VCWindow@ATL@@V?$CWinTraits@$0FGAAAAAA@$0A@@3@@ATL@@SAAAU_ATL_WNDCLASSINFOW@3@XZ@4U43@A 10028070     Lights.obj
 0003:000000fc       ?rcDefault@CWindow@ATL@@2UtagRECT@@A 100280fc     Lights.obj
 0003:00000158       ?g_WindowName@@3PA_WA      10028158     LightsImpl.obj
 0003:00000174       ?g_ControlVersion@@3JA     10028174     LightsImpl.obj
 0003:00000178       ?g_ControlDescription@@3PADA 10028178     LightsImpl.obj
 0003:00000210       ___scrt_native_dllmain_reason 10028210     LIBCMT:utility.obj
 0003:00000214       __Init_global_epoch        10028214     LIBCMT:thread_safe_statics.obj
 0003:00000220       ___security_cookie_complement 10028220     LIBCMT:gs_cookie.obj
 0003:00000224       ___security_cookie         10028224     LIBCMT:gs_cookie.obj
 0003:00000228       ___isa_enabled             10028228     LIBCMT:cpu_disp.obj
 0003:00000240       __NLG_Destination          10028240     libvcruntime:exsup.obj
 0003:00000258       ___abort_behavior          10028258     libucrt:abort.obj
 0003:00000268       __iob                      10028268     libucrt:_file.obj
 0003:00000310       ___acrt_initial_locale_data 10028310     libucrt:nlsdata.obj
 0003:000003c8       ___acrt_initial_locale_pointers 100283c8     libucrt:nlsdata.obj
 0003:000003d0       ___acrt_wide_c_locale_string 100283d0     libucrt:nlsdata.obj
 0003:000003d8       ___acrt_initial_multibyte_data 100283d8     libucrt:mbctype.obj
 0003:000008f8       __pwctype                  100288f8     libucrt:ctype.obj
 0003:000008fc       ___globallocalestatus      100288fc     libucrt:glstatus.obj
 0003:00000900       ___acrt_lconv_c            10028900     libucrt:localeconv.obj
 0003:00000950       ___acrt_lconv_static_decimal 10028950     libucrt:localeconv.obj
 0003:00000954       ___acrt_lconv_static_W_decimal 10028954     libucrt:localeconv.obj
 0003:00000960       __lookuptrailbytes         10028960     libucrt:read.obj
 0003:00000a70       __fltused                  10028a70     LIBCMT:fltused.obj
 0003:00000a80       ??_R0?AVbad_alloc@std@@@8  10028a80     LIBCMT:throw_bad_alloc.obj
 0003:00000a9c       ??_R0?AVexception@std@@@8  10028a9c     LIBCMT:throw_bad_alloc.obj
 0003:00000ab8       ??_R0?AVbad_array_new_length@std@@@8 10028ab8     LIBCMT:throw_bad_alloc.obj
 0003:00000ae0       ??_R0?AVtype_info@@@8      10028ae0     LIBCMT:std_type_info_static.obj
 0003:00000af8       ??_R0?AVbad_exception@std@@@8 10028af8     libvcruntime:frame.obj
 0003:00000b18       ?_pPerfRegFunc@ATL@@3P6AJPAUHINSTANCE__@@@ZA 10028b18     OposVariant.obj
 0003:00000b1c       ?_pPerfUnRegFunc@ATL@@3P6AJXZA 10028b1c     OposVariant.obj
 0003:00000b20       ?_AtlRegisterPerUser@ATL@@3_NA 10028b20     OposVariant.obj
 0003:00000b24       ?_pAtlModule@ATL@@3PAVCAtlModule@1@A 10028b24     OposVariant.obj
 0003:00000b28       ?_pModule@ATL@@3PAVCComModule@1@A 10028b28     OposVariant.obj
 0003:00000b2c       ?m_bInitFailed@CAtlBaseModule@ATL@@2_NA 10028b2c     OposVariant.obj
 0003:00000b30       ?_AtlComModule@ATL@@3VCAtlComModule@1@A 10028b30     OposVariant.obj
 0003:00000b58       ?_AtlWinModule@ATL@@3VCAtlWinModule@1@A 10028b58     OposVariant.obj
 0003:00000b84       ?m_libid@CAtlModule@ATL@@2U_GUID@@A 10028b84     Lights.obj
 0003:00000b94       ?_entries@?1??GetConnMap@COPOSLights@@SAPBU_ATL_CONNMAP_ENTRY@ATL@@PAH@Z@4QBU34@B 10028b94     Lights.obj
 0003:00000ba0       ?$TSS0@?1??GetConnMap@COPOSLights@@SAPBU_ATL_CONNMAP_ENTRY@ATL@@PAH@Z@4HA 10028ba0     Lights.obj
 0003:00000ba8       ?_OptionsStorage@?1??__local_stdio_printf_options@@9@4_KA 10028ba8     Lights.obj
 0003:00000bb0       ?pfnRegDeleteKeyEx@?1??DeleteSubKey@CRegKey@ATL@@QAEJPB_W@Z@4P6GJPAUHKEY__@@0KK@ZA 10028bb0     Lights.obj
 0003:00000bb4       ?bInitialized@?1??DeleteSubKey@CRegKey@ATL@@QAEJPB_W@Z@4_NA 10028bb4     Lights.obj
 0003:00000bb8       ?_Module@@3VCComModule@ATL@@A 10028bb8     Lights.obj
 0003:00000be8       ?pConnMap@?$IConnectionPointContainerImpl@VCOPOSLights@@@ATL@@0PBU_ATL_CONNMAP_ENTRY@2@B 10028be8     Lights.obj
 0003:00000bec       ?s_nInstances@COPOSLights@@1HA 10028bec     LightsImpl.obj
 0003:00000bf0       ___scrt_current_native_startup_state 10028bf0     LIBCMT:utility.obj
 0003:00000bf4       ___scrt_native_startup_lock 10028bf4     LIBCMT:utility.obj
 0003:00000f5c       __tls_index                10028f5c     LIBCMT:tlssup.obj
 0003:00000f64       ___isa_available           10028f64     LIBCMT:cpu_disp.obj
 0003:00000f68       ___favor                   10028f68     LIBCMT:cpu_disp.obj
 0003:00000f6c       ___scrt_debugger_hook_flag 10028f6c     LIBCMT:utility_desktop.obj
 0003:00000f70       ?__type_info_root_node@@3U__type_info_node@@A 10028f70     LIBCMT:tncleanup.obj
 0003:00000f78       ?_OptionsStorage@?1??__local_stdio_scanf_options@@9@4_KA 10028f78     LIBCMT:default_local_stdio_options.obj
 0003:00000f80       ?_AtlBaseModule@ATL@@3VCAtlBaseModule@1@A 10028f80     atls:atlbase.obj
 0003:00000fb8       ?__AtlThunkPool@@3PAT_SLIST_HEADER@@A 10028fb8     atls:atlthunk.obj
 0003:00000fd0       ___@@_PchSym_@00@UztvmgUPdlipUGUhUrmgvinvwrzgvUexgllohUzgohOmzgrevkilqPBACIAJCBDBUlyqiUcIGUhgwzucOlyq@4B2008FD98C1DD4 10028fd0     atls:stdafx.obj
 0003:00000fd4       ?__WinRTOutOfMemoryExceptionCallback@@3P6GPAXXZA 10028fd4     libvcruntime:ehhelpers.obj
 0003:00000fd8       ___pPurecall               10028fd8     libvcruntime:purevirt_data.obj
 0003:00001020       ?pArgList@UnDecorator@@0PAVReplicator@@A 10029020     libvcruntime:undname.obj
 0003:00001024       ?pZNameList@UnDecorator@@0PAVReplicator@@A 10029024     libvcruntime:undname.obj
 0003:00001028       ?pTemplateArgList@UnDecorator@@0PAVReplicator@@A 10029028     libvcruntime:undname.obj
 0003:0000102c       ?gName@UnDecorator@@0PBDB  1002902c     libvcruntime:undname.obj
 0003:00001030       ?name@UnDecorator@@0PBDB   10029030     libvcruntime:undname.obj
 0003:00001034       ?disableFlags@UnDecorator@@0KA 10029034     libvcruntime:undname.obj
 0003:00001038       ?fExplicitTemplateParams@UnDecorator@@0_NA 10029038     libvcruntime:undname.obj
 0003:00001039       ?fGetTemplateArgumentList@UnDecorator@@0_NA 10029039     libvcruntime:undname.obj
 0003:0000103c       ?m_pGetParameter@UnDecorator@@0P6APADJ@ZA 1002903c     libvcruntime:undname.obj
 0003:00001040       ?m_CHPENameOffset@UnDecorator@@0KA 10029040     libvcruntime:undname.obj
 0003:00001044       ?m_recursionLevel@UnDecorator@@0KA 10029044     libvcruntime:undname.obj
 0003:00001088       ?c_exit_complete@?1???R<lambda_6e4b09c48022b2350581041d5f6b0c4c>@@QBE@XZ@4_NA 10029088     libucrt:exit.obj
 0003:00001198       __environ_table            10029198     libucrt:environment_initialization.obj
 0003:0000119c       __wenviron_table           1002919c     libucrt:environment_initialization.obj
 0003:000011a0       ___dcrt_initial_wide_environment 100291a0     libucrt:environment_initialization.obj
 0003:000011a4       ___dcrt_initial_narrow_environment 100291a4     libucrt:environment_initialization.obj
 0003:000011a8       ___acrt_atexit_table       100291a8     libucrt:onexit.obj
 0003:000011b4       ___acrt_at_quick_exit_table 100291b4     libucrt:onexit.obj
 0003:000012a8       __nstream                  100292a8     libucrt:_file.obj
 0003:000012ac       ___piob                    100292ac     libucrt:_file.obj
 0003:000012b4       ___acrt_stdout_buffer      100292b4     libucrt:_sftbuf.obj
 0003:000012b8       ___acrt_stderr_buffer      100292b8     libucrt:_sftbuf.obj
 0003:000012bc       ___acrt_locale_changed_data 100292bc     libucrt:wsetlocale.obj
 0003:000012c0       ___acrt_current_locale_data 100292c0     libucrt:nlsdata.obj
 0003:000012c8       ___pioinfo                 100292c8     libucrt:ioinit.obj
 0003:000014c8       __nhandle                  100294c8     libucrt:ioinit.obj
 0003:00001624       __mbctype                  10029624     libucrt:mbctype.obj
 0003:00001628       __mbcasemap                10029628     libucrt:mbctype.obj
 0003:0000162c       ___acrt_current_multibyte_data 1002962c     libucrt:mbctype.obj
 0003:00001638       __pgmptr                   10029638     libucrt:argv_data.obj
 0003:0000163c       ___argc                    1002963c     libucrt:argv_data.obj
 0003:00001640       ___argv                    10029640     libucrt:argv_data.obj
 0003:00001644       ___wargv                   10029644     libucrt:argv_data.obj
 0003:00001648       __acmdln                   10029648     libucrt:argv_data.obj
 0003:0000164c       __wcmdln                   1002964c     libucrt:argv_data.obj
 0003:00001650       ___acrt_heap               10029650     libucrt:heap_handle.obj
 0003:0000166c       ___acrt_lconv_static_null  1002966c     libucrt:localeconv.obj
 0003:00001670       ___acrt_lconv_static_W_null 10029670     libucrt:localeconv.obj
 0003:00001680       ___fastflag                10029680     libucrt:fp_flags.obj
 0003:00001688       ___dyn_tls_init_callback   10029688     <common>
 0003:0000168c       ___scrt_ucrt_dll_is_in_use 1002968c     <common>
 0003:00001690       __pmatherr                 10029690     <common>
 0003:00001694       ___use_sse2_mathfcns       10029694     <common>

 entry point at        0001:0000b9d8

 Static symbols

 0000:fffd0000       .debug$S                   10000000     OPOSLights.exp
 0000:fffd0000       .debug$S                   10000000     advapi32:ADVAPI32.dll
 0000:fffd0000       .debug$S                   10000000     advapi32:ADVAPI32.dll
 0000:fffd0000       .debug$S                   10000000     advapi32:ADVAPI32.dll
 0000:fffd0000       .debug$S                   10000000     advapi32:ADVAPI32.dll
 0000:fffd0000       .debug$S                   10000000     advapi32:ADVAPI32.dll
 0000:fffd0000       .debug$S                   10000000     advapi32:ADVAPI32.dll
 0000:fffd0000       .debug$S                   10000000     advapi32:ADVAPI32.dll
 0000:fffd0000       .debug$S                   10000000     advapi32:ADVAPI32.dll
 0000:fffd0000       .debug$S                   10000000     advapi32:ADVAPI32.dll
 0000:fffd0000       .debug$S                   10000000     gdi32:GDI32.dll
 0000:fffd0000       .debug$S                   10000000     gdi32:GDI32.dll
 0000:fffd0000       .debug$S                   10000000     gdi32:GDI32.dll
 0000:fffd0000       .debug$S                   10000000     gdi32:GDI32.dll
 0000:fffd0000       .debug$S                   10000000     gdi32:GDI32.dll
 0000:fffd0000       .debug$S                   10000000     gdi32:GDI32.dll
 0000:fffd0000       .debug$S                   10000000     gdi32:GDI32.dll
 0000:fffd0000       .debug$S                   10000000     gdi32:GDI32.dll
 0000:fffd0000       .debug$S                   10000000     gdi32:GDI32.dll
 0000:fffd0000       .debug$S                   10000000     gdi32:GDI32.dll
 0000:fffd0000       .debug$S                   10000000     gdi32:GDI32.dll
 0000:fffd0000       .debug$S                   10000000     gdi32:GDI32.dll
 0000:fffd0000       .debug$S                   10000000     gdi32:GDI32.dll
 0000:fffd0000       .debug$S                   10000000     gdi32:GDI32.dll
 0000:fffd0000       .debug$S                   10000000     gdi32:GDI32.dll
 0000:fffd0000       .debug$S                   10000000     gdi32:GDI32.dll
 0000:fffd0000       .debug$S                   10000000     gdi32:GDI32.dll
 0000:fffd0000       .debug$S                   10000000     gdi32:GDI32.dll
 0000:fffd0000       .debug$S                   10000000     gdi32:GDI32.dll
 0000:fffd0000       .debug$S                   10000000     kernel32:KERNEL32.dll
 0000:fffd0000       .debug$S                   10000000     kernel32:KERNEL32.dll
 0000:fffd0000       .debug$S                   10000000     kernel32:KERNEL32.dll
 0000:fffd0000       .debug$S                   10000000     kernel32:KERNEL32.dll
 0000:fffd0000       .debug$S                   10000000     kernel32:KERNEL32.dll
 0000:fffd0000       .debug$S                   10000000     kernel32:KERNEL32.dll
 0000:fffd0000       .debug$S                   10000000     kernel32:KERNEL32.dll
 0000:fffd0000       .debug$S                   10000000     kernel32:KERNEL32.dll
 0000:fffd0000       .debug$S                   10000000     kernel32:KERNEL32.dll
 0000:fffd0000       .debug$S                   10000000     kernel32:KERNEL32.dll
 0000:fffd0000       .debug$S                   10000000     kernel32:KERNEL32.dll
 0000:fffd0000       .debug$S                   10000000     kernel32:KERNEL32.dll
 0000:fffd0000       .debug$S                   10000000     kernel32:KERNEL32.dll
 0000:fffd0000       .debug$S                   10000000     kernel32:KERNEL32.dll
 0000:fffd0000       .debug$S                   10000000     kernel32:KERNEL32.dll
 0000:fffd0000       .debug$S                   10000000     kernel32:KERNEL32.dll
 0000:fffd0000       .debug$S                   10000000     kernel32:KERNEL32.dll
 0000:fffd0000       .debug$S                   10000000     kernel32:KERNEL32.dll
 0000:fffd0000       .debug$S                   10000000     kernel32:KERNEL32.dll
 0000:fffd0000       .debug$S                   10000000     kernel32:KERNEL32.dll
 0000:fffd0000       .debug$S                   10000000     kernel32:KERNEL32.dll
 0000:fffd0000       .debug$S                   10000000     kernel32:KERNEL32.dll
 0000:fffd0000       .debug$S                   10000000     kernel32:KERNEL32.dll
 0000:fffd0000       .debug$S                   10000000     kernel32:KERNEL32.dll
 0000:fffd0000       .debug$S                   10000000     kernel32:KERNEL32.dll
 0000:fffd0000       .debug$S                   10000000     kernel32:KERNEL32.dll
 0000:fffd0000       .debug$S                   10000000     kernel32:KERNEL32.dll
 0000:fffd0000       .debug$S                   10000000     kernel32:KERNEL32.dll
 0000:fffd0000       .debug$S                   10000000     kernel32:KERNEL32.dll
 0000:fffd0000       .debug$S                   10000000     kernel32:KERNEL32.dll
 0000:fffd0000       .debug$S                   10000000     kernel32:KERNEL32.dll
 0000:fffd0000       .debug$S                   10000000     kernel32:KERNEL32.dll
 0000:fffd0000       .debug$S                   10000000     kernel32:KERNEL32.dll
 0000:fffd0000       .debug$S                   10000000     kernel32:KERNEL32.dll
 0000:fffd0000       .debug$S                   10000000     kernel32:KERNEL32.dll
 0000:fffd0000       .debug$S                   10000000     kernel32:KERNEL32.dll
 0000:fffd0000       .debug$S                   10000000     kernel32:KERNEL32.dll
 0000:fffd0000       .debug$S                   10000000     kernel32:KERNEL32.dll
 0000:fffd0000       .debug$S                   10000000     kernel32:KERNEL32.dll
 0000:fffd0000       .debug$S                   10000000     kernel32:KERNEL32.dll
 0000:fffd0000       .debug$S                   10000000     kernel32:KERNEL32.dll
 0000:fffd0000       .debug$S                   10000000     kernel32:KERNEL32.dll
 0000:fffd0000       .debug$S                   10000000     kernel32:KERNEL32.dll
 0000:fffd0000       .debug$S                   10000000     kernel32:KERNEL32.dll
 0000:fffd0000       .debug$S                   10000000     kernel32:KERNEL32.dll
 0000:fffd0000       .debug$S                   10000000     kernel32:KERNEL32.dll
 0000:fffd0000       .debug$S                   10000000     kernel32:KERNEL32.dll
 0000:fffd0000       .debug$S                   10000000     kernel32:KERNEL32.dll
 0000:fffd0000       .debug$S                   10000000     kernel32:KERNEL32.dll
 0000:fffd0000       .debug$S                   10000000     kernel32:KERNEL32.dll
 0000:fffd0000       .debug$S                   10000000     kernel32:KERNEL32.dll
 0000:fffd0000       .debug$S                   10000000     kernel32:KERNEL32.dll
 0000:fffd0000       .debug$S                   10000000     kernel32:KERNEL32.dll
 0000:fffd0000       .debug$S                   10000000     kernel32:KERNEL32.dll
 0000:fffd0000       .debug$S                   10000000     kernel32:KERNEL32.dll
 0000:fffd0000       .debug$S                   10000000     kernel32:KERNEL32.dll
 0000:fffd0000       .debug$S                   10000000     kernel32:KERNEL32.dll
 0000:fffd0000       .debug$S                   10000000     kernel32:KERNEL32.dll
 0000:fffd0000       .debug$S                   10000000     kernel32:KERNEL32.dll
 0000:fffd0000       .debug$S                   10000000     kernel32:KERNEL32.dll
 0000:fffd0000       .debug$S                   10000000     kernel32:KERNEL32.dll
 0000:fffd0000       .debug$S                   10000000     kernel32:KERNEL32.dll
 0000:fffd0000       .debug$S                   10000000     kernel32:KERNEL32.dll
 0000:fffd0000       .debug$S                   10000000     kernel32:KERNEL32.dll
 0000:fffd0000       .debug$S                   10000000     kernel32:KERNEL32.dll
 0000:fffd0000       .debug$S                   10000000     kernel32:KERNEL32.dll
 0000:fffd0000       .debug$S                   10000000     kernel32:KERNEL32.dll
 0000:fffd0000       .debug$S                   10000000     kernel32:KERNEL32.dll
 0000:fffd0000       .debug$S                   10000000     kernel32:KERNEL32.dll
 0000:fffd0000       .debug$S                   10000000     kernel32:KERNEL32.dll
 0000:fffd0000       .debug$S                   10000000     kernel32:KERNEL32.dll
 0000:fffd0000       .debug$S                   10000000     kernel32:KERNEL32.dll
 0000:fffd0000       .debug$S                   10000000     kernel32:KERNEL32.dll
 0000:fffd0000       .debug$S                   10000000     kernel32:KERNEL32.dll
 0000:fffd0000       .debug$S                   10000000     kernel32:KERNEL32.dll
 0000:fffd0000       .debug$S                   10000000     kernel32:KERNEL32.dll
 0000:fffd0000       .debug$S                   10000000     kernel32:KERNEL32.dll
 0000:fffd0000       .debug$S                   10000000     kernel32:KERNEL32.dll
 0000:fffd0000       .debug$S                   10000000     kernel32:KERNEL32.dll
 0000:fffd0000       .debug$S                   10000000     kernel32:KERNEL32.dll
 0000:fffd0000       .debug$S                   10000000     kernel32:KERNEL32.dll
 0000:fffd0000       .debug$S                   10000000     kernel32:KERNEL32.dll
 0000:fffd0000       .debug$S                   10000000     kernel32:KERNEL32.dll
 0000:fffd0000       .debug$S                   10000000     kernel32:KERNEL32.dll
 0000:fffd0000       .debug$S                   10000000     kernel32:KERNEL32.dll
 0000:fffd0000       .debug$S                   10000000     kernel32:KERNEL32.dll
 0000:fffd0000       .debug$S                   10000000     kernel32:KERNEL32.dll
 0000:fffd0000       .debug$S                   10000000     kernel32:KERNEL32.dll
 0000:fffd0000       .debug$S                   10000000     kernel32:KERNEL32.dll
 0000:fffd0000       .debug$S                   10000000     kernel32:KERNEL32.dll
 0000:fffd0000       .debug$S                   10000000     kernel32:KERNEL32.dll
 0000:fffd0000       .debug$S                   10000000     kernel32:KERNEL32.dll
 0000:fffd0000       .debug$S                   10000000     kernel32:KERNEL32.dll
 0000:fffd0000       .debug$S                   10000000     kernel32:KERNEL32.dll
 0000:fffd0000       .debug$S                   10000000     kernel32:KERNEL32.dll
 0000:fffd0000       .debug$S                   10000000     kernel32:KERNEL32.dll
 0000:fffd0000       .debug$S                   10000000     kernel32:KERNEL32.dll
 0000:fffd0000       .debug$S                   10000000     kernel32:KERNEL32.dll
 0000:fffd0000       .debug$S                   10000000     kernel32:KERNEL32.dll
 0000:fffd0000       .debug$S                   10000000     kernel32:KERNEL32.dll
 0000:fffd0000       .debug$S                   10000000     kernel32:KERNEL32.dll
 0000:fffd0000       .debug$S                   10000000     kernel32:KERNEL32.dll
 0000:fffd0000       .debug$S                   10000000     kernel32:KERNEL32.dll
 0000:fffd0000       .debug$S                   10000000     kernel32:KERNEL32.dll
 0000:fffd0000       .debug$S                   10000000     kernel32:KERNEL32.dll
 0000:fffd0000       .debug$S                   10000000     kernel32:KERNEL32.dll
 0000:fffd0000       .debug$S                   10000000     ole32:ole32.dll
 0000:fffd0000       .debug$S                   10000000     ole32:ole32.dll
 0000:fffd0000       .debug$S                   10000000     ole32:ole32.dll
 0000:fffd0000       .debug$S                   10000000     ole32:ole32.dll
 0000:fffd0000       .debug$S                   10000000     ole32:ole32.dll
 0000:fffd0000       .debug$S                   10000000     ole32:ole32.dll
 0000:fffd0000       .debug$S                   10000000     ole32:ole32.dll
 0000:fffd0000       .debug$S                   10000000     ole32:ole32.dll
 0000:fffd0000       .debug$S                   10000000     ole32:ole32.dll
 0000:fffd0000       .debug$S                   10000000     ole32:ole32.dll
 0000:fffd0000       .debug$S                   10000000     ole32:ole32.dll
 0000:fffd0000       .debug$S                   10000000     ole32:ole32.dll
 0000:fffd0000       .debug$S                   10000000     ole32:ole32.dll
 0000:fffd0000       .debug$S                   10000000     ole32:ole32.dll
 0000:fffd0000       .debug$S                   10000000     oleaut32:OLEAUT32.dll
 0000:fffd0000       .debug$S                   10000000     oleaut32:OLEAUT32.dll
 0000:fffd0000       .debug$S                   10000000     oleaut32:OLEAUT32.dll
 0000:fffd0000       .debug$S                   10000000     oleaut32:OLEAUT32.dll
 0000:fffd0000       .debug$S                   10000000     oleaut32:OLEAUT32.dll
 0000:fffd0000       .debug$S                   10000000     oleaut32:OLEAUT32.dll
 0000:fffd0000       .debug$S                   10000000     oleaut32:OLEAUT32.dll
 0000:fffd0000       .debug$S                   10000000     oleaut32:OLEAUT32.dll
 0000:fffd0000       .debug$S                   10000000     oleaut32:OLEAUT32.dll
 0000:fffd0000       .debug$S                   10000000     oleaut32:OLEAUT32.dll
 0000:fffd0000       .debug$S                   10000000     oleaut32:OLEAUT32.dll
 0000:fffd0000       .debug$S                   10000000     oleaut32:OLEAUT32.dll
 0000:fffd0000       .debug$S                   10000000     oleaut32:OLEAUT32.dll
 0000:fffd0000       .debug$S                   10000000     oleaut32:OLEAUT32.dll
 0000:fffd0000       .debug$S                   10000000     oleaut32:OLEAUT32.dll
 0000:fffd0000       .debug$S                   10000000     oleaut32:OLEAUT32.dll
 0000:fffd0000       .debug$S                   10000000     user32:USER32.dll
 0000:fffd0000       .debug$S                   10000000     user32:USER32.dll
 0000:fffd0000       .debug$S                   10000000     user32:USER32.dll
 0000:fffd0000       .debug$S                   10000000     user32:USER32.dll
 0000:fffd0000       .debug$S                   10000000     user32:USER32.dll
 0000:fffd0000       .debug$S                   10000000     user32:USER32.dll
 0000:fffd0000       .debug$S                   10000000     user32:USER32.dll
 0000:fffd0000       .debug$S                   10000000     user32:USER32.dll
 0000:fffd0000       .debug$S                   10000000     user32:USER32.dll
 0000:fffd0000       .debug$S                   10000000     user32:USER32.dll
 0000:fffd0000       .debug$S                   10000000     user32:USER32.dll
 0000:fffd0000       .debug$S                   10000000     user32:USER32.dll
 0000:fffd0000       .debug$S                   10000000     user32:USER32.dll
 0000:fffd0000       .debug$S                   10000000     user32:USER32.dll
 0000:fffd0000       .debug$S                   10000000     user32:USER32.dll
 0000:fffd0000       .debug$S                   10000000     user32:USER32.dll
 0000:fffd0000       .debug$S                   10000000     user32:USER32.dll
 0000:fffd0000       .debug$S                   10000000     user32:USER32.dll
 0000:fffd0000       .debug$S                   10000000     user32:USER32.dll
 0000:fffd0000       .debug$S                   10000000     user32:USER32.dll
 0000:fffd0000       .debug$S                   10000000     user32:USER32.dll
 0000:fffd0000       .debug$S                   10000000     user32:USER32.dll
 0000:fffd0000       .debug$S                   10000000     user32:USER32.dll
 0000:fffd0000       .debug$S                   10000000     user32:USER32.dll
 0000:fffd0000       .debug$S                   10000000     user32:USER32.dll
 0000:fffd0000       .debug$S                   10000000     user32:USER32.dll
 0000:fffd0000       .debug$S                   10000000     user32:USER32.dll
 0000:fffd0000       .debug$S                   10000000     user32:USER32.dll
 0000:fffd0000       .debug$S                   10000000     user32:USER32.dll
 0000:fffd0000       .debug$S                   10000000     user32:USER32.dll
 0000:fffd0000       .debug$S                   10000000     user32:USER32.dll
 0000:fffd0000       .debug$S                   10000000     user32:USER32.dll
 0000:fffd0000       .debug$S                   10000000     user32:USER32.dll
 0000:fffd0000       .debug$S                   10000000     user32:USER32.dll
 0000:fffd0000       .debug$S                   10000000     user32:USER32.dll
 0001:00000000       ??__E_AtlComModule@ATL@@YAXXZ 10001000 f   OposVariant.obj
 0001:00000016       ??__E_AtlWinModule@ATL@@YAXXZ 10001016 f   OposVariant.obj
 0001:0000002c       ??__E?pConnMap@?$IConnectionPointContainerImpl@VCOPOSLights@@@ATL@@0PBU_ATL_CONNMAP_ENTRY@2@B@@YAXXZ 1000102c f   Lights.obj
 0001:0000003a       ??__E_Module@@YAXXZ        1000103a f   Lights.obj
 0001:00000064       ??__E_AtlBaseModule@ATL@@YAXXZ 10001064 f   atls:atlbase.obj
 0001:00000bf8       $LN24                      10001bf8     Lights.obj
 0001:000056ab       $LN47                      100066ab     Lights.obj
 0001:000056c3       $LN46                      100066c3     Lights.obj
 0001:00007890       $LN37                      10008890     Lights.obj
 0001:000078a8       $LN36                      100088a8     Lights.obj
 0001:00008f84       $LN76                      10009f84     Lights.obj
 0001:00008f9c       $LN75                      10009f9c     Lights.obj
 0001:00009355       _memcpy_s                  1000a355 f   Lights.obj
 0001:0000ae72       ?find_pe_section@@YAPAU_IMAGE_SECTION_HEADER@@QAEI@Z 1000be72 f   LIBCMT:utility.obj
 0001:0000b191       ?__scrt_initialize_thread_safe_statics@@YAHXZ 1000c191 f   LIBCMT:thread_safe_statics.obj
 0001:0000b1b8       ?__scrt_initialize_thread_safe_statics_platform_specific@@YAXXZ 1000c1b8 f   LIBCMT:thread_safe_statics.obj
 0001:0000b23a       ?__scrt_uninitialize_thread_safe_statics@@YAXXZ 1000c23a f   LIBCMT:thread_safe_statics.obj
 0001:0000b5a9       __catch$??2@YAPAXIABUnothrow_t@std@@@Z$0 1000c5a9 f   LIBCMT:new_scalar_nothrow.obj
 0001:0000b5e0       $$000000                   1000c5e0     LIBCMT:sehprolg4gs.obj
 0001:0000b640       $$000000                   1000c640     LIBCMT:alloca16.obj
 0001:0000b670       $$000000                   1000c670     LIBCMT:chkstk.obj
 0001:0000b69d       ?dllmain_crt_dispatch@@YGHQAUHINSTANCE__@@KQAX@Z 1000c69d f   LIBCMT:dll_dllmain.obj
 0001:0000b6f0       ?dllmain_crt_process_attach@@YAHQAUHINSTANCE__@@QAX@Z 1000c6f0 f   LIBCMT:dll_dllmain.obj
 0001:0000b7f7       ?dllmain_crt_process_detach@@YAH_N@Z 1000c7f7 f   LIBCMT:dll_dllmain.obj
 0001:0000b8a7       ?dllmain_dispatch@@YAHQAUHINSTANCE__@@KQAX@Z 1000c8a7 f   LIBCMT:dll_dllmain.obj
 0001:0000b9ad       ?dllmain_raw@@YGHQAUHINSTANCE__@@KQAX@Z 1000c9ad f   LIBCMT:dll_dllmain.obj
 0001:0000bd30       $$000000                   1000cd30     LIBCMT:sehprolg4.obj
 0001:0000bd8c       ___get_entropy             1000cd8c f   LIBCMT:gs_support.obj
 0001:0000c083       ??$GetProcAddressAll@P6GP6GJPAUHWND__@@IIJ@ZPAUAtlThunkData_t@@@Z@@YAP6GP6GJPAUHWND__@@IIJ@ZPAUAtlThunkData_t@@@ZPAP6GP6GJ0IIJ@Z1@Z@Z 1000d083 f   atls:atlthunk.obj
 0001:0000c083       ??$GetProcAddressAll@P6GPAUAtlThunkData_t@@XZ@@YAP6GPAUAtlThunkData_t@@XZPAP6GPAU0@XZ@Z 1000d083 f   atls:atlthunk.obj
 0001:0000c083       ??$GetProcAddressAll@P6GXPAUAtlThunkData_t@@@Z@@YAP6GXPAUAtlThunkData_t@@@ZPAP6GX0@Z@Z 1000d083 f   atls:atlthunk.obj
 0001:0000c083       ??$GetProcAddressAll@P6GXPAUAtlThunkData_t@@PAXI@Z@@YAP6GXPAUAtlThunkData_t@@PAXI@ZPAP6GX01I@Z@Z 1000d083 f   atls:atlthunk.obj
 0001:0000c133       ?GetProcAddressSingle@@YA_NPAUHINSTANCE__@@PBDPAPAX@Z 1000d133 f   atls:atlthunk.obj
 0001:0000c285       ?__InitializeThunkPool@@YAHXZ 1000d285 f   atls:atlthunk.obj
 0001:0000c6e0       _ValidateLocalCookies      1000d6e0 f   libvcruntime:chandler4.obj
 0001:0000d7a2       $LN1241                    1000e7a2     libvcruntime:memcmp.obj
 0001:0000d830       $$000000                   1000e830     libvcruntime:memcpy.obj
 0001:0000da94       TrailingUpVec              1000ea94     libvcruntime:memcpy.obj
 0001:0000db40       TrailingDownVec            1000eb40     libvcruntime:memcpy.obj
 0001:0000ddb0       $$000000                   1000edb0     libvcruntime:memset.obj
 0001:0000e3b3       ?_FilterSetCurrentException@@YAKPAU_EXCEPTION_POINTERS@@E@Z 1000f3b3 f   libvcruntime:ehhelpers.obj
 0001:0000e600       $$000000                   1000f600     libvcruntime:memmove.obj
 0001:0000e864       TrailingUpVec              1000f864     libvcruntime:memmove.obj
 0001:0000e910       TrailingDownVec            1000f910     libvcruntime:memmove.obj
 0001:0000eb80       $$000000                   1000fb80     libvcruntime:exsup4.obj
 0001:0000ec10       __unwind_handler4          1000fc10 f   libvcruntime:exsup4.obj
 0001:0000eeef       ??$BuildCatchObjectHelperInternal@V__FrameHandler3@@@@YAHPAUEHExceptionRecord@@PAXPBU_s_HandlerType@@PBU_s_CatchableType@@@Z 1000feef f   libvcruntime:frame.obj
 0001:0000f02d       ??$BuildCatchObjectInternal@V__FrameHandler3@@@@YAXPAUEHExceptionRecord@@PAXPBU_s_HandlerType@@PBU_s_CatchableType@@@Z 1001002d f   libvcruntime:frame.obj
 0001:0000f0c6       ??$CatchIt@V__FrameHandler3@@@@YAXPAUEHExceptionRecord@@PAUEHRegistrationNode@@PAU_CONTEXT@@PAXPBU_s_FuncInfo@@PBU_s_HandlerType@@PBU_s_CatchableType@@PBU_s_TryBlockMapEntry@@H1EE@Z 100100c6 f   libvcruntime:frame.obj
 0001:0000f146       ??$FindHandler@V__FrameHandler3@@@@YAXPAUEHExceptionRecord@@PAUEHRegistrationNode@@PAU_CONTEXT@@PAXPBU_s_FuncInfo@@EH1@Z 10010146 f   libvcruntime:frame.obj
 0001:0000f4fc       ??$FindHandlerForForeignException@V__FrameHandler3@@@@YAXPAUEHExceptionRecord@@PAUEHRegistrationNode@@PAU_CONTEXT@@PAXPBU_s_FuncInfo@@HH1@Z 100104fc f   libvcruntime:frame.obj
 0001:0000f814       ?CallCatchBlock@@YAPAXPAUEHExceptionRecord@@PAUEHRegistrationNode@@PAU_CONTEXT@@PBU_s_FuncInfo@@PAXHK@Z 10010814 f   libvcruntime:frame.obj
 0001:0000f9d8       ?CallUnexpected@@YAXPBU_s_ESTypeList@@@Z 100109d8 f   libvcruntime:frame.obj
 0001:0000f9f8       __catch$?CallUnexpected@@YAXPBU_s_ESTypeList@@@Z$0 100109f8 f   libvcruntime:frame.obj
 0001:0000fa12       ?ExFilterRethrow@@YAHPAU_EXCEPTION_POINTERS@@@Z 10010a12 f   libvcruntime:frame.obj
 0001:0000fb5c       ?IsInExceptionSpec@@YAEPAUEHExceptionRecord@@PBU_s_ESTypeList@@@Z 10010b5c f   libvcruntime:frame.obj
 0001:0000fc30       $$000000                   10010c30     libvcruntime:lowhelpr.obj
 0001:0000fc80       $$000000                   10010c80     libvcruntime:exsup.obj
 0001:0000fca1       __unwind_handler           10010ca1 f   libvcruntime:exsup.obj
 0001:0000fdbe       ?try_get_first_available_module@@YAPAUHINSTANCE__@@QBW4module_id@?A0x1172487b@@0@Z 10010dbe f   libvcruntime:winapi_downlevel.obj
 0001:0000fe6a       ?try_get_function@@YAPAXW4function_id@?A0x1172487b@@QBDQBW4module_id@2@2@Z 10010e6a f   libvcruntime:winapi_downlevel.obj
 0001:000104f4       ??$common_tcsncpy_s@_W@@YAHQA_WIQB_WI@Z 100114f4 f   libucrt:wcsncpy_s.obj
 0001:000105ca       ??$common_vsprintf@Vformat_validation_base@__crt_stdio_output@@_W@@YAH_KQA_WIQB_WQAU__crt_locale_pointers@@QAD@Z 100115ca f   libucrt:output.obj
 0001:00010751       ??$common_vsprintf_s@_W@@YAH_KQA_WIQB_WQAU__crt_locale_pointers@@QAD@Z 10011751 f   libucrt:output.obj
 0001:00010e80       $LN51                      10011e80     libucrt:output.obj
 0001:0001137b       $LN20                      1001237b     libucrt:output.obj
 0001:0001138f       $LN17                      1001238f     libucrt:output.obj
 0001:00011bee       ??$?RV<lambda_03b1d95aef87969028cfba75ccab2455>@@AAV<lambda_6e4b09c48022b2350581041d5f6b0c4c>@@V<lambda_22bdf7517842c4b3e53723af5aa32b9e>@@@?$__crt_seh_guarded_call@X@@QAEX$$QAV<lambda_03b1d95aef87969028cfba75ccab2455>@@AAV<lambda_6e4b09c48022b2350581041d5f6b0c4c>@@$$QAV<lambda_22bdf7517842c4b3e53723af5aa32b9e>@@@Z 10012bee f   libucrt:exit.obj
 0001:00011c3b       ??R<lambda_6e4b09c48022b2350581041d5f6b0c4c>@@QBE@XZ 10012c3b f   libucrt:exit.obj
 0001:00011d15       ?atexit_exception_filter@@YAHK@Z 10012d15 f   libucrt:exit.obj
 0001:00011d28       ?common_exit@@YAXHW4_crt_exit_cleanup_mode@@W4_crt_exit_return_mode@@@Z 10012d28 f   libucrt:exit.obj
 0001:00011d8c       ?exit_or_terminate_process@@YAXI@Z 10012d8c f   libucrt:exit.obj
 0001:00011dce       ?is_managed_app@@YA_NXZ    10012dce f   libucrt:exit.obj
 0001:00011e11       ?try_cor_exit_process@@YAXI@Z 10012e11 f   libucrt:exit.obj
 0001:00011e9f       ??$common_configure_argv@D@@YAHW4_crt_argv_mode@@@Z 10012e9f f   libucrt:argv_parsing.obj
 0001:00011fd5       ??$parse_command_line@D@@YAXPADPAPAD0PAI2@Z 10012fd5 f   libucrt:argv_parsing.obj
 0001:000121a6       ??$common_initialize_environment_nolock@D@@YAHXZ 100131a6 f   libucrt:environment_initialization.obj
 0001:000121f9       ??$create_environment@D@@YAQAPADQAD@Z 100131f9 f   libucrt:environment_initialization.obj
 0001:000122c9       ??$free_environment@D@@YAXQAPAD@Z 100132c9 f   libucrt:environment_initialization.obj
 0001:000122c9       ??$free_environment@_W@@YAXQAPA_W@Z 100132c9 f   libucrt:environment_initialization.obj
 0001:00012321       ??$uninitialize_environment_internal@D@@YAXAAPAPAD@Z 10013321 f   libucrt:environment_initialization.obj
 0001:0001233c       ??$uninitialize_environment_internal@_W@@YAXAAPAPA_W@Z 1001333c f   libucrt:environment_initialization.obj
 0001:00012393       ??$?RV<lambda_69a2805e680e0e292e8ba93315fe43a8>@@AAV<lambda_f03950bc5685219e0bcd2087efbe011e>@@V<lambda_03fcd07e894ec930e3f35da366ca99d6>@@@?$__crt_seh_guarded_call@H@@QAEH$$QAV<lambda_69a2805e680e0e292e8ba93315fe43a8>@@AAV<lambda_f03950bc5685219e0bcd2087efbe011e>@@$$QAV<lambda_03fcd07e894ec930e3f35da366ca99d6>@@@Z 10013393 f   libucrt:onexit.obj
 0001:000123ee       ??$?RV<lambda_8e746cf0007f6ed984d6f78af1fec997>@@AAV<lambda_22ebabd17bc4fa466a2aca6d8deb888d>@@V<lambda_18ed0c0b38a6dc0daf1e7ac6d6adf05e>@@@?$__crt_seh_guarded_call@H@@QAEH$$QAV<lambda_8e746cf0007f6ed984d6f78af1fec997>@@AAV<lambda_22ebabd17bc4fa466a2aca6d8deb888d>@@$$QAV<lambda_18ed0c0b38a6dc0daf1e7ac6d6adf05e>@@@Z 100133ee f   libucrt:onexit.obj
 0001:00012468       ??R<lambda_22ebabd17bc4fa466a2aca6d8deb888d>@@QBEHXZ 10013468 f   libucrt:onexit.obj
 0001:00012591       ??R<lambda_f03950bc5685219e0bcd2087efbe011e>@@QBEHXZ 10013591 f   libucrt:onexit.obj
 0001:0001270a       _initialize_environment    1001370a f   libucrt:initialization.obj
 0001:0001270a       _initialize_global_state_isolation 1001370a f   libucrt:initialization.obj
 0001:0001270a       _report_memory_leaks       1001370a f   libucrt:initialization.obj
 0001:0001270a       _uninitialize_c            1001370a f   libucrt:initialization.obj
 0001:0001270a       _uninitialize_global_state_isolation 1001370a f   libucrt:initialization.obj
 0001:0001270d       _initialize_global_variables 1001370d f   libucrt:initialization.obj
 0001:0001271a       _initialize_c              1001371a f   libucrt:initialization.obj
 0001:00012734       _uninitialize_environment  10013734 f   libucrt:initialization.obj
 0001:0001273c       _initialize_pointers       1001373c f   libucrt:initialization.obj
 0001:0001276a       _uninitialize_vcruntime    1001376a f   libucrt:initialization.obj
 0001:00012773       _uninitialize_allocated_memory 10013773 f   libucrt:initialization.obj
 0001:0001278a       _uninitialize_allocated_io_buffers 1001378a f   libucrt:initialization.obj
 0001:000127da       ??R<lambda_af42a3ee9806e9a7305d451646e05244>@@QBEXAAPAU__crt_multibyte_data@@@Z 100137da f   libucrt:initialization.obj
 0001:000130c0       $$000000                   100140c0     libucrt:strncmp.obj
 0001:000131ac       ??$?RV<lambda_15ade71b0218206bbe3333a0c9b79046>@@AAV<lambda_da44e0f8b0f19ba52fefafb335991732>@@V<lambda_207f2d024fc103971653565357d6cd41>@@@?$__crt_seh_guarded_call@X@@QAEX$$QAV<lambda_15ade71b0218206bbe3333a0c9b79046>@@AAV<lambda_da44e0f8b0f19ba52fefafb335991732>@@$$QAV<lambda_207f2d024fc103971653565357d6cd41>@@@Z 100141ac f   libucrt:per_thread_data.obj
 0001:000131fe       ??$?RV<lambda_38edbb1296d33220d7e4dd0ed76b244a>@@AAV<lambda_5ce1d447e08cb34b2473517608e21441>@@V<lambda_fb385d3da700c9147fc39e65dd577a8c>@@@?$__crt_seh_guarded_call@X@@QAEX$$QAV<lambda_38edbb1296d33220d7e4dd0ed76b244a>@@AAV<lambda_5ce1d447e08cb34b2473517608e21441>@@$$QAV<lambda_fb385d3da700c9147fc39e65dd577a8c>@@@Z 100141fe f   libucrt:per_thread_data.obj
 0001:00013269       ??$?RV<lambda_6affb1475c98b40b75cdec977db92e3c>@@AAV<lambda_b8d4b9c228a6ecc3f80208dbb4b4a104>@@V<lambda_608742c3c92a14382c1684fc64f96c88>@@@?$__crt_seh_guarded_call@X@@QAEX$$QAV<lambda_6affb1475c98b40b75cdec977db92e3c>@@AAV<lambda_b8d4b9c228a6ecc3f80208dbb4b4a104>@@$$QAV<lambda_608742c3c92a14382c1684fc64f96c88>@@@Z 10014269 f   libucrt:per_thread_data.obj
 0001:000132be       ??$?RV<lambda_a7e850c220f1c8d1e6efeecdedd162c6>@@AAV<lambda_46720907175c18b6c9d2717bc0d2d362>@@V<lambda_9048902d66e8d99359bc9897bbb930a8>@@@?$__crt_seh_guarded_call@X@@QAEX$$QAV<lambda_a7e850c220f1c8d1e6efeecdedd162c6>@@AAV<lambda_46720907175c18b6c9d2717bc0d2d362>@@$$QAV<lambda_9048902d66e8d99359bc9897bbb930a8>@@@Z 100142be f   libucrt:per_thread_data.obj
 0001:00013318       ?construct_ptd@@YAXQAU__acrt_ptd@@QAPAU__crt_locale_data@@@Z 10014318 f   libucrt:per_thread_data.obj
 0001:000133b1       ?destroy_fls@@YGXPAX@Z     100143b1 f   libucrt:per_thread_data.obj
 0001:000133d2       ?destroy_ptd@@YAXQAU__acrt_ptd@@@Z 100143d2 f   libucrt:per_thread_data.obj
 0001:0001349f       ?replace_current_thread_locale_nolock@@YAXQAU__acrt_ptd@@QAU__crt_locale_data@@@Z 1001449f f   libucrt:per_thread_data.obj
 0001:000138af       ?try_get_AreFileApisANSI@@YAP6GHXZXZ 100148af f   libucrt:winapi_thunks.obj
 0001:000138c9       ?try_get_LCMapStringEx@@YAP6GHPB_WK0HPA_WHPAU_nlsversioninfo@@PAXJ@ZXZ 100148c9 f   libucrt:winapi_thunks.obj
 0001:000138e3       ?try_get_LocaleNameToLCID@@YAP6GKPB_WK@ZXZ 100148e3 f   libucrt:winapi_thunks.obj
 0001:000138fd       ?try_get_first_available_module@@YAPAUHINSTANCE__@@QBW4module_id@?A0x391cf84c@@0@Z 100148fd f   libucrt:winapi_thunks.obj
 0001:000139c4       ?try_get_function@@YAPAXW4function_id@?A0x391cf84c@@QBDQBW4module_id@2@2@Z 100149c4 f   libucrt:winapi_thunks.obj
 0001:00014127       ?fp_format_a@@YAHQBNPADIQADIH_NIQAU__crt_locale_pointers@@@Z 10015127 f   libucrt:cvt.obj
 0001:00014440       ?fp_format_e@@YAHQBNQADI1IH_NIQAU__crt_locale_pointers@@@Z 10015440 f   libucrt:cvt.obj
 0001:000144e2       ?fp_format_e_internal@@YAHQADIH_NIQAU_strflt@@1QAU__crt_locale_pointers@@@Z 100154e2 f   libucrt:cvt.obj
 0001:0001462a       ?fp_format_f@@YAHQBNQADI1IHQAU__crt_locale_pointers@@@Z 1001562a f   libucrt:cvt.obj
 0001:000146b5       ?fp_format_f_internal@@YAHQADIHQAU_strflt@@_NQAU__crt_locale_pointers@@@Z 100156b5 f   libucrt:cvt.obj
 0001:00014786       ?fp_format_g@@YAHQBNQADI1IH_NIQAU__crt_locale_pointers@@@Z 10015786 f   libucrt:cvt.obj
 0001:00014847       ?fp_format_nan_or_infinity@@YAHW4__acrt_fp_class@@_NPADI1@Z 10015847 f   libucrt:cvt.obj
 0001:000148dc       ?shift_bytes@@YAXQADI0H@Z  100158dc f   libucrt:cvt.obj
 0001:00014bc3       ??$?RV<lambda_e5124f882df8998aaf41531e079ba474>@@AAV<lambda_3e16ef9562a7dcce91392c22ab16ea36>@@V<lambda_e25ca0880e6ef98be67edffd8c599615>@@@?$__crt_seh_guarded_call@X@@QAEX$$QAV<lambda_e5124f882df8998aaf41531e079ba474>@@AAV<lambda_3e16ef9562a7dcce91392c22ab16ea36>@@$$QAV<lambda_e25ca0880e6ef98be67edffd8c599615>@@@Z 10015bc3 f   libucrt:wsetlocale.obj
 0001:00014c63       ?initialize_inherited_file_handles_nolock@@YAXXZ 10015c63 f   libucrt:ioinit.obj
 0001:00014d19       ?initialize_stdio_handles_nolock@@YAXXZ 10015d19 f   libucrt:ioinit.obj
 0001:00014f2a       ?<lambda_invoker_cdecl>@<lambda_838c7f62c73c983481e27c09e84b0b5d>@@CAHPBX0@Z 10015f2a f   libucrt:argv_wildcards.obj
 0001:00014f42       ??$__acrt_convert_wcs_mbs_cp@D_WV<lambda_62f6974d9771e494a5ea317cc32e971c>@@U__crt_win32_buffer_internal_dynamic_resizing@@@@YAHQBDAAV?$__crt_win32_buffer@_WU__crt_win32_buffer_internal_dynamic_resizing@@@@ABV<lambda_62f6974d9771e494a5ea317cc32e971c>@@I@Z 10015f42 f   libucrt:argv_wildcards.obj
 0001:00014ff4       ??$__acrt_convert_wcs_mbs_cp@_WDV<lambda_28bda7af82a03b66c1cb3803a755f95d>@@U__crt_win32_buffer_internal_dynamic_resizing@@@@YAHQB_WAAV?$__crt_win32_buffer@DU__crt_win32_buffer_internal_dynamic_resizing@@@@ABV<lambda_28bda7af82a03b66c1cb3803a755f95d>@@I@Z 10015ff4 f   libucrt:argv_wildcards.obj
 0001:000150e0       ??$common_expand_argv_wildcards@D@@YAHQAPADQAPAPAD@Z 100160e0 f   libucrt:argv_wildcards.obj
 0001:000152cf       ??$copy_and_add_argument_to_buffer@D@@YAHQBD0IAAV?$argument_list@D@?A0x5f5c8891@@@Z 100162cf f   libucrt:argv_wildcards.obj
 0001:00015380       ??$expand_argument_wildcards@D@@YAHQAD0AAV?$argument_list@D@?A0x5f5c8891@@@Z 10016380 f   libucrt:argv_wildcards.obj
 0001:000156ca       ?expand_if_necessary@?$argument_list@D@?A0x5f5c8891@@AAEHXZ 100166ca f   libucrt:argv_wildcards.obj
 0001:0001575c       ??$__acrt_convert_wcs_mbs_cp@_WDV<lambda_0fec1a7b3f42a53036604e18c2d5e07e>@@U__crt_win32_buffer_no_resizing@@@@YAHQB_WAAV?$__crt_win32_buffer@DU__crt_win32_buffer_no_resizing@@@@ABV<lambda_0fec1a7b3f42a53036604e18c2d5e07e>@@I@Z 1001675c f   libucrt:getmodulefilenamea.obj
 0001:000158ff       ??$?RV<lambda_ceb1ee4838e85a9d631eb091e2fbe199>@@AAV<lambda_ae742caa10f662c28703da3d2ea5e57e>@@V<lambda_cd08b5d6af4937fe54fc07d0c9bf6b37>@@@?$__crt_seh_guarded_call@X@@QAEX$$QAV<lambda_ceb1ee4838e85a9d631eb091e2fbe199>@@AAV<lambda_ae742caa10f662c28703da3d2ea5e57e>@@$$QAV<lambda_cd08b5d6af4937fe54fc07d0c9bf6b37>@@@Z 100168ff f   libucrt:mbctype.obj
 0001:0001594c       ??R<lambda_ae742caa10f662c28703da3d2ea5e57e>@@QBEXXZ 1001694c f   libucrt:mbctype.obj
 0001:000159cf       ?CPtoLocaleName@@YAPB_WH@Z 100169cf f   libucrt:mbctype.obj
 0001:00015a0d       ?getSystemCP@@YAHH@Z       10016a0d f   libucrt:mbctype.obj
 0001:00015a7e       ?setSBCS@@YAXPAU__crt_multibyte_data@@@Z 10016a7e f   libucrt:mbctype.obj
 0001:00015ae3       ?setSBUpLow@@YAXPAU__crt_multibyte_data@@@Z 10016ae3 f   libucrt:mbctype.obj
 0001:00015c64       ?setmbcp_internal@@YAHH_NQAU__acrt_ptd@@QAPAU__crt_multibyte_data@@@Z 10016c64 f   libucrt:mbctype.obj
 0001:00015d7d       ?update_thread_multibyte_data_internal@@YAPAU__crt_multibyte_data@@QAU__acrt_ptd@@QAPAU1@@Z 10016d7d f   libucrt:mbctype.obj
 0001:0001606b       _memcpy_s                  1001706b f   libucrt:cfout.obj
 0001:0001606b       _memcpy_s                  1001706b f   libucrt:mbctype.obj
 0001:000160ec       ?x_ismbbtype_l@@YAHPAU__crt_locale_pointers@@IHH@Z 100170ec f   libucrt:ismbbyte.obj
 0001:0001629d       ?find_end_of_double_null_terminated_sequence@@YAPB_WQB_W@Z 1001729d f   libucrt:get_environment_from_os.obj
 0001:0001640c       ??$?RV<lambda_cbab9ec6f41b0180b23cc171c22676b0>@@AAV<lambda_44731a7d0e6d81c3e6aa82d741081786>@@V<lambda_4b292cb8dd18144e164572427af410ab>@@@?$__crt_seh_guarded_call@P6AXH@Z@@QAEP6AXH@Z$$QAV<lambda_cbab9ec6f41b0180b23cc171c22676b0>@@AAV<lambda_44731a7d0e6d81c3e6aa82d741081786>@@$$QAV<lambda_4b292cb8dd18144e164572427af410ab>@@@Z 1001740c f   libucrt:signal.obj
 0001:00016470       ?get_global_action_nolock@@YAPAP6AXH@ZH@Z 10017470 f   libucrt:signal.obj
 0001:000164b2       ?siglookup@@YAPAU__crt_signal_action_t@@HQAU1@@Z 100174b2 f   libucrt:signal.obj
 0001:0001677c       ??$?RV<lambda_2866be3712abc81a800a822484c830d8>@@AAV<lambda_39ca0ed439415581b5b15c265174cece>@@V<lambda_2b24c74d71094a6cd0cb82e44167d71b>@@@?$__crt_seh_guarded_call@X@@QAEX$$QAV<lambda_2866be3712abc81a800a822484c830d8>@@AAV<lambda_39ca0ed439415581b5b15c265174cece>@@$$QAV<lambda_2b24c74d71094a6cd0cb82e44167d71b>@@@Z 1001777c f   libucrt:fflush.obj
 0001:00016808       ??$?RV<lambda_2cc53f568c5a2bb6f192f930a45d44ea>@@AAV<lambda_ab61a845afdef5b7c387490eaf3616ee>@@V<lambda_c2ffc0b7726aa6be21d5f0026187e748>@@@?$__crt_seh_guarded_call@X@@QAEX$$QAV<lambda_2cc53f568c5a2bb6f192f930a45d44ea>@@AAV<lambda_ab61a845afdef5b7c387490eaf3616ee>@@$$QAV<lambda_c2ffc0b7726aa6be21d5f0026187e748>@@@Z 10017808 f   libucrt:fflush.obj
 0001:000168b4       ?common_flush_all@@YAH_N@Z 100178b4 f   libucrt:fflush.obj
 0001:00016901       ?common_flush_all_should_try_to_flush_stream@@YA_NV__crt_stdio_stream@@QAH@Z 10017901 f   libucrt:fflush.obj
 0001:00016934       ?is_stream_flushable_or_commitable@@YA_NJ@Z 10017934 f   libucrt:fflush.obj
 0001:00016e3d       ?GetTableIndexFromLocaleName@@YAHPB_W@Z 10017e3d f   libucrt:lcidtoname_downlevel.obj
 0001:00016ef3       ??R<lambda_3d301b9e52f5099be73030e1f0bf487e>@@QBEIPBD@Z 10017ef3 f   libucrt:mbrtowc.obj
 0001:00018bca       ?free_crt_array_internal@@YAXQAPBXI@Z 10019bca f   libucrt:inittime.obj
 0001:000190a0       ?swap@@YAXPAD0I@Z          1001a0a0 f   libucrt:qsort.obj
 0001:00019524       ??$common_tcsncpy_s@D@@YAHQADIQBDI@Z 1001a524 f   libucrt:strncpy_s.obj
 0001:000195f0       $$000000                   1001a5f0     libucrt:strpbrk.obj
 0001:000196d4       ?__acrt_LCMapStringA_stat@@YAHPAU__crt_locale_pointers@@PB_WKPBDHPADHHH@Z 1001a6d4 f   libucrt:lcmapstringa.obj
 0001:00019907       ?initialize_multibyte@@YAHXZ 1001a907 f   libucrt:multibyte_initializer.obj
 0001:00019916       ??$?RV<lambda_9e9de3de5fa147e2223d7db92bc10aa6>@@AAV<lambda_38ce7e780aa69e748d6df282ebc68efe>@@V<lambda_8ca6da459f0f6780f1cff60fdc3d00e5>@@@?$__crt_seh_guarded_call@H@@QAEH$$QAV<lambda_9e9de3de5fa147e2223d7db92bc10aa6>@@AAV<lambda_38ce7e780aa69e748d6df282ebc68efe>@@$$QAV<lambda_8ca6da459f0f6780f1cff60fdc3d00e5>@@@Z 1001a916 f   libucrt:commit.obj
 0001:00019a35       ?write_double_translated_ansi_nolock@@YA?AUwrite_result@?A0x17268360@@HQBDI@Z 1001aa35 f   libucrt:write.obj
 0001:00019ddf       ?write_double_translated_unicode_nolock@@YA?AUwrite_result@?A0x17268360@@QBDI@Z 1001addf f   libucrt:write.obj
 0001:00019e47       ?write_requires_double_translation_nolock@@YA_NH@Z 1001ae47 f   libucrt:write.obj
 0001:00019eb8       ?write_text_ansi_nolock@@YA?AUwrite_result@?A0x17268360@@HQBDI@Z 1001aeb8 f   libucrt:write.obj
 0001:00019f93       ?write_text_utf16le_nolock@@YA?AUwrite_result@?A0x17268360@@HQBDI@Z 1001af93 f   libucrt:write.obj
 0001:0001a07c       ?write_text_utf8_nolock@@YA?AUwrite_result@?A0x17268360@@HQBDI@Z 1001b07c f   libucrt:write.obj
 0001:0001a750       $$000000                   1001b750     libucrt:log10_impl.obj
 0001:0001a860       $$000000                   1001b860     libucrt:ceil_pentium4.obj
 0001:0001a97d       ??$common_lseek_nolock@_J@@YA_JH_JH@Z 1001b97d f   libucrt:lseek.obj
 0001:0001ab63       ?to_abstract_control@@YA?AW4__acrt_fenv_abstract_control@@W4__acrt_fenv_machine_sse_control@@@Z 1001bb63 f   libucrt:_fenvutils.obj
 0001:0001ac1f       ?to_abstract_control@@YA?AW4__acrt_fenv_abstract_control@@W4__acrt_fenv_machine_x87_control@@@Z 1001bc1f f   libucrt:_fenvutils.obj
 0001:0001acd8       ?to_machine_sse_control@@YA?AW4__acrt_fenv_machine_sse_control@@W4__acrt_fenv_abstract_control@@@Z 1001bcd8 f   libucrt:_fenvutils.obj
 0001:0001ada5       ?to_machine_x87_control@@YA?AW4__acrt_fenv_machine_x87_control@@W4__acrt_fenv_abstract_control@@@Z 1001bda5 f   libucrt:_fenvutils.obj
 0001:0001b200       $$000000                   1001c200     libucrt:log10_pentium4.obj
 0001:0001b490       $$000000                   1001c490     libucrt:87tran.obj
 0001:0001b6a0       $$000000                   1001c6a0     libucrt:87disp.obj
 0001:0001b900       $$000000                   1001c900     libucrt:common.obj
 0001:0001ba90       $$000000                   1001ca90     libucrt:genexcep.obj
 0001:0001bd8c       ??$?RV<lambda_218ce3db14220d0be481dae8ef3383b6>@@AAV<lambda_628dfdc04ba53c8bfc02c9951375f3f5>@@V<lambda_57dc472bd5c9d5f3b2cbca59b8a843ae>@@@?$__crt_seh_guarded_call@H@@QAEH$$QAV<lambda_218ce3db14220d0be481dae8ef3383b6>@@AAV<lambda_628dfdc04ba53c8bfc02c9951375f3f5>@@$$QAV<lambda_57dc472bd5c9d5f3b2cbca59b8a843ae>@@@Z 1001cd8c f   libucrt:close.obj
 0001:0001bf80       $$000000                   1001cf80     libucrt:_strnicm.obj
 0001:0001bfe1       ?__dcrt_lowio_initialize_console_output@@YAXXZ 1001cfe1 f   libucrt:initcon.obj
 0001:0001ce40       $$000000                   1001de40     LIBCMT:ulldvrm.obj
 0001:0001cee0       $$000000                   1001dee0     LIBCMT:llmul.obj
 0001:0001cf20       $$000000                   1001df20     LIBCMT:lldvrm.obj
 0001:0001d000       $$000000                   1001e000     LIBCMT:ullshr.obj
 0001:0001d020       $$000000                   1001e020     LIBCMT:llshl.obj
 0001:0001d040       $$000000                   1001e040     LIBCMT:ftol2.obj
 0001:0001d2e0       $$000000                   1001e2e0     libvcruntime:strrchr.obj
 0001:0001d420       $$000000                   1001e420     libvcruntime:strchr.obj
 0001:0001d5c3       __ehhandler$??2@YAPAXIABUnothrow_t@std@@@Z 1001e5c3 f   LIBCMT:new_scalar_nothrow.obj
 0001:0001d5de       __ehhandler$?CallUnexpected@@YAXPBU_s_ESTypeList@@@Z 1001e5de f   libvcruntime:frame.obj
 0001:0001d5f9       ??__F_AtlComModule@ATL@@YAXXZ 1001e5f9 f   OposVariant.obj
 0001:0001d603       ??__F_AtlWinModule@ATL@@YAXXZ 1001e603 f   OposVariant.obj
 0001:0001d61d       ??__F_Module@@YAXXZ        1001e61d f   Lights.obj
 0001:0001d631       ??__F_AtlBaseModule@ATL@@YAXXZ 1001e631 f   atls:atlbase.obj
 0002:00000304       ?_AtlBaseModule$initializer$@ATL@@3P6AXXZA 1001f304     atls:atlbase.obj
 0002:00000308       ?_AtlComModule$initializer$@ATL@@3P6AXXZA 1001f308     OposVariant.obj
 0002:0000030c       ?_AtlWinModule$initializer$@ATL@@3P6AXXZA 1001f30c     OposVariant.obj
 0002:00000310       ?_Module$initializer$@@3P6AXXZA 1001f310     Lights.obj
 0002:00000314       ??pConnMap$initializer$@?$IConnectionPointContainerImpl@VCOPOSLights@@@ATL@@0P6AXXZA@@3P6AXXZA 1001f314     Lights.obj
 0002:00000320       ?__scrt_initialize_tss_var@@3P6AHXZA 1001f320     LIBCMT:thread_safe_statics.obj
 0002:00001738       _GS_ExceptionPointers      10020738     LIBCMT:gs_report.obj
 0002:000018c8       ?tokenTable@@3QBUStringLiteral@@B 100208c8     libvcruntime:undname.obj
 0002:00001948       ?nameTable@@3QBUStringLiteral@@B 10020948     libvcruntime:undname.obj
 0002:00001be0       ?rttiTable@@3QBUStringLiteral@@B 10020be0     libvcruntime:undname.obj
 0002:00001c08       ?IndirectionName@@3QBUStringLiteral@@B 10020c08     libvcruntime:undname.obj
 0002:00001c38       ?PrefixName@@3QBUStringLiteral@@B 10020c38     libvcruntime:undname.obj
 0002:00002268       ?module_names@?A0x1172487b@@3QBQB_WB 10021268     libvcruntime:winapi_downlevel.obj
 0002:00002310       ?candidate_modules@?1??try_get_FlsAlloc@@YAP6GKP6GXPAX@Z@ZXZ@4QBW4module_id@?A0x1172487b@@B 10021310     libvcruntime:winapi_downlevel.obj
 0002:00002324       ?candidate_modules@?1??try_get_FlsFree@@YAP6GHK@ZXZ@4QBW4module_id@?A0x1172487b@@B 10021324     libvcruntime:winapi_downlevel.obj
 0002:00002334       ?candidate_modules@?1??try_get_FlsGetValue@@YAP6GPAXK@ZXZ@4QBW4module_id@?A0x1172487b@@B 10021334     libvcruntime:winapi_downlevel.obj
 0002:00002348       ?candidate_modules@?1??try_get_FlsSetValue@@YAP6GHKPAX@ZXZ@4QBW4module_id@?A0x1172487b@@B 10021348     libvcruntime:winapi_downlevel.obj
 0002:0000235c       ?candidate_modules@?1??try_get_InitializeCriticalSectionEx@@YAP6GHPAU_RTL_CRITICAL_SECTION@@KK@ZXZ@4QBW4module_id@?A0x1172487b@@B 1002135c     libvcruntime:winapi_downlevel.obj
 0002:00002380       ?errtable@@3QBUerrentry@?A0x31fdb9ec@@B 10021380     libucrt:errno.obj
 0002:00002628       ___acrt_initializers       10021628     libucrt:initialization.obj
 0002:000026a8       ?module_names@?A0x391cf84c@@3QBQB_WB 100216a8     libucrt:winapi_thunks.obj
 0002:00002b20       ?candidate_modules@?1??try_get_AreFileApisANSI@@YAP6GHXZXZ@4QBW4module_id@?A0x391cf84c@@B 10021b20     libucrt:winapi_thunks.obj
 0002:00002b34       ?candidate_modules@?1??try_get_FlsAlloc@@YAP6GKP6GXPAX@Z@ZXZ@4QBW4module_id@?A0x391cf84c@@B 10021b34     libucrt:winapi_thunks.obj
 0002:00002b3c       ?candidate_modules@?1??try_get_FlsFree@@YAP6GHK@ZXZ@4QBW4module_id@?A0x391cf84c@@B 10021b3c     libucrt:winapi_thunks.obj
 0002:00002b44       ?candidate_modules@?1??try_get_FlsGetValue@@YAP6GPAXK@ZXZ@4QBW4module_id@?A0x391cf84c@@B 10021b44     libucrt:winapi_thunks.obj
 0002:00002b4c       ?candidate_modules@?1??try_get_FlsSetValue@@YAP6GHKPAX@ZXZ@4QBW4module_id@?A0x391cf84c@@B 10021b4c     libucrt:winapi_thunks.obj
 0002:00002b54       ?candidate_modules@?1??try_get_InitializeCriticalSectionEx@@YAP6GHPAU_RTL_CRITICAL_SECTION@@KK@ZXZ@4QBW4module_id@?A0x391cf84c@@B 10021b54     libucrt:winapi_thunks.obj
 0002:00002b5c       ?candidate_modules@?1??try_get_LCMapStringEx@@YAP6GHPB_WK0HPA_WHPAU_nlsversioninfo@@PAXJ@ZXZ@4QBW4module_id@?A0x391cf84c@@B 10021b5c     libucrt:winapi_thunks.obj
 0002:00002b74       ?candidate_modules@?1??try_get_LocaleNameToLCID@@YAP6GKPB_WK@ZXZ@4QBW4module_id@?A0x391cf84c@@B 10021b74     libucrt:winapi_thunks.obj
 0002:00002b90       ?candidate_modules@?1??try_get_AppPolicyGetProcessTerminationMethod@@YAP6GJPAXPAW4AppPolicyProcessTerminationMethod@@@ZXZ@4QBW4module_id@?A0x391cf84c@@B 10021b90     libucrt:winapi_thunks.obj
 0002:00002bbc       ?candidate_modules@?1??try_get_SetThreadStackGuarantee@@YAP6GHPAK@ZXZ@4QBW4module_id@?A0x391cf84c@@B 10021bbc     libucrt:winapi_thunks.obj
 0002:00002be0       ?strings@?1??fp_format_nan_or_infinity@@YAHW4__acrt_fp_class@@_NPADI1@Z@4QAY03QBDA 10021be0     libucrt:cvt.obj
 0002:00003128       ?_mb_locale_names@@3QBQB_WB 10022128     libucrt:mbctype.obj
 0002:00003970       ?LcidToLocaleNameTable@?A0x881e4c05@@3QBULcidToLocaleName@1@B 10022970     libucrt:lcidtoname_downlevel.obj
 0002:00004a98       ?LocaleNameToIndexTable@?A0x881e4c05@@3QBULocaleNameIndex@1@B 10023a98     libucrt:lcidtoname_downlevel.obj
 0002:000062f0       ?large_power_indices@?1??multiply_by_power_of_ten@__crt_strtox@@YA_NAAUbig_integer@2@I@Z@4QBUunpack_index@?1??12@YA_N0I@Z@B 100252f0     libucrt:cfout.obj
 0002:000063d0       LOG_name                   100253d0     libucrt:log10_impl.obj
 0002:000063e0       _One                       100253e0     libucrt:ceil_pentium4.obj
 0002:000063f0       _Bns                       100253f0     libucrt:ceil_pentium4.obj
 0002:00006400       _Zero                      10025400     libucrt:ceil_pentium4.obj
 0002:00006410       _S                         10025410     libucrt:ceil_pentium4.obj
 0002:00006420       _NegZero                   10025420     libucrt:ceil_pentium4.obj
 0002:00006430       emask                      10025430     libucrt:log10_pentium4.obj
 0002:00006440       CC                         10025440     libucrt:log10_pentium4.obj
 0002:00006450       Magic                      10025450     libucrt:log10_pentium4.obj
 0002:00006460       hi_mask                    10025460     libucrt:log10_pentium4.obj
 0002:00006470       LOG10_2                    10025470     libucrt:log10_pentium4.obj
 0002:00006480       place_L                    10025480     libucrt:log10_pentium4.obj
 0002:000064a0       One                        100254a0     libucrt:log10_pentium4.obj
 0002:000064b0       Zero                       100254b0     libucrt:log10_pentium4.obj
 0002:000064c0       Two52                      100254c0     libucrt:log10_pentium4.obj
 0002:000064d0       Infs                       100254d0     libucrt:log10_pentium4.obj
 0002:000064e0       NaN                        100254e0     libucrt:log10_pentium4.obj
 0002:000064f0       coeff                      100254f0     libucrt:log10_pentium4.obj
 0002:0000654e       _log2max                   1002554e     libucrt:87tran.obj
 0002:00006558       _smallarg                  10025558     libucrt:87tran.obj
 0002:00006562       _half                      10025562     libucrt:87tran.obj
 0002:000065ae       One                        100255ae     libucrt:87disp.obj
 0002:000065b6       Three                      100255b6     libucrt:87disp.obj
 0002:000065be       XAMtoTagTab                100255be     libucrt:87disp.obj
 0002:000065d0       One                        100255d0     libucrt:common.obj
 0002:000065e4       DblMax                     100255e4     libucrt:common.obj
 0002:000065ec       DblMin                     100255ec     libucrt:common.obj
 0002:000065f4       IeeeAdjO                   100255f4     libucrt:common.obj
 0002:000065fc       IeeeAdjU                   100255fc     libucrt:common.obj
 0002:00006604       _infinity                  10025604     libucrt:common.obj
 0002:0000660c       _zero                      1002560c     libucrt:common.obj
 0002:00006658       _over                      10025658     libucrt:fpctrl.obj
 0002:00006664       _under                     10025664     libucrt:fpctrl.obj
 0002:00006e98       ?_names@?1??_get_fname@@9@9 10025e98     libucrt:fpexcept.obj
 0002:00007040       two32                      10026040     LIBCMT:ftol2.obj
 0002:00007044       two63                      10026044     LIBCMT:ftol2.obj
 0002:00007048       _NaN                       10026048     LIBCMT:ftol2.obj
 0002:000076f8       __sehtable$?_AtlVerifyStackAvailable@_ATL_SAFE_ALLOCA_IMPL@ATL@@YA_NK@Z 100266f8     Lights.obj
 0002:00007718       __sehtable$___scrt_is_nonwritable_in_current_image 10026718     LIBCMT:utility.obj
 0002:00007734       __catchsym$??2@YAPAXIABUnothrow_t@std@@@Z$2 10026734     LIBCMT:new_scalar_nothrow.obj
 0002:00007744       __unwindtable$??2@YAPAXIABUnothrow_t@std@@@Z 10026744     LIBCMT:new_scalar_nothrow.obj
 0002:00007754       __tryblocktable$??2@YAPAXIABUnothrow_t@std@@@Z 10026754     LIBCMT:new_scalar_nothrow.obj
 0002:00007768       __ehfuncinfo$??2@YAPAXIABUnothrow_t@std@@@Z 10026768     LIBCMT:new_scalar_nothrow.obj
 0002:00007790       __sehtable$?dllmain_crt_process_attach@@YAHQAUHINSTANCE__@@QAX@Z 10026790     LIBCMT:dll_dllmain.obj
 0002:000077b0       __sehtable$?dllmain_crt_process_detach@@YAH_N@Z 100267b0     LIBCMT:dll_dllmain.obj
 0002:000077d8       __sehtable$?dllmain_dispatch@@YAHQAUHINSTANCE__@@KQAX@Z 100267d8     LIBCMT:dll_dllmain.obj
 0002:00007888       __sehtable$___DestructExceptionObject 10026888     libvcruntime:ehhelpers.obj
 0002:000078a8       __sehtable$?FrameUnwindToState@__FrameHandler3@@SAXPAUEHRegistrationNode@@PAXPBU_s_FuncInfo@@H@Z 100268a8     libvcruntime:frame.obj
 0002:000078d0       __sehtable$?CallCatchBlock@@YAPAXPAUEHExceptionRecord@@PAUEHRegistrationNode@@PAU_CONTEXT@@PBU_s_FuncInfo@@PAXHK@Z 100268d0     libvcruntime:frame.obj
 0002:000078f8       __catchsym$?CallUnexpected@@YAXPBU_s_ESTypeList@@@Z$2 100268f8     libvcruntime:frame.obj
 0002:00007908       __unwindtable$?CallUnexpected@@YAXPBU_s_ESTypeList@@@Z 10026908     libvcruntime:frame.obj
 0002:00007918       __tryblocktable$?CallUnexpected@@YAXPBU_s_ESTypeList@@@Z 10026918     libvcruntime:frame.obj
 0002:0000792c       __ehfuncinfo$?CallUnexpected@@YAXPBU_s_ESTypeList@@@Z 1002692c     libvcruntime:frame.obj
 0002:00007950       __sehtable$??$BuildCatchObjectHelperInternal@V__FrameHandler3@@@@YAHPAUEHExceptionRecord@@PAXPBU_s_HandlerType@@PBU_s_CatchableType@@@Z 10026950     libvcruntime:frame.obj
 0002:00007970       __sehtable$??$BuildCatchObjectInternal@V__FrameHandler3@@@@YAXPAUEHExceptionRecord@@PAXPBU_s_HandlerType@@PBU_s_CatchableType@@@Z 10026970     libvcruntime:frame.obj
 0002:000079c8       __sehtable$??R<lambda_6e4b09c48022b2350581041d5f6b0c4c>@@QBE@XZ 100269c8     libucrt:exit.obj
 0002:000079e8       __sehtable$??$?RV<lambda_03b1d95aef87969028cfba75ccab2455>@@AAV<lambda_6e4b09c48022b2350581041d5f6b0c4c>@@V<lambda_22bdf7517842c4b3e53723af5aa32b9e>@@@?$__crt_seh_guarded_call@X@@QAEX$$QAV<lambda_03b1d95aef87969028cfba75ccab2455>@@AAV<lambda_6e4b09c48022b2350581041d5f6b0c4c>@@$$QAV<lambda_22bdf7517842c4b3e53723af5aa32b9e>@@@Z 100269e8     libucrt:exit.obj
 0002:00007a08       __sehtable$??$?RV<lambda_8e746cf0007f6ed984d6f78af1fec997>@@AAV<lambda_22ebabd17bc4fa466a2aca6d8deb888d>@@V<lambda_18ed0c0b38a6dc0daf1e7ac6d6adf05e>@@@?$__crt_seh_guarded_call@H@@QAEH$$QAV<lambda_8e746cf0007f6ed984d6f78af1fec997>@@AAV<lambda_22ebabd17bc4fa466a2aca6d8deb888d>@@$$QAV<lambda_18ed0c0b38a6dc0daf1e7ac6d6adf05e>@@@Z 10026a08     libucrt:onexit.obj
 0002:00007a28       __sehtable$??$?RV<lambda_69a2805e680e0e292e8ba93315fe43a8>@@AAV<lambda_f03950bc5685219e0bcd2087efbe011e>@@V<lambda_03fcd07e894ec930e3f35da366ca99d6>@@@?$__crt_seh_guarded_call@H@@QAEH$$QAV<lambda_69a2805e680e0e292e8ba93315fe43a8>@@AAV<lambda_f03950bc5685219e0bcd2087efbe011e>@@$$QAV<lambda_03fcd07e894ec930e3f35da366ca99d6>@@@Z 10026a28     libucrt:onexit.obj
 0002:00007a48       __sehtable$__query_new_handler 10026a48     libucrt:new_handler.obj
 0002:00007a68       __sehtable$_terminate      10026a68     libucrt:terminate.obj
 0002:00007a88       __sehtable$??$?RV<lambda_15ade71b0218206bbe3333a0c9b79046>@@AAV<lambda_da44e0f8b0f19ba52fefafb335991732>@@V<lambda_207f2d024fc103971653565357d6cd41>@@@?$__crt_seh_guarded_call@X@@QAEX$$QAV<lambda_15ade71b0218206bbe3333a0c9b79046>@@AAV<lambda_da44e0f8b0f19ba52fefafb335991732>@@$$QAV<lambda_207f2d024fc103971653565357d6cd41>@@@Z 10026a88     libucrt:per_thread_data.obj
 0002:00007aa8       __sehtable$??$?RV<lambda_a7e850c220f1c8d1e6efeecdedd162c6>@@AAV<lambda_46720907175c18b6c9d2717bc0d2d362>@@V<lambda_9048902d66e8d99359bc9897bbb930a8>@@@?$__crt_seh_guarded_call@X@@QAEX$$QAV<lambda_a7e850c220f1c8d1e6efeecdedd162c6>@@AAV<lambda_46720907175c18b6c9d2717bc0d2d362>@@$$QAV<lambda_9048902d66e8d99359bc9897bbb930a8>@@@Z 10026aa8     libucrt:per_thread_data.obj
 0002:00007ac8       __sehtable$??$?RV<lambda_38edbb1296d33220d7e4dd0ed76b244a>@@AAV<lambda_5ce1d447e08cb34b2473517608e21441>@@V<lambda_fb385d3da700c9147fc39e65dd577a8c>@@@?$__crt_seh_guarded_call@X@@QAEX$$QAV<lambda_38edbb1296d33220d7e4dd0ed76b244a>@@AAV<lambda_5ce1d447e08cb34b2473517608e21441>@@$$QAV<lambda_fb385d3da700c9147fc39e65dd577a8c>@@@Z 10026ac8     libucrt:per_thread_data.obj
 0002:00007ae8       __sehtable$??$?RV<lambda_6affb1475c98b40b75cdec977db92e3c>@@AAV<lambda_b8d4b9c228a6ecc3f80208dbb4b4a104>@@V<lambda_608742c3c92a14382c1684fc64f96c88>@@@?$__crt_seh_guarded_call@X@@QAEX$$QAV<lambda_6affb1475c98b40b75cdec977db92e3c>@@AAV<lambda_b8d4b9c228a6ecc3f80208dbb4b4a104>@@$$QAV<lambda_608742c3c92a14382c1684fc64f96c88>@@@Z 10026ae8     libucrt:per_thread_data.obj
 0002:00007b08       __sehtable$??$?RV<lambda_e5124f882df8998aaf41531e079ba474>@@AAV<lambda_3e16ef9562a7dcce91392c22ab16ea36>@@V<lambda_e25ca0880e6ef98be67edffd8c599615>@@@?$__crt_seh_guarded_call@X@@QAEX$$QAV<lambda_e5124f882df8998aaf41531e079ba474>@@AAV<lambda_3e16ef9562a7dcce91392c22ab16ea36>@@$$QAV<lambda_e25ca0880e6ef98be67edffd8c599615>@@@Z 10026b08     libucrt:wsetlocale.obj
 0002:00007b28       __sehtable$___acrt_initialize_lowio 10026b28     libucrt:ioinit.obj
 0002:00007b48       __sehtable$?update_thread_multibyte_data_internal@@YAPAU__crt_multibyte_data@@QAU__acrt_ptd@@QAPAU1@@Z 10026b48     libucrt:mbctype.obj
 0002:00007b68       __sehtable$??$?RV<lambda_ceb1ee4838e85a9d631eb091e2fbe199>@@AAV<lambda_ae742caa10f662c28703da3d2ea5e57e>@@V<lambda_cd08b5d6af4937fe54fc07d0c9bf6b37>@@@?$__crt_seh_guarded_call@X@@QAEX$$QAV<lambda_ceb1ee4838e85a9d631eb091e2fbe199>@@AAV<lambda_ae742caa10f662c28703da3d2ea5e57e>@@$$QAV<lambda_cd08b5d6af4937fe54fc07d0c9bf6b37>@@@Z 10026b68     libucrt:mbctype.obj
 0002:00007b88       __sehtable$_raise          10026b88     libucrt:signal.obj
 0002:00007ba8       __sehtable$??$?RV<lambda_cbab9ec6f41b0180b23cc171c22676b0>@@AAV<lambda_44731a7d0e6d81c3e6aa82d741081786>@@V<lambda_4b292cb8dd18144e164572427af410ab>@@@?$__crt_seh_guarded_call@P6AXH@Z@@QAEP6AXH@Z$$QAV<lambda_cbab9ec6f41b0180b23cc171c22676b0>@@AAV<lambda_44731a7d0e6d81c3e6aa82d741081786>@@$$QAV<lambda_4b292cb8dd18144e164572427af410ab>@@@Z 10026ba8     libucrt:signal.obj
 0002:00007bc8       __sehtable$??$?RV<lambda_2866be3712abc81a800a822484c830d8>@@AAV<lambda_39ca0ed439415581b5b15c265174cece>@@V<lambda_2b24c74d71094a6cd0cb82e44167d71b>@@@?$__crt_seh_guarded_call@X@@QAEX$$QAV<lambda_2866be3712abc81a800a822484c830d8>@@AAV<lambda_39ca0ed439415581b5b15c265174cece>@@$$QAV<lambda_2b24c74d71094a6cd0cb82e44167d71b>@@@Z 10026bc8     libucrt:fflush.obj
 0002:00007be8       __sehtable$??$?RV<lambda_2cc53f568c5a2bb6f192f930a45d44ea>@@AAV<lambda_ab61a845afdef5b7c387490eaf3616ee>@@V<lambda_c2ffc0b7726aa6be21d5f0026187e748>@@@?$__crt_seh_guarded_call@X@@QAEX$$QAV<lambda_2cc53f568c5a2bb6f192f930a45d44ea>@@AAV<lambda_ab61a845afdef5b7c387490eaf3616ee>@@$$QAV<lambda_c2ffc0b7726aa6be21d5f0026187e748>@@@Z 10026be8     libucrt:fflush.obj
 0002:00007c08       __sehtable$___acrt_update_thread_locale_data 10026c08     libucrt:locale_refcounting.obj
 0002:00007c28       __sehtable$__fcloseall     10026c28     libucrt:closeall.obj
 0002:00007c48       __sehtable$___acrt_lowio_ensure_fh_exists 10026c48     libucrt:osfinfo.obj
 0002:00007c68       __sehtable$??$?RV<lambda_9e9de3de5fa147e2223d7db92bc10aa6>@@AAV<lambda_38ce7e780aa69e748d6df282ebc68efe>@@V<lambda_8ca6da459f0f6780f1cff60fdc3d00e5>@@@?$__crt_seh_guarded_call@H@@QAEH$$QAV<lambda_9e9de3de5fa147e2223d7db92bc10aa6>@@AAV<lambda_38ce7e780aa69e748d6df282ebc68efe>@@$$QAV<lambda_8ca6da459f0f6780f1cff60fdc3d00e5>@@@Z 10026c68     libucrt:commit.obj
 0002:00007c88       __sehtable$__write         10026c88     libucrt:write.obj
 0002:00007ca8       __sehtable$_fclose         10026ca8     libucrt:fclose.obj
 0002:00007cc8       __sehtable$??$?RV<lambda_218ce3db14220d0be481dae8ef3383b6>@@AAV<lambda_628dfdc04ba53c8bfc02c9951375f3f5>@@V<lambda_57dc472bd5c9d5f3b2cbca59b8a843ae>@@@?$__crt_seh_guarded_call@H@@QAEH$$QAV<lambda_218ce3db14220d0be481dae8ef3383b6>@@AAV<lambda_628dfdc04ba53c8bfc02c9951375f3f5>@@$$QAV<lambda_57dc472bd5c9d5f3b2cbca59b8a843ae>@@@Z 10026cc8     libucrt:close.obj
 0002:00007ce8       __sehtable$__IsNonwritableInCurrentImage 10026ce8     LIBCMT:pesect.obj
 0002:00007d10       .edata                     10026d10     OPOSLights.exp
 0002:00007d38       rgpv                       10026d38     OPOSLights.exp
 0002:00007d48       rgszName                   10026d48     OPOSLights.exp
 0002:00007d58       rgwOrd                     10026d58     OPOSLights.exp
 0002:00007d60       szName                     10026d60     OPOSLights.exp
 0002:00007d6f       $N00001                    10026d6f     OPOSLights.exp
 0002:00007d7f       $N00002                    10026d7f     OPOSLights.exp
 0002:00007d91       $N00003                    10026d91     OPOSLights.exp
 0002:00007da3       $N00004                    10026da3     OPOSLights.exp
 0002:000083b2       .idata$6                   100273b2     kernel32:KERNEL32.dll
 0002:000085c6       .idata$6                   100275c6     user32:USER32.dll
 0002:000086fa       .idata$6                   100276fa     gdi32:GDI32.dll
 0002:000087a0       .idata$6                   100277a0     advapi32:ADVAPI32.dll
 0002:000088bc       .idata$6                   100278bc     ole32:ole32.dll
 0002:000088c6       .idata$6                   100278c6     oleaut32:OLEAUT32.dll
 0003:00000110       ?ObjectMap@@3PAU_ATL_OBJMAP_ENTRY30@ATL@@A 10028110     Lights.obj
 0003:000001c0       ?s_SOMethodNames@@3PAPADA  100281c0     LightsImpl.obj
 0003:0000020c       ?s_RequiredMethodsPerRelease@@3PAHA 1002820c     LightsImpl.obj
 0003:00000230       ?__vcrt_flsindex@@3KA      10028230     libvcruntime:per_thread_data.obj
 0003:00000250       ?errno_no_memory@@3HA      10028250     libucrt:errno.obj
 0003:00000254       ?doserrno_no_memory@@3KA   10028254     libucrt:errno.obj
 0003:00000260       ?__acrt_flsindex@@3KA      10028260     libucrt:per_thread_data.obj
 0003:000005f8       __mbctypes                 100285f8     libucrt:mbctype.obj
 0003:00000700       __mbcasemaps               10028700     libucrt:mbctype.obj
 0003:00000800       ?__rgctypeflag@@3PADA      10028800     libucrt:mbctype.obj
 0003:00000808       ?__rgcode_page_info@@3PAUcode_page_info@@A 10028808     libucrt:mbctype.obj
 0003:00000a60       ?__dcrt_lowio_console_output_handle@@3PAXA 10028a60     libucrt:initcon.obj
 0003:00000bf8       ?is_initialized_as_dll@@3_NA 10028bf8     LIBCMT:utility.obj
 0003:00000bf9       ?module_local_atexit_table_initialized@@3_NA 10028bf9     LIBCMT:utility.obj
 0003:00000bfc       ?module_local_atexit_table@@3U_onexit_table_t@@A 10028bfc     LIBCMT:utility.obj
 0003:00000c08       ?module_local_at_quick_exit_table@@3U_onexit_table_t@@A 10028c08     LIBCMT:utility.obj
 0003:00000c14       ?g_tss_cv@@3U_RTL_CONDITION_VARIABLE@@A 10028c14     LIBCMT:thread_safe_statics.obj
 0003:00000c18       ?g_tss_event@@3PAXA        10028c18     LIBCMT:thread_safe_statics.obj
 0003:00000c1c       ?g_tss_mutex@@3U_RTL_CRITICAL_SECTION@@A 10028c1c     LIBCMT:thread_safe_statics.obj
 0003:00000c34       ?g_sleep_condition_variable_cs@@3P6GHPAU_RTL_CONDITION_VARIABLE@@PAU_RTL_CRITICAL_SECTION@@K@ZA 10028c34     LIBCMT:thread_safe_statics.obj
 0003:00000c38       ?g_wake_all_condition_variable@@3P6GXPAU_RTL_CONDITION_VARIABLE@@@ZA 10028c38     LIBCMT:thread_safe_statics.obj
 0003:00000c40       _GS_ExceptionRecord        10028c40     LIBCMT:gs_report.obj
 0003:00000c90       _GS_ContextRecord          10028c90     LIBCMT:gs_report.obj
 0003:00000f60       ?__proc_attached@@3HA      10028f60     LIBCMT:dll_dllmain.obj
 0003:00000fbc       ?AllocateData@@3P6GPAUAtlThunkData_t@@XZA 10028fbc     atls:atlthunk.obj
 0003:00000fc0       ?InitData@@3P6GXPAUAtlThunkData_t@@PAXI@ZA 10028fc0     atls:atlthunk.obj
 0003:00000fc4       ?DataToCode@@3P6GP6GJPAUHWND__@@IIJ@ZPAUAtlThunkData_t@@@ZA 10028fc4     atls:atlthunk.obj
 0003:00000fc8       ?FreeData@@3P6GXPAUAtlThunkData_t@@@ZA 10028fc8     atls:atlthunk.obj
 0003:00000fcc       ?Initialized@@3_NA         10028fcc     atls:atlthunk.obj
 0003:00000fdc       ?__vcrt_startup_thread_ptd@@3U__vcrt_ptd@@A 10028fdc     libvcruntime:per_thread_data.obj
 0003:00001004       ___vcrt_lock_table         10029004     libvcruntime:locks.obj
 0003:0000101c       ___vcrt_locks_initialized  1002901c     libvcruntime:locks.obj
 0003:00001048       ?heap@@3V_HeapManager@@A   10029048     libvcruntime:undname.obj
 0003:0000105c       ?module_handles@@3PAPAUHINSTANCE__@@A 1002905c     libvcruntime:winapi_downlevel.obj
 0003:00001068       ?function_pointers@@3PAPAXA 10029068     libvcruntime:winapi_downlevel.obj
 0003:0000107c       ?__acrt_invalid_parameter_handler@@3V?$dual_state_global@P6AXPB_W00II@Z@__crt_state_management@@A 1002907c     libucrt:invalid_parameter.obj
 0003:00001080       ?c_termination_complete@@3JA 10029080     libucrt:exit.obj
 0003:00001084       ?thread_local_exit_callback_func@@3P6GXPAXK0@ZA 10029084     libucrt:exit.obj
 0003:00001090       ?program_name@?1???$common_configure_argv@D@@YAHW4_crt_argv_mode@@@Z@4PADA 10029090     libucrt:argv_parsing.obj
 0003:000011c0       ?__acrt_new_handler@@3V?$dual_state_global@P6AHI@Z@__crt_state_management@@A 100291c0     libucrt:new_handler.obj
 0003:000011c8       ?module_handles@@3PAPAUHINSTANCE__@@A 100291c8     libucrt:winapi_thunks.obj
 0003:00001218       ?encoded_function_pointers@@3PAPAXA 10029218     libucrt:winapi_thunks.obj
 0003:000012a0       ?internal_state@?1??_mbtowc_l@@9@4U_Mbstatet@@A 100292a0     libucrt:mbtowc.obj
 0003:000012b0       ?enable_percent_n@@3IA     100292b0     libucrt:printf_count_output.obj
 0003:000014d0       ?__acrt_lock_table@@3PAU_RTL_CRITICAL_SECTION@@A 100294d0     libucrt:locks.obj
 0003:00001620       ?__acrt_locks_initialized@@3IA 10029620     libucrt:locks.obj
 0003:00001630       ?fSystemSet@@3HA           10029630     libucrt:mbctype.obj
 0003:00001634       ?initialized@?1??__acrt_initialize_multibyte@@9@4_NA 10029634     libucrt:mbctype.obj
 0003:00001654       ?ctrlc_action@@3V?$dual_state_global@P6AXH@Z@__crt_state_management@@A 10029654     libucrt:signal.obj
 0003:00001658       ?ctrlbreak_action@@3V?$dual_state_global@P6AXH@Z@__crt_state_management@@A 10029658     libucrt:signal.obj
 0003:0000165c       ?abort_action@@3V?$dual_state_global@P6AXH@Z@__crt_state_management@@A 1002965c     libucrt:signal.obj
 0003:00001660       ?term_action@@3V?$dual_state_global@P6AXH@Z@__crt_state_management@@A 10029660     libucrt:signal.obj
 0003:00001664       ?user_matherr@@3V?$dual_state_global@P6AHPAU_exception@@@Z@__crt_state_management@@A 10029664     libucrt:matherr.obj
 0003:00001668       ?__acrt_global_new_mode@@3V?$dual_state_global@J@__crt_state_management@@A 10029668     libucrt:new_mode.obj
 0003:00001674       ?internal_pst@?1??__mbrtoc32_utf8@__crt_mbstring@@YAIPA_UPBDIPAU_Mbstatet@@@Z@4U3@A 10029674     libucrt:mbrtoc32.obj
 0003:0000167c       ?__acrt_app_type@@3W4_crt_app_type@@A 1002967c     libucrt:report_runtime_error.obj
 0003:00001684       __pmatherr_set             10029684     libucrt:libm_error.obj
 0004:00000220       $R000000                   1002a220     Lights.res
 0004:00000ba0       $R000980                   1002aba0     Lights.res
 0004:00000c88       $R000A68                   1002ac88     Lights.res
 0004:00000ef0       $R000CD0                   1002aef0     Lights.res
 0004:000013d8       $R0011B8                   1002b3d8     Lights.res
 0004:00003718       $R0034F8                   1002d718     Lights.res
 0004:00003748       $R003528                   1002d748     Lights.res
