 OPOSRemoteOrderDisplay

 Timestamp is 5c43ff65 (Sun Jan 20 13:56:05 2019)

 Preferred load address is 10000000

 Start         Length     Name                   Class
 0001:00000000 00000080H .text$di                CODE
 0001:00000080 0001d91bH .text$mn                CODE
 0001:0001d99b 00000051H .text$x                 CODE
 0001:0001d9ec 00000042H .text$yd                CODE
 0002:00000000 00000300H .idata$5                DATA
 0002:00000300 00000004H .00cfg                  DATA
 0002:00000304 00000004H .CRT$XCA                DATA
 0002:00000308 00000004H .CRT$XCL                DATA
 0002:0000030c 00000010H .CRT$XCU                DATA
 0002:0000031c 00000004H .CRT$XCZ                DATA
 0002:00000320 00000004H .CRT$XIA                DATA
 0002:00000324 00000010H .CRT$XIC                DATA
 0002:00000334 00000004H .CRT$XIZ                DATA
 0002:00000338 00000004H .CRT$XLA                DATA
 0002:0000033c 00000004H .CRT$XLZ                DATA
 0002:00000340 00000004H .CRT$XPA                DATA
 0002:00000344 00000008H .CRT$XPX                DATA
 0002:0000034c 00000004H .CRT$XPXA               DATA
 0002:00000350 00000004H .CRT$XPZ                DATA
 0002:00000354 00000004H .CRT$XTA                DATA
 0002:00000358 00000008H .CRT$XTZ                DATA
 0002:0000035c 00000000H .gfids$x                DATA
 0002:0000035c 00000000H .gfids$y                DATA
 0002:00000360 00007028H .rdata                  DATA
 0002:00007388 00000018H .rdata$T                DATA
 0002:000073a0 00000180H .rdata$r                DATA
 0002:00007520 00000020H .rdata$sxdata           DATA
 0002:00007540 000003e8H .rdata$zzzdbg           DATA
 0002:00007928 00000004H .rtc$IAA                DATA
 0002:0000792c 00000004H .rtc$IZZ                DATA
 0002:00007930 00000004H .rtc$TAA                DATA
 0002:00007934 00000004H .rtc$TZZ                DATA
 0002:00007938 00000004H .tls                    DATA
 0002:0000793c 00000004H .tls$                   DATA
 0002:00007940 00000008H .tls$ZZZ                DATA
 0002:00007948 000005f4H .xdata$x                DATA
 0002:00007f3c 00000004H ATL$__a                 DATA
 0002:00007f40 00000010H ATL$__z                 DATA
 0002:00007f50 000000b4H .edata                  DATA
 0002:00008004 00000078H .idata$2                DATA
 0002:0000807c 00000014H .idata$3                DATA
 0002:00008090 00000300H .idata$4                DATA
 0002:00008390 00000bdeH .idata$6                DATA
 0003:00000000 000009e0H .data                   DATA
 0003:000009e0 00000098H .data$r                 DATA
 0003:00000a78 00000b5cH .bss                    DATA
 0004:00000000 00000220H .rsrc$01                DATA
 0004:00000220 00005630H .rsrc$02                DATA

  Address         Publics by Value              Rva+Base       Lib:Object

 0000:00000000       ___guard_fids_count        00000000     <absolute>
 0000:00000000       ___guard_iat_count         00000000     <absolute>
 0000:00000000       ___hybrid_code_map_count   00000000     <absolute>
 0000:00000000       ___dynamic_value_reloc_table 00000000     <absolute>
 0000:00000000       ___guard_longjmp_count     00000000     <absolute>
 0000:00000000       __except_list              00000000     <absolute>
 0000:00000000       ___guard_fids_table        00000000     <absolute>
 0000:00000000       ___guard_longjmp_table     00000000     <absolute>
 0000:00000000       ___hybrid_auxiliary_iat    00000000     <absolute>
 0000:00000000       ___guard_iat_table         00000000     <absolute>
 0000:00000000       ___volatile_metadata       00000000     <absolute>
 0000:00000000       ___enclave_config          00000000     <absolute>
 0000:00000000       ___hybrid_code_map         00000000     <absolute>
 0000:00000008       ___safe_se_handler_count   00000008     <absolute>
 0000:0000002c       __tls_array                0000002c     <absolute>
 0000:00000100       ___guard_flags             00000100     <absolute>
 0000:00000000       ___ImageBase               10000000     <linker-defined>
 0001:00000080       ?DupWide@_CW@@AAEXXZ       10001080 f   CWString.obj
 0001:0000009c       ?cw_dup@@YGXPBDAAHAAPA_W1@Z 1000109c f   CWString.obj
 0001:0000010b       ?cw_memcpy@@YGHPA_WPBDH@Z  1000110b f   CWString.obj
 0001:00000137       ?cw_strcpy@@YAHPA_WPBD@Z   10001137 f   CWString.obj
 0001:0000014a       ?cw_strlen@@YAHPBD@Z       1000114a f   CWString.obj
 0001:00000163       ??0CAtlComModule@ATL@@QAE@XZ 10001163 f i OposVariant.obj
 0001:000001a8       ??0CAtlWinModule@ATL@@QAE@XZ 100011a8 f i OposVariant.obj
 0001:000001df       ??0OposDispParms@@QAE@PAVOposVariant@@H@Z 100011df f   OposVariant.obj
 0001:00000250       ??1OposDispParms@@QAE@XZ   10001250 f   OposVariant.obj
 0001:0000025e       ??A?$CSimpleArray@GV?$CSimpleArrayEqualHelper@G@ATL@@@ATL@@QAEAAGH@Z 1000125e f i OposVariant.obj
 0001:00000283       ??_Estringdispid@CComTypeInfoHolder@ATL@@QAEPAXI@Z 10001283 f i OposVariant.obj
 0001:000002ef       ?AtlWinModuleInit@ATL@@YGJPAU_ATL_WIN_MODULE70@1@@Z 100012ef f i OposVariant.obj
 0001:00000315       ?AtlWinModuleTerm@ATL@@YGJPAU_ATL_WIN_MODULE70@1@PAUHINSTANCE__@@@Z 10001315 f i OposVariant.obj
 0001:00000378       ?ChangeBSTR@OposVariant@@QAEXPAPA_WAAJ@Z 10001378 f   OposVariant.obj
 0001:000003b9       ?ChangeLONG@OposVariant@@QAEXPAJAAJ@Z 100013b9 f   OposVariant.obj
 0001:000003fa       ?GetLONG@OposVariant@@QAEJXZ 100013fa f   OposVariant.obj
 0001:00000415       ?Init@CComCriticalSection@ATL@@QAEJXZ 10001415 f i OposVariant.obj
 0001:0000043d       ?RemoveAll@?$CSimpleArray@PAUHINSTANCE__@@V?$CSimpleArrayEqualHelper@PAUHINSTANCE__@@@ATL@@@ATL@@QAEXXZ 1000143d f i atls:atlbase.obj
 0001:0000043d       ?RemoveAll@?$CSimpleArray@GV?$CSimpleArrayEqualHelper@G@ATL@@@ATL@@QAEXXZ 1000143d f i OposVariant.obj
 0001:0000045a       ?SetBSTR@OposVariant@@QAEXPA_WAAJ@Z 1000145a f   OposVariant.obj
 0001:0000048e       ?SetBSTR_Copy@OposVariant@@QAEXPA_WAAJ@Z 1000148e f   OposVariant.obj
 0001:000004de       ?SetBSTR_InOutPtr@OposVariant@@QAE_NPAPA_WAAJ@Z 100014de f   OposVariant.obj
 0001:00000515       ?SetDispatch_Ptr@OposVariant@@QAEXPAUIDispatch@@AAJ@Z 10001515 f   OposVariant.obj
 0001:00000550       ?SetLONG@OposVariant@@QAEXJ@Z 10001550 f   OposVariant.obj
 0001:00000572       ?SetLONG_Ptr@OposVariant@@QAEXPAJAAJ@Z 10001572 f   OposVariant.obj
 0001:000005a5       ?SetString@OposVariant@@QAEXPB_WAAJ@Z 100015a5 f   OposVariant.obj
 0001:000005eb       ?SetVARIANT_BOOL@OposVariant@@QAEXF@Z 100015eb f   OposVariant.obj
 0001:00000615       ?Term@CAtlComModule@ATL@@QAEXXZ 10001615 f i OposVariant.obj
 0001:0000065f       ?_AtlRaiseException@ATL@@YAXKK@Z 1000165f f i OposVariant.obj
 0001:00000674       ?AddRef@?$CComObjectCached@VCComClassFactory@ATL@@@ATL@@UAGKXZ 10001674 f i RemoteOrderDisplay.obj
 0001:0000069b       ?Release@?$CComObjectCached@VCComClassFactory@ATL@@@ATL@@UAGKXZ 1000169b f i RemoteOrderDisplay.obj
 0001:000006d1       ?QueryInterface@?$CComObjectCached@VCComClassFactory@ATL@@@ATL@@UAGJABU_GUID@@PAPAX@Z 100016d1 f i RemoteOrderDisplay.obj
 0001:000006eb       ??_G?$CComObjectCached@VCComClassFactory@ATL@@@ATL@@UAEPAXI@Z 100016eb f i RemoteOrderDisplay.obj
 0001:000006eb       ??_E?$CComObjectCached@VCComClassFactory@ATL@@@ATL@@UAEPAXI@Z 100016eb f i RemoteOrderDisplay.obj
 0001:0000070d       ?AddRef@?$CComAggObject@VCOPOSRemoteOrderDisplay@@@ATL@@UAGKXZ 1000170d f i RemoteOrderDisplay.obj
 0001:0000071e       ?Release@?$CComAggObject@VCOPOSRemoteOrderDisplay@@@ATL@@UAGKXZ 1000171e f i RemoteOrderDisplay.obj
 0001:0000075a       ?QueryInterface@?$CComAggObject@VCOPOSRemoteOrderDisplay@@@ATL@@UAGJABU_GUID@@PAPAX@Z 1000175a f i RemoteOrderDisplay.obj
 0001:000007a9       ?AddRef@?$CComContainedObject@VCOPOSRemoteOrderDisplay@@@ATL@@UAGKXZ 100017a9 f i RemoteOrderDisplay.obj
 0001:000007bf       ?Release@?$CComContainedObject@VCOPOSRemoteOrderDisplay@@@ATL@@UAGKXZ 100017bf f i RemoteOrderDisplay.obj
 0001:000007d5       ?QueryInterface@?$CComContainedObject@VCOPOSRemoteOrderDisplay@@@ATL@@UAGJABU_GUID@@PAPAX@Z 100017d5 f i RemoteOrderDisplay.obj
 0001:000007f0       ??_G?$CComAggObject@VCOPOSRemoteOrderDisplay@@@ATL@@UAEPAXI@Z 100017f0 f i RemoteOrderDisplay.obj
 0001:000007f0       ??_E?$CComAggObject@VCOPOSRemoteOrderDisplay@@@ATL@@UAEPAXI@Z 100017f0 f i RemoteOrderDisplay.obj
 0001:00000815       ?AddRef@?$CComObject@VCOPOSRemoteOrderDisplay@@@ATL@@UAGKXZ 10001815 f i RemoteOrderDisplay.obj
 0001:0000082c       ?Release@?$CComObject@VCOPOSRemoteOrderDisplay@@@ATL@@UAGKXZ 1000182c f i RemoteOrderDisplay.obj
 0001:0000086e       ?QueryInterface@?$CComObject@VCOPOSRemoteOrderDisplay@@@ATL@@UAGJABU_GUID@@PAPAX@Z 1000186e f i RemoteOrderDisplay.obj
 0001:00000888       ?ObjectMain@CComObjectRootBase@ATL@@SGX_N@Z 10001888 f i RemoteOrderDisplay.obj
 0001:00000888       ?OnFinalMessage@?$CWindowImplBaseT@VCWindow@ATL@@V?$CWinTraits@$0FGAAAAAA@$0A@@2@@ATL@@UAEXPAUHWND__@@@Z 10001888 f i RemoteOrderDisplay.obj
 0001:0000088b       ?GetObjectDescription@?$CComCoClass@VCOPOSRemoteOrderDisplay@@$1?CLSID_OPOSRemoteOrderDisplay@@3U_GUID@@B@ATL@@SGPB_WXZ 1000188b f i RemoteOrderDisplay.obj
 0001:0000088b       ?GetCategoryMap@CComObjectRootBase@ATL@@SAPBU_ATL_CATMAP_ENTRY@2@XZ 1000188b f i RemoteOrderDisplay.obj
 0001:0000088e       ?CreateInstance@CComClassFactory@ATL@@UAGJPAUIUnknown@@ABU_GUID@@PAPAX@Z 1000188e f i RemoteOrderDisplay.obj
 0001:000008cc       ?LockServer@CComClassFactory@ATL@@UAGJH@Z 100018cc f i RemoteOrderDisplay.obj
 0001:000008eb       ??_ECComClassFactory@ATL@@UAEPAXI@Z 100018eb f i RemoteOrderDisplay.obj
 0001:000008eb       ??_GCComClassFactory@ATL@@UAEPAXI@Z 100018eb f i RemoteOrderDisplay.obj
 0001:00000916       ?OnDrawAdvanced@CComControlBase@ATL@@UAEJAAUATL_DRAWINFO@@@Z 10001916 f i RemoteOrderDisplay.obj
 0001:00000a05       ?Next@?$CComEnumImpl@UIEnumConnections@@$1?_GUID_b196b287_bab4_101a_b69c_00aa00341d07@@3U__s_GUID@@BUtagCONNECTDATA@@V?$_Copy@UtagCONNECTDATA@@@ATL@@@ATL@@UAGJKPAUtagCONNECTDATA@@PAK@Z 10001a05 f i RemoteOrderDisplay.obj
 0001:00000adc       ?Skip@?$CComEnumImpl@UIEnumConnections@@$1?_GUID_b196b287_bab4_101a_b69c_00aa00341d07@@3U__s_GUID@@BUtagCONNECTDATA@@V?$_Copy@UtagCONNECTDATA@@@ATL@@@ATL@@UAGJK@Z 10001adc f i RemoteOrderDisplay.obj
 0001:00000b09       ?Reset@?$CComEnumImpl@UIEnumConnections@@$1?_GUID_b196b287_bab4_101a_b69c_00aa00341d07@@3U__s_GUID@@BUtagCONNECTDATA@@V?$_Copy@UtagCONNECTDATA@@@ATL@@@ATL@@UAGJXZ 10001b09 f i RemoteOrderDisplay.obj
 0001:00000b09       ?Reset@?$CComEnumImpl@UIEnumConnectionPoints@@$1?_GUID_b196b285_bab4_101a_b69c_00aa00341d07@@3U__s_GUID@@BPAUIConnectionPoint@@V?$_CopyInterface@UIConnectionPoint@@@ATL@@@ATL@@UAGJXZ 10001b09 f i RemoteOrderDisplay.obj
 0001:00000b1b       ?Clone@?$CComEnumImpl@UIEnumConnections@@$1?_GUID_b196b287_bab4_101a_b69c_00aa00341d07@@3U__s_GUID@@BUtagCONNECTDATA@@V?$_Copy@UtagCONNECTDATA@@@ATL@@@ATL@@UAGJPAPAUIEnumConnections@@@Z 10001b1b f i RemoteOrderDisplay.obj
 0001:00000bfa       ?AddRef@?$CComObject@V?$CComEnum@UIEnumConnections@@$1?_GUID_b196b287_bab4_101a_b69c_00aa00341d07@@3U__s_GUID@@BUtagCONNECTDATA@@V?$_Copy@UtagCONNECTDATA@@@ATL@@VCComSingleThreadModel@6@@ATL@@@ATL@@UAGKXZ 10001bfa f i RemoteOrderDisplay.obj
 0001:00000bfa       ?AddRef@?$CComObject@V?$CComEnum@UIEnumConnectionPoints@@$1?_GUID_b196b285_bab4_101a_b69c_00aa00341d07@@3U__s_GUID@@BPAUIConnectionPoint@@V?$_CopyInterface@UIConnectionPoint@@@ATL@@VCComSingleThreadModel@6@@ATL@@@ATL@@UAGKXZ 10001bfa f i RemoteOrderDisplay.obj
 0001:00000c0b       ?Release@?$CComObject@V?$CComEnum@UIEnumConnections@@$1?_GUID_b196b287_bab4_101a_b69c_00aa00341d07@@3U__s_GUID@@BUtagCONNECTDATA@@V?$_Copy@UtagCONNECTDATA@@@ATL@@VCComSingleThreadModel@6@@ATL@@@ATL@@UAGKXZ 10001c0b f i RemoteOrderDisplay.obj
 0001:00000c0b       ?Release@?$CComObject@V?$CComEnum@UIEnumConnectionPoints@@$1?_GUID_b196b285_bab4_101a_b69c_00aa00341d07@@3U__s_GUID@@BPAUIConnectionPoint@@V?$_CopyInterface@UIConnectionPoint@@@ATL@@VCComSingleThreadModel@6@@ATL@@@ATL@@UAGKXZ 10001c0b f i RemoteOrderDisplay.obj
 0001:00000c47       ?QueryInterface@?$CComObject@V?$CComEnum@UIEnumConnections@@$1?_GUID_b196b287_bab4_101a_b69c_00aa00341d07@@3U__s_GUID@@BUtagCONNECTDATA@@V?$_Copy@UtagCONNECTDATA@@@ATL@@VCComSingleThreadModel@6@@ATL@@@ATL@@UAGJABU_GUID@@PAPAX@Z 10001c47 f i RemoteOrderDisplay.obj
 0001:00000c61       ??_G?$CComObject@V?$CComEnum@UIEnumConnections@@$1?_GUID_b196b287_bab4_101a_b69c_00aa00341d07@@3U__s_GUID@@BUtagCONNECTDATA@@V?$_Copy@UtagCONNECTDATA@@@ATL@@VCComSingleThreadModel@6@@ATL@@@ATL@@UAEPAXI@Z 10001c61 f i RemoteOrderDisplay.obj
 0001:00000c61       ??_E?$CComObject@V?$CComEnum@UIEnumConnections@@$1?_GUID_b196b287_bab4_101a_b69c_00aa00341d07@@3U__s_GUID@@BUtagCONNECTDATA@@V?$_Copy@UtagCONNECTDATA@@@ATL@@VCComSingleThreadModel@6@@ATL@@@ATL@@UAEPAXI@Z 10001c61 f i RemoteOrderDisplay.obj
 0001:00000c83       ??_E?$CComObject@VCOPOSRemoteOrderDisplay@@@ATL@@W3AEPAXI@Z 10001c83 f i RemoteOrderDisplay.obj
 0001:00000c8b       ??_E?$CComObject@VCOPOSRemoteOrderDisplay@@@ATL@@WEM@AEPAXI@Z 10001c8b f i RemoteOrderDisplay.obj
 0001:00000c93       ?QueryInterface@?$CComObject@VCOPOSRemoteOrderDisplay@@@ATL@@WHA@AGJABU_GUID@@PAPAX@Z 10001c93 f i RemoteOrderDisplay.obj
 0001:00000c9d       ?AddRef@?$CComObject@VCOPOSRemoteOrderDisplay@@@ATL@@WHA@AGKXZ 10001c9d f i RemoteOrderDisplay.obj
 0001:00000ca7       ?Release@?$CComObject@VCOPOSRemoteOrderDisplay@@@ATL@@WHA@AGKXZ 10001ca7 f i RemoteOrderDisplay.obj
 0001:00000cb1       ?QueryInterface@?$CComObject@VCOPOSRemoteOrderDisplay@@@ATL@@WHE@AGJABU_GUID@@PAPAX@Z 10001cb1 f i RemoteOrderDisplay.obj
 0001:00000cbb       ?AddRef@?$CComObject@VCOPOSRemoteOrderDisplay@@@ATL@@WHE@AGKXZ 10001cbb f i RemoteOrderDisplay.obj
 0001:00000cc5       ?Release@?$CComObject@VCOPOSRemoteOrderDisplay@@@ATL@@WHE@AGKXZ 10001cc5 f i RemoteOrderDisplay.obj
 0001:00000ccf       ?QueryInterface@?$CComObject@VCOPOSRemoteOrderDisplay@@@ATL@@WHI@AGJABU_GUID@@PAPAX@Z 10001ccf f i RemoteOrderDisplay.obj
 0001:00000cd9       ?AddRef@?$CComObject@VCOPOSRemoteOrderDisplay@@@ATL@@WHI@AGKXZ 10001cd9 f i RemoteOrderDisplay.obj
 0001:00000ce3       ?Release@?$CComObject@VCOPOSRemoteOrderDisplay@@@ATL@@WHI@AGKXZ 10001ce3 f i RemoteOrderDisplay.obj
 0001:00000ced       ?QueryInterface@?$CComObject@VCOPOSRemoteOrderDisplay@@@ATL@@WHM@AGJABU_GUID@@PAPAX@Z 10001ced f i RemoteOrderDisplay.obj
 0001:00000cf7       ?AddRef@?$CComObject@VCOPOSRemoteOrderDisplay@@@ATL@@WHM@AGKXZ 10001cf7 f i RemoteOrderDisplay.obj
 0001:00000d01       ?Release@?$CComObject@VCOPOSRemoteOrderDisplay@@@ATL@@WHM@AGKXZ 10001d01 f i RemoteOrderDisplay.obj
 0001:00000d0b       ?QueryInterface@?$CComObject@VCOPOSRemoteOrderDisplay@@@ATL@@WIA@AGJABU_GUID@@PAPAX@Z 10001d0b f i RemoteOrderDisplay.obj
 0001:00000d18       ?AddRef@?$CComObject@VCOPOSRemoteOrderDisplay@@@ATL@@WIA@AGKXZ 10001d18 f i RemoteOrderDisplay.obj
 0001:00000d25       ?Release@?$CComObject@VCOPOSRemoteOrderDisplay@@@ATL@@WIA@AGKXZ 10001d25 f i RemoteOrderDisplay.obj
 0001:00000d32       ?QueryInterface@?$CComObject@VCOPOSRemoteOrderDisplay@@@ATL@@WIE@AGJABU_GUID@@PAPAX@Z 10001d32 f i RemoteOrderDisplay.obj
 0001:00000d3f       ?AddRef@?$CComObject@VCOPOSRemoteOrderDisplay@@@ATL@@WIE@AGKXZ 10001d3f f i RemoteOrderDisplay.obj
 0001:00000d4c       ?Release@?$CComObject@VCOPOSRemoteOrderDisplay@@@ATL@@WIE@AGKXZ 10001d4c f i RemoteOrderDisplay.obj
 0001:00000d59       ?QueryInterface@?$CComObject@VCOPOSRemoteOrderDisplay@@@ATL@@WII@AGJABU_GUID@@PAPAX@Z 10001d59 f i RemoteOrderDisplay.obj
 0001:00000d66       ?AddRef@?$CComObject@VCOPOSRemoteOrderDisplay@@@ATL@@WII@AGKXZ 10001d66 f i RemoteOrderDisplay.obj
 0001:00000d73       ?Release@?$CComObject@VCOPOSRemoteOrderDisplay@@@ATL@@WII@AGKXZ 10001d73 f i RemoteOrderDisplay.obj
 0001:00000d80       ?QueryInterface@?$CComObject@VCOPOSRemoteOrderDisplay@@@ATL@@WIM@AGJABU_GUID@@PAPAX@Z 10001d80 f i RemoteOrderDisplay.obj
 0001:00000d8d       ?AddRef@?$CComObject@VCOPOSRemoteOrderDisplay@@@ATL@@WIM@AGKXZ 10001d8d f i RemoteOrderDisplay.obj
 0001:00000d9a       ?Release@?$CComObject@VCOPOSRemoteOrderDisplay@@@ATL@@WIM@AGKXZ 10001d9a f i RemoteOrderDisplay.obj
 0001:00000da7       ?QueryInterface@?$CComObject@VCOPOSRemoteOrderDisplay@@@ATL@@WJA@AGJABU_GUID@@PAPAX@Z 10001da7 f i RemoteOrderDisplay.obj
 0001:00000db4       ?AddRef@?$CComObject@VCOPOSRemoteOrderDisplay@@@ATL@@WJA@AGKXZ 10001db4 f i RemoteOrderDisplay.obj
 0001:00000dc1       ?Release@?$CComObject@VCOPOSRemoteOrderDisplay@@@ATL@@WJA@AGKXZ 10001dc1 f i RemoteOrderDisplay.obj
 0001:00000dce       ?QueryInterface@?$CComObject@VCOPOSRemoteOrderDisplay@@@ATL@@WJE@AGJABU_GUID@@PAPAX@Z 10001dce f i RemoteOrderDisplay.obj
 0001:00000ddb       ?AddRef@?$CComObject@VCOPOSRemoteOrderDisplay@@@ATL@@WJE@AGKXZ 10001ddb f i RemoteOrderDisplay.obj
 0001:00000de8       ?Release@?$CComObject@VCOPOSRemoteOrderDisplay@@@ATL@@WJE@AGKXZ 10001de8 f i RemoteOrderDisplay.obj
 0001:00000df5       ?QueryInterface@?$CComObject@VCOPOSRemoteOrderDisplay@@@ATL@@WJI@AGJABU_GUID@@PAPAX@Z 10001df5 f i RemoteOrderDisplay.obj
 0001:00000e02       ?AddRef@?$CComObject@VCOPOSRemoteOrderDisplay@@@ATL@@WJI@AGKXZ 10001e02 f i RemoteOrderDisplay.obj
 0001:00000e0f       ?Release@?$CComObject@VCOPOSRemoteOrderDisplay@@@ATL@@WJI@AGKXZ 10001e0f f i RemoteOrderDisplay.obj
 0001:00000e1c       ?QueryInterface@?$CComObject@VCOPOSRemoteOrderDisplay@@@ATL@@WJM@AGJABU_GUID@@PAPAX@Z 10001e1c f i RemoteOrderDisplay.obj
 0001:00000e29       ?AddRef@?$CComObject@VCOPOSRemoteOrderDisplay@@@ATL@@WJM@AGKXZ 10001e29 f i RemoteOrderDisplay.obj
 0001:00000e36       ?Release@?$CComObject@VCOPOSRemoteOrderDisplay@@@ATL@@WJM@AGKXZ 10001e36 f i RemoteOrderDisplay.obj
 0001:00000e43       ?QueryInterface@?$CComObject@VCOPOSRemoteOrderDisplay@@@ATL@@WKA@AGJABU_GUID@@PAPAX@Z 10001e43 f i RemoteOrderDisplay.obj
 0001:00000e50       ?AddRef@?$CComObject@VCOPOSRemoteOrderDisplay@@@ATL@@WKA@AGKXZ 10001e50 f i RemoteOrderDisplay.obj
 0001:00000e5d       ?Release@?$CComObject@VCOPOSRemoteOrderDisplay@@@ATL@@WKA@AGKXZ 10001e5d f i RemoteOrderDisplay.obj
 0001:00000e6a       ?AddRef@?$CComObject@VCOPOSRemoteOrderDisplay@@@ATL@@WKI@AGKXZ 10001e6a f i RemoteOrderDisplay.obj
 0001:00000e77       ?Release@?$CComObject@VCOPOSRemoteOrderDisplay@@@ATL@@WKI@AGKXZ 10001e77 f i RemoteOrderDisplay.obj
 0001:00000e84       ?AddRef@?$CComObject@VCOPOSRemoteOrderDisplay@@@ATL@@WLE@AGKXZ 10001e84 f i RemoteOrderDisplay.obj
 0001:00000e91       ?Release@?$CComObject@VCOPOSRemoteOrderDisplay@@@ATL@@WLE@AGKXZ 10001e91 f i RemoteOrderDisplay.obj
 0001:00000e9e       ??_E?$CComContainedObject@VCOPOSRemoteOrderDisplay@@@ATL@@W3AEPAXI@Z 10001e9e f i RemoteOrderDisplay.obj
 0001:00000ea6       ??_E?$CComContainedObject@VCOPOSRemoteOrderDisplay@@@ATL@@WEM@AEPAXI@Z 10001ea6 f i RemoteOrderDisplay.obj
 0001:00000eae       ?QueryInterface@?$CComContainedObject@VCOPOSRemoteOrderDisplay@@@ATL@@WHA@AGJABU_GUID@@PAPAX@Z 10001eae f i RemoteOrderDisplay.obj
 0001:00000eb8       ?AddRef@?$CComContainedObject@VCOPOSRemoteOrderDisplay@@@ATL@@WHA@AGKXZ 10001eb8 f i RemoteOrderDisplay.obj
 0001:00000ec2       ?Release@?$CComContainedObject@VCOPOSRemoteOrderDisplay@@@ATL@@WHA@AGKXZ 10001ec2 f i RemoteOrderDisplay.obj
 0001:00000ecc       ?QueryInterface@?$CComContainedObject@VCOPOSRemoteOrderDisplay@@@ATL@@WHE@AGJABU_GUID@@PAPAX@Z 10001ecc f i RemoteOrderDisplay.obj
 0001:00000ed6       ?AddRef@?$CComContainedObject@VCOPOSRemoteOrderDisplay@@@ATL@@WHE@AGKXZ 10001ed6 f i RemoteOrderDisplay.obj
 0001:00000ee0       ?Release@?$CComContainedObject@VCOPOSRemoteOrderDisplay@@@ATL@@WHE@AGKXZ 10001ee0 f i RemoteOrderDisplay.obj
 0001:00000eea       ?QueryInterface@?$CComContainedObject@VCOPOSRemoteOrderDisplay@@@ATL@@WHI@AGJABU_GUID@@PAPAX@Z 10001eea f i RemoteOrderDisplay.obj
 0001:00000ef4       ?AddRef@?$CComContainedObject@VCOPOSRemoteOrderDisplay@@@ATL@@WHI@AGKXZ 10001ef4 f i RemoteOrderDisplay.obj
 0001:00000efe       ?Release@?$CComContainedObject@VCOPOSRemoteOrderDisplay@@@ATL@@WHI@AGKXZ 10001efe f i RemoteOrderDisplay.obj
 0001:00000f08       ?QueryInterface@?$CComContainedObject@VCOPOSRemoteOrderDisplay@@@ATL@@WHM@AGJABU_GUID@@PAPAX@Z 10001f08 f i RemoteOrderDisplay.obj
 0001:00000f12       ?AddRef@?$CComContainedObject@VCOPOSRemoteOrderDisplay@@@ATL@@WHM@AGKXZ 10001f12 f i RemoteOrderDisplay.obj
 0001:00000f1c       ?Release@?$CComContainedObject@VCOPOSRemoteOrderDisplay@@@ATL@@WHM@AGKXZ 10001f1c f i RemoteOrderDisplay.obj
 0001:00000f26       ?QueryInterface@?$CComContainedObject@VCOPOSRemoteOrderDisplay@@@ATL@@WIA@AGJABU_GUID@@PAPAX@Z 10001f26 f i RemoteOrderDisplay.obj
 0001:00000f33       ?AddRef@?$CComContainedObject@VCOPOSRemoteOrderDisplay@@@ATL@@WIA@AGKXZ 10001f33 f i RemoteOrderDisplay.obj
 0001:00000f40       ?Release@?$CComContainedObject@VCOPOSRemoteOrderDisplay@@@ATL@@WIA@AGKXZ 10001f40 f i RemoteOrderDisplay.obj
 0001:00000f4d       ?QueryInterface@?$CComContainedObject@VCOPOSRemoteOrderDisplay@@@ATL@@WIE@AGJABU_GUID@@PAPAX@Z 10001f4d f i RemoteOrderDisplay.obj
 0001:00000f5a       ?AddRef@?$CComContainedObject@VCOPOSRemoteOrderDisplay@@@ATL@@WIE@AGKXZ 10001f5a f i RemoteOrderDisplay.obj
 0001:00000f67       ?Release@?$CComContainedObject@VCOPOSRemoteOrderDisplay@@@ATL@@WIE@AGKXZ 10001f67 f i RemoteOrderDisplay.obj
 0001:00000f74       ?QueryInterface@?$CComContainedObject@VCOPOSRemoteOrderDisplay@@@ATL@@WII@AGJABU_GUID@@PAPAX@Z 10001f74 f i RemoteOrderDisplay.obj
 0001:00000f81       ?AddRef@?$CComContainedObject@VCOPOSRemoteOrderDisplay@@@ATL@@WII@AGKXZ 10001f81 f i RemoteOrderDisplay.obj
 0001:00000f8e       ?Release@?$CComContainedObject@VCOPOSRemoteOrderDisplay@@@ATL@@WII@AGKXZ 10001f8e f i RemoteOrderDisplay.obj
 0001:00000f9b       ?QueryInterface@?$CComContainedObject@VCOPOSRemoteOrderDisplay@@@ATL@@WIM@AGJABU_GUID@@PAPAX@Z 10001f9b f i RemoteOrderDisplay.obj
 0001:00000fa8       ?AddRef@?$CComContainedObject@VCOPOSRemoteOrderDisplay@@@ATL@@WIM@AGKXZ 10001fa8 f i RemoteOrderDisplay.obj
 0001:00000fb5       ?Release@?$CComContainedObject@VCOPOSRemoteOrderDisplay@@@ATL@@WIM@AGKXZ 10001fb5 f i RemoteOrderDisplay.obj
 0001:00000fc2       ?QueryInterface@?$CComContainedObject@VCOPOSRemoteOrderDisplay@@@ATL@@WJA@AGJABU_GUID@@PAPAX@Z 10001fc2 f i RemoteOrderDisplay.obj
 0001:00000fcf       ?AddRef@?$CComContainedObject@VCOPOSRemoteOrderDisplay@@@ATL@@WJA@AGKXZ 10001fcf f i RemoteOrderDisplay.obj
 0001:00000fdc       ?Release@?$CComContainedObject@VCOPOSRemoteOrderDisplay@@@ATL@@WJA@AGKXZ 10001fdc f i RemoteOrderDisplay.obj
 0001:00000fe9       ?QueryInterface@?$CComContainedObject@VCOPOSRemoteOrderDisplay@@@ATL@@WJE@AGJABU_GUID@@PAPAX@Z 10001fe9 f i RemoteOrderDisplay.obj
 0001:00000ff6       ?AddRef@?$CComContainedObject@VCOPOSRemoteOrderDisplay@@@ATL@@WJE@AGKXZ 10001ff6 f i RemoteOrderDisplay.obj
 0001:00001003       ?Release@?$CComContainedObject@VCOPOSRemoteOrderDisplay@@@ATL@@WJE@AGKXZ 10002003 f i RemoteOrderDisplay.obj
 0001:00001010       ?QueryInterface@?$CComContainedObject@VCOPOSRemoteOrderDisplay@@@ATL@@WJI@AGJABU_GUID@@PAPAX@Z 10002010 f i RemoteOrderDisplay.obj
 0001:0000101d       ?AddRef@?$CComContainedObject@VCOPOSRemoteOrderDisplay@@@ATL@@WJI@AGKXZ 1000201d f i RemoteOrderDisplay.obj
 0001:0000102a       ?Release@?$CComContainedObject@VCOPOSRemoteOrderDisplay@@@ATL@@WJI@AGKXZ 1000202a f i RemoteOrderDisplay.obj
 0001:00001037       ?QueryInterface@?$CComContainedObject@VCOPOSRemoteOrderDisplay@@@ATL@@WJM@AGJABU_GUID@@PAPAX@Z 10002037 f i RemoteOrderDisplay.obj
 0001:00001044       ?AddRef@?$CComContainedObject@VCOPOSRemoteOrderDisplay@@@ATL@@WJM@AGKXZ 10002044 f i RemoteOrderDisplay.obj
 0001:00001051       ?Release@?$CComContainedObject@VCOPOSRemoteOrderDisplay@@@ATL@@WJM@AGKXZ 10002051 f i RemoteOrderDisplay.obj
 0001:0000105e       ?QueryInterface@?$CComContainedObject@VCOPOSRemoteOrderDisplay@@@ATL@@WKA@AGJABU_GUID@@PAPAX@Z 1000205e f i RemoteOrderDisplay.obj
 0001:0000106b       ?AddRef@?$CComContainedObject@VCOPOSRemoteOrderDisplay@@@ATL@@WKA@AGKXZ 1000206b f i RemoteOrderDisplay.obj
 0001:00001078       ?Release@?$CComContainedObject@VCOPOSRemoteOrderDisplay@@@ATL@@WKA@AGKXZ 10002078 f i RemoteOrderDisplay.obj
 0001:00001085       ?AddRef@?$CComContainedObject@VCOPOSRemoteOrderDisplay@@@ATL@@WKI@AGKXZ 10002085 f i RemoteOrderDisplay.obj
 0001:00001092       ?Release@?$CComContainedObject@VCOPOSRemoteOrderDisplay@@@ATL@@WKI@AGKXZ 10002092 f i RemoteOrderDisplay.obj
 0001:0000109f       ?AddRef@?$CComContainedObject@VCOPOSRemoteOrderDisplay@@@ATL@@WLE@AGKXZ 1000209f f i RemoteOrderDisplay.obj
 0001:000010ac       ?Release@?$CComContainedObject@VCOPOSRemoteOrderDisplay@@@ATL@@WLE@AGKXZ 100020ac f i RemoteOrderDisplay.obj
 0001:000010b9       ?Lock@CAtlModule@ATL@@UAEJXZ 100020b9 f i RemoteOrderDisplay.obj
 0001:000010c3       ?Unlock@CAtlModule@ATL@@UAEJXZ 100020c3 f i RemoteOrderDisplay.obj
 0001:000010cd       ?GetLockCount@CAtlModule@ATL@@UAEJXZ 100020cd f i RemoteOrderDisplay.obj
 0001:000010d1       ?GetGITPtr@CAtlModule@ATL@@UAEJPAPAUIGlobalInterfaceTable@@@Z 100020d1 f i RemoteOrderDisplay.obj
 0001:0000111d       ?AddCommonRGSReplacements@?$CAtlModuleT@VCComModule@ATL@@@ATL@@UAEJPAUIRegistrarBase@@@Z 1000211d f i RemoteOrderDisplay.obj
 0001:00001137       ?UpdateRegistryFromResourceD@CComModule@ATL@@UAGJPB_WHPAU_ATL_REGMAP_ENTRY@2@@Z 10002137 f i RemoteOrderDisplay.obj
 0001:00001137       ?UpdateRegistryFromResourceD@CComModule@ATL@@UAGJIHPAU_ATL_REGMAP_ENTRY@2@@Z 10002137 f i RemoteOrderDisplay.obj
 0001:0000113f       ?UpdateRegistryFromResource@CComModule@ATL@@UAGJPB_WHPAU_ATL_REGMAP_ENTRY@2@@Z 1000213f f i RemoteOrderDisplay.obj
 0001:00001148       ?UpdateRegistryFromResource@CComModule@ATL@@UAGJIHPAU_ATL_REGMAP_ENTRY@2@@Z 10002148 f i RemoteOrderDisplay.obj
 0001:00001151       ??_ECComModule@ATL@@UAEPAXI@Z 10002151 f i RemoteOrderDisplay.obj
 0001:00001151       ??_GCComModule@ATL@@UAEPAXI@Z 10002151 f i RemoteOrderDisplay.obj
 0001:00001179       ?GetWindowProc@?$CWindowImplBaseT@VCWindow@ATL@@V?$CWinTraits@$0FGAAAAAA@$0A@@2@@ATL@@UAEP6GJPAUHWND__@@IIJ@ZXZ 10002179 f i RemoteOrderDisplay.obj
 0001:0000117f       ?StartWindowProc@?$CWindowImplBaseT@VCWindow@ATL@@V?$CWinTraits@$0FGAAAAAA@$0A@@2@@ATL@@SGJPAUHWND__@@IIJ@Z 1000217f f i RemoteOrderDisplay.obj
 0001:000011d3       ?GetTypeInfoCount@?$IDispatchImpl@UIOPOSRemoteOrderDisplay@@$1?IID_IOPOSRemoteOrderDisplay@@3U_GUID@@B$1?LIBID_OposRemoteOrderDisplay_CCO@@3U3@B$00$0A@VCComTypeInfoHolder@ATL@@@ATL@@UAGJPAI@Z 100021d3 f i RemoteOrderDisplay.obj
 0001:000011f0       ?GetTypeInfo@?$IDispatchImpl@UIOPOSRemoteOrderDisplay@@$1?IID_IOPOSRemoteOrderDisplay@@3U_GUID@@B$1?LIBID_OposRemoteOrderDisplay_CCO@@3U3@B$00$0A@VCComTypeInfoHolder@ATL@@@ATL@@UAGJIKPAPAUITypeInfo@@@Z 100021f0 f i RemoteOrderDisplay.obj
 0001:00001214       ?GetIDsOfNames@?$IDispatchImpl@UIOPOSRemoteOrderDisplay@@$1?IID_IOPOSRemoteOrderDisplay@@3U_GUID@@B$1?LIBID_OposRemoteOrderDisplay_CCO@@3U3@B$00$0A@VCComTypeInfoHolder@ATL@@@ATL@@UAGJABU_GUID@@PAPA_WIKPAJ@Z 10002214 f i RemoteOrderDisplay.obj
 0001:00001234       ?Invoke@?$IDispatchImpl@UIOPOSRemoteOrderDisplay@@$1?IID_IOPOSRemoteOrderDisplay@@3U_GUID@@B$1?LIBID_OposRemoteOrderDisplay_CCO@@3U3@B$00$0A@VCComTypeInfoHolder@ATL@@@ATL@@UAGJJABU_GUID@@KGPAUtagDISPPARAMS@@PAUtagVARIANT@@PAUtagEXCEPINFO@@PAI@Z 10002234 f i RemoteOrderDisplay.obj
 0001:00001242       ?CreateControlWindow@?$CComControl@VCOPOSRemoteOrderDisplay@@V?$CWindowImpl@VCOPOSRemoteOrderDisplay@@VCWindow@ATL@@V?$CWinTraits@$0FGAAAAAA@$0A@@3@@ATL@@@ATL@@UAEPAUHWND__@@PAU3@AAUtagRECT@@@Z 10002242 f i RemoteOrderDisplay.obj
 0001:00001271       ?ControlQueryInterface@?$CComControl@VCOPOSRemoteOrderDisplay@@V?$CWindowImpl@VCOPOSRemoteOrderDisplay@@VCWindow@ATL@@V?$CWinTraits@$0FGAAAAAA@$0A@@3@@ATL@@@ATL@@UAEJABU_GUID@@PAPAX@Z 10002271 f i RemoteOrderDisplay.obj
 0001:0000128c       ?GetUserClassID@?$IOleObjectImpl@VCOPOSRemoteOrderDisplay@@@ATL@@UAGJPAU_GUID@@@Z 1000228c f i RemoteOrderDisplay.obj
 0001:0000128c       ?GetClassID@?$IPersistStorageImpl@VCOPOSRemoteOrderDisplay@@@ATL@@UAGJPAU_GUID@@@Z 1000228c f i RemoteOrderDisplay.obj
 0001:0000128c       ?GetClassID@?$IPersistStreamInitImpl@VCOPOSRemoteOrderDisplay@@@ATL@@UAGJPAU_GUID@@@Z 1000228c f i RemoteOrderDisplay.obj
 0001:000012b0       ?IsDirty@?$IPersistStreamInitImpl@VCOPOSRemoteOrderDisplay@@@ATL@@UAGJXZ 100022b0 f i RemoteOrderDisplay.obj
 0001:000012cf       ?Load@?$IPersistStreamInitImpl@VCOPOSRemoteOrderDisplay@@@ATL@@UAGJPAUIStream@@@Z 100022cf f i RemoteOrderDisplay.obj
 0001:000012ee       ?Save@?$IPersistStreamInitImpl@VCOPOSRemoteOrderDisplay@@@ATL@@UAGJPAUIStream@@H@Z 100022ee f i RemoteOrderDisplay.obj
 0001:00001310       ?GetSizeMax@?$IPersistStreamInitImpl@VCOPOSRemoteOrderDisplay@@@ATL@@UAGJPAT_ULARGE_INTEGER@@@Z 10002310 f i RemoteOrderDisplay.obj
 0001:000014c5       ?InitNew@?$IPersistStreamInitImpl@VCOPOSRemoteOrderDisplay@@@ATL@@UAGJXZ 100024c5 f i RemoteOrderDisplay.obj
 0001:000014e2       ?GetDropTarget@?$IOleInPlaceObjectWindowlessImpl@VCOPOSRemoteOrderDisplay@@@ATL@@UAGJPAPAUIDropTarget@@@Z 100024e2 f i RemoteOrderDisplay.obj
 0001:000014e2       ?GetControlInfo@?$IOleControlImpl@VCOPOSRemoteOrderDisplay@@@ATL@@UAGJPAUtagCONTROLINFO@@@Z 100024e2 f i RemoteOrderDisplay.obj
 0001:000014e2       ?OnMnemonic@?$IOleControlImpl@VCOPOSRemoteOrderDisplay@@@ATL@@UAGJPAUtagMSG@@@Z 100024e2 f i RemoteOrderDisplay.obj
 0001:000014e2       ?ContextSensitiveHelp@?$IOleInPlaceActiveObjectImpl@VCOPOSRemoteOrderDisplay@@@ATL@@UAGJH@Z 100024e2 f i RemoteOrderDisplay.obj
 0001:000014e2       ?ContextSensitiveHelp@?$IOleInPlaceObjectWindowlessImpl@VCOPOSRemoteOrderDisplay@@@ATL@@UAGJH@Z 100024e2 f i RemoteOrderDisplay.obj
 0001:000014e2       ?Unfreeze@?$IViewObjectExImpl@VCOPOSRemoteOrderDisplay@@@ATL@@UAGJK@Z 100024e2 f i RemoteOrderDisplay.obj
 0001:000014e2       ?QueryGetData@?$IDataObjectImpl@VCOPOSRemoteOrderDisplay@@@ATL@@UAGJPAUtagFORMATETC@@@Z 100024e2 f i RemoteOrderDisplay.obj
 0001:000014e2       ?SetColorScheme@?$IOleObjectImpl@VCOPOSRemoteOrderDisplay@@@ATL@@UAGJPAUtagLOGPALETTE@@@Z 100024e2 f i RemoteOrderDisplay.obj
 0001:000014ea       ?OnAmbientPropertyChange@?$IOleControlImpl@VCOPOSRemoteOrderDisplay@@@ATL@@UAGJJ@Z 100024ea f i RemoteOrderDisplay.obj
 0001:000014ea       ?OnFrameWindowActivate@?$IOleInPlaceActiveObjectImpl@VCOPOSRemoteOrderDisplay@@@ATL@@UAGJH@Z 100024ea f i RemoteOrderDisplay.obj
 0001:000014ea       ?SaveCompleted@?$IPersistStorageImpl@VCOPOSRemoteOrderDisplay@@@ATL@@UAGJPAUIStorage@@@Z 100024ea f i RemoteOrderDisplay.obj
 0001:000014ea       ?EnableModeless@?$IOleInPlaceActiveObjectImpl@VCOPOSRemoteOrderDisplay@@@ATL@@UAGJH@Z 100024ea f i RemoteOrderDisplay.obj
 0001:000014ef       ?SetClientSite@?$IOleObjectImpl@VCOPOSRemoteOrderDisplay@@@ATL@@UAGJPAUIOleClientSite@@@Z 100024ef f i RemoteOrderDisplay.obj
 0001:0000150c       ?GetClientSite@?$IOleObjectImpl@VCOPOSRemoteOrderDisplay@@@ATL@@UAGJPAPAUIOleClientSite@@@Z 1000250c f i RemoteOrderDisplay.obj
 0001:00001529       ?SetHostNames@?$IOleObjectImpl@VCOPOSRemoteOrderDisplay@@@ATL@@UAGJPB_W0@Z 10002529 f i RemoteOrderDisplay.obj
 0001:0000152e       ?Close@?$IOleObjectImpl@VCOPOSRemoteOrderDisplay@@@ATL@@UAGJK@Z 1000252e f i RemoteOrderDisplay.obj
 0001:0000154b       ?SetMoniker@?$IOleObjectImpl@VCOPOSRemoteOrderDisplay@@@ATL@@UAGJKPAUIMoniker@@@Z 1000254b f i RemoteOrderDisplay.obj
 0001:0000154b       ?GetDataHere@?$IDataObjectImpl@VCOPOSRemoteOrderDisplay@@@ATL@@UAGJPAUtagFORMATETC@@PAUtagSTGMEDIUM@@@Z 1000254b f i RemoteOrderDisplay.obj
 0001:0000154b       ?GetCanonicalFormatEtc@?$IDataObjectImpl@VCOPOSRemoteOrderDisplay@@@ATL@@UAGJPAUtagFORMATETC@@0@Z 1000254b f i RemoteOrderDisplay.obj
 0001:0000154b       ?GetClipboardData@?$IOleObjectImpl@VCOPOSRemoteOrderDisplay@@@ATL@@UAGJKPAPAUIDataObject@@@Z 1000254b f i RemoteOrderDisplay.obj
 0001:0000154b       ?EnumFormatEtc@?$IDataObjectImpl@VCOPOSRemoteOrderDisplay@@@ATL@@UAGJKPAPAUIEnumFORMATETC@@@Z 1000254b f i RemoteOrderDisplay.obj
 0001:0000154b       ?QueryInterface@CRegObject@ATL@@UAGJABU_GUID@@PAPAX@Z 1000254b f i RemoteOrderDisplay.obj
 0001:0000154b       ?GetRect@?$IViewObjectExImpl@VCOPOSRemoteOrderDisplay@@@ATL@@UAGJKPAU_RECTL@@@Z 1000254b f i RemoteOrderDisplay.obj
 0001:00001553       ?GetMoniker@?$IOleObjectImpl@VCOPOSRemoteOrderDisplay@@@ATL@@UAGJKKPAPAUIMoniker@@@Z 10002553 f i RemoteOrderDisplay.obj
 0001:00001553       ?SetData@?$IDataObjectImpl@VCOPOSRemoteOrderDisplay@@@ATL@@UAGJPAUtagFORMATETC@@PAUtagSTGMEDIUM@@H@Z 10002553 f i RemoteOrderDisplay.obj
 0001:00001553       ?InitFromData@?$IOleObjectImpl@VCOPOSRemoteOrderDisplay@@@ATL@@UAGJPAUIDataObject@@HK@Z 10002553 f i RemoteOrderDisplay.obj
 0001:0000155b       ?DoVerb@?$IOleObjectImpl@VCOPOSRemoteOrderDisplay@@@ATL@@UAGJJPAUtagMSG@@PAUIOleClientSite@@JPAUHWND__@@PBUtagRECT@@@Z 1000255b f i RemoteOrderDisplay.obj
 0001:00001673       ?EnumVerbs@?$IOleObjectImpl@VCOPOSRemoteOrderDisplay@@@ATL@@UAGJPAPAUIEnumOLEVERB@@@Z 10002673 f i RemoteOrderDisplay.obj
 0001:00001695       ?Update@?$IOleObjectImpl@VCOPOSRemoteOrderDisplay@@@ATL@@UAGJXZ 10002695 f i RemoteOrderDisplay.obj
 0001:00001695       ?Release@CRegObject@ATL@@UAGKXZ 10002695 f i RemoteOrderDisplay.obj
 0001:00001695       ?IsUpToDate@?$IOleObjectImpl@VCOPOSRemoteOrderDisplay@@@ATL@@UAGJXZ 10002695 f i RemoteOrderDisplay.obj
 0001:00001695       ?HandsOffStorage@?$IPersistStorageImpl@VCOPOSRemoteOrderDisplay@@@ATL@@UAGJXZ 10002695 f i RemoteOrderDisplay.obj
 0001:0000169a       ?GetUserType@?$IOleObjectImpl@VCOPOSRemoteOrderDisplay@@@ATL@@UAGJKPAPA_W@Z 1000269a f i RemoteOrderDisplay.obj
 0001:000016b2       ?SetExtent@?$IOleObjectImpl@VCOPOSRemoteOrderDisplay@@@ATL@@UAGJKPAUtagSIZE@@@Z 100026b2 f i RemoteOrderDisplay.obj
 0001:000016d2       ?GetExtent@?$IOleObjectImpl@VCOPOSRemoteOrderDisplay@@@ATL@@UAGJKPAUtagSIZE@@@Z 100026d2 f i RemoteOrderDisplay.obj
 0001:00001710       ?Advise@?$IOleObjectImpl@VCOPOSRemoteOrderDisplay@@@ATL@@UAGJPAUIAdviseSink@@PAK@Z 10002710 f i RemoteOrderDisplay.obj
 0001:00001730       ?Unadvise@?$IOleObjectImpl@VCOPOSRemoteOrderDisplay@@@ATL@@UAGJK@Z 10002730 f i RemoteOrderDisplay.obj
 0001:0000175f       ?EnumAdvise@?$IOleObjectImpl@VCOPOSRemoteOrderDisplay@@@ATL@@UAGJPAPAUIEnumSTATDATA@@@Z 1000275f f i RemoteOrderDisplay.obj
 0001:0000179f       ?GetMiscStatus@?$IOleObjectImpl@VCOPOSRemoteOrderDisplay@@@ATL@@UAGJKPAK@Z 1000279f f i RemoteOrderDisplay.obj
 0001:000017b7       ?GetWindow@?$IOleInPlaceActiveObjectImpl@VCOPOSRemoteOrderDisplay@@@ATL@@UAGJPAPAUHWND__@@@Z 100027b7 f i RemoteOrderDisplay.obj
 0001:00001804       ?TranslateAcceleratorW@?$IOleInPlaceActiveObjectImpl@VCOPOSRemoteOrderDisplay@@@ATL@@UAGJPAUtagMSG@@@Z 10002804 f i RemoteOrderDisplay.obj
 0001:000018a2       ?OnDocWindowActivate@?$IOleInPlaceActiveObjectImpl@VCOPOSRemoteOrderDisplay@@@ATL@@UAGJH@Z 100028a2 f i RemoteOrderDisplay.obj
 0001:000018c4       ?ResizeBorder@?$IOleInPlaceActiveObjectImpl@VCOPOSRemoteOrderDisplay@@@ATL@@UAGJPBUtagRECT@@PAUIOleInPlaceUIWindow@@H@Z 100028c4 f i RemoteOrderDisplay.obj
 0001:000018c9       ?Draw@?$IViewObjectExImpl@VCOPOSRemoteOrderDisplay@@@ATL@@UAGJKJPAXPAUtagDVTARGETDEVICE@@PAUHDC__@@2PBU_RECTL@@3P6GHK@ZK@Z 100028c9 f i RemoteOrderDisplay.obj
 0001:000018fb       ?GetColorSet@?$IViewObjectExImpl@VCOPOSRemoteOrderDisplay@@@ATL@@UAGJKJPAXPAUtagDVTARGETDEVICE@@PAUHDC__@@PAPAUtagLOGPALETTE@@@Z 100028fb f i RemoteOrderDisplay.obj
 0001:00001903       ?Freeze@?$IViewObjectExImpl@VCOPOSRemoteOrderDisplay@@@ATL@@UAGJKJPAXPAK@Z 10002903 f i RemoteOrderDisplay.obj
 0001:0000190b       ?SetAdvise@?$IViewObjectExImpl@VCOPOSRemoteOrderDisplay@@@ATL@@UAGJKKPAUIAdviseSink@@@Z 1000290b f i RemoteOrderDisplay.obj
 0001:0000192a       ?GetAdvise@?$IViewObjectExImpl@VCOPOSRemoteOrderDisplay@@@ATL@@UAGJPAK0PAPAUIAdviseSink@@@Z 1000292a f i RemoteOrderDisplay.obj
 0001:0000195f       ?GetExtent@?$IViewObjectExImpl@VCOPOSRemoteOrderDisplay@@@ATL@@UAGJKJPAUtagDVTARGETDEVICE@@PAUtagSIZE@@@Z 1000295f f i RemoteOrderDisplay.obj
 0001:00001990       ?GetViewStatus@?$IViewObjectExImpl@VCOPOSRemoteOrderDisplay@@@ATL@@UAGJPAK@Z 10002990 f i RemoteOrderDisplay.obj
 0001:000019ad       ?QueryHitPoint@?$IViewObjectExImpl@VCOPOSRemoteOrderDisplay@@@ATL@@UAGJKPBUtagRECT@@UtagPOINT@@JPAK@Z 100029ad f i RemoteOrderDisplay.obj
 0001:000019ee       ?QueryHitRect@?$IViewObjectExImpl@VCOPOSRemoteOrderDisplay@@@ATL@@UAGJKPBUtagRECT@@0JPAK@Z 100029ee f i RemoteOrderDisplay.obj
 0001:00001a49       ?GetNaturalExtent@?$IViewObjectExImpl@VCOPOSRemoteOrderDisplay@@@ATL@@UAGJKJPAUtagDVTARGETDEVICE@@PAUHDC__@@PAUtagExtentInfo@@PAUtagSIZE@@@Z 10002a49 f i RemoteOrderDisplay.obj
 0001:00001a94       ?GetWindow@?$IOleInPlaceObjectWindowlessImpl@VCOPOSRemoteOrderDisplay@@@ATL@@UAGJPAPAUHWND__@@@Z 10002a94 f i RemoteOrderDisplay.obj
 0001:00001ae1       ?InPlaceDeactivate@?$IOleInPlaceObjectWindowlessImpl@VCOPOSRemoteOrderDisplay@@@ATL@@UAGJXZ 10002ae1 f i RemoteOrderDisplay.obj
 0001:00001afb       ?UIDeactivate@?$IOleInPlaceObjectWindowlessImpl@VCOPOSRemoteOrderDisplay@@@ATL@@UAGJXZ 10002afb f i RemoteOrderDisplay.obj
 0001:00001b15       ?SetObjectRects@?$IOleInPlaceObjectWindowlessImpl@VCOPOSRemoteOrderDisplay@@@ATL@@UAGJPBUtagRECT@@0@Z 10002b15 f i RemoteOrderDisplay.obj
 0001:00001b35       ?ReactivateAndUndo@?$IOleInPlaceObjectWindowlessImpl@VCOPOSRemoteOrderDisplay@@@ATL@@UAGJXZ 10002b35 f i RemoteOrderDisplay.obj
 0001:00001b3d       ?OnWindowMessage@?$IOleInPlaceObjectWindowlessImpl@VCOPOSRemoteOrderDisplay@@@ATL@@UAGJIIJPAJ@Z 10002b3d f i RemoteOrderDisplay.obj
 0001:00001bad       ?EnumConnectionPoints@?$IConnectionPointContainerImpl@VCOPOSRemoteOrderDisplay@@@ATL@@UAGJPAPAUIEnumConnectionPoints@@@Z 10002bad f i RemoteOrderDisplay.obj
 0001:00001d27       ?FindConnectionPoint@?$IConnectionPointContainerImpl@VCOPOSRemoteOrderDisplay@@@ATL@@UAGJABU_GUID@@PAPAUIConnectionPoint@@@Z 10002d27 f i RemoteOrderDisplay.obj
 0001:00001dca       ?IsDirty@?$IPersistStorageImpl@VCOPOSRemoteOrderDisplay@@@ATL@@UAGJXZ 10002dca f i RemoteOrderDisplay.obj
 0001:00001dfe       ?InitNew@?$IPersistStorageImpl@VCOPOSRemoteOrderDisplay@@@ATL@@UAGJPAUIStorage@@@Z 10002dfe f i RemoteOrderDisplay.obj
 0001:00001e32       ?Load@?$IPersistStorageImpl@VCOPOSRemoteOrderDisplay@@@ATL@@UAGJPAUIStorage@@@Z 10002e32 f i RemoteOrderDisplay.obj
 0001:00001e9e       ?Save@?$IPersistStorageImpl@VCOPOSRemoteOrderDisplay@@@ATL@@UAGJPAUIStorage@@H@Z 10002e9e f i RemoteOrderDisplay.obj
 0001:00001f11       ?GetPages@?$ISpecifyPropertyPagesImpl@VCOPOSRemoteOrderDisplay@@@ATL@@UAGJPAUtagCAUUID@@@Z 10002f11 f i RemoteOrderDisplay.obj
 0001:00001f28       ?QuickActivate@?$IQuickActivateImpl@VCOPOSRemoteOrderDisplay@@@ATL@@UAGJPAUtagQACONTAINER@@PAUtagQACONTROL@@@Z 10002f28 f i RemoteOrderDisplay.obj
 0001:00001f4b       ?SetContentExtent@?$IQuickActivateImpl@VCOPOSRemoteOrderDisplay@@@ATL@@UAGJPAUtagSIZE@@@Z 10002f4b f i RemoteOrderDisplay.obj
 0001:00001f77       ?GetContentExtent@?$IQuickActivateImpl@VCOPOSRemoteOrderDisplay@@@ATL@@UAGJPAUtagSIZE@@@Z 10002f77 f i RemoteOrderDisplay.obj
 0001:00001f97       ?GetData@?$IDataObjectImpl@VCOPOSRemoteOrderDisplay@@@ATL@@UAGJPAUtagFORMATETC@@PAUtagSTGMEDIUM@@@Z 10002f97 f i RemoteOrderDisplay.obj
 0001:00001fba       ?DAdvise@?$IDataObjectImpl@VCOPOSRemoteOrderDisplay@@@ATL@@UAGJPAUtagFORMATETC@@KPAUIAdviseSink@@PAK@Z 10002fba f i RemoteOrderDisplay.obj
 0001:00001ffb       ?DUnadvise@?$IDataObjectImpl@VCOPOSRemoteOrderDisplay@@@ATL@@UAGJK@Z 10002ffb f i RemoteOrderDisplay.obj
 0001:00002029       ?EnumDAdvise@?$IDataObjectImpl@VCOPOSRemoteOrderDisplay@@@ATL@@UAGJPAPAUIEnumSTATDATA@@@Z 10003029 f i RemoteOrderDisplay.obj
 0001:00002068       ?GetClassInfoW@?$IProvideClassInfo2Impl@$1?CLSID_OPOSRemoteOrderDisplay@@3U_GUID@@B$1?DIID__IOPOSRemoteOrderDisplayEvents@@3U2@B$1?LIBID_OposRemoteOrderDisplay_CCO@@3U2@B$00$0A@VCComTypeInfoHolder@ATL@@@ATL@@UAGJPAPAUITypeInfo@@@Z 10003068 f i RemoteOrderDisplay.obj
 0001:0000207e       ?GetGUID@?$IProvideClassInfo2Impl@$1?CLSID_OPOSRemoteOrderDisplay@@3U_GUID@@B$1?DIID__IOPOSRemoteOrderDisplayEvents@@3U2@B$1?LIBID_OposRemoteOrderDisplay_CCO@@3U2@B$00$0A@VCComTypeInfoHolder@ATL@@@ATL@@UAGJKPAU_GUID@@@Z 1000307e f i RemoteOrderDisplay.obj
 0001:000020bc       ?FAccessAllowed@?$IObjectSafetyImpl@VCOPOSRemoteOrderDisplay@@$02@ATL@@MAEHXZ 100030bc f i RemoteOrderDisplay.obj
 0001:000020bc       __get_startup_argv_mode    100030bc f i LIBCMT:argv_mode.obj
 0001:000020c0       ?GetInterfaceSafetyOptions@?$IObjectSafetyImpl@VCOPOSRemoteOrderDisplay@@$02@ATL@@UAGJABU_GUID@@PAK1@Z 100030c0 f i RemoteOrderDisplay.obj
 0001:00002134       ?SetInterfaceSafetyOptions@?$IObjectSafetyImpl@VCOPOSRemoteOrderDisplay@@$02@ATL@@UAGJABU_GUID@@KK@Z 10003134 f i RemoteOrderDisplay.obj
 0001:000021ae       ?_LocCPQueryInterface@?$IConnectionPointImpl@VCOPOSRemoteOrderDisplay@@$1?IID_IPropertyNotifySink@@3U_GUID@@BVCComDynamicUnkArray@ATL@@@ATL@@UAGJABU_GUID@@PAPAX@Z 100031ae f i RemoteOrderDisplay.obj
 0001:000021ae       ?_LocCPQueryInterface@?$IConnectionPointImpl@VCOPOSRemoteOrderDisplay@@$1?DIID__IOPOSRemoteOrderDisplayEvents@@3U_GUID@@BVCComDynamicUnkArray@ATL@@@ATL@@UAGJABU_GUID@@PAPAX@Z 100031ae f i RemoteOrderDisplay.obj
 0001:000021fb       ?GetConnectionInterface@?$IConnectionPointImpl@VCOPOSRemoteOrderDisplay@@$1?IID_IPropertyNotifySink@@3U_GUID@@BVCComDynamicUnkArray@ATL@@@ATL@@UAGJPAU_GUID@@@Z 100031fb f i RemoteOrderDisplay.obj
 0001:0000221f       ?GetConnectionPointContainer@?$IConnectionPointImpl@VCOPOSRemoteOrderDisplay@@$1?IID_IPropertyNotifySink@@3U_GUID@@BVCComDynamicUnkArray@ATL@@@ATL@@UAGJPAPAUIConnectionPointContainer@@@Z 1000321f f i RemoteOrderDisplay.obj
 0001:00002242       ?Advise@?$IConnectionPointImpl@VCOPOSRemoteOrderDisplay@@$1?IID_IPropertyNotifySink@@3U_GUID@@BVCComDynamicUnkArray@ATL@@@ATL@@UAGJPAUIUnknown@@PAK@Z 10003242 f i RemoteOrderDisplay.obj
 0001:00002242       ?Advise@?$IConnectionPointImpl@VCOPOSRemoteOrderDisplay@@$1?DIID__IOPOSRemoteOrderDisplayEvents@@3U_GUID@@BVCComDynamicUnkArray@ATL@@@ATL@@UAGJPAUIUnknown@@PAK@Z 10003242 f i RemoteOrderDisplay.obj
 0001:000022e3       ?Unadvise@?$IConnectionPointImpl@VCOPOSRemoteOrderDisplay@@$1?DIID__IOPOSRemoteOrderDisplayEvents@@3U_GUID@@BVCComDynamicUnkArray@ATL@@@ATL@@UAGJK@Z 100032e3 f i RemoteOrderDisplay.obj
 0001:000022e3       ?Unadvise@?$IConnectionPointImpl@VCOPOSRemoteOrderDisplay@@$1?IID_IPropertyNotifySink@@3U_GUID@@BVCComDynamicUnkArray@ATL@@@ATL@@UAGJK@Z 100032e3 f i RemoteOrderDisplay.obj
 0001:00002323       ?EnumConnections@?$IConnectionPointImpl@VCOPOSRemoteOrderDisplay@@$1?IID_IPropertyNotifySink@@3U_GUID@@BVCComDynamicUnkArray@ATL@@@ATL@@UAGJPAPAUIEnumConnections@@@Z 10003323 f i RemoteOrderDisplay.obj
 0001:00002323       ?EnumConnections@?$IConnectionPointImpl@VCOPOSRemoteOrderDisplay@@$1?DIID__IOPOSRemoteOrderDisplayEvents@@3U_GUID@@BVCComDynamicUnkArray@ATL@@@ATL@@UAGJPAPAUIEnumConnections@@@Z 10003323 f i RemoteOrderDisplay.obj
 0001:00002429       ?AddRef@CRegObject@ATL@@UAGKXZ 10003429 f i RemoteOrderDisplay.obj
 0001:0000242f       ?AddReplacement@CRegObject@ATL@@UAGJPB_W0@Z 1000342f f i RemoteOrderDisplay.obj
 0001:00002468       ?ClearReplacements@CRegObject@ATL@@UAGJXZ 10003468 f i RemoteOrderDisplay.obj
 0001:0000247a       ??_ECRegObject@ATL@@UAEPAXI@Z 1000347a f i RemoteOrderDisplay.obj
 0001:0000247a       ??_GCRegObject@ATL@@UAEPAXI@Z 1000347a f i RemoteOrderDisplay.obj
 0001:0000249c       ?GetConnectionInterface@?$IConnectionPointImpl@VCOPOSRemoteOrderDisplay@@$1?DIID__IOPOSRemoteOrderDisplayEvents@@3U_GUID@@BVCComDynamicUnkArray@ATL@@@ATL@@UAGJPAU_GUID@@@Z 1000349c f i RemoteOrderDisplay.obj
 0001:000024c0       ?GetConnectionPointContainer@?$IConnectionPointImpl@VCOPOSRemoteOrderDisplay@@$1?DIID__IOPOSRemoteOrderDisplayEvents@@3U_GUID@@BVCComDynamicUnkArray@ATL@@@ATL@@UAGJPAPAUIConnectionPointContainer@@@Z 100034c0 f i RemoteOrderDisplay.obj
 0001:000024e3       ?UpdateRegistry@COPOSRemoteOrderDisplay@@SGJH@Z 100034e3 f i RemoteOrderDisplay.obj
 0001:000024fb       ?ProcessWindowMessage@COPOSRemoteOrderDisplay@@UAEHPAUHWND__@@IIJAAJK@Z 100034fb f i RemoteOrderDisplay.obj
 0001:00002544       ?SOData@COPOSRemoteOrderDisplay@@MAGJJ@Z 10003544 f i RemoteOrderDisplay.obj
 0001:0000257d       ?SODirectIO@COPOSRemoteOrderDisplay@@MAGJJPAJPAPA_W@Z 1000357d f i RemoteOrderDisplay.obj
 0001:000025c6       ?SOError@COPOSRemoteOrderDisplay@@MAGJJJJPAJ@Z 100035c6 f i RemoteOrderDisplay.obj
 0001:0000261b       ?SOOutputComplete@COPOSRemoteOrderDisplay@@MAGJJ@Z 1000361b f i RemoteOrderDisplay.obj
 0001:00002654       ?SOStatusUpdate@COPOSRemoteOrderDisplay@@MAGJJ@Z 10003654 f i RemoteOrderDisplay.obj
 0001:0000268d       ?CreateInstance@?$CComCreator@V?$CComObjectCached@VCComClassFactory@ATL@@@ATL@@@ATL@@SGJPAXABU_GUID@@PAPAX@Z 1000368d f i RemoteOrderDisplay.obj
 0001:00002720       ?CreateInstance@?$CComCreator2@V?$CComCreator@V?$CComObject@VCOPOSRemoteOrderDisplay@@@ATL@@@ATL@@V?$CComCreator@V?$CComAggObject@VCOPOSRemoteOrderDisplay@@@ATL@@@2@@ATL@@SGJPAXABU_GUID@@PAPAX@Z 10003720 f i RemoteOrderDisplay.obj
 0001:00002740       ?Next@?$CComEnumImpl@UIEnumConnectionPoints@@$1?_GUID_b196b285_bab4_101a_b69c_00aa00341d07@@3U__s_GUID@@BPAUIConnectionPoint@@V?$_CopyInterface@UIConnectionPoint@@@ATL@@@ATL@@UAGJKPAPAUIConnectionPoint@@PAK@Z 10003740 f i RemoteOrderDisplay.obj
 0001:00002817       ?Skip@?$CComEnumImpl@UIEnumConnectionPoints@@$1?_GUID_b196b285_bab4_101a_b69c_00aa00341d07@@3U__s_GUID@@BPAUIConnectionPoint@@V?$_CopyInterface@UIConnectionPoint@@@ATL@@@ATL@@UAGJK@Z 10003817 f i RemoteOrderDisplay.obj
 0001:00002844       ?Clone@?$CComEnumImpl@UIEnumConnectionPoints@@$1?_GUID_b196b285_bab4_101a_b69c_00aa00341d07@@3U__s_GUID@@BPAUIConnectionPoint@@V?$_CopyInterface@UIConnectionPoint@@@ATL@@@ATL@@UAGJPAPAUIEnumConnectionPoints@@@Z 10003844 f i RemoteOrderDisplay.obj
 0001:00002923       ?QueryInterface@?$CComObject@V?$CComEnum@UIEnumConnectionPoints@@$1?_GUID_b196b285_bab4_101a_b69c_00aa00341d07@@3U__s_GUID@@BPAUIConnectionPoint@@V?$_CopyInterface@UIConnectionPoint@@@ATL@@VCComSingleThreadModel@6@@ATL@@@ATL@@UAGJABU_GUID@@PAPAX@Z 10003923 f i RemoteOrderDisplay.obj
 0001:0000293d       ??_G?$CComObject@V?$CComEnum@UIEnumConnectionPoints@@$1?_GUID_b196b285_bab4_101a_b69c_00aa00341d07@@3U__s_GUID@@BPAUIConnectionPoint@@V?$_CopyInterface@UIConnectionPoint@@@ATL@@VCComSingleThreadModel@6@@ATL@@@ATL@@UAEPAXI@Z 1000393d f i RemoteOrderDisplay.obj
 0001:0000293d       ??_E?$CComObject@V?$CComEnum@UIEnumConnectionPoints@@$1?_GUID_b196b285_bab4_101a_b69c_00aa00341d07@@3U__s_GUID@@BPAUIConnectionPoint@@V?$_CopyInterface@UIConnectionPoint@@@ATL@@VCComSingleThreadModel@6@@ATL@@@ATL@@UAEPAXI@Z 1000393d f i RemoteOrderDisplay.obj
 0001:0000295f       ??$?4UITypeInfo2@@@?$CComPtr@UITypeInfo@@@ATL@@QAEPAUITypeInfo@@ABV?$CComPtr@UITypeInfo2@@@1@@Z 1000395f f i RemoteOrderDisplay.obj
 0001:0000298c       ??$AtlAdd@K@ATL@@YAJPAKKK@Z 1000398c f i RemoteOrderDisplay.obj
 0001:000029af       ??$AtlAdd@_K@ATL@@YAJPA_K_K1@Z 100039af f i RemoteOrderDisplay.obj
 0001:000029e7       ??$AtlAddThrow@K@ATL@@YAKKK@Z 100039e7 f i RemoteOrderDisplay.obj
 0001:00002a0d       ??$AtlModuleRegisterWndClassInfoT@VAtlModuleRegisterWndClassInfoParamW@ATL@@@ATL@@YAGPAU_ATL_BASE_MODULE70@0@PAU_ATL_WIN_MODULE70@0@PAU_ATL_WNDCLASSINFOW@0@PAP6GJPAUHWND__@@IIJ@ZVAtlModuleRegisterWndClassInfoParamW@0@@Z 10003a0d f i RemoteOrderDisplay.obj
 0001:00002b5b       ??$AtlMultiply@H@ATL@@YAJPAHHH@Z 10003b5b f i RemoteOrderDisplay.obj
 0001:00002b93       ??$AtlMultiply@I@ATL@@YAJPAIII@Z 10003b93 f i RemoteOrderDisplay.obj
 0001:00002b93       ??$AtlMultiply@K@ATL@@YAJPAKKK@Z 10003b93 f i RemoteOrderDisplay.obj
 0001:00002bb5       ??$AtlMultiplyThrow@I@ATL@@YAIII@Z 10003bb5 f i RemoteOrderDisplay.obj
 0001:00002bdb       ??0?$CComAggObject@VCOPOSRemoteOrderDisplay@@@ATL@@QAE@PAX@Z 10003bdb f i RemoteOrderDisplay.obj
 0001:00002c08       ??0?$CComContainedObject@VCOPOSRemoteOrderDisplay@@@ATL@@QAE@PAX@Z 10003c08 f i RemoteOrderDisplay.obj
 0001:00002cc1       ??0?$CComObject@V?$CComEnum@UIEnumConnectionPoints@@$1?_GUID_b196b285_bab4_101a_b69c_00aa00341d07@@3U__s_GUID@@BPAUIConnectionPoint@@V?$_CopyInterface@UIConnectionPoint@@@ATL@@VCComSingleThreadModel@6@@ATL@@@ATL@@QAE@PAX@Z 10003cc1 f i RemoteOrderDisplay.obj
 0001:00002cef       ??0?$CComObject@V?$CComEnum@UIEnumConnections@@$1?_GUID_b196b287_bab4_101a_b69c_00aa00341d07@@3U__s_GUID@@BUtagCONNECTDATA@@V?$_Copy@UtagCONNECTDATA@@@ATL@@VCComSingleThreadModel@6@@ATL@@@ATL@@QAE@PAX@Z 10003cef f i RemoteOrderDisplay.obj
 0001:00002d1d       ??0?$CComObject@VCOPOSRemoteOrderDisplay@@@ATL@@QAE@PAX@Z 10003d1d f i RemoteOrderDisplay.obj
 0001:00002dd4       ??0?$CComQIPtr@UIOleControlSite@@$1?_GUID_b196b289_bab4_101a_b69c_00aa00341d07@@3U__s_GUID@@B@ATL@@QAE@PAUIUnknown@@@Z 10003dd4 f i RemoteOrderDisplay.obj
 0001:00002dfd       ??0CAtlModule@ATL@@QAE@XZ  10003dfd f i RemoteOrderDisplay.obj
 0001:00002e3e       ??0CParseBuffer@CRegParser@ATL@@QAE@H@Z 10003e3e f i RemoteOrderDisplay.obj
 0001:00002e74       ??0_ATL_MSG@ATL@@QAE@PAUHWND__@@IIJH@Z 10003e74 f i RemoteOrderDisplay.obj
 0001:00002eac       ??1?$CComAggObject@VCOPOSRemoteOrderDisplay@@@ATL@@UAE@XZ 10003eac f i RemoteOrderDisplay.obj
 0001:00002ed0       ??1?$CComEnumImpl@UIEnumConnectionPoints@@$1?_GUID_b196b285_bab4_101a_b69c_00aa00341d07@@3U__s_GUID@@BPAUIConnectionPoint@@V?$_CopyInterface@UIConnectionPoint@@@ATL@@@ATL@@UAE@XZ 10003ed0 f i RemoteOrderDisplay.obj
 0001:00002f10       ??1?$CComEnumImpl@UIEnumConnections@@$1?_GUID_b196b287_bab4_101a_b69c_00aa00341d07@@3U__s_GUID@@BUtagCONNECTDATA@@V?$_Copy@UtagCONNECTDATA@@@ATL@@@ATL@@UAE@XZ 10003f10 f i RemoteOrderDisplay.obj
 0001:00002f50       ??1?$CComObject@V?$CComEnum@UIEnumConnectionPoints@@$1?_GUID_b196b285_bab4_101a_b69c_00aa00341d07@@3U__s_GUID@@BPAUIConnectionPoint@@V?$_CopyInterface@UIConnectionPoint@@@ATL@@VCComSingleThreadModel@6@@ATL@@@ATL@@UAE@XZ 10003f50 f i RemoteOrderDisplay.obj
 0001:00002f73       ??1?$CComObject@V?$CComEnum@UIEnumConnections@@$1?_GUID_b196b287_bab4_101a_b69c_00aa00341d07@@3U__s_GUID@@BUtagCONNECTDATA@@V?$_Copy@UtagCONNECTDATA@@@ATL@@VCComSingleThreadModel@6@@ATL@@@ATL@@UAE@XZ 10003f73 f i RemoteOrderDisplay.obj
 0001:00002f96       ??1?$CComObject@VCOPOSRemoteOrderDisplay@@@ATL@@UAE@XZ 10003f96 f i RemoteOrderDisplay.obj
 0001:00003054       ??1?$CComObjectCached@VCComClassFactory@ATL@@@ATL@@UAE@XZ 10004054 f i RemoteOrderDisplay.obj
 0001:0000306a       ??1?$CComObjectRootEx@VCComMultiThreadModel@ATL@@@ATL@@QAE@XZ 1000406a f i RemoteOrderDisplay.obj
 0001:0000307f       ??1CRegObject@ATL@@UAE@XZ  1000407f f i RemoteOrderDisplay.obj
 0001:0000309f       ??4?$CComPtr@UIUnknown@@@ATL@@QAEPAUIUnknown@@PAU2@@Z 1000409f f i RemoteOrderDisplay.obj
 0001:0000309f       ??4?$CComPtr@UIAdviseSink@@@ATL@@QAEPAUIAdviseSink@@PAU2@@Z 1000409f f i RemoteOrderDisplay.obj
 0001:0000309f       ??4?$CComPtr@UIOleClientSite@@@ATL@@QAEPAUIOleClientSite@@PAU2@@Z 1000409f f i RemoteOrderDisplay.obj
 0001:000030d3       ??4?$CComQIPtr@UIOleObject@@$1?_GUID_00000112_0000_0000_c000_000000000046@@3U__s_GUID@@B@ATL@@QAEPAUIOleObject@@PAUIUnknown@@@Z 100040d3 f i RemoteOrderDisplay.obj
 0001:000030f8       ??4?$CComQIPtr@UISpecifyPropertyPages@@$1?_GUID_b196b28b_bab4_101a_b69c_00aa00341d07@@3U__s_GUID@@B@ATL@@QAEPAUISpecifyPropertyPages@@PAUIUnknown@@@Z 100040f8 f i RemoteOrderDisplay.obj
 0001:0000311d       ??_G?$CComContainedObject@VCOPOSRemoteOrderDisplay@@@ATL@@UAEPAXI@Z 1000411d f i RemoteOrderDisplay.obj
 0001:0000311d       ??_E?$CComContainedObject@VCOPOSRemoteOrderDisplay@@@ATL@@UAEPAXI@Z 1000411d f i RemoteOrderDisplay.obj
 0001:00003142       ??_G?$CComObject@VCOPOSRemoteOrderDisplay@@@ATL@@UAEPAXI@Z 10004142 f i RemoteOrderDisplay.obj
 0001:00003142       ??_E?$CComObject@VCOPOSRemoteOrderDisplay@@@ATL@@UAEPAXI@Z 10004142 f i RemoteOrderDisplay.obj
 0001:00003167       ?Add@?$CSimpleArray@GV?$CSimpleArrayEqualHelper@G@ATL@@@ATL@@QAEHABG@Z 10004167 f i RemoteOrderDisplay.obj
 0001:000031eb       ?Add@?$CSimpleMap@PA_WPA_WVCExpansionVectorEqualHelper@ATL@@@ATL@@QAEHABQA_W0@Z 100041eb f i RemoteOrderDisplay.obj
 0001:00003240       ?Add@CComDynamicUnkArray@ATL@@QAEKPAUIUnknown@@@Z 10004240 f i RemoteOrderDisplay.obj
 0001:000032fb       ?Add@CExpansionVector@ATL@@QAEHPB_W0@Z 100042fb f i RemoteOrderDisplay.obj
 0001:000033ff       ?AddString@CParseBuffer@CRegParser@ATL@@QAEHPB_W@Z 100043ff f i RemoteOrderDisplay.obj
 0001:00003434       ?AddValue@CRegParser@ATL@@IAEJAAVCRegKey@2@PB_WPA_W@Z 10004434 f i RemoteOrderDisplay.obj
 0001:00003755       ?Allocate@?$CAtlSafeAllocBufferManager@VCCRTAllocator@ATL@@@_ATL_SAFE_ALLOCA_IMPL@ATL@@QAEPAXK@Z 10004755 f i RemoteOrderDisplay.obj
 0001:00003782       ?Allocate@?$CTempBuffer@E$0BAA@VCCRTAllocator@ATL@@@ATL@@QAEPAEI@Z 10004782 f i RemoteOrderDisplay.obj
 0001:000037b1       ?Allocate@?$CTempBuffer@_W$0BAA@VCCRTAllocator@ATL@@@ATL@@QAEPA_WI@Z 100047b1 f i RemoteOrderDisplay.obj
 0001:000037e0       ?Allocate@?$CTempBuffer@_W$0EAA@VCCRTAllocator@ATL@@@ATL@@QAEPA_WI@Z 100047e0 f i RemoteOrderDisplay.obj
 0001:0000380f       ?AllocateHeap@?$CTempBuffer@E$0BAA@VCCRTAllocator@ATL@@@ATL@@AAEXI@Z 1000480f f i RemoteOrderDisplay.obj
 0001:0000380f       ?AllocateHeap@?$CTempBuffer@_W$0BAA@VCCRTAllocator@ATL@@@ATL@@AAEXI@Z 1000480f f i RemoteOrderDisplay.obj
 0001:0000380f       ?AllocateHeap@?$CTempBuffer@_W$0EAA@VCCRTAllocator@ATL@@@ATL@@AAEXI@Z 1000480f f i RemoteOrderDisplay.obj
 0001:00003834       ?Append@CParseBuffer@CRegParser@ATL@@QAEHPB_WH@Z 10004834 f i RemoteOrderDisplay.obj
 0001:000038c2       ?AtlCallTermFunc@ATL@@YGXPAU_ATL_MODULE70@1@@Z 100048c2 f i RemoteOrderDisplay.obj
 0001:00003906       ?AtlCoTaskMemCAlloc@ATL@@YAPAXKK@Z 10004906 f i RemoteOrderDisplay.obj
 0001:00003933       ?AtlCoTaskMemRecalloc@ATL@@YAPAXPAXKK@Z 10004933 f i RemoteOrderDisplay.obj
 0001:00003963       ?AtlComModuleGetClassObject@ATL@@YGJPAU_ATL_COM_MODULE70@1@ABU_GUID@@1PAPAX@Z 10004963 f i RemoteOrderDisplay.obj
 0001:00003a56       ?AtlComModuleRegisterServer@ATL@@YGJPAU_ATL_COM_MODULE70@1@HPBU_GUID@@@Z 10004a56 f i RemoteOrderDisplay.obj
 0001:00003ade       ?AtlComModuleUnregisterServer@ATL@@YGJPAU_ATL_COM_MODULE70@1@HPBU_GUID@@@Z 10004ade f i RemoteOrderDisplay.obj
 0001:00003b66       ?AtlComQIPtrAssign2@ATL@@YAXPAPAUIUnknown@@PAU2@ABU_GUID@@@Z 10004b66 f i RemoteOrderDisplay.obj
 0001:00003b95       ?AtlCreateTargetDC@ATL@@YGPAUHDC__@@PAU2@PAUtagDVTARGETDEVICE@@@Z 10004b95 f i RemoteOrderDisplay.obj
 0001:00003bfe       ?AtlCrtErrorCheck@ATL@@YAHH@Z 10004bfe f i RemoteOrderDisplay.obj
 0001:00003c39       ?AtlHiMetricToPixel@ATL@@YGXPBUtagSIZE@@PAU2@@Z 10004c39 f i RemoteOrderDisplay.obj
 0001:00003cae       ?AtlHresultFromLastError@ATL@@YAJXZ 10004cae f i RemoteOrderDisplay.obj
 0001:00003cc5       ?AtlHresultFromWin32@ATL@@YAJK@Z 10004cc5 f i RemoteOrderDisplay.obj
 0001:00003cda       ?AtlIPersistStreamInit_Load@ATL@@YGJPAUIStream@@PBUATL_PROPMAP_ENTRY@1@PAXPAUIUnknown@@@Z 10004cda f i RemoteOrderDisplay.obj
 0001:00003eba       ?AtlIPersistStreamInit_Save@ATL@@YGJPAUIStream@@HPBUATL_PROPMAP_ENTRY@1@PAXPAUIUnknown@@@Z 10004eba f i RemoteOrderDisplay.obj
 0001:00004052       ?AtlInternalOleLoadFromStream@ATL@@YAJPAUIStream@@ABU_GUID@@PAPAXTClassesAllowedInStream@1@K@Z 10005052 f i RemoteOrderDisplay.obj
 0001:00004178       ?AtlInternalQueryInterface@ATL@@YGJPAXPBU_ATL_INTMAP_ENTRY@1@ABU_GUID@@PAPAX@Z 10005178 f i RemoteOrderDisplay.obj
 0001:0000421b       ?AtlLoadTypeLib@ATL@@YGJPAUHINSTANCE__@@PB_WPAPA_WPAPAUITypeLib@@@Z 1000521b f i RemoteOrderDisplay.obj
 0001:000043f9       ?AtlModuleAddTermFunc@ATL@@YGJPAU_ATL_MODULE70@1@P6GXK@ZK@Z 100053f9 f i RemoteOrderDisplay.obj
 0001:00004456       ?AtlRegisterClassCategoriesHelper@ATL@@YGJABU_GUID@@PBU_ATL_CATMAP_ENTRY@1@H@Z 10005456 f i RemoteOrderDisplay.obj
 0001:00004736       ?AtlRegisterTypeLib@ATL@@YGJPAUHINSTANCE__@@PB_W@Z 10005736 f i RemoteOrderDisplay.obj
 0001:000048be       ?AtlThrowImpl@ATL@@YGXJ@Z  100058be f i RemoteOrderDisplay.obj
 0001:000048dc       ?AtlUnRegisterTypeLib@ATL@@YGJPAUHINSTANCE__@@PB_W@Z 100058dc f i RemoteOrderDisplay.obj
 0001:00004987       ?AtlWinModuleAddCreateWndData@ATL@@YGXPAU_ATL_WIN_MODULE70@1@PAU_AtlCreateWndData@1@PAX@Z 10005987 f i RemoteOrderDisplay.obj
 0001:000049db       ?AtlWinModuleExtractCreateWndData@ATL@@YGPAXPAU_ATL_WIN_MODULE70@1@@Z 100059db f i RemoteOrderDisplay.obj
 0001:00004a3e       ?AtlWinModuleRegisterClassExW@ATL@@YGGPAU_ATL_WIN_MODULE70@1@PBUtagWNDCLASSEXW@@@Z 10005a3e f i RemoteOrderDisplay.obj
 0001:00004a7d       ?CanForceRemoveKey@CRegParser@ATL@@IAEHPB_W@Z 10005a7d f i RemoteOrderDisplay.obj
 0001:00004aac       ?ChToByte@CRegParser@ATL@@KAE_W@Z 10005aac f i RemoteOrderDisplay.obj
 0001:00004adf       ?Cleanup@CComTypeInfoHolder@ATL@@SGXK@Z 10005adf f i RemoteOrderDisplay.obj
 0001:00004b12       ?ClearReplacements@CExpansionVector@ATL@@QAEJXZ 10005b12 f i RemoteOrderDisplay.obj
 0001:00004b4f       ?Close@CRegKey@ATL@@QAEJXZ 10005b4f f i RemoteOrderDisplay.obj
 0001:00004b69       ?CreateInstance@?$CComCreator@V?$CComAggObject@VCOPOSRemoteOrderDisplay@@@ATL@@@ATL@@SGJPAXABU_GUID@@PAPAX@Z 10005b69 f i RemoteOrderDisplay.obj
 0001:00004bdf       ?CreateInstance@?$CComCreator@V?$CComObject@VCOPOSRemoteOrderDisplay@@@ATL@@@ATL@@SGJPAXABU_GUID@@PAPAX@Z 10005bdf f i RemoteOrderDisplay.obj
 0001:00004c60       ?CreateInstance@?$CComObject@V?$CComEnum@UIEnumConnectionPoints@@$1?_GUID_b196b285_bab4_101a_b69c_00aa00341d07@@3U__s_GUID@@BPAUIConnectionPoint@@V?$_CopyInterface@UIConnectionPoint@@@ATL@@VCComSingleThreadModel@6@@ATL@@@ATL@@SGJPAPAV12@@Z 10005c60 f i RemoteOrderDisplay.obj
 0001:00004ca7       ?CreateInstance@?$CComObject@V?$CComEnum@UIEnumConnections@@$1?_GUID_b196b287_bab4_101a_b69c_00aa00341d07@@3U__s_GUID@@BUtagCONNECTDATA@@V?$_Copy@UtagCONNECTDATA@@@ATL@@VCComSingleThreadModel@6@@ATL@@@ATL@@SGJPAPAV12@@Z 10005ca7 f i RemoteOrderDisplay.obj
 0001:00004cee       ?DefaultReflectionHandler@?$CWindowImplRoot@VCWindow@ATL@@@ATL@@SAHPAUHWND__@@IIJAAJ@Z 10005cee f i RemoteOrderDisplay.obj
 0001:00004d61       ?DeleteSubKey@CRegKey@ATL@@QAEJPB_W@Z 10005d61 f i RemoteOrderDisplay.obj
 0001:00004dda       ?DoEvent@COPOSRemoteOrderDisplay@@IAEXIIJ@Z 10005dda f i RemoteOrderDisplay.obj
 0001:00004e5a       ?DoVerbHide@?$IOleObjectImpl@VCOPOSRemoteOrderDisplay@@@ATL@@QAEJPBUtagRECT@@PAUHWND__@@@Z 10005e5a f i RemoteOrderDisplay.obj
 0001:00004e90       ?DoVerbInPlaceActivate@?$IOleObjectImpl@VCOPOSRemoteOrderDisplay@@@ATL@@QAEJPBUtagRECT@@PAUHWND__@@@Z 10005e90 f i RemoteOrderDisplay.obj
 0001:00004ec3       ?DoVerbPrimary@?$IOleObjectImpl@VCOPOSRemoteOrderDisplay@@@ATL@@QAEJPBUtagRECT@@PAUHWND__@@@Z 10005ec3 f i RemoteOrderDisplay.obj
 0001:00004f4f       ?DoVerbProperties@CComControlBase@ATL@@QAEJPBUtagRECT@@PAUHWND__@@@Z 10005f4f f i RemoteOrderDisplay.obj
 0001:00005076       ?DoVerbShow@?$IOleObjectImpl@VCOPOSRemoteOrderDisplay@@@ATL@@QAEJPBUtagRECT@@PAUHWND__@@@Z 10006076 f i RemoteOrderDisplay.obj
 0001:0000509b       ?DoVerbUIActivate@?$IOleObjectImpl@VCOPOSRemoteOrderDisplay@@@ATL@@QAEJPBUtagRECT@@PAUHWND__@@@Z 1000609b f i RemoteOrderDisplay.obj
 0001:000050d8       ?DoesVerbActivate@CComControlBase@ATL@@QAEHJ@Z 100060d8 f i RemoteOrderDisplay.obj
 0001:000050f9       ?DoesVerbUIActivate@CComControlBase@ATL@@QAEHJ@Z 100060f9 f i RemoteOrderDisplay.obj
 0001:0000512e       ?EndOfVar@CRegParser@ATL@@IAEHXZ 1000612e f i RemoteOrderDisplay.obj
 0001:0000514e       ?EscapeSingleQuote@CAtlModule@ATL@@SAXPA_WIPB_W@Z 1000614e f i RemoteOrderDisplay.obj
 0001:0000519d       ?FindKey@?$CSimpleMap@PA_WPA_WVCExpansionVectorEqualHelper@ATL@@@ATL@@QBEHABQA_W@Z 1000619d f i RemoteOrderDisplay.obj
 0001:000051d4       ?FireTheEvent@?$CProxy_IOPOSEvents@VCOPOSRemoteOrderDisplay@@@@IAEXPAVOposVariant@@IAAJPB_WJ@Z 100061d4 f i RemoteOrderDisplay.obj
 0001:00005266       ?FireViewChange@CComControlBase@ATL@@QAEJXZ 10006266 f i RemoteOrderDisplay.obj
 0001:000052af       ?Fire_DataEvent@?$CProxy_IOPOSEvents@VCOPOSRemoteOrderDisplay@@@@QAEXJ@Z 100062af f i RemoteOrderDisplay.obj
 0001:0000533b       ?Fire_DirectIOEvent@?$CProxy_IOPOSEvents@VCOPOSRemoteOrderDisplay@@@@QAEXJPAJPAPA_W@Z 1000633b f i RemoteOrderDisplay.obj
 0001:00005421       ?Fire_ErrorEvent@?$CProxy_IOPOSEvents@VCOPOSRemoteOrderDisplay@@@@QAEXJJJPAJ@Z 10006421 f i RemoteOrderDisplay.obj
 0001:00005508       ?Fire_OutputCompleteEvent@?$CProxy_IOPOSEvents@VCOPOSRemoteOrderDisplay@@@@QAEXJ@Z 10006508 f i RemoteOrderDisplay.obj
 0001:00005594       ?Fire_StatusUpdateEvent@?$CProxy_IOPOSEvents@VCOPOSRemoteOrderDisplay@@@@QAEXJ@Z 10006594 f i RemoteOrderDisplay.obj
 0001:00005620       ?FreeHeap@?$CTempBuffer@E$0BAA@VCCRTAllocator@ATL@@@ATL@@AAEXXZ 10006620 f i RemoteOrderDisplay.obj
 0001:00005620       ?FreeHeap@?$CTempBuffer@_W$0BAA@VCCRTAllocator@ATL@@@ATL@@AAEXXZ 10006620 f i RemoteOrderDisplay.obj
 0001:00005620       ?FreeHeap@?$CTempBuffer@_W$0EAA@VCCRTAllocator@ATL@@@ATL@@AAEXXZ 10006620 f i RemoteOrderDisplay.obj
 0001:00005629       ?GetAmbientLocaleID@CComControlBase@ATL@@QAEJAAK@Z 10006629 f i RemoteOrderDisplay.obj
 0001:00005685       ?GetAmbientUserMode@CComControlBase@ATL@@QAEJAAH@Z 10006685 f i RemoteOrderDisplay.obj
 0001:000056f5       ?GetAt@CComDynamicUnkArray@ATL@@QAEPAUIUnknown@@H@Z 100066f5 f i RemoteOrderDisplay.obj
 0001:00005711       ?GetClassObject@CComModule@ATL@@QAEJABU_GUID@@0PAPAX@Z 10006711 f i RemoteOrderDisplay.obj
 0001:000057b3       ?GetConnMap@COPOSRemoteOrderDisplay@@SAPBU_ATL_CONNMAP_ENTRY@ATL@@PAH@Z 100067b3 f i RemoteOrderDisplay.obj
 0001:00005823       ?GetCookie@CComDynamicUnkArray@ATL@@QAGKPAPAUIUnknown@@@Z 10006823 f i RemoteOrderDisplay.obj
 0001:0000585b       ?GetIDsOfNames@CComTypeInfoHolder@ATL@@QAEJABU_GUID@@PAPA_WIKPAJ@Z 1000685b f i RemoteOrderDisplay.obj
 0001:00005969       ?GetKeyAt@?$CSimpleMap@PA_WPA_WVCExpansionVectorEqualHelper@ATL@@@ATL@@QBEAAPA_WH@Z 10006969 f i RemoteOrderDisplay.obj
 0001:0000598e       ?GetPagesHelper@?$ISpecifyPropertyPagesImpl@VCOPOSRemoteOrderDisplay@@@ATL@@IAEJPAUtagCAUUID@@PBUATL_PROPMAP_ENTRY@2@@Z 1000698e f i RemoteOrderDisplay.obj
 0001:00005ab5       ?GetProperty@?$CComPtr@UIDispatch@@@ATL@@SAJPAUIDispatch@@JPAUtagVARIANT@@@Z 10006ab5 f i RemoteOrderDisplay.obj
 0001:00005b04       ?GetSizeMax@CComVariant@ATL@@QBEJPAT_ULARGE_INTEGER@@@Z 10006b04 f i RemoteOrderDisplay.obj
 0001:00005cbe       ?GetStreamSize@CComBSTR@ATL@@SAKPA_W@Z 10006cbe f i RemoteOrderDisplay.obj
 0001:00005cd8       ?GetTI@CComTypeInfoHolder@ATL@@QAEJK@Z 10006cd8 f i RemoteOrderDisplay.obj
 0001:00005ec1       ?GetTI@CComTypeInfoHolder@ATL@@QAEJKPAPAUITypeInfo@@@Z 10006ec1 f i RemoteOrderDisplay.obj
 0001:00005f03       ?GetUnknown@CComDynamicUnkArray@ATL@@QAGPAUIUnknown@@K@Z 10006f03 f i RemoteOrderDisplay.obj
 0001:00005f24       ?GetValueAt@?$CSimpleMap@PA_WPA_WVCExpansionVectorEqualHelper@ATL@@@ATL@@QBEAAPA_WH@Z 10006f24 f i RemoteOrderDisplay.obj
 0001:00005f4a       ?GetZoomInfo@CComControlBase@ATL@@QAEXAAUATL_DRAWINFO@@@Z 10006f4a f i RemoteOrderDisplay.obj
 0001:00005fdd       ?HKeyFromString@CRegParser@ATL@@KAPAUHKEY__@@PA_W@Z 10006fdd f i RemoteOrderDisplay.obj
 0001:0000600b       ?HasSubKeys@CRegParser@ATL@@IAEHPAUHKEY__@@@Z 1000700b f i RemoteOrderDisplay.obj
 0001:00006040       ?IDataObject_GetData@CComControlBase@ATL@@QAEJPAUtagFORMATETC@@PAUtagSTGMEDIUM@@@Z 10007040 f i RemoteOrderDisplay.obj
 0001:000061e6       ?IOleInPlaceObject_InPlaceDeactivate@CComControlBase@ATL@@QAEJXZ 100071e6 f i RemoteOrderDisplay.obj
 0001:0000626d       ?IOleInPlaceObject_SetObjectRects@CComControlBase@ATL@@QAEJPBUtagRECT@@0@Z 1000726d f i RemoteOrderDisplay.obj
 0001:0000633a       ?IOleInPlaceObject_UIDeactivate@CComControlBase@ATL@@QAEJXZ 1000733a f i RemoteOrderDisplay.obj
 0001:000063fc       ?IOleObject_Advise@CComControlBase@ATL@@QAEJPAUIAdviseSink@@PAK@Z 100073fc f i RemoteOrderDisplay.obj
 0001:00006426       ?IOleObject_Close@CComControlBase@ATL@@QAEJK@Z 10007426 f i RemoteOrderDisplay.obj
 0001:0000650a       ?IOleObject_GetClientSite@CComControlBase@ATL@@QAEJPAPAUIOleClientSite@@@Z 1000750a f i RemoteOrderDisplay.obj
 0001:00006533       ?IOleObject_SetClientSite@CComControlBase@ATL@@QAEJPAUIOleClientSite@@@Z 10007533 f i RemoteOrderDisplay.obj
 0001:00006572       ?IOleObject_SetExtent@CComControlBase@ATL@@QAEJKPAUtagSIZE@@@Z 10007572 f i RemoteOrderDisplay.obj
 0001:00006626       ?IPSI_GetIPersistStreamInit@?$IPersistStorageImpl@VCOPOSRemoteOrderDisplay@@@ATL@@AAEPAUIPersistStreamInit@@XZ 10007626 f i RemoteOrderDisplay.obj
 0001:00006668       ?IPersistStreamInit_Load@?$IPersistStreamInitImpl@VCOPOSRemoteOrderDisplay@@@ATL@@QAEJPAUIStream@@PBUATL_PROPMAP_ENTRY@2@@Z 10007668 f i RemoteOrderDisplay.obj
 0001:00006694       ?IPersistStreamInit_Save@?$IPersistStreamInitImpl@VCOPOSRemoteOrderDisplay@@@ATL@@QAEJPAUIStream@@HPBUATL_PROPMAP_ENTRY@2@@Z 10007694 f i RemoteOrderDisplay.obj
 0001:000066c9       ?IQuickActivate_QuickActivate@CComControlBase@ATL@@QAEJPAUtagQACONTAINER@@PAUtagQACONTROL@@@Z 100076c9 f i RemoteOrderDisplay.obj
 0001:0000690b       ?IViewObject_Draw@CComControlBase@ATL@@QAEJKJPAXPAUtagDVTARGETDEVICE@@PAUHDC__@@2PBU_RECTL@@3@Z 1000790b f i RemoteOrderDisplay.obj
 0001:000069b3       ?InPlaceActivate@CComControlBase@ATL@@QAEJJPBUtagRECT@@@Z 100079b3 f i RemoteOrderDisplay.obj
 0001:00006c24       ?Init@?$CComEnumImpl@UIEnumConnectionPoints@@$1?_GUID_b196b285_bab4_101a_b69c_00aa00341d07@@3U__s_GUID@@BPAUIConnectionPoint@@V?$_CopyInterface@UIConnectionPoint@@@ATL@@@ATL@@QAEJPAPAUIConnectionPoint@@0PAUIUnknown@@W4CComEnumFlags@2@@Z 10007c24 f i RemoteOrderDisplay.obj
 0001:00006d03       ?Init@?$CComEnumImpl@UIEnumConnections@@$1?_GUID_b196b287_bab4_101a_b69c_00aa00341d07@@3U__s_GUID@@BUtagCONNECTDATA@@V?$_Copy@UtagCONNECTDATA@@@ATL@@@ATL@@QAEJPAUtagCONNECTDATA@@0PAUIUnknown@@W4CComEnumFlags@2@@Z 10007d03 f i RemoteOrderDisplay.obj
 0001:00006de2       ?Init@CComModule@ATL@@QAEJPAU_ATL_OBJMAP_ENTRY30@2@PAUHINSTANCE__@@PBU_GUID@@@Z 10007de2 f i RemoteOrderDisplay.obj
 0001:00006e41       ?Init@CDynamicStdCallThunk2@ATL@@QAEHKPAX@Z 10007e41 f i RemoteOrderDisplay.obj
 0001:00006e6c       ?InlineIsEqualUnknown@ATL@@YGHABU_GUID@@@Z 10007e6c f i RemoteOrderDisplay.obj
 0001:00006e94       ?InternalGetSite@CComControlBase@ATL@@QAEJABU_GUID@@PAPAX@Z 10007e94 f i RemoteOrderDisplay.obj
 0001:00006ec2       ?InternalSetAtIndex@?$CSimpleMap@PA_WPA_WVCExpansionVectorEqualHelper@ATL@@@ATL@@QAEXHABQA_W0@Z 10007ec2 f i RemoteOrderDisplay.obj
 0001:00006eec       ?Invoke@CComTypeInfoHolder@ATL@@QAEJPAUIDispatch@@JABU_GUID@@KGPAUtagDISPPARAMS@@PAUtagVARIANT@@PAUtagEXCEPINFO@@PAI@Z 10007eec f i RemoteOrderDisplay.obj
 0001:00006f2f       ?IsEqualObject@?$CComPtrBase@UITypeInfo@@@ATL@@QAE_NPAUIUnknown@@@Z 10007f2f f i RemoteOrderDisplay.obj
 0001:00006f2f       ?IsEqualObject@?$CComPtrBase@UIOleClientSite@@@ATL@@QAE_NPAUIUnknown@@@Z 10007f2f f i RemoteOrderDisplay.obj
 0001:00006f9c       ?IsSpace@CRegParser@ATL@@IAEH_W@Z 10007f9c f i RemoteOrderDisplay.obj
 0001:00006fc6       ?LoadNameCache@CComTypeInfoHolder@ATL@@QAEJPAUITypeInfo@@@Z 10007fc6 f i RemoteOrderDisplay.obj
 0001:00007114       ?Lookup@?$CSimpleMap@PA_WPA_WVCExpansionVectorEqualHelper@ATL@@@ATL@@QBEPA_WABQA_W@Z 10008114 f i RemoteOrderDisplay.obj
 0001:0000713a       ?NextToken@CRegParser@ATL@@IAEJPA_W@Z 1000813a f i RemoteOrderDisplay.obj
 0001:00007272       ?OnKillFocus@CComControlBase@ATL@@QAEJIIJAAH@Z 10008272 f i RemoteOrderDisplay.obj
 0001:000072cd       ?OnMouseActivate@CComControlBase@ATL@@QAEJIIJAAH@Z 100082cd f i RemoteOrderDisplay.obj
 0001:0000733b       ?OnPaint@CComControlBase@ATL@@QAEJIIJAAH@Z 1000833b f i RemoteOrderDisplay.obj
 0001:000073ed       ?OnSetFocus@CComControlBase@ATL@@QAEJIIJAAH@Z 100083ed f i RemoteOrderDisplay.obj
 0001:00007476       ?Open@CRegKey@ATL@@QAEJPAUHKEY__@@PB_WK@Z 10008476 f i RemoteOrderDisplay.obj
 0001:000074cb       ?PreProcessBuffer@CRegParser@ATL@@QAEJPA_WPAPA_W@Z 100084cb f i RemoteOrderDisplay.obj
 0001:00007735       ?ProcessWindowMessage@?$CComControl@VCOPOSRemoteOrderDisplay@@V?$CWindowImpl@VCOPOSRemoteOrderDisplay@@VCWindow@ATL@@V?$CWinTraits@$0FGAAAAAA@$0A@@3@@ATL@@@ATL@@UAEHPAUHWND__@@IIJAAJK@Z 10008735 f i RemoteOrderDisplay.obj
 0001:000077d4       ?PutProperty@?$CComPtr@UIDispatch@@@ATL@@SAJPAUIDispatch@@JPAUtagVARIANT@@@Z 100087d4 f i RemoteOrderDisplay.obj
 0001:00007866       ?ReadFromStream@CComBSTR@ATL@@QAEJPAUIStream@@@Z 10008866 f i RemoteOrderDisplay.obj
 0001:00007994       ?ReadFromStream@CComVariant@ATL@@QAEJPAUIStream@@GTClassesAllowedInStream@2@K@Z 10008994 f i RemoteOrderDisplay.obj
 0001:00007b1a       ?RecurseDeleteKey@CRegKey@ATL@@QAEJPB_W@Z 10008b1a f i RemoteOrderDisplay.obj
 0001:00007bdc       ?RegCreateKeyExW@CAtlTransactionManager@ATL@@QAEJPAUHKEY__@@PB_WKPA_WKKQAU_SECURITY_ATTRIBUTES@@PAPAU3@PAK@Z 10008bdc f i RemoteOrderDisplay.obj
 0001:00007c3f       ?RegDeleteKeyW@CAtlTransactionManager@ATL@@QAEJPAUHKEY__@@PB_W@Z 10008c3f f i RemoteOrderDisplay.obj
 0001:00007c91       ?RegOpenKeyExW@CAtlTransactionManager@ATL@@QAEJPAUHKEY__@@PB_WKKPAPAU3@@Z 10008c91 f i RemoteOrderDisplay.obj
 0001:00007ce8       ?Register@_ATL_WNDCLASSINFOW@ATL@@QAEGPAP6GJPAUHWND__@@IIJ@Z@Z 10008ce8 f i RemoteOrderDisplay.obj
 0001:00007d08       ?RegisterBuffer@CRegParser@ATL@@QAEJPA_WH@Z 10008d08 f i RemoteOrderDisplay.obj
 0001:00007e41       ?RegisterFromResource@CRegObject@ATL@@IAEJPB_W00H@Z 10008e41 f i RemoteOrderDisplay.obj
 0001:00007f77       ?RegisterServer@?$CAtlModuleT@VCComModule@ATL@@@ATL@@QAEJHPBU_GUID@@@Z 10008f77 f i RemoteOrderDisplay.obj
 0001:00007fa5       ?RegisterServer@CComModule@ATL@@QAEJHPBU_GUID@@@Z 10008fa5 f i RemoteOrderDisplay.obj
 0001:0000801b       ?RegisterSubkeys@CRegParser@ATL@@IAEJPA_WPAUHKEY__@@HH@Z 1000901b f i RemoteOrderDisplay.obj
 0001:000085ea       ?Remove@CComDynamicUnkArray@ATL@@QAEHK@Z 100095ea f i RemoteOrderDisplay.obj
 0001:00008613       ?RemoveAll@?$CSimpleMap@PA_WPA_WVCExpansionVectorEqualHelper@ATL@@@ATL@@QAEXXZ 10009613 f i RemoteOrderDisplay.obj
 0001:0000863f       ?ResourceRegisterSz@CRegObject@ATL@@QAGJPB_W00@Z 1000963f f i RemoteOrderDisplay.obj
 0001:0000866c       ?ResourceUnregisterSz@CRegObject@ATL@@QAGJPB_W00@Z 1000966c f i RemoteOrderDisplay.obj
 0001:00008699       ?SendOnDataChange@CComControlBase@ATL@@QAEJK@Z 10009699 f i RemoteOrderDisplay.obj
 0001:000086e6       ?SetControlFocus@CComControlBase@ATL@@QAEHH@Z 100096e6 f i RemoteOrderDisplay.obj
 0001:00008783       ?SetMultiStringValue@CRegKey@ATL@@QAEJPB_W0@Z 10009783 f i RemoteOrderDisplay.obj
 0001:000087df       ?SetStringValue@CRegKey@ATL@@QAEJPB_W0K@Z 100097df f i RemoteOrderDisplay.obj
 0001:00008828       ?SkipAssignment@CRegParser@ATL@@IAEJPA_W@Z 10009828 f i RemoteOrderDisplay.obj
 0001:0000888d       ?SkipWhiteSpace@CRegParser@ATL@@IAEXXZ 1000988d f i RemoteOrderDisplay.obj
 0001:000088af       ?StrChrW@CRegParser@ATL@@KAPA_WPA_W_W@Z 100098af f i RemoteOrderDisplay.obj
 0001:000088ec       ?Term@CAtlModule@ATL@@QAEXXZ 100098ec f i RemoteOrderDisplay.obj
 0001:00008925       ?Term@CComModule@ATL@@QAEXXZ 10009925 f i RemoteOrderDisplay.obj
 0001:0000897d       ?UnregisterServer@?$CAtlModuleT@VCComModule@ATL@@@ATL@@QAEJHPBU_GUID@@@Z 1000997d f i RemoteOrderDisplay.obj
 0001:000089a3       ?UnregisterServer@CComModule@ATL@@QAEJHPBU_GUID@@@Z 100099a3 f i RemoteOrderDisplay.obj
 0001:00008a19       ?UpdateRegistryFromResource@CAtlModule@ATL@@QAGJIHPAU_ATL_REGMAP_ENTRY@2@@Z 10009a19 f i RemoteOrderDisplay.obj
 0001:00008be4       ?UpdateRegistryFromResource@CAtlModule@ATL@@QAGJPB_WHPAU_ATL_REGMAP_ENTRY@2@@Z 10009be4 f i RemoteOrderDisplay.obj
 0001:00008db5       ?VTFromRegType@CRegParser@ATL@@KAHPB_WAAG@Z 10009db5 f i RemoteOrderDisplay.obj
 0001:00008e22       ?WindowProc@?$CWindowImplBaseT@VCWindow@ATL@@V?$CWinTraits@$0FGAAAAAA@$0A@@2@@ATL@@SGJPAUHWND__@@IIJ@Z 10009e22 f i RemoteOrderDisplay.obj
 0001:00008f14       ?WriteToStream@CComBSTR@ATL@@QAEJPAUIStream@@@Z 10009f14 f i RemoteOrderDisplay.obj
 0001:00008f6b       ?WriteToStream@CComVariant@ATL@@QAEJPAUIStream@@@Z 10009f6b f i RemoteOrderDisplay.obj
 0001:000090e5       ?WriteToStream@CComVariant@ATL@@QAEJPAUIStream@@G@Z 1000a0e5 f i RemoteOrderDisplay.obj
 0001:0000914e       ?_AtlInitialConstruct@?$CComObjectRootEx@VCComMultiThreadModel@ATL@@@ATL@@QAEJXZ 1000a14e f i RemoteOrderDisplay.obj
 0001:00009163       ?_AtlVerifyStackAvailable@_ATL_SAFE_ALLOCA_IMPL@ATL@@YA_NK@Z 1000a163 f i RemoteOrderDisplay.obj
 0001:000091e1       ?atlCreate@?$CWindowImpl@VCOPOSRemoteOrderDisplay@@VCWindow@ATL@@V?$CWinTraits@$0FGAAAAAA@$0A@@3@@ATL@@QAEPAUHWND__@@PAU3@V_U_RECT@2@PB_WKKV_U_MENUorID@2@PAX@Z 1000a1e1 f i RemoteOrderDisplay.obj
 0001:00009225       ?atlCreate@?$CWindowImplBaseT@VCWindow@ATL@@V?$CWinTraits@$0FGAAAAAA@$0A@@2@@ATL@@QAEPAUHWND__@@PAU3@V_U_RECT@2@PB_WKKV_U_MENUorID@2@GPAX@Z 1000a225 f i RemoteOrderDisplay.obj
 0001:000092c1       ?atlCreate@CRegKey@ATL@@QAEJPAUHKEY__@@PB_WPA_WKKPAU_SECURITY_ATTRIBUTES@@PAK@Z 1000a2c1 f i RemoteOrderDisplay.obj
 0001:00009330       ?copy@?$_Copy@UtagCONNECTDATA@@@ATL@@SAJPAUtagCONNECTDATA@@PBU3@@Z 1000a330 f i RemoteOrderDisplay.obj
 0001:00009366       ?copy@?$_CopyInterface@UIConnectionPoint@@@ATL@@SAJPAPAUIConnectionPoint@@PBQAU3@@Z 1000a366 f i RemoteOrderDisplay.obj
 0001:00009394       ?memcpy_s@Checked@ATL@@YAXPAXIPBXI@Z 1000a394 f i RemoteOrderDisplay.obj
 0001:000093b3       ?ocscpy_s@@YA_NPA_WIPB_W@Z 1000a3b3 f i RemoteOrderDisplay.obj
 0001:000093e2       ?ocslen@@YAHPB_W@Z         1000a3e2 f i RemoteOrderDisplay.obj
 0001:00009402       ?wcscpy_s@Checked@ATL@@YAXPA_WIPB_W@Z 1000a402 f i RemoteOrderDisplay.obj
 0001:0000941e       _DllCanUnloadNow@0         1000a41e f   RemoteOrderDisplay.obj
 0001:0000942a       _DllGetClassObject@12      1000a42a f   RemoteOrderDisplay.obj
 0001:00009438       _DllMain@12                1000a438 f   RemoteOrderDisplay.obj
 0001:0000947a       _DllRegisterServer@0       1000a47a f   RemoteOrderDisplay.obj
 0001:00009489       _DllUnregisterServer@0     1000a489 f   RemoteOrderDisplay.obj
 0001:00009498       _InlineIsEqualGUID         1000a498 f i RemoteOrderDisplay.obj
 0001:000094c8       ___local_stdio_printf_options 1000a4c8 f i RemoteOrderDisplay.obj
 0001:000094ce       __vswprintf_s_l            1000a4ce f i RemoteOrderDisplay.obj
 0001:0000957b       _swprintf_s                1000a57b f i RemoteOrderDisplay.obj
 0001:00009597       ??0?$CComControl@VCOPOSRemoteOrderDisplay@@V?$CWindowImpl@VCOPOSRemoteOrderDisplay@@VCWindow@ATL@@V?$CWinTraits@$0FGAAAAAA@$0A@@3@@ATL@@@ATL@@QAE@XZ 1000a597 f i RemoteOrderDisplayImpl.obj
 0001:000095be       ??0?$CProxy_IOPOSEvents@VCOPOSRemoteOrderDisplay@@@@QAE@XZ 1000a5be f i RemoteOrderDisplayImpl.obj
 0001:000095e1       ??0CComControlBase@ATL@@QAE@AAPAUHWND__@@@Z 1000a5e1 f i RemoteOrderDisplayImpl.obj
 0001:0000962b       ??0COPOSRemoteOrderDisplay@@QAE@XZ 1000a62b f   RemoteOrderDisplayImpl.obj
 0001:00009661       ??1?$CComControl@VCOPOSRemoteOrderDisplay@@V?$CWindowImpl@VCOPOSRemoteOrderDisplay@@VCWindow@ATL@@V?$CWinTraits@$0FGAAAAAA@$0A@@3@@ATL@@@ATL@@UAE@XZ 1000a661 f i RemoteOrderDisplayImpl.obj
 0001:0000967a       ??1?$IConnectionPointImpl@VCOPOSRemoteOrderDisplay@@$1?DIID__IOPOSRemoteOrderDisplayEvents@@3U_GUID@@BVCComDynamicUnkArray@ATL@@@ATL@@QAE@XZ 1000a67a f i RemoteOrderDisplayImpl.obj
 0001:0000967a       ??1?$IConnectionPointImpl@VCOPOSRemoteOrderDisplay@@$1?IID_IPropertyNotifySink@@3U_GUID@@BVCComDynamicUnkArray@ATL@@@ATL@@QAE@XZ 1000a67a f i RemoteOrderDisplayImpl.obj
 0001:000096b7       ??1CComControlBase@ATL@@UAE@XZ 1000a6b7 f i RemoteOrderDisplayImpl.obj
 0001:0000971a       ??1COPOSRemoteOrderDisplay@@UAE@XZ 1000a71a f   RemoteOrderDisplayImpl.obj
 0001:00009762       ??1OposVariantResult@@QAE@XZ 1000a762 f i RemoteOrderDisplayImpl.obj
 0001:00009783       ??1_CW@@QAE@XZ             1000a783 f i RemoteOrderDisplayImpl.obj
 0001:0000979c       ?CheckHealth@COPOSRemoteOrderDisplay@@UAGJJPAJ@Z 1000a79c f   RemoteOrderDisplayImpl.obj
 0001:000097eb       ?ClaimDevice@COPOSRemoteOrderDisplay@@UAGJJPAJ@Z 1000a7eb f   RemoteOrderDisplayImpl.obj
 0001:00009860       ?ClearInput@COPOSRemoteOrderDisplay@@UAGJPAJ@Z 1000a860 f   RemoteOrderDisplayImpl.obj
 0001:0000987b       ?ClearOutput@COPOSRemoteOrderDisplay@@UAGJPAJ@Z 1000a87b f   RemoteOrderDisplayImpl.obj
 0001:00009896       ?ClearVideo@COPOSRemoteOrderDisplay@@UAGJJJPAJ@Z 1000a896 f   RemoteOrderDisplayImpl.obj
 0001:0000990a       ?ClearVideoRegion@COPOSRemoteOrderDisplay@@UAGJJJJJJJPAJ@Z 1000a90a f   RemoteOrderDisplayImpl.obj
 0001:000099cd       ?Close@COPOSRemoteOrderDisplay@@UAGJPAJ@Z 1000a9cd f   RemoteOrderDisplayImpl.obj
 0001:00009a3b       ?CompareFirmwareVersion@COPOSRemoteOrderDisplay@@UAGJPA_WPAJ1@Z 1000aa3b f   RemoteOrderDisplayImpl.obj
 0001:00009abb       ?ControlClock@COPOSRemoteOrderDisplay@@UAGJJJJJJJJJJJPAJ@Z 1000aabb f   RemoteOrderDisplayImpl.obj
 0001:00009bb6       ?ControlCursor@COPOSRemoteOrderDisplay@@UAGJJJPAJ@Z 1000abb6 f   RemoteOrderDisplayImpl.obj
 0001:00009c2a       ?CopyVideoRegion@COPOSRemoteOrderDisplay@@UAGJJJJJJJJPAJ@Z 1000ac2a f   RemoteOrderDisplayImpl.obj
 0001:00009cfb       ?DirectIO@COPOSRemoteOrderDisplay@@UAGJJPAJPAPA_W0@Z 1000acfb f   RemoteOrderDisplayImpl.obj
 0001:00009da9       ?DisplayData@COPOSRemoteOrderDisplay@@UAGJJJJJPA_WPAJ@Z 1000ada9 f   RemoteOrderDisplayImpl.obj
 0001:00009e6c       ?DoInvoke@COPOSRemoteOrderDisplay@@IAEJJPAVOposVariant@@IHPAJ_N@Z 1000ae6c f   RemoteOrderDisplayImpl.obj
 0001:00009f2e       ?DrawBox@COPOSRemoteOrderDisplay@@UAGJJJJJJJJPAJ@Z 1000af2e f   RemoteOrderDisplayImpl.obj
 0001:00009fff       ?EventClose@COPOSRemoteOrderDisplay@@IAEXXZ 1000afff f i RemoteOrderDisplayImpl.obj
 0001:0000a032       ?EventInit@COPOSRemoteOrderDisplay@@IAEJXZ 1000b032 f i RemoteOrderDisplayImpl.obj
 0001:0000a0fe       ?EventUninit@COPOSRemoteOrderDisplay@@IAEXXZ 1000b0fe f i RemoteOrderDisplayImpl.obj
 0001:0000a150       ?EventWindowProc@COPOSRemoteOrderDisplay@@IAGJIIJ@Z 1000b150 f i RemoteOrderDisplayImpl.obj
 0001:0000a24e       ?FinalConstruct@COPOSRemoteOrderDisplay@@QAEJXZ 1000b24e f   RemoteOrderDisplayImpl.obj
 0001:0000a287       ?FireEventCleanup@COPOSRemoteOrderDisplay@@IAEXXZ 1000b287 f i RemoteOrderDisplayImpl.obj
 0001:0000a29d       ?FireEventSetup@COPOSRemoteOrderDisplay@@IAE_NXZ 1000b29d f i RemoteOrderDisplayImpl.obj
 0001:0000a2d1       ?FreeVideoRegion@COPOSRemoteOrderDisplay@@UAGJJJPAJ@Z 1000b2d1 f   RemoteOrderDisplayImpl.obj
 0001:0000a345       ?FreezeEvents@COPOSRemoteOrderDisplay@@MAGJH@Z 1000b345 f   RemoteOrderDisplayImpl.obj
 0001:0000a3a5       ?GetOposProp@COPOSRemoteOrderDisplay@@IAEJJPAFJ@Z 1000b3a5 f   RemoteOrderDisplayImpl.obj
 0001:0000a3c8       ?GetOposProp@COPOSRemoteOrderDisplay@@IAEJJPAJJ@Z 1000b3c8 f   RemoteOrderDisplayImpl.obj
 0001:0000a486       ?GetOposProp@COPOSRemoteOrderDisplay@@IAEJJPAPA_WJ@Z 1000b486 f   RemoteOrderDisplayImpl.obj
 0001:0000a551       ?OnDraw@COPOSRemoteOrderDisplay@@MAEJAAUATL_DRAWINFO@@@Z 1000b551 f   RemoteOrderDisplayImpl.obj
 0001:0000a5f1       ?Open@COPOSRemoteOrderDisplay@@UAGJPA_WPAJ@Z 1000b5f1 f   RemoteOrderDisplayImpl.obj
 0001:0000ad8e       ?ReleaseDevice@COPOSRemoteOrderDisplay@@UAGJPAJ@Z 1000bd8e f   RemoteOrderDisplayImpl.obj
 0001:0000addd       ?ResetStatistics@COPOSRemoteOrderDisplay@@UAGJPA_WPAJ@Z 1000bddd f   RemoteOrderDisplayImpl.obj
 0001:0000ae34       ?ResetVideo@COPOSRemoteOrderDisplay@@UAGJJPAJ@Z 1000be34 f   RemoteOrderDisplayImpl.obj
 0001:0000ae83       ?RestoreVideoRegion@COPOSRemoteOrderDisplay@@UAGJJJJJPAJ@Z 1000be83 f   RemoteOrderDisplayImpl.obj
 0001:0000af24       ?RetrieveStatistics@COPOSRemoteOrderDisplay@@UAGJPAPA_WPAJ@Z 1000bf24 f   RemoteOrderDisplayImpl.obj
 0001:0000af7b       ?SOProcessID@COPOSRemoteOrderDisplay@@UAGJPAJ@Z 1000bf7b f   RemoteOrderDisplayImpl.obj
 0001:0000af8f       ?SaveVideoRegion@COPOSRemoteOrderDisplay@@UAGJJJJJJJPAJ@Z 1000bf8f f   RemoteOrderDisplayImpl.obj
 0001:0000b052       ?SelectCharacterSet@COPOSRemoteOrderDisplay@@UAGJJJPAJ@Z 1000c052 f   RemoteOrderDisplayImpl.obj
 0001:0000b0c6       ?SetCOFreezeEvents@COPOSRemoteOrderDisplay@@IAEXF@Z 1000c0c6 f   RemoteOrderDisplayImpl.obj
 0001:0000b151       ?SetCursor@COPOSRemoteOrderDisplay@@UAGJJJJPAJ@Z 1000c151 f   RemoteOrderDisplayImpl.obj
 0001:0000b1e7       ?SetOposProp@COPOSRemoteOrderDisplay@@IAEJJJJ@Z 1000c1e7 f   RemoteOrderDisplayImpl.obj
 0001:0000b2c5       ?TransactionDisplay@COPOSRemoteOrderDisplay@@UAGJJJPAJ@Z 1000c2c5 f   RemoteOrderDisplayImpl.obj
 0001:0000b339       ?UpdateFirmware@COPOSRemoteOrderDisplay@@UAGJPA_WPAJ@Z 1000c339 f   RemoteOrderDisplayImpl.obj
 0001:0000b390       ?UpdateStatistics@COPOSRemoteOrderDisplay@@UAGJPA_WPAJ@Z 1000c390 f   RemoteOrderDisplayImpl.obj
 0001:0000b3e7       ?UpdateVideoRegionAttribute@COPOSRemoteOrderDisplay@@UAGJJJJJJJJPAJ@Z 1000c3e7 f   RemoteOrderDisplayImpl.obj
 0001:0000b4b8       ?VideoSound@COPOSRemoteOrderDisplay@@UAGJJJJJJPAJ@Z 1000c4b8 f   RemoteOrderDisplayImpl.obj
 0001:0000b564       ?get_AsyncMode@COPOSRemoteOrderDisplay@@UAGJPAF@Z 1000c564 f   RemoteOrderDisplayImpl.obj
 0001:0000b57d       ?get_AutoToneDuration@COPOSRemoteOrderDisplay@@UAGJPAJ@Z 1000c57d f   RemoteOrderDisplayImpl.obj
 0001:0000b596       ?get_AutoToneFrequency@COPOSRemoteOrderDisplay@@UAGJPAJ@Z 1000c596 f   RemoteOrderDisplayImpl.obj
 0001:0000b5af       ?get_BinaryConversion@COPOSRemoteOrderDisplay@@UAGJPAJ@Z 1000c5af f   RemoteOrderDisplayImpl.obj
 0001:0000b5c5       ?get_CapCompareFirmwareVersion@COPOSRemoteOrderDisplay@@UAGJPAF@Z 1000c5c5 f   RemoteOrderDisplayImpl.obj
 0001:0000b5de       ?get_CapMapCharacterSet@COPOSRemoteOrderDisplay@@UAGJPAF@Z 1000c5de f   RemoteOrderDisplayImpl.obj
 0001:0000b5f7       ?get_CapPowerReporting@COPOSRemoteOrderDisplay@@UAGJPAJ@Z 1000c5f7 f   RemoteOrderDisplayImpl.obj
 0001:0000b610       ?get_CapSelectCharacterSet@COPOSRemoteOrderDisplay@@UAGJPAF@Z 1000c610 f   RemoteOrderDisplayImpl.obj
 0001:0000b629       ?get_CapStatisticsReporting@COPOSRemoteOrderDisplay@@UAGJPAF@Z 1000c629 f   RemoteOrderDisplayImpl.obj
 0001:0000b642       ?get_CapTone@COPOSRemoteOrderDisplay@@UAGJPAF@Z 1000c642 f   RemoteOrderDisplayImpl.obj
 0001:0000b65b       ?get_CapTouch@COPOSRemoteOrderDisplay@@UAGJPAF@Z 1000c65b f   RemoteOrderDisplayImpl.obj
 0001:0000b674       ?get_CapTransaction@COPOSRemoteOrderDisplay@@UAGJPAF@Z 1000c674 f   RemoteOrderDisplayImpl.obj
 0001:0000b68d       ?get_CapUpdateFirmware@COPOSRemoteOrderDisplay@@UAGJPAF@Z 1000c68d f   RemoteOrderDisplayImpl.obj
 0001:0000b6a6       ?get_CapUpdateStatistics@COPOSRemoteOrderDisplay@@UAGJPAF@Z 1000c6a6 f   RemoteOrderDisplayImpl.obj
 0001:0000b6bf       ?get_CharacterSet@COPOSRemoteOrderDisplay@@UAGJPAJ@Z 1000c6bf f   RemoteOrderDisplayImpl.obj
 0001:0000b6d8       ?get_CharacterSetList@COPOSRemoteOrderDisplay@@UAGJPAPA_W@Z 1000c6d8 f   RemoteOrderDisplayImpl.obj
 0001:0000b6f1       ?get_CheckHealthText@COPOSRemoteOrderDisplay@@UAGJPAPA_W@Z 1000c6f1 f   RemoteOrderDisplayImpl.obj
 0001:0000b70a       ?get_Claimed@COPOSRemoteOrderDisplay@@UAGJPAF@Z 1000c70a f   RemoteOrderDisplayImpl.obj
 0001:0000b720       ?get_Clocks@COPOSRemoteOrderDisplay@@UAGJPAJ@Z 1000c720 f   RemoteOrderDisplayImpl.obj
 0001:0000b739       ?get_ControlObjectDescription@COPOSRemoteOrderDisplay@@UAGJPAPA_W@Z 1000c739 f   RemoteOrderDisplayImpl.obj
 0001:0000b776       ?get_ControlObjectVersion@COPOSRemoteOrderDisplay@@UAGJPAJ@Z 1000c776 f   RemoteOrderDisplayImpl.obj
 0001:0000b789       ?get_CurrentUnitID@COPOSRemoteOrderDisplay@@UAGJPAJ@Z 1000c789 f   RemoteOrderDisplayImpl.obj
 0001:0000b7a2       ?get_DataCount@COPOSRemoteOrderDisplay@@UAGJPAJ@Z 1000c7a2 f   RemoteOrderDisplayImpl.obj
 0001:0000b7b8       ?get_DataEventEnabled@COPOSRemoteOrderDisplay@@UAGJPAF@Z 1000c7b8 f   RemoteOrderDisplayImpl.obj
 0001:0000b7ce       ?get_DeviceDescription@COPOSRemoteOrderDisplay@@UAGJPAPA_W@Z 1000c7ce f   RemoteOrderDisplayImpl.obj
 0001:0000b7e7       ?get_DeviceEnabled@COPOSRemoteOrderDisplay@@UAGJPAF@Z 1000c7e7 f   RemoteOrderDisplayImpl.obj
 0001:0000b7fd       ?get_DeviceName@COPOSRemoteOrderDisplay@@UAGJPAPA_W@Z 1000c7fd f   RemoteOrderDisplayImpl.obj
 0001:0000b816       ?get_ErrorString@COPOSRemoteOrderDisplay@@UAGJPAPA_W@Z 1000c816 f   RemoteOrderDisplayImpl.obj
 0001:0000b82f       ?get_ErrorUnits@COPOSRemoteOrderDisplay@@UAGJPAJ@Z 1000c82f f   RemoteOrderDisplayImpl.obj
 0001:0000b848       ?get_EventString@COPOSRemoteOrderDisplay@@UAGJPAPA_W@Z 1000c848 f   RemoteOrderDisplayImpl.obj
 0001:0000b861       ?get_EventType@COPOSRemoteOrderDisplay@@UAGJPAJ@Z 1000c861 f   RemoteOrderDisplayImpl.obj
 0001:0000b87a       ?get_EventUnitID@COPOSRemoteOrderDisplay@@UAGJPAJ@Z 1000c87a f   RemoteOrderDisplayImpl.obj
 0001:0000b893       ?get_EventUnits@COPOSRemoteOrderDisplay@@UAGJPAJ@Z 1000c893 f   RemoteOrderDisplayImpl.obj
 0001:0000b8ac       ?get_FreezeEvents@COPOSRemoteOrderDisplay@@UAGJPAF@Z 1000c8ac f   RemoteOrderDisplayImpl.obj
 0001:0000b8c2       ?get_MapCharacterSet@COPOSRemoteOrderDisplay@@UAGJPAF@Z 1000c8c2 f   RemoteOrderDisplayImpl.obj
 0001:0000b8db       ?get_OpenResult@COPOSRemoteOrderDisplay@@UAGJPAJ@Z 1000c8db f   RemoteOrderDisplayImpl.obj
 0001:0000b8f2       ?get_OutputID@COPOSRemoteOrderDisplay@@UAGJPAJ@Z 1000c8f2 f   RemoteOrderDisplayImpl.obj
 0001:0000b908       ?get_PowerNotify@COPOSRemoteOrderDisplay@@UAGJPAJ@Z 1000c908 f   RemoteOrderDisplayImpl.obj
 0001:0000b91e       ?get_PowerState@COPOSRemoteOrderDisplay@@UAGJPAJ@Z 1000c91e f   RemoteOrderDisplayImpl.obj
 0001:0000b934       ?get_ResultCode@COPOSRemoteOrderDisplay@@UAGJPAJ@Z 1000c934 f   RemoteOrderDisplayImpl.obj
 0001:0000b972       ?get_ResultCodeExtended@COPOSRemoteOrderDisplay@@UAGJPAJ@Z 1000c972 f   RemoteOrderDisplayImpl.obj
 0001:0000b988       ?get_ServiceObjectDescription@COPOSRemoteOrderDisplay@@UAGJPAPA_W@Z 1000c988 f   RemoteOrderDisplayImpl.obj
 0001:0000b9a1       ?get_ServiceObjectVersion@COPOSRemoteOrderDisplay@@UAGJPAJ@Z 1000c9a1 f   RemoteOrderDisplayImpl.obj
 0001:0000b9b7       ?get_State@COPOSRemoteOrderDisplay@@UAGJPAJ@Z 1000c9b7 f   RemoteOrderDisplayImpl.obj
 0001:0000b9e3       ?get_SystemClocks@COPOSRemoteOrderDisplay@@UAGJPAJ@Z 1000c9e3 f   RemoteOrderDisplayImpl.obj
 0001:0000b9fc       ?get_SystemVideoSaveBuffers@COPOSRemoteOrderDisplay@@UAGJPAJ@Z 1000c9fc f   RemoteOrderDisplayImpl.obj
 0001:0000ba15       ?get_Timeout@COPOSRemoteOrderDisplay@@UAGJPAJ@Z 1000ca15 f   RemoteOrderDisplayImpl.obj
 0001:0000ba2e       ?get_UnitsOnline@COPOSRemoteOrderDisplay@@UAGJPAJ@Z 1000ca2e f   RemoteOrderDisplayImpl.obj
 0001:0000ba47       ?get_VideoDataCount@COPOSRemoteOrderDisplay@@UAGJPAJ@Z 1000ca47 f   RemoteOrderDisplayImpl.obj
 0001:0000ba60       ?get_VideoMode@COPOSRemoteOrderDisplay@@UAGJPAJ@Z 1000ca60 f   RemoteOrderDisplayImpl.obj
 0001:0000ba79       ?get_VideoModesList@COPOSRemoteOrderDisplay@@UAGJPAPA_W@Z 1000ca79 f   RemoteOrderDisplayImpl.obj
 0001:0000ba92       ?get_VideoSaveBuffers@COPOSRemoteOrderDisplay@@UAGJPAJ@Z 1000ca92 f   RemoteOrderDisplayImpl.obj
 0001:0000baab       ?put_AsyncMode@COPOSRemoteOrderDisplay@@UAGJF@Z 1000caab f   RemoteOrderDisplayImpl.obj
 0001:0000bacb       ?put_AutoToneDuration@COPOSRemoteOrderDisplay@@UAGJJ@Z 1000cacb f   RemoteOrderDisplayImpl.obj
 0001:0000bae4       ?put_AutoToneFrequency@COPOSRemoteOrderDisplay@@UAGJJ@Z 1000cae4 f   RemoteOrderDisplayImpl.obj
 0001:0000bafd       ?put_BinaryConversion@COPOSRemoteOrderDisplay@@UAGJJ@Z 1000cafd f   RemoteOrderDisplayImpl.obj
 0001:0000bb13       ?put_CurrentUnitID@COPOSRemoteOrderDisplay@@UAGJJ@Z 1000cb13 f   RemoteOrderDisplayImpl.obj
 0001:0000bb2c       ?put_DataEventEnabled@COPOSRemoteOrderDisplay@@UAGJF@Z 1000cb2c f   RemoteOrderDisplayImpl.obj
 0001:0000bb49       ?put_DeviceEnabled@COPOSRemoteOrderDisplay@@UAGJF@Z 1000cb49 f   RemoteOrderDisplayImpl.obj
 0001:0000bb66       ?put_EventType@COPOSRemoteOrderDisplay@@UAGJJ@Z 1000cb66 f   RemoteOrderDisplayImpl.obj
 0001:0000bb7f       ?put_FreezeEvents@COPOSRemoteOrderDisplay@@UAGJF@Z 1000cb7f f   RemoteOrderDisplayImpl.obj
 0001:0000bbcb       ?put_MapCharacterSet@COPOSRemoteOrderDisplay@@UAGJF@Z 1000cbcb f   RemoteOrderDisplayImpl.obj
 0001:0000bbeb       ?put_PowerNotify@COPOSRemoteOrderDisplay@@UAGJJ@Z 1000cbeb f   RemoteOrderDisplayImpl.obj
 0001:0000bc01       ?put_Timeout@COPOSRemoteOrderDisplay@@UAGJJ@Z 1000cc01 f   RemoteOrderDisplayImpl.obj
 0001:0000bc1a       ?put_VideoMode@COPOSRemoteOrderDisplay@@UAGJJ@Z 1000cc1a f   RemoteOrderDisplayImpl.obj
 0001:0000bc33       ?s_EventWindowProc@COPOSRemoteOrderDisplay@@KGJPAUHWND__@@IIJ@Z 1000cc33 f i RemoteOrderDisplayImpl.obj
 0001:0000bc85       ??_U@YAPAXI@Z              1000cc85 f   LIBCMT:new_array.obj
 0001:0000bc8e       ??3@YAXPAXI@Z              1000cc8e f   LIBCMT:delete_scalar_size.obj
 0001:0000bc9c       ??_V@YAXPAX@Z              1000cc9c f   LIBCMT:delete_array.obj
 0001:0000bca1       ??_V@YAXPAXI@Z             1000cca1 f   LIBCMT:delete_array_size.obj
 0001:0000bcaf       ??$__crt_fast_encode_pointer@P6GHPAU_RTL_CONDITION_VARIABLE@@PAU_RTL_CRITICAL_SECTION@@K@Z@@YAP6GHPAU_RTL_CONDITION_VARIABLE@@PAU_RTL_CRITICAL_SECTION@@K@ZQ6GH01K@Z@Z 1000ccaf f i LIBCMT:thread_safe_statics.obj
 0001:0000bcaf       ??$__crt_fast_encode_pointer@P6GXPAU_RTL_CONDITION_VARIABLE@@@Z@@YAP6GXPAU_RTL_CONDITION_VARIABLE@@@ZQ6GX0@Z@Z 1000ccaf f i LIBCMT:thread_safe_statics.obj
 0001:0000bcaf       ??$__crt_fast_encode_pointer@PAP6AXXZ@@YAPAP6AXXZQAP6AXXZ@Z 1000ccaf f i LIBCMT:utility.obj
 0001:0000bcaf       ??$__crt_fast_encode_pointer@PAX@@YAPAXQAX@Z 1000ccaf f i libvcruntime:winapi_downlevel.obj
 0001:0000bd10       ___scrt_acquire_startup_lock 1000cd10 f   LIBCMT:utility.obj
 0001:0000bd42       ___scrt_dllmain_after_initialize_c 1000cd42 f   LIBCMT:utility.obj
 0001:0000bd6d       ___scrt_dllmain_before_initialize_c 1000cd6d f   LIBCMT:utility.obj
 0001:0000bd7b       ___scrt_dllmain_crt_thread_attach 1000cd7b f   LIBCMT:utility.obj
 0001:0000bd9a       ___scrt_dllmain_crt_thread_detach 1000cd9a f   LIBCMT:utility.obj
 0001:0000bda7       ___scrt_dllmain_exception_filter 1000cda7 f   LIBCMT:utility.obj
 0001:0000bddb       ___scrt_dllmain_uninitialize_c 1000cddb f   LIBCMT:utility.obj
 0001:0000bdfe       ___scrt_dllmain_uninitialize_critical 1000cdfe f   LIBCMT:utility.obj
 0001:0000be0b       ___scrt_initialize_crt     1000ce0b f   LIBCMT:utility.obj
 0001:0000be44       ___scrt_initialize_onexit_tables 1000ce44 f   LIBCMT:utility.obj
 0001:0000bee9       ___scrt_is_nonwritable_in_current_image 1000cee9 f   LIBCMT:utility.obj
 0001:0000bf7d       ___scrt_release_startup_lock 1000cf7d f   LIBCMT:utility.obj
 0001:0000bf9a       ___scrt_uninitialize_crt   1000cf9a f   LIBCMT:utility.obj
 0001:0000bfc2       __onexit                   1000cfc2 f   LIBCMT:utility.obj
 0001:0000bffd       _atexit                    1000cffd f   LIBCMT:utility.obj
 0001:0000c012       ??3@YAXPAX@Z               1000d012 f   LIBCMT:delete_scalar.obj
 0001:0000c149       __Init_thread_footer       1000d149 f   LIBCMT:thread_safe_statics.obj
 0001:0000c193       __Init_thread_header       1000d193 f   LIBCMT:thread_safe_statics.obj
 0001:0000c1e5       __Init_thread_notify       1000d1e5 f   LIBCMT:thread_safe_statics.obj
 0001:0000c227       __Init_thread_wait         1000d227 f   LIBCMT:thread_safe_statics.obj
 0001:0000c287       ___raise_securityfailure   1000d287 f   LIBCMT:gs_report.obj
 0001:0000c2af       ___report_gsfailure        1000d2af f   LIBCMT:gs_report.obj
 0001:0000c3a8       ___report_rangecheckfailure 1000d3a8 f   LIBCMT:gs_report.obj
 0001:0000c3b4       ___report_securityfailure  1000d3b4 f   LIBCMT:gs_report.obj
 0001:0000c482       ??2@YAPAXIABUnothrow_t@std@@@Z 1000d482 f   LIBCMT:new_scalar_nothrow.obj
 0001:0000c4d2       ??_U@YAPAXIABUnothrow_t@std@@@Z 1000d4d2 f   LIBCMT:new_array_nothrow.obj
 0001:0000c4db       @__security_check_cookie@4 1000d4db f   LIBCMT:secchk.obj
 0001:0000c4f0       __SEH_prolog4_GS           1000d4f0 f   LIBCMT:sehprolg4gs.obj
 0001:0000c539       __SEH_epilog4_GS           1000d539 f   LIBCMT:sehprolg4gs.obj
 0001:0000c550       __alloca_probe_16          1000d550 f   LIBCMT:alloca16.obj
 0001:0000c566       __alloca_probe_8           1000d566     LIBCMT:alloca16.obj
 0001:0000c580       __chkstk                   1000d580 f   LIBCMT:chkstk.obj
 0001:0000c580       __alloca_probe             1000d580 f   LIBCMT:chkstk.obj
 0001:0000c8cd       __DllMainCRTStartup@12     1000d8cd f   LIBCMT:dll_dllmain.obj
 0001:0000c8f0       ??2@YAPAXI@Z               1000d8f0 f   LIBCMT:new_scalar.obj
 0001:0000c920       ___isa_available_init      1000d920 f   LIBCMT:cpu_disp.obj
 0001:0000cab7       ___scrt_is_ucrt_dll_in_use 1000dab7 f   LIBCMT:ucrt_detection.obj
 0001:0000cac3       ___scrt_fastfail           1000dac3 f   LIBCMT:utility_desktop.obj
 0001:0000cbdd       __crt_debugger_hook        1000dbdd f   LIBCMT:utility_desktop.obj
 0001:0000cbf0       __SEH_prolog4              1000dbf0 f   LIBCMT:sehprolg4.obj
 0001:0000cc36       __SEH_epilog4              1000dc36 f   LIBCMT:sehprolg4.obj
 0001:0000cc4b       @_guard_check_icall_nop@4  1000dc4b f i LIBCMT:guard_support.obj
 0001:0000cc99       ___security_init_cookie    1000dc99 f   LIBCMT:gs_support.obj
 0001:0000cce4       ?__scrt_initialize_type_info@@YAXXZ 1000dce4 f   LIBCMT:tncleanup.obj
 0001:0000ccf0       ?__scrt_uninitialize_type_info@@YAXXZ 1000dcf0 f   LIBCMT:tncleanup.obj
 0001:0000ccfc       ___local_stdio_scanf_options 1000dcfc f i LIBCMT:default_local_stdio_options.obj
 0001:0000cd02       ___scrt_initialize_default_local_stdio_options 1000dd02 f   LIBCMT:default_local_stdio_options.obj
 0001:0000cd1f       ___scrt_get_dyn_tls_init_callback 1000dd1f f   LIBCMT:dyn_tls_init.obj
 0001:0000cd25       __RTC_Initialize           1000dd25 f   LIBCMT:initsect.obj
 0001:0000cd51       __RTC_Terminate            1000dd51 f   LIBCMT:initsect.obj
 0001:0000cd7d       ??0bad_alloc@std@@QAE@ABV01@@Z 1000dd7d f i LIBCMT:throw_bad_alloc.obj
 0001:0000cd98       ??0bad_alloc@std@@QAE@XZ   1000dd98 f i LIBCMT:throw_bad_alloc.obj
 0001:0000cdb0       ??0bad_array_new_length@std@@QAE@ABV01@@Z 1000ddb0 f i LIBCMT:throw_bad_alloc.obj
 0001:0000cdcb       ??0bad_array_new_length@std@@QAE@XZ 1000ddcb f i LIBCMT:throw_bad_alloc.obj
 0001:0000cde3       ??0exception@std@@QAE@ABV01@@Z 1000dde3 f i LIBCMT:throw_bad_alloc.obj
 0001:0000ce0f       ??1bad_array_new_length@std@@UAE@XZ 1000de0f f i LIBCMT:throw_bad_alloc.obj
 0001:0000ce0f       ??1bad_exception@std@@UAE@XZ 1000de0f f i libvcruntime:frame.obj
 0001:0000ce0f       ??1bad_alloc@std@@UAE@XZ   1000de0f f i LIBCMT:throw_bad_alloc.obj
 0001:0000ce20       ??_Ebad_alloc@std@@UAEPAXI@Z 1000de20 f i LIBCMT:throw_bad_alloc.obj
 0001:0000ce20       ??_Ebad_array_new_length@std@@UAEPAXI@Z 1000de20 f i LIBCMT:throw_bad_alloc.obj
 0001:0000ce20       ??_Eexception@std@@UAEPAXI@Z 1000de20 f i LIBCMT:throw_bad_alloc.obj
 0001:0000ce20       ??_Ebad_exception@std@@UAEPAXI@Z 1000de20 f i libvcruntime:frame.obj
 0001:0000ce20       ??_Gbad_array_new_length@std@@UAEPAXI@Z 1000de20 f i LIBCMT:throw_bad_alloc.obj
 0001:0000ce20       ??_Gexception@std@@UAEPAXI@Z 1000de20 f i LIBCMT:throw_bad_alloc.obj
 0001:0000ce20       ??_Gbad_exception@std@@UAEPAXI@Z 1000de20 f i libvcruntime:frame.obj
 0001:0000ce20       ??_Gbad_alloc@std@@UAEPAXI@Z 1000de20 f i LIBCMT:throw_bad_alloc.obj
 0001:0000ce4d       ?__scrt_throw_std_bad_alloc@@YAXXZ 1000de4d f   LIBCMT:throw_bad_alloc.obj
 0001:0000ce6a       ?__scrt_throw_std_bad_array_new_length@@YAXXZ 1000de6a f   LIBCMT:throw_bad_alloc.obj
 0001:0000ce87       ?what@exception@std@@UBEPBDXZ 1000de87 f i LIBCMT:throw_bad_alloc.obj
 0001:0000ce94       ??_Gtype_info@@UAEPAXI@Z   1000de94 f i LIBCMT:std_type_info_static.obj
 0001:0000ce94       ??_Etype_info@@UAEPAXI@Z   1000de94 f i LIBCMT:std_type_info_static.obj
 0001:0000ceb7       ??0CAtlBaseModule@ATL@@QAE@XZ 1000deb7 f   atls:atlbase.obj
 0001:0000cf0a       ??0_ATL_BASE_MODULE70@ATL@@QAE@XZ 1000df0a f i atls:atlbase.obj
 0001:0000cf2d       ??1CAtlBaseModule@ATL@@QAE@XZ 1000df2d f   atls:atlbase.obj
 0001:0000d01a       ?Init@_stdcallthunk@ATL@@QAEHKPAX@Z 1000e01a f i atls:atlthunk.obj
 0001:0000d04f       ?__AllocStdCallThunk_cmn@@YAPAXXZ 1000e04f f   atls:atlthunk.obj
 0001:0000d115       ?__FreeStdCallThunk_cmn@@YAXPAX@Z 1000e115 f   atls:atlthunk.obj
 0001:0000d1b0       _AtlThunk_AllocateData@0   1000e1b0 f   atls:atlthunk.obj
 0001:0000d215       _AtlThunk_DataToCode@4     1000e215 f   atls:atlthunk.obj
 0001:0000d25c       _AtlThunk_FreeData@4       1000e25c f   atls:atlthunk.obj
 0001:0000d2b2       _AtlThunk_InitData@12      1000e2b2 f   atls:atlthunk.obj
 0001:0000d301       __get_purecall_handler     1000e301 f   libvcruntime:purevirt.obj
 0001:0000d316       __purecall                 1000e316 f   libvcruntime:purevirt.obj
 0001:0000d332       _wcsstr                    1000e332 f   libvcruntime:wcsstr.obj
 0001:0000d5f0       __except_handler4          1000e5f0 f   libvcruntime:chandler4.obj
 0001:0000d747       _memcmp                    1000e747 f   libvcruntime:memcmp.obj
 0001:0000e6f0       _memcpy                    1000f6f0 f   libvcruntime:memcpy.obj
 0001:0000ec70       _memset                    1000fc70 f   libvcruntime:memset.obj
 0001:0000edca       ___vcrt_initialize         1000fdca f   libvcruntime:initialization.obj
 0001:0000edf3       ___vcrt_thread_attach      1000fdf3 f   libvcruntime:initialization.obj
 0001:0000edfe       ___vcrt_thread_detach      1000fdfe f   libvcruntime:initialization.obj
 0001:0000ee09       ___vcrt_uninitialize       1000fe09 f   libvcruntime:initialization.obj
 0001:0000ee28       ___vcrt_uninitialize_critical 1000fe28 f   libvcruntime:initialization.obj
 0001:0000ee30       ?GetRangeOfTrysToCheck@__FrameHandler3@@SA?AU?$pair@Viterator@TryBlockMap@__FrameHandler3@@V123@@std@@AAVTryBlockMap@1@HH@Z 1000fe30 f   libvcruntime:trnsctrl.obj
 0001:0000eeb2       ?_CallCatchBlock2@@YAPAXPAUEHRegistrationNode@@PBU_s_FuncInfo@@PAXHK@Z 1000feb2 f   libvcruntime:trnsctrl.obj
 0001:0000ef10       ?_CallSETranslator@@YAHPAUEHExceptionRecord@@PAUEHRegistrationNode@@PAX2PBU_s_FuncInfo@@H1@Z 1000ff10 f   libvcruntime:trnsctrl.obj
 0001:0000efeb       ?_JumpToContinuation@@YGXPAXPAUEHRegistrationNode@@@Z 1000ffeb f   libvcruntime:trnsctrl.obj
 0001:0000f01b       ?_UnwindNestedFrames@@YGXPAUEHRegistrationNode@@PAUEHExceptionRecord@@@Z 1001001b f   libvcruntime:trnsctrl.obj
 0001:0000f06e       __CatchGuardHandler        1001006e f   libvcruntime:trnsctrl.obj
 0001:0000f09f       __CreateFrameInfo          1001009f f   libvcruntime:trnsctrl.obj
 0001:0000f0c3       __FindAndUnlinkFrame       100100c3 f   libvcruntime:trnsctrl.obj
 0001:0000f108       __TranslatorGuardHandler   10010108 f   libvcruntime:trnsctrl.obj
 0001:0000f1a5       ___CxxFrameHandler3        100101a5 f   libvcruntime:trnsctrl.obj
 0001:0000f1db       ___std_type_info_compare   100101db f   libvcruntime:std_type_info.obj
 0001:0000f217       ___std_type_info_destroy_list 10010217 f   libvcruntime:std_type_info.obj
 0001:0000f23a       ___std_exception_copy      1001023a f   libvcruntime:std_exception.obj
 0001:0000f29d       ___std_exception_destroy   1001029d f   libvcruntime:std_exception.obj
 0001:0000f2bc       __CxxThrowException@8      100102bc f   libvcruntime:throw.obj
 0001:0000f330       _memmove                   10010330 f   libvcruntime:memmove.obj
 0001:0000f8a4       ___vcrt_initialize_pure_virtual_call_handler 100108a4 f   libvcruntime:purevirt_data.obj
 0001:0000f8b0       __local_unwind4            100108b0 f   libvcruntime:exsup4.obj
 0001:0000f988       __seh_longjmp_unwind4@4    10010988 f   libvcruntime:exsup4.obj
 0001:0000f9b0       @_EH4_CallFilterFunc@8     100109b0 f   libvcruntime:exsup4.obj
 0001:0000f9c8       @_EH4_TransferToHandler@8  100109c8 f   libvcruntime:exsup4.obj
 0001:0000f9e4       @_EH4_GlobalUnwind2@8      100109e4 f   libvcruntime:exsup4.obj
 0001:0000fa00       @_EH4_LocalUnwind@16       10010a00 f   libvcruntime:exsup4.obj
 0001:0000fa17       ___except_validate_context_record 10010a17 f   libvcruntime:jbcxrval.obj
 0001:0000fa47       ___except_validate_jump_buffer 10010a47 f   libvcruntime:jbcxrval.obj
 0001:0000fa74       ___vcrt_freefls@4          10010a74 f   libvcruntime:per_thread_data.obj
 0001:0000fa90       ___vcrt_freeptd            10010a90 f   libvcruntime:per_thread_data.obj
 0001:0000fac6       ___vcrt_getptd             10010ac6 f   libvcruntime:per_thread_data.obj
 0001:0000fad4       ___vcrt_getptd_noexit      10010ad4 f   libvcruntime:per_thread_data.obj
 0001:0000fb66       ___vcrt_initialize_ptd     10010b66 f   libvcruntime:per_thread_data.obj
 0001:0000fb99       ___vcrt_uninitialize_ptd   10010b99 f   libvcruntime:per_thread_data.obj
 0001:0000fbb4       ___vcrt_initialize_locks   10010bb4 f   libvcruntime:locks.obj
 0001:0000fbf0       ___vcrt_uninitialize_locks 10010bf0 f   libvcruntime:locks.obj
 0001:0000fd52       ___vcrt_FlsAlloc           10010d52 f   libvcruntime:winapi_downlevel.obj
 0001:0000fd8d       ___vcrt_FlsFree            10010d8d f   libvcruntime:winapi_downlevel.obj
 0001:0000fdc8       ___vcrt_FlsGetValue        10010dc8 f   libvcruntime:winapi_downlevel.obj
 0001:0000fe03       ___vcrt_FlsSetValue        10010e03 f   libvcruntime:winapi_downlevel.obj
 0001:0000fe41       ___vcrt_InitializeCriticalSectionEx 10010e41 f   libvcruntime:winapi_downlevel.obj
 0001:0000fe88       ___vcrt_initialize_winapi_thunks 10010e88 f   libvcruntime:winapi_downlevel.obj
 0001:0000feb1       ___vcrt_uninitialize_winapi_thunks 10010eb1 f   libvcruntime:winapi_downlevel.obj
 0001:000105da       ??$TypeMatchHelper@V__FrameHandler3@@@@YAHPBU_s_HandlerType@@PBU_s_CatchableType@@PBU_s_ThrowInfo@@@Z 100115da f i libvcruntime:frame.obj
 0001:00010668       ??$__InternalCxxFrameHandler@V__FrameHandler3@@@@YA?AW4_EXCEPTION_DISPOSITION@@PAUEHExceptionRecord@@PAUEHRegistrationNode@@PAU_CONTEXT@@PAXPBU_s_FuncInfo@@H1E@Z 10011668 f i libvcruntime:frame.obj
 0001:0001076a       ??0bad_exception@std@@QAE@ABV01@@Z 1001176a f i libvcruntime:frame.obj
 0001:00010785       ??0bad_exception@std@@QAE@XZ 10011785 f i libvcruntime:frame.obj
 0001:0001079d       ??8type_info@@QBE_NABV0@@Z 1001179d f i libvcruntime:frame.obj
 0001:00010a04       ?FrameUnwindToEmptyState@__FrameHandler3@@SAXPAUEHRegistrationNode@@PAXPBU_s_FuncInfo@@@Z 10011a04 f   libvcruntime:frame.obj
 0001:00010a1c       ?FrameUnwindToState@__FrameHandler3@@SAXPAUEHRegistrationNode@@PAXPBU_s_FuncInfo@@H@Z 10011a1c f   libvcruntime:frame.obj
 0001:00010b9e       ?_CallMemberFunction1@@YGXQAX00@Z 10011b9e f i libvcruntime:frame.obj
 0001:00010bae       ?_CallMemberFunction2@@YGXQAX00H@Z 10011bae f i libvcruntime:frame.obj
 0001:00010bc1       ?getESTypes@__FrameHandler3@@SAPBU_s_ESTypeList@@PBU_s_FuncInfo@@@Z 10011bc1 f i libvcruntime:frame.obj
 0001:00010bd0       __CallSettingFrame@12      10011bd0 f   libvcruntime:lowhelpr.obj
 0001:00010bf7       __NLG_Return               10011bf7     libvcruntime:lowhelpr.obj
 0001:00010c20       __global_unwind2           10011c20 f   libvcruntime:exsup.obj
 0001:00010c86       __local_unwind2            10011c86 f   libvcruntime:exsup.obj
 0001:00010d0a       __abnormal_termination     10011d0a f   libvcruntime:exsup.obj
 0001:00010d30       __NLG_Notify1              10011d30 f   libvcruntime:exsup.obj
 0001:00010d3c       __NLG_Notify               10011d3c f   libvcruntime:exsup.obj
 0001:00010d53       __NLG_Dispatch2            10011d53     libvcruntime:exsup.obj
 0001:00010d53       __NLG_Dispatch             10011d53     libvcruntime:exsup.obj
 0001:00010d5b       __NLG_Call                 10011d5b f   libvcruntime:exsup.obj
 0001:00010d5d       __NLG_Return2              10011d5d     libvcruntime:exsup.obj
 0001:00010d5e       _unexpected                10011d5e f   libvcruntime:unexpected.obj
 0001:00010d7b       ?GetCurrentState@__FrameHandler3@@SAHPAUEHRegistrationNode@@PAXPBU_s_FuncInfo@@@Z 10011d7b f   libvcruntime:ehstate.obj
 0001:00010d98       ?SetState@__FrameHandler3@@SAXPAUEHRegistrationNode@@PBU_s_FuncInfo@@H@Z 10011d98 f   libvcruntime:ehstate.obj
 0001:00010da6       ___DestructExceptionObject 10011da6 f   libvcruntime:ehhelpers.obj
 0001:00010e46       ?_CallMemberFunction0@@YGXQAX0@Z 10011e46 f i libvcruntime:ehhelpers.obj
 0001:00010e53       __IsExceptionObjectToBeDestroyed 10011e53 f   libvcruntime:ehhelpers.obj
 0001:00010e79       ___AdjustPointer           10011e79 f   libvcruntime:ehhelpers.obj
 0001:00010e9e       ___FrameUnwindFilter       10011e9e f   libvcruntime:ehhelpers.obj
 0001:00010ee3       _free                      10011ee3 f   libucrt:free.obj
 0001:00010ee8       ?initialize@?$dual_state_global@P6AXPB_W00II@Z@__crt_state_management@@QAEXQ6AXPB_W00II@Z@Z 10011ee8 f i libucrt:invalid_parameter.obj
 0001:00010ee8       ?initialize@?$dual_state_global@PAPAD@__crt_state_management@@QAEXQAPAD@Z 10011ee8 f i libucrt:environment_initialization.obj
 0001:00010ee8       ?initialize@?$dual_state_global@P6AXH@Z@__crt_state_management@@QAEXQ6AXH@Z@Z 10011ee8 f i libucrt:signal.obj
 0001:00010ee8       ?initialize@?$dual_state_global@P6AHPAU_exception@@@Z@__crt_state_management@@QAEXQ6AHPAU_exception@@@Z@Z 10011ee8 f i libucrt:matherr.obj
 0001:00010ee8       ?initialize@?$dual_state_global@PAU__crt_locale_data@@@__crt_state_management@@QAEXQAU__crt_locale_data@@@Z 10011ee8 f i libucrt:initialization.obj
 0001:00010ee8       ?initialize@?$dual_state_global@P6AHI@Z@__crt_state_management@@QAEXQ6AHI@Z@Z 10011ee8 f i libucrt:new_handler.obj
 0001:00010f19       ___acrt_call_reportfault   10011f19 f   libucrt:invalid_parameter.obj
 0001:00011054       ___acrt_initialize_invalid_parameter_handler 10012054 f   libucrt:invalid_parameter.obj
 0001:00011068       __invalid_parameter        10012068 f   libucrt:invalid_parameter.obj
 0001:000110e3       __invalid_parameter_noinfo 100120e3 f   libucrt:invalid_parameter.obj
 0001:000110f3       __invoke_watson            100120f3 f   libucrt:invalid_parameter.obj
 0001:00011126       ___acrt_errno_from_os_error 10012126 f   libucrt:errno.obj
 0001:00011169       ___acrt_errno_map_os_error 10012169 f   libucrt:errno.obj
 0001:0001118c       ___doserrno                1001218c f   libucrt:errno.obj
 0001:0001119f       __errno                    1001219f f   libucrt:errno.obj
 0001:000111b2       _calloc                    100121b2 f   libucrt:calloc.obj
 0001:000111bd       _malloc                    100121bd f   libucrt:malloc.obj
 0001:000111c8       __recalloc                 100121c8 f   libucrt:recalloc.obj
 0001:000111d3       __recalloc_base            100121d3 f   libucrt:recalloc.obj
 0001:00011240       __resetstkoflw             10012240 f   libucrt:resetstk.obj
 0001:00011311       _wcscat_s                  10012311 f   libucrt:wcscat_s.obj
 0001:00011386       _wcscpy_s                  10012386 f   libucrt:wcscpy_s.obj
 0001:000114b7       _wcsncpy_s                 100124b7 f   libucrt:wcsncpy_s.obj
 0001:000116c1       ??$count@D@formatting_buffer@__crt_stdio_output@@QBEIXZ 100126c1 f i libucrt:output.obj
 0001:000116d9       ??$ensure_buffer_is_big_enough@D@formatting_buffer@__crt_stdio_output@@QAE_NI@Z 100126d9 f i libucrt:output.obj
 0001:0001175f       ??$is_wide_character_specifier@_W@__crt_stdio_output@@YA_N_K_WW4length_modifier@0@@Z 1001275f f i libucrt:output.obj
 0001:000117ae       ??$scratch_data@D@formatting_buffer@__crt_stdio_output@@QAEPADXZ 100127ae f i libucrt:output.obj
 0001:000117cc       ??$type_case_integer_parse_into_buffer@I@?$output_processor@_WV?$string_output_adapter@_W@__crt_stdio_output@@V?$format_validation_base@_WV?$string_output_adapter@_W@__crt_stdio_output@@@2@@__crt_stdio_output@@AAEXII_N@Z 100127cc f i libucrt:output.obj
 0001:00011841       ??$type_case_integer_parse_into_buffer@_K@?$output_processor@_WV?$string_output_adapter@_W@__crt_stdio_output@@V?$format_validation_base@_WV?$string_output_adapter@_W@__crt_stdio_output@@@2@@__crt_stdio_output@@AAEX_KI_N@Z 10012841 f i libucrt:output.obj
 0001:000118c9       ??$write_multiple_characters@V?$string_output_adapter@_W@__crt_stdio_output@@D@__crt_stdio_output@@YAXABV?$string_output_adapter@_W@0@DHQAH@Z 100128c9 f i libucrt:output.obj
 0001:000118fa       ??0?$common_data@_W@__crt_stdio_output@@IAE@XZ 100128fa f i libucrt:output.obj
 0001:00011946       ??0?$output_adapter_data@_WV?$string_output_adapter@_W@__crt_stdio_output@@@__crt_stdio_output@@IAE@ABV?$string_output_adapter@_W@1@_KQB_WQAU__crt_locale_pointers@@QAD@Z 10012946 f i libucrt:output.obj
 0001:00011982       ??0?$output_processor@_WV?$string_output_adapter@_W@__crt_stdio_output@@V?$format_validation_base@_WV?$string_output_adapter@_W@__crt_stdio_output@@@2@@__crt_stdio_output@@QAE@ABV?$string_output_adapter@_W@1@_KQB_WQAU__crt_locale_pointers@@QAD@Z 10012982 f i libucrt:output.obj
 0001:000119b7       ??0_LocaleUpdate@@QAE@QAU__crt_locale_pointers@@@Z 100129b7 f i libucrt:output.obj
 0001:00011a3a       ??1formatting_buffer@__crt_stdio_output@@QAE@XZ 10012a3a f i libucrt:output.obj
 0001:00011a54       ??4?$__crt_unique_heap_ptr@DU__crt_internal_free_policy@@@@QAEAAV0@$$QAV0@@Z 10012a54 f i libucrt:output.obj
 0001:00011a78       ?crop_zeroes@__crt_stdio_output@@YAXPADQAU__crt_locale_pointers@@@Z 10012a78 f i libucrt:output.obj
 0001:00011acf       ?find_next_state@?$output_processor@_WV?$string_output_adapter@_W@__crt_stdio_output@@V?$format_validation_base@_WV?$string_output_adapter@_W@__crt_stdio_output@@@2@@__crt_stdio_output@@ABE?AW4state@2@_WW432@@Z 10012acf f i libucrt:output.obj
 0001:00011b06       ?force_decimal_point@__crt_stdio_output@@YAXPADQAU__crt_locale_pointers@@@Z 10012b06 f i libucrt:output.obj
 0001:00011b62       ?parse_int_from_format_string@?$output_processor@_WV?$string_output_adapter@_W@__crt_stdio_output@@V?$format_validation_base@_WV?$string_output_adapter@_W@__crt_stdio_output@@@2@@__crt_stdio_output@@AAE_NQAH@Z 10012b62 f i libucrt:output.obj
 0001:00011bc0       ?process@?$output_processor@_WV?$string_output_adapter@_W@__crt_stdio_output@@V?$format_validation_base@_WV?$string_output_adapter@_W@__crt_stdio_output@@@2@@__crt_stdio_output@@QAEHXZ 10012bc0 f i libucrt:output.obj
 0001:00011cf0       ?state_case_flag@?$output_processor@_WV?$string_output_adapter@_W@__crt_stdio_output@@V?$format_validation_base@_WV?$string_output_adapter@_W@__crt_stdio_output@@@2@@__crt_stdio_output@@AAE_NXZ 10012cf0 f i libucrt:output.obj
 0001:00011d2d       ?state_case_normal@?$output_processor@_WV?$string_output_adapter@_W@__crt_stdio_output@@V?$format_validation_base@_WV?$string_output_adapter@_W@__crt_stdio_output@@@2@@__crt_stdio_output@@AAE_NXZ 10012d2d f i libucrt:output.obj
 0001:00011d4c       ?state_case_normal_common@?$output_processor@_WV?$string_output_adapter@_W@__crt_stdio_output@@V?$format_validation_base@_WV?$string_output_adapter@_W@__crt_stdio_output@@@2@@__crt_stdio_output@@AAE_NXZ 10012d4c f i libucrt:output.obj
 0001:00011d67       ?state_case_precision@?$output_processor@_WV?$string_output_adapter@_W@__crt_stdio_output@@V?$format_validation_base@_WV?$string_output_adapter@_W@__crt_stdio_output@@@2@@__crt_stdio_output@@AAE_NXZ 10012d67 f i libucrt:output.obj
 0001:00011d90       ?state_case_size@?$output_processor@_WV?$string_output_adapter@_W@__crt_stdio_output@@V?$format_validation_base@_WV?$string_output_adapter@_W@__crt_stdio_output@@@2@@__crt_stdio_output@@AAE_NXZ 10012d90 f i libucrt:output.obj
 0001:00011f0c       ?state_case_type@?$output_processor@_WV?$string_output_adapter@_W@__crt_stdio_output@@V?$format_validation_base@_WV?$string_output_adapter@_W@__crt_stdio_output@@@2@@__crt_stdio_output@@AAE_NXZ 10012f0c f i libucrt:output.obj
 0001:00012169       ?state_case_width@?$output_processor@_WV?$string_output_adapter@_W@__crt_stdio_output@@V?$format_validation_base@_WV?$string_output_adapter@_W@__crt_stdio_output@@@2@@__crt_stdio_output@@AAE_NXZ 10013169 f i libucrt:output.obj
 0001:00012195       ?to_integer_size@__crt_stdio_output@@YAIW4length_modifier@1@@Z 10013195 f i libucrt:output.obj
 0001:000121f1       ?type_case_Z@?$output_processor@_WV?$string_output_adapter@_W@__crt_stdio_output@@V?$format_validation_base@_WV?$string_output_adapter@_W@__crt_stdio_output@@@2@@__crt_stdio_output@@AAE_NXZ 100131f1 f i libucrt:output.obj
 0001:00012254       ?type_case_a@?$output_processor@_WV?$string_output_adapter@_W@__crt_stdio_output@@V?$format_validation_base@_WV?$string_output_adapter@_W@__crt_stdio_output@@@2@@__crt_stdio_output@@AAE_NXZ 10013254 f i libucrt:output.obj
 0001:000123c6       ?type_case_c_tchar@?$output_processor@_WV?$string_output_adapter@_W@__crt_stdio_output@@V?$format_validation_base@_WV?$string_output_adapter@_W@__crt_stdio_output@@@2@@__crt_stdio_output@@AAE_N_W@Z 100133c6 f i libucrt:output.obj
 0001:0001245e       ?type_case_integer@?$output_processor@_WV?$string_output_adapter@_W@__crt_stdio_output@@V?$format_validation_base@_WV?$string_output_adapter@_W@__crt_stdio_output@@@2@@__crt_stdio_output@@AAE_NI_N@Z 1001345e f i libucrt:output.obj
 0001:000125a8       ?type_case_n@?$output_processor@_WV?$string_output_adapter@_W@__crt_stdio_output@@V?$format_validation_base@_WV?$string_output_adapter@_W@__crt_stdio_output@@@2@@__crt_stdio_output@@AAE_NXZ 100135a8 f i libucrt:output.obj
 0001:0001261c       ?type_case_o@?$output_processor@_WV?$string_output_adapter@_W@__crt_stdio_output@@V?$format_validation_base@_WV?$string_output_adapter@_W@__crt_stdio_output@@@2@@__crt_stdio_output@@AAE_NXZ 1001361c f i libucrt:output.obj
 0001:0001263b       ?type_case_p@?$output_processor@_WV?$string_output_adapter@_W@__crt_stdio_output@@V?$format_validation_base@_WV?$string_output_adapter@_W@__crt_stdio_output@@@2@@__crt_stdio_output@@AAE_NXZ 1001363b f i libucrt:output.obj
 0001:00012653       ?type_case_s@?$output_processor@_WV?$string_output_adapter@_W@__crt_stdio_output@@V?$format_validation_base@_WV?$string_output_adapter@_W@__crt_stdio_output@@@2@@__crt_stdio_output@@AAE_NXZ 10013653 f i libucrt:output.obj
 0001:000126c7       ?type_case_s_compute_narrow_string_length@?$output_processor@_WV?$string_output_adapter@_W@__crt_stdio_output@@V?$format_validation_base@_WV?$string_output_adapter@_W@__crt_stdio_output@@@2@@__crt_stdio_output@@ABEHH_W@Z 100136c7 f i libucrt:output.obj
 0001:00012707       ?validate@?$string_output_adapter@_W@__crt_stdio_output@@QBE_NXZ 10013707 f i libucrt:output.obj
 0001:00012707       ?validate@?$c_string_character_source@_W@__crt_strtox@@QBE_NXZ 10013707 f i libucrt:atox.obj
 0001:00012722       ?validate_and_update_state_at_end_of_format_string@?$format_validation_base@_WV?$string_output_adapter@_W@__crt_stdio_output@@@__crt_stdio_output@@IBE_NXZ 10013722 f i libucrt:output.obj
 0001:00012744       ?write_character@?$string_output_adapter@_W@__crt_stdio_output@@QBE_N_WQAH@Z 10013744 f i libucrt:output.obj
 0001:00012789       ?write_stored_string_tchar@?$output_processor@_WV?$string_output_adapter@_W@__crt_stdio_output@@V?$format_validation_base@_WV?$string_output_adapter@_W@__crt_stdio_output@@@2@@__crt_stdio_output@@AAE_N_W@Z 10013789 f i libucrt:output.obj
 0001:00012814       ?write_string@?$string_output_adapter@_W@__crt_stdio_output@@QBEXQB_WHQAH1@Z 10013814 f i libucrt:output.obj
 0001:000128ae       ___stdio_common_vswprintf_s 100138ae f   libucrt:output.obj
 0001:000128d2       __seh_filter_dll           100138d2 f   libucrt:exception_filter.obj
 0001:000128f2       __seh_filter_exe           100138f2 f   libucrt:exception_filter.obj
 0001:00012c80       ___acrt_initialize_thread_local_exit_callback 10013c80 f   libucrt:exit.obj
 0001:00012c8f       __cexit                    10013c8f f   libucrt:exit.obj
 0001:00012c9e       __exit                     10013c9e f   libucrt:exit.obj
 0001:00012cb4       __is_c_termination_complete 10013cb4 f   libucrt:exit.obj
 0001:00012f53       ___acrt_allocate_buffer_for_argv 10013f53 f   libucrt:argv_parsing.obj
 0001:00012fa8       __configure_narrow_argv    10013fa8 f   libucrt:argv_parsing.obj
 0001:0001310c       ??$uninitialize@A6AXAAPAPA_W@Z@?$dual_state_global@PAPA_W@__crt_state_management@@QAEXA6AXAAPAPA_W@Z@Z 1001410c f i libucrt:environment_initialization.obj
 0001:0001310c       ??$uninitialize@A6AXAAPAPAD@Z@?$dual_state_global@PAPAD@__crt_state_management@@QAEXA6AXAAPAPAD@Z@Z 1001410c f i libucrt:environment_initialization.obj
 0001:00013182       ___dcrt_uninitialize_environments_nolock 10014182 f   libucrt:environment_initialization.obj
 0001:000131b9       __initialize_narrow_environment 100141b9 f   libucrt:environment_initialization.obj
 0001:000131be       ??$?RV<lambda_800076c951b434888f4765a74a194fcc>@@AAV<lambda_4e60a939b0d047cfe11ddc22648dfba9>@@V<lambda_6dbb1268764f43b569ce7b67e331d33a>@@@?$__crt_seh_guarded_call@H@@QAEH$$QAV<lambda_800076c951b434888f4765a74a194fcc>@@AAV<lambda_4e60a939b0d047cfe11ddc22648dfba9>@@$$QAV<lambda_6dbb1268764f43b569ce7b67e331d33a>@@@Z 100141be f i libucrt:onexit.obj
 0001:0001320f       ??$?RV<lambda_995298e7d72eb4c2aab26c0585b3abe5>@@AAV<lambda_275893d493268fdec8709772e3fcec0e>@@V<lambda_293819299cbf9a7022e18b56a874bb5c>@@@?$__crt_seh_guarded_call@H@@QAEH$$QAV<lambda_995298e7d72eb4c2aab26c0585b3abe5>@@AAV<lambda_275893d493268fdec8709772e3fcec0e>@@$$QAV<lambda_293819299cbf9a7022e18b56a874bb5c>@@@Z 1001420f f i libucrt:onexit.obj
 0001:00013260       ??$__acrt_lock_and_call@V<lambda_275893d493268fdec8709772e3fcec0e>@@@@YAHW4__acrt_lock_id@@$$QAV<lambda_275893d493268fdec8709772e3fcec0e>@@@Z 10014260 f i libucrt:onexit.obj
 0001:00013288       ??$__acrt_lock_and_call@V<lambda_4e60a939b0d047cfe11ddc22648dfba9>@@@@YAHW4__acrt_lock_id@@$$QAV<lambda_4e60a939b0d047cfe11ddc22648dfba9>@@@Z 10014288 f i libucrt:onexit.obj
 0001:000132b0       ??$__crt_fast_encode_pointer@P6AHXZ@@YAP6AHXZQ6AHXZ@Z 100142b0 f i libucrt:onexit.obj
 0001:00013530       __crt_atexit               10014530 f   libucrt:onexit.obj
 0001:00013546       __execute_onexit_table     10014546 f   libucrt:onexit.obj
 0001:00013563       __initialize_onexit_table  10014563 f   libucrt:onexit.obj
 0001:000135a0       __register_onexit_function 100145a0 f   libucrt:onexit.obj
 0001:000135f0       ___acrt_uninitialize_command_line 100145f0 f   libucrt:argv_data.obj
 0001:000136b8       ___acrt_initialize         100146b8 f   libucrt:initialization.obj
 0001:000136ca       ___acrt_thread_attach      100146ca f   libucrt:initialization.obj
 0001:000136d5       ___acrt_thread_detach      100146d5 f   libucrt:initialization.obj
 0001:000136dd       ___acrt_uninitialize       100146dd f   libucrt:initialization.obj
 0001:000136ef       ___acrt_uninitialize_critical 100146ef f   libucrt:initialization.obj
 0001:00013701       __initterm                 10014701 f   libucrt:initterm.obj
 0001:0001375d       __initterm_e               1001475d f   libucrt:initterm.obj
 0001:000137a2       ___acrt_initialize_new_handler 100147a2 f   libucrt:new_handler.obj
 0001:000137b6       __callnewh                 100147b6 f   libucrt:new_handler.obj
 0001:000137fa       __query_new_handler        100147fa f   libucrt:new_handler.obj
 0001:0001384c       _terminate                 1001484c f   libucrt:terminate.obj
 0001:00013888       _abort                     10014888 f   libucrt:abort.obj
 0001:000138cb       _strcpy_s                  100148cb f   libucrt:strcpy_s.obj
 0001:00013925       _wcsncmp                   10014925 f   libucrt:wcsncmp.obj
 0001:0001395f       ??$is_overflow_condition@K@__crt_strtox@@YA_NIK@Z 1001495f f i libucrt:atox.obj
 0001:00013992       ??$parse_integer@KV?$c_string_character_source@_W@__crt_strtox@@@__crt_strtox@@YAKQAU__crt_locale_pointers@@V?$c_string_character_source@_W@0@H_N@Z 10014992 f i libucrt:atox.obj
 0001:00014077       ?unget@?$c_string_character_source@_W@__crt_strtox@@QAEX_W@Z 10015077 f i libucrt:atox.obj
 0001:000140a3       __chvalidchk_l             100150a3 f i libucrt:atox.obj
 0001:000140cd       __ischartype_l             100150cd f i libucrt:atox.obj
 0001:00014100       _strncmp                   10015100 f   libucrt:strncmp.obj
 0001:00014178       __free_base                10015178 f   libucrt:free_base.obj
 0001:000141b2       ??$?RV<lambda_3518db117f0e7cdb002338c5d3c47b6c>@@AAV<lambda_b2ea41f6bbb362cd97d94c6828d90b61>@@V<lambda_abdedf541bb04549bc734292b4a045d4>@@@?$__crt_seh_guarded_call@X@@QAEX$$QAV<lambda_3518db117f0e7cdb002338c5d3c47b6c>@@AAV<lambda_b2ea41f6bbb362cd97d94c6828d90b61>@@$$QAV<lambda_abdedf541bb04549bc734292b4a045d4>@@@Z 100151b2 f i libucrt:per_thread_data.obj
 0001:00014202       ??$?RV<lambda_51b6e8b1eb166f2a3faf91f424b38130>@@AAV<lambda_6250bd4b2a391816dd638c3bf72b0bcb>@@V<lambda_0b5a4a3e68152e1d9b943535f5f47bed>@@@?$__crt_seh_guarded_call@X@@QAEX$$QAV<lambda_51b6e8b1eb166f2a3faf91f424b38130>@@AAV<lambda_6250bd4b2a391816dd638c3bf72b0bcb>@@$$QAV<lambda_0b5a4a3e68152e1d9b943535f5f47bed>@@@Z 10015202 f i libucrt:per_thread_data.obj
 0001:00014263       ??$?RV<lambda_5b71d36f03204c0beab531769a5b5694>@@AAV<lambda_be2b3da3f62db62e9dad5dc70221a656>@@V<lambda_8f9ce462984622f9bf76b59e2aaaf805>@@@?$__crt_seh_guarded_call@X@@QAEX$$QAV<lambda_5b71d36f03204c0beab531769a5b5694>@@AAV<lambda_be2b3da3f62db62e9dad5dc70221a656>@@$$QAV<lambda_8f9ce462984622f9bf76b59e2aaaf805>@@@Z 10015263 f i libucrt:per_thread_data.obj
 0001:000142ae       ??$?RV<lambda_9df27f884b057bc3edfc946cb5b7cf47>@@AAV<lambda_e69574bed617af4e071282c136b37893>@@V<lambda_cc0d902bcbbeb830f749456577db4721>@@@?$__crt_seh_guarded_call@X@@QAEX$$QAV<lambda_9df27f884b057bc3edfc946cb5b7cf47>@@AAV<lambda_e69574bed617af4e071282c136b37893>@@$$QAV<lambda_cc0d902bcbbeb830f749456577db4721>@@@Z 100152ae f i libucrt:per_thread_data.obj
 0001:000142f6       ??$__acrt_lock_and_call@V<lambda_6250bd4b2a391816dd638c3bf72b0bcb>@@@@YAXW4__acrt_lock_id@@$$QAV<lambda_6250bd4b2a391816dd638c3bf72b0bcb>@@@Z 100152f6 f i libucrt:per_thread_data.obj
 0001:0001431e       ??$__acrt_lock_and_call@V<lambda_b2ea41f6bbb362cd97d94c6828d90b61>@@@@YAXW4__acrt_lock_id@@$$QAV<lambda_b2ea41f6bbb362cd97d94c6828d90b61>@@@Z 1001531e f i libucrt:per_thread_data.obj
 0001:00014346       ??$__acrt_lock_and_call@V<lambda_be2b3da3f62db62e9dad5dc70221a656>@@@@YAXW4__acrt_lock_id@@$$QAV<lambda_be2b3da3f62db62e9dad5dc70221a656>@@@Z 10015346 f i libucrt:per_thread_data.obj
 0001:0001436e       ??$__acrt_lock_and_call@V<lambda_e69574bed617af4e071282c136b37893>@@@@YAXW4__acrt_lock_id@@$$QAV<lambda_e69574bed617af4e071282c136b37893>@@@Z 1001536e f i libucrt:per_thread_data.obj
 0001:00014524       ___acrt_freeptd            10015524 f   libucrt:per_thread_data.obj
 0001:00014550       ___acrt_getptd             10015550 f   libucrt:per_thread_data.obj
 0001:000145d4       ___acrt_getptd_noexit      100155d4 f   libucrt:per_thread_data.obj
 0001:00014659       ___acrt_initialize_ptd     10015659 f   libucrt:per_thread_data.obj
 0001:00014685       ___acrt_uninitialize_ptd   10015685 f   libucrt:per_thread_data.obj
 0001:0001469f       __calloc_base              1001569f f   libucrt:calloc_base.obj
 0001:000146fc       __malloc_base              100156fc f   libucrt:malloc_base.obj
 0001:0001474a       __msize                    1001574a f   libucrt:msize.obj
 0001:0001477d       __realloc_base             1001577d f   libucrt:realloc_base.obj
 0001:000148fd       ___acrt_FlsAlloc@4         100158fd f   libucrt:winapi_thunks.obj
 0001:00014953       ___acrt_FlsFree@4          10015953 f   libucrt:winapi_thunks.obj
 0001:000149a9       ___acrt_FlsGetValue@4      100159a9 f   libucrt:winapi_thunks.obj
 0001:000149ff       ___acrt_FlsSetValue@8      100159ff f   libucrt:winapi_thunks.obj
 0001:00014a58       ___acrt_InitializeCriticalSectionEx@12 10015a58 f   libucrt:winapi_thunks.obj
 0001:00014aba       ___acrt_LCMapStringEx@36   10015aba f   libucrt:winapi_thunks.obj
 0001:00014b42       ___acrt_LocaleNameToLCID@8 10015b42 f   libucrt:winapi_thunks.obj
 0001:00014b9e       ___acrt_SetThreadStackGuarantee@4 10015b9e f   libucrt:winapi_thunks.obj
 0001:00014bf0       ___acrt_initialize_winapi_thunks 10015bf0 f   libucrt:winapi_thunks.obj
 0001:00014c16       ___acrt_is_packaged_app    10015c16 f   libucrt:winapi_thunks.obj
 0001:00014c9d       ___acrt_uninitialize_winapi_thunks 10015c9d f   libucrt:winapi_thunks.obj
 0001:00014cd3       __isdigit_l                10015cd3 f i libucrt:_ctype.obj
 0001:00014d0b       _isdigit                   10015d0b f i libucrt:_ctype.obj
 0001:00014e9f       __tolower_l                10015e9f f   libucrt:tolower_toupper.obj
 0001:00014eb9       _tolower                   10015eb9 f   libucrt:tolower_toupper.obj
 0001:00014ee9       ??$make_c_string_character_source@_WPAPA_W@__crt_strtox@@YA?AV?$c_string_character_source@_W@0@QB_WQAPA_W@Z 10015ee9 f i libucrt:strtox.obj
 0001:00014f04       _wcstol                    10015f04 f   libucrt:strtox.obj
 0001:00014f30       __mbtowc_l                 10015f30 f   libucrt:mbtowc.obj
 0001:0001502a       _mbtowc                    1001602a f   libucrt:mbtowc.obj
 0001:00015044       _wcsnlen                   10016044 f   libucrt:strnlen.obj
 0001:000151fb       ___acrt_update_locale_info 100161fb f   libucrt:locale_update.obj
 0001:00015228       ___acrt_update_multibyte_info 10016228 f   libucrt:locale_update.obj
 0001:00015255       ?__acrt_fp_classify@@YA?AW4__acrt_fp_class@@ABN@Z 10016255 f i libucrt:cvt.obj
 0001:000152c1       ?__acrt_fp_is_negative@@YA_NABN@Z 100162c1 f i libucrt:cvt.obj
 0001:00015b20       ___acrt_fp_format          10016b20 f   libucrt:cvt.obj
 0001:00015c6a       __fileno                   10016c6a f   libucrt:fileno.obj
 0001:00015c90       ___acrt_initialize_stdio   10016c90 f   libucrt:_file.obj
 0001:00015d58       ___acrt_uninitialize_stdio 10016d58 f   libucrt:_file.obj
 0001:00015da4       __lock_file                10016da4 f   libucrt:_file.obj
 0001:00015db8       __unlock_file              10016db8 f   libucrt:_file.obj
 0001:00015dcc       __get_printf_count_output  10016dcc f   libucrt:printf_count_output.obj
 0001:00015de1       ___acrt_set_locale_changed 10016de1 f   libucrt:wsetlocale.obj
 0001:00015dec       ___acrt_uninitialize_locale 10016dec f   libucrt:wsetlocale.obj
 0001:00015faa       ___acrt_initialize_lowio   10016faa f   libucrt:ioinit.obj
 0001:00016000       ___acrt_uninitialize_lowio 10017000 f   libucrt:ioinit.obj
 0001:0001602c       ___acrt_initialize_locks   1001702c f   libucrt:locks.obj
 0001:0001606d       ___acrt_lock               1001706d f   libucrt:locks.obj
 0001:00016084       ___acrt_uninitialize_locks 10017084 f   libucrt:locks.obj
 0001:000160b5       ___acrt_unlock             100170b5 f   libucrt:locks.obj
 0001:0001648e       ??1?$argument_list@D@?A0xb0e4b824@@QAE@XZ 1001748e f i libucrt:argv_wildcards.obj
 0001:000164b3       ?append@?$argument_list@D@?A0xb0e4b824@@QAEHQAD@Z 100174b3 f i libucrt:argv_wildcards.obj
 0001:000164e8       ?expand_if_necessary@?$argument_list@D@?A0xb0e4b824@@AAEHXZ 100174e8 f i libucrt:argv_wildcards.obj
 0001:0001656f       ___acrt_expand_narrow_argv_wildcards 1001756f f   libucrt:argv_wildcards.obj
 0001:0001657a       ??$?RV<lambda_978dc153c237d78434369da87b74ff60>@@AAV<lambda_ad1ced32f4ac17aa236e5ef05d6b3b7c>@@V<lambda_4a8533e2866a575feecb8298ce776b0d>@@@?$__crt_seh_guarded_call@X@@QAEX$$QAV<lambda_978dc153c237d78434369da87b74ff60>@@AAV<lambda_ad1ced32f4ac17aa236e5ef05d6b3b7c>@@$$QAV<lambda_4a8533e2866a575feecb8298ce776b0d>@@@Z 1001757a f i libucrt:mbctype.obj
 0001:000165bd       ??$__acrt_lock_and_call@V<lambda_ad1ced32f4ac17aa236e5ef05d6b3b7c>@@@@YAXW4__acrt_lock_id@@$$QAV<lambda_ad1ced32f4ac17aa236e5ef05d6b3b7c>@@@Z 100175bd f i libucrt:mbctype.obj
 0001:00016a54       ___acrt_initialize_multibyte 10017a54 f   libucrt:mbctype.obj
 0001:00016a72       ___acrt_update_thread_multibyte_data 10017a72 f   libucrt:mbctype.obj
 0001:00016b14       __setmbcp_nolock           10017b14 f   libucrt:mbctype.obj
 0001:00016ddf       __ismbblead                10017ddf f   libucrt:ismbbyte.obj
 0001:00016df7       ___acrt_initialize_command_line 10017df7 f   libucrt:argv_data.obj
 0001:00016e47       ___dcrt_get_narrow_environment_from_os 10017e47 f   libucrt:get_environment_from_os.obj
 0001:00016eca       ___acrt_initialize_heap    10017eca f   libucrt:heap_handle.obj
 0001:00016edb       ___acrt_uninitialize_heap  10017edb f   libucrt:heap_handle.obj
 0001:00016ee5       ___acrt_execute_initializers 10017ee5 f   libucrt:shared_initialization.obj
 0001:00016f68       ___acrt_execute_uninitializers 10017f68 f   libucrt:shared_initialization.obj
 0001:00016fb5       ??$?RV<lambda_a048d3beccc847880fc8490e18b82769>@@AAV<lambda_ec61778202f4f5fc7e7711acc23c3bca>@@V<lambda_f7496a158712204296dd6628a163878e>@@@?$__crt_seh_guarded_call@P6AXH@Z@@QAEP6AXH@Z$$QAV<lambda_a048d3beccc847880fc8490e18b82769>@@AAV<lambda_ec61778202f4f5fc7e7711acc23c3bca>@@$$QAV<lambda_f7496a158712204296dd6628a163878e>@@@Z 10017fb5 f i libucrt:signal.obj
 0001:0001700f       ??$__acrt_lock_and_call@V<lambda_ec61778202f4f5fc7e7711acc23c3bca>@@@@YAP6AXH@ZW4__acrt_lock_id@@$$QAV<lambda_ec61778202f4f5fc7e7711acc23c3bca>@@@Z 1001800f f i libucrt:signal.obj
 0001:000170a1       ___acrt_get_sigabrt_handler 100180a1 f   libucrt:signal.obj
 0001:000170b8       ___acrt_initialize_signal_handlers 100180b8 f   libucrt:signal.obj
 0001:000170f3       ___fpecode                 100180f3 f   libucrt:signal.obj
 0001:000170fc       _raise                     100180fc f   libucrt:signal.obj
 0001:00017304       ___acrt_has_user_matherr   10018304 f   libucrt:matherr.obj
 0001:0001731d       ___acrt_initialize_user_matherr 1001831d f   libucrt:matherr.obj
 0001:00017331       ___acrt_invoke_user_matherr 10018331 f   libucrt:matherr.obj
 0001:0001737a       ___pctype_func             1001837a f   libucrt:ctype.obj
 0001:000173a0       _iswctype                  100183a0 f   libucrt:iswctype.obj
 0001:000173ff       __isctype_l                100183ff f   libucrt:isctype.obj
 0001:000174d1       ___acrt_add_locale_ref     100184d1 f   libucrt:locale_refcounting.obj
 0001:0001754e       ___acrt_free_locale        1001854e f   libucrt:locale_refcounting.obj
 0001:00017698       ___acrt_locale_add_lc_time_reference 10018698 f   libucrt:locale_refcounting.obj
 0001:000176c1       ___acrt_locale_free_lc_time_if_unreferenced 100186c1 f   libucrt:locale_refcounting.obj
 0001:000176f1       ___acrt_locale_release_lc_time_reference 100186f1 f   libucrt:locale_refcounting.obj
 0001:0001771a       ___acrt_release_locale_ref 1001871a f   libucrt:locale_refcounting.obj
 0001:0001779b       ___acrt_update_thread_locale_data 1001879b f   libucrt:locale_refcounting.obj
 0001:00017812       __updatetlocinfoEx_nolock  10018812 f   libucrt:locale_refcounting.obj
 0001:00017862       __query_new_mode           10018862 f   libucrt:new_mode.obj
 0001:00017924       ___acrt_DownlevelLocaleNameToLCID 10018924 f   libucrt:lcidtoname_downlevel.obj
 0001:00017950       __isleadbyte_l             10018950 f i libucrt:_wctype.obj
 0001:00017ba6       ___acrt_LCMapStringA       10018ba6 f   libucrt:lcmapstringa.obj
 0001:00017bf1       __freea_crt                10018bf1 f i libucrt:lcmapstringa.obj
 0001:00017c11       ___acrt_fp_strflt_to_string 10018c11 f   libucrt:_fptostr.obj
 0001:00017ccd       ??0scoped_fp_state_reset@?A0x48fbfdd4@@QAE@XZ 10018ccd f i libucrt:cfout.obj
 0001:00017d00       ?divide@__crt_strtox@@YA_KAAUbig_integer@1@ABU21@@Z 10018d00 f i libucrt:cfout.obj
 0001:000181ae       ___acrt_fltout             100191ae f   libucrt:cfout.obj
 0001:0001954a       __fcloseall                1001a54a f   libucrt:closeall.obj
 0001:000195ea       ___acrt_stdio_flush_nolock 1001a5ea f   libucrt:fflush.obj
 0001:00019650       __fflush_nolock            1001a650 f   libucrt:fflush.obj
 0001:00019697       __flushall                 1001a697 f   libucrt:fflush.obj
 0001:00019778       ___acrt_stdio_free_buffer_nolock 1001a778 f   libucrt:_freebuf.obj
 0001:000197b6       __isatty                   1001a7b6 f   libucrt:isatty.obj
 0001:0001980c       ___acrt_locale_free_monetary 1001a80c f   libucrt:initmon.obj
 0001:0001990a       ___acrt_locale_free_numeric 1001a90a f   libucrt:initnum.obj
 0001:000199af       ___acrt_locale_free_time   1001a9af f   libucrt:inittime.obj
 0001:00019a93       ___acrt_GetStringTypeA     1001aa93 f   libucrt:getstringtypea.obj
 0001:00019bb0       ___acrt_lowio_create_handle_array 1001abb0 f   libucrt:osfinfo.obj
 0001:00019c2a       ___acrt_lowio_destroy_handle_array 1001ac2a f   libucrt:osfinfo.obj
 0001:00019c5f       ___acrt_lowio_ensure_fh_exists 1001ac5f f   libucrt:osfinfo.obj
 0001:00019cf7       ___acrt_lowio_lock_fh      1001acf7 f   libucrt:osfinfo.obj
 0001:00019d1a       ___acrt_lowio_unlock_fh    1001ad1a f   libucrt:osfinfo.obj
 0001:00019d3d       __free_osfhnd              1001ad3d f   libucrt:osfinfo.obj
 0001:00019dce       __get_osfhandle            1001adce f   libucrt:osfinfo.obj
 0001:00019f20       _qsort                     1001af20 f   libucrt:qsort.obj
 0001:0001a36b       _strncpy_s                 1001b36b f   libucrt:strncpy_s.obj
 0001:0001a380       _strpbrk                   1001b380 f   libucrt:strpbrk.obj
 0001:0001a3c0       __mbsdec                   1001b3c0 f   libucrt:mbsdec.obj
 0001:0001a3d7       __mbsdec_l                 1001b3d7 f   libucrt:mbsdec.obj
 0001:0001a473       ___strncnt                 1001b473 f   libucrt:strncnt.obj
 0001:0001a48f       _fegetenv                  1001b48f f   libucrt:fegetenv.obj
 0001:0001a4ac       _fesetenv                  1001b4ac f   libucrt:fesetenv.obj
 0001:0001a4f5       _feholdexcept              1001b4f5 f   libucrt:feholdexcept.obj
 0001:0001a550       _log10                     1001b550 f   libucrt:log10.obj
 0001:0001a590       __CIlog10                  1001b590 f   libucrt:log10.obj
 0001:0001a5cb       __CIlog10_default          1001b5cb f   libucrt:log10.obj
 0001:0001a5df       __log10_default            1001b5df     libucrt:log10.obj
 0001:0001a6a0       _ceil                      1001b6a0 f   libucrt:ceil_pentium4.obj
 0001:0001a6e0       __ceil_pentium4            1001b6e0 f   libucrt:ceil_pentium4.obj
 0001:0001ad4d       __write                    1001bd4d f   libucrt:write.obj
 0001:0001ae38       __write_nolock             1001be38 f   libucrt:write.obj
 0001:0001b0c2       __lseeki64_nolock          1001c0c2 f   libucrt:lseek.obj
 0001:0001b0dd       __fclose_nolock            1001c0dd f   libucrt:fclose.obj
 0001:0001b153       _fclose                    1001c153 f   libucrt:fclose.obj
 0001:0001b1d3       ??$?RV<lambda_61cee617f5178ae960314fd4d05640a0>@@AAV<lambda_6978c1fb23f02e42e1d9e99668cc68aa>@@V<lambda_9cd88cf8ad10232537feb2133f08c833>@@@?$__crt_seh_guarded_call@H@@QAEH$$QAV<lambda_61cee617f5178ae960314fd4d05640a0>@@AAV<lambda_6978c1fb23f02e42e1d9e99668cc68aa>@@$$QAV<lambda_9cd88cf8ad10232537feb2133f08c833>@@@Z 1001c1d3 f i libucrt:commit.obj
 0001:0001b26b       ??$__acrt_lowio_lock_fh_and_call@V<lambda_6978c1fb23f02e42e1d9e99668cc68aa>@@@@YAHH$$QAV<lambda_6978c1fb23f02e42e1d9e99668cc68aa>@@@Z 1001c26b f i libucrt:commit.obj
 0001:0001b293       __commit                   1001c293 f   libucrt:commit.obj
 0001:0001b302       __query_app_type           1001c302 f   libucrt:report_runtime_error.obj
 0001:0001b5ab       __getfpcontrolword         1001c5ab f   libucrt:_fenvutils.obj
 0001:0001b5ee       __getfpstatusword          1001c5ee f   libucrt:_fenvutils.obj
 0001:0001b696       __setfpcontrolword         1001c696 f   libucrt:_fenvutils.obj
 0001:0001b716       __setfpstatusword          1001c716 f   libucrt:_fenvutils.obj
 0001:0001b796       __clearfp                  1001c796 f   libucrt:ieee87.obj
 0001:0001b874       ___acrt_initialize_sse2    1001c874 f   libucrt:mathfcns.obj
 0001:0001b890       __CIlog10_pentium4         1001c890 f   libucrt:log10_pentium4.obj
 0001:0001b8a8       __log10_pentium4           1001c8a8     libucrt:log10_pentium4.obj
 0001:0001bb31       __fFEXP                    1001cb31     libucrt:87tran.obj
 0001:0001bb88       __rtinfpopse               1001cb88     libucrt:87tran.obj
 0001:0001bb8a       __rtinfnpopse              1001cb8a     libucrt:87tran.obj
 0001:0001bb9a       __fFLN                     1001cb9a     libucrt:87tran.obj
 0001:0001bc4f       __rtinfpop                 1001cc4f     libucrt:87tran.obj
 0001:0001bc51       __rtinfnpop                1001cc51     libucrt:87tran.obj
 0001:0001bc6e       __ffexpm1                  1001cc6e     libucrt:87tran.obj
 0001:0001bd20       __trandisp1                1001cd20 f   libucrt:87disp.obj
 0001:0001bd87       __trandisp2                1001cd87 f   libucrt:87disp.obj
 0001:0001be13       __rttospopde               1001ce13     libucrt:87disp.obj
 0001:0001be18       __rttospop                 1001ce18     libucrt:87disp.obj
 0001:0001be1a       __rtnospop                 1001ce1a     libucrt:87disp.obj
 0001:0001be1c       __rttosnpop                1001ce1c     libucrt:87disp.obj
 0001:0001be1d       __rtnospopde               1001ce1d     libucrt:87disp.obj
 0001:0001be24       __rtzeropop                1001ce24     libucrt:87disp.obj
 0001:0001be26       __rtzeronpop               1001ce26     libucrt:87disp.obj
 0001:0001be2b       __rtzerospop               1001ce2b     libucrt:87disp.obj
 0001:0001be38       __rtonepop                 1001ce38     libucrt:87disp.obj
 0001:0001be3a       __rtonenpop                1001ce3a     libucrt:87disp.obj
 0001:0001be3f       __tosnan1                  1001ce3f     libucrt:87disp.obj
 0001:0001be6a       __nosnan2                  1001ce6a     libucrt:87disp.obj
 0001:0001be6c       __tosnan2                  1001ce6c     libucrt:87disp.obj
 0001:0001be94       __nan2                     1001ce94     libucrt:87disp.obj
 0001:0001bed3       __rtindfpop                1001ced3     libucrt:87disp.obj
 0001:0001bed5       __rtindfnpop               1001ced5     libucrt:87disp.obj
 0001:0001bee6       __rttosnpopde              1001cee6     libucrt:87disp.obj
 0001:0001bef0       __rtatan2inf               1001cef0     libucrt:87disp.obj
 0001:0001bf0d       __rtchsifneg               1001cf0d     libucrt:87disp.obj
 0001:0001bf20       __twoToTOS                 1001cf20 f   libucrt:common.obj
 0001:0001bf35       __load_CW                  1001cf35 f   libucrt:common.obj
 0001:0001bf4c       __convertTOStoQNaN         1001cf4c f   libucrt:common.obj
 0001:0001bf65       __fload_withFB             1001cf65 f   libucrt:common.obj
 0001:0001bfa8       __checkTOS_withFB          1001cfa8 f   libucrt:common.obj
 0001:0001bfbe       __fast_exit                1001cfbe f   libucrt:common.obj
 0001:0001bfcb       __math_exit                1001cfcb f   libucrt:common.obj
 0001:0001bff5       __check_overflow_exit      1001cff5 f   libucrt:common.obj
 0001:0001c009       __check_range_exit         1001d009 f   libucrt:common.obj
 0001:0001c0b0       __startTwoArgErrorHandling 1001d0b0 f   libucrt:genexcep.obj
 0001:0001c0c7       __startOneArgErrorHandling 1001d0c7 f   libucrt:genexcep.obj
 0001:0001c103       ___libm_error_support      1001d103 f   libucrt:libm_error.obj
 0001:0001c31b       __ceil_default             1001d31b f   libucrt:ceil.obj
 0001:0001c3d4       __putwch_nolock            1001d3d4 f   libucrt:putwch.obj
 0001:0001c419       ??$?RV<lambda_123407a5e2ac06da108355a851863b7a>@@AAV<lambda_2fe9b910cf3cbf4a0ab98a02ba45b3ec>@@V<lambda_ae55bdf541ad94d75914d381c370e64d>@@@?$__crt_seh_guarded_call@H@@QAEH$$QAV<lambda_123407a5e2ac06da108355a851863b7a>@@AAV<lambda_2fe9b910cf3cbf4a0ab98a02ba45b3ec>@@$$QAV<lambda_ae55bdf541ad94d75914d381c370e64d>@@@Z 1001d419 f i libucrt:close.obj
 0001:0001c49b       ??$__acrt_lowio_lock_fh_and_call@V<lambda_2fe9b910cf3cbf4a0ab98a02ba45b3ec>@@@@YAHH$$QAV<lambda_2fe9b910cf3cbf4a0ab98a02ba45b3ec>@@@Z 1001d49b f i libucrt:close.obj
 0001:0001c4c3       __close                    1001d4c3 f   libucrt:close.obj
 0001:0001c542       __close_nolock             1001d542 f   libucrt:close.obj
 0001:0001c5de       ?__acrt_stdio_free_stream@@YAXV__crt_stdio_stream@@@Z 1001d5de f   libucrt:stream.obj
 0001:0001c620       ___ascii_strnicmp          1001d620 f   libucrt:_strnicm.obj
 0001:0001c681       __clrfp                    1001d681 f   libucrt:fpctrl.obj
 0001:0001c694       __ctrlfp                   1001d694 f   libucrt:fpctrl.obj
 0001:0001c6c0       __set_statfp               1001d6c0 f   libucrt:fpctrl.obj
 0001:0001c71b       __statfp                   1001d71b f   libucrt:fpctrl.obj
 0001:0001c72d       __d_inttype                1001d72d f   libucrt:powhlp.obj
 0001:0001c797       __powhlp                   1001d797 f   libucrt:powhlp.obj
 0001:0001c8c2       __87except                 1001d8c2 f   libucrt:87except.obj
 0001:0001c9cd       __frnd                     1001d9cd f   libucrt:frnd.obj
 0001:0001c9e3       __errcode                  1001d9e3 f   libucrt:fpexcept.obj
 0001:0001ca17       __except1                  1001da17 f   libucrt:fpexcept.obj
 0001:0001cae5       __handle_exc               1001dae5 f   libucrt:fpexcept.obj
 0001:0001ccc5       __raise_exc                1001dcc5 f   libucrt:fpexcept.obj
 0001:0001cce8       __raise_exc_ex             1001dce8 f   libucrt:fpexcept.obj
 0001:0001cfd9       __set_errno_from_matherr   1001dfd9 f   libucrt:fpexcept.obj
 0001:0001d008       __umatherr                 1001e008 f   libucrt:fpexcept.obj
 0001:0001d0aa       __decomp                   1001e0aa f   libucrt:util.obj
 0001:0001d17e       __set_exp                  1001e17e f   libucrt:util.obj
 0001:0001d1ad       __sptype                   1001e1ad f   libucrt:util.obj
 0001:0001d20b       ___dcrt_lowio_initialize_console_output 1001e20b f   libucrt:initcon.obj
 0001:0001d22a       ___dcrt_terminate_console_output 1001e22a f   libucrt:initcon.obj
 0001:0001d241       __fpclass                  1001e241 f   libucrt:ieeemisc.obj
 0001:0001d2e5       _IsProcessorFeaturePresent@4 1001e2e5 f   kernel32:KERNEL32.dll
 0001:0001d2f0       __FindPESection            1001e2f0 f   LIBCMT:pesect.obj
 0001:0001d340       __IsNonwritableInCurrentImage 1001e340 f   LIBCMT:pesect.obj
 0001:0001d400       __ValidateImageBase        1001e400 f   LIBCMT:pesect.obj
 0001:0001d433       __EH_prolog3_catch         1001e433 f   LIBCMT:ehprolg3.obj
 0001:0001d470       __aulldvrm                 1001e470 f   LIBCMT:ulldvrm.obj
 0001:0001d510       __allmul                   1001e510 f   LIBCMT:llmul.obj
 0001:0001d550       __alldvrm                  1001e550 f   LIBCMT:lldvrm.obj
 0001:0001d630       __aullshr                  1001e630 f   LIBCMT:ullshr.obj
 0001:0001d650       __allshl                   1001e650 f   LIBCMT:llshl.obj
 0001:0001d670       __ftol2_sse                1001e670 f   LIBCMT:ftol2.obj
 0001:0001d679       __ftol2_pentium4           1001e679 f   LIBCMT:ftol2.obj
 0001:0001d68c       __ftol2_sse_excpt          1001e68c f   LIBCMT:ftol2.obj
 0001:0001d6b0       __ftol2                    1001e6b0 f   LIBCMT:ftol2.obj
 0001:0001d730       _strrchr                   1001e730 f   libvcruntime:strrchr.obj
 0001:0001d870       _strchr                    1001e870 f   libvcruntime:strchr.obj
 0001:0001d8de       ___from_strstr_to_strchr   1001e8de     libvcruntime:strchr.obj
 0002:00000000       __imp__RegQueryValueExW@24 1001f000     advapi32:ADVAPI32.dll
 0002:00000004       __imp__RegSetValueExW@24   1001f004     advapi32:ADVAPI32.dll
 0002:00000008       __imp__RegQueryInfoKeyW@48 1001f008     advapi32:ADVAPI32.dll
 0002:0000000c       __imp__RegOpenKeyExW@20    1001f00c     advapi32:ADVAPI32.dll
 0002:00000010       __imp__RegEnumKeyExW@32    1001f010     advapi32:ADVAPI32.dll
 0002:00000014       __imp__RegDeleteValueW@8   1001f014     advapi32:ADVAPI32.dll
 0002:00000018       __imp__RegDeleteKeyW@8     1001f018     advapi32:ADVAPI32.dll
 0002:0000001c       __imp__RegCreateKeyExW@36  1001f01c     advapi32:ADVAPI32.dll
 0002:00000020       __imp__RegCloseKey@4       1001f020     advapi32:ADVAPI32.dll
 0002:00000024       \177ADVAPI32_NULL_THUNK_DATA 1001f024     advapi32:ADVAPI32.dll
 0002:00000028       __imp__GetObjectW@12       1001f028     gdi32:GDI32.dll
 0002:0000002c       __imp__SelectObject@8      1001f02c     gdi32:GDI32.dll
 0002:00000030       __imp__DeleteObject@4      1001f030     gdi32:GDI32.dll
 0002:00000034       __imp__CreateCompatibleDC@4 1001f034     gdi32:GDI32.dll
 0002:00000038       __imp__BitBlt@36           1001f038     gdi32:GDI32.dll
 0002:0000003c       __imp__SetWindowOrgEx@16   1001f03c     gdi32:GDI32.dll
 0002:00000040       __imp__SetWindowExtEx@16   1001f040     gdi32:GDI32.dll
 0002:00000044       __imp__SetViewportOrgEx@16 1001f044     gdi32:GDI32.dll
 0002:00000048       __imp__LPtoDP@12           1001f048     gdi32:GDI32.dll
 0002:0000004c       __imp__SetMapMode@8        1001f04c     gdi32:GDI32.dll
 0002:00000050       __imp__SaveDC@4            1001f050     gdi32:GDI32.dll
 0002:00000054       __imp__RestoreDC@8         1001f054     gdi32:GDI32.dll
 0002:00000058       __imp__GetDeviceCaps@8     1001f058     gdi32:GDI32.dll
 0002:0000005c       __imp__DeleteMetaFile@4    1001f05c     gdi32:GDI32.dll
 0002:00000060       __imp__DeleteDC@4          1001f060     gdi32:GDI32.dll
 0002:00000064       __imp__CreateRectRgnIndirect@4 1001f064     gdi32:GDI32.dll
 0002:00000068       __imp__CreateMetaFileW@4   1001f068     gdi32:GDI32.dll
 0002:0000006c       __imp__CreateDCW@16        1001f06c     gdi32:GDI32.dll
 0002:00000070       __imp__CloseMetaFile@4     1001f070     gdi32:GDI32.dll
 0002:00000074       \177GDI32_NULL_THUNK_DATA  1001f074     gdi32:GDI32.dll
 0002:00000078       __imp__CloseHandle@4       1001f078     kernel32:KERNEL32.dll
 0002:0000007c       __imp__SetEvent@4          1001f07c     kernel32:KERNEL32.dll
 0002:00000080       __imp__CreateMutexW@12     1001f080     kernel32:KERNEL32.dll
 0002:00000084       __imp__CreateEventW@16     1001f084     kernel32:KERNEL32.dll
 0002:00000088       __imp__GetCurrentProcessId@0 1001f088     kernel32:KERNEL32.dll
 0002:0000008c       __imp__WriteConsoleW@20    1001f08c     kernel32:KERNEL32.dll
 0002:00000090       __imp__FlushFileBuffers@4  1001f090     kernel32:KERNEL32.dll
 0002:00000094       __imp__SetFilePointerEx@20 1001f094     kernel32:KERNEL32.dll
 0002:00000098       __imp__GetConsoleMode@8    1001f098     kernel32:KERNEL32.dll
 0002:0000009c       __imp__GetConsoleCP@0      1001f09c     kernel32:KERNEL32.dll
 0002:000000a0       __imp__WriteFile@20        1001f0a0     kernel32:KERNEL32.dll
 0002:000000a4       __imp__SetStdHandle@8      1001f0a4     kernel32:KERNEL32.dll
 0002:000000a8       __imp__GetStringTypeW@16   1001f0a8     kernel32:KERNEL32.dll
 0002:000000ac       __imp__FreeEnvironmentStringsW@4 1001f0ac     kernel32:KERNEL32.dll
 0002:000000b0       __imp__GetEnvironmentStringsW@0 1001f0b0     kernel32:KERNEL32.dll
 0002:000000b4       __imp__FindResourceW@12    1001f0b4     kernel32:KERNEL32.dll
 0002:000000b8       __imp__GetCommandLineA@0   1001f0b8     kernel32:KERNEL32.dll
 0002:000000bc       __imp__GetCPInfo@8         1001f0bc     kernel32:KERNEL32.dll
 0002:000000c0       __imp__GetOEMCP@0          1001f0c0     kernel32:KERNEL32.dll
 0002:000000c4       __imp__IsValidCodePage@4   1001f0c4     kernel32:KERNEL32.dll
 0002:000000c8       __imp__FindNextFileA@8     1001f0c8     kernel32:KERNEL32.dll
 0002:000000cc       __imp__FindFirstFileExA@24 1001f0cc     kernel32:KERNEL32.dll
 0002:000000d0       __imp__FindClose@4         1001f0d0     kernel32:KERNEL32.dll
 0002:000000d4       __imp__GetFileType@4       1001f0d4     kernel32:KERNEL32.dll
 0002:000000d8       __imp__GetStdHandle@4      1001f0d8     kernel32:KERNEL32.dll
 0002:000000dc       __imp__GetACP@0            1001f0dc     kernel32:KERNEL32.dll
 0002:000000e0       __imp__LCMapStringW@24     1001f0e0     kernel32:KERNEL32.dll
 0002:000000e4       __imp__HeapReAlloc@16      1001f0e4     kernel32:KERNEL32.dll
 0002:000000e8       __imp__lstrcmpiW@8         1001f0e8     kernel32:KERNEL32.dll
 0002:000000ec       __imp__MulDiv@12           1001f0ec     kernel32:KERNEL32.dll
 0002:000000f0       __imp__GlobalUnlock@4      1001f0f0     kernel32:KERNEL32.dll
 0002:000000f4       __imp__GlobalLock@4        1001f0f4     kernel32:KERNEL32.dll
 0002:000000f8       __imp__GlobalAlloc@8       1001f0f8     kernel32:KERNEL32.dll
 0002:000000fc       __imp__SizeofResource@8    1001f0fc     kernel32:KERNEL32.dll
 0002:00000100       __imp__LoadResource@8      1001f100     kernel32:KERNEL32.dll
 0002:00000104       __imp__LoadLibraryExW@12   1001f104     kernel32:KERNEL32.dll
 0002:00000108       __imp__GetProcAddress@8    1001f108     kernel32:KERNEL32.dll
 0002:0000010c       __imp__GetModuleHandleW@4  1001f10c     kernel32:KERNEL32.dll
 0002:00000110       __imp__GetModuleFileNameW@12 1001f110     kernel32:KERNEL32.dll
 0002:00000114       __imp__FreeLibrary@4       1001f114     kernel32:KERNEL32.dll
 0002:00000118       __imp__DisableThreadLibraryCalls@4 1001f118     kernel32:KERNEL32.dll
 0002:0000011c       __imp__GetCurrentThreadId@0 1001f11c     kernel32:KERNEL32.dll
 0002:00000120       __imp__Sleep@4             1001f120     kernel32:KERNEL32.dll
 0002:00000124       __imp__WaitForSingleObject@8 1001f124     kernel32:KERNEL32.dll
 0002:00000128       __imp__ReleaseMutex@4      1001f128     kernel32:KERNEL32.dll
 0002:0000012c       __imp__ResetEvent@4        1001f12c     kernel32:KERNEL32.dll
 0002:00000130       __imp__EnterCriticalSection@4 1001f130     kernel32:KERNEL32.dll
 0002:00000134       __imp__LeaveCriticalSection@4 1001f134     kernel32:KERNEL32.dll
 0002:00000138       __imp__SetLastError@4      1001f138     kernel32:KERNEL32.dll
 0002:0000013c       __imp__EncodePointer@4     1001f13c     kernel32:KERNEL32.dll
 0002:00000140       __imp__DeleteCriticalSection@4 1001f140     kernel32:KERNEL32.dll
 0002:00000144       __imp__InitializeCriticalSectionEx@12 1001f144     kernel32:KERNEL32.dll
 0002:00000148       __imp__GetLastError@0      1001f148     kernel32:KERNEL32.dll
 0002:0000014c       __imp__RaiseException@16   1001f14c     kernel32:KERNEL32.dll
 0002:00000150       __imp__DecodePointer@4     1001f150     kernel32:KERNEL32.dll
 0002:00000154       __imp__WideCharToMultiByte@32 1001f154     kernel32:KERNEL32.dll
 0002:00000158       __imp__GetCommandLineW@0   1001f158     kernel32:KERNEL32.dll
 0002:0000015c       __imp__MultiByteToWideChar@24 1001f15c     kernel32:KERNEL32.dll
 0002:00000160       __imp__HeapSize@12         1001f160     kernel32:KERNEL32.dll
 0002:00000164       __imp__CreateFileW@28      1001f164     kernel32:KERNEL32.dll
 0002:00000168       __imp__GetModuleFileNameA@12 1001f168     kernel32:KERNEL32.dll
 0002:0000016c       __imp__GetModuleHandleExW@12 1001f16c     kernel32:KERNEL32.dll
 0002:00000170       __imp__ExitProcess@4       1001f170     kernel32:KERNEL32.dll
 0002:00000174       __imp__VirtualQuery@12     1001f174     kernel32:KERNEL32.dll
 0002:00000178       __imp__VirtualProtect@16   1001f178     kernel32:KERNEL32.dll
 0002:0000017c       __imp__GetSystemInfo@4     1001f17c     kernel32:KERNEL32.dll
 0002:00000180       __imp__TlsFree@4           1001f180     kernel32:KERNEL32.dll
 0002:00000184       __imp__TlsSetValue@8       1001f184     kernel32:KERNEL32.dll
 0002:00000188       __imp__TlsGetValue@4       1001f188     kernel32:KERNEL32.dll
 0002:0000018c       __imp__TlsAlloc@0          1001f18c     kernel32:KERNEL32.dll
 0002:00000190       __imp__InterlockedFlushSList@4 1001f190     kernel32:KERNEL32.dll
 0002:00000194       __imp__RtlUnwind@16        1001f194     kernel32:KERNEL32.dll
 0002:00000198       __imp__LoadLibraryExA@12   1001f198     kernel32:KERNEL32.dll
 0002:0000019c       __imp__VirtualFree@12      1001f19c     kernel32:KERNEL32.dll
 0002:000001a0       __imp__VirtualAlloc@16     1001f1a0     kernel32:KERNEL32.dll
 0002:000001a4       __imp__FlushInstructionCache@12 1001f1a4     kernel32:KERNEL32.dll
 0002:000001a8       __imp__InterlockedPushEntrySList@8 1001f1a8     kernel32:KERNEL32.dll
 0002:000001ac       __imp__InterlockedPopEntrySList@4 1001f1ac     kernel32:KERNEL32.dll
 0002:000001b0       __imp__GetProcessHeap@0    1001f1b0     kernel32:KERNEL32.dll
 0002:000001b4       __imp__HeapFree@12         1001f1b4     kernel32:KERNEL32.dll
 0002:000001b8       __imp__HeapAlloc@12        1001f1b8     kernel32:KERNEL32.dll
 0002:000001bc       __imp__OutputDebugStringW@4 1001f1bc     kernel32:KERNEL32.dll
 0002:000001c0       __imp__InitializeSListHead@4 1001f1c0     kernel32:KERNEL32.dll
 0002:000001c4       __imp__GetSystemTimeAsFileTime@4 1001f1c4     kernel32:KERNEL32.dll
 0002:000001c8       __imp__QueryPerformanceCounter@4 1001f1c8     kernel32:KERNEL32.dll
 0002:000001cc       __imp__GetStartupInfoW@4   1001f1cc     kernel32:KERNEL32.dll
 0002:000001d0       __imp__IsDebuggerPresent@0 1001f1d0     kernel32:KERNEL32.dll
 0002:000001d4       __imp__IsProcessorFeaturePresent@4 1001f1d4     kernel32:KERNEL32.dll
 0002:000001d8       __imp__TerminateProcess@8  1001f1d8     kernel32:KERNEL32.dll
 0002:000001dc       __imp__InitializeCriticalSectionAndSpinCount@8 1001f1dc     kernel32:KERNEL32.dll
 0002:000001e0       __imp__WaitForSingleObjectEx@12 1001f1e0     kernel32:KERNEL32.dll
 0002:000001e4       __imp__UnhandledExceptionFilter@4 1001f1e4     kernel32:KERNEL32.dll
 0002:000001e8       __imp__SetUnhandledExceptionFilter@4 1001f1e8     kernel32:KERNEL32.dll
 0002:000001ec       __imp__GetCurrentProcess@0 1001f1ec     kernel32:KERNEL32.dll
 0002:000001f0       \177KERNEL32_NULL_THUNK_DATA 1001f1f0     kernel32:KERNEL32.dll
 0002:000001f4       __imp__OleCreatePropertyFrame@44 1001f1f4     oleaut32:OLEAUT32.dll
 0002:000001f8       __imp__UnRegisterTypeLib@20 1001f1f8     oleaut32:OLEAUT32.dll
 0002:000001fc       __imp__RegisterTypeLib@12  1001f1fc     oleaut32:OLEAUT32.dll
 0002:00000200       __imp__LoadRegTypeLib@20   1001f200     oleaut32:OLEAUT32.dll
 0002:00000204       __imp__LoadTypeLib@8       1001f204     oleaut32:OLEAUT32.dll
 0002:00000208       __imp__VarUI4FromStr@16    1001f208     oleaut32:OLEAUT32.dll
 0002:0000020c       __imp__VariantInit@4       1001f20c     oleaut32:OLEAUT32.dll
 0002:00000210       __imp__SysAllocStringByteLen@8 1001f210     oleaut32:OLEAUT32.dll
 0002:00000214       __imp__SysStringByteLen@4  1001f214     oleaut32:OLEAUT32.dll
 0002:00000218       __imp__VariantChangeType@16 1001f218     oleaut32:OLEAUT32.dll
 0002:0000021c       __imp__VariantClear@4      1001f21c     oleaut32:OLEAUT32.dll
 0002:00000220       __imp__SysStringLen@4      1001f220     oleaut32:OLEAUT32.dll
 0002:00000224       __imp__SysFreeString@4     1001f224     oleaut32:OLEAUT32.dll
 0002:00000228       __imp__SysAllocStringLen@8 1001f228     oleaut32:OLEAUT32.dll
 0002:0000022c       __imp__SysAllocString@4    1001f22c     oleaut32:OLEAUT32.dll
 0002:00000230       \177OLEAUT32_NULL_THUNK_DATA 1001f230     oleaut32:OLEAUT32.dll
 0002:00000234       __imp__UnregisterClassW@8  1001f234     user32:USER32.dll
 0002:00000238       __imp__PostMessageW@16     1001f238     user32:USER32.dll
 0002:0000023c       __imp__DefWindowProcW@16   1001f23c     user32:USER32.dll
 0002:00000240       __imp__CallWindowProcW@20  1001f240     user32:USER32.dll
 0002:00000244       __imp__RegisterClassExW@4  1001f244     user32:USER32.dll
 0002:00000248       __imp__GetClassInfoExW@12  1001f248     user32:USER32.dll
 0002:0000024c       __imp__CreateWindowExW@48  1001f24c     user32:USER32.dll
 0002:00000250       __imp__IsWindow@4          1001f250     user32:USER32.dll
 0002:00000254       __imp__IsChild@8           1001f254     user32:USER32.dll
 0002:00000258       __imp__DestroyWindow@4     1001f258     user32:USER32.dll
 0002:0000025c       __imp__ShowWindow@8        1001f25c     user32:USER32.dll
 0002:00000260       __imp__SetWindowPos@28     1001f260     user32:USER32.dll
 0002:00000264       __imp__CharNextW@4         1001f264     user32:USER32.dll
 0002:00000268       __imp__SetFocus@4          1001f268     user32:USER32.dll
 0002:0000026c       __imp__LoadBitmapW@8       1001f26c     user32:USER32.dll
 0002:00000270       __imp__RegisterClassW@4    1001f270     user32:USER32.dll
 0002:00000274       __imp__PeekMessageW@20     1001f274     user32:USER32.dll
 0002:00000278       __imp__LoadCursorW@8       1001f278     user32:USER32.dll
 0002:0000027c       __imp__GetParent@4         1001f27c     user32:USER32.dll
 0002:00000280       __imp__SetWindowLongW@12   1001f280     user32:USER32.dll
 0002:00000284       __imp__GetWindowLongW@8    1001f284     user32:USER32.dll
 0002:00000288       __imp__PtInRect@12         1001f288     user32:USER32.dll
 0002:0000028c       __imp__EqualRect@8         1001f28c     user32:USER32.dll
 0002:00000290       __imp__OffsetRect@12       1001f290     user32:USER32.dll
 0002:00000294       __imp__UnionRect@12        1001f294     user32:USER32.dll
 0002:00000298       __imp__IntersectRect@12    1001f298     user32:USER32.dll
 0002:0000029c       __imp__GetClientRect@8     1001f29c     user32:USER32.dll
 0002:000002a0       __imp__InvalidateRect@12   1001f2a0     user32:USER32.dll
 0002:000002a4       __imp__SetWindowRgn@12     1001f2a4     user32:USER32.dll
 0002:000002a8       __imp__EndPaint@8          1001f2a8     user32:USER32.dll
 0002:000002ac       __imp__BeginPaint@8        1001f2ac     user32:USER32.dll
 0002:000002b0       __imp__ReleaseDC@8         1001f2b0     user32:USER32.dll
 0002:000002b4       __imp__GetDC@4             1001f2b4     user32:USER32.dll
 0002:000002b8       __imp__GetKeyState@4       1001f2b8     user32:USER32.dll
 0002:000002bc       __imp__GetFocus@0          1001f2bc     user32:USER32.dll
 0002:000002c0       \177USER32_NULL_THUNK_DATA 1001f2c0     user32:USER32.dll
 0002:000002c4       __imp__CoCreateInstance@20 1001f2c4     ole32:ole32.dll
 0002:000002c8       __imp__StringFromGUID2@12  1001f2c8     ole32:ole32.dll
 0002:000002cc       __imp__CoTaskMemRealloc@8  1001f2cc     ole32:ole32.dll
 0002:000002d0       __imp__CoTaskMemFree@4     1001f2d0     ole32:ole32.dll
 0002:000002d4       __imp__CreateDataAdviseHolder@4 1001f2d4     ole32:ole32.dll
 0002:000002d8       __imp__ReadClassStm@8      1001f2d8     ole32:ole32.dll
 0002:000002dc       __imp__WriteClassStm@8     1001f2dc     ole32:ole32.dll
 0002:000002e0       __imp__OleSaveToStream@8   1001f2e0     ole32:ole32.dll
 0002:000002e4       __imp__CreateOleAdviseHolder@4 1001f2e4     ole32:ole32.dll
 0002:000002e8       __imp__OleRegGetUserType@12 1001f2e8     ole32:ole32.dll
 0002:000002ec       __imp__OleRegGetMiscStatus@12 1001f2ec     ole32:ole32.dll
 0002:000002f0       __imp__OleRegEnumVerbs@8   1001f2f0     ole32:ole32.dll
 0002:000002f4       __imp__CLSIDFromProgID@8   1001f2f4     ole32:ole32.dll
 0002:000002f8       __imp__CoTaskMemAlloc@4    1001f2f8     ole32:ole32.dll
 0002:000002fc       \177ole32_NULL_THUNK_DATA  1001f2fc     ole32:ole32.dll
 0002:00000300       ___guard_check_icall_fptr  1001f300     LIBCMT:guard_support.obj
 0002:00000304       ___xc_a                    1001f304     LIBCMT:initializers.obj
 0002:0000031c       ___xc_z                    1001f31c     LIBCMT:initializers.obj
 0002:00000320       ___xi_a                    1001f320     LIBCMT:initializers.obj
 0002:00000328       ___acrt_stdio_initializer  1001f328     libucrt:stdio_initializer.obj
 0002:0000032c       ___acrt_multibyte_initializer 1001f32c     libucrt:multibyte_initializer.obj
 0002:00000330       ___acrt_tran_sse2_initializer 1001f330     libucrt:sse2_initializer.obj
 0002:00000334       ___xi_z                    1001f334     LIBCMT:initializers.obj
 0002:00000338       ___xl_a                    1001f338     LIBCMT:tlssup.obj
 0002:0000033c       ___xl_z                    1001f33c     LIBCMT:tlssup.obj
 0002:00000340       ___xp_a                    1001f340     LIBCMT:initializers.obj
 0002:00000344       ___acrt_locale_terminator  1001f344     libucrt:locale_initializer.obj
 0002:00000348       ___dcrt_console_output_terminator 1001f348     libucrt:console_output_initializer.obj
 0002:0000034c       ___acrt_stdio_terminator   1001f34c     libucrt:stdio_initializer.obj
 0002:00000350       ___xp_z                    1001f350     LIBCMT:initializers.obj
 0002:00000354       ___xt_a                    1001f354     LIBCMT:initializers.obj
 0002:00000358       ___xt_z                    1001f358     LIBCMT:initializers.obj
 0002:00000360       ??_C@_13HADIAKP@?$AAS@     1001f360     OposVariant.obj
 0002:00000364       ??_C@_13LHMFKAAD@?$AAM@    1001f364     OposVariant.obj
 0002:00000368       ??_C@_13MKMNOPIJ@?$AAD@    1001f368     OposVariant.obj
 0002:0000036c       ??_C@_13OPKGLAFF@?$AAB@    1001f36c     OposVariant.obj
 0002:00000370       ??_C@_17LLMMEOJD@?$AAV?$AAa?$AAl@ 1001f370     OposVariant.obj
 0002:00000378       ??_C@_1BI@JFAIJMHL@?$AAF?$AAo?$AAr?$AAc?$AAe?$AAR?$AAe?$AAm?$AAo?$AAv?$AAe@ 1001f378     OposVariant.obj
 0002:00000390       ??_C@_1BC@GCKHIPE@?$AAN?$AAo?$AAR?$AAe?$AAm?$AAo?$AAv?$AAe@ 1001f390     OposVariant.obj
 0002:000003a4       ??_C@_1O@JDLOHAN@?$AAD?$AAe?$AAl?$AAe?$AAt?$AAe@ 1001f3a4     OposVariant.obj
 0002:000003b4       ??_C@_11LOCGONAA@@         1001f3b4     OposVariant.obj
 0002:000003b8       __GUID_b196b284_bab4_101a_b69c_00aa00341d07 1001f3b8     RemoteOrderDisplay.obj
 0002:000003c8       __GUID_00000113_0000_0000_c000_000000000046 1001f3c8     RemoteOrderDisplay.obj
 0002:000003d8       __GUID_1c2056cc_5ef4_101b_8bc8_00aa003e3b29 1001f3d8     RemoteOrderDisplay.obj
 0002:000003e8       __GUID_00000112_0000_0000_c000_000000000046 1001f3e8     RemoteOrderDisplay.obj
 0002:000003f8       __GUID_3af24292_0c96_11ce_a0cf_00aa00600ab8 1001f3f8     RemoteOrderDisplay.obj
 0002:00000408       __GUID_00000127_0000_0000_c000_000000000046 1001f408     RemoteOrderDisplay.obj
 0002:00000418       __GUID_0000010d_0000_0000_c000_000000000046 1001f418     RemoteOrderDisplay.obj
 0002:00000428       ??_7?$CComObjectCached@VCComClassFactory@ATL@@@ATL@@6B@ 1001f428     RemoteOrderDisplay.obj
 0002:00000440       ??_C@_1M@PPPPCDEP@?$AAA?$AAP?$AAP?$AAI?$AAD@ 1001f440     RemoteOrderDisplay.obj
 0002:0000044c       ??_7?$CComContainedObject@VCOPOSRemoteOrderDisplay@@@ATL@@6B?$IDispatchImpl@UIOPOSRemoteOrderDisplay@@$1?IID_IOPOSRemoteOrderDisplay@@3U_GUID@@B$1?LIBID_OposRemoteOrderDisplay_CCO@@3U3@B$00$0A@VCComTypeInfoHolder@ATL@@@1@@ 1001f44c     RemoteOrderDisplay.obj
 0002:000005f8       ??_7?$CComContainedObject@VCOPOSRemoteOrderDisplay@@@ATL@@6BCComControlBase@1@@ 1001f5f8     RemoteOrderDisplay.obj
 0002:0000060c       ??_7?$CComContainedObject@VCOPOSRemoteOrderDisplay@@@ATL@@6B?$CWindowImpl@VCOPOSRemoteOrderDisplay@@VCWindow@ATL@@V?$CWinTraits@$0FGAAAAAA@$0A@@3@@1@@ 1001f60c     RemoteOrderDisplay.obj
 0002:0000061c       ??_7?$CComContainedObject@VCOPOSRemoteOrderDisplay@@@ATL@@6B?$IPersistStreamInitImpl@VCOPOSRemoteOrderDisplay@@@1@@ 1001f61c     RemoteOrderDisplay.obj
 0002:00000640       ??_7?$CComContainedObject@VCOPOSRemoteOrderDisplay@@@ATL@@6B?$IOleControlImpl@VCOPOSRemoteOrderDisplay@@@1@@ 1001f640     RemoteOrderDisplay.obj
 0002:0000065c       ??_7?$CComContainedObject@VCOPOSRemoteOrderDisplay@@@ATL@@6B?$IOleObjectImpl@VCOPOSRemoteOrderDisplay@@@1@@ 1001f65c     RemoteOrderDisplay.obj
 0002:000006bc       ??_7?$CComContainedObject@VCOPOSRemoteOrderDisplay@@@ATL@@6B?$IOleInPlaceActiveObjectImpl@VCOPOSRemoteOrderDisplay@@@1@@ 1001f6bc     RemoteOrderDisplay.obj
 0002:000006e4       ??_7?$CComContainedObject@VCOPOSRemoteOrderDisplay@@@ATL@@6B?$IViewObjectExImpl@VCOPOSRemoteOrderDisplay@@@1@@ 1001f6e4     RemoteOrderDisplay.obj
 0002:00000720       ??_7?$CComContainedObject@VCOPOSRemoteOrderDisplay@@@ATL@@6B?$IOleInPlaceObjectWindowlessImpl@VCOPOSRemoteOrderDisplay@@@1@@ 1001f720     RemoteOrderDisplay.obj
 0002:0000074c       ??_7?$CComContainedObject@VCOPOSRemoteOrderDisplay@@@ATL@@6B?$IConnectionPointContainerImpl@VCOPOSRemoteOrderDisplay@@@1@@ 1001f74c     RemoteOrderDisplay.obj
 0002:00000760       ??_7?$CComContainedObject@VCOPOSRemoteOrderDisplay@@@ATL@@6B?$IPersistStorageImpl@VCOPOSRemoteOrderDisplay@@@1@@ 1001f760     RemoteOrderDisplay.obj
 0002:00000788       ??_7?$CComContainedObject@VCOPOSRemoteOrderDisplay@@@ATL@@6B?$ISpecifyPropertyPagesImpl@VCOPOSRemoteOrderDisplay@@@1@@ 1001f788     RemoteOrderDisplay.obj
 0002:00000798       ??_7?$CComContainedObject@VCOPOSRemoteOrderDisplay@@@ATL@@6B?$IQuickActivateImpl@VCOPOSRemoteOrderDisplay@@@1@@ 1001f798     RemoteOrderDisplay.obj
 0002:000007b0       ??_7?$CComContainedObject@VCOPOSRemoteOrderDisplay@@@ATL@@6B?$IDataObjectImpl@VCOPOSRemoteOrderDisplay@@@1@@ 1001f7b0     RemoteOrderDisplay.obj
 0002:000007e0       ??_7?$CComContainedObject@VCOPOSRemoteOrderDisplay@@@ATL@@6B?$IProvideClassInfo2Impl@$1?CLSID_OPOSRemoteOrderDisplay@@3U_GUID@@B$1?DIID__IOPOSRemoteOrderDisplayEvents@@3U2@B$1?LIBID_OposRemoteOrderDisplay_CCO@@3U2@B$00$0A@VCComTypeInfoHolder@ATL@@@1@@ 1001f7e0     RemoteOrderDisplay.obj
 0002:000007f4       ??_7?$CComContainedObject@VCOPOSRemoteOrderDisplay@@@ATL@@6B?$IObjectSafetyImpl@VCOPOSRemoteOrderDisplay@@$02@1@@ 1001f7f4     RemoteOrderDisplay.obj
 0002:0000080c       ??_7?$CComContainedObject@VCOPOSRemoteOrderDisplay@@@ATL@@6B?$IPropertyNotifySinkCP@VCOPOSRemoteOrderDisplay@@VCComDynamicUnkArray@ATL@@@1@@ 1001f80c     RemoteOrderDisplay.obj
 0002:0000082c       ??_7?$CComContainedObject@VCOPOSRemoteOrderDisplay@@@ATL@@6B?$CProxy_IOPOSEvents@VCOPOSRemoteOrderDisplay@@@@@ 1001f82c     RemoteOrderDisplay.obj
 0002:0000084c       ??_7?$CComAggObject@VCOPOSRemoteOrderDisplay@@@ATL@@6B@ 1001f84c     RemoteOrderDisplay.obj
 0002:0000085c       ??_7?$CComObject@VCOPOSRemoteOrderDisplay@@@ATL@@6B?$IDispatchImpl@UIOPOSRemoteOrderDisplay@@$1?IID_IOPOSRemoteOrderDisplay@@3U_GUID@@B$1?LIBID_OposRemoteOrderDisplay_CCO@@3U3@B$00$0A@VCComTypeInfoHolder@ATL@@@1@@ 1001f85c     RemoteOrderDisplay.obj
 0002:00000a08       ??_7?$CComObject@VCOPOSRemoteOrderDisplay@@@ATL@@6BCComControlBase@1@@ 1001fa08     RemoteOrderDisplay.obj
 0002:00000a1c       ??_7?$CComObject@VCOPOSRemoteOrderDisplay@@@ATL@@6B?$CWindowImpl@VCOPOSRemoteOrderDisplay@@VCWindow@ATL@@V?$CWinTraits@$0FGAAAAAA@$0A@@3@@1@@ 1001fa1c     RemoteOrderDisplay.obj
 0002:00000a2c       ??_7?$CComObject@VCOPOSRemoteOrderDisplay@@@ATL@@6B?$IPersistStreamInitImpl@VCOPOSRemoteOrderDisplay@@@1@@ 1001fa2c     RemoteOrderDisplay.obj
 0002:00000a50       ??_7?$CComObject@VCOPOSRemoteOrderDisplay@@@ATL@@6B?$IOleControlImpl@VCOPOSRemoteOrderDisplay@@@1@@ 1001fa50     RemoteOrderDisplay.obj
 0002:00000a6c       ??_7?$CComObject@VCOPOSRemoteOrderDisplay@@@ATL@@6B?$IOleObjectImpl@VCOPOSRemoteOrderDisplay@@@1@@ 1001fa6c     RemoteOrderDisplay.obj
 0002:00000acc       ??_7?$CComObject@VCOPOSRemoteOrderDisplay@@@ATL@@6B?$IOleInPlaceActiveObjectImpl@VCOPOSRemoteOrderDisplay@@@1@@ 1001facc     RemoteOrderDisplay.obj
 0002:00000af4       ??_7?$CComObject@VCOPOSRemoteOrderDisplay@@@ATL@@6B?$IViewObjectExImpl@VCOPOSRemoteOrderDisplay@@@1@@ 1001faf4     RemoteOrderDisplay.obj
 0002:00000b30       ??_7?$CComObject@VCOPOSRemoteOrderDisplay@@@ATL@@6B?$IOleInPlaceObjectWindowlessImpl@VCOPOSRemoteOrderDisplay@@@1@@ 1001fb30     RemoteOrderDisplay.obj
 0002:00000b5c       ??_7?$CComObject@VCOPOSRemoteOrderDisplay@@@ATL@@6B?$IConnectionPointContainerImpl@VCOPOSRemoteOrderDisplay@@@1@@ 1001fb5c     RemoteOrderDisplay.obj
 0002:00000b70       ??_7?$CComObject@VCOPOSRemoteOrderDisplay@@@ATL@@6B?$IPersistStorageImpl@VCOPOSRemoteOrderDisplay@@@1@@ 1001fb70     RemoteOrderDisplay.obj
 0002:00000b98       ??_7?$CComObject@VCOPOSRemoteOrderDisplay@@@ATL@@6B?$ISpecifyPropertyPagesImpl@VCOPOSRemoteOrderDisplay@@@1@@ 1001fb98     RemoteOrderDisplay.obj
 0002:00000ba8       ??_7?$CComObject@VCOPOSRemoteOrderDisplay@@@ATL@@6B?$IQuickActivateImpl@VCOPOSRemoteOrderDisplay@@@1@@ 1001fba8     RemoteOrderDisplay.obj
 0002:00000bc0       ??_7?$CComObject@VCOPOSRemoteOrderDisplay@@@ATL@@6B?$IDataObjectImpl@VCOPOSRemoteOrderDisplay@@@1@@ 1001fbc0     RemoteOrderDisplay.obj
 0002:00000bf0       ??_7?$CComObject@VCOPOSRemoteOrderDisplay@@@ATL@@6B?$IProvideClassInfo2Impl@$1?CLSID_OPOSRemoteOrderDisplay@@3U_GUID@@B$1?DIID__IOPOSRemoteOrderDisplayEvents@@3U2@B$1?LIBID_OposRemoteOrderDisplay_CCO@@3U2@B$00$0A@VCComTypeInfoHolder@ATL@@@1@@ 1001fbf0     RemoteOrderDisplay.obj
 0002:00000c04       ??_7?$CComObject@VCOPOSRemoteOrderDisplay@@@ATL@@6B?$IObjectSafetyImpl@VCOPOSRemoteOrderDisplay@@$02@1@@ 1001fc04     RemoteOrderDisplay.obj
 0002:00000c1c       ??_7?$CComObject@VCOPOSRemoteOrderDisplay@@@ATL@@6B?$IPropertyNotifySinkCP@VCOPOSRemoteOrderDisplay@@VCComDynamicUnkArray@ATL@@@1@@ 1001fc1c     RemoteOrderDisplay.obj
 0002:00000c3c       ??_7?$CComObject@VCOPOSRemoteOrderDisplay@@@ATL@@6B?$CProxy_IOPOSEvents@VCOPOSRemoteOrderDisplay@@@@@ 1001fc3c     RemoteOrderDisplay.obj
 0002:00000c5c       ??_C@_1O@GBFKGNEO@?$AAA?$AAT?$AAL?$AA?3?$AA?$CF?$AAp@ 1001fc5c     RemoteOrderDisplay.obj
 0002:00000c6c       ??_C@_1BA@PICGEGJB@?$AAD?$AAI?$AAS?$AAP?$AAL?$AAA?$AAY@ 1001fc6c     RemoteOrderDisplay.obj
 0002:00000c7c       __GUID_9bfbbc02_eff1_101a_84ed_00aa00341d07 1001fc7c     RemoteOrderDisplay.obj
 0002:00000c8c       ??_7CComClassFactory@ATL@@6B@ 1001fc8c     RemoteOrderDisplay.obj
 0002:00000ca4       ?_entries@?1??_GetEntries@CComClassFactory@ATL@@SGPBU_ATL_INTMAP_ENTRY@3@XZ@4QBU43@B 1001fca4     RemoteOrderDisplay.obj
 0002:00000cbc       __GUID_00000001_0000_0000_c000_000000000046 1001fcbc     RemoteOrderDisplay.obj
 0002:00000ccc       ?_entries@?1??_GetEntries@?$CComEnum@UIEnumConnectionPoints@@$1?_GUID_b196b285_bab4_101a_b69c_00aa00341d07@@3U__s_GUID@@BPAUIConnectionPoint@@V?$_CopyInterface@UIConnectionPoint@@@ATL@@VCComSingleThreadModel@6@@ATL@@SGPBU_ATL_INTMAP_ENTRY@3@XZ@4QBU43@B 1001fccc     RemoteOrderDisplay.obj
 0002:00000ce4       __GUID_00020412_0000_0000_c000_000000000046 1001fce4     RemoteOrderDisplay.obj
 0002:00000cf4       __GUID_00020401_0000_0000_c000_000000000046 1001fcf4     RemoteOrderDisplay.obj
 0002:00000d04       __GUID_55980ba0_35aa_11cf_b671_00aa004cd6d8 1001fd04     RemoteOrderDisplay.obj
 0002:00000d14       __GUID_b196b28b_bab4_101a_b69c_00aa00341d07 1001fd14     RemoteOrderDisplay.obj
 0002:00000d24       ??_C@_1BK@BIGILECK@?$AAA?$AAd?$AAv?$AAa?$AAp?$AAi?$AA3?$AA2?$AA?4?$AAd?$AAl?$AAl@ 1001fd24     RemoteOrderDisplay.obj
 0002:00000d40       ??_C@_0BI@MNCFCPFK@RegCreateKeyTransactedW@ 1001fd40     RemoteOrderDisplay.obj
 0002:00000d58       ??_7?$CComObject@V?$CComEnum@UIEnumConnections@@$1?_GUID_b196b287_bab4_101a_b69c_00aa00341d07@@3U__s_GUID@@BUtagCONNECTDATA@@V?$_Copy@UtagCONNECTDATA@@@ATL@@VCComSingleThreadModel@6@@ATL@@@ATL@@6B@ 1001fd58     RemoteOrderDisplay.obj
 0002:00000d78       __GUID_b196b287_bab4_101a_b69c_00aa00341d07 1001fd78     RemoteOrderDisplay.obj
 0002:00000d88       __GUID_b196b285_bab4_101a_b69c_00aa00341d07 1001fd88     RemoteOrderDisplay.obj
 0002:00000d98       ?_entries@?1??_GetEntries@?$CComEnum@UIEnumConnections@@$1?_GUID_b196b287_bab4_101a_b69c_00aa00341d07@@3U__s_GUID@@BUtagCONNECTDATA@@V?$_Copy@UtagCONNECTDATA@@@ATL@@VCComSingleThreadModel@6@@ATL@@SGPBU_ATL_INTMAP_ENTRY@3@XZ@4QBU43@B 1001fd98     RemoteOrderDisplay.obj
 0002:00000db0       __GUID_a6bc3ac0_dbaa_11ce_9de3_00aa004bb851 1001fdb0     RemoteOrderDisplay.obj
 0002:00000dc0       __GUID_0000010c_0000_0000_c000_000000000046 1001fdc0     RemoteOrderDisplay.obj
 0002:00000dd0       __GUID_00000146_0000_0000_c000_000000000046 1001fdd0     RemoteOrderDisplay.obj
 0002:00000de0       ??_7CComModule@ATL@@6B@    1001fde0     RemoteOrderDisplay.obj
 0002:00000e08       _IID_IOPOSRemoteOrderDisplay_1_5 1001fe08     RemoteOrderDisplay.obj
 0002:00000e18       _IID_IOPOSRemoteOrderDisplay_1_7 1001fe18     RemoteOrderDisplay.obj
 0002:00000e28       _IID_IOPOSRemoteOrderDisplay_1_8 1001fe28     RemoteOrderDisplay.obj
 0002:00000e38       _IID_IOPOSRemoteOrderDisplay_1_9 1001fe38     RemoteOrderDisplay.obj
 0002:00000e48       _IID_IOPOSRemoteOrderDisplay 1001fe48     RemoteOrderDisplay.obj
 0002:00000e58       _LIBID_OposRemoteOrderDisplay_CCO 1001fe58     RemoteOrderDisplay.obj
 0002:00000e68       _DIID__IOPOSRemoteOrderDisplayEvents 1001fe68     RemoteOrderDisplay.obj
 0002:00000e78       _CLSID_OPOSRemoteOrderDisplay 1001fe78     RemoteOrderDisplay.obj
 0002:00000e88       __GUID_00000000_0000_0000_c000_000000000046 1001fe88     RemoteOrderDisplay.obj
 0002:00000e98       __GUID_00020400_0000_0000_c000_000000000046 1001fe98     RemoteOrderDisplay.obj
 0002:00000ea8       __GUID_00000114_0000_0000_c000_000000000046 1001fea8     RemoteOrderDisplay.obj
 0002:00000eb8       ??_C@_1M@KANJNLFF@?$AAC?$AAL?$AAS?$AAI?$AAD@ 1001feb8     RemoteOrderDisplay.obj
 0002:00000ec4       ??_C@_1M@EJNEECMJ@?$AAA?$AAp?$AAp?$AAI?$AAD@ 1001fec4     RemoteOrderDisplay.obj
 0002:00000ed0       ?rgszNeverDelete@CRegParser@ATL@@1QBQB_WB 1001fed0     RemoteOrderDisplay.obj
 0002:00000f00       ??_7CRegObject@ATL@@6B@    1001ff00     RemoteOrderDisplay.obj
 0002:00000f18       ??_C@_1CK@OEKPKBNA@?$AAC?$AAo?$AAm?$AAp?$AAo?$AAn?$AAe?$AAn?$AAt?$AA?5?$AAC?$AAa?$AAt?$AAe?$AAg@ 1001ff18     RemoteOrderDisplay.obj
 0002:00000f44       ??_C@_1BC@NKMMNMGL@?$AAF?$AAi?$AAl?$AAe?$AAT?$AAy?$AAp?$AAe@ 1001ff44     RemoteOrderDisplay.obj
 0002:00000f58       ??_C@_1BE@EKPAFMCP@?$AAI?$AAn?$AAt?$AAe?$AAr?$AAf?$AAa?$AAc?$AAe@ 1001ff58     RemoteOrderDisplay.obj
 0002:00000f6c       ??_C@_1BC@MAICEHGI@?$AAH?$AAa?$AAr?$AAd?$AAw?$AAa?$AAr?$AAe@ 1001ff6c     RemoteOrderDisplay.obj
 0002:00000f80       ??_C@_19HLLLM@?$AAM?$AAi?$AAm?$AAe@ 1001ff80     RemoteOrderDisplay.obj
 0002:00000f8c       ??_C@_17OMAOINJK@?$AAS?$AAA?$AAM@ 1001ff8c     RemoteOrderDisplay.obj
 0002:00000f94       ??_C@_1BC@IBECJAAI@?$AAS?$AAE?$AAC?$AAU?$AAR?$AAI?$AAT?$AAY@ 1001ff94     RemoteOrderDisplay.obj
 0002:00000fa8       ??_C@_1O@GBFINDKL@?$AAS?$AAY?$AAS?$AAT?$AAE?$AAM@ 1001ffa8     RemoteOrderDisplay.obj
 0002:00000fb8       ??_C@_1BC@EAHCMADO@?$AAS?$AAo?$AAf?$AAt?$AAw?$AAa?$AAr?$AAe@ 1001ffb8     RemoteOrderDisplay.obj
 0002:00000fcc       ??_C@_1BA@JIHHIEDE@?$AAT?$AAy?$AAp?$AAe?$AAL?$AAi?$AAb@ 1001ffcc     RemoteOrderDisplay.obj
 0002:00000fe0       ?map@?1??HKeyFromString@CRegParser@ATL@@KAPAUHKEY__@@PA_W@Z@4QBUkeymap@?1??123@KAPAU4@0@Z@B 1001ffe0     RemoteOrderDisplay.obj
 0002:00001050       ??_C@_19NCHLBIN@?$AAH?$AAK?$AAC?$AAR@ 10020050     RemoteOrderDisplay.obj
 0002:0000105c       ??_C@_19JAPAIJDE@?$AAH?$AAK?$AAC?$AAU@ 1002005c     RemoteOrderDisplay.obj
 0002:00001068       ??_C@_19PEALEEJB@?$AAH?$AAK?$AAL?$AAM@ 10020068     RemoteOrderDisplay.obj
 0002:00001074       ??_C@_17PJOJPMPB@?$AAH?$AAK?$AAU@ 10020074     RemoteOrderDisplay.obj
 0002:0000107c       ??_C@_19PNBHMJPL@?$AAH?$AAK?$AAP?$AAD@ 1002007c     RemoteOrderDisplay.obj
 0002:00001088       ??_C@_19GFFAIJHG@?$AAH?$AAK?$AAD?$AAD@ 10020088     RemoteOrderDisplay.obj
 0002:00001094       ??_C@_19OFICIBHH@?$AAH?$AAK?$AAC?$AAC@ 10020094     RemoteOrderDisplay.obj
 0002:000010a0       ??_C@_1CE@PACHPJFI@?$AAH?$AAK?$AAE?$AAY?$AA_?$AAC?$AAL?$AAA?$AAS?$AAS?$AAE?$AAS?$AA_?$AAR?$AAO@ 100200a0     RemoteOrderDisplay.obj
 0002:000010c4       ??_C@_1CE@HLHNCBPM@?$AAH?$AAK?$AAE?$AAY?$AA_?$AAC?$AAU?$AAR?$AAR?$AAE?$AAN?$AAT?$AA_?$AAU?$AAS@ 100200c4     RemoteOrderDisplay.obj
 0002:000010e8       ??_C@_1CG@GFBEANJL@?$AAH?$AAK?$AAE?$AAY?$AA_?$AAL?$AAO?$AAC?$AAA?$AAL?$AA_?$AAM?$AAA?$AAC?$AAH@ 100200e8     RemoteOrderDisplay.obj
 0002:00001110       ??_C@_1BG@BGODANIO@?$AAH?$AAK?$AAE?$AAY?$AA_?$AAU?$AAS?$AAE?$AAR?$AAS@ 10020110     RemoteOrderDisplay.obj
 0002:00001128       ??_C@_1CM@KHNNAOIC@?$AAH?$AAK?$AAE?$AAY?$AA_?$AAP?$AAE?$AAR?$AAF?$AAO?$AAR?$AAM?$AAA?$AAN?$AAC@ 10020128     RemoteOrderDisplay.obj
 0002:00001154       ??_C@_1BM@HAGMMHIA@?$AAH?$AAK?$AAE?$AAY?$AA_?$AAD?$AAY?$AAN?$AA_?$AAD?$AAA?$AAT?$AAA@ 10020154     RemoteOrderDisplay.obj
 0002:00001170       ??_C@_1CI@BBJOACGG@?$AAH?$AAK?$AAE?$AAY?$AA_?$AAC?$AAU?$AAR?$AAR?$AAE?$AAN?$AAT?$AA_?$AAC?$AAO@ 10020170     RemoteOrderDisplay.obj
 0002:00001198       __GUID_00000109_0000_0000_c000_000000000046 10020198     RemoteOrderDisplay.obj
 0002:000011a8       __GUID_7fd52380_4e07_101b_ae2d_08002b2ec713 100201a8     RemoteOrderDisplay.obj
 0002:000011b8       ?_entries@?1??_GetEntries@COPOSRemoteOrderDisplay@@SGPBU_ATL_INTMAP_ENTRY@ATL@@XZ@4QBU34@B 100201b8     RemoteOrderDisplay.obj
 0002:000012fc       __GUID_922eada0_3424_11cf_b670_00aa004cd6d8 100202fc     RemoteOrderDisplay.obj
 0002:0000130c       __GUID_9c2cad80_3424_11cf_b670_00aa004cd6d8 1002030c     RemoteOrderDisplay.obj
 0002:0000131c       __GUID_00000119_0000_0000_c000_000000000046 1002031c     RemoteOrderDisplay.obj
 0002:0000132c       __GUID_b196b289_bab4_101a_b69c_00aa00341d07 1002032c     RemoteOrderDisplay.obj
 0002:00001340       ??_C@_1EA@NHKLICFA@?$AAH?$AAK?$AAC?$AAU?$AA?$AN?$AA?6?$AA?$HL?$AA?7?$AAS?$AAo?$AAf?$AAt?$AAw?$AAa?$AAr@ 10020340     RemoteOrderDisplay.obj
 0002:00001380       ??_C@_1BE@LJOLIMEM@?$AA?$AN?$AA?6?$AA?7?$AA?$HN?$AA?$AN?$AA?6?$AA?$HN?$AA?$AN?$AA?6@ 10020380     RemoteOrderDisplay.obj
 0002:00001394       __GUID_cf51ed10_62fe_11cf_bf86_00a0c9034836 10020394     RemoteOrderDisplay.obj
 0002:000013a4       __GUID_0000010a_0000_0000_c000_000000000046 100203a4     RemoteOrderDisplay.obj
 0002:000013b4       __GUID_b196b283_bab4_101a_b69c_00aa00341d07 100203b4     RemoteOrderDisplay.obj
 0002:000013c4       __GUID_cb5bdc81_93c1_11cf_8f20_00805f2cd064 100203c4     RemoteOrderDisplay.obj
 0002:000013d8       ?pPropMap@?1??GetPropertyMap@COPOSRemoteOrderDisplay@@SAPBUATL_PROPMAP_ENTRY@ATL@@XZ@4QBU34@B 100203d8     RemoteOrderDisplay.obj
 0002:00001444       ??_C@_17DGDADEHL@?$AA_?$AAc?$AAx@ 10020444     RemoteOrderDisplay.obj
 0002:0000144c       ??_C@_17IOIMFDBO@?$AA_?$AAc?$AAy@ 1002044c     RemoteOrderDisplay.obj
 0002:00001454       __GUID_00000117_0000_0000_c000_000000000046 10020454     RemoteOrderDisplay.obj
 0002:00001464       ??_C@_1O@MNLDABAF@?$AAM?$AAo?$AAd?$AAu?$AAl?$AAe@ 10020464     RemoteOrderDisplay.obj
 0002:00001474       ??_C@_1BG@JBACFMF@?$AAM?$AAo?$AAd?$AAu?$AAl?$AAe?$AA_?$AAR?$AAa?$AAw@ 10020474     RemoteOrderDisplay.obj
 0002:0000148c       ??_C@_1BC@KAILKFFG@?$AAR?$AAE?$AAG?$AAI?$AAS?$AAT?$AAR?$AAY@ 1002048c     RemoteOrderDisplay.obj
 0002:000014a0       __GUID_b196b286_bab4_101a_b69c_00aa00341d07 100204a0     RemoteOrderDisplay.obj
 0002:000014b0       ??_C@_1CE@PGFMOFKI@?$AAS?$AAt?$AAa?$AAt?$AAu?$AAs?$AAU?$AAp?$AAd?$AAa?$AAt?$AAe?$AAE?$AAv?$AAe@ 100204b0     RemoteOrderDisplay.obj
 0002:000014d4       ??_C@_1CI@HLBJDONE@?$AAO?$AAu?$AAt?$AAp?$AAu?$AAt?$AAC?$AAo?$AAm?$AAp?$AAl?$AAe?$AAt?$AAe?$AAE@ 100204d4     RemoteOrderDisplay.obj
 0002:000014fc       ??_C@_1BG@LODEBHDD@?$AAE?$AAr?$AAr?$AAo?$AAr?$AAE?$AAv?$AAe?$AAn?$AAt@ 100204fc     RemoteOrderDisplay.obj
 0002:00001514       ??_C@_1BM@CBGEBBBJ@?$AAD?$AAi?$AAr?$AAe?$AAc?$AAt?$AAI?$AAO?$AAE?$AAv?$AAe?$AAn?$AAt@ 10020514     RemoteOrderDisplay.obj
 0002:00001530       ??_C@_1BE@IEBMACEM@?$AAD?$AAa?$AAt?$AAa?$AAE?$AAv?$AAe?$AAn?$AAt@ 10020530     RemoteOrderDisplay.obj
 0002:00001544       ??_C@_1BC@ENICKDH@?$AAC?$AAo?$AAn?$AAt?$AAe?$AAn?$AAt?$AAs@ 10020544     RemoteOrderDisplay.obj
 0002:00001558       ??_7?$CComObject@V?$CComEnum@UIEnumConnectionPoints@@$1?_GUID_b196b285_bab4_101a_b69c_00aa00341d07@@3U__s_GUID@@BPAUIConnectionPoint@@V?$_CopyInterface@UIConnectionPoint@@@ATL@@VCComSingleThreadModel@6@@ATL@@@ATL@@6B@ 10020558     RemoteOrderDisplay.obj
 0002:00001578       __GUID_0000010e_0000_0000_c000_000000000046 10020578     RemoteOrderDisplay.obj
 0002:00001588       __GUID_b196b288_bab4_101a_b69c_00aa00341d07 10020588     RemoteOrderDisplay.obj
 0002:00001598       ??_C@_0BG@EKFFMJIO@RegOpenKeyTransactedW@ 10020598     RemoteOrderDisplay.obj
 0002:000015b0       ??_C@_0BI@HAKLOOGP@RegDeleteKeyTransactedW@ 100205b0     RemoteOrderDisplay.obj
 0002:000015c8       ??_C@_0BA@LILAPHGE@RegDeleteKeyExW@ 100205c8     RemoteOrderDisplay.obj
 0002:000015d8       ??_C@_19ILOCMLCJ@?$AA?4?$AAt?$AAl?$AAb@ 100205d8     RemoteOrderDisplay.obj
 0002:000015e4       __GUID_0002e012_0000_0000_c000_000000000046 100205e4     RemoteOrderDisplay.obj
 0002:000015f4       ??_C@_1O@FHBGLCIO@?$AAC?$AAL?$AAS?$AAI?$AAD?$AA?2@ 100205f4     RemoteOrderDisplay.obj
 0002:00001604       ??_C@_1CK@IFBKBFAA@?$AA?2?$AAR?$AAe?$AAq?$AAu?$AAi?$AAr?$AAe?$AAd?$AA?5?$AAC?$AAa?$AAt?$AAe?$AAg@ 10020604     RemoteOrderDisplay.obj
 0002:00001630       ??_C@_1DA@BIHALFED@?$AA?2?$AAI?$AAm?$AAp?$AAl?$AAe?$AAm?$AAe?$AAn?$AAt?$AAe?$AAd?$AA?5?$AAC?$AAa@ 10020630     RemoteOrderDisplay.obj
 0002:00001660       ??_C@_1BK@EDKOLFBJ@?$AAO?$AAL?$AAE?$AAA?$AAU?$AAT?$AA3?$AA2?$AA?4?$AAD?$AAL?$AAL@ 10020660     RemoteOrderDisplay.obj
 0002:0000167c       ??_C@_0BJ@CNLFOMHB@UnRegisterTypeLibForUser@ 1002067c     RemoteOrderDisplay.obj
 0002:00001698       ??_C@_0BH@LBOMMKPJ@RegisterTypeLibForUser@ 10020698     RemoteOrderDisplay.obj
 0002:000016b0       ??_C@_0P@MMNMMLGK@COFreezeEvents@ 100206b0     RemoteOrderDisplayImpl.obj
 0002:000016c0       ??_C@_0BC@OGCGGIMP@GetPropertyNumber@ 100206c0     RemoteOrderDisplayImpl.obj
 0002:000016d4       ??_C@_0BC@MDCNODNB@SetPropertyNumber@ 100206d4     RemoteOrderDisplayImpl.obj
 0002:000016e8       ??_C@_0BC@CFCCMIMD@GetPropertyString@ 100206e8     RemoteOrderDisplayImpl.obj
 0002:000016fc       ??_C@_0BC@CJEDNN@SetPropertyString@ 100206fc     RemoteOrderDisplayImpl.obj
 0002:00001710       ??_C@_0M@LNPKKKDA@OpenService@ 10020710     RemoteOrderDisplayImpl.obj
 0002:0000171c       ??_C@_0M@PCMCHHMH@CheckHealth@ 1002071c     RemoteOrderDisplayImpl.obj
 0002:00001728       ??_C@_0M@JGMIDNEK@ClaimDevice@ 10020728     RemoteOrderDisplayImpl.obj
 0002:00001734       ??_C@_0L@BNEIFEJC@ClearInput@ 10020734     RemoteOrderDisplayImpl.obj
 0002:00001740       ??_C@_0M@JMBCPNGJ@ClearOutput@ 10020740     RemoteOrderDisplayImpl.obj
 0002:0000174c       ??_C@_0N@DDFIIBMP@CloseService@ 1002074c     RemoteOrderDisplayImpl.obj
 0002:0000175c       ??_C@_08EEIHICPC@DirectIO@ 1002075c     RemoteOrderDisplayImpl.obj
 0002:00001768       ??_C@_0O@BCPMENMJ@ReleaseDevice@ 10020768     RemoteOrderDisplayImpl.obj
 0002:00001778       ??_C@_0L@DHIDJAOO@ClearVideo@ 10020778     RemoteOrderDisplayImpl.obj
 0002:00001784       ??_C@_0BB@BKDKAILF@ClearVideoRegion@ 10020784     RemoteOrderDisplayImpl.obj
 0002:00001798       ??_C@_0N@LGFBJCKG@ControlClock@ 10020798     RemoteOrderDisplayImpl.obj
 0002:000017a8       ??_C@_0O@MJLDLDBI@ControlCursor@ 100207a8     RemoteOrderDisplayImpl.obj
 0002:000017b8       ??_C@_0BA@NDBMIPMF@CopyVideoRegion@ 100207b8     RemoteOrderDisplayImpl.obj
 0002:000017c8       ??_C@_0M@PGFELKMF@DisplayData@ 100207c8     RemoteOrderDisplayImpl.obj
 0002:000017d4       ??_C@_07FBNHCCPG@DrawBox@  100207d4     RemoteOrderDisplayImpl.obj
 0002:000017dc       ??_C@_0BA@NNIFPCLA@FreeVideoRegion@ 100207dc     RemoteOrderDisplayImpl.obj
 0002:000017ec       ??_C@_0L@JMKOKABE@ResetVideo@ 100207ec     RemoteOrderDisplayImpl.obj
 0002:000017f8       ??_C@_0BD@DIHMIGHG@RestoreVideoRegion@ 100207f8     RemoteOrderDisplayImpl.obj
 0002:0000180c       ??_C@_0BA@ODHPNLJ@SaveVideoRegion@ 1002080c     RemoteOrderDisplayImpl.obj
 0002:0000181c       ??_C@_0BD@JJMHLHNM@SelectCharacterSet@ 1002081c     RemoteOrderDisplayImpl.obj
 0002:00001830       ??_C@_09PKKOCJGB@SetCursor@ 10020830     RemoteOrderDisplayImpl.obj
 0002:0000183c       ??_C@_0BD@LPDOPKIP@TransactionDisplay@ 1002083c     RemoteOrderDisplayImpl.obj
 0002:00001850       ??_C@_0BL@KJCKLOMA@UpdateVideoRegionAttribute@ 10020850     RemoteOrderDisplayImpl.obj
 0002:0000186c       ??_C@_0L@EDLKLGFH@VideoSound@ 1002086c     RemoteOrderDisplayImpl.obj
 0002:00001878       ??_C@_0BA@GFABKEEE@ResetStatistics@ 10020878     RemoteOrderDisplayImpl.obj
 0002:00001888       ??_C@_0BD@DPALHJGC@RetrieveStatistics@ 10020888     RemoteOrderDisplayImpl.obj
 0002:0000189c       ??_C@_0BB@KOHIKNFC@UpdateStatistics@ 1002089c     RemoteOrderDisplayImpl.obj
 0002:000018b0       ??_C@_0BH@PBKBNMGB@CompareFirmwareVersion@ 100208b0     RemoteOrderDisplayImpl.obj
 0002:000018c8       ??_C@_0P@FBPDPIPA@UpdateFirmware@ 100208c8     RemoteOrderDisplayImpl.obj
 0002:000018d8       ??_7?$CProxy_IOPOSEvents@VCOPOSRemoteOrderDisplay@@@@6B@ 100208d8     RemoteOrderDisplayImpl.obj
 0002:000018f8       ??_C@_1BA@IFHENID@?$AA?$FL?$AAE?$AAr?$AAr?$AAo?$AAr?$AA?$FN@ 100208f8     RemoteOrderDisplayImpl.obj
 0002:00001908       ??_C@_0DF@MMEIEIAP@SOFTWARE?2OLEforRetail?2ServiceOP@ 10020908     RemoteOrderDisplayImpl.obj
 0002:00001940       ??_C@_1M@IAIJHCCH@?$AAC?$AAl?$AAo?$AAs?$AAe@ 10020940     RemoteOrderDisplayImpl.obj
 0002:0000194c       ??_C@_1M@PCPKGJAH@?$AAC?$AAl?$AAa?$AAi?$AAm@ 1002094c     RemoteOrderDisplayImpl.obj
 0002:00001958       ??_C@_1BA@NDFKIOCP@?$AAR?$AAe?$AAl?$AAe?$AAa?$AAs?$AAe@ 10020958     RemoteOrderDisplayImpl.obj
 0002:00001968       ??_C@_0BD@EAJOFGE@RemoteOrderDisplay@ 10020968     RemoteOrderDisplayImpl.obj
 0002:0000197c       ??_C@_1BM@IJMNMBPK@?$AAG?$AAe?$AAt?$AAO?$AAp?$AAe?$AAn?$AAR?$AAe?$AAs?$AAu?$AAl?$AAt@ 1002097c     RemoteOrderDisplayImpl.obj
 0002:00001998       _IID_IPropertyNotifySink   10020998     uuid:ocidl_i.obj
 0002:000019a8       _IID_IDispatch             100209a8     uuid:oaidl_i.obj
 0002:000019b8       _GUID_NULL                 100209b8     uuid:cguid_i.obj
 0002:000019c8       _CLSID_StdGlobalInterfaceTable 100209c8     uuid:cguid_i.obj
 0002:000019d8       _CLSID_StdComponentCategoriesMgr 100209d8     uuid:ieguids.obj
 0002:000019e8       _IID_IUnknown              100209e8     uuid:unknwn_i.obj
 0002:000019f8       ??_C@_1EC@JIJBPKFM@?$AAa?$AAp?$AAi?$AA?9?$AAm?$AAs?$AA?9?$AAw?$AAi?$AAn?$AA?9?$AAc?$AAo?$AAr?$AAe@ 100209f8     LIBCMT:thread_safe_statics.obj
 0002:00001a3c       ??_C@_1BK@MGMFAEKH@?$AAk?$AAe?$AAr?$AAn?$AAe?$AAl?$AA3?$AA2?$AA?4?$AAd?$AAl?$AAl@ 10020a3c     LIBCMT:thread_safe_statics.obj
 0002:00001a58       ??_C@_0BM@HLJJNPAH@InitializeConditionVariable@ 10020a58     LIBCMT:thread_safe_statics.obj
 0002:00001a74       ??_C@_0BJ@JEBJOJFJ@SleepConditionVariableCS@ 10020a74     LIBCMT:thread_safe_statics.obj
 0002:00001a90       ??_C@_0BJ@PGPPEPCC@WakeAllConditionVariable@ 10020a90     LIBCMT:thread_safe_statics.obj
 0002:00001aa9       ?nothrow@std@@3Unothrow_t@1@B 10020aa9     LIBCMT:std_nothrow.obj
 0002:00001ab4       __pRawDllMain              10020ab4     LIBCMT:dll_dllmain.obj
 0002:00001ab4       __pDefaultRawDllMain       10020ab4     LIBCMT:dll_dllmain.obj
 0002:00001abc       ??_7exception@std@@6B@     10020abc     LIBCMT:throw_bad_alloc.obj
 0002:00001ac4       ??_C@_0BC@EOODALEL@Unknown?5exception@ 10020ac4     LIBCMT:throw_bad_alloc.obj
 0002:00001adc       ??_7bad_alloc@std@@6B@     10020adc     LIBCMT:throw_bad_alloc.obj
 0002:00001ae4       ??_C@_0P@GHFPNOJB@bad?5allocation@ 10020ae4     LIBCMT:throw_bad_alloc.obj
 0002:00001af8       ??_7bad_array_new_length@std@@6B@ 10020af8     LIBCMT:throw_bad_alloc.obj
 0002:00001b00       ??_C@_0BF@KINCDENJ@bad?5array?5new?5length@ 10020b00     LIBCMT:throw_bad_alloc.obj
 0002:00001b1c       ??_7type_info@@6B@         10020b1c     LIBCMT:std_type_info_static.obj
 0002:00001b20       _GUID_ATLVer110            10020b20     atls:atlbase.obj
 0002:00001b30       ??_C@_1IC@ONKHOIDK@?$AAE?$AAR?$AAR?$AAO?$AAR?$AA?5?$AA?3?$AA?5?$AAU?$AAn?$AAa?$AAb?$AAl?$AAe?$AA?5@ 10020b30     atls:atlbase.obj
 0002:00001bb4       ??_C@_0N@FJEPLCIH@atlthunk?4dll@ 10020bb4     atls:atlthunk.obj
 0002:00001bc4       ??_C@_0BG@GAKFHCBM@AtlThunk_AllocateData@ 10020bc4     atls:atlthunk.obj
 0002:00001bdc       ??_C@_0BC@JKONFIAH@AtlThunk_InitData@ 10020bdc     atls:atlthunk.obj
 0002:00001bf0       ??_C@_0BE@IAOEELAK@AtlThunk_DataToCode@ 10020bf0     atls:atlthunk.obj
 0002:00001c04       ??_C@_0BC@GBGKAIPI@AtlThunk_FreeData@ 10020c04     atls:atlthunk.obj
 0002:00001c44       ??_C@_1DM@KHCHBNEB@?$AAa?$AAp?$AAi?$AA?9?$AAm?$AAs?$AA?9?$AAw?$AAi?$AAn?$AA?9?$AAc?$AAo?$AAr?$AAe@ 10020c44     libvcruntime:winapi_downlevel.obj
 0002:00001c80       ??_C@_1DK@LPPGFMPP@?$AAa?$AAp?$AAi?$AA?9?$AAm?$AAs?$AA?9?$AAw?$AAi?$AAn?$AA?9?$AAc?$AAo?$AAr?$AAe@ 10020c80     libvcruntime:winapi_downlevel.obj
 0002:00001cbc       ??_C@_1BC@GDMECMAK@?$AAk?$AAe?$AAr?$AAn?$AAe?$AAl?$AA3?$AA2@ 10020cbc     libvcruntime:winapi_downlevel.obj
 0002:00001cd0       ??_C@_1BA@PFFKHIOG@?$AAa?$AAp?$AAi?$AA?9?$AAm?$AAs?$AA?9@ 10020cd0     libvcruntime:winapi_downlevel.obj
 0002:00001ce0       ??_C@_1BA@IAIFMGEF@?$AAe?$AAx?$AAt?$AA?9?$AAm?$AAs?$AA?9@ 10020ce0     libvcruntime:winapi_downlevel.obj
 0002:00001cf8       ??_C@_08KNHFBNJ@FlsAlloc@  10020cf8     libvcruntime:winapi_downlevel.obj
 0002:00001d0c       ??_C@_07PEJMOBNF@FlsFree@  10020d0c     libvcruntime:winapi_downlevel.obj
 0002:00001d1c       ??_C@_0M@GDNOONDI@FlsGetValue@ 10020d1c     libvcruntime:winapi_downlevel.obj
 0002:00001d30       ??_C@_0M@JCPCPOEF@FlsSetValue@ 10020d30     libvcruntime:winapi_downlevel.obj
 0002:00001d44       ??_C@_0BM@HCFOFFN@InitializeCriticalSectionEx@ 10020d44     libvcruntime:winapi_downlevel.obj
 0002:00001d64       ??_7bad_exception@std@@6B@ 10020d64     libvcruntime:frame.obj
 0002:00001d6c       ??_C@_0O@DPKOEFFH@bad?5exception@ 10020d6c     libvcruntime:frame.obj
 0002:00001f1c       ??_C@_08EHJDFFNH@__based?$CI@ 10020f1c     libvcruntime:undname.obj
 0002:00001f28       ??_C@_07KOLFKCDI@__cdecl@  10020f28     libvcruntime:undname.obj
 0002:00001f30       ??_C@_08GHMPAG@__pascal@   10020f30     libvcruntime:undname.obj
 0002:00001f3c       ??_C@_09IFJBGAPI@__stdcall@ 10020f3c     libvcruntime:undname.obj
 0002:00001f48       ??_C@_0L@NPHFGOKO@__thiscall@ 10020f48     libvcruntime:undname.obj
 0002:00001f54       ??_C@_0L@JMKHOMEK@__fastcall@ 10020f54     libvcruntime:undname.obj
 0002:00001f60       ??_C@_0N@BCKKPABJ@__vectorcall@ 10020f60     libvcruntime:undname.obj
 0002:00001f70       ??_C@_09HIJEGCPM@__clrcall@ 10020f70     libvcruntime:undname.obj
 0002:00001f7c       ??_C@_06GHPCKEAG@__eabi@   10020f7c     libvcruntime:undname.obj
 0002:00001f84       ??_C@_09IOPIDJLG@__swift_1@ 10020f84     libvcruntime:undname.obj
 0002:00001f90       ??_C@_09KFNFGKHF@__swift_2@ 10020f90     libvcruntime:undname.obj
 0002:00001f9c       ??_C@_07JOMMBBKO@__ptr64@  10020f9c     libvcruntime:undname.obj
 0002:00001fa4       ??_C@_0L@PILCLIHE@__restrict@ 10020fa4     libvcruntime:undname.obj
 0002:00001fb0       ??_C@_0M@GFIIJFMG@__unaligned@ 10020fb0     libvcruntime:undname.obj
 0002:00001fbc       ??_C@_09DHDLOLLB@restrict?$CI@ 10020fbc     libvcruntime:undname.obj
 0002:00001fc6       ??_C@_00CNPNBAHC@@         10020fc6     libvcruntime:undname.obj
 0002:00001fc8       ??_C@_04NIHEBCM@?5new@     10020fc8     libvcruntime:undname.obj
 0002:00001fd0       ??_C@_07FPCDHGMM@?5delete@ 10020fd0     libvcruntime:undname.obj
 0002:00001fd8       ??_C@_01NEMOKFLO@?$DN@     10020fd8     libvcruntime:undname.obj
 0002:00001fdc       ??_C@_02GPIOPFAK@?$DO?$DO@ 10020fdc     libvcruntime:undname.obj
 0002:00001fe0       ??_C@_02FODMEDOG@?$DM?$DM@ 10020fe0     libvcruntime:undname.obj
 0002:00001fe4       ??_C@_01DCLJPIOD@?$CB@     10020fe4     libvcruntime:undname.obj
 0002:00001fe8       ??_C@_02EGOFBIJA@?$DN?$DN@ 10020fe8     libvcruntime:undname.obj
 0002:00001fec       ??_C@_02FDNJECIE@?$CB?$DN@ 10020fec     libvcruntime:undname.obj
 0002:00001ff0       ??_C@_02GPECMEKF@?$FL?$FN@ 10020ff0     libvcruntime:undname.obj
 0002:00001ff4       ??_C@_08LHJFAFGD@operator@ 10020ff4     libvcruntime:undname.obj
 0002:00002000       ??_C@_02HBOOOICD@?9?$DO@   10021000     libvcruntime:undname.obj
 0002:00002004       ??_C@_01NBENCBCI@?$CK@     10021004     libvcruntime:undname.obj
 0002:00002008       ??_C@_02ECNGHCIF@?$CL?$CL@ 10021008     libvcruntime:undname.obj
 0002:0000200c       ??_C@_02BAABKJLB@?9?9@     1002100c     libvcruntime:undname.obj
 0002:00002010       ??_C@_01JOAMLHOP@?9@       10021010     libvcruntime:undname.obj
 0002:00002014       ??_C@_01MIFGBAGJ@?$CL@     10021014     libvcruntime:undname.obj
 0002:00002018       ??_C@_01HNPIGOCE@?$CG@     10021018     libvcruntime:undname.obj
 0002:0000201c       ??_C@_03MNHNFDLC@?9?$DO?$CK@ 1002101c     libvcruntime:undname.obj
 0002:00002020       ??_C@_01KMDKNFGN@?1@       10021020     libvcruntime:undname.obj
 0002:00002024       ??_C@_01FGNFDNOH@?$CF@     10021024     libvcruntime:undname.obj
 0002:00002028       ??_C@_01MNNFJEPP@?$DM@     10021028     libvcruntime:undname.obj
 0002:0000202c       ??_C@_02EHCHHCKH@?$DM?$DN@ 1002102c     libvcruntime:undname.obj
 0002:00002030       ??_C@_01PPODPGHN@?$DO@     10021030     libvcruntime:undname.obj
 0002:00002034       ??_C@_02EEKDKGMJ@?$DO?$DN@ 10021034     libvcruntime:undname.obj
 0002:00002038       ??_C@_01IHBHIGKO@?0@       10021038     libvcruntime:undname.obj
 0002:0000203c       ??_C@_02HCKGKOFO@?$CI?$CJ@ 1002103c     libvcruntime:undname.obj
 0002:00002040       ??_C@_01PJKLJHI@?$HO@      10021040     libvcruntime:undname.obj
 0002:00002044       ??_C@_01JKBOJNNK@?$FO@     10021044     libvcruntime:undname.obj
 0002:00002048       ??_C@_01DNKMNLPK@?$HM@     10021048     libvcruntime:undname.obj
 0002:0000204c       ??_C@_02PPKAJPJL@?$CG?$CG@ 1002104c     libvcruntime:undname.obj
 0002:00002050       ??_C@_02NONPIBCD@?$HM?$HM@ 10021050     libvcruntime:undname.obj
 0002:00002054       ??_C@_02FPIMKNGF@?$CK?$DN@ 10021054     libvcruntime:undname.obj
 0002:00002058       ??_C@_02FOEOMHFC@?$CL?$DN@ 10021058     libvcruntime:undname.obj
 0002:0000205c       ??_C@_02FKMDLLOA@?9?$DN@   1002105c     libvcruntime:undname.obj
 0002:00002060       ??_C@_02FJEHGPIO@?1?$DN@   10021060     libvcruntime:undname.obj
 0002:00002064       ??_C@_02FENAOKFI@?$CF?$DN@ 10021064     libvcruntime:undname.obj
 0002:00002068       ??_C@_03IKFCCPFF@?$DO?$DO?$DN@ 10021068     libvcruntime:undname.obj
 0002:0000206c       ??_C@_03CDNPDDLA@?$DM?$DM?$DN@ 1002106c     libvcruntime:undname.obj
 0002:00002070       ??_C@_02FGJGFEAB@?$CG?$DN@ 10021070     libvcruntime:undname.obj
 0002:00002074       ??_C@_02DHLNPPGH@?$HM?$DN@ 10021074     libvcruntime:undname.obj
 0002:00002078       ??_C@_02MHEGNOJ@?$FO?$DN@  10021078     libvcruntime:undname.obj
 0002:0000207c       ??_C@_09IFPLHPGF@?$GAvftable?8@ 1002107c     libvcruntime:undname.obj
 0002:00002088       ??_C@_09BLBHBJP@?$GAvbtable?8@ 10021088     libvcruntime:undname.obj
 0002:00002094       ??_C@_07FEEIOKP@?$GAvcall?8@ 10021094     libvcruntime:undname.obj
 0002:0000209c       ??_C@_08LLFFHHDJ@?$GAtypeof?8@ 1002109c     libvcruntime:undname.obj
 0002:000020a8       ??_C@_0BF@KDPPACIK@?$GAlocal?5static?5guard?8@ 100210a8     libvcruntime:undname.obj
 0002:000020c0       ??_C@_08OBABFOLI@?$GAstring?8@ 100210c0     libvcruntime:undname.obj
 0002:000020cc       ??_C@_0BD@JDLKDPAB@?$GAvbase?5destructor?8@ 100210cc     libvcruntime:undname.obj
 0002:000020e0       ??_C@_0BN@DEGPLNFK@?$GAvector?5deleting?5destructor?8@ 100210e0     libvcruntime:undname.obj
 0002:00002100       ??_C@_0BO@OBMKPJIG@?$GAdefault?5constructor?5closure?8@ 10021100     libvcruntime:undname.obj
 0002:00002120       ??_C@_0BN@IMDCHIKM@?$GAscalar?5deleting?5destructor?8@ 10021120     libvcruntime:undname.obj
 0002:00002140       ??_C@_0BO@PFGOCPJJ@?$GAvector?5constructor?5iterator?8@ 10021140     libvcruntime:undname.obj
 0002:00002160       ??_C@_0BN@LFPFMEDL@?$GAvector?5destructor?5iterator?8@ 10021160     libvcruntime:undname.obj
 0002:00002180       ??_C@_0CE@IKBNEHA@?$GAvector?5vbase?5constructor?5itera@ 10021180     libvcruntime:undname.obj
 0002:000021a4       ??_C@_0BL@NILFHHPC@?$GAvirtual?5displacement?5map?8@ 100211a4     libvcruntime:undname.obj
 0002:000021c0       ??_C@_0CB@JONCMFFK@?$GAeh?5vector?5constructor?5iterator@ 100211c0     libvcruntime:undname.obj
 0002:000021e4       ??_C@_0CA@GCEOPDGL@?$GAeh?5vector?5destructor?5iterator?8@ 100211e4     libvcruntime:undname.obj
 0002:00002204       ??_C@_0CH@OOJPLCPH@?$GAeh?5vector?5vbase?5constructor?5it@ 10021204     libvcruntime:undname.obj
 0002:0000222c       ??_C@_0BL@LLKPOHJI@?$GAcopy?5constructor?5closure?8@ 1002122c     libvcruntime:undname.obj
 0002:00002248       ??_C@_0BA@KBCDOMBN@?$GAudt?5returning?8@ 10021248     libvcruntime:undname.obj
 0002:00002258       ??_C@_03KLGMFNMG@?$GAEH@   10021258     libvcruntime:undname.obj
 0002:0000225c       ??_C@_05KHLCHHI@?$GARTTI@  1002125c     libvcruntime:undname.obj
 0002:00002264       ??_C@_0BA@KKLDJDLB@?$GAlocal?5vftable?8@ 10021264     libvcruntime:undname.obj
 0002:00002274       ??_C@_0CE@IIHCMGGL@?$GAlocal?5vftable?5constructor?5clos@ 10021274     libvcruntime:undname.obj
 0002:00002298       ??_C@_06FHBGPFGH@?5new?$FL?$FN@ 10021298     libvcruntime:undname.obj
 0002:000022a0       ??_C@_09LBNFPBCA@?5delete?$FL?$FN@ 100212a0     libvcruntime:undname.obj
 0002:000022ac       ??_C@_0P@HJKNJFNN@?$GAomni?5callsig?8@ 100212ac     libvcruntime:undname.obj
 0002:000022bc       ??_C@_0BL@CNOONJFP@?$GAplacement?5delete?5closure?8@ 100212bc     libvcruntime:undname.obj
 0002:000022d8       ??_C@_0BN@CKNJLHMB@?$GAplacement?5delete?$FL?$FN?5closure?8@ 100212d8     libvcruntime:undname.obj
 0002:000022f8       ??_C@_0CG@CFDHKGGD@?$GAmanaged?5vector?5constructor?5ite@ 100212f8     libvcruntime:undname.obj
 0002:00002320       ??_C@_0CF@IMGKMJNO@?$GAmanaged?5vector?5destructor?5iter@ 10021320     libvcruntime:undname.obj
 0002:00002348       ??_C@_0CG@HLDDJMAG@?$GAeh?5vector?5copy?5constructor?5ite@ 10021348     libvcruntime:undname.obj
 0002:00002370       ??_C@_0CM@FCBBDIGB@?$GAeh?5vector?5vbase?5copy?5construct@ 10021370     libvcruntime:undname.obj
 0002:0000239c       ??_C@_0BL@CLIPGLGB@?$GAdynamic?5initializer?5for?5?8@ 1002139c     libvcruntime:undname.obj
 0002:000023b8       ??_C@_0CB@PDBIFEP@?$GAdynamic?5atexit?5destructor?5for?5@ 100213b8     libvcruntime:undname.obj
 0002:000023dc       ??_C@_0CD@CGAJBKEJ@?$GAvector?5copy?5constructor?5iterat@ 100213dc     libvcruntime:undname.obj
 0002:00002400       ??_C@_0CJ@GJELGAMM@?$GAvector?5vbase?5copy?5constructor?5@ 10021400     libvcruntime:undname.obj
 0002:0000242c       ??_C@_0CL@FGIJHLCE@?$GAmanaged?5vector?5copy?5constructo@ 1002142c     libvcruntime:undname.obj
 0002:00002458       ??_C@_0BM@PMGGMLDN@?$GAlocal?5static?5thread?5guard?8@ 10021458     libvcruntime:undname.obj
 0002:00002474       ??_C@_0N@BDNMDMOL@operator?5?$CC?$CC?5@ 10021474     libvcruntime:undname.obj
 0002:00002484       ??_C@_0BC@GGEBGALA@operator?5co_await@ 10021484     libvcruntime:undname.obj
 0002:00002498       ??_C@_0BC@DAFEJGAK@?5Type?5Descriptor?8@ 10021498     libvcruntime:undname.obj
 0002:000024ac       ??_C@_0BM@LDKODKLH@?5Base?5Class?5Descriptor?5at?5?$CI@ 100214ac     libvcruntime:undname.obj
 0002:000024c8       ??_C@_0BD@LGICGFMM@?5Base?5Class?5Array?8@ 100214c8     libvcruntime:undname.obj
 0002:000024dc       ??_C@_0BN@MECKDCOJ@?5Class?5Hierarchy?5Descriptor?8@ 100214dc     libvcruntime:undname.obj
 0002:000024fc       ??_C@_0BK@CFCOFLF@?5Complete?5Object?5Locator?8@ 100214fc     libvcruntime:undname.obj
 0002:00002518       __pDestructExceptionObject 10021518     libvcruntime:ehhelpers.obj
 0002:00002688       _format_validation_lookup_table 10021688     libucrt:output.obj
 0002:000026e4       ??_C@_06OJHGLDPL@?$CInull?$CJ?$AA@ 100216e4     libucrt:output.obj
 0002:000026ec       ??_C@_1O@CEDCILHN@?$AA?$CI?$AAn?$AAu?$AAl?$AAl?$AA?$CJ?$AA?$AA@ 100216ec     libucrt:output.obj
 0002:00002700       ___acrt_exception_action_table 10021700     libucrt:exception_filter.obj
 0002:00002790       ___acrt_signal_action_table_count 10021790     libucrt:exception_filter.obj
 0002:00002794       ___acrt_signal_action_first_fpe_index 10021794     libucrt:exception_filter.obj
 0002:00002798       ___acrt_signal_action_fpe_count 10021798     libucrt:exception_filter.obj
 0002:0000279c       ??_C@_1BI@BGOHAHKC@?$AAm?$AAs?$AAc?$AAo?$AAr?$AAe?$AAe?$AA?4?$AAd?$AAl?$AAl?$AA?$AA@ 1002179c     libucrt:exit.obj
 0002:000027b4       ??_C@_0P@MIGLKIOC@CorExitProcess?$AA@ 100217b4     libucrt:exit.obj
 0002:00002890       ??_C@_1EG@CNNIPFIM@?$AAa?$AAp?$AAi?$AA?9?$AAm?$AAs?$AA?9?$AAw?$AAi?$AAn?$AA?9?$AAa?$AAp?$AAp?$AAm?$AAo?$AAd?$AAe?$AAl?$AA?9?$AAr?$AAu?$AAn?$AAt?$AAi?$AAm?$AAe?$AA?9?$AAl?$AA1?$AA?9?$AA1@ 10021890     libucrt:winapi_thunks.obj
 0002:000028d8       ??_C@_1EA@JGEFHKEI@?$AAa?$AAp?$AAi?$AA?9?$AAm?$AAs?$AA?9?$AAw?$AAi?$AAn?$AA?9?$AAc?$AAo?$AAr?$AAe?$AA?9?$AAd?$AAa?$AAt?$AAe?$AAt?$AAi?$AAm?$AAe?$AA?9?$AAl?$AA1?$AA?9?$AA1?$AA?9?$AA1?$AA?$AA@ 100218d8     libucrt:winapi_thunks.obj
 0002:00002918       ??_C@_1DM@KHCHBNEB@?$AAa?$AAp?$AAi?$AA?9?$AAm?$AAs?$AA?9?$AAw?$AAi?$AAn?$AA?9?$AAc?$AAo?$AAr?$AAe?$AA?9?$AAf?$AAi?$AAb?$AAe?$AAr?$AAs?$AA?9?$AAl?$AA1?$AA?9?$AA1?$AA?9?$AA1?$AA?$AA@ 10021918     libucrt:winapi_thunks.obj
 0002:00002954       ??_C@_1DI@GCIAAENM@?$AAa?$AAp?$AAi?$AA?9?$AAm?$AAs?$AA?9?$AAw?$AAi?$AAn?$AA?9?$AAc?$AAo?$AAr?$AAe?$AA?9?$AAf?$AAi?$AAl?$AAe?$AA?9?$AAl?$AA2?$AA?9?$AA1?$AA?9?$AA1?$AA?$AA@ 10021954     libucrt:winapi_thunks.obj
 0002:00002990       ??_C@_1EI@MPIAOHOC@?$AAa?$AAp?$AAi?$AA?9?$AAm?$AAs?$AA?9?$AAw?$AAi?$AAn?$AA?9?$AAc?$AAo?$AAr?$AAe?$AA?9?$AAl?$AAo?$AAc?$AAa?$AAl?$AAi?$AAz?$AAa?$AAt?$AAi?$AAo?$AAn?$AA?9?$AAl?$AA1?$AA?9@ 10021990     libucrt:winapi_thunks.obj
 0002:000029d8       ??_C@_1FK@FPHCKFIE@?$AAa?$AAp?$AAi?$AA?9?$AAm?$AAs?$AA?9?$AAw?$AAi?$AAn?$AA?9?$AAc?$AAo?$AAr?$AAe?$AA?9?$AAl?$AAo?$AAc?$AAa?$AAl?$AAi?$AAz?$AAa?$AAt?$AAi?$AAo?$AAn?$AA?9?$AAo?$AAb?$AAs@ 100219d8     libucrt:winapi_thunks.obj
 0002:00002a38       ??_C@_1EM@DILCGIIO@?$AAa?$AAp?$AAi?$AA?9?$AAm?$AAs?$AA?9?$AAw?$AAi?$AAn?$AA?9?$AAc?$AAo?$AAr?$AAe?$AA?9?$AAp?$AAr?$AAo?$AAc?$AAe?$AAs?$AAs?$AAt?$AAh?$AAr?$AAe?$AAa?$AAd?$AAs?$AA?9?$AAl@ 10021a38     libucrt:winapi_thunks.obj
 0002:00002a84       ??_C@_1DM@LNCGDDPN@?$AAa?$AAp?$AAi?$AA?9?$AAm?$AAs?$AA?9?$AAw?$AAi?$AAn?$AA?9?$AAc?$AAo?$AAr?$AAe?$AA?9?$AAs?$AAt?$AAr?$AAi?$AAn?$AAg?$AA?9?$AAl?$AA1?$AA?9?$AA1?$AA?9?$AA0?$AA?$AA@ 10021a84     libucrt:winapi_thunks.obj
 0002:00002ac0       ??_C@_1DK@LPPGFMPP@?$AAa?$AAp?$AAi?$AA?9?$AAm?$AAs?$AA?9?$AAw?$AAi?$AAn?$AA?9?$AAc?$AAo?$AAr?$AAe?$AA?9?$AAs?$AAy?$AAn?$AAc?$AAh?$AA?9?$AAl?$AA1?$AA?9?$AA2?$AA?9?$AA0?$AA?$AA@ 10021ac0     libucrt:winapi_thunks.obj
 0002:00002afc       ??_C@_1DO@FPAPJEMD@?$AAa?$AAp?$AAi?$AA?9?$AAm?$AAs?$AA?9?$AAw?$AAi?$AAn?$AA?9?$AAc?$AAo?$AAr?$AAe?$AA?9?$AAs?$AAy?$AAs?$AAi?$AAn?$AAf?$AAo?$AA?9?$AAl?$AA1?$AA?9?$AA2?$AA?9?$AA1?$AA?$AA@ 10021afc     libucrt:winapi_thunks.obj
 0002:00002b3c       ??_C@_1DK@NDHNAHIO@?$AAa?$AAp?$AAi?$AA?9?$AAm?$AAs?$AA?9?$AAw?$AAi?$AAn?$AA?9?$AAc?$AAo?$AAr?$AAe?$AA?9?$AAw?$AAi?$AAn?$AAr?$AAt?$AA?9?$AAl?$AA1?$AA?9?$AA1?$AA?9?$AA0?$AA?$AA@ 10021b3c     libucrt:winapi_thunks.obj
 0002:00002b78       ??_C@_1DM@KGHDGBCM@?$AAa?$AAp?$AAi?$AA?9?$AAm?$AAs?$AA?9?$AAw?$AAi?$AAn?$AA?9?$AAc?$AAo?$AAr?$AAe?$AA?9?$AAx?$AAs?$AAt?$AAa?$AAt?$AAe?$AA?9?$AAl?$AA2?$AA?9?$AA1?$AA?9?$AA0?$AA?$AA@ 10021b78     libucrt:winapi_thunks.obj
 0002:00002bb8       ??_C@_1EO@IJIOEFOH@?$AAa?$AAp?$AAi?$AA?9?$AAm?$AAs?$AA?9?$AAw?$AAi?$AAn?$AA?9?$AAr?$AAt?$AAc?$AAo?$AAr?$AAe?$AA?9?$AAn?$AAt?$AAu?$AAs?$AAe?$AAr?$AA?9?$AAw?$AAi?$AAn?$AAd?$AAo?$AAw?$AA?9@ 10021bb8     libucrt:winapi_thunks.obj
 0002:00002c08       ??_C@_1FG@HHGEKANL@?$AAa?$AAp?$AAi?$AA?9?$AAm?$AAs?$AA?9?$AAw?$AAi?$AAn?$AA?9?$AAs?$AAe?$AAc?$AAu?$AAr?$AAi?$AAt?$AAy?$AA?9?$AAs?$AAy?$AAs?$AAt?$AAe?$AAm?$AAf?$AAu?$AAn?$AAc?$AAt?$AAi@ 10021c08     libucrt:winapi_thunks.obj
 0002:00002c60       ??_C@_1FG@NCKKOLKO@?$AAe?$AAx?$AAt?$AA?9?$AAm?$AAs?$AA?9?$AAw?$AAi?$AAn?$AA?9?$AAk?$AAe?$AAr?$AAn?$AAe?$AAl?$AA3?$AA2?$AA?9?$AAp?$AAa?$AAc?$AAk?$AAa?$AAg?$AAe?$AA?9?$AAc?$AAu?$AAr?$AAr@ 10021c60     libucrt:winapi_thunks.obj
 0002:00002cb8       ??_C@_1EG@DBIOJECG@?$AAe?$AAx?$AAt?$AA?9?$AAm?$AAs?$AA?9?$AAw?$AAi?$AAn?$AA?9?$AAn?$AAt?$AAu?$AAs?$AAe?$AAr?$AA?9?$AAd?$AAi?$AAa?$AAl?$AAo?$AAg?$AAb?$AAo?$AAx?$AA?9?$AAl?$AA1?$AA?9?$AA1@ 10021cb8     libucrt:winapi_thunks.obj
 0002:00002d00       ??_C@_1EO@FIHMJCLF@?$AAe?$AAx?$AAt?$AA?9?$AAm?$AAs?$AA?9?$AAw?$AAi?$AAn?$AA?9?$AAn?$AAt?$AAu?$AAs?$AAe?$AAr?$AA?9?$AAw?$AAi?$AAn?$AAd?$AAo?$AAw?$AAs?$AAt?$AAa?$AAt?$AAi?$AAo?$AAn?$AA?9@ 10021d00     libucrt:winapi_thunks.obj
 0002:00002d50       ??_C@_1BC@DNHGCMLG@?$AAa?$AAd?$AAv?$AAa?$AAp?$AAi?$AA3?$AA2?$AA?$AA@ 10021d50     libucrt:winapi_thunks.obj
 0002:00002d64       ??_C@_1BC@GDMECMAK@?$AAk?$AAe?$AAr?$AAn?$AAe?$AAl?$AA3?$AA2?$AA?$AA@ 10021d64     libucrt:winapi_thunks.obj
 0002:00002d78       ??_C@_1O@BCCLBEOE@?$AAu?$AAs?$AAe?$AAr?$AA3?$AA2?$AA?$AA@ 10021d78     libucrt:winapi_thunks.obj
 0002:00002d90       ??_C@_08KNHFBNJ@FlsAlloc?$AA@ 10021d90     libucrt:winapi_thunks.obj
 0002:00002da4       ??_C@_07PEJMOBNF@FlsFree?$AA@ 10021da4     libucrt:winapi_thunks.obj
 0002:00002db4       ??_C@_0M@GDNOONDI@FlsGetValue?$AA@ 10021db4     libucrt:winapi_thunks.obj
 0002:00002dc8       ??_C@_0M@JCPCPOEF@FlsSetValue?$AA@ 10021dc8     libucrt:winapi_thunks.obj
 0002:00002ddc       ??_C@_0BE@JOGNEJCI@GetCurrentPackageId?$AA@ 10021ddc     libucrt:winapi_thunks.obj
 0002:00002df8       ??_C@_0BM@HCFOFFN@InitializeCriticalSectionEx?$AA@ 10021df8     libucrt:winapi_thunks.obj
 0002:00002e1c       ??_C@_0O@KKBNKAPF@LCMapStringEx?$AA@ 10021e1c     libucrt:winapi_thunks.obj
 0002:00002e34       ??_C@_0BB@HBDEELFH@LocaleNameToLCID?$AA@ 10021e34     libucrt:winapi_thunks.obj
 0002:00002e50       ??_C@_0BI@BKLFFAPO@SetThreadStackGuarantee?$AA@ 10021e50     libucrt:winapi_thunks.obj
 0002:00002e68       ??_C@_03OEIAHPBN@INF?$AA@  10021e68     libucrt:cvt.obj
 0002:00002e6c       ??_C@_03OJHLLCGB@inf?$AA@  10021e6c     libucrt:cvt.obj
 0002:00002e70       ??_C@_03LKNCIKJB@NAN?$AA@  10021e70     libucrt:cvt.obj
 0002:00002e74       ??_C@_03LHCJEHON@nan?$AA@  10021e74     libucrt:cvt.obj
 0002:00002e78       ??_C@_09OFJJIMPC@NAN?$CISNAN?$CJ?$AA@ 10021e78     libucrt:cvt.obj
 0002:00002e84       ??_C@_09IPFBKMDL@nan?$CIsnan?$CJ?$AA@ 10021e84     libucrt:cvt.obj
 0002:00002e90       ??_C@_08IKHNHAJ@NAN?$CIIND?$CJ?$AA@ 10021e90     libucrt:cvt.obj
 0002:00002e9c       ??_C@_08OFCDMILK@nan?$CIind?$CJ?$AA@ 10021e9c     libucrt:cvt.obj
 0002:00002ea8       ??_C@_05KLBDPFGC@e?$CL000?$AA@ 10021ea8     libucrt:cvt.obj
 0002:00002eb0       ??_C@_03KOEHGMDN@Sun?$AA@  10021eb0     libucrt:nlsdata.obj
 0002:00002eb4       ??_C@_03PDAGKDH@Mon?$AA@   10021eb4     libucrt:nlsdata.obj
 0002:00002eb8       ??_C@_03NAGEINEP@Tue?$AA@  10021eb8     libucrt:nlsdata.obj
 0002:00002ebc       ??_C@_03MHOMLAJA@Wed?$AA@  10021ebc     libucrt:nlsdata.obj
 0002:00002ec0       ??_C@_03IOFIKPDN@Thu?$AA@  10021ec0     libucrt:nlsdata.obj
 0002:00002ec4       ??_C@_03IDIOELNC@Fri?$AA@  10021ec4     libucrt:nlsdata.obj
 0002:00002ec8       ??_C@_03FEFJNEK@Sat?$AA@   10021ec8     libucrt:nlsdata.obj
 0002:00002ecc       ??_C@_06OOPIFAJ@Sunday?$AA@ 10021ecc     libucrt:nlsdata.obj
 0002:00002ed4       ??_C@_06JLEDEDGH@Monday?$AA@ 10021ed4     libucrt:nlsdata.obj
 0002:00002edc       ??_C@_07BAAGCFCM@Tuesday?$AA@ 10021edc     libucrt:nlsdata.obj
 0002:00002ee4       ??_C@_09DLIGFAKA@Wednesday?$AA@ 10021ee4     libucrt:nlsdata.obj
 0002:00002ef0       ??_C@_08HACCIKIA@Thursday?$AA@ 10021ef0     libucrt:nlsdata.obj
 0002:00002efc       ??_C@_06JECMNKMI@Friday?$AA@ 10021efc     libucrt:nlsdata.obj
 0002:00002f04       ??_C@_08INBOOONO@Saturday?$AA@ 10021f04     libucrt:nlsdata.obj
 0002:00002f10       ??_C@_03JIHJHPIE@Jan?$AA@  10021f10     libucrt:nlsdata.obj
 0002:00002f14       ??_C@_03HJBDCHOM@Feb?$AA@  10021f14     libucrt:nlsdata.obj
 0002:00002f18       ??_C@_03ODNJBKGA@Mar?$AA@  10021f18     libucrt:nlsdata.obj
 0002:00002f1c       ??_C@_03LEOLGMJP@Apr?$AA@  10021f1c     libucrt:nlsdata.obj
 0002:00002f20       ??_C@_03CNMDKL@May?$AA@    10021f20     libucrt:nlsdata.obj
 0002:00002f24       ??_C@_03IDFGHECI@Jun?$AA@  10021f24     libucrt:nlsdata.obj
 0002:00002f28       ??_C@_03LBGABGKK@Jul?$AA@  10021f28     libucrt:nlsdata.obj
 0002:00002f2c       ??_C@_03IFJFEIGA@Aug?$AA@  10021f2c     libucrt:nlsdata.obj
 0002:00002f30       ??_C@_03GGCAPAJC@Sep?$AA@  10021f30     libucrt:nlsdata.obj
 0002:00002f34       ??_C@_03BMAOKBAD@Oct?$AA@  10021f34     libucrt:nlsdata.obj
 0002:00002f38       ??_C@_03JPJOFNIA@Nov?$AA@  10021f38     libucrt:nlsdata.obj
 0002:00002f3c       ??_C@_03MKABNOCG@Dec?$AA@  10021f3c     libucrt:nlsdata.obj
 0002:00002f40       ??_C@_07CGJPFGJA@January?$AA@ 10021f40     libucrt:nlsdata.obj
 0002:00002f48       ??_C@_08GNJGEPFN@February?$AA@ 10021f48     libucrt:nlsdata.obj
 0002:00002f54       ??_C@_05HPCKOFNC@March?$AA@ 10021f54     libucrt:nlsdata.obj
 0002:00002f5c       ??_C@_05DMJDNLEJ@April?$AA@ 10021f5c     libucrt:nlsdata.obj
 0002:00002f64       ??_C@_04CNLMGBGM@June?$AA@ 10021f64     libucrt:nlsdata.obj
 0002:00002f6c       ??_C@_04MIEPOIFP@July?$AA@ 10021f6c     libucrt:nlsdata.obj
 0002:00002f74       ??_C@_06LBBHFDDG@August?$AA@ 10021f74     libucrt:nlsdata.obj
 0002:00002f7c       ??_C@_09BHHEALKD@September?$AA@ 10021f7c     libucrt:nlsdata.obj
 0002:00002f88       ??_C@_07JJNFCEND@October?$AA@ 10021f88     libucrt:nlsdata.obj
 0002:00002f90       ??_C@_08HCHEGEOA@November?$AA@ 10021f90     libucrt:nlsdata.obj
 0002:00002f9c       ??_C@_08EDHMEBNP@December?$AA@ 10021f9c     libucrt:nlsdata.obj
 0002:00002fa8       ??_C@_02DEDBPAFC@AM?$AA@   10021fa8     libucrt:nlsdata.obj
 0002:00002fac       ??_C@_02CJNFDJBF@PM?$AA@   10021fac     libucrt:nlsdata.obj
 0002:00002fb0       ??_C@_08BPBNCDIB@MM?1dd?1yy?$AA@ 10021fb0     libucrt:nlsdata.obj
 0002:00002fbc       ??_C@_0BE@CKGJFCPC@dddd?0?5MMMM?5dd?0?5yyyy?$AA@ 10021fbc     libucrt:nlsdata.obj
 0002:00002fd0       ??_C@_08JCCMCCIL@HH?3mm?3ss?$AA@ 10021fd0     libucrt:nlsdata.obj
 0002:00002fdc       ??_C@_17MBGCMIPB@?$AAS?$AAu?$AAn?$AA?$AA@ 10021fdc     libucrt:nlsdata.obj
 0002:00002fe4       ??_C@_17KBOMKBF@?$AAM?$AAo?$AAn?$AA?$AA@ 10021fe4     libucrt:nlsdata.obj
 0002:00002fec       ??_C@_17BMKGEGOJ@?$AAT?$AAu?$AAe?$AA?$AA@ 10021fec     libucrt:nlsdata.obj
 0002:00002ff4       ??_C@_17CJEDCEPE@?$AAW?$AAe?$AAd?$AA?$AA@ 10021ff4     libucrt:nlsdata.obj
 0002:00002ffc       ??_C@_17PDPHAADD@?$AAT?$AAh?$AAu?$AA?$AA@ 10021ffc     libucrt:nlsdata.obj
 0002:00003004       ??_C@_17HFOLPPLP@?$AAF?$AAr?$AAi?$AA?$AA@ 10022004     libucrt:nlsdata.obj
 0002:0000300c       ??_C@_17GGIBDPIH@?$AAS?$AAa?$AAt?$AA?$AA@ 1002200c     libucrt:nlsdata.obj
 0002:00003014       ??_C@_1O@IHNHDHPB@?$AAS?$AAu?$AAn?$AAd?$AAa?$AAy?$AA?$AA@ 10022014     libucrt:nlsdata.obj
 0002:00003024       ??_C@_1O@MMNBFLIA@?$AAM?$AAo?$AAn?$AAd?$AAa?$AAy?$AA?$AA@ 10022024     libucrt:nlsdata.obj
 0002:00003034       ??_C@_1BA@ENFBFFEK@?$AAT?$AAu?$AAe?$AAs?$AAd?$AAa?$AAy?$AA?$AA@ 10022034     libucrt:nlsdata.obj
 0002:00003044       ??_C@_1BE@EBOGMDOH@?$AAW?$AAe?$AAd?$AAn?$AAe?$AAs?$AAd?$AAa?$AAy?$AA?$AA@ 10022044     libucrt:nlsdata.obj
 0002:00003058       ??_C@_1BC@HHMNLIHE@?$AAT?$AAh?$AAu?$AAr?$AAs?$AAd?$AAa?$AAy?$AA?$AA@ 10022058     libucrt:nlsdata.obj
 0002:0000306c       ??_C@_1O@PDICJHAG@?$AAF?$AAr?$AAi?$AAd?$AAa?$AAy?$AA?$AA@ 1002206c     libucrt:nlsdata.obj
 0002:0000307c       ??_C@_1BC@ENMNNPAJ@?$AAS?$AAa?$AAt?$AAu?$AAr?$AAd?$AAa?$AAy?$AA?$AA@ 1002207c     libucrt:nlsdata.obj
 0002:00003090       ??_C@_17DKNBKCHM@?$AAJ?$AAa?$AAn?$AA?$AA@ 10022090     libucrt:nlsdata.obj
 0002:00003098       ??_C@_17LMDJEKJN@?$AAF?$AAe?$AAb?$AA?$AA@ 10022098     libucrt:nlsdata.obj
 0002:000030a0       ??_C@_17CKNLEDEC@?$AAM?$AAa?$AAr?$AA?$AA@ 100220a0     libucrt:nlsdata.obj
 0002:000030a8       ??_C@_17LFPOIHDD@?$AAA?$AAp?$AAr?$AA?$AA@ 100220a8     libucrt:nlsdata.obj
 0002:000030b0       ??_C@_17PNNKMEED@?$AAM?$AAa?$AAy?$AA?$AA@ 100220b0     libucrt:nlsdata.obj
 0002:000030b8       ??_C@_17KCJGOCPB@?$AAJ?$AAu?$AAn?$AA?$AA@ 100220b8     libucrt:nlsdata.obj
 0002:000030c0       ??_C@_17IJPCKHK@?$AAJ?$AAu?$AAl?$AA?$AA@ 100220c0     libucrt:nlsdata.obj
 0002:000030c8       ??_C@_17ICPELBCN@?$AAA?$AAu?$AAg?$AA?$AA@ 100220c8     libucrt:nlsdata.obj
 0002:000030d0       ??_C@_17HCHCOKMG@?$AAS?$AAe?$AAp?$AA?$AA@ 100220d0     libucrt:nlsdata.obj
 0002:000030d8       ??_C@_17FNLKOI@?$AAO?$AAc?$AAt?$AA?$AA@ 100220d8     libucrt:nlsdata.obj
 0002:000030e0       ??_C@_17BBDMLCIG@?$AAN?$AAo?$AAv?$AA?$AA@ 100220e0     libucrt:nlsdata.obj
 0002:000030e8       ??_C@_17EGKACKIF@?$AAD?$AAe?$AAc?$AA?$AA@ 100220e8     libucrt:nlsdata.obj
 0002:000030f0       ??_C@_1BA@EFMEIEBA@?$AAJ?$AAa?$AAn?$AAu?$AAa?$AAr?$AAy?$AA?$AA@ 100220f0     libucrt:nlsdata.obj
 0002:00003100       ??_C@_1BC@JGDDFFAM@?$AAF?$AAe?$AAb?$AAr?$AAu?$AAa?$AAr?$AAy?$AA?$AA@ 10022100     libucrt:nlsdata.obj
 0002:00003114       ??_C@_1M@IKEENEDF@?$AAM?$AAa?$AAr?$AAc?$AAh?$AA?$AA@ 10022114     libucrt:nlsdata.obj
 0002:00003120       ??_C@_1M@GJNLMHFD@?$AAA?$AAp?$AAr?$AAi?$AAl?$AA?$AA@ 10022120     libucrt:nlsdata.obj
 0002:0000312c       ??_C@_19EPFLPGAP@?$AAJ?$AAu?$AAn?$AAe?$AA?$AA@ 1002212c     libucrt:nlsdata.obj
 0002:00003138       ??_C@_19BIFMLPCD@?$AAJ?$AAu?$AAl?$AAy?$AA?$AA@ 10022138     libucrt:nlsdata.obj
 0002:00003144       ??_C@_1O@PAHLKOAC@?$AAA?$AAu?$AAg?$AAu?$AAs?$AAt?$AA?$AA@ 10022144     libucrt:nlsdata.obj
 0002:00003154       ??_C@_1BE@DKAAMBJL@?$AAS?$AAe?$AAp?$AAt?$AAe?$AAm?$AAb?$AAe?$AAr?$AA?$AA@ 10022154     libucrt:nlsdata.obj
 0002:00003168       ??_C@_1BA@EPANDLNG@?$AAO?$AAc?$AAt?$AAo?$AAb?$AAe?$AAr?$AA?$AA@ 10022168     libucrt:nlsdata.obj
 0002:00003178       ??_C@_1BC@BGLIFPF@?$AAN?$AAo?$AAv?$AAe?$AAm?$AAb?$AAe?$AAr?$AA?$AA@ 10022178     libucrt:nlsdata.obj
 0002:0000318c       ??_C@_1BC@FEMKIFH@?$AAD?$AAe?$AAc?$AAe?$AAm?$AAb?$AAe?$AAr?$AA?$AA@ 1002218c     libucrt:nlsdata.obj
 0002:000031a0       ??_C@_15ODEHAHHF@?$AAA?$AAM?$AA?$AA@ 100221a0     libucrt:nlsdata.obj
 0002:000031a8       ??_C@_15CLMNNGEL@?$AAP?$AAM?$AA?$AA@ 100221a8     libucrt:nlsdata.obj
 0002:000031b0       ??_C@_1BC@IEBCMHCM@?$AAM?$AAM?$AA?1?$AAd?$AAd?$AA?1?$AAy?$AAy?$AA?$AA@ 100221b0     libucrt:nlsdata.obj
 0002:000031c4       ??_C@_1CI@KNAKOEBC@?$AAd?$AAd?$AAd?$AAd?$AA?0?$AA?5?$AAM?$AAM?$AAM?$AAM?$AA?5?$AAd?$AAd?$AA?0?$AA?5?$AAy?$AAy?$AAy?$AAy?$AA?$AA@ 100221c4     libucrt:nlsdata.obj
 0002:000031ec       ??_C@_1BC@GDGBMEMK@?$AAH?$AAH?$AA?3?$AAm?$AAm?$AA?3?$AAs?$AAs?$AA?$AA@ 100221ec     libucrt:nlsdata.obj
 0002:00003200       ??_C@_1M@BMHNFIME@?$AAe?$AAn?$AA?9?$AAU?$AAS?$AA?$AA@ 10022200     libucrt:nlsdata.obj
 0002:00003210       ___lc_time_c               10022210     libucrt:nlsdata.obj
 0002:00003384       ??_C@_1M@HPNHIDJI@?$AAj?$AAa?$AA?9?$AAJ?$AAP?$AA?$AA@ 10022384     libucrt:mbctype.obj
 0002:00003390       ??_C@_1M@BIBDDEMK@?$AAz?$AAh?$AA?9?$AAC?$AAN?$AA?$AA@ 10022390     libucrt:mbctype.obj
 0002:0000339c       ??_C@_1M@JLOOOEGK@?$AAk?$AAo?$AA?9?$AAK?$AAR?$AA?$AA@ 1002239c     libucrt:mbctype.obj
 0002:000033a8       ??_C@_1M@CLNBBOPM@?$AAz?$AAh?$AA?9?$AAT?$AAW?$AA?$AA@ 100223a8     libucrt:mbctype.obj
 0002:000033b8       __wctype                   100223b8     libucrt:ctype.obj
 0002:000035c0       ___newctype                100225c0     libucrt:ctype.obj
 0002:000038c0       ___newclmap                100228c0     libucrt:ctype.obj
 0002:00003a40       ___newcumap                10022a40     libucrt:ctype.obj
 0002:000042e0       ??_C@_15EMKDOKLE@?$AAa?$AAr?$AA?$AA@ 100232e0     libucrt:lcidtoname_downlevel.obj
 0002:000042e8       ??_C@_15KNPADPLH@?$AAb?$AAg?$AA?$AA@ 100232e8     libucrt:lcidtoname_downlevel.obj
 0002:000042f0       ??_C@_15EDMHLDMO@?$AAc?$AAa?$AA?$AA@ 100232f0     libucrt:lcidtoname_downlevel.obj
 0002:000042f8       ??_C@_1O@BPEAJADD@?$AAz?$AAh?$AA?9?$AAC?$AAH?$AAS?$AA?$AA@ 100232f8     libucrt:lcidtoname_downlevel.obj
 0002:00004308       ??_C@_15LJNHCMNK@?$AAc?$AAs?$AA?$AA@ 10023308     libucrt:lcidtoname_downlevel.obj
 0002:00004310       ??_C@_15FOMCIDHG@?$AAd?$AAa?$AA?$AA@ 10023310     libucrt:lcidtoname_downlevel.obj
 0002:00004318       ??_C@_15NBKABECB@?$AAd?$AAe?$AA?$AA@ 10023318     libucrt:lcidtoname_downlevel.obj
 0002:00004320       ??_C@_15GHPEIIAO@?$AAe?$AAl?$AA?$AA@ 10023320     libucrt:lcidtoname_downlevel.obj
 0002:00004328       ??_C@_15MNPNEAIF@?$AAe?$AAn?$AA?$AA@ 10023328     libucrt:lcidtoname_downlevel.obj
 0002:00004330       ??_C@_15GPIOMPMH@?$AAe?$AAs?$AA?$AA@ 10023330     libucrt:lcidtoname_downlevel.obj
 0002:00004338       ??_C@_15NGLOAKJC@?$AAf?$AAi?$AA?$AA@ 10023338     libucrt:lcidtoname_downlevel.obj
 0002:00004340       ??_C@_15FBKGNKAM@?$AAf?$AAr?$AA?$AA@ 10023340     libucrt:lcidtoname_downlevel.obj
 0002:00004348       ??_C@_15KGGCNEFK@?$AAh?$AAe?$AA?$AA@ 10023348     libucrt:lcidtoname_downlevel.obj
 0002:00004350       ??_C@_15PGHLIDMF@?$AAh?$AAu?$AA?$AA@ 10023350     libucrt:lcidtoname_downlevel.obj
 0002:00004358       ??_C@_15BIEMAPLM@?$AAi?$AAs?$AA?$AA@ 10023358     libucrt:lcidtoname_downlevel.obj
 0002:00004360       ??_C@_15IFJLDHAF@?$AAi?$AAt?$AA?$AA@ 10023360     libucrt:lcidtoname_downlevel.obj
 0002:00004368       ??_C@_15GEMIOCAG@?$AAj?$AAa?$AA?$AA@ 10023368     libucrt:lcidtoname_downlevel.obj
 0002:00004370       ??_C@_15EPELEGJA@?$AAk?$AAo?$AA?$AA@ 10023370     libucrt:lcidtoname_downlevel.obj
 0002:00004378       ??_C@_15NDDHIMN@?$AAn?$AAl?$AA?$AA@ 10023378     libucrt:lcidtoname_downlevel.obj
 0002:00004380       ??_C@_15BPIGNHCD@?$AAn?$AAo?$AA?$AA@ 10023380     libucrt:lcidtoname_downlevel.obj
 0002:00004388       ??_C@_15DEOPBLCG@?$AAp?$AAl?$AA?$AA@ 10023388     libucrt:lcidtoname_downlevel.obj
 0002:00004390       ??_C@_15KBECGEFG@?$AAp?$AAt?$AA?$AA@ 10023390     libucrt:lcidtoname_downlevel.obj
 0002:00004398       ??_C@_15GLJCBFMD@?$AAr?$AAo?$AA?$AA@ 10023398     libucrt:lcidtoname_downlevel.obj
 0002:000043a0       ??_C@_15FEDGKCDI@?$AAr?$AAu?$AA?$AA@ 100233a0     libucrt:lcidtoname_downlevel.obj
 0002:000043a8       ??_C@_15GLKMLLHM@?$AAh?$AAr?$AA?$AA@ 100233a8     libucrt:lcidtoname_downlevel.obj
 0002:000043b0       ??_C@_15CPKMFBDB@?$AAs?$AAk?$AA?$AA@ 100233b0     libucrt:lcidtoname_downlevel.obj
 0002:000043b8       ??_C@_15BAAIOGMK@?$AAs?$AAq?$AA?$AA@ 100233b8     libucrt:lcidtoname_downlevel.obj
 0002:000043c0       ??_C@_15INNPNOHD@?$AAs?$AAv?$AA?$AA@ 100233c0     libucrt:lcidtoname_downlevel.obj
 0002:000043c8       ??_C@_15CABMMOGH@?$AAt?$AAh?$AA?$AA@ 100233c8     libucrt:lcidtoname_downlevel.obj
 0002:000043d0       ??_C@_15BPLIHJJM@?$AAt?$AAr?$AA?$AA@ 100233d0     libucrt:lcidtoname_downlevel.obj
 0002:000043d8       ??_C@_15NEOEKKDJ@?$AAu?$AAr?$AA?$AA@ 100233d8     libucrt:lcidtoname_downlevel.obj
 0002:000043e0       ??_C@_15NFICGAJK@?$AAi?$AAd?$AA?$AA@ 100233e0     libucrt:lcidtoname_downlevel.obj
 0002:000043e8       ??_C@_15PJPFLCCM@?$AAu?$AAk?$AA?$AA@ 100233e8     libucrt:lcidtoname_downlevel.obj
 0002:000043f0       ??_C@_15HPJPHDM@?$AAb?$AAe?$AA?$AA@ 100233f0     libucrt:lcidtoname_downlevel.obj
 0002:000043f8       ??_C@_15LCHLGJII@?$AAs?$AAl?$AA?$AA@ 100233f8     libucrt:lcidtoname_downlevel.obj
 0002:00004400       ??_C@_15PCFJPHHO@?$AAe?$AAt?$AA?$AA@ 10023400     libucrt:lcidtoname_downlevel.obj
 0002:00004408       ??_C@_15HPFPGODN@?$AAl?$AAv?$AA?$AA@ 10023408     libucrt:lcidtoname_downlevel.obj
 0002:00004410       ??_C@_15NFFGKGLG@?$AAl?$AAt?$AA?$AA@ 10023410     libucrt:lcidtoname_downlevel.obj
 0002:00004418       ??_C@_15BDAKCCHN@?$AAf?$AAa?$AA?$AA@ 10023418     libucrt:lcidtoname_downlevel.obj
 0002:00004420       ??_C@_15NFGIAIAJ@?$AAv?$AAi?$AA?$AA@ 10023420     libucrt:lcidtoname_downlevel.obj
 0002:00004428       ??_C@_15LMKNDMHN@?$AAh?$AAy?$AA?$AA@ 10023428     libucrt:lcidtoname_downlevel.obj
 0002:00004430       ??_C@_15IJBHMCFL@?$AAa?$AAz?$AA?$AA@ 10023430     libucrt:lcidtoname_downlevel.obj
 0002:00004438       ??_C@_15EKOFJABL@?$AAe?$AAu?$AA?$AA@ 10023438     libucrt:lcidtoname_downlevel.obj
 0002:00004440       ??_C@_15BGHADCNK@?$AAm?$AAk?$AA?$AA@ 10023440     libucrt:lcidtoname_downlevel.obj
 0002:00004448       ??_C@_15JDNICKHM@?$AAa?$AAf?$AA?$AA@ 10023448     libucrt:lcidtoname_downlevel.obj
 0002:00004450       ??_C@_15KPJEDBKD@?$AAk?$AAa?$AA?$AA@ 10023450     libucrt:lcidtoname_downlevel.obj
 0002:00004458       ??_C@_15PDNFFFEO@?$AAf?$AAo?$AA?$AA@ 10023458     libucrt:lcidtoname_downlevel.obj
 0002:00004460       ??_C@_15OMLEGLOC@?$AAh?$AAi?$AA?$AA@ 10023460     libucrt:lcidtoname_downlevel.obj
 0002:00004468       ??_C@_15IDNNENKK@?$AAm?$AAs?$AA?$AA@ 10023468     libucrt:lcidtoname_downlevel.obj
 0002:00004470       ??_C@_15MACJNBMH@?$AAk?$AAk?$AA?$AA@ 10023470     libucrt:lcidtoname_downlevel.obj
 0002:00004478       ??_C@_15DKDJEOND@?$AAk?$AAy?$AA?$AA@ 10023478     libucrt:lcidtoname_downlevel.obj
 0002:00004480       ??_C@_15DFGDLJBG@?$AAs?$AAw?$AA?$AA@ 10023480     libucrt:lcidtoname_downlevel.obj
 0002:00004488       ??_C@_15BBFAICNG@?$AAu?$AAz?$AA?$AA@ 10023488     libucrt:lcidtoname_downlevel.obj
 0002:00004490       ??_C@_15DKNDCGEA@?$AAt?$AAt?$AA?$AA@ 10023490     libucrt:lcidtoname_downlevel.obj
 0002:00004498       ??_C@_15MGIFMDPL@?$AAp?$AAa?$AA?$AA@ 10023498     libucrt:lcidtoname_downlevel.obj
 0002:000044a0       ??_C@_15HCNDBBA@?$AAg?$AAu?$AA?$AA@ 100234a0     libucrt:lcidtoname_downlevel.obj
 0002:000044a8       ??_C@_15FNBEIBON@?$AAt?$AAa?$AA?$AA@ 100234a8     libucrt:lcidtoname_downlevel.obj
 0002:000044b0       ??_C@_15NCHGBGLK@?$AAt?$AAe?$AA?$AA@ 100234b0     libucrt:lcidtoname_downlevel.obj
 0002:000044b8       ??_C@_15PHPHCBPF@?$AAk?$AAn?$AA?$AA@ 100234b8     libucrt:lcidtoname_downlevel.obj
 0002:000044c0       ??_C@_15DLGBCKMP@?$AAm?$AAr?$AA?$AA@ 100234c0     libucrt:lcidtoname_downlevel.obj
 0002:000044c8       ??_C@_15EABBLBFF@?$AAs?$AAa?$AA?$AA@ 100234c8     libucrt:lcidtoname_downlevel.obj
 0002:000044d0       ??_C@_15CBKOMCOI@?$AAm?$AAn?$AA?$AA@ 100234d0     libucrt:lcidtoname_downlevel.obj
 0002:000044d8       ??_C@_15CKDMCJAF@?$AAg?$AAl?$AA?$AA@ 100234d8     libucrt:lcidtoname_downlevel.obj
 0002:000044e0       ??_C@_17CNJFBPG@?$AAk?$AAo?$AAk?$AA?$AA@ 100234e0     libucrt:lcidtoname_downlevel.obj
 0002:000044e8       ??_C@_17FFBJICPL@?$AAs?$AAy?$AAr?$AA?$AA@ 100234e8     libucrt:lcidtoname_downlevel.obj
 0002:000044f0       ??_C@_17KPNDCPAF@?$AAd?$AAi?$AAv?$AA?$AA@ 100234f0     libucrt:lcidtoname_downlevel.obj
 0002:000044f8       ??_C@_11LOCGONAA@?$AA?$AA@ 100234f8     libucrt:lcidtoname_downlevel.obj
 0002:000044fc       ??_C@_1M@OKAHONE@?$AAa?$AAr?$AA?9?$AAS?$AAA?$AA?$AA@ 100234fc     libucrt:lcidtoname_downlevel.obj
 0002:00004508       ??_C@_1M@FFFIGIGK@?$AAb?$AAg?$AA?9?$AAB?$AAG?$AA?$AA@ 10023508     libucrt:lcidtoname_downlevel.obj
 0002:00004514       ??_C@_1M@BJNKEDC@?$AAc?$AAa?$AA?9?$AAE?$AAS?$AA?$AA@ 10023514     libucrt:lcidtoname_downlevel.obj
 0002:00004520       ??_C@_1M@IJJHFJHA@?$AAc?$AAs?$AA?9?$AAC?$AAZ?$AA?$AA@ 10023520     libucrt:lcidtoname_downlevel.obj
 0002:0000452c       ??_C@_1M@CLPEOBGI@?$AAd?$AAa?$AA?9?$AAD?$AAK?$AA?$AA@ 1002352c     libucrt:lcidtoname_downlevel.obj
 0002:00004538       ??_C@_1M@MCMADGCB@?$AAd?$AAe?$AA?9?$AAD?$AAE?$AA?$AA@ 10023538     libucrt:lcidtoname_downlevel.obj
 0002:00004544       ??_C@_1M@OOCKEMAM@?$AAe?$AAl?$AA?9?$AAG?$AAR?$AA?$AA@ 10023544     libucrt:lcidtoname_downlevel.obj
 0002:00004550       ??_C@_1M@DDNJFGID@?$AAf?$AAi?$AA?9?$AAF?$AAI?$AA?$AA@ 10023550     libucrt:lcidtoname_downlevel.obj
 0002:0000455c       ??_C@_1M@GLIPPMAC@?$AAf?$AAr?$AA?9?$AAF?$AAR?$AA?$AA@ 1002355c     libucrt:lcidtoname_downlevel.obj
 0002:00004568       ??_C@_1M@GFMCHPE@?$AAh?$AAe?$AA?9?$AAI?$AAL?$AA?$AA@ 10023568     libucrt:lcidtoname_downlevel.obj
 0002:00004574       ??_C@_1M@MHLPGNKM@?$AAh?$AAu?$AA?9?$AAH?$AAU?$AA?$AA@ 10023574     libucrt:lcidtoname_downlevel.obj
 0002:00004580       ??_C@_1M@LPDDNNPN@?$AAi?$AAs?$AA?9?$AAI?$AAS?$AA?$AA@ 10023580     libucrt:lcidtoname_downlevel.obj
 0002:0000458c       ??_C@_1M@MADIPODN@?$AAi?$AAt?$AA?9?$AAI?$AAT?$AA?$AA@ 1002358c     libucrt:lcidtoname_downlevel.obj
 0002:00004598       ??_C@_1M@IHBJJGG@?$AAn?$AAl?$AA?9?$AAN?$AAL?$AA?$AA@ 10023598     libucrt:lcidtoname_downlevel.obj
 0002:000045a4       ??_C@_1M@EANAGDL@?$AAn?$AAb?$AA?9?$AAN?$AAO?$AA?$AA@ 100235a4     libucrt:lcidtoname_downlevel.obj
 0002:000045b0       ??_C@_1M@NEIEMEGP@?$AAp?$AAl?$AA?9?$AAP?$AAL?$AA?$AA@ 100235b0     libucrt:lcidtoname_downlevel.obj
 0002:000045bc       ??_C@_1M@BOCFIGEP@?$AAp?$AAt?$AA?9?$AAB?$AAR?$AA?$AA@ 100235bc     libucrt:lcidtoname_downlevel.obj
 0002:000045c8       ??_C@_1M@IMPFOPBG@?$AAr?$AAo?$AA?9?$AAR?$AAO?$AA?$AA@ 100235c8     libucrt:lcidtoname_downlevel.obj
 0002:000045d4       ??_C@_1M@IDNNEJMM@?$AAr?$AAu?$AA?9?$AAR?$AAU?$AA?$AA@ 100235d4     libucrt:lcidtoname_downlevel.obj
 0002:000045e0       ??_C@_1M@LILEEOGM@?$AAh?$AAr?$AA?9?$AAH?$AAR?$AA?$AA@ 100235e0     libucrt:lcidtoname_downlevel.obj
 0002:000045ec       ??_C@_1M@FKIFEHPB@?$AAs?$AAk?$AA?9?$AAS?$AAK?$AA?$AA@ 100235ec     libucrt:lcidtoname_downlevel.obj
 0002:000045f8       ??_C@_1M@LJMAMNPJ@?$AAs?$AAq?$AA?9?$AAA?$AAL?$AA?$AA@ 100235f8     libucrt:lcidtoname_downlevel.obj
 0002:00004604       ??_C@_1M@GIAKDKJK@?$AAs?$AAv?$AA?9?$AAS?$AAE?$AA?$AA@ 10023604     libucrt:lcidtoname_downlevel.obj
 0002:00004610       ??_C@_1M@MKJKIKCL@?$AAt?$AAh?$AA?9?$AAT?$AAH?$AA?$AA@ 10023610     libucrt:lcidtoname_downlevel.obj
 0002:0000461c       ??_C@_1M@MFLCCMPB@?$AAt?$AAr?$AA?9?$AAT?$AAR?$AA?$AA@ 1002361c     libucrt:lcidtoname_downlevel.obj
 0002:00004628       ??_C@_1M@OIJHDKJN@?$AAu?$AAr?$AA?9?$AAP?$AAK?$AA?$AA@ 10023628     libucrt:lcidtoname_downlevel.obj
 0002:00004634       ??_C@_1M@LHIPCIEK@?$AAi?$AAd?$AA?9?$AAI?$AAD?$AA?$AA@ 10023634     libucrt:lcidtoname_downlevel.obj
 0002:00004640       ??_C@_1M@MFMOBGI@?$AAu?$AAk?$AA?9?$AAU?$AAA?$AA?$AA@ 10023640     libucrt:lcidtoname_downlevel.obj
 0002:0000464c       ??_C@_1M@OBGLJIPL@?$AAb?$AAe?$AA?9?$AAB?$AAY?$AA?$AA@ 1002364c     libucrt:lcidtoname_downlevel.obj
 0002:00004658       ??_C@_1M@BCFAJEAD@?$AAs?$AAl?$AA?9?$AAS?$AAI?$AA?$AA@ 10023658     libucrt:lcidtoname_downlevel.obj
 0002:00004664       ??_C@_1M@FKFFEDDN@?$AAe?$AAt?$AA?9?$AAE?$AAE?$AA?$AA@ 10023664     libucrt:lcidtoname_downlevel.obj
 0002:00004670       ??_C@_1M@KGKKAACI@?$AAl?$AAv?$AA?9?$AAL?$AAV?$AA?$AA@ 10023670     libucrt:lcidtoname_downlevel.obj
 0002:0000467c       ??_C@_1M@IFGBIJO@?$AAl?$AAt?$AA?9?$AAL?$AAT?$AA?$AA@ 1002367c     libucrt:lcidtoname_downlevel.obj
 0002:00004688       ??_C@_1M@FGEAHEDM@?$AAf?$AAa?$AA?9?$AAI?$AAR?$AA?$AA@ 10023688     libucrt:lcidtoname_downlevel.obj
 0002:00004694       ??_C@_1M@KBMAIBFN@?$AAv?$AAi?$AA?9?$AAV?$AAN?$AA?$AA@ 10023694     libucrt:lcidtoname_downlevel.obj
 0002:000046a0       ??_C@_1M@GPCBKDJK@?$AAh?$AAy?$AA?9?$AAA?$AAM?$AA?$AA@ 100236a0     libucrt:lcidtoname_downlevel.obj
 0002:000046ac       ??_C@_1BG@BECMDDJB@?$AAa?$AAz?$AA?9?$AAA?$AAZ?$AA?9?$AAL?$AAa?$AAt?$AAn?$AA?$AA@ 100236ac     libucrt:lcidtoname_downlevel.obj
 0002:000046c4       ??_C@_1M@MAOFCAEA@?$AAe?$AAu?$AA?9?$AAE?$AAS?$AA?$AA@ 100236c4     libucrt:lcidtoname_downlevel.obj
 0002:000046d0       ??_C@_1M@IGHABKPI@?$AAm?$AAk?$AA?9?$AAM?$AAK?$AA?$AA@ 100236d0     libucrt:lcidtoname_downlevel.obj
 0002:000046dc       ??_C@_1M@IAIGNEJG@?$AAt?$AAn?$AA?9?$AAZ?$AAA?$AA?$AA@ 100236dc     libucrt:lcidtoname_downlevel.obj
 0002:000046e8       ??_C@_1M@IIJCOJFA@?$AAx?$AAh?$AA?9?$AAZ?$AAA?$AA?$AA@ 100236e8     libucrt:lcidtoname_downlevel.obj
 0002:000046f4       ??_C@_1M@LGPJHNJH@?$AAz?$AAu?$AA?9?$AAZ?$AAA?$AA?$AA@ 100236f4     libucrt:lcidtoname_downlevel.obj
 0002:00004700       ??_C@_1M@HOKAOIO@?$AAa?$AAf?$AA?9?$AAZ?$AAA?$AA?$AA@ 10023700     libucrt:lcidtoname_downlevel.obj
 0002:0000470c       ??_C@_1M@DPCLHLIE@?$AAk?$AAa?$AA?9?$AAG?$AAE?$AA?$AA@ 1002370c     libucrt:lcidtoname_downlevel.obj
 0002:00004718       ??_C@_1M@BLKMHJBI@?$AAf?$AAo?$AA?9?$AAF?$AAO?$AA?$AA@ 10023718     libucrt:lcidtoname_downlevel.obj
 0002:00004724       ??_C@_1M@LGGJAPPB@?$AAh?$AAi?$AA?9?$AAI?$AAN?$AA?$AA@ 10023724     libucrt:lcidtoname_downlevel.obj
 0002:00004730       ??_C@_1M@FIKPIHFE@?$AAm?$AAt?$AA?9?$AAM?$AAT?$AA?$AA@ 10023730     libucrt:lcidtoname_downlevel.obj
 0002:0000473c       ??_C@_1M@HEGGPBFA@?$AAs?$AAe?$AA?9?$AAN?$AAO?$AA?$AA@ 1002373c     libucrt:lcidtoname_downlevel.obj
 0002:00004748       ??_C@_1M@EIBJEEPA@?$AAm?$AAs?$AA?9?$AAM?$AAY?$AA?$AA@ 10023748     libucrt:lcidtoname_downlevel.obj
 0002:00004754       ??_C@_1M@FHLBGMPP@?$AAk?$AAk?$AA?9?$AAK?$AAZ?$AA?$AA@ 10023754     libucrt:lcidtoname_downlevel.obj
 0002:00004760       ??_C@_1M@NGJJLCGI@?$AAk?$AAy?$AA?9?$AAK?$AAG?$AA?$AA@ 10023760     libucrt:lcidtoname_downlevel.obj
 0002:0000476c       ??_C@_1M@GIENNBFC@?$AAs?$AAw?$AA?9?$AAK?$AAE?$AA?$AA@ 1002376c     libucrt:lcidtoname_downlevel.obj
 0002:00004778       ??_C@_1BG@NDGMJIMJ@?$AAu?$AAz?$AA?9?$AAU?$AAZ?$AA?9?$AAL?$AAa?$AAt?$AAn?$AA?$AA@ 10023778     libucrt:lcidtoname_downlevel.obj
 0002:00004790       ??_C@_1M@IDCCIHBC@?$AAt?$AAt?$AA?9?$AAR?$AAU?$AA?$AA@ 10023790     libucrt:lcidtoname_downlevel.obj
 0002:0000479c       ??_C@_1M@LOICPMOJ@?$AAb?$AAn?$AA?9?$AAI?$AAN?$AA?$AA@ 1002379c     libucrt:lcidtoname_downlevel.obj
 0002:000047a8       ??_C@_1M@KPKKNEAH@?$AAp?$AAa?$AA?9?$AAI?$AAN?$AA?$AA@ 100237a8     libucrt:lcidtoname_downlevel.obj
 0002:000047b4       ??_C@_1M@PJGPPBOG@?$AAg?$AAu?$AA?9?$AAI?$AAN?$AA?$AA@ 100237b4     libucrt:lcidtoname_downlevel.obj
 0002:000047c0       ??_C@_1M@KMKMOPHI@?$AAt?$AAa?$AA?9?$AAI?$AAN?$AA?$AA@ 100237c0     libucrt:lcidtoname_downlevel.obj
 0002:000047cc       ??_C@_1M@KFEHEPAC@?$AAt?$AAe?$AA?9?$AAI?$AAN?$AA?$AA@ 100237cc     libucrt:lcidtoname_downlevel.obj
 0002:000047d8       ??_C@_1M@CDCLMGHI@?$AAk?$AAn?$AA?9?$AAI?$AAN?$AA?$AA@ 100237d8     libucrt:lcidtoname_downlevel.obj
 0002:000047e4       ??_C@_1M@MIODLDKF@?$AAm?$AAl?$AA?9?$AAI?$AAN?$AA?$AA@ 100237e4     libucrt:lcidtoname_downlevel.obj
 0002:000047f0       ??_C@_1M@PBIEACPO@?$AAm?$AAr?$AA?9?$AAI?$AAN?$AA?$AA@ 100237f0     libucrt:lcidtoname_downlevel.obj
 0002:000047fc       ??_C@_1M@NIDEAGPH@?$AAs?$AAa?$AA?9?$AAI?$AAN?$AA?$AA@ 100237fc     libucrt:lcidtoname_downlevel.obj
 0002:00004808       ??_C@_1M@FHIHCBIO@?$AAm?$AAn?$AA?9?$AAM?$AAN?$AA?$AA@ 10023808     libucrt:lcidtoname_downlevel.obj
 0002:00004814       ??_C@_1M@JAIJPENP@?$AAc?$AAy?$AA?9?$AAG?$AAB?$AA?$AA@ 10023814     libucrt:lcidtoname_downlevel.obj
 0002:00004820       ??_C@_1M@PHGFBEPN@?$AAg?$AAl?$AA?9?$AAE?$AAS?$AA?$AA@ 10023820     libucrt:lcidtoname_downlevel.obj
 0002:0000482c       ??_C@_1O@KPIPDNCP@?$AAk?$AAo?$AAk?$AA?9?$AAI?$AAN?$AA?$AA@ 1002382c     libucrt:lcidtoname_downlevel.obj
 0002:0000483c       ??_C@_1O@KNHJLDJA@?$AAs?$AAy?$AAr?$AA?9?$AAS?$AAY?$AA?$AA@ 1002383c     libucrt:lcidtoname_downlevel.obj
 0002:0000484c       ??_C@_1O@MKEKBLAH@?$AAd?$AAi?$AAv?$AA?9?$AAM?$AAV?$AA?$AA@ 1002384c     libucrt:lcidtoname_downlevel.obj
 0002:0000485c       ??_C@_1O@OHDCKDDF@?$AAq?$AAu?$AAz?$AA?9?$AAB?$AAO?$AA?$AA@ 1002385c     libucrt:lcidtoname_downlevel.obj
 0002:0000486c       ??_C@_1M@LEPJNLFD@?$AAn?$AAs?$AA?9?$AAZ?$AAA?$AA?$AA@ 1002386c     libucrt:lcidtoname_downlevel.obj
 0002:00004878       ??_C@_1M@OMLEIIJB@?$AAm?$AAi?$AA?9?$AAN?$AAZ?$AA?$AA@ 10023878     libucrt:lcidtoname_downlevel.obj
 0002:00004884       ??_C@_1M@PMPEAILG@?$AAa?$AAr?$AA?9?$AAI?$AAQ?$AA?$AA@ 10023884     libucrt:lcidtoname_downlevel.obj
 0002:00004890       ??_C@_1M@CNKPNOEE@?$AAd?$AAe?$AA?9?$AAC?$AAH?$AA?$AA@ 10023890     libucrt:lcidtoname_downlevel.obj
 0002:0000489c       ??_C@_1M@LKMGMLKO@?$AAe?$AAn?$AA?9?$AAG?$AAB?$AA?$AA@ 1002389c     libucrt:lcidtoname_downlevel.obj
 0002:000048a8       ??_C@_1M@PGKJFFGL@?$AAe?$AAs?$AA?9?$AAM?$AAX?$AA?$AA@ 100238a8     libucrt:lcidtoname_downlevel.obj
 0002:000048b4       ??_C@_1M@DNNANBDC@?$AAf?$AAr?$AA?9?$AAB?$AAE?$AA?$AA@ 100238b4     libucrt:lcidtoname_downlevel.obj
 0002:000048c0       ??_C@_1M@HLGMDFHM@?$AAi?$AAt?$AA?9?$AAC?$AAH?$AA?$AA@ 100238c0     libucrt:lcidtoname_downlevel.obj
 0002:000048cc       ??_C@_1M@CLLBGJH@?$AAn?$AAl?$AA?9?$AAB?$AAE?$AA?$AA@ 100238cc     libucrt:lcidtoname_downlevel.obj
 0002:000048d8       ??_C@_1M@BODBOGLF@?$AAn?$AAn?$AA?9?$AAN?$AAO?$AA?$AA@ 100238d8     libucrt:lcidtoname_downlevel.obj
 0002:000048e4       ??_C@_1M@HFFAHKAD@?$AAp?$AAt?$AA?9?$AAP?$AAT?$AA?$AA@ 100238e4     libucrt:lcidtoname_downlevel.obj
 0002:000048f0       ??_C@_1BG@LNOAKHIE@?$AAs?$AAr?$AA?9?$AAS?$AAP?$AA?9?$AAL?$AAa?$AAt?$AAn?$AA?$AA@ 100238f0     libucrt:lcidtoname_downlevel.obj
 0002:00004908       ??_C@_1M@HBMHBGAK@?$AAs?$AAv?$AA?9?$AAF?$AAI?$AA?$AA@ 10023908     libucrt:lcidtoname_downlevel.obj
 0002:00004914       ??_C@_1BG@DGCJGJBE@?$AAa?$AAz?$AA?9?$AAA?$AAZ?$AA?9?$AAC?$AAy?$AAr?$AAl?$AA?$AA@ 10023914     libucrt:lcidtoname_downlevel.obj
 0002:0000492c       ??_C@_1M@KEJDAAHB@?$AAs?$AAe?$AA?9?$AAS?$AAE?$AA?$AA@ 1002392c     libucrt:lcidtoname_downlevel.obj
 0002:00004938       ??_C@_1M@HEIBJJAD@?$AAm?$AAs?$AA?9?$AAB?$AAN?$AA?$AA@ 10023938     libucrt:lcidtoname_downlevel.obj
 0002:00004944       ??_C@_1BG@PBGJMCEM@?$AAu?$AAz?$AA?9?$AAU?$AAZ?$AA?9?$AAC?$AAy?$AAr?$AAl?$AA?$AA@ 10023944     libucrt:lcidtoname_downlevel.obj
 0002:0000495c       ??_C@_1O@LAOBCMDF@?$AAq?$AAu?$AAz?$AA?9?$AAE?$AAC?$AA?$AA@ 1002395c     libucrt:lcidtoname_downlevel.obj
 0002:0000496c       ??_C@_1M@POEEMAIO@?$AAa?$AAr?$AA?9?$AAE?$AAG?$AA?$AA@ 1002396c     libucrt:lcidtoname_downlevel.obj
 0002:00004978       ??_C@_1M@EFAKDEDL@?$AAz?$AAh?$AA?9?$AAH?$AAK?$AA?$AA@ 10023978     libucrt:lcidtoname_downlevel.obj
 0002:00004984       ??_C@_1M@HKKIJHGI@?$AAd?$AAe?$AA?9?$AAA?$AAT?$AA?$AA@ 10023984     libucrt:lcidtoname_downlevel.obj
 0002:00004990       ??_C@_1M@KBFBEHJF@?$AAe?$AAn?$AA?9?$AAA?$AAU?$AA?$AA@ 10023990     libucrt:lcidtoname_downlevel.obj
 0002:0000499c       ??_C@_1M@MNPLFAAH@?$AAe?$AAs?$AA?9?$AAE?$AAS?$AA?$AA@ 1002399c     libucrt:lcidtoname_downlevel.obj
 0002:000049a8       ??_C@_1M@HJOOJFMA@?$AAf?$AAr?$AA?9?$AAC?$AAA?$AA?$AA@ 100239a8     libucrt:lcidtoname_downlevel.obj
 0002:000049b4       ??_C@_1BG@JPOFPNAB@?$AAs?$AAr?$AA?9?$AAS?$AAP?$AA?9?$AAC?$AAy?$AAr?$AAl?$AA?$AA@ 100239b4     libucrt:lcidtoname_downlevel.obj
 0002:000049cc       ??_C@_1M@LNFOCMOB@?$AAs?$AAe?$AA?9?$AAF?$AAI?$AA?$AA@ 100239cc     libucrt:lcidtoname_downlevel.obj
 0002:000049d8       ??_C@_1O@MGJBOAMB@?$AAq?$AAu?$AAz?$AA?9?$AAP?$AAE?$AA?$AA@ 100239d8     libucrt:lcidtoname_downlevel.obj
 0002:000049e8       ??_C@_1M@GJINLBOK@?$AAa?$AAr?$AA?9?$AAL?$AAY?$AA?$AA@ 100239e8     libucrt:lcidtoname_downlevel.obj
 0002:000049f4       ??_C@_1M@GGMNHJNL@?$AAz?$AAh?$AA?9?$AAS?$AAG?$AA?$AA@ 100239f4     libucrt:lcidtoname_downlevel.obj
 0002:00004a00       ??_C@_1M@HOIKODND@?$AAd?$AAe?$AA?9?$AAL?$AAU?$AA?$AA@ 10023a00     libucrt:lcidtoname_downlevel.obj
 0002:00004a0c       ??_C@_1M@DDOCCGFG@?$AAe?$AAn?$AA?9?$AAC?$AAA?$AA?$AA@ 10023a0c     libucrt:lcidtoname_downlevel.obj
 0002:00004a18       ??_C@_1M@BNOEMJLF@?$AAe?$AAs?$AA?9?$AAG?$AAT?$AA?$AA@ 10023a18     libucrt:lcidtoname_downlevel.obj
 0002:00004a24       ??_C@_1M@EOGNKEK@?$AAf?$AAr?$AA?9?$AAC?$AAH?$AA?$AA@ 10023a24     libucrt:lcidtoname_downlevel.obj
 0002:00004a30       ??_C@_1M@FLIDJFHL@?$AAh?$AAr?$AA?9?$AAB?$AAA?$AA?$AA@ 10023a30     libucrt:lcidtoname_downlevel.obj
 0002:00004a3c       ??_C@_1O@FMCELNAJ@?$AAs?$AAm?$AAj?$AA?9?$AAN?$AAO?$AA?$AA@ 10023a3c     libucrt:lcidtoname_downlevel.obj
 0002:00004a4c       ??_C@_1M@JHGLJMGJ@?$AAa?$AAr?$AA?9?$AAD?$AAZ?$AA?$AA@ 10023a4c     libucrt:lcidtoname_downlevel.obj
 0002:00004a58       ??_C@_1M@JKKFDCNP@?$AAz?$AAh?$AA?9?$AAM?$AAO?$AA?$AA@ 10023a58     libucrt:lcidtoname_downlevel.obj
 0002:00004a64       ??_C@_1M@GEEFALPE@?$AAd?$AAe?$AA?9?$AAL?$AAI?$AA?$AA@ 10023a64     libucrt:lcidtoname_downlevel.obj
 0002:00004a70       ??_C@_1M@IGEOFBG@?$AAe?$AAn?$AA?9?$AAN?$AAZ?$AA?$AA@ 10023a70     libucrt:lcidtoname_downlevel.obj
 0002:00004a7c       ??_C@_1M@KDBONEHP@?$AAe?$AAs?$AA?9?$AAC?$AAR?$AA?$AA@ 10023a7c     libucrt:lcidtoname_downlevel.obj
 0002:00004a88       ??_C@_1M@FHMDOHNN@?$AAf?$AAr?$AA?9?$AAL?$AAU?$AA?$AA@ 10023a88     libucrt:lcidtoname_downlevel.obj
 0002:00004a94       ??_C@_1BG@NFKKMAFG@?$AAb?$AAs?$AA?9?$AAB?$AAA?$AA?9?$AAL?$AAa?$AAt?$AAn?$AA?$AA@ 10023a94     libucrt:lcidtoname_downlevel.obj
 0002:00004aac       ??_C@_1O@IMNBEMCI@?$AAs?$AAm?$AAj?$AA?9?$AAS?$AAE?$AA?$AA@ 10023aac     libucrt:lcidtoname_downlevel.obj
 0002:00004abc       ??_C@_1M@DHHMBNDP@?$AAa?$AAr?$AA?9?$AAM?$AAA?$AA?$AA@ 10023abc     libucrt:lcidtoname_downlevel.obj
 0002:00004ac8       ??_C@_1M@BNBLJCGH@?$AAe?$AAn?$AA?9?$AAI?$AAE?$AA?$AA@ 10023ac8     libucrt:lcidtoname_downlevel.obj
 0002:00004ad4       ??_C@_1M@GEPAFMDL@?$AAe?$AAs?$AA?9?$AAP?$AAA?$AA?$AA@ 10023ad4     libucrt:lcidtoname_downlevel.obj
 0002:00004ae0       ??_C@_1M@OJONDMDL@?$AAf?$AAr?$AA?9?$AAM?$AAC?$AA?$AA@ 10023ae0     libucrt:lcidtoname_downlevel.obj
 0002:00004aec       ??_C@_1BG@OBCNFJB@?$AAs?$AAr?$AA?9?$AAB?$AAA?$AA?9?$AAL?$AAa?$AAt?$AAn?$AA?$AA@ 10023aec     libucrt:lcidtoname_downlevel.obj
 0002:00004b04       ??_C@_1O@KEMEEGPO@?$AAs?$AAm?$AAa?$AA?9?$AAN?$AAO?$AA?$AA@ 10023b04     libucrt:lcidtoname_downlevel.obj
 0002:00004b14       ??_C@_1M@ELMGFODK@?$AAa?$AAr?$AA?9?$AAT?$AAN?$AA?$AA@ 10023b14     libucrt:lcidtoname_downlevel.obj
 0002:00004b20       ??_C@_1M@BHDLHFAF@?$AAe?$AAn?$AA?9?$AAZ?$AAA?$AA?$AA@ 10023b20     libucrt:lcidtoname_downlevel.obj
 0002:00004b2c       ??_C@_1M@BMGIGLIF@?$AAe?$AAs?$AA?9?$AAD?$AAO?$AA?$AA@ 10023b2c     libucrt:lcidtoname_downlevel.obj
 0002:00004b38       ??_C@_1BG@CMBHIPBE@?$AAs?$AAr?$AA?9?$AAB?$AAA?$AA?9?$AAC?$AAy?$AAr?$AAl?$AA?$AA@ 10023b38     libucrt:lcidtoname_downlevel.obj
 0002:00004b50       ??_C@_1O@HEDBLHNP@?$AAs?$AAm?$AAa?$AA?9?$AAS?$AAE?$AA?$AA@ 10023b50     libucrt:lcidtoname_downlevel.obj
 0002:00004b60       ??_C@_1M@DAGCADIM@?$AAa?$AAr?$AA?9?$AAO?$AAM?$AA?$AA@ 10023b60     libucrt:lcidtoname_downlevel.obj
 0002:00004b6c       ??_C@_1M@FODLMICG@?$AAe?$AAn?$AA?9?$AAJ?$AAM?$AA?$AA@ 10023b6c     libucrt:lcidtoname_downlevel.obj
 0002:00004b78       ??_C@_1M@DNMLCIHB@?$AAe?$AAs?$AA?9?$AAV?$AAE?$AA?$AA@ 10023b78     libucrt:lcidtoname_downlevel.obj
 0002:00004b84       ??_C@_1O@EOKHMKJK@?$AAs?$AAm?$AAs?$AA?9?$AAF?$AAI?$AA?$AA@ 10023b84     libucrt:lcidtoname_downlevel.obj
 0002:00004b94       ??_C@_1M@CAFJMKOF@?$AAa?$AAr?$AA?9?$AAY?$AAE?$AA?$AA@ 10023b94     libucrt:lcidtoname_downlevel.obj
 0002:00004ba0       ??_C@_1M@CBFHIJLI@?$AAe?$AAn?$AA?9?$AAC?$AAB?$AA?$AA@ 10023ba0     libucrt:lcidtoname_downlevel.obj
 0002:00004bac       ??_C@_1M@BGNFLDN@?$AAe?$AAs?$AA?9?$AAC?$AAO?$AA?$AA@ 10023bac     libucrt:lcidtoname_downlevel.obj
 0002:00004bb8       ??_C@_1O@JMPHMAMC@?$AAs?$AAm?$AAn?$AA?9?$AAF?$AAI?$AA?$AA@ 10023bb8     libucrt:lcidtoname_downlevel.obj
 0002:00004bc8       ??_C@_1M@JLANABKE@?$AAa?$AAr?$AA?9?$AAS?$AAY?$AA?$AA@ 10023bc8     libucrt:lcidtoname_downlevel.obj
 0002:00004bd4       ??_C@_1M@HPKGCFGN@?$AAe?$AAn?$AA?9?$AAB?$AAZ?$AA?$AA@ 10023bd4     libucrt:lcidtoname_downlevel.obj
 0002:00004be0       ??_C@_1M@OLJCMLGM@?$AAe?$AAs?$AA?9?$AAP?$AAE?$AA?$AA@ 10023be0     libucrt:lcidtoname_downlevel.obj
 0002:00004bec       ??_C@_1M@MKKGFKLE@?$AAa?$AAr?$AA?9?$AAJ?$AAO?$AA?$AA@ 10023bec     libucrt:lcidtoname_downlevel.obj
 0002:00004bf8       ??_C@_1M@EKPGLDNI@?$AAe?$AAn?$AA?9?$AAT?$AAT?$AA?$AA@ 10023bf8     libucrt:lcidtoname_downlevel.obj
 0002:00004c04       ??_C@_1M@OONGHFHE@?$AAe?$AAs?$AA?9?$AAA?$AAR?$AA?$AA@ 10023c04     libucrt:lcidtoname_downlevel.obj
 0002:00004c10       ??_C@_1M@OOJFGBHE@?$AAa?$AAr?$AA?9?$AAL?$AAB?$AA?$AA@ 10023c10     libucrt:lcidtoname_downlevel.obj
 0002:00004c1c       ??_C@_1M@GCEJHNEG@?$AAe?$AAn?$AA?9?$AAZ?$AAW?$AA?$AA@ 10023c1c     libucrt:lcidtoname_downlevel.obj
 0002:00004c28       ??_C@_1M@JNOCAHJI@?$AAe?$AAs?$AA?9?$AAE?$AAC?$AA?$AA@ 10023c28     libucrt:lcidtoname_downlevel.obj
 0002:00004c34       ??_C@_1M@JEFHPGGB@?$AAa?$AAr?$AA?9?$AAK?$AAW?$AA?$AA@ 10023c34     libucrt:lcidtoname_downlevel.obj
 0002:00004c40       ??_C@_1M@MLKIBJOJ@?$AAe?$AAn?$AA?9?$AAP?$AAH?$AA?$AA@ 10023c40     libucrt:lcidtoname_downlevel.obj
 0002:00004c4c       ??_C@_1M@BDNIPEND@?$AAe?$AAs?$AA?9?$AAC?$AAL?$AA?$AA@ 10023c4c     libucrt:lcidtoname_downlevel.obj
 0002:00004c58       ??_C@_1M@MPNMEKBD@?$AAa?$AAr?$AA?9?$AAA?$AAE?$AA?$AA@ 10023c58     libucrt:lcidtoname_downlevel.obj
 0002:00004c64       ??_C@_1M@KBJALCPI@?$AAe?$AAs?$AA?9?$AAU?$AAY?$AA?$AA@ 10023c64     libucrt:lcidtoname_downlevel.obj
 0002:00004c70       ??_C@_1M@LLCCOAGA@?$AAa?$AAr?$AA?9?$AAB?$AAH?$AA?$AA@ 10023c70     libucrt:lcidtoname_downlevel.obj
 0002:00004c7c       ??_C@_1M@PBFNCDEL@?$AAe?$AAs?$AA?9?$AAP?$AAY?$AA?$AA@ 10023c7c     libucrt:lcidtoname_downlevel.obj
 0002:00004c88       ??_C@_1M@EDGINPNP@?$AAa?$AAr?$AA?9?$AAQ?$AAA?$AA?$AA@ 10023c88     libucrt:lcidtoname_downlevel.obj
 0002:00004c94       ??_C@_1M@MKDBIIJI@?$AAe?$AAs?$AA?9?$AAB?$AAO?$AA?$AA@ 10023c94     libucrt:lcidtoname_downlevel.obj
 0002:00004ca0       ??_C@_1M@CPKKEBLD@?$AAe?$AAs?$AA?9?$AAS?$AAV?$AA?$AA@ 10023ca0     libucrt:lcidtoname_downlevel.obj
 0002:00004cac       ??_C@_1M@NDBGMMJL@?$AAe?$AAs?$AA?9?$AAH?$AAN?$AA?$AA@ 10023cac     libucrt:lcidtoname_downlevel.obj
 0002:00004cb8       ??_C@_1M@JIJIBHDP@?$AAe?$AAs?$AA?9?$AAN?$AAI?$AA?$AA@ 10023cb8     libucrt:lcidtoname_downlevel.obj
 0002:00004cc4       ??_C@_1M@CGFMKEEK@?$AAe?$AAs?$AA?9?$AAP?$AAR?$AA?$AA@ 10023cc4     libucrt:lcidtoname_downlevel.obj
 0002:00004cd0       ??_C@_1O@ICJHKIIK@?$AAz?$AAh?$AA?9?$AAC?$AAH?$AAT?$AA?$AA@ 10023cd0     libucrt:lcidtoname_downlevel.obj
 0002:00004ce0       ??_C@_15CLNEJCE@?$AAs?$AAr?$AA?$AA@ 10023ce0     libucrt:lcidtoname_downlevel.obj
 0002:00005408       ??_C@_1M@KAHEKEIG@?$AAa?$AAf?$AA?9?$AAz?$AAa?$AA?$AA@ 10024408     libucrt:lcidtoname_downlevel.obj
 0002:00005414       ??_C@_1M@GIECOABL@?$AAa?$AAr?$AA?9?$AAa?$AAe?$AA?$AA@ 10024414     libucrt:lcidtoname_downlevel.obj
 0002:00005420       ??_C@_1M@BMLMEKGI@?$AAa?$AAr?$AA?9?$AAb?$AAh?$AA?$AA@ 10024420     libucrt:lcidtoname_downlevel.obj
 0002:0000542c       ??_C@_1M@DAPFDGGB@?$AAa?$AAr?$AA?9?$AAd?$AAz?$AA?$AA@ 1002442c     libucrt:lcidtoname_downlevel.obj
 0002:00005438       ??_C@_1M@FJNKGKIG@?$AAa?$AAr?$AA?9?$AAe?$AAg?$AA?$AA@ 10024438     libucrt:lcidtoname_downlevel.obj
 0002:00005444       ??_C@_1M@FLGKKCLO@?$AAa?$AAr?$AA?9?$AAi?$AAq?$AA?$AA@ 10024444     libucrt:lcidtoname_downlevel.obj
 0002:00005450       ??_C@_1M@GNDIPALM@?$AAa?$AAr?$AA?9?$AAj?$AAo?$AA?$AA@ 10024450     libucrt:lcidtoname_downlevel.obj
 0002:0000545c       ??_C@_1M@DDMJFMGJ@?$AAa?$AAr?$AA?9?$AAk?$AAw?$AA?$AA@ 1002445c     libucrt:lcidtoname_downlevel.obj
 0002:00005468       ??_C@_1M@EJALMLHM@?$AAa?$AAr?$AA?9?$AAl?$AAb?$AA?$AA@ 10024468     libucrt:lcidtoname_downlevel.obj
 0002:00005474       ??_C@_1M@MOBDBLOC@?$AAa?$AAr?$AA?9?$AAl?$AAy?$AA?$AA@ 10024474     libucrt:lcidtoname_downlevel.obj
 0002:00005480       ??_C@_1M@JAOCLHDH@?$AAa?$AAr?$AA?9?$AAm?$AAa?$AA?$AA@ 10024480     libucrt:lcidtoname_downlevel.obj
 0002:0000548c       ??_C@_1M@JHPMKJIE@?$AAa?$AAr?$AA?9?$AAo?$AAm?$AA?$AA@ 1002448c     libucrt:lcidtoname_downlevel.obj
 0002:00005498       ??_C@_1M@OEPGHFNH@?$AAa?$AAr?$AA?9?$AAq?$AAa?$AA?$AA@ 10024498     libucrt:lcidtoname_downlevel.obj
 0002:000054a4       ??_C@_1M@KJDONENM@?$AAa?$AAr?$AA?9?$AAs?$AAa?$AA?$AA@ 100244a4     libucrt:lcidtoname_downlevel.obj
 0002:000054b0       ??_C@_1M@DMJDKLKM@?$AAa?$AAr?$AA?9?$AAs?$AAy?$AA?$AA@ 100244b0     libucrt:lcidtoname_downlevel.obj
 0002:000054bc       ??_C@_1M@OMFIPEDC@?$AAa?$AAr?$AA?9?$AAt?$AAn?$AA?$AA@ 100244bc     libucrt:lcidtoname_downlevel.obj
 0002:000054c8       ??_C@_1M@IHMHGAON@?$AAa?$AAr?$AA?9?$AAy?$AAe?$AA?$AA@ 100244c8     libucrt:lcidtoname_downlevel.obj
 0002:000054d4       ??_C@_1BG@KDCPGJGB@?$AAa?$AAz?$AA?9?$AAa?$AAz?$AA?9?$AAc?$AAy?$AAr?$AAl?$AA?$AA@ 100244d4     libucrt:lcidtoname_downlevel.obj
 0002:000054ec       ??_C@_1BG@IBCKDDOE@?$AAa?$AAz?$AA?9?$AAa?$AAz?$AA?9?$AAl?$AAa?$AAt?$AAn?$AA?$AA@ 100244ec     libucrt:lcidtoname_downlevel.obj
 0002:00005504       ??_C@_1M@EGPFDCPD@?$AAb?$AAe?$AA?9?$AAb?$AAy?$AA?$AA@ 10024504     libucrt:lcidtoname_downlevel.obj
 0002:00005510       ??_C@_1M@PCMGMCGC@?$AAb?$AAg?$AA?9?$AAb?$AAg?$AA?$AA@ 10024510     libucrt:lcidtoname_downlevel.obj
 0002:0000551c       ??_C@_1M@BJBMFGOB@?$AAb?$AAn?$AA?9?$AAi?$AAn?$AA?$AA@ 1002451c     libucrt:lcidtoname_downlevel.obj
 0002:00005528       ??_C@_1BG@EAKMMACD@?$AAb?$AAs?$AA?9?$AAb?$AAa?$AA?9?$AAl?$AAa?$AAt?$AAn?$AA?$AA@ 10024528     libucrt:lcidtoname_downlevel.obj
 0002:00005540       ??_C@_1M@KGADAODK@?$AAc?$AAa?$AA?9?$AAe?$AAs?$AA?$AA@ 10024540     libucrt:lcidtoname_downlevel.obj
 0002:0000554c       ??_C@_1M@COAJPDHI@?$AAc?$AAs?$AA?9?$AAc?$AAz?$AA?$AA@ 1002454c     libucrt:lcidtoname_downlevel.obj
 0002:00005558       ??_C@_1M@DHBHFONH@?$AAc?$AAy?$AA?9?$AAg?$AAb?$AA?$AA@ 10024558     libucrt:lcidtoname_downlevel.obj
 0002:00005564       ??_C@_1M@IMGKELGA@?$AAd?$AAa?$AA?9?$AAd?$AAk?$AA?$AA@ 10024564     libucrt:lcidtoname_downlevel.obj
 0002:00005570       ??_C@_1M@NNDGDNGA@?$AAd?$AAe?$AA?9?$AAa?$AAt?$AA?$AA@ 10024570     libucrt:lcidtoname_downlevel.obj
 0002:0000557c       ??_C@_1M@IKDBHEEM@?$AAd?$AAe?$AA?9?$AAc?$AAh?$AA?$AA@ 1002457c     libucrt:lcidtoname_downlevel.obj
 0002:00005588       ??_C@_1M@GFFOJMCJ@?$AAd?$AAe?$AA?9?$AAd?$AAe?$AA?$AA@ 10024588     libucrt:lcidtoname_downlevel.obj
 0002:00005594       ??_C@_1M@MDNLKBPM@?$AAd?$AAe?$AA?9?$AAl?$AAi?$AA?$AA@ 10024594     libucrt:lcidtoname_downlevel.obj
 0002:000055a0       ??_C@_1M@NJBEEJNL@?$AAd?$AAe?$AA?9?$AAl?$AAu?$AA?$AA@ 100245a0     libucrt:lcidtoname_downlevel.obj
 0002:000055ac       ??_C@_1O@GNNELBAP@?$AAd?$AAi?$AAv?$AA?9?$AAm?$AAv?$AA?$AA@ 100245ac     libucrt:lcidtoname_downlevel.obj
 0002:000055bc       ??_C@_1M@EJLEOGAE@?$AAe?$AAl?$AA?9?$AAg?$AAr?$AA?$AA@ 100245bc     libucrt:lcidtoname_downlevel.obj
 0002:000055c8       ??_C@_1M@GMPONJN@?$AAe?$AAn?$AA?9?$AAa?$AAu?$AA?$AA@ 100245c8     libucrt:lcidtoname_downlevel.obj
 0002:000055d4       ??_C@_1M@NIDIIPGF@?$AAe?$AAn?$AA?9?$AAb?$AAz?$AA?$AA@ 100245d4     libucrt:lcidtoname_downlevel.obj
 0002:000055e0       ??_C@_1M@JEHMIMFO@?$AAe?$AAn?$AA?9?$AAc?$AAa?$AA?$AA@ 100245e0     libucrt:lcidtoname_downlevel.obj
 0002:000055ec       ??_C@_1M@IGMJCDLA@?$AAe?$AAn?$AA?9?$AAc?$AAb?$AA?$AA@ 100245ec     libucrt:lcidtoname_downlevel.obj
 0002:000055f8       ??_C@_1M@BNFIGBKG@?$AAe?$AAn?$AA?9?$AAg?$AAb?$AA?$AA@ 100245f8     libucrt:lcidtoname_downlevel.obj
 0002:00005604       ??_C@_1M@LKIFDIGP@?$AAe?$AAn?$AA?9?$AAi?$AAe?$AA?$AA@ 10024604     libucrt:lcidtoname_downlevel.obj
 0002:00005610       ??_C@_1M@PJKFGCCO@?$AAe?$AAn?$AA?9?$AAj?$AAm?$AA?$AA@ 10024610     libucrt:lcidtoname_downlevel.obj
 0002:0000561c       ??_C@_1M@KPPKEPBO@?$AAe?$AAn?$AA?9?$AAn?$AAz?$AA?$AA@ 1002461c     libucrt:lcidtoname_downlevel.obj
 0002:00005628       ??_C@_1M@GMDGLDOB@?$AAe?$AAn?$AA?9?$AAp?$AAh?$AA?$AA@ 10024628     libucrt:lcidtoname_downlevel.obj
 0002:00005634       ??_C@_1M@ONGIBJNA@?$AAe?$AAn?$AA?9?$AAt?$AAt?$AA?$AA@ 10024634     libucrt:lcidtoname_downlevel.obj
 0002:00005640       ??_C@_1M@LLODPCMM@?$AAe?$AAn?$AA?9?$AAu?$AAs?$AA?$AA@ 10024640     libucrt:lcidtoname_downlevel.obj
 0002:0000564c       ??_C@_1M@LAKFNPAN@?$AAe?$AAn?$AA?9?$AAz?$AAa?$AA?$AA@ 1002464c     libucrt:lcidtoname_downlevel.obj
 0002:00005658       ??_C@_1M@MFNHNHEO@?$AAe?$AAn?$AA?9?$AAz?$AAw?$AA?$AA@ 10024658     libucrt:lcidtoname_downlevel.obj
 0002:00005664       ??_C@_1M@EJEINPHM@?$AAe?$AAs?$AA?9?$AAa?$AAr?$AA?$AA@ 10024664     libucrt:lcidtoname_downlevel.obj
 0002:00005670       ??_C@_1M@GNKPCCJA@?$AAe?$AAs?$AA?9?$AAb?$AAo?$AA?$AA@ 10024670     libucrt:lcidtoname_downlevel.obj
 0002:0000567c       ??_C@_1M@LEEGFONL@?$AAe?$AAs?$AA?9?$AAc?$AAl?$AA?$AA@ 1002467c     libucrt:lcidtoname_downlevel.obj
 0002:00005688       ??_C@_1M@KGPDPBDF@?$AAe?$AAs?$AA?9?$AAc?$AAo?$AA?$AA@ 10024688     libucrt:lcidtoname_downlevel.obj
 0002:00005694       ??_C@_1M@EIAHOHH@?$AAe?$AAs?$AA?9?$AAc?$AAr?$AA?$AA@ 10024694     libucrt:lcidtoname_downlevel.obj
 0002:000056a0       ??_C@_1M@LLPGMBIN@?$AAe?$AAs?$AA?9?$AAd?$AAo?$AA?$AA@ 100246a0     libucrt:lcidtoname_downlevel.obj
 0002:000056ac       ??_C@_1M@DKHMKNJA@?$AAe?$AAs?$AA?9?$AAe?$AAc?$AA?$AA@ 100246ac     libucrt:lcidtoname_downlevel.obj
 0002:000056b8       ??_C@_1M@GKGFPKAP@?$AAe?$AAs?$AA?9?$AAe?$AAs?$AA?$AA@ 100246b8     libucrt:lcidtoname_downlevel.obj
 0002:000056c4       ??_C@_1M@LKHKGDLN@?$AAe?$AAs?$AA?9?$AAg?$AAt?$AA?$AA@ 100246c4     libucrt:lcidtoname_downlevel.obj
 0002:000056d0       ??_C@_1M@HEIIGGJD@?$AAe?$AAs?$AA?9?$AAh?$AAn?$AA?$AA@ 100246d0     libucrt:lcidtoname_downlevel.obj
 0002:000056dc       ??_C@_1M@FBDHPPGD@?$AAe?$AAs?$AA?9?$AAm?$AAx?$AA?$AA@ 100246dc     libucrt:lcidtoname_downlevel.obj
 0002:000056e8       ??_C@_1M@DPAGLNDH@?$AAe?$AAs?$AA?9?$AAn?$AAi?$AA?$AA@ 100246e8     libucrt:lcidtoname_downlevel.obj
 0002:000056f4       ??_C@_1M@MDGOPGDD@?$AAe?$AAs?$AA?9?$AAp?$AAa?$AA?$AA@ 100246f4     libucrt:lcidtoname_downlevel.obj
 0002:00005700       ??_C@_1M@EMAMGBGE@?$AAe?$AAs?$AA?9?$AAp?$AAe?$AA?$AA@ 10024700     libucrt:lcidtoname_downlevel.obj
 0002:0000570c       ??_C@_1M@IBMCAOEC@?$AAe?$AAs?$AA?9?$AAp?$AAr?$AA?$AA@ 1002470c     libucrt:lcidtoname_downlevel.obj
 0002:00005718       ??_C@_1M@FGMDIJED@?$AAe?$AAs?$AA?9?$AAp?$AAy?$AA?$AA@ 10024718     libucrt:lcidtoname_downlevel.obj
 0002:00005724       ??_C@_1M@IIDEOLLL@?$AAe?$AAs?$AA?9?$AAs?$AAv?$AA?$AA@ 10024724     libucrt:lcidtoname_downlevel.obj
 0002:00005730       ??_C@_1M@GAOBIPA@?$AAe?$AAs?$AA?9?$AAu?$AAy?$AA?$AA@ 10024730     libucrt:lcidtoname_downlevel.obj
 0002:0000573c       ??_C@_1M@JKFFICHJ@?$AAe?$AAs?$AA?9?$AAv?$AAe?$AA?$AA@ 1002473c     libucrt:lcidtoname_downlevel.obj
 0002:00005748       ??_C@_1M@PNMLOJDF@?$AAe?$AAt?$AA?9?$AAe?$AAe?$AA?$AA@ 10024748     libucrt:lcidtoname_downlevel.obj
 0002:00005754       ??_C@_1M@GHHLIKEI@?$AAe?$AAu?$AA?9?$AAe?$AAs?$AA?$AA@ 10024754     libucrt:lcidtoname_downlevel.obj
 0002:00005760       ??_C@_1M@PBNONODE@?$AAf?$AAa?$AA?9?$AAi?$AAr?$AA?$AA@ 10024760     libucrt:lcidtoname_downlevel.obj
 0002:0000576c       ??_C@_1M@JEEHPMIL@?$AAf?$AAi?$AA?9?$AAf?$AAi?$AA?$AA@ 1002476c     libucrt:lcidtoname_downlevel.obj
 0002:00005778       ??_C@_1M@LMDCNDBA@?$AAf?$AAo?$AA?9?$AAf?$AAo?$AA?$AA@ 10024778     libucrt:lcidtoname_downlevel.obj
 0002:00005784       ??_C@_1M@JKEOHLDK@?$AAf?$AAr?$AA?9?$AAb?$AAe?$AA?$AA@ 10024784     libucrt:lcidtoname_downlevel.obj
 0002:00005790       ??_C@_1M@NOHADPMI@?$AAf?$AAr?$AA?9?$AAc?$AAa?$AA?$AA@ 10024790     libucrt:lcidtoname_downlevel.obj
 0002:0000579c       ??_C@_1M@KDHIHAEC@?$AAf?$AAr?$AA?9?$AAc?$AAh?$AA?$AA@ 1002479c     libucrt:lcidtoname_downlevel.obj
 0002:000057a8       ??_C@_1M@MMBBFGAK@?$AAf?$AAr?$AA?9?$AAf?$AAr?$AA?$AA@ 100247a8     libucrt:lcidtoname_downlevel.obj
 0002:000057b4       ??_C@_1M@PAFNENNF@?$AAf?$AAr?$AA?9?$AAl?$AAu?$AA?$AA@ 100247b4     libucrt:lcidtoname_downlevel.obj
 0002:000057c0       ??_C@_1M@EOHDJGDD@?$AAf?$AAr?$AA?9?$AAm?$AAc?$AA?$AA@ 100247c0     libucrt:lcidtoname_downlevel.obj
 0002:000057cc       ??_C@_1M@FAPLLOPF@?$AAg?$AAl?$AA?9?$AAe?$AAs?$AA?$AA@ 100247cc     libucrt:lcidtoname_downlevel.obj
 0002:000057d8       ??_C@_1M@FOPBFLOO@?$AAg?$AAu?$AA?9?$AAi?$AAn?$AA?$AA@ 100247d8     libucrt:lcidtoname_downlevel.obj
 0002:000057e4       ??_C@_1M@KBMCINPM@?$AAh?$AAe?$AA?9?$AAi?$AAl?$AA?$AA@ 100247e4     libucrt:lcidtoname_downlevel.obj
 0002:000057f0       ??_C@_1M@BBPHKFPJ@?$AAh?$AAi?$AA?9?$AAi?$AAn?$AA?$AA@ 100247f0     libucrt:lcidtoname_downlevel.obj
 0002:000057fc       ??_C@_1M@PMBNDPHD@?$AAh?$AAr?$AA?9?$AAb?$AAa?$AA?$AA@ 100247fc     libucrt:lcidtoname_downlevel.obj
 0002:00005808       ??_C@_1M@BPCKOEGE@?$AAh?$AAr?$AA?9?$AAh?$AAr?$AA?$AA@ 10024808     libucrt:lcidtoname_downlevel.obj
 0002:00005814       ??_C@_1M@GACBMHKE@?$AAh?$AAu?$AA?9?$AAh?$AAu?$AA?$AA@ 10024814     libucrt:lcidtoname_downlevel.obj
 0002:00005820       ??_C@_1M@MILPAJJC@?$AAh?$AAy?$AA?9?$AAa?$AAm?$AA?$AA@ 10024820     libucrt:lcidtoname_downlevel.obj
 0002:0000582c       ??_C@_1M@BABBICEC@?$AAi?$AAd?$AA?9?$AAi?$AAd?$AA?$AA@ 1002482c     libucrt:lcidtoname_downlevel.obj
 0002:00005838       ??_C@_1M@BIKNHHPF@?$AAi?$AAs?$AA?9?$AAi?$AAs?$AA?$AA@ 10024838     libucrt:lcidtoname_downlevel.obj
 0002:00005844       ??_C@_1M@NMPCJPHE@?$AAi?$AAt?$AA?9?$AAc?$AAh?$AA?$AA@ 10024844     libucrt:lcidtoname_downlevel.obj
 0002:00005850       ??_C@_1M@GHKGFEDF@?$AAi?$AAt?$AA?9?$AAi?$AAt?$AA?$AA@ 10024850     libucrt:lcidtoname_downlevel.obj
 0002:0000585c       ??_C@_1M@NIEJCJJA@?$AAj?$AAa?$AA?9?$AAj?$AAp?$AA?$AA@ 1002485c     libucrt:lcidtoname_downlevel.obj
 0002:00005868       ??_C@_1M@JILFNBIM@?$AAk?$AAa?$AA?9?$AAg?$AAe?$AA?$AA@ 10024868     libucrt:lcidtoname_downlevel.obj
 0002:00005874       ??_C@_1M@PACPMGPH@?$AAk?$AAk?$AA?9?$AAk?$AAz?$AA?$AA@ 10024874     libucrt:lcidtoname_downlevel.obj
 0002:00005880       ??_C@_1M@IELFGMHA@?$AAk?$AAn?$AA?9?$AAi?$AAn?$AA?$AA@ 10024880     libucrt:lcidtoname_downlevel.obj
 0002:0000588c       ??_C@_1O@IBBJHCH@?$AAk?$AAo?$AAk?$AA?9?$AAi?$AAn?$AA?$AA@ 1002488c     libucrt:lcidtoname_downlevel.obj
 0002:0000589c       ??_C@_1M@DMHAEOGC@?$AAk?$AAo?$AA?9?$AAk?$AAr?$AA?$AA@ 1002489c     libucrt:lcidtoname_downlevel.obj
 0002:000058a8       ??_C@_1M@HBAHBIGA@?$AAk?$AAy?$AA?9?$AAk?$AAg?$AA?$AA@ 100248a8     libucrt:lcidtoname_downlevel.obj
 0002:000058b4       ??_C@_1M@KPMILCJG@?$AAl?$AAt?$AA?9?$AAl?$AAt?$AA?$AA@ 100248b4     libucrt:lcidtoname_downlevel.obj
 0002:000058c0       ??_C@_1M@BDEKKCA@?$AAl?$AAv?$AA?9?$AAl?$AAv?$AA?$AA@ 100248c0     libucrt:lcidtoname_downlevel.obj
 0002:000058cc       ??_C@_1M@ELCKCCJJ@?$AAm?$AAi?$AA?9?$AAn?$AAz?$AA?$AA@ 100248cc     libucrt:lcidtoname_downlevel.obj
 0002:000058d8       ??_C@_1M@CBOOLAPA@?$AAm?$AAk?$AA?9?$AAm?$AAk?$AA?$AA@ 100248d8     libucrt:lcidtoname_downlevel.obj
 0002:000058e4       ??_C@_1M@GPHNBJKN@?$AAm?$AAl?$AA?9?$AAi?$AAn?$AA?$AA@ 100248e4     libucrt:lcidtoname_downlevel.obj
 0002:000058f0       ??_C@_1M@PABJILIG@?$AAm?$AAn?$AA?9?$AAm?$AAn?$AA?$AA@ 100248f0     libucrt:lcidtoname_downlevel.obj
 0002:000058fc       ??_C@_1M@FGBKKIPG@?$AAm?$AAr?$AA?9?$AAi?$AAn?$AA?$AA@ 100248fc     libucrt:lcidtoname_downlevel.obj
 0002:00005908       ??_C@_1M@NDBPDDAL@?$AAm?$AAs?$AA?9?$AAb?$AAn?$AA?$AA@ 10024908     libucrt:lcidtoname_downlevel.obj
 0002:00005914       ??_C@_1M@OPIHOOPI@?$AAm?$AAs?$AA?9?$AAm?$AAy?$AA?$AA@ 10024914     libucrt:lcidtoname_downlevel.obj
 0002:00005920       ??_C@_1M@PPDBCNFM@?$AAm?$AAt?$AA?9?$AAm?$AAt?$AA?$AA@ 10024920     libucrt:lcidtoname_downlevel.obj
 0002:0000592c       ??_C@_1M@KDJDKMDD@?$AAn?$AAb?$AA?9?$AAn?$AAo?$AA?$AA@ 1002492c     libucrt:lcidtoname_downlevel.obj
 0002:00005938       ??_C@_1M@KFCFLMJP@?$AAn?$AAl?$AA?9?$AAb?$AAe?$AA?$AA@ 10024938     libucrt:lcidtoname_downlevel.obj
 0002:00005944       ??_C@_1M@KPOPDDGO@?$AAn?$AAl?$AA?9?$AAn?$AAl?$AA?$AA@ 10024944     libucrt:lcidtoname_downlevel.obj
 0002:00005950       ??_C@_1M@LJKPEMLN@?$AAn?$AAn?$AA?9?$AAn?$AAo?$AA?$AA@ 10024950     libucrt:lcidtoname_downlevel.obj
 0002:0000595c       ??_C@_1M@BDGHHBFL@?$AAn?$AAs?$AA?9?$AAz?$AAa?$AA?$AA@ 1002495c     libucrt:lcidtoname_downlevel.obj
 0002:00005968       ??_C@_1M@IDEHOAP@?$AAp?$AAa?$AA?9?$AAi?$AAn?$AA?$AA@ 10024968     libucrt:lcidtoname_downlevel.obj
 0002:00005974       ??_C@_1M@HDBKGOGH@?$AAp?$AAl?$AA?9?$AAp?$AAl?$AA?$AA@ 10024974     libucrt:lcidtoname_downlevel.obj
 0002:00005980       ??_C@_1M@LJLLCMEH@?$AAp?$AAt?$AA?9?$AAb?$AAr?$AA?$AA@ 10024980     libucrt:lcidtoname_downlevel.obj
 0002:0000598c       ??_C@_1M@NCMONAAL@?$AAp?$AAt?$AA?9?$AAp?$AAt?$AA?$AA@ 1002498c     libucrt:lcidtoname_downlevel.obj
 0002:00005998       ??_C@_1O@EAKMAJDN@?$AAq?$AAu?$AAz?$AA?9?$AAb?$AAo?$AA?$AA@ 10024998     libucrt:lcidtoname_downlevel.obj
 0002:000059a8       ??_C@_1O@BHHPIGDN@?$AAq?$AAu?$AAz?$AA?9?$AAe?$AAc?$AA?$AA@ 100249a8     libucrt:lcidtoname_downlevel.obj
 0002:000059b8       ??_C@_1O@GBAPEKMJ@?$AAq?$AAu?$AAz?$AA?9?$AAp?$AAe?$AA?$AA@ 100249b8     libucrt:lcidtoname_downlevel.obj
 0002:000059c8       ??_C@_1M@CLGLEFBO@?$AAr?$AAo?$AA?9?$AAr?$AAo?$AA?$AA@ 100249c8     libucrt:lcidtoname_downlevel.obj
 0002:000059d4       ??_C@_1M@CEEDODME@?$AAr?$AAu?$AA?9?$AAr?$AAu?$AA?$AA@ 100249d4     libucrt:lcidtoname_downlevel.obj
 0002:000059e0       ??_C@_1M@HPKKKMPP@?$AAs?$AAa?$AA?9?$AAi?$AAn?$AA?$AA@ 100249e0     libucrt:lcidtoname_downlevel.obj
 0002:000059ec       ??_C@_1M@BKMAIGOJ@?$AAs?$AAe?$AA?9?$AAf?$AAi?$AA?$AA@ 100249ec     libucrt:lcidtoname_downlevel.obj
 0002:000059f8       ??_C@_1M@NDPIFLFI@?$AAs?$AAe?$AA?9?$AAn?$AAo?$AA?$AA@ 100249f8     libucrt:lcidtoname_downlevel.obj
 0002:00005a04       ??_C@_1M@DANKKHJ@?$AAs?$AAe?$AA?9?$AAs?$AAe?$AA?$AA@ 10024a04     libucrt:lcidtoname_downlevel.obj
 0002:00005a10       ??_C@_1M@PNBLONPJ@?$AAs?$AAk?$AA?9?$AAs?$AAk?$AA?$AA@ 10024a10     libucrt:lcidtoname_downlevel.obj
 0002:00005a1c       ??_C@_1M@LFMODOAL@?$AAs?$AAl?$AA?9?$AAs?$AAi?$AA?$AA@ 10024a1c     libucrt:lcidtoname_downlevel.obj
 0002:00005a28       ??_C@_1O@DFKOMPG@?$AAs?$AAm?$AAa?$AA?9?$AAn?$AAo?$AA?$AA@ 10024a28     libucrt:lcidtoname_downlevel.obj
 0002:00005a38       ??_C@_1O@NDKPBNNH@?$AAs?$AAm?$AAa?$AA?9?$AAs?$AAe?$AA?$AA@ 10024a38     libucrt:lcidtoname_downlevel.obj
 0002:00005a48       ??_C@_1O@PLLKBHAB@?$AAs?$AAm?$AAj?$AA?9?$AAn?$AAo?$AA?$AA@ 10024a48     libucrt:lcidtoname_downlevel.obj
 0002:00005a58       ??_C@_1O@CLEPOGCA@?$AAs?$AAm?$AAj?$AA?9?$AAs?$AAe?$AA?$AA@ 10024a58     libucrt:lcidtoname_downlevel.obj
 0002:00005a68       ??_C@_1O@DLGJGKMK@?$AAs?$AAm?$AAn?$AA?9?$AAf?$AAi?$AA?$AA@ 10024a68     libucrt:lcidtoname_downlevel.obj
 0002:00005a78       ??_C@_1O@OJDJGAJC@?$AAs?$AAm?$AAs?$AA?9?$AAf?$AAi?$AA?$AA@ 10024a78     libucrt:lcidtoname_downlevel.obj
 0002:00005a88       ??_C@_1M@BOFOGHPB@?$AAs?$AAq?$AA?9?$AAa?$AAl?$AA?$AA@ 10024a88     libucrt:lcidtoname_downlevel.obj
 0002:00005a94       ??_C@_1BG@LJBBIPGB@?$AAs?$AAr?$AA?9?$AAb?$AAa?$AA?9?$AAc?$AAy?$AAr?$AAl?$AA?$AA@ 10024a94     libucrt:lcidtoname_downlevel.obj
 0002:00005aac       ??_C@_1BG@JLBENFOE@?$AAs?$AAr?$AA?9?$AAb?$AAa?$AA?9?$AAl?$AAa?$AAt?$AAn?$AA?$AA@ 10024aac     libucrt:lcidtoname_downlevel.obj
 0002:00005ac4       ??_C@_1BG@KODPNHE@?$AAs?$AAr?$AA?9?$AAs?$AAp?$AA?9?$AAc?$AAy?$AAr?$AAl?$AA?$AA@ 10024ac4     libucrt:lcidtoname_downlevel.obj
 0002:00005adc       ??_C@_1BG@CIOGKHPB@?$AAs?$AAr?$AA?9?$AAs?$AAp?$AA?9?$AAl?$AAa?$AAt?$AAn?$AA?$AA@ 10024adc     libucrt:lcidtoname_downlevel.obj
 0002:00005af4       ??_C@_1M@NGFJLMAC@?$AAs?$AAv?$AA?9?$AAf?$AAi?$AA?$AA@ 10024af4     libucrt:lcidtoname_downlevel.obj
 0002:00005b00       ??_C@_1M@MPJEJAJC@?$AAs?$AAv?$AA?9?$AAs?$AAe?$AA?$AA@ 10024b00     libucrt:lcidtoname_downlevel.obj
 0002:00005b0c       ??_C@_1M@MPNDHLFK@?$AAs?$AAw?$AA?9?$AAk?$AAe?$AA?$AA@ 10024b0c     libucrt:lcidtoname_downlevel.obj
 0002:00005b18       ??_C@_1O@KOHBJJI@?$AAs?$AAy?$AAr?$AA?9?$AAs?$AAy?$AA?$AA@ 10024b18     libucrt:lcidtoname_downlevel.obj
 0002:00005b28       ??_C@_1M@LDCEFHA@?$AAt?$AAa?$AA?9?$AAi?$AAn?$AA?$AA@ 10024b28     libucrt:lcidtoname_downlevel.obj
 0002:00005b34       ??_C@_1M@CNJOFAK@?$AAt?$AAe?$AA?9?$AAi?$AAn?$AA?$AA@ 10024b34     libucrt:lcidtoname_downlevel.obj
 0002:00005b40       ??_C@_1M@GNAECACD@?$AAt?$AAh?$AA?9?$AAt?$AAh?$AA?$AA@ 10024b40     libucrt:lcidtoname_downlevel.obj
 0002:00005b4c       ??_C@_1M@CHBIHOJO@?$AAt?$AAn?$AA?9?$AAz?$AAa?$AA?$AA@ 10024b4c     libucrt:lcidtoname_downlevel.obj
 0002:00005b58       ??_C@_1M@GCCMIGPJ@?$AAt?$AAr?$AA?9?$AAt?$AAr?$AA?$AA@ 10024b58     libucrt:lcidtoname_downlevel.obj
 0002:00005b64       ??_C@_1M@CELMCNBK@?$AAt?$AAt?$AA?9?$AAr?$AAu?$AA?$AA@ 10024b64     libucrt:lcidtoname_downlevel.obj
 0002:00005b70       ??_C@_1M@KLMCELGA@?$AAu?$AAk?$AA?9?$AAu?$AAa?$AA?$AA@ 10024b70     libucrt:lcidtoname_downlevel.obj
 0002:00005b7c       ??_C@_1M@EPAJJAJF@?$AAu?$AAr?$AA?9?$AAp?$AAk?$AA?$AA@ 10024b7c     libucrt:lcidtoname_downlevel.obj
 0002:00005b88       ??_C@_1BG@GEGPMCDJ@?$AAu?$AAz?$AA?9?$AAu?$AAz?$AA?9?$AAc?$AAy?$AAr?$AAl?$AA?$AA@ 10024b88     libucrt:lcidtoname_downlevel.obj
 0002:00005ba0       ??_C@_1BG@EGGKJILM@?$AAu?$AAz?$AA?9?$AAu?$AAz?$AA?9?$AAl?$AAa?$AAt?$AAn?$AA?$AA@ 10024ba0     libucrt:lcidtoname_downlevel.obj
 0002:00005bb8       ??_C@_1M@GFOCLFF@?$AAv?$AAi?$AA?9?$AAv?$AAn?$AA?$AA@ 10024bb8     libucrt:lcidtoname_downlevel.obj
 0002:00005bc4       ??_C@_1M@CPAMEDFI@?$AAx?$AAh?$AA?9?$AAz?$AAa?$AA?$AA@ 10024bc4     libucrt:lcidtoname_downlevel.obj
 0002:00005bd0       ??_C@_1O@EBKIFIGN@?$AAz?$AAh?$AA?9?$AAc?$AAh?$AAs?$AA?$AA@ 10024bd0     libucrt:lcidtoname_downlevel.obj
 0002:00005be0       ??_C@_1O@NMHPGANE@?$AAz?$AAh?$AA?9?$AAc?$AAh?$AAt?$AA?$AA@ 10024be0     libucrt:lcidtoname_downlevel.obj
 0002:00005bf0       ??_C@_1M@LPINJOMC@?$AAz?$AAh?$AA?9?$AAc?$AAn?$AA?$AA@ 10024bf0     libucrt:lcidtoname_downlevel.obj
 0002:00005bfc       ??_C@_1M@OCJEJODD@?$AAz?$AAh?$AA?9?$AAh?$AAk?$AA?$AA@ 10024bfc     libucrt:lcidtoname_downlevel.obj
 0002:00005c08       ??_C@_1M@DNDLJINH@?$AAz?$AAh?$AA?9?$AAm?$AAo?$AA?$AA@ 10024c08     libucrt:lcidtoname_downlevel.obj
 0002:00005c14       ??_C@_1M@MBFDNDND@?$AAz?$AAh?$AA?9?$AAs?$AAg?$AA?$AA@ 10024c14     libucrt:lcidtoname_downlevel.obj
 0002:00005c20       ??_C@_1M@IMEPLEPE@?$AAz?$AAh?$AA?9?$AAt?$AAw?$AA?$AA@ 10024c20     libucrt:lcidtoname_downlevel.obj
 0002:00005c2c       ??_C@_1M@BBGHNHJP@?$AAz?$AAu?$AA?9?$AAz?$AAa?$AA?$AA@ 10024c2c     libucrt:lcidtoname_downlevel.obj
 0002:00005c38       ?large_power_data@?1??multiply_by_power_of_ten@__crt_strtox@@YA_NAAUbig_integer@2@I@Z@4QBIB 10024c38     libucrt:cfout.obj
 0002:00006540       ?large_power_indices@?1??multiply_by_power_of_ten@__crt_strtox@@YA_NAAUbig_integer@2@I@Z@4QBUunpack_index@?1??12@YA_N0I@Z@B 10025540     libucrt:cfout.obj
 0002:000065d8       ?small_powers_of_ten@?6??multiply_by_power_of_ten@__crt_strtox@@YA_NAAUbig_integer@2@I@Z@4QBIB 100255d8     libucrt:cfout.obj
 0002:000065fc       ??_C@_01GBGANLPD@0?$AA@    100255fc     libucrt:cfout.obj
 0002:00006600       ??_C@_05DNEBIAHO@1?$CDINF?$AA@ 10025600     libucrt:cfout.obj
 0002:00006608       ??_C@_06IMKFLFPG@1?$CDQNAN?$AA@ 10025608     libucrt:cfout.obj
 0002:00006610       ??_C@_06PGGFOGJG@1?$CDSNAN?$AA@ 10025610     libucrt:cfout.obj
 0002:00006618       ??_C@_05PHHOCPM@1?$CDIND?$AA@ 10025618     libucrt:cfout.obj
 0002:00006780       __infinity                 10025780     libucrt:87tran.obj
 0002:0000678a       __minfinity                1002578a     libucrt:87tran.obj
 0002:00006794       __logemax                  10025794     libucrt:87tran.obj
 0002:000067ba       __OP_EXPjmptab             100257ba     libucrt:87tran.obj
 0002:000067e0       __indefinite               100257e0     libucrt:87disp.obj
 0002:000067ea       __piby2                    100257ea     libucrt:87disp.obj
 0002:000067f4       __piby4                    100257f4     libucrt:87disp.obj
 0002:00006828       __DEFAULT_CW_in_mem        10025828     libucrt:common.obj
 0002:0000682a       __pi_by_2_to_61            1002582a     libucrt:common.obj
 0002:00006864       ??_C@_03MGHMBJCF@log?$AA@  10025864     libucrt:libm_error.obj
 0002:00006868       ??_C@_05HGHHAHAP@log10?$AA@ 10025868     libucrt:libm_error.obj
 0002:00006870       ??_C@_03KHJOGHMM@exp?$AA@  10025870     libucrt:libm_error.obj
 0002:00006874       ??_C@_03JGHBODFD@pow?$AA@  10025874     libucrt:libm_error.obj
 0002:00006878       ??_C@_04FIHNOPOL@asin?$AA@ 10025878     libucrt:libm_error.obj
 0002:00006880       ??_C@_04PDIFKINK@acos?$AA@ 10025880     libucrt:libm_error.obj
 0002:00006888       ??_C@_04EIAKFFMI@sqrt?$AA@ 10025888     libucrt:libm_error.obj
 0002:00006890       __real@3ff0000000000000    10025890     libucrt:libm_error.obj
 0002:000068b0       ___acrt_log10_table_t      100258b0     libucrt:log10_tables.obj
 0002:00006cc0       ___acrt_log10_table_cb     10025cc0     libucrt:log10_tables.obj
 0002:000070d0       __real@3fe0000000000000    100260d0     libucrt:powhlp.obj
 0002:000070d8       ??_C@_04FJHINJAO@tanh?$AA@ 100260d8     libucrt:fpexcept.obj
 0002:000070e0       ??_C@_04MLLJIGOK@atan?$AA@ 100260e0     libucrt:fpexcept.obj
 0002:000070e8       ??_C@_05KNGEOGJB@atan2?$AA@ 100260e8     libucrt:fpexcept.obj
 0002:000070f0       ??_C@_03BLEJJJBH@sin?$AA@  100260f0     libucrt:fpexcept.obj
 0002:000070f4       ??_C@_03LALBNOCG@cos?$AA@  100260f4     libucrt:fpexcept.obj
 0002:000070f8       ??_C@_03IIINPABG@tan?$AA@  100260f8     libucrt:fpexcept.obj
 0002:000070fc       ??_C@_04GFPJNGEK@ceil?$AA@ 100260fc     libucrt:fpexcept.obj
 0002:00007104       ??_C@_05PBJFFIGL@floor?$AA@ 10026104     libucrt:fpexcept.obj
 0002:0000710c       ??_C@_04ODHECPBC@fabs?$AA@ 1002610c     libucrt:fpexcept.obj
 0002:00007114       ??_C@_04EHEDPDJG@modf?$AA@ 10026114     libucrt:fpexcept.obj
 0002:0000711c       ??_C@_05CEJMAHNP@ldexp?$AA@ 1002611c     libucrt:fpexcept.obj
 0002:00007124       ??_C@_05KBKMEMPO@_cabs?$AA@ 10026124     libucrt:fpexcept.obj
 0002:0000712c       ??_C@_06MEIMCGCF@_hypot?$AA@ 1002612c     libucrt:fpexcept.obj
 0002:00007134       ??_C@_04KEPJIHGP@fmod?$AA@ 10026134     libucrt:fpexcept.obj
 0002:0000713c       ??_C@_05GKKHEGJL@frexp?$AA@ 1002613c     libucrt:fpexcept.obj
 0002:00007144       ??_C@_03MJLDFKDL@_y0?$AA@  10026144     libucrt:fpexcept.obj
 0002:00007148       ??_C@_03NAKIGLHK@_y1?$AA@  10026148     libucrt:fpexcept.obj
 0002:0000714c       ??_C@_03ONILCKOB@_yn?$AA@  1002614c     libucrt:fpexcept.obj
 0002:00007150       ??_C@_05JGDBENOH@_logb?$AA@ 10026150     libucrt:fpexcept.obj
 0002:00007158       ??_C@_0L@KDOEJCKC@_nextafter?$AA@ 10026158     libucrt:fpexcept.obj
 0002:00007250       ??_C@_04COOMCNPB@sinh?$AA@ 10026250     libucrt:fpexcept.obj
 0002:00007258       ??_C@_04HPJJNFIM@cosh?$AA@ 10026258     libucrt:fpexcept.obj
 0002:00007260       __d_inf                    10026260     libucrt:util.obj
 0002:00007268       __d_max                    10026268     libucrt:util.obj
 0002:00007270       __d_mzero                  10026270     libucrt:util.obj
 0002:00007278       ??_C@_1BA@BALFACEM@?$AAC?$AAO?$AAN?$AAO?$AAU?$AAT?$AA$?$AA?$AA@ 10026278     libucrt:initcon.obj
 0002:000072e8       __load_config_used         100262e8     LIBCMT:loadcfg.obj
 0002:00007388       __tls_used                 10026388     LIBCMT:tlssup.obj
 0002:000073a0       ??_R4exception@std@@6B@    100263a0     LIBCMT:throw_bad_alloc.obj
 0002:000073b4       ??_R3exception@std@@8      100263b4     LIBCMT:throw_bad_alloc.obj
 0002:000073c4       ??_R2exception@std@@8      100263c4     LIBCMT:throw_bad_alloc.obj
 0002:000073cc       ??_R1A@?0A@EA@exception@std@@8 100263cc     LIBCMT:throw_bad_alloc.obj
 0002:000073e8       ??_R4bad_alloc@std@@6B@    100263e8     LIBCMT:throw_bad_alloc.obj
 0002:000073fc       ??_R3bad_alloc@std@@8      100263fc     LIBCMT:throw_bad_alloc.obj
 0002:0000740c       ??_R2bad_alloc@std@@8      1002640c     LIBCMT:throw_bad_alloc.obj
 0002:00007418       ??_R1A@?0A@EA@bad_alloc@std@@8 10026418     LIBCMT:throw_bad_alloc.obj
 0002:00007434       ??_R4bad_array_new_length@std@@6B@ 10026434     LIBCMT:throw_bad_alloc.obj
 0002:00007448       ??_R3bad_array_new_length@std@@8 10026448     LIBCMT:throw_bad_alloc.obj
 0002:00007458       ??_R2bad_array_new_length@std@@8 10026458     LIBCMT:throw_bad_alloc.obj
 0002:00007468       ??_R1A@?0A@EA@bad_array_new_length@std@@8 10026468     LIBCMT:throw_bad_alloc.obj
 0002:00007484       ??_R4type_info@@6B@        10026484     LIBCMT:std_type_info_static.obj
 0002:00007498       ??_R3type_info@@8          10026498     LIBCMT:std_type_info_static.obj
 0002:000074a8       ??_R2type_info@@8          100264a8     LIBCMT:std_type_info_static.obj
 0002:000074b0       ??_R1A@?0A@EA@type_info@@8 100264b0     LIBCMT:std_type_info_static.obj
 0002:000074cc       ??_R4bad_exception@std@@6B@ 100264cc     libvcruntime:frame.obj
 0002:000074e0       ??_R3bad_exception@std@@8  100264e0     libvcruntime:frame.obj
 0002:000074f0       ??_R2bad_exception@std@@8  100264f0     libvcruntime:frame.obj
 0002:000074fc       ??_R1A@?0A@EA@bad_exception@std@@8 100264fc     libvcruntime:frame.obj
 0002:00007520       ___safe_se_handler_table   10026520     <linker-defined>
 0002:00007928       ___rtc_iaa                 10026928     LIBCMT:initsect.obj
 0002:0000792c       ___rtc_izz                 1002692c     LIBCMT:initsect.obj
 0002:00007930       ___rtc_taa                 10026930     LIBCMT:initsect.obj
 0002:00007934       ___rtc_tzz                 10026934     LIBCMT:initsect.obj
 0002:00007938       __tls_start                10026938     LIBCMT:tlssup.obj
 0002:0000793c       __Init_thread_epoch        1002693c     LIBCMT:thread_safe_statics.obj
 0002:00007940       __tls_end                  10026940     LIBCMT:tlssup.obj
 0002:00007a5c       __TI2?AVbad_alloc@std@@    10026a5c     LIBCMT:throw_bad_alloc.obj
 0002:00007a6c       __CTA2?AVbad_alloc@std@@   10026a6c     LIBCMT:throw_bad_alloc.obj
 0002:00007a78       __CT??_R0?AVbad_alloc@std@@@8??0bad_alloc@std@@QAE@ABV01@@Z12 10026a78     LIBCMT:throw_bad_alloc.obj
 0002:00007a94       __CT??_R0?AVexception@std@@@8??0exception@std@@QAE@ABV01@@Z12 10026a94     LIBCMT:throw_bad_alloc.obj
 0002:00007ab0       __TI3?AVbad_array_new_length@std@@ 10026ab0     LIBCMT:throw_bad_alloc.obj
 0002:00007ac0       __CTA3?AVbad_array_new_length@std@@ 10026ac0     LIBCMT:throw_bad_alloc.obj
 0002:00007ad0       __CT??_R0?AVbad_array_new_length@std@@@8??0bad_array_new_length@std@@QAE@ABV01@@Z12 10026ad0     LIBCMT:throw_bad_alloc.obj
 0002:00007bd4       __TI2?AVbad_exception@std@@ 10026bd4     libvcruntime:frame.obj
 0002:00007be4       __CTA2?AVbad_exception@std@@ 10026be4     libvcruntime:frame.obj
 0002:00007bf0       __CT??_R0?AVbad_exception@std@@@8??0bad_exception@std@@QAE@ABV01@@Z12 10026bf0     libvcruntime:frame.obj
 0002:00007f3c       ___pobjMapEntryFirst       10026f3c     OposVariant.obj
 0002:00007f40       ___pobjMapEntryLast        10026f40     OposVariant.obj
 0002:00008004       __IMPORT_DESCRIPTOR_KERNEL32 10027004     kernel32:KERNEL32.dll
 0002:00008018       __IMPORT_DESCRIPTOR_USER32 10027018     user32:USER32.dll
 0002:0000802c       __IMPORT_DESCRIPTOR_GDI32  1002702c     gdi32:GDI32.dll
 0002:00008040       __IMPORT_DESCRIPTOR_ADVAPI32 10027040     advapi32:ADVAPI32.dll
 0002:00008054       __IMPORT_DESCRIPTOR_ole32  10027054     ole32:ole32.dll
 0002:00008068       __IMPORT_DESCRIPTOR_OLEAUT32 10027068     oleaut32:OLEAUT32.dll
 0002:0000807c       __NULL_IMPORT_DESCRIPTOR   1002707c     kernel32:KERNEL32.dll
 0003:00000000       ?wc@?1??GetWndClassInfo@?$CWindowImpl@VCOPOSRemoteOrderDisplay@@VCWindow@ATL@@V?$CWinTraits@$0FGAAAAAA@$0A@@3@@ATL@@SAAAU_ATL_WNDCLASSINFOW@3@XZ@4U43@A 10028000     RemoteOrderDisplay.obj
 0003:0000008c       ?s_Claim@?7??GetIDsOfNames@CComTypeInfoHolder@ATL@@QAEJABU_GUID@@PAPA_WIKPAJ@Z@4PA_WA 1002808c     RemoteOrderDisplay.obj
 0003:000000a4       ?s_Release@?7??GetIDsOfNames@CComTypeInfoHolder@ATL@@QAEJABU_GUID@@PAPA_WIKPAJ@Z@4PA_WA 100280a4     RemoteOrderDisplay.obj
 0003:000000c0       ?rcDefault@CWindow@ATL@@2UtagRECT@@A 100280c0     RemoteOrderDisplay.obj
 0003:000000d0       ?_tih@?$IDispatchImpl@UIOPOSRemoteOrderDisplay@@$1?IID_IOPOSRemoteOrderDisplay@@3U_GUID@@B$1?LIBID_OposRemoteOrderDisplay_CCO@@3U3@B$00$0A@VCComTypeInfoHolder@ATL@@@ATL@@1VCComTypeInfoHolder@2@A 100280d0     RemoteOrderDisplay.obj
 0003:000000ec       ?_tih@?$IProvideClassInfo2Impl@$1?CLSID_OPOSRemoteOrderDisplay@@3U_GUID@@B$1?DIID__IOPOSRemoteOrderDisplayEvents@@3U2@B$1?LIBID_OposRemoteOrderDisplay_CCO@@3U2@B$00$0A@VCComTypeInfoHolder@ATL@@@ATL@@1VCComTypeInfoHolder@2@A 100280ec     RemoteOrderDisplay.obj
 0003:00000108       ?vszContents@?6??Save@?$IPersistStorageImpl@VCOPOSRemoteOrderDisplay@@@ATL@@UAGJPAUIStorage@@H@Z@4PB_WB 10028108     RemoteOrderDisplay.obj
 0003:00000158       ?g_WindowName@@3PA_WA      10028158     RemoteOrderDisplayImpl.obj
 0003:0000018c       ?g_ControlDescription@@3PADA 1002818c     RemoteOrderDisplayImpl.obj
 0003:000001cc       ?g_ControlVersion@@3JA     100281cc     RemoteOrderDisplayImpl.obj
 0003:00000278       ___scrt_native_dllmain_reason 10028278     LIBCMT:utility.obj
 0003:0000027c       __Init_global_epoch        1002827c     LIBCMT:thread_safe_statics.obj
 0003:00000280       ___security_cookie_complement 10028280     LIBCMT:gs_cookie.obj
 0003:00000284       ___security_cookie         10028284     LIBCMT:gs_cookie.obj
 0003:00000288       ___isa_enabled             10028288     LIBCMT:cpu_disp.obj
 0003:000002a0       __NLG_Destination          100282a0     libvcruntime:exsup.obj
 0003:000002b8       ___abort_behavior          100282b8     libucrt:abort.obj
 0003:000002c8       __iob                      100282c8     libucrt:_file.obj
 0003:00000370       ___acrt_initial_locale_data 10028370     libucrt:nlsdata.obj
 0003:00000428       ___acrt_initial_locale_pointers 10028428     libucrt:nlsdata.obj
 0003:00000430       ___acrt_wide_c_locale_string 10028430     libucrt:nlsdata.obj
 0003:00000528       __mbctype                  10028528     libucrt:mbctype.obj
 0003:00000630       __mbcasemap                10028630     libucrt:mbctype.obj
 0003:00000730       ___acrt_initial_multibyte_data 10028730     libucrt:mbctype.obj
 0003:00000950       ___acrt_current_multibyte_data 10028950     libucrt:mbctype.obj
 0003:00000954       __pwctype                  10028954     libucrt:ctype.obj
 0003:00000958       ___globallocalestatus      10028958     libucrt:glstatus.obj
 0003:0000095c       ___acrt_lconv_static_decimal 1002895c     libucrt:localeconv.obj
 0003:00000960       ___acrt_lconv_static_W_decimal 10028960     libucrt:localeconv.obj
 0003:00000968       ___acrt_lconv_c            10028968     libucrt:localeconv.obj
 0003:000009c0       ___dcrt_lowio_console_output_handle 100289c0     libucrt:initcon.obj
 0003:000009d0       __fltused                  100289d0     LIBCMT:fltused.obj
 0003:000009e0       ??_R0?AVbad_alloc@std@@@8  100289e0     LIBCMT:throw_bad_alloc.obj
 0003:000009fc       ??_R0?AVexception@std@@@8  100289fc     LIBCMT:throw_bad_alloc.obj
 0003:00000a18       ??_R0?AVbad_array_new_length@std@@@8 10028a18     LIBCMT:throw_bad_alloc.obj
 0003:00000a40       ??_R0?AVtype_info@@@8      10028a40     LIBCMT:std_type_info_static.obj
 0003:00000a58       ??_R0?AVbad_exception@std@@@8 10028a58     libvcruntime:frame.obj
 0003:00000a78       ?m_bInitFailed@CAtlBaseModule@ATL@@2_NA 10028a78     OposVariant.obj
 0003:00000a7c       ?_pPerfRegFunc@ATL@@3P6AJPAUHINSTANCE__@@@ZA 10028a7c     OposVariant.obj
 0003:00000a80       ?_pPerfUnRegFunc@ATL@@3P6AJXZA 10028a80     OposVariant.obj
 0003:00000a84       ?_AtlRegisterPerUser@ATL@@3_NA 10028a84     OposVariant.obj
 0003:00000a88       ?_pAtlModule@ATL@@3PAVCAtlModule@1@A 10028a88     OposVariant.obj
 0003:00000a8c       ?_pModule@ATL@@3PAVCComModule@1@A 10028a8c     OposVariant.obj
 0003:00000a90       ?_AtlComModule@ATL@@3VCAtlComModule@1@A 10028a90     OposVariant.obj
 0003:00000ab8       ?_AtlWinModule@ATL@@3VCAtlWinModule@1@A 10028ab8     OposVariant.obj
 0003:00000ae4       ?m_libid@CAtlModule@ATL@@2U_GUID@@A 10028ae4     RemoteOrderDisplay.obj
 0003:00000af4       ?_entries@?1??GetConnMap@COPOSRemoteOrderDisplay@@SAPBU_ATL_CONNMAP_ENTRY@ATL@@PAH@Z@4QBU34@B 10028af4     RemoteOrderDisplay.obj
 0003:00000b00       ?$TSS0@?1??GetConnMap@COPOSRemoteOrderDisplay@@SAPBU_ATL_CONNMAP_ENTRY@ATL@@PAH@Z@4HA 10028b00     RemoteOrderDisplay.obj
 0003:00000b08       ?_OptionsStorage@?1??__local_stdio_printf_options@@9@4_KA 10028b08     RemoteOrderDisplay.obj
 0003:00000b10       ?pfnRegDeleteKeyEx@?1??DeleteSubKey@CRegKey@ATL@@QAEJPB_W@Z@4P6GJPAUHKEY__@@0KK@ZA 10028b10     RemoteOrderDisplay.obj
 0003:00000b14       ?bInitialized@?1??DeleteSubKey@CRegKey@ATL@@QAEJPB_W@Z@4_NA 10028b14     RemoteOrderDisplay.obj
 0003:00000b18       ?_Module@@3VCComModule@ATL@@A 10028b18     RemoteOrderDisplay.obj
 0003:00000b48       ?pConnMap@?$IConnectionPointContainerImpl@VCOPOSRemoteOrderDisplay@@@ATL@@0PBU_ATL_CONNMAP_ENTRY@2@B 10028b48     RemoteOrderDisplay.obj
 0003:00000b4c       ?s_nInstances@COPOSRemoteOrderDisplay@@1HA 10028b4c     RemoteOrderDisplayImpl.obj
 0003:00000b50       ___scrt_current_native_startup_state 10028b50     LIBCMT:utility.obj
 0003:00000b54       ___scrt_native_startup_lock 10028b54     LIBCMT:utility.obj
 0003:00000ebc       __tls_index                10028ebc     LIBCMT:tlssup.obj
 0003:00000ec4       ___isa_available           10028ec4     LIBCMT:cpu_disp.obj
 0003:00000ec8       ___favor                   10028ec8     LIBCMT:cpu_disp.obj
 0003:00000ecc       ___scrt_debugger_hook_flag 10028ecc     LIBCMT:utility_desktop.obj
 0003:00000ed0       ?__type_info_root_node@@3U__type_info_node@@A 10028ed0     LIBCMT:tncleanup.obj
 0003:00000ed8       ?_OptionsStorage@?1??__local_stdio_scanf_options@@9@4_KA 10028ed8     LIBCMT:default_local_stdio_options.obj
 0003:00000ee0       ?_AtlBaseModule@ATL@@3VCAtlBaseModule@1@A 10028ee0     atls:atlbase.obj
 0003:00000f18       ?__AtlThunkPool@@3PAT_SLIST_HEADER@@A 10028f18     atls:atlthunk.obj
 0003:00000f30       ___@@_PchSym_@00@UztvmgUPdlipUDUhUrmgvinvwrzgvUexgllohUzgohOmzgrevkilqPBACIAJCBDBUlyqiUcIGUhgwzucOlyq@4B2008FD98C1DD4 10028f30     atls:stdafx.obj
 0003:00000f34       ___pPurecall               10028f34     libvcruntime:purevirt_data.obj
 0003:00000f9c       ?pArgList@UnDecorator@@0PAVReplicator@@A 10028f9c     libvcruntime:undname.obj
 0003:00000fa0       ?pZNameList@UnDecorator@@0PAVReplicator@@A 10028fa0     libvcruntime:undname.obj
 0003:00000fa4       ?pTemplateArgList@UnDecorator@@0PAVReplicator@@A 10028fa4     libvcruntime:undname.obj
 0003:00000fa8       ?gName@UnDecorator@@0PBDB  10028fa8     libvcruntime:undname.obj
 0003:00000fac       ?name@UnDecorator@@0PBDB   10028fac     libvcruntime:undname.obj
 0003:00000fb0       ?disableFlags@UnDecorator@@0KA 10028fb0     libvcruntime:undname.obj
 0003:00000fb4       ?fExplicitTemplateParams@UnDecorator@@0_NA 10028fb4     libvcruntime:undname.obj
 0003:00000fb5       ?fGetTemplateArgumentList@UnDecorator@@0_NA 10028fb5     libvcruntime:undname.obj
 0003:00000fb8       ?m_pGetParameter@UnDecorator@@0P6APADJ@ZA 10028fb8     libvcruntime:undname.obj
 0003:00000fbc       ?m_CHPENameOffset@UnDecorator@@0KA 10028fbc     libvcruntime:undname.obj
 0003:00000fc0       ?m_recursionLevel@UnDecorator@@0KA 10028fc0     libvcruntime:undname.obj
 0003:00000fd8       ?__WinRTOutOfMemoryExceptionCallback@@3P6GPAXXZA 10028fd8     libvcruntime:ehhelpers.obj
 0003:000010f8       __environ_table            100290f8     libucrt:environment_initialization.obj
 0003:000010fc       __wenviron_table           100290fc     libucrt:environment_initialization.obj
 0003:00001100       ___dcrt_initial_wide_environment 10029100     libucrt:environment_initialization.obj
 0003:00001104       ___dcrt_initial_narrow_environment 10029104     libucrt:environment_initialization.obj
 0003:00001108       ___acrt_atexit_table       10029108     libucrt:onexit.obj
 0003:00001114       ___acrt_at_quick_exit_table 10029114     libucrt:onexit.obj
 0003:000011fc       __nstream                  100291fc     libucrt:_file.obj
 0003:00001200       ___piob                    10029200     libucrt:_file.obj
 0003:00001208       ___acrt_stdout_buffer      10029208     libucrt:_sftbuf.obj
 0003:0000120c       ___acrt_stderr_buffer      1002920c     libucrt:_sftbuf.obj
 0003:00001210       ___acrt_locale_changed_data 10029210     libucrt:wsetlocale.obj
 0003:00001214       ___acrt_current_locale_data 10029214     libucrt:nlsdata.obj
 0003:00001218       ___pioinfo                 10029218     libucrt:ioinit.obj
 0003:00001418       __nhandle                  10029418     libucrt:ioinit.obj
 0003:0000155c       ___mblocalename            1002955c     libucrt:mbctype.obj
 0003:00001560       ___mbcodepage              10029560     libucrt:mbctype.obj
 0003:00001564       ___ismbcodepage            10029564     libucrt:mbctype.obj
 0003:00001568       ___mbulinfo                10029568     libucrt:mbctype.obj
 0003:0000157c       ___argc                    1002957c     libucrt:argv_data.obj
 0003:00001580       ___argv                    10029580     libucrt:argv_data.obj
 0003:00001584       ___wargv                   10029584     libucrt:argv_data.obj
 0003:00001588       __acmdln                   10029588     libucrt:argv_data.obj
 0003:0000158c       __wcmdln                   1002958c     libucrt:argv_data.obj
 0003:00001590       __pgmptr                   10029590     libucrt:argv_data.obj
 0003:00001594       ___acrt_heap               10029594     libucrt:heap_handle.obj
 0003:000015b0       ___acrt_lconv_static_null  100295b0     libucrt:localeconv.obj
 0003:000015b4       ___acrt_lconv_static_W_null 100295b4     libucrt:localeconv.obj
 0003:000015bc       ___fastflag                100295bc     libucrt:fp_flags.obj
 0003:000015c4       ___dyn_tls_init_callback   100295c4     <common>
 0003:000015c8       ___scrt_ucrt_dll_is_in_use 100295c8     <common>
 0003:000015cc       __pmatherr                 100295cc     <common>
 0003:000015d0       ___use_sse2_mathfcns       100295d0     <common>

 entry point at        0001:0000c8cd

 Static symbols

 0000:fffce000       .debug$S                   10000000     gdi32:GDI32.dll
 0000:fffce000       .debug$S                   10000000     gdi32:GDI32.dll
 0000:fffce000       .debug$S                   10000000     gdi32:GDI32.dll
 0000:fffce000       .debug$S                   10000000     gdi32:GDI32.dll
 0000:fffce000       .debug$S                   10000000     gdi32:GDI32.dll
 0000:fffce000       .debug$S                   10000000     gdi32:GDI32.dll
 0000:fffce000       .debug$S                   10000000     gdi32:GDI32.dll
 0000:fffce000       .debug$S                   10000000     gdi32:GDI32.dll
 0000:fffce000       .debug$S                   10000000     gdi32:GDI32.dll
 0000:fffce000       .debug$S                   10000000     gdi32:GDI32.dll
 0000:fffce000       .debug$S                   10000000     gdi32:GDI32.dll
 0000:fffce000       .debug$S                   10000000     gdi32:GDI32.dll
 0000:fffce000       .debug$S                   10000000     gdi32:GDI32.dll
 0000:fffce000       .debug$S                   10000000     gdi32:GDI32.dll
 0000:fffce000       .debug$S                   10000000     gdi32:GDI32.dll
 0000:fffce000       .debug$S                   10000000     OPOSRemoteOrderDisplay.exp
 0000:fffce000       .debug$S                   10000000     gdi32:GDI32.dll
 0000:fffce000       .debug$S                   10000000     advapi32:ADVAPI32.dll
 0000:fffce000       .debug$S                   10000000     advapi32:ADVAPI32.dll
 0000:fffce000       .debug$S                   10000000     advapi32:ADVAPI32.dll
 0000:fffce000       .debug$S                   10000000     advapi32:ADVAPI32.dll
 0000:fffce000       .debug$S                   10000000     advapi32:ADVAPI32.dll
 0000:fffce000       .debug$S                   10000000     advapi32:ADVAPI32.dll
 0000:fffce000       .debug$S                   10000000     advapi32:ADVAPI32.dll
 0000:fffce000       .debug$S                   10000000     advapi32:ADVAPI32.dll
 0000:fffce000       .debug$S                   10000000     advapi32:ADVAPI32.dll
 0000:fffce000       .debug$S                   10000000     kernel32:KERNEL32.dll
 0000:fffce000       .debug$S                   10000000     kernel32:KERNEL32.dll
 0000:fffce000       .debug$S                   10000000     kernel32:KERNEL32.dll
 0000:fffce000       .debug$S                   10000000     kernel32:KERNEL32.dll
 0000:fffce000       .debug$S                   10000000     kernel32:KERNEL32.dll
 0000:fffce000       .debug$S                   10000000     kernel32:KERNEL32.dll
 0000:fffce000       .debug$S                   10000000     kernel32:KERNEL32.dll
 0000:fffce000       .debug$S                   10000000     kernel32:KERNEL32.dll
 0000:fffce000       .debug$S                   10000000     kernel32:KERNEL32.dll
 0000:fffce000       .debug$S                   10000000     kernel32:KERNEL32.dll
 0000:fffce000       .debug$S                   10000000     kernel32:KERNEL32.dll
 0000:fffce000       .debug$S                   10000000     kernel32:KERNEL32.dll
 0000:fffce000       .debug$S                   10000000     kernel32:KERNEL32.dll
 0000:fffce000       .debug$S                   10000000     kernel32:KERNEL32.dll
 0000:fffce000       .debug$S                   10000000     kernel32:KERNEL32.dll
 0000:fffce000       .debug$S                   10000000     kernel32:KERNEL32.dll
 0000:fffce000       .debug$S                   10000000     kernel32:KERNEL32.dll
 0000:fffce000       .debug$S                   10000000     kernel32:KERNEL32.dll
 0000:fffce000       .debug$S                   10000000     kernel32:KERNEL32.dll
 0000:fffce000       .debug$S                   10000000     kernel32:KERNEL32.dll
 0000:fffce000       .debug$S                   10000000     kernel32:KERNEL32.dll
 0000:fffce000       .debug$S                   10000000     kernel32:KERNEL32.dll
 0000:fffce000       .debug$S                   10000000     kernel32:KERNEL32.dll
 0000:fffce000       .debug$S                   10000000     kernel32:KERNEL32.dll
 0000:fffce000       .debug$S                   10000000     kernel32:KERNEL32.dll
 0000:fffce000       .debug$S                   10000000     kernel32:KERNEL32.dll
 0000:fffce000       .debug$S                   10000000     kernel32:KERNEL32.dll
 0000:fffce000       .debug$S                   10000000     kernel32:KERNEL32.dll
 0000:fffce000       .debug$S                   10000000     kernel32:KERNEL32.dll
 0000:fffce000       .debug$S                   10000000     kernel32:KERNEL32.dll
 0000:fffce000       .debug$S                   10000000     kernel32:KERNEL32.dll
 0000:fffce000       .debug$S                   10000000     kernel32:KERNEL32.dll
 0000:fffce000       .debug$S                   10000000     kernel32:KERNEL32.dll
 0000:fffce000       .debug$S                   10000000     kernel32:KERNEL32.dll
 0000:fffce000       .debug$S                   10000000     kernel32:KERNEL32.dll
 0000:fffce000       .debug$S                   10000000     kernel32:KERNEL32.dll
 0000:fffce000       .debug$S                   10000000     kernel32:KERNEL32.dll
 0000:fffce000       .debug$S                   10000000     kernel32:KERNEL32.dll
 0000:fffce000       .debug$S                   10000000     kernel32:KERNEL32.dll
 0000:fffce000       .debug$S                   10000000     kernel32:KERNEL32.dll
 0000:fffce000       .debug$S                   10000000     kernel32:KERNEL32.dll
 0000:fffce000       .debug$S                   10000000     kernel32:KERNEL32.dll
 0000:fffce000       .debug$S                   10000000     kernel32:KERNEL32.dll
 0000:fffce000       .debug$S                   10000000     kernel32:KERNEL32.dll
 0000:fffce000       .debug$S                   10000000     kernel32:KERNEL32.dll
 0000:fffce000       .debug$S                   10000000     kernel32:KERNEL32.dll
 0000:fffce000       .debug$S                   10000000     kernel32:KERNEL32.dll
 0000:fffce000       .debug$S                   10000000     kernel32:KERNEL32.dll
 0000:fffce000       .debug$S                   10000000     kernel32:KERNEL32.dll
 0000:fffce000       .debug$S                   10000000     kernel32:KERNEL32.dll
 0000:fffce000       .debug$S                   10000000     kernel32:KERNEL32.dll
 0000:fffce000       .debug$S                   10000000     kernel32:KERNEL32.dll
 0000:fffce000       .debug$S                   10000000     kernel32:KERNEL32.dll
 0000:fffce000       .debug$S                   10000000     kernel32:KERNEL32.dll
 0000:fffce000       .debug$S                   10000000     kernel32:KERNEL32.dll
 0000:fffce000       .debug$S                   10000000     kernel32:KERNEL32.dll
 0000:fffce000       .debug$S                   10000000     kernel32:KERNEL32.dll
 0000:fffce000       .debug$S                   10000000     kernel32:KERNEL32.dll
 0000:fffce000       .debug$S                   10000000     kernel32:KERNEL32.dll
 0000:fffce000       .debug$S                   10000000     kernel32:KERNEL32.dll
 0000:fffce000       .debug$S                   10000000     kernel32:KERNEL32.dll
 0000:fffce000       .debug$S                   10000000     kernel32:KERNEL32.dll
 0000:fffce000       .debug$S                   10000000     kernel32:KERNEL32.dll
 0000:fffce000       .debug$S                   10000000     kernel32:KERNEL32.dll
 0000:fffce000       .debug$S                   10000000     kernel32:KERNEL32.dll
 0000:fffce000       .debug$S                   10000000     kernel32:KERNEL32.dll
 0000:fffce000       .debug$S                   10000000     kernel32:KERNEL32.dll
 0000:fffce000       .debug$S                   10000000     kernel32:KERNEL32.dll
 0000:fffce000       .debug$S                   10000000     kernel32:KERNEL32.dll
 0000:fffce000       .debug$S                   10000000     kernel32:KERNEL32.dll
 0000:fffce000       .debug$S                   10000000     kernel32:KERNEL32.dll
 0000:fffce000       .debug$S                   10000000     kernel32:KERNEL32.dll
 0000:fffce000       .debug$S                   10000000     kernel32:KERNEL32.dll
 0000:fffce000       .debug$S                   10000000     kernel32:KERNEL32.dll
 0000:fffce000       .debug$S                   10000000     gdi32:GDI32.dll
 0000:fffce000       .debug$S                   10000000     ole32:ole32.dll
 0000:fffce000       .debug$S                   10000000     ole32:ole32.dll
 0000:fffce000       .debug$S                   10000000     ole32:ole32.dll
 0000:fffce000       .debug$S                   10000000     ole32:ole32.dll
 0000:fffce000       .debug$S                   10000000     ole32:ole32.dll
 0000:fffce000       .debug$S                   10000000     ole32:ole32.dll
 0000:fffce000       .debug$S                   10000000     ole32:ole32.dll
 0000:fffce000       .debug$S                   10000000     ole32:ole32.dll
 0000:fffce000       .debug$S                   10000000     ole32:ole32.dll
 0000:fffce000       .debug$S                   10000000     ole32:ole32.dll
 0000:fffce000       .debug$S                   10000000     ole32:ole32.dll
 0000:fffce000       .debug$S                   10000000     ole32:ole32.dll
 0000:fffce000       .debug$S                   10000000     ole32:ole32.dll
 0000:fffce000       .debug$S                   10000000     ole32:ole32.dll
 0000:fffce000       .debug$S                   10000000     gdi32:GDI32.dll
 0000:fffce000       .debug$S                   10000000     oleaut32:OLEAUT32.dll
 0000:fffce000       .debug$S                   10000000     oleaut32:OLEAUT32.dll
 0000:fffce000       .debug$S                   10000000     oleaut32:OLEAUT32.dll
 0000:fffce000       .debug$S                   10000000     oleaut32:OLEAUT32.dll
 0000:fffce000       .debug$S                   10000000     oleaut32:OLEAUT32.dll
 0000:fffce000       .debug$S                   10000000     oleaut32:OLEAUT32.dll
 0000:fffce000       .debug$S                   10000000     oleaut32:OLEAUT32.dll
 0000:fffce000       .debug$S                   10000000     oleaut32:OLEAUT32.dll
 0000:fffce000       .debug$S                   10000000     oleaut32:OLEAUT32.dll
 0000:fffce000       .debug$S                   10000000     oleaut32:OLEAUT32.dll
 0000:fffce000       .debug$S                   10000000     oleaut32:OLEAUT32.dll
 0000:fffce000       .debug$S                   10000000     oleaut32:OLEAUT32.dll
 0000:fffce000       .debug$S                   10000000     oleaut32:OLEAUT32.dll
 0000:fffce000       .debug$S                   10000000     oleaut32:OLEAUT32.dll
 0000:fffce000       .debug$S                   10000000     oleaut32:OLEAUT32.dll
 0000:fffce000       .debug$S                   10000000     oleaut32:OLEAUT32.dll
 0000:fffce000       .debug$S                   10000000     gdi32:GDI32.dll
 0000:fffce000       .debug$S                   10000000     user32:USER32.dll
 0000:fffce000       .debug$S                   10000000     user32:USER32.dll
 0000:fffce000       .debug$S                   10000000     user32:USER32.dll
 0000:fffce000       .debug$S                   10000000     user32:USER32.dll
 0000:fffce000       .debug$S                   10000000     user32:USER32.dll
 0000:fffce000       .debug$S                   10000000     user32:USER32.dll
 0000:fffce000       .debug$S                   10000000     user32:USER32.dll
 0000:fffce000       .debug$S                   10000000     user32:USER32.dll
 0000:fffce000       .debug$S                   10000000     user32:USER32.dll
 0000:fffce000       .debug$S                   10000000     user32:USER32.dll
 0000:fffce000       .debug$S                   10000000     kernel32:KERNEL32.dll
 0000:fffce000       .debug$S                   10000000     kernel32:KERNEL32.dll
 0000:fffce000       .debug$S                   10000000     user32:USER32.dll
 0000:fffce000       .debug$S                   10000000     kernel32:KERNEL32.dll
 0000:fffce000       .debug$S                   10000000     user32:USER32.dll
 0000:fffce000       .debug$S                   10000000     user32:USER32.dll
 0000:fffce000       .debug$S                   10000000     user32:USER32.dll
 0000:fffce000       .debug$S                   10000000     user32:USER32.dll
 0000:fffce000       .debug$S                   10000000     user32:USER32.dll
 0000:fffce000       .debug$S                   10000000     user32:USER32.dll
 0000:fffce000       .debug$S                   10000000     user32:USER32.dll
 0000:fffce000       .debug$S                   10000000     user32:USER32.dll
 0000:fffce000       .debug$S                   10000000     user32:USER32.dll
 0000:fffce000       .debug$S                   10000000     user32:USER32.dll
 0000:fffce000       .debug$S                   10000000     user32:USER32.dll
 0000:fffce000       .debug$S                   10000000     user32:USER32.dll
 0000:fffce000       .debug$S                   10000000     user32:USER32.dll
 0000:fffce000       .debug$S                   10000000     user32:USER32.dll
 0000:fffce000       .debug$S                   10000000     user32:USER32.dll
 0000:fffce000       .debug$S                   10000000     user32:USER32.dll
 0000:fffce000       .debug$S                   10000000     user32:USER32.dll
 0000:fffce000       .debug$S                   10000000     user32:USER32.dll
 0000:fffce000       .debug$S                   10000000     user32:USER32.dll
 0000:fffce000       .debug$S                   10000000     kernel32:KERNEL32.dll
 0000:fffce000       .debug$S                   10000000     user32:USER32.dll
 0000:fffce000       .debug$S                   10000000     kernel32:KERNEL32.dll
 0000:fffce000       .debug$S                   10000000     user32:USER32.dll
 0000:fffce000       .debug$S                   10000000     kernel32:KERNEL32.dll
 0000:fffce000       .debug$S                   10000000     user32:USER32.dll
 0000:fffce000       .debug$S                   10000000     user32:USER32.dll
 0000:fffce000       .debug$S                   10000000     user32:USER32.dll
 0000:fffce000       .debug$S                   10000000     kernel32:KERNEL32.dll
 0000:fffce000       .debug$S                   10000000     kernel32:KERNEL32.dll
 0000:fffce000       .debug$S                   10000000     kernel32:KERNEL32.dll
 0000:fffce000       .debug$S                   10000000     kernel32:KERNEL32.dll
 0000:fffce000       .debug$S                   10000000     kernel32:KERNEL32.dll
 0000:fffce000       .debug$S                   10000000     kernel32:KERNEL32.dll
 0000:fffce000       .debug$S                   10000000     kernel32:KERNEL32.dll
 0000:fffce000       .debug$S                   10000000     kernel32:KERNEL32.dll
 0000:fffce000       .debug$S                   10000000     kernel32:KERNEL32.dll
 0000:fffce000       .debug$S                   10000000     kernel32:KERNEL32.dll
 0000:fffce000       .debug$S                   10000000     kernel32:KERNEL32.dll
 0000:fffce000       .debug$S                   10000000     kernel32:KERNEL32.dll
 0000:fffce000       .debug$S                   10000000     kernel32:KERNEL32.dll
 0000:fffce000       .debug$S                   10000000     kernel32:KERNEL32.dll
 0000:fffce000       .debug$S                   10000000     kernel32:KERNEL32.dll
 0000:fffce000       .debug$S                   10000000     kernel32:KERNEL32.dll
 0000:fffce000       .debug$S                   10000000     kernel32:KERNEL32.dll
 0000:fffce000       .debug$S                   10000000     kernel32:KERNEL32.dll
 0000:fffce000       .debug$S                   10000000     kernel32:KERNEL32.dll
 0000:fffce000       .debug$S                   10000000     kernel32:KERNEL32.dll
 0000:fffce000       .debug$S                   10000000     kernel32:KERNEL32.dll
 0000:fffce000       .debug$S                   10000000     kernel32:KERNEL32.dll
 0000:fffce000       .debug$S                   10000000     kernel32:KERNEL32.dll
 0000:fffce000       .debug$S                   10000000     kernel32:KERNEL32.dll
 0000:fffce000       .debug$S                   10000000     kernel32:KERNEL32.dll
 0000:fffce000       .debug$S                   10000000     kernel32:KERNEL32.dll
 0000:fffce000       .debug$S                   10000000     kernel32:KERNEL32.dll
 0000:fffce000       .debug$S                   10000000     kernel32:KERNEL32.dll
 0000:fffce000       .debug$S                   10000000     kernel32:KERNEL32.dll
 0001:00000000       ??__E_AtlComModule@ATL@@YAXXZ 10001000 f   OposVariant.obj
 0001:00000016       ??__E_AtlWinModule@ATL@@YAXXZ 10001016 f   OposVariant.obj
 0001:0000002c       ??__E?pConnMap@?$IConnectionPointContainerImpl@VCOPOSRemoteOrderDisplay@@@ATL@@0PBU_ATL_CONNMAP_ENTRY@2@B@@YAXXZ 1000102c f   RemoteOrderDisplay.obj
 0001:0000003a       ??__E_Module@@YAXXZ        1000103a f   RemoteOrderDisplay.obj
 0001:00000064       ??__E_AtlBaseModule@ATL@@YAXXZ 10001064 f   atls:atlbase.obj
 0001:00001653       $LN37                      10002653     RemoteOrderDisplay.obj
 0001:00005c90       $LN53                      10006c90     RemoteOrderDisplay.obj
 0001:00005ca8       $LN49                      10006ca8     RemoteOrderDisplay.obj
 0001:00007aec       $LN45                      10008aec     RemoteOrderDisplay.obj
 0001:00007b04       $LN36                      10008b04     RemoteOrderDisplay.obj
 0001:000090b7       $LN87                      1000a0b7     RemoteOrderDisplay.obj
 0001:000090cf       $LN81                      1000a0cf     RemoteOrderDisplay.obj
 0001:000094fc       _memcpy_s                  1000a4fc f   RemoteOrderDisplay.obj
 0001:0000bccc       ?find_pe_section@@YAPAU_IMAGE_SECTION_HEADER@@QAEI@Z 1000cccc f   LIBCMT:utility.obj
 0001:0000c017       ?__scrt_initialize_thread_safe_statics@@YAHXZ 1000d017 f   LIBCMT:thread_safe_statics.obj
 0001:0000c03e       ?__scrt_initialize_thread_safe_statics_platform_specific@@YAXXZ 1000d03e f   LIBCMT:thread_safe_statics.obj
 0001:0000c12d       ?__scrt_uninitialize_thread_safe_statics@@YAXXZ 1000d12d f   LIBCMT:thread_safe_statics.obj
 0001:0000c4ba       __catch$??2@YAPAXIABUnothrow_t@std@@@Z$0 1000d4ba f   LIBCMT:new_scalar_nothrow.obj
 0001:0000c4f0       $$000000                   1000d4f0     LIBCMT:sehprolg4gs.obj
 0001:0000c550       $$000000                   1000d550     LIBCMT:alloca16.obj
 0001:0000c580       $$000000                   1000d580     LIBCMT:chkstk.obj
 0001:0000c5ad       ?dllmain_crt_dispatch@@YGHQAUHINSTANCE__@@KQAX@Z 1000d5ad f   LIBCMT:dll_dllmain.obj
 0001:0000c600       ?dllmain_crt_process_attach@@YAHQAUHINSTANCE__@@QAX@Z 1000d600 f   LIBCMT:dll_dllmain.obj
 0001:0000c70a       ?dllmain_crt_process_detach@@YAH_N@Z 1000d70a f   LIBCMT:dll_dllmain.obj
 0001:0000c79c       ?dllmain_dispatch@@YAHQAUHINSTANCE__@@KQAX@Z 1000d79c f   LIBCMT:dll_dllmain.obj
 0001:0000c8a2       ?dllmain_raw@@YGHQAUHINSTANCE__@@KQAX@Z 1000d8a2 f   LIBCMT:dll_dllmain.obj
 0001:0000cbf0       $$000000                   1000dbf0     LIBCMT:sehprolg4.obj
 0001:0000cc4c       ___get_entropy             1000dc4c f   LIBCMT:gs_support.obj
 0001:0000cf43       ??$GetProcAddressAll@P6GXPAUAtlThunkData_t@@PAXI@Z@@YAP6GXPAUAtlThunkData_t@@PAXI@ZPAP6GX01I@Z@Z 1000df43 f   atls:atlthunk.obj
 0001:0000cf43       ??$GetProcAddressAll@P6GP6GJPAUHWND__@@IIJ@ZPAUAtlThunkData_t@@@Z@@YAP6GP6GJPAUHWND__@@IIJ@ZPAUAtlThunkData_t@@@ZPAP6GP6GJ0IIJ@Z1@Z@Z 1000df43 f   atls:atlthunk.obj
 0001:0000cf43       ??$GetProcAddressAll@P6GXPAUAtlThunkData_t@@@Z@@YAP6GXPAUAtlThunkData_t@@@ZPAP6GX0@Z@Z 1000df43 f   atls:atlthunk.obj
 0001:0000cf43       ??$GetProcAddressAll@P6GPAUAtlThunkData_t@@XZ@@YAP6GPAUAtlThunkData_t@@XZPAP6GPAU0@XZ@Z 1000df43 f   atls:atlthunk.obj
 0001:0000cff3       ?GetProcAddressSingle@@YA_NPAUHINSTANCE__@@PBDPAPAX@Z 1000dff3 f   atls:atlthunk.obj
 0001:0000d145       ?__InitializeThunkPool@@YAHXZ 1000e145 f   atls:atlthunk.obj
 0001:0000d5b0       _ValidateLocalCookies      1000e5b0 f   libvcruntime:chandler4.obj
 0001:0000e66b       $LN1285                    1000f66b     libvcruntime:memcmp.obj
 0001:0000e6f0       $$000000                   1000f6f0     libvcruntime:memcpy.obj
 0001:0000e954       TrailingUpVec              1000f954     libvcruntime:memcpy.obj
 0001:0000ea00       TrailingDownVec            1000fa00     libvcruntime:memcpy.obj
 0001:0000ec70       $$000000                   1000fc70     libvcruntime:memset.obj
 0001:0000f330       $$000000                   10010330     libvcruntime:memmove.obj
 0001:0000f594       TrailingUpVec              10010594     libvcruntime:memmove.obj
 0001:0000f640       TrailingDownVec            10010640     libvcruntime:memmove.obj
 0001:0000f8b0       $$000000                   100108b0     libvcruntime:exsup4.obj
 0001:0000f940       __unwind_handler4          10010940 f   libvcruntime:exsup4.obj
 0001:0000fc1f       ?try_get_first_available_module@@YAPAUHINSTANCE__@@QBW4module_id@?A0x5d2a34d3@@0@Z 10010c1f f   libvcruntime:winapi_downlevel.obj
 0001:0000fce3       ?try_get_function@@YAPAXW4function_id@?A0x5d2a34d3@@QBDQBW4module_id@2@2@Z 10010ce3 f   libvcruntime:winapi_downlevel.obj
 0001:0000fee3       ??$BuildCatchObjectHelperInternal@V__FrameHandler3@@@@YAHPAUEHExceptionRecord@@PAXPBU_s_HandlerType@@PBU_s_CatchableType@@@Z 10010ee3 f   libvcruntime:frame.obj
 0001:00010022       ??$BuildCatchObjectInternal@V__FrameHandler3@@@@YAXPAUEHExceptionRecord@@PAXPBU_s_HandlerType@@PBU_s_CatchableType@@@Z 10011022 f   libvcruntime:frame.obj
 0001:000100bb       ??$CatchIt@V__FrameHandler3@@@@YAXPAUEHExceptionRecord@@PAUEHRegistrationNode@@PAU_CONTEXT@@PAXPBU_s_FuncInfo@@PBU_s_HandlerType@@PBU_s_CatchableType@@PBU_s_TryBlockMapEntry@@H1E@Z 100110bb f   libvcruntime:frame.obj
 0001:0001013b       ??$FindHandler@V__FrameHandler3@@@@YAXPAUEHExceptionRecord@@PAUEHRegistrationNode@@PAU_CONTEXT@@PAXPBU_s_FuncInfo@@EH1@Z 1001113b f   libvcruntime:frame.obj
 0001:000104c9       ??$FindHandlerForForeignException@V__FrameHandler3@@@@YAXPAUEHExceptionRecord@@PAUEHRegistrationNode@@PAU_CONTEXT@@PAXPBU_s_FuncInfo@@HH1@Z 100114c9 f   libvcruntime:frame.obj
 0001:000107bc       ?CallCatchBlock@@YAPAXPAUEHExceptionRecord@@PAUEHRegistrationNode@@PAU_CONTEXT@@PBU_s_FuncInfo@@PAXHK@Z 100117bc f   libvcruntime:frame.obj
 0001:00010980       ?CallUnexpected@@YAXPBU_s_ESTypeList@@@Z 10011980 f   libvcruntime:frame.obj
 0001:000109a0       __catch$?CallUnexpected@@YAXPBU_s_ESTypeList@@@Z$0 100119a0 f   libvcruntime:frame.obj
 0001:000109ba       ?ExFilterRethrow@@YAHPAU_EXCEPTION_POINTERS@@@Z 100119ba f   libvcruntime:frame.obj
 0001:00010b04       ?IsInExceptionSpec@@YAEPAUEHExceptionRecord@@PBU_s_ESTypeList@@@Z 10011b04 f   libvcruntime:frame.obj
 0001:00010bd0       $$000000                   10011bd0     libvcruntime:lowhelpr.obj
 0001:00010c20       $$000000                   10011c20     libvcruntime:exsup.obj
 0001:00010c41       __unwind_handler           10011c41 f   libvcruntime:exsup.obj
 0001:000113ea       ??$common_tcsncpy_s@_W@@YAHQA_WIQB_WI@Z 100123ea f   libucrt:wcsncpy_s.obj
 0001:000114c2       ??$common_vsprintf@Vformat_validation_base@__crt_stdio_output@@_W@@YAH_KQA_WIQB_WQAU__crt_locale_pointers@@QAD@Z 100124c2 f   libucrt:output.obj
 0001:00011647       ??$common_vsprintf_s@_W@@YAH_KQA_WIQB_WQAU__crt_locale_pointers@@QAD@Z 10012647 f   libucrt:output.obj
 0001:00011cd0       $LN52                      10012cd0     libucrt:output.obj
 0001:000121c1       $LN19                      100131c1     libucrt:output.obj
 0001:00012a65       ?atexit_exception_filter@@YAHK@Z 10013a65 f   libucrt:exit.obj
 0001:00012a78       ?common_exit@@YAXHW4_crt_exit_cleanup_mode@@W4_crt_exit_return_mode@@@Z 10013a78 f   libucrt:exit.obj
 0001:00012b91       ?exit_or_terminate_process@@YAXI@Z 10013b91 f   libucrt:exit.obj
 0001:00012bd2       ?is_managed_app@@YA_NXZ    10013bd2 f   libucrt:exit.obj
 0001:00012c16       ?try_cor_exit_process@@YAXI@Z 10013c16 f   libucrt:exit.obj
 0001:00012cba       ??$common_configure_argv@D@@YAHW4_crt_argv_mode@@@Z 10013cba f   libucrt:argv_parsing.obj
 0001:00012dde       ??$parse_command_line@D@@YAXPADPAPAD0PAI2@Z 10013dde f   libucrt:argv_parsing.obj
 0001:00012fb3       ??$common_initialize_environment_nolock@D@@YAHXZ 10013fb3 f   libucrt:environment_initialization.obj
 0001:0001300c       ??$create_environment@D@@YAQAPADQAD@Z 1001400c f   libucrt:environment_initialization.obj
 0001:000130dd       ??$free_environment@_W@@YAXQAPA_W@Z 100140dd f   libucrt:environment_initialization.obj
 0001:000130dd       ??$free_environment@D@@YAXQAPAD@Z 100140dd f   libucrt:environment_initialization.obj
 0001:0001314c       ??$uninitialize_environment_internal@D@@YAXAAPAPAD@Z 1001414c f   libucrt:environment_initialization.obj
 0001:00013167       ??$uninitialize_environment_internal@_W@@YAXAAPAPA_W@Z 10014167 f   libucrt:environment_initialization.obj
 0001:000132cf       ??R<lambda_275893d493268fdec8709772e3fcec0e>@@QBEHXZ 100142cf f   libucrt:onexit.obj
 0001:000133ef       ??R<lambda_4e60a939b0d047cfe11ddc22648dfba9>@@QBEHXZ 100143ef f   libucrt:onexit.obj
 0001:000135c4       _initialize_global_variables 100145c4 f   libucrt:initialization.obj
 0001:000135d6       _initialize_c              100145d6 f   libucrt:initialization.obj
 0001:000135f0       _initialize_global_state_isolation 100145f0 f   libucrt:initialization.obj
 0001:000135f0       _uninitialize_global_state_isolation 100145f0 f   libucrt:initialization.obj
 0001:000135f0       _report_memory_leaks       100145f0 f   libucrt:initialization.obj
 0001:000135f0       _uninitialize_c            100145f0 f   libucrt:initialization.obj
 0001:000135f0       _initialize_environment    100145f0 f   libucrt:initialization.obj
 0001:000135f3       _uninitialize_environment  100145f3 f   libucrt:initialization.obj
 0001:000135fb       _initialize_pointers       100145fb f   libucrt:initialization.obj
 0001:00013638       _uninitialize_vcruntime    10014638 f   libucrt:initialization.obj
 0001:00013641       _uninitialize_allocated_memory 10014641 f   libucrt:initialization.obj
 0001:00014100       $$000000                   10015100     libucrt:strncmp.obj
 0001:00014396       ?construct_ptd@@YAXQAU__acrt_ptd@@QAPAU__crt_locale_data@@@Z 10015396 f   libucrt:per_thread_data.obj
 0001:0001440f       ?destroy_fls@@YGXPAX@Z     1001540f f   libucrt:per_thread_data.obj
 0001:00014430       ?destroy_ptd@@YAXQAU__acrt_ptd@@@Z 10015430 f   libucrt:per_thread_data.obj
 0001:000144d9       ?replace_current_thread_locale_nolock@@YAXQAU__acrt_ptd@@QAU__crt_locale_data@@@Z 100154d9 f   libucrt:per_thread_data.obj
 0001:000147e6       ?try_get_function@@YAPAXW4function_id@?A0x352e5c4b@@QBDQBW4module_id@2@2@Z 100157e6 f   libucrt:winapi_thunks.obj
 0001:00014882       ?try_get_module@@YAPAUHINSTANCE__@@W4module_id@?A0x352e5c4b@@@Z 10015882 f   libucrt:winapi_thunks.obj
 0001:00014d38       ??$common_tox_l@$1?internal_isupper_l@@YA_NHQAU__crt_locale_pointers@@@Z$1?internal_map_lower@@YAHH0@Z@@YAHHKQAU__crt_locale_pointers@@@Z 10015d38 f   libucrt:tolower_toupper.obj
 0001:00014e82       ?internal_isupper_l@@YA_NHQAU__crt_locale_pointers@@@Z 10015e82 f   libucrt:tolower_toupper.obj
 0001:000152df       ?fp_format_a@@YAHQBNPADIQADIH_NIQAU__crt_locale_pointers@@@Z 100162df f   libucrt:cvt.obj
 0001:000155e2       ?fp_format_e@@YAHQBNQADI1IH_NIQAU__crt_locale_pointers@@@Z 100165e2 f   libucrt:cvt.obj
 0001:0001567d       ?fp_format_e_internal@@YAHQADIH_NIQAU_strflt@@1QAU__crt_locale_pointers@@@Z 1001667d f   libucrt:cvt.obj
 0001:000157c8       ?fp_format_f@@YAHQBNQADI1IHQAU__crt_locale_pointers@@@Z 100167c8 f   libucrt:cvt.obj
 0001:00015855       ?fp_format_f_internal@@YAHQADIHQAU_strflt@@_NQAU__crt_locale_pointers@@@Z 10016855 f   libucrt:cvt.obj
 0001:0001592c       ?fp_format_g@@YAHQBNQADI1IH_NIQAU__crt_locale_pointers@@@Z 1001692c f   libucrt:cvt.obj
 0001:000159f4       ?fp_format_nan_or_infinity@@YAHW4__acrt_fp_class@@_NPADI1@Z 100169f4 f   libucrt:cvt.obj
 0001:00015aec       ?shift_bytes@@YAXQADI0H@Z  10016aec f   libucrt:cvt.obj
 0001:00015e3e       ?initialize_inherited_file_handles_nolock@@YAXXZ 10016e3e f   libucrt:ioinit.obj
 0001:00015ef4       ?initialize_stdio_handles_nolock@@YAXXZ 10016ef4 f   libucrt:ioinit.obj
 0001:000160cc       ?<helper_func_cdecl>@<lambda_62bb7ecb46d0a77b591a051c43eb5ad1>@@CAHPBX0@Z 100170cc f   libucrt:argv_wildcards.obj
 0001:000160e4       ??$common_expand_argv_wildcards@D@@YAHQAPADQAPAPAD@Z 100170e4 f   libucrt:argv_wildcards.obj
 0001:00016274       ??$copy_and_add_argument_to_buffer@D@@YAHQBD0IAAV?$argument_list@D@?A0xb0e4b824@@@Z 10017274 f   libucrt:argv_wildcards.obj
 0001:0001630a       ??$expand_argument_wildcards@D@@YAHQAD0AAV?$argument_list@D@?A0xb0e4b824@@@Z 1001730a f   libucrt:argv_wildcards.obj
 0001:000165e5       ??R<lambda_ad1ced32f4ac17aa236e5ef05d6b3b7c>@@QBEXXZ 100175e5 f   libucrt:mbctype.obj
 0001:000166a9       ?CPtoLocaleName@@YAPB_WH@Z 100176a9 f   libucrt:mbctype.obj
 0001:000166e7       ?getSystemCP@@YAHH@Z       100176e7 f   libucrt:mbctype.obj
 0001:0001675a       ?setSBCS@@YAXPAU__crt_multibyte_data@@@Z 1001775a f   libucrt:mbctype.obj
 0001:000167bf       ?setSBUpLow@@YAXPAU__crt_multibyte_data@@@Z 100177bf f   libucrt:mbctype.obj
 0001:00016953       ?setmbcp_internal@@YAHH_N@Z 10017953 f   libucrt:mbctype.obj
 0001:00016d05       _memcpy_s                  10017d05 f   libucrt:mbctype.obj
 0001:00016d05       _memcpy_s                  10017d05 f   libucrt:cfout.obj
 0001:00016d86       ?x_ismbbtype_l@@YAHPAU__crt_locale_pointers@@IHH@Z 10017d86 f   libucrt:ismbbyte.obj
 0001:00016e10       ?find_end_of_double_null_terminated_sequence@@YAPB_WQB_W@Z 10017e10 f   libucrt:get_environment_from_os.obj
 0001:00017037       ?get_global_action_nolock@@YAPAP6AXH@ZH@Z 10018037 f   libucrt:signal.obj
 0001:00017079       ?siglookup@@YAPAU__crt_signal_action_t@@HQAU1@@Z 10018079 f   libucrt:signal.obj
 0001:00017868       ?GetTableIndexFromLocaleName@@YAHPB_W@Z 10018868 f   libucrt:lcidtoname_downlevel.obj
 0001:00017989       ?__acrt_LCMapStringA_stat@@YAHPAU__crt_locale_pointers@@PB_WKPBDHPADHHH@Z 10018989 f   libucrt:lcmapstringa.obj
 0001:000196a0       _common_flush_all          1001a6a0 f   libucrt:fflush.obj
 0001:00019973       ?free_crt_array_internal@@YAXQAPBXI@Z 1001a973 f   libucrt:inittime.obj
 0001:00019e40       ?shortsort@@YAXPAD0IP6AHPBX1@Z@Z 1001ae40 f   libucrt:qsort.obj
 0001:00019ee0       ?swap@@YAXPAD0I@Z          1001aee0 f   libucrt:qsort.obj
 0001:0001a2ba       ??$common_tcsncpy_s@D@@YAHQADIQBDI@Z 1001b2ba f   libucrt:strncpy_s.obj
 0001:0001a380       $$000000                   1001b380     libucrt:strpbrk.obj
 0001:0001a464       ?initialize_multibyte@@YAHXZ 1001b464 f   libucrt:multibyte_initializer.obj
 0001:0001a550       $$000000                   1001b550     libucrt:log10.obj
 0001:0001a6a0       $$000000                   1001b6a0     libucrt:ceil_pentium4.obj
 0001:0001a7bd       ?write_double_translated_ansi_nolock@@YA?AUwrite_result@?A0x47fa6670@@HQBDI@Z 1001b7bd f   libucrt:write.obj
 0001:0001a970       ?write_double_translated_unicode_nolock@@YA?AUwrite_result@?A0x47fa6670@@QBDI@Z 1001b970 f   libucrt:write.obj
 0001:0001a9dd       ?write_requires_double_translation_nolock@@YA_NH@Z 1001b9dd f   libucrt:write.obj
 0001:0001aa53       ?write_text_ansi_nolock@@YA?AUwrite_result@?A0x47fa6670@@HQBDI@Z 1001ba53 f   libucrt:write.obj
 0001:0001ab32       ?write_text_utf16le_nolock@@YA?AUwrite_result@?A0x47fa6670@@HQBDI@Z 1001bb32 f   libucrt:write.obj
 0001:0001ac20       ?write_text_utf8_nolock@@YA?AUwrite_result@?A0x47fa6670@@HQBDI@Z 1001bc20 f   libucrt:write.obj
 0001:0001b044       ??$common_lseek_nolock@_J@@YA_JH_JH@Z 1001c044 f   libucrt:lseek.obj
 0001:0001b308       ___get_abstract_control_sse2 1001c308 f   libucrt:_fenvutils.obj
 0001:0001b385       ___get_abstract_control_x87 1001c385 f   libucrt:_fenvutils.obj
 0001:0001b3f8       ___get_machine_control     1001c3f8 f   libucrt:_fenvutils.obj
 0001:0001b469       ___get_machine_control_sse2 1001c469 f   libucrt:_fenvutils.obj
 0001:0001b4e9       ___get_machine_status_sse2 1001c4e9 f   libucrt:_fenvutils.obj
 0001:0001b54a       ___get_machine_status_x87  1001c54a f   libucrt:_fenvutils.obj
 0001:0001b890       $$000000                   1001c890     libucrt:log10_pentium4.obj
 0001:0001bb20       $$000000                   1001cb20     libucrt:87tran.obj
 0001:0001bd20       $$000000                   1001cd20     libucrt:87disp.obj
 0001:0001bf20       $$000000                   1001cf20     libucrt:common.obj
 0001:0001c0b0       $$000000                   1001d0b0     libucrt:genexcep.obj
 0001:0001c620       $$000000                   1001d620     libucrt:_strnicm.obj
 0001:0001d470       $$000000                   1001e470     LIBCMT:ulldvrm.obj
 0001:0001d510       $$000000                   1001e510     LIBCMT:llmul.obj
 0001:0001d550       $$000000                   1001e550     LIBCMT:lldvrm.obj
 0001:0001d630       $$000000                   1001e630     LIBCMT:ullshr.obj
 0001:0001d650       $$000000                   1001e650     LIBCMT:llshl.obj
 0001:0001d670       $$000000                   1001e670     LIBCMT:ftol2.obj
 0001:0001d730       $$000000                   1001e730     libvcruntime:strrchr.obj
 0001:0001d870       $$000000                   1001e870     libvcruntime:strchr.obj
 0001:0001d99b       __ehhandler$?__scrt_initialize_thread_safe_statics_platform_specific@@YAXXZ 1001e99b f   LIBCMT:thread_safe_statics.obj
 0001:0001d9b6       __ehhandler$??2@YAPAXIABUnothrow_t@std@@@Z 1001e9b6 f   LIBCMT:new_scalar_nothrow.obj
 0001:0001d9d1       __ehhandler$?CallUnexpected@@YAXPBU_s_ESTypeList@@@Z 1001e9d1 f   libvcruntime:frame.obj
 0001:0001d9ec       ??__F_AtlComModule@ATL@@YAXXZ 1001e9ec f   OposVariant.obj
 0001:0001d9f6       ??__F_AtlWinModule@ATL@@YAXXZ 1001e9f6 f   OposVariant.obj
 0001:0001da10       ??__F_Module@@YAXXZ        1001ea10 f   RemoteOrderDisplay.obj
 0001:0001da24       ??__F_AtlBaseModule@ATL@@YAXXZ 1001ea24 f   atls:atlbase.obj
 0002:00000308       ?_AtlBaseModule$initializer$@ATL@@3P6AXXZA 1001f308     atls:atlbase.obj
 0002:0000030c       ?_AtlComModule$initializer$@ATL@@3P6AXXZA 1001f30c     OposVariant.obj
 0002:00000310       ?_AtlWinModule$initializer$@ATL@@3P6AXXZA 1001f310     OposVariant.obj
 0002:00000314       ?_Module$initializer$@@3P6AXXZA 1001f314     RemoteOrderDisplay.obj
 0002:00000318       ??pConnMap$initializer$@?$IConnectionPointContainerImpl@VCOPOSRemoteOrderDisplay@@@ATL@@0P6AXXZA@@3P6AXXZA 1001f318     RemoteOrderDisplay.obj
 0002:00000324       ?__scrt_initialize_tss_var@@3P6AHXZA 1001f324     LIBCMT:thread_safe_statics.obj
 0002:00001aac       _GS_ExceptionPointers      10020aac     LIBCMT:gs_report.obj
 0002:00001c18       ?ExceptionTemplate@?1??_CxxThrowException@@9@8@4UEHExceptionRecord@@B 10020c18     libvcruntime:throw.obj
 0002:00001c38       ?module_names@?A0x5d2a34d3@@3QBQB_WB 10020c38     libvcruntime:winapi_downlevel.obj
 0002:00001cf0       ?candidate_modules@?1??try_get_FlsAlloc@@YAP6GKP6GXPAX@Z@ZXZ@4QBW4module_id@?A0x5d2a34d3@@B 10020cf0     libvcruntime:winapi_downlevel.obj
 0002:00001d04       ?candidate_modules@?1??try_get_FlsFree@@YAP6GHK@ZXZ@4QBW4module_id@?A0x5d2a34d3@@B 10020d04     libvcruntime:winapi_downlevel.obj
 0002:00001d14       ?candidate_modules@?1??try_get_FlsGetValue@@YAP6GPAXK@ZXZ@4QBW4module_id@?A0x5d2a34d3@@B 10020d14     libvcruntime:winapi_downlevel.obj
 0002:00001d28       ?candidate_modules@?1??try_get_FlsSetValue@@YAP6GHKPAX@ZXZ@4QBW4module_id@?A0x5d2a34d3@@B 10020d28     libvcruntime:winapi_downlevel.obj
 0002:00001d3c       ?candidate_modules@?1??try_get_InitializeCriticalSectionEx@@YAP6GHPAU_RTL_CRITICAL_SECTION@@KK@ZXZ@4QBW4module_id@?A0x5d2a34d3@@B 10020d3c     libvcruntime:winapi_downlevel.obj
 0002:00001d80       ?tokenTable@@3QBQBDB       10020d80     libvcruntime:undname.obj
 0002:00001dc0       ?nameTable@@3QBQBDB        10020dc0     libvcruntime:undname.obj
 0002:00001f08       ?rttiTable@@3QBQBDB        10020f08     libvcruntime:undname.obj
 0002:00002520       _errtable                  10021520     libucrt:errno.obj
 0002:000027c8       ___acrt_initializers       100217c8     libucrt:initialization.obj
 0002:00002840       _module_names              10021840     libucrt:winapi_thunks.obj
 0002:00002d88       ?candidate_modules@?1??try_get_FlsAlloc@@YAP6GKP6GXPAX@Z@ZXZ@4QBW4module_id@?A0x352e5c4b@@B 10021d88     libucrt:winapi_thunks.obj
 0002:00002d9c       ?candidate_modules@?1??try_get_FlsFree@@YAP6GHK@ZXZ@4QBW4module_id@?A0x352e5c4b@@B 10021d9c     libucrt:winapi_thunks.obj
 0002:00002dac       ?candidate_modules@?1??try_get_FlsGetValue@@YAP6GPAXK@ZXZ@4QBW4module_id@?A0x352e5c4b@@B 10021dac     libucrt:winapi_thunks.obj
 0002:00002dc0       ?candidate_modules@?1??try_get_FlsSetValue@@YAP6GHKPAX@ZXZ@4QBW4module_id@?A0x352e5c4b@@B 10021dc0     libucrt:winapi_thunks.obj
 0002:00002dd4       ?candidate_modules@?1??try_get_GetCurrentPackageId@@YAP6GJPAIPAE@ZXZ@4QBW4module_id@?A0x352e5c4b@@B 10021dd4     libucrt:winapi_thunks.obj
 0002:00002df0       ?candidate_modules@?1??try_get_InitializeCriticalSectionEx@@YAP6GHPAU_RTL_CRITICAL_SECTION@@KK@ZXZ@4QBW4module_id@?A0x352e5c4b@@B 10021df0     libucrt:winapi_thunks.obj
 0002:00002e14       ?candidate_modules@?1??try_get_LCMapStringEx@@YAP6GHPB_WK0HPA_WHPAU_nlsversioninfo@@PAXJ@ZXZ@4QBW4module_id@?A0x352e5c4b@@B 10021e14     libucrt:winapi_thunks.obj
 0002:00002e2c       ?candidate_modules@?1??try_get_LocaleNameToLCID@@YAP6GKPB_WK@ZXZ@4QBW4module_id@?A0x352e5c4b@@B 10021e2c     libucrt:winapi_thunks.obj
 0002:00002e48       ?candidate_modules@?1??try_get_SetThreadStackGuarantee@@YAP6GHPAK@ZXZ@4QBW4module_id@?A0x352e5c4b@@B 10021e48     libucrt:winapi_thunks.obj
 0002:00003374       __mb_locale_names          10022374     libucrt:mbctype.obj
 0002:00003bc0       _LcidToLocaleNameTable     10022bc0     libucrt:lcidtoname_downlevel.obj
 0002:00004ce8       _LocaleNameToIndexTable    10023ce8     libucrt:lcidtoname_downlevel.obj
 0002:00006620       LOG_name                   10025620     libucrt:log10.obj
 0002:00006630       _One                       10025630     libucrt:ceil_pentium4.obj
 0002:00006640       _Bns                       10025640     libucrt:ceil_pentium4.obj
 0002:00006650       _Zero                      10025650     libucrt:ceil_pentium4.obj
 0002:00006660       _S                         10025660     libucrt:ceil_pentium4.obj
 0002:00006670       _NegZero                   10025670     libucrt:ceil_pentium4.obj
 0002:00006680       emask                      10025680     libucrt:log10_pentium4.obj
 0002:00006690       CC                         10025690     libucrt:log10_pentium4.obj
 0002:000066a0       Magic                      100256a0     libucrt:log10_pentium4.obj
 0002:000066b0       hi_mask                    100256b0     libucrt:log10_pentium4.obj
 0002:000066c0       LOG10_2                    100256c0     libucrt:log10_pentium4.obj
 0002:000066d0       place_L                    100256d0     libucrt:log10_pentium4.obj
 0002:000066f0       One                        100256f0     libucrt:log10_pentium4.obj
 0002:00006700       Zero                       10025700     libucrt:log10_pentium4.obj
 0002:00006710       Two52                      10025710     libucrt:log10_pentium4.obj
 0002:00006720       Infs                       10025720     libucrt:log10_pentium4.obj
 0002:00006730       NaN                        10025730     libucrt:log10_pentium4.obj
 0002:00006740       coeff                      10025740     libucrt:log10_pentium4.obj
 0002:0000679e       _log2max                   1002579e     libucrt:87tran.obj
 0002:000067a8       _smallarg                  100257a8     libucrt:87tran.obj
 0002:000067b2       _half                      100257b2     libucrt:87tran.obj
 0002:000067fe       One                        100257fe     libucrt:87disp.obj
 0002:00006806       Three                      10025806     libucrt:87disp.obj
 0002:0000680e       XAMtoTagTab                1002580e     libucrt:87disp.obj
 0002:00006820       One                        10025820     libucrt:common.obj
 0002:00006834       DblMax                     10025834     libucrt:common.obj
 0002:0000683c       DblMin                     1002583c     libucrt:common.obj
 0002:00006844       IeeeAdjO                   10025844     libucrt:common.obj
 0002:0000684c       IeeeAdjU                   1002584c     libucrt:common.obj
 0002:00006854       _infinity                  10025854     libucrt:common.obj
 0002:0000685c       _zero                      1002585c     libucrt:common.obj
 0002:00006898       _over                      10025898     libucrt:fpctrl.obj
 0002:000068a4       _under                     100258a4     libucrt:fpctrl.obj
 0002:00007168       ?_names@?1??_get_fname@@9@9 10026168     libucrt:fpexcept.obj
 0002:00007948       __sehtable$?_AtlVerifyStackAvailable@_ATL_SAFE_ALLOCA_IMPL@ATL@@YA_NK@Z 10026948     RemoteOrderDisplay.obj
 0002:00007968       __sehtable$___scrt_is_nonwritable_in_current_image 10026968     LIBCMT:utility.obj
 0002:00007984       __ehfuncinfo$?__scrt_initialize_thread_safe_statics_platform_specific@@YAXXZ 10026984     LIBCMT:thread_safe_statics.obj
 0002:000079a8       __catchsym$??2@YAPAXIABUnothrow_t@std@@@Z$2 100269a8     LIBCMT:new_scalar_nothrow.obj
 0002:000079b8       __unwindtable$??2@YAPAXIABUnothrow_t@std@@@Z 100269b8     LIBCMT:new_scalar_nothrow.obj
 0002:000079c8       __tryblocktable$??2@YAPAXIABUnothrow_t@std@@@Z 100269c8     LIBCMT:new_scalar_nothrow.obj
 0002:000079dc       __ehfuncinfo$??2@YAPAXIABUnothrow_t@std@@@Z 100269dc     LIBCMT:new_scalar_nothrow.obj
 0002:00007a00       __sehtable$?dllmain_crt_process_attach@@YAHQAUHINSTANCE__@@QAX@Z 10026a00     LIBCMT:dll_dllmain.obj
 0002:00007a20       __sehtable$?dllmain_crt_process_detach@@YAH_N@Z 10026a20     LIBCMT:dll_dllmain.obj
 0002:00007a40       __sehtable$?dllmain_dispatch@@YAHQAUHINSTANCE__@@KQAX@Z 10026a40     LIBCMT:dll_dllmain.obj
 0002:00007af0       __sehtable$?FrameUnwindToState@__FrameHandler3@@SAXPAUEHRegistrationNode@@PAXPBU_s_FuncInfo@@H@Z 10026af0     libvcruntime:frame.obj
 0002:00007b18       __sehtable$?CallCatchBlock@@YAPAXPAUEHExceptionRecord@@PAUEHRegistrationNode@@PAU_CONTEXT@@PBU_s_FuncInfo@@PAXHK@Z 10026b18     libvcruntime:frame.obj
 0002:00007b40       __catchsym$?CallUnexpected@@YAXPBU_s_ESTypeList@@@Z$2 10026b40     libvcruntime:frame.obj
 0002:00007b50       __unwindtable$?CallUnexpected@@YAXPBU_s_ESTypeList@@@Z 10026b50     libvcruntime:frame.obj
 0002:00007b60       __tryblocktable$?CallUnexpected@@YAXPBU_s_ESTypeList@@@Z 10026b60     libvcruntime:frame.obj
 0002:00007b74       __ehfuncinfo$?CallUnexpected@@YAXPBU_s_ESTypeList@@@Z 10026b74     libvcruntime:frame.obj
 0002:00007b98       __sehtable$??$BuildCatchObjectHelperInternal@V__FrameHandler3@@@@YAHPAUEHExceptionRecord@@PAXPBU_s_HandlerType@@PBU_s_CatchableType@@@Z 10026b98     libvcruntime:frame.obj
 0002:00007bb8       __sehtable$??$BuildCatchObjectInternal@V__FrameHandler3@@@@YAXPAUEHExceptionRecord@@PAXPBU_s_HandlerType@@PBU_s_CatchableType@@@Z 10026bb8     libvcruntime:frame.obj
 0002:00007c10       __sehtable$___DestructExceptionObject 10026c10     libvcruntime:ehhelpers.obj
 0002:00007c30       __sehtable$?common_exit@@YAXHW4_crt_exit_cleanup_mode@@W4_crt_exit_return_mode@@@Z 10026c30     libucrt:exit.obj
 0002:00007c58       __sehtable$??$?RV<lambda_800076c951b434888f4765a74a194fcc>@@AAV<lambda_4e60a939b0d047cfe11ddc22648dfba9>@@V<lambda_6dbb1268764f43b569ce7b67e331d33a>@@@?$__crt_seh_guarded_call@H@@QAEH$$QAV<lambda_800076c951b434888f4765a74a194fcc>@@AAV<lambda_4e60a939b0d047cfe11ddc22648dfba9>@@$$QAV<lambda_6dbb1268764f43b569ce7b67e331d33a>@@@Z 10026c58     libucrt:onexit.obj
 0002:00007c78       __sehtable$??$?RV<lambda_995298e7d72eb4c2aab26c0585b3abe5>@@AAV<lambda_275893d493268fdec8709772e3fcec0e>@@V<lambda_293819299cbf9a7022e18b56a874bb5c>@@@?$__crt_seh_guarded_call@H@@QAEH$$QAV<lambda_995298e7d72eb4c2aab26c0585b3abe5>@@AAV<lambda_275893d493268fdec8709772e3fcec0e>@@$$QAV<lambda_293819299cbf9a7022e18b56a874bb5c>@@@Z 10026c78     libucrt:onexit.obj
 0002:00007c98       __sehtable$__query_new_handler 10026c98     libucrt:new_handler.obj
 0002:00007cb8       __sehtable$_terminate      10026cb8     libucrt:terminate.obj
 0002:00007cd8       __sehtable$??$?RV<lambda_9df27f884b057bc3edfc946cb5b7cf47>@@AAV<lambda_e69574bed617af4e071282c136b37893>@@V<lambda_cc0d902bcbbeb830f749456577db4721>@@@?$__crt_seh_guarded_call@X@@QAEX$$QAV<lambda_9df27f884b057bc3edfc946cb5b7cf47>@@AAV<lambda_e69574bed617af4e071282c136b37893>@@$$QAV<lambda_cc0d902bcbbeb830f749456577db4721>@@@Z 10026cd8     libucrt:per_thread_data.obj
 0002:00007cf8       __sehtable$??$?RV<lambda_3518db117f0e7cdb002338c5d3c47b6c>@@AAV<lambda_b2ea41f6bbb362cd97d94c6828d90b61>@@V<lambda_abdedf541bb04549bc734292b4a045d4>@@@?$__crt_seh_guarded_call@X@@QAEX$$QAV<lambda_3518db117f0e7cdb002338c5d3c47b6c>@@AAV<lambda_b2ea41f6bbb362cd97d94c6828d90b61>@@$$QAV<lambda_abdedf541bb04549bc734292b4a045d4>@@@Z 10026cf8     libucrt:per_thread_data.obj
 0002:00007d18       __sehtable$??$?RV<lambda_51b6e8b1eb166f2a3faf91f424b38130>@@AAV<lambda_6250bd4b2a391816dd638c3bf72b0bcb>@@V<lambda_0b5a4a3e68152e1d9b943535f5f47bed>@@@?$__crt_seh_guarded_call@X@@QAEX$$QAV<lambda_51b6e8b1eb166f2a3faf91f424b38130>@@AAV<lambda_6250bd4b2a391816dd638c3bf72b0bcb>@@$$QAV<lambda_0b5a4a3e68152e1d9b943535f5f47bed>@@@Z 10026d18     libucrt:per_thread_data.obj
 0002:00007d38       __sehtable$??$?RV<lambda_5b71d36f03204c0beab531769a5b5694>@@AAV<lambda_be2b3da3f62db62e9dad5dc70221a656>@@V<lambda_8f9ce462984622f9bf76b59e2aaaf805>@@@?$__crt_seh_guarded_call@X@@QAEX$$QAV<lambda_5b71d36f03204c0beab531769a5b5694>@@AAV<lambda_be2b3da3f62db62e9dad5dc70221a656>@@$$QAV<lambda_8f9ce462984622f9bf76b59e2aaaf805>@@@Z 10026d38     libucrt:per_thread_data.obj
 0002:00007d58       __sehtable$___acrt_uninitialize_locale 10026d58     libucrt:wsetlocale.obj
 0002:00007d78       __sehtable$___acrt_initialize_lowio 10026d78     libucrt:ioinit.obj
 0002:00007d98       __sehtable$___acrt_update_thread_multibyte_data 10026d98     libucrt:mbctype.obj
 0002:00007db8       __sehtable$??$?RV<lambda_978dc153c237d78434369da87b74ff60>@@AAV<lambda_ad1ced32f4ac17aa236e5ef05d6b3b7c>@@V<lambda_4a8533e2866a575feecb8298ce776b0d>@@@?$__crt_seh_guarded_call@X@@QAEX$$QAV<lambda_978dc153c237d78434369da87b74ff60>@@AAV<lambda_ad1ced32f4ac17aa236e5ef05d6b3b7c>@@$$QAV<lambda_4a8533e2866a575feecb8298ce776b0d>@@@Z 10026db8     libucrt:mbctype.obj
 0002:00007dd8       __sehtable$_raise          10026dd8     libucrt:signal.obj
 0002:00007df8       __sehtable$??$?RV<lambda_a048d3beccc847880fc8490e18b82769>@@AAV<lambda_ec61778202f4f5fc7e7711acc23c3bca>@@V<lambda_f7496a158712204296dd6628a163878e>@@@?$__crt_seh_guarded_call@P6AXH@Z@@QAEP6AXH@Z$$QAV<lambda_a048d3beccc847880fc8490e18b82769>@@AAV<lambda_ec61778202f4f5fc7e7711acc23c3bca>@@$$QAV<lambda_f7496a158712204296dd6628a163878e>@@@Z 10026df8     libucrt:signal.obj
 0002:00007e18       __sehtable$___acrt_update_thread_locale_data 10026e18     libucrt:locale_refcounting.obj
 0002:00007e38       __sehtable$__fcloseall     10026e38     libucrt:closeall.obj
 0002:00007e58       __sehtable$_common_flush_all 10026e58     libucrt:fflush.obj
 0002:00007e80       __sehtable$___acrt_lowio_ensure_fh_exists 10026e80     libucrt:osfinfo.obj
 0002:00007ea0       __sehtable$__write         10026ea0     libucrt:write.obj
 0002:00007ec0       __sehtable$_fclose         10026ec0     libucrt:fclose.obj
 0002:00007ee0       __sehtable$??$?RV<lambda_61cee617f5178ae960314fd4d05640a0>@@AAV<lambda_6978c1fb23f02e42e1d9e99668cc68aa>@@V<lambda_9cd88cf8ad10232537feb2133f08c833>@@@?$__crt_seh_guarded_call@H@@QAEH$$QAV<lambda_61cee617f5178ae960314fd4d05640a0>@@AAV<lambda_6978c1fb23f02e42e1d9e99668cc68aa>@@$$QAV<lambda_9cd88cf8ad10232537feb2133f08c833>@@@Z 10026ee0     libucrt:commit.obj
 0002:00007f00       __sehtable$??$?RV<lambda_123407a5e2ac06da108355a851863b7a>@@AAV<lambda_2fe9b910cf3cbf4a0ab98a02ba45b3ec>@@V<lambda_ae55bdf541ad94d75914d381c370e64d>@@@?$__crt_seh_guarded_call@H@@QAEH$$QAV<lambda_123407a5e2ac06da108355a851863b7a>@@AAV<lambda_2fe9b910cf3cbf4a0ab98a02ba45b3ec>@@$$QAV<lambda_ae55bdf541ad94d75914d381c370e64d>@@@Z 10026f00     libucrt:close.obj
 0002:00007f20       __sehtable$__IsNonwritableInCurrentImage 10026f20     LIBCMT:pesect.obj
 0002:00007f50       .edata                     10026f50     OPOSRemoteOrderDisplay.exp
 0002:00007f78       rgpv                       10026f78     OPOSRemoteOrderDisplay.exp
 0002:00007f88       rgszName                   10026f88     OPOSRemoteOrderDisplay.exp
 0002:00007f98       rgwOrd                     10026f98     OPOSRemoteOrderDisplay.exp
 0002:00007fa0       szName                     10026fa0     OPOSRemoteOrderDisplay.exp
 0002:00007fbb       $N00001                    10026fbb     OPOSRemoteOrderDisplay.exp
 0002:00007fcb       $N00002                    10026fcb     OPOSRemoteOrderDisplay.exp
 0002:00007fdd       $N00003                    10026fdd     OPOSRemoteOrderDisplay.exp
 0002:00007fef       $N00004                    10026fef     OPOSRemoteOrderDisplay.exp
 0002:00008602       .idata$6                   10027602     kernel32:KERNEL32.dll
 0002:00008816       .idata$6                   10027816     user32:USER32.dll
 0002:0000894a       .idata$6                   1002794a     gdi32:GDI32.dll
 0002:000089f0       .idata$6                   100279f0     advapi32:ADVAPI32.dll
 0002:00008b0c       .idata$6                   10027b0c     ole32:ole32.dll
 0002:00008b16       .idata$6                   10027b16     oleaut32:OLEAUT32.dll
 0003:00000110       ?ObjectMap@@3PAU_ATL_OBJMAP_ENTRY30@ATL@@A 10028110     RemoteOrderDisplay.obj
 0003:000001d0       ?s_SOMethodNames@@3PAPADA  100281d0     RemoteOrderDisplayImpl.obj
 0003:0000025c       ?s_RequiredMethodsPerRelease@@3PAHA 1002825c     RemoteOrderDisplayImpl.obj
 0003:00000290       ?__vcrt_flsindex@@3KA      10028290     libvcruntime:per_thread_data.obj
 0003:000002b0       _errno_no_memory           100282b0     libucrt:errno.obj
 0003:000002b4       _doserrno_no_memory        100282b4     libucrt:errno.obj
 0003:000002c0       ___acrt_flsindex           100282c0     libucrt:per_thread_data.obj
 0003:00000434       ___rgctypeflag             10028434     libucrt:mbctype.obj
 0003:00000438       ___rgcode_page_info        10028438     libucrt:mbctype.obj
 0003:00000b58       ?is_initialized_as_dll@@3_NA 10028b58     LIBCMT:utility.obj
 0003:00000b59       ?module_local_atexit_table_initialized@@3_NA 10028b59     LIBCMT:utility.obj
 0003:00000b5c       ?module_local_atexit_table@@3U_onexit_table_t@@A 10028b5c     LIBCMT:utility.obj
 0003:00000b68       ?module_local_at_quick_exit_table@@3U_onexit_table_t@@A 10028b68     LIBCMT:utility.obj
 0003:00000b74       ?_Tss_mutex@@3U_RTL_CRITICAL_SECTION@@A 10028b74     LIBCMT:thread_safe_statics.obj
 0003:00000b8c       ?_Tss_cv@@3U_RTL_CONDITION_VARIABLE@@A 10028b8c     LIBCMT:thread_safe_statics.obj
 0003:00000b90       ?_Tss_event@@3PAXA         10028b90     LIBCMT:thread_safe_statics.obj
 0003:00000b94       ?encoded_sleep_condition_variable_cs@@3P6GHPAU_RTL_CONDITION_VARIABLE@@PAU_RTL_CRITICAL_SECTION@@K@ZA 10028b94     LIBCMT:thread_safe_statics.obj
 0003:00000b98       ?encoded_wake_all_condition_variable@@3P6GXPAU_RTL_CONDITION_VARIABLE@@@ZA 10028b98     LIBCMT:thread_safe_statics.obj
 0003:00000ba0       _GS_ExceptionRecord        10028ba0     LIBCMT:gs_report.obj
 0003:00000bf0       _GS_ContextRecord          10028bf0     LIBCMT:gs_report.obj
 0003:00000ec0       ?__proc_attached@@3HA      10028ec0     LIBCMT:dll_dllmain.obj
 0003:00000f1c       ?AllocateData@@3P6GPAUAtlThunkData_t@@XZA 10028f1c     atls:atlthunk.obj
 0003:00000f20       ?InitData@@3P6GXPAUAtlThunkData_t@@PAXI@ZA 10028f20     atls:atlthunk.obj
 0003:00000f24       ?DataToCode@@3P6GP6GJPAUHWND__@@IIJ@ZPAUAtlThunkData_t@@@ZA 10028f24     atls:atlthunk.obj
 0003:00000f28       ?FreeData@@3P6GXPAUAtlThunkData_t@@@ZA 10028f28     atls:atlthunk.obj
 0003:00000f2c       ?Initialized@@3_NA         10028f2c     atls:atlthunk.obj
 0003:00000f38       ?__vcrt_startup_thread_ptd@@3U__vcrt_ptd@@A 10028f38     libvcruntime:per_thread_data.obj
 0003:00000f60       ___vcrt_lock_table         10028f60     libvcruntime:locks.obj
 0003:00000f78       ___vcrt_locks_initialized  10028f78     libvcruntime:locks.obj
 0003:00000f7c       ?module_handles@@3PAPAUHINSTANCE__@@A 10028f7c     libvcruntime:winapi_downlevel.obj
 0003:00000f88       ?encoded_function_pointers@@3PAPAXA 10028f88     libvcruntime:winapi_downlevel.obj
 0003:00000fc4       ?heap@@3V_HeapManager@@A   10028fc4     libvcruntime:undname.obj
 0003:00000fdc       ___acrt_invalid_parameter_handler 10028fdc     libucrt:invalid_parameter.obj
 0003:00000fe0       _c_termination_complete    10028fe0     libucrt:exit.obj
 0003:00000fe4       _thread_local_exit_callback_func 10028fe4     libucrt:exit.obj
 0003:00000fe8       ?c_exit_complete@?5??common_exit@@YAXHW4_crt_exit_cleanup_mode@@W4_crt_exit_return_mode@@@Z@4_NA 10028fe8     libucrt:exit.obj
 0003:00000ff0       ?program_name@?5???$common_configure_argv@D@@YAHW4_crt_argv_mode@@@Z@4PADA 10028ff0     libucrt:argv_parsing.obj
 0003:00001120       ___acrt_new_handler        10029120     libucrt:new_handler.obj
 0003:00001128       _module_handles            10029128     libucrt:winapi_thunks.obj
 0003:00001178       _encoded_function_pointers 10029178     libucrt:winapi_thunks.obj
 0003:000011f8       ?state_cache@?1??__acrt_is_packaged_app@@9@4JA 100291f8     libucrt:winapi_thunks.obj
 0003:00001204       _enable_percent_n          10029204     libucrt:printf_count_output.obj
 0003:00001420       ___acrt_lock_table         10029420     libucrt:locks.obj
 0003:00001558       ___acrt_locks_initialized  10029558     libucrt:locks.obj
 0003:00001574       _fSystemSet                10029574     libucrt:mbctype.obj
 0003:00001578       ?initialized@?1??__acrt_initialize_multibyte@@9@4_NA 10029578     libucrt:mbctype.obj
 0003:00001598       _ctrlc_action              10029598     libucrt:signal.obj
 0003:0000159c       _ctrlbreak_action          1002959c     libucrt:signal.obj
 0003:000015a0       _abort_action              100295a0     libucrt:signal.obj
 0003:000015a4       _term_action               100295a4     libucrt:signal.obj
 0003:000015a8       _user_matherr              100295a8     libucrt:matherr.obj
 0003:000015ac       ___acrt_global_new_mode    100295ac     libucrt:new_mode.obj
 0003:000015b8       ___acrt_app_type           100295b8     libucrt:report_runtime_error.obj
 0003:000015c0       __pmatherr_set             100295c0     libucrt:libm_error.obj
 0004:00000220       $R000000                   1002a220     RemoteOrderDisplay.res
 0004:00000bc0       $R0009A0                   1002abc0     RemoteOrderDisplay.res
 0004:00000ca8       $R000A88                   1002aca8     RemoteOrderDisplay.res
 0004:00000f10       $R000CF0                   1002af10     RemoteOrderDisplay.res
 0004:00001478       $R001258                   1002b478     RemoteOrderDisplay.res
 0004:00005688       $R005468                   1002f688     RemoteOrderDisplay.res
 0004:000056d0       $R0054B0                   1002f6d0     RemoteOrderDisplay.res
