 OPOSSigCap

 Timestamp is 600f7aa5 (Tue Jan 26 11:12:53 2021)

 Preferred load address is 10000000

 Start         Length     Name                   Class
 0001:00000000 00000080H .text$di                CODE
 0001:00000080 0001e173H .text$mn                CODE
 0001:0001e1f3 0000003aH .text$x                 CODE
 0001:0001e22d 00000042H .text$yd                CODE
 0002:00000000 000002fcH .idata$5                DATA
 0002:000002fc 00000004H .00cfg                  DATA
 0002:00000300 00000004H .CRT$XCA                DATA
 0002:00000304 00000004H .CRT$XCL                DATA
 0002:00000308 00000010H .CRT$XCU                DATA
 0002:00000318 00000004H .CRT$XCZ                DATA
 0002:0000031c 00000004H .CRT$XIA                DATA
 0002:00000320 00000010H .CRT$XIC                DATA
 0002:00000330 00000004H .CRT$XIZ                DATA
 0002:00000334 00000004H .CRT$XLA                DATA
 0002:00000338 00000004H .CRT$XLZ                DATA
 0002:0000033c 00000004H .CRT$XPA                DATA
 0002:00000340 00000008H .CRT$XPX                DATA
 0002:00000348 00000004H .CRT$XPXA               DATA
 0002:0000034c 00000004H .CRT$XPZ                DATA
 0002:00000350 00000004H .CRT$XTA                DATA
 0002:00000354 0000000cH .CRT$XTZ                DATA
 0002:00000358 00000000H .gfids$y                DATA
 0002:00000360 000072e0H .rdata                  DATA
 0002:00007640 00000000H .rdata$CastGuardVftablesA DATA
 0002:00007640 00000000H .rdata$CastGuardVftablesC DATA
 0002:00007640 00000018H .rdata$T                DATA
 0002:00007658 00000178H .rdata$r                DATA
 0002:000077d0 0000001cH .rdata$sxdata           DATA
 0002:000077ec 000003dcH .rdata$zzzdbg           DATA
 0002:00007bc8 00000004H .rtc$IAA                DATA
 0002:00007bcc 00000004H .rtc$IZZ                DATA
 0002:00007bd0 00000004H .rtc$TAA                DATA
 0002:00007bd4 00000004H .rtc$TZZ                DATA
 0002:00007bd8 00000004H .tls                    DATA
 0002:00007bdc 00000004H .tls$                   DATA
 0002:00007be0 00000008H .tls$ZZZ                DATA
 0002:00007be8 0000062cH .xdata$x                DATA
 0002:00008214 00000004H ATL$__a                 DATA
 0002:00008218 00000008H ATL$__z                 DATA
 0002:00008220 000000a8H .edata                  DATA
 0002:000082c8 00000078H .idata$2                DATA
 0002:00008340 00000014H .idata$3                DATA
 0002:00008354 000002fcH .idata$4                DATA
 0002:00008650 00000bceH .idata$6                DATA
 0003:00000000 00000ab0H .data                   DATA
 0003:00000ab0 00000098H .data$r                 DATA
 0003:00000b48 00000b88H .bss                    DATA
 0004:00000000 00000220H .rsrc$01                DATA
 0004:00000220 00003f78H .rsrc$02                DATA

  Address         Publics by Value              Rva+Base       Lib:Object

 0000:00000000       ___guard_fids_count        00000000     <absolute>
 0000:00000000       ___guard_longjmp_table     00000000     <absolute>
 0000:00000000       ___guard_eh_cont_table     00000000     <absolute>
 0000:00000000       ___volatile_metadata       00000000     <absolute>
 0000:00000000       ___arm64x_extra_rfe_table  00000000     <absolute>
 0000:00000000       ___arm64x_redirection_metadata 00000000     <absolute>
 0000:00000000       ___guard_eh_cont_count     00000000     <absolute>
 0000:00000000       ___guard_iat_count         00000000     <absolute>
 0000:00000000       __except_list              00000000     <absolute>
 0000:00000000       ___hybrid_code_map_count   00000000     <absolute>
 0000:00000000       ___x64_code_ranges_to_entry_points_count 00000000     <absolute>
 0000:00000000       ___x64_code_ranges_to_entry_points 00000000     <absolute>
 0000:00000000       ___guard_iat_table         00000000     <absolute>
 0000:00000000       ___arm64x_native_entrypoint 00000000     <absolute>
 0000:00000000       ___hybrid_code_map         00000000     <absolute>
 0000:00000000       ___arm64x_extra_rfe_table_size 00000000     <absolute>
 0000:00000000       ___guard_longjmp_count     00000000     <absolute>
 0000:00000000       ___arm64x_redirection_metadata_count 00000000     <absolute>
 0000:00000000       ___hybrid_auxiliary_iat    00000000     <absolute>
 0000:00000000       ___dynamic_value_reloc_table 00000000     <absolute>
 0000:00000000       ___AbsoluteZero            00000000     <absolute>
 0000:00000000       ___enclave_config          00000000     <absolute>
 0000:00000000       ___guard_fids_table        00000000     <absolute>
 0000:00000007       ___safe_se_handler_count   00000007     <absolute>
 0000:0000002c       __tls_array                0000002c     <absolute>
 0000:00000100       ___guard_flags             00000100     <absolute>
 0000:00000000       ___ImageBase               10000000     <linker-defined>
 0001:00000080       ?DupWide@_CW@@AAEXXZ       10001080 f   CWString.obj
 0001:0000009c       ?cw_dup@@YGXPBDAAHAAPA_W1@Z 1000109c f   CWString.obj
 0001:00000124       ?cw_memcpy@@YGHPA_WPBDH@Z  10001124 f   CWString.obj
 0001:00000150       ?cw_strcpy@@YAHPA_WPBD@Z   10001150 f   CWString.obj
 0001:00000163       ?cw_strlen@@YAHPBD@Z       10001163 f   CWString.obj
 0001:0000017c       ??0CAtlComModule@ATL@@QAE@XZ 1000117c f i OposVariant.obj
 0001:000001c1       ??0CAtlWinModule@ATL@@QAE@XZ 100011c1 f i OposVariant.obj
 0001:000001f8       ??0OposDispParms@@QAE@PAVOposVariant@@H@Z 100011f8 f   OposVariant.obj
 0001:00000269       ??1OposDispParms@@QAE@XZ   10001269 f   OposVariant.obj
 0001:00000277       ??A?$CSimpleArray@GV?$CSimpleArrayEqualHelper@G@ATL@@@ATL@@QAEAAGH@Z 10001277 f i OposVariant.obj
 0001:0000029c       ??_Estringdispid@CComTypeInfoHolder@ATL@@QAEPAXI@Z 1000129c f i OposVariant.obj
 0001:00000308       ?AtlWinModuleInit@ATL@@YGJPAU_ATL_WIN_MODULE70@1@@Z 10001308 f i OposVariant.obj
 0001:0000032e       ?AtlWinModuleTerm@ATL@@YGJPAU_ATL_WIN_MODULE70@1@PAUHINSTANCE__@@@Z 1000132e f i OposVariant.obj
 0001:00000391       ?ChangeBSTR@OposVariant@@QAEXPAPA_WAAJ@Z 10001391 f   OposVariant.obj
 0001:000003d2       ?ChangeLONG@OposVariant@@QAEXPAJAAJ@Z 100013d2 f   OposVariant.obj
 0001:00000413       ?GetLONG@OposVariant@@QAEJXZ 10001413 f   OposVariant.obj
 0001:0000042e       ?Init@CComCriticalSection@ATL@@QAEJXZ 1000142e f i OposVariant.obj
 0001:00000456       ?RemoveAll@?$CSimpleArray@PAUHINSTANCE__@@V?$CSimpleArrayEqualHelper@PAUHINSTANCE__@@@ATL@@@ATL@@QAEXXZ 10001456 f i atls:atlbase.obj
 0001:00000456       ?RemoveAll@?$CSimpleArray@GV?$CSimpleArrayEqualHelper@G@ATL@@@ATL@@QAEXXZ 10001456 f i OposVariant.obj
 0001:00000473       ?SetBSTR@OposVariant@@QAEXPA_WAAJ@Z 10001473 f   OposVariant.obj
 0001:000004a7       ?SetBSTR_Copy@OposVariant@@QAEXPA_WAAJ@Z 100014a7 f   OposVariant.obj
 0001:000004f7       ?SetBSTR_InOutPtr@OposVariant@@QAE_NPAPA_WAAJ@Z 100014f7 f   OposVariant.obj
 0001:0000052e       ?SetDispatch_Ptr@OposVariant@@QAEXPAUIDispatch@@AAJ@Z 1000152e f   OposVariant.obj
 0001:00000569       ?SetLONG@OposVariant@@QAEXJ@Z 10001569 f   OposVariant.obj
 0001:0000058b       ?SetLONG_Ptr@OposVariant@@QAEXPAJAAJ@Z 1000158b f   OposVariant.obj
 0001:000005be       ?SetString@OposVariant@@QAEXPB_WAAJ@Z 100015be f   OposVariant.obj
 0001:00000604       ?SetVARIANT_BOOL@OposVariant@@QAEXF@Z 10001604 f   OposVariant.obj
 0001:0000062e       ?Term@CAtlComModule@ATL@@QAEXXZ 1000162e f i OposVariant.obj
 0001:00000678       ?_AtlRaiseException@ATL@@YAXKK@Z 10001678 f i OposVariant.obj
 0001:0000068d       ??_E?$CComObject@VCOPOSSigCap@@@ATL@@W3AEPAXI@Z 1000168d f i SigCap.obj
 0001:00000695       ??_E?$CComObject@VCOPOSSigCap@@@ATL@@WEM@AEPAXI@Z 10001695 f i SigCap.obj
 0001:0000069d       ?QueryInterface@?$CComObject@VCOPOSSigCap@@@ATL@@WHA@AGJABU_GUID@@PAPAX@Z 1000169d f i SigCap.obj
 0001:000006a7       ?AddRef@?$CComObject@VCOPOSSigCap@@@ATL@@WHA@AGKXZ 100016a7 f i SigCap.obj
 0001:000006b1       ?Release@?$CComObject@VCOPOSSigCap@@@ATL@@WHA@AGKXZ 100016b1 f i SigCap.obj
 0001:000006bb       ?QueryInterface@?$CComObject@VCOPOSSigCap@@@ATL@@WHE@AGJABU_GUID@@PAPAX@Z 100016bb f i SigCap.obj
 0001:000006c5       ?AddRef@?$CComObject@VCOPOSSigCap@@@ATL@@WHE@AGKXZ 100016c5 f i SigCap.obj
 0001:000006cf       ?Release@?$CComObject@VCOPOSSigCap@@@ATL@@WHE@AGKXZ 100016cf f i SigCap.obj
 0001:000006d9       ?QueryInterface@?$CComObject@VCOPOSSigCap@@@ATL@@WHI@AGJABU_GUID@@PAPAX@Z 100016d9 f i SigCap.obj
 0001:000006e3       ?AddRef@?$CComObject@VCOPOSSigCap@@@ATL@@WHI@AGKXZ 100016e3 f i SigCap.obj
 0001:000006ed       ?Release@?$CComObject@VCOPOSSigCap@@@ATL@@WHI@AGKXZ 100016ed f i SigCap.obj
 0001:000006f7       ?QueryInterface@?$CComObject@VCOPOSSigCap@@@ATL@@WHM@AGJABU_GUID@@PAPAX@Z 100016f7 f i SigCap.obj
 0001:00000701       ?AddRef@?$CComObject@VCOPOSSigCap@@@ATL@@WHM@AGKXZ 10001701 f i SigCap.obj
 0001:0000070b       ?Release@?$CComObject@VCOPOSSigCap@@@ATL@@WHM@AGKXZ 1000170b f i SigCap.obj
 0001:00000715       ?QueryInterface@?$CComObject@VCOPOSSigCap@@@ATL@@WIA@AGJABU_GUID@@PAPAX@Z 10001715 f i SigCap.obj
 0001:00000722       ?AddRef@?$CComObject@VCOPOSSigCap@@@ATL@@WIA@AGKXZ 10001722 f i SigCap.obj
 0001:0000072f       ?Release@?$CComObject@VCOPOSSigCap@@@ATL@@WIA@AGKXZ 1000172f f i SigCap.obj
 0001:0000073c       ?QueryInterface@?$CComObject@VCOPOSSigCap@@@ATL@@WIE@AGJABU_GUID@@PAPAX@Z 1000173c f i SigCap.obj
 0001:00000749       ?AddRef@?$CComObject@VCOPOSSigCap@@@ATL@@WIE@AGKXZ 10001749 f i SigCap.obj
 0001:00000756       ?Release@?$CComObject@VCOPOSSigCap@@@ATL@@WIE@AGKXZ 10001756 f i SigCap.obj
 0001:00000763       ?QueryInterface@?$CComObject@VCOPOSSigCap@@@ATL@@WII@AGJABU_GUID@@PAPAX@Z 10001763 f i SigCap.obj
 0001:00000770       ?AddRef@?$CComObject@VCOPOSSigCap@@@ATL@@WII@AGKXZ 10001770 f i SigCap.obj
 0001:0000077d       ?Release@?$CComObject@VCOPOSSigCap@@@ATL@@WII@AGKXZ 1000177d f i SigCap.obj
 0001:0000078a       ?QueryInterface@?$CComObject@VCOPOSSigCap@@@ATL@@WIM@AGJABU_GUID@@PAPAX@Z 1000178a f i SigCap.obj
 0001:00000797       ?AddRef@?$CComObject@VCOPOSSigCap@@@ATL@@WIM@AGKXZ 10001797 f i SigCap.obj
 0001:000007a4       ?Release@?$CComObject@VCOPOSSigCap@@@ATL@@WIM@AGKXZ 100017a4 f i SigCap.obj
 0001:000007b1       ?QueryInterface@?$CComObject@VCOPOSSigCap@@@ATL@@WJA@AGJABU_GUID@@PAPAX@Z 100017b1 f i SigCap.obj
 0001:000007be       ?AddRef@?$CComObject@VCOPOSSigCap@@@ATL@@WJA@AGKXZ 100017be f i SigCap.obj
 0001:000007cb       ?Release@?$CComObject@VCOPOSSigCap@@@ATL@@WJA@AGKXZ 100017cb f i SigCap.obj
 0001:000007d8       ?QueryInterface@?$CComObject@VCOPOSSigCap@@@ATL@@WJE@AGJABU_GUID@@PAPAX@Z 100017d8 f i SigCap.obj
 0001:000007e5       ?AddRef@?$CComObject@VCOPOSSigCap@@@ATL@@WJE@AGKXZ 100017e5 f i SigCap.obj
 0001:000007f2       ?Release@?$CComObject@VCOPOSSigCap@@@ATL@@WJE@AGKXZ 100017f2 f i SigCap.obj
 0001:000007ff       ?QueryInterface@?$CComObject@VCOPOSSigCap@@@ATL@@WJI@AGJABU_GUID@@PAPAX@Z 100017ff f i SigCap.obj
 0001:0000080c       ?AddRef@?$CComObject@VCOPOSSigCap@@@ATL@@WJI@AGKXZ 1000180c f i SigCap.obj
 0001:00000819       ?Release@?$CComObject@VCOPOSSigCap@@@ATL@@WJI@AGKXZ 10001819 f i SigCap.obj
 0001:00000826       ?QueryInterface@?$CComObject@VCOPOSSigCap@@@ATL@@WJM@AGJABU_GUID@@PAPAX@Z 10001826 f i SigCap.obj
 0001:00000833       ?AddRef@?$CComObject@VCOPOSSigCap@@@ATL@@WJM@AGKXZ 10001833 f i SigCap.obj
 0001:00000840       ?Release@?$CComObject@VCOPOSSigCap@@@ATL@@WJM@AGKXZ 10001840 f i SigCap.obj
 0001:0000084d       ?QueryInterface@?$CComObject@VCOPOSSigCap@@@ATL@@WKA@AGJABU_GUID@@PAPAX@Z 1000184d f i SigCap.obj
 0001:0000085a       ?AddRef@?$CComObject@VCOPOSSigCap@@@ATL@@WKA@AGKXZ 1000185a f i SigCap.obj
 0001:00000867       ?Release@?$CComObject@VCOPOSSigCap@@@ATL@@WKA@AGKXZ 10001867 f i SigCap.obj
 0001:00000874       ?AddRef@?$CComObject@VCOPOSSigCap@@@ATL@@WKI@AGKXZ 10001874 f i SigCap.obj
 0001:00000881       ?Release@?$CComObject@VCOPOSSigCap@@@ATL@@WKI@AGKXZ 10001881 f i SigCap.obj
 0001:0000088e       ?AddRef@?$CComObject@VCOPOSSigCap@@@ATL@@WLE@AGKXZ 1000188e f i SigCap.obj
 0001:0000089b       ?Release@?$CComObject@VCOPOSSigCap@@@ATL@@WLE@AGKXZ 1000189b f i SigCap.obj
 0001:000008a8       ??_E?$CComContainedObject@VCOPOSSigCap@@@ATL@@W3AEPAXI@Z 100018a8 f i SigCap.obj
 0001:000008b0       ??_E?$CComContainedObject@VCOPOSSigCap@@@ATL@@WEM@AEPAXI@Z 100018b0 f i SigCap.obj
 0001:000008b8       ?QueryInterface@?$CComContainedObject@VCOPOSSigCap@@@ATL@@WHA@AGJABU_GUID@@PAPAX@Z 100018b8 f i SigCap.obj
 0001:000008c2       ?AddRef@?$CComContainedObject@VCOPOSSigCap@@@ATL@@WHA@AGKXZ 100018c2 f i SigCap.obj
 0001:000008cc       ?Release@?$CComContainedObject@VCOPOSSigCap@@@ATL@@WHA@AGKXZ 100018cc f i SigCap.obj
 0001:000008d6       ?QueryInterface@?$CComContainedObject@VCOPOSSigCap@@@ATL@@WHE@AGJABU_GUID@@PAPAX@Z 100018d6 f i SigCap.obj
 0001:000008e0       ?AddRef@?$CComContainedObject@VCOPOSSigCap@@@ATL@@WHE@AGKXZ 100018e0 f i SigCap.obj
 0001:000008ea       ?Release@?$CComContainedObject@VCOPOSSigCap@@@ATL@@WHE@AGKXZ 100018ea f i SigCap.obj
 0001:000008f4       ?QueryInterface@?$CComContainedObject@VCOPOSSigCap@@@ATL@@WHI@AGJABU_GUID@@PAPAX@Z 100018f4 f i SigCap.obj
 0001:000008fe       ?AddRef@?$CComContainedObject@VCOPOSSigCap@@@ATL@@WHI@AGKXZ 100018fe f i SigCap.obj
 0001:00000908       ?Release@?$CComContainedObject@VCOPOSSigCap@@@ATL@@WHI@AGKXZ 10001908 f i SigCap.obj
 0001:00000912       ?QueryInterface@?$CComContainedObject@VCOPOSSigCap@@@ATL@@WHM@AGJABU_GUID@@PAPAX@Z 10001912 f i SigCap.obj
 0001:0000091c       ?AddRef@?$CComContainedObject@VCOPOSSigCap@@@ATL@@WHM@AGKXZ 1000191c f i SigCap.obj
 0001:00000926       ?Release@?$CComContainedObject@VCOPOSSigCap@@@ATL@@WHM@AGKXZ 10001926 f i SigCap.obj
 0001:00000930       ?QueryInterface@?$CComContainedObject@VCOPOSSigCap@@@ATL@@WIA@AGJABU_GUID@@PAPAX@Z 10001930 f i SigCap.obj
 0001:0000093d       ?AddRef@?$CComContainedObject@VCOPOSSigCap@@@ATL@@WIA@AGKXZ 1000193d f i SigCap.obj
 0001:0000094a       ?Release@?$CComContainedObject@VCOPOSSigCap@@@ATL@@WIA@AGKXZ 1000194a f i SigCap.obj
 0001:00000957       ?QueryInterface@?$CComContainedObject@VCOPOSSigCap@@@ATL@@WIE@AGJABU_GUID@@PAPAX@Z 10001957 f i SigCap.obj
 0001:00000964       ?AddRef@?$CComContainedObject@VCOPOSSigCap@@@ATL@@WIE@AGKXZ 10001964 f i SigCap.obj
 0001:00000971       ?Release@?$CComContainedObject@VCOPOSSigCap@@@ATL@@WIE@AGKXZ 10001971 f i SigCap.obj
 0001:0000097e       ?QueryInterface@?$CComContainedObject@VCOPOSSigCap@@@ATL@@WII@AGJABU_GUID@@PAPAX@Z 1000197e f i SigCap.obj
 0001:0000098b       ?AddRef@?$CComContainedObject@VCOPOSSigCap@@@ATL@@WII@AGKXZ 1000198b f i SigCap.obj
 0001:00000998       ?Release@?$CComContainedObject@VCOPOSSigCap@@@ATL@@WII@AGKXZ 10001998 f i SigCap.obj
 0001:000009a5       ?QueryInterface@?$CComContainedObject@VCOPOSSigCap@@@ATL@@WIM@AGJABU_GUID@@PAPAX@Z 100019a5 f i SigCap.obj
 0001:000009b2       ?AddRef@?$CComContainedObject@VCOPOSSigCap@@@ATL@@WIM@AGKXZ 100019b2 f i SigCap.obj
 0001:000009bf       ?Release@?$CComContainedObject@VCOPOSSigCap@@@ATL@@WIM@AGKXZ 100019bf f i SigCap.obj
 0001:000009cc       ?QueryInterface@?$CComContainedObject@VCOPOSSigCap@@@ATL@@WJA@AGJABU_GUID@@PAPAX@Z 100019cc f i SigCap.obj
 0001:000009d9       ?AddRef@?$CComContainedObject@VCOPOSSigCap@@@ATL@@WJA@AGKXZ 100019d9 f i SigCap.obj
 0001:000009e6       ?Release@?$CComContainedObject@VCOPOSSigCap@@@ATL@@WJA@AGKXZ 100019e6 f i SigCap.obj
 0001:000009f3       ?QueryInterface@?$CComContainedObject@VCOPOSSigCap@@@ATL@@WJE@AGJABU_GUID@@PAPAX@Z 100019f3 f i SigCap.obj
 0001:00000a00       ?AddRef@?$CComContainedObject@VCOPOSSigCap@@@ATL@@WJE@AGKXZ 10001a00 f i SigCap.obj
 0001:00000a0d       ?Release@?$CComContainedObject@VCOPOSSigCap@@@ATL@@WJE@AGKXZ 10001a0d f i SigCap.obj
 0001:00000a1a       ?QueryInterface@?$CComContainedObject@VCOPOSSigCap@@@ATL@@WJI@AGJABU_GUID@@PAPAX@Z 10001a1a f i SigCap.obj
 0001:00000a27       ?AddRef@?$CComContainedObject@VCOPOSSigCap@@@ATL@@WJI@AGKXZ 10001a27 f i SigCap.obj
 0001:00000a34       ?Release@?$CComContainedObject@VCOPOSSigCap@@@ATL@@WJI@AGKXZ 10001a34 f i SigCap.obj
 0001:00000a41       ?QueryInterface@?$CComContainedObject@VCOPOSSigCap@@@ATL@@WJM@AGJABU_GUID@@PAPAX@Z 10001a41 f i SigCap.obj
 0001:00000a4e       ?AddRef@?$CComContainedObject@VCOPOSSigCap@@@ATL@@WJM@AGKXZ 10001a4e f i SigCap.obj
 0001:00000a5b       ?Release@?$CComContainedObject@VCOPOSSigCap@@@ATL@@WJM@AGKXZ 10001a5b f i SigCap.obj
 0001:00000a68       ?QueryInterface@?$CComContainedObject@VCOPOSSigCap@@@ATL@@WKA@AGJABU_GUID@@PAPAX@Z 10001a68 f i SigCap.obj
 0001:00000a75       ?AddRef@?$CComContainedObject@VCOPOSSigCap@@@ATL@@WKA@AGKXZ 10001a75 f i SigCap.obj
 0001:00000a82       ?Release@?$CComContainedObject@VCOPOSSigCap@@@ATL@@WKA@AGKXZ 10001a82 f i SigCap.obj
 0001:00000a8f       ?AddRef@?$CComContainedObject@VCOPOSSigCap@@@ATL@@WKI@AGKXZ 10001a8f f i SigCap.obj
 0001:00000a9c       ?Release@?$CComContainedObject@VCOPOSSigCap@@@ATL@@WKI@AGKXZ 10001a9c f i SigCap.obj
 0001:00000aa9       ?AddRef@?$CComContainedObject@VCOPOSSigCap@@@ATL@@WLE@AGKXZ 10001aa9 f i SigCap.obj
 0001:00000ab6       ?Release@?$CComContainedObject@VCOPOSSigCap@@@ATL@@WLE@AGKXZ 10001ab6 f i SigCap.obj
 0001:00000ac3       ?CreateInstance@CComClassFactory@ATL@@UAGJPAUIUnknown@@ABU_GUID@@PAPAX@Z 10001ac3 f i SigCap.obj
 0001:00000b01       ?LockServer@CComClassFactory@ATL@@UAGJH@Z 10001b01 f i SigCap.obj
 0001:00000b20       ??_GCComClassFactory@ATL@@UAEPAXI@Z 10001b20 f i SigCap.obj
 0001:00000b20       ??_ECComClassFactory@ATL@@UAEPAXI@Z 10001b20 f i SigCap.obj
 0001:00000b4b       ?GetWindowProc@?$CWindowImplBaseT@VCWindow@ATL@@V?$CWinTraits@$0FGAAAAAA@$0A@@2@@ATL@@UAEP6GJPAUHWND__@@IIJ@ZXZ 10001b4b f i SigCap.obj
 0001:00000b51       ?StartWindowProc@?$CWindowImplBaseT@VCWindow@ATL@@V?$CWinTraits@$0FGAAAAAA@$0A@@2@@ATL@@SGJPAUHWND__@@IIJ@Z 10001b51 f i SigCap.obj
 0001:00000ba5       ?OnFinalMessage@?$CWindowImplBaseT@VCWindow@ATL@@V?$CWinTraits@$0FGAAAAAA@$0A@@2@@ATL@@UAEXPAUHWND__@@@Z 10001ba5 f i SigCap.obj
 0001:00000ba5       ?ObjectMain@CComObjectRootBase@ATL@@SGX_N@Z 10001ba5 f i SigCap.obj
 0001:00000ba8       ?GetTypeInfoCount@?$IDispatchImpl@UIOPOSSigCap@@$1?IID_IOPOSSigCap@@3U_GUID@@B$1?LIBID_OposSigCap_CCO@@3U3@B$00$0A@VCComTypeInfoHolder@ATL@@@ATL@@UAGJPAI@Z 10001ba8 f i SigCap.obj
 0001:00000bc5       ?GetTypeInfo@?$IDispatchImpl@UIOPOSSigCap@@$1?IID_IOPOSSigCap@@3U_GUID@@B$1?LIBID_OposSigCap_CCO@@3U3@B$00$0A@VCComTypeInfoHolder@ATL@@@ATL@@UAGJIKPAPAUITypeInfo@@@Z 10001bc5 f i SigCap.obj
 0001:00000be9       ?GetIDsOfNames@?$IDispatchImpl@UIOPOSSigCap@@$1?IID_IOPOSSigCap@@3U_GUID@@B$1?LIBID_OposSigCap_CCO@@3U3@B$00$0A@VCComTypeInfoHolder@ATL@@@ATL@@UAGJABU_GUID@@PAPA_WIKPAJ@Z 10001be9 f i SigCap.obj
 0001:00000c09       ?Invoke@?$IDispatchImpl@UIOPOSSigCap@@$1?IID_IOPOSSigCap@@3U_GUID@@B$1?LIBID_OposSigCap_CCO@@3U3@B$00$0A@VCComTypeInfoHolder@ATL@@@ATL@@UAGJJABU_GUID@@KGPAUtagDISPPARAMS@@PAUtagVARIANT@@PAUtagEXCEPINFO@@PAI@Z 10001c09 f i SigCap.obj
 0001:00000c17       ?CreateControlWindow@?$CComControl@VCOPOSSigCap@@V?$CWindowImpl@VCOPOSSigCap@@VCWindow@ATL@@V?$CWinTraits@$0FGAAAAAA@$0A@@3@@ATL@@@ATL@@UAEPAUHWND__@@PAU3@AAUtagRECT@@@Z 10001c17 f i SigCap.obj
 0001:00000c46       ?ControlQueryInterface@?$CComControl@VCOPOSSigCap@@V?$CWindowImpl@VCOPOSSigCap@@VCWindow@ATL@@V?$CWinTraits@$0FGAAAAAA@$0A@@3@@ATL@@@ATL@@UAEJABU_GUID@@PAPAX@Z 10001c46 f i SigCap.obj
 0001:00000c61       ?GetClassID@?$IPersistStreamInitImpl@VCOPOSSigCap@@@ATL@@UAGJPAU_GUID@@@Z 10001c61 f i SigCap.obj
 0001:00000c61       ?GetClassID@?$IPersistStorageImpl@VCOPOSSigCap@@@ATL@@UAGJPAU_GUID@@@Z 10001c61 f i SigCap.obj
 0001:00000c61       ?GetUserClassID@?$IOleObjectImpl@VCOPOSSigCap@@@ATL@@UAGJPAU_GUID@@@Z 10001c61 f i SigCap.obj
 0001:00000c85       ?IsDirty@?$IPersistStreamInitImpl@VCOPOSSigCap@@@ATL@@UAGJXZ 10001c85 f i SigCap.obj
 0001:00000ca4       ?Load@?$IPersistStreamInitImpl@VCOPOSSigCap@@@ATL@@UAGJPAUIStream@@@Z 10001ca4 f i SigCap.obj
 0001:00000cc3       ?Save@?$IPersistStreamInitImpl@VCOPOSSigCap@@@ATL@@UAGJPAUIStream@@H@Z 10001cc3 f i SigCap.obj
 0001:00000ce5       ?GetSizeMax@?$IPersistStreamInitImpl@VCOPOSSigCap@@@ATL@@UAGJPAT_ULARGE_INTEGER@@@Z 10001ce5 f i SigCap.obj
 0001:00000ec4       ?InitNew@?$IPersistStreamInitImpl@VCOPOSSigCap@@@ATL@@UAGJXZ 10001ec4 f i SigCap.obj
 0001:00000ee1       ?ContextSensitiveHelp@?$IOleInPlaceActiveObjectImpl@VCOPOSSigCap@@@ATL@@UAGJH@Z 10001ee1 f i SigCap.obj
 0001:00000ee1       ?QueryGetData@?$IDataObjectImpl@VCOPOSSigCap@@@ATL@@UAGJPAUtagFORMATETC@@@Z 10001ee1 f i SigCap.obj
 0001:00000ee1       ?OnMnemonic@?$IOleControlImpl@VCOPOSSigCap@@@ATL@@UAGJPAUtagMSG@@@Z 10001ee1 f i SigCap.obj
 0001:00000ee1       ?GetControlInfo@?$IOleControlImpl@VCOPOSSigCap@@@ATL@@UAGJPAUtagCONTROLINFO@@@Z 10001ee1 f i SigCap.obj
 0001:00000ee1       ?SOOutputCompleteDummy@COPOSSigCap@@MAGJJ@Z 10001ee1 f i SigCap.obj
 0001:00000ee1       ?GetDropTarget@?$IOleInPlaceObjectWindowlessImpl@VCOPOSSigCap@@@ATL@@UAGJPAPAUIDropTarget@@@Z 10001ee1 f i SigCap.obj
 0001:00000ee1       ?ContextSensitiveHelp@?$IOleInPlaceObjectWindowlessImpl@VCOPOSSigCap@@@ATL@@UAGJH@Z 10001ee1 f i SigCap.obj
 0001:00000ee1       ?Unfreeze@?$IViewObjectExImpl@VCOPOSSigCap@@@ATL@@UAGJK@Z 10001ee1 f i SigCap.obj
 0001:00000ee1       ?SetColorScheme@?$IOleObjectImpl@VCOPOSSigCap@@@ATL@@UAGJPAUtagLOGPALETTE@@@Z 10001ee1 f i SigCap.obj
 0001:00000ee9       ?SaveCompleted@?$IPersistStorageImpl@VCOPOSSigCap@@@ATL@@UAGJPAUIStorage@@@Z 10001ee9 f i SigCap.obj
 0001:00000ee9       ?OnFrameWindowActivate@?$IOleInPlaceActiveObjectImpl@VCOPOSSigCap@@@ATL@@UAGJH@Z 10001ee9 f i SigCap.obj
 0001:00000ee9       ?EnableModeless@?$IOleInPlaceActiveObjectImpl@VCOPOSSigCap@@@ATL@@UAGJH@Z 10001ee9 f i SigCap.obj
 0001:00000ee9       ?OnAmbientPropertyChange@?$IOleControlImpl@VCOPOSSigCap@@@ATL@@UAGJJ@Z 10001ee9 f i SigCap.obj
 0001:00000eee       ?SetClientSite@?$IOleObjectImpl@VCOPOSSigCap@@@ATL@@UAGJPAUIOleClientSite@@@Z 10001eee f i SigCap.obj
 0001:00000f0b       ?GetClientSite@?$IOleObjectImpl@VCOPOSSigCap@@@ATL@@UAGJPAPAUIOleClientSite@@@Z 10001f0b f i SigCap.obj
 0001:00000f28       ?SetHostNames@?$IOleObjectImpl@VCOPOSSigCap@@@ATL@@UAGJPB_W0@Z 10001f28 f i SigCap.obj
 0001:00000f2d       ?Close@?$IOleObjectImpl@VCOPOSSigCap@@@ATL@@UAGJK@Z 10001f2d f i SigCap.obj
 0001:00000f4a       ?GetRect@?$IViewObjectExImpl@VCOPOSSigCap@@@ATL@@UAGJKPAU_RECTL@@@Z 10001f4a f i SigCap.obj
 0001:00000f4a       ?GetClipboardData@?$IOleObjectImpl@VCOPOSSigCap@@@ATL@@UAGJKPAPAUIDataObject@@@Z 10001f4a f i SigCap.obj
 0001:00000f4a       ?GetCanonicalFormatEtc@?$IDataObjectImpl@VCOPOSSigCap@@@ATL@@UAGJPAUtagFORMATETC@@0@Z 10001f4a f i SigCap.obj
 0001:00000f4a       ?EnumFormatEtc@?$IDataObjectImpl@VCOPOSSigCap@@@ATL@@UAGJKPAPAUIEnumFORMATETC@@@Z 10001f4a f i SigCap.obj
 0001:00000f4a       ?SetMoniker@?$IOleObjectImpl@VCOPOSSigCap@@@ATL@@UAGJKPAUIMoniker@@@Z 10001f4a f i SigCap.obj
 0001:00000f4a       ?GetDataHere@?$IDataObjectImpl@VCOPOSSigCap@@@ATL@@UAGJPAUtagFORMATETC@@PAUtagSTGMEDIUM@@@Z 10001f4a f i SigCap.obj
 0001:00000f4a       ?QueryInterface@CRegObject@ATL@@UAGJABU_GUID@@PAPAX@Z 10001f4a f i SigCap.obj
 0001:00000f52       ?SetData@?$IDataObjectImpl@VCOPOSSigCap@@@ATL@@UAGJPAUtagFORMATETC@@PAUtagSTGMEDIUM@@H@Z 10001f52 f i SigCap.obj
 0001:00000f52       ?InitFromData@?$IOleObjectImpl@VCOPOSSigCap@@@ATL@@UAGJPAUIDataObject@@HK@Z 10001f52 f i SigCap.obj
 0001:00000f52       ?GetMoniker@?$IOleObjectImpl@VCOPOSSigCap@@@ATL@@UAGJKKPAPAUIMoniker@@@Z 10001f52 f i SigCap.obj
 0001:00000f5a       ?DoVerb@?$IOleObjectImpl@VCOPOSSigCap@@@ATL@@UAGJJPAUtagMSG@@PAUIOleClientSite@@JPAUHWND__@@PBUtagRECT@@@Z 10001f5a f i SigCap.obj
 0001:0000104e       ?EnumVerbs@?$IOleObjectImpl@VCOPOSSigCap@@@ATL@@UAGJPAPAUIEnumOLEVERB@@@Z 1000204e f i SigCap.obj
 0001:00001070       ?Release@CRegObject@ATL@@UAGKXZ 10002070 f i SigCap.obj
 0001:00001070       ?HandsOffStorage@?$IPersistStorageImpl@VCOPOSSigCap@@@ATL@@UAGJXZ 10002070 f i SigCap.obj
 0001:00001070       ?IsUpToDate@?$IOleObjectImpl@VCOPOSSigCap@@@ATL@@UAGJXZ 10002070 f i SigCap.obj
 0001:00001070       ?Update@?$IOleObjectImpl@VCOPOSSigCap@@@ATL@@UAGJXZ 10002070 f i SigCap.obj
 0001:00001075       ?GetUserType@?$IOleObjectImpl@VCOPOSSigCap@@@ATL@@UAGJKPAPA_W@Z 10002075 f i SigCap.obj
 0001:0000108d       ?SetExtent@?$IOleObjectImpl@VCOPOSSigCap@@@ATL@@UAGJKPAUtagSIZE@@@Z 1000208d f i SigCap.obj
 0001:000010ad       ?GetExtent@?$IOleObjectImpl@VCOPOSSigCap@@@ATL@@UAGJKPAUtagSIZE@@@Z 100020ad f i SigCap.obj
 0001:000010eb       ?Advise@?$IOleObjectImpl@VCOPOSSigCap@@@ATL@@UAGJPAUIAdviseSink@@PAK@Z 100020eb f i SigCap.obj
 0001:0000110b       ?Unadvise@?$IOleObjectImpl@VCOPOSSigCap@@@ATL@@UAGJK@Z 1000210b f i SigCap.obj
 0001:0000113a       ?EnumAdvise@?$IOleObjectImpl@VCOPOSSigCap@@@ATL@@UAGJPAPAUIEnumSTATDATA@@@Z 1000213a f i SigCap.obj
 0001:0000117a       ?GetMiscStatus@?$IOleObjectImpl@VCOPOSSigCap@@@ATL@@UAGJKPAK@Z 1000217a f i SigCap.obj
 0001:00001192       ?GetWindow@?$IOleInPlaceActiveObjectImpl@VCOPOSSigCap@@@ATL@@UAGJPAPAUHWND__@@@Z 10002192 f i SigCap.obj
 0001:000011df       ?TranslateAcceleratorW@?$IOleInPlaceActiveObjectImpl@VCOPOSSigCap@@@ATL@@UAGJPAUtagMSG@@@Z 100021df f i SigCap.obj
 0001:0000128d       ?OnDocWindowActivate@?$IOleInPlaceActiveObjectImpl@VCOPOSSigCap@@@ATL@@UAGJH@Z 1000228d f i SigCap.obj
 0001:000012af       ?ResizeBorder@?$IOleInPlaceActiveObjectImpl@VCOPOSSigCap@@@ATL@@UAGJPBUtagRECT@@PAUIOleInPlaceUIWindow@@H@Z 100022af f i SigCap.obj
 0001:000012b4       ?Draw@?$IViewObjectExImpl@VCOPOSSigCap@@@ATL@@UAGJKJPAXPAUtagDVTARGETDEVICE@@PAUHDC__@@2PBU_RECTL@@3P6GHK@ZK@Z 100022b4 f i SigCap.obj
 0001:000012e6       ?GetColorSet@?$IViewObjectExImpl@VCOPOSSigCap@@@ATL@@UAGJKJPAXPAUtagDVTARGETDEVICE@@PAUHDC__@@PAPAUtagLOGPALETTE@@@Z 100022e6 f i SigCap.obj
 0001:000012ee       ?Freeze@?$IViewObjectExImpl@VCOPOSSigCap@@@ATL@@UAGJKJPAXPAK@Z 100022ee f i SigCap.obj
 0001:000012f6       ?SetAdvise@?$IViewObjectExImpl@VCOPOSSigCap@@@ATL@@UAGJKKPAUIAdviseSink@@@Z 100022f6 f i SigCap.obj
 0001:00001315       ?GetAdvise@?$IViewObjectExImpl@VCOPOSSigCap@@@ATL@@UAGJPAK0PAPAUIAdviseSink@@@Z 10002315 f i SigCap.obj
 0001:0000134a       ?GetExtent@?$IViewObjectExImpl@VCOPOSSigCap@@@ATL@@UAGJKJPAUtagDVTARGETDEVICE@@PAUtagSIZE@@@Z 1000234a f i SigCap.obj
 0001:0000137b       ?GetViewStatus@?$IViewObjectExImpl@VCOPOSSigCap@@@ATL@@UAGJPAK@Z 1000237b f i SigCap.obj
 0001:00001398       ?QueryHitPoint@?$IViewObjectExImpl@VCOPOSSigCap@@@ATL@@UAGJKPBUtagRECT@@UtagPOINT@@JPAK@Z 10002398 f i SigCap.obj
 0001:000013d9       ?QueryHitRect@?$IViewObjectExImpl@VCOPOSSigCap@@@ATL@@UAGJKPBUtagRECT@@0JPAK@Z 100023d9 f i SigCap.obj
 0001:00001434       ?GetNaturalExtent@?$IViewObjectExImpl@VCOPOSSigCap@@@ATL@@UAGJKJPAUtagDVTARGETDEVICE@@PAUHDC__@@PAUtagExtentInfo@@PAUtagSIZE@@@Z 10002434 f i SigCap.obj
 0001:0000147f       ?GetWindow@?$IOleInPlaceObjectWindowlessImpl@VCOPOSSigCap@@@ATL@@UAGJPAPAUHWND__@@@Z 1000247f f i SigCap.obj
 0001:000014cc       ?InPlaceDeactivate@?$IOleInPlaceObjectWindowlessImpl@VCOPOSSigCap@@@ATL@@UAGJXZ 100024cc f i SigCap.obj
 0001:000014e6       ?UIDeactivate@?$IOleInPlaceObjectWindowlessImpl@VCOPOSSigCap@@@ATL@@UAGJXZ 100024e6 f i SigCap.obj
 0001:00001500       ?SetObjectRects@?$IOleInPlaceObjectWindowlessImpl@VCOPOSSigCap@@@ATL@@UAGJPBUtagRECT@@0@Z 10002500 f i SigCap.obj
 0001:00001520       ?ReactivateAndUndo@?$IOleInPlaceObjectWindowlessImpl@VCOPOSSigCap@@@ATL@@UAGJXZ 10002520 f i SigCap.obj
 0001:00001528       ?OnWindowMessage@?$IOleInPlaceObjectWindowlessImpl@VCOPOSSigCap@@@ATL@@UAGJIIJPAJ@Z 10002528 f i SigCap.obj
 0001:00001598       ?EnumConnectionPoints@?$IConnectionPointContainerImpl@VCOPOSSigCap@@@ATL@@UAGJPAPAUIEnumConnectionPoints@@@Z 10002598 f i SigCap.obj
 0001:00001724       ?FindConnectionPoint@?$IConnectionPointContainerImpl@VCOPOSSigCap@@@ATL@@UAGJABU_GUID@@PAPAUIConnectionPoint@@@Z 10002724 f i SigCap.obj
 0001:000017c7       ?IsDirty@?$IPersistStorageImpl@VCOPOSSigCap@@@ATL@@UAGJXZ 100027c7 f i SigCap.obj
 0001:000017f7       ?InitNew@?$IPersistStorageImpl@VCOPOSSigCap@@@ATL@@UAGJPAUIStorage@@@Z 100027f7 f i SigCap.obj
 0001:00001827       ?Load@?$IPersistStorageImpl@VCOPOSSigCap@@@ATL@@UAGJPAUIStorage@@@Z 10002827 f i SigCap.obj
 0001:00001893       ?Save@?$IPersistStorageImpl@VCOPOSSigCap@@@ATL@@UAGJPAUIStorage@@H@Z 10002893 f i SigCap.obj
 0001:00001906       ?GetPages@?$ISpecifyPropertyPagesImpl@VCOPOSSigCap@@@ATL@@UAGJPAUtagCAUUID@@@Z 10002906 f i SigCap.obj
 0001:0000191d       ?QuickActivate@?$IQuickActivateImpl@VCOPOSSigCap@@@ATL@@UAGJPAUtagQACONTAINER@@PAUtagQACONTROL@@@Z 1000291d f i SigCap.obj
 0001:00001940       ?SetContentExtent@?$IQuickActivateImpl@VCOPOSSigCap@@@ATL@@UAGJPAUtagSIZE@@@Z 10002940 f i SigCap.obj
 0001:0000196c       ?GetContentExtent@?$IQuickActivateImpl@VCOPOSSigCap@@@ATL@@UAGJPAUtagSIZE@@@Z 1000296c f i SigCap.obj
 0001:000019a8       ?GetData@?$IDataObjectImpl@VCOPOSSigCap@@@ATL@@UAGJPAUtagFORMATETC@@PAUtagSTGMEDIUM@@@Z 100029a8 f i SigCap.obj
 0001:000019cb       ?DAdvise@?$IDataObjectImpl@VCOPOSSigCap@@@ATL@@UAGJPAUtagFORMATETC@@KPAUIAdviseSink@@PAK@Z 100029cb f i SigCap.obj
 0001:00001a0c       ?DUnadvise@?$IDataObjectImpl@VCOPOSSigCap@@@ATL@@UAGJK@Z 10002a0c f i SigCap.obj
 0001:00001a3a       ?EnumDAdvise@?$IDataObjectImpl@VCOPOSSigCap@@@ATL@@UAGJPAPAUIEnumSTATDATA@@@Z 10002a3a f i SigCap.obj
 0001:00001a79       ?GetClassInfoW@?$IProvideClassInfo2Impl@$1?CLSID_OPOSSigCap@@3U_GUID@@B$1?DIID__IOPOSSigCapEvents@@3U2@B$1?LIBID_OposSigCap_CCO@@3U2@B$00$0A@VCComTypeInfoHolder@ATL@@@ATL@@UAGJPAPAUITypeInfo@@@Z 10002a79 f i SigCap.obj
 0001:00001a8f       ?GetGUID@?$IProvideClassInfo2Impl@$1?CLSID_OPOSSigCap@@3U_GUID@@B$1?DIID__IOPOSSigCapEvents@@3U2@B$1?LIBID_OposSigCap_CCO@@3U2@B$00$0A@VCComTypeInfoHolder@ATL@@@ATL@@UAGJKPAU_GUID@@@Z 10002a8f f i SigCap.obj
 0001:00001acd       ?FAccessAllowed@?$IObjectSafetyImpl@VCOPOSSigCap@@$02@ATL@@MAEHXZ 10002acd f i SigCap.obj
 0001:00001acd       __get_startup_argv_mode    10002acd f i LIBCMT:argv_mode.obj
 0001:00001ad1       ?GetInterfaceSafetyOptions@?$IObjectSafetyImpl@VCOPOSSigCap@@$02@ATL@@UAGJABU_GUID@@PAK1@Z 10002ad1 f i SigCap.obj
 0001:00001b45       ?SetInterfaceSafetyOptions@?$IObjectSafetyImpl@VCOPOSSigCap@@$02@ATL@@UAGJABU_GUID@@KK@Z 10002b45 f i SigCap.obj
 0001:00001bbf       ?_LocCPQueryInterface@?$IConnectionPointImpl@VCOPOSSigCap@@$1?DIID__IOPOSSigCapEvents@@3U_GUID@@BVCComDynamicUnkArray@ATL@@@ATL@@UAGJABU_GUID@@PAPAX@Z 10002bbf f i SigCap.obj
 0001:00001bbf       ?_LocCPQueryInterface@?$IConnectionPointImpl@VCOPOSSigCap@@$1?IID_IPropertyNotifySink@@3U_GUID@@BVCComDynamicUnkArray@ATL@@@ATL@@UAGJABU_GUID@@PAPAX@Z 10002bbf f i SigCap.obj
 0001:00001c0c       ?GetConnectionInterface@?$IConnectionPointImpl@VCOPOSSigCap@@$1?IID_IPropertyNotifySink@@3U_GUID@@BVCComDynamicUnkArray@ATL@@@ATL@@UAGJPAU_GUID@@@Z 10002c0c f i SigCap.obj
 0001:00001c30       ?GetConnectionPointContainer@?$IConnectionPointImpl@VCOPOSSigCap@@$1?IID_IPropertyNotifySink@@3U_GUID@@BVCComDynamicUnkArray@ATL@@@ATL@@UAGJPAPAUIConnectionPointContainer@@@Z 10002c30 f i SigCap.obj
 0001:00001c53       ?Advise@?$IConnectionPointImpl@VCOPOSSigCap@@$1?IID_IPropertyNotifySink@@3U_GUID@@BVCComDynamicUnkArray@ATL@@@ATL@@UAGJPAUIUnknown@@PAK@Z 10002c53 f i SigCap.obj
 0001:00001c53       ?Advise@?$IConnectionPointImpl@VCOPOSSigCap@@$1?DIID__IOPOSSigCapEvents@@3U_GUID@@BVCComDynamicUnkArray@ATL@@@ATL@@UAGJPAUIUnknown@@PAK@Z 10002c53 f i SigCap.obj
 0001:00001cf3       ?Unadvise@?$IConnectionPointImpl@VCOPOSSigCap@@$1?DIID__IOPOSSigCapEvents@@3U_GUID@@BVCComDynamicUnkArray@ATL@@@ATL@@UAGJK@Z 10002cf3 f i SigCap.obj
 0001:00001cf3       ?Unadvise@?$IConnectionPointImpl@VCOPOSSigCap@@$1?IID_IPropertyNotifySink@@3U_GUID@@BVCComDynamicUnkArray@ATL@@@ATL@@UAGJK@Z 10002cf3 f i SigCap.obj
 0001:00001d33       ?EnumConnections@?$IConnectionPointImpl@VCOPOSSigCap@@$1?DIID__IOPOSSigCapEvents@@3U_GUID@@BVCComDynamicUnkArray@ATL@@@ATL@@UAGJPAPAUIEnumConnections@@@Z 10002d33 f i SigCap.obj
 0001:00001d33       ?EnumConnections@?$IConnectionPointImpl@VCOPOSSigCap@@$1?IID_IPropertyNotifySink@@3U_GUID@@BVCComDynamicUnkArray@ATL@@@ATL@@UAGJPAPAUIEnumConnections@@@Z 10002d33 f i SigCap.obj
 0001:00001e2e       ?GetObjectDescription@?$CComCoClass@VCOPOSSigCap@@$1?CLSID_OPOSSigCap@@3U_GUID@@B@ATL@@SGPB_WXZ 10002e2e f i SigCap.obj
 0001:00001e2e       ?GetCategoryMap@CComObjectRootBase@ATL@@SAPBU_ATL_CATMAP_ENTRY@2@XZ 10002e2e f i SigCap.obj
 0001:00001e31       ?GetConnectionInterface@?$IConnectionPointImpl@VCOPOSSigCap@@$1?DIID__IOPOSSigCapEvents@@3U_GUID@@BVCComDynamicUnkArray@ATL@@@ATL@@UAGJPAU_GUID@@@Z 10002e31 f i SigCap.obj
 0001:00001e55       ?GetConnectionPointContainer@?$IConnectionPointImpl@VCOPOSSigCap@@$1?DIID__IOPOSSigCapEvents@@3U_GUID@@BVCComDynamicUnkArray@ATL@@@ATL@@UAGJPAPAUIConnectionPointContainer@@@Z 10002e55 f i SigCap.obj
 0001:00001e78       ?UpdateRegistry@COPOSSigCap@@SGJH@Z 10002e78 f i SigCap.obj
 0001:00001e90       ?ProcessWindowMessage@COPOSSigCap@@UAEHPAUHWND__@@IIJAAJK@Z 10002e90 f i SigCap.obj
 0001:00001ed9       ?Lock@CAtlModule@ATL@@UAEJXZ 10002ed9 f i SigCap.obj
 0001:00001ee3       ?Unlock@CAtlModule@ATL@@UAEJXZ 10002ee3 f i SigCap.obj
 0001:00001eed       ?GetLockCount@CAtlModule@ATL@@UAEJXZ 10002eed f i SigCap.obj
 0001:00001ef1       ?GetGITPtr@CAtlModule@ATL@@UAEJPAPAUIGlobalInterfaceTable@@@Z 10002ef1 f i SigCap.obj
 0001:00001f3d       ?SOData@COPOSSigCap@@MAGJJ@Z 10002f3d f i SigCap.obj
 0001:00001f76       ?SODirectIO@COPOSSigCap@@MAGJJPAJPAPA_W@Z 10002f76 f i SigCap.obj
 0001:00001fbf       ?SOError@COPOSSigCap@@MAGJJJJPAJ@Z 10002fbf f i SigCap.obj
 0001:00002014       ?SOStatusUpdate@COPOSSigCap@@MAGJJ@Z 10003014 f i SigCap.obj
 0001:0000204d       ?AddCommonRGSReplacements@?$CAtlModuleT@VCComModule@ATL@@@ATL@@UAEJPAUIRegistrarBase@@@Z 1000304d f i SigCap.obj
 0001:00002067       ?UpdateRegistryFromResourceD@CComModule@ATL@@UAGJPB_WHPAU_ATL_REGMAP_ENTRY@2@@Z 10003067 f i SigCap.obj
 0001:00002067       ?UpdateRegistryFromResourceD@CComModule@ATL@@UAGJIHPAU_ATL_REGMAP_ENTRY@2@@Z 10003067 f i SigCap.obj
 0001:0000206f       ?UpdateRegistryFromResource@CComModule@ATL@@UAGJPB_WHPAU_ATL_REGMAP_ENTRY@2@@Z 1000306f f i SigCap.obj
 0001:00002078       ?UpdateRegistryFromResource@CComModule@ATL@@UAGJIHPAU_ATL_REGMAP_ENTRY@2@@Z 10003078 f i SigCap.obj
 0001:00002081       ??_GCComModule@ATL@@UAEPAXI@Z 10003081 f i SigCap.obj
 0001:00002081       ??_ECComModule@ATL@@UAEPAXI@Z 10003081 f i SigCap.obj
 0001:000020a9       ?CreateInstance@?$CComCreator@V?$CComObjectCached@VCComClassFactory@ATL@@@ATL@@@ATL@@SGJPAXABU_GUID@@PAPAX@Z 100030a9 f i SigCap.obj
 0001:00002149       ?CreateInstance@?$CComCreator2@V?$CComCreator@V?$CComObject@VCOPOSSigCap@@@ATL@@@ATL@@V?$CComCreator@V?$CComAggObject@VCOPOSSigCap@@@ATL@@@2@@ATL@@SGJPAXABU_GUID@@PAPAX@Z 10003149 f i SigCap.obj
 0001:00002169       ?AddRef@?$CComObjectCached@VCComClassFactory@ATL@@@ATL@@UAGKXZ 10003169 f i SigCap.obj
 0001:00002190       ?Release@?$CComObjectCached@VCComClassFactory@ATL@@@ATL@@UAGKXZ 10003190 f i SigCap.obj
 0001:000021c6       ?QueryInterface@?$CComObjectCached@VCComClassFactory@ATL@@@ATL@@UAGJABU_GUID@@PAPAX@Z 100031c6 f i SigCap.obj
 0001:000021e0       ??_G?$CComObjectCached@VCComClassFactory@ATL@@@ATL@@UAEPAXI@Z 100031e0 f i SigCap.obj
 0001:000021e0       ??_E?$CComObjectCached@VCComClassFactory@ATL@@@ATL@@UAEPAXI@Z 100031e0 f i SigCap.obj
 0001:00002202       ?Next@?$CComEnumImpl@UIEnumConnectionPoints@@$1?_GUID_b196b285_bab4_101a_b69c_00aa00341d07@@3U__s_GUID@@BPAUIConnectionPoint@@V?$_CopyInterface@UIConnectionPoint@@@ATL@@@ATL@@UAGJKPAPAUIConnectionPoint@@PAK@Z 10003202 f i SigCap.obj
 0001:000022d9       ?Skip@?$CComEnumImpl@UIEnumConnectionPoints@@$1?_GUID_b196b285_bab4_101a_b69c_00aa00341d07@@3U__s_GUID@@BPAUIConnectionPoint@@V?$_CopyInterface@UIConnectionPoint@@@ATL@@@ATL@@UAGJK@Z 100032d9 f i SigCap.obj
 0001:00002306       ?Reset@?$CComEnumImpl@UIEnumConnections@@$1?_GUID_b196b287_bab4_101a_b69c_00aa00341d07@@3U__s_GUID@@BUtagCONNECTDATA@@V?$_Copy@UtagCONNECTDATA@@@ATL@@@ATL@@UAGJXZ 10003306 f i SigCap.obj
 0001:00002306       ?Reset@?$CComEnumImpl@UIEnumConnectionPoints@@$1?_GUID_b196b285_bab4_101a_b69c_00aa00341d07@@3U__s_GUID@@BPAUIConnectionPoint@@V?$_CopyInterface@UIConnectionPoint@@@ATL@@@ATL@@UAGJXZ 10003306 f i SigCap.obj
 0001:00002318       ?Clone@?$CComEnumImpl@UIEnumConnectionPoints@@$1?_GUID_b196b285_bab4_101a_b69c_00aa00341d07@@3U__s_GUID@@BPAUIConnectionPoint@@V?$_CopyInterface@UIConnectionPoint@@@ATL@@@ATL@@UAGJPAPAUIEnumConnectionPoints@@@Z 10003318 f i SigCap.obj
 0001:000023f9       ?AddRef@?$CComObject@V?$CComEnum@UIEnumConnections@@$1?_GUID_b196b287_bab4_101a_b69c_00aa00341d07@@3U__s_GUID@@BUtagCONNECTDATA@@V?$_Copy@UtagCONNECTDATA@@@ATL@@VCComSingleThreadModel@6@@ATL@@@ATL@@UAGKXZ 100033f9 f i SigCap.obj
 0001:000023f9       ?AddRef@?$CComObject@V?$CComEnum@UIEnumConnectionPoints@@$1?_GUID_b196b285_bab4_101a_b69c_00aa00341d07@@3U__s_GUID@@BPAUIConnectionPoint@@V?$_CopyInterface@UIConnectionPoint@@@ATL@@VCComSingleThreadModel@6@@ATL@@@ATL@@UAGKXZ 100033f9 f i SigCap.obj
 0001:0000240a       ?Release@?$CComObject@V?$CComEnum@UIEnumConnections@@$1?_GUID_b196b287_bab4_101a_b69c_00aa00341d07@@3U__s_GUID@@BUtagCONNECTDATA@@V?$_Copy@UtagCONNECTDATA@@@ATL@@VCComSingleThreadModel@6@@ATL@@@ATL@@UAGKXZ 1000340a f i SigCap.obj
 0001:0000240a       ?Release@?$CComObject@V?$CComEnum@UIEnumConnectionPoints@@$1?_GUID_b196b285_bab4_101a_b69c_00aa00341d07@@3U__s_GUID@@BPAUIConnectionPoint@@V?$_CopyInterface@UIConnectionPoint@@@ATL@@VCComSingleThreadModel@6@@ATL@@@ATL@@UAGKXZ 1000340a f i SigCap.obj
 0001:00002446       ?QueryInterface@?$CComObject@V?$CComEnum@UIEnumConnectionPoints@@$1?_GUID_b196b285_bab4_101a_b69c_00aa00341d07@@3U__s_GUID@@BPAUIConnectionPoint@@V?$_CopyInterface@UIConnectionPoint@@@ATL@@VCComSingleThreadModel@6@@ATL@@@ATL@@UAGJABU_GUID@@PAPAX@Z 10003446 f i SigCap.obj
 0001:00002460       ??_E?$CComObject@V?$CComEnum@UIEnumConnectionPoints@@$1?_GUID_b196b285_bab4_101a_b69c_00aa00341d07@@3U__s_GUID@@BPAUIConnectionPoint@@V?$_CopyInterface@UIConnectionPoint@@@ATL@@VCComSingleThreadModel@6@@ATL@@@ATL@@UAEPAXI@Z 10003460 f i SigCap.obj
 0001:00002460       ??_G?$CComObject@V?$CComEnum@UIEnumConnectionPoints@@$1?_GUID_b196b285_bab4_101a_b69c_00aa00341d07@@3U__s_GUID@@BPAUIConnectionPoint@@V?$_CopyInterface@UIConnectionPoint@@@ATL@@VCComSingleThreadModel@6@@ATL@@@ATL@@UAEPAXI@Z 10003460 f i SigCap.obj
 0001:00002482       ?AddRef@CRegObject@ATL@@UAGKXZ 10003482 f i SigCap.obj
 0001:00002488       ?AddReplacement@CRegObject@ATL@@UAGJPB_W0@Z 10003488 f i SigCap.obj
 0001:000024c1       ?ClearReplacements@CRegObject@ATL@@UAGJXZ 100034c1 f i SigCap.obj
 0001:000024d3       ??_ECRegObject@ATL@@UAEPAXI@Z 100034d3 f i SigCap.obj
 0001:000024d3       ??_GCRegObject@ATL@@UAEPAXI@Z 100034d3 f i SigCap.obj
 0001:000024f5       ?AddRef@?$CComAggObject@VCOPOSSigCap@@@ATL@@UAGKXZ 100034f5 f i SigCap.obj
 0001:00002506       ?Release@?$CComAggObject@VCOPOSSigCap@@@ATL@@UAGKXZ 10003506 f i SigCap.obj
 0001:00002542       ?QueryInterface@?$CComAggObject@VCOPOSSigCap@@@ATL@@UAGJABU_GUID@@PAPAX@Z 10003542 f i SigCap.obj
 0001:00002591       ?AddRef@?$CComContainedObject@VCOPOSSigCap@@@ATL@@UAGKXZ 10003591 f i SigCap.obj
 0001:000025a7       ?Release@?$CComContainedObject@VCOPOSSigCap@@@ATL@@UAGKXZ 100035a7 f i SigCap.obj
 0001:000025bd       ?QueryInterface@?$CComContainedObject@VCOPOSSigCap@@@ATL@@UAGJABU_GUID@@PAPAX@Z 100035bd f i SigCap.obj
 0001:000025d8       ??_E?$CComAggObject@VCOPOSSigCap@@@ATL@@UAEPAXI@Z 100035d8 f i SigCap.obj
 0001:000025d8       ??_G?$CComAggObject@VCOPOSSigCap@@@ATL@@UAEPAXI@Z 100035d8 f i SigCap.obj
 0001:000025fd       ?AddRef@?$CComObject@VCOPOSSigCap@@@ATL@@UAGKXZ 100035fd f i SigCap.obj
 0001:00002614       ?Release@?$CComObject@VCOPOSSigCap@@@ATL@@UAGKXZ 10003614 f i SigCap.obj
 0001:00002656       ?QueryInterface@?$CComObject@VCOPOSSigCap@@@ATL@@UAGJABU_GUID@@PAPAX@Z 10003656 f i SigCap.obj
 0001:00002670       ?OnDrawAdvanced@CComControlBase@ATL@@UAEJAAUATL_DRAWINFO@@@Z 10003670 f i SigCap.obj
 0001:00002763       ?Next@?$CComEnumImpl@UIEnumConnections@@$1?_GUID_b196b287_bab4_101a_b69c_00aa00341d07@@3U__s_GUID@@BUtagCONNECTDATA@@V?$_Copy@UtagCONNECTDATA@@@ATL@@@ATL@@UAGJKPAUtagCONNECTDATA@@PAK@Z 10003763 f i SigCap.obj
 0001:0000283a       ?Skip@?$CComEnumImpl@UIEnumConnections@@$1?_GUID_b196b287_bab4_101a_b69c_00aa00341d07@@3U__s_GUID@@BUtagCONNECTDATA@@V?$_Copy@UtagCONNECTDATA@@@ATL@@@ATL@@UAGJK@Z 1000383a f i SigCap.obj
 0001:00002867       ?Clone@?$CComEnumImpl@UIEnumConnections@@$1?_GUID_b196b287_bab4_101a_b69c_00aa00341d07@@3U__s_GUID@@BUtagCONNECTDATA@@V?$_Copy@UtagCONNECTDATA@@@ATL@@@ATL@@UAGJPAPAUIEnumConnections@@@Z 10003867 f i SigCap.obj
 0001:00002948       ?QueryInterface@?$CComObject@V?$CComEnum@UIEnumConnections@@$1?_GUID_b196b287_bab4_101a_b69c_00aa00341d07@@3U__s_GUID@@BUtagCONNECTDATA@@V?$_Copy@UtagCONNECTDATA@@@ATL@@VCComSingleThreadModel@6@@ATL@@@ATL@@UAGJABU_GUID@@PAPAX@Z 10003948 f i SigCap.obj
 0001:00002962       ??_E?$CComObject@V?$CComEnum@UIEnumConnections@@$1?_GUID_b196b287_bab4_101a_b69c_00aa00341d07@@3U__s_GUID@@BUtagCONNECTDATA@@V?$_Copy@UtagCONNECTDATA@@@ATL@@VCComSingleThreadModel@6@@ATL@@@ATL@@UAEPAXI@Z 10003962 f i SigCap.obj
 0001:00002962       ??_G?$CComObject@V?$CComEnum@UIEnumConnections@@$1?_GUID_b196b287_bab4_101a_b69c_00aa00341d07@@3U__s_GUID@@BUtagCONNECTDATA@@V?$_Copy@UtagCONNECTDATA@@@ATL@@VCComSingleThreadModel@6@@ATL@@@ATL@@UAEPAXI@Z 10003962 f i SigCap.obj
 0001:00002984       ??$?4UITypeInfo2@@@?$CComPtr@UITypeInfo@@@ATL@@QAEPAUITypeInfo@@ABV?$CComPtr@UITypeInfo2@@@1@@Z 10003984 f i SigCap.obj
 0001:000029b1       ??$AtlAdd@K@ATL@@YAJPAKKK@Z 100039b1 f i SigCap.obj
 0001:000029d4       ??$AtlAdd@_K@ATL@@YAJPA_K_K1@Z 100039d4 f i SigCap.obj
 0001:00002a0c       ??$AtlAddThrow@K@ATL@@YAKKK@Z 10003a0c f i SigCap.obj
 0001:00002a32       ??$AtlModuleRegisterWndClassInfoT@VAtlModuleRegisterWndClassInfoParamW@ATL@@@ATL@@YAGPAU_ATL_BASE_MODULE70@0@PAU_ATL_WIN_MODULE70@0@PAU_ATL_WNDCLASSINFOW@0@PAP6GJPAUHWND__@@IIJ@ZVAtlModuleRegisterWndClassInfoParamW@0@@Z 10003a32 f i SigCap.obj
 0001:00002b80       ??$AtlMultiply@H@ATL@@YAJPAHHH@Z 10003b80 f i SigCap.obj
 0001:00002bb8       ??$AtlMultiply@K@ATL@@YAJPAKKK@Z 10003bb8 f i SigCap.obj
 0001:00002bb8       ??$AtlMultiply@I@ATL@@YAJPAIII@Z 10003bb8 f i SigCap.obj
 0001:00002bda       ??$AtlMultiplyThrow@I@ATL@@YAIII@Z 10003bda f i SigCap.obj
 0001:00002c00       ??0?$CComAggObject@VCOPOSSigCap@@@ATL@@QAE@PAX@Z 10003c00 f i SigCap.obj
 0001:00002c2d       ??0?$CComContainedObject@VCOPOSSigCap@@@ATL@@QAE@PAX@Z 10003c2d f i SigCap.obj
 0001:00002ce6       ??0?$CComObject@V?$CComEnum@UIEnumConnectionPoints@@$1?_GUID_b196b285_bab4_101a_b69c_00aa00341d07@@3U__s_GUID@@BPAUIConnectionPoint@@V?$_CopyInterface@UIConnectionPoint@@@ATL@@VCComSingleThreadModel@6@@ATL@@@ATL@@QAE@PAX@Z 10003ce6 f i SigCap.obj
 0001:00002d14       ??0?$CComObject@V?$CComEnum@UIEnumConnections@@$1?_GUID_b196b287_bab4_101a_b69c_00aa00341d07@@3U__s_GUID@@BUtagCONNECTDATA@@V?$_Copy@UtagCONNECTDATA@@@ATL@@VCComSingleThreadModel@6@@ATL@@@ATL@@QAE@PAX@Z 10003d14 f i SigCap.obj
 0001:00002d42       ??0?$CComObject@VCOPOSSigCap@@@ATL@@QAE@PAX@Z 10003d42 f i SigCap.obj
 0001:00002df9       ??0?$CComQIPtr@UIOleControlSite@@$1?_GUID_b196b289_bab4_101a_b69c_00aa00341d07@@3U__s_GUID@@B@ATL@@QAE@PAUIUnknown@@@Z 10003df9 f i SigCap.obj
 0001:00002e22       ??0CAtlModule@ATL@@QAE@XZ  10003e22 f i SigCap.obj
 0001:00002e63       ??0CParseBuffer@CRegParser@ATL@@QAE@H@Z 10003e63 f i SigCap.obj
 0001:00002e99       ??0_ATL_MSG@ATL@@QAE@PAUHWND__@@IIJH@Z 10003e99 f i SigCap.obj
 0001:00002ed1       ??1?$CComAggObject@VCOPOSSigCap@@@ATL@@UAE@XZ 10003ed1 f i SigCap.obj
 0001:00002ef5       ??1?$CComEnumImpl@UIEnumConnectionPoints@@$1?_GUID_b196b285_bab4_101a_b69c_00aa00341d07@@3U__s_GUID@@BPAUIConnectionPoint@@V?$_CopyInterface@UIConnectionPoint@@@ATL@@@ATL@@UAE@XZ 10003ef5 f i SigCap.obj
 0001:00002f35       ??1?$CComEnumImpl@UIEnumConnections@@$1?_GUID_b196b287_bab4_101a_b69c_00aa00341d07@@3U__s_GUID@@BUtagCONNECTDATA@@V?$_Copy@UtagCONNECTDATA@@@ATL@@@ATL@@UAE@XZ 10003f35 f i SigCap.obj
 0001:00002f75       ??1?$CComObject@V?$CComEnum@UIEnumConnectionPoints@@$1?_GUID_b196b285_bab4_101a_b69c_00aa00341d07@@3U__s_GUID@@BPAUIConnectionPoint@@V?$_CopyInterface@UIConnectionPoint@@@ATL@@VCComSingleThreadModel@6@@ATL@@@ATL@@UAE@XZ 10003f75 f i SigCap.obj
 0001:00002f98       ??1?$CComObject@V?$CComEnum@UIEnumConnections@@$1?_GUID_b196b287_bab4_101a_b69c_00aa00341d07@@3U__s_GUID@@BUtagCONNECTDATA@@V?$_Copy@UtagCONNECTDATA@@@ATL@@VCComSingleThreadModel@6@@ATL@@@ATL@@UAE@XZ 10003f98 f i SigCap.obj
 0001:00002fbb       ??1?$CComObject@VCOPOSSigCap@@@ATL@@UAE@XZ 10003fbb f i SigCap.obj
 0001:00003079       ??1?$CComObjectCached@VCComClassFactory@ATL@@@ATL@@UAE@XZ 10004079 f i SigCap.obj
 0001:0000308f       ??1?$CComObjectRootEx@VCComMultiThreadModel@ATL@@@ATL@@QAE@XZ 1000408f f i SigCap.obj
 0001:000030a4       ??1CRegObject@ATL@@UAE@XZ  100040a4 f i SigCap.obj
 0001:000030c4       ??4?$CComPtr@UIAdviseSink@@@ATL@@QAEPAUIAdviseSink@@PAU2@@Z 100040c4 f i SigCap.obj
 0001:000030c4       ??4?$CComPtr@UIOleClientSite@@@ATL@@QAEPAUIOleClientSite@@PAU2@@Z 100040c4 f i SigCap.obj
 0001:000030c4       ??4?$CComPtr@UIUnknown@@@ATL@@QAEPAUIUnknown@@PAU2@@Z 100040c4 f i SigCap.obj
 0001:000030f8       ??_E?$CComContainedObject@VCOPOSSigCap@@@ATL@@UAEPAXI@Z 100040f8 f i SigCap.obj
 0001:000030f8       ??_G?$CComContainedObject@VCOPOSSigCap@@@ATL@@UAEPAXI@Z 100040f8 f i SigCap.obj
 0001:0000311d       ??_G?$CComObject@VCOPOSSigCap@@@ATL@@UAEPAXI@Z 1000411d f i SigCap.obj
 0001:0000311d       ??_E?$CComObject@VCOPOSSigCap@@@ATL@@UAEPAXI@Z 1000411d f i SigCap.obj
 0001:00003142       ?Add@?$CSimpleArray@GV?$CSimpleArrayEqualHelper@G@ATL@@@ATL@@QAEHABG@Z 10004142 f i SigCap.obj
 0001:000031c6       ?Add@?$CSimpleMap@PA_WPA_WVCExpansionVectorEqualHelper@ATL@@@ATL@@QAEHABQA_W0@Z 100041c6 f i SigCap.obj
 0001:0000321b       ?Add@CComDynamicUnkArray@ATL@@QAEKPAUIUnknown@@@Z 1000421b f i SigCap.obj
 0001:000032d1       ?Add@CExpansionVector@ATL@@QAEHPB_W0@Z 100042d1 f i SigCap.obj
 0001:000033da       ?AddString@CParseBuffer@CRegParser@ATL@@QAEHPB_W@Z 100043da f i SigCap.obj
 0001:0000340f       ?AddTermFunc@CAtlModule@ATL@@QAEJP6GXK@ZK@Z 1000440f f i SigCap.obj
 0001:00003472       ?AddValue@CRegParser@ATL@@IAEJAAVCRegKey@2@PB_WPA_W@Z 10004472 f i SigCap.obj
 0001:0000378c       ?Allocate@?$CAtlSafeAllocBufferManager@VCCRTAllocator@ATL@@@_ATL_SAFE_ALLOCA_IMPL@ATL@@QAEPAXK@Z 1000478c f i SigCap.obj
 0001:000037b9       ?Allocate@?$CTempBuffer@E$0BAA@VCCRTAllocator@ATL@@@ATL@@QAEPAEI@Z 100047b9 f i SigCap.obj
 0001:000037e8       ?Allocate@?$CTempBuffer@_W$0BAA@VCCRTAllocator@ATL@@@ATL@@QAEPA_WI@Z 100047e8 f i SigCap.obj
 0001:00003817       ?Allocate@?$CTempBuffer@_W$0EAA@VCCRTAllocator@ATL@@@ATL@@QAEPA_WI@Z 10004817 f i SigCap.obj
 0001:00003846       ?AllocateHeap@?$CTempBuffer@E$0BAA@VCCRTAllocator@ATL@@@ATL@@AAEXI@Z 10004846 f i SigCap.obj
 0001:00003846       ?AllocateHeap@?$CTempBuffer@_W$0EAA@VCCRTAllocator@ATL@@@ATL@@AAEXI@Z 10004846 f i SigCap.obj
 0001:00003846       ?AllocateHeap@?$CTempBuffer@_W$0BAA@VCCRTAllocator@ATL@@@ATL@@AAEXI@Z 10004846 f i SigCap.obj
 0001:0000386b       ?Append@CParseBuffer@CRegParser@ATL@@QAEHPB_WH@Z 1000486b f i SigCap.obj
 0001:000038f9       ?AtlCoTaskMemCAlloc@ATL@@YAPAXKK@Z 100048f9 f i SigCap.obj
 0001:00003926       ?AtlCoTaskMemRecalloc@ATL@@YAPAXPAXKK@Z 10004926 f i SigCap.obj
 0001:00003956       ?AtlComModuleGetClassObject@ATL@@YGJPAU_ATL_COM_MODULE70@1@ABU_GUID@@1PAPAX@Z 10004956 f i SigCap.obj
 0001:00003a49       ?AtlComModuleRegisterServer@ATL@@YGJPAU_ATL_COM_MODULE70@1@HPBU_GUID@@@Z 10004a49 f i SigCap.obj
 0001:00003ad1       ?AtlComModuleUnregisterServer@ATL@@YGJPAU_ATL_COM_MODULE70@1@HPBU_GUID@@@Z 10004ad1 f i SigCap.obj
 0001:00003b59       ?AtlComQIPtrAssign2@ATL@@YAXPAPAUIUnknown@@PAU2@ABU_GUID@@@Z 10004b59 f i SigCap.obj
 0001:00003b88       ?AtlCreateTargetDC@ATL@@YGPAUHDC__@@PAU2@PAUtagDVTARGETDEVICE@@@Z 10004b88 f i SigCap.obj
 0001:00003bf1       ?AtlCrtErrorCheck@ATL@@YAHH@Z 10004bf1 f i SigCap.obj
 0001:00003c2c       ?AtlHiMetricToPixel@ATL@@YGXPBUtagSIZE@@PAU2@@Z 10004c2c f i SigCap.obj
 0001:00003ca1       ?AtlHresultFromLastError@ATL@@YAJXZ 10004ca1 f i SigCap.obj
 0001:00003cb8       ?AtlHresultFromWin32@ATL@@YAJK@Z 10004cb8 f i SigCap.obj
 0001:00003ccd       ?AtlInternalOleLoadFromStream@ATL@@YAJPAUIStream@@ABU_GUID@@PAPAXTClassesAllowedInStream@1@K@Z 10004ccd f i SigCap.obj
 0001:00003deb       ?AtlInternalQueryInterface@ATL@@YGJPAXPBU_ATL_INTMAP_ENTRY@1@ABU_GUID@@PAPAX@Z 10004deb f i SigCap.obj
 0001:00003e8e       ?AtlLoadTypeLib@ATL@@YGJPAUHINSTANCE__@@PB_WPAPA_WPAPAUITypeLib@@@Z 10004e8e f i SigCap.obj
 0001:0000406c       ?AtlRegisterClassCategoriesHelper@ATL@@YGJABU_GUID@@PBU_ATL_CATMAP_ENTRY@1@H@Z 1000506c f i SigCap.obj
 0001:00004368       ?AtlRegisterTypeLib@ATL@@YGJPAUHINSTANCE__@@PB_W@Z 10005368 f i SigCap.obj
 0001:000044f0       ?AtlThrowImpl@ATL@@YGXJ@Z  100054f0 f i SigCap.obj
 0001:0000450e       ?AtlUnRegisterTypeLib@ATL@@YGJPAUHINSTANCE__@@PB_W@Z 1000550e f i SigCap.obj
 0001:000045b9       ?AtlWinModuleAddCreateWndData@ATL@@YGXPAU_ATL_WIN_MODULE70@1@PAU_AtlCreateWndData@1@PAX@Z 100055b9 f i SigCap.obj
 0001:0000460d       ?AtlWinModuleExtractCreateWndData@ATL@@YGPAXPAU_ATL_WIN_MODULE70@1@@Z 1000560d f i SigCap.obj
 0001:00004670       ?AtlWinModuleRegisterClassExW@ATL@@YGGPAU_ATL_WIN_MODULE70@1@PBUtagWNDCLASSEXW@@@Z 10005670 f i SigCap.obj
 0001:000046af       ?CanForceRemoveKey@CRegParser@ATL@@IAEHPB_W@Z 100056af f i SigCap.obj
 0001:000046de       ?ChToByte@CRegParser@ATL@@KAE_W@Z 100056de f i SigCap.obj
 0001:00004711       ?Cleanup@CComTypeInfoHolder@ATL@@SGXK@Z 10005711 f i SigCap.obj
 0001:00004744       ?ClearReplacements@CExpansionVector@ATL@@QAEJXZ 10005744 f i SigCap.obj
 0001:00004781       ?Close@CRegKey@ATL@@QAEJXZ 10005781 f i SigCap.obj
 0001:0000479b       ?CreateInstance@?$CComCreator@V?$CComAggObject@VCOPOSSigCap@@@ATL@@@ATL@@SGJPAXABU_GUID@@PAPAX@Z 1000579b f i SigCap.obj
 0001:00004810       ?CreateInstance@?$CComCreator@V?$CComObject@VCOPOSSigCap@@@ATL@@@ATL@@SGJPAXABU_GUID@@PAPAX@Z 10005810 f i SigCap.obj
 0001:00004890       ?CreateInstance@?$CComObject@V?$CComEnum@UIEnumConnectionPoints@@$1?_GUID_b196b285_bab4_101a_b69c_00aa00341d07@@3U__s_GUID@@BPAUIConnectionPoint@@V?$_CopyInterface@UIConnectionPoint@@@ATL@@VCComSingleThreadModel@6@@ATL@@@ATL@@SGJPAPAV12@@Z 10005890 f i SigCap.obj
 0001:000048da       ?CreateInstance@?$CComObject@V?$CComEnum@UIEnumConnections@@$1?_GUID_b196b287_bab4_101a_b69c_00aa00341d07@@3U__s_GUID@@BUtagCONNECTDATA@@V?$_Copy@UtagCONNECTDATA@@@ATL@@VCComSingleThreadModel@6@@ATL@@@ATL@@SGJPAPAV12@@Z 100058da f i SigCap.obj
 0001:00004924       ?DefaultReflectionHandler@?$CWindowImplRoot@VCWindow@ATL@@@ATL@@SAHPAUHWND__@@IIJAAJ@Z 10005924 f i SigCap.obj
 0001:00004997       ?DeleteSubKey@CRegKey@ATL@@QAEJPB_W@Z 10005997 f i SigCap.obj
 0001:00004a10       ?DoEvent@COPOSSigCap@@IAEXIIJ@Z 10005a10 f i SigCap.obj
 0001:00004a90       ?DoVerbHide@?$IOleObjectImpl@VCOPOSSigCap@@@ATL@@QAEJPBUtagRECT@@PAUHWND__@@@Z 10005a90 f i SigCap.obj
 0001:00004ac6       ?DoVerbInPlaceActivate@?$IOleObjectImpl@VCOPOSSigCap@@@ATL@@QAEJPBUtagRECT@@PAUHWND__@@@Z 10005ac6 f i SigCap.obj
 0001:00004af9       ?DoVerbPrimary@?$IOleObjectImpl@VCOPOSSigCap@@@ATL@@QAEJPBUtagRECT@@PAUHWND__@@@Z 10005af9 f i SigCap.obj
 0001:00004b85       ?DoVerbProperties@CComControlBase@ATL@@QAEJPBUtagRECT@@PAUHWND__@@@Z 10005b85 f i SigCap.obj
 0001:00004d04       ?DoVerbUIActivate@?$IOleObjectImpl@VCOPOSSigCap@@@ATL@@QAEJPBUtagRECT@@PAUHWND__@@@Z 10005d04 f i SigCap.obj
 0001:00004d41       ?DoesVerbActivate@CComControlBase@ATL@@QAEHJ@Z 10005d41 f i SigCap.obj
 0001:00004d62       ?DoesVerbUIActivate@CComControlBase@ATL@@QAEHJ@Z 10005d62 f i SigCap.obj
 0001:00004d97       ?EndOfVar@CRegParser@ATL@@IAEHXZ 10005d97 f i SigCap.obj
 0001:00004db7       ?EscapeSingleQuote@CAtlModule@ATL@@SAXPA_WIPB_W@Z 10005db7 f i SigCap.obj
 0001:00004e06       ?FindKey@?$CSimpleMap@PA_WPA_WVCExpansionVectorEqualHelper@ATL@@@ATL@@QBEHABQA_W@Z 10005e06 f i SigCap.obj
 0001:00004e3d       ?FireTheEvent@?$CProxy_IOPOSEvents@VCOPOSSigCap@@@@IAEXPAVOposVariant@@IAAJPB_WJ@Z 10005e3d f i SigCap.obj
 0001:00004ecf       ?FireViewChange@CComControlBase@ATL@@QAEJXZ 10005ecf f i SigCap.obj
 0001:00004f18       ?Fire_DataEvent@?$CProxy_IOPOSEvents@VCOPOSSigCap@@@@QAEXJ@Z 10005f18 f i SigCap.obj
 0001:00004fae       ?Fire_DirectIOEvent@?$CProxy_IOPOSEvents@VCOPOSSigCap@@@@QAEXJPAJPAPA_W@Z 10005fae f i SigCap.obj
 0001:0000509a       ?Fire_ErrorEvent@?$CProxy_IOPOSEvents@VCOPOSSigCap@@@@QAEXJJJPAJ@Z 1000609a f i SigCap.obj
 0001:0000518b       ?Fire_StatusUpdateEvent@?$CProxy_IOPOSEvents@VCOPOSSigCap@@@@QAEXJ@Z 1000618b f i SigCap.obj
 0001:00005221       ?FreeHeap@?$CTempBuffer@_W$0BAA@VCCRTAllocator@ATL@@@ATL@@AAEXXZ 10006221 f i SigCap.obj
 0001:00005221       ?FreeHeap@?$CTempBuffer@E$0BAA@VCCRTAllocator@ATL@@@ATL@@AAEXXZ 10006221 f i SigCap.obj
 0001:00005221       ?FreeHeap@?$CTempBuffer@_W$0EAA@VCCRTAllocator@ATL@@@ATL@@AAEXXZ 10006221 f i SigCap.obj
 0001:0000522a       ?GetAmbientLocaleID@CComControlBase@ATL@@QAEJAAK@Z 1000622a f i SigCap.obj
 0001:00005286       ?GetAmbientUserMode@CComControlBase@ATL@@QAEJAAH@Z 10006286 f i SigCap.obj
 0001:000052f6       ?GetAt@CComDynamicUnkArray@ATL@@QAEPAUIUnknown@@H@Z 100062f6 f i SigCap.obj
 0001:00005312       ?GetClassObject@CComModule@ATL@@QAEJABU_GUID@@0PAPAX@Z 10006312 f i SigCap.obj
 0001:000053b4       ?GetConnMap@COPOSSigCap@@SAPBU_ATL_CONNMAP_ENTRY@ATL@@PAH@Z 100063b4 f i SigCap.obj
 0001:00005424       ?GetCookie@CComDynamicUnkArray@ATL@@QAGKPAPAUIUnknown@@@Z 10006424 f i SigCap.obj
 0001:0000545c       ?GetIDsOfNames@CComTypeInfoHolder@ATL@@QAEJABU_GUID@@PAPA_WIKPAJ@Z 1000645c f i SigCap.obj
 0001:00005583       ?GetKeyAt@?$CSimpleMap@PA_WPA_WVCExpansionVectorEqualHelper@ATL@@@ATL@@QBEAAPA_WH@Z 10006583 f i SigCap.obj
 0001:000055a8       ?GetPagesHelper@?$ISpecifyPropertyPagesImpl@VCOPOSSigCap@@@ATL@@IAEJPAUtagCAUUID@@PBUATL_PROPMAP_ENTRY@2@@Z 100065a8 f i SigCap.obj
 0001:000056cf       ?GetProperty@?$CComPtr@UIDispatch@@@ATL@@SAJPAUIDispatch@@JPAUtagVARIANT@@@Z 100066cf f i SigCap.obj
 0001:0000571e       ?GetSizeMax@CComVariant@ATL@@QBEJPAT_ULARGE_INTEGER@@@Z 1000671e f i SigCap.obj
 0001:000058e0       ?GetTI@CComTypeInfoHolder@ATL@@QAEJK@Z 100068e0 f i SigCap.obj
 0001:00005abf       ?GetTI@CComTypeInfoHolder@ATL@@QAEJKPAPAUITypeInfo@@@Z 10006abf f i SigCap.obj
 0001:00005b01       ?GetUnknown@CComDynamicUnkArray@ATL@@QAGPAUIUnknown@@K@Z 10006b01 f i SigCap.obj
 0001:00005b22       ?GetValueAt@?$CSimpleMap@PA_WPA_WVCExpansionVectorEqualHelper@ATL@@@ATL@@QBEAAPA_WH@Z 10006b22 f i SigCap.obj
 0001:00005b48       ?GetZoomInfo@CComControlBase@ATL@@QAEXAAUATL_DRAWINFO@@@Z 10006b48 f i SigCap.obj
 0001:00005bdb       ?HKeyFromString@CRegParser@ATL@@KAPAUHKEY__@@PA_W@Z 10006bdb f i SigCap.obj
 0001:00005c09       ?HasSubKeys@CRegParser@ATL@@IAEHPAUHKEY__@@@Z 10006c09 f i SigCap.obj
 0001:00005c3e       ?IDataObject_GetData@CComControlBase@ATL@@QAEJPAUtagFORMATETC@@PAUtagSTGMEDIUM@@@Z 10006c3e f i SigCap.obj
 0001:00005de4       ?IOleInPlaceObject_InPlaceDeactivate@CComControlBase@ATL@@QAEJXZ 10006de4 f i SigCap.obj
 0001:00005e6b       ?IOleInPlaceObject_SetObjectRects@CComControlBase@ATL@@QAEJPBUtagRECT@@0@Z 10006e6b f i SigCap.obj
 0001:00005f38       ?IOleInPlaceObject_UIDeactivate@CComControlBase@ATL@@QAEJXZ 10006f38 f i SigCap.obj
 0001:00005ffa       ?IOleObject_Advise@CComControlBase@ATL@@QAEJPAUIAdviseSink@@PAK@Z 10006ffa f i SigCap.obj
 0001:00006024       ?IOleObject_Close@CComControlBase@ATL@@QAEJK@Z 10007024 f i SigCap.obj
 0001:00006108       ?IOleObject_GetClientSite@CComControlBase@ATL@@QAEJPAPAUIOleClientSite@@@Z 10007108 f i SigCap.obj
 0001:00006131       ?IOleObject_SetClientSite@CComControlBase@ATL@@QAEJPAUIOleClientSite@@@Z 10007131 f i SigCap.obj
 0001:00006170       ?IOleObject_SetExtent@CComControlBase@ATL@@QAEJKPAUtagSIZE@@@Z 10007170 f i SigCap.obj
 0001:00006222       ?IPSI_GetIPersistStreamInit@?$IPersistStorageImpl@VCOPOSSigCap@@@ATL@@AAEPAUIPersistStreamInit@@XZ 10007222 f i SigCap.obj
 0001:000062ca       ?IPersistStreamInit_Load@?$IPersistStreamInitImpl@VCOPOSSigCap@@@ATL@@QAEJPAUIStream@@PBUATL_PROPMAP_ENTRY@2@@Z 100072ca f i SigCap.obj
 0001:0000653f       ?IPersistStreamInit_Save@?$IPersistStreamInitImpl@VCOPOSSigCap@@@ATL@@QAEJPAUIStream@@HPBUATL_PROPMAP_ENTRY@2@@Z 1000753f f i SigCap.obj
 0001:0000672d       ?IQuickActivate_QuickActivate@CComControlBase@ATL@@QAEJPAUtagQACONTAINER@@PAUtagQACONTROL@@@Z 1000772d f i SigCap.obj
 0001:0000696f       ?IViewObject_Draw@CComControlBase@ATL@@QAEJKJPAXPAUtagDVTARGETDEVICE@@PAUHDC__@@2PBU_RECTL@@3@Z 1000796f f i SigCap.obj
 0001:00006a17       ?InPlaceActivate@CComControlBase@ATL@@QAEJJPBUtagRECT@@@Z 10007a17 f i SigCap.obj
 0001:00006c88       ?Init@?$CComEnumImpl@UIEnumConnectionPoints@@$1?_GUID_b196b285_bab4_101a_b69c_00aa00341d07@@3U__s_GUID@@BPAUIConnectionPoint@@V?$_CopyInterface@UIConnectionPoint@@@ATL@@@ATL@@QAEJPAPAUIConnectionPoint@@0PAUIUnknown@@W4CComEnumFlags@2@@Z 10007c88 f i SigCap.obj
 0001:00006d67       ?Init@?$CComEnumImpl@UIEnumConnections@@$1?_GUID_b196b287_bab4_101a_b69c_00aa00341d07@@3U__s_GUID@@BUtagCONNECTDATA@@V?$_Copy@UtagCONNECTDATA@@@ATL@@@ATL@@QAEJPAUtagCONNECTDATA@@0PAUIUnknown@@W4CComEnumFlags@2@@Z 10007d67 f i SigCap.obj
 0001:00006e46       ?Init@CComModule@ATL@@QAEJPAU_ATL_OBJMAP_ENTRY30@2@PAUHINSTANCE__@@PBU_GUID@@@Z 10007e46 f i SigCap.obj
 0001:00006ea5       ?Init@CDynamicStdCallThunk2@ATL@@QAEHKPAX@Z 10007ea5 f i SigCap.obj
 0001:00006ed0       ?InlineIsEqualUnknown@ATL@@YGHABU_GUID@@@Z 10007ed0 f i SigCap.obj
 0001:00006ef8       ?InternalSetAtIndex@?$CSimpleMap@PA_WPA_WVCExpansionVectorEqualHelper@ATL@@@ATL@@QAEXHABQA_W0@Z 10007ef8 f i SigCap.obj
 0001:00006f22       ?Invoke@CComTypeInfoHolder@ATL@@QAEJPAUIDispatch@@JABU_GUID@@KGPAUtagDISPPARAMS@@PAUtagVARIANT@@PAUtagEXCEPINFO@@PAI@Z 10007f22 f i SigCap.obj
 0001:00006f65       ?IsEqualObject@?$CComPtrBase@UITypeInfo@@@ATL@@QAE_NPAUIUnknown@@@Z 10007f65 f i SigCap.obj
 0001:00006f65       ?IsEqualObject@?$CComPtrBase@UIOleClientSite@@@ATL@@QAE_NPAUIUnknown@@@Z 10007f65 f i SigCap.obj
 0001:00006fd2       ?IsSpace@CRegParser@ATL@@IAEH_W@Z 10007fd2 f i SigCap.obj
 0001:00006ffc       ?LoadNameCache@CComTypeInfoHolder@ATL@@QAEJPAUITypeInfo@@@Z 10007ffc f i SigCap.obj
 0001:00007131       ?Lookup@?$CSimpleMap@PA_WPA_WVCExpansionVectorEqualHelper@ATL@@@ATL@@QBEPA_WABQA_W@Z 10008131 f i SigCap.obj
 0001:00007157       ?NextToken@CRegParser@ATL@@IAEJPA_W@Z 10008157 f i SigCap.obj
 0001:0000728f       ?OnKillFocus@CComControlBase@ATL@@QAEJIIJAAH@Z 1000828f f i SigCap.obj
 0001:000072ea       ?OnMouseActivate@CComControlBase@ATL@@QAEJIIJAAH@Z 100082ea f i SigCap.obj
 0001:00007358       ?OnPaint@CComControlBase@ATL@@QAEJIIJAAH@Z 10008358 f i SigCap.obj
 0001:0000740a       ?OnSetFocus@CComControlBase@ATL@@QAEJIIJAAH@Z 1000840a f i SigCap.obj
 0001:00007493       ?Open@CRegKey@ATL@@QAEJPAUHKEY__@@PB_WK@Z 10008493 f i SigCap.obj
 0001:000074e8       ?PreProcessBuffer@CRegParser@ATL@@QAEJPA_WPAPA_W@Z 100084e8 f i SigCap.obj
 0001:00007757       ?ProcessWindowMessage@?$CComControl@VCOPOSSigCap@@V?$CWindowImpl@VCOPOSSigCap@@VCWindow@ATL@@V?$CWinTraits@$0FGAAAAAA@$0A@@3@@ATL@@@ATL@@UAEHPAUHWND__@@IIJAAJK@Z 10008757 f i SigCap.obj
 0001:000077f6       ?ReadFromStream@CComBSTR@ATL@@QAEJPAUIStream@@@Z 100087f6 f i SigCap.obj
 0001:00007919       ?ReadFromStream@CComVariant@ATL@@QAEJPAUIStream@@GTClassesAllowedInStream@2@K@Z 10008919 f i SigCap.obj
 0001:00007aa3       ?RecurseDeleteKey@CRegKey@ATL@@QAEJPB_W@Z 10008aa3 f i SigCap.obj
 0001:00007b91       ?RegCreateKeyExW@CAtlTransactionManager@ATL@@QAEJPAUHKEY__@@PB_WKPA_WKKQAU_SECURITY_ATTRIBUTES@@PAPAU3@PAK@Z 10008b91 f i SigCap.obj
 0001:00007bf4       ?RegDeleteKeyW@CAtlTransactionManager@ATL@@QAEJPAUHKEY__@@PB_W@Z 10008bf4 f i SigCap.obj
 0001:00007c46       ?RegOpenKeyExW@CAtlTransactionManager@ATL@@QAEJPAUHKEY__@@PB_WKKPAPAU3@@Z 10008c46 f i SigCap.obj
 0001:00007c9d       ?Register@_ATL_WNDCLASSINFOW@ATL@@QAEGPAP6GJPAUHWND__@@IIJ@Z@Z 10008c9d f i SigCap.obj
 0001:00007cbd       ?RegisterBuffer@CRegParser@ATL@@QAEJPA_WH@Z 10008cbd f i SigCap.obj
 0001:00007e04       ?RegisterFromResource@CRegObject@ATL@@IAEJPB_W00H@Z 10008e04 f i SigCap.obj
 0001:00007f3a       ?RegisterServer@?$CAtlModuleT@VCComModule@ATL@@@ATL@@QAEJHPBU_GUID@@@Z 10008f3a f i SigCap.obj
 0001:00007f68       ?RegisterServer@CComModule@ATL@@QAEJHPBU_GUID@@@Z 10008f68 f i SigCap.obj
 0001:00007fde       ?RegisterSubkeys@CRegParser@ATL@@IAEJPA_WPAUHKEY__@@HH@Z 10008fde f i SigCap.obj
 0001:0000868b       ?Remove@CComDynamicUnkArray@ATL@@QAEHK@Z 1000968b f i SigCap.obj
 0001:000086b4       ?RemoveAll@?$CSimpleMap@PA_WPA_WVCExpansionVectorEqualHelper@ATL@@@ATL@@QAEXXZ 100096b4 f i SigCap.obj
 0001:000086e0       ?ResourceRegisterSz@CRegObject@ATL@@QAGJPB_W00@Z 100096e0 f i SigCap.obj
 0001:0000870d       ?ResourceUnregisterSz@CRegObject@ATL@@QAGJPB_W00@Z 1000970d f i SigCap.obj
 0001:0000873a       ?SendOnDataChange@CComControlBase@ATL@@QAEJK@Z 1000973a f i SigCap.obj
 0001:00008787       ?SetControlFocus@CComControlBase@ATL@@QAEHH@Z 10009787 f i SigCap.obj
 0001:00008824       ?SetMultiStringValue@CRegKey@ATL@@QAEJPB_W0@Z 10009824 f i SigCap.obj
 0001:00008880       ?SetStringValue@CRegKey@ATL@@QAEJPB_W0K@Z 10009880 f i SigCap.obj
 0001:000088c9       ?SkipAssignment@CRegParser@ATL@@IAEJPA_W@Z 100098c9 f i SigCap.obj
 0001:0000892e       ?SkipWhiteSpace@CRegParser@ATL@@IAEXXZ 1000992e f i SigCap.obj
 0001:00008950       ?StrChrW@CRegParser@ATL@@KAPA_WPA_W_W@Z 10009950 f i SigCap.obj
 0001:0000898d       ?Term@CAtlModule@ATL@@QAEXXZ 1000998d f i SigCap.obj
 0001:000089e0       ?Term@CComModule@ATL@@QAEXXZ 100099e0 f i SigCap.obj
 0001:00008a38       ?UnregisterServer@?$CAtlModuleT@VCComModule@ATL@@@ATL@@QAEJHPBU_GUID@@@Z 10009a38 f i SigCap.obj
 0001:00008a5e       ?UnregisterServer@CComModule@ATL@@QAEJHPBU_GUID@@@Z 10009a5e f i SigCap.obj
 0001:00008ad4       ?UpdateRegistryFromResource@CAtlModule@ATL@@QAGJIHPAU_ATL_REGMAP_ENTRY@2@@Z 10009ad4 f i SigCap.obj
 0001:00008c9f       ?UpdateRegistryFromResource@CAtlModule@ATL@@QAGJPB_WHPAU_ATL_REGMAP_ENTRY@2@@Z 10009c9f f i SigCap.obj
 0001:00008e70       ?VTFromRegType@CRegParser@ATL@@KAHPB_WAAG@Z 10009e70 f i SigCap.obj
 0001:00008edd       ?WindowProc@?$CWindowImplBaseT@VCWindow@ATL@@V?$CWinTraits@$0FGAAAAAA@$0A@@2@@ATL@@SGJPAUHWND__@@IIJ@Z 10009edd f i SigCap.obj
 0001:00008fcf       ?WriteToStream@CComBSTR@ATL@@QAEJPAUIStream@@@Z 10009fcf f i SigCap.obj
 0001:00009031       ?WriteToStream@CComVariant@ATL@@QAEJPAUIStream@@@Z 1000a031 f i SigCap.obj
 0001:000091ab       ?WriteToStream@CComVariant@ATL@@QAEJPAUIStream@@G@Z 1000a1ab f i SigCap.obj
 0001:00009214       ?_AtlInitialConstruct@?$CComObjectRootEx@VCComMultiThreadModel@ATL@@@ATL@@QAEJXZ 1000a214 f i SigCap.obj
 0001:00009229       ?_AtlVerifyStackAvailable@_ATL_SAFE_ALLOCA_IMPL@ATL@@YA_NK@Z 1000a229 f i SigCap.obj
 0001:000092a7       ?atlCreate@?$CWindowImpl@VCOPOSSigCap@@VCWindow@ATL@@V?$CWinTraits@$0FGAAAAAA@$0A@@3@@ATL@@QAEPAUHWND__@@PAU3@V_U_RECT@2@PB_WKKV_U_MENUorID@2@PAX@Z 1000a2a7 f i SigCap.obj
 0001:000092eb       ?atlCreate@?$CWindowImplBaseT@VCWindow@ATL@@V?$CWinTraits@$0FGAAAAAA@$0A@@2@@ATL@@QAEPAUHWND__@@PAU3@V_U_RECT@2@PB_WKKV_U_MENUorID@2@GPAX@Z 1000a2eb f i SigCap.obj
 0001:00009387       ?copy@?$_Copy@UtagCONNECTDATA@@@ATL@@SAJPAUtagCONNECTDATA@@PBU3@@Z 1000a387 f i SigCap.obj
 0001:000093bd       ?copy@?$_CopyInterface@UIConnectionPoint@@@ATL@@SAJPAPAUIConnectionPoint@@PBQAU3@@Z 1000a3bd f i SigCap.obj
 0001:000093eb       ?memcpy_s@Checked@ATL@@YAXPAXIPBXI@Z 1000a3eb f i SigCap.obj
 0001:0000940a       ?ocscpy_s@@YA_NPA_WIPB_W@Z 1000a40a f i SigCap.obj
 0001:00009454       ?wcscpy_s@Checked@ATL@@YAXPA_WIPB_W@Z 1000a454 f i SigCap.obj
 0001:00009470       _DllCanUnloadNow@0         1000a470 f   SigCap.obj
 0001:0000947c       _DllGetClassObject@12      1000a47c f   SigCap.obj
 0001:0000948a       _DllMain@12                1000a48a f   SigCap.obj
 0001:000094cc       _DllRegisterServer@0       1000a4cc f   SigCap.obj
 0001:000094db       _DllUnregisterServer@0     1000a4db f   SigCap.obj
 0001:000094ea       _InlineIsEqualGUID         1000a4ea f i SigCap.obj
 0001:0000951a       ___local_stdio_printf_options 1000a51a f i SigCap.obj
 0001:00009520       __vswprintf_s_l            1000a520 f i SigCap.obj
 0001:000095cd       _swprintf_s                1000a5cd f i SigCap.obj
 0001:000095e9       ??0?$CComControl@VCOPOSSigCap@@V?$CWindowImpl@VCOPOSSigCap@@VCWindow@ATL@@V?$CWinTraits@$0FGAAAAAA@$0A@@3@@ATL@@@ATL@@QAE@XZ 1000a5e9 f i SigCapImpl.obj
 0001:00009610       ??0?$CProxy_IOPOSEvents@VCOPOSSigCap@@@@QAE@XZ 1000a610 f i SigCapImpl.obj
 0001:00009630       ??0CComControlBase@ATL@@QAE@AAPAUHWND__@@@Z 1000a630 f i SigCapImpl.obj
 0001:00009680       ??0COPOSSigCap@@QAE@XZ     1000a680 f   SigCapImpl.obj
 0001:000096b6       ??1?$CComControl@VCOPOSSigCap@@V?$CWindowImpl@VCOPOSSigCap@@VCWindow@ATL@@V?$CWinTraits@$0FGAAAAAA@$0A@@3@@ATL@@@ATL@@UAE@XZ 1000a6b6 f i SigCapImpl.obj
 0001:000096cf       ??1?$IConnectionPointImpl@VCOPOSSigCap@@$1?DIID__IOPOSSigCapEvents@@3U_GUID@@BVCComDynamicUnkArray@ATL@@@ATL@@QAE@XZ 1000a6cf f i SigCapImpl.obj
 0001:000096cf       ??1?$IConnectionPointImpl@VCOPOSSigCap@@$1?IID_IPropertyNotifySink@@3U_GUID@@BVCComDynamicUnkArray@ATL@@@ATL@@QAE@XZ 1000a6cf f i SigCapImpl.obj
 0001:0000970c       ??1CComControlBase@ATL@@UAE@XZ 1000a70c f i SigCapImpl.obj
 0001:0000976f       ??1COPOSSigCap@@UAE@XZ     1000a76f f   SigCapImpl.obj
 0001:000097b7       ?BeginCapture@COPOSSigCap@@UAGJPA_WPAJ@Z 1000a7b7 f   SigCapImpl.obj
 0001:0000980e       ?CheckHealth@COPOSSigCap@@UAGJJPAJ@Z 1000a80e f   SigCapImpl.obj
 0001:0000985d       ?ClaimDevice@COPOSSigCap@@UAGJJPAJ@Z 1000a85d f   SigCapImpl.obj
 0001:000098d2       ?ClearInput@COPOSSigCap@@UAGJPAJ@Z 1000a8d2 f   SigCapImpl.obj
 0001:000098ed       ?ClearInputProperties@COPOSSigCap@@UAGJPAJ@Z 1000a8ed f   SigCapImpl.obj
 0001:00009908       ?Close@COPOSSigCap@@UAGJPAJ@Z 1000a908 f   SigCapImpl.obj
 0001:00009976       ?CompareFirmwareVersion@COPOSSigCap@@UAGJPA_WPAJ1@Z 1000a976 f   SigCapImpl.obj
 0001:000099f6       ?DirectIO@COPOSSigCap@@UAGJJPAJPAPA_W0@Z 1000a9f6 f   SigCapImpl.obj
 0001:00009aa4       ?DoInvoke@COPOSSigCap@@IAEJJPAVOposVariant@@IHPAJ_N@Z 1000aaa4 f   SigCapImpl.obj
 0001:00009b80       ?EndCapture@COPOSSigCap@@UAGJPAJ@Z 1000ab80 f   SigCapImpl.obj
 0001:00009b9b       ?EventClose@COPOSSigCap@@IAEXXZ 1000ab9b f i SigCapImpl.obj
 0001:00009bce       ?EventInit@COPOSSigCap@@IAEJXZ 1000abce f i SigCapImpl.obj
 0001:00009c9a       ?EventUninit@COPOSSigCap@@IAEXXZ 1000ac9a f i SigCapImpl.obj
 0001:00009cec       ?EventWindowProc@COPOSSigCap@@IAGJIIJ@Z 1000acec f i SigCapImpl.obj
 0001:00009dc0       ?FinalConstruct@COPOSSigCap@@QAEJXZ 1000adc0 f   SigCapImpl.obj
 0001:00009df9       ?FireEventCleanup@COPOSSigCap@@IAEXXZ 1000adf9 f i SigCapImpl.obj
 0001:00009e0f       ?FireEventSetup@COPOSSigCap@@IAE_NXZ 1000ae0f f i SigCapImpl.obj
 0001:00009e43       ?FreezeEvents@COPOSSigCap@@MAGJH@Z 1000ae43 f   SigCapImpl.obj
 0001:00009ea3       ?GetOposProp@COPOSSigCap@@IAEJJPAFJ@Z 1000aea3 f   SigCapImpl.obj
 0001:00009ec6       ?GetOposProp@COPOSSigCap@@IAEJJPAJJ@Z 1000aec6 f   SigCapImpl.obj
 0001:00009f95       ?GetOposProp@COPOSSigCap@@IAEJJPAPA_WJ@Z 1000af95 f   SigCapImpl.obj
 0001:0000a071       ?OnDraw@COPOSSigCap@@MAEJAAUATL_DRAWINFO@@@Z 1000b071 f   SigCapImpl.obj
 0001:0000a111       ?Open@COPOSSigCap@@UAGJPA_WPAJ@Z 1000b111 f   SigCapImpl.obj
 0001:0000a954       ?ReleaseDevice@COPOSSigCap@@UAGJPAJ@Z 1000b954 f   SigCapImpl.obj
 0001:0000a9a3       ?ResetStatistics@COPOSSigCap@@UAGJPA_WPAJ@Z 1000b9a3 f   SigCapImpl.obj
 0001:0000a9fa       ?RetrieveStatistics@COPOSSigCap@@UAGJPAPA_WPAJ@Z 1000b9fa f   SigCapImpl.obj
 0001:0000aa51       ?SOProcessID@COPOSSigCap@@UAGJPAJ@Z 1000ba51 f   SigCapImpl.obj
 0001:0000aa65       ?SetCOFreezeEvents@COPOSSigCap@@IAEXF@Z 1000ba65 f   SigCapImpl.obj
 0001:0000ab05       ?SetOposProp@COPOSSigCap@@IAEJJJJ@Z 1000bb05 f   SigCapImpl.obj
 0001:0000abfc       ?UpdateFirmware@COPOSSigCap@@UAGJPA_WPAJ@Z 1000bbfc f   SigCapImpl.obj
 0001:0000ac53       ?UpdateStatistics@COPOSSigCap@@UAGJPA_WPAJ@Z 1000bc53 f   SigCapImpl.obj
 0001:0000acaa       ?get_AutoDisable@COPOSSigCap@@UAGJPAF@Z 1000bcaa f   SigCapImpl.obj
 0001:0000acc0       ?get_BinaryConversion@COPOSSigCap@@UAGJPAJ@Z 1000bcc0 f   SigCapImpl.obj
 0001:0000acd6       ?get_CapCompareFirmwareVersion@COPOSSigCap@@UAGJPAF@Z 1000bcd6 f   SigCapImpl.obj
 0001:0000acef       ?get_CapDisplay@COPOSSigCap@@UAGJPAF@Z 1000bcef f   SigCapImpl.obj
 0001:0000ad08       ?get_CapPowerReporting@COPOSSigCap@@UAGJPAJ@Z 1000bd08 f   SigCapImpl.obj
 0001:0000ad21       ?get_CapRealTimeData@COPOSSigCap@@UAGJPAF@Z 1000bd21 f   SigCapImpl.obj
 0001:0000ad3a       ?get_CapStatisticsReporting@COPOSSigCap@@UAGJPAF@Z 1000bd3a f   SigCapImpl.obj
 0001:0000ad53       ?get_CapUpdateFirmware@COPOSSigCap@@UAGJPAF@Z 1000bd53 f   SigCapImpl.obj
 0001:0000ad6c       ?get_CapUpdateStatistics@COPOSSigCap@@UAGJPAF@Z 1000bd6c f   SigCapImpl.obj
 0001:0000ad85       ?get_CapUserTerminated@COPOSSigCap@@UAGJPAF@Z 1000bd85 f   SigCapImpl.obj
 0001:0000ad9e       ?get_CheckHealthText@COPOSSigCap@@UAGJPAPA_W@Z 1000bd9e f   SigCapImpl.obj
 0001:0000adb7       ?get_Claimed@COPOSSigCap@@UAGJPAF@Z 1000bdb7 f   SigCapImpl.obj
 0001:0000adcd       ?get_ControlObjectDescription@COPOSSigCap@@UAGJPAPA_W@Z 1000bdcd f   SigCapImpl.obj
 0001:0000ae1b       ?get_ControlObjectVersion@COPOSSigCap@@UAGJPAJ@Z 1000be1b f   SigCapImpl.obj
 0001:0000ae2e       ?get_DataCount@COPOSSigCap@@UAGJPAJ@Z 1000be2e f   SigCapImpl.obj
 0001:0000ae44       ?get_DataEventEnabled@COPOSSigCap@@UAGJPAF@Z 1000be44 f   SigCapImpl.obj
 0001:0000ae5a       ?get_DeviceDescription@COPOSSigCap@@UAGJPAPA_W@Z 1000be5a f   SigCapImpl.obj
 0001:0000ae73       ?get_DeviceEnabled@COPOSSigCap@@UAGJPAF@Z 1000be73 f   SigCapImpl.obj
 0001:0000ae89       ?get_DeviceName@COPOSSigCap@@UAGJPAPA_W@Z 1000be89 f   SigCapImpl.obj
 0001:0000aea2       ?get_FreezeEvents@COPOSSigCap@@UAGJPAF@Z 1000bea2 f   SigCapImpl.obj
 0001:0000aeb8       ?get_MaximumX@COPOSSigCap@@UAGJPAJ@Z 1000beb8 f   SigCapImpl.obj
 0001:0000aed1       ?get_MaximumY@COPOSSigCap@@UAGJPAJ@Z 1000bed1 f   SigCapImpl.obj
 0001:0000aeea       ?get_OpenResult@COPOSSigCap@@UAGJPAJ@Z 1000beea f   SigCapImpl.obj
 0001:0000af01       ?get_PointArray@COPOSSigCap@@UAGJPAPA_W@Z 1000bf01 f   SigCapImpl.obj
 0001:0000af1a       ?get_PowerNotify@COPOSSigCap@@UAGJPAJ@Z 1000bf1a f   SigCapImpl.obj
 0001:0000af30       ?get_PowerState@COPOSSigCap@@UAGJPAJ@Z 1000bf30 f   SigCapImpl.obj
 0001:0000af46       ?get_RawData@COPOSSigCap@@UAGJPAPA_W@Z 1000bf46 f   SigCapImpl.obj
 0001:0000af5f       ?get_RealTimeDataEnabled@COPOSSigCap@@UAGJPAF@Z 1000bf5f f   SigCapImpl.obj
 0001:0000af78       ?get_ResultCode@COPOSSigCap@@UAGJPAJ@Z 1000bf78 f   SigCapImpl.obj
 0001:0000afb6       ?get_ResultCodeExtended@COPOSSigCap@@UAGJPAJ@Z 1000bfb6 f   SigCapImpl.obj
 0001:0000afcc       ?get_ServiceObjectDescription@COPOSSigCap@@UAGJPAPA_W@Z 1000bfcc f   SigCapImpl.obj
 0001:0000afe5       ?get_ServiceObjectVersion@COPOSSigCap@@UAGJPAJ@Z 1000bfe5 f   SigCapImpl.obj
 0001:0000affb       ?get_State@COPOSSigCap@@UAGJPAJ@Z 1000bffb f   SigCapImpl.obj
 0001:0000b027       ?get_TotalPoints@COPOSSigCap@@UAGJPAJ@Z 1000c027 f   SigCapImpl.obj
 0001:0000b040       ?put_AutoDisable@COPOSSigCap@@UAGJF@Z 1000c040 f   SigCapImpl.obj
 0001:0000b05d       ?put_BinaryConversion@COPOSSigCap@@UAGJJ@Z 1000c05d f   SigCapImpl.obj
 0001:0000b073       ?put_DataEventEnabled@COPOSSigCap@@UAGJF@Z 1000c073 f   SigCapImpl.obj
 0001:0000b090       ?put_DeviceEnabled@COPOSSigCap@@UAGJF@Z 1000c090 f   SigCapImpl.obj
 0001:0000b0ad       ?put_FreezeEvents@COPOSSigCap@@UAGJF@Z 1000c0ad f   SigCapImpl.obj
 0001:0000b0f9       ?put_PowerNotify@COPOSSigCap@@UAGJJ@Z 1000c0f9 f   SigCapImpl.obj
 0001:0000b10f       ?put_RealTimeDataEnabled@COPOSSigCap@@UAGJF@Z 1000c10f f   SigCapImpl.obj
 0001:0000b12f       ?s_EventWindowProc@COPOSSigCap@@KGJPAUHWND__@@IIJ@Z 1000c12f f i SigCapImpl.obj
 0001:0000b181       ??_U@YAPAXI@Z              1000c181 f   LIBCMT:new_array.obj
 0001:0000b18a       ??3@YAXPAXI@Z              1000c18a f   LIBCMT:delete_scalar_size.obj
 0001:0000b198       ??_V@YAXPAX@Z              1000c198 f   LIBCMT:delete_array.obj
 0001:0000b19d       ??_V@YAXPAXI@Z             1000c19d f   LIBCMT:delete_array_size.obj
 0001:0000b1ef       ___scrt_acquire_startup_lock 1000c1ef f   LIBCMT:utility.obj
 0001:0000b221       ___scrt_dllmain_after_initialize_c 1000c221 f   LIBCMT:utility.obj
 0001:0000b24c       ___scrt_dllmain_before_initialize_c 1000c24c f   LIBCMT:utility.obj
 0001:0000b25a       ___scrt_dllmain_crt_thread_attach 1000c25a f   LIBCMT:utility.obj
 0001:0000b279       ___scrt_dllmain_crt_thread_detach 1000c279 f   LIBCMT:utility.obj
 0001:0000b286       ___scrt_dllmain_exception_filter 1000c286 f   LIBCMT:utility.obj
 0001:0000b2ba       ___scrt_dllmain_uninitialize_c 1000c2ba f   LIBCMT:utility.obj
 0001:0000b2dd       ___scrt_dllmain_uninitialize_critical 1000c2dd f   LIBCMT:utility.obj
 0001:0000b2ea       ___scrt_initialize_crt     1000c2ea f   LIBCMT:utility.obj
 0001:0000b323       ___scrt_initialize_onexit_tables 1000c323 f   LIBCMT:utility.obj
 0001:0000b3aa       ___scrt_is_nonwritable_in_current_image 1000c3aa f   LIBCMT:utility.obj
 0001:0000b43e       ___scrt_release_startup_lock 1000c43e f   LIBCMT:utility.obj
 0001:0000b45b       ___scrt_uninitialize_crt   1000c45b f   LIBCMT:utility.obj
 0001:0000b483       __onexit                   1000c483 f   LIBCMT:utility.obj
 0001:0000b4b0       _atexit                    1000c4b0 f   LIBCMT:utility.obj
 0001:0000b4c5       ??3@YAXPAX@Z               1000c4c5 f   LIBCMT:delete_scalar.obj
 0001:0000b58f       __Init_thread_footer       1000c58f f   LIBCMT:thread_safe_statics.obj
 0001:0000b5d9       __Init_thread_header       1000c5d9 f   LIBCMT:thread_safe_statics.obj
 0001:0000b62b       __Init_thread_notify       1000c62b f   LIBCMT:thread_safe_statics.obj
 0001:0000b661       __Init_thread_wait         1000c661 f   LIBCMT:thread_safe_statics.obj
 0001:0000b6af       ___raise_securityfailure   1000c6af f   LIBCMT:gs_report.obj
 0001:0000b6d7       ___report_gsfailure        1000c6d7 f   LIBCMT:gs_report.obj
 0001:0000b7d0       ___report_rangecheckfailure 1000c7d0 f   LIBCMT:gs_report.obj
 0001:0000b7dc       ___report_securityfailure  1000c7dc f   LIBCMT:gs_report.obj
 0001:0000b8aa       ??2@YAPAXIABUnothrow_t@std@@@Z 1000c8aa f   LIBCMT:new_scalar_nothrow.obj
 0001:0000b8ff       ??_U@YAPAXIABUnothrow_t@std@@@Z 1000c8ff f   LIBCMT:new_array_nothrow.obj
 0001:0000b908       @__security_check_cookie@4 1000c908 f   LIBCMT:secchk.obj
 0001:0000b920       __SEH_prolog4_GS           1000c920 f   LIBCMT:sehprolg4gs.obj
 0001:0000b967       __SEH_epilog4_GS           1000c967 f   LIBCMT:sehprolg4gs.obj
 0001:0000b980       __alloca_probe_16          1000c980 f   LIBCMT:alloca16.obj
 0001:0000b996       __alloca_probe_8           1000c996     LIBCMT:alloca16.obj
 0001:0000b9b0       __alloca_probe             1000c9b0 f   LIBCMT:chkstk.obj
 0001:0000b9b0       __chkstk                   1000c9b0 f   LIBCMT:chkstk.obj
 0001:0000bd1d       __DllMainCRTStartup@12     1000cd1d f   LIBCMT:dll_dllmain.obj
 0001:0000bd40       ??2@YAPAXI@Z               1000cd40 f   LIBCMT:new_scalar.obj
 0001:0000bd70       ___isa_available_init      1000cd70 f   LIBCMT:cpu_disp.obj
 0001:0000bf40       ___scrt_is_ucrt_dll_in_use 1000cf40 f   LIBCMT:ucrt_detection.obj
 0001:0000bf4c       ___scrt_fastfail           1000cf4c f   LIBCMT:utility_desktop.obj
 0001:0000c066       __crt_debugger_hook        1000d066 f   LIBCMT:utility_desktop.obj
 0001:0000c070       __SEH_prolog4              1000d070 f   LIBCMT:sehprolg4.obj
 0001:0000c0b4       __SEH_epilog4              1000d0b4 f   LIBCMT:sehprolg4.obj
 0001:0000c0c8       @_guard_check_icall_nop@4  1000d0c8 f i LIBCMT:guard_support.obj
 0001:0000c118       ___security_init_cookie    1000d118 f   LIBCMT:gs_support.obj
 0001:0000c163       ?__scrt_initialize_type_info@@YAXXZ 1000d163 f   LIBCMT:tncleanup.obj
 0001:0000c16f       ?__scrt_uninitialize_type_info@@YAXXZ 1000d16f f   LIBCMT:tncleanup.obj
 0001:0000c17b       ___local_stdio_scanf_options 1000d17b f i LIBCMT:default_local_stdio_options.obj
 0001:0000c181       ___scrt_initialize_default_local_stdio_options 1000d181 f   LIBCMT:default_local_stdio_options.obj
 0001:0000c19e       ___scrt_get_dyn_tls_init_callback 1000d19e f   LIBCMT:dyn_tls_init.obj
 0001:0000c1a4       __RTC_Initialize           1000d1a4 f   LIBCMT:initsect.obj
 0001:0000c1d0       __RTC_Terminate            1000d1d0 f   LIBCMT:initsect.obj
 0001:0000c1fc       ??0bad_alloc@std@@QAE@ABV01@@Z 1000d1fc f i LIBCMT:throw_bad_alloc.obj
 0001:0000c217       ??0bad_alloc@std@@QAE@XZ   1000d217 f i LIBCMT:throw_bad_alloc.obj
 0001:0000c22f       ??0bad_array_new_length@std@@QAE@ABV01@@Z 1000d22f f i LIBCMT:throw_bad_alloc.obj
 0001:0000c24a       ??0bad_array_new_length@std@@QAE@XZ 1000d24a f i LIBCMT:throw_bad_alloc.obj
 0001:0000c262       ??0exception@std@@QAE@ABV01@@Z 1000d262 f i LIBCMT:throw_bad_alloc.obj
 0001:0000c28e       ??1bad_exception@std@@UAE@XZ 1000d28e f i libvcruntime:frame.obj
 0001:0000c28e       ??1bad_array_new_length@std@@UAE@XZ 1000d28e f i LIBCMT:throw_bad_alloc.obj
 0001:0000c28e       ??1bad_alloc@std@@UAE@XZ   1000d28e f i LIBCMT:throw_bad_alloc.obj
 0001:0000c29f       ??_Ebad_exception@std@@UAEPAXI@Z 1000d29f f i libvcruntime:frame.obj
 0001:0000c29f       ??_Eexception@std@@UAEPAXI@Z 1000d29f f i LIBCMT:throw_bad_alloc.obj
 0001:0000c29f       ??_Gexception@std@@UAEPAXI@Z 1000d29f f i LIBCMT:throw_bad_alloc.obj
 0001:0000c29f       ??_Gbad_exception@std@@UAEPAXI@Z 1000d29f f i libvcruntime:frame.obj
 0001:0000c29f       ??_Ebad_array_new_length@std@@UAEPAXI@Z 1000d29f f i LIBCMT:throw_bad_alloc.obj
 0001:0000c29f       ??_Ebad_alloc@std@@UAEPAXI@Z 1000d29f f i LIBCMT:throw_bad_alloc.obj
 0001:0000c29f       ??_Gbad_array_new_length@std@@UAEPAXI@Z 1000d29f f i LIBCMT:throw_bad_alloc.obj
 0001:0000c29f       ??_Gbad_alloc@std@@UAEPAXI@Z 1000d29f f i LIBCMT:throw_bad_alloc.obj
 0001:0000c2cc       ?__scrt_throw_std_bad_alloc@@YAXXZ 1000d2cc f   LIBCMT:throw_bad_alloc.obj
 0001:0000c2e9       ?__scrt_throw_std_bad_array_new_length@@YAXXZ 1000d2e9 f   LIBCMT:throw_bad_alloc.obj
 0001:0000c306       ?what@exception@std@@UBEPBDXZ 1000d306 f i LIBCMT:throw_bad_alloc.obj
 0001:0000c313       ??_Gtype_info@@UAEPAXI@Z   1000d313 f i LIBCMT:std_type_info_static.obj
 0001:0000c313       ??_Etype_info@@UAEPAXI@Z   1000d313 f i LIBCMT:std_type_info_static.obj
 0001:0000c336       ??0CAtlBaseModule@ATL@@QAE@XZ 1000d336 f   atls:atlbase.obj
 0001:0000c389       ??0_ATL_BASE_MODULE70@ATL@@QAE@XZ 1000d389 f i atls:atlbase.obj
 0001:0000c3ac       ??1CAtlBaseModule@ATL@@QAE@XZ 1000d3ac f   atls:atlbase.obj
 0001:0000c499       ?Init@_stdcallthunk@ATL@@QAEHKPAX@Z 1000d499 f i atls:atlthunk.obj
 0001:0000c4ce       ?__AllocStdCallThunk_cmn@@YAPAXXZ 1000d4ce f   atls:atlthunk.obj
 0001:0000c594       ?__FreeStdCallThunk_cmn@@YAXPAX@Z 1000d594 f   atls:atlthunk.obj
 0001:0000c62f       _AtlThunk_AllocateData@0   1000d62f f   atls:atlthunk.obj
 0001:0000c694       _AtlThunk_DataToCode@4     1000d694 f   atls:atlthunk.obj
 0001:0000c6db       _AtlThunk_FreeData@4       1000d6db f   atls:atlthunk.obj
 0001:0000c731       _AtlThunk_InitData@12      1000d731 f   atls:atlthunk.obj
 0001:0000c780       __get_purecall_handler     1000d780 f   libvcruntime:purevirt.obj
 0001:0000c786       __purecall                 1000d786 f   libvcruntime:purevirt.obj
 0001:0000c7a2       _wcsstr                    1000d7a2 f   libvcruntime:wcsstr.obj
 0001:0000ca50       __except_handler4          1000da50 f   libvcruntime:chandler4.obj
 0001:0000cbae       _memcmp                    1000dbae f   libvcruntime:memcmp.obj
 0001:0000dac0       _memcpy                    1000eac0 f   libvcruntime:memcpy.obj
 0001:0000e040       _memset                    1000f040 f   libvcruntime:memset.obj
 0001:0000e19a       ___vcrt_initialize         1000f19a f   libvcruntime:initialization.obj
 0001:0000e1b9       ___vcrt_thread_attach      1000f1b9 f   libvcruntime:initialization.obj
 0001:0000e1c4       ___vcrt_thread_detach      1000f1c4 f   libvcruntime:initialization.obj
 0001:0000e1cf       ___vcrt_uninitialize       1000f1cf f   libvcruntime:initialization.obj
 0001:0000e1e6       ___vcrt_uninitialize_critical 1000f1e6 f   libvcruntime:initialization.obj
 0001:0000e1ee       ?GetRangeOfTrysToCheck@__FrameHandler3@@SA?AU?$pair@Viterator@TryBlockMap@__FrameHandler3@@V123@@std@@AAVTryBlockMap@1@HPAXPBU_s_FuncInfo@@H@Z 1000f1ee f   libvcruntime:trnsctrl.obj
 0001:0000e25e       ?_CallCatchBlock2@@YAPAXPAUEHRegistrationNode@@PBU_s_FuncInfo@@PAXHK@Z 1000f25e f   libvcruntime:trnsctrl.obj
 0001:0000e2bc       ?_CallSETranslator@@YAHPAUEHExceptionRecord@@PAUEHRegistrationNode@@PAX2PBU_s_FuncInfo@@H1@Z 1000f2bc f   libvcruntime:trnsctrl.obj
 0001:0000e3a2       ?_JumpToContinuation@@YGXPAXPAUEHRegistrationNode@@@Z 1000f3a2 f   libvcruntime:trnsctrl.obj
 0001:0000e3d2       ?_UnwindNestedFrames@@YGXPAUEHRegistrationNode@@PAUEHExceptionRecord@@@Z 1000f3d2 f   libvcruntime:trnsctrl.obj
 0001:0000e425       __CatchGuardHandler        1000f425 f   libvcruntime:trnsctrl.obj
 0001:0000e456       __CreateFrameInfo          1000f456 f   libvcruntime:trnsctrl.obj
 0001:0000e47a       __FindAndUnlinkFrame       1000f47a f   libvcruntime:trnsctrl.obj
 0001:0000e4c2       __TranslatorGuardHandler   1000f4c2 f   libvcruntime:trnsctrl.obj
 0001:0000e55f       ___CxxFrameHandler3        1000f55f f   libvcruntime:trnsctrl.obj
 0001:0000e595       ___DestructExceptionObject 1000f595 f   libvcruntime:ehhelpers.obj
 0001:0000e636       ?_CallMemberFunction0@@YGXQAX0@Z 1000f636 f i libvcruntime:ehhelpers.obj
 0001:0000e69b       __IsExceptionObjectToBeDestroyed 1000f69b f   libvcruntime:ehhelpers.obj
 0001:0000e6c1       ___AdjustPointer           1000f6c1 f   libvcruntime:ehhelpers.obj
 0001:0000e6e6       ___FrameUnwindFilter       1000f6e6 f   libvcruntime:ehhelpers.obj
 0001:0000e73c       ___std_type_info_compare   1000f73c f   libvcruntime:std_type_info.obj
 0001:0000e778       ___std_type_info_destroy_list 1000f778 f   libvcruntime:std_type_info.obj
 0001:0000e79b       ___std_exception_copy      1000f79b f   libvcruntime:std_exception.obj
 0001:0000e7fe       ___std_exception_destroy   1000f7fe f   libvcruntime:std_exception.obj
 0001:0000e81d       __CxxThrowException@8      1000f81d f   libvcruntime:throw.obj
 0001:0000e890       _memmove                   1000f890 f   libvcruntime:memmove.obj
 0001:0000ee10       __local_unwind4            1000fe10 f   libvcruntime:exsup4.obj
 0001:0000eee4       __seh_longjmp_unwind4@4    1000fee4 f   libvcruntime:exsup4.obj
 0001:0000ef0c       @_EH4_CallFilterFunc@8     1000ff0c f   libvcruntime:exsup4.obj
 0001:0000ef24       @_EH4_TransferToHandler@8  1000ff24 f   libvcruntime:exsup4.obj
 0001:0000ef40       @_EH4_GlobalUnwind2@8      1000ff40 f   libvcruntime:exsup4.obj
 0001:0000ef5c       @_EH4_LocalUnwind@16       1000ff5c f   libvcruntime:exsup4.obj
 0001:0000ef73       ___except_validate_context_record 1000ff73 f   libvcruntime:jbcxrval.obj
 0001:0000efa3       ___except_validate_jump_buffer 1000ffa3 f   libvcruntime:jbcxrval.obj
 0001:0000efd0       ___vcrt_freefls@4          1000ffd0 f   libvcruntime:per_thread_data.obj
 0001:0000efec       ___vcrt_freeptd            1000ffec f   libvcruntime:per_thread_data.obj
 0001:0000f022       ___vcrt_getptd             10010022 f   libvcruntime:per_thread_data.obj
 0001:0000f030       ___vcrt_getptd_noexit      10010030 f   libvcruntime:per_thread_data.obj
 0001:0000f0c2       ___vcrt_initialize_ptd     100100c2 f   libvcruntime:per_thread_data.obj
 0001:0000f0f5       ___vcrt_uninitialize_ptd   100100f5 f   libvcruntime:per_thread_data.obj
 0001:0000f110       ___vcrt_initialize_locks   10010110 f   libvcruntime:locks.obj
 0001:0000f14c       ___vcrt_uninitialize_locks 1001014c f   libvcruntime:locks.obj
 0001:0000f8be       ??$TypeMatchHelper@V__FrameHandler3@@@@YAHPBU_s_HandlerType@@PBU_s_CatchableType@@PBU_s_ThrowInfo@@@Z 100108be f i libvcruntime:frame.obj
 0001:0000f94c       ??$__InternalCxxFrameHandler@V__FrameHandler3@@@@YA?AW4_EXCEPTION_DISPOSITION@@PAUEHExceptionRecord@@PAUEHRegistrationNode@@PAU_CONTEXT@@PAXPBU_s_FuncInfo@@H1E@Z 1001094c f i libvcruntime:frame.obj
 0001:0000fa4e       ??0bad_exception@std@@QAE@ABV01@@Z 10010a4e f i libvcruntime:frame.obj
 0001:0000fa69       ??0bad_exception@std@@QAE@XZ 10010a69 f i libvcruntime:frame.obj
 0001:0000fa81       ??8type_info@@QBE_NABV0@@Z 10010a81 f i libvcruntime:frame.obj
 0001:0000fced       ?FrameUnwindToEmptyState@__FrameHandler3@@SAXPAUEHRegistrationNode@@PAXPBU_s_FuncInfo@@@Z 10010ced f   libvcruntime:frame.obj
 0001:0000fd05       ?FrameUnwindToState@__FrameHandler3@@SAXPAUEHRegistrationNode@@PAXPBU_s_FuncInfo@@H@Z 10010d05 f   libvcruntime:frame.obj
 0001:0000fe87       ?_CallMemberFunction1@@YGXQAX00@Z 10010e87 f i libvcruntime:frame.obj
 0001:0000fe97       ?_CallMemberFunction2@@YGXQAX00H@Z 10010e97 f i libvcruntime:frame.obj
 0001:0000feaa       ?getESTypes@__FrameHandler3@@SAPBU_s_ESTypeList@@PBU_s_FuncInfo@@@Z 10010eaa f i libvcruntime:frame.obj
 0001:0000fec0       __CallSettingFrame@12      10010ec0 f   libvcruntime:lowhelpr.obj
 0001:0000fee7       __NLG_Return               10010ee7     libvcruntime:lowhelpr.obj
 0001:0000ff10       __global_unwind2           10010f10 f   libvcruntime:exsup.obj
 0001:0000ff76       __local_unwind2            10010f76 f   libvcruntime:exsup.obj
 0001:0000fffa       __abnormal_termination     10010ffa f   libvcruntime:exsup.obj
 0001:00010020       __NLG_Notify1              10011020 f   libvcruntime:exsup.obj
 0001:0001002c       __NLG_Notify               1001102c f   libvcruntime:exsup.obj
 0001:00010043       __NLG_Dispatch             10011043     libvcruntime:exsup.obj
 0001:00010043       __NLG_Dispatch2            10011043     libvcruntime:exsup.obj
 0001:0001004b       __NLG_Call                 1001104b f   libvcruntime:exsup.obj
 0001:0001004d       __NLG_Return2              1001104d     libvcruntime:exsup.obj
 0001:00010131       ___vcrt_FlsAlloc           10011131 f   libvcruntime:winapi_downlevel.obj
 0001:0001016c       ___vcrt_FlsFree            1001116c f   libvcruntime:winapi_downlevel.obj
 0001:000101a7       ___vcrt_FlsGetValue        100111a7 f   libvcruntime:winapi_downlevel.obj
 0001:000101e2       ___vcrt_FlsSetValue        100111e2 f   libvcruntime:winapi_downlevel.obj
 0001:00010220       ___vcrt_InitializeCriticalSectionEx 10011220 f   libvcruntime:winapi_downlevel.obj
 0001:00010267       _unexpected                10011267 f   libvcruntime:unexpected.obj
 0001:00010284       ?GetCurrentState@__FrameHandler3@@SAHPAUEHRegistrationNode@@PAXPBU_s_FuncInfo@@@Z 10011284 f   libvcruntime:ehstate.obj
 0001:000102a1       ?SetState@__FrameHandler3@@SAXPAUEHRegistrationNode@@PBU_s_FuncInfo@@H@Z 100112a1 f   libvcruntime:ehstate.obj
 0001:000102af       _free                      100112af f   libucrt:free.obj
 0001:000102ca       ___acrt_call_reportfault   100112ca f   libucrt:invalid_parameter.obj
 0001:00010403       ___acrt_initialize_invalid_parameter_handler 10011403 f   libucrt:invalid_parameter.obj
 0001:00010412       __invalid_parameter        10011412 f   libucrt:invalid_parameter.obj
 0001:00010476       __invalid_parameter_noinfo 10011476 f   libucrt:invalid_parameter.obj
 0001:00010486       __invoke_watson            10011486 f   libucrt:invalid_parameter.obj
 0001:000104ba       ___acrt_errno_from_os_error 100114ba f   libucrt:errno.obj
 0001:000104fd       ___acrt_errno_map_os_error 100114fd f   libucrt:errno.obj
 0001:00010520       ___doserrno                10011520 f   libucrt:errno.obj
 0001:00010533       __errno                    10011533 f   libucrt:errno.obj
 0001:00010546       _calloc                    10011546 f   libucrt:calloc.obj
 0001:00010551       _malloc                    10011551 f   libucrt:malloc.obj
 0001:0001055c       __recalloc                 1001155c f   libucrt:recalloc.obj
 0001:00010567       __recalloc_base            10011567 f   libucrt:recalloc.obj
 0001:000105d4       __resetstkoflw             100115d4 f   libucrt:resetstk.obj
 0001:00010699       _wcscat_s                  10011699 f   libucrt:wcscat_s.obj
 0001:0001070e       _wcscpy_s                  1001170e f   libucrt:wcscpy_s.obj
 0001:0001083d       _wcsncpy_s                 1001183d f   libucrt:wcsncpy_s.obj
 0001:00010a49       ??$count@D@formatting_buffer@__crt_stdio_output@@QBEIXZ 10011a49 f i libucrt:output.obj
 0001:00010a61       ??$count@_W@formatting_buffer@__crt_stdio_output@@QBEIXZ 10011a61 f i libucrt:output.obj
 0001:00010a7a       ??$ensure_buffer_is_big_enough@D@formatting_buffer@__crt_stdio_output@@QAE_NI@Z 10011a7a f i libucrt:output.obj
 0001:00010af7       ??$ensure_buffer_is_big_enough@_W@formatting_buffer@__crt_stdio_output@@QAE_NI@Z 10011af7 f i libucrt:output.obj
 0001:00010b75       ??$is_wide_character_specifier@_W@__crt_stdio_output@@YA_N_K_WW4length_modifier@0@@Z 10011b75 f i libucrt:output.obj
 0001:00010bc3       ??$scratch_data@D@formatting_buffer@__crt_stdio_output@@QAEPADXZ 10011bc3 f i libucrt:output.obj
 0001:00010be1       ??$type_case_integer_parse_into_buffer@I@?$output_processor@_WV?$string_output_adapter@_W@__crt_stdio_output@@V?$format_validation_base@_WV?$string_output_adapter@_W@__crt_stdio_output@@@2@@__crt_stdio_output@@AAEXII_N@Z 10011be1 f i libucrt:output.obj
 0001:00010c68       ??$type_case_integer_parse_into_buffer@_K@?$output_processor@_WV?$string_output_adapter@_W@__crt_stdio_output@@V?$format_validation_base@_WV?$string_output_adapter@_W@__crt_stdio_output@@@2@@__crt_stdio_output@@AAEX_KI_N@Z 10011c68 f i libucrt:output.obj
 0001:00010d0a       ??$write_multiple_characters@V?$string_output_adapter@_W@__crt_stdio_output@@D@__crt_stdio_output@@YAXABV?$string_output_adapter@_W@0@DHQAH@Z 10011d0a f i libucrt:output.obj
 0001:00010d3b       ??0?$common_data@_W@__crt_stdio_output@@IAE@XZ 10011d3b f i libucrt:output.obj
 0001:00010d85       ??0?$output_adapter_data@_WV?$string_output_adapter@_W@__crt_stdio_output@@@__crt_stdio_output@@IAE@ABV?$string_output_adapter@_W@1@_KQB_WQAU__crt_locale_pointers@@QAD@Z 10011d85 f i libucrt:output.obj
 0001:00010dc1       ??0_LocaleUpdate@@QAE@QAU__crt_locale_pointers@@@Z 10011dc1 f i libucrt:output.obj
 0001:00010e44       ??1formatting_buffer@__crt_stdio_output@@QAE@XZ 10011e44 f i libucrt:output.obj
 0001:00010e5e       ??4?$__crt_unique_heap_ptr@DU__crt_internal_free_policy@@@@QAEAAV0@$$QAV0@@Z 10011e5e f i libucrt:output.obj
 0001:00010e90       ?crop_zeroes@__crt_stdio_output@@YAXPADQAU__crt_locale_pointers@@@Z 10011e90 f i libucrt:output.obj
 0001:00010f11       ?find_next_state@?$output_processor@_WV?$string_output_adapter@_W@__crt_stdio_output@@V?$format_validation_base@_WV?$string_output_adapter@_W@__crt_stdio_output@@@2@@__crt_stdio_output@@ABE?AW4state@2@_WW432@@Z 10011f11 f i libucrt:output.obj
 0001:00010f50       ?force_decimal_point@__crt_stdio_output@@YAXPADQAU__crt_locale_pointers@@@Z 10011f50 f i libucrt:output.obj
 0001:00010fb5       ?parse_int_from_format_string@?$output_processor@_WV?$string_output_adapter@_W@__crt_stdio_output@@V?$format_validation_base@_WV?$string_output_adapter@_W@__crt_stdio_output@@@2@@__crt_stdio_output@@AAE_NQAH@Z 10011fb5 f i libucrt:output.obj
 0001:0001102b       ?process@?$output_processor@_WV?$string_output_adapter@_W@__crt_stdio_output@@V?$format_validation_base@_WV?$string_output_adapter@_W@__crt_stdio_output@@@2@@__crt_stdio_output@@QAEHXZ 1001202b f i libucrt:output.obj
 0001:00011153       ?state_case_flag@?$output_processor@_WV?$string_output_adapter@_W@__crt_stdio_output@@V?$format_validation_base@_WV?$string_output_adapter@_W@__crt_stdio_output@@@2@@__crt_stdio_output@@AAE_NXZ 10012153 f i libucrt:output.obj
 0001:00011190       ?state_case_normal@?$output_processor@_WV?$string_output_adapter@_W@__crt_stdio_output@@V?$format_validation_base@_WV?$string_output_adapter@_W@__crt_stdio_output@@@2@@__crt_stdio_output@@AAE_NXZ 10012190 f i libucrt:output.obj
 0001:000111af       ?state_case_normal_common@?$output_processor@_WV?$string_output_adapter@_W@__crt_stdio_output@@V?$format_validation_base@_WV?$string_output_adapter@_W@__crt_stdio_output@@@2@@__crt_stdio_output@@AAE_NXZ 100121af f i libucrt:output.obj
 0001:000111ca       ?state_case_precision@?$output_processor@_WV?$string_output_adapter@_W@__crt_stdio_output@@V?$format_validation_base@_WV?$string_output_adapter@_W@__crt_stdio_output@@@2@@__crt_stdio_output@@AAE_NXZ 100121ca f i libucrt:output.obj
 0001:000111f1       ?state_case_size@?$output_processor@_WV?$string_output_adapter@_W@__crt_stdio_output@@V?$format_validation_base@_WV?$string_output_adapter@_W@__crt_stdio_output@@@2@@__crt_stdio_output@@AAE_NXZ 100121f1 f i libucrt:output.obj
 0001:00011369       ?state_case_type@?$output_processor@_WV?$string_output_adapter@_W@__crt_stdio_output@@V?$format_validation_base@_WV?$string_output_adapter@_W@__crt_stdio_output@@@2@@__crt_stdio_output@@AAE_NXZ 10012369 f i libucrt:output.obj
 0001:000115c6       ?state_case_width@?$output_processor@_WV?$string_output_adapter@_W@__crt_stdio_output@@V?$format_validation_base@_WV?$string_output_adapter@_W@__crt_stdio_output@@@2@@__crt_stdio_output@@AAE_NXZ 100125c6 f i libucrt:output.obj
 0001:00011600       ?to_integer_size@__crt_stdio_output@@YAIW4length_modifier@1@@Z 10012600 f i libucrt:output.obj
 0001:0001165c       ?type_case_Z@?$output_processor@_WV?$string_output_adapter@_W@__crt_stdio_output@@V?$format_validation_base@_WV?$string_output_adapter@_W@__crt_stdio_output@@@2@@__crt_stdio_output@@AAE_NXZ 1001265c f i libucrt:output.obj
 0001:000116b6       ?type_case_a@?$output_processor@_WV?$string_output_adapter@_W@__crt_stdio_output@@V?$format_validation_base@_WV?$string_output_adapter@_W@__crt_stdio_output@@@2@@__crt_stdio_output@@AAE_NXZ 100126b6 f i libucrt:output.obj
 0001:0001181d       ?type_case_c_tchar@?$output_processor@_WV?$string_output_adapter@_W@__crt_stdio_output@@V?$format_validation_base@_WV?$string_output_adapter@_W@__crt_stdio_output@@@2@@__crt_stdio_output@@AAE_N_W@Z 1001281d f i libucrt:output.obj
 0001:000118b3       ?type_case_integer@?$output_processor@_WV?$string_output_adapter@_W@__crt_stdio_output@@V?$format_validation_base@_WV?$string_output_adapter@_W@__crt_stdio_output@@@2@@__crt_stdio_output@@AAE_NI_N@Z 100128b3 f i libucrt:output.obj
 0001:00011a08       ?type_case_n@?$output_processor@_WV?$string_output_adapter@_W@__crt_stdio_output@@V?$format_validation_base@_WV?$string_output_adapter@_W@__crt_stdio_output@@@2@@__crt_stdio_output@@AAE_NXZ 10012a08 f i libucrt:output.obj
 0001:00011a7c       ?type_case_o@?$output_processor@_WV?$string_output_adapter@_W@__crt_stdio_output@@V?$format_validation_base@_WV?$string_output_adapter@_W@__crt_stdio_output@@@2@@__crt_stdio_output@@AAE_NXZ 10012a7c f i libucrt:output.obj
 0001:00011a9b       ?type_case_p@?$output_processor@_WV?$string_output_adapter@_W@__crt_stdio_output@@V?$format_validation_base@_WV?$string_output_adapter@_W@__crt_stdio_output@@@2@@__crt_stdio_output@@AAE_NXZ 10012a9b f i libucrt:output.obj
 0001:00011ab3       ?type_case_s@?$output_processor@_WV?$string_output_adapter@_W@__crt_stdio_output@@V?$format_validation_base@_WV?$string_output_adapter@_W@__crt_stdio_output@@@2@@__crt_stdio_output@@AAE_NXZ 10012ab3 f i libucrt:output.obj
 0001:00011b26       ?type_case_s_compute_narrow_string_length@?$output_processor@_WV?$string_output_adapter@_W@__crt_stdio_output@@V?$format_validation_base@_WV?$string_output_adapter@_W@__crt_stdio_output@@@2@@__crt_stdio_output@@ABEHH_W@Z 10012b26 f i libucrt:output.obj
 0001:00011b6d       ?validate@?$c_string_character_source@_W@__crt_strtox@@QBE_NXZ 10012b6d f i libucrt:atox.obj
 0001:00011b6d       ?validate@?$string_output_adapter@_W@__crt_stdio_output@@QBE_NXZ 10012b6d f i libucrt:output.obj
 0001:00011b88       ?validate_and_update_state_at_end_of_format_string@?$format_validation_base@_WV?$string_output_adapter@_W@__crt_stdio_output@@@__crt_stdio_output@@IBE_NXZ 10012b88 f i libucrt:output.obj
 0001:00011baa       ?write_character@?$string_output_adapter@_W@__crt_stdio_output@@QBE_N_WQAH@Z 10012baa f i libucrt:output.obj
 0001:00011bef       ?write_stored_string_tchar@?$output_processor@_WV?$string_output_adapter@_W@__crt_stdio_output@@V?$format_validation_base@_WV?$string_output_adapter@_W@__crt_stdio_output@@@2@@__crt_stdio_output@@AAE_N_W@Z 10012bef f i libucrt:output.obj
 0001:00011c7c       ?write_string@?$string_output_adapter@_W@__crt_stdio_output@@QBEXQB_WHQAHAAV__crt_deferred_errno_cache@@@Z 10012c7c f i libucrt:output.obj
 0001:00011ced       ___acrt_locale_get_ctype_array_value 10012ced f i libucrt:output.obj
 0001:00011d0f       ___stdio_common_vswprintf_s 10012d0f f   libucrt:output.obj
 0001:00011d33       __seh_filter_dll           10012d33 f   libucrt:exception_filter.obj
 0001:00011d53       __seh_filter_exe           10012d53 f   libucrt:exception_filter.obj
 0001:00012121       ___acrt_initialize_thread_local_exit_callback 10013121 f   libucrt:exit.obj
 0001:00012130       __cexit                    10013130 f   libucrt:exit.obj
 0001:0001213f       __exit                     1001313f f   libucrt:exit.obj
 0001:00012155       __is_c_termination_complete 10013155 f   libucrt:exit.obj
 0001:00012406       ___acrt_allocate_buffer_for_argv 10013406 f   libucrt:argv_parsing.obj
 0001:00012455       __configure_narrow_argv    10013455 f   libucrt:argv_parsing.obj
 0001:000125b2       ??$uninitialize@A6AXAAPAPAD@Z@?$dual_state_global@PAPAD@__crt_state_management@@QAEXA6AXAAPAPAD@Z@Z 100135b2 f i libucrt:environment_initialization.obj
 0001:000125b2       ??$uninitialize@A6AXAAPAPA_W@Z@?$dual_state_global@PAPA_W@__crt_state_management@@QAEXA6AXAAPAPA_W@Z@Z 100135b2 f i libucrt:environment_initialization.obj
 0001:00012611       ___dcrt_uninitialize_environments_nolock 10013611 f   libucrt:environment_initialization.obj
 0001:00012648       __initialize_narrow_environment 10013648 f   libucrt:environment_initialization.obj
 0001:00012703       ??$__crt_fast_encode_pointer@P6AHXZ@@YAP6AHXZQ6AHXZ@Z 10013703 f i libucrt:onexit.obj
 0001:00012703       ??$__crt_fast_encode_pointer@PAP6AXXZ@@YAPAP6AXXZQAP6AXXZ@Z 10013703 f i libucrt:onexit.obj
 0001:00012703       ??$__crt_fast_encode_pointer@PAX@@YAPAXQAX@Z 10013703 f i libucrt:initialization.obj
 0001:00012925       __crt_atexit               10013925 f   libucrt:onexit.obj
 0001:0001293b       __execute_onexit_table     1001393b f   libucrt:onexit.obj
 0001:00012968       __initialize_onexit_table  10013968 f   libucrt:onexit.obj
 0001:00012991       __register_onexit_function 10013991 f   libucrt:onexit.obj
 0001:000129eb       ___acrt_uninitialize_command_line 100139eb f   libucrt:argv_data.obj
 0001:00012ac2       ___acrt_initialize         10013ac2 f   libucrt:initialization.obj
 0001:00012ad4       ___acrt_thread_attach      10013ad4 f   libucrt:initialization.obj
 0001:00012adf       ___acrt_thread_detach      10013adf f   libucrt:initialization.obj
 0001:00012ae7       ___acrt_uninitialize       10013ae7 f   libucrt:initialization.obj
 0001:00012b17       ___acrt_uninitialize_critical 10013b17 f   libucrt:initialization.obj
 0001:00012b29       __initterm                 10013b29 f   libucrt:initterm.obj
 0001:00012b6e       __initterm_e               10013b6e f   libucrt:initterm.obj
 0001:00012b9c       ___acrt_initialize_new_handler 10013b9c f   libucrt:new_handler.obj
 0001:00012bab       __callnewh                 10013bab f   libucrt:new_handler.obj
 0001:00012bd8       __query_new_handler        10013bd8 f   libucrt:new_handler.obj
 0001:00012c34       _terminate                 10013c34 f   libucrt:terminate.obj
 0001:00012c70       _abort                     10013c70 f   libucrt:abort.obj
 0001:00012cb4       _strcpy_s                  10013cb4 f   libucrt:strcpy_s.obj
 0001:00012d0e       ??$is_overflow_condition@K@__crt_strtox@@YA_NIK@Z 10013d0e f i libucrt:atox.obj
 0001:00012d3f       ??$parse_integer@KV?$c_string_character_source@_W@__crt_strtox@@@__crt_strtox@@YAKQAU__crt_locale_pointers@@V?$c_string_character_source@_W@0@H_N@Z 10013d3f f i libucrt:atox.obj
 0001:00013347       ?unget@?$c_string_character_source@_W@__crt_strtox@@QAEX_W@Z 10014347 f i libucrt:atox.obj
 0001:00013380       _strncmp                   10014380 f   libucrt:strncmp.obj
 0001:000133f8       _wcsncmp                   100143f8 f   libucrt:wcsncmp.obj
 0001:00013432       __free_base                10014432 f   libucrt:free_base.obj
 0001:000137aa       ___acrt_freeptd            100147aa f   libucrt:per_thread_data.obj
 0001:000137d6       ___acrt_getptd             100147d6 f   libucrt:per_thread_data.obj
 0001:00013893       ___acrt_getptd_head        10014893 f   libucrt:per_thread_data.obj
 0001:0001392d       ___acrt_getptd_noexit      1001492d f   libucrt:per_thread_data.obj
 0001:000139e2       ___acrt_initialize_ptd     100149e2 f   libucrt:per_thread_data.obj
 0001:00013a0e       ___acrt_uninitialize_ptd   10014a0e f   libucrt:per_thread_data.obj
 0001:00013a28       __calloc_base              10014a28 f   libucrt:calloc_base.obj
 0001:00013a85       __malloc_base              10014a85 f   libucrt:malloc_base.obj
 0001:00013ad3       __msize_base               10014ad3 f   libucrt:msize.obj
 0001:00013b06       __realloc_base             10014b06 f   libucrt:realloc_base.obj
 0001:00013d07       ___acrt_AppPolicyGetProcessTerminationMethodInternal@4 10014d07 f   libucrt:winapi_thunks.obj
 0001:00013d47       ___acrt_AreFileApisANSI@0  10014d47 f   libucrt:winapi_thunks.obj
 0001:00013d66       ___acrt_FlsAlloc@4         10014d66 f   libucrt:winapi_thunks.obj
 0001:00013da5       ___acrt_FlsFree@4          10014da5 f   libucrt:winapi_thunks.obj
 0001:00013de4       ___acrt_FlsGetValue@4      10014de4 f   libucrt:winapi_thunks.obj
 0001:00013e23       ___acrt_FlsSetValue@8      10014e23 f   libucrt:winapi_thunks.obj
 0001:00013e65       ___acrt_InitializeCriticalSectionEx@12 10014e65 f   libucrt:winapi_thunks.obj
 0001:00013eb0       ___acrt_LCMapStringEx@36   10014eb0 f   libucrt:winapi_thunks.obj
 0001:00013f0d       ___acrt_LocaleNameToLCID@8 10014f0d f   libucrt:winapi_thunks.obj
 0001:00013f3e       ___acrt_SetThreadStackGuarantee@4 10014f3e f   libucrt:winapi_thunks.obj
 0001:00013f79       ___acrt_initialize_winapi_thunks 10014f79 f   libucrt:winapi_thunks.obj
 0001:00013fa4       ___acrt_uninitialize_winapi_thunks 10014fa4 f   libucrt:winapi_thunks.obj
 0001:00013fda       ??$make_c_string_character_source@_WPAPA_W@__crt_strtox@@YA?AV?$c_string_character_source@_W@0@QB_WQAPA_W@Z 10014fda f i libucrt:strtox.obj
 0001:00013ff5       _wcstol                    10014ff5 f   libucrt:strtox.obj
 0001:0001401f       __mbtowc_l                 1001501f f   libucrt:mbtowc.obj
 0001:00014161       _mbtowc                    10015161 f   libucrt:mbtowc.obj
 0001:0001417b       _wcsnlen                   1001517b f   libucrt:strnlen.obj
 0001:0001432b       ___acrt_update_locale_info 1001532b f   libucrt:locale_update.obj
 0001:00014358       ___acrt_update_multibyte_info 10015358 f   libucrt:locale_update.obj
 0001:00014385       ?__acrt_fp_classify@@YA?AW4__acrt_fp_class@@ABN@Z 10015385 f i libucrt:cvt.obj
 0001:00014d37       ___acrt_fp_format          10015d37 f   libucrt:cvt.obj
 0001:00014e95       __fileno                   10015e95 f   libucrt:fileno.obj
 0001:00014ebc       ___acrt_initialize_stdio   10015ebc f   libucrt:_file.obj
 0001:00014f84       ___acrt_uninitialize_stdio 10015f84 f   libucrt:_file.obj
 0001:00014fd0       __lock_file                10015fd0 f   libucrt:_file.obj
 0001:00014fe4       __unlock_file              10015fe4 f   libucrt:_file.obj
 0001:00014ff8       __get_printf_count_output  10015ff8 f   libucrt:printf_count_output.obj
 0001:0001507b       ___acrt_set_locale_changed 1001607b f   libucrt:wsetlocale.obj
 0001:00015086       ___acrt_uninitialize_locale 10016086 f   libucrt:wsetlocale.obj
 0001:00015217       ___acrt_initialize_lowio   10016217 f   libucrt:ioinit.obj
 0001:00015277       ___acrt_uninitialize_lowio 10016277 f   libucrt:ioinit.obj
 0001:000152a3       ___acrt_initialize_locks   100162a3 f   libucrt:locks.obj
 0001:000152e4       ___acrt_lock               100162e4 f   libucrt:locks.obj
 0001:000152fb       ___acrt_uninitialize_locks 100162fb f   libucrt:locks.obj
 0001:0001532c       ___acrt_unlock             1001632c f   libucrt:locks.obj
 0001:00015343       ___acrt_get_process_end_policy 10016343 f   libucrt:win_policies.obj
 0001:0001550d       ??$__acrt_mbs_to_wcs_cp@U__crt_win32_buffer_internal_dynamic_resizing@@@@YAHQBDAAV?$__crt_win32_buffer@_WU__crt_win32_buffer_internal_dynamic_resizing@@@@I@Z 1001650d f i libucrt:argv_wildcards.obj
 0001:00015a21       ?__acrt_get_utf8_acp_compatibility_codepage@@YAIXZ 10016a21 f i libucrt:argv_wildcards.obj
 0001:00015a60       ?_deallocate@?$__crt_win32_buffer@_WU__crt_win32_buffer_internal_dynamic_resizing@@@@AAEXXZ 10016a60 f i libucrt:argv_wildcards.obj
 0001:00015a60       ?_deallocate@?$__crt_win32_buffer@DU__crt_win32_buffer_internal_dynamic_resizing@@@@AAEXXZ 10016a60 f i libucrt:argv_wildcards.obj
 0001:00015a7a       ?allocate@?$__crt_win32_buffer@DU__crt_win32_buffer_internal_dynamic_resizing@@@@QAEHI@Z 10016a7a f i libucrt:argv_wildcards.obj
 0001:00015ab6       ?allocate@?$__crt_win32_buffer@_WU__crt_win32_buffer_internal_dynamic_resizing@@@@QAEHI@Z 10016ab6 f i libucrt:argv_wildcards.obj
 0001:00015af5       ?allocate@__crt_win32_buffer_internal_dynamic_resizing@@SAHQAPAXIABV__crt_win32_buffer_empty_debug_info@@@Z 10016af5 f i libucrt:argv_wildcards.obj
 0001:00015b9b       ___acrt_expand_narrow_argv_wildcards 10016b9b f   libucrt:argv_wildcards.obj
 0001:00015c6d       ?allocate@?$__crt_win32_buffer@DU__crt_win32_buffer_no_resizing@@@@QAEHI@Z 10016c6d f i libucrt:getmodulefilenamea.obj
 0001:00015c94       ?set_to_nullptr@?$__crt_win32_buffer@DU__crt_win32_buffer_no_resizing@@@@QAEXXZ 10016c94 f i libucrt:getmodulefilenamea.obj
 0001:00015ca8       ___acrt_GetModuleFileNameA 10016ca8 f   libucrt:getmodulefilenamea.obj
 0001:00016261       ___acrt_initialize_multibyte 10017261 f   libucrt:mbctype.obj
 0001:000162a9       ___acrt_update_thread_multibyte_data 100172a9 f   libucrt:mbctype.obj
 0001:000162bc       __setmbcp_nolock           100172bc f   libucrt:mbctype.obj
 0001:00016587       __ismbblead                10017587 f   libucrt:ismbbyte.obj
 0001:0001659f       ___acrt_initialize_command_line 1001759f f   libucrt:argv_data.obj
 0001:000165b8       ___acrt_MultiByteToWideChar 100175b8 f   libucrt:multibytetowidechar.obj
 0001:00016634       ___acrt_WideCharToMultiByte 10017634 f   libucrt:widechartomultibyte.obj
 0001:00016722       ___dcrt_get_narrow_environment_from_os 10017722 f   libucrt:get_environment_from_os.obj
 0001:000167a6       ___acrt_initialize_heap    100177a6 f   libucrt:heap_handle.obj
 0001:000167b7       ___acrt_uninitialize_heap  100177b7 f   libucrt:heap_handle.obj
 0001:000167c1       ___acrt_execute_initializers 100177c1 f   libucrt:shared_initialization.obj
 0001:00016829       ___acrt_execute_uninitializers 10017829 f   libucrt:shared_initialization.obj
 0001:00016928       ___acrt_get_sigabrt_handler 10017928 f   libucrt:signal.obj
 0001:0001694f       ___acrt_initialize_signal_handlers 1001794f f   libucrt:signal.obj
 0001:0001696d       _raise                     1001796d f   libucrt:signal.obj
 0001:00016b60       ___acrt_has_user_matherr   10017b60 f   libucrt:matherr.obj
 0001:00016b78       ___acrt_initialize_user_matherr 10017b78 f   libucrt:matherr.obj
 0001:00016b87       ___acrt_invoke_user_matherr 10017b87 f   libucrt:matherr.obj
 0001:00016d96       ___acrt_stdio_flush_nolock 10017d96 f   libucrt:fflush.obj
 0001:00016dfb       __fflush_nolock            10017dfb f   libucrt:fflush.obj
 0001:00016e43       __flushall                 10017e43 f   libucrt:fflush.obj
 0001:00016e4c       ___pctype_func             10017e4c f   libucrt:ctype.obj
 0001:00016e70       _iswctype                  10017e70 f   libucrt:iswctype.obj
 0001:00016ed9       ___acrt_add_locale_ref     10017ed9 f   libucrt:locale_refcounting.obj
 0001:00016f56       ___acrt_free_locale        10017f56 f   libucrt:locale_refcounting.obj
 0001:0001709e       ___acrt_locale_add_lc_time_reference 1001809e f   libucrt:locale_refcounting.obj
 0001:000170c7       ___acrt_locale_free_lc_time_if_unreferenced 100180c7 f   libucrt:locale_refcounting.obj
 0001:000170f8       ___acrt_locale_release_lc_time_reference 100180f8 f   libucrt:locale_refcounting.obj
 0001:00017121       ___acrt_release_locale_ref 10018121 f   libucrt:locale_refcounting.obj
 0001:000171a2       ___acrt_update_thread_locale_data 100181a2 f   libucrt:locale_refcounting.obj
 0001:00017223       __updatetlocinfoEx_nolock  10018223 f   libucrt:locale_refcounting.obj
 0001:00017273       __query_new_mode           10018273 f   libucrt:new_mode.obj
 0001:000172ca       ___acrt_DownlevelLocaleNameToLCID 100182ca f   libucrt:lcidtoname_downlevel.obj
 0001:000172f6       __isleadbyte_l             100182f6 f i libucrt:_wctype.obj
 0001:0001735c       ?__mbrtowc_utf8@__crt_mbstring@@YAIPA_WPBDIPAU_Mbstatet@@@Z 1001835c f   libucrt:mbrtowc.obj
 0001:0001739c       ?__mbsrtowcs_utf8@__crt_mbstring@@YAIPA_WPAPBDIPAU_Mbstatet@@@Z 1001839c f   libucrt:mbrtowc.obj
 0001:00017497       ?return_illegal_sequence@__crt_mbstring@@YAIPAU_Mbstatet@@@Z 10018497 f i libucrt:c32rtomb.obj
 0001:00017521       ___acrt_fp_strflt_to_string 10018521 f   libucrt:_fptostr.obj
 0001:00017600       ?divide@__crt_strtox@@YA_KAAUbig_integer@1@ABU21@@Z 10018600 f i libucrt:cfout.obj
 0001:00017a98       ___acrt_fltout             10018a98 f   libucrt:cfout.obj
 0001:00018f9f       _fegetround                10019f9f f   libucrt:fegetround.obj
 0001:00018fac       __fcloseall                10019fac f   libucrt:closeall.obj
 0001:00019057       ___acrt_stdio_free_buffer_nolock 1001a057 f   libucrt:_freebuf.obj
 0001:00019097       __isatty                   1001a097 f   libucrt:isatty.obj
 0001:000190ed       ___acrt_locale_free_monetary 1001a0ed f   libucrt:initmon.obj
 0001:000191eb       ___acrt_locale_free_numeric 1001a1eb f   libucrt:initnum.obj
 0001:0001928c       ___acrt_locale_free_time   1001a28c f   libucrt:inittime.obj
 0001:00019370       ___acrt_GetStringTypeA     1001a370 f   libucrt:getstringtypea.obj
 0001:00019473       __freea_crt                1001a473 f i libucrt:getstringtypea.obj
 0001:00019493       ___acrt_lowio_create_handle_array 1001a493 f   libucrt:osfinfo.obj
 0001:0001950e       ___acrt_lowio_destroy_handle_array 1001a50e f   libucrt:osfinfo.obj
 0001:00019543       ___acrt_lowio_ensure_fh_exists 1001a543 f   libucrt:osfinfo.obj
 0001:000195e1       ___acrt_lowio_lock_fh      1001a5e1 f   libucrt:osfinfo.obj
 0001:00019604       ___acrt_lowio_unlock_fh    1001a604 f   libucrt:osfinfo.obj
 0001:00019627       __free_osfhnd              1001a627 f   libucrt:osfinfo.obj
 0001:000196b8       __get_osfhandle            1001a6b8 f   libucrt:osfinfo.obj
 0001:00019730       _qsort                     1001a730 f   libucrt:qsort.obj
 0001:00019cd1       _strncpy_s                 1001acd1 f   libucrt:strncpy_s.obj
 0001:00019ce0       _strpbrk                   1001ace0 f   libucrt:strpbrk.obj
 0001:00019d20       __mbsdec                   1001ad20 f   libucrt:mbsdec.obj
 0001:00019d37       __mbsdec_l                 1001ad37 f   libucrt:mbsdec.obj
 0001:00019fae       ___acrt_LCMapStringA       1001afae f   libucrt:lcmapstringa.obj
 0001:0001a0a8       __commit                   1001b0a8 f   libucrt:commit.obj
 0001:0001a8a0       __write                    1001b8a0 f   libucrt:write.obj
 0001:0001a992       __write_nolock             1001b992 f   libucrt:write.obj
 0001:0001ab6c       ___acrt_GetStringTypeW     1001bb6c f   libucrt:getstringtypew.obj
 0001:0001ab85       ___ascii_wcsnicmp          1001bb85 f   libucrt:wcsnicmp.obj
 0001:0001abd4       ?__mbrtoc32_utf8@__crt_mbstring@@YAIPA_UPBDIPAU_Mbstatet@@@Z 1001bbd4 f   libucrt:mbrtoc32.obj
 0001:0001ad7b       __controlfp_s              1001bd7b f   libucrt:contrlfp.obj
 0001:0001adda       _fegetenv                  1001bdda f   libucrt:fegetenv.obj
 0001:0001adf7       _fesetenv                  1001bdf7 f   libucrt:fesetenv.obj
 0001:0001ae42       _feholdexcept              1001be42 f   libucrt:feholdexcept.obj
 0001:0001ae90       __CIlog10                  1001be90 f   libucrt:log10_impl.obj
 0001:0001aecb       __CIlog10_default          1001becb f   libucrt:log10_impl.obj
 0001:0001aedf       __log10_default            1001bedf     libucrt:log10_impl.obj
 0001:0001afa0       _ceil                      1001bfa0 f   libucrt:ceil_pentium4.obj
 0001:0001afe0       __ceil_pentium4            1001bfe0 f   libucrt:ceil_pentium4.obj
 0001:0001b3da       ___acrt_fenv_get_common_round_control 1001c3da f   libucrt:_fenvutils.obj
 0001:0001b3fc       ___acrt_fenv_get_control   1001c3fc f   libucrt:_fenvutils.obj
 0001:0001b47c       ___acrt_fenv_get_status    1001c47c f   libucrt:_fenvutils.obj
 0001:0001b534       ___acrt_fenv_set_control   1001c534 f   libucrt:_fenvutils.obj
 0001:0001b59c       ___acrt_fenv_set_status    1001c59c f   libucrt:_fenvutils.obj
 0001:0001b70f       __lseeki64_nolock          1001c70f f   libucrt:lseek.obj
 0001:0001b72a       __fclose_nolock            1001c72a f   libucrt:fclose.obj
 0001:0001b7a1       _fclose                    1001c7a1 f   libucrt:fclose.obj
 0001:0001b825       __query_app_type           1001c825 f   libucrt:report_runtime_error.obj
 0001:0001b82b       ___strncnt                 1001c82b f   libucrt:strncnt.obj
 0001:0001b847       __putwch_nolock            1001c847 f   libucrt:putwch.obj
 0001:0001b920       __clearfp                  1001c920 f   libucrt:ieee87.obj
 0001:0001b9fe       __control87                1001c9fe f   libucrt:ieee87.obj
 0001:0001bd9d       ___acrt_initialize_sse2    1001cd9d f   libucrt:mathfcns.obj
 0001:0001bdb0       __CIlog10_pentium4         1001cdb0 f   libucrt:log10_pentium4.obj
 0001:0001bdc8       __log10_pentium4           1001cdc8     libucrt:log10_pentium4.obj
 0001:0001c060       __fFEXP                    1001d060 f   libucrt:87tran.obj
 0001:0001c0b7       __rtinfpopse               1001d0b7     libucrt:87tran.obj
 0001:0001c0b9       __rtinfnpopse              1001d0b9     libucrt:87tran.obj
 0001:0001c0c9       __fFLN                     1001d0c9     libucrt:87tran.obj
 0001:0001c17e       __rtinfpop                 1001d17e     libucrt:87tran.obj
 0001:0001c180       __rtinfnpop                1001d180     libucrt:87tran.obj
 0001:0001c190       __rtforexpinf              1001d190 f   libucrt:87tran.obj
 0001:0001c19d       __ffexpm1                  1001d19d     libucrt:87tran.obj
 0001:0001c250       __trandisp1                1001d250 f   libucrt:87disp.obj
 0001:0001c2c5       __trandisp2                1001d2c5 f   libucrt:87disp.obj
 0001:0001c35f       __rttospopde               1001d35f     libucrt:87disp.obj
 0001:0001c364       __rttospop                 1001d364     libucrt:87disp.obj
 0001:0001c370       __rtnospop                 1001d370 f   libucrt:87disp.obj
 0001:0001c380       __rttosnpop                1001d380 f   libucrt:87disp.obj
 0001:0001c381       __rtnospopde               1001d381     libucrt:87disp.obj
 0001:0001c388       __rtzeropop                1001d388     libucrt:87disp.obj
 0001:0001c38a       __rtzeronpop               1001d38a     libucrt:87disp.obj
 0001:0001c390       __rtzerospop               1001d390 f   libucrt:87disp.obj
 0001:0001c39d       __rtonepop                 1001d39d     libucrt:87disp.obj
 0001:0001c3a0       __rtonenpop                1001d3a0 f   libucrt:87disp.obj
 0001:0001c3b0       __tosnan1                  1001d3b0 f   libucrt:87disp.obj
 0001:0001c3e0       __nosnan2                  1001d3e0 f   libucrt:87disp.obj
 0001:0001c3f0       __tosnan2                  1001d3f0 f   libucrt:87disp.obj
 0001:0001c420       __nan2                     1001d420 f   libucrt:87disp.obj
 0001:0001c460       __rtindfpop                1001d460 f   libucrt:87disp.obj
 0001:0001c462       __rtindfnpop               1001d462     libucrt:87disp.obj
 0001:0001c473       __rttosnpopde              1001d473     libucrt:87disp.obj
 0001:0001c480       __rtatan2inf               1001d480 f   libucrt:87disp.obj
 0001:0001c49d       __rtchsifneg               1001d49d     libucrt:87disp.obj
 0001:0001c4b0       __twoToTOS                 1001d4b0 f   libucrt:common.obj
 0001:0001c4c5       __load_CW                  1001d4c5 f   libucrt:common.obj
 0001:0001c4dc       __convertTOStoQNaN         1001d4dc f   libucrt:common.obj
 0001:0001c4f5       __fload_withFB             1001d4f5 f   libucrt:common.obj
 0001:0001c538       __checkTOS_withFB          1001d538 f   libucrt:common.obj
 0001:0001c54e       __fast_exit                1001d54e f   libucrt:common.obj
 0001:0001c55b       __math_exit                1001d55b f   libucrt:common.obj
 0001:0001c585       __check_overflow_exit      1001d585 f   libucrt:common.obj
 0001:0001c599       __check_range_exit         1001d599 f   libucrt:common.obj
 0001:0001c640       __startTwoArgErrorHandling 1001d640 f   libucrt:genexcep.obj
 0001:0001c657       __startOneArgErrorHandling 1001d657 f   libucrt:genexcep.obj
 0001:0001c693       ___libm_error_support      1001d693 f   libucrt:libm_error.obj
 0001:0001c887       __ceil_default             1001d887 f   libucrt:ceil.obj
 0001:0001c9c8       __close                    1001d9c8 f   libucrt:close.obj
 0001:0001ca55       __close_nolock             1001da55 f   libucrt:close.obj
 0001:0001caf1       ?__acrt_stdio_free_stream@@YAXV__crt_stdio_stream@@@Z 1001daf1 f   libucrt:stream.obj
 0001:0001cb30       ___ascii_strnicmp          1001db30 f   libucrt:_strnicm.obj
 0001:0001cbb0       ___dcrt_lowio_ensure_console_output_initialized 1001dbb0 f   libucrt:initcon.obj
 0001:0001cbcf       ___dcrt_terminate_console_output 1001dbcf f   libucrt:initcon.obj
 0001:0001cbe6       ___dcrt_write_console      1001dbe6 f   libucrt:initcon.obj
 0001:0001cc3b       ___set_fpsr_sse2           1001dc3b f   libucrt:fpctrl.obj
 0001:0001ccbb       __clrfp                    1001dcbb f   libucrt:fpctrl.obj
 0001:0001cccc       __ctrlfp                   1001dccc f   libucrt:fpctrl.obj
 0001:0001ccf6       __set_statfp               1001dcf6 f   libucrt:fpctrl.obj
 0001:0001cd4f       __statfp                   1001dd4f f   libucrt:fpctrl.obj
 0001:0001cd5f       __d_inttype                1001dd5f f   libucrt:powhlp.obj
 0001:0001cdc7       __powhlp                   1001ddc7 f   libucrt:powhlp.obj
 0001:0001cef2       __87except                 1001def2 f   libucrt:87except.obj
 0001:0001cffc       __frnd                     1001dffc f   libucrt:frnd.obj
 0001:0001d010       __errcode                  1001e010 f   libucrt:fpexcept.obj
 0001:0001d044       __except1                  1001e044 f   libucrt:fpexcept.obj
 0001:0001d112       __handle_exc               1001e112 f   libucrt:fpexcept.obj
 0001:0001d2fd       __raise_exc                1001e2fd f   libucrt:fpexcept.obj
 0001:0001d320       __raise_exc_ex             1001e320 f   libucrt:fpexcept.obj
 0001:0001d616       __set_errno_from_matherr   1001e616 f   libucrt:fpexcept.obj
 0001:0001d645       __umatherr                 1001e645 f   libucrt:fpexcept.obj
 0001:0001d6e5       __decomp                   1001e6e5 f   libucrt:util.obj
 0001:0001d7b7       __set_exp                  1001e7b7 f   libucrt:util.obj
 0001:0001d7e4       __sptype                   1001e7e4 f   libucrt:util.obj
 0001:0001d842       __fpclass                  1001e842 f   libucrt:ieeemisc.obj
 0001:0001d8e6       _IsProcessorFeaturePresent@4 1001e8e6 f   kernel32:KERNEL32.dll
 0001:0001d8f0       __FindPESection            1001e8f0 f   LIBCMT:pesect.obj
 0001:0001d940       __IsNonwritableInCurrentImage 1001e940 f   LIBCMT:pesect.obj
 0001:0001da00       __ValidateImageBase        1001ea00 f   LIBCMT:pesect.obj
 0001:0001da33       __EH_prolog3_catch         1001ea33 f   LIBCMT:ehprolg3.obj
 0001:0001da70       __aulldvrm                 1001ea70 f   LIBCMT:ulldvrm.obj
 0001:0001db10       __allmul                   1001eb10 f   LIBCMT:llmul.obj
 0001:0001db50       __alldvrm                  1001eb50 f   LIBCMT:lldvrm.obj
 0001:0001dc30       __allshl                   1001ec30 f   LIBCMT:llshl.obj
 0001:0001dc50       __aullshr                  1001ec50 f   LIBCMT:ullshr.obj
 0001:0001dc70       __ftol2_sse                1001ec70     LIBCMT:ftol2.obj
 0001:0001dc70       __ftol2_sse_excpt          1001ec70     LIBCMT:ftol2.obj
 0001:0001dc70       __ftoi2                    1001ec70 f   LIBCMT:ftol2.obj
 0001:0001dcf0       __ftoui2                   1001ecf0 f   LIBCMT:ftol2.obj
 0001:0001dda0       __ftol2                    1001eda0 f   LIBCMT:ftol2.obj
 0001:0001de50       __ftoul2                   1001ee50 f   LIBCMT:ftol2.obj
 0001:0001df10       _strrchr                   1001ef10 f   libvcruntime:strrchr.obj
 0001:0001e050       _strchr                    1001f050 f   libvcruntime:strchr.obj
 0001:0001e0be       ___from_strstr_to_strchr   1001f0be     libvcruntime:strchr.obj
 0001:0001e17b       __filter_x86_sse2_floating_point_exception_default 1001f17b f   LIBCMT:x86_exception_filter.obj
 0001:0001e17b       __filter_x86_sse2_floating_point_exception 1001f17b f   LIBCMT:x86_exception_filter.obj
 0002:00000000       __imp__RegQueryValueExW@24 10020000     advapi32:ADVAPI32.dll
 0002:00000004       __imp__RegSetValueExW@24   10020004     advapi32:ADVAPI32.dll
 0002:00000008       __imp__RegQueryInfoKeyW@48 10020008     advapi32:ADVAPI32.dll
 0002:0000000c       __imp__RegOpenKeyExW@20    1002000c     advapi32:ADVAPI32.dll
 0002:00000010       __imp__RegEnumKeyExW@32    10020010     advapi32:ADVAPI32.dll
 0002:00000014       __imp__RegDeleteValueW@8   10020014     advapi32:ADVAPI32.dll
 0002:00000018       __imp__RegDeleteKeyW@8     10020018     advapi32:ADVAPI32.dll
 0002:0000001c       __imp__RegCreateKeyExW@36  1002001c     advapi32:ADVAPI32.dll
 0002:00000020       __imp__RegCloseKey@4       10020020     advapi32:ADVAPI32.dll
 0002:00000024       \177ADVAPI32_NULL_THUNK_DATA 10020024     advapi32:ADVAPI32.dll
 0002:00000028       __imp__GetObjectW@12       10020028     gdi32:GDI32.dll
 0002:0000002c       __imp__SelectObject@8      1002002c     gdi32:GDI32.dll
 0002:00000030       __imp__DeleteObject@4      10020030     gdi32:GDI32.dll
 0002:00000034       __imp__CreateCompatibleDC@4 10020034     gdi32:GDI32.dll
 0002:00000038       __imp__BitBlt@36           10020038     gdi32:GDI32.dll
 0002:0000003c       __imp__SetWindowOrgEx@16   1002003c     gdi32:GDI32.dll
 0002:00000040       __imp__SetWindowExtEx@16   10020040     gdi32:GDI32.dll
 0002:00000044       __imp__SetViewportOrgEx@16 10020044     gdi32:GDI32.dll
 0002:00000048       __imp__LPtoDP@12           10020048     gdi32:GDI32.dll
 0002:0000004c       __imp__SetMapMode@8        1002004c     gdi32:GDI32.dll
 0002:00000050       __imp__SaveDC@4            10020050     gdi32:GDI32.dll
 0002:00000054       __imp__RestoreDC@8         10020054     gdi32:GDI32.dll
 0002:00000058       __imp__GetDeviceCaps@8     10020058     gdi32:GDI32.dll
 0002:0000005c       __imp__DeleteMetaFile@4    1002005c     gdi32:GDI32.dll
 0002:00000060       __imp__DeleteDC@4          10020060     gdi32:GDI32.dll
 0002:00000064       __imp__CreateRectRgnIndirect@4 10020064     gdi32:GDI32.dll
 0002:00000068       __imp__CreateMetaFileW@4   10020068     gdi32:GDI32.dll
 0002:0000006c       __imp__CreateDCW@16        1002006c     gdi32:GDI32.dll
 0002:00000070       __imp__CloseMetaFile@4     10020070     gdi32:GDI32.dll
 0002:00000074       \177GDI32_NULL_THUNK_DATA  10020074     gdi32:GDI32.dll
 0002:00000078       __imp__CloseHandle@4       10020078     kernel32:KERNEL32.dll
 0002:0000007c       __imp__SetEvent@4          1002007c     kernel32:KERNEL32.dll
 0002:00000080       __imp__CreateMutexW@12     10020080     kernel32:KERNEL32.dll
 0002:00000084       __imp__CreateEventW@16     10020084     kernel32:KERNEL32.dll
 0002:00000088       __imp__GetCurrentProcessId@0 10020088     kernel32:KERNEL32.dll
 0002:0000008c       __imp__CreateFileW@28      1002008c     kernel32:KERNEL32.dll
 0002:00000090       __imp__GetConsoleMode@8    10020090     kernel32:KERNEL32.dll
 0002:00000094       __imp__GetConsoleOutputCP@0 10020094     kernel32:KERNEL32.dll
 0002:00000098       __imp__WriteFile@20        10020098     kernel32:KERNEL32.dll
 0002:0000009c       __imp__FlushFileBuffers@4  1002009c     kernel32:KERNEL32.dll
 0002:000000a0       __imp__SetStdHandle@8      100200a0     kernel32:KERNEL32.dll
 0002:000000a4       __imp__GetStringTypeW@16   100200a4     kernel32:KERNEL32.dll
 0002:000000a8       __imp__SetFilePointerEx@20 100200a8     kernel32:KERNEL32.dll
 0002:000000ac       __imp__FreeEnvironmentStringsW@4 100200ac     kernel32:KERNEL32.dll
 0002:000000b0       __imp__GetEnvironmentStringsW@0 100200b0     kernel32:KERNEL32.dll
 0002:000000b4       __imp__lstrcmpiW@8         100200b4     kernel32:KERNEL32.dll
 0002:000000b8       __imp__GetCommandLineA@0   100200b8     kernel32:KERNEL32.dll
 0002:000000bc       __imp__GetCPInfo@8         100200bc     kernel32:KERNEL32.dll
 0002:000000c0       __imp__GetOEMCP@0          100200c0     kernel32:KERNEL32.dll
 0002:000000c4       __imp__GetACP@0            100200c4     kernel32:KERNEL32.dll
 0002:000000c8       __imp__IsValidCodePage@4   100200c8     kernel32:KERNEL32.dll
 0002:000000cc       __imp__FindNextFileW@8     100200cc     kernel32:KERNEL32.dll
 0002:000000d0       __imp__FindFirstFileExW@24 100200d0     kernel32:KERNEL32.dll
 0002:000000d4       __imp__FindClose@4         100200d4     kernel32:KERNEL32.dll
 0002:000000d8       __imp__GetFileType@4       100200d8     kernel32:KERNEL32.dll
 0002:000000dc       __imp__GetStdHandle@4      100200dc     kernel32:KERNEL32.dll
 0002:000000e0       __imp__LCMapStringW@24     100200e0     kernel32:KERNEL32.dll
 0002:000000e4       __imp__HeapReAlloc@16      100200e4     kernel32:KERNEL32.dll
 0002:000000e8       __imp__HeapSize@12         100200e8     kernel32:KERNEL32.dll
 0002:000000ec       __imp__MulDiv@12           100200ec     kernel32:KERNEL32.dll
 0002:000000f0       __imp__GlobalLock@4        100200f0     kernel32:KERNEL32.dll
 0002:000000f4       __imp__GlobalUnlock@4      100200f4     kernel32:KERNEL32.dll
 0002:000000f8       __imp__GlobalAlloc@8       100200f8     kernel32:KERNEL32.dll
 0002:000000fc       __imp__FindResourceW@12    100200fc     kernel32:KERNEL32.dll
 0002:00000100       __imp__SizeofResource@8    10020100     kernel32:KERNEL32.dll
 0002:00000104       __imp__LoadResource@8      10020104     kernel32:KERNEL32.dll
 0002:00000108       __imp__LoadLibraryExW@12   10020108     kernel32:KERNEL32.dll
 0002:0000010c       __imp__GetProcAddress@8    1002010c     kernel32:KERNEL32.dll
 0002:00000110       __imp__GetModuleHandleW@4  10020110     kernel32:KERNEL32.dll
 0002:00000114       __imp__GetModuleFileNameW@12 10020114     kernel32:KERNEL32.dll
 0002:00000118       __imp__FreeLibrary@4       10020118     kernel32:KERNEL32.dll
 0002:0000011c       __imp__DisableThreadLibraryCalls@4 1002011c     kernel32:KERNEL32.dll
 0002:00000120       __imp__GetCurrentThreadId@0 10020120     kernel32:KERNEL32.dll
 0002:00000124       __imp__Sleep@4             10020124     kernel32:KERNEL32.dll
 0002:00000128       __imp__WaitForSingleObject@8 10020128     kernel32:KERNEL32.dll
 0002:0000012c       __imp__ReleaseMutex@4      1002012c     kernel32:KERNEL32.dll
 0002:00000130       __imp__ResetEvent@4        10020130     kernel32:KERNEL32.dll
 0002:00000134       __imp__EnterCriticalSection@4 10020134     kernel32:KERNEL32.dll
 0002:00000138       __imp__LeaveCriticalSection@4 10020138     kernel32:KERNEL32.dll
 0002:0000013c       __imp__SetLastError@4      1002013c     kernel32:KERNEL32.dll
 0002:00000140       __imp__EncodePointer@4     10020140     kernel32:KERNEL32.dll
 0002:00000144       __imp__DeleteCriticalSection@4 10020144     kernel32:KERNEL32.dll
 0002:00000148       __imp__InitializeCriticalSectionEx@12 10020148     kernel32:KERNEL32.dll
 0002:0000014c       __imp__GetLastError@0      1002014c     kernel32:KERNEL32.dll
 0002:00000150       __imp__RaiseException@16   10020150     kernel32:KERNEL32.dll
 0002:00000154       __imp__DecodePointer@4     10020154     kernel32:KERNEL32.dll
 0002:00000158       __imp__WideCharToMultiByte@32 10020158     kernel32:KERNEL32.dll
 0002:0000015c       __imp__GetCommandLineW@0   1002015c     kernel32:KERNEL32.dll
 0002:00000160       __imp__MultiByteToWideChar@24 10020160     kernel32:KERNEL32.dll
 0002:00000164       __imp__WriteConsoleW@20    10020164     kernel32:KERNEL32.dll
 0002:00000168       __imp__GetModuleHandleExW@12 10020168     kernel32:KERNEL32.dll
 0002:0000016c       __imp__ExitProcess@4       1002016c     kernel32:KERNEL32.dll
 0002:00000170       __imp__VirtualQuery@12     10020170     kernel32:KERNEL32.dll
 0002:00000174       __imp__VirtualProtect@16   10020174     kernel32:KERNEL32.dll
 0002:00000178       __imp__GetSystemInfo@4     10020178     kernel32:KERNEL32.dll
 0002:0000017c       __imp__TlsFree@4           1002017c     kernel32:KERNEL32.dll
 0002:00000180       __imp__TlsSetValue@8       10020180     kernel32:KERNEL32.dll
 0002:00000184       __imp__TlsGetValue@4       10020184     kernel32:KERNEL32.dll
 0002:00000188       __imp__TlsAlloc@0          10020188     kernel32:KERNEL32.dll
 0002:0000018c       __imp__InterlockedFlushSList@4 1002018c     kernel32:KERNEL32.dll
 0002:00000190       __imp__RtlUnwind@16        10020190     kernel32:KERNEL32.dll
 0002:00000194       __imp__LoadLibraryExA@12   10020194     kernel32:KERNEL32.dll
 0002:00000198       __imp__VirtualFree@12      10020198     kernel32:KERNEL32.dll
 0002:0000019c       __imp__VirtualAlloc@16     1002019c     kernel32:KERNEL32.dll
 0002:000001a0       __imp__FlushInstructionCache@12 100201a0     kernel32:KERNEL32.dll
 0002:000001a4       __imp__InterlockedPushEntrySList@8 100201a4     kernel32:KERNEL32.dll
 0002:000001a8       __imp__InterlockedPopEntrySList@4 100201a8     kernel32:KERNEL32.dll
 0002:000001ac       __imp__GetProcessHeap@0    100201ac     kernel32:KERNEL32.dll
 0002:000001b0       __imp__HeapFree@12         100201b0     kernel32:KERNEL32.dll
 0002:000001b4       __imp__HeapAlloc@12        100201b4     kernel32:KERNEL32.dll
 0002:000001b8       __imp__OutputDebugStringW@4 100201b8     kernel32:KERNEL32.dll
 0002:000001bc       __imp__InitializeSListHead@4 100201bc     kernel32:KERNEL32.dll
 0002:000001c0       __imp__GetSystemTimeAsFileTime@4 100201c0     kernel32:KERNEL32.dll
 0002:000001c4       __imp__QueryPerformanceCounter@4 100201c4     kernel32:KERNEL32.dll
 0002:000001c8       __imp__GetStartupInfoW@4   100201c8     kernel32:KERNEL32.dll
 0002:000001cc       __imp__IsDebuggerPresent@0 100201cc     kernel32:KERNEL32.dll
 0002:000001d0       __imp__IsProcessorFeaturePresent@4 100201d0     kernel32:KERNEL32.dll
 0002:000001d4       __imp__TerminateProcess@8  100201d4     kernel32:KERNEL32.dll
 0002:000001d8       __imp__GetCurrentProcess@0 100201d8     kernel32:KERNEL32.dll
 0002:000001dc       __imp__SetUnhandledExceptionFilter@4 100201dc     kernel32:KERNEL32.dll
 0002:000001e0       __imp__UnhandledExceptionFilter@4 100201e0     kernel32:KERNEL32.dll
 0002:000001e4       __imp__InitializeCriticalSectionAndSpinCount@8 100201e4     kernel32:KERNEL32.dll
 0002:000001e8       __imp__WaitForSingleObjectEx@12 100201e8     kernel32:KERNEL32.dll
 0002:000001ec       \177KERNEL32_NULL_THUNK_DATA 100201ec     kernel32:KERNEL32.dll
 0002:000001f0       __imp__OleCreatePropertyFrame@44 100201f0     oleaut32:OLEAUT32.dll
 0002:000001f4       __imp__UnRegisterTypeLib@20 100201f4     oleaut32:OLEAUT32.dll
 0002:000001f8       __imp__RegisterTypeLib@12  100201f8     oleaut32:OLEAUT32.dll
 0002:000001fc       __imp__LoadRegTypeLib@20   100201fc     oleaut32:OLEAUT32.dll
 0002:00000200       __imp__LoadTypeLib@8       10020200     oleaut32:OLEAUT32.dll
 0002:00000204       __imp__VarUI4FromStr@16    10020204     oleaut32:OLEAUT32.dll
 0002:00000208       __imp__VariantInit@4       10020208     oleaut32:OLEAUT32.dll
 0002:0000020c       __imp__SysAllocStringByteLen@8 1002020c     oleaut32:OLEAUT32.dll
 0002:00000210       __imp__SysStringByteLen@4  10020210     oleaut32:OLEAUT32.dll
 0002:00000214       __imp__VariantChangeType@16 10020214     oleaut32:OLEAUT32.dll
 0002:00000218       __imp__VariantClear@4      10020218     oleaut32:OLEAUT32.dll
 0002:0000021c       __imp__SysStringLen@4      1002021c     oleaut32:OLEAUT32.dll
 0002:00000220       __imp__SysFreeString@4     10020220     oleaut32:OLEAUT32.dll
 0002:00000224       __imp__SysAllocStringLen@8 10020224     oleaut32:OLEAUT32.dll
 0002:00000228       __imp__SysAllocString@4    10020228     oleaut32:OLEAUT32.dll
 0002:0000022c       \177OLEAUT32_NULL_THUNK_DATA 1002022c     oleaut32:OLEAUT32.dll
 0002:00000230       __imp__UnregisterClassW@8  10020230     user32:USER32.dll
 0002:00000234       __imp__PostMessageW@16     10020234     user32:USER32.dll
 0002:00000238       __imp__DefWindowProcW@16   10020238     user32:USER32.dll
 0002:0000023c       __imp__CallWindowProcW@20  1002023c     user32:USER32.dll
 0002:00000240       __imp__RegisterClassExW@4  10020240     user32:USER32.dll
 0002:00000244       __imp__GetClassInfoExW@12  10020244     user32:USER32.dll
 0002:00000248       __imp__CreateWindowExW@48  10020248     user32:USER32.dll
 0002:0000024c       __imp__IsWindow@4          1002024c     user32:USER32.dll
 0002:00000250       __imp__IsChild@8           10020250     user32:USER32.dll
 0002:00000254       __imp__DestroyWindow@4     10020254     user32:USER32.dll
 0002:00000258       __imp__ShowWindow@8        10020258     user32:USER32.dll
 0002:0000025c       __imp__SetWindowPos@28     1002025c     user32:USER32.dll
 0002:00000260       __imp__CharNextW@4         10020260     user32:USER32.dll
 0002:00000264       __imp__SetFocus@4          10020264     user32:USER32.dll
 0002:00000268       __imp__LoadBitmapW@8       10020268     user32:USER32.dll
 0002:0000026c       __imp__RegisterClassW@4    1002026c     user32:USER32.dll
 0002:00000270       __imp__PeekMessageW@20     10020270     user32:USER32.dll
 0002:00000274       __imp__LoadCursorW@8       10020274     user32:USER32.dll
 0002:00000278       __imp__GetParent@4         10020278     user32:USER32.dll
 0002:0000027c       __imp__SetWindowLongW@12   1002027c     user32:USER32.dll
 0002:00000280       __imp__GetWindowLongW@8    10020280     user32:USER32.dll
 0002:00000284       __imp__PtInRect@12         10020284     user32:USER32.dll
 0002:00000288       __imp__EqualRect@8         10020288     user32:USER32.dll
 0002:0000028c       __imp__OffsetRect@12       1002028c     user32:USER32.dll
 0002:00000290       __imp__UnionRect@12        10020290     user32:USER32.dll
 0002:00000294       __imp__IntersectRect@12    10020294     user32:USER32.dll
 0002:00000298       __imp__GetClientRect@8     10020298     user32:USER32.dll
 0002:0000029c       __imp__InvalidateRect@12   1002029c     user32:USER32.dll
 0002:000002a0       __imp__SetWindowRgn@12     100202a0     user32:USER32.dll
 0002:000002a4       __imp__EndPaint@8          100202a4     user32:USER32.dll
 0002:000002a8       __imp__BeginPaint@8        100202a8     user32:USER32.dll
 0002:000002ac       __imp__ReleaseDC@8         100202ac     user32:USER32.dll
 0002:000002b0       __imp__GetDC@4             100202b0     user32:USER32.dll
 0002:000002b4       __imp__GetKeyState@4       100202b4     user32:USER32.dll
 0002:000002b8       __imp__GetFocus@0          100202b8     user32:USER32.dll
 0002:000002bc       \177USER32_NULL_THUNK_DATA 100202bc     user32:USER32.dll
 0002:000002c0       __imp__StringFromGUID2@12  100202c0     ole32:ole32.dll
 0002:000002c4       __imp__CoTaskMemAlloc@4    100202c4     ole32:ole32.dll
 0002:000002c8       __imp__CoTaskMemRealloc@8  100202c8     ole32:ole32.dll
 0002:000002cc       __imp__CoTaskMemFree@4     100202cc     ole32:ole32.dll
 0002:000002d0       __imp__ReadClassStm@8      100202d0     ole32:ole32.dll
 0002:000002d4       __imp__WriteClassStm@8     100202d4     ole32:ole32.dll
 0002:000002d8       __imp__CreateDataAdviseHolder@4 100202d8     ole32:ole32.dll
 0002:000002dc       __imp__OleSaveToStream@8   100202dc     ole32:ole32.dll
 0002:000002e0       __imp__CreateOleAdviseHolder@4 100202e0     ole32:ole32.dll
 0002:000002e4       __imp__OleRegGetUserType@12 100202e4     ole32:ole32.dll
 0002:000002e8       __imp__OleRegGetMiscStatus@12 100202e8     ole32:ole32.dll
 0002:000002ec       __imp__OleRegEnumVerbs@8   100202ec     ole32:ole32.dll
 0002:000002f0       __imp__CLSIDFromProgID@8   100202f0     ole32:ole32.dll
 0002:000002f4       __imp__CoCreateInstance@20 100202f4     ole32:ole32.dll
 0002:000002f8       \177ole32_NULL_THUNK_DATA  100202f8     ole32:ole32.dll
 0002:000002fc       ___guard_check_icall_fptr  100202fc     LIBCMT:guard_support.obj
 0002:00000300       ___xc_a                    10020300     LIBCMT:initializers.obj
 0002:00000318       ___xc_z                    10020318     LIBCMT:initializers.obj
 0002:0000031c       ___xi_a                    1002031c     LIBCMT:initializers.obj
 0002:00000324       ___acrt_stdio_initializer  10020324     libucrt:stdio_initializer.obj
 0002:00000328       ___acrt_multibyte_initializer 10020328     libucrt:multibyte_initializer.obj
 0002:0000032c       ___acrt_tran_sse2_initializer 1002032c     libucrt:sse2_initializer.obj
 0002:00000330       ___xi_z                    10020330     LIBCMT:initializers.obj
 0002:00000334       ___xl_a                    10020334     LIBCMT:tlssup.obj
 0002:00000338       ___xl_z                    10020338     LIBCMT:tlssup.obj
 0002:0000033c       ___xp_a                    1002033c     LIBCMT:initializers.obj
 0002:00000340       ___acrt_locale_terminator  10020340     libucrt:locale_initializer.obj
 0002:00000344       ___dcrt_console_output_terminator 10020344     libucrt:console_output_initializer.obj
 0002:00000348       ___acrt_stdio_terminator   10020348     libucrt:stdio_initializer.obj
 0002:0000034c       ___xp_z                    1002034c     LIBCMT:initializers.obj
 0002:00000350       ___xt_a                    10020350     LIBCMT:initializers.obj
 0002:00000354       ___xt_z                    10020354     LIBCMT:initializers.obj
 0002:00000360       ??_C@_13HADIAKP@?$AAS@     10020360     OposVariant.obj
 0002:00000364       ??_C@_13LHMFKAAD@?$AAM@    10020364     OposVariant.obj
 0002:00000368       ??_C@_13MKMNOPIJ@?$AAD@    10020368     OposVariant.obj
 0002:0000036c       ??_C@_13OPKGLAFF@?$AAB@    1002036c     OposVariant.obj
 0002:00000370       ??_C@_17LLMMEOJD@?$AAV?$AAa?$AAl@ 10020370     OposVariant.obj
 0002:00000378       ??_C@_1BI@JFAIJMHL@?$AAF?$AAo?$AAr?$AAc?$AAe?$AAR?$AAe?$AAm?$AAo?$AAv?$AAe@ 10020378     OposVariant.obj
 0002:00000390       ??_C@_1BC@GCKHIPE@?$AAN?$AAo?$AAR?$AAe?$AAm?$AAo?$AAv?$AAe@ 10020390     OposVariant.obj
 0002:000003a4       ??_C@_1O@JDLOHAN@?$AAD?$AAe?$AAl?$AAe?$AAt?$AAe@ 100203a4     OposVariant.obj
 0002:000003b4       ??_C@_11LOCGONAA@@         100203b4     OposVariant.obj
 0002:000003b8       ??_7CComClassFactory@ATL@@6B@ 100203b8     SigCap.obj
 0002:000003d0       ?_entries@?1??_GetEntries@CComClassFactory@ATL@@SGPBU_ATL_INTMAP_ENTRY@3@XZ@4QBU43@B 100203d0     SigCap.obj
 0002:000003e8       __GUID_00000001_0000_0000_c000_000000000046 100203e8     SigCap.obj
 0002:000003f8       _IID_IOPOSSigCap_1_5       100203f8     SigCap.obj
 0002:00000408       _IID_IOPOSSigCap_1_8       10020408     SigCap.obj
 0002:00000418       _IID_IOPOSSigCap_1_9       10020418     SigCap.obj
 0002:00000428       _IID_IOPOSSigCap_1_10      10020428     SigCap.obj
 0002:00000438       _IID_IOPOSSigCap           10020438     SigCap.obj
 0002:00000448       _LIBID_OposSigCap_CCO      10020448     SigCap.obj
 0002:00000458       _DIID__IOPOSSigCapEvents   10020458     SigCap.obj
 0002:00000468       _CLSID_OPOSSigCap          10020468     SigCap.obj
 0002:00000478       ??_C@_1BK@BIGILECK@?$AAA?$AAd?$AAv?$AAa?$AAp?$AAi?$AA3?$AA2?$AA?4?$AAd?$AAl?$AAl@ 10020478     SigCap.obj
 0002:00000494       __GUID_00000114_0000_0000_c000_000000000046 10020494     SigCap.obj
 0002:000004a4       ??_C@_0BI@MNCFCPFK@RegCreateKeyTransactedW@ 100204a4     SigCap.obj
 0002:000004bc       __GUID_b196b287_bab4_101a_b69c_00aa00341d07 100204bc     SigCap.obj
 0002:000004cc       __GUID_b196b285_bab4_101a_b69c_00aa00341d07 100204cc     SigCap.obj
 0002:000004dc       __GUID_a6bc3ac0_dbaa_11ce_9de3_00aa004bb851 100204dc     SigCap.obj
 0002:000004ec       __GUID_0000010c_0000_0000_c000_000000000046 100204ec     SigCap.obj
 0002:000004fc       __GUID_00000146_0000_0000_c000_000000000046 100204fc     SigCap.obj
 0002:00000510       ?_entries@?1??_GetEntries@COPOSSigCap@@SGPBU_ATL_INTMAP_ENTRY@ATL@@XZ@4QBU34@B 10020510     SigCap.obj
 0002:00000654       __GUID_cf51ed10_62fe_11cf_bf86_00a0c9034836 10020654     SigCap.obj
 0002:00000664       __GUID_0000010a_0000_0000_c000_000000000046 10020664     SigCap.obj
 0002:00000674       __GUID_b196b283_bab4_101a_b69c_00aa00341d07 10020674     SigCap.obj
 0002:00000684       __GUID_cb5bdc81_93c1_11cf_8f20_00805f2cd064 10020684     SigCap.obj
 0002:00000698       ?pPropMap@?1??GetPropertyMap@COPOSSigCap@@SAPBUATL_PROPMAP_ENTRY@ATL@@XZ@4QBU34@B 10020698     SigCap.obj
 0002:00000704       ??_C@_17DGDADEHL@?$AA_?$AAc?$AAx@ 10020704     SigCap.obj
 0002:0000070c       ??_C@_17IOIMFDBO@?$AA_?$AAc?$AAy@ 1002070c     SigCap.obj
 0002:00000714       ??_7CComModule@ATL@@6B@    10020714     SigCap.obj
 0002:0000073c       __GUID_922eada0_3424_11cf_b670_00aa004cd6d8 1002073c     SigCap.obj
 0002:0000074c       __GUID_9c2cad80_3424_11cf_b670_00aa004cd6d8 1002074c     SigCap.obj
 0002:0000075c       __GUID_00000119_0000_0000_c000_000000000046 1002075c     SigCap.obj
 0002:0000076c       __GUID_b196b289_bab4_101a_b69c_00aa00341d07 1002076c     SigCap.obj
 0002:0000077c       __GUID_00000000_0000_0000_c000_000000000046 1002077c     SigCap.obj
 0002:0000078c       __GUID_00020400_0000_0000_c000_000000000046 1002078c     SigCap.obj
 0002:0000079c       ??_7?$CComObjectCached@VCComClassFactory@ATL@@@ATL@@6B@ 1002079c     SigCap.obj
 0002:000007b4       ??_C@_1CE@PGFMOFKI@?$AAS?$AAt?$AAa?$AAt?$AAu?$AAs?$AAU?$AAp?$AAd?$AAa?$AAt?$AAe?$AAE?$AAv?$AAe@ 100207b4     SigCap.obj
 0002:000007d8       ??_C@_1BG@LODEBHDD@?$AAE?$AAr?$AAr?$AAo?$AAr?$AAE?$AAv?$AAe?$AAn?$AAt@ 100207d8     SigCap.obj
 0002:000007f0       ??_C@_1BM@CBGEBBBJ@?$AAD?$AAi?$AAr?$AAe?$AAc?$AAt?$AAI?$AAO?$AAE?$AAv?$AAe?$AAn?$AAt@ 100207f0     SigCap.obj
 0002:0000080c       ??_C@_1BE@IEBMACEM@?$AAD?$AAa?$AAt?$AAa?$AAE?$AAv?$AAe?$AAn?$AAt@ 1002080c     SigCap.obj
 0002:00000820       __GUID_b196b286_bab4_101a_b69c_00aa00341d07 10020820     SigCap.obj
 0002:00000830       __GUID_00000117_0000_0000_c000_000000000046 10020830     SigCap.obj
 0002:00000840       ??_C@_1BC@ENICKDH@?$AAC?$AAo?$AAn?$AAt?$AAe?$AAn?$AAt?$AAs@ 10020840     SigCap.obj
 0002:00000854       ??_7?$CComObject@V?$CComEnum@UIEnumConnectionPoints@@$1?_GUID_b196b285_bab4_101a_b69c_00aa00341d07@@3U__s_GUID@@BPAUIConnectionPoint@@V?$_CopyInterface@UIConnectionPoint@@@ATL@@VCComSingleThreadModel@6@@ATL@@@ATL@@6B@ 10020854     SigCap.obj
 0002:00000874       ??_C@_1M@KANJNLFF@?$AAC?$AAL?$AAS?$AAI?$AAD@ 10020874     SigCap.obj
 0002:00000880       ??_C@_1M@EJNEECMJ@?$AAA?$AAp?$AAp?$AAI?$AAD@ 10020880     SigCap.obj
 0002:0000088c       __GUID_0000010e_0000_0000_c000_000000000046 1002088c     SigCap.obj
 0002:0000089c       __GUID_b196b288_bab4_101a_b69c_00aa00341d07 1002089c     SigCap.obj
 0002:000008ac       ?rgszNeverDelete@CRegParser@ATL@@1QBQB_WB 100208ac     SigCap.obj
 0002:000008dc       ??_7CRegObject@ATL@@6B@    100208dc     SigCap.obj
 0002:000008f4       __GUID_00000113_0000_0000_c000_000000000046 100208f4     SigCap.obj
 0002:00000904       __GUID_1c2056cc_5ef4_101b_8bc8_00aa003e3b29 10020904     SigCap.obj
 0002:00000914       ??_C@_1CK@OEKPKBNA@?$AAC?$AAo?$AAm?$AAp?$AAo?$AAn?$AAe?$AAn?$AAt?$AA?5?$AAC?$AAa?$AAt?$AAe?$AAg@ 10020914     SigCap.obj
 0002:00000940       ??_C@_1BC@NKMMNMGL@?$AAF?$AAi?$AAl?$AAe?$AAT?$AAy?$AAp?$AAe@ 10020940     SigCap.obj
 0002:00000954       ??_C@_1BE@EKPAFMCP@?$AAI?$AAn?$AAt?$AAe?$AAr?$AAf?$AAa?$AAc?$AAe@ 10020954     SigCap.obj
 0002:00000968       ??_C@_1BC@MAICEHGI@?$AAH?$AAa?$AAr?$AAd?$AAw?$AAa?$AAr?$AAe@ 10020968     SigCap.obj
 0002:0000097c       ??_C@_19HLLLM@?$AAM?$AAi?$AAm?$AAe@ 1002097c     SigCap.obj
 0002:00000988       ??_C@_17OMAOINJK@?$AAS?$AAA?$AAM@ 10020988     SigCap.obj
 0002:00000990       ??_C@_1BC@IBECJAAI@?$AAS?$AAE?$AAC?$AAU?$AAR?$AAI?$AAT?$AAY@ 10020990     SigCap.obj
 0002:000009a4       ??_C@_1O@GBFINDKL@?$AAS?$AAY?$AAS?$AAT?$AAE?$AAM@ 100209a4     SigCap.obj
 0002:000009b4       ??_C@_1BC@EAHCMADO@?$AAS?$AAo?$AAf?$AAt?$AAw?$AAa?$AAr?$AAe@ 100209b4     SigCap.obj
 0002:000009c8       ??_C@_1BA@JIHHIEDE@?$AAT?$AAy?$AAp?$AAe?$AAL?$AAi?$AAb@ 100209c8     SigCap.obj
 0002:000009d8       ?map@?1??HKeyFromString@CRegParser@ATL@@KAPAUHKEY__@@PA_W@Z@4QBUkeymap@?1??123@KAPAU4@0@Z@B 100209d8     SigCap.obj
 0002:00000a48       ??_C@_19NCHLBIN@?$AAH?$AAK?$AAC?$AAR@ 10020a48     SigCap.obj
 0002:00000a54       ??_C@_19JAPAIJDE@?$AAH?$AAK?$AAC?$AAU@ 10020a54     SigCap.obj
 0002:00000a60       ??_C@_19PEALEEJB@?$AAH?$AAK?$AAL?$AAM@ 10020a60     SigCap.obj
 0002:00000a6c       ??_C@_17PJOJPMPB@?$AAH?$AAK?$AAU@ 10020a6c     SigCap.obj
 0002:00000a74       ??_C@_19PNBHMJPL@?$AAH?$AAK?$AAP?$AAD@ 10020a74     SigCap.obj
 0002:00000a80       ??_C@_19GFFAIJHG@?$AAH?$AAK?$AAD?$AAD@ 10020a80     SigCap.obj
 0002:00000a8c       ??_C@_19OFICIBHH@?$AAH?$AAK?$AAC?$AAC@ 10020a8c     SigCap.obj
 0002:00000a98       ??_C@_1CE@PACHPJFI@?$AAH?$AAK?$AAE?$AAY?$AA_?$AAC?$AAL?$AAA?$AAS?$AAS?$AAE?$AAS?$AA_?$AAR?$AAO@ 10020a98     SigCap.obj
 0002:00000abc       ??_C@_1CE@HLHNCBPM@?$AAH?$AAK?$AAE?$AAY?$AA_?$AAC?$AAU?$AAR?$AAR?$AAE?$AAN?$AAT?$AA_?$AAU?$AAS@ 10020abc     SigCap.obj
 0002:00000ae0       ??_C@_1CG@GFBEANJL@?$AAH?$AAK?$AAE?$AAY?$AA_?$AAL?$AAO?$AAC?$AAA?$AAL?$AA_?$AAM?$AAA?$AAC?$AAH@ 10020ae0     SigCap.obj
 0002:00000b08       ??_C@_1BG@BGODANIO@?$AAH?$AAK?$AAE?$AAY?$AA_?$AAU?$AAS?$AAE?$AAR?$AAS@ 10020b08     SigCap.obj
 0002:00000b20       ??_C@_1CM@KHNNAOIC@?$AAH?$AAK?$AAE?$AAY?$AA_?$AAP?$AAE?$AAR?$AAF?$AAO?$AAR?$AAM?$AAA?$AAN?$AAC@ 10020b20     SigCap.obj
 0002:00000b4c       ??_C@_1BM@HAGMMHIA@?$AAH?$AAK?$AAE?$AAY?$AA_?$AAD?$AAY?$AAN?$AA_?$AAD?$AAA?$AAT?$AAA@ 10020b4c     SigCap.obj
 0002:00000b68       ??_C@_1CI@BBJOACGG@?$AAH?$AAK?$AAE?$AAY?$AA_?$AAC?$AAU?$AAR?$AAR?$AAE?$AAN?$AAT?$AA_?$AAC?$AAO@ 10020b68     SigCap.obj
 0002:00000b90       __GUID_00000109_0000_0000_c000_000000000046 10020b90     SigCap.obj
 0002:00000ba0       __GUID_7fd52380_4e07_101b_ae2d_08002b2ec713 10020ba0     SigCap.obj
 0002:00000bb0       __GUID_00000112_0000_0000_c000_000000000046 10020bb0     SigCap.obj
 0002:00000bc0       __GUID_3af24292_0c96_11ce_a0cf_00aa00600ab8 10020bc0     SigCap.obj
 0002:00000bd0       __GUID_00000127_0000_0000_c000_000000000046 10020bd0     SigCap.obj
 0002:00000be0       __GUID_0000010d_0000_0000_c000_000000000046 10020be0     SigCap.obj
 0002:00000bf0       ??_C@_1EA@NHKLICFA@?$AAH?$AAK?$AAC?$AAU?$AA?$AN?$AA?6?$AA?$HL?$AA?7?$AAS?$AAo?$AAf?$AAt?$AAw?$AAa?$AAr@ 10020bf0     SigCap.obj
 0002:00000c30       ??_C@_1BE@LJOLIMEM@?$AA?$AN?$AA?6?$AA?7?$AA?$HN?$AA?$AN?$AA?6?$AA?$HN?$AA?$AN?$AA?6@ 10020c30     SigCap.obj
 0002:00000c44       ??_C@_1M@PPPPCDEP@?$AAA?$AAP?$AAP?$AAI?$AAD@ 10020c44     SigCap.obj
 0002:00000c50       ??_C@_1O@MNLDABAF@?$AAM?$AAo?$AAd?$AAu?$AAl?$AAe@ 10020c50     SigCap.obj
 0002:00000c60       ??_C@_1BG@JBACFMF@?$AAM?$AAo?$AAd?$AAu?$AAl?$AAe?$AA_?$AAR?$AAa?$AAw@ 10020c60     SigCap.obj
 0002:00000c78       ??_C@_1BC@KAILKFFG@?$AAR?$AAE?$AAG?$AAI?$AAS?$AAT?$AAR?$AAY@ 10020c78     SigCap.obj
 0002:00000c8c       ??_7?$CComContainedObject@VCOPOSSigCap@@@ATL@@6B?$IDispatchImpl@UIOPOSSigCap@@$1?IID_IOPOSSigCap@@3U_GUID@@B$1?LIBID_OposSigCap_CCO@@3U3@B$00$0A@VCComTypeInfoHolder@ATL@@@1@@ 10020c8c     SigCap.obj
 0002:00000da0       ??_7?$CComContainedObject@VCOPOSSigCap@@@ATL@@6BCComControlBase@1@@ 10020da0     SigCap.obj
 0002:00000db4       ??_7?$CComContainedObject@VCOPOSSigCap@@@ATL@@6B?$CWindowImpl@VCOPOSSigCap@@VCWindow@ATL@@V?$CWinTraits@$0FGAAAAAA@$0A@@3@@1@@ 10020db4     SigCap.obj
 0002:00000dc4       ??_7?$CComContainedObject@VCOPOSSigCap@@@ATL@@6B?$IPersistStreamInitImpl@VCOPOSSigCap@@@1@@ 10020dc4     SigCap.obj
 0002:00000de8       ??_7?$CComContainedObject@VCOPOSSigCap@@@ATL@@6B?$IOleControlImpl@VCOPOSSigCap@@@1@@ 10020de8     SigCap.obj
 0002:00000e04       ??_7?$CComContainedObject@VCOPOSSigCap@@@ATL@@6B?$IOleObjectImpl@VCOPOSSigCap@@@1@@ 10020e04     SigCap.obj
 0002:00000e64       ??_7?$CComContainedObject@VCOPOSSigCap@@@ATL@@6B?$IOleInPlaceActiveObjectImpl@VCOPOSSigCap@@@1@@ 10020e64     SigCap.obj
 0002:00000e8c       ??_7?$CComContainedObject@VCOPOSSigCap@@@ATL@@6B?$IViewObjectExImpl@VCOPOSSigCap@@@1@@ 10020e8c     SigCap.obj
 0002:00000ec8       ??_7?$CComContainedObject@VCOPOSSigCap@@@ATL@@6B?$IOleInPlaceObjectWindowlessImpl@VCOPOSSigCap@@@1@@ 10020ec8     SigCap.obj
 0002:00000ef4       ??_7?$CComContainedObject@VCOPOSSigCap@@@ATL@@6B?$IConnectionPointContainerImpl@VCOPOSSigCap@@@1@@ 10020ef4     SigCap.obj
 0002:00000f08       ??_7?$CComContainedObject@VCOPOSSigCap@@@ATL@@6B?$IPersistStorageImpl@VCOPOSSigCap@@@1@@ 10020f08     SigCap.obj
 0002:00000f30       ??_7?$CComContainedObject@VCOPOSSigCap@@@ATL@@6B?$ISpecifyPropertyPagesImpl@VCOPOSSigCap@@@1@@ 10020f30     SigCap.obj
 0002:00000f40       ??_7?$CComContainedObject@VCOPOSSigCap@@@ATL@@6B?$IQuickActivateImpl@VCOPOSSigCap@@@1@@ 10020f40     SigCap.obj
 0002:00000f58       ??_7?$CComContainedObject@VCOPOSSigCap@@@ATL@@6B?$IDataObjectImpl@VCOPOSSigCap@@@1@@ 10020f58     SigCap.obj
 0002:00000f88       ??_7?$CComContainedObject@VCOPOSSigCap@@@ATL@@6B?$IProvideClassInfo2Impl@$1?CLSID_OPOSSigCap@@3U_GUID@@B$1?DIID__IOPOSSigCapEvents@@3U2@B$1?LIBID_OposSigCap_CCO@@3U2@B$00$0A@VCComTypeInfoHolder@ATL@@@1@@ 10020f88     SigCap.obj
 0002:00000f9c       ??_7?$CComContainedObject@VCOPOSSigCap@@@ATL@@6B?$IObjectSafetyImpl@VCOPOSSigCap@@$02@1@@ 10020f9c     SigCap.obj
 0002:00000fb4       ??_7?$CComContainedObject@VCOPOSSigCap@@@ATL@@6B?$IPropertyNotifySinkCP@VCOPOSSigCap@@VCComDynamicUnkArray@ATL@@@1@@ 10020fb4     SigCap.obj
 0002:00000fd4       ??_7?$CComContainedObject@VCOPOSSigCap@@@ATL@@6B?$CProxy_IOPOSEvents@VCOPOSSigCap@@@@@ 10020fd4     SigCap.obj
 0002:00000ff4       ??_7?$CComAggObject@VCOPOSSigCap@@@ATL@@6B@ 10020ff4     SigCap.obj
 0002:00001004       ??_7?$CComObject@VCOPOSSigCap@@@ATL@@6B?$IDispatchImpl@UIOPOSSigCap@@$1?IID_IOPOSSigCap@@3U_GUID@@B$1?LIBID_OposSigCap_CCO@@3U3@B$00$0A@VCComTypeInfoHolder@ATL@@@1@@ 10021004     SigCap.obj
 0002:00001118       ??_7?$CComObject@VCOPOSSigCap@@@ATL@@6BCComControlBase@1@@ 10021118     SigCap.obj
 0002:0000112c       ??_7?$CComObject@VCOPOSSigCap@@@ATL@@6B?$CWindowImpl@VCOPOSSigCap@@VCWindow@ATL@@V?$CWinTraits@$0FGAAAAAA@$0A@@3@@1@@ 1002112c     SigCap.obj
 0002:0000113c       ??_7?$CComObject@VCOPOSSigCap@@@ATL@@6B?$IPersistStreamInitImpl@VCOPOSSigCap@@@1@@ 1002113c     SigCap.obj
 0002:00001160       ??_7?$CComObject@VCOPOSSigCap@@@ATL@@6B?$IOleControlImpl@VCOPOSSigCap@@@1@@ 10021160     SigCap.obj
 0002:0000117c       ??_7?$CComObject@VCOPOSSigCap@@@ATL@@6B?$IOleObjectImpl@VCOPOSSigCap@@@1@@ 1002117c     SigCap.obj
 0002:000011dc       ??_7?$CComObject@VCOPOSSigCap@@@ATL@@6B?$IOleInPlaceActiveObjectImpl@VCOPOSSigCap@@@1@@ 100211dc     SigCap.obj
 0002:00001204       ??_7?$CComObject@VCOPOSSigCap@@@ATL@@6B?$IViewObjectExImpl@VCOPOSSigCap@@@1@@ 10021204     SigCap.obj
 0002:00001240       ??_7?$CComObject@VCOPOSSigCap@@@ATL@@6B?$IOleInPlaceObjectWindowlessImpl@VCOPOSSigCap@@@1@@ 10021240     SigCap.obj
 0002:0000126c       ??_7?$CComObject@VCOPOSSigCap@@@ATL@@6B?$IConnectionPointContainerImpl@VCOPOSSigCap@@@1@@ 1002126c     SigCap.obj
 0002:00001280       ??_7?$CComObject@VCOPOSSigCap@@@ATL@@6B?$IPersistStorageImpl@VCOPOSSigCap@@@1@@ 10021280     SigCap.obj
 0002:000012a8       ??_7?$CComObject@VCOPOSSigCap@@@ATL@@6B?$ISpecifyPropertyPagesImpl@VCOPOSSigCap@@@1@@ 100212a8     SigCap.obj
 0002:000012b8       ??_7?$CComObject@VCOPOSSigCap@@@ATL@@6B?$IQuickActivateImpl@VCOPOSSigCap@@@1@@ 100212b8     SigCap.obj
 0002:000012d0       ??_7?$CComObject@VCOPOSSigCap@@@ATL@@6B?$IDataObjectImpl@VCOPOSSigCap@@@1@@ 100212d0     SigCap.obj
 0002:00001300       ??_7?$CComObject@VCOPOSSigCap@@@ATL@@6B?$IProvideClassInfo2Impl@$1?CLSID_OPOSSigCap@@3U_GUID@@B$1?DIID__IOPOSSigCapEvents@@3U2@B$1?LIBID_OposSigCap_CCO@@3U2@B$00$0A@VCComTypeInfoHolder@ATL@@@1@@ 10021300     SigCap.obj
 0002:00001314       ??_7?$CComObject@VCOPOSSigCap@@@ATL@@6B?$IObjectSafetyImpl@VCOPOSSigCap@@$02@1@@ 10021314     SigCap.obj
 0002:0000132c       ??_7?$CComObject@VCOPOSSigCap@@@ATL@@6B?$IPropertyNotifySinkCP@VCOPOSSigCap@@VCComDynamicUnkArray@ATL@@@1@@ 1002132c     SigCap.obj
 0002:0000134c       ??_7?$CComObject@VCOPOSSigCap@@@ATL@@6B?$CProxy_IOPOSEvents@VCOPOSSigCap@@@@@ 1002134c     SigCap.obj
 0002:0000136c       ??_C@_1O@GBFKGNEO@?$AAA?$AAT?$AAL?$AA?3?$AA?$CF?$AAp@ 1002136c     SigCap.obj
 0002:0000137c       ??_C@_1BA@PICGEGJB@?$AAD?$AAI?$AAS?$AAP?$AAL?$AAA?$AAY@ 1002137c     SigCap.obj
 0002:0000138c       __GUID_9bfbbc02_eff1_101a_84ed_00aa00341d07 1002138c     SigCap.obj
 0002:0000139c       __GUID_b196b284_bab4_101a_b69c_00aa00341d07 1002139c     SigCap.obj
 0002:000013ac       ?_entries@?1??_GetEntries@?$CComEnum@UIEnumConnectionPoints@@$1?_GUID_b196b285_bab4_101a_b69c_00aa00341d07@@3U__s_GUID@@BPAUIConnectionPoint@@V?$_CopyInterface@UIConnectionPoint@@@ATL@@VCComSingleThreadModel@6@@ATL@@SGPBU_ATL_INTMAP_ENTRY@3@XZ@4QBU43@B 100213ac     SigCap.obj
 0002:000013c4       __GUID_00020412_0000_0000_c000_000000000046 100213c4     SigCap.obj
 0002:000013d4       __GUID_00020401_0000_0000_c000_000000000046 100213d4     SigCap.obj
 0002:000013e4       ??_7?$CComObject@V?$CComEnum@UIEnumConnections@@$1?_GUID_b196b287_bab4_101a_b69c_00aa00341d07@@3U__s_GUID@@BUtagCONNECTDATA@@V?$_Copy@UtagCONNECTDATA@@@ATL@@VCComSingleThreadModel@6@@ATL@@@ATL@@6B@ 100213e4     SigCap.obj
 0002:00001404       __GUID_55980ba0_35aa_11cf_b671_00aa004cd6d8 10021404     SigCap.obj
 0002:00001414       __GUID_b196b28b_bab4_101a_b69c_00aa00341d07 10021414     SigCap.obj
 0002:00001424       ?_entries@?1??_GetEntries@?$CComEnum@UIEnumConnections@@$1?_GUID_b196b287_bab4_101a_b69c_00aa00341d07@@3U__s_GUID@@BUtagCONNECTDATA@@V?$_Copy@UtagCONNECTDATA@@@ATL@@VCComSingleThreadModel@6@@ATL@@SGPBU_ATL_INTMAP_ENTRY@3@XZ@4QBU43@B 10021424     SigCap.obj
 0002:0000143c       ??_C@_0BG@EKFFMJIO@RegOpenKeyTransactedW@ 1002143c     SigCap.obj
 0002:00001454       ??_C@_0BI@HAKLOOGP@RegDeleteKeyTransactedW@ 10021454     SigCap.obj
 0002:0000146c       ??_C@_0BA@LILAPHGE@RegDeleteKeyExW@ 1002146c     SigCap.obj
 0002:0000147c       ??_C@_19ILOCMLCJ@?$AA?4?$AAt?$AAl?$AAb@ 1002147c     SigCap.obj
 0002:00001488       __GUID_0002e012_0000_0000_c000_000000000046 10021488     SigCap.obj
 0002:00001498       ??_C@_1O@FHBGLCIO@?$AAC?$AAL?$AAS?$AAI?$AAD?$AA?2@ 10021498     SigCap.obj
 0002:000014a8       ??_C@_1CK@IFBKBFAA@?$AA?2?$AAR?$AAe?$AAq?$AAu?$AAi?$AAr?$AAe?$AAd?$AA?5?$AAC?$AAa?$AAt?$AAe?$AAg@ 100214a8     SigCap.obj
 0002:000014d4       ??_C@_1DA@BIHALFED@?$AA?2?$AAI?$AAm?$AAp?$AAl?$AAe?$AAm?$AAe?$AAn?$AAt?$AAe?$AAd?$AA?5?$AAC?$AAa@ 100214d4     SigCap.obj
 0002:00001504       ??_C@_1BK@EDKOLFBJ@?$AAO?$AAL?$AAE?$AAA?$AAU?$AAT?$AA3?$AA2?$AA?4?$AAD?$AAL?$AAL@ 10021504     SigCap.obj
 0002:00001520       ??_C@_0BJ@CNLFOMHB@UnRegisterTypeLibForUser@ 10021520     SigCap.obj
 0002:0000153c       ??_C@_0BH@LBOMMKPJ@RegisterTypeLibForUser@ 1002153c     SigCap.obj
 0002:00001554       ??_C@_0P@MMNMMLGK@COFreezeEvents@ 10021554     SigCapImpl.obj
 0002:00001564       ??_C@_0BC@OGCGGIMP@GetPropertyNumber@ 10021564     SigCapImpl.obj
 0002:00001578       ??_C@_0BC@MDCNODNB@SetPropertyNumber@ 10021578     SigCapImpl.obj
 0002:0000158c       ??_C@_0BC@CFCCMIMD@GetPropertyString@ 1002158c     SigCapImpl.obj
 0002:000015a0       ??_C@_0BC@CJEDNN@SetPropertyString@ 100215a0     SigCapImpl.obj
 0002:000015b4       ??_C@_0M@LNPKKKDA@OpenService@ 100215b4     SigCapImpl.obj
 0002:000015c0       ??_C@_0M@PCMCHHMH@CheckHealth@ 100215c0     SigCapImpl.obj
 0002:000015cc       ??_C@_0M@JGMIDNEK@ClaimDevice@ 100215cc     SigCapImpl.obj
 0002:000015d8       ??_C@_0L@BNEIFEJC@ClearInput@ 100215d8     SigCapImpl.obj
 0002:000015e4       ??_C@_0N@DDFIIBMP@CloseService@ 100215e4     SigCapImpl.obj
 0002:000015f4       ??_C@_08EEIHICPC@DirectIO@ 100215f4     SigCapImpl.obj
 0002:00001600       ??_C@_0O@BCPMENMJ@ReleaseDevice@ 10021600     SigCapImpl.obj
 0002:00001610       ??_C@_0N@MDKKMKFB@BeginCapture@ 10021610     SigCapImpl.obj
 0002:00001620       ??_C@_0L@GDHLKFDG@EndCapture@ 10021620     SigCapImpl.obj
 0002:0000162c       ??_C@_0BA@GFABKEEE@ResetStatistics@ 1002162c     SigCapImpl.obj
 0002:0000163c       ??_C@_0BD@DPALHJGC@RetrieveStatistics@ 1002163c     SigCapImpl.obj
 0002:00001650       ??_C@_0BB@KOHIKNFC@UpdateStatistics@ 10021650     SigCapImpl.obj
 0002:00001664       ??_C@_0BH@PBKBNMGB@CompareFirmwareVersion@ 10021664     SigCapImpl.obj
 0002:0000167c       ??_C@_0P@FBPDPIPA@UpdateFirmware@ 1002167c     SigCapImpl.obj
 0002:0000168c       ??_C@_0BF@CMAPCJGM@ClearInputProperties@ 1002168c     SigCapImpl.obj
 0002:000016a4       ??_7?$CProxy_IOPOSEvents@VCOPOSSigCap@@@@6B@ 100216a4     SigCapImpl.obj
 0002:000016c4       ??_C@_1BA@IFHENID@?$AA?$FL?$AAE?$AAr?$AAr?$AAo?$AAr?$AA?$FN@ 100216c4     SigCapImpl.obj
 0002:000016d4       ??_C@_0DD@KBDEGKEA@SOFTWARE?2OLEforRetail?2ServiceOP@ 100216d4     SigCapImpl.obj
 0002:00001708       ??_C@_1M@IAIJHCCH@?$AAC?$AAl?$AAo?$AAs?$AAe@ 10021708     SigCapImpl.obj
 0002:00001714       ??_C@_1M@PCPKGJAH@?$AAC?$AAl?$AAa?$AAi?$AAm@ 10021714     SigCapImpl.obj
 0002:00001720       ??_C@_1BA@NDFKIOCP@?$AAR?$AAe?$AAl?$AAe?$AAa?$AAs?$AAe@ 10021720     SigCapImpl.obj
 0002:00001730       ??_C@_0BB@FEHHNGAK@SignatureCapture@ 10021730     SigCapImpl.obj
 0002:00001744       ??_C@_1BM@IJMNMBPK@?$AAG?$AAe?$AAt?$AAO?$AAp?$AAe?$AAn?$AAR?$AAe?$AAs?$AAu?$AAl?$AAt@ 10021744     SigCapImpl.obj
 0002:00001760       _IID_IPropertyNotifySink   10021760     uuid:ocidl_i.obj
 0002:00001770       _GUID_NULL                 10021770     uuid:cguid_i.obj
 0002:00001780       _CLSID_StdGlobalInterfaceTable 10021780     uuid:cguid_i.obj
 0002:00001790       _IID_IDispatch             10021790     uuid:oaidl_i.obj
 0002:000017a0       _CLSID_StdComponentCategoriesMgr 100217a0     uuid:ieguids.obj
 0002:000017b0       _IID_IUnknown              100217b0     uuid:unknwn_i.obj
 0002:000017c0       ??_C@_1EC@JIJBPKFM@?$AAa?$AAp?$AAi?$AA?9?$AAm?$AAs?$AA?9?$AAw?$AAi?$AAn?$AA?9?$AAc?$AAo?$AAr?$AAe@ 100217c0     LIBCMT:thread_safe_statics.obj
 0002:00001804       ??_C@_1BK@MGMFAEKH@?$AAk?$AAe?$AAr?$AAn?$AAe?$AAl?$AA3?$AA2?$AA?4?$AAd?$AAl?$AAl@ 10021804     LIBCMT:thread_safe_statics.obj
 0002:00001820       ??_C@_0BJ@JEBJOJFJ@SleepConditionVariableCS@ 10021820     LIBCMT:thread_safe_statics.obj
 0002:0000183c       ??_C@_0BJ@PGPPEPCC@WakeAllConditionVariable@ 1002183c     LIBCMT:thread_safe_statics.obj
 0002:00001855       ?nothrow@std@@3Unothrow_t@1@B 10021855     LIBCMT:std_nothrow.obj
 0002:00001860       __pRawDllMain              10021860     LIBCMT:dll_dllmain.obj
 0002:00001860       __pDefaultRawDllMain       10021860     LIBCMT:dll_dllmain.obj
 0002:00001868       ??_7exception@std@@6B@     10021868     LIBCMT:throw_bad_alloc.obj
 0002:00001870       ??_C@_0BC@EOODALEL@Unknown?5exception@ 10021870     LIBCMT:throw_bad_alloc.obj
 0002:00001888       ??_7bad_alloc@std@@6B@     10021888     LIBCMT:throw_bad_alloc.obj
 0002:00001890       ??_C@_0P@GHFPNOJB@bad?5allocation@ 10021890     LIBCMT:throw_bad_alloc.obj
 0002:000018a4       ??_7bad_array_new_length@std@@6B@ 100218a4     LIBCMT:throw_bad_alloc.obj
 0002:000018ac       ??_C@_0BF@KINCDENJ@bad?5array?5new?5length@ 100218ac     LIBCMT:throw_bad_alloc.obj
 0002:000018c8       ??_7type_info@@6B@         100218c8     LIBCMT:std_type_info_static.obj
 0002:000018cc       _GUID_ATLVer110            100218cc     atls:atlbase.obj
 0002:000018e0       ??_C@_1IC@ONKHOIDK@?$AAE?$AAR?$AAR?$AAO?$AAR?$AA?5?$AA?3?$AA?5?$AAU?$AAn?$AAa?$AAb?$AAl?$AAe?$AA?5@ 100218e0     atls:atlbase.obj
 0002:00001964       ??_C@_0N@FJEPLCIH@atlthunk?4dll@ 10021964     atls:atlthunk.obj
 0002:00001974       ??_C@_0BG@GAKFHCBM@AtlThunk_AllocateData@ 10021974     atls:atlthunk.obj
 0002:0000198c       ??_C@_0BC@JKONFIAH@AtlThunk_InitData@ 1002198c     atls:atlthunk.obj
 0002:000019a0       ??_C@_0BE@IAOEELAK@AtlThunk_DataToCode@ 100219a0     atls:atlthunk.obj
 0002:000019b4       ??_C@_0BC@GBGKAIPI@AtlThunk_FreeData@ 100219b4     atls:atlthunk.obj
 0002:000019c8       __pDestructExceptionObject 100219c8     libvcruntime:ehhelpers.obj
 0002:000019d0       ??_7bad_exception@std@@6B@ 100219d0     libvcruntime:frame.obj
 0002:000019d8       ??_C@_0O@DPKOEFFH@bad?5exception@ 100219d8     libvcruntime:frame.obj
 0002:00001d68       ??_C@_08EHJDFFNH@__based?$CI@ 10021d68     libvcruntime:undname.obj
 0002:00001d74       ??_C@_07KOLFKCDI@__cdecl@  10021d74     libvcruntime:undname.obj
 0002:00001d7c       ??_C@_08GHMPAG@__pascal@   10021d7c     libvcruntime:undname.obj
 0002:00001d88       ??_C@_09IFJBGAPI@__stdcall@ 10021d88     libvcruntime:undname.obj
 0002:00001d94       ??_C@_0L@NPHFGOKO@__thiscall@ 10021d94     libvcruntime:undname.obj
 0002:00001da0       ??_C@_0L@JMKHOMEK@__fastcall@ 10021da0     libvcruntime:undname.obj
 0002:00001dac       ??_C@_0N@BCKKPABJ@__vectorcall@ 10021dac     libvcruntime:undname.obj
 0002:00001dbc       ??_C@_09HIJEGCPM@__clrcall@ 10021dbc     libvcruntime:undname.obj
 0002:00001dc8       ??_C@_06GHPCKEAG@__eabi@   10021dc8     libvcruntime:undname.obj
 0002:00001dd0       ??_C@_09IOPIDJLG@__swift_1@ 10021dd0     libvcruntime:undname.obj
 0002:00001ddc       ??_C@_09KFNFGKHF@__swift_2@ 10021ddc     libvcruntime:undname.obj
 0002:00001de8       ??_C@_07JOMMBBKO@__ptr64@  10021de8     libvcruntime:undname.obj
 0002:00001df0       ??_C@_0L@PILCLIHE@__restrict@ 10021df0     libvcruntime:undname.obj
 0002:00001dfc       ??_C@_0M@GFIIJFMG@__unaligned@ 10021dfc     libvcruntime:undname.obj
 0002:00001e08       ??_C@_09DHDLOLLB@restrict?$CI@ 10021e08     libvcruntime:undname.obj
 0002:00001e12       ??_C@_00CNPNBAHC@@         10021e12     libvcruntime:undname.obj
 0002:00001e14       ??_C@_04NIHEBCM@?5new@     10021e14     libvcruntime:undname.obj
 0002:00001e1c       ??_C@_07FPCDHGMM@?5delete@ 10021e1c     libvcruntime:undname.obj
 0002:00001e24       ??_C@_01NEMOKFLO@?$DN@     10021e24     libvcruntime:undname.obj
 0002:00001e28       ??_C@_02GPIOPFAK@?$DO?$DO@ 10021e28     libvcruntime:undname.obj
 0002:00001e2c       ??_C@_02FODMEDOG@?$DM?$DM@ 10021e2c     libvcruntime:undname.obj
 0002:00001e30       ??_C@_01DCLJPIOD@?$CB@     10021e30     libvcruntime:undname.obj
 0002:00001e34       ??_C@_02EGOFBIJA@?$DN?$DN@ 10021e34     libvcruntime:undname.obj
 0002:00001e38       ??_C@_02FDNJECIE@?$CB?$DN@ 10021e38     libvcruntime:undname.obj
 0002:00001e3c       ??_C@_02GPECMEKF@?$FL?$FN@ 10021e3c     libvcruntime:undname.obj
 0002:00001e40       ??_C@_08LHJFAFGD@operator@ 10021e40     libvcruntime:undname.obj
 0002:00001e4c       ??_C@_02HBOOOICD@?9?$DO@   10021e4c     libvcruntime:undname.obj
 0002:00001e50       ??_C@_01NBENCBCI@?$CK@     10021e50     libvcruntime:undname.obj
 0002:00001e54       ??_C@_02ECNGHCIF@?$CL?$CL@ 10021e54     libvcruntime:undname.obj
 0002:00001e58       ??_C@_02BAABKJLB@?9?9@     10021e58     libvcruntime:undname.obj
 0002:00001e5c       ??_C@_01JOAMLHOP@?9@       10021e5c     libvcruntime:undname.obj
 0002:00001e60       ??_C@_01MIFGBAGJ@?$CL@     10021e60     libvcruntime:undname.obj
 0002:00001e64       ??_C@_01HNPIGOCE@?$CG@     10021e64     libvcruntime:undname.obj
 0002:00001e68       ??_C@_03MNHNFDLC@?9?$DO?$CK@ 10021e68     libvcruntime:undname.obj
 0002:00001e6c       ??_C@_01KMDKNFGN@?1@       10021e6c     libvcruntime:undname.obj
 0002:00001e70       ??_C@_01FGNFDNOH@?$CF@     10021e70     libvcruntime:undname.obj
 0002:00001e74       ??_C@_01MNNFJEPP@?$DM@     10021e74     libvcruntime:undname.obj
 0002:00001e78       ??_C@_02EHCHHCKH@?$DM?$DN@ 10021e78     libvcruntime:undname.obj
 0002:00001e7c       ??_C@_01PPODPGHN@?$DO@     10021e7c     libvcruntime:undname.obj
 0002:00001e80       ??_C@_02EEKDKGMJ@?$DO?$DN@ 10021e80     libvcruntime:undname.obj
 0002:00001e84       ??_C@_01IHBHIGKO@?0@       10021e84     libvcruntime:undname.obj
 0002:00001e88       ??_C@_02HCKGKOFO@?$CI?$CJ@ 10021e88     libvcruntime:undname.obj
 0002:00001e8c       ??_C@_01PJKLJHI@?$HO@      10021e8c     libvcruntime:undname.obj
 0002:00001e90       ??_C@_01JKBOJNNK@?$FO@     10021e90     libvcruntime:undname.obj
 0002:00001e94       ??_C@_01DNKMNLPK@?$HM@     10021e94     libvcruntime:undname.obj
 0002:00001e98       ??_C@_02PPKAJPJL@?$CG?$CG@ 10021e98     libvcruntime:undname.obj
 0002:00001e9c       ??_C@_02NONPIBCD@?$HM?$HM@ 10021e9c     libvcruntime:undname.obj
 0002:00001ea0       ??_C@_02FPIMKNGF@?$CK?$DN@ 10021ea0     libvcruntime:undname.obj
 0002:00001ea4       ??_C@_02FOEOMHFC@?$CL?$DN@ 10021ea4     libvcruntime:undname.obj
 0002:00001ea8       ??_C@_02FKMDLLOA@?9?$DN@   10021ea8     libvcruntime:undname.obj
 0002:00001eac       ??_C@_02FJEHGPIO@?1?$DN@   10021eac     libvcruntime:undname.obj
 0002:00001eb0       ??_C@_02FENAOKFI@?$CF?$DN@ 10021eb0     libvcruntime:undname.obj
 0002:00001eb4       ??_C@_03IKFCCPFF@?$DO?$DO?$DN@ 10021eb4     libvcruntime:undname.obj
 0002:00001eb8       ??_C@_03CDNPDDLA@?$DM?$DM?$DN@ 10021eb8     libvcruntime:undname.obj
 0002:00001ebc       ??_C@_02FGJGFEAB@?$CG?$DN@ 10021ebc     libvcruntime:undname.obj
 0002:00001ec0       ??_C@_02DHLNPPGH@?$HM?$DN@ 10021ec0     libvcruntime:undname.obj
 0002:00001ec4       ??_C@_02MHEGNOJ@?$FO?$DN@  10021ec4     libvcruntime:undname.obj
 0002:00001ec8       ??_C@_09IFPLHPGF@?$GAvftable?8@ 10021ec8     libvcruntime:undname.obj
 0002:00001ed4       ??_C@_09BLBHBJP@?$GAvbtable?8@ 10021ed4     libvcruntime:undname.obj
 0002:00001ee0       ??_C@_07FEEIOKP@?$GAvcall?8@ 10021ee0     libvcruntime:undname.obj
 0002:00001ee8       ??_C@_08LLFFHHDJ@?$GAtypeof?8@ 10021ee8     libvcruntime:undname.obj
 0002:00001ef4       ??_C@_0BF@KDPPACIK@?$GAlocal?5static?5guard?8@ 10021ef4     libvcruntime:undname.obj
 0002:00001f0c       ??_C@_08OBABFOLI@?$GAstring?8@ 10021f0c     libvcruntime:undname.obj
 0002:00001f18       ??_C@_0BD@JDLKDPAB@?$GAvbase?5destructor?8@ 10021f18     libvcruntime:undname.obj
 0002:00001f2c       ??_C@_0BN@DEGPLNFK@?$GAvector?5deleting?5destructor?8@ 10021f2c     libvcruntime:undname.obj
 0002:00001f4c       ??_C@_0BO@OBMKPJIG@?$GAdefault?5constructor?5closure?8@ 10021f4c     libvcruntime:undname.obj
 0002:00001f6c       ??_C@_0BN@IMDCHIKM@?$GAscalar?5deleting?5destructor?8@ 10021f6c     libvcruntime:undname.obj
 0002:00001f8c       ??_C@_0BO@PFGOCPJJ@?$GAvector?5constructor?5iterator?8@ 10021f8c     libvcruntime:undname.obj
 0002:00001fac       ??_C@_0BN@LFPFMEDL@?$GAvector?5destructor?5iterator?8@ 10021fac     libvcruntime:undname.obj
 0002:00001fcc       ??_C@_0CE@IKBNEHA@?$GAvector?5vbase?5constructor?5itera@ 10021fcc     libvcruntime:undname.obj
 0002:00001ff0       ??_C@_0BL@NILFHHPC@?$GAvirtual?5displacement?5map?8@ 10021ff0     libvcruntime:undname.obj
 0002:0000200c       ??_C@_0CB@JONCMFFK@?$GAeh?5vector?5constructor?5iterator@ 1002200c     libvcruntime:undname.obj
 0002:00002030       ??_C@_0CA@GCEOPDGL@?$GAeh?5vector?5destructor?5iterator?8@ 10022030     libvcruntime:undname.obj
 0002:00002050       ??_C@_0CH@OOJPLCPH@?$GAeh?5vector?5vbase?5constructor?5it@ 10022050     libvcruntime:undname.obj
 0002:00002078       ??_C@_0BL@LLKPOHJI@?$GAcopy?5constructor?5closure?8@ 10022078     libvcruntime:undname.obj
 0002:00002094       ??_C@_0BA@KBCDOMBN@?$GAudt?5returning?8@ 10022094     libvcruntime:undname.obj
 0002:000020a4       ??_C@_03KLGMFNMG@?$GAEH@   100220a4     libvcruntime:undname.obj
 0002:000020a8       ??_C@_05KHLCHHI@?$GARTTI@  100220a8     libvcruntime:undname.obj
 0002:000020b0       ??_C@_0BA@KKLDJDLB@?$GAlocal?5vftable?8@ 100220b0     libvcruntime:undname.obj
 0002:000020c0       ??_C@_0CE@IIHCMGGL@?$GAlocal?5vftable?5constructor?5clos@ 100220c0     libvcruntime:undname.obj
 0002:000020e4       ??_C@_06FHBGPFGH@?5new?$FL?$FN@ 100220e4     libvcruntime:undname.obj
 0002:000020ec       ??_C@_09LBNFPBCA@?5delete?$FL?$FN@ 100220ec     libvcruntime:undname.obj
 0002:000020f8       ??_C@_0P@HJKNJFNN@?$GAomni?5callsig?8@ 100220f8     libvcruntime:undname.obj
 0002:00002108       ??_C@_0BL@CNOONJFP@?$GAplacement?5delete?5closure?8@ 10022108     libvcruntime:undname.obj
 0002:00002124       ??_C@_0BN@CKNJLHMB@?$GAplacement?5delete?$FL?$FN?5closure?8@ 10022124     libvcruntime:undname.obj
 0002:00002144       ??_C@_0CG@CFDHKGGD@?$GAmanaged?5vector?5constructor?5ite@ 10022144     libvcruntime:undname.obj
 0002:0000216c       ??_C@_0CF@IMGKMJNO@?$GAmanaged?5vector?5destructor?5iter@ 1002216c     libvcruntime:undname.obj
 0002:00002194       ??_C@_0CG@HLDDJMAG@?$GAeh?5vector?5copy?5constructor?5ite@ 10022194     libvcruntime:undname.obj
 0002:000021bc       ??_C@_0CM@FCBBDIGB@?$GAeh?5vector?5vbase?5copy?5construct@ 100221bc     libvcruntime:undname.obj
 0002:000021e8       ??_C@_0BL@CLIPGLGB@?$GAdynamic?5initializer?5for?5?8@ 100221e8     libvcruntime:undname.obj
 0002:00002204       ??_C@_0CB@PDBIFEP@?$GAdynamic?5atexit?5destructor?5for?5@ 10022204     libvcruntime:undname.obj
 0002:00002228       ??_C@_0CD@CGAJBKEJ@?$GAvector?5copy?5constructor?5iterat@ 10022228     libvcruntime:undname.obj
 0002:0000224c       ??_C@_0CJ@GJELGAMM@?$GAvector?5vbase?5copy?5constructor?5@ 1002224c     libvcruntime:undname.obj
 0002:00002278       ??_C@_0CL@FGIJHLCE@?$GAmanaged?5vector?5copy?5constructo@ 10022278     libvcruntime:undname.obj
 0002:000022a4       ??_C@_0BM@PMGGMLDN@?$GAlocal?5static?5thread?5guard?8@ 100222a4     libvcruntime:undname.obj
 0002:000022c0       ??_C@_0N@BDNMDMOL@operator?5?$CC?$CC?5@ 100222c0     libvcruntime:undname.obj
 0002:000022d0       ??_C@_0BC@GGEBGALA@operator?5co_await@ 100222d0     libvcruntime:undname.obj
 0002:000022e4       ??_C@_0M@GAAIMMOH@operator?$DM?$DN?$DO@ 100222e4     libvcruntime:undname.obj
 0002:000022f0       ??_C@_0BC@DAFEJGAK@?5Type?5Descriptor?8@ 100222f0     libvcruntime:undname.obj
 0002:00002304       ??_C@_0BM@LDKODKLH@?5Base?5Class?5Descriptor?5at?5?$CI@ 10022304     libvcruntime:undname.obj
 0002:00002320       ??_C@_0BD@LGICGFMM@?5Base?5Class?5Array?8@ 10022320     libvcruntime:undname.obj
 0002:00002334       ??_C@_0BN@MECKDCOJ@?5Class?5Hierarchy?5Descriptor?8@ 10022334     libvcruntime:undname.obj
 0002:00002354       ??_C@_0BK@CFCOFLF@?5Complete?5Object?5Locator?8@ 10022354     libvcruntime:undname.obj
 0002:00002370       ??_C@_0BG@JNJLAMPM@?$GAanonymous?5namespace?8@ 10022370     libvcruntime:undname.obj
 0002:00002394       ??_C@_1DM@KHCHBNEB@?$AAa?$AAp?$AAi?$AA?9?$AAm?$AAs?$AA?9?$AAw?$AAi?$AAn?$AA?9?$AAc?$AAo?$AAr?$AAe@ 10022394     libvcruntime:winapi_downlevel.obj
 0002:000023d0       ??_C@_1DK@LPPGFMPP@?$AAa?$AAp?$AAi?$AA?9?$AAm?$AAs?$AA?9?$AAw?$AAi?$AAn?$AA?9?$AAc?$AAo?$AAr?$AAe@ 100223d0     libvcruntime:winapi_downlevel.obj
 0002:0000240c       ??_C@_1BC@GDMECMAK@?$AAk?$AAe?$AAr?$AAn?$AAe?$AAl?$AA3?$AA2@ 1002240c     libvcruntime:winapi_downlevel.obj
 0002:00002420       ??_C@_1BA@PFFKHIOG@?$AAa?$AAp?$AAi?$AA?9?$AAm?$AAs?$AA?9@ 10022420     libvcruntime:winapi_downlevel.obj
 0002:00002438       ??_C@_08KNHFBNJ@FlsAlloc@  10022438     libvcruntime:winapi_downlevel.obj
 0002:0000244c       ??_C@_07PEJMOBNF@FlsFree@  1002244c     libvcruntime:winapi_downlevel.obj
 0002:0000245c       ??_C@_0M@GDNOONDI@FlsGetValue@ 1002245c     libvcruntime:winapi_downlevel.obj
 0002:00002470       ??_C@_0M@JCPCPOEF@FlsSetValue@ 10022470     libvcruntime:winapi_downlevel.obj
 0002:00002484       ??_C@_0BM@HCFOFFN@InitializeCriticalSectionEx@ 10022484     libvcruntime:winapi_downlevel.obj
 0002:00002608       ?format_validation_lookup_table_spectre@__crt_stdio_output@@3V?$spectre_mitigated_lookup_table@Ustate_transition_pair@__crt_stdio_output@@$0IA@@1@B 10022608     libucrt:output.obj
 0002:00002a08       ??_C@_1O@CEDCILHN@?$AA?$CI?$AAn?$AAu?$AAl?$AAl?$AA?$CJ@ 10022a08     libucrt:output.obj
 0002:00002a18       ??_C@_06OJHGLDPL@?$CInull?$CJ@ 10022a18     libucrt:output.obj
 0002:00002a20       ___acrt_exception_action_table 10022a20     libucrt:exception_filter.obj
 0002:00002ab0       ___acrt_signal_action_table_count 10022ab0     libucrt:exception_filter.obj
 0002:00002ab4       ___acrt_signal_action_first_fpe_index 10022ab4     libucrt:exception_filter.obj
 0002:00002ab8       ___acrt_signal_action_fpe_count 10022ab8     libucrt:exception_filter.obj
 0002:00002abc       ??_C@_1BI@BGOHAHKC@?$AAm?$AAs?$AAc?$AAo?$AAr?$AAe?$AAe?$AA?4?$AAd?$AAl?$AAl@ 10022abc     libucrt:exit.obj
 0002:00002ad4       ??_C@_0P@MIGLKIOC@CorExitProcess@ 10022ad4     libucrt:exit.obj
 0002:00002bb8       ??_C@_1EA@JGEFHKEI@?$AAa?$AAp?$AAi?$AA?9?$AAm?$AAs?$AA?9?$AAw?$AAi?$AAn?$AA?9?$AAc?$AAo?$AAr?$AAe@ 10022bb8     libucrt:winapi_thunks.obj
 0002:00002bf8       ??_C@_1DI@IJCEHOCB@?$AAa?$AAp?$AAi?$AA?9?$AAm?$AAs?$AA?9?$AAw?$AAi?$AAn?$AA?9?$AAc?$AAo?$AAr?$AAe@ 10022bf8     libucrt:winapi_thunks.obj
 0002:00002c30       ??_C@_1EI@MPIAOHOC@?$AAa?$AAp?$AAi?$AA?9?$AAm?$AAs?$AA?9?$AAw?$AAi?$AAn?$AA?9?$AAc?$AAo?$AAr?$AAe@ 10022c30     libucrt:winapi_thunks.obj
 0002:00002c78       ??_C@_1FK@FPHCKFIE@?$AAa?$AAp?$AAi?$AA?9?$AAm?$AAs?$AA?9?$AAw?$AAi?$AAn?$AA?9?$AAc?$AAo?$AAr?$AAe@ 10022c78     libucrt:winapi_thunks.obj
 0002:00002cd8       ??_C@_1EM@DILCGIIO@?$AAa?$AAp?$AAi?$AA?9?$AAm?$AAs?$AA?9?$AAw?$AAi?$AAn?$AA?9?$AAc?$AAo?$AAr?$AAe@ 10022cd8     libucrt:winapi_thunks.obj
 0002:00002d24       ??_C@_1DM@LNCGDDPN@?$AAa?$AAp?$AAi?$AA?9?$AAm?$AAs?$AA?9?$AAw?$AAi?$AAn?$AA?9?$AAc?$AAo?$AAr?$AAe@ 10022d24     libucrt:winapi_thunks.obj
 0002:00002d60       ??_C@_1DO@FPAPJEMD@?$AAa?$AAp?$AAi?$AA?9?$AAm?$AAs?$AA?9?$AAw?$AAi?$AAn?$AA?9?$AAc?$AAo?$AAr?$AAe@ 10022d60     libucrt:winapi_thunks.obj
 0002:00002da0       ??_C@_1DK@NDHNAHIO@?$AAa?$AAp?$AAi?$AA?9?$AAm?$AAs?$AA?9?$AAw?$AAi?$AAn?$AA?9?$AAc?$AAo?$AAr?$AAe@ 10022da0     libucrt:winapi_thunks.obj
 0002:00002ddc       ??_C@_1DM@KGHDGBCM@?$AAa?$AAp?$AAi?$AA?9?$AAm?$AAs?$AA?9?$AAw?$AAi?$AAn?$AA?9?$AAc?$AAo?$AAr?$AAe@ 10022ddc     libucrt:winapi_thunks.obj
 0002:00002e18       ??_C@_1EO@IJIOEFOH@?$AAa?$AAp?$AAi?$AA?9?$AAm?$AAs?$AA?9?$AAw?$AAi?$AAn?$AA?9?$AAr?$AAt?$AAc?$AAo@ 10022e18     libucrt:winapi_thunks.obj
 0002:00002e68       ??_C@_1FG@HHGEKANL@?$AAa?$AAp?$AAi?$AA?9?$AAm?$AAs?$AA?9?$AAw?$AAi?$AAn?$AA?9?$AAs?$AAe?$AAc?$AAu@ 10022e68     libucrt:winapi_thunks.obj
 0002:00002ec0       ??_C@_1EG@DBIOJECG@?$AAe?$AAx?$AAt?$AA?9?$AAm?$AAs?$AA?9?$AAw?$AAi?$AAn?$AA?9?$AAn?$AAt?$AAu?$AAs@ 10022ec0     libucrt:winapi_thunks.obj
 0002:00002f08       ??_C@_1EO@FIHMJCLF@?$AAe?$AAx?$AAt?$AA?9?$AAm?$AAs?$AA?9?$AAw?$AAi?$AAn?$AA?9?$AAn?$AAt?$AAu?$AAs@ 10022f08     libucrt:winapi_thunks.obj
 0002:00002f58       ??_C@_1BC@DNHGCMLG@?$AAa?$AAd?$AAv?$AAa?$AAp?$AAi?$AA3?$AA2@ 10022f58     libucrt:winapi_thunks.obj
 0002:00002f6c       ??_C@_1M@OAIMIKLP@?$AAn?$AAt?$AAd?$AAl?$AAl@ 10022f6c     libucrt:winapi_thunks.obj
 0002:00002f78       ??_C@_1EG@DPGNFKGC@?$AAa?$AAp?$AAi?$AA?9?$AAm?$AAs?$AA?9?$AAw?$AAi?$AAn?$AA?9?$AAa?$AAp?$AAp?$AAm@ 10022f78     libucrt:winapi_thunks.obj
 0002:00002fc0       ??_C@_1O@BCCLBEOE@?$AAu?$AAs?$AAe?$AAr?$AA3?$AA2@ 10022fc0     libucrt:winapi_thunks.obj
 0002:00002fd0       ??_C@_1BA@IAIFMGEF@?$AAe?$AAx?$AAt?$AA?9?$AAm?$AAs?$AA?9@ 10022fd0     libucrt:winapi_thunks.obj
 0002:00002fe4       ??_C@_0BA@FHFNEAED@AreFileApisANSI@ 10022fe4     libucrt:winapi_thunks.obj
 0002:00003024       ??_C@_0O@KKBNKAPF@LCMapStringEx@ 10023024     libucrt:winapi_thunks.obj
 0002:0000303c       ??_C@_0BB@HBDEELFH@LocaleNameToLCID@ 1002303c     libucrt:winapi_thunks.obj
 0002:00003054       ??_C@_0CF@OJOFEIGO@AppPolicyGetProcessTerminationM@ 10023054     libucrt:winapi_thunks.obj
 0002:00003084       ??_C@_0BI@BKLFFAPO@SetThreadStackGuarantee@ 10023084     libucrt:winapi_thunks.obj
 0002:000030e0       ??_C@_03OEIAHPBN@INF@      100230e0     libucrt:cvt.obj
 0002:000030e4       ??_C@_03OJHLLCGB@inf@      100230e4     libucrt:cvt.obj
 0002:000030e8       ??_C@_03LKNCIKJB@NAN@      100230e8     libucrt:cvt.obj
 0002:000030ec       ??_C@_03LHCJEHON@nan@      100230ec     libucrt:cvt.obj
 0002:000030f0       ??_C@_09OFJJIMPC@NAN?$CISNAN?$CJ@ 100230f0     libucrt:cvt.obj
 0002:000030fc       ??_C@_09IPFBKMDL@nan?$CIsnan?$CJ@ 100230fc     libucrt:cvt.obj
 0002:00003108       ??_C@_08IKHNHAJ@NAN?$CIIND?$CJ@ 10023108     libucrt:cvt.obj
 0002:00003114       ??_C@_08OFCDMILK@nan?$CIind?$CJ@ 10023114     libucrt:cvt.obj
 0002:00003120       ??_C@_05KLBDPFGC@e?$CL000@ 10023120     libucrt:cvt.obj
 0002:00003128       ___lc_time_c               10023128     libucrt:nlsdata.obj
 0002:0000328c       ??_C@_03KOEHGMDN@Sun@      1002328c     libucrt:nlsdata.obj
 0002:00003290       ??_C@_03PDAGKDH@Mon@       10023290     libucrt:nlsdata.obj
 0002:00003294       ??_C@_03NAGEINEP@Tue@      10023294     libucrt:nlsdata.obj
 0002:00003298       ??_C@_03MHOMLAJA@Wed@      10023298     libucrt:nlsdata.obj
 0002:0000329c       ??_C@_03IOFIKPDN@Thu@      1002329c     libucrt:nlsdata.obj
 0002:000032a0       ??_C@_03IDIOELNC@Fri@      100232a0     libucrt:nlsdata.obj
 0002:000032a4       ??_C@_03FEFJNEK@Sat@       100232a4     libucrt:nlsdata.obj
 0002:000032a8       ??_C@_06OOPIFAJ@Sunday@    100232a8     libucrt:nlsdata.obj
 0002:000032b0       ??_C@_06JLEDEDGH@Monday@   100232b0     libucrt:nlsdata.obj
 0002:000032b8       ??_C@_07BAAGCFCM@Tuesday@  100232b8     libucrt:nlsdata.obj
 0002:000032c0       ??_C@_09DLIGFAKA@Wednesday@ 100232c0     libucrt:nlsdata.obj
 0002:000032cc       ??_C@_08HACCIKIA@Thursday@ 100232cc     libucrt:nlsdata.obj
 0002:000032d8       ??_C@_06JECMNKMI@Friday@   100232d8     libucrt:nlsdata.obj
 0002:000032e0       ??_C@_08INBOOONO@Saturday@ 100232e0     libucrt:nlsdata.obj
 0002:000032ec       ??_C@_03JIHJHPIE@Jan@      100232ec     libucrt:nlsdata.obj
 0002:000032f0       ??_C@_03HJBDCHOM@Feb@      100232f0     libucrt:nlsdata.obj
 0002:000032f4       ??_C@_03ODNJBKGA@Mar@      100232f4     libucrt:nlsdata.obj
 0002:000032f8       ??_C@_03LEOLGMJP@Apr@      100232f8     libucrt:nlsdata.obj
 0002:000032fc       ??_C@_03CNMDKL@May@        100232fc     libucrt:nlsdata.obj
 0002:00003300       ??_C@_03IDFGHECI@Jun@      10023300     libucrt:nlsdata.obj
 0002:00003304       ??_C@_03LBGABGKK@Jul@      10023304     libucrt:nlsdata.obj
 0002:00003308       ??_C@_03IFJFEIGA@Aug@      10023308     libucrt:nlsdata.obj
 0002:0000330c       ??_C@_03GGCAPAJC@Sep@      1002330c     libucrt:nlsdata.obj
 0002:00003310       ??_C@_03BMAOKBAD@Oct@      10023310     libucrt:nlsdata.obj
 0002:00003314       ??_C@_03JPJOFNIA@Nov@      10023314     libucrt:nlsdata.obj
 0002:00003318       ??_C@_03MKABNOCG@Dec@      10023318     libucrt:nlsdata.obj
 0002:0000331c       ??_C@_07CGJPFGJA@January@  1002331c     libucrt:nlsdata.obj
 0002:00003324       ??_C@_08GNJGEPFN@February@ 10023324     libucrt:nlsdata.obj
 0002:00003330       ??_C@_05HPCKOFNC@March@    10023330     libucrt:nlsdata.obj
 0002:00003338       ??_C@_05DMJDNLEJ@April@    10023338     libucrt:nlsdata.obj
 0002:00003340       ??_C@_04CNLMGBGM@June@     10023340     libucrt:nlsdata.obj
 0002:00003348       ??_C@_04MIEPOIFP@July@     10023348     libucrt:nlsdata.obj
 0002:00003350       ??_C@_06LBBHFDDG@August@   10023350     libucrt:nlsdata.obj
 0002:00003358       ??_C@_09BHHEALKD@September@ 10023358     libucrt:nlsdata.obj
 0002:00003364       ??_C@_07JJNFCEND@October@  10023364     libucrt:nlsdata.obj
 0002:0000336c       ??_C@_08HCHEGEOA@November@ 1002336c     libucrt:nlsdata.obj
 0002:00003378       ??_C@_08EDHMEBNP@December@ 10023378     libucrt:nlsdata.obj
 0002:00003384       ??_C@_02DEDBPAFC@AM@       10023384     libucrt:nlsdata.obj
 0002:00003388       ??_C@_02CJNFDJBF@PM@       10023388     libucrt:nlsdata.obj
 0002:0000338c       ??_C@_08BPBNCDIB@MM?1dd?1yy@ 1002338c     libucrt:nlsdata.obj
 0002:00003398       ??_C@_0BE@CKGJFCPC@dddd?0?5MMMM?5dd?0?5yyyy@ 10023398     libucrt:nlsdata.obj
 0002:000033ac       ??_C@_08JCCMCCIL@HH?3mm?3ss@ 100233ac     libucrt:nlsdata.obj
 0002:000033b8       ??_C@_17MBGCMIPB@?$AAS?$AAu?$AAn@ 100233b8     libucrt:nlsdata.obj
 0002:000033c0       ??_C@_17KBOMKBF@?$AAM?$AAo?$AAn@ 100233c0     libucrt:nlsdata.obj
 0002:000033c8       ??_C@_17BMKGEGOJ@?$AAT?$AAu?$AAe@ 100233c8     libucrt:nlsdata.obj
 0002:000033d0       ??_C@_17CJEDCEPE@?$AAW?$AAe?$AAd@ 100233d0     libucrt:nlsdata.obj
 0002:000033d8       ??_C@_17PDPHAADD@?$AAT?$AAh?$AAu@ 100233d8     libucrt:nlsdata.obj
 0002:000033e0       ??_C@_17HFOLPPLP@?$AAF?$AAr?$AAi@ 100233e0     libucrt:nlsdata.obj
 0002:000033e8       ??_C@_17GGIBDPIH@?$AAS?$AAa?$AAt@ 100233e8     libucrt:nlsdata.obj
 0002:000033f0       ??_C@_1O@IHNHDHPB@?$AAS?$AAu?$AAn?$AAd?$AAa?$AAy@ 100233f0     libucrt:nlsdata.obj
 0002:00003400       ??_C@_1O@MMNBFLIA@?$AAM?$AAo?$AAn?$AAd?$AAa?$AAy@ 10023400     libucrt:nlsdata.obj
 0002:00003410       ??_C@_1BA@ENFBFFEK@?$AAT?$AAu?$AAe?$AAs?$AAd?$AAa?$AAy@ 10023410     libucrt:nlsdata.obj
 0002:00003420       ??_C@_1BE@EBOGMDOH@?$AAW?$AAe?$AAd?$AAn?$AAe?$AAs?$AAd?$AAa?$AAy@ 10023420     libucrt:nlsdata.obj
 0002:00003434       ??_C@_1BC@HHMNLIHE@?$AAT?$AAh?$AAu?$AAr?$AAs?$AAd?$AAa?$AAy@ 10023434     libucrt:nlsdata.obj
 0002:00003448       ??_C@_1O@PDICJHAG@?$AAF?$AAr?$AAi?$AAd?$AAa?$AAy@ 10023448     libucrt:nlsdata.obj
 0002:00003458       ??_C@_1BC@ENMNNPAJ@?$AAS?$AAa?$AAt?$AAu?$AAr?$AAd?$AAa?$AAy@ 10023458     libucrt:nlsdata.obj
 0002:0000346c       ??_C@_17DKNBKCHM@?$AAJ?$AAa?$AAn@ 1002346c     libucrt:nlsdata.obj
 0002:00003474       ??_C@_17LMDJEKJN@?$AAF?$AAe?$AAb@ 10023474     libucrt:nlsdata.obj
 0002:0000347c       ??_C@_17CKNLEDEC@?$AAM?$AAa?$AAr@ 1002347c     libucrt:nlsdata.obj
 0002:00003484       ??_C@_17LFPOIHDD@?$AAA?$AAp?$AAr@ 10023484     libucrt:nlsdata.obj
 0002:0000348c       ??_C@_17PNNKMEED@?$AAM?$AAa?$AAy@ 1002348c     libucrt:nlsdata.obj
 0002:00003494       ??_C@_17KCJGOCPB@?$AAJ?$AAu?$AAn@ 10023494     libucrt:nlsdata.obj
 0002:0000349c       ??_C@_17IJPCKHK@?$AAJ?$AAu?$AAl@ 1002349c     libucrt:nlsdata.obj
 0002:000034a4       ??_C@_17ICPELBCN@?$AAA?$AAu?$AAg@ 100234a4     libucrt:nlsdata.obj
 0002:000034ac       ??_C@_17HCHCOKMG@?$AAS?$AAe?$AAp@ 100234ac     libucrt:nlsdata.obj
 0002:000034b4       ??_C@_17FNLKOI@?$AAO?$AAc?$AAt@ 100234b4     libucrt:nlsdata.obj
 0002:000034bc       ??_C@_17BBDMLCIG@?$AAN?$AAo?$AAv@ 100234bc     libucrt:nlsdata.obj
 0002:000034c4       ??_C@_17EGKACKIF@?$AAD?$AAe?$AAc@ 100234c4     libucrt:nlsdata.obj
 0002:000034cc       ??_C@_1BA@EFMEIEBA@?$AAJ?$AAa?$AAn?$AAu?$AAa?$AAr?$AAy@ 100234cc     libucrt:nlsdata.obj
 0002:000034dc       ??_C@_1BC@JGDDFFAM@?$AAF?$AAe?$AAb?$AAr?$AAu?$AAa?$AAr?$AAy@ 100234dc     libucrt:nlsdata.obj
 0002:000034f0       ??_C@_1M@IKEENEDF@?$AAM?$AAa?$AAr?$AAc?$AAh@ 100234f0     libucrt:nlsdata.obj
 0002:000034fc       ??_C@_1M@GJNLMHFD@?$AAA?$AAp?$AAr?$AAi?$AAl@ 100234fc     libucrt:nlsdata.obj
 0002:00003508       ??_C@_19EPFLPGAP@?$AAJ?$AAu?$AAn?$AAe@ 10023508     libucrt:nlsdata.obj
 0002:00003514       ??_C@_19BIFMLPCD@?$AAJ?$AAu?$AAl?$AAy@ 10023514     libucrt:nlsdata.obj
 0002:00003520       ??_C@_1O@PAHLKOAC@?$AAA?$AAu?$AAg?$AAu?$AAs?$AAt@ 10023520     libucrt:nlsdata.obj
 0002:00003530       ??_C@_1BE@DKAAMBJL@?$AAS?$AAe?$AAp?$AAt?$AAe?$AAm?$AAb?$AAe?$AAr@ 10023530     libucrt:nlsdata.obj
 0002:00003544       ??_C@_1BA@EPANDLNG@?$AAO?$AAc?$AAt?$AAo?$AAb?$AAe?$AAr@ 10023544     libucrt:nlsdata.obj
 0002:00003554       ??_C@_1BC@BGLIFPF@?$AAN?$AAo?$AAv?$AAe?$AAm?$AAb?$AAe?$AAr@ 10023554     libucrt:nlsdata.obj
 0002:00003568       ??_C@_1BC@FEMKIFH@?$AAD?$AAe?$AAc?$AAe?$AAm?$AAb?$AAe?$AAr@ 10023568     libucrt:nlsdata.obj
 0002:0000357c       ??_C@_15ODEHAHHF@?$AAA?$AAM@ 1002357c     libucrt:nlsdata.obj
 0002:00003584       ??_C@_15CLMNNGEL@?$AAP?$AAM@ 10023584     libucrt:nlsdata.obj
 0002:0000358c       ??_C@_1BC@IEBCMHCM@?$AAM?$AAM?$AA?1?$AAd?$AAd?$AA?1?$AAy?$AAy@ 1002358c     libucrt:nlsdata.obj
 0002:000035a0       ??_C@_1CI@KNAKOEBC@?$AAd?$AAd?$AAd?$AAd?$AA?0?$AA?5?$AAM?$AAM?$AAM?$AAM?$AA?5?$AAd?$AAd?$AA?0?$AA?5@ 100235a0     libucrt:nlsdata.obj
 0002:000035c8       ??_C@_1BC@GDGBMEMK@?$AAH?$AAH?$AA?3?$AAm?$AAm?$AA?3?$AAs?$AAs@ 100235c8     libucrt:nlsdata.obj
 0002:000035dc       ??_C@_1M@BMHNFIME@?$AAe?$AAn?$AA?9?$AAU?$AAS@ 100235dc     libucrt:nlsdata.obj
 0002:000035f8       ??_C@_1M@HPNHIDJI@?$AAj?$AAa?$AA?9?$AAJ?$AAP@ 100235f8     libucrt:mbctype.obj
 0002:00003604       ??_C@_1M@BIBDDEMK@?$AAz?$AAh?$AA?9?$AAC?$AAN@ 10023604     libucrt:mbctype.obj
 0002:00003610       ??_C@_1M@JLOOOEGK@?$AAk?$AAo?$AA?9?$AAK?$AAR@ 10023610     libucrt:mbctype.obj
 0002:0000361c       ??_C@_1M@CLNBBOPM@?$AAz?$AAh?$AA?9?$AAT?$AAW@ 1002361c     libucrt:mbctype.obj
 0002:00003628       ___newctype                10023628     libucrt:ctype.obj
 0002:00003928       ___newclmap                10023928     libucrt:ctype.obj
 0002:00003aa8       ___newcumap                10023aa8     libucrt:ctype.obj
 0002:00003c28       __wctype                   10023c28     libucrt:ctype.obj
 0002:00004550       ??_C@_15EMKDOKLE@?$AAa?$AAr@ 10024550     libucrt:lcidtoname_downlevel.obj
 0002:00004558       ??_C@_15KNPADPLH@?$AAb?$AAg@ 10024558     libucrt:lcidtoname_downlevel.obj
 0002:00004560       ??_C@_15EDMHLDMO@?$AAc?$AAa@ 10024560     libucrt:lcidtoname_downlevel.obj
 0002:00004568       ??_C@_1O@BPEAJADD@?$AAz?$AAh?$AA?9?$AAC?$AAH?$AAS@ 10024568     libucrt:lcidtoname_downlevel.obj
 0002:00004578       ??_C@_15LJNHCMNK@?$AAc?$AAs@ 10024578     libucrt:lcidtoname_downlevel.obj
 0002:00004580       ??_C@_15FOMCIDHG@?$AAd?$AAa@ 10024580     libucrt:lcidtoname_downlevel.obj
 0002:00004588       ??_C@_15NBKABECB@?$AAd?$AAe@ 10024588     libucrt:lcidtoname_downlevel.obj
 0002:00004590       ??_C@_15GHPEIIAO@?$AAe?$AAl@ 10024590     libucrt:lcidtoname_downlevel.obj
 0002:00004598       ??_C@_15MNPNEAIF@?$AAe?$AAn@ 10024598     libucrt:lcidtoname_downlevel.obj
 0002:000045a0       ??_C@_15GPIOMPMH@?$AAe?$AAs@ 100245a0     libucrt:lcidtoname_downlevel.obj
 0002:000045a8       ??_C@_15NGLOAKJC@?$AAf?$AAi@ 100245a8     libucrt:lcidtoname_downlevel.obj
 0002:000045b0       ??_C@_15FBKGNKAM@?$AAf?$AAr@ 100245b0     libucrt:lcidtoname_downlevel.obj
 0002:000045b8       ??_C@_15KGGCNEFK@?$AAh?$AAe@ 100245b8     libucrt:lcidtoname_downlevel.obj
 0002:000045c0       ??_C@_15PGHLIDMF@?$AAh?$AAu@ 100245c0     libucrt:lcidtoname_downlevel.obj
 0002:000045c8       ??_C@_15BIEMAPLM@?$AAi?$AAs@ 100245c8     libucrt:lcidtoname_downlevel.obj
 0002:000045d0       ??_C@_15IFJLDHAF@?$AAi?$AAt@ 100245d0     libucrt:lcidtoname_downlevel.obj
 0002:000045d8       ??_C@_15GEMIOCAG@?$AAj?$AAa@ 100245d8     libucrt:lcidtoname_downlevel.obj
 0002:000045e0       ??_C@_15EPELEGJA@?$AAk?$AAo@ 100245e0     libucrt:lcidtoname_downlevel.obj
 0002:000045e8       ??_C@_15NDDHIMN@?$AAn?$AAl@ 100245e8     libucrt:lcidtoname_downlevel.obj
 0002:000045f0       ??_C@_15BPIGNHCD@?$AAn?$AAo@ 100245f0     libucrt:lcidtoname_downlevel.obj
 0002:000045f8       ??_C@_15DEOPBLCG@?$AAp?$AAl@ 100245f8     libucrt:lcidtoname_downlevel.obj
 0002:00004600       ??_C@_15KBECGEFG@?$AAp?$AAt@ 10024600     libucrt:lcidtoname_downlevel.obj
 0002:00004608       ??_C@_15GLJCBFMD@?$AAr?$AAo@ 10024608     libucrt:lcidtoname_downlevel.obj
 0002:00004610       ??_C@_15FEDGKCDI@?$AAr?$AAu@ 10024610     libucrt:lcidtoname_downlevel.obj
 0002:00004618       ??_C@_15GLKMLLHM@?$AAh?$AAr@ 10024618     libucrt:lcidtoname_downlevel.obj
 0002:00004620       ??_C@_15CPKMFBDB@?$AAs?$AAk@ 10024620     libucrt:lcidtoname_downlevel.obj
 0002:00004628       ??_C@_15BAAIOGMK@?$AAs?$AAq@ 10024628     libucrt:lcidtoname_downlevel.obj
 0002:00004630       ??_C@_15INNPNOHD@?$AAs?$AAv@ 10024630     libucrt:lcidtoname_downlevel.obj
 0002:00004638       ??_C@_15CABMMOGH@?$AAt?$AAh@ 10024638     libucrt:lcidtoname_downlevel.obj
 0002:00004640       ??_C@_15BPLIHJJM@?$AAt?$AAr@ 10024640     libucrt:lcidtoname_downlevel.obj
 0002:00004648       ??_C@_15NEOEKKDJ@?$AAu?$AAr@ 10024648     libucrt:lcidtoname_downlevel.obj
 0002:00004650       ??_C@_15NFICGAJK@?$AAi?$AAd@ 10024650     libucrt:lcidtoname_downlevel.obj
 0002:00004658       ??_C@_15PJPFLCCM@?$AAu?$AAk@ 10024658     libucrt:lcidtoname_downlevel.obj
 0002:00004660       ??_C@_15HPJPHDM@?$AAb?$AAe@ 10024660     libucrt:lcidtoname_downlevel.obj
 0002:00004668       ??_C@_15LCHLGJII@?$AAs?$AAl@ 10024668     libucrt:lcidtoname_downlevel.obj
 0002:00004670       ??_C@_15PCFJPHHO@?$AAe?$AAt@ 10024670     libucrt:lcidtoname_downlevel.obj
 0002:00004678       ??_C@_15HPFPGODN@?$AAl?$AAv@ 10024678     libucrt:lcidtoname_downlevel.obj
 0002:00004680       ??_C@_15NFFGKGLG@?$AAl?$AAt@ 10024680     libucrt:lcidtoname_downlevel.obj
 0002:00004688       ??_C@_15BDAKCCHN@?$AAf?$AAa@ 10024688     libucrt:lcidtoname_downlevel.obj
 0002:00004690       ??_C@_15NFGIAIAJ@?$AAv?$AAi@ 10024690     libucrt:lcidtoname_downlevel.obj
 0002:00004698       ??_C@_15LMKNDMHN@?$AAh?$AAy@ 10024698     libucrt:lcidtoname_downlevel.obj
 0002:000046a0       ??_C@_15IJBHMCFL@?$AAa?$AAz@ 100246a0     libucrt:lcidtoname_downlevel.obj
 0002:000046a8       ??_C@_15EKOFJABL@?$AAe?$AAu@ 100246a8     libucrt:lcidtoname_downlevel.obj
 0002:000046b0       ??_C@_15BGHADCNK@?$AAm?$AAk@ 100246b0     libucrt:lcidtoname_downlevel.obj
 0002:000046b8       ??_C@_15JDNICKHM@?$AAa?$AAf@ 100246b8     libucrt:lcidtoname_downlevel.obj
 0002:000046c0       ??_C@_15KPJEDBKD@?$AAk?$AAa@ 100246c0     libucrt:lcidtoname_downlevel.obj
 0002:000046c8       ??_C@_15PDNFFFEO@?$AAf?$AAo@ 100246c8     libucrt:lcidtoname_downlevel.obj
 0002:000046d0       ??_C@_15OMLEGLOC@?$AAh?$AAi@ 100246d0     libucrt:lcidtoname_downlevel.obj
 0002:000046d8       ??_C@_15IDNNENKK@?$AAm?$AAs@ 100246d8     libucrt:lcidtoname_downlevel.obj
 0002:000046e0       ??_C@_15MACJNBMH@?$AAk?$AAk@ 100246e0     libucrt:lcidtoname_downlevel.obj
 0002:000046e8       ??_C@_15DKDJEOND@?$AAk?$AAy@ 100246e8     libucrt:lcidtoname_downlevel.obj
 0002:000046f0       ??_C@_15DFGDLJBG@?$AAs?$AAw@ 100246f0     libucrt:lcidtoname_downlevel.obj
 0002:000046f8       ??_C@_15BBFAICNG@?$AAu?$AAz@ 100246f8     libucrt:lcidtoname_downlevel.obj
 0002:00004700       ??_C@_15DKNDCGEA@?$AAt?$AAt@ 10024700     libucrt:lcidtoname_downlevel.obj
 0002:00004708       ??_C@_15MGIFMDPL@?$AAp?$AAa@ 10024708     libucrt:lcidtoname_downlevel.obj
 0002:00004710       ??_C@_15HCNDBBA@?$AAg?$AAu@ 10024710     libucrt:lcidtoname_downlevel.obj
 0002:00004718       ??_C@_15FNBEIBON@?$AAt?$AAa@ 10024718     libucrt:lcidtoname_downlevel.obj
 0002:00004720       ??_C@_15NCHGBGLK@?$AAt?$AAe@ 10024720     libucrt:lcidtoname_downlevel.obj
 0002:00004728       ??_C@_15PHPHCBPF@?$AAk?$AAn@ 10024728     libucrt:lcidtoname_downlevel.obj
 0002:00004730       ??_C@_15DLGBCKMP@?$AAm?$AAr@ 10024730     libucrt:lcidtoname_downlevel.obj
 0002:00004738       ??_C@_15EABBLBFF@?$AAs?$AAa@ 10024738     libucrt:lcidtoname_downlevel.obj
 0002:00004740       ??_C@_15CBKOMCOI@?$AAm?$AAn@ 10024740     libucrt:lcidtoname_downlevel.obj
 0002:00004748       ??_C@_15CKDMCJAF@?$AAg?$AAl@ 10024748     libucrt:lcidtoname_downlevel.obj
 0002:00004750       ??_C@_17CNJFBPG@?$AAk?$AAo?$AAk@ 10024750     libucrt:lcidtoname_downlevel.obj
 0002:00004758       ??_C@_17FFBJICPL@?$AAs?$AAy?$AAr@ 10024758     libucrt:lcidtoname_downlevel.obj
 0002:00004760       ??_C@_17KPNDCPAF@?$AAd?$AAi?$AAv@ 10024760     libucrt:lcidtoname_downlevel.obj
 0002:00004768       ??_C@_1M@OKAHONE@?$AAa?$AAr?$AA?9?$AAS?$AAA@ 10024768     libucrt:lcidtoname_downlevel.obj
 0002:00004774       ??_C@_1M@FFFIGIGK@?$AAb?$AAg?$AA?9?$AAB?$AAG@ 10024774     libucrt:lcidtoname_downlevel.obj
 0002:00004780       ??_C@_1M@BJNKEDC@?$AAc?$AAa?$AA?9?$AAE?$AAS@ 10024780     libucrt:lcidtoname_downlevel.obj
 0002:0000478c       ??_C@_1M@IJJHFJHA@?$AAc?$AAs?$AA?9?$AAC?$AAZ@ 1002478c     libucrt:lcidtoname_downlevel.obj
 0002:00004798       ??_C@_1M@CLPEOBGI@?$AAd?$AAa?$AA?9?$AAD?$AAK@ 10024798     libucrt:lcidtoname_downlevel.obj
 0002:000047a4       ??_C@_1M@MCMADGCB@?$AAd?$AAe?$AA?9?$AAD?$AAE@ 100247a4     libucrt:lcidtoname_downlevel.obj
 0002:000047b0       ??_C@_1M@OOCKEMAM@?$AAe?$AAl?$AA?9?$AAG?$AAR@ 100247b0     libucrt:lcidtoname_downlevel.obj
 0002:000047bc       ??_C@_1M@DDNJFGID@?$AAf?$AAi?$AA?9?$AAF?$AAI@ 100247bc     libucrt:lcidtoname_downlevel.obj
 0002:000047c8       ??_C@_1M@GLIPPMAC@?$AAf?$AAr?$AA?9?$AAF?$AAR@ 100247c8     libucrt:lcidtoname_downlevel.obj
 0002:000047d4       ??_C@_1M@GFMCHPE@?$AAh?$AAe?$AA?9?$AAI?$AAL@ 100247d4     libucrt:lcidtoname_downlevel.obj
 0002:000047e0       ??_C@_1M@MHLPGNKM@?$AAh?$AAu?$AA?9?$AAH?$AAU@ 100247e0     libucrt:lcidtoname_downlevel.obj
 0002:000047ec       ??_C@_1M@LPDDNNPN@?$AAi?$AAs?$AA?9?$AAI?$AAS@ 100247ec     libucrt:lcidtoname_downlevel.obj
 0002:000047f8       ??_C@_1M@MADIPODN@?$AAi?$AAt?$AA?9?$AAI?$AAT@ 100247f8     libucrt:lcidtoname_downlevel.obj
 0002:00004804       ??_C@_1M@IHBJJGG@?$AAn?$AAl?$AA?9?$AAN?$AAL@ 10024804     libucrt:lcidtoname_downlevel.obj
 0002:00004810       ??_C@_1M@EANAGDL@?$AAn?$AAb?$AA?9?$AAN?$AAO@ 10024810     libucrt:lcidtoname_downlevel.obj
 0002:0000481c       ??_C@_1M@NEIEMEGP@?$AAp?$AAl?$AA?9?$AAP?$AAL@ 1002481c     libucrt:lcidtoname_downlevel.obj
 0002:00004828       ??_C@_1M@BOCFIGEP@?$AAp?$AAt?$AA?9?$AAB?$AAR@ 10024828     libucrt:lcidtoname_downlevel.obj
 0002:00004834       ??_C@_1M@IMPFOPBG@?$AAr?$AAo?$AA?9?$AAR?$AAO@ 10024834     libucrt:lcidtoname_downlevel.obj
 0002:00004840       ??_C@_1M@IDNNEJMM@?$AAr?$AAu?$AA?9?$AAR?$AAU@ 10024840     libucrt:lcidtoname_downlevel.obj
 0002:0000484c       ??_C@_1M@LILEEOGM@?$AAh?$AAr?$AA?9?$AAH?$AAR@ 1002484c     libucrt:lcidtoname_downlevel.obj
 0002:00004858       ??_C@_1M@FKIFEHPB@?$AAs?$AAk?$AA?9?$AAS?$AAK@ 10024858     libucrt:lcidtoname_downlevel.obj
 0002:00004864       ??_C@_1M@LJMAMNPJ@?$AAs?$AAq?$AA?9?$AAA?$AAL@ 10024864     libucrt:lcidtoname_downlevel.obj
 0002:00004870       ??_C@_1M@GIAKDKJK@?$AAs?$AAv?$AA?9?$AAS?$AAE@ 10024870     libucrt:lcidtoname_downlevel.obj
 0002:0000487c       ??_C@_1M@MKJKIKCL@?$AAt?$AAh?$AA?9?$AAT?$AAH@ 1002487c     libucrt:lcidtoname_downlevel.obj
 0002:00004888       ??_C@_1M@MFLCCMPB@?$AAt?$AAr?$AA?9?$AAT?$AAR@ 10024888     libucrt:lcidtoname_downlevel.obj
 0002:00004894       ??_C@_1M@OIJHDKJN@?$AAu?$AAr?$AA?9?$AAP?$AAK@ 10024894     libucrt:lcidtoname_downlevel.obj
 0002:000048a0       ??_C@_1M@LHIPCIEK@?$AAi?$AAd?$AA?9?$AAI?$AAD@ 100248a0     libucrt:lcidtoname_downlevel.obj
 0002:000048ac       ??_C@_1M@MFMOBGI@?$AAu?$AAk?$AA?9?$AAU?$AAA@ 100248ac     libucrt:lcidtoname_downlevel.obj
 0002:000048b8       ??_C@_1M@OBGLJIPL@?$AAb?$AAe?$AA?9?$AAB?$AAY@ 100248b8     libucrt:lcidtoname_downlevel.obj
 0002:000048c4       ??_C@_1M@BCFAJEAD@?$AAs?$AAl?$AA?9?$AAS?$AAI@ 100248c4     libucrt:lcidtoname_downlevel.obj
 0002:000048d0       ??_C@_1M@FKFFEDDN@?$AAe?$AAt?$AA?9?$AAE?$AAE@ 100248d0     libucrt:lcidtoname_downlevel.obj
 0002:000048dc       ??_C@_1M@KGKKAACI@?$AAl?$AAv?$AA?9?$AAL?$AAV@ 100248dc     libucrt:lcidtoname_downlevel.obj
 0002:000048e8       ??_C@_1M@IFGBIJO@?$AAl?$AAt?$AA?9?$AAL?$AAT@ 100248e8     libucrt:lcidtoname_downlevel.obj
 0002:000048f4       ??_C@_1M@FGEAHEDM@?$AAf?$AAa?$AA?9?$AAI?$AAR@ 100248f4     libucrt:lcidtoname_downlevel.obj
 0002:00004900       ??_C@_1M@KBMAIBFN@?$AAv?$AAi?$AA?9?$AAV?$AAN@ 10024900     libucrt:lcidtoname_downlevel.obj
 0002:0000490c       ??_C@_1M@GPCBKDJK@?$AAh?$AAy?$AA?9?$AAA?$AAM@ 1002490c     libucrt:lcidtoname_downlevel.obj
 0002:00004918       ??_C@_1BG@BECMDDJB@?$AAa?$AAz?$AA?9?$AAA?$AAZ?$AA?9?$AAL?$AAa?$AAt?$AAn@ 10024918     libucrt:lcidtoname_downlevel.obj
 0002:00004930       ??_C@_1M@MAOFCAEA@?$AAe?$AAu?$AA?9?$AAE?$AAS@ 10024930     libucrt:lcidtoname_downlevel.obj
 0002:0000493c       ??_C@_1M@IGHABKPI@?$AAm?$AAk?$AA?9?$AAM?$AAK@ 1002493c     libucrt:lcidtoname_downlevel.obj
 0002:00004948       ??_C@_1M@IAIGNEJG@?$AAt?$AAn?$AA?9?$AAZ?$AAA@ 10024948     libucrt:lcidtoname_downlevel.obj
 0002:00004954       ??_C@_1M@IIJCOJFA@?$AAx?$AAh?$AA?9?$AAZ?$AAA@ 10024954     libucrt:lcidtoname_downlevel.obj
 0002:00004960       ??_C@_1M@LGPJHNJH@?$AAz?$AAu?$AA?9?$AAZ?$AAA@ 10024960     libucrt:lcidtoname_downlevel.obj
 0002:0000496c       ??_C@_1M@HOKAOIO@?$AAa?$AAf?$AA?9?$AAZ?$AAA@ 1002496c     libucrt:lcidtoname_downlevel.obj
 0002:00004978       ??_C@_1M@DPCLHLIE@?$AAk?$AAa?$AA?9?$AAG?$AAE@ 10024978     libucrt:lcidtoname_downlevel.obj
 0002:00004984       ??_C@_1M@BLKMHJBI@?$AAf?$AAo?$AA?9?$AAF?$AAO@ 10024984     libucrt:lcidtoname_downlevel.obj
 0002:00004990       ??_C@_1M@LGGJAPPB@?$AAh?$AAi?$AA?9?$AAI?$AAN@ 10024990     libucrt:lcidtoname_downlevel.obj
 0002:0000499c       ??_C@_1M@FIKPIHFE@?$AAm?$AAt?$AA?9?$AAM?$AAT@ 1002499c     libucrt:lcidtoname_downlevel.obj
 0002:000049a8       ??_C@_1M@HEGGPBFA@?$AAs?$AAe?$AA?9?$AAN?$AAO@ 100249a8     libucrt:lcidtoname_downlevel.obj
 0002:000049b4       ??_C@_1M@EIBJEEPA@?$AAm?$AAs?$AA?9?$AAM?$AAY@ 100249b4     libucrt:lcidtoname_downlevel.obj
 0002:000049c0       ??_C@_1M@FHLBGMPP@?$AAk?$AAk?$AA?9?$AAK?$AAZ@ 100249c0     libucrt:lcidtoname_downlevel.obj
 0002:000049cc       ??_C@_1M@NGJJLCGI@?$AAk?$AAy?$AA?9?$AAK?$AAG@ 100249cc     libucrt:lcidtoname_downlevel.obj
 0002:000049d8       ??_C@_1M@GIENNBFC@?$AAs?$AAw?$AA?9?$AAK?$AAE@ 100249d8     libucrt:lcidtoname_downlevel.obj
 0002:000049e4       ??_C@_1BG@NDGMJIMJ@?$AAu?$AAz?$AA?9?$AAU?$AAZ?$AA?9?$AAL?$AAa?$AAt?$AAn@ 100249e4     libucrt:lcidtoname_downlevel.obj
 0002:000049fc       ??_C@_1M@IDCCIHBC@?$AAt?$AAt?$AA?9?$AAR?$AAU@ 100249fc     libucrt:lcidtoname_downlevel.obj
 0002:00004a08       ??_C@_1M@LOICPMOJ@?$AAb?$AAn?$AA?9?$AAI?$AAN@ 10024a08     libucrt:lcidtoname_downlevel.obj
 0002:00004a14       ??_C@_1M@KPKKNEAH@?$AAp?$AAa?$AA?9?$AAI?$AAN@ 10024a14     libucrt:lcidtoname_downlevel.obj
 0002:00004a20       ??_C@_1M@PJGPPBOG@?$AAg?$AAu?$AA?9?$AAI?$AAN@ 10024a20     libucrt:lcidtoname_downlevel.obj
 0002:00004a2c       ??_C@_1M@KMKMOPHI@?$AAt?$AAa?$AA?9?$AAI?$AAN@ 10024a2c     libucrt:lcidtoname_downlevel.obj
 0002:00004a38       ??_C@_1M@KFEHEPAC@?$AAt?$AAe?$AA?9?$AAI?$AAN@ 10024a38     libucrt:lcidtoname_downlevel.obj
 0002:00004a44       ??_C@_1M@CDCLMGHI@?$AAk?$AAn?$AA?9?$AAI?$AAN@ 10024a44     libucrt:lcidtoname_downlevel.obj
 0002:00004a50       ??_C@_1M@MIODLDKF@?$AAm?$AAl?$AA?9?$AAI?$AAN@ 10024a50     libucrt:lcidtoname_downlevel.obj
 0002:00004a5c       ??_C@_1M@PBIEACPO@?$AAm?$AAr?$AA?9?$AAI?$AAN@ 10024a5c     libucrt:lcidtoname_downlevel.obj
 0002:00004a68       ??_C@_1M@NIDEAGPH@?$AAs?$AAa?$AA?9?$AAI?$AAN@ 10024a68     libucrt:lcidtoname_downlevel.obj
 0002:00004a74       ??_C@_1M@FHIHCBIO@?$AAm?$AAn?$AA?9?$AAM?$AAN@ 10024a74     libucrt:lcidtoname_downlevel.obj
 0002:00004a80       ??_C@_1M@JAIJPENP@?$AAc?$AAy?$AA?9?$AAG?$AAB@ 10024a80     libucrt:lcidtoname_downlevel.obj
 0002:00004a8c       ??_C@_1M@PHGFBEPN@?$AAg?$AAl?$AA?9?$AAE?$AAS@ 10024a8c     libucrt:lcidtoname_downlevel.obj
 0002:00004a98       ??_C@_1O@KPIPDNCP@?$AAk?$AAo?$AAk?$AA?9?$AAI?$AAN@ 10024a98     libucrt:lcidtoname_downlevel.obj
 0002:00004aa8       ??_C@_1O@KNHJLDJA@?$AAs?$AAy?$AAr?$AA?9?$AAS?$AAY@ 10024aa8     libucrt:lcidtoname_downlevel.obj
 0002:00004ab8       ??_C@_1O@MKEKBLAH@?$AAd?$AAi?$AAv?$AA?9?$AAM?$AAV@ 10024ab8     libucrt:lcidtoname_downlevel.obj
 0002:00004ac8       ??_C@_1O@OHDCKDDF@?$AAq?$AAu?$AAz?$AA?9?$AAB?$AAO@ 10024ac8     libucrt:lcidtoname_downlevel.obj
 0002:00004ad8       ??_C@_1M@LEPJNLFD@?$AAn?$AAs?$AA?9?$AAZ?$AAA@ 10024ad8     libucrt:lcidtoname_downlevel.obj
 0002:00004ae4       ??_C@_1M@OMLEIIJB@?$AAm?$AAi?$AA?9?$AAN?$AAZ@ 10024ae4     libucrt:lcidtoname_downlevel.obj
 0002:00004af0       ??_C@_1M@PMPEAILG@?$AAa?$AAr?$AA?9?$AAI?$AAQ@ 10024af0     libucrt:lcidtoname_downlevel.obj
 0002:00004afc       ??_C@_1M@CNKPNOEE@?$AAd?$AAe?$AA?9?$AAC?$AAH@ 10024afc     libucrt:lcidtoname_downlevel.obj
 0002:00004b08       ??_C@_1M@LKMGMLKO@?$AAe?$AAn?$AA?9?$AAG?$AAB@ 10024b08     libucrt:lcidtoname_downlevel.obj
 0002:00004b14       ??_C@_1M@PGKJFFGL@?$AAe?$AAs?$AA?9?$AAM?$AAX@ 10024b14     libucrt:lcidtoname_downlevel.obj
 0002:00004b20       ??_C@_1M@DNNANBDC@?$AAf?$AAr?$AA?9?$AAB?$AAE@ 10024b20     libucrt:lcidtoname_downlevel.obj
 0002:00004b2c       ??_C@_1M@HLGMDFHM@?$AAi?$AAt?$AA?9?$AAC?$AAH@ 10024b2c     libucrt:lcidtoname_downlevel.obj
 0002:00004b38       ??_C@_1M@CLLBGJH@?$AAn?$AAl?$AA?9?$AAB?$AAE@ 10024b38     libucrt:lcidtoname_downlevel.obj
 0002:00004b44       ??_C@_1M@BODBOGLF@?$AAn?$AAn?$AA?9?$AAN?$AAO@ 10024b44     libucrt:lcidtoname_downlevel.obj
 0002:00004b50       ??_C@_1M@HFFAHKAD@?$AAp?$AAt?$AA?9?$AAP?$AAT@ 10024b50     libucrt:lcidtoname_downlevel.obj
 0002:00004b5c       ??_C@_1BG@LNOAKHIE@?$AAs?$AAr?$AA?9?$AAS?$AAP?$AA?9?$AAL?$AAa?$AAt?$AAn@ 10024b5c     libucrt:lcidtoname_downlevel.obj
 0002:00004b74       ??_C@_1M@HBMHBGAK@?$AAs?$AAv?$AA?9?$AAF?$AAI@ 10024b74     libucrt:lcidtoname_downlevel.obj
 0002:00004b80       ??_C@_1BG@DGCJGJBE@?$AAa?$AAz?$AA?9?$AAA?$AAZ?$AA?9?$AAC?$AAy?$AAr?$AAl@ 10024b80     libucrt:lcidtoname_downlevel.obj
 0002:00004b98       ??_C@_1M@KEJDAAHB@?$AAs?$AAe?$AA?9?$AAS?$AAE@ 10024b98     libucrt:lcidtoname_downlevel.obj
 0002:00004ba4       ??_C@_1M@HEIBJJAD@?$AAm?$AAs?$AA?9?$AAB?$AAN@ 10024ba4     libucrt:lcidtoname_downlevel.obj
 0002:00004bb0       ??_C@_1BG@PBGJMCEM@?$AAu?$AAz?$AA?9?$AAU?$AAZ?$AA?9?$AAC?$AAy?$AAr?$AAl@ 10024bb0     libucrt:lcidtoname_downlevel.obj
 0002:00004bc8       ??_C@_1O@LAOBCMDF@?$AAq?$AAu?$AAz?$AA?9?$AAE?$AAC@ 10024bc8     libucrt:lcidtoname_downlevel.obj
 0002:00004bd8       ??_C@_1M@POEEMAIO@?$AAa?$AAr?$AA?9?$AAE?$AAG@ 10024bd8     libucrt:lcidtoname_downlevel.obj
 0002:00004be4       ??_C@_1M@EFAKDEDL@?$AAz?$AAh?$AA?9?$AAH?$AAK@ 10024be4     libucrt:lcidtoname_downlevel.obj
 0002:00004bf0       ??_C@_1M@HKKIJHGI@?$AAd?$AAe?$AA?9?$AAA?$AAT@ 10024bf0     libucrt:lcidtoname_downlevel.obj
 0002:00004bfc       ??_C@_1M@KBFBEHJF@?$AAe?$AAn?$AA?9?$AAA?$AAU@ 10024bfc     libucrt:lcidtoname_downlevel.obj
 0002:00004c08       ??_C@_1M@MNPLFAAH@?$AAe?$AAs?$AA?9?$AAE?$AAS@ 10024c08     libucrt:lcidtoname_downlevel.obj
 0002:00004c14       ??_C@_1M@HJOOJFMA@?$AAf?$AAr?$AA?9?$AAC?$AAA@ 10024c14     libucrt:lcidtoname_downlevel.obj
 0002:00004c20       ??_C@_1BG@JPOFPNAB@?$AAs?$AAr?$AA?9?$AAS?$AAP?$AA?9?$AAC?$AAy?$AAr?$AAl@ 10024c20     libucrt:lcidtoname_downlevel.obj
 0002:00004c38       ??_C@_1M@LNFOCMOB@?$AAs?$AAe?$AA?9?$AAF?$AAI@ 10024c38     libucrt:lcidtoname_downlevel.obj
 0002:00004c44       ??_C@_1O@MGJBOAMB@?$AAq?$AAu?$AAz?$AA?9?$AAP?$AAE@ 10024c44     libucrt:lcidtoname_downlevel.obj
 0002:00004c54       ??_C@_1M@GJINLBOK@?$AAa?$AAr?$AA?9?$AAL?$AAY@ 10024c54     libucrt:lcidtoname_downlevel.obj
 0002:00004c60       ??_C@_1M@GGMNHJNL@?$AAz?$AAh?$AA?9?$AAS?$AAG@ 10024c60     libucrt:lcidtoname_downlevel.obj
 0002:00004c6c       ??_C@_1M@HOIKODND@?$AAd?$AAe?$AA?9?$AAL?$AAU@ 10024c6c     libucrt:lcidtoname_downlevel.obj
 0002:00004c78       ??_C@_1M@DDOCCGFG@?$AAe?$AAn?$AA?9?$AAC?$AAA@ 10024c78     libucrt:lcidtoname_downlevel.obj
 0002:00004c84       ??_C@_1M@BNOEMJLF@?$AAe?$AAs?$AA?9?$AAG?$AAT@ 10024c84     libucrt:lcidtoname_downlevel.obj
 0002:00004c90       ??_C@_1M@EOGNKEK@?$AAf?$AAr?$AA?9?$AAC?$AAH@ 10024c90     libucrt:lcidtoname_downlevel.obj
 0002:00004c9c       ??_C@_1M@FLIDJFHL@?$AAh?$AAr?$AA?9?$AAB?$AAA@ 10024c9c     libucrt:lcidtoname_downlevel.obj
 0002:00004ca8       ??_C@_1O@FMCELNAJ@?$AAs?$AAm?$AAj?$AA?9?$AAN?$AAO@ 10024ca8     libucrt:lcidtoname_downlevel.obj
 0002:00004cb8       ??_C@_1M@JHGLJMGJ@?$AAa?$AAr?$AA?9?$AAD?$AAZ@ 10024cb8     libucrt:lcidtoname_downlevel.obj
 0002:00004cc4       ??_C@_1M@JKKFDCNP@?$AAz?$AAh?$AA?9?$AAM?$AAO@ 10024cc4     libucrt:lcidtoname_downlevel.obj
 0002:00004cd0       ??_C@_1M@GEEFALPE@?$AAd?$AAe?$AA?9?$AAL?$AAI@ 10024cd0     libucrt:lcidtoname_downlevel.obj
 0002:00004cdc       ??_C@_1M@IGEOFBG@?$AAe?$AAn?$AA?9?$AAN?$AAZ@ 10024cdc     libucrt:lcidtoname_downlevel.obj
 0002:00004ce8       ??_C@_1M@KDBONEHP@?$AAe?$AAs?$AA?9?$AAC?$AAR@ 10024ce8     libucrt:lcidtoname_downlevel.obj
 0002:00004cf4       ??_C@_1M@FHMDOHNN@?$AAf?$AAr?$AA?9?$AAL?$AAU@ 10024cf4     libucrt:lcidtoname_downlevel.obj
 0002:00004d00       ??_C@_1BG@NFKKMAFG@?$AAb?$AAs?$AA?9?$AAB?$AAA?$AA?9?$AAL?$AAa?$AAt?$AAn@ 10024d00     libucrt:lcidtoname_downlevel.obj
 0002:00004d18       ??_C@_1O@IMNBEMCI@?$AAs?$AAm?$AAj?$AA?9?$AAS?$AAE@ 10024d18     libucrt:lcidtoname_downlevel.obj
 0002:00004d28       ??_C@_1M@DHHMBNDP@?$AAa?$AAr?$AA?9?$AAM?$AAA@ 10024d28     libucrt:lcidtoname_downlevel.obj
 0002:00004d34       ??_C@_1M@BNBLJCGH@?$AAe?$AAn?$AA?9?$AAI?$AAE@ 10024d34     libucrt:lcidtoname_downlevel.obj
 0002:00004d40       ??_C@_1M@GEPAFMDL@?$AAe?$AAs?$AA?9?$AAP?$AAA@ 10024d40     libucrt:lcidtoname_downlevel.obj
 0002:00004d4c       ??_C@_1M@OJONDMDL@?$AAf?$AAr?$AA?9?$AAM?$AAC@ 10024d4c     libucrt:lcidtoname_downlevel.obj
 0002:00004d58       ??_C@_1BG@OBCNFJB@?$AAs?$AAr?$AA?9?$AAB?$AAA?$AA?9?$AAL?$AAa?$AAt?$AAn@ 10024d58     libucrt:lcidtoname_downlevel.obj
 0002:00004d70       ??_C@_1O@KEMEEGPO@?$AAs?$AAm?$AAa?$AA?9?$AAN?$AAO@ 10024d70     libucrt:lcidtoname_downlevel.obj
 0002:00004d80       ??_C@_1M@ELMGFODK@?$AAa?$AAr?$AA?9?$AAT?$AAN@ 10024d80     libucrt:lcidtoname_downlevel.obj
 0002:00004d8c       ??_C@_1M@BHDLHFAF@?$AAe?$AAn?$AA?9?$AAZ?$AAA@ 10024d8c     libucrt:lcidtoname_downlevel.obj
 0002:00004d98       ??_C@_1M@BMGIGLIF@?$AAe?$AAs?$AA?9?$AAD?$AAO@ 10024d98     libucrt:lcidtoname_downlevel.obj
 0002:00004da4       ??_C@_1BG@CMBHIPBE@?$AAs?$AAr?$AA?9?$AAB?$AAA?$AA?9?$AAC?$AAy?$AAr?$AAl@ 10024da4     libucrt:lcidtoname_downlevel.obj
 0002:00004dbc       ??_C@_1O@HEDBLHNP@?$AAs?$AAm?$AAa?$AA?9?$AAS?$AAE@ 10024dbc     libucrt:lcidtoname_downlevel.obj
 0002:00004dcc       ??_C@_1M@DAGCADIM@?$AAa?$AAr?$AA?9?$AAO?$AAM@ 10024dcc     libucrt:lcidtoname_downlevel.obj
 0002:00004dd8       ??_C@_1M@FODLMICG@?$AAe?$AAn?$AA?9?$AAJ?$AAM@ 10024dd8     libucrt:lcidtoname_downlevel.obj
 0002:00004de4       ??_C@_1M@DNMLCIHB@?$AAe?$AAs?$AA?9?$AAV?$AAE@ 10024de4     libucrt:lcidtoname_downlevel.obj
 0002:00004df0       ??_C@_1O@EOKHMKJK@?$AAs?$AAm?$AAs?$AA?9?$AAF?$AAI@ 10024df0     libucrt:lcidtoname_downlevel.obj
 0002:00004e00       ??_C@_1M@CAFJMKOF@?$AAa?$AAr?$AA?9?$AAY?$AAE@ 10024e00     libucrt:lcidtoname_downlevel.obj
 0002:00004e0c       ??_C@_1M@CBFHIJLI@?$AAe?$AAn?$AA?9?$AAC?$AAB@ 10024e0c     libucrt:lcidtoname_downlevel.obj
 0002:00004e18       ??_C@_1M@BGNFLDN@?$AAe?$AAs?$AA?9?$AAC?$AAO@ 10024e18     libucrt:lcidtoname_downlevel.obj
 0002:00004e24       ??_C@_1O@JMPHMAMC@?$AAs?$AAm?$AAn?$AA?9?$AAF?$AAI@ 10024e24     libucrt:lcidtoname_downlevel.obj
 0002:00004e34       ??_C@_1M@JLANABKE@?$AAa?$AAr?$AA?9?$AAS?$AAY@ 10024e34     libucrt:lcidtoname_downlevel.obj
 0002:00004e40       ??_C@_1M@HPKGCFGN@?$AAe?$AAn?$AA?9?$AAB?$AAZ@ 10024e40     libucrt:lcidtoname_downlevel.obj
 0002:00004e4c       ??_C@_1M@OLJCMLGM@?$AAe?$AAs?$AA?9?$AAP?$AAE@ 10024e4c     libucrt:lcidtoname_downlevel.obj
 0002:00004e58       ??_C@_1M@MKKGFKLE@?$AAa?$AAr?$AA?9?$AAJ?$AAO@ 10024e58     libucrt:lcidtoname_downlevel.obj
 0002:00004e64       ??_C@_1M@EKPGLDNI@?$AAe?$AAn?$AA?9?$AAT?$AAT@ 10024e64     libucrt:lcidtoname_downlevel.obj
 0002:00004e70       ??_C@_1M@OONGHFHE@?$AAe?$AAs?$AA?9?$AAA?$AAR@ 10024e70     libucrt:lcidtoname_downlevel.obj
 0002:00004e7c       ??_C@_1M@OOJFGBHE@?$AAa?$AAr?$AA?9?$AAL?$AAB@ 10024e7c     libucrt:lcidtoname_downlevel.obj
 0002:00004e88       ??_C@_1M@GCEJHNEG@?$AAe?$AAn?$AA?9?$AAZ?$AAW@ 10024e88     libucrt:lcidtoname_downlevel.obj
 0002:00004e94       ??_C@_1M@JNOCAHJI@?$AAe?$AAs?$AA?9?$AAE?$AAC@ 10024e94     libucrt:lcidtoname_downlevel.obj
 0002:00004ea0       ??_C@_1M@JEFHPGGB@?$AAa?$AAr?$AA?9?$AAK?$AAW@ 10024ea0     libucrt:lcidtoname_downlevel.obj
 0002:00004eac       ??_C@_1M@MLKIBJOJ@?$AAe?$AAn?$AA?9?$AAP?$AAH@ 10024eac     libucrt:lcidtoname_downlevel.obj
 0002:00004eb8       ??_C@_1M@BDNIPEND@?$AAe?$AAs?$AA?9?$AAC?$AAL@ 10024eb8     libucrt:lcidtoname_downlevel.obj
 0002:00004ec4       ??_C@_1M@MPNMEKBD@?$AAa?$AAr?$AA?9?$AAA?$AAE@ 10024ec4     libucrt:lcidtoname_downlevel.obj
 0002:00004ed0       ??_C@_1M@KBJALCPI@?$AAe?$AAs?$AA?9?$AAU?$AAY@ 10024ed0     libucrt:lcidtoname_downlevel.obj
 0002:00004edc       ??_C@_1M@LLCCOAGA@?$AAa?$AAr?$AA?9?$AAB?$AAH@ 10024edc     libucrt:lcidtoname_downlevel.obj
 0002:00004ee8       ??_C@_1M@PBFNCDEL@?$AAe?$AAs?$AA?9?$AAP?$AAY@ 10024ee8     libucrt:lcidtoname_downlevel.obj
 0002:00004ef4       ??_C@_1M@EDGINPNP@?$AAa?$AAr?$AA?9?$AAQ?$AAA@ 10024ef4     libucrt:lcidtoname_downlevel.obj
 0002:00004f00       ??_C@_1M@MKDBIIJI@?$AAe?$AAs?$AA?9?$AAB?$AAO@ 10024f00     libucrt:lcidtoname_downlevel.obj
 0002:00004f0c       ??_C@_1M@CPKKEBLD@?$AAe?$AAs?$AA?9?$AAS?$AAV@ 10024f0c     libucrt:lcidtoname_downlevel.obj
 0002:00004f18       ??_C@_1M@NDBGMMJL@?$AAe?$AAs?$AA?9?$AAH?$AAN@ 10024f18     libucrt:lcidtoname_downlevel.obj
 0002:00004f24       ??_C@_1M@JIJIBHDP@?$AAe?$AAs?$AA?9?$AAN?$AAI@ 10024f24     libucrt:lcidtoname_downlevel.obj
 0002:00004f30       ??_C@_1M@CGFMKEEK@?$AAe?$AAs?$AA?9?$AAP?$AAR@ 10024f30     libucrt:lcidtoname_downlevel.obj
 0002:00004f3c       ??_C@_1O@ICJHKIIK@?$AAz?$AAh?$AA?9?$AAC?$AAH?$AAT@ 10024f3c     libucrt:lcidtoname_downlevel.obj
 0002:00004f4c       ??_C@_15CLNEJCE@?$AAs?$AAr@ 10024f4c     libucrt:lcidtoname_downlevel.obj
 0002:00005678       ??_C@_1M@KAHEKEIG@?$AAa?$AAf?$AA?9?$AAz?$AAa@ 10025678     libucrt:lcidtoname_downlevel.obj
 0002:00005684       ??_C@_1M@GIECOABL@?$AAa?$AAr?$AA?9?$AAa?$AAe@ 10025684     libucrt:lcidtoname_downlevel.obj
 0002:00005690       ??_C@_1M@BMLMEKGI@?$AAa?$AAr?$AA?9?$AAb?$AAh@ 10025690     libucrt:lcidtoname_downlevel.obj
 0002:0000569c       ??_C@_1M@DAPFDGGB@?$AAa?$AAr?$AA?9?$AAd?$AAz@ 1002569c     libucrt:lcidtoname_downlevel.obj
 0002:000056a8       ??_C@_1M@FJNKGKIG@?$AAa?$AAr?$AA?9?$AAe?$AAg@ 100256a8     libucrt:lcidtoname_downlevel.obj
 0002:000056b4       ??_C@_1M@FLGKKCLO@?$AAa?$AAr?$AA?9?$AAi?$AAq@ 100256b4     libucrt:lcidtoname_downlevel.obj
 0002:000056c0       ??_C@_1M@GNDIPALM@?$AAa?$AAr?$AA?9?$AAj?$AAo@ 100256c0     libucrt:lcidtoname_downlevel.obj
 0002:000056cc       ??_C@_1M@DDMJFMGJ@?$AAa?$AAr?$AA?9?$AAk?$AAw@ 100256cc     libucrt:lcidtoname_downlevel.obj
 0002:000056d8       ??_C@_1M@EJALMLHM@?$AAa?$AAr?$AA?9?$AAl?$AAb@ 100256d8     libucrt:lcidtoname_downlevel.obj
 0002:000056e4       ??_C@_1M@MOBDBLOC@?$AAa?$AAr?$AA?9?$AAl?$AAy@ 100256e4     libucrt:lcidtoname_downlevel.obj
 0002:000056f0       ??_C@_1M@JAOCLHDH@?$AAa?$AAr?$AA?9?$AAm?$AAa@ 100256f0     libucrt:lcidtoname_downlevel.obj
 0002:000056fc       ??_C@_1M@JHPMKJIE@?$AAa?$AAr?$AA?9?$AAo?$AAm@ 100256fc     libucrt:lcidtoname_downlevel.obj
 0002:00005708       ??_C@_1M@OEPGHFNH@?$AAa?$AAr?$AA?9?$AAq?$AAa@ 10025708     libucrt:lcidtoname_downlevel.obj
 0002:00005714       ??_C@_1M@KJDONENM@?$AAa?$AAr?$AA?9?$AAs?$AAa@ 10025714     libucrt:lcidtoname_downlevel.obj
 0002:00005720       ??_C@_1M@DMJDKLKM@?$AAa?$AAr?$AA?9?$AAs?$AAy@ 10025720     libucrt:lcidtoname_downlevel.obj
 0002:0000572c       ??_C@_1M@OMFIPEDC@?$AAa?$AAr?$AA?9?$AAt?$AAn@ 1002572c     libucrt:lcidtoname_downlevel.obj
 0002:00005738       ??_C@_1M@IHMHGAON@?$AAa?$AAr?$AA?9?$AAy?$AAe@ 10025738     libucrt:lcidtoname_downlevel.obj
 0002:00005744       ??_C@_1BG@KDCPGJGB@?$AAa?$AAz?$AA?9?$AAa?$AAz?$AA?9?$AAc?$AAy?$AAr?$AAl@ 10025744     libucrt:lcidtoname_downlevel.obj
 0002:0000575c       ??_C@_1BG@IBCKDDOE@?$AAa?$AAz?$AA?9?$AAa?$AAz?$AA?9?$AAl?$AAa?$AAt?$AAn@ 1002575c     libucrt:lcidtoname_downlevel.obj
 0002:00005774       ??_C@_1M@EGPFDCPD@?$AAb?$AAe?$AA?9?$AAb?$AAy@ 10025774     libucrt:lcidtoname_downlevel.obj
 0002:00005780       ??_C@_1M@PCMGMCGC@?$AAb?$AAg?$AA?9?$AAb?$AAg@ 10025780     libucrt:lcidtoname_downlevel.obj
 0002:0000578c       ??_C@_1M@BJBMFGOB@?$AAb?$AAn?$AA?9?$AAi?$AAn@ 1002578c     libucrt:lcidtoname_downlevel.obj
 0002:00005798       ??_C@_1BG@EAKMMACD@?$AAb?$AAs?$AA?9?$AAb?$AAa?$AA?9?$AAl?$AAa?$AAt?$AAn@ 10025798     libucrt:lcidtoname_downlevel.obj
 0002:000057b0       ??_C@_1M@KGADAODK@?$AAc?$AAa?$AA?9?$AAe?$AAs@ 100257b0     libucrt:lcidtoname_downlevel.obj
 0002:000057bc       ??_C@_1M@COAJPDHI@?$AAc?$AAs?$AA?9?$AAc?$AAz@ 100257bc     libucrt:lcidtoname_downlevel.obj
 0002:000057c8       ??_C@_1M@DHBHFONH@?$AAc?$AAy?$AA?9?$AAg?$AAb@ 100257c8     libucrt:lcidtoname_downlevel.obj
 0002:000057d4       ??_C@_1M@IMGKELGA@?$AAd?$AAa?$AA?9?$AAd?$AAk@ 100257d4     libucrt:lcidtoname_downlevel.obj
 0002:000057e0       ??_C@_1M@NNDGDNGA@?$AAd?$AAe?$AA?9?$AAa?$AAt@ 100257e0     libucrt:lcidtoname_downlevel.obj
 0002:000057ec       ??_C@_1M@IKDBHEEM@?$AAd?$AAe?$AA?9?$AAc?$AAh@ 100257ec     libucrt:lcidtoname_downlevel.obj
 0002:000057f8       ??_C@_1M@GFFOJMCJ@?$AAd?$AAe?$AA?9?$AAd?$AAe@ 100257f8     libucrt:lcidtoname_downlevel.obj
 0002:00005804       ??_C@_1M@MDNLKBPM@?$AAd?$AAe?$AA?9?$AAl?$AAi@ 10025804     libucrt:lcidtoname_downlevel.obj
 0002:00005810       ??_C@_1M@NJBEEJNL@?$AAd?$AAe?$AA?9?$AAl?$AAu@ 10025810     libucrt:lcidtoname_downlevel.obj
 0002:0000581c       ??_C@_1O@GNNELBAP@?$AAd?$AAi?$AAv?$AA?9?$AAm?$AAv@ 1002581c     libucrt:lcidtoname_downlevel.obj
 0002:0000582c       ??_C@_1M@EJLEOGAE@?$AAe?$AAl?$AA?9?$AAg?$AAr@ 1002582c     libucrt:lcidtoname_downlevel.obj
 0002:00005838       ??_C@_1M@GMPONJN@?$AAe?$AAn?$AA?9?$AAa?$AAu@ 10025838     libucrt:lcidtoname_downlevel.obj
 0002:00005844       ??_C@_1M@NIDIIPGF@?$AAe?$AAn?$AA?9?$AAb?$AAz@ 10025844     libucrt:lcidtoname_downlevel.obj
 0002:00005850       ??_C@_1M@JEHMIMFO@?$AAe?$AAn?$AA?9?$AAc?$AAa@ 10025850     libucrt:lcidtoname_downlevel.obj
 0002:0000585c       ??_C@_1M@IGMJCDLA@?$AAe?$AAn?$AA?9?$AAc?$AAb@ 1002585c     libucrt:lcidtoname_downlevel.obj
 0002:00005868       ??_C@_1M@BNFIGBKG@?$AAe?$AAn?$AA?9?$AAg?$AAb@ 10025868     libucrt:lcidtoname_downlevel.obj
 0002:00005874       ??_C@_1M@LKIFDIGP@?$AAe?$AAn?$AA?9?$AAi?$AAe@ 10025874     libucrt:lcidtoname_downlevel.obj
 0002:00005880       ??_C@_1M@PJKFGCCO@?$AAe?$AAn?$AA?9?$AAj?$AAm@ 10025880     libucrt:lcidtoname_downlevel.obj
 0002:0000588c       ??_C@_1M@KPPKEPBO@?$AAe?$AAn?$AA?9?$AAn?$AAz@ 1002588c     libucrt:lcidtoname_downlevel.obj
 0002:00005898       ??_C@_1M@GMDGLDOB@?$AAe?$AAn?$AA?9?$AAp?$AAh@ 10025898     libucrt:lcidtoname_downlevel.obj
 0002:000058a4       ??_C@_1M@ONGIBJNA@?$AAe?$AAn?$AA?9?$AAt?$AAt@ 100258a4     libucrt:lcidtoname_downlevel.obj
 0002:000058b0       ??_C@_1M@LLODPCMM@?$AAe?$AAn?$AA?9?$AAu?$AAs@ 100258b0     libucrt:lcidtoname_downlevel.obj
 0002:000058bc       ??_C@_1M@LAKFNPAN@?$AAe?$AAn?$AA?9?$AAz?$AAa@ 100258bc     libucrt:lcidtoname_downlevel.obj
 0002:000058c8       ??_C@_1M@MFNHNHEO@?$AAe?$AAn?$AA?9?$AAz?$AAw@ 100258c8     libucrt:lcidtoname_downlevel.obj
 0002:000058d4       ??_C@_1M@EJEINPHM@?$AAe?$AAs?$AA?9?$AAa?$AAr@ 100258d4     libucrt:lcidtoname_downlevel.obj
 0002:000058e0       ??_C@_1M@GNKPCCJA@?$AAe?$AAs?$AA?9?$AAb?$AAo@ 100258e0     libucrt:lcidtoname_downlevel.obj
 0002:000058ec       ??_C@_1M@LEEGFONL@?$AAe?$AAs?$AA?9?$AAc?$AAl@ 100258ec     libucrt:lcidtoname_downlevel.obj
 0002:000058f8       ??_C@_1M@KGPDPBDF@?$AAe?$AAs?$AA?9?$AAc?$AAo@ 100258f8     libucrt:lcidtoname_downlevel.obj
 0002:00005904       ??_C@_1M@EIAHOHH@?$AAe?$AAs?$AA?9?$AAc?$AAr@ 10025904     libucrt:lcidtoname_downlevel.obj
 0002:00005910       ??_C@_1M@LLPGMBIN@?$AAe?$AAs?$AA?9?$AAd?$AAo@ 10025910     libucrt:lcidtoname_downlevel.obj
 0002:0000591c       ??_C@_1M@DKHMKNJA@?$AAe?$AAs?$AA?9?$AAe?$AAc@ 1002591c     libucrt:lcidtoname_downlevel.obj
 0002:00005928       ??_C@_1M@GKGFPKAP@?$AAe?$AAs?$AA?9?$AAe?$AAs@ 10025928     libucrt:lcidtoname_downlevel.obj
 0002:00005934       ??_C@_1M@LKHKGDLN@?$AAe?$AAs?$AA?9?$AAg?$AAt@ 10025934     libucrt:lcidtoname_downlevel.obj
 0002:00005940       ??_C@_1M@HEIIGGJD@?$AAe?$AAs?$AA?9?$AAh?$AAn@ 10025940     libucrt:lcidtoname_downlevel.obj
 0002:0000594c       ??_C@_1M@FBDHPPGD@?$AAe?$AAs?$AA?9?$AAm?$AAx@ 1002594c     libucrt:lcidtoname_downlevel.obj
 0002:00005958       ??_C@_1M@DPAGLNDH@?$AAe?$AAs?$AA?9?$AAn?$AAi@ 10025958     libucrt:lcidtoname_downlevel.obj
 0002:00005964       ??_C@_1M@MDGOPGDD@?$AAe?$AAs?$AA?9?$AAp?$AAa@ 10025964     libucrt:lcidtoname_downlevel.obj
 0002:00005970       ??_C@_1M@EMAMGBGE@?$AAe?$AAs?$AA?9?$AAp?$AAe@ 10025970     libucrt:lcidtoname_downlevel.obj
 0002:0000597c       ??_C@_1M@IBMCAOEC@?$AAe?$AAs?$AA?9?$AAp?$AAr@ 1002597c     libucrt:lcidtoname_downlevel.obj
 0002:00005988       ??_C@_1M@FGMDIJED@?$AAe?$AAs?$AA?9?$AAp?$AAy@ 10025988     libucrt:lcidtoname_downlevel.obj
 0002:00005994       ??_C@_1M@IIDEOLLL@?$AAe?$AAs?$AA?9?$AAs?$AAv@ 10025994     libucrt:lcidtoname_downlevel.obj
 0002:000059a0       ??_C@_1M@GAOBIPA@?$AAe?$AAs?$AA?9?$AAu?$AAy@ 100259a0     libucrt:lcidtoname_downlevel.obj
 0002:000059ac       ??_C@_1M@JKFFICHJ@?$AAe?$AAs?$AA?9?$AAv?$AAe@ 100259ac     libucrt:lcidtoname_downlevel.obj
 0002:000059b8       ??_C@_1M@PNMLOJDF@?$AAe?$AAt?$AA?9?$AAe?$AAe@ 100259b8     libucrt:lcidtoname_downlevel.obj
 0002:000059c4       ??_C@_1M@GHHLIKEI@?$AAe?$AAu?$AA?9?$AAe?$AAs@ 100259c4     libucrt:lcidtoname_downlevel.obj
 0002:000059d0       ??_C@_1M@PBNONODE@?$AAf?$AAa?$AA?9?$AAi?$AAr@ 100259d0     libucrt:lcidtoname_downlevel.obj
 0002:000059dc       ??_C@_1M@JEEHPMIL@?$AAf?$AAi?$AA?9?$AAf?$AAi@ 100259dc     libucrt:lcidtoname_downlevel.obj
 0002:000059e8       ??_C@_1M@LMDCNDBA@?$AAf?$AAo?$AA?9?$AAf?$AAo@ 100259e8     libucrt:lcidtoname_downlevel.obj
 0002:000059f4       ??_C@_1M@JKEOHLDK@?$AAf?$AAr?$AA?9?$AAb?$AAe@ 100259f4     libucrt:lcidtoname_downlevel.obj
 0002:00005a00       ??_C@_1M@NOHADPMI@?$AAf?$AAr?$AA?9?$AAc?$AAa@ 10025a00     libucrt:lcidtoname_downlevel.obj
 0002:00005a0c       ??_C@_1M@KDHIHAEC@?$AAf?$AAr?$AA?9?$AAc?$AAh@ 10025a0c     libucrt:lcidtoname_downlevel.obj
 0002:00005a18       ??_C@_1M@MMBBFGAK@?$AAf?$AAr?$AA?9?$AAf?$AAr@ 10025a18     libucrt:lcidtoname_downlevel.obj
 0002:00005a24       ??_C@_1M@PAFNENNF@?$AAf?$AAr?$AA?9?$AAl?$AAu@ 10025a24     libucrt:lcidtoname_downlevel.obj
 0002:00005a30       ??_C@_1M@EOHDJGDD@?$AAf?$AAr?$AA?9?$AAm?$AAc@ 10025a30     libucrt:lcidtoname_downlevel.obj
 0002:00005a3c       ??_C@_1M@FAPLLOPF@?$AAg?$AAl?$AA?9?$AAe?$AAs@ 10025a3c     libucrt:lcidtoname_downlevel.obj
 0002:00005a48       ??_C@_1M@FOPBFLOO@?$AAg?$AAu?$AA?9?$AAi?$AAn@ 10025a48     libucrt:lcidtoname_downlevel.obj
 0002:00005a54       ??_C@_1M@KBMCINPM@?$AAh?$AAe?$AA?9?$AAi?$AAl@ 10025a54     libucrt:lcidtoname_downlevel.obj
 0002:00005a60       ??_C@_1M@BBPHKFPJ@?$AAh?$AAi?$AA?9?$AAi?$AAn@ 10025a60     libucrt:lcidtoname_downlevel.obj
 0002:00005a6c       ??_C@_1M@PMBNDPHD@?$AAh?$AAr?$AA?9?$AAb?$AAa@ 10025a6c     libucrt:lcidtoname_downlevel.obj
 0002:00005a78       ??_C@_1M@BPCKOEGE@?$AAh?$AAr?$AA?9?$AAh?$AAr@ 10025a78     libucrt:lcidtoname_downlevel.obj
 0002:00005a84       ??_C@_1M@GACBMHKE@?$AAh?$AAu?$AA?9?$AAh?$AAu@ 10025a84     libucrt:lcidtoname_downlevel.obj
 0002:00005a90       ??_C@_1M@MILPAJJC@?$AAh?$AAy?$AA?9?$AAa?$AAm@ 10025a90     libucrt:lcidtoname_downlevel.obj
 0002:00005a9c       ??_C@_1M@BABBICEC@?$AAi?$AAd?$AA?9?$AAi?$AAd@ 10025a9c     libucrt:lcidtoname_downlevel.obj
 0002:00005aa8       ??_C@_1M@BIKNHHPF@?$AAi?$AAs?$AA?9?$AAi?$AAs@ 10025aa8     libucrt:lcidtoname_downlevel.obj
 0002:00005ab4       ??_C@_1M@NMPCJPHE@?$AAi?$AAt?$AA?9?$AAc?$AAh@ 10025ab4     libucrt:lcidtoname_downlevel.obj
 0002:00005ac0       ??_C@_1M@GHKGFEDF@?$AAi?$AAt?$AA?9?$AAi?$AAt@ 10025ac0     libucrt:lcidtoname_downlevel.obj
 0002:00005acc       ??_C@_1M@NIEJCJJA@?$AAj?$AAa?$AA?9?$AAj?$AAp@ 10025acc     libucrt:lcidtoname_downlevel.obj
 0002:00005ad8       ??_C@_1M@JILFNBIM@?$AAk?$AAa?$AA?9?$AAg?$AAe@ 10025ad8     libucrt:lcidtoname_downlevel.obj
 0002:00005ae4       ??_C@_1M@PACPMGPH@?$AAk?$AAk?$AA?9?$AAk?$AAz@ 10025ae4     libucrt:lcidtoname_downlevel.obj
 0002:00005af0       ??_C@_1M@IELFGMHA@?$AAk?$AAn?$AA?9?$AAi?$AAn@ 10025af0     libucrt:lcidtoname_downlevel.obj
 0002:00005afc       ??_C@_1O@IBBJHCH@?$AAk?$AAo?$AAk?$AA?9?$AAi?$AAn@ 10025afc     libucrt:lcidtoname_downlevel.obj
 0002:00005b0c       ??_C@_1M@DMHAEOGC@?$AAk?$AAo?$AA?9?$AAk?$AAr@ 10025b0c     libucrt:lcidtoname_downlevel.obj
 0002:00005b18       ??_C@_1M@HBAHBIGA@?$AAk?$AAy?$AA?9?$AAk?$AAg@ 10025b18     libucrt:lcidtoname_downlevel.obj
 0002:00005b24       ??_C@_1M@KPMILCJG@?$AAl?$AAt?$AA?9?$AAl?$AAt@ 10025b24     libucrt:lcidtoname_downlevel.obj
 0002:00005b30       ??_C@_1M@BDEKKCA@?$AAl?$AAv?$AA?9?$AAl?$AAv@ 10025b30     libucrt:lcidtoname_downlevel.obj
 0002:00005b3c       ??_C@_1M@ELCKCCJJ@?$AAm?$AAi?$AA?9?$AAn?$AAz@ 10025b3c     libucrt:lcidtoname_downlevel.obj
 0002:00005b48       ??_C@_1M@CBOOLAPA@?$AAm?$AAk?$AA?9?$AAm?$AAk@ 10025b48     libucrt:lcidtoname_downlevel.obj
 0002:00005b54       ??_C@_1M@GPHNBJKN@?$AAm?$AAl?$AA?9?$AAi?$AAn@ 10025b54     libucrt:lcidtoname_downlevel.obj
 0002:00005b60       ??_C@_1M@PABJILIG@?$AAm?$AAn?$AA?9?$AAm?$AAn@ 10025b60     libucrt:lcidtoname_downlevel.obj
 0002:00005b6c       ??_C@_1M@FGBKKIPG@?$AAm?$AAr?$AA?9?$AAi?$AAn@ 10025b6c     libucrt:lcidtoname_downlevel.obj
 0002:00005b78       ??_C@_1M@NDBPDDAL@?$AAm?$AAs?$AA?9?$AAb?$AAn@ 10025b78     libucrt:lcidtoname_downlevel.obj
 0002:00005b84       ??_C@_1M@OPIHOOPI@?$AAm?$AAs?$AA?9?$AAm?$AAy@ 10025b84     libucrt:lcidtoname_downlevel.obj
 0002:00005b90       ??_C@_1M@PPDBCNFM@?$AAm?$AAt?$AA?9?$AAm?$AAt@ 10025b90     libucrt:lcidtoname_downlevel.obj
 0002:00005b9c       ??_C@_1M@KDJDKMDD@?$AAn?$AAb?$AA?9?$AAn?$AAo@ 10025b9c     libucrt:lcidtoname_downlevel.obj
 0002:00005ba8       ??_C@_1M@KFCFLMJP@?$AAn?$AAl?$AA?9?$AAb?$AAe@ 10025ba8     libucrt:lcidtoname_downlevel.obj
 0002:00005bb4       ??_C@_1M@KPOPDDGO@?$AAn?$AAl?$AA?9?$AAn?$AAl@ 10025bb4     libucrt:lcidtoname_downlevel.obj
 0002:00005bc0       ??_C@_1M@LJKPEMLN@?$AAn?$AAn?$AA?9?$AAn?$AAo@ 10025bc0     libucrt:lcidtoname_downlevel.obj
 0002:00005bcc       ??_C@_1M@BDGHHBFL@?$AAn?$AAs?$AA?9?$AAz?$AAa@ 10025bcc     libucrt:lcidtoname_downlevel.obj
 0002:00005bd8       ??_C@_1M@IDEHOAP@?$AAp?$AAa?$AA?9?$AAi?$AAn@ 10025bd8     libucrt:lcidtoname_downlevel.obj
 0002:00005be4       ??_C@_1M@HDBKGOGH@?$AAp?$AAl?$AA?9?$AAp?$AAl@ 10025be4     libucrt:lcidtoname_downlevel.obj
 0002:00005bf0       ??_C@_1M@LJLLCMEH@?$AAp?$AAt?$AA?9?$AAb?$AAr@ 10025bf0     libucrt:lcidtoname_downlevel.obj
 0002:00005bfc       ??_C@_1M@NCMONAAL@?$AAp?$AAt?$AA?9?$AAp?$AAt@ 10025bfc     libucrt:lcidtoname_downlevel.obj
 0002:00005c08       ??_C@_1O@EAKMAJDN@?$AAq?$AAu?$AAz?$AA?9?$AAb?$AAo@ 10025c08     libucrt:lcidtoname_downlevel.obj
 0002:00005c18       ??_C@_1O@BHHPIGDN@?$AAq?$AAu?$AAz?$AA?9?$AAe?$AAc@ 10025c18     libucrt:lcidtoname_downlevel.obj
 0002:00005c28       ??_C@_1O@GBAPEKMJ@?$AAq?$AAu?$AAz?$AA?9?$AAp?$AAe@ 10025c28     libucrt:lcidtoname_downlevel.obj
 0002:00005c38       ??_C@_1M@CLGLEFBO@?$AAr?$AAo?$AA?9?$AAr?$AAo@ 10025c38     libucrt:lcidtoname_downlevel.obj
 0002:00005c44       ??_C@_1M@CEEDODME@?$AAr?$AAu?$AA?9?$AAr?$AAu@ 10025c44     libucrt:lcidtoname_downlevel.obj
 0002:00005c50       ??_C@_1M@HPKKKMPP@?$AAs?$AAa?$AA?9?$AAi?$AAn@ 10025c50     libucrt:lcidtoname_downlevel.obj
 0002:00005c5c       ??_C@_1M@BKMAIGOJ@?$AAs?$AAe?$AA?9?$AAf?$AAi@ 10025c5c     libucrt:lcidtoname_downlevel.obj
 0002:00005c68       ??_C@_1M@NDPIFLFI@?$AAs?$AAe?$AA?9?$AAn?$AAo@ 10025c68     libucrt:lcidtoname_downlevel.obj
 0002:00005c74       ??_C@_1M@DANKKHJ@?$AAs?$AAe?$AA?9?$AAs?$AAe@ 10025c74     libucrt:lcidtoname_downlevel.obj
 0002:00005c80       ??_C@_1M@PNBLONPJ@?$AAs?$AAk?$AA?9?$AAs?$AAk@ 10025c80     libucrt:lcidtoname_downlevel.obj
 0002:00005c8c       ??_C@_1M@LFMODOAL@?$AAs?$AAl?$AA?9?$AAs?$AAi@ 10025c8c     libucrt:lcidtoname_downlevel.obj
 0002:00005c98       ??_C@_1O@DFKOMPG@?$AAs?$AAm?$AAa?$AA?9?$AAn?$AAo@ 10025c98     libucrt:lcidtoname_downlevel.obj
 0002:00005ca8       ??_C@_1O@NDKPBNNH@?$AAs?$AAm?$AAa?$AA?9?$AAs?$AAe@ 10025ca8     libucrt:lcidtoname_downlevel.obj
 0002:00005cb8       ??_C@_1O@PLLKBHAB@?$AAs?$AAm?$AAj?$AA?9?$AAn?$AAo@ 10025cb8     libucrt:lcidtoname_downlevel.obj
 0002:00005cc8       ??_C@_1O@CLEPOGCA@?$AAs?$AAm?$AAj?$AA?9?$AAs?$AAe@ 10025cc8     libucrt:lcidtoname_downlevel.obj
 0002:00005cd8       ??_C@_1O@DLGJGKMK@?$AAs?$AAm?$AAn?$AA?9?$AAf?$AAi@ 10025cd8     libucrt:lcidtoname_downlevel.obj
 0002:00005ce8       ??_C@_1O@OJDJGAJC@?$AAs?$AAm?$AAs?$AA?9?$AAf?$AAi@ 10025ce8     libucrt:lcidtoname_downlevel.obj
 0002:00005cf8       ??_C@_1M@BOFOGHPB@?$AAs?$AAq?$AA?9?$AAa?$AAl@ 10025cf8     libucrt:lcidtoname_downlevel.obj
 0002:00005d04       ??_C@_1BG@LJBBIPGB@?$AAs?$AAr?$AA?9?$AAb?$AAa?$AA?9?$AAc?$AAy?$AAr?$AAl@ 10025d04     libucrt:lcidtoname_downlevel.obj
 0002:00005d1c       ??_C@_1BG@JLBENFOE@?$AAs?$AAr?$AA?9?$AAb?$AAa?$AA?9?$AAl?$AAa?$AAt?$AAn@ 10025d1c     libucrt:lcidtoname_downlevel.obj
 0002:00005d34       ??_C@_1BG@KODPNHE@?$AAs?$AAr?$AA?9?$AAs?$AAp?$AA?9?$AAc?$AAy?$AAr?$AAl@ 10025d34     libucrt:lcidtoname_downlevel.obj
 0002:00005d4c       ??_C@_1BG@CIOGKHPB@?$AAs?$AAr?$AA?9?$AAs?$AAp?$AA?9?$AAl?$AAa?$AAt?$AAn@ 10025d4c     libucrt:lcidtoname_downlevel.obj
 0002:00005d64       ??_C@_1M@NGFJLMAC@?$AAs?$AAv?$AA?9?$AAf?$AAi@ 10025d64     libucrt:lcidtoname_downlevel.obj
 0002:00005d70       ??_C@_1M@MPJEJAJC@?$AAs?$AAv?$AA?9?$AAs?$AAe@ 10025d70     libucrt:lcidtoname_downlevel.obj
 0002:00005d7c       ??_C@_1M@MPNDHLFK@?$AAs?$AAw?$AA?9?$AAk?$AAe@ 10025d7c     libucrt:lcidtoname_downlevel.obj
 0002:00005d88       ??_C@_1O@KOHBJJI@?$AAs?$AAy?$AAr?$AA?9?$AAs?$AAy@ 10025d88     libucrt:lcidtoname_downlevel.obj
 0002:00005d98       ??_C@_1M@LDCEFHA@?$AAt?$AAa?$AA?9?$AAi?$AAn@ 10025d98     libucrt:lcidtoname_downlevel.obj
 0002:00005da4       ??_C@_1M@CNJOFAK@?$AAt?$AAe?$AA?9?$AAi?$AAn@ 10025da4     libucrt:lcidtoname_downlevel.obj
 0002:00005db0       ??_C@_1M@GNAECACD@?$AAt?$AAh?$AA?9?$AAt?$AAh@ 10025db0     libucrt:lcidtoname_downlevel.obj
 0002:00005dbc       ??_C@_1M@CHBIHOJO@?$AAt?$AAn?$AA?9?$AAz?$AAa@ 10025dbc     libucrt:lcidtoname_downlevel.obj
 0002:00005dc8       ??_C@_1M@GCCMIGPJ@?$AAt?$AAr?$AA?9?$AAt?$AAr@ 10025dc8     libucrt:lcidtoname_downlevel.obj
 0002:00005dd4       ??_C@_1M@CELMCNBK@?$AAt?$AAt?$AA?9?$AAr?$AAu@ 10025dd4     libucrt:lcidtoname_downlevel.obj
 0002:00005de0       ??_C@_1M@KLMCELGA@?$AAu?$AAk?$AA?9?$AAu?$AAa@ 10025de0     libucrt:lcidtoname_downlevel.obj
 0002:00005dec       ??_C@_1M@EPAJJAJF@?$AAu?$AAr?$AA?9?$AAp?$AAk@ 10025dec     libucrt:lcidtoname_downlevel.obj
 0002:00005df8       ??_C@_1BG@GEGPMCDJ@?$AAu?$AAz?$AA?9?$AAu?$AAz?$AA?9?$AAc?$AAy?$AAr?$AAl@ 10025df8     libucrt:lcidtoname_downlevel.obj
 0002:00005e10       ??_C@_1BG@EGGKJILM@?$AAu?$AAz?$AA?9?$AAu?$AAz?$AA?9?$AAl?$AAa?$AAt?$AAn@ 10025e10     libucrt:lcidtoname_downlevel.obj
 0002:00005e28       ??_C@_1M@GFOCLFF@?$AAv?$AAi?$AA?9?$AAv?$AAn@ 10025e28     libucrt:lcidtoname_downlevel.obj
 0002:00005e34       ??_C@_1M@CPAMEDFI@?$AAx?$AAh?$AA?9?$AAz?$AAa@ 10025e34     libucrt:lcidtoname_downlevel.obj
 0002:00005e40       ??_C@_1O@EBKIFIGN@?$AAz?$AAh?$AA?9?$AAc?$AAh?$AAs@ 10025e40     libucrt:lcidtoname_downlevel.obj
 0002:00005e50       ??_C@_1O@NMHPGANE@?$AAz?$AAh?$AA?9?$AAc?$AAh?$AAt@ 10025e50     libucrt:lcidtoname_downlevel.obj
 0002:00005e60       ??_C@_1M@LPINJOMC@?$AAz?$AAh?$AA?9?$AAc?$AAn@ 10025e60     libucrt:lcidtoname_downlevel.obj
 0002:00005e6c       ??_C@_1M@OCJEJODD@?$AAz?$AAh?$AA?9?$AAh?$AAk@ 10025e6c     libucrt:lcidtoname_downlevel.obj
 0002:00005e78       ??_C@_1M@DNDLJINH@?$AAz?$AAh?$AA?9?$AAm?$AAo@ 10025e78     libucrt:lcidtoname_downlevel.obj
 0002:00005e84       ??_C@_1M@MBFDNDND@?$AAz?$AAh?$AA?9?$AAs?$AAg@ 10025e84     libucrt:lcidtoname_downlevel.obj
 0002:00005e90       ??_C@_1M@IMEPLEPE@?$AAz?$AAh?$AA?9?$AAt?$AAw@ 10025e90     libucrt:lcidtoname_downlevel.obj
 0002:00005e9c       ??_C@_1M@BBGHNHJP@?$AAz?$AAu?$AA?9?$AAz?$AAa@ 10025e9c     libucrt:lcidtoname_downlevel.obj
 0002:00005ea8       ?large_power_data@?1??multiply_by_power_of_ten@__crt_strtox@@YA_NAAUbig_integer@2@I@Z@4QBIB 10025ea8     libucrt:cfout.obj
 0002:000067b0       ?large_power_indices@?1??multiply_by_power_of_ten@__crt_strtox@@YA_NAAUbig_integer@2@I@Z@4QBUunpack_index@?1??12@YA_N0I@Z@B 100267b0     libucrt:cfout.obj
 0002:00006848       ?small_powers_of_ten@?1??multiply_by_power_of_ten@__crt_strtox@@YA_NAAUbig_integer@2@I@Z@4QBIB 10026848     libucrt:cfout.obj
 0002:0000686c       ??_C@_01GBGANLPD@0@        1002686c     libucrt:cfout.obj
 0002:00006870       ??_C@_05DNEBIAHO@1?$CDINF@ 10026870     libucrt:cfout.obj
 0002:00006878       ??_C@_06IMKFLFPG@1?$CDQNAN@ 10026878     libucrt:cfout.obj
 0002:00006880       ??_C@_06PGGFOGJG@1?$CDSNAN@ 10026880     libucrt:cfout.obj
 0002:00006888       ??_C@_05PHHOCPM@1?$CDIND@  10026888     libucrt:cfout.obj
 0002:000069f0       __infinity                 100269f0     libucrt:87tran.obj
 0002:000069fa       __minfinity                100269fa     libucrt:87tran.obj
 0002:00006a04       __logemax                  10026a04     libucrt:87tran.obj
 0002:00006a2a       __OP_EXPjmptab             10026a2a     libucrt:87tran.obj
 0002:00006a50       __indefinite               10026a50     libucrt:87disp.obj
 0002:00006a5a       __piby2                    10026a5a     libucrt:87disp.obj
 0002:00006a64       __piby4                    10026a64     libucrt:87disp.obj
 0002:00006a98       __DEFAULT_CW_in_mem        10026a98     libucrt:common.obj
 0002:00006a9a       __pi_by_2_to_61            10026a9a     libucrt:common.obj
 0002:00006ad4       ??_C@_03MGHMBJCF@log@      10026ad4     libucrt:libm_error.obj
 0002:00006ad8       ??_C@_05HGHHAHAP@log10@    10026ad8     libucrt:libm_error.obj
 0002:00006ae0       ??_C@_03KHJOGHMM@exp@      10026ae0     libucrt:libm_error.obj
 0002:00006ae4       ??_C@_03JGHBODFD@pow@      10026ae4     libucrt:libm_error.obj
 0002:00006ae8       ??_C@_04FIHNOPOL@asin@     10026ae8     libucrt:libm_error.obj
 0002:00006af0       ??_C@_04PDIFKINK@acos@     10026af0     libucrt:libm_error.obj
 0002:00006af8       ??_C@_04EIAKFFMI@sqrt@     10026af8     libucrt:libm_error.obj
 0002:00006b00       __real@3ff0000000000000    10026b00     libucrt:libm_error.obj
 0002:00006b08       ??_C@_1BA@BALFACEM@?$AAC?$AAO?$AAN?$AAO?$AAU?$AAT?$AA$@ 10026b08     libucrt:initcon.obj
 0002:00006b30       ___acrt_log10_table_t      10026b30     libucrt:log10_tables.obj
 0002:00006f40       ___acrt_log10_table_cb     10026f40     libucrt:log10_tables.obj
 0002:00007350       __real@3fe0000000000000    10027350     libucrt:powhlp.obj
 0002:00007440       ??_C@_04COOMCNPB@sinh@     10027440     libucrt:fpexcept.obj
 0002:00007448       ??_C@_04HPJJNFIM@cosh@     10027448     libucrt:fpexcept.obj
 0002:00007450       ??_C@_04FJHINJAO@tanh@     10027450     libucrt:fpexcept.obj
 0002:00007458       ??_C@_04MLLJIGOK@atan@     10027458     libucrt:fpexcept.obj
 0002:00007460       ??_C@_05KNGEOGJB@atan2@    10027460     libucrt:fpexcept.obj
 0002:00007468       ??_C@_03BLEJJJBH@sin@      10027468     libucrt:fpexcept.obj
 0002:0000746c       ??_C@_03LALBNOCG@cos@      1002746c     libucrt:fpexcept.obj
 0002:00007470       ??_C@_03IIINPABG@tan@      10027470     libucrt:fpexcept.obj
 0002:00007474       ??_C@_04GFPJNGEK@ceil@     10027474     libucrt:fpexcept.obj
 0002:0000747c       ??_C@_05PBJFFIGL@floor@    1002747c     libucrt:fpexcept.obj
 0002:00007484       ??_C@_04ODHECPBC@fabs@     10027484     libucrt:fpexcept.obj
 0002:0000748c       ??_C@_04EHEDPDJG@modf@     1002748c     libucrt:fpexcept.obj
 0002:00007494       ??_C@_05CEJMAHNP@ldexp@    10027494     libucrt:fpexcept.obj
 0002:0000749c       ??_C@_05KBKMEMPO@_cabs@    1002749c     libucrt:fpexcept.obj
 0002:000074a4       ??_C@_06MEIMCGCF@_hypot@   100274a4     libucrt:fpexcept.obj
 0002:000074ac       ??_C@_04KEPJIHGP@fmod@     100274ac     libucrt:fpexcept.obj
 0002:000074b4       ??_C@_05GKKHEGJL@frexp@    100274b4     libucrt:fpexcept.obj
 0002:000074bc       ??_C@_03MJLDFKDL@_y0@      100274bc     libucrt:fpexcept.obj
 0002:000074c0       ??_C@_03NAKIGLHK@_y1@      100274c0     libucrt:fpexcept.obj
 0002:000074c4       ??_C@_03ONILCKOB@_yn@      100274c4     libucrt:fpexcept.obj
 0002:000074c8       ??_C@_05JGDBENOH@_logb@    100274c8     libucrt:fpexcept.obj
 0002:000074d0       ??_C@_0L@KDOEJCKC@_nextafter@ 100274d0     libucrt:fpexcept.obj
 0002:000074e0       __d_inf                    100274e0     libucrt:util.obj
 0002:000074e8       __d_max                    100274e8     libucrt:util.obj
 0002:000074f0       __d_mzero                  100274f0     libucrt:util.obj
 0002:00007560       __load_config_used         10027560     LIBCMT:loadcfg.obj
 0002:00007640       __tls_used                 10027640     LIBCMT:tlssup.obj
 0002:00007658       ??_R4exception@std@@6B@    10027658     LIBCMT:throw_bad_alloc.obj
 0002:0000766c       ??_R3exception@std@@8      1002766c     LIBCMT:throw_bad_alloc.obj
 0002:0000767c       ??_R2exception@std@@8      1002767c     LIBCMT:throw_bad_alloc.obj
 0002:00007684       ??_R1A@?0A@EA@exception@std@@8 10027684     LIBCMT:throw_bad_alloc.obj
 0002:000076a0       ??_R4bad_alloc@std@@6B@    100276a0     LIBCMT:throw_bad_alloc.obj
 0002:000076b4       ??_R3bad_alloc@std@@8      100276b4     LIBCMT:throw_bad_alloc.obj
 0002:000076c4       ??_R2bad_alloc@std@@8      100276c4     LIBCMT:throw_bad_alloc.obj
 0002:000076d0       ??_R1A@?0A@EA@bad_alloc@std@@8 100276d0     LIBCMT:throw_bad_alloc.obj
 0002:000076ec       ??_R4bad_array_new_length@std@@6B@ 100276ec     LIBCMT:throw_bad_alloc.obj
 0002:00007700       ??_R3bad_array_new_length@std@@8 10027700     LIBCMT:throw_bad_alloc.obj
 0002:00007710       ??_R2bad_array_new_length@std@@8 10027710     LIBCMT:throw_bad_alloc.obj
 0002:00007720       ??_R1A@?0A@EA@bad_array_new_length@std@@8 10027720     LIBCMT:throw_bad_alloc.obj
 0002:0000773c       ??_R4type_info@@6B@        1002773c     LIBCMT:std_type_info_static.obj
 0002:00007750       ??_R3type_info@@8          10027750     LIBCMT:std_type_info_static.obj
 0002:00007760       ??_R2type_info@@8          10027760     LIBCMT:std_type_info_static.obj
 0002:00007768       ??_R1A@?0A@EA@type_info@@8 10027768     LIBCMT:std_type_info_static.obj
 0002:00007784       ??_R4bad_exception@std@@6B@ 10027784     libvcruntime:frame.obj
 0002:00007798       ??_R3bad_exception@std@@8  10027798     libvcruntime:frame.obj
 0002:000077a8       ??_R2bad_exception@std@@8  100277a8     libvcruntime:frame.obj
 0002:000077b4       ??_R1A@?0A@EA@bad_exception@std@@8 100277b4     libvcruntime:frame.obj
 0002:000077d0       ___safe_se_handler_table   100277d0     <linker-defined>
 0002:00007bc8       ___rtc_iaa                 10027bc8     LIBCMT:initsect.obj
 0002:00007bcc       ___rtc_izz                 10027bcc     LIBCMT:initsect.obj
 0002:00007bd0       ___rtc_taa                 10027bd0     LIBCMT:initsect.obj
 0002:00007bd4       ___rtc_tzz                 10027bd4     LIBCMT:initsect.obj
 0002:00007bd8       __tls_start                10027bd8     LIBCMT:tlssup.obj
 0002:00007bdc       __Init_thread_epoch        10027bdc     LIBCMT:thread_safe_statics.obj
 0002:00007be0       __tls_end                  10027be0     LIBCMT:tlssup.obj
 0002:00007ce4       __TI2?AVbad_alloc@std@@    10027ce4     LIBCMT:throw_bad_alloc.obj
 0002:00007cf4       __CTA2?AVbad_alloc@std@@   10027cf4     LIBCMT:throw_bad_alloc.obj
 0002:00007d00       __CT??_R0?AVbad_alloc@std@@@8??0bad_alloc@std@@QAE@ABV01@@Z12 10027d00     LIBCMT:throw_bad_alloc.obj
 0002:00007d1c       __CT??_R0?AVexception@std@@@8??0exception@std@@QAE@ABV01@@Z12 10027d1c     LIBCMT:throw_bad_alloc.obj
 0002:00007d38       __TI3?AVbad_array_new_length@std@@ 10027d38     LIBCMT:throw_bad_alloc.obj
 0002:00007d48       __CTA3?AVbad_array_new_length@std@@ 10027d48     LIBCMT:throw_bad_alloc.obj
 0002:00007d58       __CT??_R0?AVbad_array_new_length@std@@@8??0bad_array_new_length@std@@QAE@ABV01@@Z12 10027d58     LIBCMT:throw_bad_alloc.obj
 0002:00007e7c       __TI2?AVbad_exception@std@@ 10027e7c     libvcruntime:frame.obj
 0002:00007e8c       __CTA2?AVbad_exception@std@@ 10027e8c     libvcruntime:frame.obj
 0002:00007e98       __CT??_R0?AVbad_exception@std@@@8??0bad_exception@std@@QAE@ABV01@@Z12 10027e98     libvcruntime:frame.obj
 0002:00008214       ___pobjMapEntryFirst       10028214     OposVariant.obj
 0002:00008218       ___pobjMapEntryLast        10028218     OposVariant.obj
 0002:000082c8       __IMPORT_DESCRIPTOR_KERNEL32 100282c8     kernel32:KERNEL32.dll
 0002:000082dc       __IMPORT_DESCRIPTOR_USER32 100282dc     user32:USER32.dll
 0002:000082f0       __IMPORT_DESCRIPTOR_GDI32  100282f0     gdi32:GDI32.dll
 0002:00008304       __IMPORT_DESCRIPTOR_ADVAPI32 10028304     advapi32:ADVAPI32.dll
 0002:00008318       __IMPORT_DESCRIPTOR_ole32  10028318     ole32:ole32.dll
 0002:0000832c       __IMPORT_DESCRIPTOR_OLEAUT32 1002832c     oleaut32:OLEAUT32.dll
 0002:00008340       __NULL_IMPORT_DESCRIPTOR   10028340     kernel32:KERNEL32.dll
 0003:00000000       ?s_Claim@?7??GetIDsOfNames@CComTypeInfoHolder@ATL@@QAEJABU_GUID@@PAPA_WIKPAJ@Z@4PA_WA 1002a000     SigCap.obj
 0003:00000018       ?s_Release@?7??GetIDsOfNames@CComTypeInfoHolder@ATL@@QAEJABU_GUID@@PAPA_WIKPAJ@Z@4PA_WA 1002a018     SigCap.obj
 0003:00000034       ?_tih@?$IDispatchImpl@UIOPOSSigCap@@$1?IID_IOPOSSigCap@@3U_GUID@@B$1?LIBID_OposSigCap_CCO@@3U3@B$00$0A@VCComTypeInfoHolder@ATL@@@ATL@@1VCComTypeInfoHolder@2@A 1002a034     SigCap.obj
 0003:00000050       ?_tih@?$IProvideClassInfo2Impl@$1?CLSID_OPOSSigCap@@3U_GUID@@B$1?DIID__IOPOSSigCapEvents@@3U2@B$1?LIBID_OposSigCap_CCO@@3U2@B$00$0A@VCComTypeInfoHolder@ATL@@@ATL@@1VCComTypeInfoHolder@2@A 1002a050     SigCap.obj
 0003:0000006c       ?vszContents@?6??Save@?$IPersistStorageImpl@VCOPOSSigCap@@@ATL@@UAGJPAUIStorage@@H@Z@4PB_WB 1002a06c     SigCap.obj
 0003:00000070       ?wc@?1??GetWndClassInfo@?$CWindowImpl@VCOPOSSigCap@@VCWindow@ATL@@V?$CWinTraits@$0FGAAAAAA@$0A@@3@@ATL@@SAAAU_ATL_WNDCLASSINFOW@3@XZ@4U43@A 1002a070     SigCap.obj
 0003:000000fc       ?rcDefault@CWindow@ATL@@2UtagRECT@@A 1002a0fc     SigCap.obj
 0003:00000158       ?g_WindowName@@3PA_WA      1002a158     SigCapImpl.obj
 0003:00000174       ?g_ControlVersion@@3JA     1002a174     SigCapImpl.obj
 0003:00000178       ?g_ControlDescription@@3PADA 1002a178     SigCapImpl.obj
 0003:00000240       ___scrt_native_dllmain_reason 1002a240     LIBCMT:utility.obj
 0003:00000244       __Init_global_epoch        1002a244     LIBCMT:thread_safe_statics.obj
 0003:00000250       ___security_cookie_complement 1002a250     LIBCMT:gs_cookie.obj
 0003:00000254       ___security_cookie         1002a254     LIBCMT:gs_cookie.obj
 0003:00000258       ___isa_enabled             1002a258     LIBCMT:cpu_disp.obj
 0003:00000270       __NLG_Destination          1002a270     libvcruntime:exsup.obj
 0003:00000288       ___abort_behavior          1002a288     libucrt:abort.obj
 0003:00000298       __iob                      1002a298     libucrt:_file.obj
 0003:00000340       ___acrt_initial_locale_data 1002a340     libucrt:nlsdata.obj
 0003:000003f8       ___acrt_initial_locale_pointers 1002a3f8     libucrt:nlsdata.obj
 0003:00000400       ___acrt_wide_c_locale_string 1002a400     libucrt:nlsdata.obj
 0003:00000408       ___acrt_initial_multibyte_data 1002a408     libucrt:mbctype.obj
 0003:00000928       __pwctype                  1002a928     libucrt:ctype.obj
 0003:0000092c       ___globallocalestatus      1002a92c     libucrt:glstatus.obj
 0003:00000930       ___acrt_lconv_c            1002a930     libucrt:localeconv.obj
 0003:00000980       ___acrt_lconv_static_decimal 1002a980     libucrt:localeconv.obj
 0003:00000984       ___acrt_lconv_static_W_decimal 1002a984     libucrt:localeconv.obj
 0003:00000990       __lookuptrailbytes         1002a990     libucrt:read.obj
 0003:00000aa0       __fltused                  1002aaa0     LIBCMT:fltused.obj
 0003:00000ab0       ??_R0?AVbad_alloc@std@@@8  1002aab0     LIBCMT:throw_bad_alloc.obj
 0003:00000acc       ??_R0?AVexception@std@@@8  1002aacc     LIBCMT:throw_bad_alloc.obj
 0003:00000ae8       ??_R0?AVbad_array_new_length@std@@@8 1002aae8     LIBCMT:throw_bad_alloc.obj
 0003:00000b10       ??_R0?AVtype_info@@@8      1002ab10     LIBCMT:std_type_info_static.obj
 0003:00000b28       ??_R0?AVbad_exception@std@@@8 1002ab28     libvcruntime:frame.obj
 0003:00000b48       ?m_bInitFailed@CAtlBaseModule@ATL@@2_NA 1002ab48     OposVariant.obj
 0003:00000b4c       ?_pPerfRegFunc@ATL@@3P6AJPAUHINSTANCE__@@@ZA 1002ab4c     OposVariant.obj
 0003:00000b50       ?_pPerfUnRegFunc@ATL@@3P6AJXZA 1002ab50     OposVariant.obj
 0003:00000b54       ?_AtlRegisterPerUser@ATL@@3_NA 1002ab54     OposVariant.obj
 0003:00000b58       ?_pAtlModule@ATL@@3PAVCAtlModule@1@A 1002ab58     OposVariant.obj
 0003:00000b5c       ?_pModule@ATL@@3PAVCComModule@1@A 1002ab5c     OposVariant.obj
 0003:00000b60       ?_AtlComModule@ATL@@3VCAtlComModule@1@A 1002ab60     OposVariant.obj
 0003:00000b88       ?_AtlWinModule@ATL@@3VCAtlWinModule@1@A 1002ab88     OposVariant.obj
 0003:00000bb4       ?m_libid@CAtlModule@ATL@@2U_GUID@@A 1002abb4     SigCap.obj
 0003:00000bc4       ?_entries@?1??GetConnMap@COPOSSigCap@@SAPBU_ATL_CONNMAP_ENTRY@ATL@@PAH@Z@4QBU34@B 1002abc4     SigCap.obj
 0003:00000bd0       ?$TSS0@?1??GetConnMap@COPOSSigCap@@SAPBU_ATL_CONNMAP_ENTRY@ATL@@PAH@Z@4HA 1002abd0     SigCap.obj
 0003:00000bd8       ?_OptionsStorage@?1??__local_stdio_printf_options@@9@4_KA 1002abd8     SigCap.obj
 0003:00000be0       ?pfnRegDeleteKeyEx@?1??DeleteSubKey@CRegKey@ATL@@QAEJPB_W@Z@4P6GJPAUHKEY__@@0KK@ZA 1002abe0     SigCap.obj
 0003:00000be4       ?bInitialized@?1??DeleteSubKey@CRegKey@ATL@@QAEJPB_W@Z@4_NA 1002abe4     SigCap.obj
 0003:00000be8       ?_Module@@3VCComModule@ATL@@A 1002abe8     SigCap.obj
 0003:00000c18       ?pConnMap@?$IConnectionPointContainerImpl@VCOPOSSigCap@@@ATL@@0PBU_ATL_CONNMAP_ENTRY@2@B 1002ac18     SigCap.obj
 0003:00000c1c       ?s_nInstances@COPOSSigCap@@1HA 1002ac1c     SigCapImpl.obj
 0003:00000c20       ___scrt_current_native_startup_state 1002ac20     LIBCMT:utility.obj
 0003:00000c24       ___scrt_native_startup_lock 1002ac24     LIBCMT:utility.obj
 0003:00000f8c       __tls_index                1002af8c     LIBCMT:tlssup.obj
 0003:00000f94       ___isa_available           1002af94     LIBCMT:cpu_disp.obj
 0003:00000f98       ___favor                   1002af98     LIBCMT:cpu_disp.obj
 0003:00000f9c       ___scrt_debugger_hook_flag 1002af9c     LIBCMT:utility_desktop.obj
 0003:00000fa0       ___castguard_check_failure_os_handled_fptr 1002afa0     LIBCMT:guard_support.obj
 0003:00000fa8       ?__type_info_root_node@@3U__type_info_node@@A 1002afa8     LIBCMT:tncleanup.obj
 0003:00000fb0       ?_OptionsStorage@?1??__local_stdio_scanf_options@@9@4_KA 1002afb0     LIBCMT:default_local_stdio_options.obj
 0003:00000fb8       ?_AtlBaseModule@ATL@@3VCAtlBaseModule@1@A 1002afb8     atls:atlbase.obj
 0003:00000ff0       ?__AtlThunkPool@@3PAT_SLIST_HEADER@@A 1002aff0     atls:atlthunk.obj
 0003:00001008       ___@@_PchSym_@00@UztvmgUPdlipUFHUhUrmgvinvwrzgvUexgllohUzgohOmzgrevkilqPBACIAJCBDBUlyqiUcIGUhgwzucOlyq@4B2008FD98C1DD4 1002b008     atls:stdafx.obj
 0003:0000100c       ?__WinRTOutOfMemoryExceptionCallback@@3P6GPAXXZA 1002b00c     libvcruntime:ehhelpers.obj
 0003:00001010       ___pPurecall               1002b010     libvcruntime:purevirt_data.obj
 0003:00001058       ?pArgList@UnDecorator@@0PAVReplicator@@A 1002b058     libvcruntime:undname.obj
 0003:0000105c       ?pZNameList@UnDecorator@@0PAVReplicator@@A 1002b05c     libvcruntime:undname.obj
 0003:00001060       ?pTemplateArgList@UnDecorator@@0PAVReplicator@@A 1002b060     libvcruntime:undname.obj
 0003:00001064       ?gName@UnDecorator@@0PBDB  1002b064     libvcruntime:undname.obj
 0003:00001068       ?name@UnDecorator@@0PBDB   1002b068     libvcruntime:undname.obj
 0003:0000106c       ?disableFlags@UnDecorator@@0KA 1002b06c     libvcruntime:undname.obj
 0003:00001070       ?fExplicitTemplateParams@UnDecorator@@0_NA 1002b070     libvcruntime:undname.obj
 0003:00001071       ?fGetTemplateArgumentList@UnDecorator@@0_NA 1002b071     libvcruntime:undname.obj
 0003:00001074       ?m_pGetParameter@UnDecorator@@0P6APADJ@ZA 1002b074     libvcruntime:undname.obj
 0003:00001078       ?m_CHPENameOffset@UnDecorator@@0KA 1002b078     libvcruntime:undname.obj
 0003:0000107c       ?m_recursionLevel@UnDecorator@@0KA 1002b07c     libvcruntime:undname.obj
 0003:000010c0       ?c_exit_complete@?1???R<lambda_6e4b09c48022b2350581041d5f6b0c4c>@@QBE@XZ@4_NA 1002b0c0     libucrt:exit.obj
 0003:000011d0       __environ_table            1002b1d0     libucrt:environment_initialization.obj
 0003:000011d4       __wenviron_table           1002b1d4     libucrt:environment_initialization.obj
 0003:000011d8       ___dcrt_initial_wide_environment 1002b1d8     libucrt:environment_initialization.obj
 0003:000011dc       ___dcrt_initial_narrow_environment 1002b1dc     libucrt:environment_initialization.obj
 0003:000011e0       ___acrt_atexit_table       1002b1e0     libucrt:onexit.obj
 0003:000011ec       ___acrt_at_quick_exit_table 1002b1ec     libucrt:onexit.obj
 0003:000012e0       __nstream                  1002b2e0     libucrt:_file.obj
 0003:000012e4       ___piob                    1002b2e4     libucrt:_file.obj
 0003:000012ec       ___acrt_stdout_buffer      1002b2ec     libucrt:_sftbuf.obj
 0003:000012f0       ___acrt_stderr_buffer      1002b2f0     libucrt:_sftbuf.obj
 0003:000012f4       ___acrt_locale_changed_data 1002b2f4     libucrt:wsetlocale.obj
 0003:000012f8       ___acrt_current_locale_data 1002b2f8     libucrt:nlsdata.obj
 0003:00001300       ___pioinfo                 1002b300     libucrt:ioinit.obj
 0003:00001500       __nhandle                  1002b500     libucrt:ioinit.obj
 0003:0000165c       __mbctype                  1002b65c     libucrt:mbctype.obj
 0003:00001660       __mbcasemap                1002b660     libucrt:mbctype.obj
 0003:00001664       ___acrt_current_multibyte_data 1002b664     libucrt:mbctype.obj
 0003:00001670       __pgmptr                   1002b670     libucrt:argv_data.obj
 0003:00001674       ___argc                    1002b674     libucrt:argv_data.obj
 0003:00001678       ___argv                    1002b678     libucrt:argv_data.obj
 0003:0000167c       ___wargv                   1002b67c     libucrt:argv_data.obj
 0003:00001680       __acmdln                   1002b680     libucrt:argv_data.obj
 0003:00001684       __wcmdln                   1002b684     libucrt:argv_data.obj
 0003:00001688       ___acrt_heap               1002b688     libucrt:heap_handle.obj
 0003:000016a4       ___acrt_lconv_static_null  1002b6a4     libucrt:localeconv.obj
 0003:000016a8       ___acrt_lconv_static_W_null 1002b6a8     libucrt:localeconv.obj
 0003:000016b8       ___fastflag                1002b6b8     libucrt:fp_flags.obj
 0003:000016c0       ___dyn_tls_init_callback   1002b6c0     <common>
 0003:000016c4       ___scrt_ucrt_dll_is_in_use 1002b6c4     <common>
 0003:000016c8       __pmatherr                 1002b6c8     <common>
 0003:000016cc       ___use_sse2_mathfcns       1002b6cc     <common>

 entry point at        0001:0000bd1d

 Static symbols

 0000:fffcd000       .debug$S                   10000000     OPOSSigCap.exp
 0000:fffcd000       .debug$S                   10000000     advapi32:ADVAPI32.dll
 0000:fffcd000       .debug$S                   10000000     advapi32:ADVAPI32.dll
 0000:fffcd000       .debug$S                   10000000     advapi32:ADVAPI32.dll
 0000:fffcd000       .debug$S                   10000000     advapi32:ADVAPI32.dll
 0000:fffcd000       .debug$S                   10000000     advapi32:ADVAPI32.dll
 0000:fffcd000       .debug$S                   10000000     advapi32:ADVAPI32.dll
 0000:fffcd000       .debug$S                   10000000     advapi32:ADVAPI32.dll
 0000:fffcd000       .debug$S                   10000000     advapi32:ADVAPI32.dll
 0000:fffcd000       .debug$S                   10000000     advapi32:ADVAPI32.dll
 0000:fffcd000       .debug$S                   10000000     gdi32:GDI32.dll
 0000:fffcd000       .debug$S                   10000000     gdi32:GDI32.dll
 0000:fffcd000       .debug$S                   10000000     gdi32:GDI32.dll
 0000:fffcd000       .debug$S                   10000000     gdi32:GDI32.dll
 0000:fffcd000       .debug$S                   10000000     gdi32:GDI32.dll
 0000:fffcd000       .debug$S                   10000000     gdi32:GDI32.dll
 0000:fffcd000       .debug$S                   10000000     gdi32:GDI32.dll
 0000:fffcd000       .debug$S                   10000000     gdi32:GDI32.dll
 0000:fffcd000       .debug$S                   10000000     gdi32:GDI32.dll
 0000:fffcd000       .debug$S                   10000000     gdi32:GDI32.dll
 0000:fffcd000       .debug$S                   10000000     gdi32:GDI32.dll
 0000:fffcd000       .debug$S                   10000000     gdi32:GDI32.dll
 0000:fffcd000       .debug$S                   10000000     gdi32:GDI32.dll
 0000:fffcd000       .debug$S                   10000000     gdi32:GDI32.dll
 0000:fffcd000       .debug$S                   10000000     gdi32:GDI32.dll
 0000:fffcd000       .debug$S                   10000000     gdi32:GDI32.dll
 0000:fffcd000       .debug$S                   10000000     gdi32:GDI32.dll
 0000:fffcd000       .debug$S                   10000000     gdi32:GDI32.dll
 0000:fffcd000       .debug$S                   10000000     gdi32:GDI32.dll
 0000:fffcd000       .debug$S                   10000000     kernel32:KERNEL32.dll
 0000:fffcd000       .debug$S                   10000000     kernel32:KERNEL32.dll
 0000:fffcd000       .debug$S                   10000000     kernel32:KERNEL32.dll
 0000:fffcd000       .debug$S                   10000000     kernel32:KERNEL32.dll
 0000:fffcd000       .debug$S                   10000000     kernel32:KERNEL32.dll
 0000:fffcd000       .debug$S                   10000000     kernel32:KERNEL32.dll
 0000:fffcd000       .debug$S                   10000000     kernel32:KERNEL32.dll
 0000:fffcd000       .debug$S                   10000000     kernel32:KERNEL32.dll
 0000:fffcd000       .debug$S                   10000000     kernel32:KERNEL32.dll
 0000:fffcd000       .debug$S                   10000000     kernel32:KERNEL32.dll
 0000:fffcd000       .debug$S                   10000000     kernel32:KERNEL32.dll
 0000:fffcd000       .debug$S                   10000000     kernel32:KERNEL32.dll
 0000:fffcd000       .debug$S                   10000000     kernel32:KERNEL32.dll
 0000:fffcd000       .debug$S                   10000000     kernel32:KERNEL32.dll
 0000:fffcd000       .debug$S                   10000000     kernel32:KERNEL32.dll
 0000:fffcd000       .debug$S                   10000000     kernel32:KERNEL32.dll
 0000:fffcd000       .debug$S                   10000000     kernel32:KERNEL32.dll
 0000:fffcd000       .debug$S                   10000000     kernel32:KERNEL32.dll
 0000:fffcd000       .debug$S                   10000000     kernel32:KERNEL32.dll
 0000:fffcd000       .debug$S                   10000000     kernel32:KERNEL32.dll
 0000:fffcd000       .debug$S                   10000000     kernel32:KERNEL32.dll
 0000:fffcd000       .debug$S                   10000000     kernel32:KERNEL32.dll
 0000:fffcd000       .debug$S                   10000000     kernel32:KERNEL32.dll
 0000:fffcd000       .debug$S                   10000000     kernel32:KERNEL32.dll
 0000:fffcd000       .debug$S                   10000000     kernel32:KERNEL32.dll
 0000:fffcd000       .debug$S                   10000000     kernel32:KERNEL32.dll
 0000:fffcd000       .debug$S                   10000000     kernel32:KERNEL32.dll
 0000:fffcd000       .debug$S                   10000000     kernel32:KERNEL32.dll
 0000:fffcd000       .debug$S                   10000000     kernel32:KERNEL32.dll
 0000:fffcd000       .debug$S                   10000000     kernel32:KERNEL32.dll
 0000:fffcd000       .debug$S                   10000000     kernel32:KERNEL32.dll
 0000:fffcd000       .debug$S                   10000000     kernel32:KERNEL32.dll
 0000:fffcd000       .debug$S                   10000000     kernel32:KERNEL32.dll
 0000:fffcd000       .debug$S                   10000000     kernel32:KERNEL32.dll
 0000:fffcd000       .debug$S                   10000000     kernel32:KERNEL32.dll
 0000:fffcd000       .debug$S                   10000000     kernel32:KERNEL32.dll
 0000:fffcd000       .debug$S                   10000000     kernel32:KERNEL32.dll
 0000:fffcd000       .debug$S                   10000000     kernel32:KERNEL32.dll
 0000:fffcd000       .debug$S                   10000000     kernel32:KERNEL32.dll
 0000:fffcd000       .debug$S                   10000000     kernel32:KERNEL32.dll
 0000:fffcd000       .debug$S                   10000000     kernel32:KERNEL32.dll
 0000:fffcd000       .debug$S                   10000000     kernel32:KERNEL32.dll
 0000:fffcd000       .debug$S                   10000000     kernel32:KERNEL32.dll
 0000:fffcd000       .debug$S                   10000000     kernel32:KERNEL32.dll
 0000:fffcd000       .debug$S                   10000000     kernel32:KERNEL32.dll
 0000:fffcd000       .debug$S                   10000000     kernel32:KERNEL32.dll
 0000:fffcd000       .debug$S                   10000000     kernel32:KERNEL32.dll
 0000:fffcd000       .debug$S                   10000000     kernel32:KERNEL32.dll
 0000:fffcd000       .debug$S                   10000000     kernel32:KERNEL32.dll
 0000:fffcd000       .debug$S                   10000000     kernel32:KERNEL32.dll
 0000:fffcd000       .debug$S                   10000000     kernel32:KERNEL32.dll
 0000:fffcd000       .debug$S                   10000000     kernel32:KERNEL32.dll
 0000:fffcd000       .debug$S                   10000000     kernel32:KERNEL32.dll
 0000:fffcd000       .debug$S                   10000000     kernel32:KERNEL32.dll
 0000:fffcd000       .debug$S                   10000000     kernel32:KERNEL32.dll
 0000:fffcd000       .debug$S                   10000000     kernel32:KERNEL32.dll
 0000:fffcd000       .debug$S                   10000000     kernel32:KERNEL32.dll
 0000:fffcd000       .debug$S                   10000000     kernel32:KERNEL32.dll
 0000:fffcd000       .debug$S                   10000000     kernel32:KERNEL32.dll
 0000:fffcd000       .debug$S                   10000000     kernel32:KERNEL32.dll
 0000:fffcd000       .debug$S                   10000000     kernel32:KERNEL32.dll
 0000:fffcd000       .debug$S                   10000000     kernel32:KERNEL32.dll
 0000:fffcd000       .debug$S                   10000000     kernel32:KERNEL32.dll
 0000:fffcd000       .debug$S                   10000000     kernel32:KERNEL32.dll
 0000:fffcd000       .debug$S                   10000000     kernel32:KERNEL32.dll
 0000:fffcd000       .debug$S                   10000000     kernel32:KERNEL32.dll
 0000:fffcd000       .debug$S                   10000000     kernel32:KERNEL32.dll
 0000:fffcd000       .debug$S                   10000000     kernel32:KERNEL32.dll
 0000:fffcd000       .debug$S                   10000000     kernel32:KERNEL32.dll
 0000:fffcd000       .debug$S                   10000000     kernel32:KERNEL32.dll
 0000:fffcd000       .debug$S                   10000000     kernel32:KERNEL32.dll
 0000:fffcd000       .debug$S                   10000000     kernel32:KERNEL32.dll
 0000:fffcd000       .debug$S                   10000000     kernel32:KERNEL32.dll
 0000:fffcd000       .debug$S                   10000000     kernel32:KERNEL32.dll
 0000:fffcd000       .debug$S                   10000000     kernel32:KERNEL32.dll
 0000:fffcd000       .debug$S                   10000000     kernel32:KERNEL32.dll
 0000:fffcd000       .debug$S                   10000000     kernel32:KERNEL32.dll
 0000:fffcd000       .debug$S                   10000000     kernel32:KERNEL32.dll
 0000:fffcd000       .debug$S                   10000000     kernel32:KERNEL32.dll
 0000:fffcd000       .debug$S                   10000000     kernel32:KERNEL32.dll
 0000:fffcd000       .debug$S                   10000000     kernel32:KERNEL32.dll
 0000:fffcd000       .debug$S                   10000000     kernel32:KERNEL32.dll
 0000:fffcd000       .debug$S                   10000000     kernel32:KERNEL32.dll
 0000:fffcd000       .debug$S                   10000000     kernel32:KERNEL32.dll
 0000:fffcd000       .debug$S                   10000000     kernel32:KERNEL32.dll
 0000:fffcd000       .debug$S                   10000000     kernel32:KERNEL32.dll
 0000:fffcd000       .debug$S                   10000000     kernel32:KERNEL32.dll
 0000:fffcd000       .debug$S                   10000000     kernel32:KERNEL32.dll
 0000:fffcd000       .debug$S                   10000000     kernel32:KERNEL32.dll
 0000:fffcd000       .debug$S                   10000000     kernel32:KERNEL32.dll
 0000:fffcd000       .debug$S                   10000000     kernel32:KERNEL32.dll
 0000:fffcd000       .debug$S                   10000000     kernel32:KERNEL32.dll
 0000:fffcd000       .debug$S                   10000000     kernel32:KERNEL32.dll
 0000:fffcd000       .debug$S                   10000000     kernel32:KERNEL32.dll
 0000:fffcd000       .debug$S                   10000000     kernel32:KERNEL32.dll
 0000:fffcd000       .debug$S                   10000000     kernel32:KERNEL32.dll
 0000:fffcd000       .debug$S                   10000000     kernel32:KERNEL32.dll
 0000:fffcd000       .debug$S                   10000000     kernel32:KERNEL32.dll
 0000:fffcd000       .debug$S                   10000000     kernel32:KERNEL32.dll
 0000:fffcd000       .debug$S                   10000000     kernel32:KERNEL32.dll
 0000:fffcd000       .debug$S                   10000000     kernel32:KERNEL32.dll
 0000:fffcd000       .debug$S                   10000000     kernel32:KERNEL32.dll
 0000:fffcd000       .debug$S                   10000000     kernel32:KERNEL32.dll
 0000:fffcd000       .debug$S                   10000000     kernel32:KERNEL32.dll
 0000:fffcd000       .debug$S                   10000000     kernel32:KERNEL32.dll
 0000:fffcd000       .debug$S                   10000000     kernel32:KERNEL32.dll
 0000:fffcd000       .debug$S                   10000000     ole32:ole32.dll
 0000:fffcd000       .debug$S                   10000000     ole32:ole32.dll
 0000:fffcd000       .debug$S                   10000000     ole32:ole32.dll
 0000:fffcd000       .debug$S                   10000000     ole32:ole32.dll
 0000:fffcd000       .debug$S                   10000000     ole32:ole32.dll
 0000:fffcd000       .debug$S                   10000000     ole32:ole32.dll
 0000:fffcd000       .debug$S                   10000000     ole32:ole32.dll
 0000:fffcd000       .debug$S                   10000000     ole32:ole32.dll
 0000:fffcd000       .debug$S                   10000000     ole32:ole32.dll
 0000:fffcd000       .debug$S                   10000000     ole32:ole32.dll
 0000:fffcd000       .debug$S                   10000000     ole32:ole32.dll
 0000:fffcd000       .debug$S                   10000000     ole32:ole32.dll
 0000:fffcd000       .debug$S                   10000000     ole32:ole32.dll
 0000:fffcd000       .debug$S                   10000000     ole32:ole32.dll
 0000:fffcd000       .debug$S                   10000000     oleaut32:OLEAUT32.dll
 0000:fffcd000       .debug$S                   10000000     oleaut32:OLEAUT32.dll
 0000:fffcd000       .debug$S                   10000000     oleaut32:OLEAUT32.dll
 0000:fffcd000       .debug$S                   10000000     oleaut32:OLEAUT32.dll
 0000:fffcd000       .debug$S                   10000000     oleaut32:OLEAUT32.dll
 0000:fffcd000       .debug$S                   10000000     oleaut32:OLEAUT32.dll
 0000:fffcd000       .debug$S                   10000000     oleaut32:OLEAUT32.dll
 0000:fffcd000       .debug$S                   10000000     oleaut32:OLEAUT32.dll
 0000:fffcd000       .debug$S                   10000000     oleaut32:OLEAUT32.dll
 0000:fffcd000       .debug$S                   10000000     oleaut32:OLEAUT32.dll
 0000:fffcd000       .debug$S                   10000000     oleaut32:OLEAUT32.dll
 0000:fffcd000       .debug$S                   10000000     oleaut32:OLEAUT32.dll
 0000:fffcd000       .debug$S                   10000000     oleaut32:OLEAUT32.dll
 0000:fffcd000       .debug$S                   10000000     oleaut32:OLEAUT32.dll
 0000:fffcd000       .debug$S                   10000000     oleaut32:OLEAUT32.dll
 0000:fffcd000       .debug$S                   10000000     oleaut32:OLEAUT32.dll
 0000:fffcd000       .debug$S                   10000000     user32:USER32.dll
 0000:fffcd000       .debug$S                   10000000     user32:USER32.dll
 0000:fffcd000       .debug$S                   10000000     user32:USER32.dll
 0000:fffcd000       .debug$S                   10000000     user32:USER32.dll
 0000:fffcd000       .debug$S                   10000000     user32:USER32.dll
 0000:fffcd000       .debug$S                   10000000     user32:USER32.dll
 0000:fffcd000       .debug$S                   10000000     user32:USER32.dll
 0000:fffcd000       .debug$S                   10000000     user32:USER32.dll
 0000:fffcd000       .debug$S                   10000000     user32:USER32.dll
 0000:fffcd000       .debug$S                   10000000     user32:USER32.dll
 0000:fffcd000       .debug$S                   10000000     user32:USER32.dll
 0000:fffcd000       .debug$S                   10000000     user32:USER32.dll
 0000:fffcd000       .debug$S                   10000000     user32:USER32.dll
 0000:fffcd000       .debug$S                   10000000     user32:USER32.dll
 0000:fffcd000       .debug$S                   10000000     user32:USER32.dll
 0000:fffcd000       .debug$S                   10000000     user32:USER32.dll
 0000:fffcd000       .debug$S                   10000000     user32:USER32.dll
 0000:fffcd000       .debug$S                   10000000     user32:USER32.dll
 0000:fffcd000       .debug$S                   10000000     user32:USER32.dll
 0000:fffcd000       .debug$S                   10000000     user32:USER32.dll
 0000:fffcd000       .debug$S                   10000000     user32:USER32.dll
 0000:fffcd000       .debug$S                   10000000     user32:USER32.dll
 0000:fffcd000       .debug$S                   10000000     user32:USER32.dll
 0000:fffcd000       .debug$S                   10000000     user32:USER32.dll
 0000:fffcd000       .debug$S                   10000000     user32:USER32.dll
 0000:fffcd000       .debug$S                   10000000     user32:USER32.dll
 0000:fffcd000       .debug$S                   10000000     user32:USER32.dll
 0000:fffcd000       .debug$S                   10000000     user32:USER32.dll
 0000:fffcd000       .debug$S                   10000000     user32:USER32.dll
 0000:fffcd000       .debug$S                   10000000     user32:USER32.dll
 0000:fffcd000       .debug$S                   10000000     user32:USER32.dll
 0000:fffcd000       .debug$S                   10000000     user32:USER32.dll
 0000:fffcd000       .debug$S                   10000000     user32:USER32.dll
 0000:fffcd000       .debug$S                   10000000     user32:USER32.dll
 0000:fffcd000       .debug$S                   10000000     user32:USER32.dll
 0001:00000000       ??__E_AtlComModule@ATL@@YAXXZ 10001000 f   OposVariant.obj
 0001:00000016       ??__E_AtlWinModule@ATL@@YAXXZ 10001016 f   OposVariant.obj
 0001:0000002c       ??__E?pConnMap@?$IConnectionPointContainerImpl@VCOPOSSigCap@@@ATL@@0PBU_ATL_CONNMAP_ENTRY@2@B@@YAXXZ 1000102c f   SigCap.obj
 0001:0000003a       ??__E_Module@@YAXXZ        1000103a f   SigCap.obj
 0001:00000064       ??__E_AtlBaseModule@ATL@@YAXXZ 10001064 f   atls:atlbase.obj
 0001:0000102e       $LN24                      1000202e     SigCap.obj
 0001:000058b2       $LN48                      100068b2     SigCap.obj
 0001:000058ca       $LN47                      100068ca     SigCap.obj
 0001:00007a75       $LN38                      10008a75     SigCap.obj
 0001:00007a8d       $LN37                      10008a8d     SigCap.obj
 0001:0000917d       $LN76                      1000a17d     SigCap.obj
 0001:00009195       $LN75                      1000a195     SigCap.obj
 0001:0000954e       _memcpy_s                  1000a54e f   SigCap.obj
 0001:0000b1ab       ?find_pe_section@@YAPAU_IMAGE_SECTION_HEADER@@QAEI@Z 1000c1ab f   LIBCMT:utility.obj
 0001:0000b4ca       ?__scrt_initialize_thread_safe_statics@@YAHXZ 1000c4ca f   LIBCMT:thread_safe_statics.obj
 0001:0000b4f1       ?__scrt_initialize_thread_safe_statics_platform_specific@@YAXXZ 1000c4f1 f   LIBCMT:thread_safe_statics.obj
 0001:0000b573       ?__scrt_uninitialize_thread_safe_statics@@YAXXZ 1000c573 f   LIBCMT:thread_safe_statics.obj
 0001:0000b8e2       __catch$??2@YAPAXIABUnothrow_t@std@@@Z$0 1000c8e2 f   LIBCMT:new_scalar_nothrow.obj
 0001:0000b920       $$000000                   1000c920     LIBCMT:sehprolg4gs.obj
 0001:0000b980       $$000000                   1000c980     LIBCMT:alloca16.obj
 0001:0000b9b0       $$000000                   1000c9b0     LIBCMT:chkstk.obj
 0001:0000b9dd       ?dllmain_crt_dispatch@@YGHQAUHINSTANCE__@@KQAX@Z 1000c9dd f   LIBCMT:dll_dllmain.obj
 0001:0000ba30       ?dllmain_crt_process_attach@@YAHQAUHINSTANCE__@@QAX@Z 1000ca30 f   LIBCMT:dll_dllmain.obj
 0001:0000bb37       ?dllmain_crt_process_detach@@YAH_N@Z 1000cb37 f   LIBCMT:dll_dllmain.obj
 0001:0000bbe7       ?dllmain_dispatch@@YAHQAUHINSTANCE__@@KQAX@Z 1000cbe7 f   LIBCMT:dll_dllmain.obj
 0001:0000bcf2       ?dllmain_raw@@YGHQAUHINSTANCE__@@KQAX@Z 1000ccf2 f   LIBCMT:dll_dllmain.obj
 0001:0000c070       $$000000                   1000d070     LIBCMT:sehprolg4.obj
 0001:0000c0cb       ___get_entropy             1000d0cb f   LIBCMT:gs_support.obj
 0001:0000c3c2       ??$GetProcAddressAll@P6GP6GJPAUHWND__@@IIJ@ZPAUAtlThunkData_t@@@Z@@YAP6GP6GJPAUHWND__@@IIJ@ZPAUAtlThunkData_t@@@ZPAP6GP6GJ0IIJ@Z1@Z@Z 1000d3c2 f   atls:atlthunk.obj
 0001:0000c3c2       ??$GetProcAddressAll@P6GPAUAtlThunkData_t@@XZ@@YAP6GPAUAtlThunkData_t@@XZPAP6GPAU0@XZ@Z 1000d3c2 f   atls:atlthunk.obj
 0001:0000c3c2       ??$GetProcAddressAll@P6GXPAUAtlThunkData_t@@@Z@@YAP6GXPAUAtlThunkData_t@@@ZPAP6GX0@Z@Z 1000d3c2 f   atls:atlthunk.obj
 0001:0000c3c2       ??$GetProcAddressAll@P6GXPAUAtlThunkData_t@@PAXI@Z@@YAP6GXPAUAtlThunkData_t@@PAXI@ZPAP6GX01I@Z@Z 1000d3c2 f   atls:atlthunk.obj
 0001:0000c472       ?GetProcAddressSingle@@YA_NPAUHINSTANCE__@@PBDPAPAX@Z 1000d472 f   atls:atlthunk.obj
 0001:0000c5c4       ?__InitializeThunkPool@@YAHXZ 1000d5c4 f   atls:atlthunk.obj
 0001:0000ca10       _ValidateLocalCookies      1000da10 f   libvcruntime:chandler4.obj
 0001:0000da3a       $LN1250                    1000ea3a     libvcruntime:memcmp.obj
 0001:0000dac0       $$000000                   1000eac0     libvcruntime:memcpy.obj
 0001:0000dd24       TrailingUpVec              1000ed24     libvcruntime:memcpy.obj
 0001:0000ddd0       TrailingDownVec            1000edd0     libvcruntime:memcpy.obj
 0001:0000e040       $$000000                   1000f040     libvcruntime:memset.obj
 0001:0000e643       ?_FilterSetCurrentException@@YAKPAU_EXCEPTION_POINTERS@@E@Z 1000f643 f   libvcruntime:ehhelpers.obj
 0001:0000e890       $$000000                   1000f890     libvcruntime:memmove.obj
 0001:0000eaf4       TrailingUpVec              1000faf4     libvcruntime:memmove.obj
 0001:0000eba0       TrailingDownVec            1000fba0     libvcruntime:memmove.obj
 0001:0000ee10       $$000000                   1000fe10     libvcruntime:exsup4.obj
 0001:0000ee9d       __unwind_handler4          1000fe9d f   libvcruntime:exsup4.obj
 0001:0000f17b       ??$BuildCatchObjectHelperInternal@V__FrameHandler3@@@@YAHPAUEHExceptionRecord@@PAXPBU_s_HandlerType@@PBU_s_CatchableType@@@Z 1001017b f   libvcruntime:frame.obj
 0001:0000f2b9       ??$BuildCatchObjectInternal@V__FrameHandler3@@@@YAXPAUEHExceptionRecord@@PAXPBU_s_HandlerType@@PBU_s_CatchableType@@@Z 100102b9 f   libvcruntime:frame.obj
 0001:0000f352       ??$CatchIt@V__FrameHandler3@@@@YAXPAUEHExceptionRecord@@PAUEHRegistrationNode@@PAU_CONTEXT@@PAXPBU_s_FuncInfo@@PBU_s_HandlerType@@PBU_s_CatchableType@@PBU_s_TryBlockMapEntry@@H1EE@Z 10010352 f   libvcruntime:frame.obj
 0001:0000f3d2       ??$FindHandler@V__FrameHandler3@@@@YAXPAUEHExceptionRecord@@PAUEHRegistrationNode@@PAU_CONTEXT@@PAXPBU_s_FuncInfo@@EH1@Z 100103d2 f   libvcruntime:frame.obj
 0001:0000f788       ??$FindHandlerForForeignException@V__FrameHandler3@@@@YAXPAUEHExceptionRecord@@PAUEHRegistrationNode@@PAU_CONTEXT@@PAXPBU_s_FuncInfo@@HH1@Z 10010788 f   libvcruntime:frame.obj
 0001:0000faa0       ?CallCatchBlock@@YAPAXPAUEHExceptionRecord@@PAUEHRegistrationNode@@PAU_CONTEXT@@PBU_s_FuncInfo@@PAXHK@Z 10010aa0 f   libvcruntime:frame.obj
 0001:0000fc64       ?CallUnexpected@@YAXPBU_s_ESTypeList@@@Z 10010c64 f   libvcruntime:frame.obj
 0001:0000fc84       __catch$?CallUnexpected@@YAXPBU_s_ESTypeList@@@Z$0 10010c84 f   libvcruntime:frame.obj
 0001:0000fca3       ?ExFilterRethrow@@YAHPAU_EXCEPTION_POINTERS@@@Z 10010ca3 f   libvcruntime:frame.obj
 0001:0000fded       ?IsInExceptionSpec@@YAEPAUEHExceptionRecord@@PBU_s_ESTypeList@@@Z 10010ded f   libvcruntime:frame.obj
 0001:0000fec0       $$000000                   10010ec0     libvcruntime:lowhelpr.obj
 0001:0000ff10       $$000000                   10010f10     libvcruntime:exsup.obj
 0001:0000ff31       __unwind_handler           10010f31 f   libvcruntime:exsup.obj
 0001:0001004e       ?try_get_first_available_module@@YAPAUHINSTANCE__@@QBW4module_id@?A0xb97aeec8@@0@Z 1001104e f   libvcruntime:winapi_downlevel.obj
 0001:000100e8       ?try_get_function@@YAPAXW4function_id@?A0xb97aeec8@@QBDQBW4module_id@2@2@Z 100110e8 f   libvcruntime:winapi_downlevel.obj
 0001:00010772       ??$common_tcsncpy_s@_W@@YAHQA_WIQB_WI@Z 10011772 f   libucrt:wcsncpy_s.obj
 0001:00010848       ??$common_vsprintf@Vformat_validation_base@__crt_stdio_output@@_W@@YAH_KQA_WIQB_WQAU__crt_locale_pointers@@QAD@Z 10011848 f   libucrt:output.obj
 0001:000109cf       ??$common_vsprintf_s@_W@@YAH_KQA_WIQB_WQAU__crt_locale_pointers@@QAD@Z 100119cf f   libucrt:output.obj
 0001:00011133       $LN48                      10012133     libucrt:output.obj
 0001:0001163c       $LN18                      1001263c     libucrt:output.obj
 0001:00011650       $LN17                      10012650     libucrt:output.obj
 0001:00011eab       ??$?RV<lambda_03b1d95aef87969028cfba75ccab2455>@@AAV<lambda_6e4b09c48022b2350581041d5f6b0c4c>@@V<lambda_22bdf7517842c4b3e53723af5aa32b9e>@@@?$__crt_seh_guarded_call@X@@QAEX$$QAV<lambda_03b1d95aef87969028cfba75ccab2455>@@AAV<lambda_6e4b09c48022b2350581041d5f6b0c4c>@@$$QAV<lambda_22bdf7517842c4b3e53723af5aa32b9e>@@@Z 10012eab f   libucrt:exit.obj
 0001:00011ef8       ??R<lambda_6e4b09c48022b2350581041d5f6b0c4c>@@QBE@XZ 10012ef8 f   libucrt:exit.obj
 0001:00011fd2       ?atexit_exception_filter@@YAHK@Z 10012fd2 f   libucrt:exit.obj
 0001:00011fe5       ?common_exit@@YAXHW4_crt_exit_cleanup_mode@@W4_crt_exit_return_mode@@@Z 10012fe5 f   libucrt:exit.obj
 0001:00012049       ?exit_or_terminate_process@@YAXI@Z 10013049 f   libucrt:exit.obj
 0001:0001208b       ?is_managed_app@@YA_NXZ    1001308b f   libucrt:exit.obj
 0001:000120ce       ?try_cor_exit_process@@YAXI@Z 100130ce f   libucrt:exit.obj
 0001:0001215c       ??$common_configure_argv@D@@YAHW4_crt_argv_mode@@@Z 1001315c f   libucrt:argv_parsing.obj
 0001:00012292       ??$parse_command_line@D@@YAXPADPAPAD0PAI2@Z 10013292 f   libucrt:argv_parsing.obj
 0001:00012460       ??$common_initialize_environment_nolock@D@@YAHXZ 10013460 f   libucrt:environment_initialization.obj
 0001:000124b3       ??$create_environment@D@@YAQAPADQAD@Z 100134b3 f   libucrt:environment_initialization.obj
 0001:00012583       ??$free_environment@D@@YAXQAPAD@Z 10013583 f   libucrt:environment_initialization.obj
 0001:00012583       ??$free_environment@_W@@YAXQAPA_W@Z 10013583 f   libucrt:environment_initialization.obj
 0001:000125db       ??$uninitialize_environment_internal@D@@YAXAAPAPAD@Z 100135db f   libucrt:environment_initialization.obj
 0001:000125f6       ??$uninitialize_environment_internal@_W@@YAXAAPAPA_W@Z 100135f6 f   libucrt:environment_initialization.obj
 0001:0001264d       ??$?RV<lambda_69a2805e680e0e292e8ba93315fe43a8>@@AAV<lambda_f03950bc5685219e0bcd2087efbe011e>@@V<lambda_03fcd07e894ec930e3f35da366ca99d6>@@@?$__crt_seh_guarded_call@H@@QAEH$$QAV<lambda_69a2805e680e0e292e8ba93315fe43a8>@@AAV<lambda_f03950bc5685219e0bcd2087efbe011e>@@$$QAV<lambda_03fcd07e894ec930e3f35da366ca99d6>@@@Z 1001364d f   libucrt:onexit.obj
 0001:000126a8       ??$?RV<lambda_8e746cf0007f6ed984d6f78af1fec997>@@AAV<lambda_22ebabd17bc4fa466a2aca6d8deb888d>@@V<lambda_18ed0c0b38a6dc0daf1e7ac6d6adf05e>@@@?$__crt_seh_guarded_call@H@@QAEH$$QAV<lambda_8e746cf0007f6ed984d6f78af1fec997>@@AAV<lambda_22ebabd17bc4fa466a2aca6d8deb888d>@@$$QAV<lambda_18ed0c0b38a6dc0daf1e7ac6d6adf05e>@@@Z 100136a8 f   libucrt:onexit.obj
 0001:00012722       ??R<lambda_22ebabd17bc4fa466a2aca6d8deb888d>@@QBEHXZ 10013722 f   libucrt:onexit.obj
 0001:0001284b       ??R<lambda_f03950bc5685219e0bcd2087efbe011e>@@QBEHXZ 1001384b f   libucrt:onexit.obj
 0001:000129c4       _initialize_global_variables 100139c4 f   libucrt:initialization.obj
 0001:000129d1       _initialize_c              100139d1 f   libucrt:initialization.obj
 0001:000129eb       _initialize_environment    100139eb f   libucrt:initialization.obj
 0001:000129eb       _initialize_global_state_isolation 100139eb f   libucrt:initialization.obj
 0001:000129eb       _report_memory_leaks       100139eb f   libucrt:initialization.obj
 0001:000129eb       _uninitialize_c            100139eb f   libucrt:initialization.obj
 0001:000129eb       _uninitialize_global_state_isolation 100139eb f   libucrt:initialization.obj
 0001:000129ee       _uninitialize_environment  100139ee f   libucrt:initialization.obj
 0001:000129f6       _initialize_pointers       100139f6 f   libucrt:initialization.obj
 0001:00012a24       _uninitialize_vcruntime    10013a24 f   libucrt:initialization.obj
 0001:00012a2d       _uninitialize_allocated_memory 10013a2d f   libucrt:initialization.obj
 0001:00012a44       _uninitialize_allocated_io_buffers 10013a44 f   libucrt:initialization.obj
 0001:00012a94       ??R<lambda_af42a3ee9806e9a7305d451646e05244>@@QBEXAAPAU__crt_multibyte_data@@@Z 10013a94 f   libucrt:initialization.obj
 0001:00013380       $$000000                   10014380     libucrt:strncmp.obj
 0001:0001346c       ??$?RV<lambda_15ade71b0218206bbe3333a0c9b79046>@@AAV<lambda_da44e0f8b0f19ba52fefafb335991732>@@V<lambda_207f2d024fc103971653565357d6cd41>@@@?$__crt_seh_guarded_call@X@@QAEX$$QAV<lambda_15ade71b0218206bbe3333a0c9b79046>@@AAV<lambda_da44e0f8b0f19ba52fefafb335991732>@@$$QAV<lambda_207f2d024fc103971653565357d6cd41>@@@Z 1001446c f   libucrt:per_thread_data.obj
 0001:000134be       ??$?RV<lambda_38edbb1296d33220d7e4dd0ed76b244a>@@AAV<lambda_5ce1d447e08cb34b2473517608e21441>@@V<lambda_fb385d3da700c9147fc39e65dd577a8c>@@@?$__crt_seh_guarded_call@X@@QAEX$$QAV<lambda_38edbb1296d33220d7e4dd0ed76b244a>@@AAV<lambda_5ce1d447e08cb34b2473517608e21441>@@$$QAV<lambda_fb385d3da700c9147fc39e65dd577a8c>@@@Z 100144be f   libucrt:per_thread_data.obj
 0001:00013529       ??$?RV<lambda_6affb1475c98b40b75cdec977db92e3c>@@AAV<lambda_b8d4b9c228a6ecc3f80208dbb4b4a104>@@V<lambda_608742c3c92a14382c1684fc64f96c88>@@@?$__crt_seh_guarded_call@X@@QAEX$$QAV<lambda_6affb1475c98b40b75cdec977db92e3c>@@AAV<lambda_b8d4b9c228a6ecc3f80208dbb4b4a104>@@$$QAV<lambda_608742c3c92a14382c1684fc64f96c88>@@@Z 10014529 f   libucrt:per_thread_data.obj
 0001:0001357e       ??$?RV<lambda_a7e850c220f1c8d1e6efeecdedd162c6>@@AAV<lambda_46720907175c18b6c9d2717bc0d2d362>@@V<lambda_9048902d66e8d99359bc9897bbb930a8>@@@?$__crt_seh_guarded_call@X@@QAEX$$QAV<lambda_a7e850c220f1c8d1e6efeecdedd162c6>@@AAV<lambda_46720907175c18b6c9d2717bc0d2d362>@@$$QAV<lambda_9048902d66e8d99359bc9897bbb930a8>@@@Z 1001457e f   libucrt:per_thread_data.obj
 0001:000135d8       ?construct_ptd@@YAXQAU__acrt_ptd@@QAPAU__crt_locale_data@@@Z 100145d8 f   libucrt:per_thread_data.obj
 0001:00013671       ?destroy_fls@@YGXPAX@Z     10014671 f   libucrt:per_thread_data.obj
 0001:00013692       ?destroy_ptd@@YAXQAU__acrt_ptd@@@Z 10014692 f   libucrt:per_thread_data.obj
 0001:0001375f       ?replace_current_thread_locale_nolock@@YAXQAU__acrt_ptd@@QAU__crt_locale_data@@@Z 1001475f f   libucrt:per_thread_data.obj
 0001:00013b6f       ?try_get_AreFileApisANSI@@YAP6GHXZXZ 10014b6f f   libucrt:winapi_thunks.obj
 0001:00013b89       ?try_get_LCMapStringEx@@YAP6GHPB_WK0HPA_WHPAU_nlsversioninfo@@PAXJ@ZXZ 10014b89 f   libucrt:winapi_thunks.obj
 0001:00013ba3       ?try_get_LocaleNameToLCID@@YAP6GKPB_WK@ZXZ 10014ba3 f   libucrt:winapi_thunks.obj
 0001:00013bbd       ?try_get_first_available_module@@YAPAUHINSTANCE__@@QBW4module_id@?A0x391cf84c@@0@Z 10014bbd f   libucrt:winapi_thunks.obj
 0001:00013c84       ?try_get_function@@YAPAXW4function_id@?A0x391cf84c@@QBDQBW4module_id@2@2@Z 10014c84 f   libucrt:winapi_thunks.obj
 0001:000143e7       ?fe_to_nearest@@YA_NQBN_KF@Z 100153e7 f   libucrt:cvt.obj
 0001:0001448a       ?fp_format_a@@YAHQBNPADIQADIH_NIQAU__crt_locale_pointers@@W4__acrt_rounding_mode@@@Z 1001548a f   libucrt:cvt.obj
 0001:00014799       ?fp_format_e@@YAHQBNQADI1IH_NIQAU__crt_locale_pointers@@W4__acrt_rounding_mode@@@Z 10015799 f   libucrt:cvt.obj
 0001:00014841       ?fp_format_e_internal@@YAHQADIH_NIQAU_strflt@@1QAU__crt_locale_pointers@@@Z 10015841 f   libucrt:cvt.obj
 0001:00014989       ?fp_format_f@@YAHQBNQADI1IHQAU__crt_locale_pointers@@W4__acrt_rounding_mode@@@Z 10015989 f   libucrt:cvt.obj
 0001:00014a1a       ?fp_format_f_internal@@YAHQADIHQAU_strflt@@_NQAU__crt_locale_pointers@@@Z 10015a1a f   libucrt:cvt.obj
 0001:00014b12       ?fp_format_g@@YAHQBNQADI1IH_NIQAU__crt_locale_pointers@@@Z 10015b12 f   libucrt:cvt.obj
 0001:00014bdb       ?fp_format_nan_or_infinity@@YAHW4__acrt_fp_class@@_NPADI1@Z 10015bdb f   libucrt:cvt.obj
 0001:00014c70       ?shift_bytes@@YAXQADI0H@Z  10015c70 f   libucrt:cvt.obj
 0001:00014ca4       ?should_round_up@@YA_NQBN_KFW4__acrt_rounding_mode@@@Z 10015ca4 f   libucrt:cvt.obj
 0001:0001500d       ??$?RV<lambda_e5124f882df8998aaf41531e079ba474>@@AAV<lambda_3e16ef9562a7dcce91392c22ab16ea36>@@V<lambda_e25ca0880e6ef98be67edffd8c599615>@@@?$__crt_seh_guarded_call@X@@QAEX$$QAV<lambda_e5124f882df8998aaf41531e079ba474>@@AAV<lambda_3e16ef9562a7dcce91392c22ab16ea36>@@$$QAV<lambda_e25ca0880e6ef98be67edffd8c599615>@@@Z 1001600d f   libucrt:wsetlocale.obj
 0001:000150ad       ?initialize_inherited_file_handles_nolock@@YAXXZ 100160ad f   libucrt:ioinit.obj
 0001:00015163       ?initialize_stdio_handles_nolock@@YAXXZ 10016163 f   libucrt:ioinit.obj
 0001:00015374       ?<lambda_invoker_cdecl>@<lambda_838c7f62c73c983481e27c09e84b0b5d>@@CAHPBX0@Z 10016374 f   libucrt:argv_wildcards.obj
 0001:0001538c       ??$__acrt_convert_wcs_mbs_cp@D_WV<lambda_62f6974d9771e494a5ea317cc32e971c>@@U__crt_win32_buffer_internal_dynamic_resizing@@@@YAHQBDAAV?$__crt_win32_buffer@_WU__crt_win32_buffer_internal_dynamic_resizing@@@@ABV<lambda_62f6974d9771e494a5ea317cc32e971c>@@I@Z 1001638c f   libucrt:argv_wildcards.obj
 0001:0001543e       ??$__acrt_convert_wcs_mbs_cp@_WDV<lambda_28bda7af82a03b66c1cb3803a755f95d>@@U__crt_win32_buffer_internal_dynamic_resizing@@@@YAHQB_WAAV?$__crt_win32_buffer@DU__crt_win32_buffer_internal_dynamic_resizing@@@@ABV<lambda_28bda7af82a03b66c1cb3803a755f95d>@@I@Z 1001643e f   libucrt:argv_wildcards.obj
 0001:0001552a       ??$common_expand_argv_wildcards@D@@YAHQAPADQAPAPAD@Z 1001652a f   libucrt:argv_wildcards.obj
 0001:00015719       ??$copy_and_add_argument_to_buffer@D@@YAHQBD0IAAV?$argument_list@D@?A0x5f5c8891@@@Z 10016719 f   libucrt:argv_wildcards.obj
 0001:000157ca       ??$expand_argument_wildcards@D@@YAHQAD0AAV?$argument_list@D@?A0x5f5c8891@@@Z 100167ca f   libucrt:argv_wildcards.obj
 0001:00015b14       ?expand_if_necessary@?$argument_list@D@?A0x5f5c8891@@AAEHXZ 10016b14 f   libucrt:argv_wildcards.obj
 0001:00015ba6       ??$__acrt_convert_wcs_mbs_cp@_WDV<lambda_0fec1a7b3f42a53036604e18c2d5e07e>@@U__crt_win32_buffer_no_resizing@@@@YAHQB_WAAV?$__crt_win32_buffer@DU__crt_win32_buffer_no_resizing@@@@ABV<lambda_0fec1a7b3f42a53036604e18c2d5e07e>@@I@Z 10016ba6 f   libucrt:getmodulefilenamea.obj
 0001:00015d49       ??$?RV<lambda_ceb1ee4838e85a9d631eb091e2fbe199>@@AAV<lambda_ae742caa10f662c28703da3d2ea5e57e>@@V<lambda_cd08b5d6af4937fe54fc07d0c9bf6b37>@@@?$__crt_seh_guarded_call@X@@QAEX$$QAV<lambda_ceb1ee4838e85a9d631eb091e2fbe199>@@AAV<lambda_ae742caa10f662c28703da3d2ea5e57e>@@$$QAV<lambda_cd08b5d6af4937fe54fc07d0c9bf6b37>@@@Z 10016d49 f   libucrt:mbctype.obj
 0001:00015d96       ??R<lambda_ae742caa10f662c28703da3d2ea5e57e>@@QBEXXZ 10016d96 f   libucrt:mbctype.obj
 0001:00015e19       ?CPtoLocaleName@@YAPB_WH@Z 10016e19 f   libucrt:mbctype.obj
 0001:00015e57       ?getSystemCP@@YAHH@Z       10016e57 f   libucrt:mbctype.obj
 0001:00015ec8       ?setSBCS@@YAXPAU__crt_multibyte_data@@@Z 10016ec8 f   libucrt:mbctype.obj
 0001:00015f2d       ?setSBUpLow@@YAXPAU__crt_multibyte_data@@@Z 10016f2d f   libucrt:mbctype.obj
 0001:000160ad       ?setmbcp_internal@@YAHH_NQAU__acrt_ptd@@QAPAU__crt_multibyte_data@@@Z 100170ad f   libucrt:mbctype.obj
 0001:000161c1       ?update_thread_multibyte_data_internal@@YAPAU__crt_multibyte_data@@QAU__acrt_ptd@@QAPAU1@@Z 100171c1 f   libucrt:mbctype.obj
 0001:000164af       _memcpy_s                  100174af f   libucrt:cfout.obj
 0001:000164af       _memcpy_s                  100174af f   libucrt:mbctype.obj
 0001:00016530       ?x_ismbbtype_l@@YAHPAU__crt_locale_pointers@@IHH@Z 10017530 f   libucrt:ismbbyte.obj
 0001:000166eb       ?find_end_of_double_null_terminated_sequence@@YAPB_WQB_W@Z 100176eb f   libucrt:get_environment_from_os.obj
 0001:0001685a       ??$?RV<lambda_cbab9ec6f41b0180b23cc171c22676b0>@@AAV<lambda_44731a7d0e6d81c3e6aa82d741081786>@@V<lambda_4b292cb8dd18144e164572427af410ab>@@@?$__crt_seh_guarded_call@P6AXH@Z@@QAEP6AXH@Z$$QAV<lambda_cbab9ec6f41b0180b23cc171c22676b0>@@AAV<lambda_44731a7d0e6d81c3e6aa82d741081786>@@$$QAV<lambda_4b292cb8dd18144e164572427af410ab>@@@Z 1001785a f   libucrt:signal.obj
 0001:000168be       ?get_global_action_nolock@@YAPAP6AXH@ZH@Z 100178be f   libucrt:signal.obj
 0001:00016900       ?siglookup@@YAPAU__crt_signal_action_t@@HQAU1@@Z 10017900 f   libucrt:signal.obj
 0001:00016bb9       ??$?RV<lambda_2866be3712abc81a800a822484c830d8>@@AAV<lambda_39ca0ed439415581b5b15c265174cece>@@V<lambda_2b24c74d71094a6cd0cb82e44167d71b>@@@?$__crt_seh_guarded_call@X@@QAEX$$QAV<lambda_2866be3712abc81a800a822484c830d8>@@AAV<lambda_39ca0ed439415581b5b15c265174cece>@@$$QAV<lambda_2b24c74d71094a6cd0cb82e44167d71b>@@@Z 10017bb9 f   libucrt:fflush.obj
 0001:00016c45       ??$?RV<lambda_2cc53f568c5a2bb6f192f930a45d44ea>@@AAV<lambda_ab61a845afdef5b7c387490eaf3616ee>@@V<lambda_c2ffc0b7726aa6be21d5f0026187e748>@@@?$__crt_seh_guarded_call@X@@QAEX$$QAV<lambda_2cc53f568c5a2bb6f192f930a45d44ea>@@AAV<lambda_ab61a845afdef5b7c387490eaf3616ee>@@$$QAV<lambda_c2ffc0b7726aa6be21d5f0026187e748>@@@Z 10017c45 f   libucrt:fflush.obj
 0001:00016cf1       ?common_flush_all@@YAH_N@Z 10017cf1 f   libucrt:fflush.obj
 0001:00016d3e       ?common_flush_all_should_try_to_flush_stream@@YA_NV__crt_stdio_stream@@QAH@Z 10017d3e f   libucrt:fflush.obj
 0001:00016d71       ?is_stream_flushable_or_commitable@@YA_NJ@Z 10017d71 f   libucrt:fflush.obj
 0001:0001727a       ?GetTableIndexFromLocaleName@@YAHPB_W@Z 1001827a f   libucrt:lcidtoname_downlevel.obj
 0001:00017330       ??R<lambda_3d301b9e52f5099be73030e1f0bf487e>@@QBEIPBD@Z 10018330 f   libucrt:mbrtowc.obj
 0001:000174b6       ?should_round_up@@YA_NQBDHW4__acrt_has_trailing_digits@@W4__acrt_rounding_mode@@@Z 100184b6 f   libucrt:_fptostr.obj
 0001:00019254       ?free_crt_array_internal@@YAXQAPBXI@Z 1001a254 f   libucrt:inittime.obj
 0001:00019c1e       ??$common_tcsncpy_s@D@@YAHQADIQBDI@Z 1001ac1e f   libucrt:strncpy_s.obj
 0001:00019ce0       $$000000                   1001ace0     libucrt:strpbrk.obj
 0001:00019dc4       ?__acrt_LCMapStringA_stat@@YAHPAU__crt_locale_pointers@@PB_WKPBDHPADHHH@Z 1001adc4 f   libucrt:lcmapstringa.obj
 0001:00019ff7       ?initialize_multibyte@@YAHXZ 1001aff7 f   libucrt:multibyte_initializer.obj
 0001:0001a006       ??$?RV<lambda_9e9de3de5fa147e2223d7db92bc10aa6>@@AAV<lambda_38ce7e780aa69e748d6df282ebc68efe>@@V<lambda_8ca6da459f0f6780f1cff60fdc3d00e5>@@@?$__crt_seh_guarded_call@H@@QAEH$$QAV<lambda_9e9de3de5fa147e2223d7db92bc10aa6>@@AAV<lambda_38ce7e780aa69e748d6df282ebc68efe>@@$$QAV<lambda_8ca6da459f0f6780f1cff60fdc3d00e5>@@@Z 1001b006 f   libucrt:commit.obj
 0001:0001a125       ?write_double_translated_ansi_nolock@@YA?AUwrite_result@?A0x17268360@@HQBDI@Z 1001b125 f   libucrt:write.obj
 0001:0001a4d1       ?write_double_translated_unicode_nolock@@YA?AUwrite_result@?A0x17268360@@QBDI@Z 1001b4d1 f   libucrt:write.obj
 0001:0001a539       ?write_requires_double_translation_nolock@@YA_NH@Z 1001b539 f   libucrt:write.obj
 0001:0001a5aa       ?write_text_ansi_nolock@@YA?AUwrite_result@?A0x17268360@@HQBDI@Z 1001b5aa f   libucrt:write.obj
 0001:0001a685       ?write_text_utf16le_nolock@@YA?AUwrite_result@?A0x17268360@@HQBDI@Z 1001b685 f   libucrt:write.obj
 0001:0001a76e       ?write_text_utf8_nolock@@YA?AUwrite_result@?A0x17268360@@HQBDI@Z 1001b76e f   libucrt:write.obj
 0001:0001ae90       $$000000                   1001be90     libucrt:log10_impl.obj
 0001:0001afa0       $$000000                   1001bfa0     libucrt:ceil_pentium4.obj
 0001:0001b0bd       ?to_abstract_control@@YA?AW4__acrt_fenv_abstract_control@@W4__acrt_fenv_machine_sse_control@@@Z 1001c0bd f   libucrt:_fenvutils.obj
 0001:0001b179       ?to_abstract_control@@YA?AW4__acrt_fenv_abstract_control@@W4__acrt_fenv_machine_x87_control@@@Z 1001c179 f   libucrt:_fenvutils.obj
 0001:0001b232       ?to_machine_sse_control@@YA?AW4__acrt_fenv_machine_sse_control@@W4__acrt_fenv_abstract_control@@@Z 1001c232 f   libucrt:_fenvutils.obj
 0001:0001b2ff       ?to_machine_x87_control@@YA?AW4__acrt_fenv_machine_x87_control@@W4__acrt_fenv_abstract_control@@@Z 1001c2ff f   libucrt:_fenvutils.obj
 0001:0001b693       ??$common_lseek_nolock@_J@@YA_JH_JH@Z 1001c693 f   libucrt:lseek.obj
 0001:0001b879       ___hw_cw_sse2              1001c879 f   libucrt:ieee87.obj
 0001:0001bcff       __hw_cw                    1001ccff f   libucrt:ieee87.obj
 0001:0001bdb0       $$000000                   1001cdb0     libucrt:log10_pentium4.obj
 0001:0001c040       $$000000                   1001d040     libucrt:87tran.obj
 0001:0001c250       $$000000                   1001d250     libucrt:87disp.obj
 0001:0001c4b0       $$000000                   1001d4b0     libucrt:common.obj
 0001:0001c640       $$000000                   1001d640     libucrt:genexcep.obj
 0001:0001c93c       ??$?RV<lambda_218ce3db14220d0be481dae8ef3383b6>@@AAV<lambda_628dfdc04ba53c8bfc02c9951375f3f5>@@V<lambda_57dc472bd5c9d5f3b2cbca59b8a843ae>@@@?$__crt_seh_guarded_call@H@@QAEH$$QAV<lambda_218ce3db14220d0be481dae8ef3383b6>@@AAV<lambda_628dfdc04ba53c8bfc02c9951375f3f5>@@$$QAV<lambda_57dc472bd5c9d5f3b2cbca59b8a843ae>@@@Z 1001d93c f   libucrt:close.obj
 0001:0001cb30       $$000000                   1001db30     libucrt:_strnicm.obj
 0001:0001cb91       ?__dcrt_lowio_initialize_console_output@@YAXXZ 1001db91 f   libucrt:initcon.obj
 0001:0001da70       $$000000                   1001ea70     LIBCMT:ulldvrm.obj
 0001:0001db10       $$000000                   1001eb10     LIBCMT:llmul.obj
 0001:0001db50       $$000000                   1001eb50     LIBCMT:lldvrm.obj
 0001:0001dc30       $$000000                   1001ec30     LIBCMT:llshl.obj
 0001:0001dc50       $$000000                   1001ec50     LIBCMT:ullshr.obj
 0001:0001dc70       $$000000                   1001ec70     LIBCMT:ftol2.obj
 0001:0001df10       $$000000                   1001ef10     libvcruntime:strrchr.obj
 0001:0001e050       $$000000                   1001f050     libvcruntime:strchr.obj
 0001:0001e1f3       __ehhandler$??2@YAPAXIABUnothrow_t@std@@@Z 1001f1f3 f   LIBCMT:new_scalar_nothrow.obj
 0001:0001e210       __ehhandler$?CallUnexpected@@YAXPBU_s_ESTypeList@@@Z 1001f210 f   libvcruntime:frame.obj
 0001:0001e22d       ??__F_AtlComModule@ATL@@YAXXZ 1001f22d f   OposVariant.obj
 0001:0001e237       ??__F_AtlWinModule@ATL@@YAXXZ 1001f237 f   OposVariant.obj
 0001:0001e251       ??__F_Module@@YAXXZ        1001f251 f   SigCap.obj
 0001:0001e265       ??__F_AtlBaseModule@ATL@@YAXXZ 1001f265 f   atls:atlbase.obj
 0002:00000304       ?_AtlBaseModule$initializer$@ATL@@3P6AXXZA 10020304     atls:atlbase.obj
 0002:00000308       ?_AtlComModule$initializer$@ATL@@3P6AXXZA 10020308     OposVariant.obj
 0002:0000030c       ?_AtlWinModule$initializer$@ATL@@3P6AXXZA 1002030c     OposVariant.obj
 0002:00000310       ?_Module$initializer$@@3P6AXXZA 10020310     SigCap.obj
 0002:00000314       ??pConnMap$initializer$@?$IConnectionPointContainerImpl@VCOPOSSigCap@@@ATL@@0P6AXXZA@@3P6AXXZA 10020314     SigCap.obj
 0002:00000320       ?__scrt_initialize_tss_var@@3P6AHXZA 10020320     LIBCMT:thread_safe_statics.obj
 0002:00001858       _GS_ExceptionPointers      10021858     LIBCMT:gs_report.obj
 0002:000019e8       ?tokenTable@@3QBUStringLiteral@@B 100219e8     libvcruntime:undname.obj
 0002:00001a68       ?nameTable@@3QBUStringLiteral@@B 10021a68     libvcruntime:undname.obj
 0002:00001d00       ?rttiTable@@3QBUStringLiteral@@B 10021d00     libvcruntime:undname.obj
 0002:00001d28       ?IndirectionName@@3QBUStringLiteral@@B 10021d28     libvcruntime:undname.obj
 0002:00001d58       ?PrefixName@@3QBUStringLiteral@@B 10021d58     libvcruntime:undname.obj
 0002:00002388       ?module_names@?A0xb97aeec8@@3QBQB_WB 10022388     libvcruntime:winapi_downlevel.obj
 0002:00002430       ?candidate_modules@?1??try_get_FlsAlloc@@YAP6GKP6GXPAX@Z@ZXZ@4QBW4module_id@?A0xb97aeec8@@B 10022430     libvcruntime:winapi_downlevel.obj
 0002:00002444       ?candidate_modules@?1??try_get_FlsFree@@YAP6GHK@ZXZ@4QBW4module_id@?A0xb97aeec8@@B 10022444     libvcruntime:winapi_downlevel.obj
 0002:00002454       ?candidate_modules@?1??try_get_FlsGetValue@@YAP6GPAXK@ZXZ@4QBW4module_id@?A0xb97aeec8@@B 10022454     libvcruntime:winapi_downlevel.obj
 0002:00002468       ?candidate_modules@?1??try_get_FlsSetValue@@YAP6GHKPAX@ZXZ@4QBW4module_id@?A0xb97aeec8@@B 10022468     libvcruntime:winapi_downlevel.obj
 0002:0000247c       ?candidate_modules@?1??try_get_InitializeCriticalSectionEx@@YAP6GHPAU_RTL_CRITICAL_SECTION@@KK@ZXZ@4QBW4module_id@?A0xb97aeec8@@B 1002247c     libvcruntime:winapi_downlevel.obj
 0002:000024a0       ?errtable@@3QBUerrentry@?A0x31fdb9ec@@B 100224a0     libucrt:errno.obj
 0002:00002ae8       ___acrt_initializers       10022ae8     libucrt:initialization.obj
 0002:00002b68       ?module_names@?A0x391cf84c@@3QBQB_WB 10022b68     libucrt:winapi_thunks.obj
 0002:00002fe0       ?candidate_modules@?1??try_get_AreFileApisANSI@@YAP6GHXZXZ@4QBW4module_id@?A0x391cf84c@@B 10022fe0     libucrt:winapi_thunks.obj
 0002:00002ff4       ?candidate_modules@?1??try_get_FlsAlloc@@YAP6GKP6GXPAX@Z@ZXZ@4QBW4module_id@?A0x391cf84c@@B 10022ff4     libucrt:winapi_thunks.obj
 0002:00002ffc       ?candidate_modules@?1??try_get_FlsFree@@YAP6GHK@ZXZ@4QBW4module_id@?A0x391cf84c@@B 10022ffc     libucrt:winapi_thunks.obj
 0002:00003004       ?candidate_modules@?1??try_get_FlsGetValue@@YAP6GPAXK@ZXZ@4QBW4module_id@?A0x391cf84c@@B 10023004     libucrt:winapi_thunks.obj
 0002:0000300c       ?candidate_modules@?1??try_get_FlsSetValue@@YAP6GHKPAX@ZXZ@4QBW4module_id@?A0x391cf84c@@B 1002300c     libucrt:winapi_thunks.obj
 0002:00003014       ?candidate_modules@?1??try_get_InitializeCriticalSectionEx@@YAP6GHPAU_RTL_CRITICAL_SECTION@@KK@ZXZ@4QBW4module_id@?A0x391cf84c@@B 10023014     libucrt:winapi_thunks.obj
 0002:0000301c       ?candidate_modules@?1??try_get_LCMapStringEx@@YAP6GHPB_WK0HPA_WHPAU_nlsversioninfo@@PAXJ@ZXZ@4QBW4module_id@?A0x391cf84c@@B 1002301c     libucrt:winapi_thunks.obj
 0002:00003034       ?candidate_modules@?1??try_get_LocaleNameToLCID@@YAP6GKPB_WK@ZXZ@4QBW4module_id@?A0x391cf84c@@B 10023034     libucrt:winapi_thunks.obj
 0002:00003050       ?candidate_modules@?1??try_get_AppPolicyGetProcessTerminationMethod@@YAP6GJPAXPAW4AppPolicyProcessTerminationMethod@@@ZXZ@4QBW4module_id@?A0x391cf84c@@B 10023050     libucrt:winapi_thunks.obj
 0002:0000307c       ?candidate_modules@?1??try_get_SetThreadStackGuarantee@@YAP6GHPAK@ZXZ@4QBW4module_id@?A0x391cf84c@@B 1002307c     libucrt:winapi_thunks.obj
 0002:000030a0       ?strings@?1??fp_format_nan_or_infinity@@YAHW4__acrt_fp_class@@_NPADI1@Z@4QAY03QBDA 100230a0     libucrt:cvt.obj
 0002:000035e8       ?_mb_locale_names@@3QBQB_WB 100235e8     libucrt:mbctype.obj
 0002:00003e30       ?LcidToLocaleNameTable@?A0x881e4c05@@3QBULcidToLocaleName@1@B 10023e30     libucrt:lcidtoname_downlevel.obj
 0002:00004f58       ?LocaleNameToIndexTable@?A0x881e4c05@@3QBULocaleNameIndex@1@B 10024f58     libucrt:lcidtoname_downlevel.obj
 0002:00006890       LOG_name                   10026890     libucrt:log10_impl.obj
 0002:000068a0       _One                       100268a0     libucrt:ceil_pentium4.obj
 0002:000068b0       _Bns                       100268b0     libucrt:ceil_pentium4.obj
 0002:000068c0       _Zero                      100268c0     libucrt:ceil_pentium4.obj
 0002:000068d0       _S                         100268d0     libucrt:ceil_pentium4.obj
 0002:000068e0       _NegZero                   100268e0     libucrt:ceil_pentium4.obj
 0002:000068f0       emask                      100268f0     libucrt:log10_pentium4.obj
 0002:00006900       CC                         10026900     libucrt:log10_pentium4.obj
 0002:00006910       Magic                      10026910     libucrt:log10_pentium4.obj
 0002:00006920       hi_mask                    10026920     libucrt:log10_pentium4.obj
 0002:00006930       LOG10_2                    10026930     libucrt:log10_pentium4.obj
 0002:00006940       place_L                    10026940     libucrt:log10_pentium4.obj
 0002:00006960       One                        10026960     libucrt:log10_pentium4.obj
 0002:00006970       Zero                       10026970     libucrt:log10_pentium4.obj
 0002:00006980       Two52                      10026980     libucrt:log10_pentium4.obj
 0002:00006990       Infs                       10026990     libucrt:log10_pentium4.obj
 0002:000069a0       NaN                        100269a0     libucrt:log10_pentium4.obj
 0002:000069b0       coeff                      100269b0     libucrt:log10_pentium4.obj
 0002:00006a0e       _log2max                   10026a0e     libucrt:87tran.obj
 0002:00006a18       _smallarg                  10026a18     libucrt:87tran.obj
 0002:00006a22       _half                      10026a22     libucrt:87tran.obj
 0002:00006a6e       One                        10026a6e     libucrt:87disp.obj
 0002:00006a76       Three                      10026a76     libucrt:87disp.obj
 0002:00006a7e       XAMtoTagTab                10026a7e     libucrt:87disp.obj
 0002:00006a90       One                        10026a90     libucrt:common.obj
 0002:00006aa4       DblMax                     10026aa4     libucrt:common.obj
 0002:00006aac       DblMin                     10026aac     libucrt:common.obj
 0002:00006ab4       IeeeAdjO                   10026ab4     libucrt:common.obj
 0002:00006abc       IeeeAdjU                   10026abc     libucrt:common.obj
 0002:00006ac4       _infinity                  10026ac4     libucrt:common.obj
 0002:00006acc       _zero                      10026acc     libucrt:common.obj
 0002:00006b18       _over                      10026b18     libucrt:fpctrl.obj
 0002:00006b24       _under                     10026b24     libucrt:fpctrl.obj
 0002:00007358       ?_names@?1??_get_fname@@9@9 10027358     libucrt:fpexcept.obj
 0002:00007500       two32                      10027500     LIBCMT:ftol2.obj
 0002:00007504       two63                      10027504     LIBCMT:ftol2.obj
 0002:00007508       _NaN                       10027508     LIBCMT:ftol2.obj
 0002:00007be8       __sehtable$?_AtlVerifyStackAvailable@_ATL_SAFE_ALLOCA_IMPL@ATL@@YA_NK@Z 10027be8     SigCap.obj
 0002:00007c08       __sehtable$___scrt_is_nonwritable_in_current_image 10027c08     LIBCMT:utility.obj
 0002:00007c24       __catchsym$??2@YAPAXIABUnothrow_t@std@@@Z$2 10027c24     LIBCMT:new_scalar_nothrow.obj
 0002:00007c34       __unwindtable$??2@YAPAXIABUnothrow_t@std@@@Z 10027c34     LIBCMT:new_scalar_nothrow.obj
 0002:00007c44       __tryblocktable$??2@YAPAXIABUnothrow_t@std@@@Z 10027c44     LIBCMT:new_scalar_nothrow.obj
 0002:00007c58       __ehfuncinfo$??2@YAPAXIABUnothrow_t@std@@@Z 10027c58     LIBCMT:new_scalar_nothrow.obj
 0002:00007c80       __sehtable$?dllmain_crt_process_attach@@YAHQAUHINSTANCE__@@QAX@Z 10027c80     LIBCMT:dll_dllmain.obj
 0002:00007ca0       __sehtable$?dllmain_crt_process_detach@@YAH_N@Z 10027ca0     LIBCMT:dll_dllmain.obj
 0002:00007cc8       __sehtable$?dllmain_dispatch@@YAHQAUHINSTANCE__@@KQAX@Z 10027cc8     LIBCMT:dll_dllmain.obj
 0002:00007d78       __sehtable$___DestructExceptionObject 10027d78     libvcruntime:ehhelpers.obj
 0002:00007d98       __sehtable$?FrameUnwindToState@__FrameHandler3@@SAXPAUEHRegistrationNode@@PAXPBU_s_FuncInfo@@H@Z 10027d98     libvcruntime:frame.obj
 0002:00007dc0       __sehtable$?CallCatchBlock@@YAPAXPAUEHExceptionRecord@@PAUEHRegistrationNode@@PAU_CONTEXT@@PBU_s_FuncInfo@@PAXHK@Z 10027dc0     libvcruntime:frame.obj
 0002:00007de8       __catchsym$?CallUnexpected@@YAXPBU_s_ESTypeList@@@Z$2 10027de8     libvcruntime:frame.obj
 0002:00007df8       __unwindtable$?CallUnexpected@@YAXPBU_s_ESTypeList@@@Z 10027df8     libvcruntime:frame.obj
 0002:00007e08       __tryblocktable$?CallUnexpected@@YAXPBU_s_ESTypeList@@@Z 10027e08     libvcruntime:frame.obj
 0002:00007e1c       __ehfuncinfo$?CallUnexpected@@YAXPBU_s_ESTypeList@@@Z 10027e1c     libvcruntime:frame.obj
 0002:00007e40       __sehtable$??$BuildCatchObjectHelperInternal@V__FrameHandler3@@@@YAHPAUEHExceptionRecord@@PAXPBU_s_HandlerType@@PBU_s_CatchableType@@@Z 10027e40     libvcruntime:frame.obj
 0002:00007e60       __sehtable$??$BuildCatchObjectInternal@V__FrameHandler3@@@@YAXPAUEHExceptionRecord@@PAXPBU_s_HandlerType@@PBU_s_CatchableType@@@Z 10027e60     libvcruntime:frame.obj
 0002:00007eb8       __sehtable$??R<lambda_6e4b09c48022b2350581041d5f6b0c4c>@@QBE@XZ 10027eb8     libucrt:exit.obj
 0002:00007ed8       __sehtable$??$?RV<lambda_03b1d95aef87969028cfba75ccab2455>@@AAV<lambda_6e4b09c48022b2350581041d5f6b0c4c>@@V<lambda_22bdf7517842c4b3e53723af5aa32b9e>@@@?$__crt_seh_guarded_call@X@@QAEX$$QAV<lambda_03b1d95aef87969028cfba75ccab2455>@@AAV<lambda_6e4b09c48022b2350581041d5f6b0c4c>@@$$QAV<lambda_22bdf7517842c4b3e53723af5aa32b9e>@@@Z 10027ed8     libucrt:exit.obj
 0002:00007ef8       __sehtable$??$?RV<lambda_8e746cf0007f6ed984d6f78af1fec997>@@AAV<lambda_22ebabd17bc4fa466a2aca6d8deb888d>@@V<lambda_18ed0c0b38a6dc0daf1e7ac6d6adf05e>@@@?$__crt_seh_guarded_call@H@@QAEH$$QAV<lambda_8e746cf0007f6ed984d6f78af1fec997>@@AAV<lambda_22ebabd17bc4fa466a2aca6d8deb888d>@@$$QAV<lambda_18ed0c0b38a6dc0daf1e7ac6d6adf05e>@@@Z 10027ef8     libucrt:onexit.obj
 0002:00007f18       __sehtable$??$?RV<lambda_69a2805e680e0e292e8ba93315fe43a8>@@AAV<lambda_f03950bc5685219e0bcd2087efbe011e>@@V<lambda_03fcd07e894ec930e3f35da366ca99d6>@@@?$__crt_seh_guarded_call@H@@QAEH$$QAV<lambda_69a2805e680e0e292e8ba93315fe43a8>@@AAV<lambda_f03950bc5685219e0bcd2087efbe011e>@@$$QAV<lambda_03fcd07e894ec930e3f35da366ca99d6>@@@Z 10027f18     libucrt:onexit.obj
 0002:00007f38       __sehtable$__query_new_handler 10027f38     libucrt:new_handler.obj
 0002:00007f58       __sehtable$_terminate      10027f58     libucrt:terminate.obj
 0002:00007f78       __sehtable$??$?RV<lambda_15ade71b0218206bbe3333a0c9b79046>@@AAV<lambda_da44e0f8b0f19ba52fefafb335991732>@@V<lambda_207f2d024fc103971653565357d6cd41>@@@?$__crt_seh_guarded_call@X@@QAEX$$QAV<lambda_15ade71b0218206bbe3333a0c9b79046>@@AAV<lambda_da44e0f8b0f19ba52fefafb335991732>@@$$QAV<lambda_207f2d024fc103971653565357d6cd41>@@@Z 10027f78     libucrt:per_thread_data.obj
 0002:00007f98       __sehtable$??$?RV<lambda_a7e850c220f1c8d1e6efeecdedd162c6>@@AAV<lambda_46720907175c18b6c9d2717bc0d2d362>@@V<lambda_9048902d66e8d99359bc9897bbb930a8>@@@?$__crt_seh_guarded_call@X@@QAEX$$QAV<lambda_a7e850c220f1c8d1e6efeecdedd162c6>@@AAV<lambda_46720907175c18b6c9d2717bc0d2d362>@@$$QAV<lambda_9048902d66e8d99359bc9897bbb930a8>@@@Z 10027f98     libucrt:per_thread_data.obj
 0002:00007fb8       __sehtable$??$?RV<lambda_38edbb1296d33220d7e4dd0ed76b244a>@@AAV<lambda_5ce1d447e08cb34b2473517608e21441>@@V<lambda_fb385d3da700c9147fc39e65dd577a8c>@@@?$__crt_seh_guarded_call@X@@QAEX$$QAV<lambda_38edbb1296d33220d7e4dd0ed76b244a>@@AAV<lambda_5ce1d447e08cb34b2473517608e21441>@@$$QAV<lambda_fb385d3da700c9147fc39e65dd577a8c>@@@Z 10027fb8     libucrt:per_thread_data.obj
 0002:00007fd8       __sehtable$??$?RV<lambda_6affb1475c98b40b75cdec977db92e3c>@@AAV<lambda_b8d4b9c228a6ecc3f80208dbb4b4a104>@@V<lambda_608742c3c92a14382c1684fc64f96c88>@@@?$__crt_seh_guarded_call@X@@QAEX$$QAV<lambda_6affb1475c98b40b75cdec977db92e3c>@@AAV<lambda_b8d4b9c228a6ecc3f80208dbb4b4a104>@@$$QAV<lambda_608742c3c92a14382c1684fc64f96c88>@@@Z 10027fd8     libucrt:per_thread_data.obj
 0002:00007ff8       __sehtable$??$?RV<lambda_e5124f882df8998aaf41531e079ba474>@@AAV<lambda_3e16ef9562a7dcce91392c22ab16ea36>@@V<lambda_e25ca0880e6ef98be67edffd8c599615>@@@?$__crt_seh_guarded_call@X@@QAEX$$QAV<lambda_e5124f882df8998aaf41531e079ba474>@@AAV<lambda_3e16ef9562a7dcce91392c22ab16ea36>@@$$QAV<lambda_e25ca0880e6ef98be67edffd8c599615>@@@Z 10027ff8     libucrt:wsetlocale.obj
 0002:00008018       __sehtable$___acrt_initialize_lowio 10028018     libucrt:ioinit.obj
 0002:00008038       __sehtable$?update_thread_multibyte_data_internal@@YAPAU__crt_multibyte_data@@QAU__acrt_ptd@@QAPAU1@@Z 10028038     libucrt:mbctype.obj
 0002:00008058       __sehtable$??$?RV<lambda_ceb1ee4838e85a9d631eb091e2fbe199>@@AAV<lambda_ae742caa10f662c28703da3d2ea5e57e>@@V<lambda_cd08b5d6af4937fe54fc07d0c9bf6b37>@@@?$__crt_seh_guarded_call@X@@QAEX$$QAV<lambda_ceb1ee4838e85a9d631eb091e2fbe199>@@AAV<lambda_ae742caa10f662c28703da3d2ea5e57e>@@$$QAV<lambda_cd08b5d6af4937fe54fc07d0c9bf6b37>@@@Z 10028058     libucrt:mbctype.obj
 0002:00008078       __sehtable$_raise          10028078     libucrt:signal.obj
 0002:00008098       __sehtable$??$?RV<lambda_cbab9ec6f41b0180b23cc171c22676b0>@@AAV<lambda_44731a7d0e6d81c3e6aa82d741081786>@@V<lambda_4b292cb8dd18144e164572427af410ab>@@@?$__crt_seh_guarded_call@P6AXH@Z@@QAEP6AXH@Z$$QAV<lambda_cbab9ec6f41b0180b23cc171c22676b0>@@AAV<lambda_44731a7d0e6d81c3e6aa82d741081786>@@$$QAV<lambda_4b292cb8dd18144e164572427af410ab>@@@Z 10028098     libucrt:signal.obj
 0002:000080b8       __sehtable$??$?RV<lambda_2866be3712abc81a800a822484c830d8>@@AAV<lambda_39ca0ed439415581b5b15c265174cece>@@V<lambda_2b24c74d71094a6cd0cb82e44167d71b>@@@?$__crt_seh_guarded_call@X@@QAEX$$QAV<lambda_2866be3712abc81a800a822484c830d8>@@AAV<lambda_39ca0ed439415581b5b15c265174cece>@@$$QAV<lambda_2b24c74d71094a6cd0cb82e44167d71b>@@@Z 100280b8     libucrt:fflush.obj
 0002:000080d8       __sehtable$??$?RV<lambda_2cc53f568c5a2bb6f192f930a45d44ea>@@AAV<lambda_ab61a845afdef5b7c387490eaf3616ee>@@V<lambda_c2ffc0b7726aa6be21d5f0026187e748>@@@?$__crt_seh_guarded_call@X@@QAEX$$QAV<lambda_2cc53f568c5a2bb6f192f930a45d44ea>@@AAV<lambda_ab61a845afdef5b7c387490eaf3616ee>@@$$QAV<lambda_c2ffc0b7726aa6be21d5f0026187e748>@@@Z 100280d8     libucrt:fflush.obj
 0002:000080f8       __sehtable$___acrt_update_thread_locale_data 100280f8     libucrt:locale_refcounting.obj
 0002:00008118       __sehtable$__fcloseall     10028118     libucrt:closeall.obj
 0002:00008138       __sehtable$___acrt_lowio_ensure_fh_exists 10028138     libucrt:osfinfo.obj
 0002:00008158       __sehtable$??$?RV<lambda_9e9de3de5fa147e2223d7db92bc10aa6>@@AAV<lambda_38ce7e780aa69e748d6df282ebc68efe>@@V<lambda_8ca6da459f0f6780f1cff60fdc3d00e5>@@@?$__crt_seh_guarded_call@H@@QAEH$$QAV<lambda_9e9de3de5fa147e2223d7db92bc10aa6>@@AAV<lambda_38ce7e780aa69e748d6df282ebc68efe>@@$$QAV<lambda_8ca6da459f0f6780f1cff60fdc3d00e5>@@@Z 10028158     libucrt:commit.obj
 0002:00008178       __sehtable$__write         10028178     libucrt:write.obj
 0002:00008198       __sehtable$_fclose         10028198     libucrt:fclose.obj
 0002:000081b8       __sehtable$??$?RV<lambda_218ce3db14220d0be481dae8ef3383b6>@@AAV<lambda_628dfdc04ba53c8bfc02c9951375f3f5>@@V<lambda_57dc472bd5c9d5f3b2cbca59b8a843ae>@@@?$__crt_seh_guarded_call@H@@QAEH$$QAV<lambda_218ce3db14220d0be481dae8ef3383b6>@@AAV<lambda_628dfdc04ba53c8bfc02c9951375f3f5>@@$$QAV<lambda_57dc472bd5c9d5f3b2cbca59b8a843ae>@@@Z 100281b8     libucrt:close.obj
 0002:000081d8       __sehtable$___set_fpsr_sse2 100281d8     libucrt:fpctrl.obj
 0002:000081f8       __sehtable$__IsNonwritableInCurrentImage 100281f8     LIBCMT:pesect.obj
 0002:00008220       .edata                     10028220     OPOSSigCap.exp
 0002:00008248       rgpv                       10028248     OPOSSigCap.exp
 0002:00008258       rgszName                   10028258     OPOSSigCap.exp
 0002:00008268       rgwOrd                     10028268     OPOSSigCap.exp
 0002:00008270       szName                     10028270     OPOSSigCap.exp
 0002:0000827f       $N00001                    1002827f     OPOSSigCap.exp
 0002:0000828f       $N00002                    1002828f     OPOSSigCap.exp
 0002:000082a1       $N00003                    100282a1     OPOSSigCap.exp
 0002:000082b3       $N00004                    100282b3     OPOSSigCap.exp
 0002:000088c2       .idata$6                   100288c2     kernel32:KERNEL32.dll
 0002:00008ad6       .idata$6                   10028ad6     user32:USER32.dll
 0002:00008c0a       .idata$6                   10028c0a     gdi32:GDI32.dll
 0002:00008cb0       .idata$6                   10028cb0     advapi32:ADVAPI32.dll
 0002:00008dcc       .idata$6                   10028dcc     ole32:ole32.dll
 0002:00008dd6       .idata$6                   10028dd6     oleaut32:OLEAUT32.dll
 0003:00000110       ?ObjectMap@@3PAU_ATL_OBJMAP_ENTRY30@ATL@@A 1002a110     SigCap.obj
 0003:000001c0       ?s_SOMethodNames@@3PAPADA  1002a1c0     SigCapImpl.obj
 0003:00000214       ?s_RequiredMethodsPerRelease@@3PAHA 1002a214     SigCapImpl.obj
 0003:00000260       ?__vcrt_flsindex@@3KA      1002a260     libvcruntime:per_thread_data.obj
 0003:00000280       ?errno_no_memory@@3HA      1002a280     libucrt:errno.obj
 0003:00000284       ?doserrno_no_memory@@3KA   1002a284     libucrt:errno.obj
 0003:00000290       ?__acrt_flsindex@@3KA      1002a290     libucrt:per_thread_data.obj
 0003:00000628       __mbctypes                 1002a628     libucrt:mbctype.obj
 0003:00000730       __mbcasemaps               1002a730     libucrt:mbctype.obj
 0003:00000830       ?__rgctypeflag@@3PADA      1002a830     libucrt:mbctype.obj
 0003:00000838       ?__rgcode_page_info@@3PAUcode_page_info@@A 1002a838     libucrt:mbctype.obj
 0003:00000a90       ?__dcrt_lowio_console_output_handle@@3PAXA 1002aa90     libucrt:initcon.obj
 0003:00000a94       ?__DAZ_ENABLED@?1??__set_fpsr_sse2@@9@9 1002aa94     libucrt:fpctrl.obj
 0003:00000c28       ?is_initialized_as_dll@@3_NA 1002ac28     LIBCMT:utility.obj
 0003:00000c29       ?module_local_atexit_table_initialized@@3_NA 1002ac29     LIBCMT:utility.obj
 0003:00000c2c       ?module_local_atexit_table@@3U_onexit_table_t@@A 1002ac2c     LIBCMT:utility.obj
 0003:00000c38       ?module_local_at_quick_exit_table@@3U_onexit_table_t@@A 1002ac38     LIBCMT:utility.obj
 0003:00000c44       ?g_tss_cv@@3U_RTL_CONDITION_VARIABLE@@A 1002ac44     LIBCMT:thread_safe_statics.obj
 0003:00000c48       ?g_tss_event@@3PAXA        1002ac48     LIBCMT:thread_safe_statics.obj
 0003:00000c4c       ?g_tss_mutex@@3U_RTL_CRITICAL_SECTION@@A 1002ac4c     LIBCMT:thread_safe_statics.obj
 0003:00000c64       ?g_sleep_condition_variable_cs@@3P6GHPAU_RTL_CONDITION_VARIABLE@@PAU_RTL_CRITICAL_SECTION@@K@ZA 1002ac64     LIBCMT:thread_safe_statics.obj
 0003:00000c68       ?g_wake_all_condition_variable@@3P6GXPAU_RTL_CONDITION_VARIABLE@@@ZA 1002ac68     LIBCMT:thread_safe_statics.obj
 0003:00000c70       _GS_ExceptionRecord        1002ac70     LIBCMT:gs_report.obj
 0003:00000cc0       _GS_ContextRecord          1002acc0     LIBCMT:gs_report.obj
 0003:00000f90       ?__proc_attached@@3HA      1002af90     LIBCMT:dll_dllmain.obj
 0003:00000ff4       ?AllocateData@@3P6GPAUAtlThunkData_t@@XZA 1002aff4     atls:atlthunk.obj
 0003:00000ff8       ?InitData@@3P6GXPAUAtlThunkData_t@@PAXI@ZA 1002aff8     atls:atlthunk.obj
 0003:00000ffc       ?DataToCode@@3P6GP6GJPAUHWND__@@IIJ@ZPAUAtlThunkData_t@@@ZA 1002affc     atls:atlthunk.obj
 0003:00001000       ?FreeData@@3P6GXPAUAtlThunkData_t@@@ZA 1002b000     atls:atlthunk.obj
 0003:00001004       ?Initialized@@3_NA         1002b004     atls:atlthunk.obj
 0003:00001014       ?__vcrt_startup_thread_ptd@@3U__vcrt_ptd@@A 1002b014     libvcruntime:per_thread_data.obj
 0003:0000103c       ___vcrt_lock_table         1002b03c     libvcruntime:locks.obj
 0003:00001054       ___vcrt_locks_initialized  1002b054     libvcruntime:locks.obj
 0003:00001080       ?heap@@3V_HeapManager@@A   1002b080     libvcruntime:undname.obj
 0003:00001094       ?module_handles@@3PAPAUHINSTANCE__@@A 1002b094     libvcruntime:winapi_downlevel.obj
 0003:000010a0       ?function_pointers@@3PAPAXA 1002b0a0     libvcruntime:winapi_downlevel.obj
 0003:000010b4       ?__acrt_invalid_parameter_handler@@3V?$dual_state_global@P6AXPB_W00II@Z@__crt_state_management@@A 1002b0b4     libucrt:invalid_parameter.obj
 0003:000010b8       ?c_termination_complete@@3JA 1002b0b8     libucrt:exit.obj
 0003:000010bc       ?thread_local_exit_callback_func@@3P6GXPAXK0@ZA 1002b0bc     libucrt:exit.obj
 0003:000010c8       ?program_name@?1???$common_configure_argv@D@@YAHW4_crt_argv_mode@@@Z@4PADA 1002b0c8     libucrt:argv_parsing.obj
 0003:000011f8       ?__acrt_new_handler@@3V?$dual_state_global@P6AHI@Z@__crt_state_management@@A 1002b1f8     libucrt:new_handler.obj
 0003:00001200       ?module_handles@@3PAPAUHINSTANCE__@@A 1002b200     libucrt:winapi_thunks.obj
 0003:00001250       ?encoded_function_pointers@@3PAPAXA 1002b250     libucrt:winapi_thunks.obj
 0003:000012d8       ?internal_state@?1??_mbtowc_l@@9@4U_Mbstatet@@A 1002b2d8     libucrt:mbtowc.obj
 0003:000012e8       ?enable_percent_n@@3IA     1002b2e8     libucrt:printf_count_output.obj
 0003:00001508       ?__acrt_lock_table@@3PAU_RTL_CRITICAL_SECTION@@A 1002b508     libucrt:locks.obj
 0003:00001658       ?__acrt_locks_initialized@@3IA 1002b658     libucrt:locks.obj
 0003:00001668       ?fSystemSet@@3HA           1002b668     libucrt:mbctype.obj
 0003:0000166c       ?initialized@?1??__acrt_initialize_multibyte@@9@4_NA 1002b66c     libucrt:mbctype.obj
 0003:0000168c       ?ctrlc_action@@3V?$dual_state_global@P6AXH@Z@__crt_state_management@@A 1002b68c     libucrt:signal.obj
 0003:00001690       ?ctrlbreak_action@@3V?$dual_state_global@P6AXH@Z@__crt_state_management@@A 1002b690     libucrt:signal.obj
 0003:00001694       ?abort_action@@3V?$dual_state_global@P6AXH@Z@__crt_state_management@@A 1002b694     libucrt:signal.obj
 0003:00001698       ?term_action@@3V?$dual_state_global@P6AXH@Z@__crt_state_management@@A 1002b698     libucrt:signal.obj
 0003:0000169c       ?user_matherr@@3V?$dual_state_global@P6AHPAU_exception@@@Z@__crt_state_management@@A 1002b69c     libucrt:matherr.obj
 0003:000016a0       ?__acrt_global_new_mode@@3V?$dual_state_global@J@__crt_state_management@@A 1002b6a0     libucrt:new_mode.obj
 0003:000016ac       ?internal_pst@?1??__mbrtoc32_utf8@__crt_mbstring@@YAIPA_UPBDIPAU_Mbstatet@@@Z@4U3@A 1002b6ac     libucrt:mbrtoc32.obj
 0003:000016b4       ?__acrt_app_type@@3W4_crt_app_type@@A 1002b6b4     libucrt:report_runtime_error.obj
 0003:000016bc       __pmatherr_set             1002b6bc     libucrt:libm_error.obj
 0004:00000220       $R000000                   1002c220     SigCap.res
 0004:00000ba0       $R000980                   1002cba0     SigCap.res
 0004:00000c88       $R000A68                   1002cc88     SigCap.res
 0004:00000ef0       $R000CD0                   1002cef0     SigCap.res
 0004:00001438       $R001218                   1002d438     SigCap.res
 0004:00003fe8       $R003DC8                   1002ffe8     SigCap.res
 0004:00004018       $R003DF8                   10030018     SigCap.res
