 OPOSCashDrawer

 Timestamp is 61a75b6e (Wed Dec  1 20:24:30 2021)

 Preferred load address is 10000000

 Start         Length     Name                   Class
 0001:00000000 00000080H .text$di                CODE
 0001:00000080 0001e6e8H .text$mn                CODE
 0001:0001e768 000000d8H .text$x                 CODE
 0001:0001e840 00000042H .text$yd                CODE
 0002:00000000 000002fcH .idata$5                DATA
 0002:000002fc 00000008H .00cfg                  DATA
 0002:00000304 00000004H .CRT$XCA                DATA
 0002:00000308 00000004H .CRT$XCL                DATA
 0002:0000030c 00000010H .CRT$XCU                DATA
 0002:0000031c 00000004H .CRT$XCZ                DATA
 0002:00000320 00000004H .CRT$XIA                DATA
 0002:00000324 00000010H .CRT$XIC                DATA
 0002:00000334 00000004H .CRT$XIZ                DATA
 0002:00000338 00000004H .CRT$XLA                DATA
 0002:0000033c 00000004H .CRT$XLZ                DATA
 0002:00000340 00000004H .CRT$XPA                DATA
 0002:00000344 00000008H .CRT$XPX                DATA
 0002:0000034c 00000004H .CRT$XPXA               DATA
 0002:00000350 00000004H .CRT$XPZ                DATA
 0002:00000354 00000004H .CRT$XTA                DATA
 0002:00000358 00000008H .CRT$XTZ                DATA
 0002:0000035c 00000000H .gfids$y                DATA
 0002:00000360 00006d60H .rdata                  DATA
 0002:000070c0 00000000H .rdata$CastGuardVftablesA DATA
 0002:000070c0 00000000H .rdata$CastGuardVftablesC DATA
 0002:000070c0 00000018H .rdata$T                DATA
 0002:000070d8 00000178H .rdata$r                DATA
 0002:00007250 0000002cH .rdata$sxdata           DATA
 0002:0000727c 00000030H .rdata$voltmd           DATA
 0002:000072ac 0000040cH .rdata$zzzdbg           DATA
 0002:000076b8 00000004H .rtc$IAA                DATA
 0002:000076bc 00000004H .rtc$IZZ                DATA
 0002:000076c0 00000004H .rtc$TAA                DATA
 0002:000076c4 00000004H .rtc$TZZ                DATA
 0002:000076c8 00000004H .tls                    DATA
 0002:000076cc 00000004H .tls$                   DATA
 0002:000076d0 00000008H .tls$ZZZ                DATA
 0002:000076d8 000006dcH .xdata$x                DATA
 0002:00007db4 00000004H ATL$__a                 DATA
 0002:00007db8 00000008H ATL$__z                 DATA
 0002:00007dc0 000000acH .edata                  DATA
 0002:00007e6c 00000078H .idata$2                DATA
 0002:00007ee4 00000014H .idata$3                DATA
 0002:00007ef8 000002fcH .idata$4                DATA
 0002:000081f4 00000bceH .idata$6                DATA
 0003:00000000 00000ab0H .data                   DATA
 0003:00000ab0 00000080H .data$r                 DATA
 0003:00000b30 00000018H .data$rs                DATA
 0003:00000b48 00000b80H .bss                    DATA
 0004:00000000 00000220H .rsrc$01                DATA
 0004:00000220 000038d0H .rsrc$02                DATA

  Address         Publics by Value              Rva+Base       Lib:Object

 0000:00000000       ___guard_fids_count        00000000     <absolute>
 0000:00000000       ___guard_eh_cont_table     00000000     <absolute>
 0000:00000000       ___guard_longjmp_table     00000000     <absolute>
 0000:00000000       ___arm64x_extra_rfe_table  00000000     <absolute>
 0000:00000000       ___arm64x_redirection_metadata 00000000     <absolute>
 0000:00000000       ___guard_iat_count         00000000     <absolute>
 0000:00000000       ___guard_eh_cont_count     00000000     <absolute>
 0000:00000000       __except_list              00000000     <absolute>
 0000:00000000       ___x64_code_ranges_to_entry_points_count 00000000     <absolute>
 0000:00000000       ___hybrid_code_map_count   00000000     <absolute>
 0000:00000000       ___x64_code_ranges_to_entry_points 00000000     <absolute>
 0000:00000000       ___guard_iat_table         00000000     <absolute>
 0000:00000000       ___arm64x_native_entrypoint 00000000     <absolute>
 0000:00000000       ___hybrid_code_map         00000000     <absolute>
 0000:00000000       ___arm64x_extra_rfe_table_size 00000000     <absolute>
 0000:00000000       ___guard_longjmp_count     00000000     <absolute>
 0000:00000000       ___guard_check_icall_a64n_fptr 00000000     <absolute>
 0000:00000000       ___arm64x_redirection_metadata_count 00000000     <absolute>
 0000:00000000       ___hybrid_auxiliary_iat    00000000     <absolute>
 0000:00000000       ___dynamic_value_reloc_table 00000000     <absolute>
 0000:00000000       ___AbsoluteZero            00000000     <absolute>
 0000:00000000       ___enclave_config          00000000     <absolute>
 0000:00000000       ___guard_fids_table        00000000     <absolute>
 0000:00000000       ___hybrid_auxiliary_iat_copy 00000000     <absolute>
 0000:0000000b       ___safe_se_handler_count   0000000b     <absolute>
 0000:0000002c       __tls_array                0000002c     <absolute>
 0000:00000100       ___guard_flags             00000100     <absolute>
 0000:00000000       ___ImageBase               10000000     <linker-defined>
 0001:00000080       ?DupWide@_CW@@AAEXXZ       10001080 f   CWString.obj
 0001:0000009c       ?cw_dup@@YGXPBDAAHAAPA_W1@Z 1000109c f   CWString.obj
 0001:00000124       ?cw_memcpy@@YGHPA_WPBDH@Z  10001124 f   CWString.obj
 0001:00000150       ?cw_strcpy@@YAHPA_WPBD@Z   10001150 f   CWString.obj
 0001:00000163       ?cw_strlen@@YAHPBD@Z       10001163 f   CWString.obj
 0001:0000017c       ??0CAtlComModule@ATL@@QAE@XZ 1000117c f i OposVariant.obj
 0001:000001c1       ??0CAtlWinModule@ATL@@QAE@XZ 100011c1 f i OposVariant.obj
 0001:000001f8       ??0OposDispParms@@QAE@PAVOposVariant@@H@Z 100011f8 f   OposVariant.obj
 0001:00000269       ??1OposDispParms@@QAE@XZ   10001269 f   OposVariant.obj
 0001:00000277       ??A?$CSimpleArray@GV?$CSimpleArrayEqualHelper@G@ATL@@@ATL@@QAEAAGH@Z 10001277 f i OposVariant.obj
 0001:0000029c       ??_Estringdispid@CComTypeInfoHolder@ATL@@QAEPAXI@Z 1000129c f i OposVariant.obj
 0001:00000308       ?AtlWinModuleInit@ATL@@YGJPAU_ATL_WIN_MODULE70@1@@Z 10001308 f i OposVariant.obj
 0001:0000032e       ?AtlWinModuleTerm@ATL@@YGJPAU_ATL_WIN_MODULE70@1@PAUHINSTANCE__@@@Z 1000132e f i OposVariant.obj
 0001:00000391       ?ChangeBSTR@OposVariant@@QAEXPAPA_WAAJ@Z 10001391 f   OposVariant.obj
 0001:000003d2       ?ChangeLONG@OposVariant@@QAEXPAJAAJ@Z 100013d2 f   OposVariant.obj
 0001:00000413       ?GetLONG@OposVariant@@QAEJXZ 10001413 f   OposVariant.obj
 0001:0000042e       ?Init@CComCriticalSection@ATL@@QAEJXZ 1000142e f i OposVariant.obj
 0001:00000456       ?RemoveAll@?$CSimpleArray@GV?$CSimpleArrayEqualHelper@G@ATL@@@ATL@@QAEXXZ 10001456 f i OposVariant.obj
 0001:00000456       ?RemoveAll@?$CSimpleArray@PAUHINSTANCE__@@V?$CSimpleArrayEqualHelper@PAUHINSTANCE__@@@ATL@@@ATL@@QAEXXZ 10001456 f i atls:atlbase.obj
 0001:00000473       ?SetBSTR@OposVariant@@QAEXPA_WAAJ@Z 10001473 f   OposVariant.obj
 0001:000004a7       ?SetBSTR_Copy@OposVariant@@QAEXPA_WAAJ@Z 100014a7 f   OposVariant.obj
 0001:000004f7       ?SetBSTR_InOutPtr@OposVariant@@QAE_NPAPA_WAAJ@Z 100014f7 f   OposVariant.obj
 0001:0000052e       ?SetDispatch_Ptr@OposVariant@@QAEXPAUIDispatch@@AAJ@Z 1000152e f   OposVariant.obj
 0001:00000569       ?SetLONG@OposVariant@@QAEXJ@Z 10001569 f   OposVariant.obj
 0001:0000058b       ?SetLONG_Ptr@OposVariant@@QAEXPAJAAJ@Z 1000158b f   OposVariant.obj
 0001:000005be       ?SetString@OposVariant@@QAEXPB_WAAJ@Z 100015be f   OposVariant.obj
 0001:00000604       ?SetVARIANT_BOOL@OposVariant@@QAEXF@Z 10001604 f   OposVariant.obj
 0001:0000062e       ?Term@CAtlComModule@ATL@@QAEXXZ 1000162e f i OposVariant.obj
 0001:00000678       ?_AtlRaiseException@ATL@@YAXKK@Z 10001678 f i OposVariant.obj
 0001:0000068d       ?OnDrawAdvanced@CComControlBase@ATL@@UAEJAAUATL_DRAWINFO@@@Z 1000168d f i CashDrawer.obj
 0001:00000780       ?Next@?$CComEnumImpl@UIEnumConnections@@$1?_GUID_b196b287_bab4_101a_b69c_00aa00341d07@@3U__s_GUID@@BUtagCONNECTDATA@@V?$_Copy@UtagCONNECTDATA@@@ATL@@@ATL@@UAGJKPAUtagCONNECTDATA@@PAK@Z 10001780 f i CashDrawer.obj
 0001:0000084f       ?Skip@?$CComEnumImpl@UIEnumConnections@@$1?_GUID_b196b287_bab4_101a_b69c_00aa00341d07@@3U__s_GUID@@BUtagCONNECTDATA@@V?$_Copy@UtagCONNECTDATA@@@ATL@@@ATL@@UAGJK@Z 1000184f f i CashDrawer.obj
 0001:0000087c       ?Reset@?$CComEnumImpl@UIEnumConnectionPoints@@$1?_GUID_b196b285_bab4_101a_b69c_00aa00341d07@@3U__s_GUID@@BPAUIConnectionPoint@@V?$_CopyInterface@UIConnectionPoint@@@ATL@@@ATL@@UAGJXZ 1000187c f i CashDrawer.obj
 0001:0000087c       ?Reset@?$CComEnumImpl@UIEnumConnections@@$1?_GUID_b196b287_bab4_101a_b69c_00aa00341d07@@3U__s_GUID@@BUtagCONNECTDATA@@V?$_Copy@UtagCONNECTDATA@@@ATL@@@ATL@@UAGJXZ 1000187c f i CashDrawer.obj
 0001:0000088e       ?Clone@?$CComEnumImpl@UIEnumConnections@@$1?_GUID_b196b287_bab4_101a_b69c_00aa00341d07@@3U__s_GUID@@BUtagCONNECTDATA@@V?$_Copy@UtagCONNECTDATA@@@ATL@@@ATL@@UAGJPAPAUIEnumConnections@@@Z 1000188e f i CashDrawer.obj
 0001:0000096f       ?AddRef@?$CComObject@V?$CComEnum@UIEnumConnectionPoints@@$1?_GUID_b196b285_bab4_101a_b69c_00aa00341d07@@3U__s_GUID@@BPAUIConnectionPoint@@V?$_CopyInterface@UIConnectionPoint@@@ATL@@VCComSingleThreadModel@6@@ATL@@@ATL@@UAGKXZ 1000196f f i CashDrawer.obj
 0001:0000096f       ?AddRef@?$CComObject@V?$CComEnum@UIEnumConnections@@$1?_GUID_b196b287_bab4_101a_b69c_00aa00341d07@@3U__s_GUID@@BUtagCONNECTDATA@@V?$_Copy@UtagCONNECTDATA@@@ATL@@VCComSingleThreadModel@6@@ATL@@@ATL@@UAGKXZ 1000196f f i CashDrawer.obj
 0001:00000980       ?Release@?$CComObject@V?$CComEnum@UIEnumConnections@@$1?_GUID_b196b287_bab4_101a_b69c_00aa00341d07@@3U__s_GUID@@BUtagCONNECTDATA@@V?$_Copy@UtagCONNECTDATA@@@ATL@@VCComSingleThreadModel@6@@ATL@@@ATL@@UAGKXZ 10001980 f i CashDrawer.obj
 0001:00000980       ?Release@?$CComObject@V?$CComEnum@UIEnumConnectionPoints@@$1?_GUID_b196b285_bab4_101a_b69c_00aa00341d07@@3U__s_GUID@@BPAUIConnectionPoint@@V?$_CopyInterface@UIConnectionPoint@@@ATL@@VCComSingleThreadModel@6@@ATL@@@ATL@@UAGKXZ 10001980 f i CashDrawer.obj
 0001:000009bc       ?QueryInterface@?$CComObject@V?$CComEnum@UIEnumConnections@@$1?_GUID_b196b287_bab4_101a_b69c_00aa00341d07@@3U__s_GUID@@BUtagCONNECTDATA@@V?$_Copy@UtagCONNECTDATA@@@ATL@@VCComSingleThreadModel@6@@ATL@@@ATL@@UAGJABU_GUID@@PAPAX@Z 100019bc f i CashDrawer.obj
 0001:000009d6       ??_G?$CComObject@V?$CComEnum@UIEnumConnections@@$1?_GUID_b196b287_bab4_101a_b69c_00aa00341d07@@3U__s_GUID@@BUtagCONNECTDATA@@V?$_Copy@UtagCONNECTDATA@@@ATL@@VCComSingleThreadModel@6@@ATL@@@ATL@@UAEPAXI@Z 100019d6 f i CashDrawer.obj
 0001:000009d6       ??_E?$CComObject@V?$CComEnum@UIEnumConnections@@$1?_GUID_b196b287_bab4_101a_b69c_00aa00341d07@@3U__s_GUID@@BUtagCONNECTDATA@@V?$_Copy@UtagCONNECTDATA@@@ATL@@VCComSingleThreadModel@6@@ATL@@@ATL@@UAEPAXI@Z 100019d6 f i CashDrawer.obj
 0001:000009f8       ?OnFinalMessage@?$CWindowImplBaseT@VCWindow@ATL@@V?$CWinTraits@$0FGAAAAAA@$0A@@2@@ATL@@UAEXPAUHWND__@@@Z 100019f8 f i CashDrawer.obj
 0001:000009f8       ?ObjectMain@CComObjectRootBase@ATL@@SGX_N@Z 100019f8 f i CashDrawer.obj
 0001:000009fb       ?GetCategoryMap@CComObjectRootBase@ATL@@SAPBU_ATL_CATMAP_ENTRY@2@XZ 100019fb f i CashDrawer.obj
 0001:000009fb       ?GetObjectDescription@?$CComCoClass@VCOPOSCashDrawer@@$1?CLSID_OPOSCashDrawer@@3U_GUID@@B@ATL@@SGPB_WXZ 100019fb f i CashDrawer.obj
 0001:000009fe       ??_E?$CComObject@VCOPOSCashDrawer@@@ATL@@W3AEPAXI@Z 100019fe f i CashDrawer.obj
 0001:00000a06       ??_E?$CComObject@VCOPOSCashDrawer@@@ATL@@WEM@AEPAXI@Z 10001a06 f i CashDrawer.obj
 0001:00000a0e       ?QueryInterface@?$CComObject@VCOPOSCashDrawer@@@ATL@@WHA@AGJABU_GUID@@PAPAX@Z 10001a0e f i CashDrawer.obj
 0001:00000a18       ?AddRef@?$CComObject@VCOPOSCashDrawer@@@ATL@@WHA@AGKXZ 10001a18 f i CashDrawer.obj
 0001:00000a22       ?Release@?$CComObject@VCOPOSCashDrawer@@@ATL@@WHA@AGKXZ 10001a22 f i CashDrawer.obj
 0001:00000a2c       ?QueryInterface@?$CComObject@VCOPOSCashDrawer@@@ATL@@WHE@AGJABU_GUID@@PAPAX@Z 10001a2c f i CashDrawer.obj
 0001:00000a36       ?CreateInstance@CComClassFactory@ATL@@UAGJPAUIUnknown@@ABU_GUID@@PAPAX@Z 10001a36 f i CashDrawer.obj
 0001:00000a74       ?AddRef@?$CComObject@VCOPOSCashDrawer@@@ATL@@WHE@AGKXZ 10001a74 f i CashDrawer.obj
 0001:00000a7e       ?Release@?$CComObject@VCOPOSCashDrawer@@@ATL@@WHE@AGKXZ 10001a7e f i CashDrawer.obj
 0001:00000a88       ?LockServer@CComClassFactory@ATL@@UAGJH@Z 10001a88 f i CashDrawer.obj
 0001:00000aa7       ?QueryInterface@?$CComObject@VCOPOSCashDrawer@@@ATL@@WHI@AGJABU_GUID@@PAPAX@Z 10001aa7 f i CashDrawer.obj
 0001:00000ab1       ?AddRef@?$CComObject@VCOPOSCashDrawer@@@ATL@@WHI@AGKXZ 10001ab1 f i CashDrawer.obj
 0001:00000abb       ?Release@?$CComObject@VCOPOSCashDrawer@@@ATL@@WHI@AGKXZ 10001abb f i CashDrawer.obj
 0001:00000ac5       ?QueryInterface@?$CComObject@VCOPOSCashDrawer@@@ATL@@WHM@AGJABU_GUID@@PAPAX@Z 10001ac5 f i CashDrawer.obj
 0001:00000acf       ?AddRef@?$CComObject@VCOPOSCashDrawer@@@ATL@@WHM@AGKXZ 10001acf f i CashDrawer.obj
 0001:00000ad9       ?Release@?$CComObject@VCOPOSCashDrawer@@@ATL@@WHM@AGKXZ 10001ad9 f i CashDrawer.obj
 0001:00000ae3       ?QueryInterface@?$CComObject@VCOPOSCashDrawer@@@ATL@@WIA@AGJABU_GUID@@PAPAX@Z 10001ae3 f i CashDrawer.obj
 0001:00000af0       ?AddRef@?$CComObject@VCOPOSCashDrawer@@@ATL@@WIA@AGKXZ 10001af0 f i CashDrawer.obj
 0001:00000afd       ?Release@?$CComObject@VCOPOSCashDrawer@@@ATL@@WIA@AGKXZ 10001afd f i CashDrawer.obj
 0001:00000b0a       ?QueryInterface@?$CComObject@VCOPOSCashDrawer@@@ATL@@WIE@AGJABU_GUID@@PAPAX@Z 10001b0a f i CashDrawer.obj
 0001:00000b17       ?AddRef@?$CComObject@VCOPOSCashDrawer@@@ATL@@WIE@AGKXZ 10001b17 f i CashDrawer.obj
 0001:00000b24       ?Release@?$CComObject@VCOPOSCashDrawer@@@ATL@@WIE@AGKXZ 10001b24 f i CashDrawer.obj
 0001:00000b31       ?QueryInterface@?$CComObject@VCOPOSCashDrawer@@@ATL@@WII@AGJABU_GUID@@PAPAX@Z 10001b31 f i CashDrawer.obj
 0001:00000b3e       ??_GCComClassFactory@ATL@@UAEPAXI@Z 10001b3e f i CashDrawer.obj
 0001:00000b3e       ??_ECComClassFactory@ATL@@UAEPAXI@Z 10001b3e f i CashDrawer.obj
 0001:00000b69       ?AddRef@?$CComObject@VCOPOSCashDrawer@@@ATL@@WII@AGKXZ 10001b69 f i CashDrawer.obj
 0001:00000b76       ?Release@?$CComObject@VCOPOSCashDrawer@@@ATL@@WII@AGKXZ 10001b76 f i CashDrawer.obj
 0001:00000b83       ?QueryInterface@?$CComObject@VCOPOSCashDrawer@@@ATL@@WIM@AGJABU_GUID@@PAPAX@Z 10001b83 f i CashDrawer.obj
 0001:00000b90       ?AddRef@?$CComObject@VCOPOSCashDrawer@@@ATL@@WIM@AGKXZ 10001b90 f i CashDrawer.obj
 0001:00000b9d       ?Release@?$CComObject@VCOPOSCashDrawer@@@ATL@@WIM@AGKXZ 10001b9d f i CashDrawer.obj
 0001:00000baa       ?QueryInterface@?$CComObject@VCOPOSCashDrawer@@@ATL@@WJA@AGJABU_GUID@@PAPAX@Z 10001baa f i CashDrawer.obj
 0001:00000bb7       ?AddRef@?$CComObject@VCOPOSCashDrawer@@@ATL@@WJA@AGKXZ 10001bb7 f i CashDrawer.obj
 0001:00000bc4       ?Release@?$CComObject@VCOPOSCashDrawer@@@ATL@@WJA@AGKXZ 10001bc4 f i CashDrawer.obj
 0001:00000bd1       ?QueryInterface@?$CComObject@VCOPOSCashDrawer@@@ATL@@WJE@AGJABU_GUID@@PAPAX@Z 10001bd1 f i CashDrawer.obj
 0001:00000bde       ?AddRef@?$CComObject@VCOPOSCashDrawer@@@ATL@@WJE@AGKXZ 10001bde f i CashDrawer.obj
 0001:00000beb       ?Release@?$CComObject@VCOPOSCashDrawer@@@ATL@@WJE@AGKXZ 10001beb f i CashDrawer.obj
 0001:00000bf8       ?QueryInterface@?$CComObject@VCOPOSCashDrawer@@@ATL@@WJI@AGJABU_GUID@@PAPAX@Z 10001bf8 f i CashDrawer.obj
 0001:00000c05       ?AddRef@?$CComObject@VCOPOSCashDrawer@@@ATL@@WJI@AGKXZ 10001c05 f i CashDrawer.obj
 0001:00000c12       ?Release@?$CComObject@VCOPOSCashDrawer@@@ATL@@WJI@AGKXZ 10001c12 f i CashDrawer.obj
 0001:00000c1f       ?QueryInterface@?$CComObject@VCOPOSCashDrawer@@@ATL@@WJM@AGJABU_GUID@@PAPAX@Z 10001c1f f i CashDrawer.obj
 0001:00000c2c       ?AddRef@?$CComObject@VCOPOSCashDrawer@@@ATL@@WJM@AGKXZ 10001c2c f i CashDrawer.obj
 0001:00000c39       ?Release@?$CComObject@VCOPOSCashDrawer@@@ATL@@WJM@AGKXZ 10001c39 f i CashDrawer.obj
 0001:00000c46       ?QueryInterface@?$CComObject@VCOPOSCashDrawer@@@ATL@@WKA@AGJABU_GUID@@PAPAX@Z 10001c46 f i CashDrawer.obj
 0001:00000c53       ?AddRef@?$CComObject@VCOPOSCashDrawer@@@ATL@@WKA@AGKXZ 10001c53 f i CashDrawer.obj
 0001:00000c60       ?Release@?$CComObject@VCOPOSCashDrawer@@@ATL@@WKA@AGKXZ 10001c60 f i CashDrawer.obj
 0001:00000c6d       ?AddRef@?$CComObject@VCOPOSCashDrawer@@@ATL@@WKI@AGKXZ 10001c6d f i CashDrawer.obj
 0001:00000c7a       ?Release@?$CComObject@VCOPOSCashDrawer@@@ATL@@WKI@AGKXZ 10001c7a f i CashDrawer.obj
 0001:00000c87       ?AddRef@?$CComObject@VCOPOSCashDrawer@@@ATL@@WLE@AGKXZ 10001c87 f i CashDrawer.obj
 0001:00000c94       ?Release@?$CComObject@VCOPOSCashDrawer@@@ATL@@WLE@AGKXZ 10001c94 f i CashDrawer.obj
 0001:00000ca1       ??_E?$CComContainedObject@VCOPOSCashDrawer@@@ATL@@W3AEPAXI@Z 10001ca1 f i CashDrawer.obj
 0001:00000ca9       ??_E?$CComContainedObject@VCOPOSCashDrawer@@@ATL@@WEM@AEPAXI@Z 10001ca9 f i CashDrawer.obj
 0001:00000cb1       ?QueryInterface@?$CComContainedObject@VCOPOSCashDrawer@@@ATL@@WHA@AGJABU_GUID@@PAPAX@Z 10001cb1 f i CashDrawer.obj
 0001:00000cbb       ?AddRef@?$CComContainedObject@VCOPOSCashDrawer@@@ATL@@WHA@AGKXZ 10001cbb f i CashDrawer.obj
 0001:00000cc5       ?Release@?$CComContainedObject@VCOPOSCashDrawer@@@ATL@@WHA@AGKXZ 10001cc5 f i CashDrawer.obj
 0001:00000ccf       ?QueryInterface@?$CComContainedObject@VCOPOSCashDrawer@@@ATL@@WHE@AGJABU_GUID@@PAPAX@Z 10001ccf f i CashDrawer.obj
 0001:00000cd9       ?AddRef@?$CComContainedObject@VCOPOSCashDrawer@@@ATL@@WHE@AGKXZ 10001cd9 f i CashDrawer.obj
 0001:00000ce3       ?Release@?$CComContainedObject@VCOPOSCashDrawer@@@ATL@@WHE@AGKXZ 10001ce3 f i CashDrawer.obj
 0001:00000ced       ?QueryInterface@?$CComContainedObject@VCOPOSCashDrawer@@@ATL@@WHI@AGJABU_GUID@@PAPAX@Z 10001ced f i CashDrawer.obj
 0001:00000cf7       ?AddRef@?$CComContainedObject@VCOPOSCashDrawer@@@ATL@@WHI@AGKXZ 10001cf7 f i CashDrawer.obj
 0001:00000d01       ?Release@?$CComContainedObject@VCOPOSCashDrawer@@@ATL@@WHI@AGKXZ 10001d01 f i CashDrawer.obj
 0001:00000d0b       ?QueryInterface@?$CComContainedObject@VCOPOSCashDrawer@@@ATL@@WHM@AGJABU_GUID@@PAPAX@Z 10001d0b f i CashDrawer.obj
 0001:00000d15       ?AddRef@?$CComContainedObject@VCOPOSCashDrawer@@@ATL@@WHM@AGKXZ 10001d15 f i CashDrawer.obj
 0001:00000d1f       ?Release@?$CComContainedObject@VCOPOSCashDrawer@@@ATL@@WHM@AGKXZ 10001d1f f i CashDrawer.obj
 0001:00000d29       ?QueryInterface@?$CComContainedObject@VCOPOSCashDrawer@@@ATL@@WIA@AGJABU_GUID@@PAPAX@Z 10001d29 f i CashDrawer.obj
 0001:00000d36       ?AddRef@?$CComContainedObject@VCOPOSCashDrawer@@@ATL@@WIA@AGKXZ 10001d36 f i CashDrawer.obj
 0001:00000d43       ?Release@?$CComContainedObject@VCOPOSCashDrawer@@@ATL@@WIA@AGKXZ 10001d43 f i CashDrawer.obj
 0001:00000d50       ?QueryInterface@?$CComContainedObject@VCOPOSCashDrawer@@@ATL@@WIE@AGJABU_GUID@@PAPAX@Z 10001d50 f i CashDrawer.obj
 0001:00000d5d       ?AddRef@?$CComContainedObject@VCOPOSCashDrawer@@@ATL@@WIE@AGKXZ 10001d5d f i CashDrawer.obj
 0001:00000d6a       ?Release@?$CComContainedObject@VCOPOSCashDrawer@@@ATL@@WIE@AGKXZ 10001d6a f i CashDrawer.obj
 0001:00000d77       ?QueryInterface@?$CComContainedObject@VCOPOSCashDrawer@@@ATL@@WII@AGJABU_GUID@@PAPAX@Z 10001d77 f i CashDrawer.obj
 0001:00000d84       ?AddRef@?$CComContainedObject@VCOPOSCashDrawer@@@ATL@@WII@AGKXZ 10001d84 f i CashDrawer.obj
 0001:00000d91       ?Release@?$CComContainedObject@VCOPOSCashDrawer@@@ATL@@WII@AGKXZ 10001d91 f i CashDrawer.obj
 0001:00000d9e       ?QueryInterface@?$CComContainedObject@VCOPOSCashDrawer@@@ATL@@WIM@AGJABU_GUID@@PAPAX@Z 10001d9e f i CashDrawer.obj
 0001:00000dab       ?AddRef@?$CComContainedObject@VCOPOSCashDrawer@@@ATL@@WIM@AGKXZ 10001dab f i CashDrawer.obj
 0001:00000db8       ?Release@?$CComContainedObject@VCOPOSCashDrawer@@@ATL@@WIM@AGKXZ 10001db8 f i CashDrawer.obj
 0001:00000dc5       ?QueryInterface@?$CComContainedObject@VCOPOSCashDrawer@@@ATL@@WJA@AGJABU_GUID@@PAPAX@Z 10001dc5 f i CashDrawer.obj
 0001:00000dd2       ?AddRef@?$CComContainedObject@VCOPOSCashDrawer@@@ATL@@WJA@AGKXZ 10001dd2 f i CashDrawer.obj
 0001:00000ddf       ?Release@?$CComContainedObject@VCOPOSCashDrawer@@@ATL@@WJA@AGKXZ 10001ddf f i CashDrawer.obj
 0001:00000dec       ?QueryInterface@?$CComContainedObject@VCOPOSCashDrawer@@@ATL@@WJE@AGJABU_GUID@@PAPAX@Z 10001dec f i CashDrawer.obj
 0001:00000df9       ?AddRef@?$CComContainedObject@VCOPOSCashDrawer@@@ATL@@WJE@AGKXZ 10001df9 f i CashDrawer.obj
 0001:00000e06       ?Release@?$CComContainedObject@VCOPOSCashDrawer@@@ATL@@WJE@AGKXZ 10001e06 f i CashDrawer.obj
 0001:00000e13       ?QueryInterface@?$CComContainedObject@VCOPOSCashDrawer@@@ATL@@WJI@AGJABU_GUID@@PAPAX@Z 10001e13 f i CashDrawer.obj
 0001:00000e20       ?AddRef@?$CComContainedObject@VCOPOSCashDrawer@@@ATL@@WJI@AGKXZ 10001e20 f i CashDrawer.obj
 0001:00000e2d       ?Release@?$CComContainedObject@VCOPOSCashDrawer@@@ATL@@WJI@AGKXZ 10001e2d f i CashDrawer.obj
 0001:00000e3a       ?QueryInterface@?$CComContainedObject@VCOPOSCashDrawer@@@ATL@@WJM@AGJABU_GUID@@PAPAX@Z 10001e3a f i CashDrawer.obj
 0001:00000e47       ?AddRef@?$CComContainedObject@VCOPOSCashDrawer@@@ATL@@WJM@AGKXZ 10001e47 f i CashDrawer.obj
 0001:00000e54       ?Release@?$CComContainedObject@VCOPOSCashDrawer@@@ATL@@WJM@AGKXZ 10001e54 f i CashDrawer.obj
 0001:00000e61       ?QueryInterface@?$CComContainedObject@VCOPOSCashDrawer@@@ATL@@WKA@AGJABU_GUID@@PAPAX@Z 10001e61 f i CashDrawer.obj
 0001:00000e6e       ?AddRef@?$CComContainedObject@VCOPOSCashDrawer@@@ATL@@WKA@AGKXZ 10001e6e f i CashDrawer.obj
 0001:00000e7b       ?Release@?$CComContainedObject@VCOPOSCashDrawer@@@ATL@@WKA@AGKXZ 10001e7b f i CashDrawer.obj
 0001:00000e88       ?AddRef@?$CComContainedObject@VCOPOSCashDrawer@@@ATL@@WKI@AGKXZ 10001e88 f i CashDrawer.obj
 0001:00000e95       ?Release@?$CComContainedObject@VCOPOSCashDrawer@@@ATL@@WKI@AGKXZ 10001e95 f i CashDrawer.obj
 0001:00000ea2       ?AddRef@?$CComContainedObject@VCOPOSCashDrawer@@@ATL@@WLE@AGKXZ 10001ea2 f i CashDrawer.obj
 0001:00000eaf       ?Release@?$CComContainedObject@VCOPOSCashDrawer@@@ATL@@WLE@AGKXZ 10001eaf f i CashDrawer.obj
 0001:00000ebc       ?GetWindowProc@?$CWindowImplBaseT@VCWindow@ATL@@V?$CWinTraits@$0FGAAAAAA@$0A@@2@@ATL@@UAEP6GJPAUHWND__@@IIJ@ZXZ 10001ebc f i CashDrawer.obj
 0001:00000ec2       ?StartWindowProc@?$CWindowImplBaseT@VCWindow@ATL@@V?$CWinTraits@$0FGAAAAAA@$0A@@2@@ATL@@SGJPAUHWND__@@IIJ@Z 10001ec2 f i CashDrawer.obj
 0001:00000f16       ?GetTypeInfoCount@?$IDispatchImpl@UIOPOSCashDrawer@@$1?IID_IOPOSCashDrawer@@3U_GUID@@B$1?LIBID_OposCashDrawer_CCO@@3U3@B$00$0A@VCComTypeInfoHolder@ATL@@@ATL@@UAGJPAI@Z 10001f16 f i CashDrawer.obj
 0001:00000f33       ?GetTypeInfo@?$IDispatchImpl@UIOPOSCashDrawer@@$1?IID_IOPOSCashDrawer@@3U_GUID@@B$1?LIBID_OposCashDrawer_CCO@@3U3@B$00$0A@VCComTypeInfoHolder@ATL@@@ATL@@UAGJIKPAPAUITypeInfo@@@Z 10001f33 f i CashDrawer.obj
 0001:00000f57       ?GetIDsOfNames@?$IDispatchImpl@UIOPOSCashDrawer@@$1?IID_IOPOSCashDrawer@@3U_GUID@@B$1?LIBID_OposCashDrawer_CCO@@3U3@B$00$0A@VCComTypeInfoHolder@ATL@@@ATL@@UAGJABU_GUID@@PAPA_WIKPAJ@Z 10001f57 f i CashDrawer.obj
 0001:00000f77       ?Invoke@?$IDispatchImpl@UIOPOSCashDrawer@@$1?IID_IOPOSCashDrawer@@3U_GUID@@B$1?LIBID_OposCashDrawer_CCO@@3U3@B$00$0A@VCComTypeInfoHolder@ATL@@@ATL@@UAGJJABU_GUID@@KGPAUtagDISPPARAMS@@PAUtagVARIANT@@PAUtagEXCEPINFO@@PAI@Z 10001f77 f i CashDrawer.obj
 0001:00000f85       ?CreateControlWindow@?$CComControl@VCOPOSCashDrawer@@V?$CWindowImpl@VCOPOSCashDrawer@@VCWindow@ATL@@V?$CWinTraits@$0FGAAAAAA@$0A@@3@@ATL@@@ATL@@UAEPAUHWND__@@PAU3@AAUtagRECT@@@Z 10001f85 f i CashDrawer.obj
 0001:00000fb4       ?ControlQueryInterface@?$CComControl@VCOPOSCashDrawer@@V?$CWindowImpl@VCOPOSCashDrawer@@VCWindow@ATL@@V?$CWinTraits@$0FGAAAAAA@$0A@@3@@ATL@@@ATL@@UAEJABU_GUID@@PAPAX@Z 10001fb4 f i CashDrawer.obj
 0001:00000fcf       ?GetClassID@?$IPersistStreamInitImpl@VCOPOSCashDrawer@@@ATL@@UAGJPAU_GUID@@@Z 10001fcf f i CashDrawer.obj
 0001:00000fcf       ?GetUserClassID@?$IOleObjectImpl@VCOPOSCashDrawer@@@ATL@@UAGJPAU_GUID@@@Z 10001fcf f i CashDrawer.obj
 0001:00000fcf       ?GetClassID@?$IPersistStorageImpl@VCOPOSCashDrawer@@@ATL@@UAGJPAU_GUID@@@Z 10001fcf f i CashDrawer.obj
 0001:00000ff3       ?IsDirty@?$IPersistStreamInitImpl@VCOPOSCashDrawer@@@ATL@@UAGJXZ 10001ff3 f i CashDrawer.obj
 0001:00001012       ?Load@?$IPersistStreamInitImpl@VCOPOSCashDrawer@@@ATL@@UAGJPAUIStream@@@Z 10002012 f i CashDrawer.obj
 0001:00001031       ?Save@?$IPersistStreamInitImpl@VCOPOSCashDrawer@@@ATL@@UAGJPAUIStream@@H@Z 10002031 f i CashDrawer.obj
 0001:00001053       ?GetSizeMax@?$IPersistStreamInitImpl@VCOPOSCashDrawer@@@ATL@@UAGJPAT_ULARGE_INTEGER@@@Z 10002053 f i CashDrawer.obj
 0001:00001232       ?InitNew@?$IPersistStreamInitImpl@VCOPOSCashDrawer@@@ATL@@UAGJXZ 10002232 f i CashDrawer.obj
 0001:0000124f       ?SODataDummy@COPOSCashDrawer@@MAGJJ@Z 1000224f f i CashDrawer.obj
 0001:0000124f       ?ContextSensitiveHelp@?$IOleInPlaceObjectWindowlessImpl@VCOPOSCashDrawer@@@ATL@@UAGJH@Z 1000224f f i CashDrawer.obj
 0001:0000124f       ?SOOutputCompleteDummy@COPOSCashDrawer@@MAGJJ@Z 1000224f f i CashDrawer.obj
 0001:0000124f       ?GetControlInfo@?$IOleControlImpl@VCOPOSCashDrawer@@@ATL@@UAGJPAUtagCONTROLINFO@@@Z 1000224f f i CashDrawer.obj
 0001:0000124f       ?Unfreeze@?$IViewObjectExImpl@VCOPOSCashDrawer@@@ATL@@UAGJK@Z 1000224f f i CashDrawer.obj
 0001:0000124f       ?SetColorScheme@?$IOleObjectImpl@VCOPOSCashDrawer@@@ATL@@UAGJPAUtagLOGPALETTE@@@Z 1000224f f i CashDrawer.obj
 0001:0000124f       ?QueryGetData@?$IDataObjectImpl@VCOPOSCashDrawer@@@ATL@@UAGJPAUtagFORMATETC@@@Z 1000224f f i CashDrawer.obj
 0001:0000124f       ?GetDropTarget@?$IOleInPlaceObjectWindowlessImpl@VCOPOSCashDrawer@@@ATL@@UAGJPAPAUIDropTarget@@@Z 1000224f f i CashDrawer.obj
 0001:0000124f       ?ContextSensitiveHelp@?$IOleInPlaceActiveObjectImpl@VCOPOSCashDrawer@@@ATL@@UAGJH@Z 1000224f f i CashDrawer.obj
 0001:0000124f       ?OnMnemonic@?$IOleControlImpl@VCOPOSCashDrawer@@@ATL@@UAGJPAUtagMSG@@@Z 1000224f f i CashDrawer.obj
 0001:00001257       ?SaveCompleted@?$IPersistStorageImpl@VCOPOSCashDrawer@@@ATL@@UAGJPAUIStorage@@@Z 10002257 f i CashDrawer.obj
 0001:00001257       ?OnAmbientPropertyChange@?$IOleControlImpl@VCOPOSCashDrawer@@@ATL@@UAGJJ@Z 10002257 f i CashDrawer.obj
 0001:00001257       ?EnableModeless@?$IOleInPlaceActiveObjectImpl@VCOPOSCashDrawer@@@ATL@@UAGJH@Z 10002257 f i CashDrawer.obj
 0001:00001257       ?OnFrameWindowActivate@?$IOleInPlaceActiveObjectImpl@VCOPOSCashDrawer@@@ATL@@UAGJH@Z 10002257 f i CashDrawer.obj
 0001:0000125c       ?SetClientSite@?$IOleObjectImpl@VCOPOSCashDrawer@@@ATL@@UAGJPAUIOleClientSite@@@Z 1000225c f i CashDrawer.obj
 0001:00001279       ?GetClientSite@?$IOleObjectImpl@VCOPOSCashDrawer@@@ATL@@UAGJPAPAUIOleClientSite@@@Z 10002279 f i CashDrawer.obj
 0001:00001296       ?SetHostNames@?$IOleObjectImpl@VCOPOSCashDrawer@@@ATL@@UAGJPB_W0@Z 10002296 f i CashDrawer.obj
 0001:0000129b       ?Close@?$IOleObjectImpl@VCOPOSCashDrawer@@@ATL@@UAGJK@Z 1000229b f i CashDrawer.obj
 0001:000012b8       ?GetCanonicalFormatEtc@?$IDataObjectImpl@VCOPOSCashDrawer@@@ATL@@UAGJPAUtagFORMATETC@@0@Z 100022b8 f i CashDrawer.obj
 0001:000012b8       ?SetMoniker@?$IOleObjectImpl@VCOPOSCashDrawer@@@ATL@@UAGJKPAUIMoniker@@@Z 100022b8 f i CashDrawer.obj
 0001:000012b8       ?GetDataHere@?$IDataObjectImpl@VCOPOSCashDrawer@@@ATL@@UAGJPAUtagFORMATETC@@PAUtagSTGMEDIUM@@@Z 100022b8 f i CashDrawer.obj
 0001:000012b8       ?GetRect@?$IViewObjectExImpl@VCOPOSCashDrawer@@@ATL@@UAGJKPAU_RECTL@@@Z 100022b8 f i CashDrawer.obj
 0001:000012b8       ?EnumFormatEtc@?$IDataObjectImpl@VCOPOSCashDrawer@@@ATL@@UAGJKPAPAUIEnumFORMATETC@@@Z 100022b8 f i CashDrawer.obj
 0001:000012b8       ?GetClipboardData@?$IOleObjectImpl@VCOPOSCashDrawer@@@ATL@@UAGJKPAPAUIDataObject@@@Z 100022b8 f i CashDrawer.obj
 0001:000012b8       ?QueryInterface@CRegObject@ATL@@UAGJABU_GUID@@PAPAX@Z 100022b8 f i CashDrawer.obj
 0001:000012c0       ?InitFromData@?$IOleObjectImpl@VCOPOSCashDrawer@@@ATL@@UAGJPAUIDataObject@@HK@Z 100022c0 f i CashDrawer.obj
 0001:000012c0       ?GetMoniker@?$IOleObjectImpl@VCOPOSCashDrawer@@@ATL@@UAGJKKPAPAUIMoniker@@@Z 100022c0 f i CashDrawer.obj
 0001:000012c0       ?SetData@?$IDataObjectImpl@VCOPOSCashDrawer@@@ATL@@UAGJPAUtagFORMATETC@@PAUtagSTGMEDIUM@@H@Z 100022c0 f i CashDrawer.obj
 0001:000012c8       ?DoVerb@?$IOleObjectImpl@VCOPOSCashDrawer@@@ATL@@UAGJJPAUtagMSG@@PAUIOleClientSite@@JPAUHWND__@@PBUtagRECT@@@Z 100022c8 f i CashDrawer.obj
 0001:000013bc       ?EnumVerbs@?$IOleObjectImpl@VCOPOSCashDrawer@@@ATL@@UAGJPAPAUIEnumOLEVERB@@@Z 100023bc f i CashDrawer.obj
 0001:000013de       ?Update@?$IOleObjectImpl@VCOPOSCashDrawer@@@ATL@@UAGJXZ 100023de f i CashDrawer.obj
 0001:000013de       ?IsUpToDate@?$IOleObjectImpl@VCOPOSCashDrawer@@@ATL@@UAGJXZ 100023de f i CashDrawer.obj
 0001:000013de       ?Release@CRegObject@ATL@@UAGKXZ 100023de f i CashDrawer.obj
 0001:000013de       ?HandsOffStorage@?$IPersistStorageImpl@VCOPOSCashDrawer@@@ATL@@UAGJXZ 100023de f i CashDrawer.obj
 0001:000013e3       ?GetUserType@?$IOleObjectImpl@VCOPOSCashDrawer@@@ATL@@UAGJKPAPA_W@Z 100023e3 f i CashDrawer.obj
 0001:000013fb       ?SetExtent@?$IOleObjectImpl@VCOPOSCashDrawer@@@ATL@@UAGJKPAUtagSIZE@@@Z 100023fb f i CashDrawer.obj
 0001:0000141b       ?GetExtent@?$IOleObjectImpl@VCOPOSCashDrawer@@@ATL@@UAGJKPAUtagSIZE@@@Z 1000241b f i CashDrawer.obj
 0001:00001459       ?Advise@?$IOleObjectImpl@VCOPOSCashDrawer@@@ATL@@UAGJPAUIAdviseSink@@PAK@Z 10002459 f i CashDrawer.obj
 0001:00001479       ?Unadvise@?$IOleObjectImpl@VCOPOSCashDrawer@@@ATL@@UAGJK@Z 10002479 f i CashDrawer.obj
 0001:000014a8       ?EnumAdvise@?$IOleObjectImpl@VCOPOSCashDrawer@@@ATL@@UAGJPAPAUIEnumSTATDATA@@@Z 100024a8 f i CashDrawer.obj
 0001:000014e8       ?GetMiscStatus@?$IOleObjectImpl@VCOPOSCashDrawer@@@ATL@@UAGJKPAK@Z 100024e8 f i CashDrawer.obj
 0001:00001500       ?GetWindow@?$IOleInPlaceActiveObjectImpl@VCOPOSCashDrawer@@@ATL@@UAGJPAPAUHWND__@@@Z 10002500 f i CashDrawer.obj
 0001:0000154d       ?TranslateAcceleratorW@?$IOleInPlaceActiveObjectImpl@VCOPOSCashDrawer@@@ATL@@UAGJPAUtagMSG@@@Z 1000254d f i CashDrawer.obj
 0001:000015fb       ?OnDocWindowActivate@?$IOleInPlaceActiveObjectImpl@VCOPOSCashDrawer@@@ATL@@UAGJH@Z 100025fb f i CashDrawer.obj
 0001:0000161d       ?ResizeBorder@?$IOleInPlaceActiveObjectImpl@VCOPOSCashDrawer@@@ATL@@UAGJPBUtagRECT@@PAUIOleInPlaceUIWindow@@H@Z 1000261d f i CashDrawer.obj
 0001:00001622       ?Draw@?$IViewObjectExImpl@VCOPOSCashDrawer@@@ATL@@UAGJKJPAXPAUtagDVTARGETDEVICE@@PAUHDC__@@2PBU_RECTL@@3P6GHK@ZK@Z 10002622 f i CashDrawer.obj
 0001:00001654       ?GetColorSet@?$IViewObjectExImpl@VCOPOSCashDrawer@@@ATL@@UAGJKJPAXPAUtagDVTARGETDEVICE@@PAUHDC__@@PAPAUtagLOGPALETTE@@@Z 10002654 f i CashDrawer.obj
 0001:0000165c       ?Freeze@?$IViewObjectExImpl@VCOPOSCashDrawer@@@ATL@@UAGJKJPAXPAK@Z 1000265c f i CashDrawer.obj
 0001:0000165c       ?SOErrorDummy@COPOSCashDrawer@@MAGJJJJPAJ@Z 1000265c f i CashDrawer.obj
 0001:00001664       ?SetAdvise@?$IViewObjectExImpl@VCOPOSCashDrawer@@@ATL@@UAGJKKPAUIAdviseSink@@@Z 10002664 f i CashDrawer.obj
 0001:00001683       ?GetAdvise@?$IViewObjectExImpl@VCOPOSCashDrawer@@@ATL@@UAGJPAK0PAPAUIAdviseSink@@@Z 10002683 f i CashDrawer.obj
 0001:000016b8       ?GetExtent@?$IViewObjectExImpl@VCOPOSCashDrawer@@@ATL@@UAGJKJPAUtagDVTARGETDEVICE@@PAUtagSIZE@@@Z 100026b8 f i CashDrawer.obj
 0001:000016e9       ?GetViewStatus@?$IViewObjectExImpl@VCOPOSCashDrawer@@@ATL@@UAGJPAK@Z 100026e9 f i CashDrawer.obj
 0001:00001706       ?QueryHitPoint@?$IViewObjectExImpl@VCOPOSCashDrawer@@@ATL@@UAGJKPBUtagRECT@@UtagPOINT@@JPAK@Z 10002706 f i CashDrawer.obj
 0001:00001747       ?QueryHitRect@?$IViewObjectExImpl@VCOPOSCashDrawer@@@ATL@@UAGJKPBUtagRECT@@0JPAK@Z 10002747 f i CashDrawer.obj
 0001:000017a2       ?GetNaturalExtent@?$IViewObjectExImpl@VCOPOSCashDrawer@@@ATL@@UAGJKJPAUtagDVTARGETDEVICE@@PAUHDC__@@PAUtagExtentInfo@@PAUtagSIZE@@@Z 100027a2 f i CashDrawer.obj
 0001:000017ed       ?GetWindow@?$IOleInPlaceObjectWindowlessImpl@VCOPOSCashDrawer@@@ATL@@UAGJPAPAUHWND__@@@Z 100027ed f i CashDrawer.obj
 0001:0000183a       ?InPlaceDeactivate@?$IOleInPlaceObjectWindowlessImpl@VCOPOSCashDrawer@@@ATL@@UAGJXZ 1000283a f i CashDrawer.obj
 0001:00001854       ?UIDeactivate@?$IOleInPlaceObjectWindowlessImpl@VCOPOSCashDrawer@@@ATL@@UAGJXZ 10002854 f i CashDrawer.obj
 0001:0000186e       ?SetObjectRects@?$IOleInPlaceObjectWindowlessImpl@VCOPOSCashDrawer@@@ATL@@UAGJPBUtagRECT@@0@Z 1000286e f i CashDrawer.obj
 0001:0000188e       ?ReactivateAndUndo@?$IOleInPlaceObjectWindowlessImpl@VCOPOSCashDrawer@@@ATL@@UAGJXZ 1000288e f i CashDrawer.obj
 0001:00001896       ?OnWindowMessage@?$IOleInPlaceObjectWindowlessImpl@VCOPOSCashDrawer@@@ATL@@UAGJIIJPAJ@Z 10002896 f i CashDrawer.obj
 0001:00001906       ?EnumConnectionPoints@?$IConnectionPointContainerImpl@VCOPOSCashDrawer@@@ATL@@UAGJPAPAUIEnumConnectionPoints@@@Z 10002906 f i CashDrawer.obj
 0001:00001a96       ?FindConnectionPoint@?$IConnectionPointContainerImpl@VCOPOSCashDrawer@@@ATL@@UAGJABU_GUID@@PAPAUIConnectionPoint@@@Z 10002a96 f i CashDrawer.obj
 0001:00001b39       ?IsDirty@?$IPersistStorageImpl@VCOPOSCashDrawer@@@ATL@@UAGJXZ 10002b39 f i CashDrawer.obj
 0001:00001b69       ?InitNew@?$IPersistStorageImpl@VCOPOSCashDrawer@@@ATL@@UAGJPAUIStorage@@@Z 10002b69 f i CashDrawer.obj
 0001:00001b99       ?Load@?$IPersistStorageImpl@VCOPOSCashDrawer@@@ATL@@UAGJPAUIStorage@@@Z 10002b99 f i CashDrawer.obj
 0001:00001c05       ?Save@?$IPersistStorageImpl@VCOPOSCashDrawer@@@ATL@@UAGJPAUIStorage@@H@Z 10002c05 f i CashDrawer.obj
 0001:00001c78       ?GetPages@?$ISpecifyPropertyPagesImpl@VCOPOSCashDrawer@@@ATL@@UAGJPAUtagCAUUID@@@Z 10002c78 f i CashDrawer.obj
 0001:00001c8f       ?QuickActivate@?$IQuickActivateImpl@VCOPOSCashDrawer@@@ATL@@UAGJPAUtagQACONTAINER@@PAUtagQACONTROL@@@Z 10002c8f f i CashDrawer.obj
 0001:00001cb2       ?SetContentExtent@?$IQuickActivateImpl@VCOPOSCashDrawer@@@ATL@@UAGJPAUtagSIZE@@@Z 10002cb2 f i CashDrawer.obj
 0001:00001cde       ?GetContentExtent@?$IQuickActivateImpl@VCOPOSCashDrawer@@@ATL@@UAGJPAUtagSIZE@@@Z 10002cde f i CashDrawer.obj
 0001:00001d1a       ?GetData@?$IDataObjectImpl@VCOPOSCashDrawer@@@ATL@@UAGJPAUtagFORMATETC@@PAUtagSTGMEDIUM@@@Z 10002d1a f i CashDrawer.obj
 0001:00001d3d       ?DAdvise@?$IDataObjectImpl@VCOPOSCashDrawer@@@ATL@@UAGJPAUtagFORMATETC@@KPAUIAdviseSink@@PAK@Z 10002d3d f i CashDrawer.obj
 0001:00001d7e       ?DUnadvise@?$IDataObjectImpl@VCOPOSCashDrawer@@@ATL@@UAGJK@Z 10002d7e f i CashDrawer.obj
 0001:00001dac       ?EnumDAdvise@?$IDataObjectImpl@VCOPOSCashDrawer@@@ATL@@UAGJPAPAUIEnumSTATDATA@@@Z 10002dac f i CashDrawer.obj
 0001:00001deb       ?GetClassInfoW@?$IProvideClassInfo2Impl@$1?CLSID_OPOSCashDrawer@@3U_GUID@@B$1?DIID__IOPOSCashDrawerEvents@@3U2@B$1?LIBID_OposCashDrawer_CCO@@3U2@B$00$0A@VCComTypeInfoHolder@ATL@@@ATL@@UAGJPAPAUITypeInfo@@@Z 10002deb f i CashDrawer.obj
 0001:00001e01       ?GetGUID@?$IProvideClassInfo2Impl@$1?CLSID_OPOSCashDrawer@@3U_GUID@@B$1?DIID__IOPOSCashDrawerEvents@@3U2@B$1?LIBID_OposCashDrawer_CCO@@3U2@B$00$0A@VCComTypeInfoHolder@ATL@@@ATL@@UAGJKPAU_GUID@@@Z 10002e01 f i CashDrawer.obj
 0001:00001e3f       ?FAccessAllowed@?$IObjectSafetyImpl@VCOPOSCashDrawer@@$02@ATL@@MAEHXZ 10002e3f f i CashDrawer.obj
 0001:00001e3f       __get_startup_argv_mode    10002e3f f i LIBCMT:argv_mode.obj
 0001:00001e43       ?GetInterfaceSafetyOptions@?$IObjectSafetyImpl@VCOPOSCashDrawer@@$02@ATL@@UAGJABU_GUID@@PAK1@Z 10002e43 f i CashDrawer.obj
 0001:00001eb6       ?SetInterfaceSafetyOptions@?$IObjectSafetyImpl@VCOPOSCashDrawer@@$02@ATL@@UAGJABU_GUID@@KK@Z 10002eb6 f i CashDrawer.obj
 0001:00001f30       ?_LocCPQueryInterface@?$IConnectionPointImpl@VCOPOSCashDrawer@@$1?DIID__IOPOSCashDrawerEvents@@3U_GUID@@BVCComDynamicUnkArray@ATL@@@ATL@@UAGJABU_GUID@@PAPAX@Z 10002f30 f i CashDrawer.obj
 0001:00001f30       ?_LocCPQueryInterface@?$IConnectionPointImpl@VCOPOSCashDrawer@@$1?IID_IPropertyNotifySink@@3U_GUID@@BVCComDynamicUnkArray@ATL@@@ATL@@UAGJABU_GUID@@PAPAX@Z 10002f30 f i CashDrawer.obj
 0001:00001f7d       ?GetConnectionInterface@?$IConnectionPointImpl@VCOPOSCashDrawer@@$1?IID_IPropertyNotifySink@@3U_GUID@@BVCComDynamicUnkArray@ATL@@@ATL@@UAGJPAU_GUID@@@Z 10002f7d f i CashDrawer.obj
 0001:00001fa1       ?GetConnectionPointContainer@?$IConnectionPointImpl@VCOPOSCashDrawer@@$1?IID_IPropertyNotifySink@@3U_GUID@@BVCComDynamicUnkArray@ATL@@@ATL@@UAGJPAPAUIConnectionPointContainer@@@Z 10002fa1 f i CashDrawer.obj
 0001:00001fc4       ?Advise@?$IConnectionPointImpl@VCOPOSCashDrawer@@$1?IID_IPropertyNotifySink@@3U_GUID@@BVCComDynamicUnkArray@ATL@@@ATL@@UAGJPAUIUnknown@@PAK@Z 10002fc4 f i CashDrawer.obj
 0001:00001fc4       ?Advise@?$IConnectionPointImpl@VCOPOSCashDrawer@@$1?DIID__IOPOSCashDrawerEvents@@3U_GUID@@BVCComDynamicUnkArray@ATL@@@ATL@@UAGJPAUIUnknown@@PAK@Z 10002fc4 f i CashDrawer.obj
 0001:00002064       ?Unadvise@?$IConnectionPointImpl@VCOPOSCashDrawer@@$1?DIID__IOPOSCashDrawerEvents@@3U_GUID@@BVCComDynamicUnkArray@ATL@@@ATL@@UAGJK@Z 10003064 f i CashDrawer.obj
 0001:00002064       ?Unadvise@?$IConnectionPointImpl@VCOPOSCashDrawer@@$1?IID_IPropertyNotifySink@@3U_GUID@@BVCComDynamicUnkArray@ATL@@@ATL@@UAGJK@Z 10003064 f i CashDrawer.obj
 0001:000020a4       ?EnumConnections@?$IConnectionPointImpl@VCOPOSCashDrawer@@$1?DIID__IOPOSCashDrawerEvents@@3U_GUID@@BVCComDynamicUnkArray@ATL@@@ATL@@UAGJPAPAUIEnumConnections@@@Z 100030a4 f i CashDrawer.obj
 0001:000020a4       ?EnumConnections@?$IConnectionPointImpl@VCOPOSCashDrawer@@$1?IID_IPropertyNotifySink@@3U_GUID@@BVCComDynamicUnkArray@ATL@@@ATL@@UAGJPAPAUIEnumConnections@@@Z 100030a4 f i CashDrawer.obj
 0001:000021a7       ?Lock@CAtlModule@ATL@@UAEJXZ 100031a7 f i CashDrawer.obj
 0001:000021b1       ?Unlock@CAtlModule@ATL@@UAEJXZ 100031b1 f i CashDrawer.obj
 0001:000021bb       ?GetLockCount@CAtlModule@ATL@@UAEJXZ 100031bb f i CashDrawer.obj
 0001:000021bf       ?GetGITPtr@CAtlModule@ATL@@UAEJPAPAUIGlobalInterfaceTable@@@Z 100031bf f i CashDrawer.obj
 0001:0000220b       ?GetConnectionInterface@?$IConnectionPointImpl@VCOPOSCashDrawer@@$1?DIID__IOPOSCashDrawerEvents@@3U_GUID@@BVCComDynamicUnkArray@ATL@@@ATL@@UAGJPAU_GUID@@@Z 1000320b f i CashDrawer.obj
 0001:0000222f       ?GetConnectionPointContainer@?$IConnectionPointImpl@VCOPOSCashDrawer@@$1?DIID__IOPOSCashDrawerEvents@@3U_GUID@@BVCComDynamicUnkArray@ATL@@@ATL@@UAGJPAPAUIConnectionPointContainer@@@Z 1000322f f i CashDrawer.obj
 0001:00002252       ?UpdateRegistry@COPOSCashDrawer@@SGJH@Z 10003252 f i CashDrawer.obj
 0001:0000226a       ?ProcessWindowMessage@COPOSCashDrawer@@UAEHPAUHWND__@@IIJAAJK@Z 1000326a f i CashDrawer.obj
 0001:000022b7       ?SODirectIO@COPOSCashDrawer@@MAGJJPAJPAPA_W@Z 100032b7 f i CashDrawer.obj
 0001:00002300       ?AddCommonRGSReplacements@?$CAtlModuleT@VCComModule@ATL@@@ATL@@UAEJPAUIRegistrarBase@@@Z 10003300 f i CashDrawer.obj
 0001:0000231a       ?SOStatusUpdate@COPOSCashDrawer@@MAGJJ@Z 1000331a f i CashDrawer.obj
 0001:00002353       ?UpdateRegistryFromResourceD@CComModule@ATL@@UAGJPB_WHPAU_ATL_REGMAP_ENTRY@2@@Z 10003353 f i CashDrawer.obj
 0001:00002353       ?UpdateRegistryFromResourceD@CComModule@ATL@@UAGJIHPAU_ATL_REGMAP_ENTRY@2@@Z 10003353 f i CashDrawer.obj
 0001:0000235b       ?UpdateRegistryFromResource@CComModule@ATL@@UAGJPB_WHPAU_ATL_REGMAP_ENTRY@2@@Z 1000335b f i CashDrawer.obj
 0001:00002364       ?UpdateRegistryFromResource@CComModule@ATL@@UAGJIHPAU_ATL_REGMAP_ENTRY@2@@Z 10003364 f i CashDrawer.obj
 0001:0000236d       ??_ECComModule@ATL@@UAEPAXI@Z 1000336d f i CashDrawer.obj
 0001:0000236d       ??_GCComModule@ATL@@UAEPAXI@Z 1000336d f i CashDrawer.obj
 0001:00002395       ?CreateInstance@?$CComCreator@V?$CComObjectCached@VCComClassFactory@ATL@@@ATL@@@ATL@@SGJPAXABU_GUID@@PAPAX@Z 10003395 f i CashDrawer.obj
 0001:00002436       ?CreateInstance@?$CComCreator2@V?$CComCreator@V?$CComObject@VCOPOSCashDrawer@@@ATL@@@ATL@@V?$CComCreator@V?$CComAggObject@VCOPOSCashDrawer@@@ATL@@@2@@ATL@@SGJPAXABU_GUID@@PAPAX@Z 10003436 f i CashDrawer.obj
 0001:00002456       ?AddRef@?$CComObjectCached@VCComClassFactory@ATL@@@ATL@@UAGKXZ 10003456 f i CashDrawer.obj
 0001:0000247d       ?Release@?$CComObjectCached@VCComClassFactory@ATL@@@ATL@@UAGKXZ 1000347d f i CashDrawer.obj
 0001:000024b3       ?QueryInterface@?$CComObjectCached@VCComClassFactory@ATL@@@ATL@@UAGJABU_GUID@@PAPAX@Z 100034b3 f i CashDrawer.obj
 0001:000024cd       ??_G?$CComObjectCached@VCComClassFactory@ATL@@@ATL@@UAEPAXI@Z 100034cd f i CashDrawer.obj
 0001:000024cd       ??_E?$CComObjectCached@VCComClassFactory@ATL@@@ATL@@UAEPAXI@Z 100034cd f i CashDrawer.obj
 0001:000024ef       ?Next@?$CComEnumImpl@UIEnumConnectionPoints@@$1?_GUID_b196b285_bab4_101a_b69c_00aa00341d07@@3U__s_GUID@@BPAUIConnectionPoint@@V?$_CopyInterface@UIConnectionPoint@@@ATL@@@ATL@@UAGJKPAPAUIConnectionPoint@@PAK@Z 100034ef f i CashDrawer.obj
 0001:000025be       ?Skip@?$CComEnumImpl@UIEnumConnectionPoints@@$1?_GUID_b196b285_bab4_101a_b69c_00aa00341d07@@3U__s_GUID@@BPAUIConnectionPoint@@V?$_CopyInterface@UIConnectionPoint@@@ATL@@@ATL@@UAGJK@Z 100035be f i CashDrawer.obj
 0001:000025eb       ?Clone@?$CComEnumImpl@UIEnumConnectionPoints@@$1?_GUID_b196b285_bab4_101a_b69c_00aa00341d07@@3U__s_GUID@@BPAUIConnectionPoint@@V?$_CopyInterface@UIConnectionPoint@@@ATL@@@ATL@@UAGJPAPAUIEnumConnectionPoints@@@Z 100035eb f i CashDrawer.obj
 0001:000026cc       ?QueryInterface@?$CComObject@V?$CComEnum@UIEnumConnectionPoints@@$1?_GUID_b196b285_bab4_101a_b69c_00aa00341d07@@3U__s_GUID@@BPAUIConnectionPoint@@V?$_CopyInterface@UIConnectionPoint@@@ATL@@VCComSingleThreadModel@6@@ATL@@@ATL@@UAGJABU_GUID@@PAPAX@Z 100036cc f i CashDrawer.obj
 0001:000026e6       ??_E?$CComObject@V?$CComEnum@UIEnumConnectionPoints@@$1?_GUID_b196b285_bab4_101a_b69c_00aa00341d07@@3U__s_GUID@@BPAUIConnectionPoint@@V?$_CopyInterface@UIConnectionPoint@@@ATL@@VCComSingleThreadModel@6@@ATL@@@ATL@@UAEPAXI@Z 100036e6 f i CashDrawer.obj
 0001:000026e6       ??_G?$CComObject@V?$CComEnum@UIEnumConnectionPoints@@$1?_GUID_b196b285_bab4_101a_b69c_00aa00341d07@@3U__s_GUID@@BPAUIConnectionPoint@@V?$_CopyInterface@UIConnectionPoint@@@ATL@@VCComSingleThreadModel@6@@ATL@@@ATL@@UAEPAXI@Z 100036e6 f i CashDrawer.obj
 0001:00002708       ?AddRef@CRegObject@ATL@@UAGKXZ 10003708 f i CashDrawer.obj
 0001:0000270e       ?AddReplacement@CRegObject@ATL@@UAGJPB_W0@Z 1000370e f i CashDrawer.obj
 0001:00002747       ?ClearReplacements@CRegObject@ATL@@UAGJXZ 10003747 f i CashDrawer.obj
 0001:00002759       ??_ECRegObject@ATL@@UAEPAXI@Z 10003759 f i CashDrawer.obj
 0001:00002759       ??_GCRegObject@ATL@@UAEPAXI@Z 10003759 f i CashDrawer.obj
 0001:0000277b       ?AddRef@?$CComAggObject@VCOPOSCashDrawer@@@ATL@@UAGKXZ 1000377b f i CashDrawer.obj
 0001:0000278c       ?Release@?$CComAggObject@VCOPOSCashDrawer@@@ATL@@UAGKXZ 1000378c f i CashDrawer.obj
 0001:000027c8       ?QueryInterface@?$CComAggObject@VCOPOSCashDrawer@@@ATL@@UAGJABU_GUID@@PAPAX@Z 100037c8 f i CashDrawer.obj
 0001:00002817       ?AddRef@?$CComContainedObject@VCOPOSCashDrawer@@@ATL@@UAGKXZ 10003817 f i CashDrawer.obj
 0001:0000282d       ?Release@?$CComContainedObject@VCOPOSCashDrawer@@@ATL@@UAGKXZ 1000382d f i CashDrawer.obj
 0001:00002843       ?QueryInterface@?$CComContainedObject@VCOPOSCashDrawer@@@ATL@@UAGJABU_GUID@@PAPAX@Z 10003843 f i CashDrawer.obj
 0001:0000285e       ??_G?$CComAggObject@VCOPOSCashDrawer@@@ATL@@UAEPAXI@Z 1000385e f i CashDrawer.obj
 0001:0000285e       ??_E?$CComAggObject@VCOPOSCashDrawer@@@ATL@@UAEPAXI@Z 1000385e f i CashDrawer.obj
 0001:00002883       ?AddRef@?$CComObject@VCOPOSCashDrawer@@@ATL@@UAGKXZ 10003883 f i CashDrawer.obj
 0001:0000289a       ?Release@?$CComObject@VCOPOSCashDrawer@@@ATL@@UAGKXZ 1000389a f i CashDrawer.obj
 0001:000028dc       ?QueryInterface@?$CComObject@VCOPOSCashDrawer@@@ATL@@UAGJABU_GUID@@PAPAX@Z 100038dc f i CashDrawer.obj
 0001:000028f6       ??$?4UITypeInfo2@@@?$CComPtr@UITypeInfo@@@ATL@@QAEPAUITypeInfo@@ABV?$CComPtr@UITypeInfo2@@@1@@Z 100038f6 f i CashDrawer.obj
 0001:00002923       ??$AtlAdd@K@ATL@@YAJPAKKK@Z 10003923 f i CashDrawer.obj
 0001:00002946       ??$AtlAdd@_K@ATL@@YAJPA_K_K1@Z 10003946 f i CashDrawer.obj
 0001:0000297e       ??$AtlAddThrow@K@ATL@@YAKKK@Z 1000397e f i CashDrawer.obj
 0001:000029a4       ??$AtlModuleRegisterWndClassInfoT@VAtlModuleRegisterWndClassInfoParamW@ATL@@@ATL@@YAGPAU_ATL_BASE_MODULE70@0@PAU_ATL_WIN_MODULE70@0@PAU_ATL_WNDCLASSINFOW@0@PAP6GJPAUHWND__@@IIJ@ZVAtlModuleRegisterWndClassInfoParamW@0@@Z 100039a4 f i CashDrawer.obj
 0001:00002af1       ??$AtlMultiply@H@ATL@@YAJPAHHH@Z 10003af1 f i CashDrawer.obj
 0001:00002b29       ??$AtlMultiply@I@ATL@@YAJPAIII@Z 10003b29 f i CashDrawer.obj
 0001:00002b29       ??$AtlMultiply@K@ATL@@YAJPAKKK@Z 10003b29 f i CashDrawer.obj
 0001:00002b4b       ??$AtlMultiplyThrow@I@ATL@@YAIII@Z 10003b4b f i CashDrawer.obj
 0001:00002b71       ??0?$CComAggObject@VCOPOSCashDrawer@@@ATL@@QAE@PAX@Z 10003b71 f i CashDrawer.obj
 0001:00002b9e       ??0?$CComContainedObject@VCOPOSCashDrawer@@@ATL@@QAE@PAX@Z 10003b9e f i CashDrawer.obj
 0001:00002c57       ??0?$CComObject@V?$CComEnum@UIEnumConnectionPoints@@$1?_GUID_b196b285_bab4_101a_b69c_00aa00341d07@@3U__s_GUID@@BPAUIConnectionPoint@@V?$_CopyInterface@UIConnectionPoint@@@ATL@@VCComSingleThreadModel@6@@ATL@@@ATL@@QAE@PAX@Z 10003c57 f i CashDrawer.obj
 0001:00002c85       ??0?$CComObject@V?$CComEnum@UIEnumConnections@@$1?_GUID_b196b287_bab4_101a_b69c_00aa00341d07@@3U__s_GUID@@BUtagCONNECTDATA@@V?$_Copy@UtagCONNECTDATA@@@ATL@@VCComSingleThreadModel@6@@ATL@@@ATL@@QAE@PAX@Z 10003c85 f i CashDrawer.obj
 0001:00002cb3       ??0?$CComObject@VCOPOSCashDrawer@@@ATL@@QAE@PAX@Z 10003cb3 f i CashDrawer.obj
 0001:00002d6a       ??0?$CComQIPtr@UIOleControlSite@@$1?_GUID_b196b289_bab4_101a_b69c_00aa00341d07@@3U__s_GUID@@B@ATL@@QAE@PAUIUnknown@@@Z 10003d6a f i CashDrawer.obj
 0001:00002d93       ??0CAtlModule@ATL@@QAE@XZ  10003d93 f i CashDrawer.obj
 0001:00002dd4       ??0CParseBuffer@CRegParser@ATL@@QAE@H@Z 10003dd4 f i CashDrawer.obj
 0001:00002e0a       ??0_ATL_MSG@ATL@@QAE@PAUHWND__@@IIJH@Z 10003e0a f i CashDrawer.obj
 0001:00002e42       ??1?$CComAggObject@VCOPOSCashDrawer@@@ATL@@UAE@XZ 10003e42 f i CashDrawer.obj
 0001:00002e66       ??1?$CComEnumImpl@UIEnumConnectionPoints@@$1?_GUID_b196b285_bab4_101a_b69c_00aa00341d07@@3U__s_GUID@@BPAUIConnectionPoint@@V?$_CopyInterface@UIConnectionPoint@@@ATL@@@ATL@@UAE@XZ 10003e66 f i CashDrawer.obj
 0001:00002ea2       ??1?$CComEnumImpl@UIEnumConnections@@$1?_GUID_b196b287_bab4_101a_b69c_00aa00341d07@@3U__s_GUID@@BUtagCONNECTDATA@@V?$_Copy@UtagCONNECTDATA@@@ATL@@@ATL@@UAE@XZ 10003ea2 f i CashDrawer.obj
 0001:00002ede       ??1?$CComObject@V?$CComEnum@UIEnumConnectionPoints@@$1?_GUID_b196b285_bab4_101a_b69c_00aa00341d07@@3U__s_GUID@@BPAUIConnectionPoint@@V?$_CopyInterface@UIConnectionPoint@@@ATL@@VCComSingleThreadModel@6@@ATL@@@ATL@@UAE@XZ 10003ede f i CashDrawer.obj
 0001:00002f01       ??1?$CComObject@V?$CComEnum@UIEnumConnections@@$1?_GUID_b196b287_bab4_101a_b69c_00aa00341d07@@3U__s_GUID@@BUtagCONNECTDATA@@V?$_Copy@UtagCONNECTDATA@@@ATL@@VCComSingleThreadModel@6@@ATL@@@ATL@@UAE@XZ 10003f01 f i CashDrawer.obj
 0001:00002f24       ??1?$CComObject@VCOPOSCashDrawer@@@ATL@@UAE@XZ 10003f24 f i CashDrawer.obj
 0001:00002fe2       ??1?$CComObjectCached@VCComClassFactory@ATL@@@ATL@@UAE@XZ 10003fe2 f i CashDrawer.obj
 0001:00002ff8       ??1?$CComObjectRootEx@VCComMultiThreadModel@ATL@@@ATL@@QAE@XZ 10003ff8 f i CashDrawer.obj
 0001:0000300d       ??1CRegObject@ATL@@UAE@XZ  1000400d f i CashDrawer.obj
 0001:0000302d       ??4?$CComPtr@UIUnknown@@@ATL@@QAEPAUIUnknown@@PAU2@@Z 1000402d f i CashDrawer.obj
 0001:0000302d       ??4?$CComPtr@UIOleClientSite@@@ATL@@QAEPAUIOleClientSite@@PAU2@@Z 1000402d f i CashDrawer.obj
 0001:0000302d       ??4?$CComPtr@UIAdviseSink@@@ATL@@QAEPAUIAdviseSink@@PAU2@@Z 1000402d f i CashDrawer.obj
 0001:0000305b       ??_G?$CComContainedObject@VCOPOSCashDrawer@@@ATL@@UAEPAXI@Z 1000405b f i CashDrawer.obj
 0001:0000305b       ??_E?$CComContainedObject@VCOPOSCashDrawer@@@ATL@@UAEPAXI@Z 1000405b f i CashDrawer.obj
 0001:00003080       ??_E?$CComObject@VCOPOSCashDrawer@@@ATL@@UAEPAXI@Z 10004080 f i CashDrawer.obj
 0001:00003080       ??_G?$CComObject@VCOPOSCashDrawer@@@ATL@@UAEPAXI@Z 10004080 f i CashDrawer.obj
 0001:000030a5       ?Add@?$CSimpleArray@GV?$CSimpleArrayEqualHelper@G@ATL@@@ATL@@QAEHABG@Z 100040a5 f i CashDrawer.obj
 0001:0000311f       ?Add@?$CSimpleMap@PA_WPA_WVCExpansionVectorEqualHelper@ATL@@@ATL@@QAEHABQA_W0@Z 1000411f f i CashDrawer.obj
 0001:00003174       ?Add@CComDynamicUnkArray@ATL@@QAEKPAUIUnknown@@@Z 10004174 f i CashDrawer.obj
 0001:00003225       ?Add@CExpansionVector@ATL@@QAEHPB_W0@Z 10004225 f i CashDrawer.obj
 0001:0000332e       ?AddString@CParseBuffer@CRegParser@ATL@@QAEHPB_W@Z 1000432e f i CashDrawer.obj
 0001:00003363       ?AddTermFunc@CAtlModule@ATL@@QAEJP6GXK@ZK@Z 10004363 f i CashDrawer.obj
 0001:000033cf       ?AddValue@CRegParser@ATL@@IAEJAAVCRegKey@2@PB_WPA_W@Z 100043cf f i CashDrawer.obj
 0001:000036e9       ?Allocate@?$CAtlSafeAllocBufferManager@VCCRTAllocator@ATL@@@_ATL_SAFE_ALLOCA_IMPL@ATL@@QAEPAXK@Z 100046e9 f i CashDrawer.obj
 0001:00003716       ?Allocate@?$CTempBuffer@E$0BAA@VCCRTAllocator@ATL@@@ATL@@QAEPAEI@Z 10004716 f i CashDrawer.obj
 0001:00003745       ?Allocate@?$CTempBuffer@_W$0BAA@VCCRTAllocator@ATL@@@ATL@@QAEPA_WI@Z 10004745 f i CashDrawer.obj
 0001:00003774       ?Allocate@?$CTempBuffer@_W$0EAA@VCCRTAllocator@ATL@@@ATL@@QAEPA_WI@Z 10004774 f i CashDrawer.obj
 0001:000037a3       ?AllocateHeap@?$CTempBuffer@_W$0BAA@VCCRTAllocator@ATL@@@ATL@@AAEXI@Z 100047a3 f i CashDrawer.obj
 0001:000037a3       ?AllocateHeap@?$CTempBuffer@E$0BAA@VCCRTAllocator@ATL@@@ATL@@AAEXI@Z 100047a3 f i CashDrawer.obj
 0001:000037a3       ?AllocateHeap@?$CTempBuffer@_W$0EAA@VCCRTAllocator@ATL@@@ATL@@AAEXI@Z 100047a3 f i CashDrawer.obj
 0001:000037c8       ?Append@CParseBuffer@CRegParser@ATL@@QAEHPB_WH@Z 100047c8 f i CashDrawer.obj
 0001:00003854       ?AtlCoTaskMemCAlloc@ATL@@YAPAXKK@Z 10004854 f i CashDrawer.obj
 0001:00003881       ?AtlCoTaskMemRecalloc@ATL@@YAPAXPAXKK@Z 10004881 f i CashDrawer.obj
 0001:000038b1       ?AtlComModuleGetClassObject@ATL@@YGJPAU_ATL_COM_MODULE70@1@ABU_GUID@@1PAPAX@Z 100048b1 f i CashDrawer.obj
 0001:000039a6       ?AtlComModuleRegisterServer@ATL@@YGJPAU_ATL_COM_MODULE70@1@HPBU_GUID@@@Z 100049a6 f i CashDrawer.obj
 0001:00003a2e       ?AtlComModuleUnregisterServer@ATL@@YGJPAU_ATL_COM_MODULE70@1@HPBU_GUID@@@Z 10004a2e f i CashDrawer.obj
 0001:00003ab6       ?AtlComQIPtrAssign2@ATL@@YAXPAPAUIUnknown@@PAU2@ABU_GUID@@@Z 10004ab6 f i CashDrawer.obj
 0001:00003ae5       ?AtlCreateTargetDC@ATL@@YGPAUHDC__@@PAU2@PAUtagDVTARGETDEVICE@@@Z 10004ae5 f i CashDrawer.obj
 0001:00003b4e       ?AtlCrtErrorCheck@ATL@@YAHH@Z 10004b4e f i CashDrawer.obj
 0001:00003b89       ?AtlHiMetricToPixel@ATL@@YGXPBUtagSIZE@@PAU2@@Z 10004b89 f i CashDrawer.obj
 0001:00003bfe       ?AtlHresultFromLastError@ATL@@YAJXZ 10004bfe f i CashDrawer.obj
 0001:00003c15       ?AtlHresultFromWin32@ATL@@YAJK@Z 10004c15 f i CashDrawer.obj
 0001:00003c2a       ?AtlInternalOleLoadFromStream@ATL@@YAJPAUIStream@@ABU_GUID@@PAPAXTClassesAllowedInStream@1@K@Z 10004c2a f i CashDrawer.obj
 0001:00003d53       ?AtlInternalQueryInterface@ATL@@YGJPAXPBU_ATL_INTMAP_ENTRY@1@ABU_GUID@@PAPAX@Z 10004d53 f i CashDrawer.obj
 0001:00003df6       ?AtlLoadTypeLib@ATL@@YGJPAUHINSTANCE__@@PB_WPAPA_WPAPAUITypeLib@@@Z 10004df6 f i CashDrawer.obj
 0001:00003fd4       ?AtlRegisterClassCategoriesHelper@ATL@@YGJABU_GUID@@PBU_ATL_CATMAP_ENTRY@1@H@Z 10004fd4 f i CashDrawer.obj
 0001:000042d0       ?AtlRegisterTypeLib@ATL@@YGJPAUHINSTANCE__@@PB_W@Z 100052d0 f i CashDrawer.obj
 0001:00004458       ?AtlThrowImpl@ATL@@YGXJ@Z  10005458 f i CashDrawer.obj
 0001:00004476       ?AtlUnRegisterTypeLib@ATL@@YGJPAUHINSTANCE__@@PB_W@Z 10005476 f i CashDrawer.obj
 0001:00004521       ?AtlWinModuleAddCreateWndData@ATL@@YGXPAU_ATL_WIN_MODULE70@1@PAU_AtlCreateWndData@1@PAX@Z 10005521 f i CashDrawer.obj
 0001:00004575       ?AtlWinModuleExtractCreateWndData@ATL@@YGPAXPAU_ATL_WIN_MODULE70@1@@Z 10005575 f i CashDrawer.obj
 0001:000045d9       ?AtlWinModuleRegisterClassExW@ATL@@YGGPAU_ATL_WIN_MODULE70@1@PBUtagWNDCLASSEXW@@@Z 100055d9 f i CashDrawer.obj
 0001:00004618       ?CanForceRemoveKey@CRegParser@ATL@@IAEHPB_W@Z 10005618 f i CashDrawer.obj
 0001:00004647       ?ChToByte@CRegParser@ATL@@KAE_W@Z 10005647 f i CashDrawer.obj
 0001:000046cf       ?Cleanup@CComTypeInfoHolder@ATL@@SGXK@Z 100056cf f i CashDrawer.obj
 0001:00004702       ?ClearReplacements@CExpansionVector@ATL@@QAEJXZ 10005702 f i CashDrawer.obj
 0001:0000473f       ?Close@CRegKey@ATL@@QAEJXZ 1000573f f i CashDrawer.obj
 0001:00004759       ?CreateInstance@?$CComCreator@V?$CComAggObject@VCOPOSCashDrawer@@@ATL@@@ATL@@SGJPAXABU_GUID@@PAPAX@Z 10005759 f i CashDrawer.obj
 0001:000047ce       ?CreateInstance@?$CComCreator@V?$CComObject@VCOPOSCashDrawer@@@ATL@@@ATL@@SGJPAXABU_GUID@@PAPAX@Z 100057ce f i CashDrawer.obj
 0001:00004857       ?CreateInstance@?$CComObject@V?$CComEnum@UIEnumConnectionPoints@@$1?_GUID_b196b285_bab4_101a_b69c_00aa00341d07@@3U__s_GUID@@BPAUIConnectionPoint@@V?$_CopyInterface@UIConnectionPoint@@@ATL@@VCComSingleThreadModel@6@@ATL@@@ATL@@SGJPAPAV12@@Z 10005857 f i CashDrawer.obj
 0001:000048a1       ?CreateInstance@?$CComObject@V?$CComEnum@UIEnumConnections@@$1?_GUID_b196b287_bab4_101a_b69c_00aa00341d07@@3U__s_GUID@@BUtagCONNECTDATA@@V?$_Copy@UtagCONNECTDATA@@@ATL@@VCComSingleThreadModel@6@@ATL@@@ATL@@SGJPAPAV12@@Z 100058a1 f i CashDrawer.obj
 0001:000048eb       ?DefaultReflectionHandler@?$CWindowImplRoot@VCWindow@ATL@@@ATL@@SAHPAUHWND__@@IIJAAJ@Z 100058eb f i CashDrawer.obj
 0001:0000498b       ?DeleteSubKey@CRegKey@ATL@@QAEJPB_W@Z 1000598b f i CashDrawer.obj
 0001:00004a04       ?DoEvent@COPOSCashDrawer@@IAEXIIJ@Z 10005a04 f i CashDrawer.obj
 0001:00004a84       ?DoVerbHide@?$IOleObjectImpl@VCOPOSCashDrawer@@@ATL@@QAEJPBUtagRECT@@PAUHWND__@@@Z 10005a84 f i CashDrawer.obj
 0001:00004aba       ?DoVerbInPlaceActivate@?$IOleObjectImpl@VCOPOSCashDrawer@@@ATL@@QAEJPBUtagRECT@@PAUHWND__@@@Z 10005aba f i CashDrawer.obj
 0001:00004aed       ?DoVerbPrimary@?$IOleObjectImpl@VCOPOSCashDrawer@@@ATL@@QAEJPBUtagRECT@@PAUHWND__@@@Z 10005aed f i CashDrawer.obj
 0001:00004b79       ?DoVerbProperties@CComControlBase@ATL@@QAEJPBUtagRECT@@PAUHWND__@@@Z 10005b79 f i CashDrawer.obj
 0001:00004cf8       ?DoVerbUIActivate@?$IOleObjectImpl@VCOPOSCashDrawer@@@ATL@@QAEJPBUtagRECT@@PAUHWND__@@@Z 10005cf8 f i CashDrawer.obj
 0001:00004d35       ?DoesVerbActivate@CComControlBase@ATL@@QAEHJ@Z 10005d35 f i CashDrawer.obj
 0001:00004d59       ?DoesVerbUIActivate@CComControlBase@ATL@@QAEHJ@Z 10005d59 f i CashDrawer.obj
 0001:00004d8e       ?EndOfVar@CRegParser@ATL@@IAEHXZ 10005d8e f i CashDrawer.obj
 0001:00004dae       ?EscapeSingleQuote@CAtlModule@ATL@@SAXPA_WIPB_W@Z 10005dae f i CashDrawer.obj
 0001:00004dfd       ?FindKey@?$CSimpleMap@PA_WPA_WVCExpansionVectorEqualHelper@ATL@@@ATL@@QBEHABQA_W@Z 10005dfd f i CashDrawer.obj
 0001:00004e34       ?FireTheEvent@?$CProxy_IOPOSEvents@VCOPOSCashDrawer@@@@IAEXPAVOposVariant@@IAAJPB_WJ@Z 10005e34 f i CashDrawer.obj
 0001:00004ec6       ?FireViewChange@CComControlBase@ATL@@QAEJXZ 10005ec6 f i CashDrawer.obj
 0001:00004f0f       ?Fire_DirectIOEvent@?$CProxy_IOPOSEvents@VCOPOSCashDrawer@@@@QAEXJPAJPAPA_W@Z 10005f0f f i CashDrawer.obj
 0001:00004ffb       ?Fire_StatusUpdateEvent@?$CProxy_IOPOSEvents@VCOPOSCashDrawer@@@@QAEXJ@Z 10005ffb f i CashDrawer.obj
 0001:00005091       ?FreeHeap@?$CTempBuffer@_W$0EAA@VCCRTAllocator@ATL@@@ATL@@AAEXXZ 10006091 f i CashDrawer.obj
 0001:00005091       ?FreeHeap@?$CTempBuffer@_W$0BAA@VCCRTAllocator@ATL@@@ATL@@AAEXXZ 10006091 f i CashDrawer.obj
 0001:00005091       ?FreeHeap@?$CTempBuffer@E$0BAA@VCCRTAllocator@ATL@@@ATL@@AAEXXZ 10006091 f i CashDrawer.obj
 0001:0000509a       ?GetAmbientLocaleID@CComControlBase@ATL@@QAEJAAK@Z 1000609a f i CashDrawer.obj
 0001:000050f6       ?GetAmbientUserMode@CComControlBase@ATL@@QAEJAAH@Z 100060f6 f i CashDrawer.obj
 0001:00005166       ?GetAt@CComDynamicUnkArray@ATL@@QAEPAUIUnknown@@H@Z 10006166 f i CashDrawer.obj
 0001:00005182       ?GetClassObject@CComModule@ATL@@QAEJABU_GUID@@0PAPAX@Z 10006182 f i CashDrawer.obj
 0001:00005224       ?GetConnMap@COPOSCashDrawer@@SAPBU_ATL_CONNMAP_ENTRY@ATL@@PAH@Z 10006224 f i CashDrawer.obj
 0001:00005294       ?GetCookie@CComDynamicUnkArray@ATL@@QAGKPAPAUIUnknown@@@Z 10006294 f i CashDrawer.obj
 0001:000052cc       ?GetIDsOfNames@CComTypeInfoHolder@ATL@@QAEJABU_GUID@@PAPA_WIKPAJ@Z 100062cc f i CashDrawer.obj
 0001:000053ec       ?GetKeyAt@?$CSimpleMap@PA_WPA_WVCExpansionVectorEqualHelper@ATL@@@ATL@@QBEAAPA_WH@Z 100063ec f i CashDrawer.obj
 0001:00005411       ?GetPagesHelper@?$ISpecifyPropertyPagesImpl@VCOPOSCashDrawer@@@ATL@@IAEJPAUtagCAUUID@@PBUATL_PROPMAP_ENTRY@2@@Z 10006411 f i CashDrawer.obj
 0001:00005538       ?GetProperty@?$CComPtr@UIDispatch@@@ATL@@SAJPAUIDispatch@@JPAUtagVARIANT@@@Z 10006538 f i CashDrawer.obj
 0001:00005587       ?GetSizeMax@CComVariant@ATL@@QBEJPAT_ULARGE_INTEGER@@@Z 10006587 f i CashDrawer.obj
 0001:00005749       ?GetTI@CComTypeInfoHolder@ATL@@QAEJK@Z 10006749 f i CashDrawer.obj
 0001:00005929       ?GetTI@CComTypeInfoHolder@ATL@@QAEJKPAPAUITypeInfo@@@Z 10006929 f i CashDrawer.obj
 0001:00005967       ?GetUnknown@CComDynamicUnkArray@ATL@@QAGPAUIUnknown@@K@Z 10006967 f i CashDrawer.obj
 0001:00005988       ?GetValueAt@?$CSimpleMap@PA_WPA_WVCExpansionVectorEqualHelper@ATL@@@ATL@@QBEAAPA_WH@Z 10006988 f i CashDrawer.obj
 0001:000059ae       ?GetZoomInfo@CComControlBase@ATL@@QAEXAAUATL_DRAWINFO@@@Z 100069ae f i CashDrawer.obj
 0001:00005a41       ?HKeyFromString@CRegParser@ATL@@KAPAUHKEY__@@PA_W@Z 10006a41 f i CashDrawer.obj
 0001:00005a6f       ?HasSubKeys@CRegParser@ATL@@IAEHPAUHKEY__@@@Z 10006a6f f i CashDrawer.obj
 0001:00005aa4       ?IDataObject_GetData@CComControlBase@ATL@@QAEJPAUtagFORMATETC@@PAUtagSTGMEDIUM@@@Z 10006aa4 f i CashDrawer.obj
 0001:00005c46       ?IOleInPlaceObject_InPlaceDeactivate@CComControlBase@ATL@@QAEJXZ 10006c46 f i CashDrawer.obj
 0001:00005ccd       ?IOleInPlaceObject_SetObjectRects@CComControlBase@ATL@@QAEJPBUtagRECT@@0@Z 10006ccd f i CashDrawer.obj
 0001:00005d9a       ?IOleInPlaceObject_UIDeactivate@CComControlBase@ATL@@QAEJXZ 10006d9a f i CashDrawer.obj
 0001:00005e5c       ?IOleObject_Advise@CComControlBase@ATL@@QAEJPAUIAdviseSink@@PAK@Z 10006e5c f i CashDrawer.obj
 0001:00005e86       ?IOleObject_Close@CComControlBase@ATL@@QAEJK@Z 10006e86 f i CashDrawer.obj
 0001:00005f6a       ?IOleObject_GetClientSite@CComControlBase@ATL@@QAEJPAPAUIOleClientSite@@@Z 10006f6a f i CashDrawer.obj
 0001:00005f93       ?IOleObject_SetClientSite@CComControlBase@ATL@@QAEJPAUIOleClientSite@@@Z 10006f93 f i CashDrawer.obj
 0001:00005fd2       ?IOleObject_SetExtent@CComControlBase@ATL@@QAEJKPAUtagSIZE@@@Z 10006fd2 f i CashDrawer.obj
 0001:00006084       ?IPSI_GetIPersistStreamInit@?$IPersistStorageImpl@VCOPOSCashDrawer@@@ATL@@AAEPAUIPersistStreamInit@@XZ 10007084 f i CashDrawer.obj
 0001:0000612c       ?IPersistStreamInit_Load@?$IPersistStreamInitImpl@VCOPOSCashDrawer@@@ATL@@QAEJPAUIStream@@PBUATL_PROPMAP_ENTRY@2@@Z 1000712c f i CashDrawer.obj
 0001:000063a2       ?IPersistStreamInit_Save@?$IPersistStreamInitImpl@VCOPOSCashDrawer@@@ATL@@QAEJPAUIStream@@HPBUATL_PROPMAP_ENTRY@2@@Z 100073a2 f i CashDrawer.obj
 0001:00006591       ?IQuickActivate_QuickActivate@CComControlBase@ATL@@QAEJPAUtagQACONTAINER@@PAUtagQACONTROL@@@Z 10007591 f i CashDrawer.obj
 0001:000067d3       ?IViewObject_Draw@CComControlBase@ATL@@QAEJKJPAXPAUtagDVTARGETDEVICE@@PAUHDC__@@2PBU_RECTL@@3@Z 100077d3 f i CashDrawer.obj
 0001:0000687b       ?InPlaceActivate@CComControlBase@ATL@@QAEJJPBUtagRECT@@@Z 1000787b f i CashDrawer.obj
 0001:00006aed       ?Init@?$CComEnumImpl@UIEnumConnectionPoints@@$1?_GUID_b196b285_bab4_101a_b69c_00aa00341d07@@3U__s_GUID@@BPAUIConnectionPoint@@V?$_CopyInterface@UIConnectionPoint@@@ATL@@@ATL@@QAEJPAPAUIConnectionPoint@@0PAUIUnknown@@W4CComEnumFlags@2@@Z 10007aed f i CashDrawer.obj
 0001:00006bc9       ?Init@?$CComEnumImpl@UIEnumConnections@@$1?_GUID_b196b287_bab4_101a_b69c_00aa00341d07@@3U__s_GUID@@BUtagCONNECTDATA@@V?$_Copy@UtagCONNECTDATA@@@ATL@@@ATL@@QAEJPAUtagCONNECTDATA@@0PAUIUnknown@@W4CComEnumFlags@2@@Z 10007bc9 f i CashDrawer.obj
 0001:00006ca5       ?Init@CComModule@ATL@@QAEJPAU_ATL_OBJMAP_ENTRY30@2@PAUHINSTANCE__@@PBU_GUID@@@Z 10007ca5 f i CashDrawer.obj
 0001:00006d04       ?Init@CDynamicStdCallThunk2@ATL@@QAEHKPAX@Z 10007d04 f i CashDrawer.obj
 0001:00006d2f       ?InlineIsEqualUnknown@ATL@@YGHABU_GUID@@@Z 10007d2f f i CashDrawer.obj
 0001:00006d57       ?InternalSetAtIndex@?$CSimpleMap@PA_WPA_WVCExpansionVectorEqualHelper@ATL@@@ATL@@QAEXHABQA_W0@Z 10007d57 f i CashDrawer.obj
 0001:00006d81       ?Invoke@CComTypeInfoHolder@ATL@@QAEJPAUIDispatch@@JABU_GUID@@KGPAUtagDISPPARAMS@@PAUtagVARIANT@@PAUtagEXCEPINFO@@PAI@Z 10007d81 f i CashDrawer.obj
 0001:00006dc2       ?IsEqualObject@?$CComPtrBase@UIOleClientSite@@@ATL@@QAE_NPAUIUnknown@@@Z 10007dc2 f i CashDrawer.obj
 0001:00006dc2       ?IsEqualObject@?$CComPtrBase@UITypeInfo@@@ATL@@QAE_NPAUIUnknown@@@Z 10007dc2 f i CashDrawer.obj
 0001:00006e2e       ?IsSpace@CRegParser@ATL@@IAEH_W@Z 10007e2e f i CashDrawer.obj
 0001:00006e54       ?LoadNameCache@CComTypeInfoHolder@ATL@@QAEJPAUITypeInfo@@@Z 10007e54 f i CashDrawer.obj
 0001:00006f89       ?Lookup@?$CSimpleMap@PA_WPA_WVCExpansionVectorEqualHelper@ATL@@@ATL@@QBEPA_WABQA_W@Z 10007f89 f i CashDrawer.obj
 0001:00006faf       ?NextToken@CRegParser@ATL@@IAEJPA_W@Z 10007faf f i CashDrawer.obj
 0001:000070de       ?OnKillFocus@CComControlBase@ATL@@QAEJIIJAAH@Z 100080de f i CashDrawer.obj
 0001:00007139       ?OnMouseActivate@CComControlBase@ATL@@QAEJIIJAAH@Z 10008139 f i CashDrawer.obj
 0001:000071a7       ?OnPaint@CComControlBase@ATL@@QAEJIIJAAH@Z 100081a7 f i CashDrawer.obj
 0001:0000725e       ?OnSetFocus@CComControlBase@ATL@@QAEJIIJAAH@Z 1000825e f i CashDrawer.obj
 0001:000072e9       ?Open@CRegKey@ATL@@QAEJPAUHKEY__@@PB_WK@Z 100082e9 f i CashDrawer.obj
 0001:0000733e       ?PreProcessBuffer@CRegParser@ATL@@QAEJPA_WPAPA_W@Z 1000833e f i CashDrawer.obj
 0001:000075ae       ?ProcessWindowMessage@?$CComControl@VCOPOSCashDrawer@@V?$CWindowImpl@VCOPOSCashDrawer@@VCWindow@ATL@@V?$CWinTraits@$0FGAAAAAA@$0A@@3@@ATL@@@ATL@@UAEHPAUHWND__@@IIJAAJK@Z 100085ae f i CashDrawer.obj
 0001:00007656       ?ReadFromStream@CComBSTR@ATL@@QAEJPAUIStream@@@Z 10008656 f i CashDrawer.obj
 0001:00007779       ?ReadFromStream@CComVariant@ATL@@QAEJPAUIStream@@GTClassesAllowedInStream@2@K@Z 10008779 f i CashDrawer.obj
 0001:00007903       ?RecurseDeleteKey@CRegKey@ATL@@QAEJPB_W@Z 10008903 f i CashDrawer.obj
 0001:000079f1       ?RegCreateKeyExW@CAtlTransactionManager@ATL@@QAEJPAUHKEY__@@PB_WKPA_WKKQAU_SECURITY_ATTRIBUTES@@PAPAU3@PAK@Z 100089f1 f i CashDrawer.obj
 0001:00007a54       ?RegDeleteKeyW@CAtlTransactionManager@ATL@@QAEJPAUHKEY__@@PB_W@Z 10008a54 f i CashDrawer.obj
 0001:00007aa6       ?RegOpenKeyExW@CAtlTransactionManager@ATL@@QAEJPAUHKEY__@@PB_WKKPAPAU3@@Z 10008aa6 f i CashDrawer.obj
 0001:00007afd       ?Register@_ATL_WNDCLASSINFOW@ATL@@QAEGPAP6GJPAUHWND__@@IIJ@Z@Z 10008afd f i CashDrawer.obj
 0001:00007b1d       ?RegisterBuffer@CRegParser@ATL@@QAEJPA_WH@Z 10008b1d f i CashDrawer.obj
 0001:00007c64       ?RegisterFromResource@CRegObject@ATL@@IAEJPB_W00H@Z 10008c64 f i CashDrawer.obj
 0001:00007d9a       ?RegisterServer@?$CAtlModuleT@VCComModule@ATL@@@ATL@@QAEJHPBU_GUID@@@Z 10008d9a f i CashDrawer.obj
 0001:00007dc8       ?RegisterServer@CComModule@ATL@@QAEJHPBU_GUID@@@Z 10008dc8 f i CashDrawer.obj
 0001:00007e39       ?RegisterSubkeys@CRegParser@ATL@@IAEJPA_WPAUHKEY__@@HH@Z 10008e39 f i CashDrawer.obj
 0001:00008495       ?Remove@CComDynamicUnkArray@ATL@@QAEHK@Z 10009495 f i CashDrawer.obj
 0001:000084be       ?RemoveAll@?$CSimpleMap@PA_WPA_WVCExpansionVectorEqualHelper@ATL@@@ATL@@QAEXXZ 100094be f i CashDrawer.obj
 0001:000084ea       ?ResourceRegisterSz@CRegObject@ATL@@QAGJPB_W00@Z 100094ea f i CashDrawer.obj
 0001:00008517       ?ResourceUnregisterSz@CRegObject@ATL@@QAGJPB_W00@Z 10009517 f i CashDrawer.obj
 0001:00008544       ?SendOnDataChange@CComControlBase@ATL@@QAEJK@Z 10009544 f i CashDrawer.obj
 0001:00008591       ?SetControlFocus@CComControlBase@ATL@@QAEHH@Z 10009591 f i CashDrawer.obj
 0001:0000862c       ?SetMultiStringValue@CRegKey@ATL@@QAEJPB_W0@Z 1000962c f i CashDrawer.obj
 0001:00008688       ?SetStringValue@CRegKey@ATL@@QAEJPB_W0K@Z 10009688 f i CashDrawer.obj
 0001:000086d1       ?SkipAssignment@CRegParser@ATL@@IAEJPA_W@Z 100096d1 f i CashDrawer.obj
 0001:0000873d       ?SkipWhiteSpace@CRegParser@ATL@@IAEXXZ 1000973d f i CashDrawer.obj
 0001:00008766       ?StrChrW@CRegParser@ATL@@KAPA_WPA_W_W@Z 10009766 f i CashDrawer.obj
 0001:000087a3       ?Term@CAtlModule@ATL@@QAEXXZ 100097a3 f i CashDrawer.obj
 0001:00008820       ?Term@CComModule@ATL@@QAEXXZ 10009820 f i CashDrawer.obj
 0001:00008878       ?UnregisterServer@?$CAtlModuleT@VCComModule@ATL@@@ATL@@QAEJHPBU_GUID@@@Z 10009878 f i CashDrawer.obj
 0001:0000889e       ?UnregisterServer@CComModule@ATL@@QAEJHPBU_GUID@@@Z 1000989e f i CashDrawer.obj
 0001:0000890f       ?UpdateRegistryFromResource@CAtlModule@ATL@@QAGJIHPAU_ATL_REGMAP_ENTRY@2@@Z 1000990f f i CashDrawer.obj
 0001:00008ada       ?UpdateRegistryFromResource@CAtlModule@ATL@@QAGJPB_WHPAU_ATL_REGMAP_ENTRY@2@@Z 10009ada f i CashDrawer.obj
 0001:00008cab       ?VTFromRegType@CRegParser@ATL@@KAHPB_WAAG@Z 10009cab f i CashDrawer.obj
 0001:00008d18       ?WindowProc@?$CWindowImplBaseT@VCWindow@ATL@@V?$CWinTraits@$0FGAAAAAA@$0A@@2@@ATL@@SGJPAUHWND__@@IIJ@Z 10009d18 f i CashDrawer.obj
 0001:00008e06       ?WriteToStream@CComBSTR@ATL@@QAEJPAUIStream@@@Z 10009e06 f i CashDrawer.obj
 0001:00008e68       ?WriteToStream@CComVariant@ATL@@QAEJPAUIStream@@@Z 10009e68 f i CashDrawer.obj
 0001:00008fe2       ?WriteToStream@CComVariant@ATL@@QAEJPAUIStream@@G@Z 10009fe2 f i CashDrawer.obj
 0001:0000904b       ?_AtlInitialConstruct@?$CComObjectRootEx@VCComMultiThreadModel@ATL@@@ATL@@QAEJXZ 1000a04b f i CashDrawer.obj
 0001:00009060       ?_AtlVerifyStackAvailable@_ATL_SAFE_ALLOCA_IMPL@ATL@@YA_NK@Z 1000a060 f i CashDrawer.obj
 0001:000090de       ?atlCreate@?$CWindowImpl@VCOPOSCashDrawer@@VCWindow@ATL@@V?$CWinTraits@$0FGAAAAAA@$0A@@3@@ATL@@QAEPAUHWND__@@PAU3@V_U_RECT@2@PB_WKKV_U_MENUorID@2@PAX@Z 1000a0de f i CashDrawer.obj
 0001:00009129       ?atlCreate@?$CWindowImplBaseT@VCWindow@ATL@@V?$CWinTraits@$0FGAAAAAA@$0A@@2@@ATL@@QAEPAUHWND__@@PAU3@V_U_RECT@2@PB_WKKV_U_MENUorID@2@GPAX@Z 1000a129 f i CashDrawer.obj
 0001:000091c5       ?copy@?$_Copy@UtagCONNECTDATA@@@ATL@@SAJPAUtagCONNECTDATA@@PBU3@@Z 1000a1c5 f i CashDrawer.obj
 0001:000091fb       ?copy@?$_CopyInterface@UIConnectionPoint@@@ATL@@SAJPAPAUIConnectionPoint@@PBQAU3@@Z 1000a1fb f i CashDrawer.obj
 0001:00009229       ?memcpy_s@Checked@ATL@@YAXPAXIPBXI@Z 1000a229 f i CashDrawer.obj
 0001:00009248       ?ocscpy_s@@YA_NPA_WIPB_W@Z 1000a248 f i CashDrawer.obj
 0001:00009292       ?wcscpy_s@Checked@ATL@@YAXPA_WIPB_W@Z 1000a292 f i CashDrawer.obj
 0001:000092ae       _DllCanUnloadNow@0         1000a2ae f   CashDrawer.obj
 0001:000092ba       _DllGetClassObject@12      1000a2ba f   CashDrawer.obj
 0001:000092c8       _DllMain@12                1000a2c8 f   CashDrawer.obj
 0001:0000930a       _DllRegisterServer@0       1000a30a f   CashDrawer.obj
 0001:00009319       _DllUnregisterServer@0     1000a319 f   CashDrawer.obj
 0001:00009328       _InlineIsEqualGUID         1000a328 f i CashDrawer.obj
 0001:00009358       ___local_stdio_printf_options 1000a358 f i CashDrawer.obj
 0001:0000935e       __vswprintf_s_l            1000a35e f i CashDrawer.obj
 0001:0000940b       _swprintf_s                1000a40b f i CashDrawer.obj
 0001:00009427       ??0?$CComControl@VCOPOSCashDrawer@@V?$CWindowImpl@VCOPOSCashDrawer@@VCWindow@ATL@@V?$CWinTraits@$0FGAAAAAA@$0A@@3@@ATL@@@ATL@@QAE@XZ 1000a427 f i CashDrawerImpl.obj
 0001:0000944e       ??0CComControlBase@ATL@@QAE@AAPAUHWND__@@@Z 1000a44e f i CashDrawerImpl.obj
 0001:0000949e       ??0COPOSCashDrawer@@QAE@XZ 1000a49e f   CashDrawerImpl.obj
 0001:000094ed       ??1?$CComControl@VCOPOSCashDrawer@@V?$CWindowImpl@VCOPOSCashDrawer@@VCWindow@ATL@@V?$CWinTraits@$0FGAAAAAA@$0A@@3@@ATL@@@ATL@@UAE@XZ 1000a4ed f i CashDrawerImpl.obj
 0001:00009506       ??1?$IConnectionPointImpl@VCOPOSCashDrawer@@$1?DIID__IOPOSCashDrawerEvents@@3U_GUID@@BVCComDynamicUnkArray@ATL@@@ATL@@QAE@XZ 1000a506 f i CashDrawerImpl.obj
 0001:00009506       ??1?$IConnectionPointImpl@VCOPOSCashDrawer@@$1?IID_IPropertyNotifySink@@3U_GUID@@BVCComDynamicUnkArray@ATL@@@ATL@@QAE@XZ 1000a506 f i CashDrawerImpl.obj
 0001:00009543       ??1CComControlBase@ATL@@UAE@XZ 1000a543 f i CashDrawerImpl.obj
 0001:000095a6       ??1COPOSCashDrawer@@UAE@XZ 1000a5a6 f   CashDrawerImpl.obj
 0001:000095ee       ?CheckHealth@COPOSCashDrawer@@UAGJJPAJ@Z 1000a5ee f   CashDrawerImpl.obj
 0001:0000963d       ?ClaimDevice@COPOSCashDrawer@@UAGJJPAJ@Z 1000a63d f   CashDrawerImpl.obj
 0001:000096ab       ?Close@COPOSCashDrawer@@UAGJPAJ@Z 1000a6ab f   CashDrawerImpl.obj
 0001:00009719       ?CompareFirmwareVersion@COPOSCashDrawer@@UAGJPA_WPAJ1@Z 1000a719 f   CashDrawerImpl.obj
 0001:00009799       ?DirectIO@COPOSCashDrawer@@UAGJJPAJPAPA_W0@Z 1000a799 f   CashDrawerImpl.obj
 0001:00009847       ?DoInvoke@COPOSCashDrawer@@IAEJJPAVOposVariant@@IHPAJ_N@Z 1000a847 f   CashDrawerImpl.obj
 0001:00009923       ?EventClose@COPOSCashDrawer@@IAEXXZ 1000a923 f i CashDrawerImpl.obj
 0001:00009956       ?EventInit@COPOSCashDrawer@@IAEJXZ 1000a956 f i CashDrawerImpl.obj
 0001:00009a2a       ?EventUninit@COPOSCashDrawer@@IAEXXZ 1000aa2a f i CashDrawerImpl.obj
 0001:00009a7c       ?EventWindowProc@COPOSCashDrawer@@IAGJIIJ@Z 1000aa7c f i CashDrawerImpl.obj
 0001:00009af3       ?FinalConstruct@COPOSCashDrawer@@QAEJXZ 1000aaf3 f   CashDrawerImpl.obj
 0001:00009b2c       ?FireEventCleanup@COPOSCashDrawer@@IAEXXZ 1000ab2c f i CashDrawerImpl.obj
 0001:00009b42       ?FireEventSetup@COPOSCashDrawer@@IAE_NXZ 1000ab42 f i CashDrawerImpl.obj
 0001:00009b76       ?FreezeEvents@COPOSCashDrawer@@MAGJH@Z 1000ab76 f   CashDrawerImpl.obj
 0001:00009bc3       ?GetOposProp@COPOSCashDrawer@@IAEJJPAFJ@Z 1000abc3 f   CashDrawerImpl.obj
 0001:00009be6       ?GetOposProp@COPOSCashDrawer@@IAEJJPAJJ@Z 1000abe6 f   CashDrawerImpl.obj
 0001:00009cb5       ?GetOposProp@COPOSCashDrawer@@IAEJJPAPA_WJ@Z 1000acb5 f   CashDrawerImpl.obj
 0001:00009d91       ?OnDraw@COPOSCashDrawer@@MAEJAAUATL_DRAWINFO@@@Z 1000ad91 f   CashDrawerImpl.obj
 0001:00009e31       ?Open@COPOSCashDrawer@@UAGJPA_WPAJ@Z 1000ae31 f   CashDrawerImpl.obj
 0001:0000a66a       ?OpenDrawer@COPOSCashDrawer@@UAGJPAJ@Z 1000b66a f   CashDrawerImpl.obj
 0001:0000a685       ?ReleaseDevice@COPOSCashDrawer@@UAGJPAJ@Z 1000b685 f   CashDrawerImpl.obj
 0001:0000a6bc       ?ResetStatistics@COPOSCashDrawer@@UAGJPA_WPAJ@Z 1000b6bc f   CashDrawerImpl.obj
 0001:0000a713       ?RetrieveStatistics@COPOSCashDrawer@@UAGJPAPA_WPAJ@Z 1000b713 f   CashDrawerImpl.obj
 0001:0000a76a       ?SOProcessID@COPOSCashDrawer@@UAGJPAJ@Z 1000b76a f   CashDrawerImpl.obj
 0001:0000a77e       ?SetCOFreezeEvents@COPOSCashDrawer@@IAEXF@Z 1000b77e f   CashDrawerImpl.obj
 0001:0000a81e       ?SetOposProp@COPOSCashDrawer@@IAEJJJJ@Z 1000b81e f   CashDrawerImpl.obj
 0001:0000a915       ?UpdateFirmware@COPOSCashDrawer@@UAGJPA_WPAJ@Z 1000b915 f   CashDrawerImpl.obj
 0001:0000a96c       ?UpdateStatistics@COPOSCashDrawer@@UAGJPA_WPAJ@Z 1000b96c f   CashDrawerImpl.obj
 0001:0000a9c3       ?WaitForDrawerClose@COPOSCashDrawer@@UAGJJJJJPAJ@Z 1000b9c3 f   CashDrawerImpl.obj
 0001:0000aa64       ?get_BinaryConversion@COPOSCashDrawer@@UAGJPAJ@Z 1000ba64 f   CashDrawerImpl.obj
 0001:0000aa7a       ?get_CapCompareFirmwareVersion@COPOSCashDrawer@@UAGJPAF@Z 1000ba7a f   CashDrawerImpl.obj
 0001:0000aa93       ?get_CapPowerReporting@COPOSCashDrawer@@UAGJPAJ@Z 1000ba93 f   CashDrawerImpl.obj
 0001:0000aaac       ?get_CapStatisticsReporting@COPOSCashDrawer@@UAGJPAF@Z 1000baac f   CashDrawerImpl.obj
 0001:0000aac5       ?get_CapStatus@COPOSCashDrawer@@UAGJPAF@Z 1000bac5 f   CashDrawerImpl.obj
 0001:0000aade       ?get_CapStatusMultiDrawerDetect@COPOSCashDrawer@@UAGJPAF@Z 1000bade f   CashDrawerImpl.obj
 0001:0000aaf7       ?get_CapUpdateFirmware@COPOSCashDrawer@@UAGJPAF@Z 1000baf7 f   CashDrawerImpl.obj
 0001:0000ab10       ?get_CapUpdateStatistics@COPOSCashDrawer@@UAGJPAF@Z 1000bb10 f   CashDrawerImpl.obj
 0001:0000ab29       ?get_CheckHealthText@COPOSCashDrawer@@UAGJPAPA_W@Z 1000bb29 f   CashDrawerImpl.obj
 0001:0000ab42       ?get_Claimed@COPOSCashDrawer@@UAGJPAF@Z 1000bb42 f   CashDrawerImpl.obj
 0001:0000ab58       ?get_ControlObjectDescription@COPOSCashDrawer@@UAGJPAPA_W@Z 1000bb58 f   CashDrawerImpl.obj
 0001:0000aba6       ?get_ControlObjectVersion@COPOSCashDrawer@@UAGJPAJ@Z 1000bba6 f   CashDrawerImpl.obj
 0001:0000abb9       ?get_DeviceDescription@COPOSCashDrawer@@UAGJPAPA_W@Z 1000bbb9 f   CashDrawerImpl.obj
 0001:0000abd2       ?get_DeviceEnabled@COPOSCashDrawer@@UAGJPAF@Z 1000bbd2 f   CashDrawerImpl.obj
 0001:0000abe8       ?get_DeviceName@COPOSCashDrawer@@UAGJPAPA_W@Z 1000bbe8 f   CashDrawerImpl.obj
 0001:0000ac01       ?get_DrawerOpened@COPOSCashDrawer@@UAGJPAF@Z 1000bc01 f   CashDrawerImpl.obj
 0001:0000ac1a       ?get_FreezeEvents@COPOSCashDrawer@@UAGJPAF@Z 1000bc1a f   CashDrawerImpl.obj
 0001:0000ac30       ?get_OpenResult@COPOSCashDrawer@@UAGJPAJ@Z 1000bc30 f   CashDrawerImpl.obj
 0001:0000ac47       ?get_PowerNotify@COPOSCashDrawer@@UAGJPAJ@Z 1000bc47 f   CashDrawerImpl.obj
 0001:0000ac5d       ?get_PowerState@COPOSCashDrawer@@UAGJPAJ@Z 1000bc5d f   CashDrawerImpl.obj
 0001:0000ac73       ?get_ResultCode@COPOSCashDrawer@@UAGJPAJ@Z 1000bc73 f   CashDrawerImpl.obj
 0001:0000acb1       ?get_ResultCodeExtended@COPOSCashDrawer@@UAGJPAJ@Z 1000bcb1 f   CashDrawerImpl.obj
 0001:0000acc7       ?get_ServiceObjectDescription@COPOSCashDrawer@@UAGJPAPA_W@Z 1000bcc7 f   CashDrawerImpl.obj
 0001:0000ace0       ?get_ServiceObjectVersion@COPOSCashDrawer@@UAGJPAJ@Z 1000bce0 f   CashDrawerImpl.obj
 0001:0000acf6       ?get_State@COPOSCashDrawer@@UAGJPAJ@Z 1000bcf6 f   CashDrawerImpl.obj
 0001:0000ad22       ?put_BinaryConversion@COPOSCashDrawer@@UAGJJ@Z 1000bd22 f   CashDrawerImpl.obj
 0001:0000ad38       ?put_DeviceEnabled@COPOSCashDrawer@@UAGJF@Z 1000bd38 f   CashDrawerImpl.obj
 0001:0000ad55       ?put_FreezeEvents@COPOSCashDrawer@@UAGJF@Z 1000bd55 f   CashDrawerImpl.obj
 0001:0000ada1       ?put_PowerNotify@COPOSCashDrawer@@UAGJJ@Z 1000bda1 f   CashDrawerImpl.obj
 0001:0000adb7       ?s_EventWindowProc@COPOSCashDrawer@@KGJPAUHWND__@@IIJ@Z 1000bdb7 f i CashDrawerImpl.obj
 0001:0000ae09       ??_U@YAPAXI@Z              1000be09 f   LIBCMT:new_array.obj
 0001:0000ae12       ??3@YAXPAXI@Z              1000be12 f   LIBCMT:delete_scalar_size.obj
 0001:0000ae20       ??_V@YAXPAX@Z              1000be20 f   LIBCMT:delete_array.obj
 0001:0000ae25       ??_V@YAXPAXI@Z             1000be25 f   LIBCMT:delete_array_size.obj
 0001:0000ae77       ___scrt_acquire_startup_lock 1000be77 f   LIBCMT:utility.obj
 0001:0000aea9       ___scrt_dllmain_after_initialize_c 1000bea9 f   LIBCMT:utility.obj
 0001:0000aed4       ___scrt_dllmain_before_initialize_c 1000bed4 f   LIBCMT:utility.obj
 0001:0000aee2       ___scrt_dllmain_crt_thread_attach 1000bee2 f   LIBCMT:utility.obj
 0001:0000af01       ___scrt_dllmain_crt_thread_detach 1000bf01 f   LIBCMT:utility.obj
 0001:0000af0e       ___scrt_dllmain_exception_filter 1000bf0e f   LIBCMT:utility.obj
 0001:0000af42       ___scrt_dllmain_uninitialize_c 1000bf42 f   LIBCMT:utility.obj
 0001:0000af65       ___scrt_dllmain_uninitialize_critical 1000bf65 f   LIBCMT:utility.obj
 0001:0000af72       ___scrt_initialize_crt     1000bf72 f   LIBCMT:utility.obj
 0001:0000afab       ___scrt_initialize_onexit_tables 1000bfab f   LIBCMT:utility.obj
 0001:0000b032       ___scrt_is_nonwritable_in_current_image 1000c032 f   LIBCMT:utility.obj
 0001:0000b0c6       ___scrt_release_startup_lock 1000c0c6 f   LIBCMT:utility.obj
 0001:0000b0e3       ___scrt_uninitialize_crt   1000c0e3 f   LIBCMT:utility.obj
 0001:0000b10b       __onexit                   1000c10b f   LIBCMT:utility.obj
 0001:0000b138       _atexit                    1000c138 f   LIBCMT:utility.obj
 0001:0000b14d       ??3@YAXPAX@Z               1000c14d f   LIBCMT:delete_scalar.obj
 0001:0000b217       __Init_thread_footer       1000c217 f   LIBCMT:thread_safe_statics.obj
 0001:0000b261       __Init_thread_header       1000c261 f   LIBCMT:thread_safe_statics.obj
 0001:0000b2b3       __Init_thread_notify       1000c2b3 f   LIBCMT:thread_safe_statics.obj
 0001:0000b2e9       __Init_thread_wait         1000c2e9 f   LIBCMT:thread_safe_statics.obj
 0001:0000b337       ___raise_securityfailure   1000c337 f   LIBCMT:gs_report.obj
 0001:0000b35f       ___report_gsfailure        1000c35f f   LIBCMT:gs_report.obj
 0001:0000b459       ___report_rangecheckfailure 1000c459 f   LIBCMT:gs_report.obj
 0001:0000b465       ___report_securityfailure  1000c465 f   LIBCMT:gs_report.obj
 0001:0000b534       ??2@YAPAXIABUnothrow_t@std@@@Z 1000c534 f   LIBCMT:new_scalar_nothrow.obj
 0001:0000b589       ??_U@YAPAXIABUnothrow_t@std@@@Z 1000c589 f   LIBCMT:new_array_nothrow.obj
 0001:0000b592       @__security_check_cookie@4 1000c592 f   LIBCMT:secchk.obj
 0001:0000b5a0       __SEH_prolog4_GS           1000c5a0 f   LIBCMT:sehprolg4gs.obj
 0001:0000b5f0       __alloca_probe_16          1000c5f0 f   LIBCMT:alloca16.obj
 0001:0000b606       __alloca_probe_8           1000c606     LIBCMT:alloca16.obj
 0001:0000b620       __chkstk                   1000c620 f   LIBCMT:chkstk.obj
 0001:0000b620       __alloca_probe             1000c620 f   LIBCMT:chkstk.obj
 0001:0000b98b       __DllMainCRTStartup@12     1000c98b f   LIBCMT:dll_dllmain.obj
 0001:0000b9ae       ??2@YAPAXI@Z               1000c9ae f   LIBCMT:new_scalar.obj
 0001:0000b9de       ___isa_available_init      1000c9de f   LIBCMT:cpu_disp.obj
 0001:0000bbb2       ___scrt_is_ucrt_dll_in_use 1000cbb2 f   LIBCMT:ucrt_detection.obj
 0001:0000bbbe       ___scrt_fastfail           1000cbbe f   LIBCMT:utility_desktop.obj
 0001:0000bcd9       __crt_debugger_hook        1000ccd9 f   LIBCMT:utility_desktop.obj
 0001:0000bcf0       __SEH_prolog4              1000ccf0 f   LIBCMT:sehprolg4.obj
 0001:0000bd35       @_guard_check_icall_nop@4  1000cd35 f i LIBCMT:guard_support.obj
 0001:0000bd85       ___security_init_cookie    1000cd85 f   LIBCMT:gs_support.obj
 0001:0000bdd0       ?__scrt_initialize_type_info@@YAXXZ 1000cdd0 f   LIBCMT:tncleanup.obj
 0001:0000bddc       ?__scrt_uninitialize_type_info@@YAXXZ 1000cddc f   LIBCMT:tncleanup.obj
 0001:0000bde8       ___local_stdio_scanf_options 1000cde8 f i LIBCMT:default_local_stdio_options.obj
 0001:0000bdee       ___scrt_initialize_default_local_stdio_options 1000cdee f   LIBCMT:default_local_stdio_options.obj
 0001:0000be0b       ___scrt_get_dyn_tls_init_callback 1000ce0b f   LIBCMT:dyn_tls_init.obj
 0001:0000be11       __RTC_Initialize           1000ce11 f   LIBCMT:initsect.obj
 0001:0000be3d       __RTC_Terminate            1000ce3d f   LIBCMT:initsect.obj
 0001:0000be69       ??0bad_alloc@std@@QAE@ABV01@@Z 1000ce69 f i LIBCMT:throw_bad_alloc.obj
 0001:0000be84       ??0bad_alloc@std@@QAE@XZ   1000ce84 f i LIBCMT:throw_bad_alloc.obj
 0001:0000be9c       ??0bad_array_new_length@std@@QAE@ABV01@@Z 1000ce9c f i LIBCMT:throw_bad_alloc.obj
 0001:0000beb7       ??0bad_array_new_length@std@@QAE@XZ 1000ceb7 f i LIBCMT:throw_bad_alloc.obj
 0001:0000becf       ??0exception@std@@QAE@ABV01@@Z 1000cecf f i LIBCMT:throw_bad_alloc.obj
 0001:0000befb       ??1bad_alloc@std@@UAE@XZ   1000cefb f i LIBCMT:throw_bad_alloc.obj
 0001:0000befb       ??1bad_exception@std@@UAE@XZ 1000cefb f i libvcruntime:frame.obj
 0001:0000befb       ??1bad_array_new_length@std@@UAE@XZ 1000cefb f i LIBCMT:throw_bad_alloc.obj
 0001:0000bf0c       ??_Gbad_alloc@std@@UAEPAXI@Z 1000cf0c f i LIBCMT:throw_bad_alloc.obj
 0001:0000bf0c       ??_Gexception@std@@UAEPAXI@Z 1000cf0c f i LIBCMT:throw_bad_alloc.obj
 0001:0000bf0c       ??_Ebad_exception@std@@UAEPAXI@Z 1000cf0c f i libvcruntime:frame.obj
 0001:0000bf0c       ??_Gbad_array_new_length@std@@UAEPAXI@Z 1000cf0c f i LIBCMT:throw_bad_alloc.obj
 0001:0000bf0c       ??_Eexception@std@@UAEPAXI@Z 1000cf0c f i LIBCMT:throw_bad_alloc.obj
 0001:0000bf0c       ??_Gbad_exception@std@@UAEPAXI@Z 1000cf0c f i libvcruntime:frame.obj
 0001:0000bf0c       ??_Ebad_array_new_length@std@@UAEPAXI@Z 1000cf0c f i LIBCMT:throw_bad_alloc.obj
 0001:0000bf0c       ??_Ebad_alloc@std@@UAEPAXI@Z 1000cf0c f i LIBCMT:throw_bad_alloc.obj
 0001:0000bf39       ?__scrt_throw_std_bad_alloc@@YAXXZ 1000cf39 f   LIBCMT:throw_bad_alloc.obj
 0001:0000bf56       ?__scrt_throw_std_bad_array_new_length@@YAXXZ 1000cf56 f   LIBCMT:throw_bad_alloc.obj
 0001:0000bf73       ?what@exception@std@@UBEPBDXZ 1000cf73 f i LIBCMT:throw_bad_alloc.obj
 0001:0000bf80       ??_Etype_info@@UAEPAXI@Z   1000cf80 f i LIBCMT:std_type_info_static.obj
 0001:0000bf80       ??_Gtype_info@@UAEPAXI@Z   1000cf80 f i LIBCMT:std_type_info_static.obj
 0001:0000bfa3       ??0CAtlBaseModule@ATL@@QAE@XZ 1000cfa3 f   atls:atlbase.obj
 0001:0000bff6       ??0_ATL_BASE_MODULE70@ATL@@QAE@XZ 1000cff6 f i atls:atlbase.obj
 0001:0000c019       ??1CAtlBaseModule@ATL@@QAE@XZ 1000d019 f   atls:atlbase.obj
 0001:0000c106       ?Init@_stdcallthunk@ATL@@QAEHKPAX@Z 1000d106 f i atls:atlthunk.obj
 0001:0000c13b       ?__AllocStdCallThunk_cmn@@YAPAXXZ 1000d13b f   atls:atlthunk.obj
 0001:0000c201       ?__FreeStdCallThunk_cmn@@YAXPAX@Z 1000d201 f   atls:atlthunk.obj
 0001:0000c29d       _AtlThunk_AllocateData@0   1000d29d f   atls:atlthunk.obj
 0001:0000c302       _AtlThunk_DataToCode@4     1000d302 f   atls:atlthunk.obj
 0001:0000c349       _AtlThunk_FreeData@4       1000d349 f   atls:atlthunk.obj
 0001:0000c39f       _AtlThunk_InitData@12      1000d39f f   atls:atlthunk.obj
 0001:0000c3ee       __get_purecall_handler     1000d3ee f   libvcruntime:purevirt.obj
 0001:0000c3f5       __purecall                 1000d3f5 f   libvcruntime:purevirt.obj
 0001:0000c411       _wcsstr                    1000d411 f   libvcruntime:wcsstr.obj
 0001:0000c6d0       __except_handler4          1000d6d0 f   libvcruntime:chandler4.obj
 0001:0000c82e       _memcmp                    1000d82e f   libvcruntime:memcmp.obj
 0001:0000deb0       _memcpy                    1000eeb0 f   libvcruntime:memcpy.obj
 0001:0000deb0       _memmove                   1000eeb0 f   libvcruntime:memmove.obj
 0001:0000e430       _memset                    1000f430 f   libvcruntime:memset.obj
 0001:0000e58a       ___vcrt_initialize         1000f58a f   libvcruntime:initialization.obj
 0001:0000e5a9       ___vcrt_thread_attach      1000f5a9 f   libvcruntime:initialization.obj
 0001:0000e5b4       ___vcrt_thread_detach      1000f5b4 f   libvcruntime:initialization.obj
 0001:0000e5bf       ___vcrt_uninitialize       1000f5bf f   libvcruntime:initialization.obj
 0001:0000e5d6       ___vcrt_uninitialize_critical 1000f5d6 f   libvcruntime:initialization.obj
 0001:0000e5de       ?GetRangeOfTrysToCheck@__FrameHandler3@@SA?AU?$pair@Viterator@TryBlockMap@__FrameHandler3@@V123@@std@@AAVTryBlockMap@1@HPAXPBU_s_FuncInfo@@H@Z 1000f5de f   libvcruntime:trnsctrl.obj
 0001:0000e64e       ?_CallCatchBlock2@@YAPAXPAUEHRegistrationNode@@PBU_s_FuncInfo@@PAXHK@Z 1000f64e f   libvcruntime:trnsctrl.obj
 0001:0000e6ab       ?_CallSETranslator@@YAHPAUEHExceptionRecord@@PAUEHRegistrationNode@@PAX2PBU_s_FuncInfo@@H1@Z 1000f6ab f   libvcruntime:trnsctrl.obj
 0001:0000e7a1       ?_JumpToContinuation@@YGXPAXPAUEHRegistrationNode@@@Z 1000f7a1 f   libvcruntime:trnsctrl.obj
 0001:0000e7d1       ?_UnwindNestedFrames@@YGXPAUEHRegistrationNode@@PAUEHExceptionRecord@@@Z 1000f7d1 f   libvcruntime:trnsctrl.obj
 0001:0000e824       __CatchGuardHandler        1000f824 f   libvcruntime:trnsctrl.obj
 0001:0000e855       __CreateFrameInfo          1000f855 f   libvcruntime:trnsctrl.obj
 0001:0000e879       __FindAndUnlinkFrame       1000f879 f   libvcruntime:trnsctrl.obj
 0001:0000e8c1       __TranslatorGuardHandler   1000f8c1 f   libvcruntime:trnsctrl.obj
 0001:0000e95e       ___CxxFrameHandler3        1000f95e f   libvcruntime:trnsctrl.obj
 0001:0000e994       ___DestructExceptionObject 1000f994 f   libvcruntime:ehhelpers.obj
 0001:0000ea35       ?_CallMemberFunction0@@YGXQAX0@Z 1000fa35 f i libvcruntime:ehhelpers.obj
 0001:0000ea9a       __IsExceptionObjectToBeDestroyed 1000fa9a f   libvcruntime:ehhelpers.obj
 0001:0000eac0       ___AdjustPointer           1000fac0 f   libvcruntime:ehhelpers.obj
 0001:0000eae5       ___FrameUnwindFilter       1000fae5 f   libvcruntime:ehhelpers.obj
 0001:0000eb3b       ___std_terminate           1000fb3b f   libvcruntime:ehhelpers.obj
 0001:0000eb40       ___std_type_info_compare   1000fb40 f   libvcruntime:std_type_info.obj
 0001:0000eb7c       ___std_type_info_destroy_list 1000fb7c f   libvcruntime:std_type_info.obj
 0001:0000eb9f       ___std_exception_copy      1000fb9f f   libvcruntime:std_exception.obj
 0001:0000ec02       ___std_exception_destroy   1000fc02 f   libvcruntime:std_exception.obj
 0001:0000ec21       __CxxThrowException@8      1000fc21 f   libvcruntime:throw.obj
 0001:0000ec90       __local_unwind4            1000fc90 f   libvcruntime:exsup4.obj
 0001:0000ed80       @_EH4_CallFilterFunc@8     1000fd80 f   libvcruntime:exsup4.obj
 0001:0000eda0       @_EH4_TransferToHandler@8  1000fda0 f   libvcruntime:exsup4.obj
 0001:0000edc0       @_EH4_GlobalUnwind2@8      1000fdc0 f   libvcruntime:exsup4.obj
 0001:0000ede0       @_EH4_LocalUnwind@16       1000fde0 f   libvcruntime:exsup4.obj
 0001:0000edf7       ___except_validate_context_record 1000fdf7 f   libvcruntime:jbcxrval.obj
 0001:0000ee27       ___vcrt_freefls@4          1000fe27 f   libvcruntime:per_thread_data.obj
 0001:0000ee43       ___vcrt_freeptd            1000fe43 f   libvcruntime:per_thread_data.obj
 0001:0000ee79       ___vcrt_getptd             1000fe79 f   libvcruntime:per_thread_data.obj
 0001:0000ee87       ___vcrt_getptd_noexit      1000fe87 f   libvcruntime:per_thread_data.obj
 0001:0000ef19       ___vcrt_initialize_ptd     1000ff19 f   libvcruntime:per_thread_data.obj
 0001:0000ef4c       ___vcrt_uninitialize_ptd   1000ff4c f   libvcruntime:per_thread_data.obj
 0001:0000ef67       ___vcrt_initialize_locks   1000ff67 f   libvcruntime:locks.obj
 0001:0000efa3       ___vcrt_uninitialize_locks 1000ffa3 f   libvcruntime:locks.obj
 0001:0000f704       ??$TypeMatchHelper@V__FrameHandler3@@@@YAHPBU_s_HandlerType@@PBU_s_CatchableType@@PBU_s_ThrowInfo@@@Z 10010704 f i libvcruntime:frame.obj
 0001:0000f792       ??$__InternalCxxFrameHandler@V__FrameHandler3@@@@YA?AW4_EXCEPTION_DISPOSITION@@PAUEHExceptionRecord@@PAUEHRegistrationNode@@PAU_CONTEXT@@PAXPBU_s_FuncInfo@@H1E@Z 10010792 f i libvcruntime:frame.obj
 0001:0000f894       ??0bad_exception@std@@QAE@ABV01@@Z 10010894 f i libvcruntime:frame.obj
 0001:0000f8af       ??0bad_exception@std@@QAE@XZ 100108af f i libvcruntime:frame.obj
 0001:0000f8c7       ??8type_info@@QBE_NABV0@@Z 100108c7 f i libvcruntime:frame.obj
 0001:0000fb3e       ?FrameUnwindToEmptyState@__FrameHandler3@@SAXPAUEHRegistrationNode@@PAXPBU_s_FuncInfo@@@Z 10010b3e f   libvcruntime:frame.obj
 0001:0000fb56       ?FrameUnwindToState@__FrameHandler3@@SAXPAUEHRegistrationNode@@PAXPBU_s_FuncInfo@@H@Z 10010b56 f   libvcruntime:frame.obj
 0001:0000fcd8       ?_CallMemberFunction1@@YGXQAX00@Z 10010cd8 f i libvcruntime:frame.obj
 0001:0000fce8       ?_CallMemberFunction2@@YGXQAX00H@Z 10010ce8 f i libvcruntime:frame.obj
 0001:0000fcfb       ?getESTypes@__FrameHandler3@@SAPBU_s_ESTypeList@@PBU_s_FuncInfo@@@Z 10010cfb f i libvcruntime:frame.obj
 0001:0000fd10       __CallSettingFrame@12      10010d10 f   libvcruntime:lowhelpr.obj
 0001:0000fd37       __NLG_Return               10010d37     libvcruntime:lowhelpr.obj
 0001:0000fd60       __NLG_Notify1              10010d60 f   libvcruntime:exsup.obj
 0001:0000fd70       __NLG_Notify               10010d70 f   libvcruntime:exsup.obj
 0001:0000fd87       __NLG_Dispatch2            10010d87     libvcruntime:exsup.obj
 0001:0000fd87       __NLG_Dispatch             10010d87     libvcruntime:exsup.obj
 0001:0000fd90       __NLG_Call                 10010d90 f   libvcruntime:exsup.obj
 0001:0000fd92       __NLG_Return2              10010d92     libvcruntime:exsup.obj
 0001:0000fe78       ___vcrt_FlsAlloc           10010e78 f   libvcruntime:winapi_downlevel.obj
 0001:0000feb3       ___vcrt_FlsFree            10010eb3 f   libvcruntime:winapi_downlevel.obj
 0001:0000feee       ___vcrt_FlsGetValue        10010eee f   libvcruntime:winapi_downlevel.obj
 0001:0000ff29       ___vcrt_FlsSetValue        10010f29 f   libvcruntime:winapi_downlevel.obj
 0001:0000ff67       ___vcrt_InitializeCriticalSectionEx 10010f67 f   libvcruntime:winapi_downlevel.obj
 0001:0000ffae       _unexpected                10010fae f   libvcruntime:unexpected.obj
 0001:0000ffcb       ?GetCurrentState@__FrameHandler3@@SAHPAUEHRegistrationNode@@PAXPBU_s_FuncInfo@@@Z 10010fcb f   libvcruntime:ehstate.obj
 0001:0000ffe8       ?SetState@__FrameHandler3@@SAXPAUEHRegistrationNode@@PBU_s_FuncInfo@@H@Z 10010fe8 f   libvcruntime:ehstate.obj
 0001:0000fff6       _free                      10010ff6 f   libucrt:free.obj
 0001:00010011       ??0__crt_cached_ptd_host@@QAE@QAU__crt_locale_pointers@@@Z 10011011 f i libucrt:invalid_parameter.obj
 0001:00010059       ??1__crt_cached_ptd_host@@QAE@XZ 10011059 f i libucrt:invalid_parameter.obj
 0001:00010095       ?check_synchronize_global_state_index@__crt_cached_ptd_host@@AAEIXZ 10011095 f i libucrt:invalid_parameter.obj
 0001:000100be       ?force_synchronize_per_thread_data@__crt_cached_ptd_host@@AAEPAU__acrt_ptd@@XZ 100110be f i libucrt:invalid_parameter.obj
 0001:00010104       ?get_raw_ptd@__crt_cached_ptd_host@@QAEPAU__acrt_ptd@@XZ 10011104 f i libucrt:invalid_parameter.obj
 0001:00010121       ___acrt_call_reportfault   10011121 f   libucrt:invalid_parameter.obj
 0001:0001025a       ___acrt_initialize_invalid_parameter_handler 1001125a f   libucrt:invalid_parameter.obj
 0001:00010269       __invalid_parameter        10011269 f   libucrt:invalid_parameter.obj
 0001:000102a0       __invalid_parameter_internal 100112a0 f   libucrt:invalid_parameter.obj
 0001:0001031d       __invalid_parameter_noinfo 1001131d f   libucrt:invalid_parameter.obj
 0001:0001032d       __invoke_watson            1001132d f   libucrt:invalid_parameter.obj
 0001:00010361       ___acrt_errno_from_os_error 10011361 f   libucrt:errno.obj
 0001:000103a4       ___acrt_errno_map_os_error 100113a4 f   libucrt:errno.obj
 0001:000103c7       ___acrt_errno_map_os_error_ptd 100113c7 f   libucrt:errno.obj
 0001:000103eb       ___doserrno                100113eb f   libucrt:errno.obj
 0001:000103fe       __errno                    100113fe f   libucrt:errno.obj
 0001:00010411       _calloc                    10011411 f   libucrt:calloc.obj
 0001:0001041c       _malloc                    1001141c f   libucrt:malloc.obj
 0001:00010427       __recalloc                 10011427 f   libucrt:recalloc.obj
 0001:00010432       __recalloc_base            10011432 f   libucrt:recalloc.obj
 0001:0001049f       __resetstkoflw             1001149f f   libucrt:resetstk.obj
 0001:000105dc       _wcscat_s                  100115dc f   libucrt:wcscat_s.obj
 0001:000105e7       _wcscpy_s                  100115e7 f   libucrt:wcscpy_s.obj
 0001:00010719       _wcsncpy_s                 10011719 f   libucrt:wcsncpy_s.obj
 0001:00010941       ??$count@D@formatting_buffer@__crt_stdio_output@@QBEIXZ 10011941 f i libucrt:output.obj
 0001:00010959       ??$count@_W@formatting_buffer@__crt_stdio_output@@QBEIXZ 10011959 f i libucrt:output.obj
 0001:00010972       ??$ensure_buffer_is_big_enough@D@formatting_buffer@__crt_stdio_output@@QAE_NIAAV__crt_cached_ptd_host@@@Z 10011972 f i libucrt:output.obj
 0001:000109f3       ??$ensure_buffer_is_big_enough@_W@formatting_buffer@__crt_stdio_output@@QAE_NIAAV__crt_cached_ptd_host@@@Z 100119f3 f i libucrt:output.obj
 0001:00010a75       ??$is_overflow_condition@K@__crt_strtox@@YA_NIK@Z 10011a75 f i libucrt:output.obj
 0001:00010aa6       ??$is_wide_character_specifier@_W@__crt_stdio_output@@YA_N_K_WW4length_modifier@0@@Z 10011aa6 f i libucrt:output.obj
 0001:00010af4       ??$parse_integer@KV?$c_string_character_source@_W@__crt_strtox@@$0A@@__crt_strtox@@YAKAAV__crt_cached_ptd_host@@V?$c_string_character_source@_W@0@H_N@Z 10011af4 f i libucrt:output.obj
 0001:000110c3       ??$scratch_data@D@formatting_buffer@__crt_stdio_output@@QAEPADXZ 100120c3 f i libucrt:output.obj
 0001:000110e1       ??$type_case_integer@$07@?$output_processor@_WV?$string_output_adapter@_W@__crt_stdio_output@@V?$format_validation_base@_WV?$string_output_adapter@_W@__crt_stdio_output@@@2@@__crt_stdio_output@@AAE_N_N@Z 100120e1 f i libucrt:output.obj
 0001:00011263       ??$type_case_integer@$09@?$output_processor@_WV?$string_output_adapter@_W@__crt_stdio_output@@V?$format_validation_base@_WV?$string_output_adapter@_W@__crt_stdio_output@@@2@@__crt_stdio_output@@AAE_N_N@Z 10012263 f i libucrt:output.obj
 0001:000113e5       ??$type_case_integer@$0BA@@?$output_processor@_WV?$string_output_adapter@_W@__crt_stdio_output@@V?$format_validation_base@_WV?$string_output_adapter@_W@__crt_stdio_output@@@2@@__crt_stdio_output@@AAE_N_N@Z 100123e5 f i libucrt:output.obj
 0001:00011567       ??$type_case_integer_parse_into_buffer@I$07@?$output_processor@_WV?$string_output_adapter@_W@__crt_stdio_output@@V?$format_validation_base@_WV?$string_output_adapter@_W@__crt_stdio_output@@@2@@__crt_stdio_output@@AAEXI_N@Z 10012567 f i libucrt:output.obj
 0001:000115d4       ??$type_case_integer_parse_into_buffer@I$09@?$output_processor@_WV?$string_output_adapter@_W@__crt_stdio_output@@V?$format_validation_base@_WV?$string_output_adapter@_W@__crt_stdio_output@@@2@@__crt_stdio_output@@AAEXI_N@Z 100125d4 f i libucrt:output.obj
 0001:00011663       ??$type_case_integer_parse_into_buffer@I$0BA@@?$output_processor@_WV?$string_output_adapter@_W@__crt_stdio_output@@V?$format_validation_base@_WV?$string_output_adapter@_W@__crt_stdio_output@@@2@@__crt_stdio_output@@AAEXI_N@Z 10012663 f i libucrt:output.obj
 0001:000116f0       ??$type_case_integer_parse_into_buffer@_K$07@?$output_processor@_WV?$string_output_adapter@_W@__crt_stdio_output@@V?$format_validation_base@_WV?$string_output_adapter@_W@__crt_stdio_output@@@2@@__crt_stdio_output@@AAEX_K_N@Z 100126f0 f i libucrt:output.obj
 0001:00011779       ??$type_case_integer_parse_into_buffer@_K$09@?$output_processor@_WV?$string_output_adapter@_W@__crt_stdio_output@@V?$format_validation_base@_WV?$string_output_adapter@_W@__crt_stdio_output@@@2@@__crt_stdio_output@@AAEX_K_N@Z 10012779 f i libucrt:output.obj
 0001:00011828       ??$type_case_integer_parse_into_buffer@_K$0BA@@?$output_processor@_WV?$string_output_adapter@_W@__crt_stdio_output@@V?$format_validation_base@_WV?$string_output_adapter@_W@__crt_stdio_output@@@2@@__crt_stdio_output@@AAEX_K_N@Z 10012828 f i libucrt:output.obj
 0001:000118c3       ??0?$output_adapter_data@_WV?$string_output_adapter@_W@__crt_stdio_output@@@__crt_stdio_output@@IAE@ABV?$string_output_adapter@_W@1@_KQB_WAAV__crt_cached_ptd_host@@QAD@Z 100128c3 f i libucrt:output.obj
 0001:0001192f       ??1formatting_buffer@__crt_stdio_output@@QAE@XZ 1001292f f i libucrt:output.obj
 0001:00011949       ??4?$__crt_unique_heap_ptr@DU__crt_internal_free_policy@@@@QAEAAV0@$$QAV0@@Z 10012949 f i libucrt:output.obj
 0001:0001196d       ?crop_zeroes@__crt_stdio_output@@YAXPADQAU__crt_locale_pointers@@@Z 1001296d f i libucrt:output.obj
 0001:000119cd       ?find_next_state@?$output_processor@_WV?$string_output_adapter@_W@__crt_stdio_output@@V?$format_validation_base@_WV?$string_output_adapter@_W@__crt_stdio_output@@@2@@__crt_stdio_output@@ABE?AW4state@2@_WW432@@Z 100129cd f i libucrt:output.obj
 0001:00011a09       ?force_decimal_point@__crt_stdio_output@@YAXPADQAU__crt_locale_pointers@@@Z 10012a09 f i libucrt:output.obj
 0001:00011a65       ?parse_int_from_format_string@?$output_processor@_WV?$string_output_adapter@_W@__crt_stdio_output@@V?$format_validation_base@_WV?$string_output_adapter@_W@__crt_stdio_output@@@2@@__crt_stdio_output@@AAE_NQAH@Z 10012a65 f i libucrt:output.obj
 0001:00011adf       ?process@?$output_processor@_WV?$string_output_adapter@_W@__crt_stdio_output@@V?$format_validation_base@_WV?$string_output_adapter@_W@__crt_stdio_output@@@2@@__crt_stdio_output@@QAEHXZ 10012adf f i libucrt:output.obj
 0001:00011d2f       ?state_case_size@?$output_processor@_WV?$string_output_adapter@_W@__crt_stdio_output@@V?$format_validation_base@_WV?$string_output_adapter@_W@__crt_stdio_output@@@2@@__crt_stdio_output@@AAE_NXZ 10012d2f f i libucrt:output.obj
 0001:00011ebd       ?state_case_type@?$output_processor@_WV?$string_output_adapter@_W@__crt_stdio_output@@V?$format_validation_base@_WV?$string_output_adapter@_W@__crt_stdio_output@@@2@@__crt_stdio_output@@AAE_NXZ 10012ebd f i libucrt:output.obj
 0001:000122de       ?to_integer_size@__crt_stdio_output@@YAIW4length_modifier@1@@Z 100132de f i libucrt:output.obj
 0001:00012332       ?type_case_Z@?$output_processor@_WV?$string_output_adapter@_W@__crt_stdio_output@@V?$format_validation_base@_WV?$string_output_adapter@_W@__crt_stdio_output@@@2@@__crt_stdio_output@@AAE_NXZ 10013332 f i libucrt:output.obj
 0001:0001238c       ?type_case_a@?$output_processor@_WV?$string_output_adapter@_W@__crt_stdio_output@@V?$format_validation_base@_WV?$string_output_adapter@_W@__crt_stdio_output@@@2@@__crt_stdio_output@@AAE_NXZ 1001338c f i libucrt:output.obj
 0001:0001252c       ?type_case_c_tchar@?$output_processor@_WV?$string_output_adapter@_W@__crt_stdio_output@@V?$format_validation_base@_WV?$string_output_adapter@_W@__crt_stdio_output@@@2@@__crt_stdio_output@@AAE_N_W@Z 1001352c f i libucrt:output.obj
 0001:000125d3       ?type_case_n@?$output_processor@_WV?$string_output_adapter@_W@__crt_stdio_output@@V?$format_validation_base@_WV?$string_output_adapter@_W@__crt_stdio_output@@@2@@__crt_stdio_output@@AAE_NXZ 100135d3 f i libucrt:output.obj
 0001:00012657       ?type_case_o@?$output_processor@_WV?$string_output_adapter@_W@__crt_stdio_output@@V?$format_validation_base@_WV?$string_output_adapter@_W@__crt_stdio_output@@@2@@__crt_stdio_output@@AAE_NXZ 10013657 f i libucrt:output.obj
 0001:00012674       ?type_case_p@?$output_processor@_WV?$string_output_adapter@_W@__crt_stdio_output@@V?$format_validation_base@_WV?$string_output_adapter@_W@__crt_stdio_output@@@2@@__crt_stdio_output@@AAE_NXZ 10013674 f i libucrt:output.obj
 0001:0001268a       ?type_case_s@?$output_processor@_WV?$string_output_adapter@_W@__crt_stdio_output@@V?$format_validation_base@_WV?$string_output_adapter@_W@__crt_stdio_output@@@2@@__crt_stdio_output@@AAE_NXZ 1001368a f i libucrt:output.obj
 0001:000126fd       ?type_case_s_compute_narrow_string_length@?$output_processor@_WV?$string_output_adapter@_W@__crt_stdio_output@@V?$format_validation_base@_WV?$string_output_adapter@_W@__crt_stdio_output@@@2@@__crt_stdio_output@@AAEHH_W@Z 100136fd f i libucrt:output.obj
 0001:00012752       ?unget@?$c_string_character_source@_W@__crt_strtox@@QAEX_W@Z 10013752 f i libucrt:output.obj
 0001:00012780       ?update_locale_slow@__crt_cached_ptd_host@@AAEXXZ 10013780 f i libucrt:output.obj
 0001:000127db       ?validate@?$c_string_character_source@_W@__crt_strtox@@QBE_NXZ 100137db f i libucrt:output.obj
 0001:000127f6       ?validate@?$string_output_adapter@_W@__crt_stdio_output@@QBE_NAAV__crt_cached_ptd_host@@@Z 100137f6 f i libucrt:output.obj
 0001:00012827       ?write_string@?$string_output_adapter@_W@__crt_stdio_output@@QBEXQB_WHQAHAAV__crt_cached_ptd_host@@@Z 10013827 f i libucrt:output.obj
 0001:00012898       ___acrt_locale_get_ctype_array_value 10013898 f i libucrt:output.obj
 0001:000128ba       ___stdio_common_vswprintf_s 100138ba f   libucrt:output.obj
 0001:000128fb       __seh_filter_dll           100138fb f   libucrt:exception_filter.obj
 0001:0001291b       __seh_filter_exe           1001391b f   libucrt:exception_filter.obj
 0001:00012d48       ___acrt_initialize_thread_local_exit_callback 10013d48 f   libucrt:exit.obj
 0001:00012d57       __cexit                    10013d57 f   libucrt:exit.obj
 0001:00012d66       __exit                     10013d66 f   libucrt:exit.obj
 0001:00012d7c       __is_c_termination_complete 10013d7c f   libucrt:exit.obj
 0001:00013034       ___acrt_allocate_buffer_for_argv 10014034 f   libucrt:argv_parsing.obj
 0001:00013083       __configure_narrow_argv    10014083 f   libucrt:argv_parsing.obj
 0001:0001322f       ___dcrt_uninitialize_environments_nolock 1001422f f   libucrt:environment_initialization.obj
 0001:00013280       __initialize_narrow_environment 10014280 f   libucrt:environment_initialization.obj
 0001:0001333b       ??$__crt_fast_encode_pointer@P6AHXZ@@YAP6AHXZQ6AHXZ@Z 1001433b f i libucrt:onexit.obj
 0001:0001333b       ??$__crt_fast_encode_pointer@PAP6AXXZ@@YAPAP6AXXZQAP6AXXZ@Z 1001433b f i libucrt:onexit.obj
 0001:0001333b       ??$__crt_fast_encode_pointer@PAX@@YAPAXQAX@Z 1001433b f i libucrt:initialization.obj
 0001:00013536       __crt_atexit               10014536 f   libucrt:onexit.obj
 0001:0001354c       __execute_onexit_table     1001454c f   libucrt:onexit.obj
 0001:0001358a       __initialize_onexit_table  1001458a f   libucrt:onexit.obj
 0001:000135b3       __register_onexit_function 100145b3 f   libucrt:onexit.obj
 0001:00013636       ___acrt_uninitialize_command_line 10014636 f   libucrt:argv_data.obj
 0001:000136e4       ___acrt_initialize         100146e4 f   libucrt:initialization.obj
 0001:000136f6       ___acrt_thread_attach      100146f6 f   libucrt:initialization.obj
 0001:00013701       ___acrt_thread_detach      10014701 f   libucrt:initialization.obj
 0001:00013709       ___acrt_uninitialize       10014709 f   libucrt:initialization.obj
 0001:00013739       ___acrt_uninitialize_critical 10014739 f   libucrt:initialization.obj
 0001:0001374b       __initterm                 1001474b f   libucrt:initterm.obj
 0001:00013776       __initterm_e               10014776 f   libucrt:initterm.obj
 0001:000137a4       ___acrt_initialize_new_handler 100147a4 f   libucrt:new_handler.obj
 0001:000137b3       __callnewh                 100147b3 f   libucrt:new_handler.obj
 0001:000137e0       __query_new_handler        100147e0 f   libucrt:new_handler.obj
 0001:0001383c       _terminate                 1001483c f   libucrt:terminate.obj
 0001:00013878       _abort                     10014878 f   libucrt:abort.obj
 0001:000138bc       _strcpy_s                  100148bc f   libucrt:strcpy_s.obj
 0001:00013920       _strncmp                   10014920 f   libucrt:strncmp.obj
 0001:00013998       _wcsncmp                   10014998 f   libucrt:wcsncmp.obj
 0001:000139d2       __free_base                100149d2 f   libucrt:free_base.obj
 0001:00013d4a       ___acrt_freeptd            10014d4a f   libucrt:per_thread_data.obj
 0001:00013d76       ___acrt_getptd             10014d76 f   libucrt:per_thread_data.obj
 0001:00013e31       ___acrt_getptd_head        10014e31 f   libucrt:per_thread_data.obj
 0001:00013ec7       ___acrt_getptd_noexit      10014ec7 f   libucrt:per_thread_data.obj
 0001:00013f78       ___acrt_getptd_noexit_explicit 10014f78 f   libucrt:per_thread_data.obj
 0001:0001401b       ___acrt_initialize_ptd     1001501b f   libucrt:per_thread_data.obj
 0001:00014047       ___acrt_uninitialize_ptd   10015047 f   libucrt:per_thread_data.obj
 0001:000140cf       ___acrt_set_locale_changed 100150cf f   libucrt:wsetlocale.obj
 0001:000140da       ___acrt_uninitialize_locale 100150da f   libucrt:wsetlocale.obj
 0001:00014101       __calloc_base              10015101 f   libucrt:calloc_base.obj
 0001:0001415e       __malloc_base              1001515e f   libucrt:malloc_base.obj
 0001:000141ac       __msize_base               100151ac f   libucrt:msize.obj
 0001:000141df       __realloc_base             100151df f   libucrt:realloc_base.obj
 0001:000143e4       ___acrt_AppPolicyGetProcessTerminationMethodInternal@4 100153e4 f   libucrt:winapi_thunks.obj
 0001:00014424       ___acrt_AreFileApisANSI@0  10015424 f   libucrt:winapi_thunks.obj
 0001:00014443       ___acrt_FlsAlloc@4         10015443 f   libucrt:winapi_thunks.obj
 0001:00014482       ___acrt_FlsFree@4          10015482 f   libucrt:winapi_thunks.obj
 0001:000144c1       ___acrt_FlsGetValue@4      100154c1 f   libucrt:winapi_thunks.obj
 0001:00014500       ___acrt_FlsSetValue@8      10015500 f   libucrt:winapi_thunks.obj
 0001:00014542       ___acrt_InitializeCriticalSectionEx@12 10015542 f   libucrt:winapi_thunks.obj
 0001:0001458d       ___acrt_LCMapStringEx@36   1001558d f   libucrt:winapi_thunks.obj
 0001:000145ea       ___acrt_LocaleNameToLCID@8 100155ea f   libucrt:winapi_thunks.obj
 0001:0001461b       ___acrt_SetThreadStackGuarantee@4 1001561b f   libucrt:winapi_thunks.obj
 0001:00014656       ___acrt_initialize_winapi_thunks 10015656 f   libucrt:winapi_thunks.obj
 0001:0001466a       ___acrt_uninitialize_winapi_thunks 1001566a f   libucrt:winapi_thunks.obj
 0001:000146a0       _wcsnlen                   100156a0 f   libucrt:strnlen.obj
 0001:00014850       ___acrt_update_locale_info 10015850 f   libucrt:locale_update.obj
 0001:0001487d       ___acrt_update_locale_info_explicit 1001587d f   libucrt:locale_update.obj
 0001:000148ae       ___acrt_update_multibyte_info 100158ae f   libucrt:locale_update.obj
 0001:000148db       ___acrt_update_multibyte_info_explicit 100158db f   libucrt:locale_update.obj
 0001:0001490c       ?__acrt_fp_classify@@YA?AW4__acrt_fp_class@@ABN@Z 1001590c f i libucrt:cvt.obj
 0001:000152d5       ___acrt_fp_format          100162d5 f   libucrt:cvt.obj
 0001:00015456       __mbtowc_internal          10016456 f   libucrt:mbtowc.obj
 0001:00015589       __fileno                   10016589 f   libucrt:fileno.obj
 0001:000155b0       ___acrt_initialize_stdio   100165b0 f   libucrt:_file.obj
 0001:00015678       ___acrt_uninitialize_stdio 10016678 f   libucrt:_file.obj
 0001:000156c4       __lock_file                100166c4 f   libucrt:_file.obj
 0001:000156d8       __unlock_file              100166d8 f   libucrt:_file.obj
 0001:000156ec       __get_printf_count_output  100166ec f   libucrt:printf_count_output.obj
 0001:00015867       ___acrt_initialize_lowio   10016867 f   libucrt:ioinit.obj
 0001:000158c7       ___acrt_uninitialize_lowio 100168c7 f   libucrt:ioinit.obj
 0001:000158f3       ___acrt_initialize_locks   100168f3 f   libucrt:locks.obj
 0001:00015934       ___acrt_lock               10016934 f   libucrt:locks.obj
 0001:0001594b       ___acrt_uninitialize_locks 1001694b f   libucrt:locks.obj
 0001:0001597c       ___acrt_unlock             1001697c f   libucrt:locks.obj
 0001:00015993       ___acrt_get_process_end_policy 10016993 f   libucrt:win_policies.obj
 0001:000159dc       ??$__acrt_convert_wcs_mbs_cp@D_WV<lambda_62f6974d9771e494a5ea317cc32e971c>@@U__crt_win32_buffer_internal_dynamic_resizing@@@@YAHQBDAAV?$__crt_win32_buffer@_WU__crt_win32_buffer_internal_dynamic_resizing@@@@ABV<lambda_62f6974d9771e494a5ea317cc32e971c>@@I@Z 100169dc f i libucrt:argv_wildcards.obj
 0001:00015a8e       ??$__acrt_convert_wcs_mbs_cp@_WDV<lambda_28bda7af82a03b66c1cb3803a755f95d>@@U__crt_win32_buffer_internal_dynamic_resizing@@@@YAHQB_WAAV?$__crt_win32_buffer@DU__crt_win32_buffer_internal_dynamic_resizing@@@@ABV<lambda_28bda7af82a03b66c1cb3803a755f95d>@@I@Z 10016a8e f i libucrt:argv_wildcards.obj
 0001:00015b54       ??$__acrt_mbs_to_wcs_cp@U__crt_win32_buffer_internal_dynamic_resizing@@@@YAHQBDAAV?$__crt_win32_buffer@_WU__crt_win32_buffer_internal_dynamic_resizing@@@@I@Z 10016b54 f i libucrt:argv_wildcards.obj
 0001:00016024       ??0_LocaleUpdate@@QAE@QAU__crt_locale_pointers@@@Z 10017024 f i libucrt:argv_wildcards.obj
 0001:000160cf       ??R<lambda_28bda7af82a03b66c1cb3803a755f95d>@@QBEHIQB_WQADI@Z 100170cf f i libucrt:argv_wildcards.obj
 0001:000160cf       ??R<lambda_0fec1a7b3f42a53036604e18c2d5e07e>@@QBEHIQB_WQADI@Z 100170cf f i libucrt:getmodulefilenamea.obj
 0001:000160f3       ?__acrt_get_utf8_acp_compatibility_codepage@@YAIXZ 100170f3 f i libucrt:argv_wildcards.obj
 0001:00016132       ?_deallocate@?$__crt_win32_buffer@_WU__crt_win32_buffer_internal_dynamic_resizing@@@@AAEXXZ 10017132 f i libucrt:argv_wildcards.obj
 0001:00016132       ?_deallocate@?$__crt_win32_buffer@DU__crt_win32_buffer_internal_dynamic_resizing@@@@AAEXXZ 10017132 f i libucrt:argv_wildcards.obj
 0001:0001614c       ?allocate@?$__crt_win32_buffer@DU__crt_win32_buffer_internal_dynamic_resizing@@@@QAEHI@Z 1001714c f i libucrt:argv_wildcards.obj
 0001:00016188       ?allocate@?$__crt_win32_buffer@_WU__crt_win32_buffer_internal_dynamic_resizing@@@@QAEHI@Z 10017188 f i libucrt:argv_wildcards.obj
 0001:000161c7       ?allocate@__crt_win32_buffer_internal_dynamic_resizing@@SAHQAPAXIABV__crt_win32_buffer_empty_debug_info@@@Z 100171c7 f i libucrt:argv_wildcards.obj
 0001:0001626d       ___acrt_expand_narrow_argv_wildcards 1001726d f   libucrt:argv_wildcards.obj
 0001:00016278       ??$__acrt_convert_wcs_mbs_cp@_WDV<lambda_0fec1a7b3f42a53036604e18c2d5e07e>@@U__crt_win32_buffer_no_resizing@@@@YAHQB_WAAV?$__crt_win32_buffer@DU__crt_win32_buffer_no_resizing@@@@ABV<lambda_0fec1a7b3f42a53036604e18c2d5e07e>@@I@Z 10017278 f i libucrt:getmodulefilenamea.obj
 0001:0001633a       ?allocate@?$__crt_win32_buffer@DU__crt_win32_buffer_no_resizing@@@@QAEHI@Z 1001733a f i libucrt:getmodulefilenamea.obj
 0001:00016361       ?set_to_nullptr@?$__crt_win32_buffer@DU__crt_win32_buffer_no_resizing@@@@QAEXXZ 10017361 f i libucrt:getmodulefilenamea.obj
 0001:00016375       ___acrt_GetModuleFileNameA 10017375 f   libucrt:getmodulefilenamea.obj
 0001:00016999       ___acrt_initialize_multibyte 10017999 f   libucrt:mbctype.obj
 0001:000169e1       ___acrt_update_thread_multibyte_data 100179e1 f   libucrt:mbctype.obj
 0001:000169f4       __setmbcp_nolock           100179f4 f   libucrt:mbctype.obj
 0001:00016ccd       __ismbblead                10017ccd f   libucrt:ismbbyte.obj
 0001:00016ce5       ___acrt_initialize_command_line 10017ce5 f   libucrt:argv_data.obj
 0001:00016cfe       ___acrt_MultiByteToWideChar 10017cfe f   libucrt:multibytetowidechar.obj
 0001:00016d7a       ___acrt_WideCharToMultiByte 10017d7a f   libucrt:widechartomultibyte.obj
 0001:00016e68       ___dcrt_get_narrow_environment_from_os 10017e68 f   libucrt:get_environment_from_os.obj
 0001:00016f08       ___acrt_initialize_heap    10017f08 f   libucrt:heap_handle.obj
 0001:00016f19       ___acrt_uninitialize_heap  10017f19 f   libucrt:heap_handle.obj
 0001:00016f23       ___acrt_execute_initializers 10017f23 f   libucrt:shared_initialization.obj
 0001:00016f8b       ___acrt_execute_uninitializers 10017f8b f   libucrt:shared_initialization.obj
 0001:0001708a       ___acrt_get_sigabrt_handler 1001808a f   libucrt:signal.obj
 0001:000170b1       ___acrt_initialize_signal_handlers 100180b1 f   libucrt:signal.obj
 0001:000170cf       _raise                     100180cf f   libucrt:signal.obj
 0001:000172c2       ___acrt_has_user_matherr   100182c2 f   libucrt:matherr.obj
 0001:000172da       ___acrt_initialize_user_matherr 100182da f   libucrt:matherr.obj
 0001:000172e9       ___acrt_invoke_user_matherr 100182e9 f   libucrt:matherr.obj
 0001:000174f8       ___acrt_stdio_flush_nolock 100184f8 f   libucrt:fflush.obj
 0001:00017561       __fflush_nolock            10018561 f   libucrt:fflush.obj
 0001:000175c6       __flushall                 100185c6 f   libucrt:fflush.obj
 0001:000175cf       ___acrt_add_locale_ref     100185cf f   libucrt:locale_refcounting.obj
 0001:0001764c       ___acrt_free_locale        1001864c f   libucrt:locale_refcounting.obj
 0001:00017794       ___acrt_locale_add_lc_time_reference 10018794 f   libucrt:locale_refcounting.obj
 0001:000177bd       ___acrt_locale_free_lc_time_if_unreferenced 100187bd f   libucrt:locale_refcounting.obj
 0001:000177ee       ___acrt_locale_release_lc_time_reference 100187ee f   libucrt:locale_refcounting.obj
 0001:00017817       ___acrt_release_locale_ref 10018817 f   libucrt:locale_refcounting.obj
 0001:00017898       ___acrt_update_thread_locale_data 10018898 f   libucrt:locale_refcounting.obj
 0001:00017919       __updatetlocinfoEx_nolock  10018919 f   libucrt:locale_refcounting.obj
 0001:00017969       ___acrt_locale_free_monetary 10018969 f   libucrt:initmon.obj
 0001:00017a67       ___acrt_locale_free_numeric 10018a67 f   libucrt:initnum.obj
 0001:00017af5       ___acrt_locale_free_time   10018af5 f   libucrt:inittime.obj
 0001:00017bd9       ___acrt_GetStringTypeA     10018bd9 f   libucrt:getstringtypea.obj
 0001:00017ce2       __freea_crt                10018ce2 f i libucrt:getstringtypea.obj
 0001:00017d02       __query_new_mode           10018d02 f   libucrt:new_mode.obj
 0001:00017d59       ___acrt_DownlevelLocaleNameToLCID 10018d59 f   libucrt:lcidtoname_downlevel.obj
 0001:00017e03       ___acrt_fp_strflt_to_string 10018e03 f   libucrt:_fptostr.obj
 0001:00017f00       ?divide@__crt_strtox@@YA_KAAUbig_integer@1@ABU21@@Z 10018f00 f i libucrt:cfout.obj
 0001:00018388       ___acrt_fltout             10019388 f   libucrt:cfout.obj
 0001:000198c1       _fegetround                1001a8c1 f   libucrt:fegetround.obj
 0001:000198fa       ?__mbrtowc_utf8@__crt_mbstring@@YAIPA_WPBDIPAU_Mbstatet@@AAV__crt_cached_ptd_host@@@Z 1001a8fa f   libucrt:mbrtowc.obj
 0001:0001993d       ?__mbsrtowcs_utf8@__crt_mbstring@@YAIPA_WPAPBDIPAU_Mbstatet@@AAV__crt_cached_ptd_host@@@Z 1001a93d f   libucrt:mbrtowc.obj
 0001:00019a45       __fcloseall                1001aa45 f   libucrt:closeall.obj
 0001:00019af0       ___acrt_stdio_free_buffer_nolock 1001aaf0 f   libucrt:_freebuf.obj
 0001:00019b30       __isatty                   1001ab30 f   libucrt:isatty.obj
 0001:00019b86       ___acrt_lowio_create_handle_array 1001ab86 f   libucrt:osfinfo.obj
 0001:00019c01       ___acrt_lowio_destroy_handle_array 1001ac01 f   libucrt:osfinfo.obj
 0001:00019c36       ___acrt_lowio_ensure_fh_exists 1001ac36 f   libucrt:osfinfo.obj
 0001:00019cd4       ___acrt_lowio_lock_fh      1001acd4 f   libucrt:osfinfo.obj
 0001:00019cf7       ___acrt_lowio_unlock_fh    1001acf7 f   libucrt:osfinfo.obj
 0001:00019d1a       __free_osfhnd              1001ad1a f   libucrt:osfinfo.obj
 0001:00019dab       __get_osfhandle            1001adab f   libucrt:osfinfo.obj
 0001:00019e20       _qsort                     1001ae20 f   libucrt:qsort.obj
 0001:0001a3c5       _strncpy_s                 1001b3c5 f   libucrt:strncpy_s.obj
 0001:0001a3d0       _strpbrk                   1001b3d0 f   libucrt:strpbrk.obj
 0001:0001a410       __mbsdec                   1001b410 f   libucrt:mbsdec.obj
 0001:0001a427       __mbsdec_l                 1001b427 f   libucrt:mbsdec.obj
 0001:0001a6a2       ___acrt_LCMapStringA       1001b6a2 f   libucrt:lcmapstringa.obj
 0001:0001a79c       __commit                   1001b79c f   libucrt:commit.obj
 0001:0001afc7       __write_internal           1001bfc7 f   libucrt:write.obj
 0001:0001b0cf       __write_nolock             1001c0cf f   libucrt:write.obj
 0001:0001b2cf       ___ascii_wcsnicmp          1001c2cf f   libucrt:wcsnicmp.obj
 0001:0001b31e       __controlfp_s              1001c31e f   libucrt:contrlfp.obj
 0001:0001b37d       _fegetenv                  1001c37d f   libucrt:fegetenv.obj
 0001:0001b39a       _fesetenv                  1001c39a f   libucrt:fesetenv.obj
 0001:0001b3e5       _feholdexcept              1001c3e5 f   libucrt:feholdexcept.obj
 0001:0001b440       __CIlog10                  1001c440 f   libucrt:log10_impl.obj
 0001:0001b47b       __CIlog10_default          1001c47b f   libucrt:log10_impl.obj
 0001:0001b48f       __log10_default            1001c48f     libucrt:log10_impl.obj
 0001:0001b550       _ceil                      1001c550 f   libucrt:ceil_pentium4.obj
 0001:0001b590       __ceil_pentium4            1001c590 f   libucrt:ceil_pentium4.obj
 0001:0001b936       ___acrt_fenv_get_common_round_control 1001c936 f   libucrt:_fenvutils.obj
 0001:0001b958       ___acrt_fenv_get_control   1001c958 f   libucrt:_fenvutils.obj
 0001:0001b9d8       ___acrt_fenv_get_status    1001c9d8 f   libucrt:_fenvutils.obj
 0001:0001ba82       ___acrt_fenv_set_control   1001ca82 f   libucrt:_fenvutils.obj
 0001:0001bafd       ___acrt_fenv_set_status    1001cafd f   libucrt:_fenvutils.obj
 0001:0001bbf7       ?reset_and_return@__crt_mbstring@@YAIIPAU_Mbstatet@@@Z 1001cbf7 f   libucrt:common_utf8.obj
 0001:0001bc0b       ?return_illegal_sequence@__crt_mbstring@@YAIPAU_Mbstatet@@AAV__crt_cached_ptd_host@@@Z 1001cc0b f   libucrt:common_utf8.obj
 0001:0001bc2d       ?__mbrtoc32_utf8@__crt_mbstring@@YAIPA_UPBDIPAU_Mbstatet@@AAV__crt_cached_ptd_host@@@Z 1001cc2d f   libucrt:mbrtoc32.obj
 0001:0001bf10       _fclose                    1001cf10 f   libucrt:fclose.obj
 0001:0001bfc3       __lseeki64_nolock_internal 1001cfc3 f   libucrt:lseek.obj
 0001:0001bfe1       __query_app_type           1001cfe1 f   libucrt:report_runtime_error.obj
 0001:0001bfe7       ___strncnt                 1001cfe7 f   libucrt:strncnt.obj
 0001:0001c003       __putwch_nolock            1001d003 f   libucrt:putwch.obj
 0001:0001c0dc       __clearfp                  1001d0dc f   libucrt:ieee87.obj
 0001:0001c1ba       __control87                1001d1ba f   libucrt:ieee87.obj
 0001:0001c559       ___acrt_initialize_sse2    1001d559 f   libucrt:mathfcns.obj
 0001:0001c570       __CIlog10_pentium4         1001d570 f   libucrt:log10_pentium4.obj
 0001:0001c588       __log10_pentium4           1001d588     libucrt:log10_pentium4.obj
 0001:0001c820       __fFEXP                    1001d820 f   libucrt:87tran.obj
 0001:0001c877       __rtinfpopse               1001d877     libucrt:87tran.obj
 0001:0001c879       __rtinfnpopse              1001d879     libucrt:87tran.obj
 0001:0001c889       __fFLN                     1001d889     libucrt:87tran.obj
 0001:0001c93e       __rtinfpop                 1001d93e     libucrt:87tran.obj
 0001:0001c940       __rtinfnpop                1001d940     libucrt:87tran.obj
 0001:0001c950       __rtforexpinf              1001d950 f   libucrt:87tran.obj
 0001:0001c95d       __ffexpm1                  1001d95d     libucrt:87tran.obj
 0001:0001ca10       __trandisp1                1001da10 f   libucrt:87disp.obj
 0001:0001ca85       __trandisp2                1001da85 f   libucrt:87disp.obj
 0001:0001cb1f       __rttospopde               1001db1f     libucrt:87disp.obj
 0001:0001cb24       __rttospop                 1001db24     libucrt:87disp.obj
 0001:0001cb30       __rtnospop                 1001db30 f   libucrt:87disp.obj
 0001:0001cb40       __rttosnpop                1001db40 f   libucrt:87disp.obj
 0001:0001cb41       __rtnospopde               1001db41     libucrt:87disp.obj
 0001:0001cb48       __rtzeropop                1001db48     libucrt:87disp.obj
 0001:0001cb4a       __rtzeronpop               1001db4a     libucrt:87disp.obj
 0001:0001cb50       __rtzerospop               1001db50 f   libucrt:87disp.obj
 0001:0001cb5d       __rtonepop                 1001db5d     libucrt:87disp.obj
 0001:0001cb60       __rtonenpop                1001db60 f   libucrt:87disp.obj
 0001:0001cb70       __tosnan1                  1001db70 f   libucrt:87disp.obj
 0001:0001cba0       __nosnan2                  1001dba0 f   libucrt:87disp.obj
 0001:0001cbb0       __tosnan2                  1001dbb0 f   libucrt:87disp.obj
 0001:0001cbe0       __nan2                     1001dbe0 f   libucrt:87disp.obj
 0001:0001cc20       __rtindfpop                1001dc20 f   libucrt:87disp.obj
 0001:0001cc22       __rtindfnpop               1001dc22     libucrt:87disp.obj
 0001:0001cc33       __rttosnpopde              1001dc33     libucrt:87disp.obj
 0001:0001cc40       __rtatan2inf               1001dc40 f   libucrt:87disp.obj
 0001:0001cc5d       __rtchsifneg               1001dc5d     libucrt:87disp.obj
 0001:0001cc70       __twoToTOS                 1001dc70 f   libucrt:common.obj
 0001:0001cc85       __load_CW                  1001dc85 f   libucrt:common.obj
 0001:0001cc9c       __convertTOStoQNaN         1001dc9c f   libucrt:common.obj
 0001:0001ccb5       __fload_withFB             1001dcb5 f   libucrt:common.obj
 0001:0001ccf8       __checkTOS_withFB          1001dcf8 f   libucrt:common.obj
 0001:0001cd0e       __fast_exit                1001dd0e f   libucrt:common.obj
 0001:0001cd1b       __math_exit                1001dd1b f   libucrt:common.obj
 0001:0001cd45       __check_overflow_exit      1001dd45 f   libucrt:common.obj
 0001:0001cd59       __check_range_exit         1001dd59 f   libucrt:common.obj
 0001:0001ce00       __startTwoArgErrorHandling 1001de00 f   libucrt:genexcep.obj
 0001:0001ce17       __startOneArgErrorHandling 1001de17 f   libucrt:genexcep.obj
 0001:0001ce53       ___libm_error_support      1001de53 f   libucrt:libm_error.obj
 0001:0001d047       __ceil_default             1001e047 f   libucrt:ceil.obj
 0001:0001d18d       __close_internal           1001e18d f   libucrt:close.obj
 0001:0001d230       __close_nolock_internal    1001e230 f   libucrt:close.obj
 0001:0001d2d0       ?__acrt_stdio_free_stream@@YAXV__crt_stdio_stream@@@Z 1001e2d0 f   libucrt:stream.obj
 0001:0001d310       ___ascii_strnicmp          1001e310 f   libucrt:_strnicm.obj
 0001:0001d390       ___dcrt_lowio_ensure_console_output_initialized 1001e390 f   libucrt:initcon.obj
 0001:0001d3af       ___dcrt_terminate_console_output 1001e3af f   libucrt:initcon.obj
 0001:0001d3c6       ___dcrt_write_console      1001e3c6 f   libucrt:initcon.obj
 0001:0001d41b       ___set_fpsr_sse2           1001e41b f   libucrt:fpctrl.obj
 0001:0001d49b       __clrfp                    1001e49b f   libucrt:fpctrl.obj
 0001:0001d4ac       __ctrlfp                   1001e4ac f   libucrt:fpctrl.obj
 0001:0001d4d6       __set_statfp               1001e4d6 f   libucrt:fpctrl.obj
 0001:0001d52f       __statfp                   1001e52f f   libucrt:fpctrl.obj
 0001:0001d53f       __d_inttype                1001e53f f   libucrt:powhlp.obj
 0001:0001d5a7       __powhlp                   1001e5a7 f   libucrt:powhlp.obj
 0001:0001d6d2       __87except                 1001e6d2 f   libucrt:87except.obj
 0001:0001d7dc       __frnd                     1001e7dc f   libucrt:frnd.obj
 0001:0001d7f0       __errcode                  1001e7f0 f   libucrt:fpexcept.obj
 0001:0001d824       __except1                  1001e824 f   libucrt:fpexcept.obj
 0001:0001d8f2       __handle_exc               1001e8f2 f   libucrt:fpexcept.obj
 0001:0001db6b       __raise_exc                1001eb6b f   libucrt:fpexcept.obj
 0001:0001db8e       __raise_exc_ex             1001eb8e f   libucrt:fpexcept.obj
 0001:0001de84       __set_errno_from_matherr   1001ee84 f   libucrt:fpexcept.obj
 0001:0001deb3       __umatherr                 1001eeb3 f   libucrt:fpexcept.obj
 0001:0001df53       __decomp                   1001ef53 f   libucrt:util.obj
 0001:0001e025       __set_exp                  1001f025 f   libucrt:util.obj
 0001:0001e052       __sptype                   1001f052 f   libucrt:util.obj
 0001:0001e0b0       __fpclass                  1001f0b0 f   libucrt:ieeemisc.obj
 0001:0001e160       __FindPESection            1001f160 f   LIBCMT:pesect.obj
 0001:0001e1b0       __IsNonwritableInCurrentImage 1001f1b0 f   LIBCMT:pesect.obj
 0001:0001e270       __ValidateImageBase        1001f270 f   LIBCMT:pesect.obj
 0001:0001e2a1       __EH_epilog3               1001f2a1 f   LIBCMT:ehprolg3.obj
 0001:0001e2b5       __EH_prolog3               1001f2b5 f   LIBCMT:ehprolg3.obj
 0001:0001e2e8       __EH_prolog3_catch         1001f2e8 f   LIBCMT:ehprolg3.obj
 0001:0001e320       __aulldvrm                 1001f320 f   LIBCMT:ulldvrm.obj
 0001:0001e3c0       __allmul                   1001f3c0 f   LIBCMT:llmul.obj
 0001:0001e400       __alldvrm                  1001f400 f   LIBCMT:lldvrm.obj
 0001:0001e4e0       __allshl                   1001f4e0 f   LIBCMT:llshl.obj
 0001:0001e500       __aullshr                  1001f500 f   LIBCMT:ullshr.obj
 0001:0001e520       __ftol2_sse                1001f520 f   LIBCMT:ftol2.obj
 0001:0001e530       __ftoi2                    1001f530 f   LIBCMT:ftol2.obj
 0001:0001e5b0       _strrchr                   1001f5b0 f   libvcruntime:strrchr.obj
 0001:0001e6f0       __filter_x86_sse2_floating_point_exception 1001f6f0 f   LIBCMT:x86_exception_filter.obj
 0001:0001e6f0       __filter_x86_sse2_floating_point_exception_default 1001f6f0 f   LIBCMT:x86_exception_filter.obj
 0002:00000000       __imp__RegQueryValueExW@24 10020000     advapi32:ADVAPI32.dll
 0002:00000004       __imp__RegSetValueExW@24   10020004     advapi32:ADVAPI32.dll
 0002:00000008       __imp__RegQueryInfoKeyW@48 10020008     advapi32:ADVAPI32.dll
 0002:0000000c       __imp__RegOpenKeyExW@20    1002000c     advapi32:ADVAPI32.dll
 0002:00000010       __imp__RegEnumKeyExW@32    10020010     advapi32:ADVAPI32.dll
 0002:00000014       __imp__RegDeleteValueW@8   10020014     advapi32:ADVAPI32.dll
 0002:00000018       __imp__RegDeleteKeyW@8     10020018     advapi32:ADVAPI32.dll
 0002:0000001c       __imp__RegCreateKeyExW@36  1002001c     advapi32:ADVAPI32.dll
 0002:00000020       __imp__RegCloseKey@4       10020020     advapi32:ADVAPI32.dll
 0002:00000024       \177ADVAPI32_NULL_THUNK_DATA 10020024     advapi32:ADVAPI32.dll
 0002:00000028       __imp__GetObjectW@12       10020028     gdi32:GDI32.dll
 0002:0000002c       __imp__SelectObject@8      1002002c     gdi32:GDI32.dll
 0002:00000030       __imp__DeleteObject@4      10020030     gdi32:GDI32.dll
 0002:00000034       __imp__CreateCompatibleDC@4 10020034     gdi32:GDI32.dll
 0002:00000038       __imp__BitBlt@36           10020038     gdi32:GDI32.dll
 0002:0000003c       __imp__SetWindowOrgEx@16   1002003c     gdi32:GDI32.dll
 0002:00000040       __imp__SetWindowExtEx@16   10020040     gdi32:GDI32.dll
 0002:00000044       __imp__SetViewportOrgEx@16 10020044     gdi32:GDI32.dll
 0002:00000048       __imp__LPtoDP@12           10020048     gdi32:GDI32.dll
 0002:0000004c       __imp__SetMapMode@8        1002004c     gdi32:GDI32.dll
 0002:00000050       __imp__SaveDC@4            10020050     gdi32:GDI32.dll
 0002:00000054       __imp__RestoreDC@8         10020054     gdi32:GDI32.dll
 0002:00000058       __imp__GetDeviceCaps@8     10020058     gdi32:GDI32.dll
 0002:0000005c       __imp__DeleteMetaFile@4    1002005c     gdi32:GDI32.dll
 0002:00000060       __imp__DeleteDC@4          10020060     gdi32:GDI32.dll
 0002:00000064       __imp__CreateRectRgnIndirect@4 10020064     gdi32:GDI32.dll
 0002:00000068       __imp__CreateMetaFileW@4   10020068     gdi32:GDI32.dll
 0002:0000006c       __imp__CreateDCW@16        1002006c     gdi32:GDI32.dll
 0002:00000070       __imp__CloseMetaFile@4     10020070     gdi32:GDI32.dll
 0002:00000074       \177GDI32_NULL_THUNK_DATA  10020074     gdi32:GDI32.dll
 0002:00000078       __imp__CloseHandle@4       10020078     kernel32:KERNEL32.dll
 0002:0000007c       __imp__SetEvent@4          1002007c     kernel32:KERNEL32.dll
 0002:00000080       __imp__CreateMutexW@12     10020080     kernel32:KERNEL32.dll
 0002:00000084       __imp__CreateEventW@16     10020084     kernel32:KERNEL32.dll
 0002:00000088       __imp__GetCurrentProcessId@0 10020088     kernel32:KERNEL32.dll
 0002:0000008c       __imp__CreateFileW@28      1002008c     kernel32:KERNEL32.dll
 0002:00000090       __imp__GetConsoleMode@8    10020090     kernel32:KERNEL32.dll
 0002:00000094       __imp__GetConsoleOutputCP@0 10020094     kernel32:KERNEL32.dll
 0002:00000098       __imp__WriteFile@20        10020098     kernel32:KERNEL32.dll
 0002:0000009c       __imp__FlushFileBuffers@4  1002009c     kernel32:KERNEL32.dll
 0002:000000a0       __imp__SetStdHandle@8      100200a0     kernel32:KERNEL32.dll
 0002:000000a4       __imp__SetFilePointerEx@20 100200a4     kernel32:KERNEL32.dll
 0002:000000a8       __imp__GetStringTypeW@16   100200a8     kernel32:KERNEL32.dll
 0002:000000ac       __imp__FreeEnvironmentStringsW@4 100200ac     kernel32:KERNEL32.dll
 0002:000000b0       __imp__GetEnvironmentStringsW@0 100200b0     kernel32:KERNEL32.dll
 0002:000000b4       __imp__lstrcmpiW@8         100200b4     kernel32:KERNEL32.dll
 0002:000000b8       __imp__GetCommandLineA@0   100200b8     kernel32:KERNEL32.dll
 0002:000000bc       __imp__GetCPInfo@8         100200bc     kernel32:KERNEL32.dll
 0002:000000c0       __imp__GetOEMCP@0          100200c0     kernel32:KERNEL32.dll
 0002:000000c4       __imp__GetACP@0            100200c4     kernel32:KERNEL32.dll
 0002:000000c8       __imp__IsValidCodePage@4   100200c8     kernel32:KERNEL32.dll
 0002:000000cc       __imp__FindNextFileW@8     100200cc     kernel32:KERNEL32.dll
 0002:000000d0       __imp__FindFirstFileExW@24 100200d0     kernel32:KERNEL32.dll
 0002:000000d4       __imp__FindClose@4         100200d4     kernel32:KERNEL32.dll
 0002:000000d8       __imp__GetFileType@4       100200d8     kernel32:KERNEL32.dll
 0002:000000dc       __imp__GetStdHandle@4      100200dc     kernel32:KERNEL32.dll
 0002:000000e0       __imp__LCMapStringW@24     100200e0     kernel32:KERNEL32.dll
 0002:000000e4       __imp__HeapReAlloc@16      100200e4     kernel32:KERNEL32.dll
 0002:000000e8       __imp__HeapSize@12         100200e8     kernel32:KERNEL32.dll
 0002:000000ec       __imp__MulDiv@12           100200ec     kernel32:KERNEL32.dll
 0002:000000f0       __imp__GlobalLock@4        100200f0     kernel32:KERNEL32.dll
 0002:000000f4       __imp__GlobalUnlock@4      100200f4     kernel32:KERNEL32.dll
 0002:000000f8       __imp__GlobalAlloc@8       100200f8     kernel32:KERNEL32.dll
 0002:000000fc       __imp__FindResourceW@12    100200fc     kernel32:KERNEL32.dll
 0002:00000100       __imp__SizeofResource@8    10020100     kernel32:KERNEL32.dll
 0002:00000104       __imp__LoadResource@8      10020104     kernel32:KERNEL32.dll
 0002:00000108       __imp__LoadLibraryExW@12   10020108     kernel32:KERNEL32.dll
 0002:0000010c       __imp__GetProcAddress@8    1002010c     kernel32:KERNEL32.dll
 0002:00000110       __imp__GetModuleHandleW@4  10020110     kernel32:KERNEL32.dll
 0002:00000114       __imp__GetModuleFileNameW@12 10020114     kernel32:KERNEL32.dll
 0002:00000118       __imp__FreeLibrary@4       10020118     kernel32:KERNEL32.dll
 0002:0000011c       __imp__DisableThreadLibraryCalls@4 1002011c     kernel32:KERNEL32.dll
 0002:00000120       __imp__GetCurrentThreadId@0 10020120     kernel32:KERNEL32.dll
 0002:00000124       __imp__Sleep@4             10020124     kernel32:KERNEL32.dll
 0002:00000128       __imp__WaitForSingleObject@8 10020128     kernel32:KERNEL32.dll
 0002:0000012c       __imp__ReleaseMutex@4      1002012c     kernel32:KERNEL32.dll
 0002:00000130       __imp__ResetEvent@4        10020130     kernel32:KERNEL32.dll
 0002:00000134       __imp__EnterCriticalSection@4 10020134     kernel32:KERNEL32.dll
 0002:00000138       __imp__LeaveCriticalSection@4 10020138     kernel32:KERNEL32.dll
 0002:0000013c       __imp__SetLastError@4      1002013c     kernel32:KERNEL32.dll
 0002:00000140       __imp__EncodePointer@4     10020140     kernel32:KERNEL32.dll
 0002:00000144       __imp__DeleteCriticalSection@4 10020144     kernel32:KERNEL32.dll
 0002:00000148       __imp__InitializeCriticalSectionEx@12 10020148     kernel32:KERNEL32.dll
 0002:0000014c       __imp__GetLastError@0      1002014c     kernel32:KERNEL32.dll
 0002:00000150       __imp__RaiseException@16   10020150     kernel32:KERNEL32.dll
 0002:00000154       __imp__DecodePointer@4     10020154     kernel32:KERNEL32.dll
 0002:00000158       __imp__WideCharToMultiByte@32 10020158     kernel32:KERNEL32.dll
 0002:0000015c       __imp__GetCommandLineW@0   1002015c     kernel32:KERNEL32.dll
 0002:00000160       __imp__MultiByteToWideChar@24 10020160     kernel32:KERNEL32.dll
 0002:00000164       __imp__WriteConsoleW@20    10020164     kernel32:KERNEL32.dll
 0002:00000168       __imp__GetModuleHandleExW@12 10020168     kernel32:KERNEL32.dll
 0002:0000016c       __imp__ExitProcess@4       1002016c     kernel32:KERNEL32.dll
 0002:00000170       __imp__VirtualQuery@12     10020170     kernel32:KERNEL32.dll
 0002:00000174       __imp__VirtualProtect@16   10020174     kernel32:KERNEL32.dll
 0002:00000178       __imp__GetSystemInfo@4     10020178     kernel32:KERNEL32.dll
 0002:0000017c       __imp__TlsFree@4           1002017c     kernel32:KERNEL32.dll
 0002:00000180       __imp__TlsSetValue@8       10020180     kernel32:KERNEL32.dll
 0002:00000184       __imp__TlsGetValue@4       10020184     kernel32:KERNEL32.dll
 0002:00000188       __imp__TlsAlloc@0          10020188     kernel32:KERNEL32.dll
 0002:0000018c       __imp__InterlockedFlushSList@4 1002018c     kernel32:KERNEL32.dll
 0002:00000190       __imp__RtlUnwind@16        10020190     kernel32:KERNEL32.dll
 0002:00000194       __imp__LoadLibraryExA@12   10020194     kernel32:KERNEL32.dll
 0002:00000198       __imp__VirtualFree@12      10020198     kernel32:KERNEL32.dll
 0002:0000019c       __imp__VirtualAlloc@16     1002019c     kernel32:KERNEL32.dll
 0002:000001a0       __imp__FlushInstructionCache@12 100201a0     kernel32:KERNEL32.dll
 0002:000001a4       __imp__InterlockedPushEntrySList@8 100201a4     kernel32:KERNEL32.dll
 0002:000001a8       __imp__InterlockedPopEntrySList@4 100201a8     kernel32:KERNEL32.dll
 0002:000001ac       __imp__GetProcessHeap@0    100201ac     kernel32:KERNEL32.dll
 0002:000001b0       __imp__HeapFree@12         100201b0     kernel32:KERNEL32.dll
 0002:000001b4       __imp__HeapAlloc@12        100201b4     kernel32:KERNEL32.dll
 0002:000001b8       __imp__OutputDebugStringW@4 100201b8     kernel32:KERNEL32.dll
 0002:000001bc       __imp__InitializeSListHead@4 100201bc     kernel32:KERNEL32.dll
 0002:000001c0       __imp__GetSystemTimeAsFileTime@4 100201c0     kernel32:KERNEL32.dll
 0002:000001c4       __imp__QueryPerformanceCounter@4 100201c4     kernel32:KERNEL32.dll
 0002:000001c8       __imp__GetStartupInfoW@4   100201c8     kernel32:KERNEL32.dll
 0002:000001cc       __imp__IsDebuggerPresent@0 100201cc     kernel32:KERNEL32.dll
 0002:000001d0       __imp__IsProcessorFeaturePresent@4 100201d0     kernel32:KERNEL32.dll
 0002:000001d4       __imp__TerminateProcess@8  100201d4     kernel32:KERNEL32.dll
 0002:000001d8       __imp__GetCurrentProcess@0 100201d8     kernel32:KERNEL32.dll
 0002:000001dc       __imp__SetUnhandledExceptionFilter@4 100201dc     kernel32:KERNEL32.dll
 0002:000001e0       __imp__UnhandledExceptionFilter@4 100201e0     kernel32:KERNEL32.dll
 0002:000001e4       __imp__InitializeCriticalSectionAndSpinCount@8 100201e4     kernel32:KERNEL32.dll
 0002:000001e8       __imp__WaitForSingleObjectEx@12 100201e8     kernel32:KERNEL32.dll
 0002:000001ec       \177KERNEL32_NULL_THUNK_DATA 100201ec     kernel32:KERNEL32.dll
 0002:000001f0       __imp__OleCreatePropertyFrame@44 100201f0     oleaut32:OLEAUT32.dll
 0002:000001f4       __imp__UnRegisterTypeLib@20 100201f4     oleaut32:OLEAUT32.dll
 0002:000001f8       __imp__RegisterTypeLib@12  100201f8     oleaut32:OLEAUT32.dll
 0002:000001fc       __imp__LoadRegTypeLib@20   100201fc     oleaut32:OLEAUT32.dll
 0002:00000200       __imp__LoadTypeLib@8       10020200     oleaut32:OLEAUT32.dll
 0002:00000204       __imp__VarUI4FromStr@16    10020204     oleaut32:OLEAUT32.dll
 0002:00000208       __imp__VariantInit@4       10020208     oleaut32:OLEAUT32.dll
 0002:0000020c       __imp__SysAllocStringByteLen@8 1002020c     oleaut32:OLEAUT32.dll
 0002:00000210       __imp__SysStringByteLen@4  10020210     oleaut32:OLEAUT32.dll
 0002:00000214       __imp__VariantChangeType@16 10020214     oleaut32:OLEAUT32.dll
 0002:00000218       __imp__VariantClear@4      10020218     oleaut32:OLEAUT32.dll
 0002:0000021c       __imp__SysStringLen@4      1002021c     oleaut32:OLEAUT32.dll
 0002:00000220       __imp__SysFreeString@4     10020220     oleaut32:OLEAUT32.dll
 0002:00000224       __imp__SysAllocStringLen@8 10020224     oleaut32:OLEAUT32.dll
 0002:00000228       __imp__SysAllocString@4    10020228     oleaut32:OLEAUT32.dll
 0002:0000022c       \177OLEAUT32_NULL_THUNK_DATA 1002022c     oleaut32:OLEAUT32.dll
 0002:00000230       __imp__UnregisterClassW@8  10020230     user32:USER32.dll
 0002:00000234       __imp__PostMessageW@16     10020234     user32:USER32.dll
 0002:00000238       __imp__DefWindowProcW@16   10020238     user32:USER32.dll
 0002:0000023c       __imp__CallWindowProcW@20  1002023c     user32:USER32.dll
 0002:00000240       __imp__RegisterClassExW@4  10020240     user32:USER32.dll
 0002:00000244       __imp__GetClassInfoExW@12  10020244     user32:USER32.dll
 0002:00000248       __imp__CreateWindowExW@48  10020248     user32:USER32.dll
 0002:0000024c       __imp__IsWindow@4          1002024c     user32:USER32.dll
 0002:00000250       __imp__IsChild@8           10020250     user32:USER32.dll
 0002:00000254       __imp__DestroyWindow@4     10020254     user32:USER32.dll
 0002:00000258       __imp__ShowWindow@8        10020258     user32:USER32.dll
 0002:0000025c       __imp__SetWindowPos@28     1002025c     user32:USER32.dll
 0002:00000260       __imp__CharNextW@4         10020260     user32:USER32.dll
 0002:00000264       __imp__SetFocus@4          10020264     user32:USER32.dll
 0002:00000268       __imp__LoadBitmapW@8       10020268     user32:USER32.dll
 0002:0000026c       __imp__RegisterClassW@4    1002026c     user32:USER32.dll
 0002:00000270       __imp__PeekMessageW@20     10020270     user32:USER32.dll
 0002:00000274       __imp__LoadCursorW@8       10020274     user32:USER32.dll
 0002:00000278       __imp__GetParent@4         10020278     user32:USER32.dll
 0002:0000027c       __imp__SetWindowLongW@12   1002027c     user32:USER32.dll
 0002:00000280       __imp__GetWindowLongW@8    10020280     user32:USER32.dll
 0002:00000284       __imp__PtInRect@12         10020284     user32:USER32.dll
 0002:00000288       __imp__EqualRect@8         10020288     user32:USER32.dll
 0002:0000028c       __imp__OffsetRect@12       1002028c     user32:USER32.dll
 0002:00000290       __imp__UnionRect@12        10020290     user32:USER32.dll
 0002:00000294       __imp__IntersectRect@12    10020294     user32:USER32.dll
 0002:00000298       __imp__GetClientRect@8     10020298     user32:USER32.dll
 0002:0000029c       __imp__InvalidateRect@12   1002029c     user32:USER32.dll
 0002:000002a0       __imp__SetWindowRgn@12     100202a0     user32:USER32.dll
 0002:000002a4       __imp__EndPaint@8          100202a4     user32:USER32.dll
 0002:000002a8       __imp__BeginPaint@8        100202a8     user32:USER32.dll
 0002:000002ac       __imp__ReleaseDC@8         100202ac     user32:USER32.dll
 0002:000002b0       __imp__GetDC@4             100202b0     user32:USER32.dll
 0002:000002b4       __imp__GetKeyState@4       100202b4     user32:USER32.dll
 0002:000002b8       __imp__GetFocus@0          100202b8     user32:USER32.dll
 0002:000002bc       \177USER32_NULL_THUNK_DATA 100202bc     user32:USER32.dll
 0002:000002c0       __imp__StringFromGUID2@12  100202c0     ole32:ole32.dll
 0002:000002c4       __imp__CoTaskMemAlloc@4    100202c4     ole32:ole32.dll
 0002:000002c8       __imp__CoTaskMemRealloc@8  100202c8     ole32:ole32.dll
 0002:000002cc       __imp__CoTaskMemFree@4     100202cc     ole32:ole32.dll
 0002:000002d0       __imp__ReadClassStm@8      100202d0     ole32:ole32.dll
 0002:000002d4       __imp__WriteClassStm@8     100202d4     ole32:ole32.dll
 0002:000002d8       __imp__CreateDataAdviseHolder@4 100202d8     ole32:ole32.dll
 0002:000002dc       __imp__OleSaveToStream@8   100202dc     ole32:ole32.dll
 0002:000002e0       __imp__CreateOleAdviseHolder@4 100202e0     ole32:ole32.dll
 0002:000002e4       __imp__OleRegGetUserType@12 100202e4     ole32:ole32.dll
 0002:000002e8       __imp__OleRegGetMiscStatus@12 100202e8     ole32:ole32.dll
 0002:000002ec       __imp__OleRegEnumVerbs@8   100202ec     ole32:ole32.dll
 0002:000002f0       __imp__CLSIDFromProgID@8   100202f0     ole32:ole32.dll
 0002:000002f4       __imp__CoCreateInstance@20 100202f4     ole32:ole32.dll
 0002:000002f8       \177ole32_NULL_THUNK_DATA  100202f8     ole32:ole32.dll
 0002:000002fc       ___guard_check_icall_fptr  100202fc     LIBCMT:guard_support.obj
 0002:00000300       ___castguard_check_failure_os_handled_fptr 10020300     LIBCMT:guard_support.obj
 0002:00000304       ___xc_a                    10020304     LIBCMT:initializers.obj
 0002:0000031c       ___xc_z                    1002031c     LIBCMT:initializers.obj
 0002:00000320       ___xi_a                    10020320     LIBCMT:initializers.obj
 0002:00000328       ___acrt_stdio_initializer  10020328     libucrt:stdio_initializer.obj
 0002:0000032c       ___acrt_multibyte_initializer 1002032c     libucrt:multibyte_initializer.obj
 0002:00000330       ___acrt_tran_sse2_initializer 10020330     libucrt:sse2_initializer.obj
 0002:00000334       ___xi_z                    10020334     LIBCMT:initializers.obj
 0002:00000338       ___xl_a                    10020338     LIBCMT:tlssup.obj
 0002:0000033c       ___xl_z                    1002033c     LIBCMT:tlssup.obj
 0002:00000340       ___xp_a                    10020340     LIBCMT:initializers.obj
 0002:00000344       ___acrt_locale_terminator  10020344     libucrt:locale_initializer.obj
 0002:00000348       ___dcrt_console_output_terminator 10020348     libucrt:console_output_initializer.obj
 0002:0000034c       ___acrt_stdio_terminator   1002034c     libucrt:stdio_initializer.obj
 0002:00000350       ___xp_z                    10020350     LIBCMT:initializers.obj
 0002:00000354       ___xt_a                    10020354     LIBCMT:initializers.obj
 0002:00000358       ___xt_z                    10020358     LIBCMT:initializers.obj
 0002:00000360       ??_C@_13HADIAKP@?$AAS@     10020360     OposVariant.obj
 0002:00000364       ??_C@_13LHMFKAAD@?$AAM@    10020364     OposVariant.obj
 0002:00000368       ??_C@_13MKMNOPIJ@?$AAD@    10020368     OposVariant.obj
 0002:0000036c       ??_C@_13OPKGLAFF@?$AAB@    1002036c     OposVariant.obj
 0002:00000370       ??_C@_17LLMMEOJD@?$AAV?$AAa?$AAl@ 10020370     OposVariant.obj
 0002:00000378       ??_C@_1BI@JFAIJMHL@?$AAF?$AAo?$AAr?$AAc?$AAe?$AAR?$AAe?$AAm?$AAo?$AAv?$AAe@ 10020378     OposVariant.obj
 0002:00000390       ??_C@_1BC@GCKHIPE@?$AAN?$AAo?$AAR?$AAe?$AAm?$AAo?$AAv?$AAe@ 10020390     OposVariant.obj
 0002:000003a4       ??_C@_1O@JDLOHAN@?$AAD?$AAe?$AAl?$AAe?$AAt?$AAe@ 100203a4     OposVariant.obj
 0002:000003b4       ??_C@_11LOCGONAA@@         100203b4     OposVariant.obj
 0002:000003b8       __GUID_00020401_0000_0000_c000_000000000046 100203b8     CashDrawer.obj
 0002:000003c8       ??_7?$CComObject@V?$CComEnum@UIEnumConnections@@$1?_GUID_b196b287_bab4_101a_b69c_00aa00341d07@@3U__s_GUID@@BUtagCONNECTDATA@@V?$_Copy@UtagCONNECTDATA@@@ATL@@VCComSingleThreadModel@6@@ATL@@@ATL@@6B@ 100203c8     CashDrawer.obj
 0002:000003e8       __GUID_55980ba0_35aa_11cf_b671_00aa004cd6d8 100203e8     CashDrawer.obj
 0002:000003f8       __GUID_b196b28b_bab4_101a_b69c_00aa00341d07 100203f8     CashDrawer.obj
 0002:00000408       ?_entries@?1??_GetEntries@?$CComEnum@UIEnumConnections@@$1?_GUID_b196b287_bab4_101a_b69c_00aa00341d07@@3U__s_GUID@@BUtagCONNECTDATA@@V?$_Copy@UtagCONNECTDATA@@@ATL@@VCComSingleThreadModel@6@@ATL@@SGPBU_ATL_INTMAP_ENTRY@3@XZ@4QBU43@B 10020408     CashDrawer.obj
 0002:00000420       ??_7CComClassFactory@ATL@@6B@ 10020420     CashDrawer.obj
 0002:00000438       ?_entries@?1??_GetEntries@CComClassFactory@ATL@@SGPBU_ATL_INTMAP_ENTRY@3@XZ@4QBU43@B 10020438     CashDrawer.obj
 0002:00000450       __GUID_00000001_0000_0000_c000_000000000046 10020450     CashDrawer.obj
 0002:00000460       _IID_IOPOSCashDrawer_1_5   10020460     CashDrawer.obj
 0002:00000470       ??_C@_1BK@BIGILECK@?$AAA?$AAd?$AAv?$AAa?$AAp?$AAi?$AA3?$AA2?$AA?4?$AAd?$AAl?$AAl@ 10020470     CashDrawer.obj
 0002:0000048c       ??_C@_0BI@MNCFCPFK@RegCreateKeyTransactedW@ 1002048c     CashDrawer.obj
 0002:000004a4       _IID_IOPOSCashDrawer_1_8   100204a4     CashDrawer.obj
 0002:000004b4       _IID_IOPOSCashDrawer_1_9   100204b4     CashDrawer.obj
 0002:000004c4       _IID_IOPOSCashDrawer       100204c4     CashDrawer.obj
 0002:000004d4       _LIBID_OposCashDrawer_CCO  100204d4     CashDrawer.obj
 0002:000004e4       _DIID__IOPOSCashDrawerEvents 100204e4     CashDrawer.obj
 0002:000004f4       _CLSID_OPOSCashDrawer      100204f4     CashDrawer.obj
 0002:00000504       __GUID_b196b287_bab4_101a_b69c_00aa00341d07 10020504     CashDrawer.obj
 0002:00000514       __GUID_b196b285_bab4_101a_b69c_00aa00341d07 10020514     CashDrawer.obj
 0002:00000524       __GUID_00000114_0000_0000_c000_000000000046 10020524     CashDrawer.obj
 0002:00000534       __GUID_a6bc3ac0_dbaa_11ce_9de3_00aa004bb851 10020534     CashDrawer.obj
 0002:00000544       __GUID_0000010c_0000_0000_c000_000000000046 10020544     CashDrawer.obj
 0002:00000554       __GUID_00000146_0000_0000_c000_000000000046 10020554     CashDrawer.obj
 0002:00000564       ??_7CComModule@ATL@@6B@    10020564     CashDrawer.obj
 0002:00000590       ?_entries@?1??_GetEntries@COPOSCashDrawer@@SGPBU_ATL_INTMAP_ENTRY@ATL@@XZ@4QBU34@B 10020590     CashDrawer.obj
 0002:000006c8       __GUID_00000000_0000_0000_c000_000000000046 100206c8     CashDrawer.obj
 0002:000006d8       __GUID_00020400_0000_0000_c000_000000000046 100206d8     CashDrawer.obj
 0002:000006e8       __GUID_cf51ed10_62fe_11cf_bf86_00a0c9034836 100206e8     CashDrawer.obj
 0002:000006f8       __GUID_0000010a_0000_0000_c000_000000000046 100206f8     CashDrawer.obj
 0002:00000708       __GUID_b196b283_bab4_101a_b69c_00aa00341d07 10020708     CashDrawer.obj
 0002:00000718       __GUID_cb5bdc81_93c1_11cf_8f20_00805f2cd064 10020718     CashDrawer.obj
 0002:00000728       ?pPropMap@?1??GetPropertyMap@COPOSCashDrawer@@SAPBUATL_PROPMAP_ENTRY@ATL@@XZ@4QBU34@B 10020728     CashDrawer.obj
 0002:00000794       ??_C@_17DGDADEHL@?$AA_?$AAc?$AAx@ 10020794     CashDrawer.obj
 0002:0000079c       ??_C@_17IOIMFDBO@?$AA_?$AAc?$AAy@ 1002079c     CashDrawer.obj
 0002:000007a4       ??_7?$CComObjectCached@VCComClassFactory@ATL@@@ATL@@6B@ 100207a4     CashDrawer.obj
 0002:000007bc       __GUID_922eada0_3424_11cf_b670_00aa004cd6d8 100207bc     CashDrawer.obj
 0002:000007cc       __GUID_9c2cad80_3424_11cf_b670_00aa004cd6d8 100207cc     CashDrawer.obj
 0002:000007dc       __GUID_00000119_0000_0000_c000_000000000046 100207dc     CashDrawer.obj
 0002:000007ec       __GUID_b196b289_bab4_101a_b69c_00aa00341d07 100207ec     CashDrawer.obj
 0002:000007fc       ??_C@_1CE@PGFMOFKI@?$AAS?$AAt?$AAa?$AAt?$AAu?$AAs?$AAU?$AAp?$AAd?$AAa?$AAt?$AAe?$AAE?$AAv?$AAe@ 100207fc     CashDrawer.obj
 0002:00000820       ??_C@_1BM@CBGEBBBJ@?$AAD?$AAi?$AAr?$AAe?$AAc?$AAt?$AAI?$AAO?$AAE?$AAv?$AAe?$AAn?$AAt@ 10020820     CashDrawer.obj
 0002:0000083c       __GUID_b196b286_bab4_101a_b69c_00aa00341d07 1002083c     CashDrawer.obj
 0002:0000084c       __GUID_00000117_0000_0000_c000_000000000046 1002084c     CashDrawer.obj
 0002:0000085c       ??_C@_1BC@ENICKDH@?$AAC?$AAo?$AAn?$AAt?$AAe?$AAn?$AAt?$AAs@ 1002085c     CashDrawer.obj
 0002:00000870       ??_7?$CComObject@V?$CComEnum@UIEnumConnectionPoints@@$1?_GUID_b196b285_bab4_101a_b69c_00aa00341d07@@3U__s_GUID@@BPAUIConnectionPoint@@V?$_CopyInterface@UIConnectionPoint@@@ATL@@VCComSingleThreadModel@6@@ATL@@@ATL@@6B@ 10020870     CashDrawer.obj
 0002:00000890       ??_C@_1M@KANJNLFF@?$AAC?$AAL?$AAS?$AAI?$AAD@ 10020890     CashDrawer.obj
 0002:0000089c       ??_C@_1M@EJNEECMJ@?$AAA?$AAp?$AAp?$AAI?$AAD@ 1002089c     CashDrawer.obj
 0002:000008a8       ?rgszNeverDelete@CRegParser@ATL@@1QBQB_WB 100208a8     CashDrawer.obj
 0002:000008d8       ??_7CRegObject@ATL@@6B@    100208d8     CashDrawer.obj
 0002:000008f0       __GUID_0000010e_0000_0000_c000_000000000046 100208f0     CashDrawer.obj
 0002:00000900       __GUID_b196b288_bab4_101a_b69c_00aa00341d07 10020900     CashDrawer.obj
 0002:00000910       ??_C@_1CK@OEKPKBNA@?$AAC?$AAo?$AAm?$AAp?$AAo?$AAn?$AAe?$AAn?$AAt?$AA?5?$AAC?$AAa?$AAt?$AAe?$AAg@ 10020910     CashDrawer.obj
 0002:0000093c       ??_C@_1BC@NKMMNMGL@?$AAF?$AAi?$AAl?$AAe?$AAT?$AAy?$AAp?$AAe@ 1002093c     CashDrawer.obj
 0002:00000950       ??_C@_1BE@EKPAFMCP@?$AAI?$AAn?$AAt?$AAe?$AAr?$AAf?$AAa?$AAc?$AAe@ 10020950     CashDrawer.obj
 0002:00000964       ??_C@_1BC@MAICEHGI@?$AAH?$AAa?$AAr?$AAd?$AAw?$AAa?$AAr?$AAe@ 10020964     CashDrawer.obj
 0002:00000978       ??_C@_19HLLLM@?$AAM?$AAi?$AAm?$AAe@ 10020978     CashDrawer.obj
 0002:00000984       ??_C@_17OMAOINJK@?$AAS?$AAA?$AAM@ 10020984     CashDrawer.obj
 0002:0000098c       ??_C@_1BC@IBECJAAI@?$AAS?$AAE?$AAC?$AAU?$AAR?$AAI?$AAT?$AAY@ 1002098c     CashDrawer.obj
 0002:000009a0       ??_C@_1O@GBFINDKL@?$AAS?$AAY?$AAS?$AAT?$AAE?$AAM@ 100209a0     CashDrawer.obj
 0002:000009b0       ??_C@_1BC@EAHCMADO@?$AAS?$AAo?$AAf?$AAt?$AAw?$AAa?$AAr?$AAe@ 100209b0     CashDrawer.obj
 0002:000009c4       ??_C@_1BA@JIHHIEDE@?$AAT?$AAy?$AAp?$AAe?$AAL?$AAi?$AAb@ 100209c4     CashDrawer.obj
 0002:000009d8       ?map@?1??HKeyFromString@CRegParser@ATL@@KAPAUHKEY__@@PA_W@Z@4QBUkeymap@?1??123@KAPAU4@0@Z@B 100209d8     CashDrawer.obj
 0002:00000a48       ??_C@_19NCHLBIN@?$AAH?$AAK?$AAC?$AAR@ 10020a48     CashDrawer.obj
 0002:00000a54       ??_C@_19JAPAIJDE@?$AAH?$AAK?$AAC?$AAU@ 10020a54     CashDrawer.obj
 0002:00000a60       ??_C@_19PEALEEJB@?$AAH?$AAK?$AAL?$AAM@ 10020a60     CashDrawer.obj
 0002:00000a6c       ??_C@_17PJOJPMPB@?$AAH?$AAK?$AAU@ 10020a6c     CashDrawer.obj
 0002:00000a74       ??_C@_19PNBHMJPL@?$AAH?$AAK?$AAP?$AAD@ 10020a74     CashDrawer.obj
 0002:00000a80       ??_C@_19GFFAIJHG@?$AAH?$AAK?$AAD?$AAD@ 10020a80     CashDrawer.obj
 0002:00000a8c       ??_C@_19OFICIBHH@?$AAH?$AAK?$AAC?$AAC@ 10020a8c     CashDrawer.obj
 0002:00000a98       ??_C@_1CE@PACHPJFI@?$AAH?$AAK?$AAE?$AAY?$AA_?$AAC?$AAL?$AAA?$AAS?$AAS?$AAE?$AAS?$AA_?$AAR?$AAO@ 10020a98     CashDrawer.obj
 0002:00000abc       ??_C@_1CE@HLHNCBPM@?$AAH?$AAK?$AAE?$AAY?$AA_?$AAC?$AAU?$AAR?$AAR?$AAE?$AAN?$AAT?$AA_?$AAU?$AAS@ 10020abc     CashDrawer.obj
 0002:00000ae0       ??_C@_1CG@GFBEANJL@?$AAH?$AAK?$AAE?$AAY?$AA_?$AAL?$AAO?$AAC?$AAA?$AAL?$AA_?$AAM?$AAA?$AAC?$AAH@ 10020ae0     CashDrawer.obj
 0002:00000b08       ??_C@_1BG@BGODANIO@?$AAH?$AAK?$AAE?$AAY?$AA_?$AAU?$AAS?$AAE?$AAR?$AAS@ 10020b08     CashDrawer.obj
 0002:00000b20       ??_C@_1CM@KHNNAOIC@?$AAH?$AAK?$AAE?$AAY?$AA_?$AAP?$AAE?$AAR?$AAF?$AAO?$AAR?$AAM?$AAA?$AAN?$AAC@ 10020b20     CashDrawer.obj
 0002:00000b4c       ??_C@_1BM@HAGMMHIA@?$AAH?$AAK?$AAE?$AAY?$AA_?$AAD?$AAY?$AAN?$AA_?$AAD?$AAA?$AAT?$AAA@ 10020b4c     CashDrawer.obj
 0002:00000b68       ??_C@_1CI@BBJOACGG@?$AAH?$AAK?$AAE?$AAY?$AA_?$AAC?$AAU?$AAR?$AAR?$AAE?$AAN?$AAT?$AA_?$AAC?$AAO@ 10020b68     CashDrawer.obj
 0002:00000b90       __GUID_00000113_0000_0000_c000_000000000046 10020b90     CashDrawer.obj
 0002:00000ba0       __GUID_00000109_0000_0000_c000_000000000046 10020ba0     CashDrawer.obj
 0002:00000bb0       __GUID_7fd52380_4e07_101b_ae2d_08002b2ec713 10020bb0     CashDrawer.obj
 0002:00000bc0       __GUID_1c2056cc_5ef4_101b_8bc8_00aa003e3b29 10020bc0     CashDrawer.obj
 0002:00000bd0       ??_C@_1EA@NHKLICFA@?$AAH?$AAK?$AAC?$AAU?$AA?$AN?$AA?6?$AA?$HL?$AA?7?$AAS?$AAo?$AAf?$AAt?$AAw?$AAa?$AAr@ 10020bd0     CashDrawer.obj
 0002:00000c10       ??_C@_1BE@LJOLIMEM@?$AA?$AN?$AA?6?$AA?7?$AA?$HN?$AA?$AN?$AA?6?$AA?$HN?$AA?$AN?$AA?6@ 10020c10     CashDrawer.obj
 0002:00000c24       __GUID_00000112_0000_0000_c000_000000000046 10020c24     CashDrawer.obj
 0002:00000c34       ??_C@_1O@MNLDABAF@?$AAM?$AAo?$AAd?$AAu?$AAl?$AAe@ 10020c34     CashDrawer.obj
 0002:00000c44       ??_C@_1BG@JBACFMF@?$AAM?$AAo?$AAd?$AAu?$AAl?$AAe?$AA_?$AAR?$AAa?$AAw@ 10020c44     CashDrawer.obj
 0002:00000c5c       ??_C@_1BC@KAILKFFG@?$AAR?$AAE?$AAG?$AAI?$AAS?$AAT?$AAR?$AAY@ 10020c5c     CashDrawer.obj
 0002:00000c70       __GUID_3af24292_0c96_11ce_a0cf_00aa00600ab8 10020c70     CashDrawer.obj
 0002:00000c80       __GUID_00000127_0000_0000_c000_000000000046 10020c80     CashDrawer.obj
 0002:00000c90       __GUID_0000010d_0000_0000_c000_000000000046 10020c90     CashDrawer.obj
 0002:00000ca0       ??_C@_1M@PPPPCDEP@?$AAA?$AAP?$AAP?$AAI?$AAD@ 10020ca0     CashDrawer.obj
 0002:00000cac       ??_7?$CComContainedObject@VCOPOSCashDrawer@@@ATL@@6B?$IDispatchImpl@UIOPOSCashDrawer@@$1?IID_IOPOSCashDrawer@@3U_GUID@@B$1?LIBID_OposCashDrawer_CCO@@3U3@B$00$0A@VCComTypeInfoHolder@ATL@@@1@@ 10020cac     CashDrawer.obj
 0002:00000d88       ??_7?$CComContainedObject@VCOPOSCashDrawer@@@ATL@@6BCComControlBase@1@@ 10020d88     CashDrawer.obj
 0002:00000d9c       ??_7?$CComContainedObject@VCOPOSCashDrawer@@@ATL@@6B?$CWindowImpl@VCOPOSCashDrawer@@VCWindow@ATL@@V?$CWinTraits@$0FGAAAAAA@$0A@@3@@1@@ 10020d9c     CashDrawer.obj
 0002:00000dac       ??_7?$CComContainedObject@VCOPOSCashDrawer@@@ATL@@6B?$IPersistStreamInitImpl@VCOPOSCashDrawer@@@1@@ 10020dac     CashDrawer.obj
 0002:00000dd0       ??_7?$CComContainedObject@VCOPOSCashDrawer@@@ATL@@6B?$IOleControlImpl@VCOPOSCashDrawer@@@1@@ 10020dd0     CashDrawer.obj
 0002:00000dec       ??_7?$CComContainedObject@VCOPOSCashDrawer@@@ATL@@6B?$IOleObjectImpl@VCOPOSCashDrawer@@@1@@ 10020dec     CashDrawer.obj
 0002:00000e4c       ??_7?$CComContainedObject@VCOPOSCashDrawer@@@ATL@@6B?$IOleInPlaceActiveObjectImpl@VCOPOSCashDrawer@@@1@@ 10020e4c     CashDrawer.obj
 0002:00000e74       ??_7?$CComContainedObject@VCOPOSCashDrawer@@@ATL@@6B?$IViewObjectExImpl@VCOPOSCashDrawer@@@1@@ 10020e74     CashDrawer.obj
 0002:00000eb0       ??_7?$CComContainedObject@VCOPOSCashDrawer@@@ATL@@6B?$IOleInPlaceObjectWindowlessImpl@VCOPOSCashDrawer@@@1@@ 10020eb0     CashDrawer.obj
 0002:00000edc       ??_7?$CComContainedObject@VCOPOSCashDrawer@@@ATL@@6B?$IConnectionPointContainerImpl@VCOPOSCashDrawer@@@1@@ 10020edc     CashDrawer.obj
 0002:00000ef0       ??_7?$CComContainedObject@VCOPOSCashDrawer@@@ATL@@6B?$IPersistStorageImpl@VCOPOSCashDrawer@@@1@@ 10020ef0     CashDrawer.obj
 0002:00000f18       ??_7?$CComContainedObject@VCOPOSCashDrawer@@@ATL@@6B?$ISpecifyPropertyPagesImpl@VCOPOSCashDrawer@@@1@@ 10020f18     CashDrawer.obj
 0002:00000f28       ??_7?$CComContainedObject@VCOPOSCashDrawer@@@ATL@@6B?$IQuickActivateImpl@VCOPOSCashDrawer@@@1@@ 10020f28     CashDrawer.obj
 0002:00000f40       ??_7?$CComContainedObject@VCOPOSCashDrawer@@@ATL@@6B?$IDataObjectImpl@VCOPOSCashDrawer@@@1@@ 10020f40     CashDrawer.obj
 0002:00000f70       ??_7?$CComContainedObject@VCOPOSCashDrawer@@@ATL@@6B?$IProvideClassInfo2Impl@$1?CLSID_OPOSCashDrawer@@3U_GUID@@B$1?DIID__IOPOSCashDrawerEvents@@3U2@B$1?LIBID_OposCashDrawer_CCO@@3U2@B$00$0A@VCComTypeInfoHolder@ATL@@@1@@ 10020f70     CashDrawer.obj
 0002:00000f84       ??_7?$CComContainedObject@VCOPOSCashDrawer@@@ATL@@6B?$IObjectSafetyImpl@VCOPOSCashDrawer@@$02@1@@ 10020f84     CashDrawer.obj
 0002:00000f9c       ??_7?$CComContainedObject@VCOPOSCashDrawer@@@ATL@@6B?$IPropertyNotifySinkCP@VCOPOSCashDrawer@@VCComDynamicUnkArray@ATL@@@1@@ 10020f9c     CashDrawer.obj
 0002:00000fbc       ??_7?$CComContainedObject@VCOPOSCashDrawer@@@ATL@@6B?$CProxy_IOPOSEvents@VCOPOSCashDrawer@@@@@ 10020fbc     CashDrawer.obj
 0002:00000fdc       ??_7?$CComAggObject@VCOPOSCashDrawer@@@ATL@@6B@ 10020fdc     CashDrawer.obj
 0002:00000fec       ??_7?$CComObject@VCOPOSCashDrawer@@@ATL@@6B?$IDispatchImpl@UIOPOSCashDrawer@@$1?IID_IOPOSCashDrawer@@3U_GUID@@B$1?LIBID_OposCashDrawer_CCO@@3U3@B$00$0A@VCComTypeInfoHolder@ATL@@@1@@ 10020fec     CashDrawer.obj
 0002:000010c8       ??_7?$CComObject@VCOPOSCashDrawer@@@ATL@@6BCComControlBase@1@@ 100210c8     CashDrawer.obj
 0002:000010dc       ??_7?$CComObject@VCOPOSCashDrawer@@@ATL@@6B?$CWindowImpl@VCOPOSCashDrawer@@VCWindow@ATL@@V?$CWinTraits@$0FGAAAAAA@$0A@@3@@1@@ 100210dc     CashDrawer.obj
 0002:000010ec       ??_7?$CComObject@VCOPOSCashDrawer@@@ATL@@6B?$IPersistStreamInitImpl@VCOPOSCashDrawer@@@1@@ 100210ec     CashDrawer.obj
 0002:00001110       ??_7?$CComObject@VCOPOSCashDrawer@@@ATL@@6B?$IOleControlImpl@VCOPOSCashDrawer@@@1@@ 10021110     CashDrawer.obj
 0002:0000112c       ??_7?$CComObject@VCOPOSCashDrawer@@@ATL@@6B?$IOleObjectImpl@VCOPOSCashDrawer@@@1@@ 1002112c     CashDrawer.obj
 0002:0000118c       ??_7?$CComObject@VCOPOSCashDrawer@@@ATL@@6B?$IOleInPlaceActiveObjectImpl@VCOPOSCashDrawer@@@1@@ 1002118c     CashDrawer.obj
 0002:000011b4       ??_7?$CComObject@VCOPOSCashDrawer@@@ATL@@6B?$IViewObjectExImpl@VCOPOSCashDrawer@@@1@@ 100211b4     CashDrawer.obj
 0002:000011f0       ??_7?$CComObject@VCOPOSCashDrawer@@@ATL@@6B?$IOleInPlaceObjectWindowlessImpl@VCOPOSCashDrawer@@@1@@ 100211f0     CashDrawer.obj
 0002:0000121c       ??_7?$CComObject@VCOPOSCashDrawer@@@ATL@@6B?$IConnectionPointContainerImpl@VCOPOSCashDrawer@@@1@@ 1002121c     CashDrawer.obj
 0002:00001230       ??_7?$CComObject@VCOPOSCashDrawer@@@ATL@@6B?$IPersistStorageImpl@VCOPOSCashDrawer@@@1@@ 10021230     CashDrawer.obj
 0002:00001258       ??_7?$CComObject@VCOPOSCashDrawer@@@ATL@@6B?$ISpecifyPropertyPagesImpl@VCOPOSCashDrawer@@@1@@ 10021258     CashDrawer.obj
 0002:00001268       ??_7?$CComObject@VCOPOSCashDrawer@@@ATL@@6B?$IQuickActivateImpl@VCOPOSCashDrawer@@@1@@ 10021268     CashDrawer.obj
 0002:00001280       ??_7?$CComObject@VCOPOSCashDrawer@@@ATL@@6B?$IDataObjectImpl@VCOPOSCashDrawer@@@1@@ 10021280     CashDrawer.obj
 0002:000012b0       ??_7?$CComObject@VCOPOSCashDrawer@@@ATL@@6B?$IProvideClassInfo2Impl@$1?CLSID_OPOSCashDrawer@@3U_GUID@@B$1?DIID__IOPOSCashDrawerEvents@@3U2@B$1?LIBID_OposCashDrawer_CCO@@3U2@B$00$0A@VCComTypeInfoHolder@ATL@@@1@@ 100212b0     CashDrawer.obj
 0002:000012c4       ??_7?$CComObject@VCOPOSCashDrawer@@@ATL@@6B?$IObjectSafetyImpl@VCOPOSCashDrawer@@$02@1@@ 100212c4     CashDrawer.obj
 0002:000012dc       ??_7?$CComObject@VCOPOSCashDrawer@@@ATL@@6B?$IPropertyNotifySinkCP@VCOPOSCashDrawer@@VCComDynamicUnkArray@ATL@@@1@@ 100212dc     CashDrawer.obj
 0002:000012fc       ??_7?$CComObject@VCOPOSCashDrawer@@@ATL@@6B?$CProxy_IOPOSEvents@VCOPOSCashDrawer@@@@@ 100212fc     CashDrawer.obj
 0002:0000131c       ??_C@_1O@GBFKGNEO@?$AAA?$AAT?$AAL?$AA?3?$AA?$CF?$AAp@ 1002131c     CashDrawer.obj
 0002:0000132c       __GUID_b196b284_bab4_101a_b69c_00aa00341d07 1002132c     CashDrawer.obj
 0002:0000133c       ??_C@_1BA@PICGEGJB@?$AAD?$AAI?$AAS?$AAP?$AAL?$AAA?$AAY@ 1002133c     CashDrawer.obj
 0002:0000134c       __GUID_9bfbbc02_eff1_101a_84ed_00aa00341d07 1002134c     CashDrawer.obj
 0002:0000135c       ?_entries@?1??_GetEntries@?$CComEnum@UIEnumConnectionPoints@@$1?_GUID_b196b285_bab4_101a_b69c_00aa00341d07@@3U__s_GUID@@BPAUIConnectionPoint@@V?$_CopyInterface@UIConnectionPoint@@@ATL@@VCComSingleThreadModel@6@@ATL@@SGPBU_ATL_INTMAP_ENTRY@3@XZ@4QBU43@B 1002135c     CashDrawer.obj
 0002:00001374       __GUID_00020412_0000_0000_c000_000000000046 10021374     CashDrawer.obj
 0002:00001384       ??_C@_0BG@EKFFMJIO@RegOpenKeyTransactedW@ 10021384     CashDrawer.obj
 0002:0000139c       ??_C@_0BI@HAKLOOGP@RegDeleteKeyTransactedW@ 1002139c     CashDrawer.obj
 0002:000013b4       ??_C@_0BA@LILAPHGE@RegDeleteKeyExW@ 100213b4     CashDrawer.obj
 0002:000013c4       ??_C@_19ILOCMLCJ@?$AA?4?$AAt?$AAl?$AAb@ 100213c4     CashDrawer.obj
 0002:000013d0       __GUID_0002e012_0000_0000_c000_000000000046 100213d0     CashDrawer.obj
 0002:000013e0       ??_C@_1O@FHBGLCIO@?$AAC?$AAL?$AAS?$AAI?$AAD?$AA?2@ 100213e0     CashDrawer.obj
 0002:000013f0       ??_C@_1CK@IFBKBFAA@?$AA?2?$AAR?$AAe?$AAq?$AAu?$AAi?$AAr?$AAe?$AAd?$AA?5?$AAC?$AAa?$AAt?$AAe?$AAg@ 100213f0     CashDrawer.obj
 0002:0000141c       ??_C@_1DA@BIHALFED@?$AA?2?$AAI?$AAm?$AAp?$AAl?$AAe?$AAm?$AAe?$AAn?$AAt?$AAe?$AAd?$AA?5?$AAC?$AAa@ 1002141c     CashDrawer.obj
 0002:0000144c       ??_C@_1BK@EDKOLFBJ@?$AAO?$AAL?$AAE?$AAA?$AAU?$AAT?$AA3?$AA2?$AA?4?$AAD?$AAL?$AAL@ 1002144c     CashDrawer.obj
 0002:00001468       ??_C@_0BJ@CNLFOMHB@UnRegisterTypeLibForUser@ 10021468     CashDrawer.obj
 0002:00001484       ??_C@_0BH@LBOMMKPJ@RegisterTypeLibForUser@ 10021484     CashDrawer.obj
 0002:0000149c       ??_C@_0P@MMNMMLGK@COFreezeEvents@ 1002149c     CashDrawerImpl.obj
 0002:000014ac       ??_C@_0BC@OGCGGIMP@GetPropertyNumber@ 100214ac     CashDrawerImpl.obj
 0002:000014c0       ??_C@_0BC@MDCNODNB@SetPropertyNumber@ 100214c0     CashDrawerImpl.obj
 0002:000014d4       ??_C@_0BC@CFCCMIMD@GetPropertyString@ 100214d4     CashDrawerImpl.obj
 0002:000014e8       ??_C@_0BC@CJEDNN@SetPropertyString@ 100214e8     CashDrawerImpl.obj
 0002:000014fc       ??_C@_0M@LNPKKKDA@OpenService@ 100214fc     CashDrawerImpl.obj
 0002:00001508       ??_C@_0M@PCMCHHMH@CheckHealth@ 10021508     CashDrawerImpl.obj
 0002:00001514       ??_C@_0M@JGMIDNEK@ClaimDevice@ 10021514     CashDrawerImpl.obj
 0002:00001520       ??_C@_0N@DDFIIBMP@CloseService@ 10021520     CashDrawerImpl.obj
 0002:00001530       ??_C@_08EEIHICPC@DirectIO@ 10021530     CashDrawerImpl.obj
 0002:0000153c       ??_C@_0O@BCPMENMJ@ReleaseDevice@ 1002153c     CashDrawerImpl.obj
 0002:0000154c       ??_C@_0L@DBFHJAH@OpenDrawer@ 1002154c     CashDrawerImpl.obj
 0002:00001558       ??_C@_0BD@OMLIOAJI@WaitForDrawerClose@ 10021558     CashDrawerImpl.obj
 0002:0000156c       ??_C@_0BA@GFABKEEE@ResetStatistics@ 1002156c     CashDrawerImpl.obj
 0002:0000157c       ??_C@_0BD@DPALHJGC@RetrieveStatistics@ 1002157c     CashDrawerImpl.obj
 0002:00001590       ??_C@_0BB@KOHIKNFC@UpdateStatistics@ 10021590     CashDrawerImpl.obj
 0002:000015a4       ??_C@_0BH@PBKBNMGB@CompareFirmwareVersion@ 100215a4     CashDrawerImpl.obj
 0002:000015bc       ??_C@_0P@FBPDPIPA@UpdateFirmware@ 100215bc     CashDrawerImpl.obj
 0002:000015cc       ??_7?$CProxy_IOPOSEvents@VCOPOSCashDrawer@@@@6B@ 100215cc     CashDrawerImpl.obj
 0002:000015ec       ??_C@_1BA@IFHENID@?$AA?$FL?$AAE?$AAr?$AAr?$AAo?$AAr?$AA?$FN@ 100215ec     CashDrawerImpl.obj
 0002:000015fc       ??_C@_0CN@FIMOCEHP@SOFTWARE?2OLEforRetail?2ServiceOP@ 100215fc     CashDrawerImpl.obj
 0002:0000162c       ??_C@_1M@IAIJHCCH@?$AAC?$AAl?$AAo?$AAs?$AAe@ 1002162c     CashDrawerImpl.obj
 0002:00001638       ??_C@_1M@PCPKGJAH@?$AAC?$AAl?$AAa?$AAi?$AAm@ 10021638     CashDrawerImpl.obj
 0002:00001644       ??_C@_1BA@NDFKIOCP@?$AAR?$AAe?$AAl?$AAe?$AAa?$AAs?$AAe@ 10021644     CashDrawerImpl.obj
 0002:00001654       ??_C@_0L@NINGDDGK@CashDrawer@ 10021654     CashDrawerImpl.obj
 0002:00001660       ??_C@_1BM@IJMNMBPK@?$AAG?$AAe?$AAt?$AAO?$AAp?$AAe?$AAn?$AAR?$AAe?$AAs?$AAu?$AAl?$AAt@ 10021660     CashDrawerImpl.obj
 0002:0000167c       _IID_IDispatch             1002167c     uuid:oaidl_i.obj
 0002:0000168c       _IID_IPropertyNotifySink   1002168c     uuid:ocidl_i.obj
 0002:0000169c       _GUID_NULL                 1002169c     uuid:cguid_i.obj
 0002:000016ac       _CLSID_StdGlobalInterfaceTable 100216ac     uuid:cguid_i.obj
 0002:000016bc       _CLSID_StdComponentCategoriesMgr 100216bc     uuid:ieguids.obj
 0002:000016cc       _IID_IUnknown              100216cc     uuid:unknwn_i.obj
 0002:000016e0       ??_C@_1EC@JIJBPKFM@?$AAa?$AAp?$AAi?$AA?9?$AAm?$AAs?$AA?9?$AAw?$AAi?$AAn?$AA?9?$AAc?$AAo?$AAr?$AAe@ 100216e0     LIBCMT:thread_safe_statics.obj
 0002:00001724       ??_C@_1BK@MGMFAEKH@?$AAk?$AAe?$AAr?$AAn?$AAe?$AAl?$AA3?$AA2?$AA?4?$AAd?$AAl?$AAl@ 10021724     LIBCMT:thread_safe_statics.obj
 0002:00001740       ??_C@_0BJ@JEBJOJFJ@SleepConditionVariableCS@ 10021740     LIBCMT:thread_safe_statics.obj
 0002:0000175c       ??_C@_0BJ@PGPPEPCC@WakeAllConditionVariable@ 1002175c     LIBCMT:thread_safe_statics.obj
 0002:00001775       ?nothrow@std@@3Unothrow_t@1@B 10021775     LIBCMT:std_nothrow.obj
 0002:00001780       __pRawDllMain              10021780     LIBCMT:dll_dllmain.obj
 0002:00001780       __pDefaultRawDllMain       10021780     LIBCMT:dll_dllmain.obj
 0002:00001788       ??_7exception@std@@6B@     10021788     LIBCMT:throw_bad_alloc.obj
 0002:00001790       ??_C@_0BC@EOODALEL@Unknown?5exception@ 10021790     LIBCMT:throw_bad_alloc.obj
 0002:000017a8       ??_7bad_alloc@std@@6B@     100217a8     LIBCMT:throw_bad_alloc.obj
 0002:000017b0       ??_C@_0P@GHFPNOJB@bad?5allocation@ 100217b0     LIBCMT:throw_bad_alloc.obj
 0002:000017c4       ??_7bad_array_new_length@std@@6B@ 100217c4     LIBCMT:throw_bad_alloc.obj
 0002:000017cc       ??_C@_0BF@KINCDENJ@bad?5array?5new?5length@ 100217cc     LIBCMT:throw_bad_alloc.obj
 0002:000017e8       ??_7type_info@@6B@         100217e8     LIBCMT:std_type_info_static.obj
 0002:000017ec       _GUID_ATLVer110            100217ec     atls:atlbase.obj
 0002:00001800       ??_C@_1IC@ONKHOIDK@?$AAE?$AAR?$AAR?$AAO?$AAR?$AA?5?$AA?3?$AA?5?$AAU?$AAn?$AAa?$AAb?$AAl?$AAe?$AA?5@ 10021800     atls:atlbase.obj
 0002:00001884       ??_C@_0N@FJEPLCIH@atlthunk?4dll@ 10021884     atls:atlthunk.obj
 0002:00001894       ??_C@_0BG@GAKFHCBM@AtlThunk_AllocateData@ 10021894     atls:atlthunk.obj
 0002:000018ac       ??_C@_0BC@JKONFIAH@AtlThunk_InitData@ 100218ac     atls:atlthunk.obj
 0002:000018c0       ??_C@_0BE@IAOEELAK@AtlThunk_DataToCode@ 100218c0     atls:atlthunk.obj
 0002:000018d4       ??_C@_0BC@GBGKAIPI@AtlThunk_FreeData@ 100218d4     atls:atlthunk.obj
 0002:000018e8       __pDestructExceptionObject 100218e8     libvcruntime:ehhelpers.obj
 0002:000018f0       ??_7bad_exception@std@@6B@ 100218f0     libvcruntime:frame.obj
 0002:000018f8       ??_C@_0O@DPKOEFFH@bad?5exception@ 100218f8     libvcruntime:frame.obj
 0002:00001c90       ??_C@_08EHJDFFNH@__based?$CI@ 10021c90     libvcruntime:undname.obj
 0002:00001c9c       ??_C@_07KOLFKCDI@__cdecl@  10021c9c     libvcruntime:undname.obj
 0002:00001ca4       ??_C@_08GHMPAG@__pascal@   10021ca4     libvcruntime:undname.obj
 0002:00001cb0       ??_C@_09IFJBGAPI@__stdcall@ 10021cb0     libvcruntime:undname.obj
 0002:00001cbc       ??_C@_0L@NPHFGOKO@__thiscall@ 10021cbc     libvcruntime:undname.obj
 0002:00001cc8       ??_C@_0L@JMKHOMEK@__fastcall@ 10021cc8     libvcruntime:undname.obj
 0002:00001cd4       ??_C@_0N@BCKKPABJ@__vectorcall@ 10021cd4     libvcruntime:undname.obj
 0002:00001ce4       ??_C@_09HIJEGCPM@__clrcall@ 10021ce4     libvcruntime:undname.obj
 0002:00001cf0       ??_C@_06GHPCKEAG@__eabi@   10021cf0     libvcruntime:undname.obj
 0002:00001cf8       ??_C@_09IOPIDJLG@__swift_1@ 10021cf8     libvcruntime:undname.obj
 0002:00001d04       ??_C@_09KFNFGKHF@__swift_2@ 10021d04     libvcruntime:undname.obj
 0002:00001d10       ??_C@_09LMMOFLDE@__swift_3@ 10021d10     libvcruntime:undname.obj
 0002:00001d1c       ??_C@_07JOMMBBKO@__ptr64@  10021d1c     libvcruntime:undname.obj
 0002:00001d24       ??_C@_0L@PILCLIHE@__restrict@ 10021d24     libvcruntime:undname.obj
 0002:00001d30       ??_C@_0M@GFIIJFMG@__unaligned@ 10021d30     libvcruntime:undname.obj
 0002:00001d3c       ??_C@_09DHDLOLLB@restrict?$CI@ 10021d3c     libvcruntime:undname.obj
 0002:00001d46       ??_C@_00CNPNBAHC@@         10021d46     libvcruntime:undname.obj
 0002:00001d48       ??_C@_04NIHEBCM@?5new@     10021d48     libvcruntime:undname.obj
 0002:00001d50       ??_C@_07FPCDHGMM@?5delete@ 10021d50     libvcruntime:undname.obj
 0002:00001d58       ??_C@_01NEMOKFLO@?$DN@     10021d58     libvcruntime:undname.obj
 0002:00001d5c       ??_C@_02GPIOPFAK@?$DO?$DO@ 10021d5c     libvcruntime:undname.obj
 0002:00001d60       ??_C@_02FODMEDOG@?$DM?$DM@ 10021d60     libvcruntime:undname.obj
 0002:00001d64       ??_C@_01DCLJPIOD@?$CB@     10021d64     libvcruntime:undname.obj
 0002:00001d68       ??_C@_02EGOFBIJA@?$DN?$DN@ 10021d68     libvcruntime:undname.obj
 0002:00001d6c       ??_C@_02FDNJECIE@?$CB?$DN@ 10021d6c     libvcruntime:undname.obj
 0002:00001d70       ??_C@_02GPECMEKF@?$FL?$FN@ 10021d70     libvcruntime:undname.obj
 0002:00001d74       ??_C@_08LHJFAFGD@operator@ 10021d74     libvcruntime:undname.obj
 0002:00001d80       ??_C@_02HBOOOICD@?9?$DO@   10021d80     libvcruntime:undname.obj
 0002:00001d84       ??_C@_01NBENCBCI@?$CK@     10021d84     libvcruntime:undname.obj
 0002:00001d88       ??_C@_02ECNGHCIF@?$CL?$CL@ 10021d88     libvcruntime:undname.obj
 0002:00001d8c       ??_C@_02BAABKJLB@?9?9@     10021d8c     libvcruntime:undname.obj
 0002:00001d90       ??_C@_01JOAMLHOP@?9@       10021d90     libvcruntime:undname.obj
 0002:00001d94       ??_C@_01MIFGBAGJ@?$CL@     10021d94     libvcruntime:undname.obj
 0002:00001d98       ??_C@_01HNPIGOCE@?$CG@     10021d98     libvcruntime:undname.obj
 0002:00001d9c       ??_C@_03MNHNFDLC@?9?$DO?$CK@ 10021d9c     libvcruntime:undname.obj
 0002:00001da0       ??_C@_01KMDKNFGN@?1@       10021da0     libvcruntime:undname.obj
 0002:00001da4       ??_C@_01FGNFDNOH@?$CF@     10021da4     libvcruntime:undname.obj
 0002:00001da8       ??_C@_01MNNFJEPP@?$DM@     10021da8     libvcruntime:undname.obj
 0002:00001dac       ??_C@_02EHCHHCKH@?$DM?$DN@ 10021dac     libvcruntime:undname.obj
 0002:00001db0       ??_C@_01PPODPGHN@?$DO@     10021db0     libvcruntime:undname.obj
 0002:00001db4       ??_C@_02EEKDKGMJ@?$DO?$DN@ 10021db4     libvcruntime:undname.obj
 0002:00001db8       ??_C@_01IHBHIGKO@?0@       10021db8     libvcruntime:undname.obj
 0002:00001dbc       ??_C@_02HCKGKOFO@?$CI?$CJ@ 10021dbc     libvcruntime:undname.obj
 0002:00001dc0       ??_C@_01PJKLJHI@?$HO@      10021dc0     libvcruntime:undname.obj
 0002:00001dc4       ??_C@_01JKBOJNNK@?$FO@     10021dc4     libvcruntime:undname.obj
 0002:00001dc8       ??_C@_01DNKMNLPK@?$HM@     10021dc8     libvcruntime:undname.obj
 0002:00001dcc       ??_C@_02PPKAJPJL@?$CG?$CG@ 10021dcc     libvcruntime:undname.obj
 0002:00001dd0       ??_C@_02NONPIBCD@?$HM?$HM@ 10021dd0     libvcruntime:undname.obj
 0002:00001dd4       ??_C@_02FPIMKNGF@?$CK?$DN@ 10021dd4     libvcruntime:undname.obj
 0002:00001dd8       ??_C@_02FOEOMHFC@?$CL?$DN@ 10021dd8     libvcruntime:undname.obj
 0002:00001ddc       ??_C@_02FKMDLLOA@?9?$DN@   10021ddc     libvcruntime:undname.obj
 0002:00001de0       ??_C@_02FJEHGPIO@?1?$DN@   10021de0     libvcruntime:undname.obj
 0002:00001de4       ??_C@_02FENAOKFI@?$CF?$DN@ 10021de4     libvcruntime:undname.obj
 0002:00001de8       ??_C@_03IKFCCPFF@?$DO?$DO?$DN@ 10021de8     libvcruntime:undname.obj
 0002:00001dec       ??_C@_03CDNPDDLA@?$DM?$DM?$DN@ 10021dec     libvcruntime:undname.obj
 0002:00001df0       ??_C@_02FGJGFEAB@?$CG?$DN@ 10021df0     libvcruntime:undname.obj
 0002:00001df4       ??_C@_02DHLNPPGH@?$HM?$DN@ 10021df4     libvcruntime:undname.obj
 0002:00001df8       ??_C@_02MHEGNOJ@?$FO?$DN@  10021df8     libvcruntime:undname.obj
 0002:00001dfc       ??_C@_09IFPLHPGF@?$GAvftable?8@ 10021dfc     libvcruntime:undname.obj
 0002:00001e08       ??_C@_09BLBHBJP@?$GAvbtable?8@ 10021e08     libvcruntime:undname.obj
 0002:00001e14       ??_C@_07FEEIOKP@?$GAvcall?8@ 10021e14     libvcruntime:undname.obj
 0002:00001e1c       ??_C@_08LLFFHHDJ@?$GAtypeof?8@ 10021e1c     libvcruntime:undname.obj
 0002:00001e28       ??_C@_0BF@KDPPACIK@?$GAlocal?5static?5guard?8@ 10021e28     libvcruntime:undname.obj
 0002:00001e40       ??_C@_08OBABFOLI@?$GAstring?8@ 10021e40     libvcruntime:undname.obj
 0002:00001e4c       ??_C@_0BD@JDLKDPAB@?$GAvbase?5destructor?8@ 10021e4c     libvcruntime:undname.obj
 0002:00001e60       ??_C@_0BN@DEGPLNFK@?$GAvector?5deleting?5destructor?8@ 10021e60     libvcruntime:undname.obj
 0002:00001e80       ??_C@_0BO@OBMKPJIG@?$GAdefault?5constructor?5closure?8@ 10021e80     libvcruntime:undname.obj
 0002:00001ea0       ??_C@_0BN@IMDCHIKM@?$GAscalar?5deleting?5destructor?8@ 10021ea0     libvcruntime:undname.obj
 0002:00001ec0       ??_C@_0BO@PFGOCPJJ@?$GAvector?5constructor?5iterator?8@ 10021ec0     libvcruntime:undname.obj
 0002:00001ee0       ??_C@_0BN@LFPFMEDL@?$GAvector?5destructor?5iterator?8@ 10021ee0     libvcruntime:undname.obj
 0002:00001f00       ??_C@_0CE@IKBNEHA@?$GAvector?5vbase?5constructor?5itera@ 10021f00     libvcruntime:undname.obj
 0002:00001f24       ??_C@_0BL@NILFHHPC@?$GAvirtual?5displacement?5map?8@ 10021f24     libvcruntime:undname.obj
 0002:00001f40       ??_C@_0CB@JONCMFFK@?$GAeh?5vector?5constructor?5iterator@ 10021f40     libvcruntime:undname.obj
 0002:00001f64       ??_C@_0CA@GCEOPDGL@?$GAeh?5vector?5destructor?5iterator?8@ 10021f64     libvcruntime:undname.obj
 0002:00001f84       ??_C@_0CH@OOJPLCPH@?$GAeh?5vector?5vbase?5constructor?5it@ 10021f84     libvcruntime:undname.obj
 0002:00001fac       ??_C@_0BL@LLKPOHJI@?$GAcopy?5constructor?5closure?8@ 10021fac     libvcruntime:undname.obj
 0002:00001fc8       ??_C@_0BA@KBCDOMBN@?$GAudt?5returning?8@ 10021fc8     libvcruntime:undname.obj
 0002:00001fd8       ??_C@_03KLGMFNMG@?$GAEH@   10021fd8     libvcruntime:undname.obj
 0002:00001fdc       ??_C@_05KHLCHHI@?$GARTTI@  10021fdc     libvcruntime:undname.obj
 0002:00001fe4       ??_C@_0BA@KKLDJDLB@?$GAlocal?5vftable?8@ 10021fe4     libvcruntime:undname.obj
 0002:00001ff4       ??_C@_0CE@IIHCMGGL@?$GAlocal?5vftable?5constructor?5clos@ 10021ff4     libvcruntime:undname.obj
 0002:00002018       ??_C@_06FHBGPFGH@?5new?$FL?$FN@ 10022018     libvcruntime:undname.obj
 0002:00002020       ??_C@_09LBNFPBCA@?5delete?$FL?$FN@ 10022020     libvcruntime:undname.obj
 0002:0000202c       ??_C@_0P@HJKNJFNN@?$GAomni?5callsig?8@ 1002202c     libvcruntime:undname.obj
 0002:0000203c       ??_C@_0BL@CNOONJFP@?$GAplacement?5delete?5closure?8@ 1002203c     libvcruntime:undname.obj
 0002:00002058       ??_C@_0BN@CKNJLHMB@?$GAplacement?5delete?$FL?$FN?5closure?8@ 10022058     libvcruntime:undname.obj
 0002:00002078       ??_C@_0CG@CFDHKGGD@?$GAmanaged?5vector?5constructor?5ite@ 10022078     libvcruntime:undname.obj
 0002:000020a0       ??_C@_0CF@IMGKMJNO@?$GAmanaged?5vector?5destructor?5iter@ 100220a0     libvcruntime:undname.obj
 0002:000020c8       ??_C@_0CG@HLDDJMAG@?$GAeh?5vector?5copy?5constructor?5ite@ 100220c8     libvcruntime:undname.obj
 0002:000020f0       ??_C@_0CM@FCBBDIGB@?$GAeh?5vector?5vbase?5copy?5construct@ 100220f0     libvcruntime:undname.obj
 0002:0000211c       ??_C@_0BL@CLIPGLGB@?$GAdynamic?5initializer?5for?5?8@ 1002211c     libvcruntime:undname.obj
 0002:00002138       ??_C@_0CB@PDBIFEP@?$GAdynamic?5atexit?5destructor?5for?5@ 10022138     libvcruntime:undname.obj
 0002:0000215c       ??_C@_0CD@CGAJBKEJ@?$GAvector?5copy?5constructor?5iterat@ 1002215c     libvcruntime:undname.obj
 0002:00002180       ??_C@_0CJ@GJELGAMM@?$GAvector?5vbase?5copy?5constructor?5@ 10022180     libvcruntime:undname.obj
 0002:000021ac       ??_C@_0CL@FGIJHLCE@?$GAmanaged?5vector?5copy?5constructo@ 100221ac     libvcruntime:undname.obj
 0002:000021d8       ??_C@_0BM@PMGGMLDN@?$GAlocal?5static?5thread?5guard?8@ 100221d8     libvcruntime:undname.obj
 0002:000021f4       ??_C@_0N@BDNMDMOL@operator?5?$CC?$CC?5@ 100221f4     libvcruntime:undname.obj
 0002:00002204       ??_C@_0BC@GGEBGALA@operator?5co_await@ 10022204     libvcruntime:undname.obj
 0002:00002218       ??_C@_0M@GAAIMMOH@operator?$DM?$DN?$DO@ 10022218     libvcruntime:undname.obj
 0002:00002224       ??_C@_0BC@DAFEJGAK@?5Type?5Descriptor?8@ 10022224     libvcruntime:undname.obj
 0002:00002238       ??_C@_0BM@LDKODKLH@?5Base?5Class?5Descriptor?5at?5?$CI@ 10022238     libvcruntime:undname.obj
 0002:00002254       ??_C@_0BD@LGICGFMM@?5Base?5Class?5Array?8@ 10022254     libvcruntime:undname.obj
 0002:00002268       ??_C@_0BN@MECKDCOJ@?5Class?5Hierarchy?5Descriptor?8@ 10022268     libvcruntime:undname.obj
 0002:00002288       ??_C@_0BK@CFCOFLF@?5Complete?5Object?5Locator?8@ 10022288     libvcruntime:undname.obj
 0002:000022a4       ??_C@_0BG@JNJLAMPM@?$GAanonymous?5namespace?8@ 100222a4     libvcruntime:undname.obj
 0002:000022c8       ??_C@_1DM@KHCHBNEB@?$AAa?$AAp?$AAi?$AA?9?$AAm?$AAs?$AA?9?$AAw?$AAi?$AAn?$AA?9?$AAc?$AAo?$AAr?$AAe@ 100222c8     libvcruntime:winapi_downlevel.obj
 0002:00002304       ??_C@_1DK@LPPGFMPP@?$AAa?$AAp?$AAi?$AA?9?$AAm?$AAs?$AA?9?$AAw?$AAi?$AAn?$AA?9?$AAc?$AAo?$AAr?$AAe@ 10022304     libvcruntime:winapi_downlevel.obj
 0002:00002340       ??_C@_1BC@GDMECMAK@?$AAk?$AAe?$AAr?$AAn?$AAe?$AAl?$AA3?$AA2@ 10022340     libvcruntime:winapi_downlevel.obj
 0002:00002354       ??_C@_1BA@PFFKHIOG@?$AAa?$AAp?$AAi?$AA?9?$AAm?$AAs?$AA?9@ 10022354     libvcruntime:winapi_downlevel.obj
 0002:0000236c       ??_C@_08KNHFBNJ@FlsAlloc@  1002236c     libvcruntime:winapi_downlevel.obj
 0002:00002380       ??_C@_07PEJMOBNF@FlsFree@  10022380     libvcruntime:winapi_downlevel.obj
 0002:00002390       ??_C@_0M@GDNOONDI@FlsGetValue@ 10022390     libvcruntime:winapi_downlevel.obj
 0002:000023a4       ??_C@_0M@JCPCPOEF@FlsSetValue@ 100223a4     libvcruntime:winapi_downlevel.obj
 0002:000023b8       ??_C@_0BM@HCFOFFN@InitializeCriticalSectionEx@ 100223b8     libvcruntime:winapi_downlevel.obj
 0002:00002540       ?format_validation_lookup_table_spectre@__crt_stdio_output@@3V?$spectre_mitigated_lookup_table@Ustate_transition_pair@__crt_stdio_output@@$0IA@@1@B 10022540     libucrt:output.obj
 0002:00002640       ??_C@_1O@CEDCILHN@?$AA?$CI?$AAn?$AAu?$AAl?$AAl?$AA?$CJ@ 10022640     libucrt:output.obj
 0002:00002650       ??_C@_06OJHGLDPL@?$CInull?$CJ@ 10022650     libucrt:output.obj
 0002:00002658       ___acrt_exception_action_table 10022658     libucrt:exception_filter.obj
 0002:000026e8       ___acrt_signal_action_table_count 100226e8     libucrt:exception_filter.obj
 0002:000026ec       ___acrt_signal_action_first_fpe_index 100226ec     libucrt:exception_filter.obj
 0002:000026f0       ___acrt_signal_action_fpe_count 100226f0     libucrt:exception_filter.obj
 0002:000026f4       ??_C@_1BI@BGOHAHKC@?$AAm?$AAs?$AAc?$AAo?$AAr?$AAe?$AAe?$AA?4?$AAd?$AAl?$AAl@ 100226f4     libucrt:exit.obj
 0002:0000270c       ??_C@_0P@MIGLKIOC@CorExitProcess@ 1002270c     libucrt:exit.obj
 0002:000027a0       ___lc_time_c               100227a0     libucrt:nlsdata.obj
 0002:00002904       ??_C@_03KOEHGMDN@Sun@      10022904     libucrt:nlsdata.obj
 0002:00002908       ??_C@_03PDAGKDH@Mon@       10022908     libucrt:nlsdata.obj
 0002:0000290c       ??_C@_03NAGEINEP@Tue@      1002290c     libucrt:nlsdata.obj
 0002:00002910       ??_C@_03MHOMLAJA@Wed@      10022910     libucrt:nlsdata.obj
 0002:00002914       ??_C@_03IOFIKPDN@Thu@      10022914     libucrt:nlsdata.obj
 0002:00002918       ??_C@_03IDIOELNC@Fri@      10022918     libucrt:nlsdata.obj
 0002:0000291c       ??_C@_03FEFJNEK@Sat@       1002291c     libucrt:nlsdata.obj
 0002:00002920       ??_C@_06OOPIFAJ@Sunday@    10022920     libucrt:nlsdata.obj
 0002:00002928       ??_C@_06JLEDEDGH@Monday@   10022928     libucrt:nlsdata.obj
 0002:00002930       ??_C@_07BAAGCFCM@Tuesday@  10022930     libucrt:nlsdata.obj
 0002:00002938       ??_C@_09DLIGFAKA@Wednesday@ 10022938     libucrt:nlsdata.obj
 0002:00002944       ??_C@_08HACCIKIA@Thursday@ 10022944     libucrt:nlsdata.obj
 0002:00002950       ??_C@_06JECMNKMI@Friday@   10022950     libucrt:nlsdata.obj
 0002:00002958       ??_C@_08INBOOONO@Saturday@ 10022958     libucrt:nlsdata.obj
 0002:00002964       ??_C@_03JIHJHPIE@Jan@      10022964     libucrt:nlsdata.obj
 0002:00002968       ??_C@_03HJBDCHOM@Feb@      10022968     libucrt:nlsdata.obj
 0002:0000296c       ??_C@_03ODNJBKGA@Mar@      1002296c     libucrt:nlsdata.obj
 0002:00002970       ??_C@_03LEOLGMJP@Apr@      10022970     libucrt:nlsdata.obj
 0002:00002974       ??_C@_03CNMDKL@May@        10022974     libucrt:nlsdata.obj
 0002:00002978       ??_C@_03IDFGHECI@Jun@      10022978     libucrt:nlsdata.obj
 0002:0000297c       ??_C@_03LBGABGKK@Jul@      1002297c     libucrt:nlsdata.obj
 0002:00002980       ??_C@_03IFJFEIGA@Aug@      10022980     libucrt:nlsdata.obj
 0002:00002984       ??_C@_03GGCAPAJC@Sep@      10022984     libucrt:nlsdata.obj
 0002:00002988       ??_C@_03BMAOKBAD@Oct@      10022988     libucrt:nlsdata.obj
 0002:0000298c       ??_C@_03JPJOFNIA@Nov@      1002298c     libucrt:nlsdata.obj
 0002:00002990       ??_C@_03MKABNOCG@Dec@      10022990     libucrt:nlsdata.obj
 0002:00002994       ??_C@_07CGJPFGJA@January@  10022994     libucrt:nlsdata.obj
 0002:0000299c       ??_C@_08GNJGEPFN@February@ 1002299c     libucrt:nlsdata.obj
 0002:000029a8       ??_C@_05HPCKOFNC@March@    100229a8     libucrt:nlsdata.obj
 0002:000029b0       ??_C@_05DMJDNLEJ@April@    100229b0     libucrt:nlsdata.obj
 0002:000029b8       ??_C@_04CNLMGBGM@June@     100229b8     libucrt:nlsdata.obj
 0002:000029c0       ??_C@_04MIEPOIFP@July@     100229c0     libucrt:nlsdata.obj
 0002:000029c8       ??_C@_06LBBHFDDG@August@   100229c8     libucrt:nlsdata.obj
 0002:000029d0       ??_C@_09BHHEALKD@September@ 100229d0     libucrt:nlsdata.obj
 0002:000029dc       ??_C@_07JJNFCEND@October@  100229dc     libucrt:nlsdata.obj
 0002:000029e4       ??_C@_08HCHEGEOA@November@ 100229e4     libucrt:nlsdata.obj
 0002:000029f0       ??_C@_08EDHMEBNP@December@ 100229f0     libucrt:nlsdata.obj
 0002:000029fc       ??_C@_02DEDBPAFC@AM@       100229fc     libucrt:nlsdata.obj
 0002:00002a00       ??_C@_02CJNFDJBF@PM@       10022a00     libucrt:nlsdata.obj
 0002:00002a04       ??_C@_08BPBNCDIB@MM?1dd?1yy@ 10022a04     libucrt:nlsdata.obj
 0002:00002a10       ??_C@_0BE@CKGJFCPC@dddd?0?5MMMM?5dd?0?5yyyy@ 10022a10     libucrt:nlsdata.obj
 0002:00002a24       ??_C@_08JCCMCCIL@HH?3mm?3ss@ 10022a24     libucrt:nlsdata.obj
 0002:00002a30       ??_C@_17MBGCMIPB@?$AAS?$AAu?$AAn@ 10022a30     libucrt:nlsdata.obj
 0002:00002a38       ??_C@_17KBOMKBF@?$AAM?$AAo?$AAn@ 10022a38     libucrt:nlsdata.obj
 0002:00002a40       ??_C@_17BMKGEGOJ@?$AAT?$AAu?$AAe@ 10022a40     libucrt:nlsdata.obj
 0002:00002a48       ??_C@_17CJEDCEPE@?$AAW?$AAe?$AAd@ 10022a48     libucrt:nlsdata.obj
 0002:00002a50       ??_C@_17PDPHAADD@?$AAT?$AAh?$AAu@ 10022a50     libucrt:nlsdata.obj
 0002:00002a58       ??_C@_17HFOLPPLP@?$AAF?$AAr?$AAi@ 10022a58     libucrt:nlsdata.obj
 0002:00002a60       ??_C@_17GGIBDPIH@?$AAS?$AAa?$AAt@ 10022a60     libucrt:nlsdata.obj
 0002:00002a68       ??_C@_1O@IHNHDHPB@?$AAS?$AAu?$AAn?$AAd?$AAa?$AAy@ 10022a68     libucrt:nlsdata.obj
 0002:00002a78       ??_C@_1O@MMNBFLIA@?$AAM?$AAo?$AAn?$AAd?$AAa?$AAy@ 10022a78     libucrt:nlsdata.obj
 0002:00002a88       ??_C@_1BA@ENFBFFEK@?$AAT?$AAu?$AAe?$AAs?$AAd?$AAa?$AAy@ 10022a88     libucrt:nlsdata.obj
 0002:00002a98       ??_C@_1BE@EBOGMDOH@?$AAW?$AAe?$AAd?$AAn?$AAe?$AAs?$AAd?$AAa?$AAy@ 10022a98     libucrt:nlsdata.obj
 0002:00002aac       ??_C@_1BC@HHMNLIHE@?$AAT?$AAh?$AAu?$AAr?$AAs?$AAd?$AAa?$AAy@ 10022aac     libucrt:nlsdata.obj
 0002:00002ac0       ??_C@_1O@PDICJHAG@?$AAF?$AAr?$AAi?$AAd?$AAa?$AAy@ 10022ac0     libucrt:nlsdata.obj
 0002:00002ad0       ??_C@_1BC@ENMNNPAJ@?$AAS?$AAa?$AAt?$AAu?$AAr?$AAd?$AAa?$AAy@ 10022ad0     libucrt:nlsdata.obj
 0002:00002ae4       ??_C@_17DKNBKCHM@?$AAJ?$AAa?$AAn@ 10022ae4     libucrt:nlsdata.obj
 0002:00002aec       ??_C@_17LMDJEKJN@?$AAF?$AAe?$AAb@ 10022aec     libucrt:nlsdata.obj
 0002:00002af4       ??_C@_17CKNLEDEC@?$AAM?$AAa?$AAr@ 10022af4     libucrt:nlsdata.obj
 0002:00002afc       ??_C@_17LFPOIHDD@?$AAA?$AAp?$AAr@ 10022afc     libucrt:nlsdata.obj
 0002:00002b04       ??_C@_17PNNKMEED@?$AAM?$AAa?$AAy@ 10022b04     libucrt:nlsdata.obj
 0002:00002b0c       ??_C@_17KCJGOCPB@?$AAJ?$AAu?$AAn@ 10022b0c     libucrt:nlsdata.obj
 0002:00002b14       ??_C@_17IJPCKHK@?$AAJ?$AAu?$AAl@ 10022b14     libucrt:nlsdata.obj
 0002:00002b1c       ??_C@_17ICPELBCN@?$AAA?$AAu?$AAg@ 10022b1c     libucrt:nlsdata.obj
 0002:00002b24       ??_C@_17HCHCOKMG@?$AAS?$AAe?$AAp@ 10022b24     libucrt:nlsdata.obj
 0002:00002b2c       ??_C@_17FNLKOI@?$AAO?$AAc?$AAt@ 10022b2c     libucrt:nlsdata.obj
 0002:00002b34       ??_C@_17BBDMLCIG@?$AAN?$AAo?$AAv@ 10022b34     libucrt:nlsdata.obj
 0002:00002b3c       ??_C@_17EGKACKIF@?$AAD?$AAe?$AAc@ 10022b3c     libucrt:nlsdata.obj
 0002:00002b44       ??_C@_1BA@EFMEIEBA@?$AAJ?$AAa?$AAn?$AAu?$AAa?$AAr?$AAy@ 10022b44     libucrt:nlsdata.obj
 0002:00002b54       ??_C@_1BC@JGDDFFAM@?$AAF?$AAe?$AAb?$AAr?$AAu?$AAa?$AAr?$AAy@ 10022b54     libucrt:nlsdata.obj
 0002:00002b68       ??_C@_1M@IKEENEDF@?$AAM?$AAa?$AAr?$AAc?$AAh@ 10022b68     libucrt:nlsdata.obj
 0002:00002b74       ??_C@_1M@GJNLMHFD@?$AAA?$AAp?$AAr?$AAi?$AAl@ 10022b74     libucrt:nlsdata.obj
 0002:00002b80       ??_C@_19EPFLPGAP@?$AAJ?$AAu?$AAn?$AAe@ 10022b80     libucrt:nlsdata.obj
 0002:00002b8c       ??_C@_19BIFMLPCD@?$AAJ?$AAu?$AAl?$AAy@ 10022b8c     libucrt:nlsdata.obj
 0002:00002b98       ??_C@_1O@PAHLKOAC@?$AAA?$AAu?$AAg?$AAu?$AAs?$AAt@ 10022b98     libucrt:nlsdata.obj
 0002:00002ba8       ??_C@_1BE@DKAAMBJL@?$AAS?$AAe?$AAp?$AAt?$AAe?$AAm?$AAb?$AAe?$AAr@ 10022ba8     libucrt:nlsdata.obj
 0002:00002bbc       ??_C@_1BA@EPANDLNG@?$AAO?$AAc?$AAt?$AAo?$AAb?$AAe?$AAr@ 10022bbc     libucrt:nlsdata.obj
 0002:00002bcc       ??_C@_1BC@BGLIFPF@?$AAN?$AAo?$AAv?$AAe?$AAm?$AAb?$AAe?$AAr@ 10022bcc     libucrt:nlsdata.obj
 0002:00002be0       ??_C@_1BC@FEMKIFH@?$AAD?$AAe?$AAc?$AAe?$AAm?$AAb?$AAe?$AAr@ 10022be0     libucrt:nlsdata.obj
 0002:00002bf4       ??_C@_15ODEHAHHF@?$AAA?$AAM@ 10022bf4     libucrt:nlsdata.obj
 0002:00002bfc       ??_C@_15CLMNNGEL@?$AAP?$AAM@ 10022bfc     libucrt:nlsdata.obj
 0002:00002c04       ??_C@_1BC@IEBCMHCM@?$AAM?$AAM?$AA?1?$AAd?$AAd?$AA?1?$AAy?$AAy@ 10022c04     libucrt:nlsdata.obj
 0002:00002c18       ??_C@_1CI@KNAKOEBC@?$AAd?$AAd?$AAd?$AAd?$AA?0?$AA?5?$AAM?$AAM?$AAM?$AAM?$AA?5?$AAd?$AAd?$AA?0?$AA?5@ 10022c18     libucrt:nlsdata.obj
 0002:00002c40       ??_C@_1BC@GDGBMEMK@?$AAH?$AAH?$AA?3?$AAm?$AAm?$AA?3?$AAs?$AAs@ 10022c40     libucrt:nlsdata.obj
 0002:00002c54       ??_C@_1M@BMHNFIME@?$AAe?$AAn?$AA?9?$AAU?$AAS@ 10022c54     libucrt:nlsdata.obj
 0002:00002cb0       ??_C@_1EA@JGEFHKEI@?$AAa?$AAp?$AAi?$AA?9?$AAm?$AAs?$AA?9?$AAw?$AAi?$AAn?$AA?9?$AAc?$AAo?$AAr?$AAe@ 10022cb0     libucrt:winapi_thunks.obj
 0002:00002cf0       ??_C@_1DI@IJCEHOCB@?$AAa?$AAp?$AAi?$AA?9?$AAm?$AAs?$AA?9?$AAw?$AAi?$AAn?$AA?9?$AAc?$AAo?$AAr?$AAe@ 10022cf0     libucrt:winapi_thunks.obj
 0002:00002d28       ??_C@_1EI@MPIAOHOC@?$AAa?$AAp?$AAi?$AA?9?$AAm?$AAs?$AA?9?$AAw?$AAi?$AAn?$AA?9?$AAc?$AAo?$AAr?$AAe@ 10022d28     libucrt:winapi_thunks.obj
 0002:00002d70       ??_C@_1FK@FPHCKFIE@?$AAa?$AAp?$AAi?$AA?9?$AAm?$AAs?$AA?9?$AAw?$AAi?$AAn?$AA?9?$AAc?$AAo?$AAr?$AAe@ 10022d70     libucrt:winapi_thunks.obj
 0002:00002dd0       ??_C@_1EM@DILCGIIO@?$AAa?$AAp?$AAi?$AA?9?$AAm?$AAs?$AA?9?$AAw?$AAi?$AAn?$AA?9?$AAc?$AAo?$AAr?$AAe@ 10022dd0     libucrt:winapi_thunks.obj
 0002:00002e1c       ??_C@_1DM@LNCGDDPN@?$AAa?$AAp?$AAi?$AA?9?$AAm?$AAs?$AA?9?$AAw?$AAi?$AAn?$AA?9?$AAc?$AAo?$AAr?$AAe@ 10022e1c     libucrt:winapi_thunks.obj
 0002:00002e58       ??_C@_1DO@FPAPJEMD@?$AAa?$AAp?$AAi?$AA?9?$AAm?$AAs?$AA?9?$AAw?$AAi?$AAn?$AA?9?$AAc?$AAo?$AAr?$AAe@ 10022e58     libucrt:winapi_thunks.obj
 0002:00002e98       ??_C@_1DK@NDHNAHIO@?$AAa?$AAp?$AAi?$AA?9?$AAm?$AAs?$AA?9?$AAw?$AAi?$AAn?$AA?9?$AAc?$AAo?$AAr?$AAe@ 10022e98     libucrt:winapi_thunks.obj
 0002:00002ed4       ??_C@_1DM@KGHDGBCM@?$AAa?$AAp?$AAi?$AA?9?$AAm?$AAs?$AA?9?$AAw?$AAi?$AAn?$AA?9?$AAc?$AAo?$AAr?$AAe@ 10022ed4     libucrt:winapi_thunks.obj
 0002:00002f10       ??_C@_1EO@IJIOEFOH@?$AAa?$AAp?$AAi?$AA?9?$AAm?$AAs?$AA?9?$AAw?$AAi?$AAn?$AA?9?$AAr?$AAt?$AAc?$AAo@ 10022f10     libucrt:winapi_thunks.obj
 0002:00002f60       ??_C@_1FG@HHGEKANL@?$AAa?$AAp?$AAi?$AA?9?$AAm?$AAs?$AA?9?$AAw?$AAi?$AAn?$AA?9?$AAs?$AAe?$AAc?$AAu@ 10022f60     libucrt:winapi_thunks.obj
 0002:00002fb8       ??_C@_1EG@DBIOJECG@?$AAe?$AAx?$AAt?$AA?9?$AAm?$AAs?$AA?9?$AAw?$AAi?$AAn?$AA?9?$AAn?$AAt?$AAu?$AAs@ 10022fb8     libucrt:winapi_thunks.obj
 0002:00003000       ??_C@_1EO@FIHMJCLF@?$AAe?$AAx?$AAt?$AA?9?$AAm?$AAs?$AA?9?$AAw?$AAi?$AAn?$AA?9?$AAn?$AAt?$AAu?$AAs@ 10023000     libucrt:winapi_thunks.obj
 0002:00003050       ??_C@_1BC@DNHGCMLG@?$AAa?$AAd?$AAv?$AAa?$AAp?$AAi?$AA3?$AA2@ 10023050     libucrt:winapi_thunks.obj
 0002:00003064       ??_C@_1M@OAIMIKLP@?$AAn?$AAt?$AAd?$AAl?$AAl@ 10023064     libucrt:winapi_thunks.obj
 0002:00003070       ??_C@_1EG@DPGNFKGC@?$AAa?$AAp?$AAi?$AA?9?$AAm?$AAs?$AA?9?$AAw?$AAi?$AAn?$AA?9?$AAa?$AAp?$AAp?$AAm@ 10023070     libucrt:winapi_thunks.obj
 0002:000030b8       ??_C@_1O@BCCLBEOE@?$AAu?$AAs?$AAe?$AAr?$AA3?$AA2@ 100230b8     libucrt:winapi_thunks.obj
 0002:000030c8       ??_C@_1DM@BPJLHKCE@?$AAa?$AAp?$AAi?$AA?9?$AAm?$AAs?$AA?9?$AAw?$AAi?$AAn?$AA?9?$AAc?$AAo?$AAr?$AAe@ 100230c8     libucrt:winapi_thunks.obj
 0002:00003104       ??_C@_1BA@IAIFMGEF@?$AAe?$AAx?$AAt?$AA?9?$AAm?$AAs?$AA?9@ 10023104     libucrt:winapi_thunks.obj
 0002:00003118       ??_C@_0BA@FHFNEAED@AreFileApisANSI@ 10023118     libucrt:winapi_thunks.obj
 0002:00003138       ??_C@_0O@KKBNKAPF@LCMapStringEx@ 10023138     libucrt:winapi_thunks.obj
 0002:00003150       ??_C@_0BB@HBDEELFH@LocaleNameToLCID@ 10023150     libucrt:winapi_thunks.obj
 0002:00003168       ??_C@_0CF@OJOFEIGO@AppPolicyGetProcessTerminationM@ 10023168     libucrt:winapi_thunks.obj
 0002:00003198       ??_C@_0BI@BKLFFAPO@SetThreadStackGuarantee@ 10023198     libucrt:winapi_thunks.obj
 0002:00003210       ??_C@_03OEIAHPBN@INF@      10023210     libucrt:cvt.obj
 0002:00003214       ??_C@_03OJHLLCGB@inf@      10023214     libucrt:cvt.obj
 0002:00003218       ??_C@_03LKNCIKJB@NAN@      10023218     libucrt:cvt.obj
 0002:0000321c       ??_C@_03LHCJEHON@nan@      1002321c     libucrt:cvt.obj
 0002:00003220       ??_C@_09OFJJIMPC@NAN?$CISNAN?$CJ@ 10023220     libucrt:cvt.obj
 0002:0000322c       ??_C@_09IPFBKMDL@nan?$CIsnan?$CJ@ 1002322c     libucrt:cvt.obj
 0002:00003238       ??_C@_08IKHNHAJ@NAN?$CIIND?$CJ@ 10023238     libucrt:cvt.obj
 0002:00003244       ??_C@_08OFCDMILK@nan?$CIind?$CJ@ 10023244     libucrt:cvt.obj
 0002:00003250       ??_C@_05KLBDPFGC@e?$CL000@ 10023250     libucrt:cvt.obj
 0002:00003268       ??_C@_1M@HPNHIDJI@?$AAj?$AAa?$AA?9?$AAJ?$AAP@ 10023268     libucrt:mbctype.obj
 0002:00003274       ??_C@_1M@BIBDDEMK@?$AAz?$AAh?$AA?9?$AAC?$AAN@ 10023274     libucrt:mbctype.obj
 0002:00003280       ??_C@_1M@JLOOOEGK@?$AAk?$AAo?$AA?9?$AAK?$AAR@ 10023280     libucrt:mbctype.obj
 0002:0000328c       ??_C@_1M@CLNBBOPM@?$AAz?$AAh?$AA?9?$AAT?$AAW@ 1002328c     libucrt:mbctype.obj
 0002:00003298       ___newctype                10023298     libucrt:ctype.obj
 0002:00003598       ___newclmap                10023598     libucrt:ctype.obj
 0002:00003718       ___newcumap                10023718     libucrt:ctype.obj
 0002:00003898       ??_C@_15PJPFLCCM@?$AAu?$AAk@ 10023898     libucrt:get_qualified_locale.obj
 0002:00003fc0       ??_C@_15EMKDOKLE@?$AAa?$AAr@ 10023fc0     libucrt:lcidtoname_downlevel.obj
 0002:00003fc8       ??_C@_15KNPADPLH@?$AAb?$AAg@ 10023fc8     libucrt:lcidtoname_downlevel.obj
 0002:00003fd0       ??_C@_15EDMHLDMO@?$AAc?$AAa@ 10023fd0     libucrt:lcidtoname_downlevel.obj
 0002:00003fd8       ??_C@_1O@BPEAJADD@?$AAz?$AAh?$AA?9?$AAC?$AAH?$AAS@ 10023fd8     libucrt:lcidtoname_downlevel.obj
 0002:00003fe8       ??_C@_15LJNHCMNK@?$AAc?$AAs@ 10023fe8     libucrt:lcidtoname_downlevel.obj
 0002:00003ff0       ??_C@_15FOMCIDHG@?$AAd?$AAa@ 10023ff0     libucrt:lcidtoname_downlevel.obj
 0002:00003ff8       ??_C@_15NBKABECB@?$AAd?$AAe@ 10023ff8     libucrt:lcidtoname_downlevel.obj
 0002:00004000       ??_C@_15GHPEIIAO@?$AAe?$AAl@ 10024000     libucrt:lcidtoname_downlevel.obj
 0002:00004008       ??_C@_15MNPNEAIF@?$AAe?$AAn@ 10024008     libucrt:lcidtoname_downlevel.obj
 0002:00004010       ??_C@_15GPIOMPMH@?$AAe?$AAs@ 10024010     libucrt:lcidtoname_downlevel.obj
 0002:00004018       ??_C@_15NGLOAKJC@?$AAf?$AAi@ 10024018     libucrt:lcidtoname_downlevel.obj
 0002:00004020       ??_C@_15FBKGNKAM@?$AAf?$AAr@ 10024020     libucrt:lcidtoname_downlevel.obj
 0002:00004028       ??_C@_15KGGCNEFK@?$AAh?$AAe@ 10024028     libucrt:lcidtoname_downlevel.obj
 0002:00004030       ??_C@_15PGHLIDMF@?$AAh?$AAu@ 10024030     libucrt:lcidtoname_downlevel.obj
 0002:00004038       ??_C@_15BIEMAPLM@?$AAi?$AAs@ 10024038     libucrt:lcidtoname_downlevel.obj
 0002:00004040       ??_C@_15IFJLDHAF@?$AAi?$AAt@ 10024040     libucrt:lcidtoname_downlevel.obj
 0002:00004048       ??_C@_15GEMIOCAG@?$AAj?$AAa@ 10024048     libucrt:lcidtoname_downlevel.obj
 0002:00004050       ??_C@_15EPELEGJA@?$AAk?$AAo@ 10024050     libucrt:lcidtoname_downlevel.obj
 0002:00004058       ??_C@_15NDDHIMN@?$AAn?$AAl@ 10024058     libucrt:lcidtoname_downlevel.obj
 0002:00004060       ??_C@_15BPIGNHCD@?$AAn?$AAo@ 10024060     libucrt:lcidtoname_downlevel.obj
 0002:00004068       ??_C@_15DEOPBLCG@?$AAp?$AAl@ 10024068     libucrt:lcidtoname_downlevel.obj
 0002:00004070       ??_C@_15KBECGEFG@?$AAp?$AAt@ 10024070     libucrt:lcidtoname_downlevel.obj
 0002:00004078       ??_C@_15GLJCBFMD@?$AAr?$AAo@ 10024078     libucrt:lcidtoname_downlevel.obj
 0002:00004080       ??_C@_15FEDGKCDI@?$AAr?$AAu@ 10024080     libucrt:lcidtoname_downlevel.obj
 0002:00004088       ??_C@_15GLKMLLHM@?$AAh?$AAr@ 10024088     libucrt:lcidtoname_downlevel.obj
 0002:00004090       ??_C@_15CPKMFBDB@?$AAs?$AAk@ 10024090     libucrt:lcidtoname_downlevel.obj
 0002:00004098       ??_C@_15BAAIOGMK@?$AAs?$AAq@ 10024098     libucrt:lcidtoname_downlevel.obj
 0002:000040a0       ??_C@_15INNPNOHD@?$AAs?$AAv@ 100240a0     libucrt:lcidtoname_downlevel.obj
 0002:000040a8       ??_C@_15CABMMOGH@?$AAt?$AAh@ 100240a8     libucrt:lcidtoname_downlevel.obj
 0002:000040b0       ??_C@_15BPLIHJJM@?$AAt?$AAr@ 100240b0     libucrt:lcidtoname_downlevel.obj
 0002:000040b8       ??_C@_15NEOEKKDJ@?$AAu?$AAr@ 100240b8     libucrt:lcidtoname_downlevel.obj
 0002:000040c0       ??_C@_15NFICGAJK@?$AAi?$AAd@ 100240c0     libucrt:lcidtoname_downlevel.obj
 0002:000040c8       ??_C@_15HPJPHDM@?$AAb?$AAe@ 100240c8     libucrt:lcidtoname_downlevel.obj
 0002:000040d0       ??_C@_15LCHLGJII@?$AAs?$AAl@ 100240d0     libucrt:lcidtoname_downlevel.obj
 0002:000040d8       ??_C@_15PCFJPHHO@?$AAe?$AAt@ 100240d8     libucrt:lcidtoname_downlevel.obj
 0002:000040e0       ??_C@_15HPFPGODN@?$AAl?$AAv@ 100240e0     libucrt:lcidtoname_downlevel.obj
 0002:000040e8       ??_C@_15NFFGKGLG@?$AAl?$AAt@ 100240e8     libucrt:lcidtoname_downlevel.obj
 0002:000040f0       ??_C@_15BDAKCCHN@?$AAf?$AAa@ 100240f0     libucrt:lcidtoname_downlevel.obj
 0002:000040f8       ??_C@_15NFGIAIAJ@?$AAv?$AAi@ 100240f8     libucrt:lcidtoname_downlevel.obj
 0002:00004100       ??_C@_15LMKNDMHN@?$AAh?$AAy@ 10024100     libucrt:lcidtoname_downlevel.obj
 0002:00004108       ??_C@_15IJBHMCFL@?$AAa?$AAz@ 10024108     libucrt:lcidtoname_downlevel.obj
 0002:00004110       ??_C@_15EKOFJABL@?$AAe?$AAu@ 10024110     libucrt:lcidtoname_downlevel.obj
 0002:00004118       ??_C@_15BGHADCNK@?$AAm?$AAk@ 10024118     libucrt:lcidtoname_downlevel.obj
 0002:00004120       ??_C@_15JDNICKHM@?$AAa?$AAf@ 10024120     libucrt:lcidtoname_downlevel.obj
 0002:00004128       ??_C@_15KPJEDBKD@?$AAk?$AAa@ 10024128     libucrt:lcidtoname_downlevel.obj
 0002:00004130       ??_C@_15PDNFFFEO@?$AAf?$AAo@ 10024130     libucrt:lcidtoname_downlevel.obj
 0002:00004138       ??_C@_15OMLEGLOC@?$AAh?$AAi@ 10024138     libucrt:lcidtoname_downlevel.obj
 0002:00004140       ??_C@_15IDNNENKK@?$AAm?$AAs@ 10024140     libucrt:lcidtoname_downlevel.obj
 0002:00004148       ??_C@_15MACJNBMH@?$AAk?$AAk@ 10024148     libucrt:lcidtoname_downlevel.obj
 0002:00004150       ??_C@_15DKDJEOND@?$AAk?$AAy@ 10024150     libucrt:lcidtoname_downlevel.obj
 0002:00004158       ??_C@_15DFGDLJBG@?$AAs?$AAw@ 10024158     libucrt:lcidtoname_downlevel.obj
 0002:00004160       ??_C@_15BBFAICNG@?$AAu?$AAz@ 10024160     libucrt:lcidtoname_downlevel.obj
 0002:00004168       ??_C@_15DKNDCGEA@?$AAt?$AAt@ 10024168     libucrt:lcidtoname_downlevel.obj
 0002:00004170       ??_C@_15MGIFMDPL@?$AAp?$AAa@ 10024170     libucrt:lcidtoname_downlevel.obj
 0002:00004178       ??_C@_15HCNDBBA@?$AAg?$AAu@ 10024178     libucrt:lcidtoname_downlevel.obj
 0002:00004180       ??_C@_15FNBEIBON@?$AAt?$AAa@ 10024180     libucrt:lcidtoname_downlevel.obj
 0002:00004188       ??_C@_15NCHGBGLK@?$AAt?$AAe@ 10024188     libucrt:lcidtoname_downlevel.obj
 0002:00004190       ??_C@_15PHPHCBPF@?$AAk?$AAn@ 10024190     libucrt:lcidtoname_downlevel.obj
 0002:00004198       ??_C@_15DLGBCKMP@?$AAm?$AAr@ 10024198     libucrt:lcidtoname_downlevel.obj
 0002:000041a0       ??_C@_15EABBLBFF@?$AAs?$AAa@ 100241a0     libucrt:lcidtoname_downlevel.obj
 0002:000041a8       ??_C@_15CBKOMCOI@?$AAm?$AAn@ 100241a8     libucrt:lcidtoname_downlevel.obj
 0002:000041b0       ??_C@_15CKDMCJAF@?$AAg?$AAl@ 100241b0     libucrt:lcidtoname_downlevel.obj
 0002:000041b8       ??_C@_17CNJFBPG@?$AAk?$AAo?$AAk@ 100241b8     libucrt:lcidtoname_downlevel.obj
 0002:000041c0       ??_C@_17FFBJICPL@?$AAs?$AAy?$AAr@ 100241c0     libucrt:lcidtoname_downlevel.obj
 0002:000041c8       ??_C@_17KPNDCPAF@?$AAd?$AAi?$AAv@ 100241c8     libucrt:lcidtoname_downlevel.obj
 0002:000041d0       ??_C@_1M@OKAHONE@?$AAa?$AAr?$AA?9?$AAS?$AAA@ 100241d0     libucrt:lcidtoname_downlevel.obj
 0002:000041dc       ??_C@_1M@FFFIGIGK@?$AAb?$AAg?$AA?9?$AAB?$AAG@ 100241dc     libucrt:lcidtoname_downlevel.obj
 0002:000041e8       ??_C@_1M@BJNKEDC@?$AAc?$AAa?$AA?9?$AAE?$AAS@ 100241e8     libucrt:lcidtoname_downlevel.obj
 0002:000041f4       ??_C@_1M@IJJHFJHA@?$AAc?$AAs?$AA?9?$AAC?$AAZ@ 100241f4     libucrt:lcidtoname_downlevel.obj
 0002:00004200       ??_C@_1M@CLPEOBGI@?$AAd?$AAa?$AA?9?$AAD?$AAK@ 10024200     libucrt:lcidtoname_downlevel.obj
 0002:0000420c       ??_C@_1M@MCMADGCB@?$AAd?$AAe?$AA?9?$AAD?$AAE@ 1002420c     libucrt:lcidtoname_downlevel.obj
 0002:00004218       ??_C@_1M@OOCKEMAM@?$AAe?$AAl?$AA?9?$AAG?$AAR@ 10024218     libucrt:lcidtoname_downlevel.obj
 0002:00004224       ??_C@_1M@DDNJFGID@?$AAf?$AAi?$AA?9?$AAF?$AAI@ 10024224     libucrt:lcidtoname_downlevel.obj
 0002:00004230       ??_C@_1M@GLIPPMAC@?$AAf?$AAr?$AA?9?$AAF?$AAR@ 10024230     libucrt:lcidtoname_downlevel.obj
 0002:0000423c       ??_C@_1M@GFMCHPE@?$AAh?$AAe?$AA?9?$AAI?$AAL@ 1002423c     libucrt:lcidtoname_downlevel.obj
 0002:00004248       ??_C@_1M@MHLPGNKM@?$AAh?$AAu?$AA?9?$AAH?$AAU@ 10024248     libucrt:lcidtoname_downlevel.obj
 0002:00004254       ??_C@_1M@LPDDNNPN@?$AAi?$AAs?$AA?9?$AAI?$AAS@ 10024254     libucrt:lcidtoname_downlevel.obj
 0002:00004260       ??_C@_1M@MADIPODN@?$AAi?$AAt?$AA?9?$AAI?$AAT@ 10024260     libucrt:lcidtoname_downlevel.obj
 0002:0000426c       ??_C@_1M@IHBJJGG@?$AAn?$AAl?$AA?9?$AAN?$AAL@ 1002426c     libucrt:lcidtoname_downlevel.obj
 0002:00004278       ??_C@_1M@EANAGDL@?$AAn?$AAb?$AA?9?$AAN?$AAO@ 10024278     libucrt:lcidtoname_downlevel.obj
 0002:00004284       ??_C@_1M@NEIEMEGP@?$AAp?$AAl?$AA?9?$AAP?$AAL@ 10024284     libucrt:lcidtoname_downlevel.obj
 0002:00004290       ??_C@_1M@BOCFIGEP@?$AAp?$AAt?$AA?9?$AAB?$AAR@ 10024290     libucrt:lcidtoname_downlevel.obj
 0002:0000429c       ??_C@_1M@IMPFOPBG@?$AAr?$AAo?$AA?9?$AAR?$AAO@ 1002429c     libucrt:lcidtoname_downlevel.obj
 0002:000042a8       ??_C@_1M@IDNNEJMM@?$AAr?$AAu?$AA?9?$AAR?$AAU@ 100242a8     libucrt:lcidtoname_downlevel.obj
 0002:000042b4       ??_C@_1M@LILEEOGM@?$AAh?$AAr?$AA?9?$AAH?$AAR@ 100242b4     libucrt:lcidtoname_downlevel.obj
 0002:000042c0       ??_C@_1M@FKIFEHPB@?$AAs?$AAk?$AA?9?$AAS?$AAK@ 100242c0     libucrt:lcidtoname_downlevel.obj
 0002:000042cc       ??_C@_1M@LJMAMNPJ@?$AAs?$AAq?$AA?9?$AAA?$AAL@ 100242cc     libucrt:lcidtoname_downlevel.obj
 0002:000042d8       ??_C@_1M@GIAKDKJK@?$AAs?$AAv?$AA?9?$AAS?$AAE@ 100242d8     libucrt:lcidtoname_downlevel.obj
 0002:000042e4       ??_C@_1M@MKJKIKCL@?$AAt?$AAh?$AA?9?$AAT?$AAH@ 100242e4     libucrt:lcidtoname_downlevel.obj
 0002:000042f0       ??_C@_1M@MFLCCMPB@?$AAt?$AAr?$AA?9?$AAT?$AAR@ 100242f0     libucrt:lcidtoname_downlevel.obj
 0002:000042fc       ??_C@_1M@OIJHDKJN@?$AAu?$AAr?$AA?9?$AAP?$AAK@ 100242fc     libucrt:lcidtoname_downlevel.obj
 0002:00004308       ??_C@_1M@LHIPCIEK@?$AAi?$AAd?$AA?9?$AAI?$AAD@ 10024308     libucrt:lcidtoname_downlevel.obj
 0002:00004314       ??_C@_1M@MFMOBGI@?$AAu?$AAk?$AA?9?$AAU?$AAA@ 10024314     libucrt:lcidtoname_downlevel.obj
 0002:00004320       ??_C@_1M@OBGLJIPL@?$AAb?$AAe?$AA?9?$AAB?$AAY@ 10024320     libucrt:lcidtoname_downlevel.obj
 0002:0000432c       ??_C@_1M@BCFAJEAD@?$AAs?$AAl?$AA?9?$AAS?$AAI@ 1002432c     libucrt:lcidtoname_downlevel.obj
 0002:00004338       ??_C@_1M@FKFFEDDN@?$AAe?$AAt?$AA?9?$AAE?$AAE@ 10024338     libucrt:lcidtoname_downlevel.obj
 0002:00004344       ??_C@_1M@KGKKAACI@?$AAl?$AAv?$AA?9?$AAL?$AAV@ 10024344     libucrt:lcidtoname_downlevel.obj
 0002:00004350       ??_C@_1M@IFGBIJO@?$AAl?$AAt?$AA?9?$AAL?$AAT@ 10024350     libucrt:lcidtoname_downlevel.obj
 0002:0000435c       ??_C@_1M@FGEAHEDM@?$AAf?$AAa?$AA?9?$AAI?$AAR@ 1002435c     libucrt:lcidtoname_downlevel.obj
 0002:00004368       ??_C@_1M@KBMAIBFN@?$AAv?$AAi?$AA?9?$AAV?$AAN@ 10024368     libucrt:lcidtoname_downlevel.obj
 0002:00004374       ??_C@_1M@GPCBKDJK@?$AAh?$AAy?$AA?9?$AAA?$AAM@ 10024374     libucrt:lcidtoname_downlevel.obj
 0002:00004380       ??_C@_1BG@BECMDDJB@?$AAa?$AAz?$AA?9?$AAA?$AAZ?$AA?9?$AAL?$AAa?$AAt?$AAn@ 10024380     libucrt:lcidtoname_downlevel.obj
 0002:00004398       ??_C@_1M@MAOFCAEA@?$AAe?$AAu?$AA?9?$AAE?$AAS@ 10024398     libucrt:lcidtoname_downlevel.obj
 0002:000043a4       ??_C@_1M@IGHABKPI@?$AAm?$AAk?$AA?9?$AAM?$AAK@ 100243a4     libucrt:lcidtoname_downlevel.obj
 0002:000043b0       ??_C@_1M@IAIGNEJG@?$AAt?$AAn?$AA?9?$AAZ?$AAA@ 100243b0     libucrt:lcidtoname_downlevel.obj
 0002:000043bc       ??_C@_1M@IIJCOJFA@?$AAx?$AAh?$AA?9?$AAZ?$AAA@ 100243bc     libucrt:lcidtoname_downlevel.obj
 0002:000043c8       ??_C@_1M@LGPJHNJH@?$AAz?$AAu?$AA?9?$AAZ?$AAA@ 100243c8     libucrt:lcidtoname_downlevel.obj
 0002:000043d4       ??_C@_1M@HOKAOIO@?$AAa?$AAf?$AA?9?$AAZ?$AAA@ 100243d4     libucrt:lcidtoname_downlevel.obj
 0002:000043e0       ??_C@_1M@DPCLHLIE@?$AAk?$AAa?$AA?9?$AAG?$AAE@ 100243e0     libucrt:lcidtoname_downlevel.obj
 0002:000043ec       ??_C@_1M@BLKMHJBI@?$AAf?$AAo?$AA?9?$AAF?$AAO@ 100243ec     libucrt:lcidtoname_downlevel.obj
 0002:000043f8       ??_C@_1M@LGGJAPPB@?$AAh?$AAi?$AA?9?$AAI?$AAN@ 100243f8     libucrt:lcidtoname_downlevel.obj
 0002:00004404       ??_C@_1M@FIKPIHFE@?$AAm?$AAt?$AA?9?$AAM?$AAT@ 10024404     libucrt:lcidtoname_downlevel.obj
 0002:00004410       ??_C@_1M@HEGGPBFA@?$AAs?$AAe?$AA?9?$AAN?$AAO@ 10024410     libucrt:lcidtoname_downlevel.obj
 0002:0000441c       ??_C@_1M@EIBJEEPA@?$AAm?$AAs?$AA?9?$AAM?$AAY@ 1002441c     libucrt:lcidtoname_downlevel.obj
 0002:00004428       ??_C@_1M@FHLBGMPP@?$AAk?$AAk?$AA?9?$AAK?$AAZ@ 10024428     libucrt:lcidtoname_downlevel.obj
 0002:00004434       ??_C@_1M@NGJJLCGI@?$AAk?$AAy?$AA?9?$AAK?$AAG@ 10024434     libucrt:lcidtoname_downlevel.obj
 0002:00004440       ??_C@_1M@GIENNBFC@?$AAs?$AAw?$AA?9?$AAK?$AAE@ 10024440     libucrt:lcidtoname_downlevel.obj
 0002:0000444c       ??_C@_1BG@NDGMJIMJ@?$AAu?$AAz?$AA?9?$AAU?$AAZ?$AA?9?$AAL?$AAa?$AAt?$AAn@ 1002444c     libucrt:lcidtoname_downlevel.obj
 0002:00004464       ??_C@_1M@IDCCIHBC@?$AAt?$AAt?$AA?9?$AAR?$AAU@ 10024464     libucrt:lcidtoname_downlevel.obj
 0002:00004470       ??_C@_1M@LOICPMOJ@?$AAb?$AAn?$AA?9?$AAI?$AAN@ 10024470     libucrt:lcidtoname_downlevel.obj
 0002:0000447c       ??_C@_1M@KPKKNEAH@?$AAp?$AAa?$AA?9?$AAI?$AAN@ 1002447c     libucrt:lcidtoname_downlevel.obj
 0002:00004488       ??_C@_1M@PJGPPBOG@?$AAg?$AAu?$AA?9?$AAI?$AAN@ 10024488     libucrt:lcidtoname_downlevel.obj
 0002:00004494       ??_C@_1M@KMKMOPHI@?$AAt?$AAa?$AA?9?$AAI?$AAN@ 10024494     libucrt:lcidtoname_downlevel.obj
 0002:000044a0       ??_C@_1M@KFEHEPAC@?$AAt?$AAe?$AA?9?$AAI?$AAN@ 100244a0     libucrt:lcidtoname_downlevel.obj
 0002:000044ac       ??_C@_1M@CDCLMGHI@?$AAk?$AAn?$AA?9?$AAI?$AAN@ 100244ac     libucrt:lcidtoname_downlevel.obj
 0002:000044b8       ??_C@_1M@MIODLDKF@?$AAm?$AAl?$AA?9?$AAI?$AAN@ 100244b8     libucrt:lcidtoname_downlevel.obj
 0002:000044c4       ??_C@_1M@PBIEACPO@?$AAm?$AAr?$AA?9?$AAI?$AAN@ 100244c4     libucrt:lcidtoname_downlevel.obj
 0002:000044d0       ??_C@_1M@NIDEAGPH@?$AAs?$AAa?$AA?9?$AAI?$AAN@ 100244d0     libucrt:lcidtoname_downlevel.obj
 0002:000044dc       ??_C@_1M@FHIHCBIO@?$AAm?$AAn?$AA?9?$AAM?$AAN@ 100244dc     libucrt:lcidtoname_downlevel.obj
 0002:000044e8       ??_C@_1M@JAIJPENP@?$AAc?$AAy?$AA?9?$AAG?$AAB@ 100244e8     libucrt:lcidtoname_downlevel.obj
 0002:000044f4       ??_C@_1M@PHGFBEPN@?$AAg?$AAl?$AA?9?$AAE?$AAS@ 100244f4     libucrt:lcidtoname_downlevel.obj
 0002:00004500       ??_C@_1O@KPIPDNCP@?$AAk?$AAo?$AAk?$AA?9?$AAI?$AAN@ 10024500     libucrt:lcidtoname_downlevel.obj
 0002:00004510       ??_C@_1O@KNHJLDJA@?$AAs?$AAy?$AAr?$AA?9?$AAS?$AAY@ 10024510     libucrt:lcidtoname_downlevel.obj
 0002:00004520       ??_C@_1O@MKEKBLAH@?$AAd?$AAi?$AAv?$AA?9?$AAM?$AAV@ 10024520     libucrt:lcidtoname_downlevel.obj
 0002:00004530       ??_C@_1O@OHDCKDDF@?$AAq?$AAu?$AAz?$AA?9?$AAB?$AAO@ 10024530     libucrt:lcidtoname_downlevel.obj
 0002:00004540       ??_C@_1M@LEPJNLFD@?$AAn?$AAs?$AA?9?$AAZ?$AAA@ 10024540     libucrt:lcidtoname_downlevel.obj
 0002:0000454c       ??_C@_1M@OMLEIIJB@?$AAm?$AAi?$AA?9?$AAN?$AAZ@ 1002454c     libucrt:lcidtoname_downlevel.obj
 0002:00004558       ??_C@_1M@PMPEAILG@?$AAa?$AAr?$AA?9?$AAI?$AAQ@ 10024558     libucrt:lcidtoname_downlevel.obj
 0002:00004564       ??_C@_1M@CNKPNOEE@?$AAd?$AAe?$AA?9?$AAC?$AAH@ 10024564     libucrt:lcidtoname_downlevel.obj
 0002:00004570       ??_C@_1M@LKMGMLKO@?$AAe?$AAn?$AA?9?$AAG?$AAB@ 10024570     libucrt:lcidtoname_downlevel.obj
 0002:0000457c       ??_C@_1M@PGKJFFGL@?$AAe?$AAs?$AA?9?$AAM?$AAX@ 1002457c     libucrt:lcidtoname_downlevel.obj
 0002:00004588       ??_C@_1M@DNNANBDC@?$AAf?$AAr?$AA?9?$AAB?$AAE@ 10024588     libucrt:lcidtoname_downlevel.obj
 0002:00004594       ??_C@_1M@HLGMDFHM@?$AAi?$AAt?$AA?9?$AAC?$AAH@ 10024594     libucrt:lcidtoname_downlevel.obj
 0002:000045a0       ??_C@_1M@CLLBGJH@?$AAn?$AAl?$AA?9?$AAB?$AAE@ 100245a0     libucrt:lcidtoname_downlevel.obj
 0002:000045ac       ??_C@_1M@BODBOGLF@?$AAn?$AAn?$AA?9?$AAN?$AAO@ 100245ac     libucrt:lcidtoname_downlevel.obj
 0002:000045b8       ??_C@_1M@HFFAHKAD@?$AAp?$AAt?$AA?9?$AAP?$AAT@ 100245b8     libucrt:lcidtoname_downlevel.obj
 0002:000045c4       ??_C@_1BG@LNOAKHIE@?$AAs?$AAr?$AA?9?$AAS?$AAP?$AA?9?$AAL?$AAa?$AAt?$AAn@ 100245c4     libucrt:lcidtoname_downlevel.obj
 0002:000045dc       ??_C@_1M@HBMHBGAK@?$AAs?$AAv?$AA?9?$AAF?$AAI@ 100245dc     libucrt:lcidtoname_downlevel.obj
 0002:000045e8       ??_C@_1BG@DGCJGJBE@?$AAa?$AAz?$AA?9?$AAA?$AAZ?$AA?9?$AAC?$AAy?$AAr?$AAl@ 100245e8     libucrt:lcidtoname_downlevel.obj
 0002:00004600       ??_C@_1M@KEJDAAHB@?$AAs?$AAe?$AA?9?$AAS?$AAE@ 10024600     libucrt:lcidtoname_downlevel.obj
 0002:0000460c       ??_C@_1M@HEIBJJAD@?$AAm?$AAs?$AA?9?$AAB?$AAN@ 1002460c     libucrt:lcidtoname_downlevel.obj
 0002:00004618       ??_C@_1BG@PBGJMCEM@?$AAu?$AAz?$AA?9?$AAU?$AAZ?$AA?9?$AAC?$AAy?$AAr?$AAl@ 10024618     libucrt:lcidtoname_downlevel.obj
 0002:00004630       ??_C@_1O@LAOBCMDF@?$AAq?$AAu?$AAz?$AA?9?$AAE?$AAC@ 10024630     libucrt:lcidtoname_downlevel.obj
 0002:00004640       ??_C@_1M@POEEMAIO@?$AAa?$AAr?$AA?9?$AAE?$AAG@ 10024640     libucrt:lcidtoname_downlevel.obj
 0002:0000464c       ??_C@_1M@EFAKDEDL@?$AAz?$AAh?$AA?9?$AAH?$AAK@ 1002464c     libucrt:lcidtoname_downlevel.obj
 0002:00004658       ??_C@_1M@HKKIJHGI@?$AAd?$AAe?$AA?9?$AAA?$AAT@ 10024658     libucrt:lcidtoname_downlevel.obj
 0002:00004664       ??_C@_1M@KBFBEHJF@?$AAe?$AAn?$AA?9?$AAA?$AAU@ 10024664     libucrt:lcidtoname_downlevel.obj
 0002:00004670       ??_C@_1M@MNPLFAAH@?$AAe?$AAs?$AA?9?$AAE?$AAS@ 10024670     libucrt:lcidtoname_downlevel.obj
 0002:0000467c       ??_C@_1M@HJOOJFMA@?$AAf?$AAr?$AA?9?$AAC?$AAA@ 1002467c     libucrt:lcidtoname_downlevel.obj
 0002:00004688       ??_C@_1BG@JPOFPNAB@?$AAs?$AAr?$AA?9?$AAS?$AAP?$AA?9?$AAC?$AAy?$AAr?$AAl@ 10024688     libucrt:lcidtoname_downlevel.obj
 0002:000046a0       ??_C@_1M@LNFOCMOB@?$AAs?$AAe?$AA?9?$AAF?$AAI@ 100246a0     libucrt:lcidtoname_downlevel.obj
 0002:000046ac       ??_C@_1O@MGJBOAMB@?$AAq?$AAu?$AAz?$AA?9?$AAP?$AAE@ 100246ac     libucrt:lcidtoname_downlevel.obj
 0002:000046bc       ??_C@_1M@GJINLBOK@?$AAa?$AAr?$AA?9?$AAL?$AAY@ 100246bc     libucrt:lcidtoname_downlevel.obj
 0002:000046c8       ??_C@_1M@GGMNHJNL@?$AAz?$AAh?$AA?9?$AAS?$AAG@ 100246c8     libucrt:lcidtoname_downlevel.obj
 0002:000046d4       ??_C@_1M@HOIKODND@?$AAd?$AAe?$AA?9?$AAL?$AAU@ 100246d4     libucrt:lcidtoname_downlevel.obj
 0002:000046e0       ??_C@_1M@DDOCCGFG@?$AAe?$AAn?$AA?9?$AAC?$AAA@ 100246e0     libucrt:lcidtoname_downlevel.obj
 0002:000046ec       ??_C@_1M@BNOEMJLF@?$AAe?$AAs?$AA?9?$AAG?$AAT@ 100246ec     libucrt:lcidtoname_downlevel.obj
 0002:000046f8       ??_C@_1M@EOGNKEK@?$AAf?$AAr?$AA?9?$AAC?$AAH@ 100246f8     libucrt:lcidtoname_downlevel.obj
 0002:00004704       ??_C@_1M@FLIDJFHL@?$AAh?$AAr?$AA?9?$AAB?$AAA@ 10024704     libucrt:lcidtoname_downlevel.obj
 0002:00004710       ??_C@_1O@FMCELNAJ@?$AAs?$AAm?$AAj?$AA?9?$AAN?$AAO@ 10024710     libucrt:lcidtoname_downlevel.obj
 0002:00004720       ??_C@_1M@JHGLJMGJ@?$AAa?$AAr?$AA?9?$AAD?$AAZ@ 10024720     libucrt:lcidtoname_downlevel.obj
 0002:0000472c       ??_C@_1M@JKKFDCNP@?$AAz?$AAh?$AA?9?$AAM?$AAO@ 1002472c     libucrt:lcidtoname_downlevel.obj
 0002:00004738       ??_C@_1M@GEEFALPE@?$AAd?$AAe?$AA?9?$AAL?$AAI@ 10024738     libucrt:lcidtoname_downlevel.obj
 0002:00004744       ??_C@_1M@IGEOFBG@?$AAe?$AAn?$AA?9?$AAN?$AAZ@ 10024744     libucrt:lcidtoname_downlevel.obj
 0002:00004750       ??_C@_1M@KDBONEHP@?$AAe?$AAs?$AA?9?$AAC?$AAR@ 10024750     libucrt:lcidtoname_downlevel.obj
 0002:0000475c       ??_C@_1M@FHMDOHNN@?$AAf?$AAr?$AA?9?$AAL?$AAU@ 1002475c     libucrt:lcidtoname_downlevel.obj
 0002:00004768       ??_C@_1BG@NFKKMAFG@?$AAb?$AAs?$AA?9?$AAB?$AAA?$AA?9?$AAL?$AAa?$AAt?$AAn@ 10024768     libucrt:lcidtoname_downlevel.obj
 0002:00004780       ??_C@_1O@IMNBEMCI@?$AAs?$AAm?$AAj?$AA?9?$AAS?$AAE@ 10024780     libucrt:lcidtoname_downlevel.obj
 0002:00004790       ??_C@_1M@DHHMBNDP@?$AAa?$AAr?$AA?9?$AAM?$AAA@ 10024790     libucrt:lcidtoname_downlevel.obj
 0002:0000479c       ??_C@_1M@BNBLJCGH@?$AAe?$AAn?$AA?9?$AAI?$AAE@ 1002479c     libucrt:lcidtoname_downlevel.obj
 0002:000047a8       ??_C@_1M@GEPAFMDL@?$AAe?$AAs?$AA?9?$AAP?$AAA@ 100247a8     libucrt:lcidtoname_downlevel.obj
 0002:000047b4       ??_C@_1M@OJONDMDL@?$AAf?$AAr?$AA?9?$AAM?$AAC@ 100247b4     libucrt:lcidtoname_downlevel.obj
 0002:000047c0       ??_C@_1BG@OBCNFJB@?$AAs?$AAr?$AA?9?$AAB?$AAA?$AA?9?$AAL?$AAa?$AAt?$AAn@ 100247c0     libucrt:lcidtoname_downlevel.obj
 0002:000047d8       ??_C@_1O@KEMEEGPO@?$AAs?$AAm?$AAa?$AA?9?$AAN?$AAO@ 100247d8     libucrt:lcidtoname_downlevel.obj
 0002:000047e8       ??_C@_1M@ELMGFODK@?$AAa?$AAr?$AA?9?$AAT?$AAN@ 100247e8     libucrt:lcidtoname_downlevel.obj
 0002:000047f4       ??_C@_1M@BHDLHFAF@?$AAe?$AAn?$AA?9?$AAZ?$AAA@ 100247f4     libucrt:lcidtoname_downlevel.obj
 0002:00004800       ??_C@_1M@BMGIGLIF@?$AAe?$AAs?$AA?9?$AAD?$AAO@ 10024800     libucrt:lcidtoname_downlevel.obj
 0002:0000480c       ??_C@_1BG@CMBHIPBE@?$AAs?$AAr?$AA?9?$AAB?$AAA?$AA?9?$AAC?$AAy?$AAr?$AAl@ 1002480c     libucrt:lcidtoname_downlevel.obj
 0002:00004824       ??_C@_1O@HEDBLHNP@?$AAs?$AAm?$AAa?$AA?9?$AAS?$AAE@ 10024824     libucrt:lcidtoname_downlevel.obj
 0002:00004834       ??_C@_1M@DAGCADIM@?$AAa?$AAr?$AA?9?$AAO?$AAM@ 10024834     libucrt:lcidtoname_downlevel.obj
 0002:00004840       ??_C@_1M@FODLMICG@?$AAe?$AAn?$AA?9?$AAJ?$AAM@ 10024840     libucrt:lcidtoname_downlevel.obj
 0002:0000484c       ??_C@_1M@DNMLCIHB@?$AAe?$AAs?$AA?9?$AAV?$AAE@ 1002484c     libucrt:lcidtoname_downlevel.obj
 0002:00004858       ??_C@_1O@EOKHMKJK@?$AAs?$AAm?$AAs?$AA?9?$AAF?$AAI@ 10024858     libucrt:lcidtoname_downlevel.obj
 0002:00004868       ??_C@_1M@CAFJMKOF@?$AAa?$AAr?$AA?9?$AAY?$AAE@ 10024868     libucrt:lcidtoname_downlevel.obj
 0002:00004874       ??_C@_1M@CBFHIJLI@?$AAe?$AAn?$AA?9?$AAC?$AAB@ 10024874     libucrt:lcidtoname_downlevel.obj
 0002:00004880       ??_C@_1M@BGNFLDN@?$AAe?$AAs?$AA?9?$AAC?$AAO@ 10024880     libucrt:lcidtoname_downlevel.obj
 0002:0000488c       ??_C@_1O@JMPHMAMC@?$AAs?$AAm?$AAn?$AA?9?$AAF?$AAI@ 1002488c     libucrt:lcidtoname_downlevel.obj
 0002:0000489c       ??_C@_1M@JLANABKE@?$AAa?$AAr?$AA?9?$AAS?$AAY@ 1002489c     libucrt:lcidtoname_downlevel.obj
 0002:000048a8       ??_C@_1M@HPKGCFGN@?$AAe?$AAn?$AA?9?$AAB?$AAZ@ 100248a8     libucrt:lcidtoname_downlevel.obj
 0002:000048b4       ??_C@_1M@OLJCMLGM@?$AAe?$AAs?$AA?9?$AAP?$AAE@ 100248b4     libucrt:lcidtoname_downlevel.obj
 0002:000048c0       ??_C@_1M@MKKGFKLE@?$AAa?$AAr?$AA?9?$AAJ?$AAO@ 100248c0     libucrt:lcidtoname_downlevel.obj
 0002:000048cc       ??_C@_1M@EKPGLDNI@?$AAe?$AAn?$AA?9?$AAT?$AAT@ 100248cc     libucrt:lcidtoname_downlevel.obj
 0002:000048d8       ??_C@_1M@OONGHFHE@?$AAe?$AAs?$AA?9?$AAA?$AAR@ 100248d8     libucrt:lcidtoname_downlevel.obj
 0002:000048e4       ??_C@_1M@OOJFGBHE@?$AAa?$AAr?$AA?9?$AAL?$AAB@ 100248e4     libucrt:lcidtoname_downlevel.obj
 0002:000048f0       ??_C@_1M@GCEJHNEG@?$AAe?$AAn?$AA?9?$AAZ?$AAW@ 100248f0     libucrt:lcidtoname_downlevel.obj
 0002:000048fc       ??_C@_1M@JNOCAHJI@?$AAe?$AAs?$AA?9?$AAE?$AAC@ 100248fc     libucrt:lcidtoname_downlevel.obj
 0002:00004908       ??_C@_1M@JEFHPGGB@?$AAa?$AAr?$AA?9?$AAK?$AAW@ 10024908     libucrt:lcidtoname_downlevel.obj
 0002:00004914       ??_C@_1M@MLKIBJOJ@?$AAe?$AAn?$AA?9?$AAP?$AAH@ 10024914     libucrt:lcidtoname_downlevel.obj
 0002:00004920       ??_C@_1M@BDNIPEND@?$AAe?$AAs?$AA?9?$AAC?$AAL@ 10024920     libucrt:lcidtoname_downlevel.obj
 0002:0000492c       ??_C@_1M@MPNMEKBD@?$AAa?$AAr?$AA?9?$AAA?$AAE@ 1002492c     libucrt:lcidtoname_downlevel.obj
 0002:00004938       ??_C@_1M@KBJALCPI@?$AAe?$AAs?$AA?9?$AAU?$AAY@ 10024938     libucrt:lcidtoname_downlevel.obj
 0002:00004944       ??_C@_1M@LLCCOAGA@?$AAa?$AAr?$AA?9?$AAB?$AAH@ 10024944     libucrt:lcidtoname_downlevel.obj
 0002:00004950       ??_C@_1M@PBFNCDEL@?$AAe?$AAs?$AA?9?$AAP?$AAY@ 10024950     libucrt:lcidtoname_downlevel.obj
 0002:0000495c       ??_C@_1M@EDGINPNP@?$AAa?$AAr?$AA?9?$AAQ?$AAA@ 1002495c     libucrt:lcidtoname_downlevel.obj
 0002:00004968       ??_C@_1M@MKDBIIJI@?$AAe?$AAs?$AA?9?$AAB?$AAO@ 10024968     libucrt:lcidtoname_downlevel.obj
 0002:00004974       ??_C@_1M@CPKKEBLD@?$AAe?$AAs?$AA?9?$AAS?$AAV@ 10024974     libucrt:lcidtoname_downlevel.obj
 0002:00004980       ??_C@_1M@NDBGMMJL@?$AAe?$AAs?$AA?9?$AAH?$AAN@ 10024980     libucrt:lcidtoname_downlevel.obj
 0002:0000498c       ??_C@_1M@JIJIBHDP@?$AAe?$AAs?$AA?9?$AAN?$AAI@ 1002498c     libucrt:lcidtoname_downlevel.obj
 0002:00004998       ??_C@_1M@CGFMKEEK@?$AAe?$AAs?$AA?9?$AAP?$AAR@ 10024998     libucrt:lcidtoname_downlevel.obj
 0002:000049a4       ??_C@_1O@ICJHKIIK@?$AAz?$AAh?$AA?9?$AAC?$AAH?$AAT@ 100249a4     libucrt:lcidtoname_downlevel.obj
 0002:000049b4       ??_C@_15CLNEJCE@?$AAs?$AAr@ 100249b4     libucrt:lcidtoname_downlevel.obj
 0002:000050e0       ??_C@_1M@KAHEKEIG@?$AAa?$AAf?$AA?9?$AAz?$AAa@ 100250e0     libucrt:lcidtoname_downlevel.obj
 0002:000050ec       ??_C@_1M@GIECOABL@?$AAa?$AAr?$AA?9?$AAa?$AAe@ 100250ec     libucrt:lcidtoname_downlevel.obj
 0002:000050f8       ??_C@_1M@BMLMEKGI@?$AAa?$AAr?$AA?9?$AAb?$AAh@ 100250f8     libucrt:lcidtoname_downlevel.obj
 0002:00005104       ??_C@_1M@DAPFDGGB@?$AAa?$AAr?$AA?9?$AAd?$AAz@ 10025104     libucrt:lcidtoname_downlevel.obj
 0002:00005110       ??_C@_1M@FJNKGKIG@?$AAa?$AAr?$AA?9?$AAe?$AAg@ 10025110     libucrt:lcidtoname_downlevel.obj
 0002:0000511c       ??_C@_1M@FLGKKCLO@?$AAa?$AAr?$AA?9?$AAi?$AAq@ 1002511c     libucrt:lcidtoname_downlevel.obj
 0002:00005128       ??_C@_1M@GNDIPALM@?$AAa?$AAr?$AA?9?$AAj?$AAo@ 10025128     libucrt:lcidtoname_downlevel.obj
 0002:00005134       ??_C@_1M@DDMJFMGJ@?$AAa?$AAr?$AA?9?$AAk?$AAw@ 10025134     libucrt:lcidtoname_downlevel.obj
 0002:00005140       ??_C@_1M@EJALMLHM@?$AAa?$AAr?$AA?9?$AAl?$AAb@ 10025140     libucrt:lcidtoname_downlevel.obj
 0002:0000514c       ??_C@_1M@MOBDBLOC@?$AAa?$AAr?$AA?9?$AAl?$AAy@ 1002514c     libucrt:lcidtoname_downlevel.obj
 0002:00005158       ??_C@_1M@JAOCLHDH@?$AAa?$AAr?$AA?9?$AAm?$AAa@ 10025158     libucrt:lcidtoname_downlevel.obj
 0002:00005164       ??_C@_1M@JHPMKJIE@?$AAa?$AAr?$AA?9?$AAo?$AAm@ 10025164     libucrt:lcidtoname_downlevel.obj
 0002:00005170       ??_C@_1M@OEPGHFNH@?$AAa?$AAr?$AA?9?$AAq?$AAa@ 10025170     libucrt:lcidtoname_downlevel.obj
 0002:0000517c       ??_C@_1M@KJDONENM@?$AAa?$AAr?$AA?9?$AAs?$AAa@ 1002517c     libucrt:lcidtoname_downlevel.obj
 0002:00005188       ??_C@_1M@DMJDKLKM@?$AAa?$AAr?$AA?9?$AAs?$AAy@ 10025188     libucrt:lcidtoname_downlevel.obj
 0002:00005194       ??_C@_1M@OMFIPEDC@?$AAa?$AAr?$AA?9?$AAt?$AAn@ 10025194     libucrt:lcidtoname_downlevel.obj
 0002:000051a0       ??_C@_1M@IHMHGAON@?$AAa?$AAr?$AA?9?$AAy?$AAe@ 100251a0     libucrt:lcidtoname_downlevel.obj
 0002:000051ac       ??_C@_1BG@KDCPGJGB@?$AAa?$AAz?$AA?9?$AAa?$AAz?$AA?9?$AAc?$AAy?$AAr?$AAl@ 100251ac     libucrt:lcidtoname_downlevel.obj
 0002:000051c4       ??_C@_1BG@IBCKDDOE@?$AAa?$AAz?$AA?9?$AAa?$AAz?$AA?9?$AAl?$AAa?$AAt?$AAn@ 100251c4     libucrt:lcidtoname_downlevel.obj
 0002:000051dc       ??_C@_1M@EGPFDCPD@?$AAb?$AAe?$AA?9?$AAb?$AAy@ 100251dc     libucrt:lcidtoname_downlevel.obj
 0002:000051e8       ??_C@_1M@PCMGMCGC@?$AAb?$AAg?$AA?9?$AAb?$AAg@ 100251e8     libucrt:lcidtoname_downlevel.obj
 0002:000051f4       ??_C@_1M@BJBMFGOB@?$AAb?$AAn?$AA?9?$AAi?$AAn@ 100251f4     libucrt:lcidtoname_downlevel.obj
 0002:00005200       ??_C@_1BG@EAKMMACD@?$AAb?$AAs?$AA?9?$AAb?$AAa?$AA?9?$AAl?$AAa?$AAt?$AAn@ 10025200     libucrt:lcidtoname_downlevel.obj
 0002:00005218       ??_C@_1M@KGADAODK@?$AAc?$AAa?$AA?9?$AAe?$AAs@ 10025218     libucrt:lcidtoname_downlevel.obj
 0002:00005224       ??_C@_1M@COAJPDHI@?$AAc?$AAs?$AA?9?$AAc?$AAz@ 10025224     libucrt:lcidtoname_downlevel.obj
 0002:00005230       ??_C@_1M@DHBHFONH@?$AAc?$AAy?$AA?9?$AAg?$AAb@ 10025230     libucrt:lcidtoname_downlevel.obj
 0002:0000523c       ??_C@_1M@IMGKELGA@?$AAd?$AAa?$AA?9?$AAd?$AAk@ 1002523c     libucrt:lcidtoname_downlevel.obj
 0002:00005248       ??_C@_1M@NNDGDNGA@?$AAd?$AAe?$AA?9?$AAa?$AAt@ 10025248     libucrt:lcidtoname_downlevel.obj
 0002:00005254       ??_C@_1M@IKDBHEEM@?$AAd?$AAe?$AA?9?$AAc?$AAh@ 10025254     libucrt:lcidtoname_downlevel.obj
 0002:00005260       ??_C@_1M@GFFOJMCJ@?$AAd?$AAe?$AA?9?$AAd?$AAe@ 10025260     libucrt:lcidtoname_downlevel.obj
 0002:0000526c       ??_C@_1M@MDNLKBPM@?$AAd?$AAe?$AA?9?$AAl?$AAi@ 1002526c     libucrt:lcidtoname_downlevel.obj
 0002:00005278       ??_C@_1M@NJBEEJNL@?$AAd?$AAe?$AA?9?$AAl?$AAu@ 10025278     libucrt:lcidtoname_downlevel.obj
 0002:00005284       ??_C@_1O@GNNELBAP@?$AAd?$AAi?$AAv?$AA?9?$AAm?$AAv@ 10025284     libucrt:lcidtoname_downlevel.obj
 0002:00005294       ??_C@_1M@EJLEOGAE@?$AAe?$AAl?$AA?9?$AAg?$AAr@ 10025294     libucrt:lcidtoname_downlevel.obj
 0002:000052a0       ??_C@_1M@GMPONJN@?$AAe?$AAn?$AA?9?$AAa?$AAu@ 100252a0     libucrt:lcidtoname_downlevel.obj
 0002:000052ac       ??_C@_1M@NIDIIPGF@?$AAe?$AAn?$AA?9?$AAb?$AAz@ 100252ac     libucrt:lcidtoname_downlevel.obj
 0002:000052b8       ??_C@_1M@JEHMIMFO@?$AAe?$AAn?$AA?9?$AAc?$AAa@ 100252b8     libucrt:lcidtoname_downlevel.obj
 0002:000052c4       ??_C@_1M@IGMJCDLA@?$AAe?$AAn?$AA?9?$AAc?$AAb@ 100252c4     libucrt:lcidtoname_downlevel.obj
 0002:000052d0       ??_C@_1M@BNFIGBKG@?$AAe?$AAn?$AA?9?$AAg?$AAb@ 100252d0     libucrt:lcidtoname_downlevel.obj
 0002:000052dc       ??_C@_1M@LKIFDIGP@?$AAe?$AAn?$AA?9?$AAi?$AAe@ 100252dc     libucrt:lcidtoname_downlevel.obj
 0002:000052e8       ??_C@_1M@PJKFGCCO@?$AAe?$AAn?$AA?9?$AAj?$AAm@ 100252e8     libucrt:lcidtoname_downlevel.obj
 0002:000052f4       ??_C@_1M@KPPKEPBO@?$AAe?$AAn?$AA?9?$AAn?$AAz@ 100252f4     libucrt:lcidtoname_downlevel.obj
 0002:00005300       ??_C@_1M@GMDGLDOB@?$AAe?$AAn?$AA?9?$AAp?$AAh@ 10025300     libucrt:lcidtoname_downlevel.obj
 0002:0000530c       ??_C@_1M@ONGIBJNA@?$AAe?$AAn?$AA?9?$AAt?$AAt@ 1002530c     libucrt:lcidtoname_downlevel.obj
 0002:00005318       ??_C@_1M@LLODPCMM@?$AAe?$AAn?$AA?9?$AAu?$AAs@ 10025318     libucrt:lcidtoname_downlevel.obj
 0002:00005324       ??_C@_1M@LAKFNPAN@?$AAe?$AAn?$AA?9?$AAz?$AAa@ 10025324     libucrt:lcidtoname_downlevel.obj
 0002:00005330       ??_C@_1M@MFNHNHEO@?$AAe?$AAn?$AA?9?$AAz?$AAw@ 10025330     libucrt:lcidtoname_downlevel.obj
 0002:0000533c       ??_C@_1M@EJEINPHM@?$AAe?$AAs?$AA?9?$AAa?$AAr@ 1002533c     libucrt:lcidtoname_downlevel.obj
 0002:00005348       ??_C@_1M@GNKPCCJA@?$AAe?$AAs?$AA?9?$AAb?$AAo@ 10025348     libucrt:lcidtoname_downlevel.obj
 0002:00005354       ??_C@_1M@LEEGFONL@?$AAe?$AAs?$AA?9?$AAc?$AAl@ 10025354     libucrt:lcidtoname_downlevel.obj
 0002:00005360       ??_C@_1M@KGPDPBDF@?$AAe?$AAs?$AA?9?$AAc?$AAo@ 10025360     libucrt:lcidtoname_downlevel.obj
 0002:0000536c       ??_C@_1M@EIAHOHH@?$AAe?$AAs?$AA?9?$AAc?$AAr@ 1002536c     libucrt:lcidtoname_downlevel.obj
 0002:00005378       ??_C@_1M@LLPGMBIN@?$AAe?$AAs?$AA?9?$AAd?$AAo@ 10025378     libucrt:lcidtoname_downlevel.obj
 0002:00005384       ??_C@_1M@DKHMKNJA@?$AAe?$AAs?$AA?9?$AAe?$AAc@ 10025384     libucrt:lcidtoname_downlevel.obj
 0002:00005390       ??_C@_1M@GKGFPKAP@?$AAe?$AAs?$AA?9?$AAe?$AAs@ 10025390     libucrt:lcidtoname_downlevel.obj
 0002:0000539c       ??_C@_1M@LKHKGDLN@?$AAe?$AAs?$AA?9?$AAg?$AAt@ 1002539c     libucrt:lcidtoname_downlevel.obj
 0002:000053a8       ??_C@_1M@HEIIGGJD@?$AAe?$AAs?$AA?9?$AAh?$AAn@ 100253a8     libucrt:lcidtoname_downlevel.obj
 0002:000053b4       ??_C@_1M@FBDHPPGD@?$AAe?$AAs?$AA?9?$AAm?$AAx@ 100253b4     libucrt:lcidtoname_downlevel.obj
 0002:000053c0       ??_C@_1M@DPAGLNDH@?$AAe?$AAs?$AA?9?$AAn?$AAi@ 100253c0     libucrt:lcidtoname_downlevel.obj
 0002:000053cc       ??_C@_1M@MDGOPGDD@?$AAe?$AAs?$AA?9?$AAp?$AAa@ 100253cc     libucrt:lcidtoname_downlevel.obj
 0002:000053d8       ??_C@_1M@EMAMGBGE@?$AAe?$AAs?$AA?9?$AAp?$AAe@ 100253d8     libucrt:lcidtoname_downlevel.obj
 0002:000053e4       ??_C@_1M@IBMCAOEC@?$AAe?$AAs?$AA?9?$AAp?$AAr@ 100253e4     libucrt:lcidtoname_downlevel.obj
 0002:000053f0       ??_C@_1M@FGMDIJED@?$AAe?$AAs?$AA?9?$AAp?$AAy@ 100253f0     libucrt:lcidtoname_downlevel.obj
 0002:000053fc       ??_C@_1M@IIDEOLLL@?$AAe?$AAs?$AA?9?$AAs?$AAv@ 100253fc     libucrt:lcidtoname_downlevel.obj
 0002:00005408       ??_C@_1M@GAOBIPA@?$AAe?$AAs?$AA?9?$AAu?$AAy@ 10025408     libucrt:lcidtoname_downlevel.obj
 0002:00005414       ??_C@_1M@JKFFICHJ@?$AAe?$AAs?$AA?9?$AAv?$AAe@ 10025414     libucrt:lcidtoname_downlevel.obj
 0002:00005420       ??_C@_1M@PNMLOJDF@?$AAe?$AAt?$AA?9?$AAe?$AAe@ 10025420     libucrt:lcidtoname_downlevel.obj
 0002:0000542c       ??_C@_1M@GHHLIKEI@?$AAe?$AAu?$AA?9?$AAe?$AAs@ 1002542c     libucrt:lcidtoname_downlevel.obj
 0002:00005438       ??_C@_1M@PBNONODE@?$AAf?$AAa?$AA?9?$AAi?$AAr@ 10025438     libucrt:lcidtoname_downlevel.obj
 0002:00005444       ??_C@_1M@JEEHPMIL@?$AAf?$AAi?$AA?9?$AAf?$AAi@ 10025444     libucrt:lcidtoname_downlevel.obj
 0002:00005450       ??_C@_1M@LMDCNDBA@?$AAf?$AAo?$AA?9?$AAf?$AAo@ 10025450     libucrt:lcidtoname_downlevel.obj
 0002:0000545c       ??_C@_1M@JKEOHLDK@?$AAf?$AAr?$AA?9?$AAb?$AAe@ 1002545c     libucrt:lcidtoname_downlevel.obj
 0002:00005468       ??_C@_1M@NOHADPMI@?$AAf?$AAr?$AA?9?$AAc?$AAa@ 10025468     libucrt:lcidtoname_downlevel.obj
 0002:00005474       ??_C@_1M@KDHIHAEC@?$AAf?$AAr?$AA?9?$AAc?$AAh@ 10025474     libucrt:lcidtoname_downlevel.obj
 0002:00005480       ??_C@_1M@MMBBFGAK@?$AAf?$AAr?$AA?9?$AAf?$AAr@ 10025480     libucrt:lcidtoname_downlevel.obj
 0002:0000548c       ??_C@_1M@PAFNENNF@?$AAf?$AAr?$AA?9?$AAl?$AAu@ 1002548c     libucrt:lcidtoname_downlevel.obj
 0002:00005498       ??_C@_1M@EOHDJGDD@?$AAf?$AAr?$AA?9?$AAm?$AAc@ 10025498     libucrt:lcidtoname_downlevel.obj
 0002:000054a4       ??_C@_1M@FAPLLOPF@?$AAg?$AAl?$AA?9?$AAe?$AAs@ 100254a4     libucrt:lcidtoname_downlevel.obj
 0002:000054b0       ??_C@_1M@FOPBFLOO@?$AAg?$AAu?$AA?9?$AAi?$AAn@ 100254b0     libucrt:lcidtoname_downlevel.obj
 0002:000054bc       ??_C@_1M@KBMCINPM@?$AAh?$AAe?$AA?9?$AAi?$AAl@ 100254bc     libucrt:lcidtoname_downlevel.obj
 0002:000054c8       ??_C@_1M@BBPHKFPJ@?$AAh?$AAi?$AA?9?$AAi?$AAn@ 100254c8     libucrt:lcidtoname_downlevel.obj
 0002:000054d4       ??_C@_1M@PMBNDPHD@?$AAh?$AAr?$AA?9?$AAb?$AAa@ 100254d4     libucrt:lcidtoname_downlevel.obj
 0002:000054e0       ??_C@_1M@BPCKOEGE@?$AAh?$AAr?$AA?9?$AAh?$AAr@ 100254e0     libucrt:lcidtoname_downlevel.obj
 0002:000054ec       ??_C@_1M@GACBMHKE@?$AAh?$AAu?$AA?9?$AAh?$AAu@ 100254ec     libucrt:lcidtoname_downlevel.obj
 0002:000054f8       ??_C@_1M@MILPAJJC@?$AAh?$AAy?$AA?9?$AAa?$AAm@ 100254f8     libucrt:lcidtoname_downlevel.obj
 0002:00005504       ??_C@_1M@BABBICEC@?$AAi?$AAd?$AA?9?$AAi?$AAd@ 10025504     libucrt:lcidtoname_downlevel.obj
 0002:00005510       ??_C@_1M@BIKNHHPF@?$AAi?$AAs?$AA?9?$AAi?$AAs@ 10025510     libucrt:lcidtoname_downlevel.obj
 0002:0000551c       ??_C@_1M@NMPCJPHE@?$AAi?$AAt?$AA?9?$AAc?$AAh@ 1002551c     libucrt:lcidtoname_downlevel.obj
 0002:00005528       ??_C@_1M@GHKGFEDF@?$AAi?$AAt?$AA?9?$AAi?$AAt@ 10025528     libucrt:lcidtoname_downlevel.obj
 0002:00005534       ??_C@_1M@NIEJCJJA@?$AAj?$AAa?$AA?9?$AAj?$AAp@ 10025534     libucrt:lcidtoname_downlevel.obj
 0002:00005540       ??_C@_1M@JILFNBIM@?$AAk?$AAa?$AA?9?$AAg?$AAe@ 10025540     libucrt:lcidtoname_downlevel.obj
 0002:0000554c       ??_C@_1M@PACPMGPH@?$AAk?$AAk?$AA?9?$AAk?$AAz@ 1002554c     libucrt:lcidtoname_downlevel.obj
 0002:00005558       ??_C@_1M@IELFGMHA@?$AAk?$AAn?$AA?9?$AAi?$AAn@ 10025558     libucrt:lcidtoname_downlevel.obj
 0002:00005564       ??_C@_1O@IBBJHCH@?$AAk?$AAo?$AAk?$AA?9?$AAi?$AAn@ 10025564     libucrt:lcidtoname_downlevel.obj
 0002:00005574       ??_C@_1M@DMHAEOGC@?$AAk?$AAo?$AA?9?$AAk?$AAr@ 10025574     libucrt:lcidtoname_downlevel.obj
 0002:00005580       ??_C@_1M@HBAHBIGA@?$AAk?$AAy?$AA?9?$AAk?$AAg@ 10025580     libucrt:lcidtoname_downlevel.obj
 0002:0000558c       ??_C@_1M@KPMILCJG@?$AAl?$AAt?$AA?9?$AAl?$AAt@ 1002558c     libucrt:lcidtoname_downlevel.obj
 0002:00005598       ??_C@_1M@BDEKKCA@?$AAl?$AAv?$AA?9?$AAl?$AAv@ 10025598     libucrt:lcidtoname_downlevel.obj
 0002:000055a4       ??_C@_1M@ELCKCCJJ@?$AAm?$AAi?$AA?9?$AAn?$AAz@ 100255a4     libucrt:lcidtoname_downlevel.obj
 0002:000055b0       ??_C@_1M@CBOOLAPA@?$AAm?$AAk?$AA?9?$AAm?$AAk@ 100255b0     libucrt:lcidtoname_downlevel.obj
 0002:000055bc       ??_C@_1M@GPHNBJKN@?$AAm?$AAl?$AA?9?$AAi?$AAn@ 100255bc     libucrt:lcidtoname_downlevel.obj
 0002:000055c8       ??_C@_1M@PABJILIG@?$AAm?$AAn?$AA?9?$AAm?$AAn@ 100255c8     libucrt:lcidtoname_downlevel.obj
 0002:000055d4       ??_C@_1M@FGBKKIPG@?$AAm?$AAr?$AA?9?$AAi?$AAn@ 100255d4     libucrt:lcidtoname_downlevel.obj
 0002:000055e0       ??_C@_1M@NDBPDDAL@?$AAm?$AAs?$AA?9?$AAb?$AAn@ 100255e0     libucrt:lcidtoname_downlevel.obj
 0002:000055ec       ??_C@_1M@OPIHOOPI@?$AAm?$AAs?$AA?9?$AAm?$AAy@ 100255ec     libucrt:lcidtoname_downlevel.obj
 0002:000055f8       ??_C@_1M@PPDBCNFM@?$AAm?$AAt?$AA?9?$AAm?$AAt@ 100255f8     libucrt:lcidtoname_downlevel.obj
 0002:00005604       ??_C@_1M@KDJDKMDD@?$AAn?$AAb?$AA?9?$AAn?$AAo@ 10025604     libucrt:lcidtoname_downlevel.obj
 0002:00005610       ??_C@_1M@KFCFLMJP@?$AAn?$AAl?$AA?9?$AAb?$AAe@ 10025610     libucrt:lcidtoname_downlevel.obj
 0002:0000561c       ??_C@_1M@KPOPDDGO@?$AAn?$AAl?$AA?9?$AAn?$AAl@ 1002561c     libucrt:lcidtoname_downlevel.obj
 0002:00005628       ??_C@_1M@LJKPEMLN@?$AAn?$AAn?$AA?9?$AAn?$AAo@ 10025628     libucrt:lcidtoname_downlevel.obj
 0002:00005634       ??_C@_1M@BDGHHBFL@?$AAn?$AAs?$AA?9?$AAz?$AAa@ 10025634     libucrt:lcidtoname_downlevel.obj
 0002:00005640       ??_C@_1M@IDEHOAP@?$AAp?$AAa?$AA?9?$AAi?$AAn@ 10025640     libucrt:lcidtoname_downlevel.obj
 0002:0000564c       ??_C@_1M@HDBKGOGH@?$AAp?$AAl?$AA?9?$AAp?$AAl@ 1002564c     libucrt:lcidtoname_downlevel.obj
 0002:00005658       ??_C@_1M@LJLLCMEH@?$AAp?$AAt?$AA?9?$AAb?$AAr@ 10025658     libucrt:lcidtoname_downlevel.obj
 0002:00005664       ??_C@_1M@NCMONAAL@?$AAp?$AAt?$AA?9?$AAp?$AAt@ 10025664     libucrt:lcidtoname_downlevel.obj
 0002:00005670       ??_C@_1O@EAKMAJDN@?$AAq?$AAu?$AAz?$AA?9?$AAb?$AAo@ 10025670     libucrt:lcidtoname_downlevel.obj
 0002:00005680       ??_C@_1O@BHHPIGDN@?$AAq?$AAu?$AAz?$AA?9?$AAe?$AAc@ 10025680     libucrt:lcidtoname_downlevel.obj
 0002:00005690       ??_C@_1O@GBAPEKMJ@?$AAq?$AAu?$AAz?$AA?9?$AAp?$AAe@ 10025690     libucrt:lcidtoname_downlevel.obj
 0002:000056a0       ??_C@_1M@CLGLEFBO@?$AAr?$AAo?$AA?9?$AAr?$AAo@ 100256a0     libucrt:lcidtoname_downlevel.obj
 0002:000056ac       ??_C@_1M@CEEDODME@?$AAr?$AAu?$AA?9?$AAr?$AAu@ 100256ac     libucrt:lcidtoname_downlevel.obj
 0002:000056b8       ??_C@_1M@HPKKKMPP@?$AAs?$AAa?$AA?9?$AAi?$AAn@ 100256b8     libucrt:lcidtoname_downlevel.obj
 0002:000056c4       ??_C@_1M@BKMAIGOJ@?$AAs?$AAe?$AA?9?$AAf?$AAi@ 100256c4     libucrt:lcidtoname_downlevel.obj
 0002:000056d0       ??_C@_1M@NDPIFLFI@?$AAs?$AAe?$AA?9?$AAn?$AAo@ 100256d0     libucrt:lcidtoname_downlevel.obj
 0002:000056dc       ??_C@_1M@DANKKHJ@?$AAs?$AAe?$AA?9?$AAs?$AAe@ 100256dc     libucrt:lcidtoname_downlevel.obj
 0002:000056e8       ??_C@_1M@PNBLONPJ@?$AAs?$AAk?$AA?9?$AAs?$AAk@ 100256e8     libucrt:lcidtoname_downlevel.obj
 0002:000056f4       ??_C@_1M@LFMODOAL@?$AAs?$AAl?$AA?9?$AAs?$AAi@ 100256f4     libucrt:lcidtoname_downlevel.obj
 0002:00005700       ??_C@_1O@DFKOMPG@?$AAs?$AAm?$AAa?$AA?9?$AAn?$AAo@ 10025700     libucrt:lcidtoname_downlevel.obj
 0002:00005710       ??_C@_1O@NDKPBNNH@?$AAs?$AAm?$AAa?$AA?9?$AAs?$AAe@ 10025710     libucrt:lcidtoname_downlevel.obj
 0002:00005720       ??_C@_1O@PLLKBHAB@?$AAs?$AAm?$AAj?$AA?9?$AAn?$AAo@ 10025720     libucrt:lcidtoname_downlevel.obj
 0002:00005730       ??_C@_1O@CLEPOGCA@?$AAs?$AAm?$AAj?$AA?9?$AAs?$AAe@ 10025730     libucrt:lcidtoname_downlevel.obj
 0002:00005740       ??_C@_1O@DLGJGKMK@?$AAs?$AAm?$AAn?$AA?9?$AAf?$AAi@ 10025740     libucrt:lcidtoname_downlevel.obj
 0002:00005750       ??_C@_1O@OJDJGAJC@?$AAs?$AAm?$AAs?$AA?9?$AAf?$AAi@ 10025750     libucrt:lcidtoname_downlevel.obj
 0002:00005760       ??_C@_1M@BOFOGHPB@?$AAs?$AAq?$AA?9?$AAa?$AAl@ 10025760     libucrt:lcidtoname_downlevel.obj
 0002:0000576c       ??_C@_1BG@LJBBIPGB@?$AAs?$AAr?$AA?9?$AAb?$AAa?$AA?9?$AAc?$AAy?$AAr?$AAl@ 1002576c     libucrt:lcidtoname_downlevel.obj
 0002:00005784       ??_C@_1BG@JLBENFOE@?$AAs?$AAr?$AA?9?$AAb?$AAa?$AA?9?$AAl?$AAa?$AAt?$AAn@ 10025784     libucrt:lcidtoname_downlevel.obj
 0002:0000579c       ??_C@_1BG@KODPNHE@?$AAs?$AAr?$AA?9?$AAs?$AAp?$AA?9?$AAc?$AAy?$AAr?$AAl@ 1002579c     libucrt:lcidtoname_downlevel.obj
 0002:000057b4       ??_C@_1BG@CIOGKHPB@?$AAs?$AAr?$AA?9?$AAs?$AAp?$AA?9?$AAl?$AAa?$AAt?$AAn@ 100257b4     libucrt:lcidtoname_downlevel.obj
 0002:000057cc       ??_C@_1M@NGFJLMAC@?$AAs?$AAv?$AA?9?$AAf?$AAi@ 100257cc     libucrt:lcidtoname_downlevel.obj
 0002:000057d8       ??_C@_1M@MPJEJAJC@?$AAs?$AAv?$AA?9?$AAs?$AAe@ 100257d8     libucrt:lcidtoname_downlevel.obj
 0002:000057e4       ??_C@_1M@MPNDHLFK@?$AAs?$AAw?$AA?9?$AAk?$AAe@ 100257e4     libucrt:lcidtoname_downlevel.obj
 0002:000057f0       ??_C@_1O@KOHBJJI@?$AAs?$AAy?$AAr?$AA?9?$AAs?$AAy@ 100257f0     libucrt:lcidtoname_downlevel.obj
 0002:00005800       ??_C@_1M@LDCEFHA@?$AAt?$AAa?$AA?9?$AAi?$AAn@ 10025800     libucrt:lcidtoname_downlevel.obj
 0002:0000580c       ??_C@_1M@CNJOFAK@?$AAt?$AAe?$AA?9?$AAi?$AAn@ 1002580c     libucrt:lcidtoname_downlevel.obj
 0002:00005818       ??_C@_1M@GNAECACD@?$AAt?$AAh?$AA?9?$AAt?$AAh@ 10025818     libucrt:lcidtoname_downlevel.obj
 0002:00005824       ??_C@_1M@CHBIHOJO@?$AAt?$AAn?$AA?9?$AAz?$AAa@ 10025824     libucrt:lcidtoname_downlevel.obj
 0002:00005830       ??_C@_1M@GCCMIGPJ@?$AAt?$AAr?$AA?9?$AAt?$AAr@ 10025830     libucrt:lcidtoname_downlevel.obj
 0002:0000583c       ??_C@_1M@CELMCNBK@?$AAt?$AAt?$AA?9?$AAr?$AAu@ 1002583c     libucrt:lcidtoname_downlevel.obj
 0002:00005848       ??_C@_1M@KLMCELGA@?$AAu?$AAk?$AA?9?$AAu?$AAa@ 10025848     libucrt:lcidtoname_downlevel.obj
 0002:00005854       ??_C@_1M@EPAJJAJF@?$AAu?$AAr?$AA?9?$AAp?$AAk@ 10025854     libucrt:lcidtoname_downlevel.obj
 0002:00005860       ??_C@_1BG@GEGPMCDJ@?$AAu?$AAz?$AA?9?$AAu?$AAz?$AA?9?$AAc?$AAy?$AAr?$AAl@ 10025860     libucrt:lcidtoname_downlevel.obj
 0002:00005878       ??_C@_1BG@EGGKJILM@?$AAu?$AAz?$AA?9?$AAu?$AAz?$AA?9?$AAl?$AAa?$AAt?$AAn@ 10025878     libucrt:lcidtoname_downlevel.obj
 0002:00005890       ??_C@_1M@GFOCLFF@?$AAv?$AAi?$AA?9?$AAv?$AAn@ 10025890     libucrt:lcidtoname_downlevel.obj
 0002:0000589c       ??_C@_1M@CPAMEDFI@?$AAx?$AAh?$AA?9?$AAz?$AAa@ 1002589c     libucrt:lcidtoname_downlevel.obj
 0002:000058a8       ??_C@_1O@EBKIFIGN@?$AAz?$AAh?$AA?9?$AAc?$AAh?$AAs@ 100258a8     libucrt:lcidtoname_downlevel.obj
 0002:000058b8       ??_C@_1O@NMHPGANE@?$AAz?$AAh?$AA?9?$AAc?$AAh?$AAt@ 100258b8     libucrt:lcidtoname_downlevel.obj
 0002:000058c8       ??_C@_1M@LPINJOMC@?$AAz?$AAh?$AA?9?$AAc?$AAn@ 100258c8     libucrt:lcidtoname_downlevel.obj
 0002:000058d4       ??_C@_1M@OCJEJODD@?$AAz?$AAh?$AA?9?$AAh?$AAk@ 100258d4     libucrt:lcidtoname_downlevel.obj
 0002:000058e0       ??_C@_1M@DNDLJINH@?$AAz?$AAh?$AA?9?$AAm?$AAo@ 100258e0     libucrt:lcidtoname_downlevel.obj
 0002:000058ec       ??_C@_1M@MBFDNDND@?$AAz?$AAh?$AA?9?$AAs?$AAg@ 100258ec     libucrt:lcidtoname_downlevel.obj
 0002:000058f8       ??_C@_1M@IMEPLEPE@?$AAz?$AAh?$AA?9?$AAt?$AAw@ 100258f8     libucrt:lcidtoname_downlevel.obj
 0002:00005904       ??_C@_1M@BBGHNHJP@?$AAz?$AAu?$AA?9?$AAz?$AAa@ 10025904     libucrt:lcidtoname_downlevel.obj
 0002:00005910       ?large_power_data@?1??multiply_by_power_of_ten@__crt_strtox@@YA_NAAUbig_integer@2@I@Z@4QBIB 10025910     libucrt:cfout.obj
 0002:00006218       ?large_power_indices@?1??multiply_by_power_of_ten@__crt_strtox@@YA_NAAUbig_integer@2@I@Z@4QBUunpack_index@?1??12@YA_N0I@Z@B 10026218     libucrt:cfout.obj
 0002:000062b0       ?small_powers_of_ten@?1??multiply_by_power_of_ten@__crt_strtox@@YA_NAAUbig_integer@2@I@Z@4QBIB 100262b0     libucrt:cfout.obj
 0002:000062d4       ??_C@_01GBGANLPD@0@        100262d4     libucrt:cfout.obj
 0002:000062d8       ??_C@_05DNEBIAHO@1?$CDINF@ 100262d8     libucrt:cfout.obj
 0002:000062e0       ??_C@_06IMKFLFPG@1?$CDQNAN@ 100262e0     libucrt:cfout.obj
 0002:000062e8       ??_C@_06PGGFOGJG@1?$CDSNAN@ 100262e8     libucrt:cfout.obj
 0002:000062f0       ??_C@_05PHHOCPM@1?$CDIND@  100262f0     libucrt:cfout.obj
 0002:00006460       __infinity                 10026460     libucrt:87tran.obj
 0002:0000646a       __minfinity                1002646a     libucrt:87tran.obj
 0002:00006474       __logemax                  10026474     libucrt:87tran.obj
 0002:0000649a       __OP_EXPjmptab             1002649a     libucrt:87tran.obj
 0002:000064c0       __indefinite               100264c0     libucrt:87disp.obj
 0002:000064ca       __piby2                    100264ca     libucrt:87disp.obj
 0002:000064d4       __piby4                    100264d4     libucrt:87disp.obj
 0002:00006508       __DEFAULT_CW_in_mem        10026508     libucrt:common.obj
 0002:0000650a       __pi_by_2_to_61            1002650a     libucrt:common.obj
 0002:00006544       ??_C@_03MGHMBJCF@log@      10026544     libucrt:libm_error.obj
 0002:00006548       ??_C@_05HGHHAHAP@log10@    10026548     libucrt:libm_error.obj
 0002:00006550       ??_C@_03KHJOGHMM@exp@      10026550     libucrt:libm_error.obj
 0002:00006554       ??_C@_03JGHBODFD@pow@      10026554     libucrt:libm_error.obj
 0002:00006558       ??_C@_04FIHNOPOL@asin@     10026558     libucrt:libm_error.obj
 0002:00006560       ??_C@_04PDIFKINK@acos@     10026560     libucrt:libm_error.obj
 0002:00006568       ??_C@_04EIAKFFMI@sqrt@     10026568     libucrt:libm_error.obj
 0002:00006570       __real@3ff0000000000000    10026570     libucrt:libm_error.obj
 0002:00006578       ??_C@_1BA@BALFACEM@?$AAC?$AAO?$AAN?$AAO?$AAU?$AAT?$AA$@ 10026578     libucrt:initcon.obj
 0002:000065a0       ___acrt_log10_table_t      100265a0     libucrt:log10_tables.obj
 0002:000069b0       ___acrt_log10_table_cb     100269b0     libucrt:log10_tables.obj
 0002:00006dc0       __real@3fe0000000000000    10026dc0     libucrt:powhlp.obj
 0002:00006eb0       ??_C@_04COOMCNPB@sinh@     10026eb0     libucrt:fpexcept.obj
 0002:00006eb8       ??_C@_04HPJJNFIM@cosh@     10026eb8     libucrt:fpexcept.obj
 0002:00006ec0       ??_C@_04FJHINJAO@tanh@     10026ec0     libucrt:fpexcept.obj
 0002:00006ec8       ??_C@_04MLLJIGOK@atan@     10026ec8     libucrt:fpexcept.obj
 0002:00006ed0       ??_C@_05KNGEOGJB@atan2@    10026ed0     libucrt:fpexcept.obj
 0002:00006ed8       ??_C@_03BLEJJJBH@sin@      10026ed8     libucrt:fpexcept.obj
 0002:00006edc       ??_C@_03LALBNOCG@cos@      10026edc     libucrt:fpexcept.obj
 0002:00006ee0       ??_C@_03IIINPABG@tan@      10026ee0     libucrt:fpexcept.obj
 0002:00006ee4       ??_C@_04GFPJNGEK@ceil@     10026ee4     libucrt:fpexcept.obj
 0002:00006eec       ??_C@_05PBJFFIGL@floor@    10026eec     libucrt:fpexcept.obj
 0002:00006ef4       ??_C@_04ODHECPBC@fabs@     10026ef4     libucrt:fpexcept.obj
 0002:00006efc       ??_C@_04EHEDPDJG@modf@     10026efc     libucrt:fpexcept.obj
 0002:00006f04       ??_C@_05CEJMAHNP@ldexp@    10026f04     libucrt:fpexcept.obj
 0002:00006f0c       ??_C@_05KBKMEMPO@_cabs@    10026f0c     libucrt:fpexcept.obj
 0002:00006f14       ??_C@_06MEIMCGCF@_hypot@   10026f14     libucrt:fpexcept.obj
 0002:00006f1c       ??_C@_04KEPJIHGP@fmod@     10026f1c     libucrt:fpexcept.obj
 0002:00006f24       ??_C@_05GKKHEGJL@frexp@    10026f24     libucrt:fpexcept.obj
 0002:00006f2c       ??_C@_03MJLDFKDL@_y0@      10026f2c     libucrt:fpexcept.obj
 0002:00006f30       ??_C@_03NAKIGLHK@_y1@      10026f30     libucrt:fpexcept.obj
 0002:00006f34       ??_C@_03ONILCKOB@_yn@      10026f34     libucrt:fpexcept.obj
 0002:00006f38       ??_C@_05JGDBENOH@_logb@    10026f38     libucrt:fpexcept.obj
 0002:00006f40       ??_C@_0L@KDOEJCKC@_nextafter@ 10026f40     libucrt:fpexcept.obj
 0002:00006f50       __d_inf                    10026f50     libucrt:util.obj
 0002:00006f58       __d_max                    10026f58     libucrt:util.obj
 0002:00006f60       __d_mzero                  10026f60     libucrt:util.obj
 0002:00006fd0       __load_config_used         10026fd0     LIBCMT:loadcfg.obj
 0002:000070c0       __tls_used                 100270c0     LIBCMT:tlssup.obj
 0002:000070d8       ??_R4exception@std@@6B@    100270d8     LIBCMT:throw_bad_alloc.obj
 0002:000070ec       ??_R3exception@std@@8      100270ec     LIBCMT:throw_bad_alloc.obj
 0002:000070fc       ??_R2exception@std@@8      100270fc     LIBCMT:throw_bad_alloc.obj
 0002:00007104       ??_R1A@?0A@EA@exception@std@@8 10027104     LIBCMT:throw_bad_alloc.obj
 0002:00007120       ??_R4bad_alloc@std@@6B@    10027120     LIBCMT:throw_bad_alloc.obj
 0002:00007134       ??_R3bad_alloc@std@@8      10027134     LIBCMT:throw_bad_alloc.obj
 0002:00007144       ??_R2bad_alloc@std@@8      10027144     LIBCMT:throw_bad_alloc.obj
 0002:00007150       ??_R1A@?0A@EA@bad_alloc@std@@8 10027150     LIBCMT:throw_bad_alloc.obj
 0002:0000716c       ??_R4bad_array_new_length@std@@6B@ 1002716c     LIBCMT:throw_bad_alloc.obj
 0002:00007180       ??_R3bad_array_new_length@std@@8 10027180     LIBCMT:throw_bad_alloc.obj
 0002:00007190       ??_R2bad_array_new_length@std@@8 10027190     LIBCMT:throw_bad_alloc.obj
 0002:000071a0       ??_R1A@?0A@EA@bad_array_new_length@std@@8 100271a0     LIBCMT:throw_bad_alloc.obj
 0002:000071bc       ??_R4type_info@@6B@        100271bc     LIBCMT:std_type_info_static.obj
 0002:000071d0       ??_R3type_info@@8          100271d0     LIBCMT:std_type_info_static.obj
 0002:000071e0       ??_R2type_info@@8          100271e0     LIBCMT:std_type_info_static.obj
 0002:000071e8       ??_R1A@?0A@EA@type_info@@8 100271e8     LIBCMT:std_type_info_static.obj
 0002:00007204       ??_R4bad_exception@std@@6B@ 10027204     libvcruntime:frame.obj
 0002:00007218       ??_R3bad_exception@std@@8  10027218     libvcruntime:frame.obj
 0002:00007228       ??_R2bad_exception@std@@8  10027228     libvcruntime:frame.obj
 0002:00007234       ??_R1A@?0A@EA@bad_exception@std@@8 10027234     libvcruntime:frame.obj
 0002:00007250       ___safe_se_handler_table   10027250     <linker-defined>
 0002:0000727c       ___volatile_metadata       1002727c     <linker-defined>
 0002:000076b8       ___rtc_iaa                 100276b8     LIBCMT:initsect.obj
 0002:000076bc       ___rtc_izz                 100276bc     LIBCMT:initsect.obj
 0002:000076c0       ___rtc_taa                 100276c0     LIBCMT:initsect.obj
 0002:000076c4       ___rtc_tzz                 100276c4     LIBCMT:initsect.obj
 0002:000076c8       __tls_start                100276c8     LIBCMT:tlssup.obj
 0002:000076cc       __Init_thread_epoch        100276cc     LIBCMT:thread_safe_statics.obj
 0002:000076d0       __tls_end                  100276d0     LIBCMT:tlssup.obj
 0002:000077d4       __TI2?AVbad_alloc@std@@    100277d4     LIBCMT:throw_bad_alloc.obj
 0002:000077e4       __CTA2?AVbad_alloc@std@@   100277e4     LIBCMT:throw_bad_alloc.obj
 0002:000077f0       __CT??_R0?AVbad_alloc@std@@@8??0bad_alloc@std@@QAE@ABV01@@Z12 100277f0     LIBCMT:throw_bad_alloc.obj
 0002:0000780c       __CT??_R0?AVexception@std@@@8??0exception@std@@QAE@ABV01@@Z12 1002780c     LIBCMT:throw_bad_alloc.obj
 0002:00007828       __TI3?AVbad_array_new_length@std@@ 10027828     LIBCMT:throw_bad_alloc.obj
 0002:00007838       __CTA3?AVbad_array_new_length@std@@ 10027838     LIBCMT:throw_bad_alloc.obj
 0002:00007848       __CT??_R0?AVbad_array_new_length@std@@@8??0bad_array_new_length@std@@QAE@ABV01@@Z12 10027848     LIBCMT:throw_bad_alloc.obj
 0002:0000796c       __TI2?AVbad_exception@std@@ 1002796c     libvcruntime:frame.obj
 0002:0000797c       __CTA2?AVbad_exception@std@@ 1002797c     libvcruntime:frame.obj
 0002:00007988       __CT??_R0?AVbad_exception@std@@@8??0bad_exception@std@@QAE@ABV01@@Z12 10027988     libvcruntime:frame.obj
 0002:00007db4       ___pobjMapEntryFirst       10027db4     OposVariant.obj
 0002:00007db8       ___pobjMapEntryLast        10027db8     OposVariant.obj
 0002:00007e6c       __IMPORT_DESCRIPTOR_KERNEL32 10027e6c     kernel32:KERNEL32.dll
 0002:00007e80       __IMPORT_DESCRIPTOR_USER32 10027e80     user32:USER32.dll
 0002:00007e94       __IMPORT_DESCRIPTOR_GDI32  10027e94     gdi32:GDI32.dll
 0002:00007ea8       __IMPORT_DESCRIPTOR_ADVAPI32 10027ea8     advapi32:ADVAPI32.dll
 0002:00007ebc       __IMPORT_DESCRIPTOR_ole32  10027ebc     ole32:ole32.dll
 0002:00007ed0       __IMPORT_DESCRIPTOR_OLEAUT32 10027ed0     oleaut32:OLEAUT32.dll
 0002:00007ee4       __NULL_IMPORT_DESCRIPTOR   10027ee4     kernel32:KERNEL32.dll
 0003:00000000       ?rcDefault@CWindow@ATL@@2UtagRECT@@A 10029000     CashDrawer.obj
 0003:00000010       ?s_Claim@?7??GetIDsOfNames@CComTypeInfoHolder@ATL@@QAEJABU_GUID@@PAPA_WIKPAJ@Z@4PA_WA 10029010     CashDrawer.obj
 0003:00000028       ?s_Release@?7??GetIDsOfNames@CComTypeInfoHolder@ATL@@QAEJABU_GUID@@PAPA_WIKPAJ@Z@4PA_WA 10029028     CashDrawer.obj
 0003:00000044       ?_tih@?$IDispatchImpl@UIOPOSCashDrawer@@$1?IID_IOPOSCashDrawer@@3U_GUID@@B$1?LIBID_OposCashDrawer_CCO@@3U3@B$00$0A@VCComTypeInfoHolder@ATL@@@ATL@@1VCComTypeInfoHolder@2@A 10029044     CashDrawer.obj
 0003:00000060       ?_tih@?$IProvideClassInfo2Impl@$1?CLSID_OPOSCashDrawer@@3U_GUID@@B$1?DIID__IOPOSCashDrawerEvents@@3U2@B$1?LIBID_OposCashDrawer_CCO@@3U2@B$00$0A@VCComTypeInfoHolder@ATL@@@ATL@@1VCComTypeInfoHolder@2@A 10029060     CashDrawer.obj
 0003:0000007c       ?vszContents@?6??Save@?$IPersistStorageImpl@VCOPOSCashDrawer@@@ATL@@UAGJPAUIStorage@@H@Z@4PB_WB 1002907c     CashDrawer.obj
 0003:00000080       ?wc@?1??GetWndClassInfo@?$CWindowImpl@VCOPOSCashDrawer@@VCWindow@ATL@@V?$CWinTraits@$0FGAAAAAA@$0A@@3@@ATL@@SAAAU_ATL_WNDCLASSINFOW@3@XZ@4U43@A 10029080     CashDrawer.obj
 0003:00000158       ?g_WindowName@@3PA_WA      10029158     CashDrawerImpl.obj
 0003:0000017c       ?g_ControlVersion@@3JA     1002917c     CashDrawerImpl.obj
 0003:00000180       ?g_ControlDescription@@3PADA 10029180     CashDrawerImpl.obj
 0003:00000244       ___scrt_native_dllmain_reason 10029244     LIBCMT:utility.obj
 0003:00000248       __Init_global_epoch        10029248     LIBCMT:thread_safe_statics.obj
 0003:00000250       ___security_cookie_complement 10029250     LIBCMT:gs_cookie.obj
 0003:00000254       ___security_cookie         10029254     LIBCMT:gs_cookie.obj
 0003:00000258       ___isa_enabled             10029258     LIBCMT:cpu_disp.obj
 0003:00000270       __NLG_Destination          10029270     libvcruntime:exsup.obj
 0003:00000288       ___abort_behavior          10029288     libucrt:abort.obj
 0003:00000298       ___acrt_initial_locale_data 10029298     libucrt:nlsdata.obj
 0003:00000350       ___acrt_initial_locale_pointers 10029350     libucrt:nlsdata.obj
 0003:00000358       ___acrt_wide_c_locale_string 10029358     libucrt:nlsdata.obj
 0003:00000360       __iob                      10029360     libucrt:_file.obj
 0003:00000408       ___acrt_initial_multibyte_data 10029408     libucrt:mbctype.obj
 0003:00000928       ___acrt_lconv_c            10029928     libucrt:localeconv.obj
 0003:00000978       ___acrt_lconv_static_decimal 10029978     libucrt:localeconv.obj
 0003:0000097c       ___acrt_lconv_static_W_decimal 1002997c     libucrt:localeconv.obj
 0003:00000980       ___globallocalestatus      10029980     libucrt:glstatus.obj
 0003:00000990       __lookuptrailbytes         10029990     libucrt:read.obj
 0003:00000aa0       __fltused                  10029aa0     LIBCMT:fltused.obj
 0003:00000ab0       ??_R0?AVbad_alloc@std@@@8  10029ab0     LIBCMT:throw_bad_alloc.obj
 0003:00000acc       ??_R0?AVexception@std@@@8  10029acc     LIBCMT:throw_bad_alloc.obj
 0003:00000ae8       ??_R0?AVbad_array_new_length@std@@@8 10029ae8     LIBCMT:throw_bad_alloc.obj
 0003:00000b10       ??_R0?AVbad_exception@std@@@8 10029b10     libvcruntime:frame.obj
 0003:00000b30       ??_R0?AVtype_info@@@8      10029b30     LIBCMT:std_type_info_static.obj
 0003:00000b48       ?m_bInitFailed@CAtlBaseModule@ATL@@2_NA 10029b48     OposVariant.obj
 0003:00000b4c       ?_pPerfRegFunc@ATL@@3P6AJPAUHINSTANCE__@@@ZA 10029b4c     OposVariant.obj
 0003:00000b50       ?_pPerfUnRegFunc@ATL@@3P6AJXZA 10029b50     OposVariant.obj
 0003:00000b54       ?_AtlRegisterPerUser@ATL@@3_NA 10029b54     OposVariant.obj
 0003:00000b58       ?_pAtlModule@ATL@@3PAVCAtlModule@1@A 10029b58     OposVariant.obj
 0003:00000b5c       ?_pModule@ATL@@3PAVCComModule@1@A 10029b5c     OposVariant.obj
 0003:00000b60       ?_AtlComModule@ATL@@3VCAtlComModule@1@A 10029b60     OposVariant.obj
 0003:00000b88       ?_AtlWinModule@ATL@@3VCAtlWinModule@1@A 10029b88     OposVariant.obj
 0003:00000bb4       ?m_libid@CAtlModule@ATL@@2U_GUID@@A 10029bb4     CashDrawer.obj
 0003:00000bc4       ?_entries@?1??GetConnMap@COPOSCashDrawer@@SAPBU_ATL_CONNMAP_ENTRY@ATL@@PAH@Z@4QBU34@B 10029bc4     CashDrawer.obj
 0003:00000bd0       ?$TSS0@?1??GetConnMap@COPOSCashDrawer@@SAPBU_ATL_CONNMAP_ENTRY@ATL@@PAH@Z@4HA 10029bd0     CashDrawer.obj
 0003:00000bd8       ?_OptionsStorage@?1??__local_stdio_printf_options@@9@4_KA 10029bd8     CashDrawer.obj
 0003:00000be0       ?pfnRegDeleteKeyEx@?1??DeleteSubKey@CRegKey@ATL@@QAEJPB_W@Z@4P6GJPAUHKEY__@@0KK@ZA 10029be0     CashDrawer.obj
 0003:00000be4       ?bInitialized@?1??DeleteSubKey@CRegKey@ATL@@QAEJPB_W@Z@4_NA 10029be4     CashDrawer.obj
 0003:00000be8       ?_Module@@3VCComModule@ATL@@A 10029be8     CashDrawer.obj
 0003:00000c18       ?pConnMap@?$IConnectionPointContainerImpl@VCOPOSCashDrawer@@@ATL@@0PBU_ATL_CONNMAP_ENTRY@2@B 10029c18     CashDrawer.obj
 0003:00000c1c       ?s_nInstances@COPOSCashDrawer@@1HA 10029c1c     CashDrawerImpl.obj
 0003:00000c20       ___scrt_current_native_startup_state 10029c20     LIBCMT:utility.obj
 0003:00000c24       ___scrt_native_startup_lock 10029c24     LIBCMT:utility.obj
 0003:00000f8c       __tls_index                10029f8c     LIBCMT:tlssup.obj
 0003:00000f94       ___isa_available           10029f94     LIBCMT:cpu_disp.obj
 0003:00000f98       ___favor                   10029f98     LIBCMT:cpu_disp.obj
 0003:00000f9c       ___scrt_debugger_hook_flag 10029f9c     LIBCMT:utility_desktop.obj
 0003:00000fa0       ?__type_info_root_node@@3U__type_info_node@@A 10029fa0     LIBCMT:tncleanup.obj
 0003:00000fa8       ?_OptionsStorage@?1??__local_stdio_scanf_options@@9@4_KA 10029fa8     LIBCMT:default_local_stdio_options.obj
 0003:00000fb0       ?_AtlBaseModule@ATL@@3VCAtlBaseModule@1@A 10029fb0     atls:atlbase.obj
 0003:00000fe8       ?__AtlThunkPool@@3PAT_SLIST_HEADER@@A 10029fe8     atls:atlthunk.obj
 0003:00001000       ___@@_PchSym_@00@UzABUPdlipUBAUhUrmgvinvwrzgvUexgllohUzgohOmzgrevkilqPBACIAJCBDBUlyqiUcIGUhgwzucOlyq@4B2008FD98C1DD4 1002a000     atls:stdafx.obj
 0003:00001004       ?__WinRTOutOfMemoryExceptionCallback@@3P6GPAXXZA 1002a004     libvcruntime:ehhelpers.obj
 0003:00001008       ___pPurecall               1002a008     libvcruntime:purevirt_data.obj
 0003:00001050       ?m_pGetParameter@UnDecorator@@0P6APADJ@ZA 1002a050     libvcruntime:undname.obj
 0003:00001054       ?m_CHPENameOffset@UnDecorator@@0KA 1002a054     libvcruntime:undname.obj
 0003:00001058       ?m_recursionLevel@UnDecorator@@0KA 1002a058     libvcruntime:undname.obj
 0003:0000105c       ?pArgList@UnDecorator@@0PAVReplicator@@A 1002a05c     libvcruntime:undname.obj
 0003:00001060       ?pZNameList@UnDecorator@@0PAVReplicator@@A 1002a060     libvcruntime:undname.obj
 0003:00001064       ?pTemplateArgList@UnDecorator@@0PAVReplicator@@A 1002a064     libvcruntime:undname.obj
 0003:00001068       ?gName@UnDecorator@@0PBDB  1002a068     libvcruntime:undname.obj
 0003:0000106c       ?name@UnDecorator@@0PBDB   1002a06c     libvcruntime:undname.obj
 0003:00001070       ?disableFlags@UnDecorator@@0KA 1002a070     libvcruntime:undname.obj
 0003:00001074       ?fExplicitTemplateParams@UnDecorator@@0_NA 1002a074     libvcruntime:undname.obj
 0003:00001075       ?fGetTemplateArgumentList@UnDecorator@@0_NA 1002a075     libvcruntime:undname.obj
 0003:000010b8       ?c_exit_complete@?1???R<lambda_6e4b09c48022b2350581041d5f6b0c4c>@@QBE@XZ@4_NA 1002a0b8     libucrt:exit.obj
 0003:000011c8       __environ_table            1002a1c8     libucrt:environment_initialization.obj
 0003:000011cc       __wenviron_table           1002a1cc     libucrt:environment_initialization.obj
 0003:000011d0       ___dcrt_initial_wide_environment 1002a1d0     libucrt:environment_initialization.obj
 0003:000011d4       ___dcrt_initial_narrow_environment 1002a1d4     libucrt:environment_initialization.obj
 0003:000011d8       ___acrt_atexit_table       1002a1d8     libucrt:onexit.obj
 0003:000011e4       ___acrt_at_quick_exit_table 1002a1e4     libucrt:onexit.obj
 0003:000011f4       ___acrt_locale_changed_data 1002a1f4     libucrt:wsetlocale.obj
 0003:000011f8       ___acrt_current_locale_data 1002a1f8     libucrt:nlsdata.obj
 0003:000012e0       __nstream                  1002a2e0     libucrt:_file.obj
 0003:000012e4       ___piob                    1002a2e4     libucrt:_file.obj
 0003:000012ec       ___acrt_stdout_buffer      1002a2ec     libucrt:_sftbuf.obj
 0003:000012f0       ___acrt_stderr_buffer      1002a2f0     libucrt:_sftbuf.obj
 0003:000012f8       ___pioinfo                 1002a2f8     libucrt:ioinit.obj
 0003:000014f8       __nhandle                  1002a4f8     libucrt:ioinit.obj
 0003:00001654       __mbctype                  1002a654     libucrt:mbctype.obj
 0003:00001658       __mbcasemap                1002a658     libucrt:mbctype.obj
 0003:0000165c       ___acrt_current_multibyte_data 1002a65c     libucrt:mbctype.obj
 0003:00001668       __pgmptr                   1002a668     libucrt:argv_data.obj
 0003:0000166c       ___argc                    1002a66c     libucrt:argv_data.obj
 0003:00001670       ___argv                    1002a670     libucrt:argv_data.obj
 0003:00001674       ___wargv                   1002a674     libucrt:argv_data.obj
 0003:00001678       __acmdln                   1002a678     libucrt:argv_data.obj
 0003:0000167c       __wcmdln                   1002a67c     libucrt:argv_data.obj
 0003:00001680       ___acrt_heap               1002a680     libucrt:heap_handle.obj
 0003:00001698       ___acrt_lconv_static_null  1002a698     libucrt:localeconv.obj
 0003:0000169c       ___acrt_lconv_static_W_null 1002a69c     libucrt:localeconv.obj
 0003:000016b0       ___fastflag                1002a6b0     libucrt:fp_flags.obj
 0003:000016b8       ___dyn_tls_init_callback   1002a6b8     <common>
 0003:000016bc       ___scrt_ucrt_dll_is_in_use 1002a6bc     <common>
 0003:000016c0       __pmatherr                 1002a6c0     <common>
 0003:000016c4       ___use_sse2_mathfcns       1002a6c4     <common>

 entry point at        0001:0000b98b

 Static symbols

 0000:fffcf000       .debug$S                   10000000     OPOSCashDrawer.exp
 0000:fffcf000       .debug$S                   10000000     advapi32:ADVAPI32.dll
 0000:fffcf000       .debug$S                   10000000     advapi32:ADVAPI32.dll
 0000:fffcf000       .debug$S                   10000000     advapi32:ADVAPI32.dll
 0000:fffcf000       .debug$S                   10000000     advapi32:ADVAPI32.dll
 0000:fffcf000       .debug$S                   10000000     advapi32:ADVAPI32.dll
 0000:fffcf000       .debug$S                   10000000     advapi32:ADVAPI32.dll
 0000:fffcf000       .debug$S                   10000000     advapi32:ADVAPI32.dll
 0000:fffcf000       .debug$S                   10000000     advapi32:ADVAPI32.dll
 0000:fffcf000       .debug$S                   10000000     advapi32:ADVAPI32.dll
 0000:fffcf000       .debug$S                   10000000     gdi32:GDI32.dll
 0000:fffcf000       .debug$S                   10000000     gdi32:GDI32.dll
 0000:fffcf000       .debug$S                   10000000     gdi32:GDI32.dll
 0000:fffcf000       .debug$S                   10000000     gdi32:GDI32.dll
 0000:fffcf000       .debug$S                   10000000     gdi32:GDI32.dll
 0000:fffcf000       .debug$S                   10000000     gdi32:GDI32.dll
 0000:fffcf000       .debug$S                   10000000     gdi32:GDI32.dll
 0000:fffcf000       .debug$S                   10000000     gdi32:GDI32.dll
 0000:fffcf000       .debug$S                   10000000     gdi32:GDI32.dll
 0000:fffcf000       .debug$S                   10000000     gdi32:GDI32.dll
 0000:fffcf000       .debug$S                   10000000     gdi32:GDI32.dll
 0000:fffcf000       .debug$S                   10000000     gdi32:GDI32.dll
 0000:fffcf000       .debug$S                   10000000     gdi32:GDI32.dll
 0000:fffcf000       .debug$S                   10000000     gdi32:GDI32.dll
 0000:fffcf000       .debug$S                   10000000     gdi32:GDI32.dll
 0000:fffcf000       .debug$S                   10000000     gdi32:GDI32.dll
 0000:fffcf000       .debug$S                   10000000     gdi32:GDI32.dll
 0000:fffcf000       .debug$S                   10000000     gdi32:GDI32.dll
 0000:fffcf000       .debug$S                   10000000     gdi32:GDI32.dll
 0000:fffcf000       .debug$S                   10000000     kernel32:KERNEL32.dll
 0000:fffcf000       .debug$S                   10000000     kernel32:KERNEL32.dll
 0000:fffcf000       .debug$S                   10000000     kernel32:KERNEL32.dll
 0000:fffcf000       .debug$S                   10000000     kernel32:KERNEL32.dll
 0000:fffcf000       .debug$S                   10000000     kernel32:KERNEL32.dll
 0000:fffcf000       .debug$S                   10000000     kernel32:KERNEL32.dll
 0000:fffcf000       .debug$S                   10000000     kernel32:KERNEL32.dll
 0000:fffcf000       .debug$S                   10000000     kernel32:KERNEL32.dll
 0000:fffcf000       .debug$S                   10000000     kernel32:KERNEL32.dll
 0000:fffcf000       .debug$S                   10000000     kernel32:KERNEL32.dll
 0000:fffcf000       .debug$S                   10000000     kernel32:KERNEL32.dll
 0000:fffcf000       .debug$S                   10000000     kernel32:KERNEL32.dll
 0000:fffcf000       .debug$S                   10000000     kernel32:KERNEL32.dll
 0000:fffcf000       .debug$S                   10000000     kernel32:KERNEL32.dll
 0000:fffcf000       .debug$S                   10000000     kernel32:KERNEL32.dll
 0000:fffcf000       .debug$S                   10000000     kernel32:KERNEL32.dll
 0000:fffcf000       .debug$S                   10000000     kernel32:KERNEL32.dll
 0000:fffcf000       .debug$S                   10000000     kernel32:KERNEL32.dll
 0000:fffcf000       .debug$S                   10000000     kernel32:KERNEL32.dll
 0000:fffcf000       .debug$S                   10000000     kernel32:KERNEL32.dll
 0000:fffcf000       .debug$S                   10000000     kernel32:KERNEL32.dll
 0000:fffcf000       .debug$S                   10000000     kernel32:KERNEL32.dll
 0000:fffcf000       .debug$S                   10000000     kernel32:KERNEL32.dll
 0000:fffcf000       .debug$S                   10000000     kernel32:KERNEL32.dll
 0000:fffcf000       .debug$S                   10000000     kernel32:KERNEL32.dll
 0000:fffcf000       .debug$S                   10000000     kernel32:KERNEL32.dll
 0000:fffcf000       .debug$S                   10000000     kernel32:KERNEL32.dll
 0000:fffcf000       .debug$S                   10000000     kernel32:KERNEL32.dll
 0000:fffcf000       .debug$S                   10000000     kernel32:KERNEL32.dll
 0000:fffcf000       .debug$S                   10000000     kernel32:KERNEL32.dll
 0000:fffcf000       .debug$S                   10000000     kernel32:KERNEL32.dll
 0000:fffcf000       .debug$S                   10000000     kernel32:KERNEL32.dll
 0000:fffcf000       .debug$S                   10000000     kernel32:KERNEL32.dll
 0000:fffcf000       .debug$S                   10000000     kernel32:KERNEL32.dll
 0000:fffcf000       .debug$S                   10000000     kernel32:KERNEL32.dll
 0000:fffcf000       .debug$S                   10000000     kernel32:KERNEL32.dll
 0000:fffcf000       .debug$S                   10000000     kernel32:KERNEL32.dll
 0000:fffcf000       .debug$S                   10000000     kernel32:KERNEL32.dll
 0000:fffcf000       .debug$S                   10000000     kernel32:KERNEL32.dll
 0000:fffcf000       .debug$S                   10000000     kernel32:KERNEL32.dll
 0000:fffcf000       .debug$S                   10000000     kernel32:KERNEL32.dll
 0000:fffcf000       .debug$S                   10000000     kernel32:KERNEL32.dll
 0000:fffcf000       .debug$S                   10000000     kernel32:KERNEL32.dll
 0000:fffcf000       .debug$S                   10000000     kernel32:KERNEL32.dll
 0000:fffcf000       .debug$S                   10000000     kernel32:KERNEL32.dll
 0000:fffcf000       .debug$S                   10000000     kernel32:KERNEL32.dll
 0000:fffcf000       .debug$S                   10000000     kernel32:KERNEL32.dll
 0000:fffcf000       .debug$S                   10000000     kernel32:KERNEL32.dll
 0000:fffcf000       .debug$S                   10000000     kernel32:KERNEL32.dll
 0000:fffcf000       .debug$S                   10000000     kernel32:KERNEL32.dll
 0000:fffcf000       .debug$S                   10000000     kernel32:KERNEL32.dll
 0000:fffcf000       .debug$S                   10000000     kernel32:KERNEL32.dll
 0000:fffcf000       .debug$S                   10000000     kernel32:KERNEL32.dll
 0000:fffcf000       .debug$S                   10000000     kernel32:KERNEL32.dll
 0000:fffcf000       .debug$S                   10000000     kernel32:KERNEL32.dll
 0000:fffcf000       .debug$S                   10000000     kernel32:KERNEL32.dll
 0000:fffcf000       .debug$S                   10000000     kernel32:KERNEL32.dll
 0000:fffcf000       .debug$S                   10000000     kernel32:KERNEL32.dll
 0000:fffcf000       .debug$S                   10000000     kernel32:KERNEL32.dll
 0000:fffcf000       .debug$S                   10000000     kernel32:KERNEL32.dll
 0000:fffcf000       .debug$S                   10000000     kernel32:KERNEL32.dll
 0000:fffcf000       .debug$S                   10000000     kernel32:KERNEL32.dll
 0000:fffcf000       .debug$S                   10000000     kernel32:KERNEL32.dll
 0000:fffcf000       .debug$S                   10000000     kernel32:KERNEL32.dll
 0000:fffcf000       .debug$S                   10000000     kernel32:KERNEL32.dll
 0000:fffcf000       .debug$S                   10000000     kernel32:KERNEL32.dll
 0000:fffcf000       .debug$S                   10000000     kernel32:KERNEL32.dll
 0000:fffcf000       .debug$S                   10000000     kernel32:KERNEL32.dll
 0000:fffcf000       .debug$S                   10000000     kernel32:KERNEL32.dll
 0000:fffcf000       .debug$S                   10000000     kernel32:KERNEL32.dll
 0000:fffcf000       .debug$S                   10000000     kernel32:KERNEL32.dll
 0000:fffcf000       .debug$S                   10000000     kernel32:KERNEL32.dll
 0000:fffcf000       .debug$S                   10000000     kernel32:KERNEL32.dll
 0000:fffcf000       .debug$S                   10000000     kernel32:KERNEL32.dll
 0000:fffcf000       .debug$S                   10000000     kernel32:KERNEL32.dll
 0000:fffcf000       .debug$S                   10000000     kernel32:KERNEL32.dll
 0000:fffcf000       .debug$S                   10000000     kernel32:KERNEL32.dll
 0000:fffcf000       .debug$S                   10000000     kernel32:KERNEL32.dll
 0000:fffcf000       .debug$S                   10000000     kernel32:KERNEL32.dll
 0000:fffcf000       .debug$S                   10000000     kernel32:KERNEL32.dll
 0000:fffcf000       .debug$S                   10000000     kernel32:KERNEL32.dll
 0000:fffcf000       .debug$S                   10000000     kernel32:KERNEL32.dll
 0000:fffcf000       .debug$S                   10000000     kernel32:KERNEL32.dll
 0000:fffcf000       .debug$S                   10000000     kernel32:KERNEL32.dll
 0000:fffcf000       .debug$S                   10000000     kernel32:KERNEL32.dll
 0000:fffcf000       .debug$S                   10000000     kernel32:KERNEL32.dll
 0000:fffcf000       .debug$S                   10000000     kernel32:KERNEL32.dll
 0000:fffcf000       .debug$S                   10000000     kernel32:KERNEL32.dll
 0000:fffcf000       .debug$S                   10000000     kernel32:KERNEL32.dll
 0000:fffcf000       .debug$S                   10000000     kernel32:KERNEL32.dll
 0000:fffcf000       .debug$S                   10000000     kernel32:KERNEL32.dll
 0000:fffcf000       .debug$S                   10000000     kernel32:KERNEL32.dll
 0000:fffcf000       .debug$S                   10000000     kernel32:KERNEL32.dll
 0000:fffcf000       .debug$S                   10000000     kernel32:KERNEL32.dll
 0000:fffcf000       .debug$S                   10000000     kernel32:KERNEL32.dll
 0000:fffcf000       .debug$S                   10000000     kernel32:KERNEL32.dll
 0000:fffcf000       .debug$S                   10000000     kernel32:KERNEL32.dll
 0000:fffcf000       .debug$S                   10000000     kernel32:KERNEL32.dll
 0000:fffcf000       .debug$S                   10000000     kernel32:KERNEL32.dll
 0000:fffcf000       .debug$S                   10000000     kernel32:KERNEL32.dll
 0000:fffcf000       .debug$S                   10000000     kernel32:KERNEL32.dll
 0000:fffcf000       .debug$S                   10000000     kernel32:KERNEL32.dll
 0000:fffcf000       .debug$S                   10000000     kernel32:KERNEL32.dll
 0000:fffcf000       .debug$S                   10000000     kernel32:KERNEL32.dll
 0000:fffcf000       .debug$S                   10000000     kernel32:KERNEL32.dll
 0000:fffcf000       .debug$S                   10000000     kernel32:KERNEL32.dll
 0000:fffcf000       .debug$S                   10000000     ole32:ole32.dll
 0000:fffcf000       .debug$S                   10000000     ole32:ole32.dll
 0000:fffcf000       .debug$S                   10000000     ole32:ole32.dll
 0000:fffcf000       .debug$S                   10000000     ole32:ole32.dll
 0000:fffcf000       .debug$S                   10000000     ole32:ole32.dll
 0000:fffcf000       .debug$S                   10000000     ole32:ole32.dll
 0000:fffcf000       .debug$S                   10000000     ole32:ole32.dll
 0000:fffcf000       .debug$S                   10000000     ole32:ole32.dll
 0000:fffcf000       .debug$S                   10000000     ole32:ole32.dll
 0000:fffcf000       .debug$S                   10000000     ole32:ole32.dll
 0000:fffcf000       .debug$S                   10000000     ole32:ole32.dll
 0000:fffcf000       .debug$S                   10000000     ole32:ole32.dll
 0000:fffcf000       .debug$S                   10000000     ole32:ole32.dll
 0000:fffcf000       .debug$S                   10000000     ole32:ole32.dll
 0000:fffcf000       .debug$S                   10000000     oleaut32:OLEAUT32.dll
 0000:fffcf000       .debug$S                   10000000     oleaut32:OLEAUT32.dll
 0000:fffcf000       .debug$S                   10000000     oleaut32:OLEAUT32.dll
 0000:fffcf000       .debug$S                   10000000     oleaut32:OLEAUT32.dll
 0000:fffcf000       .debug$S                   10000000     oleaut32:OLEAUT32.dll
 0000:fffcf000       .debug$S                   10000000     oleaut32:OLEAUT32.dll
 0000:fffcf000       .debug$S                   10000000     oleaut32:OLEAUT32.dll
 0000:fffcf000       .debug$S                   10000000     oleaut32:OLEAUT32.dll
 0000:fffcf000       .debug$S                   10000000     oleaut32:OLEAUT32.dll
 0000:fffcf000       .debug$S                   10000000     oleaut32:OLEAUT32.dll
 0000:fffcf000       .debug$S                   10000000     oleaut32:OLEAUT32.dll
 0000:fffcf000       .debug$S                   10000000     oleaut32:OLEAUT32.dll
 0000:fffcf000       .debug$S                   10000000     oleaut32:OLEAUT32.dll
 0000:fffcf000       .debug$S                   10000000     oleaut32:OLEAUT32.dll
 0000:fffcf000       .debug$S                   10000000     oleaut32:OLEAUT32.dll
 0000:fffcf000       .debug$S                   10000000     oleaut32:OLEAUT32.dll
 0000:fffcf000       .debug$S                   10000000     user32:USER32.dll
 0000:fffcf000       .debug$S                   10000000     user32:USER32.dll
 0000:fffcf000       .debug$S                   10000000     user32:USER32.dll
 0000:fffcf000       .debug$S                   10000000     user32:USER32.dll
 0000:fffcf000       .debug$S                   10000000     user32:USER32.dll
 0000:fffcf000       .debug$S                   10000000     user32:USER32.dll
 0000:fffcf000       .debug$S                   10000000     user32:USER32.dll
 0000:fffcf000       .debug$S                   10000000     user32:USER32.dll
 0000:fffcf000       .debug$S                   10000000     user32:USER32.dll
 0000:fffcf000       .debug$S                   10000000     user32:USER32.dll
 0000:fffcf000       .debug$S                   10000000     user32:USER32.dll
 0000:fffcf000       .debug$S                   10000000     user32:USER32.dll
 0000:fffcf000       .debug$S                   10000000     user32:USER32.dll
 0000:fffcf000       .debug$S                   10000000     user32:USER32.dll
 0000:fffcf000       .debug$S                   10000000     user32:USER32.dll
 0000:fffcf000       .debug$S                   10000000     user32:USER32.dll
 0000:fffcf000       .debug$S                   10000000     user32:USER32.dll
 0000:fffcf000       .debug$S                   10000000     user32:USER32.dll
 0000:fffcf000       .debug$S                   10000000     user32:USER32.dll
 0000:fffcf000       .debug$S                   10000000     user32:USER32.dll
 0000:fffcf000       .debug$S                   10000000     user32:USER32.dll
 0000:fffcf000       .debug$S                   10000000     user32:USER32.dll
 0000:fffcf000       .debug$S                   10000000     user32:USER32.dll
 0000:fffcf000       .debug$S                   10000000     user32:USER32.dll
 0000:fffcf000       .debug$S                   10000000     user32:USER32.dll
 0000:fffcf000       .debug$S                   10000000     user32:USER32.dll
 0000:fffcf000       .debug$S                   10000000     user32:USER32.dll
 0000:fffcf000       .debug$S                   10000000     user32:USER32.dll
 0000:fffcf000       .debug$S                   10000000     user32:USER32.dll
 0000:fffcf000       .debug$S                   10000000     user32:USER32.dll
 0000:fffcf000       .debug$S                   10000000     user32:USER32.dll
 0000:fffcf000       .debug$S                   10000000     user32:USER32.dll
 0000:fffcf000       .debug$S                   10000000     user32:USER32.dll
 0000:fffcf000       .debug$S                   10000000     user32:USER32.dll
 0000:fffcf000       .debug$S                   10000000     user32:USER32.dll
 0001:00000000       ??__E_AtlComModule@ATL@@YAXXZ 10001000 f   OposVariant.obj
 0001:00000016       ??__E_AtlWinModule@ATL@@YAXXZ 10001016 f   OposVariant.obj
 0001:0000002c       ??__E?pConnMap@?$IConnectionPointContainerImpl@VCOPOSCashDrawer@@@ATL@@0PBU_ATL_CONNMAP_ENTRY@2@B@@YAXXZ 1000102c f   CashDrawer.obj
 0001:0000003a       ??__E_Module@@YAXXZ        1000103a f   CashDrawer.obj
 0001:00000064       ??__E_AtlBaseModule@ATL@@YAXXZ 10001064 f   atls:atlbase.obj
 0001:0000139c       $LN24                      1000239c     CashDrawer.obj
 0001:000046c3       $LN31                      100056c3     CashDrawer.obj
 0001:000046c7       $LN30                      100056c7     CashDrawer.obj
 0001:0000571b       $LN60                      1000671b     CashDrawer.obj
 0001:00005733       $LN59                      10006733     CashDrawer.obj
 0001:000078d5       $LN50                      100088d5     CashDrawer.obj
 0001:000078ed       $LN49                      100088ed     CashDrawer.obj
 0001:00008fb4       $LN88                      10009fb4     CashDrawer.obj
 0001:00008fcc       $LN87                      10009fcc     CashDrawer.obj
 0001:0000938c       _memcpy_s                  1000a38c f   CashDrawer.obj
 0001:0000ae33       ?find_pe_section@@YAPAU_IMAGE_SECTION_HEADER@@QAEI@Z 1000be33 f   LIBCMT:utility.obj
 0001:0000b152       ?__scrt_initialize_thread_safe_statics@@YAHXZ 1000c152 f   LIBCMT:thread_safe_statics.obj
 0001:0000b179       ?__scrt_initialize_thread_safe_statics_platform_specific@@YAXXZ 1000c179 f   LIBCMT:thread_safe_statics.obj
 0001:0000b1fb       ?__scrt_uninitialize_thread_safe_statics@@YAXXZ 1000c1fb f   LIBCMT:thread_safe_statics.obj
 0001:0000b56c       __catch$??2@YAPAXIABUnothrow_t@std@@@Z$0 1000c56c f   LIBCMT:new_scalar_nothrow.obj
 0001:0000b5a0       $$000000                   1000c5a0     LIBCMT:sehprolg4gs.obj
 0001:0000b5f0       $$000000                   1000c5f0     LIBCMT:alloca16.obj
 0001:0000b606       alloca_8                   1000c606     LIBCMT:alloca16.obj
 0001:0000b620       $$000000                   1000c620     LIBCMT:chkstk.obj
 0001:0000b634       cs10                       1000c634     LIBCMT:chkstk.obj
 0001:0000b642       cs20                       1000c642     LIBCMT:chkstk.obj
 0001:0000b64b       ?dllmain_crt_dispatch@@YGHQAUHINSTANCE__@@KQAX@Z 1000c64b f   LIBCMT:dll_dllmain.obj
 0001:0000b69e       ?dllmain_crt_process_attach@@YAHQAUHINSTANCE__@@QAX@Z 1000c69e f   LIBCMT:dll_dllmain.obj
 0001:0000b7a5       ?dllmain_crt_process_detach@@YAH_N@Z 1000c7a5 f   LIBCMT:dll_dllmain.obj
 0001:0000b855       ?dllmain_dispatch@@YAHQAUHINSTANCE__@@KQAX@Z 1000c855 f   LIBCMT:dll_dllmain.obj
 0001:0000b960       ?dllmain_raw@@YGHQAUHINSTANCE__@@KQAX@Z 1000c960 f   LIBCMT:dll_dllmain.obj
 0001:0000bcf0       $$000000                   1000ccf0     LIBCMT:sehprolg4.obj
 0001:0000bd38       ___get_entropy             1000cd38 f   LIBCMT:gs_support.obj
 0001:0000c02f       ??$GetProcAddressAll@P6GP6GJPAUHWND__@@IIJ@ZPAUAtlThunkData_t@@@Z@@YAP6GP6GJPAUHWND__@@IIJ@ZPAUAtlThunkData_t@@@ZPAP6GP6GJ0IIJ@Z1@Z@Z 1000d02f f   atls:atlthunk.obj
 0001:0000c02f       ??$GetProcAddressAll@P6GPAUAtlThunkData_t@@XZ@@YAP6GPAUAtlThunkData_t@@XZPAP6GPAU0@XZ@Z 1000d02f f   atls:atlthunk.obj
 0001:0000c02f       ??$GetProcAddressAll@P6GXPAUAtlThunkData_t@@@Z@@YAP6GXPAUAtlThunkData_t@@@ZPAP6GX0@Z@Z 1000d02f f   atls:atlthunk.obj
 0001:0000c02f       ??$GetProcAddressAll@P6GXPAUAtlThunkData_t@@PAXI@Z@@YAP6GXPAUAtlThunkData_t@@PAXI@ZPAP6GX01I@Z@Z 1000d02f f   atls:atlthunk.obj
 0001:0000c0df       ?GetProcAddressSingle@@YA_NPAUHINSTANCE__@@PBDPAPAX@Z 1000d0df f   atls:atlthunk.obj
 0001:0000c231       ?__InitializeThunkPool@@YAHXZ 1000d231 f   atls:atlthunk.obj
 0001:0000c690       _ValidateLocalCookies      1000d690 f   libvcruntime:chandler4.obj
 0001:0000de2a       $LN1250                    1000ee2a     libvcruntime:memcmp.obj
 0001:0000deb0       $$000000                   1000eeb0     libvcruntime:memcpy.obj
 0001:0000deb0       $$000000                   1000eeb0     libvcruntime:memmove.obj
 0001:0000ded0       CopyUp                     1000eed0     libvcruntime:memcpy.obj
 0001:0000ded0       CopyUp                     1000eed0     libvcruntime:memmove.obj
 0001:0000def4       CopyUpLargeMov             1000eef4     libvcruntime:memcpy.obj
 0001:0000def4       CopyUpLargeMov             1000eef4     libvcruntime:memmove.obj
 0001:0000df07       CopyUpSSE2Check            1000ef07     libvcruntime:memcpy.obj
 0001:0000df07       CopyUpSSE2Check            1000ef07     libvcruntime:memmove.obj
 0001:0000df20       AtomChk                    1000ef20     libvcruntime:memcpy.obj
 0001:0000df20       AtomChk                    1000ef20     libvcruntime:memmove.obj
 0001:0000df46       PalignHead4                1000ef46     libvcruntime:memcpy.obj
 0001:0000df46       PalignHead4                1000ef46     libvcruntime:memmove.obj
 0001:0000df59       PalignHead8                1000ef59     libvcruntime:memcpy.obj
 0001:0000df59       PalignHead8                1000ef59     libvcruntime:memmove.obj
 0001:0000df70       PalignLoop                 1000ef70     libvcruntime:memcpy.obj
 0001:0000df70       PalignLoop                 1000ef70     libvcruntime:memmove.obj
 0001:0000df82       MovPalign12                1000ef82     libvcruntime:memcpy.obj
 0001:0000df82       MovPalign12                1000ef82     libvcruntime:memmove.obj
 0001:0000df8c       PalignLoop12               1000ef8c     libvcruntime:memcpy.obj
 0001:0000df8c       PalignLoop12               1000ef8c     libvcruntime:memmove.obj
 0001:0000dfdd       MovPalign8                 1000efdd     libvcruntime:memcpy.obj
 0001:0000dfdd       MovPalign8                 1000efdd     libvcruntime:memmove.obj
 0001:0000dfe8       PalignLoop8                1000efe8     libvcruntime:memcpy.obj
 0001:0000dfe8       PalignLoop8                1000efe8     libvcruntime:memmove.obj
 0001:0000e036       MovPalign4                 1000f036     libvcruntime:memcpy.obj
 0001:0000e036       MovPalign4                 1000f036     libvcruntime:memmove.obj
 0001:0000e040       PalignLoop4                1000f040     libvcruntime:memcpy.obj
 0001:0000e040       PalignLoop4                1000f040     libvcruntime:memmove.obj
 0001:0000e08c       PalignTail                 1000f08c     libvcruntime:memcpy.obj
 0001:0000e08c       PalignTail                 1000f08c     libvcruntime:memmove.obj
 0001:0000e0a4       PalignTail4                1000f0a4     libvcruntime:memcpy.obj
 0001:0000e0a4       PalignTail4                1000f0a4     libvcruntime:memmove.obj
 0001:0000e0b7       PalignTail8                1000f0b7     libvcruntime:memcpy.obj
 0001:0000e0b7       PalignTail8                1000f0b7     libvcruntime:memmove.obj
 0001:0000e0ce       PalignTailLE3              1000f0ce     libvcruntime:memcpy.obj
 0001:0000e0ce       PalignTailLE3              1000f0ce     libvcruntime:memmove.obj
 0001:0000e0d7       Dword_align                1000f0d7     libvcruntime:memcpy.obj
 0001:0000e0d7       Dword_align                1000f0d7     libvcruntime:memmove.obj
 0001:0000e0df       Dword_up_align_loop        1000f0df     libvcruntime:memcpy.obj
 0001:0000e0df       Dword_up_align_loop        1000f0df     libvcruntime:memmove.obj
 0001:0000e0f2       Dword_align_Ok             1000f0f2     libvcruntime:memcpy.obj
 0001:0000e0f2       Dword_align_Ok             1000f0f2     libvcruntime:memmove.obj
 0001:0000e10c       ByteCopyUp                 1000f10c     libvcruntime:memcpy.obj
 0001:0000e10c       ByteCopyUp                 1000f10c     libvcruntime:memmove.obj
 0001:0000e114       TrailingUpVec              1000f114     libvcruntime:memcpy.obj
 0001:0000e114       TrailingUpVec              1000f114     libvcruntime:memmove.obj
 0001:0000e124       TrailingUp0                1000f124     libvcruntime:memcpy.obj
 0001:0000e124       TrailingUp0                1000f124     libvcruntime:memmove.obj
 0001:0000e12c       TrailingUp1                1000f12c     libvcruntime:memcpy.obj
 0001:0000e12c       TrailingUp1                1000f12c     libvcruntime:memmove.obj
 0001:0000e138       TrailingUp2                1000f138     libvcruntime:memcpy.obj
 0001:0000e138       TrailingUp2                1000f138     libvcruntime:memmove.obj
 0001:0000e14c       TrailingUp3                1000f14c     libvcruntime:memcpy.obj
 0001:0000e14c       TrailingUp3                1000f14c     libvcruntime:memmove.obj
 0001:0000e164       CopyDown                   1000f164     libvcruntime:memcpy.obj
 0001:0000e164       CopyDown                   1000f164     libvcruntime:memmove.obj
 0001:0000e189       CopyDownNotAligned         1000f189     libvcruntime:memcpy.obj
 0001:0000e189       CopyDownNotAligned         1000f189     libvcruntime:memmove.obj
 0001:0000e190       CopyDownAlignLoop          1000f190     libvcruntime:memcpy.obj
 0001:0000e190       CopyDownAlignLoop          1000f190     libvcruntime:memmove.obj
 0001:0000e19d       CopyDownAligned            1000f19d     libvcruntime:memcpy.obj
 0001:0000e19d       CopyDownAligned            1000f19d     libvcruntime:memmove.obj
 0001:0000e1c0       TrailingDownVec            1000f1c0     libvcruntime:memcpy.obj
 0001:0000e1c0       TrailingDownVec            1000f1c0     libvcruntime:memmove.obj
 0001:0000e1d0       TrailingDown0              1000f1d0     libvcruntime:memcpy.obj
 0001:0000e1d0       TrailingDown0              1000f1d0     libvcruntime:memmove.obj
 0001:0000e1d8       TrailingDown1              1000f1d8     libvcruntime:memcpy.obj
 0001:0000e1d8       TrailingDown1              1000f1d8     libvcruntime:memmove.obj
 0001:0000e1e8       TrailingDown2              1000f1e8     libvcruntime:memcpy.obj
 0001:0000e1e8       TrailingDown2              1000f1e8     libvcruntime:memmove.obj
 0001:0000e1fc       TrailingDown3              1000f1fc     libvcruntime:memcpy.obj
 0001:0000e1fc       TrailingDown3              1000f1fc     libvcruntime:memmove.obj
 0001:0000e215       XmmMovLargeAlignTest       1000f215     libvcruntime:memcpy.obj
 0001:0000e215       XmmMovLargeAlignTest       1000f215     libvcruntime:memmove.obj
 0001:0000e21d       XmmMovAlignLoop            1000f21d     libvcruntime:memcpy.obj
 0001:0000e21d       XmmMovAlignLoop            1000f21d     libvcruntime:memmove.obj
 0001:0000e22c       XmmMovLargeLoop            1000f22c     libvcruntime:memcpy.obj
 0001:0000e22c       XmmMovLargeLoop            1000f22c     libvcruntime:memmove.obj
 0001:0000e29c       XmmMovSmallTest            1000f29c     libvcruntime:memcpy.obj
 0001:0000e29c       XmmMovSmallTest            1000f29c     libvcruntime:memmove.obj
 0001:0000e2a1       XmmMovSmallLoop            1000f2a1     libvcruntime:memcpy.obj
 0001:0000e2a1       XmmMovSmallLoop            1000f2a1     libvcruntime:memmove.obj
 0001:0000e2c4       CopyDownSmall              1000f2c4     libvcruntime:memcpy.obj
 0001:0000e2c4       CopyDownSmall              1000f2c4     libvcruntime:memmove.obj
 0001:0000e2cc       CopyDownDwordLoop          1000f2cc     libvcruntime:memcpy.obj
 0001:0000e2cc       CopyDownDwordLoop          1000f2cc     libvcruntime:memmove.obj
 0001:0000e2e1       CopyDownByteTest           1000f2e1     libvcruntime:memcpy.obj
 0001:0000e2e1       CopyDownByteTest           1000f2e1     libvcruntime:memmove.obj
 0001:0000e2e5       CopyDownByteLoop           1000f2e5     libvcruntime:memcpy.obj
 0001:0000e2e5       CopyDownByteLoop           1000f2e5     libvcruntime:memmove.obj
 0001:0000e2f4       CopyDownReturn             1000f2f4     libvcruntime:memcpy.obj
 0001:0000e2f4       CopyDownReturn             1000f2f4     libvcruntime:memmove.obj
 0001:0000e300       XmmCopy                    1000f300     libvcruntime:memcpy.obj
 0001:0000e300       XmmCopy                    1000f300     libvcruntime:memmove.obj
 0001:0000e30d       XmmCopyAligned             1000f30d     libvcruntime:memcpy.obj
 0001:0000e30d       XmmCopyAligned             1000f30d     libvcruntime:memmove.obj
 0001:0000e320       XmmCopyLargeLoop           1000f320     libvcruntime:memcpy.obj
 0001:0000e320       XmmCopyLargeLoop           1000f320     libvcruntime:memmove.obj
 0001:0000e37d       XmmCopySmallTest           1000f37d     libvcruntime:memcpy.obj
 0001:0000e37d       XmmCopySmallTest           1000f37d     libvcruntime:memmove.obj
 0001:0000e390       XmmCopySmallLoop           1000f390     libvcruntime:memcpy.obj
 0001:0000e390       XmmCopySmallLoop           1000f390     libvcruntime:memmove.obj
 0001:0000e3ab       CopyUpDwordMov             1000f3ab     libvcruntime:memcpy.obj
 0001:0000e3ab       CopyUpDwordMov             1000f3ab     libvcruntime:memmove.obj
 0001:0000e3b0       CopyUpDwordTest            1000f3b0     libvcruntime:memcpy.obj
 0001:0000e3b0       CopyUpDwordTest            1000f3b0     libvcruntime:memmove.obj
 0001:0000e3b7       CopyUpDwordLoop            1000f3b7     libvcruntime:memcpy.obj
 0001:0000e3b7       CopyUpDwordLoop            1000f3b7     libvcruntime:memmove.obj
 0001:0000e3c6       CopyUpByteTest             1000f3c6     libvcruntime:memcpy.obj
 0001:0000e3c6       CopyUpByteTest             1000f3c6     libvcruntime:memmove.obj
 0001:0000e3cd       CopyUpByteLoop             1000f3cd     libvcruntime:memcpy.obj
 0001:0000e3cd       CopyUpByteLoop             1000f3cd     libvcruntime:memmove.obj
 0001:0000e3e0       CopyUpReturn               1000f3e0     libvcruntime:memcpy.obj
 0001:0000e3e0       CopyUpReturn               1000f3e0     libvcruntime:memmove.obj
 0001:0000e3f0       XmmCopyUnaligned           1000f3f0     libvcruntime:memcpy.obj
 0001:0000e3f0       XmmCopyUnaligned           1000f3f0     libvcruntime:memmove.obj
 0001:0000e403       XmmAlignByte               1000f403     libvcruntime:memcpy.obj
 0001:0000e403       XmmAlignByte               1000f403     libvcruntime:memmove.obj
 0001:0000e40c       XmmAlignDwordTest          1000f40c     libvcruntime:memcpy.obj
 0001:0000e40c       XmmAlignDwordTest          1000f40c     libvcruntime:memmove.obj
 0001:0000e411       XmmAlignDwordLoop          1000f411     libvcruntime:memcpy.obj
 0001:0000e411       XmmAlignDwordLoop          1000f411     libvcruntime:memmove.obj
 0001:0000e41e       XmmAlignAdjustCnt          1000f41e     libvcruntime:memcpy.obj
 0001:0000e41e       XmmAlignAdjustCnt          1000f41e     libvcruntime:memmove.obj
 0001:0000e430       $$000000                   1000f430     libvcruntime:memset.obj
 0001:0000e475       XMMMov                     1000f475     libvcruntime:memset.obj
 0001:0000e4b0       LargeRangeBytes            1000f4b0     libvcruntime:memset.obj
 0001:0000e4ed       XmmMovSmall                1000f4ed     libvcruntime:memset.obj
 0001:0000e500       XmmSmallLoop               1000f500     libvcruntime:memset.obj
 0001:0000e505       MidRangeBytes              1000f505     libvcruntime:memset.obj
 0001:0000e521       XMMTrailingBytes           1000f521     libvcruntime:memset.obj
 0001:0000e535       SmallMov                   1000f535     libvcruntime:memset.obj
 0001:0000e53d       ByteLoop                   1000f53d     libvcruntime:memset.obj
 0001:0000e54b       DwordTest                  1000f54b     libvcruntime:memset.obj
 0001:0000e55b       QwordTest                  1000f55b     libvcruntime:memset.obj
 0001:0000e570       QwordLoop                  1000f570     libvcruntime:memset.obj
 0001:0000e583       toend                      1000f583     libvcruntime:memset.obj
 0001:0000ea42       ?_FilterSetCurrentException@@YAKPAU_EXCEPTION_POINTERS@@E@Z 1000fa42 f   libvcruntime:ehhelpers.obj
 0001:0000ec90       $$000000                   1000fc90     libvcruntime:exsup4.obj
 0001:0000ecc2       _lu_top                    1000fcc2     libvcruntime:exsup4.obj
 0001:0000ed21       _lu_done                   1000fd21     libvcruntime:exsup4.obj
 0001:0000ed30       $$000000                   1000fd30     libvcruntime:exsup4.obj
 0001:0000ed30       __unwind_handler4          1000fd30 f   libvcruntime:exsup4.obj
 0001:0000ed80       $$000000                   1000fd80     libvcruntime:exsup4.obj
 0001:0000eda0       $$000000                   1000fda0     libvcruntime:exsup4.obj
 0001:0000edc0       $$000000                   1000fdc0     libvcruntime:exsup4.obj
 0001:0000edd5       ReturnPoint                1000fdd5     libvcruntime:exsup4.obj
 0001:0000ede0       $$000000                   1000fde0     libvcruntime:exsup4.obj
 0001:0000efd2       ??$BuildCatchObjectHelperInternal@V__FrameHandler3@@@@YAHPAUEHExceptionRecord@@PAXPBU_s_HandlerType@@PBU_s_CatchableType@@@Z 1000ffd2 f   libvcruntime:frame.obj
 0001:0000f110       ??$BuildCatchObjectInternal@V__FrameHandler3@@@@YAXPAUEHExceptionRecord@@PAXPBU_s_HandlerType@@PBU_s_CatchableType@@@Z 10010110 f   libvcruntime:frame.obj
 0001:0000f1a9       ??$CatchIt@V__FrameHandler3@@@@YAXPAUEHExceptionRecord@@PAUEHRegistrationNode@@PAU_CONTEXT@@PAXPBU_s_FuncInfo@@PBU_s_HandlerType@@PBU_s_CatchableType@@PBU_s_TryBlockMapEntry@@H1EE@Z 100101a9 f   libvcruntime:frame.obj
 0001:0000f229       ??$FindHandler@V__FrameHandler3@@@@YAXPAUEHExceptionRecord@@PAUEHRegistrationNode@@PAU_CONTEXT@@PAXPBU_s_FuncInfo@@EH1@Z 10010229 f   libvcruntime:frame.obj
 0001:0000f5ce       ??$FindHandlerForForeignException@V__FrameHandler3@@@@YAXPAUEHExceptionRecord@@PAUEHRegistrationNode@@PAU_CONTEXT@@PAXPBU_s_FuncInfo@@HH1@Z 100105ce f   libvcruntime:frame.obj
 0001:0000f8e6       ?CallCatchBlock@@YAPAXPAUEHExceptionRecord@@PAUEHRegistrationNode@@PAU_CONTEXT@@PBU_s_FuncInfo@@PAXHK@Z 100108e6 f   libvcruntime:frame.obj
 0001:0000fab5       ?CallUnexpected@@YAXPBU_s_ESTypeList@@@Z 10010ab5 f   libvcruntime:frame.obj
 0001:0000fad5       __catch$?CallUnexpected@@YAXPBU_s_ESTypeList@@@Z$0 10010ad5 f   libvcruntime:frame.obj
 0001:0000faf4       ?ExFilterRethrow@@YAHPAU_EXCEPTION_POINTERS@@@Z 10010af4 f   libvcruntime:frame.obj
 0001:0000fc3e       ?IsInExceptionSpec@@YAEPAUEHExceptionRecord@@PBU_s_ESTypeList@@@Z 10010c3e f   libvcruntime:frame.obj
 0001:0000fd10       $$000000                   10010d10     libvcruntime:lowhelpr.obj
 0001:0000fd4f       _NLG_Continue              10010d4f     libvcruntime:lowhelpr.obj
 0001:0000fd60       $$000000                   10010d60     libvcruntime:exsup.obj
 0001:0000fd70       $$000000                   10010d70     libvcruntime:exsup.obj
 0001:0000fd7b       __NLG_Go                   10010d7b     libvcruntime:exsup.obj
 0001:0000fd90       $$000000                   10010d90     libvcruntime:exsup.obj
 0001:0000fd93       ?try_get_first_available_module@@YAPAUHINSTANCE__@@QBW4module_id@?A0x592e9a36@@0@Z 10010d93 f   libvcruntime:winapi_downlevel.obj
 0001:0000fe2e       ?try_get_function@@YAPAXW4function_id@?A0x592e9a36@@QBDQBW4module_id@2@2@Z 10010e2e f   libvcruntime:winapi_downlevel.obj
 0001:00010564       ??$common_tcscat_s@_W@@YAHQA_WIQB_W@Z 10011564 f   libucrt:wcscat_s.obj
 0001:0001064b       ??$common_tcsncpy_s@_W@@YAHQA_WIQB_WI@Z 1001164b f   libucrt:wcsncpy_s.obj
 0001:00010724       ??$common_vsprintf@Vformat_validation_base@__crt_stdio_output@@_W@@YAH_KQA_WIQB_WAAV__crt_cached_ptd_host@@QAD@Z 10011724 f   libucrt:output.obj
 0001:000108a7       ??$common_vsprintf_s@_W@@YAH_KQA_WIQB_WAAV__crt_cached_ptd_host@@QAD@Z 100118a7 f   libucrt:output.obj
 0001:00011d0f       $LN116                     10012d0f     libucrt:output.obj
 0001:00012312       $LN18                      10013312     libucrt:output.obj
 0001:00012326       $LN17                      10013326     libucrt:output.obj
 0001:00012a61       ??$?RV<lambda_03b1d95aef87969028cfba75ccab2455>@@AAV<lambda_6e4b09c48022b2350581041d5f6b0c4c>@@V<lambda_22bdf7517842c4b3e53723af5aa32b9e>@@@?$__crt_seh_guarded_call@X@@QAEX$$QAV<lambda_03b1d95aef87969028cfba75ccab2455>@@AAV<lambda_6e4b09c48022b2350581041d5f6b0c4c>@@$$QAV<lambda_22bdf7517842c4b3e53723af5aa32b9e>@@@Z 10013a61 f   libucrt:exit.obj
 0001:00012aae       ??R<lambda_6e4b09c48022b2350581041d5f6b0c4c>@@QBE@XZ 10013aae f   libucrt:exit.obj
 0001:00012b99       ?common_exit@@YAXHW4_crt_exit_cleanup_mode@@W4_crt_exit_return_mode@@@Z 10013b99 f   libucrt:exit.obj
 0001:00012c30       ?exit_or_terminate_process@@YAXI@Z 10013c30 f   libucrt:exit.obj
 0001:00012c61       ?is_managed_app@@YA_NXZ    10013c61 f   libucrt:exit.obj
 0001:00012ca4       ?should_call_terminate_process@@YA_NXZ 10013ca4 f   libucrt:exit.obj
 0001:00012cc6       ?try_cor_exit_process@@YAXI@Z 10013cc6 f   libucrt:exit.obj
 0001:00012d83       ??$common_configure_argv@D@@YAHW4_crt_argv_mode@@@Z 10013d83 f   libucrt:argv_parsing.obj
 0001:00012ec0       ??$parse_command_line@D@@YAXPADPAPAD0PAI2@Z 10013ec0 f   libucrt:argv_parsing.obj
 0001:0001308e       ??$common_initialize_environment_nolock@D@@YAHXZ 1001408e f   libucrt:environment_initialization.obj
 0001:000130e8       ??$create_environment@D@@YAQAPADQAD@Z 100140e8 f   libucrt:environment_initialization.obj
 0001:000131ca       ??$free_environment@D@@YAXQAPAD@Z 100141ca f   libucrt:environment_initialization.obj
 0001:000131ca       ??$free_environment@_W@@YAXQAPA_W@Z 100141ca f   libucrt:environment_initialization.obj
 0001:000131f9       ??$uninitialize_environment_internal@D@@YAXAAPAPAD@Z 100141f9 f   libucrt:environment_initialization.obj
 0001:00013214       ??$uninitialize_environment_internal@_W@@YAXAAPAPA_W@Z 10014214 f   libucrt:environment_initialization.obj
 0001:00013285       ??$?RV<lambda_69a2805e680e0e292e8ba93315fe43a8>@@AAV<lambda_f03950bc5685219e0bcd2087efbe011e>@@V<lambda_03fcd07e894ec930e3f35da366ca99d6>@@@?$__crt_seh_guarded_call@H@@QAEH$$QAV<lambda_69a2805e680e0e292e8ba93315fe43a8>@@AAV<lambda_f03950bc5685219e0bcd2087efbe011e>@@$$QAV<lambda_03fcd07e894ec930e3f35da366ca99d6>@@@Z 10014285 f   libucrt:onexit.obj
 0001:000132e0       ??$?RV<lambda_8e746cf0007f6ed984d6f78af1fec997>@@AAV<lambda_22ebabd17bc4fa466a2aca6d8deb888d>@@V<lambda_18ed0c0b38a6dc0daf1e7ac6d6adf05e>@@@?$__crt_seh_guarded_call@H@@QAEH$$QAV<lambda_8e746cf0007f6ed984d6f78af1fec997>@@AAV<lambda_22ebabd17bc4fa466a2aca6d8deb888d>@@$$QAV<lambda_18ed0c0b38a6dc0daf1e7ac6d6adf05e>@@@Z 100142e0 f   libucrt:onexit.obj
 0001:0001335a       ??R<lambda_22ebabd17bc4fa466a2aca6d8deb888d>@@QBEHXZ 1001435a f   libucrt:onexit.obj
 0001:0001345c       ??R<lambda_f03950bc5685219e0bcd2087efbe011e>@@QBEHXZ 1001445c f   libucrt:onexit.obj
 0001:000135e6       _uninitialize_allocated_io_buffers 100145e6 f   libucrt:initialization.obj
 0001:00013636       _initialize_environment    10014636 f   libucrt:initialization.obj
 0001:00013636       _initialize_global_state_isolation 10014636 f   libucrt:initialization.obj
 0001:00013636       _report_memory_leaks       10014636 f   libucrt:initialization.obj
 0001:00013636       _uninitialize_c            10014636 f   libucrt:initialization.obj
 0001:00013636       _uninitialize_global_state_isolation 10014636 f   libucrt:initialization.obj
 0001:00013639       _initialize_global_variables 10014639 f   libucrt:initialization.obj
 0001:00013646       _initialize_c              10014646 f   libucrt:initialization.obj
 0001:00013660       _uninitialize_environment  10014660 f   libucrt:initialization.obj
 0001:00013668       _initialize_pointers       10014668 f   libucrt:initialization.obj
 0001:00013696       _uninitialize_vcruntime    10014696 f   libucrt:initialization.obj
 0001:0001369f       _uninitialize_allocated_memory 1001469f f   libucrt:initialization.obj
 0001:000136b6       ??R<lambda_af42a3ee9806e9a7305d451646e05244>@@QBEXAAPAU__crt_multibyte_data@@@Z 100146b6 f   libucrt:initialization.obj
 0001:00013920       $$000000                   10014920     libucrt:strncmp.obj
 0001:00013a0c       ??$?RV<lambda_15ade71b0218206bbe3333a0c9b79046>@@AAV<lambda_da44e0f8b0f19ba52fefafb335991732>@@V<lambda_207f2d024fc103971653565357d6cd41>@@@?$__crt_seh_guarded_call@X@@QAEX$$QAV<lambda_15ade71b0218206bbe3333a0c9b79046>@@AAV<lambda_da44e0f8b0f19ba52fefafb335991732>@@$$QAV<lambda_207f2d024fc103971653565357d6cd41>@@@Z 10014a0c f   libucrt:per_thread_data.obj
 0001:00013a5e       ??$?RV<lambda_38edbb1296d33220d7e4dd0ed76b244a>@@AAV<lambda_5ce1d447e08cb34b2473517608e21441>@@V<lambda_fb385d3da700c9147fc39e65dd577a8c>@@@?$__crt_seh_guarded_call@X@@QAEX$$QAV<lambda_38edbb1296d33220d7e4dd0ed76b244a>@@AAV<lambda_5ce1d447e08cb34b2473517608e21441>@@$$QAV<lambda_fb385d3da700c9147fc39e65dd577a8c>@@@Z 10014a5e f   libucrt:per_thread_data.obj
 0001:00013ac9       ??$?RV<lambda_6affb1475c98b40b75cdec977db92e3c>@@AAV<lambda_b8d4b9c228a6ecc3f80208dbb4b4a104>@@V<lambda_608742c3c92a14382c1684fc64f96c88>@@@?$__crt_seh_guarded_call@X@@QAEX$$QAV<lambda_6affb1475c98b40b75cdec977db92e3c>@@AAV<lambda_b8d4b9c228a6ecc3f80208dbb4b4a104>@@$$QAV<lambda_608742c3c92a14382c1684fc64f96c88>@@@Z 10014ac9 f   libucrt:per_thread_data.obj
 0001:00013b1e       ??$?RV<lambda_a7e850c220f1c8d1e6efeecdedd162c6>@@AAV<lambda_46720907175c18b6c9d2717bc0d2d362>@@V<lambda_9048902d66e8d99359bc9897bbb930a8>@@@?$__crt_seh_guarded_call@X@@QAEX$$QAV<lambda_a7e850c220f1c8d1e6efeecdedd162c6>@@AAV<lambda_46720907175c18b6c9d2717bc0d2d362>@@$$QAV<lambda_9048902d66e8d99359bc9897bbb930a8>@@@Z 10014b1e f   libucrt:per_thread_data.obj
 0001:00013b78       ?construct_ptd@@YAXQAU__acrt_ptd@@QAPAU__crt_locale_data@@@Z 10014b78 f   libucrt:per_thread_data.obj
 0001:00013c11       ?destroy_fls@@YGXPAX@Z     10014c11 f   libucrt:per_thread_data.obj
 0001:00013c32       ?destroy_ptd@@YAXQAU__acrt_ptd@@@Z 10014c32 f   libucrt:per_thread_data.obj
 0001:00013cff       ?replace_current_thread_locale_nolock@@YAXQAU__acrt_ptd@@QAU__crt_locale_data@@@Z 10014cff f   libucrt:per_thread_data.obj
 0001:00014061       ??$?RV<lambda_e5124f882df8998aaf41531e079ba474>@@AAV<lambda_3e16ef9562a7dcce91392c22ab16ea36>@@V<lambda_e25ca0880e6ef98be67edffd8c599615>@@@?$__crt_seh_guarded_call@X@@QAEX$$QAV<lambda_e5124f882df8998aaf41531e079ba474>@@AAV<lambda_3e16ef9562a7dcce91392c22ab16ea36>@@$$QAV<lambda_e25ca0880e6ef98be67edffd8c599615>@@@Z 10015061 f   libucrt:wsetlocale.obj
 0001:00014248       ?try_get_AreFileApisANSI@@YAP6GHXZXZ 10015248 f   libucrt:winapi_thunks.obj
 0001:00014262       ?try_get_LCMapStringEx@@YAP6GHPB_WK0HPA_WHPAU_nlsversioninfo@@PAXJ@ZXZ 10015262 f   libucrt:winapi_thunks.obj
 0001:0001427c       ?try_get_LocaleNameToLCID@@YAP6GKPB_WK@ZXZ 1001527c f   libucrt:winapi_thunks.obj
 0001:00014296       ?try_get_first_available_module@@YAPAUHINSTANCE__@@QBW4module_id@?A0x391cf84c@@0@Z 10015296 f   libucrt:winapi_thunks.obj
 0001:00014361       ?try_get_function@@YAPAXW4function_id@?A0x391cf84c@@QBDQBW4module_id@2@2@Z 10015361 f   libucrt:winapi_thunks.obj
 0001:0001496e       ?fe_to_nearest@@YA_NQBN_KF@Z 1001596e f   libucrt:cvt.obj
 0001:00014a11       ?fp_format_a@@YAHQBNPADIQADIH_NIW4__acrt_rounding_mode@@AAV__crt_cached_ptd_host@@@Z 10015a11 f   libucrt:cvt.obj
 0001:00014d3d       ?fp_format_e@@YAHQBNQADI1IH_NIW4__acrt_rounding_mode@@AAV__crt_cached_ptd_host@@@Z 10015d3d f   libucrt:cvt.obj
 0001:00014de1       ?fp_format_e_internal@@YAHQADIH_NIQAU_strflt@@1AAV__crt_cached_ptd_host@@@Z 10015de1 f   libucrt:cvt.obj
 0001:00014f26       ?fp_format_f@@YAHQBNQADI1IHW4__acrt_rounding_mode@@AAV__crt_cached_ptd_host@@@Z 10015f26 f   libucrt:cvt.obj
 0001:00014fbc       ?fp_format_f_internal@@YAHQADIHQAU_strflt@@_NAAV__crt_cached_ptd_host@@@Z 10015fbc f   libucrt:cvt.obj
 0001:000150aa       ?fp_format_g@@YAHQBNQADI1IH_NIW4__acrt_rounding_mode@@AAV__crt_cached_ptd_host@@@Z 100160aa f   libucrt:cvt.obj
 0001:00015179       ?fp_format_nan_or_infinity@@YAHW4__acrt_fp_class@@_NPADI1@Z 10016179 f   libucrt:cvt.obj
 0001:0001520e       ?shift_bytes@@YAXQADI0H@Z  1001620e f   libucrt:cvt.obj
 0001:00015242       ?should_round_up@@YA_NQBN_KFW4__acrt_rounding_mode@@@Z 10016242 f   libucrt:cvt.obj
 0001:00015701       ?initialize_inherited_file_handles_nolock@@YAXXZ 10016701 f   libucrt:ioinit.obj
 0001:000157b7       ?initialize_stdio_handles_nolock@@YAXXZ 100167b7 f   libucrt:ioinit.obj
 0001:000159c4       ?<lambda_invoker_cdecl>@<lambda_838c7f62c73c983481e27c09e84b0b5d>@@CAHPBX0@Z 100169c4 f   libucrt:argv_wildcards.obj
 0001:00015b71       ??$common_expand_argv_wildcards@D@@YAHQAPADQAPAPAD@Z 10016b71 f   libucrt:argv_wildcards.obj
 0001:00015cee       ??$copy_and_add_argument_to_buffer@D@@YAHQBD0IAAV?$argument_list@D@?A0x5f5c8891@@@Z 10016cee f   libucrt:argv_wildcards.obj
 0001:00015d9f       ??$expand_argument_wildcards@D@@YAHQAD0AAV?$argument_list@D@?A0x5f5c8891@@@Z 10016d9f f   libucrt:argv_wildcards.obj
 0001:000160a6       ??1?$argument_list@D@?A0x5f5c8891@@QAE@XZ 100170a6 f   libucrt:argv_wildcards.obj
 0001:000161e6       ?expand_if_necessary@?$argument_list@D@?A0x5f5c8891@@AAEHXZ 100171e6 f   libucrt:argv_wildcards.obj
 0001:00016416       ??$?RV<lambda_ceb1ee4838e85a9d631eb091e2fbe199>@@AAV<lambda_ae742caa10f662c28703da3d2ea5e57e>@@V<lambda_cd08b5d6af4937fe54fc07d0c9bf6b37>@@@?$__crt_seh_guarded_call@X@@QAEX$$QAV<lambda_ceb1ee4838e85a9d631eb091e2fbe199>@@AAV<lambda_ae742caa10f662c28703da3d2ea5e57e>@@$$QAV<lambda_cd08b5d6af4937fe54fc07d0c9bf6b37>@@@Z 10017416 f   libucrt:mbctype.obj
 0001:00016463       ??R<lambda_ae742caa10f662c28703da3d2ea5e57e>@@QBEXXZ 10017463 f   libucrt:mbctype.obj
 0001:000164e6       ?CPtoLocaleName@@YAPB_WH@Z 100174e6 f   libucrt:mbctype.obj
 0001:00016524       ?getSystemCP@@YAHH@Z       10017524 f   libucrt:mbctype.obj
 0001:00016595       ?setSBCS@@YAXPAU__crt_multibyte_data@@@Z 10017595 f   libucrt:mbctype.obj
 0001:000165f8       ?setSBUpLow@@YAXPAU__crt_multibyte_data@@@Z 100175f8 f   libucrt:mbctype.obj
 0001:000167a4       ?setmbcp_internal@@YAHH_NQAU__acrt_ptd@@QAPAU__crt_multibyte_data@@@Z 100177a4 f   libucrt:mbctype.obj
 0001:000168f9       ?update_thread_multibyte_data_internal@@YAPAU__crt_multibyte_data@@QAU__acrt_ptd@@QAPAU1@@Z 100178f9 f   libucrt:mbctype.obj
 0001:00016bfc       _memcpy_s                  10017bfc f   libucrt:cfout.obj
 0001:00016bfc       _memcpy_s                  10017bfc f   libucrt:mbctype.obj
 0001:00016c7d       ?x_ismbbtype_l@@YAHPAU__crt_locale_pointers@@IHH@Z 10017c7d f   libucrt:ismbbyte.obj
 0001:00016e31       ?find_end_of_double_null_terminated_sequence@@YAPB_WQB_W@Z 10017e31 f   libucrt:get_environment_from_os.obj
 0001:00016fbc       ??$?RV<lambda_cbab9ec6f41b0180b23cc171c22676b0>@@AAV<lambda_44731a7d0e6d81c3e6aa82d741081786>@@V<lambda_4b292cb8dd18144e164572427af410ab>@@@?$__crt_seh_guarded_call@P6AXH@Z@@QAEP6AXH@Z$$QAV<lambda_cbab9ec6f41b0180b23cc171c22676b0>@@AAV<lambda_44731a7d0e6d81c3e6aa82d741081786>@@$$QAV<lambda_4b292cb8dd18144e164572427af410ab>@@@Z 10017fbc f   libucrt:signal.obj
 0001:00017020       ?get_global_action_nolock@@YAPAP6AXH@ZH@Z 10018020 f   libucrt:signal.obj
 0001:00017062       ?siglookup@@YAPAU__crt_signal_action_t@@HQAU1@@Z 10018062 f   libucrt:signal.obj
 0001:0001731b       ??$?RV<lambda_2866be3712abc81a800a822484c830d8>@@AAV<lambda_39ca0ed439415581b5b15c265174cece>@@V<lambda_2b24c74d71094a6cd0cb82e44167d71b>@@@?$__crt_seh_guarded_call@X@@QAEX$$QAV<lambda_2866be3712abc81a800a822484c830d8>@@AAV<lambda_39ca0ed439415581b5b15c265174cece>@@$$QAV<lambda_2b24c74d71094a6cd0cb82e44167d71b>@@@Z 1001831b f   libucrt:fflush.obj
 0001:000173a7       ??$?RV<lambda_2cc53f568c5a2bb6f192f930a45d44ea>@@AAV<lambda_ab61a845afdef5b7c387490eaf3616ee>@@V<lambda_c2ffc0b7726aa6be21d5f0026187e748>@@@?$__crt_seh_guarded_call@X@@QAEX$$QAV<lambda_2cc53f568c5a2bb6f192f930a45d44ea>@@AAV<lambda_ab61a845afdef5b7c387490eaf3616ee>@@$$QAV<lambda_c2ffc0b7726aa6be21d5f0026187e748>@@@Z 100183a7 f   libucrt:fflush.obj
 0001:00017453       ?common_flush_all@@YAH_N@Z 10018453 f   libucrt:fflush.obj
 0001:000174a0       ?common_flush_all_should_try_to_flush_stream@@YA_NV__crt_stdio_stream@@QAH@Z 100184a0 f   libucrt:fflush.obj
 0001:000174d3       ?is_stream_flushable_or_commitable@@YA_NJ@Z 100184d3 f   libucrt:fflush.obj
 0001:00017ad0       ?free_crt_array_internal@@YAXQAPBXI@Z 10018ad0 f   libucrt:inittime.obj
 0001:00017d09       ?GetTableIndexFromLocaleName@@YAHPB_W@Z 10018d09 f   libucrt:lcidtoname_downlevel.obj
 0001:00017d85       ?should_round_up@@YA_NQBD0HW4__acrt_has_trailing_digits@@W4__acrt_rounding_mode@@@Z 10018d85 f   libucrt:_fptostr.obj
 0001:000198ce       ??R<lambda_e96123212306c92459f955e8e4eac55d>@@QBEIPBD@Z 1001a8ce f   libucrt:mbrtowc.obj
 0001:0001a30e       ??$common_tcsncpy_s@D@@YAHQADIQBDI@Z 1001b30e f   libucrt:strncpy_s.obj
 0001:0001a3d0       $$000000                   1001b3d0     libucrt:strpbrk.obj
 0001:0001a4b4       ?__acrt_LCMapStringA_stat@@YAHPAU__crt_locale_pointers@@PB_WKPBDHPADHHH@Z 1001b4b4 f   libucrt:lcmapstringa.obj
 0001:0001a6eb       ?initialize_multibyte@@YAHXZ 1001b6eb f   libucrt:multibyte_initializer.obj
 0001:0001a6fa       ??$?RV<lambda_9e9de3de5fa147e2223d7db92bc10aa6>@@AAV<lambda_38ce7e780aa69e748d6df282ebc68efe>@@V<lambda_8ca6da459f0f6780f1cff60fdc3d00e5>@@@?$__crt_seh_guarded_call@H@@QAEH$$QAV<lambda_9e9de3de5fa147e2223d7db92bc10aa6>@@AAV<lambda_38ce7e780aa69e748d6df282ebc68efe>@@$$QAV<lambda_8ca6da459f0f6780f1cff60fdc3d00e5>@@@Z 1001b6fa f   libucrt:commit.obj
 0001:0001a819       ?write_double_translated_ansi_nolock@@YA?AUwrite_result@?A0x17268360@@HQBDIAAV__crt_cached_ptd_host@@@Z 1001b819 f   libucrt:write.obj
 0001:0001abeb       ?write_double_translated_unicode_nolock@@YA?AUwrite_result@?A0x17268360@@QBDI@Z 1001bbeb f   libucrt:write.obj
 0001:0001ac53       ?write_requires_double_translation_nolock@@YA_NHAAV__crt_cached_ptd_host@@@Z 1001bc53 f   libucrt:write.obj
 0001:0001acd1       ?write_text_ansi_nolock@@YA?AUwrite_result@?A0x17268360@@HQBDI@Z 1001bcd1 f   libucrt:write.obj
 0001:0001adac       ?write_text_utf16le_nolock@@YA?AUwrite_result@?A0x17268360@@HQBDI@Z 1001bdac f   libucrt:write.obj
 0001:0001ae95       ?write_text_utf8_nolock@@YA?AUwrite_result@?A0x17268360@@HQBDI@Z 1001be95 f   libucrt:write.obj
 0001:0001b440       $$000000                   1001c440     libucrt:log10_impl.obj
 0001:0001b550       $$000000                   1001c550     libucrt:ceil_pentium4.obj
 0001:0001b66d       ?to_abstract_control@@YA?AW4__acrt_fenv_abstract_control@@W4__acrt_fenv_machine_sse_control@@@Z 1001c66d f   libucrt:_fenvutils.obj
 0001:0001b71d       ?to_abstract_control@@YA?AW4__acrt_fenv_abstract_control@@W4__acrt_fenv_machine_x87_control@@@Z 1001c71d f   libucrt:_fenvutils.obj
 0001:0001b7ca       ?to_machine_sse_control@@YA?AW4__acrt_fenv_machine_sse_control@@W4__acrt_fenv_abstract_control@@@Z 1001c7ca f   libucrt:_fenvutils.obj
 0001:0001b880       ?to_machine_x87_control@@YA?AW4__acrt_fenv_machine_x87_control@@W4__acrt_fenv_abstract_control@@@Z 1001c880 f   libucrt:_fenvutils.obj
 0001:0001bdeb       ?_fclose_internal@@YAHQAU_iobuf@@AAV__crt_cached_ptd_host@@@Z 1001cdeb f   libucrt:fclose.obj
 0001:0001be82       ?_fclose_nolock_internal@@YAHQAU_iobuf@@AAV__crt_cached_ptd_host@@@Z 1001ce82 f   libucrt:fclose.obj
 0001:0001bf40       ??$common_lseek_nolock@_J@@YA_JH_JHAAV__crt_cached_ptd_host@@@Z 1001cf40 f   libucrt:lseek.obj
 0001:0001c035       ___hw_cw_sse2              1001d035 f   libucrt:ieee87.obj
 0001:0001c4bb       __hw_cw                    1001d4bb f   libucrt:ieee87.obj
 0001:0001c570       $$000000                   1001d570     libucrt:log10_pentium4.obj
 0001:0001c800       $$000000                   1001d800     libucrt:87tran.obj
 0001:0001ca10       $$000000                   1001da10     libucrt:87disp.obj
 0001:0001cc70       $$000000                   1001dc70     libucrt:common.obj
 0001:0001ce00       $$000000                   1001de00     libucrt:genexcep.obj
 0001:0001d0fc       ??$?RV<lambda_d422a76eb4c3bf3ad751449ab71a6ea4>@@AAV<lambda_c9ba49e555ba839a7b07aa3fbecb7617>@@V<lambda_9476263c8ee91a25d21c55370bdb50de>@@@?$__crt_seh_guarded_call@H@@QAEH$$QAV<lambda_d422a76eb4c3bf3ad751449ab71a6ea4>@@AAV<lambda_c9ba49e555ba839a7b07aa3fbecb7617>@@$$QAV<lambda_9476263c8ee91a25d21c55370bdb50de>@@@Z 1001e0fc f   libucrt:close.obj
 0001:0001d310       $$000000                   1001e310     libucrt:_strnicm.obj
 0001:0001d371       ?__dcrt_lowio_initialize_console_output@@YAXXZ 1001e371 f   libucrt:initcon.obj
 0001:0001e320       $$000000                   1001f320     LIBCMT:ulldvrm.obj
 0001:0001e351       L1                         1001f351     LIBCMT:ulldvrm.obj
 0001:0001e35f       L3                         1001f35f     LIBCMT:ulldvrm.obj
 0001:0001e38d       L4                         1001f38d     LIBCMT:ulldvrm.obj
 0001:0001e396       L5                         1001f396     LIBCMT:ulldvrm.obj
 0001:0001e398       L2                         1001f398     LIBCMT:ulldvrm.obj
 0001:0001e3c0       $$000000                   1001f3c0     LIBCMT:llmul.obj
 0001:0001e3d9       hard                       1001f3d9     LIBCMT:llmul.obj
 0001:0001e400       $$000000                   1001f400     LIBCMT:lldvrm.obj
 0001:0001e424       L1                         1001f424     LIBCMT:lldvrm.obj
 0001:0001e440       L2                         1001f440     LIBCMT:lldvrm.obj
 0001:0001e46c       L3                         1001f46c     LIBCMT:lldvrm.obj
 0001:0001e47a       L5                         1001f47a     LIBCMT:lldvrm.obj
 0001:0001e4a8       L6                         1001f4a8     LIBCMT:lldvrm.obj
 0001:0001e4b1       L7                         1001f4b1     LIBCMT:lldvrm.obj
 0001:0001e4b3       L4                         1001f4b3     LIBCMT:lldvrm.obj
 0001:0001e4c5       L9                         1001f4c5     LIBCMT:lldvrm.obj
 0001:0001e4d9       L8                         1001f4d9     LIBCMT:lldvrm.obj
 0001:0001e4e0       $$000000                   1001f4e0     LIBCMT:llshl.obj
 0001:0001e4f0       MORE32                     1001f4f0     LIBCMT:llshl.obj
 0001:0001e4fa       RETZERO                    1001f4fa     LIBCMT:llshl.obj
 0001:0001e500       $$000000                   1001f500     LIBCMT:ullshr.obj
 0001:0001e510       MORE32                     1001f510     LIBCMT:ullshr.obj
 0001:0001e51a       RETZERO                    1001f51a     LIBCMT:ullshr.obj
 0001:0001e520       $$000000                   1001f520     LIBCMT:ftol2.obj
 0001:0001e530       $$000000                   1001f530     LIBCMT:ftol2.obj
 0001:0001e541       L3B                        1001f541     LIBCMT:ftol2.obj
 0001:0001e584       L3F                        1001f584     LIBCMT:ftol2.obj
 0001:0001e58c       L40                        1001f58c     LIBCMT:ftol2.obj
 0001:0001e59f       L41                        1001f59f     LIBCMT:ftol2.obj
 0001:0001e5b0       $$000000                   1001f5b0     libvcruntime:strrchr.obj
 0001:0001e5ed       strrchr_sse_loop           1001f5ed     libvcruntime:strrchr.obj
 0001:0001e61d       strrchr_sse_break          1001f61d     libvcruntime:strrchr.obj
 0001:0001e63d       strrchr_sttni              1001f63d     libvcruntime:strrchr.obj
 0001:0001e64f       strrchr_sttni_chars        1001f64f     libvcruntime:strrchr.obj
 0001:0001e664       strrchr_sttni_aligned      1001f664     libvcruntime:strrchr.obj
 0001:0001e668       strrchr_sttni_xmm          1001f668     libvcruntime:strrchr.obj
 0001:0001e67b       exit                       1001f67b     libvcruntime:strrchr.obj
 0001:0001e67e       strrchr_zero               1001f67e     libvcruntime:strrchr.obj
 0001:0001e6a3       strchr_zero_loop           1001f6a3     libvcruntime:strrchr.obj
 0001:0001e6b7       strchr_zero_result         1001f6b7     libvcruntime:strrchr.obj
 0001:0001e6be       strrchr_no_sse             1001f6be     libvcruntime:strrchr.obj
 0001:0001e6e1       returndi                   1001f6e1     libvcruntime:strrchr.obj
 0001:0001e6e3       toend                      1001f6e3     libvcruntime:strrchr.obj
 0001:0001e768       __ehhandler$??2@YAPAXIABUnothrow_t@std@@@Z 1001f768 f   LIBCMT:new_scalar_nothrow.obj
 0001:0001e785       __ehhandler$?CallUnexpected@@YAXPBU_s_ESTypeList@@@Z 1001f785 f   libvcruntime:frame.obj
 0001:0001e7a2       __ehhandler$?common_exit@@YAXHW4_crt_exit_cleanup_mode@@W4_crt_exit_return_mode@@@Z 1001f7a2 f   libucrt:exit.obj
 0001:0001e7bf       __ehhandler$?try_cor_exit_process@@YAXI@Z 1001f7bf f   libucrt:exit.obj
 0001:0001e7dc       __ehhandler$___dcrt_uninitialize_environments_nolock 1001f7dc f   libucrt:environment_initialization.obj
 0001:0001e7f9       __ehhandler$__execute_onexit_table 1001f7f9 f   libucrt:onexit.obj
 0001:0001e816       __ehhandler$?write_double_translated_ansi_nolock@@YA?AUwrite_result@?A0x17268360@@HQBDIAAV__crt_cached_ptd_host@@@Z 1001f816 f   libucrt:write.obj
 0001:0001e840       ??__F_AtlComModule@ATL@@YAXXZ 1001f840 f   OposVariant.obj
 0001:0001e84a       ??__F_AtlWinModule@ATL@@YAXXZ 1001f84a f   OposVariant.obj
 0001:0001e864       ??__F_Module@@YAXXZ        1001f864 f   CashDrawer.obj
 0001:0001e878       ??__F_AtlBaseModule@ATL@@YAXXZ 1001f878 f   atls:atlbase.obj
 0002:00000308       ?_AtlBaseModule$initializer$@ATL@@3P6AXXZA 10020308     atls:atlbase.obj
 0002:0000030c       ?_AtlComModule$initializer$@ATL@@3P6AXXZA 1002030c     OposVariant.obj
 0002:00000310       ?_AtlWinModule$initializer$@ATL@@3P6AXXZA 10020310     OposVariant.obj
 0002:00000314       ?_Module$initializer$@@3P6AXXZA 10020314     CashDrawer.obj
 0002:00000318       ??pConnMap$initializer$@?$IConnectionPointContainerImpl@VCOPOSCashDrawer@@@ATL@@0P6AXXZA@@3P6AXXZA 10020318     CashDrawer.obj
 0002:00000324       ?__scrt_initialize_tss_var@@3P6AHXZA 10020324     LIBCMT:thread_safe_statics.obj
 0002:00001778       _GS_ExceptionPointers      10021778     LIBCMT:gs_report.obj
 0002:00001908       ?tokenTable@@3QBUStringLiteral@@B 10021908     libvcruntime:undname.obj
 0002:00001990       ?nameTable@@3QBUStringLiteral@@B 10021990     libvcruntime:undname.obj
 0002:00001c28       ?rttiTable@@3QBUStringLiteral@@B 10021c28     libvcruntime:undname.obj
 0002:00001c50       ?IndirectionName@@3QBUStringLiteral@@B 10021c50     libvcruntime:undname.obj
 0002:00001c80       ?PrefixName@@3QBUStringLiteral@@B 10021c80     libvcruntime:undname.obj
 0002:000022bc       ?module_names@?A0x592e9a36@@3QBQB_WB 100222bc     libvcruntime:winapi_downlevel.obj
 0002:00002364       ?candidate_modules@?1??try_get_FlsAlloc@@YAP6GKP6GXPAX@Z@ZXZ@4QBW4module_id@?A0x592e9a36@@B 10022364     libvcruntime:winapi_downlevel.obj
 0002:00002378       ?candidate_modules@?1??try_get_FlsFree@@YAP6GHK@ZXZ@4QBW4module_id@?A0x592e9a36@@B 10022378     libvcruntime:winapi_downlevel.obj
 0002:00002388       ?candidate_modules@?1??try_get_FlsGetValue@@YAP6GPAXK@ZXZ@4QBW4module_id@?A0x592e9a36@@B 10022388     libvcruntime:winapi_downlevel.obj
 0002:0000239c       ?candidate_modules@?1??try_get_FlsSetValue@@YAP6GHKPAX@ZXZ@4QBW4module_id@?A0x592e9a36@@B 1002239c     libvcruntime:winapi_downlevel.obj
 0002:000023b0       ?candidate_modules@?1??try_get_InitializeCriticalSectionEx@@YAP6GHPAU_RTL_CRITICAL_SECTION@@KK@ZXZ@4QBW4module_id@?A0x592e9a36@@B 100223b0     libvcruntime:winapi_downlevel.obj
 0002:000023d8       ?errtable@@3QBUerrentry@?A0x31fdb9ec@@B 100223d8     libucrt:errno.obj
 0002:00002720       ___acrt_initializers       10022720     libucrt:initialization.obj
 0002:00002c60       ?module_names@?A0x391cf84c@@3QBQB_WB 10022c60     libucrt:winapi_thunks.obj
 0002:00003114       ?candidate_modules@?1??try_get_AreFileApisANSI@@YAP6GHXZXZ@4QBW4module_id@?A0x391cf84c@@B 10023114     libucrt:winapi_thunks.obj
 0002:00003128       ?candidate_modules@?1??try_get_InitializeCriticalSectionEx@@YAP6GHPAU_RTL_CRITICAL_SECTION@@KK@ZXZ@4QBW4module_id@?A0x391cf84c@@B 10023128     libucrt:winapi_thunks.obj
 0002:00003130       ?candidate_modules@?1??try_get_LCMapStringEx@@YAP6GHPB_WK0HPA_WHPAU_nlsversioninfo@@PAXJ@ZXZ@4QBW4module_id@?A0x391cf84c@@B 10023130     libucrt:winapi_thunks.obj
 0002:00003148       ?candidate_modules@?1??try_get_LocaleNameToLCID@@YAP6GKPB_WK@ZXZ@4QBW4module_id@?A0x391cf84c@@B 10023148     libucrt:winapi_thunks.obj
 0002:00003164       ?candidate_modules@?1??try_get_AppPolicyGetProcessTerminationMethod@@YAP6GJPAXPAW4AppPolicyProcessTerminationMethod@@@ZXZ@4QBW4module_id@?A0x391cf84c@@B 10023164     libucrt:winapi_thunks.obj
 0002:00003190       ?candidate_modules@?1??try_get_SetThreadStackGuarantee@@YAP6GHPAK@ZXZ@4QBW4module_id@?A0x391cf84c@@B 10023190     libucrt:winapi_thunks.obj
 0002:000031b0       ?candidate_modules@?1??try_get_FlsAlloc@@YAP6GKP6GXPAX@Z@ZXZ@4QBW4module_id@?A0x391cf84c@@B 100231b0     libucrt:winapi_thunks.obj
 0002:000031b8       ?candidate_modules@?1??try_get_FlsFree@@YAP6GHK@ZXZ@4QBW4module_id@?A0x391cf84c@@B 100231b8     libucrt:winapi_thunks.obj
 0002:000031c0       ?candidate_modules@?1??try_get_FlsGetValue@@YAP6GPAXK@ZXZ@4QBW4module_id@?A0x391cf84c@@B 100231c0     libucrt:winapi_thunks.obj
 0002:000031c8       ?candidate_modules@?1??try_get_FlsSetValue@@YAP6GHKPAX@ZXZ@4QBW4module_id@?A0x391cf84c@@B 100231c8     libucrt:winapi_thunks.obj
 0002:000031d0       ?strings@?1??fp_format_nan_or_infinity@@YAHW4__acrt_fp_class@@_NPADI1@Z@4QAY03QBDA 100231d0     libucrt:cvt.obj
 0002:00003258       ?_mb_locale_names@@3QBQB_WB 10023258     libucrt:mbctype.obj
 0002:000038a0       ?LcidToLocaleNameTable@?A0x881e4c05@@3QBULcidToLocaleName@1@B 100238a0     libucrt:lcidtoname_downlevel.obj
 0002:000049c0       ?LocaleNameToIndexTable@?A0x881e4c05@@3QBULocaleNameIndex@1@B 100249c0     libucrt:lcidtoname_downlevel.obj
 0002:00006300       LOG_name                   10026300     libucrt:log10_impl.obj
 0002:00006310       _One                       10026310     libucrt:ceil_pentium4.obj
 0002:00006320       _Bns                       10026320     libucrt:ceil_pentium4.obj
 0002:00006330       _Zero                      10026330     libucrt:ceil_pentium4.obj
 0002:00006340       _S                         10026340     libucrt:ceil_pentium4.obj
 0002:00006350       _NegZero                   10026350     libucrt:ceil_pentium4.obj
 0002:00006360       emask                      10026360     libucrt:log10_pentium4.obj
 0002:00006370       CC                         10026370     libucrt:log10_pentium4.obj
 0002:00006380       Magic                      10026380     libucrt:log10_pentium4.obj
 0002:00006390       hi_mask                    10026390     libucrt:log10_pentium4.obj
 0002:000063a0       LOG10_2                    100263a0     libucrt:log10_pentium4.obj
 0002:000063b0       place_L                    100263b0     libucrt:log10_pentium4.obj
 0002:000063d0       One                        100263d0     libucrt:log10_pentium4.obj
 0002:000063e0       Zero                       100263e0     libucrt:log10_pentium4.obj
 0002:000063f0       Two52                      100263f0     libucrt:log10_pentium4.obj
 0002:00006400       Infs                       10026400     libucrt:log10_pentium4.obj
 0002:00006410       NaN                        10026410     libucrt:log10_pentium4.obj
 0002:00006420       coeff                      10026420     libucrt:log10_pentium4.obj
 0002:0000647e       _log2max                   1002647e     libucrt:87tran.obj
 0002:00006488       _smallarg                  10026488     libucrt:87tran.obj
 0002:00006492       _half                      10026492     libucrt:87tran.obj
 0002:000064de       One                        100264de     libucrt:87disp.obj
 0002:000064e6       Three                      100264e6     libucrt:87disp.obj
 0002:000064ee       XAMtoTagTab                100264ee     libucrt:87disp.obj
 0002:00006500       One                        10026500     libucrt:common.obj
 0002:00006514       DblMax                     10026514     libucrt:common.obj
 0002:0000651c       DblMin                     1002651c     libucrt:common.obj
 0002:00006524       IeeeAdjO                   10026524     libucrt:common.obj
 0002:0000652c       IeeeAdjU                   1002652c     libucrt:common.obj
 0002:00006534       _infinity                  10026534     libucrt:common.obj
 0002:0000653c       _zero                      1002653c     libucrt:common.obj
 0002:00006588       _over                      10026588     libucrt:fpctrl.obj
 0002:00006594       _under                     10026594     libucrt:fpctrl.obj
 0002:00006dc8       ?_names@?1??_get_fname@@9@4QBU<unnamed-type-_names>@?1??1@YAPADI@Z@B 10026dc8     libucrt:fpexcept.obj
 0002:00006f70       two32                      10026f70     LIBCMT:ftol2.obj
 0002:00006f74       two63                      10026f74     LIBCMT:ftol2.obj
 0002:00006f78       _NaN                       10026f78     LIBCMT:ftol2.obj
 0002:000076d8       __sehtable$?_AtlVerifyStackAvailable@_ATL_SAFE_ALLOCA_IMPL@ATL@@YA_NK@Z 100276d8     CashDrawer.obj
 0002:000076f8       __sehtable$___scrt_is_nonwritable_in_current_image 100276f8     LIBCMT:utility.obj
 0002:00007714       __catchsym$??2@YAPAXIABUnothrow_t@std@@@Z$2 10027714     LIBCMT:new_scalar_nothrow.obj
 0002:00007724       __unwindtable$??2@YAPAXIABUnothrow_t@std@@@Z 10027724     LIBCMT:new_scalar_nothrow.obj
 0002:00007734       __tryblocktable$??2@YAPAXIABUnothrow_t@std@@@Z 10027734     LIBCMT:new_scalar_nothrow.obj
 0002:00007748       __ehfuncinfo$??2@YAPAXIABUnothrow_t@std@@@Z 10027748     LIBCMT:new_scalar_nothrow.obj
 0002:00007770       __sehtable$?dllmain_crt_process_attach@@YAHQAUHINSTANCE__@@QAX@Z 10027770     LIBCMT:dll_dllmain.obj
 0002:00007790       __sehtable$?dllmain_crt_process_detach@@YAH_N@Z 10027790     LIBCMT:dll_dllmain.obj
 0002:000077b8       __sehtable$?dllmain_dispatch@@YAHQAUHINSTANCE__@@KQAX@Z 100277b8     LIBCMT:dll_dllmain.obj
 0002:00007868       __sehtable$___DestructExceptionObject 10027868     libvcruntime:ehhelpers.obj
 0002:00007888       __sehtable$?FrameUnwindToState@__FrameHandler3@@SAXPAUEHRegistrationNode@@PAXPBU_s_FuncInfo@@H@Z 10027888     libvcruntime:frame.obj
 0002:000078b0       __sehtable$?CallCatchBlock@@YAPAXPAUEHExceptionRecord@@PAUEHRegistrationNode@@PAU_CONTEXT@@PBU_s_FuncInfo@@PAXHK@Z 100278b0     libvcruntime:frame.obj
 0002:000078d8       __catchsym$?CallUnexpected@@YAXPBU_s_ESTypeList@@@Z$2 100278d8     libvcruntime:frame.obj
 0002:000078e8       __unwindtable$?CallUnexpected@@YAXPBU_s_ESTypeList@@@Z 100278e8     libvcruntime:frame.obj
 0002:000078f8       __tryblocktable$?CallUnexpected@@YAXPBU_s_ESTypeList@@@Z 100278f8     libvcruntime:frame.obj
 0002:0000790c       __ehfuncinfo$?CallUnexpected@@YAXPBU_s_ESTypeList@@@Z 1002790c     libvcruntime:frame.obj
 0002:00007930       __sehtable$??$BuildCatchObjectHelperInternal@V__FrameHandler3@@@@YAHPAUEHExceptionRecord@@PAXPBU_s_HandlerType@@PBU_s_CatchableType@@@Z 10027930     libvcruntime:frame.obj
 0002:00007950       __sehtable$??$BuildCatchObjectInternal@V__FrameHandler3@@@@YAXPAUEHExceptionRecord@@PAXPBU_s_HandlerType@@PBU_s_CatchableType@@@Z 10027950     libvcruntime:frame.obj
 0002:000079a4       __ehfuncinfo$?write_double_translated_ansi_nolock@@YA?AUwrite_result@?A0x17268360@@HQBDIAAV__crt_cached_ptd_host@@@Z 100279a4     libucrt:write.obj
 0002:000079a4       __ehfuncinfo$?try_cor_exit_process@@YAXI@Z 100279a4     libucrt:exit.obj
 0002:000079c8       __unwindtable$?common_exit@@YAXHW4_crt_exit_cleanup_mode@@W4_crt_exit_return_mode@@@Z 100279c8     libucrt:exit.obj
 0002:000079d0       __ehfuncinfo$?common_exit@@YAXHW4_crt_exit_cleanup_mode@@W4_crt_exit_return_mode@@@Z 100279d0     libucrt:exit.obj
 0002:000079f8       __sehtable$??R<lambda_6e4b09c48022b2350581041d5f6b0c4c>@@QBE@XZ 100279f8     libucrt:exit.obj
 0002:00007a18       __sehtable$??$?RV<lambda_03b1d95aef87969028cfba75ccab2455>@@AAV<lambda_6e4b09c48022b2350581041d5f6b0c4c>@@V<lambda_22bdf7517842c4b3e53723af5aa32b9e>@@@?$__crt_seh_guarded_call@X@@QAEX$$QAV<lambda_03b1d95aef87969028cfba75ccab2455>@@AAV<lambda_6e4b09c48022b2350581041d5f6b0c4c>@@$$QAV<lambda_22bdf7517842c4b3e53723af5aa32b9e>@@@Z 10027a18     libucrt:exit.obj
 0002:00007a34       __unwindtable$___dcrt_uninitialize_environments_nolock 10027a34     libucrt:environment_initialization.obj
 0002:00007a44       __ehfuncinfo$___dcrt_uninitialize_environments_nolock 10027a44     libucrt:environment_initialization.obj
 0002:00007a68       __unwindtable$__execute_onexit_table 10027a68     libucrt:onexit.obj
 0002:00007a70       __ehfuncinfo$__execute_onexit_table 10027a70     libucrt:onexit.obj
 0002:00007a98       __sehtable$??$?RV<lambda_8e746cf0007f6ed984d6f78af1fec997>@@AAV<lambda_22ebabd17bc4fa466a2aca6d8deb888d>@@V<lambda_18ed0c0b38a6dc0daf1e7ac6d6adf05e>@@@?$__crt_seh_guarded_call@H@@QAEH$$QAV<lambda_8e746cf0007f6ed984d6f78af1fec997>@@AAV<lambda_22ebabd17bc4fa466a2aca6d8deb888d>@@$$QAV<lambda_18ed0c0b38a6dc0daf1e7ac6d6adf05e>@@@Z 10027a98     libucrt:onexit.obj
 0002:00007ab8       __sehtable$??$?RV<lambda_69a2805e680e0e292e8ba93315fe43a8>@@AAV<lambda_f03950bc5685219e0bcd2087efbe011e>@@V<lambda_03fcd07e894ec930e3f35da366ca99d6>@@@?$__crt_seh_guarded_call@H@@QAEH$$QAV<lambda_69a2805e680e0e292e8ba93315fe43a8>@@AAV<lambda_f03950bc5685219e0bcd2087efbe011e>@@$$QAV<lambda_03fcd07e894ec930e3f35da366ca99d6>@@@Z 10027ab8     libucrt:onexit.obj
 0002:00007ad8       __sehtable$__query_new_handler 10027ad8     libucrt:new_handler.obj
 0002:00007af8       __sehtable$_terminate      10027af8     libucrt:terminate.obj
 0002:00007b18       __sehtable$??$?RV<lambda_15ade71b0218206bbe3333a0c9b79046>@@AAV<lambda_da44e0f8b0f19ba52fefafb335991732>@@V<lambda_207f2d024fc103971653565357d6cd41>@@@?$__crt_seh_guarded_call@X@@QAEX$$QAV<lambda_15ade71b0218206bbe3333a0c9b79046>@@AAV<lambda_da44e0f8b0f19ba52fefafb335991732>@@$$QAV<lambda_207f2d024fc103971653565357d6cd41>@@@Z 10027b18     libucrt:per_thread_data.obj
 0002:00007b38       __sehtable$??$?RV<lambda_a7e850c220f1c8d1e6efeecdedd162c6>@@AAV<lambda_46720907175c18b6c9d2717bc0d2d362>@@V<lambda_9048902d66e8d99359bc9897bbb930a8>@@@?$__crt_seh_guarded_call@X@@QAEX$$QAV<lambda_a7e850c220f1c8d1e6efeecdedd162c6>@@AAV<lambda_46720907175c18b6c9d2717bc0d2d362>@@$$QAV<lambda_9048902d66e8d99359bc9897bbb930a8>@@@Z 10027b38     libucrt:per_thread_data.obj
 0002:00007b58       __sehtable$??$?RV<lambda_38edbb1296d33220d7e4dd0ed76b244a>@@AAV<lambda_5ce1d447e08cb34b2473517608e21441>@@V<lambda_fb385d3da700c9147fc39e65dd577a8c>@@@?$__crt_seh_guarded_call@X@@QAEX$$QAV<lambda_38edbb1296d33220d7e4dd0ed76b244a>@@AAV<lambda_5ce1d447e08cb34b2473517608e21441>@@$$QAV<lambda_fb385d3da700c9147fc39e65dd577a8c>@@@Z 10027b58     libucrt:per_thread_data.obj
 0002:00007b78       __sehtable$??$?RV<lambda_6affb1475c98b40b75cdec977db92e3c>@@AAV<lambda_b8d4b9c228a6ecc3f80208dbb4b4a104>@@V<lambda_608742c3c92a14382c1684fc64f96c88>@@@?$__crt_seh_guarded_call@X@@QAEX$$QAV<lambda_6affb1475c98b40b75cdec977db92e3c>@@AAV<lambda_b8d4b9c228a6ecc3f80208dbb4b4a104>@@$$QAV<lambda_608742c3c92a14382c1684fc64f96c88>@@@Z 10027b78     libucrt:per_thread_data.obj
 0002:00007b98       __sehtable$??$?RV<lambda_e5124f882df8998aaf41531e079ba474>@@AAV<lambda_3e16ef9562a7dcce91392c22ab16ea36>@@V<lambda_e25ca0880e6ef98be67edffd8c599615>@@@?$__crt_seh_guarded_call@X@@QAEX$$QAV<lambda_e5124f882df8998aaf41531e079ba474>@@AAV<lambda_3e16ef9562a7dcce91392c22ab16ea36>@@$$QAV<lambda_e25ca0880e6ef98be67edffd8c599615>@@@Z 10027b98     libucrt:wsetlocale.obj
 0002:00007bb8       __sehtable$___acrt_initialize_lowio 10027bb8     libucrt:ioinit.obj
 0002:00007bd8       __sehtable$?update_thread_multibyte_data_internal@@YAPAU__crt_multibyte_data@@QAU__acrt_ptd@@QAPAU1@@Z 10027bd8     libucrt:mbctype.obj
 0002:00007bf8       __sehtable$??$?RV<lambda_ceb1ee4838e85a9d631eb091e2fbe199>@@AAV<lambda_ae742caa10f662c28703da3d2ea5e57e>@@V<lambda_cd08b5d6af4937fe54fc07d0c9bf6b37>@@@?$__crt_seh_guarded_call@X@@QAEX$$QAV<lambda_ceb1ee4838e85a9d631eb091e2fbe199>@@AAV<lambda_ae742caa10f662c28703da3d2ea5e57e>@@$$QAV<lambda_cd08b5d6af4937fe54fc07d0c9bf6b37>@@@Z 10027bf8     libucrt:mbctype.obj
 0002:00007c18       __sehtable$_raise          10027c18     libucrt:signal.obj
 0002:00007c38       __sehtable$??$?RV<lambda_cbab9ec6f41b0180b23cc171c22676b0>@@AAV<lambda_44731a7d0e6d81c3e6aa82d741081786>@@V<lambda_4b292cb8dd18144e164572427af410ab>@@@?$__crt_seh_guarded_call@P6AXH@Z@@QAEP6AXH@Z$$QAV<lambda_cbab9ec6f41b0180b23cc171c22676b0>@@AAV<lambda_44731a7d0e6d81c3e6aa82d741081786>@@$$QAV<lambda_4b292cb8dd18144e164572427af410ab>@@@Z 10027c38     libucrt:signal.obj
 0002:00007c58       __sehtable$??$?RV<lambda_2866be3712abc81a800a822484c830d8>@@AAV<lambda_39ca0ed439415581b5b15c265174cece>@@V<lambda_2b24c74d71094a6cd0cb82e44167d71b>@@@?$__crt_seh_guarded_call@X@@QAEX$$QAV<lambda_2866be3712abc81a800a822484c830d8>@@AAV<lambda_39ca0ed439415581b5b15c265174cece>@@$$QAV<lambda_2b24c74d71094a6cd0cb82e44167d71b>@@@Z 10027c58     libucrt:fflush.obj
 0002:00007c78       __sehtable$??$?RV<lambda_2cc53f568c5a2bb6f192f930a45d44ea>@@AAV<lambda_ab61a845afdef5b7c387490eaf3616ee>@@V<lambda_c2ffc0b7726aa6be21d5f0026187e748>@@@?$__crt_seh_guarded_call@X@@QAEX$$QAV<lambda_2cc53f568c5a2bb6f192f930a45d44ea>@@AAV<lambda_ab61a845afdef5b7c387490eaf3616ee>@@$$QAV<lambda_c2ffc0b7726aa6be21d5f0026187e748>@@@Z 10027c78     libucrt:fflush.obj
 0002:00007c98       __sehtable$___acrt_update_thread_locale_data 10027c98     libucrt:locale_refcounting.obj
 0002:00007cb8       __sehtable$__fcloseall     10027cb8     libucrt:closeall.obj
 0002:00007cd8       __sehtable$___acrt_lowio_ensure_fh_exists 10027cd8     libucrt:osfinfo.obj
 0002:00007cf8       __sehtable$??$?RV<lambda_9e9de3de5fa147e2223d7db92bc10aa6>@@AAV<lambda_38ce7e780aa69e748d6df282ebc68efe>@@V<lambda_8ca6da459f0f6780f1cff60fdc3d00e5>@@@?$__crt_seh_guarded_call@H@@QAEH$$QAV<lambda_9e9de3de5fa147e2223d7db92bc10aa6>@@AAV<lambda_38ce7e780aa69e748d6df282ebc68efe>@@$$QAV<lambda_8ca6da459f0f6780f1cff60fdc3d00e5>@@@Z 10027cf8     libucrt:commit.obj
 0002:00007d18       __sehtable$__write_internal 10027d18     libucrt:write.obj
 0002:00007d38       __sehtable$?_fclose_internal@@YAHQAU_iobuf@@AAV__crt_cached_ptd_host@@@Z 10027d38     libucrt:fclose.obj
 0002:00007d58       __sehtable$??$?RV<lambda_d422a76eb4c3bf3ad751449ab71a6ea4>@@AAV<lambda_c9ba49e555ba839a7b07aa3fbecb7617>@@V<lambda_9476263c8ee91a25d21c55370bdb50de>@@@?$__crt_seh_guarded_call@H@@QAEH$$QAV<lambda_d422a76eb4c3bf3ad751449ab71a6ea4>@@AAV<lambda_c9ba49e555ba839a7b07aa3fbecb7617>@@$$QAV<lambda_9476263c8ee91a25d21c55370bdb50de>@@@Z 10027d58     libucrt:close.obj
 0002:00007d78       __sehtable$___set_fpsr_sse2 10027d78     libucrt:fpctrl.obj
 0002:00007d98       __sehtable$__IsNonwritableInCurrentImage 10027d98     LIBCMT:pesect.obj
 0002:00007dc0       .edata                     10027dc0     OPOSCashDrawer.exp
 0002:00007de8       rgpv                       10027de8     OPOSCashDrawer.exp
 0002:00007df8       rgszName                   10027df8     OPOSCashDrawer.exp
 0002:00007e08       rgwOrd                     10027e08     OPOSCashDrawer.exp
 0002:00007e10       szName                     10027e10     OPOSCashDrawer.exp
 0002:00007e23       $N00001                    10027e23     OPOSCashDrawer.exp
 0002:00007e33       $N00002                    10027e33     OPOSCashDrawer.exp
 0002:00007e45       $N00003                    10027e45     OPOSCashDrawer.exp
 0002:00007e57       $N00004                    10027e57     OPOSCashDrawer.exp
 0002:00008466       .idata$6                   10028466     kernel32:KERNEL32.dll
 0002:0000867a       .idata$6                   1002867a     user32:USER32.dll
 0002:000087ae       .idata$6                   100287ae     gdi32:GDI32.dll
 0002:00008854       .idata$6                   10028854     advapi32:ADVAPI32.dll
 0002:00008970       .idata$6                   10028970     ole32:ole32.dll
 0002:0000897a       .idata$6                   1002897a     oleaut32:OLEAUT32.dll
 0003:00000110       ?ObjectMap@@3PAU_ATL_OBJMAP_ENTRY30@ATL@@A 10029110     CashDrawer.obj
 0003:000001d0       ?s_SOMethodNames@@3PAPADA  100291d0     CashDrawerImpl.obj
 0003:0000021c       ?s_RequiredMethodsPerRelease@@3PAHA 1002921c     CashDrawerImpl.obj
 0003:00000260       ?__vcrt_flsindex@@3KA      10029260     libvcruntime:per_thread_data.obj
 0003:00000280       ?errno_no_memory@@3HA      10029280     libucrt:errno.obj
 0003:00000284       ?doserrno_no_memory@@3KA   10029284     libucrt:errno.obj
 0003:00000290       ?__acrt_flsindex@@3KA      10029290     libucrt:per_thread_data.obj
 0003:00000628       __mbctypes                 10029628     libucrt:mbctype.obj
 0003:00000730       __mbcasemaps               10029730     libucrt:mbctype.obj
 0003:00000830       ?__rgctypeflag@@3PADA      10029830     libucrt:mbctype.obj
 0003:00000838       ?__rgcode_page_info@@3PAUcode_page_info@@A 10029838     libucrt:mbctype.obj
 0003:00000a90       ?__dcrt_lowio_console_output_handle@@3PAXA 10029a90     libucrt:initcon.obj
 0003:00000a94       ?__DAZ_ENABLED@?1??__set_fpsr_sse2@@9@9 10029a94     libucrt:fpctrl.obj
 0003:00000c28       ?is_initialized_as_dll@@3_NA 10029c28     LIBCMT:utility.obj
 0003:00000c29       ?module_local_atexit_table_initialized@@3_NA 10029c29     LIBCMT:utility.obj
 0003:00000c2c       ?module_local_atexit_table@@3U_onexit_table_t@@A 10029c2c     LIBCMT:utility.obj
 0003:00000c38       ?module_local_at_quick_exit_table@@3U_onexit_table_t@@A 10029c38     LIBCMT:utility.obj
 0003:00000c44       ?g_tss_cv@@3U_RTL_CONDITION_VARIABLE@@A 10029c44     LIBCMT:thread_safe_statics.obj
 0003:00000c48       ?g_tss_event@@3PAXA        10029c48     LIBCMT:thread_safe_statics.obj
 0003:00000c4c       ?g_tss_mutex@@3U_RTL_CRITICAL_SECTION@@A 10029c4c     LIBCMT:thread_safe_statics.obj
 0003:00000c64       ?g_sleep_condition_variable_cs@@3P6GHPAU_RTL_CONDITION_VARIABLE@@PAU_RTL_CRITICAL_SECTION@@K@ZA 10029c64     LIBCMT:thread_safe_statics.obj
 0003:00000c68       ?g_wake_all_condition_variable@@3P6GXPAU_RTL_CONDITION_VARIABLE@@@ZA 10029c68     LIBCMT:thread_safe_statics.obj
 0003:00000c70       _GS_ExceptionRecord        10029c70     LIBCMT:gs_report.obj
 0003:00000cc0       _GS_ContextRecord          10029cc0     LIBCMT:gs_report.obj
 0003:00000f90       ?__proc_attached@@3HA      10029f90     LIBCMT:dll_dllmain.obj
 0003:00000fec       ?AllocateData@@3P6GPAUAtlThunkData_t@@XZA 10029fec     atls:atlthunk.obj
 0003:00000ff0       ?InitData@@3P6GXPAUAtlThunkData_t@@PAXI@ZA 10029ff0     atls:atlthunk.obj
 0003:00000ff4       ?DataToCode@@3P6GP6GJPAUHWND__@@IIJ@ZPAUAtlThunkData_t@@@ZA 10029ff4     atls:atlthunk.obj
 0003:00000ff8       ?FreeData@@3P6GXPAUAtlThunkData_t@@@ZA 10029ff8     atls:atlthunk.obj
 0003:00000ffc       ?Initialized@@3_NA         10029ffc     atls:atlthunk.obj
 0003:0000100c       ?__vcrt_startup_thread_ptd@@3U__vcrt_ptd@@A 1002a00c     libvcruntime:per_thread_data.obj
 0003:00001034       ___vcrt_lock_table         1002a034     libvcruntime:locks.obj
 0003:0000104c       ___vcrt_locks_initialized  1002a04c     libvcruntime:locks.obj
 0003:00001078       ?heap@@3V_HeapManager@@A   1002a078     libvcruntime:undname.obj
 0003:0000108c       ?module_handles@@3PAPAUHINSTANCE__@@A 1002a08c     libvcruntime:winapi_downlevel.obj
 0003:00001098       ?function_pointers@@3PAPAXA 1002a098     libvcruntime:winapi_downlevel.obj
 0003:000010ac       ?__acrt_invalid_parameter_handler@@3V?$dual_state_global@P6AXPB_W00II@Z@__crt_state_management@@A 1002a0ac     libucrt:invalid_parameter.obj
 0003:000010b0       ?c_termination_complete@@3JA 1002a0b0     libucrt:exit.obj
 0003:000010b4       ?thread_local_exit_callback_func@@3P6GXPAXK0@ZA 1002a0b4     libucrt:exit.obj
 0003:000010c0       ?program_name@?1???$common_configure_argv@D@@YAHW4_crt_argv_mode@@@Z@4PADA 1002a0c0     libucrt:argv_parsing.obj
 0003:000011f0       ?__acrt_new_handler@@3V?$dual_state_global@P6AHI@Z@__crt_state_management@@A 1002a1f0     libucrt:new_handler.obj
 0003:00001200       ?module_handles@@3PAPAUHINSTANCE__@@A 1002a200     libucrt:winapi_thunks.obj
 0003:00001250       ?encoded_function_pointers@@3PAPAXA 1002a250     libucrt:winapi_thunks.obj
 0003:000012d8       ?internal_state@?1??_mbtowc_internal@@9@4U_Mbstatet@@A 1002a2d8     libucrt:mbtowc.obj
 0003:000012e8       ?enable_percent_n@@3IA     1002a2e8     libucrt:printf_count_output.obj
 0003:00001500       ?__acrt_lock_table@@3PAU_RTL_CRITICAL_SECTION@@A 1002a500     libucrt:locks.obj
 0003:00001650       ?__acrt_locks_initialized@@3IA 1002a650     libucrt:locks.obj
 0003:00001660       ?fSystemSet@@3HA           1002a660     libucrt:mbctype.obj
 0003:00001664       ?initialized@?1??__acrt_initialize_multibyte@@9@4_NA 1002a664     libucrt:mbctype.obj
 0003:00001684       ?ctrlc_action@@3V?$dual_state_global@P6AXH@Z@__crt_state_management@@A 1002a684     libucrt:signal.obj
 0003:00001688       ?ctrlbreak_action@@3V?$dual_state_global@P6AXH@Z@__crt_state_management@@A 1002a688     libucrt:signal.obj
 0003:0000168c       ?abort_action@@3V?$dual_state_global@P6AXH@Z@__crt_state_management@@A 1002a68c     libucrt:signal.obj
 0003:00001690       ?term_action@@3V?$dual_state_global@P6AXH@Z@__crt_state_management@@A 1002a690     libucrt:signal.obj
 0003:00001694       ?user_matherr@@3V?$dual_state_global@P6AHPAU_exception@@@Z@__crt_state_management@@A 1002a694     libucrt:matherr.obj
 0003:000016a0       ?__acrt_global_new_mode@@3V?$dual_state_global@J@__crt_state_management@@A 1002a6a0     libucrt:new_mode.obj
 0003:000016a4       ?internal_pst@?1??__mbrtoc32_utf8@__crt_mbstring@@YAIPA_UPBDIPAU_Mbstatet@@AAV__crt_cached_ptd_host@@@Z@4U3@A 1002a6a4     libucrt:mbrtoc32.obj
 0003:000016ac       ?__acrt_app_type@@3W4_crt_app_type@@A 1002a6ac     libucrt:report_runtime_error.obj
 0003:000016b4       __pmatherr_set             1002a6b4     libucrt:libm_error.obj
 0004:00000220       $R000000                   1002b220     CashDrawer.res
 0004:00000bb8       $R000998                   1002bbb8     CashDrawer.res
 0004:00000ca0       $R000A80                   1002bca0     CashDrawer.res
 0004:00000f08       $R000CE8                   1002bf08     CashDrawer.res
 0004:00001470       $R001250                   1002c470     CashDrawer.res
 0004:00003938       $R003718                   1002e938     CashDrawer.res
 0004:00003970       $R003750                   1002e970     CashDrawer.res
