 OPOSBillDispenser

 Timestamp is 5ed456fd (Mon Jun  1 10:16:45 2020)

 Preferred load address is 10000000

 Start         Length     Name                   Class
 0001:00000000 00000080H .text$di                CODE
 0001:00000080 0001e0e3H .text$mn                CODE
 0001:0001e163 00000036H .text$x                 CODE
 0001:0001e199 00000042H .text$yd                CODE
 0002:00000000 000002fcH .idata$5                DATA
 0002:000002fc 00000004H .00cfg                  DATA
 0002:00000300 00000004H .CRT$XCA                DATA
 0002:00000304 00000004H .CRT$XCL                DATA
 0002:00000308 00000010H .CRT$XCU                DATA
 0002:00000318 00000004H .CRT$XCZ                DATA
 0002:0000031c 00000004H .CRT$XIA                DATA
 0002:00000320 00000010H .CRT$XIC                DATA
 0002:00000330 00000004H .CRT$XIZ                DATA
 0002:00000334 00000004H .CRT$XLA                DATA
 0002:00000338 00000004H .CRT$XLZ                DATA
 0002:0000033c 00000004H .CRT$XPA                DATA
 0002:00000340 00000008H .CRT$XPX                DATA
 0002:00000348 00000004H .CRT$XPXA               DATA
 0002:0000034c 00000004H .CRT$XPZ                DATA
 0002:00000350 00000004H .CRT$XTA                DATA
 0002:00000354 0000000cH .CRT$XTZ                DATA
 0002:00000358 00000000H .gfids$y                DATA
 0002:00000360 00007238H .rdata                  DATA
 0002:00007598 00000018H .rdata$T                DATA
 0002:000075b0 00000178H .rdata$r                DATA
 0002:00007728 0000001cH .rdata$sxdata           DATA
 0002:00007744 000003e0H .rdata$zzzdbg           DATA
 0002:00007b24 00000004H .rtc$IAA                DATA
 0002:00007b28 00000004H .rtc$IZZ                DATA
 0002:00007b2c 00000004H .rtc$TAA                DATA
 0002:00007b30 00000004H .rtc$TZZ                DATA
 0002:00007b34 00000004H .tls                    DATA
 0002:00007b38 00000004H .tls$                   DATA
 0002:00007b3c 00000004H .tls$ZZZ                DATA
 0002:00007b40 0000062cH .xdata$x                DATA
 0002:0000816c 00000004H ATL$__a                 DATA
 0002:00008170 00000010H ATL$__z                 DATA
 0002:00008180 000000b0H .edata                  DATA
 0002:00008230 00000078H .idata$2                DATA
 0002:000082a8 00000014H .idata$3                DATA
 0002:000082bc 000002fcH .idata$4                DATA
 0002:000085b8 00000bceH .idata$6                DATA
 0003:00000000 00000aa0H .data                   DATA
 0003:00000aa0 00000098H .data$r                 DATA
 0003:00000b38 00000b80H .bss                    DATA
 0004:00000000 00000220H .rsrc$01                DATA
 0004:00000220 00003df0H .rsrc$02                DATA

  Address         Publics by Value              Rva+Base       Lib:Object

 0000:00000000       ___arm64x_redirection_metadata 00000000     <absolute>
 0000:00000000       ___dynamic_value_reloc_table 00000000     <absolute>
 0000:00000000       ___guard_longjmp_count     00000000     <absolute>
 0000:00000000       ___x64_code_ranges_to_entry_points 00000000     <absolute>
 0000:00000000       ___guard_fids_count        00000000     <absolute>
 0000:00000000       ___guard_longjmp_table     00000000     <absolute>
 0000:00000000       ___hybrid_code_map_count   00000000     <absolute>
 0000:00000000       __except_list              00000000     <absolute>
 0000:00000000       ___arm64x_native_entrypoint 00000000     <absolute>
 0000:00000000       ___hybrid_auxiliary_iat    00000000     <absolute>
 0000:00000000       ___guard_fids_table        00000000     <absolute>
 0000:00000000       ___guard_eh_cont_count     00000000     <absolute>
 0000:00000000       ___guard_iat_table         00000000     <absolute>
 0000:00000000       ___guard_iat_count         00000000     <absolute>
 0000:00000000       ___volatile_metadata       00000000     <absolute>
 0000:00000000       ___AbsoluteZero            00000000     <absolute>
 0000:00000000       ___enclave_config          00000000     <absolute>
 0000:00000000       ___guard_eh_cont_table     00000000     <absolute>
 0000:00000000       ___hybrid_code_map         00000000     <absolute>
 0000:00000007       ___safe_se_handler_count   00000007     <absolute>
 0000:0000002c       __tls_array                0000002c     <absolute>
 0000:00000100       ___guard_flags             00000100     <absolute>
 0000:00000000       ___ImageBase               10000000     <linker-defined>
 0001:00000080       ?DupWide@_CW@@AAEXXZ       10001080 f   CWString.obj
 0001:0000009c       ?cw_dup@@YGXPBDAAHAAPA_W1@Z 1000109c f   CWString.obj
 0001:00000124       ?cw_memcpy@@YGHPA_WPBDH@Z  10001124 f   CWString.obj
 0001:00000150       ?cw_strcpy@@YAHPA_WPBD@Z   10001150 f   CWString.obj
 0001:00000163       ?cw_strlen@@YAHPBD@Z       10001163 f   CWString.obj
 0001:0000017c       ??0CAtlComModule@ATL@@QAE@XZ 1000117c f i OposVariant.obj
 0001:000001c1       ??0CAtlWinModule@ATL@@QAE@XZ 100011c1 f i OposVariant.obj
 0001:000001f8       ??0OposDispParms@@QAE@PAVOposVariant@@H@Z 100011f8 f   OposVariant.obj
 0001:00000269       ??1OposDispParms@@QAE@XZ   10001269 f   OposVariant.obj
 0001:00000277       ??A?$CSimpleArray@GV?$CSimpleArrayEqualHelper@G@ATL@@@ATL@@QAEAAGH@Z 10001277 f i OposVariant.obj
 0001:0000029c       ??_Estringdispid@CComTypeInfoHolder@ATL@@QAEPAXI@Z 1000129c f i OposVariant.obj
 0001:00000308       ?AtlWinModuleInit@ATL@@YGJPAU_ATL_WIN_MODULE70@1@@Z 10001308 f i OposVariant.obj
 0001:0000032e       ?AtlWinModuleTerm@ATL@@YGJPAU_ATL_WIN_MODULE70@1@PAUHINSTANCE__@@@Z 1000132e f i OposVariant.obj
 0001:00000391       ?ChangeBSTR@OposVariant@@QAEXPAPA_WAAJ@Z 10001391 f   OposVariant.obj
 0001:000003d2       ?ChangeLONG@OposVariant@@QAEXPAJAAJ@Z 100013d2 f   OposVariant.obj
 0001:00000413       ?GetLONG@OposVariant@@QAEJXZ 10001413 f   OposVariant.obj
 0001:0000042e       ?Init@CComCriticalSection@ATL@@QAEJXZ 1000142e f i OposVariant.obj
 0001:00000456       ?RemoveAll@?$CSimpleArray@PAUHINSTANCE__@@V?$CSimpleArrayEqualHelper@PAUHINSTANCE__@@@ATL@@@ATL@@QAEXXZ 10001456 f i atls:atlbase.obj
 0001:00000456       ?RemoveAll@?$CSimpleArray@GV?$CSimpleArrayEqualHelper@G@ATL@@@ATL@@QAEXXZ 10001456 f i OposVariant.obj
 0001:00000473       ?SetBSTR@OposVariant@@QAEXPA_WAAJ@Z 10001473 f   OposVariant.obj
 0001:000004a7       ?SetBSTR_Copy@OposVariant@@QAEXPA_WAAJ@Z 100014a7 f   OposVariant.obj
 0001:000004f7       ?SetBSTR_InOutPtr@OposVariant@@QAE_NPAPA_WAAJ@Z 100014f7 f   OposVariant.obj
 0001:0000052e       ?SetBSTR_OutPtr@OposVariant@@QAE_NPAPA_WAAJ@Z 1000152e f   OposVariant.obj
 0001:0000054a       ?SetDispatch_Ptr@OposVariant@@QAEXPAUIDispatch@@AAJ@Z 1000154a f   OposVariant.obj
 0001:00000585       ?SetLONG@OposVariant@@QAEXJ@Z 10001585 f   OposVariant.obj
 0001:000005a7       ?SetLONG_Ptr@OposVariant@@QAEXPAJAAJ@Z 100015a7 f   OposVariant.obj
 0001:000005da       ?SetString@OposVariant@@QAEXPB_WAAJ@Z 100015da f   OposVariant.obj
 0001:00000620       ?SetVARIANT_BOOL@OposVariant@@QAEXF@Z 10001620 f   OposVariant.obj
 0001:0000064a       ?SetVARIANT_BOOL_Ptr@OposVariant@@QAEXPAFAAJ@Z 1000164a f   OposVariant.obj
 0001:0000067d       ?Term@CAtlComModule@ATL@@QAEXXZ 1000167d f i OposVariant.obj
 0001:000006c7       ?_AtlRaiseException@ATL@@YAXKK@Z 100016c7 f i OposVariant.obj
 0001:000006dc       ?CreateInstance@CComClassFactory@ATL@@UAGJPAUIUnknown@@ABU_GUID@@PAPAX@Z 100016dc f i BillDispenser.obj
 0001:0000071a       ?LockServer@CComClassFactory@ATL@@UAGJH@Z 1000171a f i BillDispenser.obj
 0001:00000739       ??_ECComClassFactory@ATL@@UAEPAXI@Z 10001739 f i BillDispenser.obj
 0001:00000739       ??_GCComClassFactory@ATL@@UAEPAXI@Z 10001739 f i BillDispenser.obj
 0001:00000764       ?GetWindowProc@?$CWindowImplBaseT@VCWindow@ATL@@V?$CWinTraits@$0FGAAAAAA@$0A@@2@@ATL@@UAEP6GJPAUHWND__@@IIJ@ZXZ 10001764 f i BillDispenser.obj
 0001:0000076a       ?StartWindowProc@?$CWindowImplBaseT@VCWindow@ATL@@V?$CWinTraits@$0FGAAAAAA@$0A@@2@@ATL@@SGJPAUHWND__@@IIJ@Z 1000176a f i BillDispenser.obj
 0001:000007be       ?ObjectMain@CComObjectRootBase@ATL@@SGX_N@Z 100017be f i BillDispenser.obj
 0001:000007be       ?OnFinalMessage@?$CWindowImplBaseT@VCWindow@ATL@@V?$CWinTraits@$0FGAAAAAA@$0A@@2@@ATL@@UAEXPAUHWND__@@@Z 100017be f i BillDispenser.obj
 0001:000007c1       ?GetTypeInfoCount@?$IDispatchImpl@UIOPOSBillDispenser@@$1?IID_IOPOSBillDispenser@@3U_GUID@@B$1?LIBID_OposBillDispenser_CCO@@3U3@B$00$0A@VCComTypeInfoHolder@ATL@@@ATL@@UAGJPAI@Z 100017c1 f i BillDispenser.obj
 0001:000007de       ?GetTypeInfo@?$IDispatchImpl@UIOPOSBillDispenser@@$1?IID_IOPOSBillDispenser@@3U_GUID@@B$1?LIBID_OposBillDispenser_CCO@@3U3@B$00$0A@VCComTypeInfoHolder@ATL@@@ATL@@UAGJIKPAPAUITypeInfo@@@Z 100017de f i BillDispenser.obj
 0001:00000802       ?GetIDsOfNames@?$IDispatchImpl@UIOPOSBillDispenser@@$1?IID_IOPOSBillDispenser@@3U_GUID@@B$1?LIBID_OposBillDispenser_CCO@@3U3@B$00$0A@VCComTypeInfoHolder@ATL@@@ATL@@UAGJABU_GUID@@PAPA_WIKPAJ@Z 10001802 f i BillDispenser.obj
 0001:00000822       ?Invoke@?$IDispatchImpl@UIOPOSBillDispenser@@$1?IID_IOPOSBillDispenser@@3U_GUID@@B$1?LIBID_OposBillDispenser_CCO@@3U3@B$00$0A@VCComTypeInfoHolder@ATL@@@ATL@@UAGJJABU_GUID@@KGPAUtagDISPPARAMS@@PAUtagVARIANT@@PAUtagEXCEPINFO@@PAI@Z 10001822 f i BillDispenser.obj
 0001:00000830       ?CreateControlWindow@?$CComControl@VCOPOSBillDispenser@@V?$CWindowImpl@VCOPOSBillDispenser@@VCWindow@ATL@@V?$CWinTraits@$0FGAAAAAA@$0A@@3@@ATL@@@ATL@@UAEPAUHWND__@@PAU3@AAUtagRECT@@@Z 10001830 f i BillDispenser.obj
 0001:0000085f       ?ControlQueryInterface@?$CComControl@VCOPOSBillDispenser@@V?$CWindowImpl@VCOPOSBillDispenser@@VCWindow@ATL@@V?$CWinTraits@$0FGAAAAAA@$0A@@3@@ATL@@@ATL@@UAEJABU_GUID@@PAPAX@Z 1000185f f i BillDispenser.obj
 0001:0000087a       ?GetClassID@?$IPersistStreamInitImpl@VCOPOSBillDispenser@@@ATL@@UAGJPAU_GUID@@@Z 1000187a f i BillDispenser.obj
 0001:0000087a       ?GetUserClassID@?$IOleObjectImpl@VCOPOSBillDispenser@@@ATL@@UAGJPAU_GUID@@@Z 1000187a f i BillDispenser.obj
 0001:0000087a       ?GetClassID@?$IPersistStorageImpl@VCOPOSBillDispenser@@@ATL@@UAGJPAU_GUID@@@Z 1000187a f i BillDispenser.obj
 0001:0000089e       ?IsDirty@?$IPersistStreamInitImpl@VCOPOSBillDispenser@@@ATL@@UAGJXZ 1000189e f i BillDispenser.obj
 0001:000008bd       ?Load@?$IPersistStreamInitImpl@VCOPOSBillDispenser@@@ATL@@UAGJPAUIStream@@@Z 100018bd f i BillDispenser.obj
 0001:000008dc       ?Save@?$IPersistStreamInitImpl@VCOPOSBillDispenser@@@ATL@@UAGJPAUIStream@@H@Z 100018dc f i BillDispenser.obj
 0001:000008fe       ?GetSizeMax@?$IPersistStreamInitImpl@VCOPOSBillDispenser@@@ATL@@UAGJPAT_ULARGE_INTEGER@@@Z 100018fe f i BillDispenser.obj
 0001:00000add       ?InitNew@?$IPersistStreamInitImpl@VCOPOSBillDispenser@@@ATL@@UAGJXZ 10001add f i BillDispenser.obj
 0001:00000afa       ?OnMnemonic@?$IOleControlImpl@VCOPOSBillDispenser@@@ATL@@UAGJPAUtagMSG@@@Z 10001afa f i BillDispenser.obj
 0001:00000afa       ?SOOutputCompleteDummy@COPOSBillDispenser@@MAGJJ@Z 10001afa f i BillDispenser.obj
 0001:00000afa       ?SetColorScheme@?$IOleObjectImpl@VCOPOSBillDispenser@@@ATL@@UAGJPAUtagLOGPALETTE@@@Z 10001afa f i BillDispenser.obj
 0001:00000afa       ?Unfreeze@?$IViewObjectExImpl@VCOPOSBillDispenser@@@ATL@@UAGJK@Z 10001afa f i BillDispenser.obj
 0001:00000afa       ?SODataDummy@COPOSBillDispenser@@MAGJJ@Z 10001afa f i BillDispenser.obj
 0001:00000afa       ?GetControlInfo@?$IOleControlImpl@VCOPOSBillDispenser@@@ATL@@UAGJPAUtagCONTROLINFO@@@Z 10001afa f i BillDispenser.obj
 0001:00000afa       ?GetDropTarget@?$IOleInPlaceObjectWindowlessImpl@VCOPOSBillDispenser@@@ATL@@UAGJPAPAUIDropTarget@@@Z 10001afa f i BillDispenser.obj
 0001:00000afa       ?ContextSensitiveHelp@?$IOleInPlaceActiveObjectImpl@VCOPOSBillDispenser@@@ATL@@UAGJH@Z 10001afa f i BillDispenser.obj
 0001:00000afa       ?ContextSensitiveHelp@?$IOleInPlaceObjectWindowlessImpl@VCOPOSBillDispenser@@@ATL@@UAGJH@Z 10001afa f i BillDispenser.obj
 0001:00000afa       ?QueryGetData@?$IDataObjectImpl@VCOPOSBillDispenser@@@ATL@@UAGJPAUtagFORMATETC@@@Z 10001afa f i BillDispenser.obj
 0001:00000b02       ?OnAmbientPropertyChange@?$IOleControlImpl@VCOPOSBillDispenser@@@ATL@@UAGJJ@Z 10001b02 f i BillDispenser.obj
 0001:00000b02       ?SaveCompleted@?$IPersistStorageImpl@VCOPOSBillDispenser@@@ATL@@UAGJPAUIStorage@@@Z 10001b02 f i BillDispenser.obj
 0001:00000b02       ?OnFrameWindowActivate@?$IOleInPlaceActiveObjectImpl@VCOPOSBillDispenser@@@ATL@@UAGJH@Z 10001b02 f i BillDispenser.obj
 0001:00000b02       ?EnableModeless@?$IOleInPlaceActiveObjectImpl@VCOPOSBillDispenser@@@ATL@@UAGJH@Z 10001b02 f i BillDispenser.obj
 0001:00000b07       ?SetClientSite@?$IOleObjectImpl@VCOPOSBillDispenser@@@ATL@@UAGJPAUIOleClientSite@@@Z 10001b07 f i BillDispenser.obj
 0001:00000b24       ?GetClientSite@?$IOleObjectImpl@VCOPOSBillDispenser@@@ATL@@UAGJPAPAUIOleClientSite@@@Z 10001b24 f i BillDispenser.obj
 0001:00000b41       ?SetHostNames@?$IOleObjectImpl@VCOPOSBillDispenser@@@ATL@@UAGJPB_W0@Z 10001b41 f i BillDispenser.obj
 0001:00000b46       ?Close@?$IOleObjectImpl@VCOPOSBillDispenser@@@ATL@@UAGJK@Z 10001b46 f i BillDispenser.obj
 0001:00000b63       ?SetMoniker@?$IOleObjectImpl@VCOPOSBillDispenser@@@ATL@@UAGJKPAUIMoniker@@@Z 10001b63 f i BillDispenser.obj
 0001:00000b63       ?GetDataHere@?$IDataObjectImpl@VCOPOSBillDispenser@@@ATL@@UAGJPAUtagFORMATETC@@PAUtagSTGMEDIUM@@@Z 10001b63 f i BillDispenser.obj
 0001:00000b63       ?GetRect@?$IViewObjectExImpl@VCOPOSBillDispenser@@@ATL@@UAGJKPAU_RECTL@@@Z 10001b63 f i BillDispenser.obj
 0001:00000b63       ?GetCanonicalFormatEtc@?$IDataObjectImpl@VCOPOSBillDispenser@@@ATL@@UAGJPAUtagFORMATETC@@0@Z 10001b63 f i BillDispenser.obj
 0001:00000b63       ?GetClipboardData@?$IOleObjectImpl@VCOPOSBillDispenser@@@ATL@@UAGJKPAPAUIDataObject@@@Z 10001b63 f i BillDispenser.obj
 0001:00000b63       ?EnumFormatEtc@?$IDataObjectImpl@VCOPOSBillDispenser@@@ATL@@UAGJKPAPAUIEnumFORMATETC@@@Z 10001b63 f i BillDispenser.obj
 0001:00000b63       ?QueryInterface@CRegObject@ATL@@UAGJABU_GUID@@PAPAX@Z 10001b63 f i BillDispenser.obj
 0001:00000b6b       ?SetData@?$IDataObjectImpl@VCOPOSBillDispenser@@@ATL@@UAGJPAUtagFORMATETC@@PAUtagSTGMEDIUM@@H@Z 10001b6b f i BillDispenser.obj
 0001:00000b6b       ?GetMoniker@?$IOleObjectImpl@VCOPOSBillDispenser@@@ATL@@UAGJKKPAPAUIMoniker@@@Z 10001b6b f i BillDispenser.obj
 0001:00000b6b       ?InitFromData@?$IOleObjectImpl@VCOPOSBillDispenser@@@ATL@@UAGJPAUIDataObject@@HK@Z 10001b6b f i BillDispenser.obj
 0001:00000b73       ?DoVerb@?$IOleObjectImpl@VCOPOSBillDispenser@@@ATL@@UAGJJPAUtagMSG@@PAUIOleClientSite@@JPAUHWND__@@PBUtagRECT@@@Z 10001b73 f i BillDispenser.obj
 0001:00000c67       ?EnumVerbs@?$IOleObjectImpl@VCOPOSBillDispenser@@@ATL@@UAGJPAPAUIEnumOLEVERB@@@Z 10001c67 f i BillDispenser.obj
 0001:00000c89       ?Update@?$IOleObjectImpl@VCOPOSBillDispenser@@@ATL@@UAGJXZ 10001c89 f i BillDispenser.obj
 0001:00000c89       ?Release@CRegObject@ATL@@UAGKXZ 10001c89 f i BillDispenser.obj
 0001:00000c89       ?IsUpToDate@?$IOleObjectImpl@VCOPOSBillDispenser@@@ATL@@UAGJXZ 10001c89 f i BillDispenser.obj
 0001:00000c89       ?HandsOffStorage@?$IPersistStorageImpl@VCOPOSBillDispenser@@@ATL@@UAGJXZ 10001c89 f i BillDispenser.obj
 0001:00000c8e       ?GetUserType@?$IOleObjectImpl@VCOPOSBillDispenser@@@ATL@@UAGJKPAPA_W@Z 10001c8e f i BillDispenser.obj
 0001:00000ca6       ?SetExtent@?$IOleObjectImpl@VCOPOSBillDispenser@@@ATL@@UAGJKPAUtagSIZE@@@Z 10001ca6 f i BillDispenser.obj
 0001:00000cc6       ?GetExtent@?$IOleObjectImpl@VCOPOSBillDispenser@@@ATL@@UAGJKPAUtagSIZE@@@Z 10001cc6 f i BillDispenser.obj
 0001:00000d04       ?Advise@?$IOleObjectImpl@VCOPOSBillDispenser@@@ATL@@UAGJPAUIAdviseSink@@PAK@Z 10001d04 f i BillDispenser.obj
 0001:00000d24       ?Unadvise@?$IOleObjectImpl@VCOPOSBillDispenser@@@ATL@@UAGJK@Z 10001d24 f i BillDispenser.obj
 0001:00000d53       ?EnumAdvise@?$IOleObjectImpl@VCOPOSBillDispenser@@@ATL@@UAGJPAPAUIEnumSTATDATA@@@Z 10001d53 f i BillDispenser.obj
 0001:00000d93       ?GetMiscStatus@?$IOleObjectImpl@VCOPOSBillDispenser@@@ATL@@UAGJKPAK@Z 10001d93 f i BillDispenser.obj
 0001:00000dab       ?GetWindow@?$IOleInPlaceActiveObjectImpl@VCOPOSBillDispenser@@@ATL@@UAGJPAPAUHWND__@@@Z 10001dab f i BillDispenser.obj
 0001:00000df8       ?TranslateAcceleratorW@?$IOleInPlaceActiveObjectImpl@VCOPOSBillDispenser@@@ATL@@UAGJPAUtagMSG@@@Z 10001df8 f i BillDispenser.obj
 0001:00000ea6       ?OnDocWindowActivate@?$IOleInPlaceActiveObjectImpl@VCOPOSBillDispenser@@@ATL@@UAGJH@Z 10001ea6 f i BillDispenser.obj
 0001:00000ec8       ?ResizeBorder@?$IOleInPlaceActiveObjectImpl@VCOPOSBillDispenser@@@ATL@@UAGJPBUtagRECT@@PAUIOleInPlaceUIWindow@@H@Z 10001ec8 f i BillDispenser.obj
 0001:00000ecd       ?Draw@?$IViewObjectExImpl@VCOPOSBillDispenser@@@ATL@@UAGJKJPAXPAUtagDVTARGETDEVICE@@PAUHDC__@@2PBU_RECTL@@3P6GHK@ZK@Z 10001ecd f i BillDispenser.obj
 0001:00000eff       ?GetColorSet@?$IViewObjectExImpl@VCOPOSBillDispenser@@@ATL@@UAGJKJPAXPAUtagDVTARGETDEVICE@@PAUHDC__@@PAPAUtagLOGPALETTE@@@Z 10001eff f i BillDispenser.obj
 0001:00000f07       ?Freeze@?$IViewObjectExImpl@VCOPOSBillDispenser@@@ATL@@UAGJKJPAXPAK@Z 10001f07 f i BillDispenser.obj
 0001:00000f07       ?SOErrorDummy@COPOSBillDispenser@@MAGJJJJPAJ@Z 10001f07 f i BillDispenser.obj
 0001:00000f0f       ?SetAdvise@?$IViewObjectExImpl@VCOPOSBillDispenser@@@ATL@@UAGJKKPAUIAdviseSink@@@Z 10001f0f f i BillDispenser.obj
 0001:00000f2e       ?GetAdvise@?$IViewObjectExImpl@VCOPOSBillDispenser@@@ATL@@UAGJPAK0PAPAUIAdviseSink@@@Z 10001f2e f i BillDispenser.obj
 0001:00000f63       ?GetExtent@?$IViewObjectExImpl@VCOPOSBillDispenser@@@ATL@@UAGJKJPAUtagDVTARGETDEVICE@@PAUtagSIZE@@@Z 10001f63 f i BillDispenser.obj
 0001:00000f94       ?GetViewStatus@?$IViewObjectExImpl@VCOPOSBillDispenser@@@ATL@@UAGJPAK@Z 10001f94 f i BillDispenser.obj
 0001:00000fb1       ?QueryHitPoint@?$IViewObjectExImpl@VCOPOSBillDispenser@@@ATL@@UAGJKPBUtagRECT@@UtagPOINT@@JPAK@Z 10001fb1 f i BillDispenser.obj
 0001:00000ff2       ?QueryHitRect@?$IViewObjectExImpl@VCOPOSBillDispenser@@@ATL@@UAGJKPBUtagRECT@@0JPAK@Z 10001ff2 f i BillDispenser.obj
 0001:0000104d       ?GetNaturalExtent@?$IViewObjectExImpl@VCOPOSBillDispenser@@@ATL@@UAGJKJPAUtagDVTARGETDEVICE@@PAUHDC__@@PAUtagExtentInfo@@PAUtagSIZE@@@Z 1000204d f i BillDispenser.obj
 0001:00001098       ?GetWindow@?$IOleInPlaceObjectWindowlessImpl@VCOPOSBillDispenser@@@ATL@@UAGJPAPAUHWND__@@@Z 10002098 f i BillDispenser.obj
 0001:000010e5       ?InPlaceDeactivate@?$IOleInPlaceObjectWindowlessImpl@VCOPOSBillDispenser@@@ATL@@UAGJXZ 100020e5 f i BillDispenser.obj
 0001:000010ff       ?UIDeactivate@?$IOleInPlaceObjectWindowlessImpl@VCOPOSBillDispenser@@@ATL@@UAGJXZ 100020ff f i BillDispenser.obj
 0001:00001119       ?SetObjectRects@?$IOleInPlaceObjectWindowlessImpl@VCOPOSBillDispenser@@@ATL@@UAGJPBUtagRECT@@0@Z 10002119 f i BillDispenser.obj
 0001:00001139       ?ReactivateAndUndo@?$IOleInPlaceObjectWindowlessImpl@VCOPOSBillDispenser@@@ATL@@UAGJXZ 10002139 f i BillDispenser.obj
 0001:00001141       ?OnWindowMessage@?$IOleInPlaceObjectWindowlessImpl@VCOPOSBillDispenser@@@ATL@@UAGJIIJPAJ@Z 10002141 f i BillDispenser.obj
 0001:000011b1       ?EnumConnectionPoints@?$IConnectionPointContainerImpl@VCOPOSBillDispenser@@@ATL@@UAGJPAPAUIEnumConnectionPoints@@@Z 100021b1 f i BillDispenser.obj
 0001:0000133d       ?FindConnectionPoint@?$IConnectionPointContainerImpl@VCOPOSBillDispenser@@@ATL@@UAGJABU_GUID@@PAPAUIConnectionPoint@@@Z 1000233d f i BillDispenser.obj
 0001:000013e0       ?IsDirty@?$IPersistStorageImpl@VCOPOSBillDispenser@@@ATL@@UAGJXZ 100023e0 f i BillDispenser.obj
 0001:00001410       ?InitNew@?$IPersistStorageImpl@VCOPOSBillDispenser@@@ATL@@UAGJPAUIStorage@@@Z 10002410 f i BillDispenser.obj
 0001:00001440       ?Load@?$IPersistStorageImpl@VCOPOSBillDispenser@@@ATL@@UAGJPAUIStorage@@@Z 10002440 f i BillDispenser.obj
 0001:000014ac       ?Save@?$IPersistStorageImpl@VCOPOSBillDispenser@@@ATL@@UAGJPAUIStorage@@H@Z 100024ac f i BillDispenser.obj
 0001:0000151f       ?GetPages@?$ISpecifyPropertyPagesImpl@VCOPOSBillDispenser@@@ATL@@UAGJPAUtagCAUUID@@@Z 1000251f f i BillDispenser.obj
 0001:00001536       ?QuickActivate@?$IQuickActivateImpl@VCOPOSBillDispenser@@@ATL@@UAGJPAUtagQACONTAINER@@PAUtagQACONTROL@@@Z 10002536 f i BillDispenser.obj
 0001:00001559       ?SetContentExtent@?$IQuickActivateImpl@VCOPOSBillDispenser@@@ATL@@UAGJPAUtagSIZE@@@Z 10002559 f i BillDispenser.obj
 0001:00001585       ?GetContentExtent@?$IQuickActivateImpl@VCOPOSBillDispenser@@@ATL@@UAGJPAUtagSIZE@@@Z 10002585 f i BillDispenser.obj
 0001:000015bf       ?GetData@?$IDataObjectImpl@VCOPOSBillDispenser@@@ATL@@UAGJPAUtagFORMATETC@@PAUtagSTGMEDIUM@@@Z 100025bf f i BillDispenser.obj
 0001:000015e2       ?DAdvise@?$IDataObjectImpl@VCOPOSBillDispenser@@@ATL@@UAGJPAUtagFORMATETC@@KPAUIAdviseSink@@PAK@Z 100025e2 f i BillDispenser.obj
 0001:00001623       ?DUnadvise@?$IDataObjectImpl@VCOPOSBillDispenser@@@ATL@@UAGJK@Z 10002623 f i BillDispenser.obj
 0001:00001651       ?EnumDAdvise@?$IDataObjectImpl@VCOPOSBillDispenser@@@ATL@@UAGJPAPAUIEnumSTATDATA@@@Z 10002651 f i BillDispenser.obj
 0001:00001690       ?GetClassInfoW@?$IProvideClassInfo2Impl@$1?CLSID_OPOSBillDispenser@@3U_GUID@@B$1?DIID__IOPOSBillDispenserEvents@@3U2@B$1?LIBID_OposBillDispenser_CCO@@3U2@B$00$0A@VCComTypeInfoHolder@ATL@@@ATL@@UAGJPAPAUITypeInfo@@@Z 10002690 f i BillDispenser.obj
 0001:000016a6       ?GetGUID@?$IProvideClassInfo2Impl@$1?CLSID_OPOSBillDispenser@@3U_GUID@@B$1?DIID__IOPOSBillDispenserEvents@@3U2@B$1?LIBID_OposBillDispenser_CCO@@3U2@B$00$0A@VCComTypeInfoHolder@ATL@@@ATL@@UAGJKPAU_GUID@@@Z 100026a6 f i BillDispenser.obj
 0001:000016e4       __get_startup_argv_mode    100026e4 f i LIBCMT:argv_mode.obj
 0001:000016e4       ?FAccessAllowed@?$IObjectSafetyImpl@VCOPOSBillDispenser@@$02@ATL@@MAEHXZ 100026e4 f i BillDispenser.obj
 0001:000016e8       ?GetInterfaceSafetyOptions@?$IObjectSafetyImpl@VCOPOSBillDispenser@@$02@ATL@@UAGJABU_GUID@@PAK1@Z 100026e8 f i BillDispenser.obj
 0001:0000175c       ?SetInterfaceSafetyOptions@?$IObjectSafetyImpl@VCOPOSBillDispenser@@$02@ATL@@UAGJABU_GUID@@KK@Z 1000275c f i BillDispenser.obj
 0001:000017d6       ?_LocCPQueryInterface@?$IConnectionPointImpl@VCOPOSBillDispenser@@$1?IID_IPropertyNotifySink@@3U_GUID@@BVCComDynamicUnkArray@ATL@@@ATL@@UAGJABU_GUID@@PAPAX@Z 100027d6 f i BillDispenser.obj
 0001:000017d6       ?_LocCPQueryInterface@?$IConnectionPointImpl@VCOPOSBillDispenser@@$1?DIID__IOPOSBillDispenserEvents@@3U_GUID@@BVCComDynamicUnkArray@ATL@@@ATL@@UAGJABU_GUID@@PAPAX@Z 100027d6 f i BillDispenser.obj
 0001:00001823       ?GetConnectionInterface@?$IConnectionPointImpl@VCOPOSBillDispenser@@$1?IID_IPropertyNotifySink@@3U_GUID@@BVCComDynamicUnkArray@ATL@@@ATL@@UAGJPAU_GUID@@@Z 10002823 f i BillDispenser.obj
 0001:00001847       ?GetConnectionPointContainer@?$IConnectionPointImpl@VCOPOSBillDispenser@@$1?IID_IPropertyNotifySink@@3U_GUID@@BVCComDynamicUnkArray@ATL@@@ATL@@UAGJPAPAUIConnectionPointContainer@@@Z 10002847 f i BillDispenser.obj
 0001:0000186a       ?Advise@?$IConnectionPointImpl@VCOPOSBillDispenser@@$1?IID_IPropertyNotifySink@@3U_GUID@@BVCComDynamicUnkArray@ATL@@@ATL@@UAGJPAUIUnknown@@PAK@Z 1000286a f i BillDispenser.obj
 0001:0000186a       ?Advise@?$IConnectionPointImpl@VCOPOSBillDispenser@@$1?DIID__IOPOSBillDispenserEvents@@3U_GUID@@BVCComDynamicUnkArray@ATL@@@ATL@@UAGJPAUIUnknown@@PAK@Z 1000286a f i BillDispenser.obj
 0001:0000190a       ?Unadvise@?$IConnectionPointImpl@VCOPOSBillDispenser@@$1?DIID__IOPOSBillDispenserEvents@@3U_GUID@@BVCComDynamicUnkArray@ATL@@@ATL@@UAGJK@Z 1000290a f i BillDispenser.obj
 0001:0000190a       ?Unadvise@?$IConnectionPointImpl@VCOPOSBillDispenser@@$1?IID_IPropertyNotifySink@@3U_GUID@@BVCComDynamicUnkArray@ATL@@@ATL@@UAGJK@Z 1000290a f i BillDispenser.obj
 0001:0000194a       ?EnumConnections@?$IConnectionPointImpl@VCOPOSBillDispenser@@$1?IID_IPropertyNotifySink@@3U_GUID@@BVCComDynamicUnkArray@ATL@@@ATL@@UAGJPAPAUIEnumConnections@@@Z 1000294a f i BillDispenser.obj
 0001:0000194a       ?EnumConnections@?$IConnectionPointImpl@VCOPOSBillDispenser@@$1?DIID__IOPOSBillDispenserEvents@@3U_GUID@@BVCComDynamicUnkArray@ATL@@@ATL@@UAGJPAPAUIEnumConnections@@@Z 1000294a f i BillDispenser.obj
 0001:00001a45       ?GetCategoryMap@CComObjectRootBase@ATL@@SAPBU_ATL_CATMAP_ENTRY@2@XZ 10002a45 f i BillDispenser.obj
 0001:00001a45       ?GetObjectDescription@?$CComCoClass@VCOPOSBillDispenser@@$1?CLSID_OPOSBillDispenser@@3U_GUID@@B@ATL@@SGPB_WXZ 10002a45 f i BillDispenser.obj
 0001:00001a48       ?GetConnectionInterface@?$IConnectionPointImpl@VCOPOSBillDispenser@@$1?DIID__IOPOSBillDispenserEvents@@3U_GUID@@BVCComDynamicUnkArray@ATL@@@ATL@@UAGJPAU_GUID@@@Z 10002a48 f i BillDispenser.obj
 0001:00001a6c       ?GetConnectionPointContainer@?$IConnectionPointImpl@VCOPOSBillDispenser@@$1?DIID__IOPOSBillDispenserEvents@@3U_GUID@@BVCComDynamicUnkArray@ATL@@@ATL@@UAGJPAPAUIConnectionPointContainer@@@Z 10002a6c f i BillDispenser.obj
 0001:00001a8f       ?UpdateRegistry@COPOSBillDispenser@@SGJH@Z 10002a8f f i BillDispenser.obj
 0001:00001aa7       ?ProcessWindowMessage@COPOSBillDispenser@@UAEHPAUHWND__@@IIJAAJK@Z 10002aa7 f i BillDispenser.obj
 0001:00001af0       ?SODirectIO@COPOSBillDispenser@@MAGJJPAJPAPA_W@Z 10002af0 f i BillDispenser.obj
 0001:00001b39       ?SOStatusUpdate@COPOSBillDispenser@@MAGJJ@Z 10002b39 f i BillDispenser.obj
 0001:00001b72       ?Lock@CAtlModule@ATL@@UAEJXZ 10002b72 f i BillDispenser.obj
 0001:00001b7c       ?Unlock@CAtlModule@ATL@@UAEJXZ 10002b7c f i BillDispenser.obj
 0001:00001b86       ?GetLockCount@CAtlModule@ATL@@UAEJXZ 10002b86 f i BillDispenser.obj
 0001:00001b8a       ?GetGITPtr@CAtlModule@ATL@@UAEJPAPAUIGlobalInterfaceTable@@@Z 10002b8a f i BillDispenser.obj
 0001:00001bd6       ?AddCommonRGSReplacements@?$CAtlModuleT@VCComModule@ATL@@@ATL@@UAEJPAUIRegistrarBase@@@Z 10002bd6 f i BillDispenser.obj
 0001:00001bf0       ?UpdateRegistryFromResourceD@CComModule@ATL@@UAGJPB_WHPAU_ATL_REGMAP_ENTRY@2@@Z 10002bf0 f i BillDispenser.obj
 0001:00001bf0       ?UpdateRegistryFromResourceD@CComModule@ATL@@UAGJIHPAU_ATL_REGMAP_ENTRY@2@@Z 10002bf0 f i BillDispenser.obj
 0001:00001bf8       ?UpdateRegistryFromResource@CComModule@ATL@@UAGJPB_WHPAU_ATL_REGMAP_ENTRY@2@@Z 10002bf8 f i BillDispenser.obj
 0001:00001c01       ?UpdateRegistryFromResource@CComModule@ATL@@UAGJIHPAU_ATL_REGMAP_ENTRY@2@@Z 10002c01 f i BillDispenser.obj
 0001:00001c0a       ?CreateInstance@?$CComCreator@V?$CComObjectCached@VCComClassFactory@ATL@@@ATL@@@ATL@@SGJPAXABU_GUID@@PAPAX@Z 10002c0a f i BillDispenser.obj
 0001:00001caa       ?CreateInstance@?$CComCreator2@V?$CComCreator@V?$CComObject@VCOPOSBillDispenser@@@ATL@@@ATL@@V?$CComCreator@V?$CComAggObject@VCOPOSBillDispenser@@@ATL@@@2@@ATL@@SGJPAXABU_GUID@@PAPAX@Z 10002caa f i BillDispenser.obj
 0001:00001cca       ??_GCComModule@ATL@@UAEPAXI@Z 10002cca f i BillDispenser.obj
 0001:00001cca       ??_ECComModule@ATL@@UAEPAXI@Z 10002cca f i BillDispenser.obj
 0001:00001cf2       ?AddRef@?$CComObjectCached@VCComClassFactory@ATL@@@ATL@@UAGKXZ 10002cf2 f i BillDispenser.obj
 0001:00001d19       ?Release@?$CComObjectCached@VCComClassFactory@ATL@@@ATL@@UAGKXZ 10002d19 f i BillDispenser.obj
 0001:00001d4f       ?QueryInterface@?$CComObjectCached@VCComClassFactory@ATL@@@ATL@@UAGJABU_GUID@@PAPAX@Z 10002d4f f i BillDispenser.obj
 0001:00001d69       ??_G?$CComObjectCached@VCComClassFactory@ATL@@@ATL@@UAEPAXI@Z 10002d69 f i BillDispenser.obj
 0001:00001d69       ??_E?$CComObjectCached@VCComClassFactory@ATL@@@ATL@@UAEPAXI@Z 10002d69 f i BillDispenser.obj
 0001:00001d8b       ?Next@?$CComEnumImpl@UIEnumConnectionPoints@@$1?_GUID_b196b285_bab4_101a_b69c_00aa00341d07@@3U__s_GUID@@BPAUIConnectionPoint@@V?$_CopyInterface@UIConnectionPoint@@@ATL@@@ATL@@UAGJKPAPAUIConnectionPoint@@PAK@Z 10002d8b f i BillDispenser.obj
 0001:00001e62       ?Skip@?$CComEnumImpl@UIEnumConnectionPoints@@$1?_GUID_b196b285_bab4_101a_b69c_00aa00341d07@@3U__s_GUID@@BPAUIConnectionPoint@@V?$_CopyInterface@UIConnectionPoint@@@ATL@@@ATL@@UAGJK@Z 10002e62 f i BillDispenser.obj
 0001:00001e8f       ?Reset@?$CComEnumImpl@UIEnumConnectionPoints@@$1?_GUID_b196b285_bab4_101a_b69c_00aa00341d07@@3U__s_GUID@@BPAUIConnectionPoint@@V?$_CopyInterface@UIConnectionPoint@@@ATL@@@ATL@@UAGJXZ 10002e8f f i BillDispenser.obj
 0001:00001e8f       ?Reset@?$CComEnumImpl@UIEnumConnections@@$1?_GUID_b196b287_bab4_101a_b69c_00aa00341d07@@3U__s_GUID@@BUtagCONNECTDATA@@V?$_Copy@UtagCONNECTDATA@@@ATL@@@ATL@@UAGJXZ 10002e8f f i BillDispenser.obj
 0001:00001ea1       ?Clone@?$CComEnumImpl@UIEnumConnectionPoints@@$1?_GUID_b196b285_bab4_101a_b69c_00aa00341d07@@3U__s_GUID@@BPAUIConnectionPoint@@V?$_CopyInterface@UIConnectionPoint@@@ATL@@@ATL@@UAGJPAPAUIEnumConnectionPoints@@@Z 10002ea1 f i BillDispenser.obj
 0001:00001f82       ?AddRef@?$CComObject@V?$CComEnum@UIEnumConnections@@$1?_GUID_b196b287_bab4_101a_b69c_00aa00341d07@@3U__s_GUID@@BUtagCONNECTDATA@@V?$_Copy@UtagCONNECTDATA@@@ATL@@VCComSingleThreadModel@6@@ATL@@@ATL@@UAGKXZ 10002f82 f i BillDispenser.obj
 0001:00001f82       ?AddRef@?$CComObject@V?$CComEnum@UIEnumConnectionPoints@@$1?_GUID_b196b285_bab4_101a_b69c_00aa00341d07@@3U__s_GUID@@BPAUIConnectionPoint@@V?$_CopyInterface@UIConnectionPoint@@@ATL@@VCComSingleThreadModel@6@@ATL@@@ATL@@UAGKXZ 10002f82 f i BillDispenser.obj
 0001:00001f93       ?Release@?$CComObject@V?$CComEnum@UIEnumConnections@@$1?_GUID_b196b287_bab4_101a_b69c_00aa00341d07@@3U__s_GUID@@BUtagCONNECTDATA@@V?$_Copy@UtagCONNECTDATA@@@ATL@@VCComSingleThreadModel@6@@ATL@@@ATL@@UAGKXZ 10002f93 f i BillDispenser.obj
 0001:00001f93       ?Release@?$CComObject@V?$CComEnum@UIEnumConnectionPoints@@$1?_GUID_b196b285_bab4_101a_b69c_00aa00341d07@@3U__s_GUID@@BPAUIConnectionPoint@@V?$_CopyInterface@UIConnectionPoint@@@ATL@@VCComSingleThreadModel@6@@ATL@@@ATL@@UAGKXZ 10002f93 f i BillDispenser.obj
 0001:00001fcf       ?QueryInterface@?$CComObject@V?$CComEnum@UIEnumConnectionPoints@@$1?_GUID_b196b285_bab4_101a_b69c_00aa00341d07@@3U__s_GUID@@BPAUIConnectionPoint@@V?$_CopyInterface@UIConnectionPoint@@@ATL@@VCComSingleThreadModel@6@@ATL@@@ATL@@UAGJABU_GUID@@PAPAX@Z 10002fcf f i BillDispenser.obj
 0001:00001fe9       ??_E?$CComObject@V?$CComEnum@UIEnumConnectionPoints@@$1?_GUID_b196b285_bab4_101a_b69c_00aa00341d07@@3U__s_GUID@@BPAUIConnectionPoint@@V?$_CopyInterface@UIConnectionPoint@@@ATL@@VCComSingleThreadModel@6@@ATL@@@ATL@@UAEPAXI@Z 10002fe9 f i BillDispenser.obj
 0001:00001fe9       ??_G?$CComObject@V?$CComEnum@UIEnumConnectionPoints@@$1?_GUID_b196b285_bab4_101a_b69c_00aa00341d07@@3U__s_GUID@@BPAUIConnectionPoint@@V?$_CopyInterface@UIConnectionPoint@@@ATL@@VCComSingleThreadModel@6@@ATL@@@ATL@@UAEPAXI@Z 10002fe9 f i BillDispenser.obj
 0001:0000200b       ?AddRef@CRegObject@ATL@@UAGKXZ 1000300b f i BillDispenser.obj
 0001:00002011       ?AddReplacement@CRegObject@ATL@@UAGJPB_W0@Z 10003011 f i BillDispenser.obj
 0001:0000204a       ?ClearReplacements@CRegObject@ATL@@UAGJXZ 1000304a f i BillDispenser.obj
 0001:0000205c       ??_GCRegObject@ATL@@UAEPAXI@Z 1000305c f i BillDispenser.obj
 0001:0000205c       ??_ECRegObject@ATL@@UAEPAXI@Z 1000305c f i BillDispenser.obj
 0001:0000207e       ?AddRef@?$CComAggObject@VCOPOSBillDispenser@@@ATL@@UAGKXZ 1000307e f i BillDispenser.obj
 0001:0000208f       ?Release@?$CComAggObject@VCOPOSBillDispenser@@@ATL@@UAGKXZ 1000308f f i BillDispenser.obj
 0001:000020cb       ?QueryInterface@?$CComAggObject@VCOPOSBillDispenser@@@ATL@@UAGJABU_GUID@@PAPAX@Z 100030cb f i BillDispenser.obj
 0001:0000211a       ?AddRef@?$CComContainedObject@VCOPOSBillDispenser@@@ATL@@UAGKXZ 1000311a f i BillDispenser.obj
 0001:00002130       ?Release@?$CComContainedObject@VCOPOSBillDispenser@@@ATL@@UAGKXZ 10003130 f i BillDispenser.obj
 0001:00002146       ?QueryInterface@?$CComContainedObject@VCOPOSBillDispenser@@@ATL@@UAGJABU_GUID@@PAPAX@Z 10003146 f i BillDispenser.obj
 0001:00002161       ??_G?$CComAggObject@VCOPOSBillDispenser@@@ATL@@UAEPAXI@Z 10003161 f i BillDispenser.obj
 0001:00002161       ??_E?$CComAggObject@VCOPOSBillDispenser@@@ATL@@UAEPAXI@Z 10003161 f i BillDispenser.obj
 0001:00002186       ?AddRef@?$CComObject@VCOPOSBillDispenser@@@ATL@@UAGKXZ 10003186 f i BillDispenser.obj
 0001:0000219d       ?Release@?$CComObject@VCOPOSBillDispenser@@@ATL@@UAGKXZ 1000319d f i BillDispenser.obj
 0001:000021df       ?QueryInterface@?$CComObject@VCOPOSBillDispenser@@@ATL@@UAGJABU_GUID@@PAPAX@Z 100031df f i BillDispenser.obj
 0001:000021f9       ?OnDrawAdvanced@CComControlBase@ATL@@UAEJAAUATL_DRAWINFO@@@Z 100031f9 f i BillDispenser.obj
 0001:000022ec       ?Next@?$CComEnumImpl@UIEnumConnections@@$1?_GUID_b196b287_bab4_101a_b69c_00aa00341d07@@3U__s_GUID@@BUtagCONNECTDATA@@V?$_Copy@UtagCONNECTDATA@@@ATL@@@ATL@@UAGJKPAUtagCONNECTDATA@@PAK@Z 100032ec f i BillDispenser.obj
 0001:000023c3       ?Skip@?$CComEnumImpl@UIEnumConnections@@$1?_GUID_b196b287_bab4_101a_b69c_00aa00341d07@@3U__s_GUID@@BUtagCONNECTDATA@@V?$_Copy@UtagCONNECTDATA@@@ATL@@@ATL@@UAGJK@Z 100033c3 f i BillDispenser.obj
 0001:000023f0       ?Clone@?$CComEnumImpl@UIEnumConnections@@$1?_GUID_b196b287_bab4_101a_b69c_00aa00341d07@@3U__s_GUID@@BUtagCONNECTDATA@@V?$_Copy@UtagCONNECTDATA@@@ATL@@@ATL@@UAGJPAPAUIEnumConnections@@@Z 100033f0 f i BillDispenser.obj
 0001:000024d1       ?QueryInterface@?$CComObject@V?$CComEnum@UIEnumConnections@@$1?_GUID_b196b287_bab4_101a_b69c_00aa00341d07@@3U__s_GUID@@BUtagCONNECTDATA@@V?$_Copy@UtagCONNECTDATA@@@ATL@@VCComSingleThreadModel@6@@ATL@@@ATL@@UAGJABU_GUID@@PAPAX@Z 100034d1 f i BillDispenser.obj
 0001:000024eb       ??_G?$CComObject@V?$CComEnum@UIEnumConnections@@$1?_GUID_b196b287_bab4_101a_b69c_00aa00341d07@@3U__s_GUID@@BUtagCONNECTDATA@@V?$_Copy@UtagCONNECTDATA@@@ATL@@VCComSingleThreadModel@6@@ATL@@@ATL@@UAEPAXI@Z 100034eb f i BillDispenser.obj
 0001:000024eb       ??_E?$CComObject@V?$CComEnum@UIEnumConnections@@$1?_GUID_b196b287_bab4_101a_b69c_00aa00341d07@@3U__s_GUID@@BUtagCONNECTDATA@@V?$_Copy@UtagCONNECTDATA@@@ATL@@VCComSingleThreadModel@6@@ATL@@@ATL@@UAEPAXI@Z 100034eb f i BillDispenser.obj
 0001:0000250d       ??_E?$CComObject@VCOPOSBillDispenser@@@ATL@@W3AEPAXI@Z 1000350d f i BillDispenser.obj
 0001:00002515       ??_E?$CComObject@VCOPOSBillDispenser@@@ATL@@WEM@AEPAXI@Z 10003515 f i BillDispenser.obj
 0001:0000251d       ?QueryInterface@?$CComObject@VCOPOSBillDispenser@@@ATL@@WHA@AGJABU_GUID@@PAPAX@Z 1000351d f i BillDispenser.obj
 0001:00002527       ?AddRef@?$CComObject@VCOPOSBillDispenser@@@ATL@@WHA@AGKXZ 10003527 f i BillDispenser.obj
 0001:00002531       ?Release@?$CComObject@VCOPOSBillDispenser@@@ATL@@WHA@AGKXZ 10003531 f i BillDispenser.obj
 0001:0000253b       ?QueryInterface@?$CComObject@VCOPOSBillDispenser@@@ATL@@WHE@AGJABU_GUID@@PAPAX@Z 1000353b f i BillDispenser.obj
 0001:00002545       ?AddRef@?$CComObject@VCOPOSBillDispenser@@@ATL@@WHE@AGKXZ 10003545 f i BillDispenser.obj
 0001:0000254f       ?Release@?$CComObject@VCOPOSBillDispenser@@@ATL@@WHE@AGKXZ 1000354f f i BillDispenser.obj
 0001:00002559       ?QueryInterface@?$CComObject@VCOPOSBillDispenser@@@ATL@@WHI@AGJABU_GUID@@PAPAX@Z 10003559 f i BillDispenser.obj
 0001:00002563       ?AddRef@?$CComObject@VCOPOSBillDispenser@@@ATL@@WHI@AGKXZ 10003563 f i BillDispenser.obj
 0001:0000256d       ?Release@?$CComObject@VCOPOSBillDispenser@@@ATL@@WHI@AGKXZ 1000356d f i BillDispenser.obj
 0001:00002577       ?QueryInterface@?$CComObject@VCOPOSBillDispenser@@@ATL@@WHM@AGJABU_GUID@@PAPAX@Z 10003577 f i BillDispenser.obj
 0001:00002581       ?AddRef@?$CComObject@VCOPOSBillDispenser@@@ATL@@WHM@AGKXZ 10003581 f i BillDispenser.obj
 0001:0000258b       ?Release@?$CComObject@VCOPOSBillDispenser@@@ATL@@WHM@AGKXZ 1000358b f i BillDispenser.obj
 0001:00002595       ?QueryInterface@?$CComObject@VCOPOSBillDispenser@@@ATL@@WIA@AGJABU_GUID@@PAPAX@Z 10003595 f i BillDispenser.obj
 0001:000025a2       ?AddRef@?$CComObject@VCOPOSBillDispenser@@@ATL@@WIA@AGKXZ 100035a2 f i BillDispenser.obj
 0001:000025af       ?Release@?$CComObject@VCOPOSBillDispenser@@@ATL@@WIA@AGKXZ 100035af f i BillDispenser.obj
 0001:000025bc       ?QueryInterface@?$CComObject@VCOPOSBillDispenser@@@ATL@@WIE@AGJABU_GUID@@PAPAX@Z 100035bc f i BillDispenser.obj
 0001:000025c9       ?AddRef@?$CComObject@VCOPOSBillDispenser@@@ATL@@WIE@AGKXZ 100035c9 f i BillDispenser.obj
 0001:000025d6       ?Release@?$CComObject@VCOPOSBillDispenser@@@ATL@@WIE@AGKXZ 100035d6 f i BillDispenser.obj
 0001:000025e3       ?QueryInterface@?$CComObject@VCOPOSBillDispenser@@@ATL@@WII@AGJABU_GUID@@PAPAX@Z 100035e3 f i BillDispenser.obj
 0001:000025f0       ?AddRef@?$CComObject@VCOPOSBillDispenser@@@ATL@@WII@AGKXZ 100035f0 f i BillDispenser.obj
 0001:000025fd       ?Release@?$CComObject@VCOPOSBillDispenser@@@ATL@@WII@AGKXZ 100035fd f i BillDispenser.obj
 0001:0000260a       ?QueryInterface@?$CComObject@VCOPOSBillDispenser@@@ATL@@WIM@AGJABU_GUID@@PAPAX@Z 1000360a f i BillDispenser.obj
 0001:00002617       ?AddRef@?$CComObject@VCOPOSBillDispenser@@@ATL@@WIM@AGKXZ 10003617 f i BillDispenser.obj
 0001:00002624       ?Release@?$CComObject@VCOPOSBillDispenser@@@ATL@@WIM@AGKXZ 10003624 f i BillDispenser.obj
 0001:00002631       ?QueryInterface@?$CComObject@VCOPOSBillDispenser@@@ATL@@WJA@AGJABU_GUID@@PAPAX@Z 10003631 f i BillDispenser.obj
 0001:0000263e       ?AddRef@?$CComObject@VCOPOSBillDispenser@@@ATL@@WJA@AGKXZ 1000363e f i BillDispenser.obj
 0001:0000264b       ?Release@?$CComObject@VCOPOSBillDispenser@@@ATL@@WJA@AGKXZ 1000364b f i BillDispenser.obj
 0001:00002658       ?QueryInterface@?$CComObject@VCOPOSBillDispenser@@@ATL@@WJE@AGJABU_GUID@@PAPAX@Z 10003658 f i BillDispenser.obj
 0001:00002665       ?AddRef@?$CComObject@VCOPOSBillDispenser@@@ATL@@WJE@AGKXZ 10003665 f i BillDispenser.obj
 0001:00002672       ?Release@?$CComObject@VCOPOSBillDispenser@@@ATL@@WJE@AGKXZ 10003672 f i BillDispenser.obj
 0001:0000267f       ?QueryInterface@?$CComObject@VCOPOSBillDispenser@@@ATL@@WJI@AGJABU_GUID@@PAPAX@Z 1000367f f i BillDispenser.obj
 0001:0000268c       ?AddRef@?$CComObject@VCOPOSBillDispenser@@@ATL@@WJI@AGKXZ 1000368c f i BillDispenser.obj
 0001:00002699       ?Release@?$CComObject@VCOPOSBillDispenser@@@ATL@@WJI@AGKXZ 10003699 f i BillDispenser.obj
 0001:000026a6       ?QueryInterface@?$CComObject@VCOPOSBillDispenser@@@ATL@@WJM@AGJABU_GUID@@PAPAX@Z 100036a6 f i BillDispenser.obj
 0001:000026b3       ?AddRef@?$CComObject@VCOPOSBillDispenser@@@ATL@@WJM@AGKXZ 100036b3 f i BillDispenser.obj
 0001:000026c0       ?Release@?$CComObject@VCOPOSBillDispenser@@@ATL@@WJM@AGKXZ 100036c0 f i BillDispenser.obj
 0001:000026cd       ?QueryInterface@?$CComObject@VCOPOSBillDispenser@@@ATL@@WKA@AGJABU_GUID@@PAPAX@Z 100036cd f i BillDispenser.obj
 0001:000026da       ?AddRef@?$CComObject@VCOPOSBillDispenser@@@ATL@@WKA@AGKXZ 100036da f i BillDispenser.obj
 0001:000026e7       ?Release@?$CComObject@VCOPOSBillDispenser@@@ATL@@WKA@AGKXZ 100036e7 f i BillDispenser.obj
 0001:000026f4       ?AddRef@?$CComObject@VCOPOSBillDispenser@@@ATL@@WKI@AGKXZ 100036f4 f i BillDispenser.obj
 0001:00002701       ?Release@?$CComObject@VCOPOSBillDispenser@@@ATL@@WKI@AGKXZ 10003701 f i BillDispenser.obj
 0001:0000270e       ?AddRef@?$CComObject@VCOPOSBillDispenser@@@ATL@@WLE@AGKXZ 1000370e f i BillDispenser.obj
 0001:0000271b       ?Release@?$CComObject@VCOPOSBillDispenser@@@ATL@@WLE@AGKXZ 1000371b f i BillDispenser.obj
 0001:00002728       ??_E?$CComContainedObject@VCOPOSBillDispenser@@@ATL@@W3AEPAXI@Z 10003728 f i BillDispenser.obj
 0001:00002730       ??_E?$CComContainedObject@VCOPOSBillDispenser@@@ATL@@WEM@AEPAXI@Z 10003730 f i BillDispenser.obj
 0001:00002738       ?QueryInterface@?$CComContainedObject@VCOPOSBillDispenser@@@ATL@@WHA@AGJABU_GUID@@PAPAX@Z 10003738 f i BillDispenser.obj
 0001:00002742       ?AddRef@?$CComContainedObject@VCOPOSBillDispenser@@@ATL@@WHA@AGKXZ 10003742 f i BillDispenser.obj
 0001:0000274c       ?Release@?$CComContainedObject@VCOPOSBillDispenser@@@ATL@@WHA@AGKXZ 1000374c f i BillDispenser.obj
 0001:00002756       ?QueryInterface@?$CComContainedObject@VCOPOSBillDispenser@@@ATL@@WHE@AGJABU_GUID@@PAPAX@Z 10003756 f i BillDispenser.obj
 0001:00002760       ?AddRef@?$CComContainedObject@VCOPOSBillDispenser@@@ATL@@WHE@AGKXZ 10003760 f i BillDispenser.obj
 0001:0000276a       ?Release@?$CComContainedObject@VCOPOSBillDispenser@@@ATL@@WHE@AGKXZ 1000376a f i BillDispenser.obj
 0001:00002774       ?QueryInterface@?$CComContainedObject@VCOPOSBillDispenser@@@ATL@@WHI@AGJABU_GUID@@PAPAX@Z 10003774 f i BillDispenser.obj
 0001:0000277e       ?AddRef@?$CComContainedObject@VCOPOSBillDispenser@@@ATL@@WHI@AGKXZ 1000377e f i BillDispenser.obj
 0001:00002788       ?Release@?$CComContainedObject@VCOPOSBillDispenser@@@ATL@@WHI@AGKXZ 10003788 f i BillDispenser.obj
 0001:00002792       ?QueryInterface@?$CComContainedObject@VCOPOSBillDispenser@@@ATL@@WHM@AGJABU_GUID@@PAPAX@Z 10003792 f i BillDispenser.obj
 0001:0000279c       ?AddRef@?$CComContainedObject@VCOPOSBillDispenser@@@ATL@@WHM@AGKXZ 1000379c f i BillDispenser.obj
 0001:000027a6       ?Release@?$CComContainedObject@VCOPOSBillDispenser@@@ATL@@WHM@AGKXZ 100037a6 f i BillDispenser.obj
 0001:000027b0       ?QueryInterface@?$CComContainedObject@VCOPOSBillDispenser@@@ATL@@WIA@AGJABU_GUID@@PAPAX@Z 100037b0 f i BillDispenser.obj
 0001:000027bd       ?AddRef@?$CComContainedObject@VCOPOSBillDispenser@@@ATL@@WIA@AGKXZ 100037bd f i BillDispenser.obj
 0001:000027ca       ?Release@?$CComContainedObject@VCOPOSBillDispenser@@@ATL@@WIA@AGKXZ 100037ca f i BillDispenser.obj
 0001:000027d7       ?QueryInterface@?$CComContainedObject@VCOPOSBillDispenser@@@ATL@@WIE@AGJABU_GUID@@PAPAX@Z 100037d7 f i BillDispenser.obj
 0001:000027e4       ?AddRef@?$CComContainedObject@VCOPOSBillDispenser@@@ATL@@WIE@AGKXZ 100037e4 f i BillDispenser.obj
 0001:000027f1       ?Release@?$CComContainedObject@VCOPOSBillDispenser@@@ATL@@WIE@AGKXZ 100037f1 f i BillDispenser.obj
 0001:000027fe       ?QueryInterface@?$CComContainedObject@VCOPOSBillDispenser@@@ATL@@WII@AGJABU_GUID@@PAPAX@Z 100037fe f i BillDispenser.obj
 0001:0000280b       ?AddRef@?$CComContainedObject@VCOPOSBillDispenser@@@ATL@@WII@AGKXZ 1000380b f i BillDispenser.obj
 0001:00002818       ?Release@?$CComContainedObject@VCOPOSBillDispenser@@@ATL@@WII@AGKXZ 10003818 f i BillDispenser.obj
 0001:00002825       ?QueryInterface@?$CComContainedObject@VCOPOSBillDispenser@@@ATL@@WIM@AGJABU_GUID@@PAPAX@Z 10003825 f i BillDispenser.obj
 0001:00002832       ?AddRef@?$CComContainedObject@VCOPOSBillDispenser@@@ATL@@WIM@AGKXZ 10003832 f i BillDispenser.obj
 0001:0000283f       ?Release@?$CComContainedObject@VCOPOSBillDispenser@@@ATL@@WIM@AGKXZ 1000383f f i BillDispenser.obj
 0001:0000284c       ?QueryInterface@?$CComContainedObject@VCOPOSBillDispenser@@@ATL@@WJA@AGJABU_GUID@@PAPAX@Z 1000384c f i BillDispenser.obj
 0001:00002859       ?AddRef@?$CComContainedObject@VCOPOSBillDispenser@@@ATL@@WJA@AGKXZ 10003859 f i BillDispenser.obj
 0001:00002866       ?Release@?$CComContainedObject@VCOPOSBillDispenser@@@ATL@@WJA@AGKXZ 10003866 f i BillDispenser.obj
 0001:00002873       ?QueryInterface@?$CComContainedObject@VCOPOSBillDispenser@@@ATL@@WJE@AGJABU_GUID@@PAPAX@Z 10003873 f i BillDispenser.obj
 0001:00002880       ?AddRef@?$CComContainedObject@VCOPOSBillDispenser@@@ATL@@WJE@AGKXZ 10003880 f i BillDispenser.obj
 0001:0000288d       ?Release@?$CComContainedObject@VCOPOSBillDispenser@@@ATL@@WJE@AGKXZ 1000388d f i BillDispenser.obj
 0001:0000289a       ?QueryInterface@?$CComContainedObject@VCOPOSBillDispenser@@@ATL@@WJI@AGJABU_GUID@@PAPAX@Z 1000389a f i BillDispenser.obj
 0001:000028a7       ?AddRef@?$CComContainedObject@VCOPOSBillDispenser@@@ATL@@WJI@AGKXZ 100038a7 f i BillDispenser.obj
 0001:000028b4       ?Release@?$CComContainedObject@VCOPOSBillDispenser@@@ATL@@WJI@AGKXZ 100038b4 f i BillDispenser.obj
 0001:000028c1       ?QueryInterface@?$CComContainedObject@VCOPOSBillDispenser@@@ATL@@WJM@AGJABU_GUID@@PAPAX@Z 100038c1 f i BillDispenser.obj
 0001:000028ce       ?AddRef@?$CComContainedObject@VCOPOSBillDispenser@@@ATL@@WJM@AGKXZ 100038ce f i BillDispenser.obj
 0001:000028db       ?Release@?$CComContainedObject@VCOPOSBillDispenser@@@ATL@@WJM@AGKXZ 100038db f i BillDispenser.obj
 0001:000028e8       ?QueryInterface@?$CComContainedObject@VCOPOSBillDispenser@@@ATL@@WKA@AGJABU_GUID@@PAPAX@Z 100038e8 f i BillDispenser.obj
 0001:000028f5       ?AddRef@?$CComContainedObject@VCOPOSBillDispenser@@@ATL@@WKA@AGKXZ 100038f5 f i BillDispenser.obj
 0001:00002902       ?Release@?$CComContainedObject@VCOPOSBillDispenser@@@ATL@@WKA@AGKXZ 10003902 f i BillDispenser.obj
 0001:0000290f       ?AddRef@?$CComContainedObject@VCOPOSBillDispenser@@@ATL@@WKI@AGKXZ 1000390f f i BillDispenser.obj
 0001:0000291c       ?Release@?$CComContainedObject@VCOPOSBillDispenser@@@ATL@@WKI@AGKXZ 1000391c f i BillDispenser.obj
 0001:00002929       ?AddRef@?$CComContainedObject@VCOPOSBillDispenser@@@ATL@@WLE@AGKXZ 10003929 f i BillDispenser.obj
 0001:00002936       ?Release@?$CComContainedObject@VCOPOSBillDispenser@@@ATL@@WLE@AGKXZ 10003936 f i BillDispenser.obj
 0001:00002943       ??$?4UITypeInfo2@@@?$CComPtr@UITypeInfo@@@ATL@@QAEPAUITypeInfo@@ABV?$CComPtr@UITypeInfo2@@@1@@Z 10003943 f i BillDispenser.obj
 0001:00002970       ??$AtlAdd@K@ATL@@YAJPAKKK@Z 10003970 f i BillDispenser.obj
 0001:00002993       ??$AtlAdd@_K@ATL@@YAJPA_K_K1@Z 10003993 f i BillDispenser.obj
 0001:000029cb       ??$AtlAddThrow@K@ATL@@YAKKK@Z 100039cb f i BillDispenser.obj
 0001:000029f1       ??$AtlModuleRegisterWndClassInfoT@VAtlModuleRegisterWndClassInfoParamW@ATL@@@ATL@@YAGPAU_ATL_BASE_MODULE70@0@PAU_ATL_WIN_MODULE70@0@PAU_ATL_WNDCLASSINFOW@0@PAP6GJPAUHWND__@@IIJ@ZVAtlModuleRegisterWndClassInfoParamW@0@@Z 100039f1 f i BillDispenser.obj
 0001:00002b3f       ??$AtlMultiply@H@ATL@@YAJPAHHH@Z 10003b3f f i BillDispenser.obj
 0001:00002b77       ??$AtlMultiply@I@ATL@@YAJPAIII@Z 10003b77 f i BillDispenser.obj
 0001:00002b77       ??$AtlMultiply@K@ATL@@YAJPAKKK@Z 10003b77 f i BillDispenser.obj
 0001:00002b99       ??$AtlMultiplyThrow@I@ATL@@YAIII@Z 10003b99 f i BillDispenser.obj
 0001:00002bbf       ??0?$CComAggObject@VCOPOSBillDispenser@@@ATL@@QAE@PAX@Z 10003bbf f i BillDispenser.obj
 0001:00002bec       ??0?$CComContainedObject@VCOPOSBillDispenser@@@ATL@@QAE@PAX@Z 10003bec f i BillDispenser.obj
 0001:00002ca5       ??0?$CComObject@V?$CComEnum@UIEnumConnectionPoints@@$1?_GUID_b196b285_bab4_101a_b69c_00aa00341d07@@3U__s_GUID@@BPAUIConnectionPoint@@V?$_CopyInterface@UIConnectionPoint@@@ATL@@VCComSingleThreadModel@6@@ATL@@@ATL@@QAE@PAX@Z 10003ca5 f i BillDispenser.obj
 0001:00002cd3       ??0?$CComObject@V?$CComEnum@UIEnumConnections@@$1?_GUID_b196b287_bab4_101a_b69c_00aa00341d07@@3U__s_GUID@@BUtagCONNECTDATA@@V?$_Copy@UtagCONNECTDATA@@@ATL@@VCComSingleThreadModel@6@@ATL@@@ATL@@QAE@PAX@Z 10003cd3 f i BillDispenser.obj
 0001:00002d01       ??0?$CComObject@VCOPOSBillDispenser@@@ATL@@QAE@PAX@Z 10003d01 f i BillDispenser.obj
 0001:00002db8       ??0?$CComQIPtr@UIOleControlSite@@$1?_GUID_b196b289_bab4_101a_b69c_00aa00341d07@@3U__s_GUID@@B@ATL@@QAE@PAUIUnknown@@@Z 10003db8 f i BillDispenser.obj
 0001:00002de1       ??0CAtlModule@ATL@@QAE@XZ  10003de1 f i BillDispenser.obj
 0001:00002e22       ??0CParseBuffer@CRegParser@ATL@@QAE@H@Z 10003e22 f i BillDispenser.obj
 0001:00002e58       ??0_ATL_MSG@ATL@@QAE@PAUHWND__@@IIJH@Z 10003e58 f i BillDispenser.obj
 0001:00002e90       ??1?$CComAggObject@VCOPOSBillDispenser@@@ATL@@UAE@XZ 10003e90 f i BillDispenser.obj
 0001:00002eb4       ??1?$CComEnumImpl@UIEnumConnectionPoints@@$1?_GUID_b196b285_bab4_101a_b69c_00aa00341d07@@3U__s_GUID@@BPAUIConnectionPoint@@V?$_CopyInterface@UIConnectionPoint@@@ATL@@@ATL@@UAE@XZ 10003eb4 f i BillDispenser.obj
 0001:00002ef4       ??1?$CComEnumImpl@UIEnumConnections@@$1?_GUID_b196b287_bab4_101a_b69c_00aa00341d07@@3U__s_GUID@@BUtagCONNECTDATA@@V?$_Copy@UtagCONNECTDATA@@@ATL@@@ATL@@UAE@XZ 10003ef4 f i BillDispenser.obj
 0001:00002f34       ??1?$CComObject@V?$CComEnum@UIEnumConnectionPoints@@$1?_GUID_b196b285_bab4_101a_b69c_00aa00341d07@@3U__s_GUID@@BPAUIConnectionPoint@@V?$_CopyInterface@UIConnectionPoint@@@ATL@@VCComSingleThreadModel@6@@ATL@@@ATL@@UAE@XZ 10003f34 f i BillDispenser.obj
 0001:00002f57       ??1?$CComObject@V?$CComEnum@UIEnumConnections@@$1?_GUID_b196b287_bab4_101a_b69c_00aa00341d07@@3U__s_GUID@@BUtagCONNECTDATA@@V?$_Copy@UtagCONNECTDATA@@@ATL@@VCComSingleThreadModel@6@@ATL@@@ATL@@UAE@XZ 10003f57 f i BillDispenser.obj
 0001:00002f7a       ??1?$CComObject@VCOPOSBillDispenser@@@ATL@@UAE@XZ 10003f7a f i BillDispenser.obj
 0001:00003038       ??1?$CComObjectCached@VCComClassFactory@ATL@@@ATL@@UAE@XZ 10004038 f i BillDispenser.obj
 0001:0000304e       ??1?$CComObjectRootEx@VCComMultiThreadModel@ATL@@@ATL@@QAE@XZ 1000404e f i BillDispenser.obj
 0001:00003063       ??1CRegObject@ATL@@UAE@XZ  10004063 f i BillDispenser.obj
 0001:00003083       ??4?$CComPtr@UIAdviseSink@@@ATL@@QAEPAUIAdviseSink@@PAU2@@Z 10004083 f i BillDispenser.obj
 0001:00003083       ??4?$CComPtr@UIOleClientSite@@@ATL@@QAEPAUIOleClientSite@@PAU2@@Z 10004083 f i BillDispenser.obj
 0001:00003083       ??4?$CComPtr@UIUnknown@@@ATL@@QAEPAUIUnknown@@PAU2@@Z 10004083 f i BillDispenser.obj
 0001:000030b7       ??_E?$CComContainedObject@VCOPOSBillDispenser@@@ATL@@UAEPAXI@Z 100040b7 f i BillDispenser.obj
 0001:000030b7       ??_G?$CComContainedObject@VCOPOSBillDispenser@@@ATL@@UAEPAXI@Z 100040b7 f i BillDispenser.obj
 0001:000030dc       ??_E?$CComObject@VCOPOSBillDispenser@@@ATL@@UAEPAXI@Z 100040dc f i BillDispenser.obj
 0001:000030dc       ??_G?$CComObject@VCOPOSBillDispenser@@@ATL@@UAEPAXI@Z 100040dc f i BillDispenser.obj
 0001:00003101       ?Add@?$CSimpleArray@GV?$CSimpleArrayEqualHelper@G@ATL@@@ATL@@QAEHABG@Z 10004101 f i BillDispenser.obj
 0001:00003185       ?Add@?$CSimpleMap@PA_WPA_WVCExpansionVectorEqualHelper@ATL@@@ATL@@QAEHABQA_W0@Z 10004185 f i BillDispenser.obj
 0001:000031da       ?Add@CComDynamicUnkArray@ATL@@QAEKPAUIUnknown@@@Z 100041da f i BillDispenser.obj
 0001:00003290       ?Add@CExpansionVector@ATL@@QAEHPB_W0@Z 10004290 f i BillDispenser.obj
 0001:00003399       ?AddString@CParseBuffer@CRegParser@ATL@@QAEHPB_W@Z 10004399 f i BillDispenser.obj
 0001:000033ce       ?AddTermFunc@CAtlModule@ATL@@QAEJP6GXK@ZK@Z 100043ce f i BillDispenser.obj
 0001:00003431       ?AddValue@CRegParser@ATL@@IAEJAAVCRegKey@2@PB_WPA_W@Z 10004431 f i BillDispenser.obj
 0001:0000374b       ?Allocate@?$CAtlSafeAllocBufferManager@VCCRTAllocator@ATL@@@_ATL_SAFE_ALLOCA_IMPL@ATL@@QAEPAXK@Z 1000474b f i BillDispenser.obj
 0001:00003778       ?Allocate@?$CTempBuffer@E$0BAA@VCCRTAllocator@ATL@@@ATL@@QAEPAEI@Z 10004778 f i BillDispenser.obj
 0001:000037a7       ?Allocate@?$CTempBuffer@_W$0BAA@VCCRTAllocator@ATL@@@ATL@@QAEPA_WI@Z 100047a7 f i BillDispenser.obj
 0001:000037d6       ?Allocate@?$CTempBuffer@_W$0EAA@VCCRTAllocator@ATL@@@ATL@@QAEPA_WI@Z 100047d6 f i BillDispenser.obj
 0001:00003805       ?AllocateHeap@?$CTempBuffer@E$0BAA@VCCRTAllocator@ATL@@@ATL@@AAEXI@Z 10004805 f i BillDispenser.obj
 0001:00003805       ?AllocateHeap@?$CTempBuffer@_W$0EAA@VCCRTAllocator@ATL@@@ATL@@AAEXI@Z 10004805 f i BillDispenser.obj
 0001:00003805       ?AllocateHeap@?$CTempBuffer@_W$0BAA@VCCRTAllocator@ATL@@@ATL@@AAEXI@Z 10004805 f i BillDispenser.obj
 0001:0000382a       ?Append@CParseBuffer@CRegParser@ATL@@QAEHPB_WH@Z 1000482a f i BillDispenser.obj
 0001:000038b8       ?AtlCoTaskMemCAlloc@ATL@@YAPAXKK@Z 100048b8 f i BillDispenser.obj
 0001:000038e5       ?AtlCoTaskMemRecalloc@ATL@@YAPAXPAXKK@Z 100048e5 f i BillDispenser.obj
 0001:00003915       ?AtlComModuleGetClassObject@ATL@@YGJPAU_ATL_COM_MODULE70@1@ABU_GUID@@1PAPAX@Z 10004915 f i BillDispenser.obj
 0001:00003a08       ?AtlComModuleRegisterServer@ATL@@YGJPAU_ATL_COM_MODULE70@1@HPBU_GUID@@@Z 10004a08 f i BillDispenser.obj
 0001:00003a90       ?AtlComModuleUnregisterServer@ATL@@YGJPAU_ATL_COM_MODULE70@1@HPBU_GUID@@@Z 10004a90 f i BillDispenser.obj
 0001:00003b18       ?AtlComQIPtrAssign2@ATL@@YAXPAPAUIUnknown@@PAU2@ABU_GUID@@@Z 10004b18 f i BillDispenser.obj
 0001:00003b47       ?AtlCreateTargetDC@ATL@@YGPAUHDC__@@PAU2@PAUtagDVTARGETDEVICE@@@Z 10004b47 f i BillDispenser.obj
 0001:00003bb0       ?AtlCrtErrorCheck@ATL@@YAHH@Z 10004bb0 f i BillDispenser.obj
 0001:00003beb       ?AtlHiMetricToPixel@ATL@@YGXPBUtagSIZE@@PAU2@@Z 10004beb f i BillDispenser.obj
 0001:00003c60       ?AtlHresultFromLastError@ATL@@YAJXZ 10004c60 f i BillDispenser.obj
 0001:00003c77       ?AtlHresultFromWin32@ATL@@YAJK@Z 10004c77 f i BillDispenser.obj
 0001:00003c8c       ?AtlInternalOleLoadFromStream@ATL@@YAJPAUIStream@@ABU_GUID@@PAPAXTClassesAllowedInStream@1@K@Z 10004c8c f i BillDispenser.obj
 0001:00003daa       ?AtlInternalQueryInterface@ATL@@YGJPAXPBU_ATL_INTMAP_ENTRY@1@ABU_GUID@@PAPAX@Z 10004daa f i BillDispenser.obj
 0001:00003e4d       ?AtlLoadTypeLib@ATL@@YGJPAUHINSTANCE__@@PB_WPAPA_WPAPAUITypeLib@@@Z 10004e4d f i BillDispenser.obj
 0001:0000402b       ?AtlRegisterClassCategoriesHelper@ATL@@YGJABU_GUID@@PBU_ATL_CATMAP_ENTRY@1@H@Z 1000502b f i BillDispenser.obj
 0001:00004327       ?AtlRegisterTypeLib@ATL@@YGJPAUHINSTANCE__@@PB_W@Z 10005327 f i BillDispenser.obj
 0001:000044af       ?AtlThrowImpl@ATL@@YGXJ@Z  100054af f i BillDispenser.obj
 0001:000044cd       ?AtlUnRegisterTypeLib@ATL@@YGJPAUHINSTANCE__@@PB_W@Z 100054cd f i BillDispenser.obj
 0001:00004578       ?AtlWinModuleAddCreateWndData@ATL@@YGXPAU_ATL_WIN_MODULE70@1@PAU_AtlCreateWndData@1@PAX@Z 10005578 f i BillDispenser.obj
 0001:000045cc       ?AtlWinModuleExtractCreateWndData@ATL@@YGPAXPAU_ATL_WIN_MODULE70@1@@Z 100055cc f i BillDispenser.obj
 0001:0000462f       ?AtlWinModuleRegisterClassExW@ATL@@YGGPAU_ATL_WIN_MODULE70@1@PBUtagWNDCLASSEXW@@@Z 1000562f f i BillDispenser.obj
 0001:0000466e       ?CanForceRemoveKey@CRegParser@ATL@@IAEHPB_W@Z 1000566e f i BillDispenser.obj
 0001:0000469d       ?ChToByte@CRegParser@ATL@@KAE_W@Z 1000569d f i BillDispenser.obj
 0001:000046d0       ?Cleanup@CComTypeInfoHolder@ATL@@SGXK@Z 100056d0 f i BillDispenser.obj
 0001:00004703       ?ClearReplacements@CExpansionVector@ATL@@QAEJXZ 10005703 f i BillDispenser.obj
 0001:00004740       ?Close@CRegKey@ATL@@QAEJXZ 10005740 f i BillDispenser.obj
 0001:0000475a       ?CreateInstance@?$CComCreator@V?$CComAggObject@VCOPOSBillDispenser@@@ATL@@@ATL@@SGJPAXABU_GUID@@PAPAX@Z 1000575a f i BillDispenser.obj
 0001:000047cf       ?CreateInstance@?$CComCreator@V?$CComObject@VCOPOSBillDispenser@@@ATL@@@ATL@@SGJPAXABU_GUID@@PAPAX@Z 100057cf f i BillDispenser.obj
 0001:0000484f       ?CreateInstance@?$CComObject@V?$CComEnum@UIEnumConnectionPoints@@$1?_GUID_b196b285_bab4_101a_b69c_00aa00341d07@@3U__s_GUID@@BPAUIConnectionPoint@@V?$_CopyInterface@UIConnectionPoint@@@ATL@@VCComSingleThreadModel@6@@ATL@@@ATL@@SGJPAPAV12@@Z 1000584f f i BillDispenser.obj
 0001:00004899       ?CreateInstance@?$CComObject@V?$CComEnum@UIEnumConnections@@$1?_GUID_b196b287_bab4_101a_b69c_00aa00341d07@@3U__s_GUID@@BUtagCONNECTDATA@@V?$_Copy@UtagCONNECTDATA@@@ATL@@VCComSingleThreadModel@6@@ATL@@@ATL@@SGJPAPAV12@@Z 10005899 f i BillDispenser.obj
 0001:000048e3       ?DefaultReflectionHandler@?$CWindowImplRoot@VCWindow@ATL@@@ATL@@SAHPAUHWND__@@IIJAAJ@Z 100058e3 f i BillDispenser.obj
 0001:00004956       ?DeleteSubKey@CRegKey@ATL@@QAEJPB_W@Z 10005956 f i BillDispenser.obj
 0001:000049cf       ?DoEvent@COPOSBillDispenser@@IAEXIIJ@Z 100059cf f i BillDispenser.obj
 0001:00004a4f       ?DoVerbHide@?$IOleObjectImpl@VCOPOSBillDispenser@@@ATL@@QAEJPBUtagRECT@@PAUHWND__@@@Z 10005a4f f i BillDispenser.obj
 0001:00004a85       ?DoVerbInPlaceActivate@?$IOleObjectImpl@VCOPOSBillDispenser@@@ATL@@QAEJPBUtagRECT@@PAUHWND__@@@Z 10005a85 f i BillDispenser.obj
 0001:00004ab8       ?DoVerbPrimary@?$IOleObjectImpl@VCOPOSBillDispenser@@@ATL@@QAEJPBUtagRECT@@PAUHWND__@@@Z 10005ab8 f i BillDispenser.obj
 0001:00004b44       ?DoVerbProperties@CComControlBase@ATL@@QAEJPBUtagRECT@@PAUHWND__@@@Z 10005b44 f i BillDispenser.obj
 0001:00004cc3       ?DoVerbUIActivate@?$IOleObjectImpl@VCOPOSBillDispenser@@@ATL@@QAEJPBUtagRECT@@PAUHWND__@@@Z 10005cc3 f i BillDispenser.obj
 0001:00004d00       ?DoesVerbActivate@CComControlBase@ATL@@QAEHJ@Z 10005d00 f i BillDispenser.obj
 0001:00004d21       ?DoesVerbUIActivate@CComControlBase@ATL@@QAEHJ@Z 10005d21 f i BillDispenser.obj
 0001:00004d56       ?EndOfVar@CRegParser@ATL@@IAEHXZ 10005d56 f i BillDispenser.obj
 0001:00004d76       ?EscapeSingleQuote@CAtlModule@ATL@@SAXPA_WIPB_W@Z 10005d76 f i BillDispenser.obj
 0001:00004dc5       ?FindKey@?$CSimpleMap@PA_WPA_WVCExpansionVectorEqualHelper@ATL@@@ATL@@QBEHABQA_W@Z 10005dc5 f i BillDispenser.obj
 0001:00004dfc       ?FireTheEvent@?$CProxy_IOPOSEvents@VCOPOSBillDispenser@@@@IAEXPAVOposVariant@@IAAJPB_WJ@Z 10005dfc f i BillDispenser.obj
 0001:00004e8e       ?FireViewChange@CComControlBase@ATL@@QAEJXZ 10005e8e f i BillDispenser.obj
 0001:00004ed7       ?Fire_DirectIOEvent@?$CProxy_IOPOSEvents@VCOPOSBillDispenser@@@@QAEXJPAJPAPA_W@Z 10005ed7 f i BillDispenser.obj
 0001:00004fc3       ?Fire_StatusUpdateEvent@?$CProxy_IOPOSEvents@VCOPOSBillDispenser@@@@QAEXJ@Z 10005fc3 f i BillDispenser.obj
 0001:00005059       ?FreeHeap@?$CTempBuffer@_W$0EAA@VCCRTAllocator@ATL@@@ATL@@AAEXXZ 10006059 f i BillDispenser.obj
 0001:00005059       ?FreeHeap@?$CTempBuffer@_W$0BAA@VCCRTAllocator@ATL@@@ATL@@AAEXXZ 10006059 f i BillDispenser.obj
 0001:00005059       ?FreeHeap@?$CTempBuffer@E$0BAA@VCCRTAllocator@ATL@@@ATL@@AAEXXZ 10006059 f i BillDispenser.obj
 0001:00005062       ?GetAmbientLocaleID@CComControlBase@ATL@@QAEJAAK@Z 10006062 f i BillDispenser.obj
 0001:000050be       ?GetAmbientUserMode@CComControlBase@ATL@@QAEJAAH@Z 100060be f i BillDispenser.obj
 0001:0000512e       ?GetAt@CComDynamicUnkArray@ATL@@QAEPAUIUnknown@@H@Z 1000612e f i BillDispenser.obj
 0001:0000514a       ?GetClassObject@CComModule@ATL@@QAEJABU_GUID@@0PAPAX@Z 1000614a f i BillDispenser.obj
 0001:000051ec       ?GetConnMap@COPOSBillDispenser@@SAPBU_ATL_CONNMAP_ENTRY@ATL@@PAH@Z 100061ec f i BillDispenser.obj
 0001:0000525c       ?GetCookie@CComDynamicUnkArray@ATL@@QAGKPAPAUIUnknown@@@Z 1000625c f i BillDispenser.obj
 0001:00005294       ?GetIDsOfNames@CComTypeInfoHolder@ATL@@QAEJABU_GUID@@PAPA_WIKPAJ@Z 10006294 f i BillDispenser.obj
 0001:000053bb       ?GetKeyAt@?$CSimpleMap@PA_WPA_WVCExpansionVectorEqualHelper@ATL@@@ATL@@QBEAAPA_WH@Z 100063bb f i BillDispenser.obj
 0001:000053e0       ?GetPagesHelper@?$ISpecifyPropertyPagesImpl@VCOPOSBillDispenser@@@ATL@@IAEJPAUtagCAUUID@@PBUATL_PROPMAP_ENTRY@2@@Z 100063e0 f i BillDispenser.obj
 0001:00005507       ?GetProperty@?$CComPtr@UIDispatch@@@ATL@@SAJPAUIDispatch@@JPAUtagVARIANT@@@Z 10006507 f i BillDispenser.obj
 0001:00005556       ?GetSizeMax@CComVariant@ATL@@QBEJPAT_ULARGE_INTEGER@@@Z 10006556 f i BillDispenser.obj
 0001:00005718       ?GetTI@CComTypeInfoHolder@ATL@@QAEJK@Z 10006718 f i BillDispenser.obj
 0001:000058f7       ?GetTI@CComTypeInfoHolder@ATL@@QAEJKPAPAUITypeInfo@@@Z 100068f7 f i BillDispenser.obj
 0001:00005939       ?GetUnknown@CComDynamicUnkArray@ATL@@QAGPAUIUnknown@@K@Z 10006939 f i BillDispenser.obj
 0001:0000595a       ?GetValueAt@?$CSimpleMap@PA_WPA_WVCExpansionVectorEqualHelper@ATL@@@ATL@@QBEAAPA_WH@Z 1000695a f i BillDispenser.obj
 0001:00005980       ?GetZoomInfo@CComControlBase@ATL@@QAEXAAUATL_DRAWINFO@@@Z 10006980 f i BillDispenser.obj
 0001:00005a13       ?HKeyFromString@CRegParser@ATL@@KAPAUHKEY__@@PA_W@Z 10006a13 f i BillDispenser.obj
 0001:00005a41       ?HasSubKeys@CRegParser@ATL@@IAEHPAUHKEY__@@@Z 10006a41 f i BillDispenser.obj
 0001:00005a76       ?IDataObject_GetData@CComControlBase@ATL@@QAEJPAUtagFORMATETC@@PAUtagSTGMEDIUM@@@Z 10006a76 f i BillDispenser.obj
 0001:00005c1c       ?IOleInPlaceObject_InPlaceDeactivate@CComControlBase@ATL@@QAEJXZ 10006c1c f i BillDispenser.obj
 0001:00005ca3       ?IOleInPlaceObject_SetObjectRects@CComControlBase@ATL@@QAEJPBUtagRECT@@0@Z 10006ca3 f i BillDispenser.obj
 0001:00005d70       ?IOleInPlaceObject_UIDeactivate@CComControlBase@ATL@@QAEJXZ 10006d70 f i BillDispenser.obj
 0001:00005e32       ?IOleObject_Advise@CComControlBase@ATL@@QAEJPAUIAdviseSink@@PAK@Z 10006e32 f i BillDispenser.obj
 0001:00005e5c       ?IOleObject_Close@CComControlBase@ATL@@QAEJK@Z 10006e5c f i BillDispenser.obj
 0001:00005f40       ?IOleObject_GetClientSite@CComControlBase@ATL@@QAEJPAPAUIOleClientSite@@@Z 10006f40 f i BillDispenser.obj
 0001:00005f69       ?IOleObject_SetClientSite@CComControlBase@ATL@@QAEJPAUIOleClientSite@@@Z 10006f69 f i BillDispenser.obj
 0001:00005fa8       ?IOleObject_SetExtent@CComControlBase@ATL@@QAEJKPAUtagSIZE@@@Z 10006fa8 f i BillDispenser.obj
 0001:0000605c       ?IPSI_GetIPersistStreamInit@?$IPersistStorageImpl@VCOPOSBillDispenser@@@ATL@@AAEPAUIPersistStreamInit@@XZ 1000705c f i BillDispenser.obj
 0001:00006104       ?IPersistStreamInit_Load@?$IPersistStreamInitImpl@VCOPOSBillDispenser@@@ATL@@QAEJPAUIStream@@PBUATL_PROPMAP_ENTRY@2@@Z 10007104 f i BillDispenser.obj
 0001:00006379       ?IPersistStreamInit_Save@?$IPersistStreamInitImpl@VCOPOSBillDispenser@@@ATL@@QAEJPAUIStream@@HPBUATL_PROPMAP_ENTRY@2@@Z 10007379 f i BillDispenser.obj
 0001:00006567       ?IQuickActivate_QuickActivate@CComControlBase@ATL@@QAEJPAUtagQACONTAINER@@PAUtagQACONTROL@@@Z 10007567 f i BillDispenser.obj
 0001:000067a9       ?IViewObject_Draw@CComControlBase@ATL@@QAEJKJPAXPAUtagDVTARGETDEVICE@@PAUHDC__@@2PBU_RECTL@@3@Z 100077a9 f i BillDispenser.obj
 0001:00006851       ?InPlaceActivate@CComControlBase@ATL@@QAEJJPBUtagRECT@@@Z 10007851 f i BillDispenser.obj
 0001:00006ac2       ?Init@?$CComEnumImpl@UIEnumConnectionPoints@@$1?_GUID_b196b285_bab4_101a_b69c_00aa00341d07@@3U__s_GUID@@BPAUIConnectionPoint@@V?$_CopyInterface@UIConnectionPoint@@@ATL@@@ATL@@QAEJPAPAUIConnectionPoint@@0PAUIUnknown@@W4CComEnumFlags@2@@Z 10007ac2 f i BillDispenser.obj
 0001:00006ba1       ?Init@?$CComEnumImpl@UIEnumConnections@@$1?_GUID_b196b287_bab4_101a_b69c_00aa00341d07@@3U__s_GUID@@BUtagCONNECTDATA@@V?$_Copy@UtagCONNECTDATA@@@ATL@@@ATL@@QAEJPAUtagCONNECTDATA@@0PAUIUnknown@@W4CComEnumFlags@2@@Z 10007ba1 f i BillDispenser.obj
 0001:00006c80       ?Init@CComModule@ATL@@QAEJPAU_ATL_OBJMAP_ENTRY30@2@PAUHINSTANCE__@@PBU_GUID@@@Z 10007c80 f i BillDispenser.obj
 0001:00006cdf       ?Init@CDynamicStdCallThunk2@ATL@@QAEHKPAX@Z 10007cdf f i BillDispenser.obj
 0001:00006d0a       ?InlineIsEqualUnknown@ATL@@YGHABU_GUID@@@Z 10007d0a f i BillDispenser.obj
 0001:00006d32       ?InternalSetAtIndex@?$CSimpleMap@PA_WPA_WVCExpansionVectorEqualHelper@ATL@@@ATL@@QAEXHABQA_W0@Z 10007d32 f i BillDispenser.obj
 0001:00006d5c       ?Invoke@CComTypeInfoHolder@ATL@@QAEJPAUIDispatch@@JABU_GUID@@KGPAUtagDISPPARAMS@@PAUtagVARIANT@@PAUtagEXCEPINFO@@PAI@Z 10007d5c f i BillDispenser.obj
 0001:00006d9f       ?IsEqualObject@?$CComPtrBase@UIOleClientSite@@@ATL@@QAE_NPAUIUnknown@@@Z 10007d9f f i BillDispenser.obj
 0001:00006d9f       ?IsEqualObject@?$CComPtrBase@UITypeInfo@@@ATL@@QAE_NPAUIUnknown@@@Z 10007d9f f i BillDispenser.obj
 0001:00006e0c       ?IsSpace@CRegParser@ATL@@IAEH_W@Z 10007e0c f i BillDispenser.obj
 0001:00006e36       ?LoadNameCache@CComTypeInfoHolder@ATL@@QAEJPAUITypeInfo@@@Z 10007e36 f i BillDispenser.obj
 0001:00006f6b       ?Lookup@?$CSimpleMap@PA_WPA_WVCExpansionVectorEqualHelper@ATL@@@ATL@@QBEPA_WABQA_W@Z 10007f6b f i BillDispenser.obj
 0001:00006f91       ?NextToken@CRegParser@ATL@@IAEJPA_W@Z 10007f91 f i BillDispenser.obj
 0001:000070c9       ?OnKillFocus@CComControlBase@ATL@@QAEJIIJAAH@Z 100080c9 f i BillDispenser.obj
 0001:00007124       ?OnMouseActivate@CComControlBase@ATL@@QAEJIIJAAH@Z 10008124 f i BillDispenser.obj
 0001:00007192       ?OnPaint@CComControlBase@ATL@@QAEJIIJAAH@Z 10008192 f i BillDispenser.obj
 0001:00007244       ?OnSetFocus@CComControlBase@ATL@@QAEJIIJAAH@Z 10008244 f i BillDispenser.obj
 0001:000072cd       ?Open@CRegKey@ATL@@QAEJPAUHKEY__@@PB_WK@Z 100082cd f i BillDispenser.obj
 0001:00007322       ?PreProcessBuffer@CRegParser@ATL@@QAEJPA_WPAPA_W@Z 10008322 f i BillDispenser.obj
 0001:00007591       ?ProcessWindowMessage@?$CComControl@VCOPOSBillDispenser@@V?$CWindowImpl@VCOPOSBillDispenser@@VCWindow@ATL@@V?$CWinTraits@$0FGAAAAAA@$0A@@3@@ATL@@@ATL@@UAEHPAUHWND__@@IIJAAJK@Z 10008591 f i BillDispenser.obj
 0001:00007630       ?ReadFromStream@CComBSTR@ATL@@QAEJPAUIStream@@@Z 10008630 f i BillDispenser.obj
 0001:00007753       ?ReadFromStream@CComVariant@ATL@@QAEJPAUIStream@@GTClassesAllowedInStream@2@K@Z 10008753 f i BillDispenser.obj
 0001:000078dd       ?RecurseDeleteKey@CRegKey@ATL@@QAEJPB_W@Z 100088dd f i BillDispenser.obj
 0001:000079cb       ?RegCreateKeyExW@CAtlTransactionManager@ATL@@QAEJPAUHKEY__@@PB_WKPA_WKKQAU_SECURITY_ATTRIBUTES@@PAPAU3@PAK@Z 100089cb f i BillDispenser.obj
 0001:00007a2e       ?RegDeleteKeyW@CAtlTransactionManager@ATL@@QAEJPAUHKEY__@@PB_W@Z 10008a2e f i BillDispenser.obj
 0001:00007a80       ?RegOpenKeyExW@CAtlTransactionManager@ATL@@QAEJPAUHKEY__@@PB_WKKPAPAU3@@Z 10008a80 f i BillDispenser.obj
 0001:00007ad7       ?Register@_ATL_WNDCLASSINFOW@ATL@@QAEGPAP6GJPAUHWND__@@IIJ@Z@Z 10008ad7 f i BillDispenser.obj
 0001:00007af7       ?RegisterBuffer@CRegParser@ATL@@QAEJPA_WH@Z 10008af7 f i BillDispenser.obj
 0001:00007c3e       ?RegisterFromResource@CRegObject@ATL@@IAEJPB_W00H@Z 10008c3e f i BillDispenser.obj
 0001:00007d74       ?RegisterServer@?$CAtlModuleT@VCComModule@ATL@@@ATL@@QAEJHPBU_GUID@@@Z 10008d74 f i BillDispenser.obj
 0001:00007da2       ?RegisterServer@CComModule@ATL@@QAEJHPBU_GUID@@@Z 10008da2 f i BillDispenser.obj
 0001:00007e18       ?RegisterSubkeys@CRegParser@ATL@@IAEJPA_WPAUHKEY__@@HH@Z 10008e18 f i BillDispenser.obj
 0001:000084c5       ?Remove@CComDynamicUnkArray@ATL@@QAEHK@Z 100094c5 f i BillDispenser.obj
 0001:000084ee       ?RemoveAll@?$CSimpleMap@PA_WPA_WVCExpansionVectorEqualHelper@ATL@@@ATL@@QAEXXZ 100094ee f i BillDispenser.obj
 0001:0000851a       ?ResourceRegisterSz@CRegObject@ATL@@QAGJPB_W00@Z 1000951a f i BillDispenser.obj
 0001:00008547       ?ResourceUnregisterSz@CRegObject@ATL@@QAGJPB_W00@Z 10009547 f i BillDispenser.obj
 0001:00008574       ?SendOnDataChange@CComControlBase@ATL@@QAEJK@Z 10009574 f i BillDispenser.obj
 0001:000085c1       ?SetControlFocus@CComControlBase@ATL@@QAEHH@Z 100095c1 f i BillDispenser.obj
 0001:0000865e       ?SetMultiStringValue@CRegKey@ATL@@QAEJPB_W0@Z 1000965e f i BillDispenser.obj
 0001:000086ba       ?SetStringValue@CRegKey@ATL@@QAEJPB_W0K@Z 100096ba f i BillDispenser.obj
 0001:00008703       ?SkipAssignment@CRegParser@ATL@@IAEJPA_W@Z 10009703 f i BillDispenser.obj
 0001:00008768       ?SkipWhiteSpace@CRegParser@ATL@@IAEXXZ 10009768 f i BillDispenser.obj
 0001:0000878a       ?StrChrW@CRegParser@ATL@@KAPA_WPA_W_W@Z 1000978a f i BillDispenser.obj
 0001:000087c7       ?Term@CAtlModule@ATL@@QAEXXZ 100097c7 f i BillDispenser.obj
 0001:0000881a       ?Term@CComModule@ATL@@QAEXXZ 1000981a f i BillDispenser.obj
 0001:00008872       ?UnregisterServer@?$CAtlModuleT@VCComModule@ATL@@@ATL@@QAEJHPBU_GUID@@@Z 10009872 f i BillDispenser.obj
 0001:00008898       ?UnregisterServer@CComModule@ATL@@QAEJHPBU_GUID@@@Z 10009898 f i BillDispenser.obj
 0001:0000890e       ?UpdateRegistryFromResource@CAtlModule@ATL@@QAGJIHPAU_ATL_REGMAP_ENTRY@2@@Z 1000990e f i BillDispenser.obj
 0001:00008ad9       ?UpdateRegistryFromResource@CAtlModule@ATL@@QAGJPB_WHPAU_ATL_REGMAP_ENTRY@2@@Z 10009ad9 f i BillDispenser.obj
 0001:00008caa       ?VTFromRegType@CRegParser@ATL@@KAHPB_WAAG@Z 10009caa f i BillDispenser.obj
 0001:00008d17       ?WindowProc@?$CWindowImplBaseT@VCWindow@ATL@@V?$CWinTraits@$0FGAAAAAA@$0A@@2@@ATL@@SGJPAUHWND__@@IIJ@Z 10009d17 f i BillDispenser.obj
 0001:00008e09       ?WriteToStream@CComBSTR@ATL@@QAEJPAUIStream@@@Z 10009e09 f i BillDispenser.obj
 0001:00008e6b       ?WriteToStream@CComVariant@ATL@@QAEJPAUIStream@@@Z 10009e6b f i BillDispenser.obj
 0001:00008fe5       ?WriteToStream@CComVariant@ATL@@QAEJPAUIStream@@G@Z 10009fe5 f i BillDispenser.obj
 0001:0000904e       ?_AtlInitialConstruct@?$CComObjectRootEx@VCComMultiThreadModel@ATL@@@ATL@@QAEJXZ 1000a04e f i BillDispenser.obj
 0001:00009063       ?_AtlVerifyStackAvailable@_ATL_SAFE_ALLOCA_IMPL@ATL@@YA_NK@Z 1000a063 f i BillDispenser.obj
 0001:000090e1       ?atlCreate@?$CWindowImpl@VCOPOSBillDispenser@@VCWindow@ATL@@V?$CWinTraits@$0FGAAAAAA@$0A@@3@@ATL@@QAEPAUHWND__@@PAU3@V_U_RECT@2@PB_WKKV_U_MENUorID@2@PAX@Z 1000a0e1 f i BillDispenser.obj
 0001:00009125       ?atlCreate@?$CWindowImplBaseT@VCWindow@ATL@@V?$CWinTraits@$0FGAAAAAA@$0A@@2@@ATL@@QAEPAUHWND__@@PAU3@V_U_RECT@2@PB_WKKV_U_MENUorID@2@GPAX@Z 1000a125 f i BillDispenser.obj
 0001:000091c1       ?copy@?$_Copy@UtagCONNECTDATA@@@ATL@@SAJPAUtagCONNECTDATA@@PBU3@@Z 1000a1c1 f i BillDispenser.obj
 0001:000091f7       ?copy@?$_CopyInterface@UIConnectionPoint@@@ATL@@SAJPAPAUIConnectionPoint@@PBQAU3@@Z 1000a1f7 f i BillDispenser.obj
 0001:00009225       ?memcpy_s@Checked@ATL@@YAXPAXIPBXI@Z 1000a225 f i BillDispenser.obj
 0001:00009244       ?ocscpy_s@@YA_NPA_WIPB_W@Z 1000a244 f i BillDispenser.obj
 0001:0000928e       ?wcscpy_s@Checked@ATL@@YAXPA_WIPB_W@Z 1000a28e f i BillDispenser.obj
 0001:000092aa       _DllCanUnloadNow@0         1000a2aa f   BillDispenser.obj
 0001:000092b6       _DllGetClassObject@12      1000a2b6 f   BillDispenser.obj
 0001:000092c4       _DllMain@12                1000a2c4 f   BillDispenser.obj
 0001:00009306       _DllRegisterServer@0       1000a306 f   BillDispenser.obj
 0001:00009315       _DllUnregisterServer@0     1000a315 f   BillDispenser.obj
 0001:00009324       _InlineIsEqualGUID         1000a324 f i BillDispenser.obj
 0001:00009354       ___local_stdio_printf_options 1000a354 f i BillDispenser.obj
 0001:0000935a       __vswprintf_s_l            1000a35a f i BillDispenser.obj
 0001:00009407       _swprintf_s                1000a407 f i BillDispenser.obj
 0001:00009423       ??0?$CComControl@VCOPOSBillDispenser@@V?$CWindowImpl@VCOPOSBillDispenser@@VCWindow@ATL@@V?$CWinTraits@$0FGAAAAAA@$0A@@3@@ATL@@@ATL@@QAE@XZ 1000a423 f i BillDispenserImpl.obj
 0001:0000944a       ??0CComControlBase@ATL@@QAE@AAPAUHWND__@@@Z 1000a44a f i BillDispenserImpl.obj
 0001:00009494       ??0COPOSBillDispenser@@QAE@XZ 1000a494 f   BillDispenserImpl.obj
 0001:000094e3       ??1?$CComControl@VCOPOSBillDispenser@@V?$CWindowImpl@VCOPOSBillDispenser@@VCWindow@ATL@@V?$CWinTraits@$0FGAAAAAA@$0A@@3@@ATL@@@ATL@@UAE@XZ 1000a4e3 f i BillDispenserImpl.obj
 0001:000094fc       ??1?$IConnectionPointImpl@VCOPOSBillDispenser@@$1?IID_IPropertyNotifySink@@3U_GUID@@BVCComDynamicUnkArray@ATL@@@ATL@@QAE@XZ 1000a4fc f i BillDispenserImpl.obj
 0001:000094fc       ??1?$IConnectionPointImpl@VCOPOSBillDispenser@@$1?DIID__IOPOSBillDispenserEvents@@3U_GUID@@BVCComDynamicUnkArray@ATL@@@ATL@@QAE@XZ 1000a4fc f i BillDispenserImpl.obj
 0001:00009539       ??1CComControlBase@ATL@@UAE@XZ 1000a539 f i BillDispenserImpl.obj
 0001:0000959c       ??1COPOSBillDispenser@@UAE@XZ 1000a59c f   BillDispenserImpl.obj
 0001:000095e4       ?AdjustCashCounts@COPOSBillDispenser@@UAGJPA_WPAJ@Z 1000a5e4 f   BillDispenserImpl.obj
 0001:0000963b       ?CheckHealth@COPOSBillDispenser@@UAGJJPAJ@Z 1000a63b f   BillDispenserImpl.obj
 0001:0000968a       ?ClaimDevice@COPOSBillDispenser@@UAGJJPAJ@Z 1000a68a f   BillDispenserImpl.obj
 0001:000096ff       ?Close@COPOSBillDispenser@@UAGJPAJ@Z 1000a6ff f   BillDispenserImpl.obj
 0001:0000976d       ?CompareFirmwareVersion@COPOSBillDispenser@@UAGJPA_WPAJ1@Z 1000a76d f   BillDispenserImpl.obj
 0001:000097ed       ?DirectIO@COPOSBillDispenser@@UAGJJPAJPAPA_W0@Z 1000a7ed f   BillDispenserImpl.obj
 0001:0000989b       ?DispenseCash@COPOSBillDispenser@@UAGJPA_WPAJ@Z 1000a89b f   BillDispenserImpl.obj
 0001:000098f2       ?DoInvoke@COPOSBillDispenser@@IAEJJPAVOposVariant@@IHPAJ_N@Z 1000a8f2 f   BillDispenserImpl.obj
 0001:000099ce       ?EventClose@COPOSBillDispenser@@IAEXXZ 1000a9ce f i BillDispenserImpl.obj
 0001:00009a01       ?EventInit@COPOSBillDispenser@@IAEJXZ 1000aa01 f i BillDispenserImpl.obj
 0001:00009acd       ?EventUninit@COPOSBillDispenser@@IAEXXZ 1000aacd f i BillDispenserImpl.obj
 0001:00009b1f       ?EventWindowProc@COPOSBillDispenser@@IAGJIIJ@Z 1000ab1f f i BillDispenserImpl.obj
 0001:00009b96       ?FinalConstruct@COPOSBillDispenser@@QAEJXZ 1000ab96 f   BillDispenserImpl.obj
 0001:00009bcf       ?FireEventCleanup@COPOSBillDispenser@@IAEXXZ 1000abcf f i BillDispenserImpl.obj
 0001:00009be5       ?FireEventSetup@COPOSBillDispenser@@IAE_NXZ 1000abe5 f i BillDispenserImpl.obj
 0001:00009c19       ?FreezeEvents@COPOSBillDispenser@@MAGJH@Z 1000ac19 f   BillDispenserImpl.obj
 0001:00009c6a       ?GetOposProp@COPOSBillDispenser@@IAEJJPAFJ@Z 1000ac6a f   BillDispenserImpl.obj
 0001:00009c8d       ?GetOposProp@COPOSBillDispenser@@IAEJJPAJJ@Z 1000ac8d f   BillDispenserImpl.obj
 0001:00009d5c       ?GetOposProp@COPOSBillDispenser@@IAEJJPAPA_WJ@Z 1000ad5c f   BillDispenserImpl.obj
 0001:00009e38       ?OnDraw@COPOSBillDispenser@@MAEJAAUATL_DRAWINFO@@@Z 1000ae38 f   BillDispenserImpl.obj
 0001:00009ed8       ?Open@COPOSBillDispenser@@UAGJPA_WPAJ@Z 1000aed8 f   BillDispenserImpl.obj
 0001:0000a71a       ?ReadCashCounts@COPOSBillDispenser@@UAGJPAPA_WPAFPAJ@Z 1000b71a f   BillDispenserImpl.obj
 0001:0000a79a       ?ReleaseDevice@COPOSBillDispenser@@UAGJPAJ@Z 1000b79a f   BillDispenserImpl.obj
 0001:0000a7e9       ?ResetStatistics@COPOSBillDispenser@@UAGJPA_WPAJ@Z 1000b7e9 f   BillDispenserImpl.obj
 0001:0000a840       ?RetrieveStatistics@COPOSBillDispenser@@UAGJPAPA_WPAJ@Z 1000b840 f   BillDispenserImpl.obj
 0001:0000a897       ?SOProcessID@COPOSBillDispenser@@UAGJPAJ@Z 1000b897 f   BillDispenserImpl.obj
 0001:0000a8ab       ?SetCOFreezeEvents@COPOSBillDispenser@@IAEXF@Z 1000b8ab f   BillDispenserImpl.obj
 0001:0000a94b       ?SetOposProp@COPOSBillDispenser@@IAEJJJJ@Z 1000b94b f   BillDispenserImpl.obj
 0001:0000aa42       ?SetOposProp@COPOSBillDispenser@@IAEJJPA_WJ@Z 1000ba42 f   BillDispenserImpl.obj
 0001:0000ab43       ?UpdateFirmware@COPOSBillDispenser@@UAGJPA_WPAJ@Z 1000bb43 f   BillDispenserImpl.obj
 0001:0000ab9a       ?UpdateStatistics@COPOSBillDispenser@@UAGJPA_WPAJ@Z 1000bb9a f   BillDispenserImpl.obj
 0001:0000abf1       ?get_AsyncMode@COPOSBillDispenser@@UAGJPAF@Z 1000bbf1 f   BillDispenserImpl.obj
 0001:0000ac0a       ?get_AsyncResultCode@COPOSBillDispenser@@UAGJPAJ@Z 1000bc0a f   BillDispenserImpl.obj
 0001:0000ac23       ?get_AsyncResultCodeExtended@COPOSBillDispenser@@UAGJPAJ@Z 1000bc23 f   BillDispenserImpl.obj
 0001:0000ac3c       ?get_BinaryConversion@COPOSBillDispenser@@UAGJPAJ@Z 1000bc3c f   BillDispenserImpl.obj
 0001:0000ac52       ?get_CapCompareFirmwareVersion@COPOSBillDispenser@@UAGJPAF@Z 1000bc52 f   BillDispenserImpl.obj
 0001:0000ac6b       ?get_CapDiscrepancy@COPOSBillDispenser@@UAGJPAF@Z 1000bc6b f   BillDispenserImpl.obj
 0001:0000ac84       ?get_CapEmptySensor@COPOSBillDispenser@@UAGJPAF@Z 1000bc84 f   BillDispenserImpl.obj
 0001:0000ac9d       ?get_CapJamSensor@COPOSBillDispenser@@UAGJPAF@Z 1000bc9d f   BillDispenserImpl.obj
 0001:0000acb6       ?get_CapNearEmptySensor@COPOSBillDispenser@@UAGJPAF@Z 1000bcb6 f   BillDispenserImpl.obj
 0001:0000accf       ?get_CapPowerReporting@COPOSBillDispenser@@UAGJPAJ@Z 1000bccf f   BillDispenserImpl.obj
 0001:0000ace8       ?get_CapStatisticsReporting@COPOSBillDispenser@@UAGJPAF@Z 1000bce8 f   BillDispenserImpl.obj
 0001:0000ad01       ?get_CapUpdateFirmware@COPOSBillDispenser@@UAGJPAF@Z 1000bd01 f   BillDispenserImpl.obj
 0001:0000ad1a       ?get_CapUpdateStatistics@COPOSBillDispenser@@UAGJPAF@Z 1000bd1a f   BillDispenserImpl.obj
 0001:0000ad33       ?get_CheckHealthText@COPOSBillDispenser@@UAGJPAPA_W@Z 1000bd33 f   BillDispenserImpl.obj
 0001:0000ad4c       ?get_Claimed@COPOSBillDispenser@@UAGJPAF@Z 1000bd4c f   BillDispenserImpl.obj
 0001:0000ad62       ?get_ControlObjectDescription@COPOSBillDispenser@@UAGJPAPA_W@Z 1000bd62 f   BillDispenserImpl.obj
 0001:0000adb0       ?get_ControlObjectVersion@COPOSBillDispenser@@UAGJPAJ@Z 1000bdb0 f   BillDispenserImpl.obj
 0001:0000adc3       ?get_CurrencyCashList@COPOSBillDispenser@@UAGJPAPA_W@Z 1000bdc3 f   BillDispenserImpl.obj
 0001:0000addc       ?get_CurrencyCode@COPOSBillDispenser@@UAGJPAPA_W@Z 1000bddc f   BillDispenserImpl.obj
 0001:0000adf5       ?get_CurrencyCodeList@COPOSBillDispenser@@UAGJPAPA_W@Z 1000bdf5 f   BillDispenserImpl.obj
 0001:0000ae0e       ?get_CurrentExit@COPOSBillDispenser@@UAGJPAJ@Z 1000be0e f   BillDispenserImpl.obj
 0001:0000ae27       ?get_DeviceDescription@COPOSBillDispenser@@UAGJPAPA_W@Z 1000be27 f   BillDispenserImpl.obj
 0001:0000ae40       ?get_DeviceEnabled@COPOSBillDispenser@@UAGJPAF@Z 1000be40 f   BillDispenserImpl.obj
 0001:0000ae56       ?get_DeviceExits@COPOSBillDispenser@@UAGJPAJ@Z 1000be56 f   BillDispenserImpl.obj
 0001:0000ae6f       ?get_DeviceName@COPOSBillDispenser@@UAGJPAPA_W@Z 1000be6f f   BillDispenserImpl.obj
 0001:0000ae88       ?get_DeviceStatus@COPOSBillDispenser@@UAGJPAJ@Z 1000be88 f   BillDispenserImpl.obj
 0001:0000aea1       ?get_ExitCashList@COPOSBillDispenser@@UAGJPAPA_W@Z 1000bea1 f   BillDispenserImpl.obj
 0001:0000aeba       ?get_FreezeEvents@COPOSBillDispenser@@UAGJPAF@Z 1000beba f   BillDispenserImpl.obj
 0001:0000aed0       ?get_OpenResult@COPOSBillDispenser@@UAGJPAJ@Z 1000bed0 f   BillDispenserImpl.obj
 0001:0000aee7       ?get_PowerNotify@COPOSBillDispenser@@UAGJPAJ@Z 1000bee7 f   BillDispenserImpl.obj
 0001:0000aefd       ?get_PowerState@COPOSBillDispenser@@UAGJPAJ@Z 1000befd f   BillDispenserImpl.obj
 0001:0000af13       ?get_ResultCode@COPOSBillDispenser@@UAGJPAJ@Z 1000bf13 f   BillDispenserImpl.obj
 0001:0000af51       ?get_ResultCodeExtended@COPOSBillDispenser@@UAGJPAJ@Z 1000bf51 f   BillDispenserImpl.obj
 0001:0000af67       ?get_ServiceObjectDescription@COPOSBillDispenser@@UAGJPAPA_W@Z 1000bf67 f   BillDispenserImpl.obj
 0001:0000af80       ?get_ServiceObjectVersion@COPOSBillDispenser@@UAGJPAJ@Z 1000bf80 f   BillDispenserImpl.obj
 0001:0000af96       ?get_State@COPOSBillDispenser@@UAGJPAJ@Z 1000bf96 f   BillDispenserImpl.obj
 0001:0000afc2       ?put_AsyncMode@COPOSBillDispenser@@UAGJF@Z 1000bfc2 f   BillDispenserImpl.obj
 0001:0000afe2       ?put_BinaryConversion@COPOSBillDispenser@@UAGJJ@Z 1000bfe2 f   BillDispenserImpl.obj
 0001:0000aff8       ?put_CurrencyCode@COPOSBillDispenser@@UAGJPA_W@Z 1000bff8 f   BillDispenserImpl.obj
 0001:0000b011       ?put_CurrentExit@COPOSBillDispenser@@UAGJJ@Z 1000c011 f   BillDispenserImpl.obj
 0001:0000b02a       ?put_DeviceEnabled@COPOSBillDispenser@@UAGJF@Z 1000c02a f   BillDispenserImpl.obj
 0001:0000b047       ?put_FreezeEvents@COPOSBillDispenser@@UAGJF@Z 1000c047 f   BillDispenserImpl.obj
 0001:0000b093       ?put_PowerNotify@COPOSBillDispenser@@UAGJJ@Z 1000c093 f   BillDispenserImpl.obj
 0001:0000b0a9       ?s_EventWindowProc@COPOSBillDispenser@@KGJPAUHWND__@@IIJ@Z 1000c0a9 f i BillDispenserImpl.obj
 0001:0000b0fb       ??_U@YAPAXI@Z              1000c0fb f   LIBCMT:new_array.obj
 0001:0000b104       ??3@YAXPAXI@Z              1000c104 f   LIBCMT:delete_scalar_size.obj
 0001:0000b112       ??_V@YAXPAX@Z              1000c112 f   LIBCMT:delete_array.obj
 0001:0000b117       ??_V@YAXPAXI@Z             1000c117 f   LIBCMT:delete_array_size.obj
 0001:0000b169       ___scrt_acquire_startup_lock 1000c169 f   LIBCMT:utility.obj
 0001:0000b19b       ___scrt_dllmain_after_initialize_c 1000c19b f   LIBCMT:utility.obj
 0001:0000b1c6       ___scrt_dllmain_before_initialize_c 1000c1c6 f   LIBCMT:utility.obj
 0001:0000b1d4       ___scrt_dllmain_crt_thread_attach 1000c1d4 f   LIBCMT:utility.obj
 0001:0000b1f3       ___scrt_dllmain_crt_thread_detach 1000c1f3 f   LIBCMT:utility.obj
 0001:0000b200       ___scrt_dllmain_exception_filter 1000c200 f   LIBCMT:utility.obj
 0001:0000b234       ___scrt_dllmain_uninitialize_c 1000c234 f   LIBCMT:utility.obj
 0001:0000b257       ___scrt_dllmain_uninitialize_critical 1000c257 f   LIBCMT:utility.obj
 0001:0000b264       ___scrt_initialize_crt     1000c264 f   LIBCMT:utility.obj
 0001:0000b29d       ___scrt_initialize_onexit_tables 1000c29d f   LIBCMT:utility.obj
 0001:0000b324       ___scrt_is_nonwritable_in_current_image 1000c324 f   LIBCMT:utility.obj
 0001:0000b3b8       ___scrt_release_startup_lock 1000c3b8 f   LIBCMT:utility.obj
 0001:0000b3d5       ___scrt_uninitialize_crt   1000c3d5 f   LIBCMT:utility.obj
 0001:0000b3fd       __onexit                   1000c3fd f   LIBCMT:utility.obj
 0001:0000b42a       _atexit                    1000c42a f   LIBCMT:utility.obj
 0001:0000b43f       ??3@YAXPAX@Z               1000c43f f   LIBCMT:delete_scalar.obj
 0001:0000b509       __Init_thread_footer       1000c509 f   LIBCMT:thread_safe_statics.obj
 0001:0000b553       __Init_thread_header       1000c553 f   LIBCMT:thread_safe_statics.obj
 0001:0000b5a5       __Init_thread_notify       1000c5a5 f   LIBCMT:thread_safe_statics.obj
 0001:0000b5db       __Init_thread_wait         1000c5db f   LIBCMT:thread_safe_statics.obj
 0001:0000b629       ___raise_securityfailure   1000c629 f   LIBCMT:gs_report.obj
 0001:0000b651       ___report_gsfailure        1000c651 f   LIBCMT:gs_report.obj
 0001:0000b74a       ___report_rangecheckfailure 1000c74a f   LIBCMT:gs_report.obj
 0001:0000b756       ___report_securityfailure  1000c756 f   LIBCMT:gs_report.obj
 0001:0000b824       ??2@YAPAXIABUnothrow_t@std@@@Z 1000c824 f   LIBCMT:new_scalar_nothrow.obj
 0001:0000b874       ??_U@YAPAXIABUnothrow_t@std@@@Z 1000c874 f   LIBCMT:new_array_nothrow.obj
 0001:0000b87d       @__security_check_cookie@4 1000c87d f   LIBCMT:secchk.obj
 0001:0000b890       __SEH_prolog4_GS           1000c890 f   LIBCMT:sehprolg4gs.obj
 0001:0000b8d9       __SEH_epilog4_GS           1000c8d9 f   LIBCMT:sehprolg4gs.obj
 0001:0000b8f0       __alloca_probe_16          1000c8f0 f   LIBCMT:alloca16.obj
 0001:0000b906       __alloca_probe_8           1000c906     LIBCMT:alloca16.obj
 0001:0000b920       __alloca_probe             1000c920 f   LIBCMT:chkstk.obj
 0001:0000b920       __chkstk                   1000c920 f   LIBCMT:chkstk.obj
 0001:0000bc8d       __DllMainCRTStartup@12     1000cc8d f   LIBCMT:dll_dllmain.obj
 0001:0000bcb0       ??2@YAPAXI@Z               1000ccb0 f   LIBCMT:new_scalar.obj
 0001:0000bce0       ___isa_available_init      1000cce0 f   LIBCMT:cpu_disp.obj
 0001:0000beb0       ___scrt_is_ucrt_dll_in_use 1000ceb0 f   LIBCMT:ucrt_detection.obj
 0001:0000bebc       ___scrt_fastfail           1000cebc f   LIBCMT:utility_desktop.obj
 0001:0000bfd6       __crt_debugger_hook        1000cfd6 f   LIBCMT:utility_desktop.obj
 0001:0000bfe0       __SEH_prolog4              1000cfe0 f   LIBCMT:sehprolg4.obj
 0001:0000c026       __SEH_epilog4              1000d026 f   LIBCMT:sehprolg4.obj
 0001:0000c03b       @_guard_check_icall_nop@4  1000d03b f i LIBCMT:guard_support.obj
 0001:0000c089       ___security_init_cookie    1000d089 f   LIBCMT:gs_support.obj
 0001:0000c0d4       ?__scrt_initialize_type_info@@YAXXZ 1000d0d4 f   LIBCMT:tncleanup.obj
 0001:0000c0e0       ?__scrt_uninitialize_type_info@@YAXXZ 1000d0e0 f   LIBCMT:tncleanup.obj
 0001:0000c0ec       ___local_stdio_scanf_options 1000d0ec f i LIBCMT:default_local_stdio_options.obj
 0001:0000c0f2       ___scrt_initialize_default_local_stdio_options 1000d0f2 f   LIBCMT:default_local_stdio_options.obj
 0001:0000c10f       ___scrt_get_dyn_tls_init_callback 1000d10f f   LIBCMT:dyn_tls_init.obj
 0001:0000c115       __RTC_Initialize           1000d115 f   LIBCMT:initsect.obj
 0001:0000c141       __RTC_Terminate            1000d141 f   LIBCMT:initsect.obj
 0001:0000c16d       ??0bad_alloc@std@@QAE@ABV01@@Z 1000d16d f i LIBCMT:throw_bad_alloc.obj
 0001:0000c188       ??0bad_alloc@std@@QAE@XZ   1000d188 f i LIBCMT:throw_bad_alloc.obj
 0001:0000c1a0       ??0bad_array_new_length@std@@QAE@ABV01@@Z 1000d1a0 f i LIBCMT:throw_bad_alloc.obj
 0001:0000c1bb       ??0bad_array_new_length@std@@QAE@XZ 1000d1bb f i LIBCMT:throw_bad_alloc.obj
 0001:0000c1d3       ??0exception@std@@QAE@ABV01@@Z 1000d1d3 f i LIBCMT:throw_bad_alloc.obj
 0001:0000c1ff       ??1bad_array_new_length@std@@UAE@XZ 1000d1ff f i LIBCMT:throw_bad_alloc.obj
 0001:0000c1ff       ??1bad_alloc@std@@UAE@XZ   1000d1ff f i LIBCMT:throw_bad_alloc.obj
 0001:0000c1ff       ??1bad_exception@std@@UAE@XZ 1000d1ff f i libvcruntime:frame.obj
 0001:0000c210       ??_Gexception@std@@UAEPAXI@Z 1000d210 f i LIBCMT:throw_bad_alloc.obj
 0001:0000c210       ??_Gbad_alloc@std@@UAEPAXI@Z 1000d210 f i LIBCMT:throw_bad_alloc.obj
 0001:0000c210       ??_Eexception@std@@UAEPAXI@Z 1000d210 f i LIBCMT:throw_bad_alloc.obj
 0001:0000c210       ??_Gbad_exception@std@@UAEPAXI@Z 1000d210 f i libvcruntime:frame.obj
 0001:0000c210       ??_Ebad_alloc@std@@UAEPAXI@Z 1000d210 f i LIBCMT:throw_bad_alloc.obj
 0001:0000c210       ??_Ebad_exception@std@@UAEPAXI@Z 1000d210 f i libvcruntime:frame.obj
 0001:0000c210       ??_Gbad_array_new_length@std@@UAEPAXI@Z 1000d210 f i LIBCMT:throw_bad_alloc.obj
 0001:0000c210       ??_Ebad_array_new_length@std@@UAEPAXI@Z 1000d210 f i LIBCMT:throw_bad_alloc.obj
 0001:0000c23d       ?__scrt_throw_std_bad_alloc@@YAXXZ 1000d23d f   LIBCMT:throw_bad_alloc.obj
 0001:0000c25a       ?__scrt_throw_std_bad_array_new_length@@YAXXZ 1000d25a f   LIBCMT:throw_bad_alloc.obj
 0001:0000c277       ?what@exception@std@@UBEPBDXZ 1000d277 f i LIBCMT:throw_bad_alloc.obj
 0001:0000c284       ??_Etype_info@@UAEPAXI@Z   1000d284 f i LIBCMT:std_type_info_static.obj
 0001:0000c284       ??_Gtype_info@@UAEPAXI@Z   1000d284 f i LIBCMT:std_type_info_static.obj
 0001:0000c2a7       ??0CAtlBaseModule@ATL@@QAE@XZ 1000d2a7 f   atls:atlbase.obj
 0001:0000c2fa       ??0_ATL_BASE_MODULE70@ATL@@QAE@XZ 1000d2fa f i atls:atlbase.obj
 0001:0000c31d       ??1CAtlBaseModule@ATL@@QAE@XZ 1000d31d f   atls:atlbase.obj
 0001:0000c40a       ?Init@_stdcallthunk@ATL@@QAEHKPAX@Z 1000d40a f i atls:atlthunk.obj
 0001:0000c43f       ?__AllocStdCallThunk_cmn@@YAPAXXZ 1000d43f f   atls:atlthunk.obj
 0001:0000c505       ?__FreeStdCallThunk_cmn@@YAXPAX@Z 1000d505 f   atls:atlthunk.obj
 0001:0000c5a0       _AtlThunk_AllocateData@0   1000d5a0 f   atls:atlthunk.obj
 0001:0000c605       _AtlThunk_DataToCode@4     1000d605 f   atls:atlthunk.obj
 0001:0000c64c       _AtlThunk_FreeData@4       1000d64c f   atls:atlthunk.obj
 0001:0000c6a2       _AtlThunk_InitData@12      1000d6a2 f   atls:atlthunk.obj
 0001:0000c6f1       __get_purecall_handler     1000d6f1 f   libvcruntime:purevirt.obj
 0001:0000c6f7       __purecall                 1000d6f7 f   libvcruntime:purevirt.obj
 0001:0000c713       _wcsstr                    1000d713 f   libvcruntime:wcsstr.obj
 0001:0000c9c0       __except_handler4          1000d9c0 f   libvcruntime:chandler4.obj
 0001:0000cb1e       _memcmp                    1000db1e f   libvcruntime:memcmp.obj
 0001:0000da30       _memcpy                    1000ea30 f   libvcruntime:memcpy.obj
 0001:0000dfb0       _memset                    1000efb0 f   libvcruntime:memset.obj
 0001:0000e10a       ___vcrt_initialize         1000f10a f   libvcruntime:initialization.obj
 0001:0000e129       ___vcrt_thread_attach      1000f129 f   libvcruntime:initialization.obj
 0001:0000e134       ___vcrt_thread_detach      1000f134 f   libvcruntime:initialization.obj
 0001:0000e13f       ___vcrt_uninitialize       1000f13f f   libvcruntime:initialization.obj
 0001:0000e156       ___vcrt_uninitialize_critical 1000f156 f   libvcruntime:initialization.obj
 0001:0000e15e       ?GetRangeOfTrysToCheck@__FrameHandler3@@SA?AU?$pair@Viterator@TryBlockMap@__FrameHandler3@@V123@@std@@AAVTryBlockMap@1@HPAXPBU_s_FuncInfo@@H@Z 1000f15e f   libvcruntime:trnsctrl.obj
 0001:0000e1ce       ?_CallCatchBlock2@@YAPAXPAUEHRegistrationNode@@PBU_s_FuncInfo@@PAXHK@Z 1000f1ce f   libvcruntime:trnsctrl.obj
 0001:0000e22c       ?_CallSETranslator@@YAHPAUEHExceptionRecord@@PAUEHRegistrationNode@@PAX2PBU_s_FuncInfo@@H1@Z 1000f22c f   libvcruntime:trnsctrl.obj
 0001:0000e312       ?_JumpToContinuation@@YGXPAXPAUEHRegistrationNode@@@Z 1000f312 f   libvcruntime:trnsctrl.obj
 0001:0000e342       ?_UnwindNestedFrames@@YGXPAUEHRegistrationNode@@PAUEHExceptionRecord@@@Z 1000f342 f   libvcruntime:trnsctrl.obj
 0001:0000e395       __CatchGuardHandler        1000f395 f   libvcruntime:trnsctrl.obj
 0001:0000e3c6       __CreateFrameInfo          1000f3c6 f   libvcruntime:trnsctrl.obj
 0001:0000e3ea       __FindAndUnlinkFrame       1000f3ea f   libvcruntime:trnsctrl.obj
 0001:0000e432       __TranslatorGuardHandler   1000f432 f   libvcruntime:trnsctrl.obj
 0001:0000e4cf       ___CxxFrameHandler3        1000f4cf f   libvcruntime:trnsctrl.obj
 0001:0000e505       ___DestructExceptionObject 1000f505 f   libvcruntime:ehhelpers.obj
 0001:0000e5a6       ?_CallMemberFunction0@@YGXQAX0@Z 1000f5a6 f i libvcruntime:ehhelpers.obj
 0001:0000e60b       __IsExceptionObjectToBeDestroyed 1000f60b f   libvcruntime:ehhelpers.obj
 0001:0000e631       ___AdjustPointer           1000f631 f   libvcruntime:ehhelpers.obj
 0001:0000e656       ___FrameUnwindFilter       1000f656 f   libvcruntime:ehhelpers.obj
 0001:0000e6ac       ___std_type_info_compare   1000f6ac f   libvcruntime:std_type_info.obj
 0001:0000e6e8       ___std_type_info_destroy_list 1000f6e8 f   libvcruntime:std_type_info.obj
 0001:0000e70b       ___std_exception_copy      1000f70b f   libvcruntime:std_exception.obj
 0001:0000e76e       ___std_exception_destroy   1000f76e f   libvcruntime:std_exception.obj
 0001:0000e78d       __CxxThrowException@8      1000f78d f   libvcruntime:throw.obj
 0001:0000e800       _memmove                   1000f800 f   libvcruntime:memmove.obj
 0001:0000ed80       __local_unwind4            1000fd80 f   libvcruntime:exsup4.obj
 0001:0000ee58       __seh_longjmp_unwind4@4    1000fe58 f   libvcruntime:exsup4.obj
 0001:0000ee80       @_EH4_CallFilterFunc@8     1000fe80 f   libvcruntime:exsup4.obj
 0001:0000ee98       @_EH4_TransferToHandler@8  1000fe98 f   libvcruntime:exsup4.obj
 0001:0000eeb4       @_EH4_GlobalUnwind2@8      1000feb4 f   libvcruntime:exsup4.obj
 0001:0000eed0       @_EH4_LocalUnwind@16       1000fed0 f   libvcruntime:exsup4.obj
 0001:0000eee7       ___except_validate_context_record 1000fee7 f   libvcruntime:jbcxrval.obj
 0001:0000ef17       ___except_validate_jump_buffer 1000ff17 f   libvcruntime:jbcxrval.obj
 0001:0000ef44       ___vcrt_freefls@4          1000ff44 f   libvcruntime:per_thread_data.obj
 0001:0000ef60       ___vcrt_freeptd            1000ff60 f   libvcruntime:per_thread_data.obj
 0001:0000ef96       ___vcrt_getptd             1000ff96 f   libvcruntime:per_thread_data.obj
 0001:0000efa4       ___vcrt_getptd_noexit      1000ffa4 f   libvcruntime:per_thread_data.obj
 0001:0000f036       ___vcrt_initialize_ptd     10010036 f   libvcruntime:per_thread_data.obj
 0001:0000f069       ___vcrt_uninitialize_ptd   10010069 f   libvcruntime:per_thread_data.obj
 0001:0000f084       ___vcrt_initialize_locks   10010084 f   libvcruntime:locks.obj
 0001:0000f0c0       ___vcrt_uninitialize_locks 100100c0 f   libvcruntime:locks.obj
 0001:0000f832       ??$TypeMatchHelper@V__FrameHandler3@@@@YAHPBU_s_HandlerType@@PBU_s_CatchableType@@PBU_s_ThrowInfo@@@Z 10010832 f i libvcruntime:frame.obj
 0001:0000f8c0       ??$__InternalCxxFrameHandler@V__FrameHandler3@@@@YA?AW4_EXCEPTION_DISPOSITION@@PAUEHExceptionRecord@@PAUEHRegistrationNode@@PAU_CONTEXT@@PAXPBU_s_FuncInfo@@H1E@Z 100108c0 f i libvcruntime:frame.obj
 0001:0000f9c2       ??0bad_exception@std@@QAE@ABV01@@Z 100109c2 f i libvcruntime:frame.obj
 0001:0000f9dd       ??0bad_exception@std@@QAE@XZ 100109dd f i libvcruntime:frame.obj
 0001:0000f9f5       ??8type_info@@QBE_NABV0@@Z 100109f5 f i libvcruntime:frame.obj
 0001:0000fc5c       ?FrameUnwindToEmptyState@__FrameHandler3@@SAXPAUEHRegistrationNode@@PAXPBU_s_FuncInfo@@@Z 10010c5c f   libvcruntime:frame.obj
 0001:0000fc74       ?FrameUnwindToState@__FrameHandler3@@SAXPAUEHRegistrationNode@@PAXPBU_s_FuncInfo@@H@Z 10010c74 f   libvcruntime:frame.obj
 0001:0000fdf6       ?_CallMemberFunction1@@YGXQAX00@Z 10010df6 f i libvcruntime:frame.obj
 0001:0000fe06       ?_CallMemberFunction2@@YGXQAX00H@Z 10010e06 f i libvcruntime:frame.obj
 0001:0000fe19       ?getESTypes@__FrameHandler3@@SAPBU_s_ESTypeList@@PBU_s_FuncInfo@@@Z 10010e19 f i libvcruntime:frame.obj
 0001:0000fe30       __CallSettingFrame@12      10010e30 f   libvcruntime:lowhelpr.obj
 0001:0000fe57       __NLG_Return               10010e57     libvcruntime:lowhelpr.obj
 0001:0000fe80       __global_unwind2           10010e80 f   libvcruntime:exsup.obj
 0001:0000fee6       __local_unwind2            10010ee6 f   libvcruntime:exsup.obj
 0001:0000ff6a       __abnormal_termination     10010f6a f   libvcruntime:exsup.obj
 0001:0000ff90       __NLG_Notify1              10010f90 f   libvcruntime:exsup.obj
 0001:0000ff9c       __NLG_Notify               10010f9c f   libvcruntime:exsup.obj
 0001:0000ffb3       __NLG_Dispatch2            10010fb3     libvcruntime:exsup.obj
 0001:0000ffb3       __NLG_Dispatch             10010fb3     libvcruntime:exsup.obj
 0001:0000ffbb       __NLG_Call                 10010fbb f   libvcruntime:exsup.obj
 0001:0000ffbd       __NLG_Return2              10010fbd     libvcruntime:exsup.obj
 0001:000100a1       ___vcrt_FlsAlloc           100110a1 f   libvcruntime:winapi_downlevel.obj
 0001:000100dc       ___vcrt_FlsFree            100110dc f   libvcruntime:winapi_downlevel.obj
 0001:00010117       ___vcrt_FlsGetValue        10011117 f   libvcruntime:winapi_downlevel.obj
 0001:00010152       ___vcrt_FlsSetValue        10011152 f   libvcruntime:winapi_downlevel.obj
 0001:00010190       ___vcrt_InitializeCriticalSectionEx 10011190 f   libvcruntime:winapi_downlevel.obj
 0001:000101d7       _unexpected                100111d7 f   libvcruntime:unexpected.obj
 0001:000101f4       ?GetCurrentState@__FrameHandler3@@SAHPAUEHRegistrationNode@@PAXPBU_s_FuncInfo@@@Z 100111f4 f   libvcruntime:ehstate.obj
 0001:00010211       ?SetState@__FrameHandler3@@SAXPAUEHRegistrationNode@@PBU_s_FuncInfo@@H@Z 10011211 f   libvcruntime:ehstate.obj
 0001:0001021f       _free                      1001121f f   libucrt:free.obj
 0001:0001023a       ___acrt_call_reportfault   1001123a f   libucrt:invalid_parameter.obj
 0001:00010373       ___acrt_initialize_invalid_parameter_handler 10011373 f   libucrt:invalid_parameter.obj
 0001:00010382       __invalid_parameter        10011382 f   libucrt:invalid_parameter.obj
 0001:000103e6       __invalid_parameter_noinfo 100113e6 f   libucrt:invalid_parameter.obj
 0001:000103f6       __invoke_watson            100113f6 f   libucrt:invalid_parameter.obj
 0001:0001042a       ___acrt_errno_from_os_error 1001142a f   libucrt:errno.obj
 0001:0001046d       ___acrt_errno_map_os_error 1001146d f   libucrt:errno.obj
 0001:00010490       ___doserrno                10011490 f   libucrt:errno.obj
 0001:000104a3       __errno                    100114a3 f   libucrt:errno.obj
 0001:000104b6       _calloc                    100114b6 f   libucrt:calloc.obj
 0001:000104c1       _malloc                    100114c1 f   libucrt:malloc.obj
 0001:000104cc       __recalloc                 100114cc f   libucrt:recalloc.obj
 0001:000104d7       __recalloc_base            100114d7 f   libucrt:recalloc.obj
 0001:00010544       __resetstkoflw             10011544 f   libucrt:resetstk.obj
 0001:00010609       _wcscat_s                  10011609 f   libucrt:wcscat_s.obj
 0001:0001067e       _wcscpy_s                  1001167e f   libucrt:wcscpy_s.obj
 0001:000107ad       _wcsncpy_s                 100117ad f   libucrt:wcsncpy_s.obj
 0001:000109b9       ??$count@D@formatting_buffer@__crt_stdio_output@@QBEIXZ 100119b9 f i libucrt:output.obj
 0001:000109d1       ??$count@_W@formatting_buffer@__crt_stdio_output@@QBEIXZ 100119d1 f i libucrt:output.obj
 0001:000109ea       ??$ensure_buffer_is_big_enough@D@formatting_buffer@__crt_stdio_output@@QAE_NI@Z 100119ea f i libucrt:output.obj
 0001:00010a67       ??$ensure_buffer_is_big_enough@_W@formatting_buffer@__crt_stdio_output@@QAE_NI@Z 10011a67 f i libucrt:output.obj
 0001:00010ae5       ??$is_wide_character_specifier@_W@__crt_stdio_output@@YA_N_K_WW4length_modifier@0@@Z 10011ae5 f i libucrt:output.obj
 0001:00010b33       ??$scratch_data@D@formatting_buffer@__crt_stdio_output@@QAEPADXZ 10011b33 f i libucrt:output.obj
 0001:00010b51       ??$type_case_integer_parse_into_buffer@I@?$output_processor@_WV?$string_output_adapter@_W@__crt_stdio_output@@V?$format_validation_base@_WV?$string_output_adapter@_W@__crt_stdio_output@@@2@@__crt_stdio_output@@AAEXII_N@Z 10011b51 f i libucrt:output.obj
 0001:00010bd8       ??$type_case_integer_parse_into_buffer@_K@?$output_processor@_WV?$string_output_adapter@_W@__crt_stdio_output@@V?$format_validation_base@_WV?$string_output_adapter@_W@__crt_stdio_output@@@2@@__crt_stdio_output@@AAEX_KI_N@Z 10011bd8 f i libucrt:output.obj
 0001:00010c7a       ??$write_multiple_characters@V?$string_output_adapter@_W@__crt_stdio_output@@D@__crt_stdio_output@@YAXABV?$string_output_adapter@_W@0@DHQAH@Z 10011c7a f i libucrt:output.obj
 0001:00010cab       ??0?$common_data@_W@__crt_stdio_output@@IAE@XZ 10011cab f i libucrt:output.obj
 0001:00010cf5       ??0?$output_adapter_data@_WV?$string_output_adapter@_W@__crt_stdio_output@@@__crt_stdio_output@@IAE@ABV?$string_output_adapter@_W@1@_KQB_WQAU__crt_locale_pointers@@QAD@Z 10011cf5 f i libucrt:output.obj
 0001:00010d31       ??0_LocaleUpdate@@QAE@QAU__crt_locale_pointers@@@Z 10011d31 f i libucrt:output.obj
 0001:00010db4       ??1formatting_buffer@__crt_stdio_output@@QAE@XZ 10011db4 f i libucrt:output.obj
 0001:00010dce       ??4?$__crt_unique_heap_ptr@DU__crt_internal_free_policy@@@@QAEAAV0@$$QAV0@@Z 10011dce f i libucrt:output.obj
 0001:00010e00       ?crop_zeroes@__crt_stdio_output@@YAXPADQAU__crt_locale_pointers@@@Z 10011e00 f i libucrt:output.obj
 0001:00010e81       ?find_next_state@?$output_processor@_WV?$string_output_adapter@_W@__crt_stdio_output@@V?$format_validation_base@_WV?$string_output_adapter@_W@__crt_stdio_output@@@2@@__crt_stdio_output@@ABE?AW4state@2@_WW432@@Z 10011e81 f i libucrt:output.obj
 0001:00010ec0       ?force_decimal_point@__crt_stdio_output@@YAXPADQAU__crt_locale_pointers@@@Z 10011ec0 f i libucrt:output.obj
 0001:00010f25       ?parse_int_from_format_string@?$output_processor@_WV?$string_output_adapter@_W@__crt_stdio_output@@V?$format_validation_base@_WV?$string_output_adapter@_W@__crt_stdio_output@@@2@@__crt_stdio_output@@AAE_NQAH@Z 10011f25 f i libucrt:output.obj
 0001:00010f9b       ?process@?$output_processor@_WV?$string_output_adapter@_W@__crt_stdio_output@@V?$format_validation_base@_WV?$string_output_adapter@_W@__crt_stdio_output@@@2@@__crt_stdio_output@@QAEHXZ 10011f9b f i libucrt:output.obj
 0001:000110c3       ?state_case_flag@?$output_processor@_WV?$string_output_adapter@_W@__crt_stdio_output@@V?$format_validation_base@_WV?$string_output_adapter@_W@__crt_stdio_output@@@2@@__crt_stdio_output@@AAE_NXZ 100120c3 f i libucrt:output.obj
 0001:00011100       ?state_case_normal@?$output_processor@_WV?$string_output_adapter@_W@__crt_stdio_output@@V?$format_validation_base@_WV?$string_output_adapter@_W@__crt_stdio_output@@@2@@__crt_stdio_output@@AAE_NXZ 10012100 f i libucrt:output.obj
 0001:0001111f       ?state_case_normal_common@?$output_processor@_WV?$string_output_adapter@_W@__crt_stdio_output@@V?$format_validation_base@_WV?$string_output_adapter@_W@__crt_stdio_output@@@2@@__crt_stdio_output@@AAE_NXZ 1001211f f i libucrt:output.obj
 0001:0001113a       ?state_case_precision@?$output_processor@_WV?$string_output_adapter@_W@__crt_stdio_output@@V?$format_validation_base@_WV?$string_output_adapter@_W@__crt_stdio_output@@@2@@__crt_stdio_output@@AAE_NXZ 1001213a f i libucrt:output.obj
 0001:00011161       ?state_case_size@?$output_processor@_WV?$string_output_adapter@_W@__crt_stdio_output@@V?$format_validation_base@_WV?$string_output_adapter@_W@__crt_stdio_output@@@2@@__crt_stdio_output@@AAE_NXZ 10012161 f i libucrt:output.obj
 0001:000112d9       ?state_case_type@?$output_processor@_WV?$string_output_adapter@_W@__crt_stdio_output@@V?$format_validation_base@_WV?$string_output_adapter@_W@__crt_stdio_output@@@2@@__crt_stdio_output@@AAE_NXZ 100122d9 f i libucrt:output.obj
 0001:00011536       ?state_case_width@?$output_processor@_WV?$string_output_adapter@_W@__crt_stdio_output@@V?$format_validation_base@_WV?$string_output_adapter@_W@__crt_stdio_output@@@2@@__crt_stdio_output@@AAE_NXZ 10012536 f i libucrt:output.obj
 0001:00011570       ?to_integer_size@__crt_stdio_output@@YAIW4length_modifier@1@@Z 10012570 f i libucrt:output.obj
 0001:000115cc       ?type_case_Z@?$output_processor@_WV?$string_output_adapter@_W@__crt_stdio_output@@V?$format_validation_base@_WV?$string_output_adapter@_W@__crt_stdio_output@@@2@@__crt_stdio_output@@AAE_NXZ 100125cc f i libucrt:output.obj
 0001:00011626       ?type_case_a@?$output_processor@_WV?$string_output_adapter@_W@__crt_stdio_output@@V?$format_validation_base@_WV?$string_output_adapter@_W@__crt_stdio_output@@@2@@__crt_stdio_output@@AAE_NXZ 10012626 f i libucrt:output.obj
 0001:0001178d       ?type_case_c_tchar@?$output_processor@_WV?$string_output_adapter@_W@__crt_stdio_output@@V?$format_validation_base@_WV?$string_output_adapter@_W@__crt_stdio_output@@@2@@__crt_stdio_output@@AAE_N_W@Z 1001278d f i libucrt:output.obj
 0001:00011823       ?type_case_integer@?$output_processor@_WV?$string_output_adapter@_W@__crt_stdio_output@@V?$format_validation_base@_WV?$string_output_adapter@_W@__crt_stdio_output@@@2@@__crt_stdio_output@@AAE_NI_N@Z 10012823 f i libucrt:output.obj
 0001:00011978       ?type_case_n@?$output_processor@_WV?$string_output_adapter@_W@__crt_stdio_output@@V?$format_validation_base@_WV?$string_output_adapter@_W@__crt_stdio_output@@@2@@__crt_stdio_output@@AAE_NXZ 10012978 f i libucrt:output.obj
 0001:000119ec       ?type_case_o@?$output_processor@_WV?$string_output_adapter@_W@__crt_stdio_output@@V?$format_validation_base@_WV?$string_output_adapter@_W@__crt_stdio_output@@@2@@__crt_stdio_output@@AAE_NXZ 100129ec f i libucrt:output.obj
 0001:00011a0b       ?type_case_p@?$output_processor@_WV?$string_output_adapter@_W@__crt_stdio_output@@V?$format_validation_base@_WV?$string_output_adapter@_W@__crt_stdio_output@@@2@@__crt_stdio_output@@AAE_NXZ 10012a0b f i libucrt:output.obj
 0001:00011a23       ?type_case_s@?$output_processor@_WV?$string_output_adapter@_W@__crt_stdio_output@@V?$format_validation_base@_WV?$string_output_adapter@_W@__crt_stdio_output@@@2@@__crt_stdio_output@@AAE_NXZ 10012a23 f i libucrt:output.obj
 0001:00011a96       ?type_case_s_compute_narrow_string_length@?$output_processor@_WV?$string_output_adapter@_W@__crt_stdio_output@@V?$format_validation_base@_WV?$string_output_adapter@_W@__crt_stdio_output@@@2@@__crt_stdio_output@@ABEHH_W@Z 10012a96 f i libucrt:output.obj
 0001:00011add       ?validate@?$c_string_character_source@_W@__crt_strtox@@QBE_NXZ 10012add f i libucrt:atox.obj
 0001:00011add       ?validate@?$string_output_adapter@_W@__crt_stdio_output@@QBE_NXZ 10012add f i libucrt:output.obj
 0001:00011af8       ?validate_and_update_state_at_end_of_format_string@?$format_validation_base@_WV?$string_output_adapter@_W@__crt_stdio_output@@@__crt_stdio_output@@IBE_NXZ 10012af8 f i libucrt:output.obj
 0001:00011b1a       ?write_character@?$string_output_adapter@_W@__crt_stdio_output@@QBE_N_WQAH@Z 10012b1a f i libucrt:output.obj
 0001:00011b5f       ?write_stored_string_tchar@?$output_processor@_WV?$string_output_adapter@_W@__crt_stdio_output@@V?$format_validation_base@_WV?$string_output_adapter@_W@__crt_stdio_output@@@2@@__crt_stdio_output@@AAE_N_W@Z 10012b5f f i libucrt:output.obj
 0001:00011bec       ?write_string@?$string_output_adapter@_W@__crt_stdio_output@@QBEXQB_WHQAHAAV__crt_deferred_errno_cache@@@Z 10012bec f i libucrt:output.obj
 0001:00011c5d       ___acrt_locale_get_ctype_array_value 10012c5d f i libucrt:output.obj
 0001:00011c7f       ___stdio_common_vswprintf_s 10012c7f f   libucrt:output.obj
 0001:00011ca3       __seh_filter_dll           10012ca3 f   libucrt:exception_filter.obj
 0001:00011cc3       __seh_filter_exe           10012cc3 f   libucrt:exception_filter.obj
 0001:00012091       ___acrt_initialize_thread_local_exit_callback 10013091 f   libucrt:exit.obj
 0001:000120a0       __cexit                    100130a0 f   libucrt:exit.obj
 0001:000120af       __exit                     100130af f   libucrt:exit.obj
 0001:000120c5       __is_c_termination_complete 100130c5 f   libucrt:exit.obj
 0001:00012376       ___acrt_allocate_buffer_for_argv 10013376 f   libucrt:argv_parsing.obj
 0001:000123c5       __configure_narrow_argv    100133c5 f   libucrt:argv_parsing.obj
 0001:00012522       ??$uninitialize@A6AXAAPAPAD@Z@?$dual_state_global@PAPAD@__crt_state_management@@QAEXA6AXAAPAPAD@Z@Z 10013522 f i libucrt:environment_initialization.obj
 0001:00012522       ??$uninitialize@A6AXAAPAPA_W@Z@?$dual_state_global@PAPA_W@__crt_state_management@@QAEXA6AXAAPAPA_W@Z@Z 10013522 f i libucrt:environment_initialization.obj
 0001:00012581       ___dcrt_uninitialize_environments_nolock 10013581 f   libucrt:environment_initialization.obj
 0001:000125b8       __initialize_narrow_environment 100135b8 f   libucrt:environment_initialization.obj
 0001:00012673       ??$__crt_fast_encode_pointer@PAP6AXXZ@@YAPAP6AXXZQAP6AXXZ@Z 10013673 f i libucrt:onexit.obj
 0001:00012673       ??$__crt_fast_encode_pointer@PAX@@YAPAXQAX@Z 10013673 f i libucrt:initialization.obj
 0001:00012673       ??$__crt_fast_encode_pointer@P6AHXZ@@YAP6AHXZQ6AHXZ@Z 10013673 f i libucrt:onexit.obj
 0001:00012895       __crt_atexit               10013895 f   libucrt:onexit.obj
 0001:000128ab       __execute_onexit_table     100138ab f   libucrt:onexit.obj
 0001:000128d8       __initialize_onexit_table  100138d8 f   libucrt:onexit.obj
 0001:00012901       __register_onexit_function 10013901 f   libucrt:onexit.obj
 0001:0001295b       ___acrt_uninitialize_command_line 1001395b f   libucrt:argv_data.obj
 0001:00012a32       ___acrt_initialize         10013a32 f   libucrt:initialization.obj
 0001:00012a44       ___acrt_thread_attach      10013a44 f   libucrt:initialization.obj
 0001:00012a4f       ___acrt_thread_detach      10013a4f f   libucrt:initialization.obj
 0001:00012a57       ___acrt_uninitialize       10013a57 f   libucrt:initialization.obj
 0001:00012a87       ___acrt_uninitialize_critical 10013a87 f   libucrt:initialization.obj
 0001:00012a99       __initterm                 10013a99 f   libucrt:initterm.obj
 0001:00012ade       __initterm_e               10013ade f   libucrt:initterm.obj
 0001:00012b0c       ___acrt_initialize_new_handler 10013b0c f   libucrt:new_handler.obj
 0001:00012b1b       __callnewh                 10013b1b f   libucrt:new_handler.obj
 0001:00012b48       __query_new_handler        10013b48 f   libucrt:new_handler.obj
 0001:00012ba4       _terminate                 10013ba4 f   libucrt:terminate.obj
 0001:00012be0       _abort                     10013be0 f   libucrt:abort.obj
 0001:00012c24       _strcpy_s                  10013c24 f   libucrt:strcpy_s.obj
 0001:00012c7e       ??$is_overflow_condition@K@__crt_strtox@@YA_NIK@Z 10013c7e f i libucrt:atox.obj
 0001:00012caf       ??$parse_integer@KV?$c_string_character_source@_W@__crt_strtox@@@__crt_strtox@@YAKQAU__crt_locale_pointers@@V?$c_string_character_source@_W@0@H_N@Z 10013caf f i libucrt:atox.obj
 0001:000132b7       ?unget@?$c_string_character_source@_W@__crt_strtox@@QAEX_W@Z 100142b7 f i libucrt:atox.obj
 0001:000132f0       _strncmp                   100142f0 f   libucrt:strncmp.obj
 0001:00013368       _wcsncmp                   10014368 f   libucrt:wcsncmp.obj
 0001:000133a2       __free_base                100143a2 f   libucrt:free_base.obj
 0001:0001371a       ___acrt_freeptd            1001471a f   libucrt:per_thread_data.obj
 0001:00013746       ___acrt_getptd             10014746 f   libucrt:per_thread_data.obj
 0001:00013803       ___acrt_getptd_head        10014803 f   libucrt:per_thread_data.obj
 0001:0001389d       ___acrt_getptd_noexit      1001489d f   libucrt:per_thread_data.obj
 0001:00013952       ___acrt_initialize_ptd     10014952 f   libucrt:per_thread_data.obj
 0001:0001397e       ___acrt_uninitialize_ptd   1001497e f   libucrt:per_thread_data.obj
 0001:00013998       __calloc_base              10014998 f   libucrt:calloc_base.obj
 0001:000139f5       __malloc_base              100149f5 f   libucrt:malloc_base.obj
 0001:00013a43       __msize_base               10014a43 f   libucrt:msize.obj
 0001:00013a76       __realloc_base             10014a76 f   libucrt:realloc_base.obj
 0001:00013c77       ___acrt_AppPolicyGetProcessTerminationMethodInternal@4 10014c77 f   libucrt:winapi_thunks.obj
 0001:00013cb7       ___acrt_AreFileApisANSI@0  10014cb7 f   libucrt:winapi_thunks.obj
 0001:00013cd6       ___acrt_FlsAlloc@4         10014cd6 f   libucrt:winapi_thunks.obj
 0001:00013d15       ___acrt_FlsFree@4          10014d15 f   libucrt:winapi_thunks.obj
 0001:00013d54       ___acrt_FlsGetValue@4      10014d54 f   libucrt:winapi_thunks.obj
 0001:00013d93       ___acrt_FlsSetValue@8      10014d93 f   libucrt:winapi_thunks.obj
 0001:00013dd5       ___acrt_InitializeCriticalSectionEx@12 10014dd5 f   libucrt:winapi_thunks.obj
 0001:00013e20       ___acrt_LCMapStringEx@36   10014e20 f   libucrt:winapi_thunks.obj
 0001:00013e7d       ___acrt_LocaleNameToLCID@8 10014e7d f   libucrt:winapi_thunks.obj
 0001:00013eae       ___acrt_SetThreadStackGuarantee@4 10014eae f   libucrt:winapi_thunks.obj
 0001:00013ee9       ___acrt_initialize_winapi_thunks 10014ee9 f   libucrt:winapi_thunks.obj
 0001:00013f14       ___acrt_uninitialize_winapi_thunks 10014f14 f   libucrt:winapi_thunks.obj
 0001:00013f4a       ??$make_c_string_character_source@_WPAPA_W@__crt_strtox@@YA?AV?$c_string_character_source@_W@0@QB_WQAPA_W@Z 10014f4a f i libucrt:strtox.obj
 0001:00013f65       _wcstol                    10014f65 f   libucrt:strtox.obj
 0001:00013f8f       __mbtowc_l                 10014f8f f   libucrt:mbtowc.obj
 0001:000140d1       _mbtowc                    100150d1 f   libucrt:mbtowc.obj
 0001:000140eb       _wcsnlen                   100150eb f   libucrt:strnlen.obj
 0001:0001429b       ___acrt_update_locale_info 1001529b f   libucrt:locale_update.obj
 0001:000142c8       ___acrt_update_multibyte_info 100152c8 f   libucrt:locale_update.obj
 0001:000142f5       ?__acrt_fp_classify@@YA?AW4__acrt_fp_class@@ABN@Z 100152f5 f i libucrt:cvt.obj
 0001:00014ca7       ___acrt_fp_format          10015ca7 f   libucrt:cvt.obj
 0001:00014e05       __fileno                   10015e05 f   libucrt:fileno.obj
 0001:00014e2c       ___acrt_initialize_stdio   10015e2c f   libucrt:_file.obj
 0001:00014ef4       ___acrt_uninitialize_stdio 10015ef4 f   libucrt:_file.obj
 0001:00014f40       __lock_file                10015f40 f   libucrt:_file.obj
 0001:00014f54       __unlock_file              10015f54 f   libucrt:_file.obj
 0001:00014f68       __get_printf_count_output  10015f68 f   libucrt:printf_count_output.obj
 0001:00014feb       ___acrt_set_locale_changed 10015feb f   libucrt:wsetlocale.obj
 0001:00014ff6       ___acrt_uninitialize_locale 10015ff6 f   libucrt:wsetlocale.obj
 0001:00015187       ___acrt_initialize_lowio   10016187 f   libucrt:ioinit.obj
 0001:000151e7       ___acrt_uninitialize_lowio 100161e7 f   libucrt:ioinit.obj
 0001:00015213       ___acrt_initialize_locks   10016213 f   libucrt:locks.obj
 0001:00015254       ___acrt_lock               10016254 f   libucrt:locks.obj
 0001:0001526b       ___acrt_uninitialize_locks 1001626b f   libucrt:locks.obj
 0001:0001529c       ___acrt_unlock             1001629c f   libucrt:locks.obj
 0001:000152b3       ___acrt_get_process_end_policy 100162b3 f   libucrt:win_policies.obj
 0001:0001547d       ??$__acrt_mbs_to_wcs_cp@U__crt_win32_buffer_internal_dynamic_resizing@@@@YAHQBDAAV?$__crt_win32_buffer@_WU__crt_win32_buffer_internal_dynamic_resizing@@@@I@Z 1001647d f i libucrt:argv_wildcards.obj
 0001:00015991       ?__acrt_get_utf8_acp_compatibility_codepage@@YAIXZ 10016991 f i libucrt:argv_wildcards.obj
 0001:000159d0       ?_deallocate@?$__crt_win32_buffer@DU__crt_win32_buffer_internal_dynamic_resizing@@@@AAEXXZ 100169d0 f i libucrt:argv_wildcards.obj
 0001:000159d0       ?_deallocate@?$__crt_win32_buffer@_WU__crt_win32_buffer_internal_dynamic_resizing@@@@AAEXXZ 100169d0 f i libucrt:argv_wildcards.obj
 0001:000159ea       ?allocate@?$__crt_win32_buffer@DU__crt_win32_buffer_internal_dynamic_resizing@@@@QAEHI@Z 100169ea f i libucrt:argv_wildcards.obj
 0001:00015a26       ?allocate@?$__crt_win32_buffer@_WU__crt_win32_buffer_internal_dynamic_resizing@@@@QAEHI@Z 10016a26 f i libucrt:argv_wildcards.obj
 0001:00015a65       ?allocate@__crt_win32_buffer_internal_dynamic_resizing@@SAHQAPAXIABV__crt_win32_buffer_empty_debug_info@@@Z 10016a65 f i libucrt:argv_wildcards.obj
 0001:00015b0b       ___acrt_expand_narrow_argv_wildcards 10016b0b f   libucrt:argv_wildcards.obj
 0001:00015bdd       ?allocate@?$__crt_win32_buffer@DU__crt_win32_buffer_no_resizing@@@@QAEHI@Z 10016bdd f i libucrt:getmodulefilenamea.obj
 0001:00015c04       ?set_to_nullptr@?$__crt_win32_buffer@DU__crt_win32_buffer_no_resizing@@@@QAEXXZ 10016c04 f i libucrt:getmodulefilenamea.obj
 0001:00015c18       ___acrt_GetModuleFileNameA 10016c18 f   libucrt:getmodulefilenamea.obj
 0001:000161d1       ___acrt_initialize_multibyte 100171d1 f   libucrt:mbctype.obj
 0001:00016219       ___acrt_update_thread_multibyte_data 10017219 f   libucrt:mbctype.obj
 0001:0001622c       __setmbcp_nolock           1001722c f   libucrt:mbctype.obj
 0001:000164f7       __ismbblead                100174f7 f   libucrt:ismbbyte.obj
 0001:0001650f       ___acrt_initialize_command_line 1001750f f   libucrt:argv_data.obj
 0001:00016528       ___acrt_MultiByteToWideChar 10017528 f   libucrt:multibytetowidechar.obj
 0001:000165a4       ___acrt_WideCharToMultiByte 100175a4 f   libucrt:widechartomultibyte.obj
 0001:00016692       ___dcrt_get_narrow_environment_from_os 10017692 f   libucrt:get_environment_from_os.obj
 0001:00016716       ___acrt_initialize_heap    10017716 f   libucrt:heap_handle.obj
 0001:00016727       ___acrt_uninitialize_heap  10017727 f   libucrt:heap_handle.obj
 0001:00016731       ___acrt_execute_initializers 10017731 f   libucrt:shared_initialization.obj
 0001:00016799       ___acrt_execute_uninitializers 10017799 f   libucrt:shared_initialization.obj
 0001:00016898       ___acrt_get_sigabrt_handler 10017898 f   libucrt:signal.obj
 0001:000168bf       ___acrt_initialize_signal_handlers 100178bf f   libucrt:signal.obj
 0001:000168dd       _raise                     100178dd f   libucrt:signal.obj
 0001:00016ad0       ___acrt_has_user_matherr   10017ad0 f   libucrt:matherr.obj
 0001:00016ae8       ___acrt_initialize_user_matherr 10017ae8 f   libucrt:matherr.obj
 0001:00016af7       ___acrt_invoke_user_matherr 10017af7 f   libucrt:matherr.obj
 0001:00016d06       ___acrt_stdio_flush_nolock 10017d06 f   libucrt:fflush.obj
 0001:00016d6b       __fflush_nolock            10017d6b f   libucrt:fflush.obj
 0001:00016db3       __flushall                 10017db3 f   libucrt:fflush.obj
 0001:00016dbc       ___pctype_func             10017dbc f   libucrt:ctype.obj
 0001:00016de0       _iswctype                  10017de0 f   libucrt:iswctype.obj
 0001:00016e49       ___acrt_add_locale_ref     10017e49 f   libucrt:locale_refcounting.obj
 0001:00016ec6       ___acrt_free_locale        10017ec6 f   libucrt:locale_refcounting.obj
 0001:0001700e       ___acrt_locale_add_lc_time_reference 1001800e f   libucrt:locale_refcounting.obj
 0001:00017037       ___acrt_locale_free_lc_time_if_unreferenced 10018037 f   libucrt:locale_refcounting.obj
 0001:00017068       ___acrt_locale_release_lc_time_reference 10018068 f   libucrt:locale_refcounting.obj
 0001:00017091       ___acrt_release_locale_ref 10018091 f   libucrt:locale_refcounting.obj
 0001:00017112       ___acrt_update_thread_locale_data 10018112 f   libucrt:locale_refcounting.obj
 0001:00017193       __updatetlocinfoEx_nolock  10018193 f   libucrt:locale_refcounting.obj
 0001:000171e3       __query_new_mode           100181e3 f   libucrt:new_mode.obj
 0001:0001723a       ___acrt_DownlevelLocaleNameToLCID 1001823a f   libucrt:lcidtoname_downlevel.obj
 0001:00017266       __isleadbyte_l             10018266 f i libucrt:_wctype.obj
 0001:000172cc       ?__mbrtowc_utf8@__crt_mbstring@@YAIPA_WPBDIPAU_Mbstatet@@@Z 100182cc f   libucrt:mbrtowc.obj
 0001:0001730c       ?__mbsrtowcs_utf8@__crt_mbstring@@YAIPA_WPAPBDIPAU_Mbstatet@@@Z 1001830c f   libucrt:mbrtowc.obj
 0001:00017407       ?return_illegal_sequence@__crt_mbstring@@YAIPAU_Mbstatet@@@Z 10018407 f i libucrt:c32rtomb.obj
 0001:00017491       ___acrt_fp_strflt_to_string 10018491 f   libucrt:_fptostr.obj
 0001:00017570       ?divide@__crt_strtox@@YA_KAAUbig_integer@1@ABU21@@Z 10018570 f i libucrt:cfout.obj
 0001:00017a08       ___acrt_fltout             10018a08 f   libucrt:cfout.obj
 0001:00018f0f       _fegetround                10019f0f f   libucrt:fegetround.obj
 0001:00018f1c       __fcloseall                10019f1c f   libucrt:closeall.obj
 0001:00018fc7       ___acrt_stdio_free_buffer_nolock 10019fc7 f   libucrt:_freebuf.obj
 0001:00019007       __isatty                   1001a007 f   libucrt:isatty.obj
 0001:0001905d       ___acrt_locale_free_monetary 1001a05d f   libucrt:initmon.obj
 0001:0001915b       ___acrt_locale_free_numeric 1001a15b f   libucrt:initnum.obj
 0001:000191fc       ___acrt_locale_free_time   1001a1fc f   libucrt:inittime.obj
 0001:000192e0       ___acrt_GetStringTypeA     1001a2e0 f   libucrt:getstringtypea.obj
 0001:000193e3       __freea_crt                1001a3e3 f i libucrt:getstringtypea.obj
 0001:00019403       ___acrt_lowio_create_handle_array 1001a403 f   libucrt:osfinfo.obj
 0001:0001947e       ___acrt_lowio_destroy_handle_array 1001a47e f   libucrt:osfinfo.obj
 0001:000194b3       ___acrt_lowio_ensure_fh_exists 1001a4b3 f   libucrt:osfinfo.obj
 0001:00019551       ___acrt_lowio_lock_fh      1001a551 f   libucrt:osfinfo.obj
 0001:00019574       ___acrt_lowio_unlock_fh    1001a574 f   libucrt:osfinfo.obj
 0001:00019597       __free_osfhnd              1001a597 f   libucrt:osfinfo.obj
 0001:00019628       __get_osfhandle            1001a628 f   libucrt:osfinfo.obj
 0001:000196a0       _qsort                     1001a6a0 f   libucrt:qsort.obj
 0001:00019c41       _strncpy_s                 1001ac41 f   libucrt:strncpy_s.obj
 0001:00019c50       _strpbrk                   1001ac50 f   libucrt:strpbrk.obj
 0001:00019c90       __mbsdec                   1001ac90 f   libucrt:mbsdec.obj
 0001:00019ca7       __mbsdec_l                 1001aca7 f   libucrt:mbsdec.obj
 0001:00019f1e       ___acrt_LCMapStringA       1001af1e f   libucrt:lcmapstringa.obj
 0001:0001a018       __commit                   1001b018 f   libucrt:commit.obj
 0001:0001a810       __write                    1001b810 f   libucrt:write.obj
 0001:0001a902       __write_nolock             1001b902 f   libucrt:write.obj
 0001:0001aadc       ___acrt_GetStringTypeW     1001badc f   libucrt:getstringtypew.obj
 0001:0001aaf5       ___ascii_wcsnicmp          1001baf5 f   libucrt:wcsnicmp.obj
 0001:0001ab44       ?__mbrtoc32_utf8@__crt_mbstring@@YAIPA_UPBDIPAU_Mbstatet@@@Z 1001bb44 f   libucrt:mbrtoc32.obj
 0001:0001aceb       __controlfp_s              1001bceb f   libucrt:contrlfp.obj
 0001:0001ad4a       _fegetenv                  1001bd4a f   libucrt:fegetenv.obj
 0001:0001ad67       _fesetenv                  1001bd67 f   libucrt:fesetenv.obj
 0001:0001adb2       _feholdexcept              1001bdb2 f   libucrt:feholdexcept.obj
 0001:0001ae00       __CIlog10                  1001be00 f   libucrt:log10_impl.obj
 0001:0001ae3b       __CIlog10_default          1001be3b f   libucrt:log10_impl.obj
 0001:0001ae4f       __log10_default            1001be4f     libucrt:log10_impl.obj
 0001:0001af10       _ceil                      1001bf10 f   libucrt:ceil_pentium4.obj
 0001:0001af50       __ceil_pentium4            1001bf50 f   libucrt:ceil_pentium4.obj
 0001:0001b34a       ___acrt_fenv_get_common_round_control 1001c34a f   libucrt:_fenvutils.obj
 0001:0001b36c       ___acrt_fenv_get_control   1001c36c f   libucrt:_fenvutils.obj
 0001:0001b3ec       ___acrt_fenv_get_status    1001c3ec f   libucrt:_fenvutils.obj
 0001:0001b4a4       ___acrt_fenv_set_control   1001c4a4 f   libucrt:_fenvutils.obj
 0001:0001b50c       ___acrt_fenv_set_status    1001c50c f   libucrt:_fenvutils.obj
 0001:0001b67f       __lseeki64_nolock          1001c67f f   libucrt:lseek.obj
 0001:0001b69a       __fclose_nolock            1001c69a f   libucrt:fclose.obj
 0001:0001b711       _fclose                    1001c711 f   libucrt:fclose.obj
 0001:0001b795       __query_app_type           1001c795 f   libucrt:report_runtime_error.obj
 0001:0001b79b       ___strncnt                 1001c79b f   libucrt:strncnt.obj
 0001:0001b7b7       __putwch_nolock            1001c7b7 f   libucrt:putwch.obj
 0001:0001b890       __clearfp                  1001c890 f   libucrt:ieee87.obj
 0001:0001b96e       __control87                1001c96e f   libucrt:ieee87.obj
 0001:0001bd0d       ___acrt_initialize_sse2    1001cd0d f   libucrt:mathfcns.obj
 0001:0001bd20       __CIlog10_pentium4         1001cd20 f   libucrt:log10_pentium4.obj
 0001:0001bd38       __log10_pentium4           1001cd38     libucrt:log10_pentium4.obj
 0001:0001bfd0       __fFEXP                    1001cfd0 f   libucrt:87tran.obj
 0001:0001c027       __rtinfpopse               1001d027     libucrt:87tran.obj
 0001:0001c029       __rtinfnpopse              1001d029     libucrt:87tran.obj
 0001:0001c039       __fFLN                     1001d039     libucrt:87tran.obj
 0001:0001c0ee       __rtinfpop                 1001d0ee     libucrt:87tran.obj
 0001:0001c0f0       __rtinfnpop                1001d0f0     libucrt:87tran.obj
 0001:0001c100       __rtforexpinf              1001d100 f   libucrt:87tran.obj
 0001:0001c10d       __ffexpm1                  1001d10d     libucrt:87tran.obj
 0001:0001c1c0       __trandisp1                1001d1c0 f   libucrt:87disp.obj
 0001:0001c235       __trandisp2                1001d235 f   libucrt:87disp.obj
 0001:0001c2cf       __rttospopde               1001d2cf     libucrt:87disp.obj
 0001:0001c2d4       __rttospop                 1001d2d4     libucrt:87disp.obj
 0001:0001c2e0       __rtnospop                 1001d2e0 f   libucrt:87disp.obj
 0001:0001c2f0       __rttosnpop                1001d2f0 f   libucrt:87disp.obj
 0001:0001c2f1       __rtnospopde               1001d2f1     libucrt:87disp.obj
 0001:0001c2f8       __rtzeropop                1001d2f8     libucrt:87disp.obj
 0001:0001c2fa       __rtzeronpop               1001d2fa     libucrt:87disp.obj
 0001:0001c300       __rtzerospop               1001d300 f   libucrt:87disp.obj
 0001:0001c30d       __rtonepop                 1001d30d     libucrt:87disp.obj
 0001:0001c310       __rtonenpop                1001d310 f   libucrt:87disp.obj
 0001:0001c320       __tosnan1                  1001d320 f   libucrt:87disp.obj
 0001:0001c350       __nosnan2                  1001d350 f   libucrt:87disp.obj
 0001:0001c360       __tosnan2                  1001d360 f   libucrt:87disp.obj
 0001:0001c390       __nan2                     1001d390 f   libucrt:87disp.obj
 0001:0001c3d0       __rtindfpop                1001d3d0 f   libucrt:87disp.obj
 0001:0001c3d2       __rtindfnpop               1001d3d2     libucrt:87disp.obj
 0001:0001c3e3       __rttosnpopde              1001d3e3     libucrt:87disp.obj
 0001:0001c3f0       __rtatan2inf               1001d3f0 f   libucrt:87disp.obj
 0001:0001c40d       __rtchsifneg               1001d40d     libucrt:87disp.obj
 0001:0001c420       __twoToTOS                 1001d420 f   libucrt:common.obj
 0001:0001c435       __load_CW                  1001d435 f   libucrt:common.obj
 0001:0001c44c       __convertTOStoQNaN         1001d44c f   libucrt:common.obj
 0001:0001c465       __fload_withFB             1001d465 f   libucrt:common.obj
 0001:0001c4a8       __checkTOS_withFB          1001d4a8 f   libucrt:common.obj
 0001:0001c4be       __fast_exit                1001d4be f   libucrt:common.obj
 0001:0001c4cb       __math_exit                1001d4cb f   libucrt:common.obj
 0001:0001c4f5       __check_overflow_exit      1001d4f5 f   libucrt:common.obj
 0001:0001c509       __check_range_exit         1001d509 f   libucrt:common.obj
 0001:0001c5b0       __startTwoArgErrorHandling 1001d5b0 f   libucrt:genexcep.obj
 0001:0001c5c7       __startOneArgErrorHandling 1001d5c7 f   libucrt:genexcep.obj
 0001:0001c603       ___libm_error_support      1001d603 f   libucrt:libm_error.obj
 0001:0001c7f7       __ceil_default             1001d7f7 f   libucrt:ceil.obj
 0001:0001c938       __close                    1001d938 f   libucrt:close.obj
 0001:0001c9c5       __close_nolock             1001d9c5 f   libucrt:close.obj
 0001:0001ca61       ?__acrt_stdio_free_stream@@YAXV__crt_stdio_stream@@@Z 1001da61 f   libucrt:stream.obj
 0001:0001caa0       ___ascii_strnicmp          1001daa0 f   libucrt:_strnicm.obj
 0001:0001cb20       ___dcrt_lowio_ensure_console_output_initialized 1001db20 f   libucrt:initcon.obj
 0001:0001cb3f       ___dcrt_terminate_console_output 1001db3f f   libucrt:initcon.obj
 0001:0001cb56       ___dcrt_write_console      1001db56 f   libucrt:initcon.obj
 0001:0001cbab       ___set_fpsr_sse2           1001dbab f   libucrt:fpctrl.obj
 0001:0001cc2b       __clrfp                    1001dc2b f   libucrt:fpctrl.obj
 0001:0001cc3c       __ctrlfp                   1001dc3c f   libucrt:fpctrl.obj
 0001:0001cc66       __set_statfp               1001dc66 f   libucrt:fpctrl.obj
 0001:0001ccbf       __statfp                   1001dcbf f   libucrt:fpctrl.obj
 0001:0001cccf       __d_inttype                1001dccf f   libucrt:powhlp.obj
 0001:0001cd37       __powhlp                   1001dd37 f   libucrt:powhlp.obj
 0001:0001ce62       __87except                 1001de62 f   libucrt:87except.obj
 0001:0001cf6c       __frnd                     1001df6c f   libucrt:frnd.obj
 0001:0001cf80       __errcode                  1001df80 f   libucrt:fpexcept.obj
 0001:0001cfb4       __except1                  1001dfb4 f   libucrt:fpexcept.obj
 0001:0001d082       __handle_exc               1001e082 f   libucrt:fpexcept.obj
 0001:0001d26d       __raise_exc                1001e26d f   libucrt:fpexcept.obj
 0001:0001d290       __raise_exc_ex             1001e290 f   libucrt:fpexcept.obj
 0001:0001d586       __set_errno_from_matherr   1001e586 f   libucrt:fpexcept.obj
 0001:0001d5b5       __umatherr                 1001e5b5 f   libucrt:fpexcept.obj
 0001:0001d655       __decomp                   1001e655 f   libucrt:util.obj
 0001:0001d727       __set_exp                  1001e727 f   libucrt:util.obj
 0001:0001d754       __sptype                   1001e754 f   libucrt:util.obj
 0001:0001d7b2       __fpclass                  1001e7b2 f   libucrt:ieeemisc.obj
 0001:0001d856       _IsProcessorFeaturePresent@4 1001e856 f   kernel32:KERNEL32.dll
 0001:0001d860       __FindPESection            1001e860 f   LIBCMT:pesect.obj
 0001:0001d8b0       __IsNonwritableInCurrentImage 1001e8b0 f   LIBCMT:pesect.obj
 0001:0001d970       __ValidateImageBase        1001e970 f   LIBCMT:pesect.obj
 0001:0001d9a3       __EH_prolog3_catch         1001e9a3 f   LIBCMT:ehprolg3.obj
 0001:0001d9e0       __aulldvrm                 1001e9e0 f   LIBCMT:ulldvrm.obj
 0001:0001da80       __allmul                   1001ea80 f   LIBCMT:llmul.obj
 0001:0001dac0       __alldvrm                  1001eac0 f   LIBCMT:lldvrm.obj
 0001:0001dba0       __allshl                   1001eba0 f   LIBCMT:llshl.obj
 0001:0001dbc0       __aullshr                  1001ebc0 f   LIBCMT:ullshr.obj
 0001:0001dbe0       __ftoi2                    1001ebe0 f   LIBCMT:ftol2.obj
 0001:0001dbe0       __ftol2_sse                1001ebe0     LIBCMT:ftol2.obj
 0001:0001dbe0       __ftol2_sse_excpt          1001ebe0     LIBCMT:ftol2.obj
 0001:0001dc60       __ftoui2                   1001ec60 f   LIBCMT:ftol2.obj
 0001:0001dd10       __ftol2                    1001ed10 f   LIBCMT:ftol2.obj
 0001:0001ddc0       __ftoul2                   1001edc0 f   LIBCMT:ftol2.obj
 0001:0001de80       _strrchr                   1001ee80 f   libvcruntime:strrchr.obj
 0001:0001dfc0       _strchr                    1001efc0 f   libvcruntime:strchr.obj
 0001:0001e02e       ___from_strstr_to_strchr   1001f02e     libvcruntime:strchr.obj
 0001:0001e0eb       __filter_x86_sse2_floating_point_exception_default 1001f0eb f   LIBCMT:x86_exception_filter.obj
 0001:0001e0eb       __filter_x86_sse2_floating_point_exception 1001f0eb f   LIBCMT:x86_exception_filter.obj
 0002:00000000       __imp__RegQueryValueExW@24 10020000     advapi32:ADVAPI32.dll
 0002:00000004       __imp__RegSetValueExW@24   10020004     advapi32:ADVAPI32.dll
 0002:00000008       __imp__RegQueryInfoKeyW@48 10020008     advapi32:ADVAPI32.dll
 0002:0000000c       __imp__RegOpenKeyExW@20    1002000c     advapi32:ADVAPI32.dll
 0002:00000010       __imp__RegEnumKeyExW@32    10020010     advapi32:ADVAPI32.dll
 0002:00000014       __imp__RegDeleteValueW@8   10020014     advapi32:ADVAPI32.dll
 0002:00000018       __imp__RegDeleteKeyW@8     10020018     advapi32:ADVAPI32.dll
 0002:0000001c       __imp__RegCreateKeyExW@36  1002001c     advapi32:ADVAPI32.dll
 0002:00000020       __imp__RegCloseKey@4       10020020     advapi32:ADVAPI32.dll
 0002:00000024       \177ADVAPI32_NULL_THUNK_DATA 10020024     advapi32:ADVAPI32.dll
 0002:00000028       __imp__GetObjectW@12       10020028     gdi32:GDI32.dll
 0002:0000002c       __imp__SelectObject@8      1002002c     gdi32:GDI32.dll
 0002:00000030       __imp__DeleteObject@4      10020030     gdi32:GDI32.dll
 0002:00000034       __imp__CreateCompatibleDC@4 10020034     gdi32:GDI32.dll
 0002:00000038       __imp__BitBlt@36           10020038     gdi32:GDI32.dll
 0002:0000003c       __imp__SetWindowOrgEx@16   1002003c     gdi32:GDI32.dll
 0002:00000040       __imp__SetWindowExtEx@16   10020040     gdi32:GDI32.dll
 0002:00000044       __imp__SetViewportOrgEx@16 10020044     gdi32:GDI32.dll
 0002:00000048       __imp__LPtoDP@12           10020048     gdi32:GDI32.dll
 0002:0000004c       __imp__SetMapMode@8        1002004c     gdi32:GDI32.dll
 0002:00000050       __imp__SaveDC@4            10020050     gdi32:GDI32.dll
 0002:00000054       __imp__RestoreDC@8         10020054     gdi32:GDI32.dll
 0002:00000058       __imp__GetDeviceCaps@8     10020058     gdi32:GDI32.dll
 0002:0000005c       __imp__DeleteMetaFile@4    1002005c     gdi32:GDI32.dll
 0002:00000060       __imp__DeleteDC@4          10020060     gdi32:GDI32.dll
 0002:00000064       __imp__CreateRectRgnIndirect@4 10020064     gdi32:GDI32.dll
 0002:00000068       __imp__CreateMetaFileW@4   10020068     gdi32:GDI32.dll
 0002:0000006c       __imp__CreateDCW@16        1002006c     gdi32:GDI32.dll
 0002:00000070       __imp__CloseMetaFile@4     10020070     gdi32:GDI32.dll
 0002:00000074       \177GDI32_NULL_THUNK_DATA  10020074     gdi32:GDI32.dll
 0002:00000078       __imp__CloseHandle@4       10020078     kernel32:KERNEL32.dll
 0002:0000007c       __imp__SetEvent@4          1002007c     kernel32:KERNEL32.dll
 0002:00000080       __imp__CreateMutexW@12     10020080     kernel32:KERNEL32.dll
 0002:00000084       __imp__CreateEventW@16     10020084     kernel32:KERNEL32.dll
 0002:00000088       __imp__GetCurrentProcessId@0 10020088     kernel32:KERNEL32.dll
 0002:0000008c       __imp__CreateFileW@28      1002008c     kernel32:KERNEL32.dll
 0002:00000090       __imp__GetConsoleMode@8    10020090     kernel32:KERNEL32.dll
 0002:00000094       __imp__GetConsoleOutputCP@0 10020094     kernel32:KERNEL32.dll
 0002:00000098       __imp__WriteFile@20        10020098     kernel32:KERNEL32.dll
 0002:0000009c       __imp__FlushFileBuffers@4  1002009c     kernel32:KERNEL32.dll
 0002:000000a0       __imp__SetStdHandle@8      100200a0     kernel32:KERNEL32.dll
 0002:000000a4       __imp__GetStringTypeW@16   100200a4     kernel32:KERNEL32.dll
 0002:000000a8       __imp__SetFilePointerEx@20 100200a8     kernel32:KERNEL32.dll
 0002:000000ac       __imp__FreeEnvironmentStringsW@4 100200ac     kernel32:KERNEL32.dll
 0002:000000b0       __imp__GetEnvironmentStringsW@0 100200b0     kernel32:KERNEL32.dll
 0002:000000b4       __imp__lstrcmpiW@8         100200b4     kernel32:KERNEL32.dll
 0002:000000b8       __imp__GetCommandLineA@0   100200b8     kernel32:KERNEL32.dll
 0002:000000bc       __imp__GetCPInfo@8         100200bc     kernel32:KERNEL32.dll
 0002:000000c0       __imp__GetOEMCP@0          100200c0     kernel32:KERNEL32.dll
 0002:000000c4       __imp__GetACP@0            100200c4     kernel32:KERNEL32.dll
 0002:000000c8       __imp__IsValidCodePage@4   100200c8     kernel32:KERNEL32.dll
 0002:000000cc       __imp__FindNextFileW@8     100200cc     kernel32:KERNEL32.dll
 0002:000000d0       __imp__FindFirstFileExW@24 100200d0     kernel32:KERNEL32.dll
 0002:000000d4       __imp__FindClose@4         100200d4     kernel32:KERNEL32.dll
 0002:000000d8       __imp__GetFileType@4       100200d8     kernel32:KERNEL32.dll
 0002:000000dc       __imp__GetStdHandle@4      100200dc     kernel32:KERNEL32.dll
 0002:000000e0       __imp__LCMapStringW@24     100200e0     kernel32:KERNEL32.dll
 0002:000000e4       __imp__HeapReAlloc@16      100200e4     kernel32:KERNEL32.dll
 0002:000000e8       __imp__HeapSize@12         100200e8     kernel32:KERNEL32.dll
 0002:000000ec       __imp__MulDiv@12           100200ec     kernel32:KERNEL32.dll
 0002:000000f0       __imp__GlobalLock@4        100200f0     kernel32:KERNEL32.dll
 0002:000000f4       __imp__GlobalUnlock@4      100200f4     kernel32:KERNEL32.dll
 0002:000000f8       __imp__GlobalAlloc@8       100200f8     kernel32:KERNEL32.dll
 0002:000000fc       __imp__FindResourceW@12    100200fc     kernel32:KERNEL32.dll
 0002:00000100       __imp__SizeofResource@8    10020100     kernel32:KERNEL32.dll
 0002:00000104       __imp__LoadResource@8      10020104     kernel32:KERNEL32.dll
 0002:00000108       __imp__LoadLibraryExW@12   10020108     kernel32:KERNEL32.dll
 0002:0000010c       __imp__GetProcAddress@8    1002010c     kernel32:KERNEL32.dll
 0002:00000110       __imp__GetModuleHandleW@4  10020110     kernel32:KERNEL32.dll
 0002:00000114       __imp__GetModuleFileNameW@12 10020114     kernel32:KERNEL32.dll
 0002:00000118       __imp__FreeLibrary@4       10020118     kernel32:KERNEL32.dll
 0002:0000011c       __imp__DisableThreadLibraryCalls@4 1002011c     kernel32:KERNEL32.dll
 0002:00000120       __imp__GetCurrentThreadId@0 10020120     kernel32:KERNEL32.dll
 0002:00000124       __imp__Sleep@4             10020124     kernel32:KERNEL32.dll
 0002:00000128       __imp__WaitForSingleObject@8 10020128     kernel32:KERNEL32.dll
 0002:0000012c       __imp__ReleaseMutex@4      1002012c     kernel32:KERNEL32.dll
 0002:00000130       __imp__ResetEvent@4        10020130     kernel32:KERNEL32.dll
 0002:00000134       __imp__EnterCriticalSection@4 10020134     kernel32:KERNEL32.dll
 0002:00000138       __imp__LeaveCriticalSection@4 10020138     kernel32:KERNEL32.dll
 0002:0000013c       __imp__SetLastError@4      1002013c     kernel32:KERNEL32.dll
 0002:00000140       __imp__EncodePointer@4     10020140     kernel32:KERNEL32.dll
 0002:00000144       __imp__DeleteCriticalSection@4 10020144     kernel32:KERNEL32.dll
 0002:00000148       __imp__InitializeCriticalSectionEx@12 10020148     kernel32:KERNEL32.dll
 0002:0000014c       __imp__GetLastError@0      1002014c     kernel32:KERNEL32.dll
 0002:00000150       __imp__RaiseException@16   10020150     kernel32:KERNEL32.dll
 0002:00000154       __imp__DecodePointer@4     10020154     kernel32:KERNEL32.dll
 0002:00000158       __imp__WideCharToMultiByte@32 10020158     kernel32:KERNEL32.dll
 0002:0000015c       __imp__GetCommandLineW@0   1002015c     kernel32:KERNEL32.dll
 0002:00000160       __imp__MultiByteToWideChar@24 10020160     kernel32:KERNEL32.dll
 0002:00000164       __imp__WriteConsoleW@20    10020164     kernel32:KERNEL32.dll
 0002:00000168       __imp__GetModuleHandleExW@12 10020168     kernel32:KERNEL32.dll
 0002:0000016c       __imp__ExitProcess@4       1002016c     kernel32:KERNEL32.dll
 0002:00000170       __imp__VirtualQuery@12     10020170     kernel32:KERNEL32.dll
 0002:00000174       __imp__VirtualProtect@16   10020174     kernel32:KERNEL32.dll
 0002:00000178       __imp__GetSystemInfo@4     10020178     kernel32:KERNEL32.dll
 0002:0000017c       __imp__TlsFree@4           1002017c     kernel32:KERNEL32.dll
 0002:00000180       __imp__TlsSetValue@8       10020180     kernel32:KERNEL32.dll
 0002:00000184       __imp__TlsGetValue@4       10020184     kernel32:KERNEL32.dll
 0002:00000188       __imp__TlsAlloc@0          10020188     kernel32:KERNEL32.dll
 0002:0000018c       __imp__InterlockedFlushSList@4 1002018c     kernel32:KERNEL32.dll
 0002:00000190       __imp__RtlUnwind@16        10020190     kernel32:KERNEL32.dll
 0002:00000194       __imp__LoadLibraryExA@12   10020194     kernel32:KERNEL32.dll
 0002:00000198       __imp__VirtualFree@12      10020198     kernel32:KERNEL32.dll
 0002:0000019c       __imp__VirtualAlloc@16     1002019c     kernel32:KERNEL32.dll
 0002:000001a0       __imp__FlushInstructionCache@12 100201a0     kernel32:KERNEL32.dll
 0002:000001a4       __imp__InterlockedPushEntrySList@8 100201a4     kernel32:KERNEL32.dll
 0002:000001a8       __imp__InterlockedPopEntrySList@4 100201a8     kernel32:KERNEL32.dll
 0002:000001ac       __imp__GetProcessHeap@0    100201ac     kernel32:KERNEL32.dll
 0002:000001b0       __imp__HeapFree@12         100201b0     kernel32:KERNEL32.dll
 0002:000001b4       __imp__HeapAlloc@12        100201b4     kernel32:KERNEL32.dll
 0002:000001b8       __imp__OutputDebugStringW@4 100201b8     kernel32:KERNEL32.dll
 0002:000001bc       __imp__InitializeSListHead@4 100201bc     kernel32:KERNEL32.dll
 0002:000001c0       __imp__GetSystemTimeAsFileTime@4 100201c0     kernel32:KERNEL32.dll
 0002:000001c4       __imp__QueryPerformanceCounter@4 100201c4     kernel32:KERNEL32.dll
 0002:000001c8       __imp__GetStartupInfoW@4   100201c8     kernel32:KERNEL32.dll
 0002:000001cc       __imp__IsDebuggerPresent@0 100201cc     kernel32:KERNEL32.dll
 0002:000001d0       __imp__IsProcessorFeaturePresent@4 100201d0     kernel32:KERNEL32.dll
 0002:000001d4       __imp__TerminateProcess@8  100201d4     kernel32:KERNEL32.dll
 0002:000001d8       __imp__GetCurrentProcess@0 100201d8     kernel32:KERNEL32.dll
 0002:000001dc       __imp__SetUnhandledExceptionFilter@4 100201dc     kernel32:KERNEL32.dll
 0002:000001e0       __imp__UnhandledExceptionFilter@4 100201e0     kernel32:KERNEL32.dll
 0002:000001e4       __imp__InitializeCriticalSectionAndSpinCount@8 100201e4     kernel32:KERNEL32.dll
 0002:000001e8       __imp__WaitForSingleObjectEx@12 100201e8     kernel32:KERNEL32.dll
 0002:000001ec       \177KERNEL32_NULL_THUNK_DATA 100201ec     kernel32:KERNEL32.dll
 0002:000001f0       __imp__OleCreatePropertyFrame@44 100201f0     oleaut32:OLEAUT32.dll
 0002:000001f4       __imp__UnRegisterTypeLib@20 100201f4     oleaut32:OLEAUT32.dll
 0002:000001f8       __imp__RegisterTypeLib@12  100201f8     oleaut32:OLEAUT32.dll
 0002:000001fc       __imp__LoadRegTypeLib@20   100201fc     oleaut32:OLEAUT32.dll
 0002:00000200       __imp__LoadTypeLib@8       10020200     oleaut32:OLEAUT32.dll
 0002:00000204       __imp__VarUI4FromStr@16    10020204     oleaut32:OLEAUT32.dll
 0002:00000208       __imp__VariantInit@4       10020208     oleaut32:OLEAUT32.dll
 0002:0000020c       __imp__SysAllocStringByteLen@8 1002020c     oleaut32:OLEAUT32.dll
 0002:00000210       __imp__SysStringByteLen@4  10020210     oleaut32:OLEAUT32.dll
 0002:00000214       __imp__VariantChangeType@16 10020214     oleaut32:OLEAUT32.dll
 0002:00000218       __imp__VariantClear@4      10020218     oleaut32:OLEAUT32.dll
 0002:0000021c       __imp__SysStringLen@4      1002021c     oleaut32:OLEAUT32.dll
 0002:00000220       __imp__SysFreeString@4     10020220     oleaut32:OLEAUT32.dll
 0002:00000224       __imp__SysAllocStringLen@8 10020224     oleaut32:OLEAUT32.dll
 0002:00000228       __imp__SysAllocString@4    10020228     oleaut32:OLEAUT32.dll
 0002:0000022c       \177OLEAUT32_NULL_THUNK_DATA 1002022c     oleaut32:OLEAUT32.dll
 0002:00000230       __imp__UnregisterClassW@8  10020230     user32:USER32.dll
 0002:00000234       __imp__PostMessageW@16     10020234     user32:USER32.dll
 0002:00000238       __imp__DefWindowProcW@16   10020238     user32:USER32.dll
 0002:0000023c       __imp__CallWindowProcW@20  1002023c     user32:USER32.dll
 0002:00000240       __imp__RegisterClassExW@4  10020240     user32:USER32.dll
 0002:00000244       __imp__GetClassInfoExW@12  10020244     user32:USER32.dll
 0002:00000248       __imp__CreateWindowExW@48  10020248     user32:USER32.dll
 0002:0000024c       __imp__IsWindow@4          1002024c     user32:USER32.dll
 0002:00000250       __imp__IsChild@8           10020250     user32:USER32.dll
 0002:00000254       __imp__DestroyWindow@4     10020254     user32:USER32.dll
 0002:00000258       __imp__ShowWindow@8        10020258     user32:USER32.dll
 0002:0000025c       __imp__SetWindowPos@28     1002025c     user32:USER32.dll
 0002:00000260       __imp__CharNextW@4         10020260     user32:USER32.dll
 0002:00000264       __imp__SetFocus@4          10020264     user32:USER32.dll
 0002:00000268       __imp__LoadBitmapW@8       10020268     user32:USER32.dll
 0002:0000026c       __imp__RegisterClassW@4    1002026c     user32:USER32.dll
 0002:00000270       __imp__PeekMessageW@20     10020270     user32:USER32.dll
 0002:00000274       __imp__LoadCursorW@8       10020274     user32:USER32.dll
 0002:00000278       __imp__GetParent@4         10020278     user32:USER32.dll
 0002:0000027c       __imp__SetWindowLongW@12   1002027c     user32:USER32.dll
 0002:00000280       __imp__GetWindowLongW@8    10020280     user32:USER32.dll
 0002:00000284       __imp__PtInRect@12         10020284     user32:USER32.dll
 0002:00000288       __imp__EqualRect@8         10020288     user32:USER32.dll
 0002:0000028c       __imp__OffsetRect@12       1002028c     user32:USER32.dll
 0002:00000290       __imp__UnionRect@12        10020290     user32:USER32.dll
 0002:00000294       __imp__IntersectRect@12    10020294     user32:USER32.dll
 0002:00000298       __imp__GetClientRect@8     10020298     user32:USER32.dll
 0002:0000029c       __imp__InvalidateRect@12   1002029c     user32:USER32.dll
 0002:000002a0       __imp__SetWindowRgn@12     100202a0     user32:USER32.dll
 0002:000002a4       __imp__EndPaint@8          100202a4     user32:USER32.dll
 0002:000002a8       __imp__BeginPaint@8        100202a8     user32:USER32.dll
 0002:000002ac       __imp__ReleaseDC@8         100202ac     user32:USER32.dll
 0002:000002b0       __imp__GetDC@4             100202b0     user32:USER32.dll
 0002:000002b4       __imp__GetKeyState@4       100202b4     user32:USER32.dll
 0002:000002b8       __imp__GetFocus@0          100202b8     user32:USER32.dll
 0002:000002bc       \177USER32_NULL_THUNK_DATA 100202bc     user32:USER32.dll
 0002:000002c0       __imp__StringFromGUID2@12  100202c0     ole32:ole32.dll
 0002:000002c4       __imp__CoTaskMemAlloc@4    100202c4     ole32:ole32.dll
 0002:000002c8       __imp__CoTaskMemRealloc@8  100202c8     ole32:ole32.dll
 0002:000002cc       __imp__CoTaskMemFree@4     100202cc     ole32:ole32.dll
 0002:000002d0       __imp__ReadClassStm@8      100202d0     ole32:ole32.dll
 0002:000002d4       __imp__WriteClassStm@8     100202d4     ole32:ole32.dll
 0002:000002d8       __imp__CreateDataAdviseHolder@4 100202d8     ole32:ole32.dll
 0002:000002dc       __imp__OleSaveToStream@8   100202dc     ole32:ole32.dll
 0002:000002e0       __imp__CreateOleAdviseHolder@4 100202e0     ole32:ole32.dll
 0002:000002e4       __imp__OleRegGetUserType@12 100202e4     ole32:ole32.dll
 0002:000002e8       __imp__OleRegGetMiscStatus@12 100202e8     ole32:ole32.dll
 0002:000002ec       __imp__OleRegEnumVerbs@8   100202ec     ole32:ole32.dll
 0002:000002f0       __imp__CLSIDFromProgID@8   100202f0     ole32:ole32.dll
 0002:000002f4       __imp__CoCreateInstance@20 100202f4     ole32:ole32.dll
 0002:000002f8       \177ole32_NULL_THUNK_DATA  100202f8     ole32:ole32.dll
 0002:000002fc       ___guard_check_icall_fptr  100202fc     LIBCMT:guard_support.obj
 0002:00000300       ___xc_a                    10020300     LIBCMT:initializers.obj
 0002:00000318       ___xc_z                    10020318     LIBCMT:initializers.obj
 0002:0000031c       ___xi_a                    1002031c     LIBCMT:initializers.obj
 0002:00000324       ___acrt_stdio_initializer  10020324     libucrt:stdio_initializer.obj
 0002:00000328       ___acrt_multibyte_initializer 10020328     libucrt:multibyte_initializer.obj
 0002:0000032c       ___acrt_tran_sse2_initializer 1002032c     libucrt:sse2_initializer.obj
 0002:00000330       ___xi_z                    10020330     LIBCMT:initializers.obj
 0002:00000334       ___xl_a                    10020334     LIBCMT:tlssup.obj
 0002:00000338       ___xl_z                    10020338     LIBCMT:tlssup.obj
 0002:0000033c       ___xp_a                    1002033c     LIBCMT:initializers.obj
 0002:00000340       ___acrt_locale_terminator  10020340     libucrt:locale_initializer.obj
 0002:00000344       ___dcrt_console_output_terminator 10020344     libucrt:console_output_initializer.obj
 0002:00000348       ___acrt_stdio_terminator   10020348     libucrt:stdio_initializer.obj
 0002:0000034c       ___xp_z                    1002034c     LIBCMT:initializers.obj
 0002:00000350       ___xt_a                    10020350     LIBCMT:initializers.obj
 0002:00000354       ___xt_z                    10020354     LIBCMT:initializers.obj
 0002:00000360       ??_C@_13HADIAKP@?$AAS@     10020360     OposVariant.obj
 0002:00000364       ??_C@_13LHMFKAAD@?$AAM@    10020364     OposVariant.obj
 0002:00000368       ??_C@_13MKMNOPIJ@?$AAD@    10020368     OposVariant.obj
 0002:0000036c       ??_C@_13OPKGLAFF@?$AAB@    1002036c     OposVariant.obj
 0002:00000370       ??_C@_17LLMMEOJD@?$AAV?$AAa?$AAl@ 10020370     OposVariant.obj
 0002:00000378       ??_C@_1BI@JFAIJMHL@?$AAF?$AAo?$AAr?$AAc?$AAe?$AAR?$AAe?$AAm?$AAo?$AAv?$AAe@ 10020378     OposVariant.obj
 0002:00000390       ??_C@_1BC@GCKHIPE@?$AAN?$AAo?$AAR?$AAe?$AAm?$AAo?$AAv?$AAe@ 10020390     OposVariant.obj
 0002:000003a4       ??_C@_1O@JDLOHAN@?$AAD?$AAe?$AAl?$AAe?$AAt?$AAe@ 100203a4     OposVariant.obj
 0002:000003b4       ??_C@_11LOCGONAA@@         100203b4     OposVariant.obj
 0002:000003b8       ??_7CComClassFactory@ATL@@6B@ 100203b8     BillDispenser.obj
 0002:000003d0       ?_entries@?1??_GetEntries@CComClassFactory@ATL@@SGPBU_ATL_INTMAP_ENTRY@3@XZ@4QBU43@B 100203d0     BillDispenser.obj
 0002:000003e8       __GUID_00000001_0000_0000_c000_000000000046 100203e8     BillDispenser.obj
 0002:000003f8       _IID_IOPOSBillDispenser_1_11 100203f8     BillDispenser.obj
 0002:00000408       _IID_IOPOSBillDispenser    10020408     BillDispenser.obj
 0002:00000418       _LIBID_OposBillDispenser_CCO 10020418     BillDispenser.obj
 0002:00000428       _DIID__IOPOSBillDispenserEvents 10020428     BillDispenser.obj
 0002:00000438       _CLSID_OPOSBillDispenser   10020438     BillDispenser.obj
 0002:00000448       __GUID_00000114_0000_0000_c000_000000000046 10020448     BillDispenser.obj
 0002:00000458       ??_C@_1BK@BIGILECK@?$AAA?$AAd?$AAv?$AAa?$AAp?$AAi?$AA3?$AA2?$AA?4?$AAd?$AAl?$AAl@ 10020458     BillDispenser.obj
 0002:00000474       ??_C@_0BI@MNCFCPFK@RegCreateKeyTransactedW@ 10020474     BillDispenser.obj
 0002:0000048c       __GUID_b196b287_bab4_101a_b69c_00aa00341d07 1002048c     BillDispenser.obj
 0002:0000049c       __GUID_b196b285_bab4_101a_b69c_00aa00341d07 1002049c     BillDispenser.obj
 0002:000004ac       __GUID_a6bc3ac0_dbaa_11ce_9de3_00aa004bb851 100204ac     BillDispenser.obj
 0002:000004bc       __GUID_0000010c_0000_0000_c000_000000000046 100204bc     BillDispenser.obj
 0002:000004cc       __GUID_00000146_0000_0000_c000_000000000046 100204cc     BillDispenser.obj
 0002:000004e0       ?_entries@?1??_GetEntries@COPOSBillDispenser@@SGPBU_ATL_INTMAP_ENTRY@ATL@@XZ@4QBU34@B 100204e0     BillDispenser.obj
 0002:00000600       __GUID_cf51ed10_62fe_11cf_bf86_00a0c9034836 10020600     BillDispenser.obj
 0002:00000610       __GUID_0000010a_0000_0000_c000_000000000046 10020610     BillDispenser.obj
 0002:00000620       __GUID_b196b283_bab4_101a_b69c_00aa00341d07 10020620     BillDispenser.obj
 0002:00000630       __GUID_cb5bdc81_93c1_11cf_8f20_00805f2cd064 10020630     BillDispenser.obj
 0002:00000640       ?pPropMap@?1??GetPropertyMap@COPOSBillDispenser@@SAPBUATL_PROPMAP_ENTRY@ATL@@XZ@4QBU34@B 10020640     BillDispenser.obj
 0002:000006ac       ??_C@_17DGDADEHL@?$AA_?$AAc?$AAx@ 100206ac     BillDispenser.obj
 0002:000006b4       ??_C@_17IOIMFDBO@?$AA_?$AAc?$AAy@ 100206b4     BillDispenser.obj
 0002:000006bc       ??_7CComModule@ATL@@6B@    100206bc     BillDispenser.obj
 0002:000006e4       ??_7?$CComObjectCached@VCComClassFactory@ATL@@@ATL@@6B@ 100206e4     BillDispenser.obj
 0002:000006fc       __GUID_922eada0_3424_11cf_b670_00aa004cd6d8 100206fc     BillDispenser.obj
 0002:0000070c       __GUID_9c2cad80_3424_11cf_b670_00aa004cd6d8 1002070c     BillDispenser.obj
 0002:0000071c       __GUID_00000119_0000_0000_c000_000000000046 1002071c     BillDispenser.obj
 0002:0000072c       __GUID_b196b289_bab4_101a_b69c_00aa00341d07 1002072c     BillDispenser.obj
 0002:0000073c       ??_C@_1CE@PGFMOFKI@?$AAS?$AAt?$AAa?$AAt?$AAu?$AAs?$AAU?$AAp?$AAd?$AAa?$AAt?$AAe?$AAE?$AAv?$AAe@ 1002073c     BillDispenser.obj
 0002:00000760       ??_C@_1BM@CBGEBBBJ@?$AAD?$AAi?$AAr?$AAe?$AAc?$AAt?$AAI?$AAO?$AAE?$AAv?$AAe?$AAn?$AAt@ 10020760     BillDispenser.obj
 0002:0000077c       __GUID_b196b286_bab4_101a_b69c_00aa00341d07 1002077c     BillDispenser.obj
 0002:0000078c       __GUID_00000000_0000_0000_c000_000000000046 1002078c     BillDispenser.obj
 0002:0000079c       __GUID_00020400_0000_0000_c000_000000000046 1002079c     BillDispenser.obj
 0002:000007ac       __GUID_00000117_0000_0000_c000_000000000046 100207ac     BillDispenser.obj
 0002:000007bc       ??_C@_1BC@ENICKDH@?$AAC?$AAo?$AAn?$AAt?$AAe?$AAn?$AAt?$AAs@ 100207bc     BillDispenser.obj
 0002:000007d0       ??_7?$CComObject@V?$CComEnum@UIEnumConnectionPoints@@$1?_GUID_b196b285_bab4_101a_b69c_00aa00341d07@@3U__s_GUID@@BPAUIConnectionPoint@@V?$_CopyInterface@UIConnectionPoint@@@ATL@@VCComSingleThreadModel@6@@ATL@@@ATL@@6B@ 100207d0     BillDispenser.obj
 0002:000007f0       ??_C@_1M@KANJNLFF@?$AAC?$AAL?$AAS?$AAI?$AAD@ 100207f0     BillDispenser.obj
 0002:000007fc       ??_C@_1M@EJNEECMJ@?$AAA?$AAp?$AAp?$AAI?$AAD@ 100207fc     BillDispenser.obj
 0002:00000808       __GUID_0000010e_0000_0000_c000_000000000046 10020808     BillDispenser.obj
 0002:00000818       __GUID_b196b288_bab4_101a_b69c_00aa00341d07 10020818     BillDispenser.obj
 0002:00000828       ?rgszNeverDelete@CRegParser@ATL@@1QBQB_WB 10020828     BillDispenser.obj
 0002:00000858       ??_7CRegObject@ATL@@6B@    10020858     BillDispenser.obj
 0002:00000870       __GUID_00000113_0000_0000_c000_000000000046 10020870     BillDispenser.obj
 0002:00000880       __GUID_1c2056cc_5ef4_101b_8bc8_00aa003e3b29 10020880     BillDispenser.obj
 0002:00000890       ??_C@_1CK@OEKPKBNA@?$AAC?$AAo?$AAm?$AAp?$AAo?$AAn?$AAe?$AAn?$AAt?$AA?5?$AAC?$AAa?$AAt?$AAe?$AAg@ 10020890     BillDispenser.obj
 0002:000008bc       ??_C@_1BC@NKMMNMGL@?$AAF?$AAi?$AAl?$AAe?$AAT?$AAy?$AAp?$AAe@ 100208bc     BillDispenser.obj
 0002:000008d0       ??_C@_1BE@EKPAFMCP@?$AAI?$AAn?$AAt?$AAe?$AAr?$AAf?$AAa?$AAc?$AAe@ 100208d0     BillDispenser.obj
 0002:000008e4       ??_C@_1BC@MAICEHGI@?$AAH?$AAa?$AAr?$AAd?$AAw?$AAa?$AAr?$AAe@ 100208e4     BillDispenser.obj
 0002:000008f8       ??_C@_19HLLLM@?$AAM?$AAi?$AAm?$AAe@ 100208f8     BillDispenser.obj
 0002:00000904       ??_C@_17OMAOINJK@?$AAS?$AAA?$AAM@ 10020904     BillDispenser.obj
 0002:0000090c       ??_C@_1BC@IBECJAAI@?$AAS?$AAE?$AAC?$AAU?$AAR?$AAI?$AAT?$AAY@ 1002090c     BillDispenser.obj
 0002:00000920       ??_C@_1O@GBFINDKL@?$AAS?$AAY?$AAS?$AAT?$AAE?$AAM@ 10020920     BillDispenser.obj
 0002:00000930       ??_C@_1BC@EAHCMADO@?$AAS?$AAo?$AAf?$AAt?$AAw?$AAa?$AAr?$AAe@ 10020930     BillDispenser.obj
 0002:00000944       ??_C@_1BA@JIHHIEDE@?$AAT?$AAy?$AAp?$AAe?$AAL?$AAi?$AAb@ 10020944     BillDispenser.obj
 0002:00000958       ?map@?1??HKeyFromString@CRegParser@ATL@@KAPAUHKEY__@@PA_W@Z@4QBUkeymap@?1??123@KAPAU4@0@Z@B 10020958     BillDispenser.obj
 0002:000009c8       ??_C@_19NCHLBIN@?$AAH?$AAK?$AAC?$AAR@ 100209c8     BillDispenser.obj
 0002:000009d4       ??_C@_19JAPAIJDE@?$AAH?$AAK?$AAC?$AAU@ 100209d4     BillDispenser.obj
 0002:000009e0       ??_C@_19PEALEEJB@?$AAH?$AAK?$AAL?$AAM@ 100209e0     BillDispenser.obj
 0002:000009ec       ??_C@_17PJOJPMPB@?$AAH?$AAK?$AAU@ 100209ec     BillDispenser.obj
 0002:000009f4       ??_C@_19PNBHMJPL@?$AAH?$AAK?$AAP?$AAD@ 100209f4     BillDispenser.obj
 0002:00000a00       ??_C@_19GFFAIJHG@?$AAH?$AAK?$AAD?$AAD@ 10020a00     BillDispenser.obj
 0002:00000a0c       ??_C@_19OFICIBHH@?$AAH?$AAK?$AAC?$AAC@ 10020a0c     BillDispenser.obj
 0002:00000a18       ??_C@_1CE@PACHPJFI@?$AAH?$AAK?$AAE?$AAY?$AA_?$AAC?$AAL?$AAA?$AAS?$AAS?$AAE?$AAS?$AA_?$AAR?$AAO@ 10020a18     BillDispenser.obj
 0002:00000a3c       ??_C@_1CE@HLHNCBPM@?$AAH?$AAK?$AAE?$AAY?$AA_?$AAC?$AAU?$AAR?$AAR?$AAE?$AAN?$AAT?$AA_?$AAU?$AAS@ 10020a3c     BillDispenser.obj
 0002:00000a60       ??_C@_1CG@GFBEANJL@?$AAH?$AAK?$AAE?$AAY?$AA_?$AAL?$AAO?$AAC?$AAA?$AAL?$AA_?$AAM?$AAA?$AAC?$AAH@ 10020a60     BillDispenser.obj
 0002:00000a88       ??_C@_1BG@BGODANIO@?$AAH?$AAK?$AAE?$AAY?$AA_?$AAU?$AAS?$AAE?$AAR?$AAS@ 10020a88     BillDispenser.obj
 0002:00000aa0       ??_C@_1CM@KHNNAOIC@?$AAH?$AAK?$AAE?$AAY?$AA_?$AAP?$AAE?$AAR?$AAF?$AAO?$AAR?$AAM?$AAA?$AAN?$AAC@ 10020aa0     BillDispenser.obj
 0002:00000acc       ??_C@_1BM@HAGMMHIA@?$AAH?$AAK?$AAE?$AAY?$AA_?$AAD?$AAY?$AAN?$AA_?$AAD?$AAA?$AAT?$AAA@ 10020acc     BillDispenser.obj
 0002:00000ae8       ??_C@_1CI@BBJOACGG@?$AAH?$AAK?$AAE?$AAY?$AA_?$AAC?$AAU?$AAR?$AAR?$AAE?$AAN?$AAT?$AA_?$AAC?$AAO@ 10020ae8     BillDispenser.obj
 0002:00000b10       __GUID_00000112_0000_0000_c000_000000000046 10020b10     BillDispenser.obj
 0002:00000b20       __GUID_00000109_0000_0000_c000_000000000046 10020b20     BillDispenser.obj
 0002:00000b30       __GUID_7fd52380_4e07_101b_ae2d_08002b2ec713 10020b30     BillDispenser.obj
 0002:00000b40       __GUID_3af24292_0c96_11ce_a0cf_00aa00600ab8 10020b40     BillDispenser.obj
 0002:00000b50       __GUID_00000127_0000_0000_c000_000000000046 10020b50     BillDispenser.obj
 0002:00000b60       __GUID_0000010d_0000_0000_c000_000000000046 10020b60     BillDispenser.obj
 0002:00000b70       ??_C@_1M@PPPPCDEP@?$AAA?$AAP?$AAP?$AAI?$AAD@ 10020b70     BillDispenser.obj
 0002:00000b80       ??_C@_1EA@NHKLICFA@?$AAH?$AAK?$AAC?$AAU?$AA?$AN?$AA?6?$AA?$HL?$AA?7?$AAS?$AAo?$AAf?$AAt?$AAw?$AAa?$AAr@ 10020b80     BillDispenser.obj
 0002:00000bc0       ??_C@_1BE@LJOLIMEM@?$AA?$AN?$AA?6?$AA?7?$AA?$HN?$AA?$AN?$AA?6?$AA?$HN?$AA?$AN?$AA?6@ 10020bc0     BillDispenser.obj
 0002:00000bd4       ??_C@_1O@MNLDABAF@?$AAM?$AAo?$AAd?$AAu?$AAl?$AAe@ 10020bd4     BillDispenser.obj
 0002:00000be4       ??_C@_1BG@JBACFMF@?$AAM?$AAo?$AAd?$AAu?$AAl?$AAe?$AA_?$AAR?$AAa?$AAw@ 10020be4     BillDispenser.obj
 0002:00000bfc       ??_C@_1BC@KAILKFFG@?$AAR?$AAE?$AAG?$AAI?$AAS?$AAT?$AAR?$AAY@ 10020bfc     BillDispenser.obj
 0002:00000c10       ??_7?$CComContainedObject@VCOPOSBillDispenser@@@ATL@@6B?$IDispatchImpl@UIOPOSBillDispenser@@$1?IID_IOPOSBillDispenser@@3U_GUID@@B$1?LIBID_OposBillDispenser_CCO@@3U3@B$00$0A@VCComTypeInfoHolder@ATL@@@1@@ 10020c10     BillDispenser.obj
 0002:00000d28       ??_7?$CComContainedObject@VCOPOSBillDispenser@@@ATL@@6BCComControlBase@1@@ 10020d28     BillDispenser.obj
 0002:00000d3c       ??_7?$CComContainedObject@VCOPOSBillDispenser@@@ATL@@6B?$CWindowImpl@VCOPOSBillDispenser@@VCWindow@ATL@@V?$CWinTraits@$0FGAAAAAA@$0A@@3@@1@@ 10020d3c     BillDispenser.obj
 0002:00000d4c       ??_7?$CComContainedObject@VCOPOSBillDispenser@@@ATL@@6B?$IPersistStreamInitImpl@VCOPOSBillDispenser@@@1@@ 10020d4c     BillDispenser.obj
 0002:00000d70       ??_7?$CComContainedObject@VCOPOSBillDispenser@@@ATL@@6B?$IOleControlImpl@VCOPOSBillDispenser@@@1@@ 10020d70     BillDispenser.obj
 0002:00000d8c       ??_7?$CComContainedObject@VCOPOSBillDispenser@@@ATL@@6B?$IOleObjectImpl@VCOPOSBillDispenser@@@1@@ 10020d8c     BillDispenser.obj
 0002:00000dec       ??_7?$CComContainedObject@VCOPOSBillDispenser@@@ATL@@6B?$IOleInPlaceActiveObjectImpl@VCOPOSBillDispenser@@@1@@ 10020dec     BillDispenser.obj
 0002:00000e14       ??_7?$CComContainedObject@VCOPOSBillDispenser@@@ATL@@6B?$IViewObjectExImpl@VCOPOSBillDispenser@@@1@@ 10020e14     BillDispenser.obj
 0002:00000e50       ??_7?$CComContainedObject@VCOPOSBillDispenser@@@ATL@@6B?$IOleInPlaceObjectWindowlessImpl@VCOPOSBillDispenser@@@1@@ 10020e50     BillDispenser.obj
 0002:00000e7c       ??_7?$CComContainedObject@VCOPOSBillDispenser@@@ATL@@6B?$IConnectionPointContainerImpl@VCOPOSBillDispenser@@@1@@ 10020e7c     BillDispenser.obj
 0002:00000e90       ??_7?$CComContainedObject@VCOPOSBillDispenser@@@ATL@@6B?$IPersistStorageImpl@VCOPOSBillDispenser@@@1@@ 10020e90     BillDispenser.obj
 0002:00000eb8       ??_7?$CComContainedObject@VCOPOSBillDispenser@@@ATL@@6B?$ISpecifyPropertyPagesImpl@VCOPOSBillDispenser@@@1@@ 10020eb8     BillDispenser.obj
 0002:00000ec8       ??_7?$CComContainedObject@VCOPOSBillDispenser@@@ATL@@6B?$IQuickActivateImpl@VCOPOSBillDispenser@@@1@@ 10020ec8     BillDispenser.obj
 0002:00000ee0       ??_7?$CComContainedObject@VCOPOSBillDispenser@@@ATL@@6B?$IDataObjectImpl@VCOPOSBillDispenser@@@1@@ 10020ee0     BillDispenser.obj
 0002:00000f10       ??_7?$CComContainedObject@VCOPOSBillDispenser@@@ATL@@6B?$IProvideClassInfo2Impl@$1?CLSID_OPOSBillDispenser@@3U_GUID@@B$1?DIID__IOPOSBillDispenserEvents@@3U2@B$1?LIBID_OposBillDispenser_CCO@@3U2@B$00$0A@VCComTypeInfoHolder@ATL@@@1@@ 10020f10     BillDispenser.obj
 0002:00000f24       ??_7?$CComContainedObject@VCOPOSBillDispenser@@@ATL@@6B?$IObjectSafetyImpl@VCOPOSBillDispenser@@$02@1@@ 10020f24     BillDispenser.obj
 0002:00000f3c       ??_7?$CComContainedObject@VCOPOSBillDispenser@@@ATL@@6B?$IPropertyNotifySinkCP@VCOPOSBillDispenser@@VCComDynamicUnkArray@ATL@@@1@@ 10020f3c     BillDispenser.obj
 0002:00000f5c       ??_7?$CComContainedObject@VCOPOSBillDispenser@@@ATL@@6B?$CProxy_IOPOSEvents@VCOPOSBillDispenser@@@@@ 10020f5c     BillDispenser.obj
 0002:00000f7c       ??_7?$CComAggObject@VCOPOSBillDispenser@@@ATL@@6B@ 10020f7c     BillDispenser.obj
 0002:00000f8c       ??_7?$CComObject@VCOPOSBillDispenser@@@ATL@@6B?$IDispatchImpl@UIOPOSBillDispenser@@$1?IID_IOPOSBillDispenser@@3U_GUID@@B$1?LIBID_OposBillDispenser_CCO@@3U3@B$00$0A@VCComTypeInfoHolder@ATL@@@1@@ 10020f8c     BillDispenser.obj
 0002:000010a4       ??_7?$CComObject@VCOPOSBillDispenser@@@ATL@@6BCComControlBase@1@@ 100210a4     BillDispenser.obj
 0002:000010b8       ??_7?$CComObject@VCOPOSBillDispenser@@@ATL@@6B?$CWindowImpl@VCOPOSBillDispenser@@VCWindow@ATL@@V?$CWinTraits@$0FGAAAAAA@$0A@@3@@1@@ 100210b8     BillDispenser.obj
 0002:000010c8       ??_7?$CComObject@VCOPOSBillDispenser@@@ATL@@6B?$IPersistStreamInitImpl@VCOPOSBillDispenser@@@1@@ 100210c8     BillDispenser.obj
 0002:000010ec       ??_7?$CComObject@VCOPOSBillDispenser@@@ATL@@6B?$IOleControlImpl@VCOPOSBillDispenser@@@1@@ 100210ec     BillDispenser.obj
 0002:00001108       ??_7?$CComObject@VCOPOSBillDispenser@@@ATL@@6B?$IOleObjectImpl@VCOPOSBillDispenser@@@1@@ 10021108     BillDispenser.obj
 0002:00001168       ??_7?$CComObject@VCOPOSBillDispenser@@@ATL@@6B?$IOleInPlaceActiveObjectImpl@VCOPOSBillDispenser@@@1@@ 10021168     BillDispenser.obj
 0002:00001190       ??_7?$CComObject@VCOPOSBillDispenser@@@ATL@@6B?$IViewObjectExImpl@VCOPOSBillDispenser@@@1@@ 10021190     BillDispenser.obj
 0002:000011cc       ??_7?$CComObject@VCOPOSBillDispenser@@@ATL@@6B?$IOleInPlaceObjectWindowlessImpl@VCOPOSBillDispenser@@@1@@ 100211cc     BillDispenser.obj
 0002:000011f8       ??_7?$CComObject@VCOPOSBillDispenser@@@ATL@@6B?$IConnectionPointContainerImpl@VCOPOSBillDispenser@@@1@@ 100211f8     BillDispenser.obj
 0002:0000120c       ??_7?$CComObject@VCOPOSBillDispenser@@@ATL@@6B?$IPersistStorageImpl@VCOPOSBillDispenser@@@1@@ 1002120c     BillDispenser.obj
 0002:00001234       ??_7?$CComObject@VCOPOSBillDispenser@@@ATL@@6B?$ISpecifyPropertyPagesImpl@VCOPOSBillDispenser@@@1@@ 10021234     BillDispenser.obj
 0002:00001244       ??_7?$CComObject@VCOPOSBillDispenser@@@ATL@@6B?$IQuickActivateImpl@VCOPOSBillDispenser@@@1@@ 10021244     BillDispenser.obj
 0002:0000125c       ??_7?$CComObject@VCOPOSBillDispenser@@@ATL@@6B?$IDataObjectImpl@VCOPOSBillDispenser@@@1@@ 1002125c     BillDispenser.obj
 0002:0000128c       ??_7?$CComObject@VCOPOSBillDispenser@@@ATL@@6B?$IProvideClassInfo2Impl@$1?CLSID_OPOSBillDispenser@@3U_GUID@@B$1?DIID__IOPOSBillDispenserEvents@@3U2@B$1?LIBID_OposBillDispenser_CCO@@3U2@B$00$0A@VCComTypeInfoHolder@ATL@@@1@@ 1002128c     BillDispenser.obj
 0002:000012a0       ??_7?$CComObject@VCOPOSBillDispenser@@@ATL@@6B?$IObjectSafetyImpl@VCOPOSBillDispenser@@$02@1@@ 100212a0     BillDispenser.obj
 0002:000012b8       ??_7?$CComObject@VCOPOSBillDispenser@@@ATL@@6B?$IPropertyNotifySinkCP@VCOPOSBillDispenser@@VCComDynamicUnkArray@ATL@@@1@@ 100212b8     BillDispenser.obj
 0002:000012d8       ??_7?$CComObject@VCOPOSBillDispenser@@@ATL@@6B?$CProxy_IOPOSEvents@VCOPOSBillDispenser@@@@@ 100212d8     BillDispenser.obj
 0002:000012f8       ??_C@_1O@GBFKGNEO@?$AAA?$AAT?$AAL?$AA?3?$AA?$CF?$AAp@ 100212f8     BillDispenser.obj
 0002:00001308       ??_C@_1BA@PICGEGJB@?$AAD?$AAI?$AAS?$AAP?$AAL?$AAA?$AAY@ 10021308     BillDispenser.obj
 0002:00001318       __GUID_9bfbbc02_eff1_101a_84ed_00aa00341d07 10021318     BillDispenser.obj
 0002:00001328       ?_entries@?1??_GetEntries@?$CComEnum@UIEnumConnectionPoints@@$1?_GUID_b196b285_bab4_101a_b69c_00aa00341d07@@3U__s_GUID@@BPAUIConnectionPoint@@V?$_CopyInterface@UIConnectionPoint@@@ATL@@VCComSingleThreadModel@6@@ATL@@SGPBU_ATL_INTMAP_ENTRY@3@XZ@4QBU43@B 10021328     BillDispenser.obj
 0002:00001340       __GUID_b196b284_bab4_101a_b69c_00aa00341d07 10021340     BillDispenser.obj
 0002:00001350       __GUID_00020412_0000_0000_c000_000000000046 10021350     BillDispenser.obj
 0002:00001360       __GUID_00020401_0000_0000_c000_000000000046 10021360     BillDispenser.obj
 0002:00001370       ??_7?$CComObject@V?$CComEnum@UIEnumConnections@@$1?_GUID_b196b287_bab4_101a_b69c_00aa00341d07@@3U__s_GUID@@BUtagCONNECTDATA@@V?$_Copy@UtagCONNECTDATA@@@ATL@@VCComSingleThreadModel@6@@ATL@@@ATL@@6B@ 10021370     BillDispenser.obj
 0002:00001390       __GUID_55980ba0_35aa_11cf_b671_00aa004cd6d8 10021390     BillDispenser.obj
 0002:000013a0       __GUID_b196b28b_bab4_101a_b69c_00aa00341d07 100213a0     BillDispenser.obj
 0002:000013b0       ?_entries@?1??_GetEntries@?$CComEnum@UIEnumConnections@@$1?_GUID_b196b287_bab4_101a_b69c_00aa00341d07@@3U__s_GUID@@BUtagCONNECTDATA@@V?$_Copy@UtagCONNECTDATA@@@ATL@@VCComSingleThreadModel@6@@ATL@@SGPBU_ATL_INTMAP_ENTRY@3@XZ@4QBU43@B 100213b0     BillDispenser.obj
 0002:000013c8       ??_C@_0BG@EKFFMJIO@RegOpenKeyTransactedW@ 100213c8     BillDispenser.obj
 0002:000013e0       ??_C@_0BI@HAKLOOGP@RegDeleteKeyTransactedW@ 100213e0     BillDispenser.obj
 0002:000013f8       ??_C@_0BA@LILAPHGE@RegDeleteKeyExW@ 100213f8     BillDispenser.obj
 0002:00001408       ??_C@_19ILOCMLCJ@?$AA?4?$AAt?$AAl?$AAb@ 10021408     BillDispenser.obj
 0002:00001414       __GUID_0002e012_0000_0000_c000_000000000046 10021414     BillDispenser.obj
 0002:00001424       ??_C@_1O@FHBGLCIO@?$AAC?$AAL?$AAS?$AAI?$AAD?$AA?2@ 10021424     BillDispenser.obj
 0002:00001434       ??_C@_1CK@IFBKBFAA@?$AA?2?$AAR?$AAe?$AAq?$AAu?$AAi?$AAr?$AAe?$AAd?$AA?5?$AAC?$AAa?$AAt?$AAe?$AAg@ 10021434     BillDispenser.obj
 0002:00001460       ??_C@_1DA@BIHALFED@?$AA?2?$AAI?$AAm?$AAp?$AAl?$AAe?$AAm?$AAe?$AAn?$AAt?$AAe?$AAd?$AA?5?$AAC?$AAa@ 10021460     BillDispenser.obj
 0002:00001490       ??_C@_1BK@EDKOLFBJ@?$AAO?$AAL?$AAE?$AAA?$AAU?$AAT?$AA3?$AA2?$AA?4?$AAD?$AAL?$AAL@ 10021490     BillDispenser.obj
 0002:000014ac       ??_C@_0BJ@CNLFOMHB@UnRegisterTypeLibForUser@ 100214ac     BillDispenser.obj
 0002:000014c8       ??_C@_0BH@LBOMMKPJ@RegisterTypeLibForUser@ 100214c8     BillDispenser.obj
 0002:000014e0       ??_C@_0P@MMNMMLGK@COFreezeEvents@ 100214e0     BillDispenserImpl.obj
 0002:000014f0       ??_C@_0BC@OGCGGIMP@GetPropertyNumber@ 100214f0     BillDispenserImpl.obj
 0002:00001504       ??_C@_0BC@MDCNODNB@SetPropertyNumber@ 10021504     BillDispenserImpl.obj
 0002:00001518       ??_C@_0BC@CFCCMIMD@GetPropertyString@ 10021518     BillDispenserImpl.obj
 0002:0000152c       ??_C@_0BC@CJEDNN@SetPropertyString@ 1002152c     BillDispenserImpl.obj
 0002:00001540       ??_C@_0M@LNPKKKDA@OpenService@ 10021540     BillDispenserImpl.obj
 0002:0000154c       ??_C@_0M@PCMCHHMH@CheckHealth@ 1002154c     BillDispenserImpl.obj
 0002:00001558       ??_C@_0M@JGMIDNEK@ClaimDevice@ 10021558     BillDispenserImpl.obj
 0002:00001564       ??_C@_0N@DDFIIBMP@CloseService@ 10021564     BillDispenserImpl.obj
 0002:00001574       ??_C@_08EEIHICPC@DirectIO@ 10021574     BillDispenserImpl.obj
 0002:00001580       ??_C@_0O@BCPMENMJ@ReleaseDevice@ 10021580     BillDispenserImpl.obj
 0002:00001590       ??_C@_0BA@GFABKEEE@ResetStatistics@ 10021590     BillDispenserImpl.obj
 0002:000015a0       ??_C@_0BD@DPALHJGC@RetrieveStatistics@ 100215a0     BillDispenserImpl.obj
 0002:000015b4       ??_C@_0BB@KOHIKNFC@UpdateStatistics@ 100215b4     BillDispenserImpl.obj
 0002:000015c8       ??_C@_0BH@PBKBNMGB@CompareFirmwareVersion@ 100215c8     BillDispenserImpl.obj
 0002:000015e0       ??_C@_0P@FBPDPIPA@UpdateFirmware@ 100215e0     BillDispenserImpl.obj
 0002:000015f0       ??_C@_0BB@OAMAKNAK@AdjustCashCounts@ 100215f0     BillDispenserImpl.obj
 0002:00001604       ??_C@_0N@JILLACNH@DispenseCash@ 10021604     BillDispenserImpl.obj
 0002:00001614       ??_C@_0P@HELDJPLA@ReadCashCounts@ 10021614     BillDispenserImpl.obj
 0002:00001624       ??_7?$CProxy_IOPOSEvents@VCOPOSBillDispenser@@@@6B@ 10021624     BillDispenserImpl.obj
 0002:00001644       ??_C@_1BA@IFHENID@?$AA?$FL?$AAE?$AAr?$AAr?$AAo?$AAr?$AA?$FN@ 10021644     BillDispenserImpl.obj
 0002:00001654       ??_C@_0DA@IBODKBAK@SOFTWARE?2OLEforRetail?2ServiceOP@ 10021654     BillDispenserImpl.obj
 0002:00001684       ??_C@_1M@IAIJHCCH@?$AAC?$AAl?$AAo?$AAs?$AAe@ 10021684     BillDispenserImpl.obj
 0002:00001690       ??_C@_1M@PCPKGJAH@?$AAC?$AAl?$AAa?$AAi?$AAm@ 10021690     BillDispenserImpl.obj
 0002:0000169c       ??_C@_1BA@NDFKIOCP@?$AAR?$AAe?$AAl?$AAe?$AAa?$AAs?$AAe@ 1002169c     BillDispenserImpl.obj
 0002:000016ac       ??_C@_0O@INOBNMNB@BillDispenser@ 100216ac     BillDispenserImpl.obj
 0002:000016bc       ??_C@_1BM@IJMNMBPK@?$AAG?$AAe?$AAt?$AAO?$AAp?$AAe?$AAn?$AAR?$AAe?$AAs?$AAu?$AAl?$AAt@ 100216bc     BillDispenserImpl.obj
 0002:000016d8       _IID_IPropertyNotifySink   100216d8     uuid:ocidl_i.obj
 0002:000016e8       _GUID_NULL                 100216e8     uuid:cguid_i.obj
 0002:000016f8       _CLSID_StdGlobalInterfaceTable 100216f8     uuid:cguid_i.obj
 0002:00001708       _IID_IDispatch             10021708     uuid:oaidl_i.obj
 0002:00001718       _CLSID_StdComponentCategoriesMgr 10021718     uuid:ieguids.obj
 0002:00001728       _IID_IUnknown              10021728     uuid:unknwn_i.obj
 0002:00001738       ??_C@_1EC@JIJBPKFM@?$AAa?$AAp?$AAi?$AA?9?$AAm?$AAs?$AA?9?$AAw?$AAi?$AAn?$AA?9?$AAc?$AAo?$AAr?$AAe@ 10021738     LIBCMT:thread_safe_statics.obj
 0002:0000177c       ??_C@_1BK@MGMFAEKH@?$AAk?$AAe?$AAr?$AAn?$AAe?$AAl?$AA3?$AA2?$AA?4?$AAd?$AAl?$AAl@ 1002177c     LIBCMT:thread_safe_statics.obj
 0002:00001798       ??_C@_0BJ@JEBJOJFJ@SleepConditionVariableCS@ 10021798     LIBCMT:thread_safe_statics.obj
 0002:000017b4       ??_C@_0BJ@PGPPEPCC@WakeAllConditionVariable@ 100217b4     LIBCMT:thread_safe_statics.obj
 0002:000017cd       ?nothrow@std@@3Unothrow_t@1@B 100217cd     LIBCMT:std_nothrow.obj
 0002:000017d8       __pDefaultRawDllMain       100217d8     LIBCMT:dll_dllmain.obj
 0002:000017d8       __pRawDllMain              100217d8     LIBCMT:dll_dllmain.obj
 0002:000017e0       ??_7exception@std@@6B@     100217e0     LIBCMT:throw_bad_alloc.obj
 0002:000017e8       ??_C@_0BC@EOODALEL@Unknown?5exception@ 100217e8     LIBCMT:throw_bad_alloc.obj
 0002:00001800       ??_7bad_alloc@std@@6B@     10021800     LIBCMT:throw_bad_alloc.obj
 0002:00001808       ??_C@_0P@GHFPNOJB@bad?5allocation@ 10021808     LIBCMT:throw_bad_alloc.obj
 0002:0000181c       ??_7bad_array_new_length@std@@6B@ 1002181c     LIBCMT:throw_bad_alloc.obj
 0002:00001824       ??_C@_0BF@KINCDENJ@bad?5array?5new?5length@ 10021824     LIBCMT:throw_bad_alloc.obj
 0002:00001840       ??_7type_info@@6B@         10021840     LIBCMT:std_type_info_static.obj
 0002:00001844       _GUID_ATLVer110            10021844     atls:atlbase.obj
 0002:00001858       ??_C@_1IC@ONKHOIDK@?$AAE?$AAR?$AAR?$AAO?$AAR?$AA?5?$AA?3?$AA?5?$AAU?$AAn?$AAa?$AAb?$AAl?$AAe?$AA?5@ 10021858     atls:atlbase.obj
 0002:000018dc       ??_C@_0N@FJEPLCIH@atlthunk?4dll@ 100218dc     atls:atlthunk.obj
 0002:000018ec       ??_C@_0BG@GAKFHCBM@AtlThunk_AllocateData@ 100218ec     atls:atlthunk.obj
 0002:00001904       ??_C@_0BC@JKONFIAH@AtlThunk_InitData@ 10021904     atls:atlthunk.obj
 0002:00001918       ??_C@_0BE@IAOEELAK@AtlThunk_DataToCode@ 10021918     atls:atlthunk.obj
 0002:0000192c       ??_C@_0BC@GBGKAIPI@AtlThunk_FreeData@ 1002192c     atls:atlthunk.obj
 0002:00001940       __pDestructExceptionObject 10021940     libvcruntime:ehhelpers.obj
 0002:00001948       ??_7bad_exception@std@@6B@ 10021948     libvcruntime:frame.obj
 0002:00001950       ??_C@_0O@DPKOEFFH@bad?5exception@ 10021950     libvcruntime:frame.obj
 0002:00001ce0       ??_C@_08EHJDFFNH@__based?$CI@ 10021ce0     libvcruntime:undname.obj
 0002:00001cec       ??_C@_07KOLFKCDI@__cdecl@  10021cec     libvcruntime:undname.obj
 0002:00001cf4       ??_C@_08GHMPAG@__pascal@   10021cf4     libvcruntime:undname.obj
 0002:00001d00       ??_C@_09IFJBGAPI@__stdcall@ 10021d00     libvcruntime:undname.obj
 0002:00001d0c       ??_C@_0L@NPHFGOKO@__thiscall@ 10021d0c     libvcruntime:undname.obj
 0002:00001d18       ??_C@_0L@JMKHOMEK@__fastcall@ 10021d18     libvcruntime:undname.obj
 0002:00001d24       ??_C@_0N@BCKKPABJ@__vectorcall@ 10021d24     libvcruntime:undname.obj
 0002:00001d34       ??_C@_09HIJEGCPM@__clrcall@ 10021d34     libvcruntime:undname.obj
 0002:00001d40       ??_C@_06GHPCKEAG@__eabi@   10021d40     libvcruntime:undname.obj
 0002:00001d48       ??_C@_09IOPIDJLG@__swift_1@ 10021d48     libvcruntime:undname.obj
 0002:00001d54       ??_C@_09KFNFGKHF@__swift_2@ 10021d54     libvcruntime:undname.obj
 0002:00001d60       ??_C@_07JOMMBBKO@__ptr64@  10021d60     libvcruntime:undname.obj
 0002:00001d68       ??_C@_0L@PILCLIHE@__restrict@ 10021d68     libvcruntime:undname.obj
 0002:00001d74       ??_C@_0M@GFIIJFMG@__unaligned@ 10021d74     libvcruntime:undname.obj
 0002:00001d80       ??_C@_09DHDLOLLB@restrict?$CI@ 10021d80     libvcruntime:undname.obj
 0002:00001d8a       ??_C@_00CNPNBAHC@@         10021d8a     libvcruntime:undname.obj
 0002:00001d8c       ??_C@_04NIHEBCM@?5new@     10021d8c     libvcruntime:undname.obj
 0002:00001d94       ??_C@_07FPCDHGMM@?5delete@ 10021d94     libvcruntime:undname.obj
 0002:00001d9c       ??_C@_01NEMOKFLO@?$DN@     10021d9c     libvcruntime:undname.obj
 0002:00001da0       ??_C@_02GPIOPFAK@?$DO?$DO@ 10021da0     libvcruntime:undname.obj
 0002:00001da4       ??_C@_02FODMEDOG@?$DM?$DM@ 10021da4     libvcruntime:undname.obj
 0002:00001da8       ??_C@_01DCLJPIOD@?$CB@     10021da8     libvcruntime:undname.obj
 0002:00001dac       ??_C@_02EGOFBIJA@?$DN?$DN@ 10021dac     libvcruntime:undname.obj
 0002:00001db0       ??_C@_02FDNJECIE@?$CB?$DN@ 10021db0     libvcruntime:undname.obj
 0002:00001db4       ??_C@_02GPECMEKF@?$FL?$FN@ 10021db4     libvcruntime:undname.obj
 0002:00001db8       ??_C@_08LHJFAFGD@operator@ 10021db8     libvcruntime:undname.obj
 0002:00001dc4       ??_C@_02HBOOOICD@?9?$DO@   10021dc4     libvcruntime:undname.obj
 0002:00001dc8       ??_C@_01NBENCBCI@?$CK@     10021dc8     libvcruntime:undname.obj
 0002:00001dcc       ??_C@_02ECNGHCIF@?$CL?$CL@ 10021dcc     libvcruntime:undname.obj
 0002:00001dd0       ??_C@_02BAABKJLB@?9?9@     10021dd0     libvcruntime:undname.obj
 0002:00001dd4       ??_C@_01JOAMLHOP@?9@       10021dd4     libvcruntime:undname.obj
 0002:00001dd8       ??_C@_01MIFGBAGJ@?$CL@     10021dd8     libvcruntime:undname.obj
 0002:00001ddc       ??_C@_01HNPIGOCE@?$CG@     10021ddc     libvcruntime:undname.obj
 0002:00001de0       ??_C@_03MNHNFDLC@?9?$DO?$CK@ 10021de0     libvcruntime:undname.obj
 0002:00001de4       ??_C@_01KMDKNFGN@?1@       10021de4     libvcruntime:undname.obj
 0002:00001de8       ??_C@_01FGNFDNOH@?$CF@     10021de8     libvcruntime:undname.obj
 0002:00001dec       ??_C@_01MNNFJEPP@?$DM@     10021dec     libvcruntime:undname.obj
 0002:00001df0       ??_C@_02EHCHHCKH@?$DM?$DN@ 10021df0     libvcruntime:undname.obj
 0002:00001df4       ??_C@_01PPODPGHN@?$DO@     10021df4     libvcruntime:undname.obj
 0002:00001df8       ??_C@_02EEKDKGMJ@?$DO?$DN@ 10021df8     libvcruntime:undname.obj
 0002:00001dfc       ??_C@_01IHBHIGKO@?0@       10021dfc     libvcruntime:undname.obj
 0002:00001e00       ??_C@_02HCKGKOFO@?$CI?$CJ@ 10021e00     libvcruntime:undname.obj
 0002:00001e04       ??_C@_01PJKLJHI@?$HO@      10021e04     libvcruntime:undname.obj
 0002:00001e08       ??_C@_01JKBOJNNK@?$FO@     10021e08     libvcruntime:undname.obj
 0002:00001e0c       ??_C@_01DNKMNLPK@?$HM@     10021e0c     libvcruntime:undname.obj
 0002:00001e10       ??_C@_02PPKAJPJL@?$CG?$CG@ 10021e10     libvcruntime:undname.obj
 0002:00001e14       ??_C@_02NONPIBCD@?$HM?$HM@ 10021e14     libvcruntime:undname.obj
 0002:00001e18       ??_C@_02FPIMKNGF@?$CK?$DN@ 10021e18     libvcruntime:undname.obj
 0002:00001e1c       ??_C@_02FOEOMHFC@?$CL?$DN@ 10021e1c     libvcruntime:undname.obj
 0002:00001e20       ??_C@_02FKMDLLOA@?9?$DN@   10021e20     libvcruntime:undname.obj
 0002:00001e24       ??_C@_02FJEHGPIO@?1?$DN@   10021e24     libvcruntime:undname.obj
 0002:00001e28       ??_C@_02FENAOKFI@?$CF?$DN@ 10021e28     libvcruntime:undname.obj
 0002:00001e2c       ??_C@_03IKFCCPFF@?$DO?$DO?$DN@ 10021e2c     libvcruntime:undname.obj
 0002:00001e30       ??_C@_03CDNPDDLA@?$DM?$DM?$DN@ 10021e30     libvcruntime:undname.obj
 0002:00001e34       ??_C@_02FGJGFEAB@?$CG?$DN@ 10021e34     libvcruntime:undname.obj
 0002:00001e38       ??_C@_02DHLNPPGH@?$HM?$DN@ 10021e38     libvcruntime:undname.obj
 0002:00001e3c       ??_C@_02MHEGNOJ@?$FO?$DN@  10021e3c     libvcruntime:undname.obj
 0002:00001e40       ??_C@_09IFPLHPGF@?$GAvftable?8@ 10021e40     libvcruntime:undname.obj
 0002:00001e4c       ??_C@_09BLBHBJP@?$GAvbtable?8@ 10021e4c     libvcruntime:undname.obj
 0002:00001e58       ??_C@_07FEEIOKP@?$GAvcall?8@ 10021e58     libvcruntime:undname.obj
 0002:00001e60       ??_C@_08LLFFHHDJ@?$GAtypeof?8@ 10021e60     libvcruntime:undname.obj
 0002:00001e6c       ??_C@_0BF@KDPPACIK@?$GAlocal?5static?5guard?8@ 10021e6c     libvcruntime:undname.obj
 0002:00001e84       ??_C@_08OBABFOLI@?$GAstring?8@ 10021e84     libvcruntime:undname.obj
 0002:00001e90       ??_C@_0BD@JDLKDPAB@?$GAvbase?5destructor?8@ 10021e90     libvcruntime:undname.obj
 0002:00001ea4       ??_C@_0BN@DEGPLNFK@?$GAvector?5deleting?5destructor?8@ 10021ea4     libvcruntime:undname.obj
 0002:00001ec4       ??_C@_0BO@OBMKPJIG@?$GAdefault?5constructor?5closure?8@ 10021ec4     libvcruntime:undname.obj
 0002:00001ee4       ??_C@_0BN@IMDCHIKM@?$GAscalar?5deleting?5destructor?8@ 10021ee4     libvcruntime:undname.obj
 0002:00001f04       ??_C@_0BO@PFGOCPJJ@?$GAvector?5constructor?5iterator?8@ 10021f04     libvcruntime:undname.obj
 0002:00001f24       ??_C@_0BN@LFPFMEDL@?$GAvector?5destructor?5iterator?8@ 10021f24     libvcruntime:undname.obj
 0002:00001f44       ??_C@_0CE@IKBNEHA@?$GAvector?5vbase?5constructor?5itera@ 10021f44     libvcruntime:undname.obj
 0002:00001f68       ??_C@_0BL@NILFHHPC@?$GAvirtual?5displacement?5map?8@ 10021f68     libvcruntime:undname.obj
 0002:00001f84       ??_C@_0CB@JONCMFFK@?$GAeh?5vector?5constructor?5iterator@ 10021f84     libvcruntime:undname.obj
 0002:00001fa8       ??_C@_0CA@GCEOPDGL@?$GAeh?5vector?5destructor?5iterator?8@ 10021fa8     libvcruntime:undname.obj
 0002:00001fc8       ??_C@_0CH@OOJPLCPH@?$GAeh?5vector?5vbase?5constructor?5it@ 10021fc8     libvcruntime:undname.obj
 0002:00001ff0       ??_C@_0BL@LLKPOHJI@?$GAcopy?5constructor?5closure?8@ 10021ff0     libvcruntime:undname.obj
 0002:0000200c       ??_C@_0BA@KBCDOMBN@?$GAudt?5returning?8@ 1002200c     libvcruntime:undname.obj
 0002:0000201c       ??_C@_03KLGMFNMG@?$GAEH@   1002201c     libvcruntime:undname.obj
 0002:00002020       ??_C@_05KHLCHHI@?$GARTTI@  10022020     libvcruntime:undname.obj
 0002:00002028       ??_C@_0BA@KKLDJDLB@?$GAlocal?5vftable?8@ 10022028     libvcruntime:undname.obj
 0002:00002038       ??_C@_0CE@IIHCMGGL@?$GAlocal?5vftable?5constructor?5clos@ 10022038     libvcruntime:undname.obj
 0002:0000205c       ??_C@_06FHBGPFGH@?5new?$FL?$FN@ 1002205c     libvcruntime:undname.obj
 0002:00002064       ??_C@_09LBNFPBCA@?5delete?$FL?$FN@ 10022064     libvcruntime:undname.obj
 0002:00002070       ??_C@_0P@HJKNJFNN@?$GAomni?5callsig?8@ 10022070     libvcruntime:undname.obj
 0002:00002080       ??_C@_0BL@CNOONJFP@?$GAplacement?5delete?5closure?8@ 10022080     libvcruntime:undname.obj
 0002:0000209c       ??_C@_0BN@CKNJLHMB@?$GAplacement?5delete?$FL?$FN?5closure?8@ 1002209c     libvcruntime:undname.obj
 0002:000020bc       ??_C@_0CG@CFDHKGGD@?$GAmanaged?5vector?5constructor?5ite@ 100220bc     libvcruntime:undname.obj
 0002:000020e4       ??_C@_0CF@IMGKMJNO@?$GAmanaged?5vector?5destructor?5iter@ 100220e4     libvcruntime:undname.obj
 0002:0000210c       ??_C@_0CG@HLDDJMAG@?$GAeh?5vector?5copy?5constructor?5ite@ 1002210c     libvcruntime:undname.obj
 0002:00002134       ??_C@_0CM@FCBBDIGB@?$GAeh?5vector?5vbase?5copy?5construct@ 10022134     libvcruntime:undname.obj
 0002:00002160       ??_C@_0BL@CLIPGLGB@?$GAdynamic?5initializer?5for?5?8@ 10022160     libvcruntime:undname.obj
 0002:0000217c       ??_C@_0CB@PDBIFEP@?$GAdynamic?5atexit?5destructor?5for?5@ 1002217c     libvcruntime:undname.obj
 0002:000021a0       ??_C@_0CD@CGAJBKEJ@?$GAvector?5copy?5constructor?5iterat@ 100221a0     libvcruntime:undname.obj
 0002:000021c4       ??_C@_0CJ@GJELGAMM@?$GAvector?5vbase?5copy?5constructor?5@ 100221c4     libvcruntime:undname.obj
 0002:000021f0       ??_C@_0CL@FGIJHLCE@?$GAmanaged?5vector?5copy?5constructo@ 100221f0     libvcruntime:undname.obj
 0002:0000221c       ??_C@_0BM@PMGGMLDN@?$GAlocal?5static?5thread?5guard?8@ 1002221c     libvcruntime:undname.obj
 0002:00002238       ??_C@_0N@BDNMDMOL@operator?5?$CC?$CC?5@ 10022238     libvcruntime:undname.obj
 0002:00002248       ??_C@_0BC@GGEBGALA@operator?5co_await@ 10022248     libvcruntime:undname.obj
 0002:0000225c       ??_C@_0M@GAAIMMOH@operator?$DM?$DN?$DO@ 1002225c     libvcruntime:undname.obj
 0002:00002268       ??_C@_0BC@DAFEJGAK@?5Type?5Descriptor?8@ 10022268     libvcruntime:undname.obj
 0002:0000227c       ??_C@_0BM@LDKODKLH@?5Base?5Class?5Descriptor?5at?5?$CI@ 1002227c     libvcruntime:undname.obj
 0002:00002298       ??_C@_0BD@LGICGFMM@?5Base?5Class?5Array?8@ 10022298     libvcruntime:undname.obj
 0002:000022ac       ??_C@_0BN@MECKDCOJ@?5Class?5Hierarchy?5Descriptor?8@ 100222ac     libvcruntime:undname.obj
 0002:000022cc       ??_C@_0BK@CFCOFLF@?5Complete?5Object?5Locator?8@ 100222cc     libvcruntime:undname.obj
 0002:000022e8       ??_C@_0BG@JNJLAMPM@?$GAanonymous?5namespace?8@ 100222e8     libvcruntime:undname.obj
 0002:0000230c       ??_C@_1DM@KHCHBNEB@?$AAa?$AAp?$AAi?$AA?9?$AAm?$AAs?$AA?9?$AAw?$AAi?$AAn?$AA?9?$AAc?$AAo?$AAr?$AAe@ 1002230c     libvcruntime:winapi_downlevel.obj
 0002:00002348       ??_C@_1DK@LPPGFMPP@?$AAa?$AAp?$AAi?$AA?9?$AAm?$AAs?$AA?9?$AAw?$AAi?$AAn?$AA?9?$AAc?$AAo?$AAr?$AAe@ 10022348     libvcruntime:winapi_downlevel.obj
 0002:00002384       ??_C@_1BC@GDMECMAK@?$AAk?$AAe?$AAr?$AAn?$AAe?$AAl?$AA3?$AA2@ 10022384     libvcruntime:winapi_downlevel.obj
 0002:00002398       ??_C@_1BA@PFFKHIOG@?$AAa?$AAp?$AAi?$AA?9?$AAm?$AAs?$AA?9@ 10022398     libvcruntime:winapi_downlevel.obj
 0002:000023b0       ??_C@_08KNHFBNJ@FlsAlloc@  100223b0     libvcruntime:winapi_downlevel.obj
 0002:000023c4       ??_C@_07PEJMOBNF@FlsFree@  100223c4     libvcruntime:winapi_downlevel.obj
 0002:000023d4       ??_C@_0M@GDNOONDI@FlsGetValue@ 100223d4     libvcruntime:winapi_downlevel.obj
 0002:000023e8       ??_C@_0M@JCPCPOEF@FlsSetValue@ 100223e8     libvcruntime:winapi_downlevel.obj
 0002:000023fc       ??_C@_0BM@HCFOFFN@InitializeCriticalSectionEx@ 100223fc     libvcruntime:winapi_downlevel.obj
 0002:00002580       ?format_validation_lookup_table_spectre@__crt_stdio_output@@3V?$spectre_mitigated_lookup_table@Ustate_transition_pair@__crt_stdio_output@@$0IA@@1@B 10022580     libucrt:output.obj
 0002:00002980       ??_C@_1O@CEDCILHN@?$AA?$CI?$AAn?$AAu?$AAl?$AAl?$AA?$CJ@ 10022980     libucrt:output.obj
 0002:00002990       ??_C@_06OJHGLDPL@?$CInull?$CJ@ 10022990     libucrt:output.obj
 0002:00002998       ___acrt_exception_action_table 10022998     libucrt:exception_filter.obj
 0002:00002a28       ___acrt_signal_action_table_count 10022a28     libucrt:exception_filter.obj
 0002:00002a2c       ___acrt_signal_action_first_fpe_index 10022a2c     libucrt:exception_filter.obj
 0002:00002a30       ___acrt_signal_action_fpe_count 10022a30     libucrt:exception_filter.obj
 0002:00002a34       ??_C@_1BI@BGOHAHKC@?$AAm?$AAs?$AAc?$AAo?$AAr?$AAe?$AAe?$AA?4?$AAd?$AAl?$AAl@ 10022a34     libucrt:exit.obj
 0002:00002a4c       ??_C@_0P@MIGLKIOC@CorExitProcess@ 10022a4c     libucrt:exit.obj
 0002:00002b30       ??_C@_1EA@JGEFHKEI@?$AAa?$AAp?$AAi?$AA?9?$AAm?$AAs?$AA?9?$AAw?$AAi?$AAn?$AA?9?$AAc?$AAo?$AAr?$AAe@ 10022b30     libucrt:winapi_thunks.obj
 0002:00002b70       ??_C@_1DI@IJCEHOCB@?$AAa?$AAp?$AAi?$AA?9?$AAm?$AAs?$AA?9?$AAw?$AAi?$AAn?$AA?9?$AAc?$AAo?$AAr?$AAe@ 10022b70     libucrt:winapi_thunks.obj
 0002:00002ba8       ??_C@_1EI@MPIAOHOC@?$AAa?$AAp?$AAi?$AA?9?$AAm?$AAs?$AA?9?$AAw?$AAi?$AAn?$AA?9?$AAc?$AAo?$AAr?$AAe@ 10022ba8     libucrt:winapi_thunks.obj
 0002:00002bf0       ??_C@_1FK@FPHCKFIE@?$AAa?$AAp?$AAi?$AA?9?$AAm?$AAs?$AA?9?$AAw?$AAi?$AAn?$AA?9?$AAc?$AAo?$AAr?$AAe@ 10022bf0     libucrt:winapi_thunks.obj
 0002:00002c50       ??_C@_1EM@DILCGIIO@?$AAa?$AAp?$AAi?$AA?9?$AAm?$AAs?$AA?9?$AAw?$AAi?$AAn?$AA?9?$AAc?$AAo?$AAr?$AAe@ 10022c50     libucrt:winapi_thunks.obj
 0002:00002c9c       ??_C@_1DM@LNCGDDPN@?$AAa?$AAp?$AAi?$AA?9?$AAm?$AAs?$AA?9?$AAw?$AAi?$AAn?$AA?9?$AAc?$AAo?$AAr?$AAe@ 10022c9c     libucrt:winapi_thunks.obj
 0002:00002cd8       ??_C@_1DO@FPAPJEMD@?$AAa?$AAp?$AAi?$AA?9?$AAm?$AAs?$AA?9?$AAw?$AAi?$AAn?$AA?9?$AAc?$AAo?$AAr?$AAe@ 10022cd8     libucrt:winapi_thunks.obj
 0002:00002d18       ??_C@_1DK@NDHNAHIO@?$AAa?$AAp?$AAi?$AA?9?$AAm?$AAs?$AA?9?$AAw?$AAi?$AAn?$AA?9?$AAc?$AAo?$AAr?$AAe@ 10022d18     libucrt:winapi_thunks.obj
 0002:00002d54       ??_C@_1DM@KGHDGBCM@?$AAa?$AAp?$AAi?$AA?9?$AAm?$AAs?$AA?9?$AAw?$AAi?$AAn?$AA?9?$AAc?$AAo?$AAr?$AAe@ 10022d54     libucrt:winapi_thunks.obj
 0002:00002d90       ??_C@_1EO@IJIOEFOH@?$AAa?$AAp?$AAi?$AA?9?$AAm?$AAs?$AA?9?$AAw?$AAi?$AAn?$AA?9?$AAr?$AAt?$AAc?$AAo@ 10022d90     libucrt:winapi_thunks.obj
 0002:00002de0       ??_C@_1FG@HHGEKANL@?$AAa?$AAp?$AAi?$AA?9?$AAm?$AAs?$AA?9?$AAw?$AAi?$AAn?$AA?9?$AAs?$AAe?$AAc?$AAu@ 10022de0     libucrt:winapi_thunks.obj
 0002:00002e38       ??_C@_1EG@DBIOJECG@?$AAe?$AAx?$AAt?$AA?9?$AAm?$AAs?$AA?9?$AAw?$AAi?$AAn?$AA?9?$AAn?$AAt?$AAu?$AAs@ 10022e38     libucrt:winapi_thunks.obj
 0002:00002e80       ??_C@_1EO@FIHMJCLF@?$AAe?$AAx?$AAt?$AA?9?$AAm?$AAs?$AA?9?$AAw?$AAi?$AAn?$AA?9?$AAn?$AAt?$AAu?$AAs@ 10022e80     libucrt:winapi_thunks.obj
 0002:00002ed0       ??_C@_1BC@DNHGCMLG@?$AAa?$AAd?$AAv?$AAa?$AAp?$AAi?$AA3?$AA2@ 10022ed0     libucrt:winapi_thunks.obj
 0002:00002ee4       ??_C@_1M@OAIMIKLP@?$AAn?$AAt?$AAd?$AAl?$AAl@ 10022ee4     libucrt:winapi_thunks.obj
 0002:00002ef0       ??_C@_1EG@DPGNFKGC@?$AAa?$AAp?$AAi?$AA?9?$AAm?$AAs?$AA?9?$AAw?$AAi?$AAn?$AA?9?$AAa?$AAp?$AAp?$AAm@ 10022ef0     libucrt:winapi_thunks.obj
 0002:00002f38       ??_C@_1O@BCCLBEOE@?$AAu?$AAs?$AAe?$AAr?$AA3?$AA2@ 10022f38     libucrt:winapi_thunks.obj
 0002:00002f48       ??_C@_1BA@IAIFMGEF@?$AAe?$AAx?$AAt?$AA?9?$AAm?$AAs?$AA?9@ 10022f48     libucrt:winapi_thunks.obj
 0002:00002f5c       ??_C@_0BA@FHFNEAED@AreFileApisANSI@ 10022f5c     libucrt:winapi_thunks.obj
 0002:00002f9c       ??_C@_0O@KKBNKAPF@LCMapStringEx@ 10022f9c     libucrt:winapi_thunks.obj
 0002:00002fb4       ??_C@_0BB@HBDEELFH@LocaleNameToLCID@ 10022fb4     libucrt:winapi_thunks.obj
 0002:00002fcc       ??_C@_0CF@OJOFEIGO@AppPolicyGetProcessTerminationM@ 10022fcc     libucrt:winapi_thunks.obj
 0002:00002ffc       ??_C@_0BI@BKLFFAPO@SetThreadStackGuarantee@ 10022ffc     libucrt:winapi_thunks.obj
 0002:00003058       ??_C@_03OEIAHPBN@INF@      10023058     libucrt:cvt.obj
 0002:0000305c       ??_C@_03OJHLLCGB@inf@      1002305c     libucrt:cvt.obj
 0002:00003060       ??_C@_03LKNCIKJB@NAN@      10023060     libucrt:cvt.obj
 0002:00003064       ??_C@_03LHCJEHON@nan@      10023064     libucrt:cvt.obj
 0002:00003068       ??_C@_09OFJJIMPC@NAN?$CISNAN?$CJ@ 10023068     libucrt:cvt.obj
 0002:00003074       ??_C@_09IPFBKMDL@nan?$CIsnan?$CJ@ 10023074     libucrt:cvt.obj
 0002:00003080       ??_C@_08IKHNHAJ@NAN?$CIIND?$CJ@ 10023080     libucrt:cvt.obj
 0002:0000308c       ??_C@_08OFCDMILK@nan?$CIind?$CJ@ 1002308c     libucrt:cvt.obj
 0002:00003098       ??_C@_05KLBDPFGC@e?$CL000@ 10023098     libucrt:cvt.obj
 0002:000030a0       ___lc_time_c               100230a0     libucrt:nlsdata.obj
 0002:00003204       ??_C@_03KOEHGMDN@Sun@      10023204     libucrt:nlsdata.obj
 0002:00003208       ??_C@_03PDAGKDH@Mon@       10023208     libucrt:nlsdata.obj
 0002:0000320c       ??_C@_03NAGEINEP@Tue@      1002320c     libucrt:nlsdata.obj
 0002:00003210       ??_C@_03MHOMLAJA@Wed@      10023210     libucrt:nlsdata.obj
 0002:00003214       ??_C@_03IOFIKPDN@Thu@      10023214     libucrt:nlsdata.obj
 0002:00003218       ??_C@_03IDIOELNC@Fri@      10023218     libucrt:nlsdata.obj
 0002:0000321c       ??_C@_03FEFJNEK@Sat@       1002321c     libucrt:nlsdata.obj
 0002:00003220       ??_C@_06OOPIFAJ@Sunday@    10023220     libucrt:nlsdata.obj
 0002:00003228       ??_C@_06JLEDEDGH@Monday@   10023228     libucrt:nlsdata.obj
 0002:00003230       ??_C@_07BAAGCFCM@Tuesday@  10023230     libucrt:nlsdata.obj
 0002:00003238       ??_C@_09DLIGFAKA@Wednesday@ 10023238     libucrt:nlsdata.obj
 0002:00003244       ??_C@_08HACCIKIA@Thursday@ 10023244     libucrt:nlsdata.obj
 0002:00003250       ??_C@_06JECMNKMI@Friday@   10023250     libucrt:nlsdata.obj
 0002:00003258       ??_C@_08INBOOONO@Saturday@ 10023258     libucrt:nlsdata.obj
 0002:00003264       ??_C@_03JIHJHPIE@Jan@      10023264     libucrt:nlsdata.obj
 0002:00003268       ??_C@_03HJBDCHOM@Feb@      10023268     libucrt:nlsdata.obj
 0002:0000326c       ??_C@_03ODNJBKGA@Mar@      1002326c     libucrt:nlsdata.obj
 0002:00003270       ??_C@_03LEOLGMJP@Apr@      10023270     libucrt:nlsdata.obj
 0002:00003274       ??_C@_03CNMDKL@May@        10023274     libucrt:nlsdata.obj
 0002:00003278       ??_C@_03IDFGHECI@Jun@      10023278     libucrt:nlsdata.obj
 0002:0000327c       ??_C@_03LBGABGKK@Jul@      1002327c     libucrt:nlsdata.obj
 0002:00003280       ??_C@_03IFJFEIGA@Aug@      10023280     libucrt:nlsdata.obj
 0002:00003284       ??_C@_03GGCAPAJC@Sep@      10023284     libucrt:nlsdata.obj
 0002:00003288       ??_C@_03BMAOKBAD@Oct@      10023288     libucrt:nlsdata.obj
 0002:0000328c       ??_C@_03JPJOFNIA@Nov@      1002328c     libucrt:nlsdata.obj
 0002:00003290       ??_C@_03MKABNOCG@Dec@      10023290     libucrt:nlsdata.obj
 0002:00003294       ??_C@_07CGJPFGJA@January@  10023294     libucrt:nlsdata.obj
 0002:0000329c       ??_C@_08GNJGEPFN@February@ 1002329c     libucrt:nlsdata.obj
 0002:000032a8       ??_C@_05HPCKOFNC@March@    100232a8     libucrt:nlsdata.obj
 0002:000032b0       ??_C@_05DMJDNLEJ@April@    100232b0     libucrt:nlsdata.obj
 0002:000032b8       ??_C@_04CNLMGBGM@June@     100232b8     libucrt:nlsdata.obj
 0002:000032c0       ??_C@_04MIEPOIFP@July@     100232c0     libucrt:nlsdata.obj
 0002:000032c8       ??_C@_06LBBHFDDG@August@   100232c8     libucrt:nlsdata.obj
 0002:000032d0       ??_C@_09BHHEALKD@September@ 100232d0     libucrt:nlsdata.obj
 0002:000032dc       ??_C@_07JJNFCEND@October@  100232dc     libucrt:nlsdata.obj
 0002:000032e4       ??_C@_08HCHEGEOA@November@ 100232e4     libucrt:nlsdata.obj
 0002:000032f0       ??_C@_08EDHMEBNP@December@ 100232f0     libucrt:nlsdata.obj
 0002:000032fc       ??_C@_02DEDBPAFC@AM@       100232fc     libucrt:nlsdata.obj
 0002:00003300       ??_C@_02CJNFDJBF@PM@       10023300     libucrt:nlsdata.obj
 0002:00003304       ??_C@_08BPBNCDIB@MM?1dd?1yy@ 10023304     libucrt:nlsdata.obj
 0002:00003310       ??_C@_0BE@CKGJFCPC@dddd?0?5MMMM?5dd?0?5yyyy@ 10023310     libucrt:nlsdata.obj
 0002:00003324       ??_C@_08JCCMCCIL@HH?3mm?3ss@ 10023324     libucrt:nlsdata.obj
 0002:00003330       ??_C@_17MBGCMIPB@?$AAS?$AAu?$AAn@ 10023330     libucrt:nlsdata.obj
 0002:00003338       ??_C@_17KBOMKBF@?$AAM?$AAo?$AAn@ 10023338     libucrt:nlsdata.obj
 0002:00003340       ??_C@_17BMKGEGOJ@?$AAT?$AAu?$AAe@ 10023340     libucrt:nlsdata.obj
 0002:00003348       ??_C@_17CJEDCEPE@?$AAW?$AAe?$AAd@ 10023348     libucrt:nlsdata.obj
 0002:00003350       ??_C@_17PDPHAADD@?$AAT?$AAh?$AAu@ 10023350     libucrt:nlsdata.obj
 0002:00003358       ??_C@_17HFOLPPLP@?$AAF?$AAr?$AAi@ 10023358     libucrt:nlsdata.obj
 0002:00003360       ??_C@_17GGIBDPIH@?$AAS?$AAa?$AAt@ 10023360     libucrt:nlsdata.obj
 0002:00003368       ??_C@_1O@IHNHDHPB@?$AAS?$AAu?$AAn?$AAd?$AAa?$AAy@ 10023368     libucrt:nlsdata.obj
 0002:00003378       ??_C@_1O@MMNBFLIA@?$AAM?$AAo?$AAn?$AAd?$AAa?$AAy@ 10023378     libucrt:nlsdata.obj
 0002:00003388       ??_C@_1BA@ENFBFFEK@?$AAT?$AAu?$AAe?$AAs?$AAd?$AAa?$AAy@ 10023388     libucrt:nlsdata.obj
 0002:00003398       ??_C@_1BE@EBOGMDOH@?$AAW?$AAe?$AAd?$AAn?$AAe?$AAs?$AAd?$AAa?$AAy@ 10023398     libucrt:nlsdata.obj
 0002:000033ac       ??_C@_1BC@HHMNLIHE@?$AAT?$AAh?$AAu?$AAr?$AAs?$AAd?$AAa?$AAy@ 100233ac     libucrt:nlsdata.obj
 0002:000033c0       ??_C@_1O@PDICJHAG@?$AAF?$AAr?$AAi?$AAd?$AAa?$AAy@ 100233c0     libucrt:nlsdata.obj
 0002:000033d0       ??_C@_1BC@ENMNNPAJ@?$AAS?$AAa?$AAt?$AAu?$AAr?$AAd?$AAa?$AAy@ 100233d0     libucrt:nlsdata.obj
 0002:000033e4       ??_C@_17DKNBKCHM@?$AAJ?$AAa?$AAn@ 100233e4     libucrt:nlsdata.obj
 0002:000033ec       ??_C@_17LMDJEKJN@?$AAF?$AAe?$AAb@ 100233ec     libucrt:nlsdata.obj
 0002:000033f4       ??_C@_17CKNLEDEC@?$AAM?$AAa?$AAr@ 100233f4     libucrt:nlsdata.obj
 0002:000033fc       ??_C@_17LFPOIHDD@?$AAA?$AAp?$AAr@ 100233fc     libucrt:nlsdata.obj
 0002:00003404       ??_C@_17PNNKMEED@?$AAM?$AAa?$AAy@ 10023404     libucrt:nlsdata.obj
 0002:0000340c       ??_C@_17KCJGOCPB@?$AAJ?$AAu?$AAn@ 1002340c     libucrt:nlsdata.obj
 0002:00003414       ??_C@_17IJPCKHK@?$AAJ?$AAu?$AAl@ 10023414     libucrt:nlsdata.obj
 0002:0000341c       ??_C@_17ICPELBCN@?$AAA?$AAu?$AAg@ 1002341c     libucrt:nlsdata.obj
 0002:00003424       ??_C@_17HCHCOKMG@?$AAS?$AAe?$AAp@ 10023424     libucrt:nlsdata.obj
 0002:0000342c       ??_C@_17FNLKOI@?$AAO?$AAc?$AAt@ 1002342c     libucrt:nlsdata.obj
 0002:00003434       ??_C@_17BBDMLCIG@?$AAN?$AAo?$AAv@ 10023434     libucrt:nlsdata.obj
 0002:0000343c       ??_C@_17EGKACKIF@?$AAD?$AAe?$AAc@ 1002343c     libucrt:nlsdata.obj
 0002:00003444       ??_C@_1BA@EFMEIEBA@?$AAJ?$AAa?$AAn?$AAu?$AAa?$AAr?$AAy@ 10023444     libucrt:nlsdata.obj
 0002:00003454       ??_C@_1BC@JGDDFFAM@?$AAF?$AAe?$AAb?$AAr?$AAu?$AAa?$AAr?$AAy@ 10023454     libucrt:nlsdata.obj
 0002:00003468       ??_C@_1M@IKEENEDF@?$AAM?$AAa?$AAr?$AAc?$AAh@ 10023468     libucrt:nlsdata.obj
 0002:00003474       ??_C@_1M@GJNLMHFD@?$AAA?$AAp?$AAr?$AAi?$AAl@ 10023474     libucrt:nlsdata.obj
 0002:00003480       ??_C@_19EPFLPGAP@?$AAJ?$AAu?$AAn?$AAe@ 10023480     libucrt:nlsdata.obj
 0002:0000348c       ??_C@_19BIFMLPCD@?$AAJ?$AAu?$AAl?$AAy@ 1002348c     libucrt:nlsdata.obj
 0002:00003498       ??_C@_1O@PAHLKOAC@?$AAA?$AAu?$AAg?$AAu?$AAs?$AAt@ 10023498     libucrt:nlsdata.obj
 0002:000034a8       ??_C@_1BE@DKAAMBJL@?$AAS?$AAe?$AAp?$AAt?$AAe?$AAm?$AAb?$AAe?$AAr@ 100234a8     libucrt:nlsdata.obj
 0002:000034bc       ??_C@_1BA@EPANDLNG@?$AAO?$AAc?$AAt?$AAo?$AAb?$AAe?$AAr@ 100234bc     libucrt:nlsdata.obj
 0002:000034cc       ??_C@_1BC@BGLIFPF@?$AAN?$AAo?$AAv?$AAe?$AAm?$AAb?$AAe?$AAr@ 100234cc     libucrt:nlsdata.obj
 0002:000034e0       ??_C@_1BC@FEMKIFH@?$AAD?$AAe?$AAc?$AAe?$AAm?$AAb?$AAe?$AAr@ 100234e0     libucrt:nlsdata.obj
 0002:000034f4       ??_C@_15ODEHAHHF@?$AAA?$AAM@ 100234f4     libucrt:nlsdata.obj
 0002:000034fc       ??_C@_15CLMNNGEL@?$AAP?$AAM@ 100234fc     libucrt:nlsdata.obj
 0002:00003504       ??_C@_1BC@IEBCMHCM@?$AAM?$AAM?$AA?1?$AAd?$AAd?$AA?1?$AAy?$AAy@ 10023504     libucrt:nlsdata.obj
 0002:00003518       ??_C@_1CI@KNAKOEBC@?$AAd?$AAd?$AAd?$AAd?$AA?0?$AA?5?$AAM?$AAM?$AAM?$AAM?$AA?5?$AAd?$AAd?$AA?0?$AA?5@ 10023518     libucrt:nlsdata.obj
 0002:00003540       ??_C@_1BC@GDGBMEMK@?$AAH?$AAH?$AA?3?$AAm?$AAm?$AA?3?$AAs?$AAs@ 10023540     libucrt:nlsdata.obj
 0002:00003554       ??_C@_1M@BMHNFIME@?$AAe?$AAn?$AA?9?$AAU?$AAS@ 10023554     libucrt:nlsdata.obj
 0002:00003570       ??_C@_1M@HPNHIDJI@?$AAj?$AAa?$AA?9?$AAJ?$AAP@ 10023570     libucrt:mbctype.obj
 0002:0000357c       ??_C@_1M@BIBDDEMK@?$AAz?$AAh?$AA?9?$AAC?$AAN@ 1002357c     libucrt:mbctype.obj
 0002:00003588       ??_C@_1M@JLOOOEGK@?$AAk?$AAo?$AA?9?$AAK?$AAR@ 10023588     libucrt:mbctype.obj
 0002:00003594       ??_C@_1M@CLNBBOPM@?$AAz?$AAh?$AA?9?$AAT?$AAW@ 10023594     libucrt:mbctype.obj
 0002:000035a0       ___newctype                100235a0     libucrt:ctype.obj
 0002:000038a0       ___newclmap                100238a0     libucrt:ctype.obj
 0002:00003a20       ___newcumap                10023a20     libucrt:ctype.obj
 0002:00003ba0       __wctype                   10023ba0     libucrt:ctype.obj
 0002:000044c8       ??_C@_15EMKDOKLE@?$AAa?$AAr@ 100244c8     libucrt:lcidtoname_downlevel.obj
 0002:000044d0       ??_C@_15KNPADPLH@?$AAb?$AAg@ 100244d0     libucrt:lcidtoname_downlevel.obj
 0002:000044d8       ??_C@_15EDMHLDMO@?$AAc?$AAa@ 100244d8     libucrt:lcidtoname_downlevel.obj
 0002:000044e0       ??_C@_1O@BPEAJADD@?$AAz?$AAh?$AA?9?$AAC?$AAH?$AAS@ 100244e0     libucrt:lcidtoname_downlevel.obj
 0002:000044f0       ??_C@_15LJNHCMNK@?$AAc?$AAs@ 100244f0     libucrt:lcidtoname_downlevel.obj
 0002:000044f8       ??_C@_15FOMCIDHG@?$AAd?$AAa@ 100244f8     libucrt:lcidtoname_downlevel.obj
 0002:00004500       ??_C@_15NBKABECB@?$AAd?$AAe@ 10024500     libucrt:lcidtoname_downlevel.obj
 0002:00004508       ??_C@_15GHPEIIAO@?$AAe?$AAl@ 10024508     libucrt:lcidtoname_downlevel.obj
 0002:00004510       ??_C@_15MNPNEAIF@?$AAe?$AAn@ 10024510     libucrt:lcidtoname_downlevel.obj
 0002:00004518       ??_C@_15GPIOMPMH@?$AAe?$AAs@ 10024518     libucrt:lcidtoname_downlevel.obj
 0002:00004520       ??_C@_15NGLOAKJC@?$AAf?$AAi@ 10024520     libucrt:lcidtoname_downlevel.obj
 0002:00004528       ??_C@_15FBKGNKAM@?$AAf?$AAr@ 10024528     libucrt:lcidtoname_downlevel.obj
 0002:00004530       ??_C@_15KGGCNEFK@?$AAh?$AAe@ 10024530     libucrt:lcidtoname_downlevel.obj
 0002:00004538       ??_C@_15PGHLIDMF@?$AAh?$AAu@ 10024538     libucrt:lcidtoname_downlevel.obj
 0002:00004540       ??_C@_15BIEMAPLM@?$AAi?$AAs@ 10024540     libucrt:lcidtoname_downlevel.obj
 0002:00004548       ??_C@_15IFJLDHAF@?$AAi?$AAt@ 10024548     libucrt:lcidtoname_downlevel.obj
 0002:00004550       ??_C@_15GEMIOCAG@?$AAj?$AAa@ 10024550     libucrt:lcidtoname_downlevel.obj
 0002:00004558       ??_C@_15EPELEGJA@?$AAk?$AAo@ 10024558     libucrt:lcidtoname_downlevel.obj
 0002:00004560       ??_C@_15NDDHIMN@?$AAn?$AAl@ 10024560     libucrt:lcidtoname_downlevel.obj
 0002:00004568       ??_C@_15BPIGNHCD@?$AAn?$AAo@ 10024568     libucrt:lcidtoname_downlevel.obj
 0002:00004570       ??_C@_15DEOPBLCG@?$AAp?$AAl@ 10024570     libucrt:lcidtoname_downlevel.obj
 0002:00004578       ??_C@_15KBECGEFG@?$AAp?$AAt@ 10024578     libucrt:lcidtoname_downlevel.obj
 0002:00004580       ??_C@_15GLJCBFMD@?$AAr?$AAo@ 10024580     libucrt:lcidtoname_downlevel.obj
 0002:00004588       ??_C@_15FEDGKCDI@?$AAr?$AAu@ 10024588     libucrt:lcidtoname_downlevel.obj
 0002:00004590       ??_C@_15GLKMLLHM@?$AAh?$AAr@ 10024590     libucrt:lcidtoname_downlevel.obj
 0002:00004598       ??_C@_15CPKMFBDB@?$AAs?$AAk@ 10024598     libucrt:lcidtoname_downlevel.obj
 0002:000045a0       ??_C@_15BAAIOGMK@?$AAs?$AAq@ 100245a0     libucrt:lcidtoname_downlevel.obj
 0002:000045a8       ??_C@_15INNPNOHD@?$AAs?$AAv@ 100245a8     libucrt:lcidtoname_downlevel.obj
 0002:000045b0       ??_C@_15CABMMOGH@?$AAt?$AAh@ 100245b0     libucrt:lcidtoname_downlevel.obj
 0002:000045b8       ??_C@_15BPLIHJJM@?$AAt?$AAr@ 100245b8     libucrt:lcidtoname_downlevel.obj
 0002:000045c0       ??_C@_15NEOEKKDJ@?$AAu?$AAr@ 100245c0     libucrt:lcidtoname_downlevel.obj
 0002:000045c8       ??_C@_15NFICGAJK@?$AAi?$AAd@ 100245c8     libucrt:lcidtoname_downlevel.obj
 0002:000045d0       ??_C@_15PJPFLCCM@?$AAu?$AAk@ 100245d0     libucrt:lcidtoname_downlevel.obj
 0002:000045d8       ??_C@_15HPJPHDM@?$AAb?$AAe@ 100245d8     libucrt:lcidtoname_downlevel.obj
 0002:000045e0       ??_C@_15LCHLGJII@?$AAs?$AAl@ 100245e0     libucrt:lcidtoname_downlevel.obj
 0002:000045e8       ??_C@_15PCFJPHHO@?$AAe?$AAt@ 100245e8     libucrt:lcidtoname_downlevel.obj
 0002:000045f0       ??_C@_15HPFPGODN@?$AAl?$AAv@ 100245f0     libucrt:lcidtoname_downlevel.obj
 0002:000045f8       ??_C@_15NFFGKGLG@?$AAl?$AAt@ 100245f8     libucrt:lcidtoname_downlevel.obj
 0002:00004600       ??_C@_15BDAKCCHN@?$AAf?$AAa@ 10024600     libucrt:lcidtoname_downlevel.obj
 0002:00004608       ??_C@_15NFGIAIAJ@?$AAv?$AAi@ 10024608     libucrt:lcidtoname_downlevel.obj
 0002:00004610       ??_C@_15LMKNDMHN@?$AAh?$AAy@ 10024610     libucrt:lcidtoname_downlevel.obj
 0002:00004618       ??_C@_15IJBHMCFL@?$AAa?$AAz@ 10024618     libucrt:lcidtoname_downlevel.obj
 0002:00004620       ??_C@_15EKOFJABL@?$AAe?$AAu@ 10024620     libucrt:lcidtoname_downlevel.obj
 0002:00004628       ??_C@_15BGHADCNK@?$AAm?$AAk@ 10024628     libucrt:lcidtoname_downlevel.obj
 0002:00004630       ??_C@_15JDNICKHM@?$AAa?$AAf@ 10024630     libucrt:lcidtoname_downlevel.obj
 0002:00004638       ??_C@_15KPJEDBKD@?$AAk?$AAa@ 10024638     libucrt:lcidtoname_downlevel.obj
 0002:00004640       ??_C@_15PDNFFFEO@?$AAf?$AAo@ 10024640     libucrt:lcidtoname_downlevel.obj
 0002:00004648       ??_C@_15OMLEGLOC@?$AAh?$AAi@ 10024648     libucrt:lcidtoname_downlevel.obj
 0002:00004650       ??_C@_15IDNNENKK@?$AAm?$AAs@ 10024650     libucrt:lcidtoname_downlevel.obj
 0002:00004658       ??_C@_15MACJNBMH@?$AAk?$AAk@ 10024658     libucrt:lcidtoname_downlevel.obj
 0002:00004660       ??_C@_15DKDJEOND@?$AAk?$AAy@ 10024660     libucrt:lcidtoname_downlevel.obj
 0002:00004668       ??_C@_15DFGDLJBG@?$AAs?$AAw@ 10024668     libucrt:lcidtoname_downlevel.obj
 0002:00004670       ??_C@_15BBFAICNG@?$AAu?$AAz@ 10024670     libucrt:lcidtoname_downlevel.obj
 0002:00004678       ??_C@_15DKNDCGEA@?$AAt?$AAt@ 10024678     libucrt:lcidtoname_downlevel.obj
 0002:00004680       ??_C@_15MGIFMDPL@?$AAp?$AAa@ 10024680     libucrt:lcidtoname_downlevel.obj
 0002:00004688       ??_C@_15HCNDBBA@?$AAg?$AAu@ 10024688     libucrt:lcidtoname_downlevel.obj
 0002:00004690       ??_C@_15FNBEIBON@?$AAt?$AAa@ 10024690     libucrt:lcidtoname_downlevel.obj
 0002:00004698       ??_C@_15NCHGBGLK@?$AAt?$AAe@ 10024698     libucrt:lcidtoname_downlevel.obj
 0002:000046a0       ??_C@_15PHPHCBPF@?$AAk?$AAn@ 100246a0     libucrt:lcidtoname_downlevel.obj
 0002:000046a8       ??_C@_15DLGBCKMP@?$AAm?$AAr@ 100246a8     libucrt:lcidtoname_downlevel.obj
 0002:000046b0       ??_C@_15EABBLBFF@?$AAs?$AAa@ 100246b0     libucrt:lcidtoname_downlevel.obj
 0002:000046b8       ??_C@_15CBKOMCOI@?$AAm?$AAn@ 100246b8     libucrt:lcidtoname_downlevel.obj
 0002:000046c0       ??_C@_15CKDMCJAF@?$AAg?$AAl@ 100246c0     libucrt:lcidtoname_downlevel.obj
 0002:000046c8       ??_C@_17CNJFBPG@?$AAk?$AAo?$AAk@ 100246c8     libucrt:lcidtoname_downlevel.obj
 0002:000046d0       ??_C@_17FFBJICPL@?$AAs?$AAy?$AAr@ 100246d0     libucrt:lcidtoname_downlevel.obj
 0002:000046d8       ??_C@_17KPNDCPAF@?$AAd?$AAi?$AAv@ 100246d8     libucrt:lcidtoname_downlevel.obj
 0002:000046e0       ??_C@_1M@OKAHONE@?$AAa?$AAr?$AA?9?$AAS?$AAA@ 100246e0     libucrt:lcidtoname_downlevel.obj
 0002:000046ec       ??_C@_1M@FFFIGIGK@?$AAb?$AAg?$AA?9?$AAB?$AAG@ 100246ec     libucrt:lcidtoname_downlevel.obj
 0002:000046f8       ??_C@_1M@BJNKEDC@?$AAc?$AAa?$AA?9?$AAE?$AAS@ 100246f8     libucrt:lcidtoname_downlevel.obj
 0002:00004704       ??_C@_1M@IJJHFJHA@?$AAc?$AAs?$AA?9?$AAC?$AAZ@ 10024704     libucrt:lcidtoname_downlevel.obj
 0002:00004710       ??_C@_1M@CLPEOBGI@?$AAd?$AAa?$AA?9?$AAD?$AAK@ 10024710     libucrt:lcidtoname_downlevel.obj
 0002:0000471c       ??_C@_1M@MCMADGCB@?$AAd?$AAe?$AA?9?$AAD?$AAE@ 1002471c     libucrt:lcidtoname_downlevel.obj
 0002:00004728       ??_C@_1M@OOCKEMAM@?$AAe?$AAl?$AA?9?$AAG?$AAR@ 10024728     libucrt:lcidtoname_downlevel.obj
 0002:00004734       ??_C@_1M@DDNJFGID@?$AAf?$AAi?$AA?9?$AAF?$AAI@ 10024734     libucrt:lcidtoname_downlevel.obj
 0002:00004740       ??_C@_1M@GLIPPMAC@?$AAf?$AAr?$AA?9?$AAF?$AAR@ 10024740     libucrt:lcidtoname_downlevel.obj
 0002:0000474c       ??_C@_1M@GFMCHPE@?$AAh?$AAe?$AA?9?$AAI?$AAL@ 1002474c     libucrt:lcidtoname_downlevel.obj
 0002:00004758       ??_C@_1M@MHLPGNKM@?$AAh?$AAu?$AA?9?$AAH?$AAU@ 10024758     libucrt:lcidtoname_downlevel.obj
 0002:00004764       ??_C@_1M@LPDDNNPN@?$AAi?$AAs?$AA?9?$AAI?$AAS@ 10024764     libucrt:lcidtoname_downlevel.obj
 0002:00004770       ??_C@_1M@MADIPODN@?$AAi?$AAt?$AA?9?$AAI?$AAT@ 10024770     libucrt:lcidtoname_downlevel.obj
 0002:0000477c       ??_C@_1M@IHBJJGG@?$AAn?$AAl?$AA?9?$AAN?$AAL@ 1002477c     libucrt:lcidtoname_downlevel.obj
 0002:00004788       ??_C@_1M@EANAGDL@?$AAn?$AAb?$AA?9?$AAN?$AAO@ 10024788     libucrt:lcidtoname_downlevel.obj
 0002:00004794       ??_C@_1M@NEIEMEGP@?$AAp?$AAl?$AA?9?$AAP?$AAL@ 10024794     libucrt:lcidtoname_downlevel.obj
 0002:000047a0       ??_C@_1M@BOCFIGEP@?$AAp?$AAt?$AA?9?$AAB?$AAR@ 100247a0     libucrt:lcidtoname_downlevel.obj
 0002:000047ac       ??_C@_1M@IMPFOPBG@?$AAr?$AAo?$AA?9?$AAR?$AAO@ 100247ac     libucrt:lcidtoname_downlevel.obj
 0002:000047b8       ??_C@_1M@IDNNEJMM@?$AAr?$AAu?$AA?9?$AAR?$AAU@ 100247b8     libucrt:lcidtoname_downlevel.obj
 0002:000047c4       ??_C@_1M@LILEEOGM@?$AAh?$AAr?$AA?9?$AAH?$AAR@ 100247c4     libucrt:lcidtoname_downlevel.obj
 0002:000047d0       ??_C@_1M@FKIFEHPB@?$AAs?$AAk?$AA?9?$AAS?$AAK@ 100247d0     libucrt:lcidtoname_downlevel.obj
 0002:000047dc       ??_C@_1M@LJMAMNPJ@?$AAs?$AAq?$AA?9?$AAA?$AAL@ 100247dc     libucrt:lcidtoname_downlevel.obj
 0002:000047e8       ??_C@_1M@GIAKDKJK@?$AAs?$AAv?$AA?9?$AAS?$AAE@ 100247e8     libucrt:lcidtoname_downlevel.obj
 0002:000047f4       ??_C@_1M@MKJKIKCL@?$AAt?$AAh?$AA?9?$AAT?$AAH@ 100247f4     libucrt:lcidtoname_downlevel.obj
 0002:00004800       ??_C@_1M@MFLCCMPB@?$AAt?$AAr?$AA?9?$AAT?$AAR@ 10024800     libucrt:lcidtoname_downlevel.obj
 0002:0000480c       ??_C@_1M@OIJHDKJN@?$AAu?$AAr?$AA?9?$AAP?$AAK@ 1002480c     libucrt:lcidtoname_downlevel.obj
 0002:00004818       ??_C@_1M@LHIPCIEK@?$AAi?$AAd?$AA?9?$AAI?$AAD@ 10024818     libucrt:lcidtoname_downlevel.obj
 0002:00004824       ??_C@_1M@MFMOBGI@?$AAu?$AAk?$AA?9?$AAU?$AAA@ 10024824     libucrt:lcidtoname_downlevel.obj
 0002:00004830       ??_C@_1M@OBGLJIPL@?$AAb?$AAe?$AA?9?$AAB?$AAY@ 10024830     libucrt:lcidtoname_downlevel.obj
 0002:0000483c       ??_C@_1M@BCFAJEAD@?$AAs?$AAl?$AA?9?$AAS?$AAI@ 1002483c     libucrt:lcidtoname_downlevel.obj
 0002:00004848       ??_C@_1M@FKFFEDDN@?$AAe?$AAt?$AA?9?$AAE?$AAE@ 10024848     libucrt:lcidtoname_downlevel.obj
 0002:00004854       ??_C@_1M@KGKKAACI@?$AAl?$AAv?$AA?9?$AAL?$AAV@ 10024854     libucrt:lcidtoname_downlevel.obj
 0002:00004860       ??_C@_1M@IFGBIJO@?$AAl?$AAt?$AA?9?$AAL?$AAT@ 10024860     libucrt:lcidtoname_downlevel.obj
 0002:0000486c       ??_C@_1M@FGEAHEDM@?$AAf?$AAa?$AA?9?$AAI?$AAR@ 1002486c     libucrt:lcidtoname_downlevel.obj
 0002:00004878       ??_C@_1M@KBMAIBFN@?$AAv?$AAi?$AA?9?$AAV?$AAN@ 10024878     libucrt:lcidtoname_downlevel.obj
 0002:00004884       ??_C@_1M@GPCBKDJK@?$AAh?$AAy?$AA?9?$AAA?$AAM@ 10024884     libucrt:lcidtoname_downlevel.obj
 0002:00004890       ??_C@_1BG@BECMDDJB@?$AAa?$AAz?$AA?9?$AAA?$AAZ?$AA?9?$AAL?$AAa?$AAt?$AAn@ 10024890     libucrt:lcidtoname_downlevel.obj
 0002:000048a8       ??_C@_1M@MAOFCAEA@?$AAe?$AAu?$AA?9?$AAE?$AAS@ 100248a8     libucrt:lcidtoname_downlevel.obj
 0002:000048b4       ??_C@_1M@IGHABKPI@?$AAm?$AAk?$AA?9?$AAM?$AAK@ 100248b4     libucrt:lcidtoname_downlevel.obj
 0002:000048c0       ??_C@_1M@IAIGNEJG@?$AAt?$AAn?$AA?9?$AAZ?$AAA@ 100248c0     libucrt:lcidtoname_downlevel.obj
 0002:000048cc       ??_C@_1M@IIJCOJFA@?$AAx?$AAh?$AA?9?$AAZ?$AAA@ 100248cc     libucrt:lcidtoname_downlevel.obj
 0002:000048d8       ??_C@_1M@LGPJHNJH@?$AAz?$AAu?$AA?9?$AAZ?$AAA@ 100248d8     libucrt:lcidtoname_downlevel.obj
 0002:000048e4       ??_C@_1M@HOKAOIO@?$AAa?$AAf?$AA?9?$AAZ?$AAA@ 100248e4     libucrt:lcidtoname_downlevel.obj
 0002:000048f0       ??_C@_1M@DPCLHLIE@?$AAk?$AAa?$AA?9?$AAG?$AAE@ 100248f0     libucrt:lcidtoname_downlevel.obj
 0002:000048fc       ??_C@_1M@BLKMHJBI@?$AAf?$AAo?$AA?9?$AAF?$AAO@ 100248fc     libucrt:lcidtoname_downlevel.obj
 0002:00004908       ??_C@_1M@LGGJAPPB@?$AAh?$AAi?$AA?9?$AAI?$AAN@ 10024908     libucrt:lcidtoname_downlevel.obj
 0002:00004914       ??_C@_1M@FIKPIHFE@?$AAm?$AAt?$AA?9?$AAM?$AAT@ 10024914     libucrt:lcidtoname_downlevel.obj
 0002:00004920       ??_C@_1M@HEGGPBFA@?$AAs?$AAe?$AA?9?$AAN?$AAO@ 10024920     libucrt:lcidtoname_downlevel.obj
 0002:0000492c       ??_C@_1M@EIBJEEPA@?$AAm?$AAs?$AA?9?$AAM?$AAY@ 1002492c     libucrt:lcidtoname_downlevel.obj
 0002:00004938       ??_C@_1M@FHLBGMPP@?$AAk?$AAk?$AA?9?$AAK?$AAZ@ 10024938     libucrt:lcidtoname_downlevel.obj
 0002:00004944       ??_C@_1M@NGJJLCGI@?$AAk?$AAy?$AA?9?$AAK?$AAG@ 10024944     libucrt:lcidtoname_downlevel.obj
 0002:00004950       ??_C@_1M@GIENNBFC@?$AAs?$AAw?$AA?9?$AAK?$AAE@ 10024950     libucrt:lcidtoname_downlevel.obj
 0002:0000495c       ??_C@_1BG@NDGMJIMJ@?$AAu?$AAz?$AA?9?$AAU?$AAZ?$AA?9?$AAL?$AAa?$AAt?$AAn@ 1002495c     libucrt:lcidtoname_downlevel.obj
 0002:00004974       ??_C@_1M@IDCCIHBC@?$AAt?$AAt?$AA?9?$AAR?$AAU@ 10024974     libucrt:lcidtoname_downlevel.obj
 0002:00004980       ??_C@_1M@LOICPMOJ@?$AAb?$AAn?$AA?9?$AAI?$AAN@ 10024980     libucrt:lcidtoname_downlevel.obj
 0002:0000498c       ??_C@_1M@KPKKNEAH@?$AAp?$AAa?$AA?9?$AAI?$AAN@ 1002498c     libucrt:lcidtoname_downlevel.obj
 0002:00004998       ??_C@_1M@PJGPPBOG@?$AAg?$AAu?$AA?9?$AAI?$AAN@ 10024998     libucrt:lcidtoname_downlevel.obj
 0002:000049a4       ??_C@_1M@KMKMOPHI@?$AAt?$AAa?$AA?9?$AAI?$AAN@ 100249a4     libucrt:lcidtoname_downlevel.obj
 0002:000049b0       ??_C@_1M@KFEHEPAC@?$AAt?$AAe?$AA?9?$AAI?$AAN@ 100249b0     libucrt:lcidtoname_downlevel.obj
 0002:000049bc       ??_C@_1M@CDCLMGHI@?$AAk?$AAn?$AA?9?$AAI?$AAN@ 100249bc     libucrt:lcidtoname_downlevel.obj
 0002:000049c8       ??_C@_1M@MIODLDKF@?$AAm?$AAl?$AA?9?$AAI?$AAN@ 100249c8     libucrt:lcidtoname_downlevel.obj
 0002:000049d4       ??_C@_1M@PBIEACPO@?$AAm?$AAr?$AA?9?$AAI?$AAN@ 100249d4     libucrt:lcidtoname_downlevel.obj
 0002:000049e0       ??_C@_1M@NIDEAGPH@?$AAs?$AAa?$AA?9?$AAI?$AAN@ 100249e0     libucrt:lcidtoname_downlevel.obj
 0002:000049ec       ??_C@_1M@FHIHCBIO@?$AAm?$AAn?$AA?9?$AAM?$AAN@ 100249ec     libucrt:lcidtoname_downlevel.obj
 0002:000049f8       ??_C@_1M@JAIJPENP@?$AAc?$AAy?$AA?9?$AAG?$AAB@ 100249f8     libucrt:lcidtoname_downlevel.obj
 0002:00004a04       ??_C@_1M@PHGFBEPN@?$AAg?$AAl?$AA?9?$AAE?$AAS@ 10024a04     libucrt:lcidtoname_downlevel.obj
 0002:00004a10       ??_C@_1O@KPIPDNCP@?$AAk?$AAo?$AAk?$AA?9?$AAI?$AAN@ 10024a10     libucrt:lcidtoname_downlevel.obj
 0002:00004a20       ??_C@_1O@KNHJLDJA@?$AAs?$AAy?$AAr?$AA?9?$AAS?$AAY@ 10024a20     libucrt:lcidtoname_downlevel.obj
 0002:00004a30       ??_C@_1O@MKEKBLAH@?$AAd?$AAi?$AAv?$AA?9?$AAM?$AAV@ 10024a30     libucrt:lcidtoname_downlevel.obj
 0002:00004a40       ??_C@_1O@OHDCKDDF@?$AAq?$AAu?$AAz?$AA?9?$AAB?$AAO@ 10024a40     libucrt:lcidtoname_downlevel.obj
 0002:00004a50       ??_C@_1M@LEPJNLFD@?$AAn?$AAs?$AA?9?$AAZ?$AAA@ 10024a50     libucrt:lcidtoname_downlevel.obj
 0002:00004a5c       ??_C@_1M@OMLEIIJB@?$AAm?$AAi?$AA?9?$AAN?$AAZ@ 10024a5c     libucrt:lcidtoname_downlevel.obj
 0002:00004a68       ??_C@_1M@PMPEAILG@?$AAa?$AAr?$AA?9?$AAI?$AAQ@ 10024a68     libucrt:lcidtoname_downlevel.obj
 0002:00004a74       ??_C@_1M@CNKPNOEE@?$AAd?$AAe?$AA?9?$AAC?$AAH@ 10024a74     libucrt:lcidtoname_downlevel.obj
 0002:00004a80       ??_C@_1M@LKMGMLKO@?$AAe?$AAn?$AA?9?$AAG?$AAB@ 10024a80     libucrt:lcidtoname_downlevel.obj
 0002:00004a8c       ??_C@_1M@PGKJFFGL@?$AAe?$AAs?$AA?9?$AAM?$AAX@ 10024a8c     libucrt:lcidtoname_downlevel.obj
 0002:00004a98       ??_C@_1M@DNNANBDC@?$AAf?$AAr?$AA?9?$AAB?$AAE@ 10024a98     libucrt:lcidtoname_downlevel.obj
 0002:00004aa4       ??_C@_1M@HLGMDFHM@?$AAi?$AAt?$AA?9?$AAC?$AAH@ 10024aa4     libucrt:lcidtoname_downlevel.obj
 0002:00004ab0       ??_C@_1M@CLLBGJH@?$AAn?$AAl?$AA?9?$AAB?$AAE@ 10024ab0     libucrt:lcidtoname_downlevel.obj
 0002:00004abc       ??_C@_1M@BODBOGLF@?$AAn?$AAn?$AA?9?$AAN?$AAO@ 10024abc     libucrt:lcidtoname_downlevel.obj
 0002:00004ac8       ??_C@_1M@HFFAHKAD@?$AAp?$AAt?$AA?9?$AAP?$AAT@ 10024ac8     libucrt:lcidtoname_downlevel.obj
 0002:00004ad4       ??_C@_1BG@LNOAKHIE@?$AAs?$AAr?$AA?9?$AAS?$AAP?$AA?9?$AAL?$AAa?$AAt?$AAn@ 10024ad4     libucrt:lcidtoname_downlevel.obj
 0002:00004aec       ??_C@_1M@HBMHBGAK@?$AAs?$AAv?$AA?9?$AAF?$AAI@ 10024aec     libucrt:lcidtoname_downlevel.obj
 0002:00004af8       ??_C@_1BG@DGCJGJBE@?$AAa?$AAz?$AA?9?$AAA?$AAZ?$AA?9?$AAC?$AAy?$AAr?$AAl@ 10024af8     libucrt:lcidtoname_downlevel.obj
 0002:00004b10       ??_C@_1M@KEJDAAHB@?$AAs?$AAe?$AA?9?$AAS?$AAE@ 10024b10     libucrt:lcidtoname_downlevel.obj
 0002:00004b1c       ??_C@_1M@HEIBJJAD@?$AAm?$AAs?$AA?9?$AAB?$AAN@ 10024b1c     libucrt:lcidtoname_downlevel.obj
 0002:00004b28       ??_C@_1BG@PBGJMCEM@?$AAu?$AAz?$AA?9?$AAU?$AAZ?$AA?9?$AAC?$AAy?$AAr?$AAl@ 10024b28     libucrt:lcidtoname_downlevel.obj
 0002:00004b40       ??_C@_1O@LAOBCMDF@?$AAq?$AAu?$AAz?$AA?9?$AAE?$AAC@ 10024b40     libucrt:lcidtoname_downlevel.obj
 0002:00004b50       ??_C@_1M@POEEMAIO@?$AAa?$AAr?$AA?9?$AAE?$AAG@ 10024b50     libucrt:lcidtoname_downlevel.obj
 0002:00004b5c       ??_C@_1M@EFAKDEDL@?$AAz?$AAh?$AA?9?$AAH?$AAK@ 10024b5c     libucrt:lcidtoname_downlevel.obj
 0002:00004b68       ??_C@_1M@HKKIJHGI@?$AAd?$AAe?$AA?9?$AAA?$AAT@ 10024b68     libucrt:lcidtoname_downlevel.obj
 0002:00004b74       ??_C@_1M@KBFBEHJF@?$AAe?$AAn?$AA?9?$AAA?$AAU@ 10024b74     libucrt:lcidtoname_downlevel.obj
 0002:00004b80       ??_C@_1M@MNPLFAAH@?$AAe?$AAs?$AA?9?$AAE?$AAS@ 10024b80     libucrt:lcidtoname_downlevel.obj
 0002:00004b8c       ??_C@_1M@HJOOJFMA@?$AAf?$AAr?$AA?9?$AAC?$AAA@ 10024b8c     libucrt:lcidtoname_downlevel.obj
 0002:00004b98       ??_C@_1BG@JPOFPNAB@?$AAs?$AAr?$AA?9?$AAS?$AAP?$AA?9?$AAC?$AAy?$AAr?$AAl@ 10024b98     libucrt:lcidtoname_downlevel.obj
 0002:00004bb0       ??_C@_1M@LNFOCMOB@?$AAs?$AAe?$AA?9?$AAF?$AAI@ 10024bb0     libucrt:lcidtoname_downlevel.obj
 0002:00004bbc       ??_C@_1O@MGJBOAMB@?$AAq?$AAu?$AAz?$AA?9?$AAP?$AAE@ 10024bbc     libucrt:lcidtoname_downlevel.obj
 0002:00004bcc       ??_C@_1M@GJINLBOK@?$AAa?$AAr?$AA?9?$AAL?$AAY@ 10024bcc     libucrt:lcidtoname_downlevel.obj
 0002:00004bd8       ??_C@_1M@GGMNHJNL@?$AAz?$AAh?$AA?9?$AAS?$AAG@ 10024bd8     libucrt:lcidtoname_downlevel.obj
 0002:00004be4       ??_C@_1M@HOIKODND@?$AAd?$AAe?$AA?9?$AAL?$AAU@ 10024be4     libucrt:lcidtoname_downlevel.obj
 0002:00004bf0       ??_C@_1M@DDOCCGFG@?$AAe?$AAn?$AA?9?$AAC?$AAA@ 10024bf0     libucrt:lcidtoname_downlevel.obj
 0002:00004bfc       ??_C@_1M@BNOEMJLF@?$AAe?$AAs?$AA?9?$AAG?$AAT@ 10024bfc     libucrt:lcidtoname_downlevel.obj
 0002:00004c08       ??_C@_1M@EOGNKEK@?$AAf?$AAr?$AA?9?$AAC?$AAH@ 10024c08     libucrt:lcidtoname_downlevel.obj
 0002:00004c14       ??_C@_1M@FLIDJFHL@?$AAh?$AAr?$AA?9?$AAB?$AAA@ 10024c14     libucrt:lcidtoname_downlevel.obj
 0002:00004c20       ??_C@_1O@FMCELNAJ@?$AAs?$AAm?$AAj?$AA?9?$AAN?$AAO@ 10024c20     libucrt:lcidtoname_downlevel.obj
 0002:00004c30       ??_C@_1M@JHGLJMGJ@?$AAa?$AAr?$AA?9?$AAD?$AAZ@ 10024c30     libucrt:lcidtoname_downlevel.obj
 0002:00004c3c       ??_C@_1M@JKKFDCNP@?$AAz?$AAh?$AA?9?$AAM?$AAO@ 10024c3c     libucrt:lcidtoname_downlevel.obj
 0002:00004c48       ??_C@_1M@GEEFALPE@?$AAd?$AAe?$AA?9?$AAL?$AAI@ 10024c48     libucrt:lcidtoname_downlevel.obj
 0002:00004c54       ??_C@_1M@IGEOFBG@?$AAe?$AAn?$AA?9?$AAN?$AAZ@ 10024c54     libucrt:lcidtoname_downlevel.obj
 0002:00004c60       ??_C@_1M@KDBONEHP@?$AAe?$AAs?$AA?9?$AAC?$AAR@ 10024c60     libucrt:lcidtoname_downlevel.obj
 0002:00004c6c       ??_C@_1M@FHMDOHNN@?$AAf?$AAr?$AA?9?$AAL?$AAU@ 10024c6c     libucrt:lcidtoname_downlevel.obj
 0002:00004c78       ??_C@_1BG@NFKKMAFG@?$AAb?$AAs?$AA?9?$AAB?$AAA?$AA?9?$AAL?$AAa?$AAt?$AAn@ 10024c78     libucrt:lcidtoname_downlevel.obj
 0002:00004c90       ??_C@_1O@IMNBEMCI@?$AAs?$AAm?$AAj?$AA?9?$AAS?$AAE@ 10024c90     libucrt:lcidtoname_downlevel.obj
 0002:00004ca0       ??_C@_1M@DHHMBNDP@?$AAa?$AAr?$AA?9?$AAM?$AAA@ 10024ca0     libucrt:lcidtoname_downlevel.obj
 0002:00004cac       ??_C@_1M@BNBLJCGH@?$AAe?$AAn?$AA?9?$AAI?$AAE@ 10024cac     libucrt:lcidtoname_downlevel.obj
 0002:00004cb8       ??_C@_1M@GEPAFMDL@?$AAe?$AAs?$AA?9?$AAP?$AAA@ 10024cb8     libucrt:lcidtoname_downlevel.obj
 0002:00004cc4       ??_C@_1M@OJONDMDL@?$AAf?$AAr?$AA?9?$AAM?$AAC@ 10024cc4     libucrt:lcidtoname_downlevel.obj
 0002:00004cd0       ??_C@_1BG@OBCNFJB@?$AAs?$AAr?$AA?9?$AAB?$AAA?$AA?9?$AAL?$AAa?$AAt?$AAn@ 10024cd0     libucrt:lcidtoname_downlevel.obj
 0002:00004ce8       ??_C@_1O@KEMEEGPO@?$AAs?$AAm?$AAa?$AA?9?$AAN?$AAO@ 10024ce8     libucrt:lcidtoname_downlevel.obj
 0002:00004cf8       ??_C@_1M@ELMGFODK@?$AAa?$AAr?$AA?9?$AAT?$AAN@ 10024cf8     libucrt:lcidtoname_downlevel.obj
 0002:00004d04       ??_C@_1M@BHDLHFAF@?$AAe?$AAn?$AA?9?$AAZ?$AAA@ 10024d04     libucrt:lcidtoname_downlevel.obj
 0002:00004d10       ??_C@_1M@BMGIGLIF@?$AAe?$AAs?$AA?9?$AAD?$AAO@ 10024d10     libucrt:lcidtoname_downlevel.obj
 0002:00004d1c       ??_C@_1BG@CMBHIPBE@?$AAs?$AAr?$AA?9?$AAB?$AAA?$AA?9?$AAC?$AAy?$AAr?$AAl@ 10024d1c     libucrt:lcidtoname_downlevel.obj
 0002:00004d34       ??_C@_1O@HEDBLHNP@?$AAs?$AAm?$AAa?$AA?9?$AAS?$AAE@ 10024d34     libucrt:lcidtoname_downlevel.obj
 0002:00004d44       ??_C@_1M@DAGCADIM@?$AAa?$AAr?$AA?9?$AAO?$AAM@ 10024d44     libucrt:lcidtoname_downlevel.obj
 0002:00004d50       ??_C@_1M@FODLMICG@?$AAe?$AAn?$AA?9?$AAJ?$AAM@ 10024d50     libucrt:lcidtoname_downlevel.obj
 0002:00004d5c       ??_C@_1M@DNMLCIHB@?$AAe?$AAs?$AA?9?$AAV?$AAE@ 10024d5c     libucrt:lcidtoname_downlevel.obj
 0002:00004d68       ??_C@_1O@EOKHMKJK@?$AAs?$AAm?$AAs?$AA?9?$AAF?$AAI@ 10024d68     libucrt:lcidtoname_downlevel.obj
 0002:00004d78       ??_C@_1M@CAFJMKOF@?$AAa?$AAr?$AA?9?$AAY?$AAE@ 10024d78     libucrt:lcidtoname_downlevel.obj
 0002:00004d84       ??_C@_1M@CBFHIJLI@?$AAe?$AAn?$AA?9?$AAC?$AAB@ 10024d84     libucrt:lcidtoname_downlevel.obj
 0002:00004d90       ??_C@_1M@BGNFLDN@?$AAe?$AAs?$AA?9?$AAC?$AAO@ 10024d90     libucrt:lcidtoname_downlevel.obj
 0002:00004d9c       ??_C@_1O@JMPHMAMC@?$AAs?$AAm?$AAn?$AA?9?$AAF?$AAI@ 10024d9c     libucrt:lcidtoname_downlevel.obj
 0002:00004dac       ??_C@_1M@JLANABKE@?$AAa?$AAr?$AA?9?$AAS?$AAY@ 10024dac     libucrt:lcidtoname_downlevel.obj
 0002:00004db8       ??_C@_1M@HPKGCFGN@?$AAe?$AAn?$AA?9?$AAB?$AAZ@ 10024db8     libucrt:lcidtoname_downlevel.obj
 0002:00004dc4       ??_C@_1M@OLJCMLGM@?$AAe?$AAs?$AA?9?$AAP?$AAE@ 10024dc4     libucrt:lcidtoname_downlevel.obj
 0002:00004dd0       ??_C@_1M@MKKGFKLE@?$AAa?$AAr?$AA?9?$AAJ?$AAO@ 10024dd0     libucrt:lcidtoname_downlevel.obj
 0002:00004ddc       ??_C@_1M@EKPGLDNI@?$AAe?$AAn?$AA?9?$AAT?$AAT@ 10024ddc     libucrt:lcidtoname_downlevel.obj
 0002:00004de8       ??_C@_1M@OONGHFHE@?$AAe?$AAs?$AA?9?$AAA?$AAR@ 10024de8     libucrt:lcidtoname_downlevel.obj
 0002:00004df4       ??_C@_1M@OOJFGBHE@?$AAa?$AAr?$AA?9?$AAL?$AAB@ 10024df4     libucrt:lcidtoname_downlevel.obj
 0002:00004e00       ??_C@_1M@GCEJHNEG@?$AAe?$AAn?$AA?9?$AAZ?$AAW@ 10024e00     libucrt:lcidtoname_downlevel.obj
 0002:00004e0c       ??_C@_1M@JNOCAHJI@?$AAe?$AAs?$AA?9?$AAE?$AAC@ 10024e0c     libucrt:lcidtoname_downlevel.obj
 0002:00004e18       ??_C@_1M@JEFHPGGB@?$AAa?$AAr?$AA?9?$AAK?$AAW@ 10024e18     libucrt:lcidtoname_downlevel.obj
 0002:00004e24       ??_C@_1M@MLKIBJOJ@?$AAe?$AAn?$AA?9?$AAP?$AAH@ 10024e24     libucrt:lcidtoname_downlevel.obj
 0002:00004e30       ??_C@_1M@BDNIPEND@?$AAe?$AAs?$AA?9?$AAC?$AAL@ 10024e30     libucrt:lcidtoname_downlevel.obj
 0002:00004e3c       ??_C@_1M@MPNMEKBD@?$AAa?$AAr?$AA?9?$AAA?$AAE@ 10024e3c     libucrt:lcidtoname_downlevel.obj
 0002:00004e48       ??_C@_1M@KBJALCPI@?$AAe?$AAs?$AA?9?$AAU?$AAY@ 10024e48     libucrt:lcidtoname_downlevel.obj
 0002:00004e54       ??_C@_1M@LLCCOAGA@?$AAa?$AAr?$AA?9?$AAB?$AAH@ 10024e54     libucrt:lcidtoname_downlevel.obj
 0002:00004e60       ??_C@_1M@PBFNCDEL@?$AAe?$AAs?$AA?9?$AAP?$AAY@ 10024e60     libucrt:lcidtoname_downlevel.obj
 0002:00004e6c       ??_C@_1M@EDGINPNP@?$AAa?$AAr?$AA?9?$AAQ?$AAA@ 10024e6c     libucrt:lcidtoname_downlevel.obj
 0002:00004e78       ??_C@_1M@MKDBIIJI@?$AAe?$AAs?$AA?9?$AAB?$AAO@ 10024e78     libucrt:lcidtoname_downlevel.obj
 0002:00004e84       ??_C@_1M@CPKKEBLD@?$AAe?$AAs?$AA?9?$AAS?$AAV@ 10024e84     libucrt:lcidtoname_downlevel.obj
 0002:00004e90       ??_C@_1M@NDBGMMJL@?$AAe?$AAs?$AA?9?$AAH?$AAN@ 10024e90     libucrt:lcidtoname_downlevel.obj
 0002:00004e9c       ??_C@_1M@JIJIBHDP@?$AAe?$AAs?$AA?9?$AAN?$AAI@ 10024e9c     libucrt:lcidtoname_downlevel.obj
 0002:00004ea8       ??_C@_1M@CGFMKEEK@?$AAe?$AAs?$AA?9?$AAP?$AAR@ 10024ea8     libucrt:lcidtoname_downlevel.obj
 0002:00004eb4       ??_C@_1O@ICJHKIIK@?$AAz?$AAh?$AA?9?$AAC?$AAH?$AAT@ 10024eb4     libucrt:lcidtoname_downlevel.obj
 0002:00004ec4       ??_C@_15CLNEJCE@?$AAs?$AAr@ 10024ec4     libucrt:lcidtoname_downlevel.obj
 0002:000055f0       ??_C@_1M@KAHEKEIG@?$AAa?$AAf?$AA?9?$AAz?$AAa@ 100255f0     libucrt:lcidtoname_downlevel.obj
 0002:000055fc       ??_C@_1M@GIECOABL@?$AAa?$AAr?$AA?9?$AAa?$AAe@ 100255fc     libucrt:lcidtoname_downlevel.obj
 0002:00005608       ??_C@_1M@BMLMEKGI@?$AAa?$AAr?$AA?9?$AAb?$AAh@ 10025608     libucrt:lcidtoname_downlevel.obj
 0002:00005614       ??_C@_1M@DAPFDGGB@?$AAa?$AAr?$AA?9?$AAd?$AAz@ 10025614     libucrt:lcidtoname_downlevel.obj
 0002:00005620       ??_C@_1M@FJNKGKIG@?$AAa?$AAr?$AA?9?$AAe?$AAg@ 10025620     libucrt:lcidtoname_downlevel.obj
 0002:0000562c       ??_C@_1M@FLGKKCLO@?$AAa?$AAr?$AA?9?$AAi?$AAq@ 1002562c     libucrt:lcidtoname_downlevel.obj
 0002:00005638       ??_C@_1M@GNDIPALM@?$AAa?$AAr?$AA?9?$AAj?$AAo@ 10025638     libucrt:lcidtoname_downlevel.obj
 0002:00005644       ??_C@_1M@DDMJFMGJ@?$AAa?$AAr?$AA?9?$AAk?$AAw@ 10025644     libucrt:lcidtoname_downlevel.obj
 0002:00005650       ??_C@_1M@EJALMLHM@?$AAa?$AAr?$AA?9?$AAl?$AAb@ 10025650     libucrt:lcidtoname_downlevel.obj
 0002:0000565c       ??_C@_1M@MOBDBLOC@?$AAa?$AAr?$AA?9?$AAl?$AAy@ 1002565c     libucrt:lcidtoname_downlevel.obj
 0002:00005668       ??_C@_1M@JAOCLHDH@?$AAa?$AAr?$AA?9?$AAm?$AAa@ 10025668     libucrt:lcidtoname_downlevel.obj
 0002:00005674       ??_C@_1M@JHPMKJIE@?$AAa?$AAr?$AA?9?$AAo?$AAm@ 10025674     libucrt:lcidtoname_downlevel.obj
 0002:00005680       ??_C@_1M@OEPGHFNH@?$AAa?$AAr?$AA?9?$AAq?$AAa@ 10025680     libucrt:lcidtoname_downlevel.obj
 0002:0000568c       ??_C@_1M@KJDONENM@?$AAa?$AAr?$AA?9?$AAs?$AAa@ 1002568c     libucrt:lcidtoname_downlevel.obj
 0002:00005698       ??_C@_1M@DMJDKLKM@?$AAa?$AAr?$AA?9?$AAs?$AAy@ 10025698     libucrt:lcidtoname_downlevel.obj
 0002:000056a4       ??_C@_1M@OMFIPEDC@?$AAa?$AAr?$AA?9?$AAt?$AAn@ 100256a4     libucrt:lcidtoname_downlevel.obj
 0002:000056b0       ??_C@_1M@IHMHGAON@?$AAa?$AAr?$AA?9?$AAy?$AAe@ 100256b0     libucrt:lcidtoname_downlevel.obj
 0002:000056bc       ??_C@_1BG@KDCPGJGB@?$AAa?$AAz?$AA?9?$AAa?$AAz?$AA?9?$AAc?$AAy?$AAr?$AAl@ 100256bc     libucrt:lcidtoname_downlevel.obj
 0002:000056d4       ??_C@_1BG@IBCKDDOE@?$AAa?$AAz?$AA?9?$AAa?$AAz?$AA?9?$AAl?$AAa?$AAt?$AAn@ 100256d4     libucrt:lcidtoname_downlevel.obj
 0002:000056ec       ??_C@_1M@EGPFDCPD@?$AAb?$AAe?$AA?9?$AAb?$AAy@ 100256ec     libucrt:lcidtoname_downlevel.obj
 0002:000056f8       ??_C@_1M@PCMGMCGC@?$AAb?$AAg?$AA?9?$AAb?$AAg@ 100256f8     libucrt:lcidtoname_downlevel.obj
 0002:00005704       ??_C@_1M@BJBMFGOB@?$AAb?$AAn?$AA?9?$AAi?$AAn@ 10025704     libucrt:lcidtoname_downlevel.obj
 0002:00005710       ??_C@_1BG@EAKMMACD@?$AAb?$AAs?$AA?9?$AAb?$AAa?$AA?9?$AAl?$AAa?$AAt?$AAn@ 10025710     libucrt:lcidtoname_downlevel.obj
 0002:00005728       ??_C@_1M@KGADAODK@?$AAc?$AAa?$AA?9?$AAe?$AAs@ 10025728     libucrt:lcidtoname_downlevel.obj
 0002:00005734       ??_C@_1M@COAJPDHI@?$AAc?$AAs?$AA?9?$AAc?$AAz@ 10025734     libucrt:lcidtoname_downlevel.obj
 0002:00005740       ??_C@_1M@DHBHFONH@?$AAc?$AAy?$AA?9?$AAg?$AAb@ 10025740     libucrt:lcidtoname_downlevel.obj
 0002:0000574c       ??_C@_1M@IMGKELGA@?$AAd?$AAa?$AA?9?$AAd?$AAk@ 1002574c     libucrt:lcidtoname_downlevel.obj
 0002:00005758       ??_C@_1M@NNDGDNGA@?$AAd?$AAe?$AA?9?$AAa?$AAt@ 10025758     libucrt:lcidtoname_downlevel.obj
 0002:00005764       ??_C@_1M@IKDBHEEM@?$AAd?$AAe?$AA?9?$AAc?$AAh@ 10025764     libucrt:lcidtoname_downlevel.obj
 0002:00005770       ??_C@_1M@GFFOJMCJ@?$AAd?$AAe?$AA?9?$AAd?$AAe@ 10025770     libucrt:lcidtoname_downlevel.obj
 0002:0000577c       ??_C@_1M@MDNLKBPM@?$AAd?$AAe?$AA?9?$AAl?$AAi@ 1002577c     libucrt:lcidtoname_downlevel.obj
 0002:00005788       ??_C@_1M@NJBEEJNL@?$AAd?$AAe?$AA?9?$AAl?$AAu@ 10025788     libucrt:lcidtoname_downlevel.obj
 0002:00005794       ??_C@_1O@GNNELBAP@?$AAd?$AAi?$AAv?$AA?9?$AAm?$AAv@ 10025794     libucrt:lcidtoname_downlevel.obj
 0002:000057a4       ??_C@_1M@EJLEOGAE@?$AAe?$AAl?$AA?9?$AAg?$AAr@ 100257a4     libucrt:lcidtoname_downlevel.obj
 0002:000057b0       ??_C@_1M@GMPONJN@?$AAe?$AAn?$AA?9?$AAa?$AAu@ 100257b0     libucrt:lcidtoname_downlevel.obj
 0002:000057bc       ??_C@_1M@NIDIIPGF@?$AAe?$AAn?$AA?9?$AAb?$AAz@ 100257bc     libucrt:lcidtoname_downlevel.obj
 0002:000057c8       ??_C@_1M@JEHMIMFO@?$AAe?$AAn?$AA?9?$AAc?$AAa@ 100257c8     libucrt:lcidtoname_downlevel.obj
 0002:000057d4       ??_C@_1M@IGMJCDLA@?$AAe?$AAn?$AA?9?$AAc?$AAb@ 100257d4     libucrt:lcidtoname_downlevel.obj
 0002:000057e0       ??_C@_1M@BNFIGBKG@?$AAe?$AAn?$AA?9?$AAg?$AAb@ 100257e0     libucrt:lcidtoname_downlevel.obj
 0002:000057ec       ??_C@_1M@LKIFDIGP@?$AAe?$AAn?$AA?9?$AAi?$AAe@ 100257ec     libucrt:lcidtoname_downlevel.obj
 0002:000057f8       ??_C@_1M@PJKFGCCO@?$AAe?$AAn?$AA?9?$AAj?$AAm@ 100257f8     libucrt:lcidtoname_downlevel.obj
 0002:00005804       ??_C@_1M@KPPKEPBO@?$AAe?$AAn?$AA?9?$AAn?$AAz@ 10025804     libucrt:lcidtoname_downlevel.obj
 0002:00005810       ??_C@_1M@GMDGLDOB@?$AAe?$AAn?$AA?9?$AAp?$AAh@ 10025810     libucrt:lcidtoname_downlevel.obj
 0002:0000581c       ??_C@_1M@ONGIBJNA@?$AAe?$AAn?$AA?9?$AAt?$AAt@ 1002581c     libucrt:lcidtoname_downlevel.obj
 0002:00005828       ??_C@_1M@LLODPCMM@?$AAe?$AAn?$AA?9?$AAu?$AAs@ 10025828     libucrt:lcidtoname_downlevel.obj
 0002:00005834       ??_C@_1M@LAKFNPAN@?$AAe?$AAn?$AA?9?$AAz?$AAa@ 10025834     libucrt:lcidtoname_downlevel.obj
 0002:00005840       ??_C@_1M@MFNHNHEO@?$AAe?$AAn?$AA?9?$AAz?$AAw@ 10025840     libucrt:lcidtoname_downlevel.obj
 0002:0000584c       ??_C@_1M@EJEINPHM@?$AAe?$AAs?$AA?9?$AAa?$AAr@ 1002584c     libucrt:lcidtoname_downlevel.obj
 0002:00005858       ??_C@_1M@GNKPCCJA@?$AAe?$AAs?$AA?9?$AAb?$AAo@ 10025858     libucrt:lcidtoname_downlevel.obj
 0002:00005864       ??_C@_1M@LEEGFONL@?$AAe?$AAs?$AA?9?$AAc?$AAl@ 10025864     libucrt:lcidtoname_downlevel.obj
 0002:00005870       ??_C@_1M@KGPDPBDF@?$AAe?$AAs?$AA?9?$AAc?$AAo@ 10025870     libucrt:lcidtoname_downlevel.obj
 0002:0000587c       ??_C@_1M@EIAHOHH@?$AAe?$AAs?$AA?9?$AAc?$AAr@ 1002587c     libucrt:lcidtoname_downlevel.obj
 0002:00005888       ??_C@_1M@LLPGMBIN@?$AAe?$AAs?$AA?9?$AAd?$AAo@ 10025888     libucrt:lcidtoname_downlevel.obj
 0002:00005894       ??_C@_1M@DKHMKNJA@?$AAe?$AAs?$AA?9?$AAe?$AAc@ 10025894     libucrt:lcidtoname_downlevel.obj
 0002:000058a0       ??_C@_1M@GKGFPKAP@?$AAe?$AAs?$AA?9?$AAe?$AAs@ 100258a0     libucrt:lcidtoname_downlevel.obj
 0002:000058ac       ??_C@_1M@LKHKGDLN@?$AAe?$AAs?$AA?9?$AAg?$AAt@ 100258ac     libucrt:lcidtoname_downlevel.obj
 0002:000058b8       ??_C@_1M@HEIIGGJD@?$AAe?$AAs?$AA?9?$AAh?$AAn@ 100258b8     libucrt:lcidtoname_downlevel.obj
 0002:000058c4       ??_C@_1M@FBDHPPGD@?$AAe?$AAs?$AA?9?$AAm?$AAx@ 100258c4     libucrt:lcidtoname_downlevel.obj
 0002:000058d0       ??_C@_1M@DPAGLNDH@?$AAe?$AAs?$AA?9?$AAn?$AAi@ 100258d0     libucrt:lcidtoname_downlevel.obj
 0002:000058dc       ??_C@_1M@MDGOPGDD@?$AAe?$AAs?$AA?9?$AAp?$AAa@ 100258dc     libucrt:lcidtoname_downlevel.obj
 0002:000058e8       ??_C@_1M@EMAMGBGE@?$AAe?$AAs?$AA?9?$AAp?$AAe@ 100258e8     libucrt:lcidtoname_downlevel.obj
 0002:000058f4       ??_C@_1M@IBMCAOEC@?$AAe?$AAs?$AA?9?$AAp?$AAr@ 100258f4     libucrt:lcidtoname_downlevel.obj
 0002:00005900       ??_C@_1M@FGMDIJED@?$AAe?$AAs?$AA?9?$AAp?$AAy@ 10025900     libucrt:lcidtoname_downlevel.obj
 0002:0000590c       ??_C@_1M@IIDEOLLL@?$AAe?$AAs?$AA?9?$AAs?$AAv@ 1002590c     libucrt:lcidtoname_downlevel.obj
 0002:00005918       ??_C@_1M@GAOBIPA@?$AAe?$AAs?$AA?9?$AAu?$AAy@ 10025918     libucrt:lcidtoname_downlevel.obj
 0002:00005924       ??_C@_1M@JKFFICHJ@?$AAe?$AAs?$AA?9?$AAv?$AAe@ 10025924     libucrt:lcidtoname_downlevel.obj
 0002:00005930       ??_C@_1M@PNMLOJDF@?$AAe?$AAt?$AA?9?$AAe?$AAe@ 10025930     libucrt:lcidtoname_downlevel.obj
 0002:0000593c       ??_C@_1M@GHHLIKEI@?$AAe?$AAu?$AA?9?$AAe?$AAs@ 1002593c     libucrt:lcidtoname_downlevel.obj
 0002:00005948       ??_C@_1M@PBNONODE@?$AAf?$AAa?$AA?9?$AAi?$AAr@ 10025948     libucrt:lcidtoname_downlevel.obj
 0002:00005954       ??_C@_1M@JEEHPMIL@?$AAf?$AAi?$AA?9?$AAf?$AAi@ 10025954     libucrt:lcidtoname_downlevel.obj
 0002:00005960       ??_C@_1M@LMDCNDBA@?$AAf?$AAo?$AA?9?$AAf?$AAo@ 10025960     libucrt:lcidtoname_downlevel.obj
 0002:0000596c       ??_C@_1M@JKEOHLDK@?$AAf?$AAr?$AA?9?$AAb?$AAe@ 1002596c     libucrt:lcidtoname_downlevel.obj
 0002:00005978       ??_C@_1M@NOHADPMI@?$AAf?$AAr?$AA?9?$AAc?$AAa@ 10025978     libucrt:lcidtoname_downlevel.obj
 0002:00005984       ??_C@_1M@KDHIHAEC@?$AAf?$AAr?$AA?9?$AAc?$AAh@ 10025984     libucrt:lcidtoname_downlevel.obj
 0002:00005990       ??_C@_1M@MMBBFGAK@?$AAf?$AAr?$AA?9?$AAf?$AAr@ 10025990     libucrt:lcidtoname_downlevel.obj
 0002:0000599c       ??_C@_1M@PAFNENNF@?$AAf?$AAr?$AA?9?$AAl?$AAu@ 1002599c     libucrt:lcidtoname_downlevel.obj
 0002:000059a8       ??_C@_1M@EOHDJGDD@?$AAf?$AAr?$AA?9?$AAm?$AAc@ 100259a8     libucrt:lcidtoname_downlevel.obj
 0002:000059b4       ??_C@_1M@FAPLLOPF@?$AAg?$AAl?$AA?9?$AAe?$AAs@ 100259b4     libucrt:lcidtoname_downlevel.obj
 0002:000059c0       ??_C@_1M@FOPBFLOO@?$AAg?$AAu?$AA?9?$AAi?$AAn@ 100259c0     libucrt:lcidtoname_downlevel.obj
 0002:000059cc       ??_C@_1M@KBMCINPM@?$AAh?$AAe?$AA?9?$AAi?$AAl@ 100259cc     libucrt:lcidtoname_downlevel.obj
 0002:000059d8       ??_C@_1M@BBPHKFPJ@?$AAh?$AAi?$AA?9?$AAi?$AAn@ 100259d8     libucrt:lcidtoname_downlevel.obj
 0002:000059e4       ??_C@_1M@PMBNDPHD@?$AAh?$AAr?$AA?9?$AAb?$AAa@ 100259e4     libucrt:lcidtoname_downlevel.obj
 0002:000059f0       ??_C@_1M@BPCKOEGE@?$AAh?$AAr?$AA?9?$AAh?$AAr@ 100259f0     libucrt:lcidtoname_downlevel.obj
 0002:000059fc       ??_C@_1M@GACBMHKE@?$AAh?$AAu?$AA?9?$AAh?$AAu@ 100259fc     libucrt:lcidtoname_downlevel.obj
 0002:00005a08       ??_C@_1M@MILPAJJC@?$AAh?$AAy?$AA?9?$AAa?$AAm@ 10025a08     libucrt:lcidtoname_downlevel.obj
 0002:00005a14       ??_C@_1M@BABBICEC@?$AAi?$AAd?$AA?9?$AAi?$AAd@ 10025a14     libucrt:lcidtoname_downlevel.obj
 0002:00005a20       ??_C@_1M@BIKNHHPF@?$AAi?$AAs?$AA?9?$AAi?$AAs@ 10025a20     libucrt:lcidtoname_downlevel.obj
 0002:00005a2c       ??_C@_1M@NMPCJPHE@?$AAi?$AAt?$AA?9?$AAc?$AAh@ 10025a2c     libucrt:lcidtoname_downlevel.obj
 0002:00005a38       ??_C@_1M@GHKGFEDF@?$AAi?$AAt?$AA?9?$AAi?$AAt@ 10025a38     libucrt:lcidtoname_downlevel.obj
 0002:00005a44       ??_C@_1M@NIEJCJJA@?$AAj?$AAa?$AA?9?$AAj?$AAp@ 10025a44     libucrt:lcidtoname_downlevel.obj
 0002:00005a50       ??_C@_1M@JILFNBIM@?$AAk?$AAa?$AA?9?$AAg?$AAe@ 10025a50     libucrt:lcidtoname_downlevel.obj
 0002:00005a5c       ??_C@_1M@PACPMGPH@?$AAk?$AAk?$AA?9?$AAk?$AAz@ 10025a5c     libucrt:lcidtoname_downlevel.obj
 0002:00005a68       ??_C@_1M@IELFGMHA@?$AAk?$AAn?$AA?9?$AAi?$AAn@ 10025a68     libucrt:lcidtoname_downlevel.obj
 0002:00005a74       ??_C@_1O@IBBJHCH@?$AAk?$AAo?$AAk?$AA?9?$AAi?$AAn@ 10025a74     libucrt:lcidtoname_downlevel.obj
 0002:00005a84       ??_C@_1M@DMHAEOGC@?$AAk?$AAo?$AA?9?$AAk?$AAr@ 10025a84     libucrt:lcidtoname_downlevel.obj
 0002:00005a90       ??_C@_1M@HBAHBIGA@?$AAk?$AAy?$AA?9?$AAk?$AAg@ 10025a90     libucrt:lcidtoname_downlevel.obj
 0002:00005a9c       ??_C@_1M@KPMILCJG@?$AAl?$AAt?$AA?9?$AAl?$AAt@ 10025a9c     libucrt:lcidtoname_downlevel.obj
 0002:00005aa8       ??_C@_1M@BDEKKCA@?$AAl?$AAv?$AA?9?$AAl?$AAv@ 10025aa8     libucrt:lcidtoname_downlevel.obj
 0002:00005ab4       ??_C@_1M@ELCKCCJJ@?$AAm?$AAi?$AA?9?$AAn?$AAz@ 10025ab4     libucrt:lcidtoname_downlevel.obj
 0002:00005ac0       ??_C@_1M@CBOOLAPA@?$AAm?$AAk?$AA?9?$AAm?$AAk@ 10025ac0     libucrt:lcidtoname_downlevel.obj
 0002:00005acc       ??_C@_1M@GPHNBJKN@?$AAm?$AAl?$AA?9?$AAi?$AAn@ 10025acc     libucrt:lcidtoname_downlevel.obj
 0002:00005ad8       ??_C@_1M@PABJILIG@?$AAm?$AAn?$AA?9?$AAm?$AAn@ 10025ad8     libucrt:lcidtoname_downlevel.obj
 0002:00005ae4       ??_C@_1M@FGBKKIPG@?$AAm?$AAr?$AA?9?$AAi?$AAn@ 10025ae4     libucrt:lcidtoname_downlevel.obj
 0002:00005af0       ??_C@_1M@NDBPDDAL@?$AAm?$AAs?$AA?9?$AAb?$AAn@ 10025af0     libucrt:lcidtoname_downlevel.obj
 0002:00005afc       ??_C@_1M@OPIHOOPI@?$AAm?$AAs?$AA?9?$AAm?$AAy@ 10025afc     libucrt:lcidtoname_downlevel.obj
 0002:00005b08       ??_C@_1M@PPDBCNFM@?$AAm?$AAt?$AA?9?$AAm?$AAt@ 10025b08     libucrt:lcidtoname_downlevel.obj
 0002:00005b14       ??_C@_1M@KDJDKMDD@?$AAn?$AAb?$AA?9?$AAn?$AAo@ 10025b14     libucrt:lcidtoname_downlevel.obj
 0002:00005b20       ??_C@_1M@KFCFLMJP@?$AAn?$AAl?$AA?9?$AAb?$AAe@ 10025b20     libucrt:lcidtoname_downlevel.obj
 0002:00005b2c       ??_C@_1M@KPOPDDGO@?$AAn?$AAl?$AA?9?$AAn?$AAl@ 10025b2c     libucrt:lcidtoname_downlevel.obj
 0002:00005b38       ??_C@_1M@LJKPEMLN@?$AAn?$AAn?$AA?9?$AAn?$AAo@ 10025b38     libucrt:lcidtoname_downlevel.obj
 0002:00005b44       ??_C@_1M@BDGHHBFL@?$AAn?$AAs?$AA?9?$AAz?$AAa@ 10025b44     libucrt:lcidtoname_downlevel.obj
 0002:00005b50       ??_C@_1M@IDEHOAP@?$AAp?$AAa?$AA?9?$AAi?$AAn@ 10025b50     libucrt:lcidtoname_downlevel.obj
 0002:00005b5c       ??_C@_1M@HDBKGOGH@?$AAp?$AAl?$AA?9?$AAp?$AAl@ 10025b5c     libucrt:lcidtoname_downlevel.obj
 0002:00005b68       ??_C@_1M@LJLLCMEH@?$AAp?$AAt?$AA?9?$AAb?$AAr@ 10025b68     libucrt:lcidtoname_downlevel.obj
 0002:00005b74       ??_C@_1M@NCMONAAL@?$AAp?$AAt?$AA?9?$AAp?$AAt@ 10025b74     libucrt:lcidtoname_downlevel.obj
 0002:00005b80       ??_C@_1O@EAKMAJDN@?$AAq?$AAu?$AAz?$AA?9?$AAb?$AAo@ 10025b80     libucrt:lcidtoname_downlevel.obj
 0002:00005b90       ??_C@_1O@BHHPIGDN@?$AAq?$AAu?$AAz?$AA?9?$AAe?$AAc@ 10025b90     libucrt:lcidtoname_downlevel.obj
 0002:00005ba0       ??_C@_1O@GBAPEKMJ@?$AAq?$AAu?$AAz?$AA?9?$AAp?$AAe@ 10025ba0     libucrt:lcidtoname_downlevel.obj
 0002:00005bb0       ??_C@_1M@CLGLEFBO@?$AAr?$AAo?$AA?9?$AAr?$AAo@ 10025bb0     libucrt:lcidtoname_downlevel.obj
 0002:00005bbc       ??_C@_1M@CEEDODME@?$AAr?$AAu?$AA?9?$AAr?$AAu@ 10025bbc     libucrt:lcidtoname_downlevel.obj
 0002:00005bc8       ??_C@_1M@HPKKKMPP@?$AAs?$AAa?$AA?9?$AAi?$AAn@ 10025bc8     libucrt:lcidtoname_downlevel.obj
 0002:00005bd4       ??_C@_1M@BKMAIGOJ@?$AAs?$AAe?$AA?9?$AAf?$AAi@ 10025bd4     libucrt:lcidtoname_downlevel.obj
 0002:00005be0       ??_C@_1M@NDPIFLFI@?$AAs?$AAe?$AA?9?$AAn?$AAo@ 10025be0     libucrt:lcidtoname_downlevel.obj
 0002:00005bec       ??_C@_1M@DANKKHJ@?$AAs?$AAe?$AA?9?$AAs?$AAe@ 10025bec     libucrt:lcidtoname_downlevel.obj
 0002:00005bf8       ??_C@_1M@PNBLONPJ@?$AAs?$AAk?$AA?9?$AAs?$AAk@ 10025bf8     libucrt:lcidtoname_downlevel.obj
 0002:00005c04       ??_C@_1M@LFMODOAL@?$AAs?$AAl?$AA?9?$AAs?$AAi@ 10025c04     libucrt:lcidtoname_downlevel.obj
 0002:00005c10       ??_C@_1O@DFKOMPG@?$AAs?$AAm?$AAa?$AA?9?$AAn?$AAo@ 10025c10     libucrt:lcidtoname_downlevel.obj
 0002:00005c20       ??_C@_1O@NDKPBNNH@?$AAs?$AAm?$AAa?$AA?9?$AAs?$AAe@ 10025c20     libucrt:lcidtoname_downlevel.obj
 0002:00005c30       ??_C@_1O@PLLKBHAB@?$AAs?$AAm?$AAj?$AA?9?$AAn?$AAo@ 10025c30     libucrt:lcidtoname_downlevel.obj
 0002:00005c40       ??_C@_1O@CLEPOGCA@?$AAs?$AAm?$AAj?$AA?9?$AAs?$AAe@ 10025c40     libucrt:lcidtoname_downlevel.obj
 0002:00005c50       ??_C@_1O@DLGJGKMK@?$AAs?$AAm?$AAn?$AA?9?$AAf?$AAi@ 10025c50     libucrt:lcidtoname_downlevel.obj
 0002:00005c60       ??_C@_1O@OJDJGAJC@?$AAs?$AAm?$AAs?$AA?9?$AAf?$AAi@ 10025c60     libucrt:lcidtoname_downlevel.obj
 0002:00005c70       ??_C@_1M@BOFOGHPB@?$AAs?$AAq?$AA?9?$AAa?$AAl@ 10025c70     libucrt:lcidtoname_downlevel.obj
 0002:00005c7c       ??_C@_1BG@LJBBIPGB@?$AAs?$AAr?$AA?9?$AAb?$AAa?$AA?9?$AAc?$AAy?$AAr?$AAl@ 10025c7c     libucrt:lcidtoname_downlevel.obj
 0002:00005c94       ??_C@_1BG@JLBENFOE@?$AAs?$AAr?$AA?9?$AAb?$AAa?$AA?9?$AAl?$AAa?$AAt?$AAn@ 10025c94     libucrt:lcidtoname_downlevel.obj
 0002:00005cac       ??_C@_1BG@KODPNHE@?$AAs?$AAr?$AA?9?$AAs?$AAp?$AA?9?$AAc?$AAy?$AAr?$AAl@ 10025cac     libucrt:lcidtoname_downlevel.obj
 0002:00005cc4       ??_C@_1BG@CIOGKHPB@?$AAs?$AAr?$AA?9?$AAs?$AAp?$AA?9?$AAl?$AAa?$AAt?$AAn@ 10025cc4     libucrt:lcidtoname_downlevel.obj
 0002:00005cdc       ??_C@_1M@NGFJLMAC@?$AAs?$AAv?$AA?9?$AAf?$AAi@ 10025cdc     libucrt:lcidtoname_downlevel.obj
 0002:00005ce8       ??_C@_1M@MPJEJAJC@?$AAs?$AAv?$AA?9?$AAs?$AAe@ 10025ce8     libucrt:lcidtoname_downlevel.obj
 0002:00005cf4       ??_C@_1M@MPNDHLFK@?$AAs?$AAw?$AA?9?$AAk?$AAe@ 10025cf4     libucrt:lcidtoname_downlevel.obj
 0002:00005d00       ??_C@_1O@KOHBJJI@?$AAs?$AAy?$AAr?$AA?9?$AAs?$AAy@ 10025d00     libucrt:lcidtoname_downlevel.obj
 0002:00005d10       ??_C@_1M@LDCEFHA@?$AAt?$AAa?$AA?9?$AAi?$AAn@ 10025d10     libucrt:lcidtoname_downlevel.obj
 0002:00005d1c       ??_C@_1M@CNJOFAK@?$AAt?$AAe?$AA?9?$AAi?$AAn@ 10025d1c     libucrt:lcidtoname_downlevel.obj
 0002:00005d28       ??_C@_1M@GNAECACD@?$AAt?$AAh?$AA?9?$AAt?$AAh@ 10025d28     libucrt:lcidtoname_downlevel.obj
 0002:00005d34       ??_C@_1M@CHBIHOJO@?$AAt?$AAn?$AA?9?$AAz?$AAa@ 10025d34     libucrt:lcidtoname_downlevel.obj
 0002:00005d40       ??_C@_1M@GCCMIGPJ@?$AAt?$AAr?$AA?9?$AAt?$AAr@ 10025d40     libucrt:lcidtoname_downlevel.obj
 0002:00005d4c       ??_C@_1M@CELMCNBK@?$AAt?$AAt?$AA?9?$AAr?$AAu@ 10025d4c     libucrt:lcidtoname_downlevel.obj
 0002:00005d58       ??_C@_1M@KLMCELGA@?$AAu?$AAk?$AA?9?$AAu?$AAa@ 10025d58     libucrt:lcidtoname_downlevel.obj
 0002:00005d64       ??_C@_1M@EPAJJAJF@?$AAu?$AAr?$AA?9?$AAp?$AAk@ 10025d64     libucrt:lcidtoname_downlevel.obj
 0002:00005d70       ??_C@_1BG@GEGPMCDJ@?$AAu?$AAz?$AA?9?$AAu?$AAz?$AA?9?$AAc?$AAy?$AAr?$AAl@ 10025d70     libucrt:lcidtoname_downlevel.obj
 0002:00005d88       ??_C@_1BG@EGGKJILM@?$AAu?$AAz?$AA?9?$AAu?$AAz?$AA?9?$AAl?$AAa?$AAt?$AAn@ 10025d88     libucrt:lcidtoname_downlevel.obj
 0002:00005da0       ??_C@_1M@GFOCLFF@?$AAv?$AAi?$AA?9?$AAv?$AAn@ 10025da0     libucrt:lcidtoname_downlevel.obj
 0002:00005dac       ??_C@_1M@CPAMEDFI@?$AAx?$AAh?$AA?9?$AAz?$AAa@ 10025dac     libucrt:lcidtoname_downlevel.obj
 0002:00005db8       ??_C@_1O@EBKIFIGN@?$AAz?$AAh?$AA?9?$AAc?$AAh?$AAs@ 10025db8     libucrt:lcidtoname_downlevel.obj
 0002:00005dc8       ??_C@_1O@NMHPGANE@?$AAz?$AAh?$AA?9?$AAc?$AAh?$AAt@ 10025dc8     libucrt:lcidtoname_downlevel.obj
 0002:00005dd8       ??_C@_1M@LPINJOMC@?$AAz?$AAh?$AA?9?$AAc?$AAn@ 10025dd8     libucrt:lcidtoname_downlevel.obj
 0002:00005de4       ??_C@_1M@OCJEJODD@?$AAz?$AAh?$AA?9?$AAh?$AAk@ 10025de4     libucrt:lcidtoname_downlevel.obj
 0002:00005df0       ??_C@_1M@DNDLJINH@?$AAz?$AAh?$AA?9?$AAm?$AAo@ 10025df0     libucrt:lcidtoname_downlevel.obj
 0002:00005dfc       ??_C@_1M@MBFDNDND@?$AAz?$AAh?$AA?9?$AAs?$AAg@ 10025dfc     libucrt:lcidtoname_downlevel.obj
 0002:00005e08       ??_C@_1M@IMEPLEPE@?$AAz?$AAh?$AA?9?$AAt?$AAw@ 10025e08     libucrt:lcidtoname_downlevel.obj
 0002:00005e14       ??_C@_1M@BBGHNHJP@?$AAz?$AAu?$AA?9?$AAz?$AAa@ 10025e14     libucrt:lcidtoname_downlevel.obj
 0002:00005e20       ?large_power_data@?1??multiply_by_power_of_ten@__crt_strtox@@YA_NAAUbig_integer@2@I@Z@4QBIB 10025e20     libucrt:cfout.obj
 0002:00006728       ?large_power_indices@?1??multiply_by_power_of_ten@__crt_strtox@@YA_NAAUbig_integer@2@I@Z@4QBUunpack_index@?1??12@YA_N0I@Z@B 10026728     libucrt:cfout.obj
 0002:000067c0       ?small_powers_of_ten@?1??multiply_by_power_of_ten@__crt_strtox@@YA_NAAUbig_integer@2@I@Z@4QBIB 100267c0     libucrt:cfout.obj
 0002:000067e4       ??_C@_01GBGANLPD@0@        100267e4     libucrt:cfout.obj
 0002:000067e8       ??_C@_05DNEBIAHO@1?$CDINF@ 100267e8     libucrt:cfout.obj
 0002:000067f0       ??_C@_06IMKFLFPG@1?$CDQNAN@ 100267f0     libucrt:cfout.obj
 0002:000067f8       ??_C@_06PGGFOGJG@1?$CDSNAN@ 100267f8     libucrt:cfout.obj
 0002:00006800       ??_C@_05PHHOCPM@1?$CDIND@  10026800     libucrt:cfout.obj
 0002:00006970       __infinity                 10026970     libucrt:87tran.obj
 0002:0000697a       __minfinity                1002697a     libucrt:87tran.obj
 0002:00006984       __logemax                  10026984     libucrt:87tran.obj
 0002:000069aa       __OP_EXPjmptab             100269aa     libucrt:87tran.obj
 0002:000069d0       __indefinite               100269d0     libucrt:87disp.obj
 0002:000069da       __piby2                    100269da     libucrt:87disp.obj
 0002:000069e4       __piby4                    100269e4     libucrt:87disp.obj
 0002:00006a18       __DEFAULT_CW_in_mem        10026a18     libucrt:common.obj
 0002:00006a1a       __pi_by_2_to_61            10026a1a     libucrt:common.obj
 0002:00006a54       ??_C@_03MGHMBJCF@log@      10026a54     libucrt:libm_error.obj
 0002:00006a58       ??_C@_05HGHHAHAP@log10@    10026a58     libucrt:libm_error.obj
 0002:00006a60       ??_C@_03KHJOGHMM@exp@      10026a60     libucrt:libm_error.obj
 0002:00006a64       ??_C@_03JGHBODFD@pow@      10026a64     libucrt:libm_error.obj
 0002:00006a68       ??_C@_04FIHNOPOL@asin@     10026a68     libucrt:libm_error.obj
 0002:00006a70       ??_C@_04PDIFKINK@acos@     10026a70     libucrt:libm_error.obj
 0002:00006a78       ??_C@_04EIAKFFMI@sqrt@     10026a78     libucrt:libm_error.obj
 0002:00006a80       __real@3ff0000000000000    10026a80     libucrt:libm_error.obj
 0002:00006a88       ??_C@_1BA@BALFACEM@?$AAC?$AAO?$AAN?$AAO?$AAU?$AAT?$AA$@ 10026a88     libucrt:initcon.obj
 0002:00006ab0       ___acrt_log10_table_t      10026ab0     libucrt:log10_tables.obj
 0002:00006ec0       ___acrt_log10_table_cb     10026ec0     libucrt:log10_tables.obj
 0002:000072d0       __real@3fe0000000000000    100272d0     libucrt:powhlp.obj
 0002:000073c0       ??_C@_04COOMCNPB@sinh@     100273c0     libucrt:fpexcept.obj
 0002:000073c8       ??_C@_04HPJJNFIM@cosh@     100273c8     libucrt:fpexcept.obj
 0002:000073d0       ??_C@_04FJHINJAO@tanh@     100273d0     libucrt:fpexcept.obj
 0002:000073d8       ??_C@_04MLLJIGOK@atan@     100273d8     libucrt:fpexcept.obj
 0002:000073e0       ??_C@_05KNGEOGJB@atan2@    100273e0     libucrt:fpexcept.obj
 0002:000073e8       ??_C@_03BLEJJJBH@sin@      100273e8     libucrt:fpexcept.obj
 0002:000073ec       ??_C@_03LALBNOCG@cos@      100273ec     libucrt:fpexcept.obj
 0002:000073f0       ??_C@_03IIINPABG@tan@      100273f0     libucrt:fpexcept.obj
 0002:000073f4       ??_C@_04GFPJNGEK@ceil@     100273f4     libucrt:fpexcept.obj
 0002:000073fc       ??_C@_05PBJFFIGL@floor@    100273fc     libucrt:fpexcept.obj
 0002:00007404       ??_C@_04ODHECPBC@fabs@     10027404     libucrt:fpexcept.obj
 0002:0000740c       ??_C@_04EHEDPDJG@modf@     1002740c     libucrt:fpexcept.obj
 0002:00007414       ??_C@_05CEJMAHNP@ldexp@    10027414     libucrt:fpexcept.obj
 0002:0000741c       ??_C@_05KBKMEMPO@_cabs@    1002741c     libucrt:fpexcept.obj
 0002:00007424       ??_C@_06MEIMCGCF@_hypot@   10027424     libucrt:fpexcept.obj
 0002:0000742c       ??_C@_04KEPJIHGP@fmod@     1002742c     libucrt:fpexcept.obj
 0002:00007434       ??_C@_05GKKHEGJL@frexp@    10027434     libucrt:fpexcept.obj
 0002:0000743c       ??_C@_03MJLDFKDL@_y0@      1002743c     libucrt:fpexcept.obj
 0002:00007440       ??_C@_03NAKIGLHK@_y1@      10027440     libucrt:fpexcept.obj
 0002:00007444       ??_C@_03ONILCKOB@_yn@      10027444     libucrt:fpexcept.obj
 0002:00007448       ??_C@_05JGDBENOH@_logb@    10027448     libucrt:fpexcept.obj
 0002:00007450       ??_C@_0L@KDOEJCKC@_nextafter@ 10027450     libucrt:fpexcept.obj
 0002:00007460       __d_inf                    10027460     libucrt:util.obj
 0002:00007468       __d_max                    10027468     libucrt:util.obj
 0002:00007470       __d_mzero                  10027470     libucrt:util.obj
 0002:000074e0       __load_config_used         100274e0     LIBCMT:loadcfg.obj
 0002:00007598       __tls_used                 10027598     LIBCMT:tlssup.obj
 0002:000075b0       ??_R4exception@std@@6B@    100275b0     LIBCMT:throw_bad_alloc.obj
 0002:000075c4       ??_R3exception@std@@8      100275c4     LIBCMT:throw_bad_alloc.obj
 0002:000075d4       ??_R2exception@std@@8      100275d4     LIBCMT:throw_bad_alloc.obj
 0002:000075dc       ??_R1A@?0A@EA@exception@std@@8 100275dc     LIBCMT:throw_bad_alloc.obj
 0002:000075f8       ??_R4bad_alloc@std@@6B@    100275f8     LIBCMT:throw_bad_alloc.obj
 0002:0000760c       ??_R3bad_alloc@std@@8      1002760c     LIBCMT:throw_bad_alloc.obj
 0002:0000761c       ??_R2bad_alloc@std@@8      1002761c     LIBCMT:throw_bad_alloc.obj
 0002:00007628       ??_R1A@?0A@EA@bad_alloc@std@@8 10027628     LIBCMT:throw_bad_alloc.obj
 0002:00007644       ??_R4bad_array_new_length@std@@6B@ 10027644     LIBCMT:throw_bad_alloc.obj
 0002:00007658       ??_R3bad_array_new_length@std@@8 10027658     LIBCMT:throw_bad_alloc.obj
 0002:00007668       ??_R2bad_array_new_length@std@@8 10027668     LIBCMT:throw_bad_alloc.obj
 0002:00007678       ??_R1A@?0A@EA@bad_array_new_length@std@@8 10027678     LIBCMT:throw_bad_alloc.obj
 0002:00007694       ??_R4type_info@@6B@        10027694     LIBCMT:std_type_info_static.obj
 0002:000076a8       ??_R3type_info@@8          100276a8     LIBCMT:std_type_info_static.obj
 0002:000076b8       ??_R2type_info@@8          100276b8     LIBCMT:std_type_info_static.obj
 0002:000076c0       ??_R1A@?0A@EA@type_info@@8 100276c0     LIBCMT:std_type_info_static.obj
 0002:000076dc       ??_R4bad_exception@std@@6B@ 100276dc     libvcruntime:frame.obj
 0002:000076f0       ??_R3bad_exception@std@@8  100276f0     libvcruntime:frame.obj
 0002:00007700       ??_R2bad_exception@std@@8  10027700     libvcruntime:frame.obj
 0002:0000770c       ??_R1A@?0A@EA@bad_exception@std@@8 1002770c     libvcruntime:frame.obj
 0002:00007728       ___safe_se_handler_table   10027728     <linker-defined>
 0002:00007b24       ___rtc_iaa                 10027b24     LIBCMT:initsect.obj
 0002:00007b28       ___rtc_izz                 10027b28     LIBCMT:initsect.obj
 0002:00007b2c       ___rtc_taa                 10027b2c     LIBCMT:initsect.obj
 0002:00007b30       ___rtc_tzz                 10027b30     LIBCMT:initsect.obj
 0002:00007b34       __tls_start                10027b34     LIBCMT:tlssup.obj
 0002:00007b38       __Init_thread_epoch        10027b38     LIBCMT:thread_safe_statics.obj
 0002:00007b3c       __tls_end                  10027b3c     LIBCMT:tlssup.obj
 0002:00007c3c       __TI2?AVbad_alloc@std@@    10027c3c     LIBCMT:throw_bad_alloc.obj
 0002:00007c4c       __CTA2?AVbad_alloc@std@@   10027c4c     LIBCMT:throw_bad_alloc.obj
 0002:00007c58       __CT??_R0?AVbad_alloc@std@@@8??0bad_alloc@std@@QAE@ABV01@@Z12 10027c58     LIBCMT:throw_bad_alloc.obj
 0002:00007c74       __CT??_R0?AVexception@std@@@8??0exception@std@@QAE@ABV01@@Z12 10027c74     LIBCMT:throw_bad_alloc.obj
 0002:00007c90       __TI3?AVbad_array_new_length@std@@ 10027c90     LIBCMT:throw_bad_alloc.obj
 0002:00007ca0       __CTA3?AVbad_array_new_length@std@@ 10027ca0     LIBCMT:throw_bad_alloc.obj
 0002:00007cb0       __CT??_R0?AVbad_array_new_length@std@@@8??0bad_array_new_length@std@@QAE@ABV01@@Z12 10027cb0     LIBCMT:throw_bad_alloc.obj
 0002:00007dd4       __TI2?AVbad_exception@std@@ 10027dd4     libvcruntime:frame.obj
 0002:00007de4       __CTA2?AVbad_exception@std@@ 10027de4     libvcruntime:frame.obj
 0002:00007df0       __CT??_R0?AVbad_exception@std@@@8??0bad_exception@std@@QAE@ABV01@@Z12 10027df0     libvcruntime:frame.obj
 0002:0000816c       ___pobjMapEntryFirst       1002816c     OposVariant.obj
 0002:00008170       ___pobjMapEntryLast        10028170     OposVariant.obj
 0002:00008230       __IMPORT_DESCRIPTOR_KERNEL32 10028230     kernel32:KERNEL32.dll
 0002:00008244       __IMPORT_DESCRIPTOR_USER32 10028244     user32:USER32.dll
 0002:00008258       __IMPORT_DESCRIPTOR_GDI32  10028258     gdi32:GDI32.dll
 0002:0000826c       __IMPORT_DESCRIPTOR_ADVAPI32 1002826c     advapi32:ADVAPI32.dll
 0002:00008280       __IMPORT_DESCRIPTOR_ole32  10028280     ole32:ole32.dll
 0002:00008294       __IMPORT_DESCRIPTOR_OLEAUT32 10028294     oleaut32:OLEAUT32.dll
 0002:000082a8       __NULL_IMPORT_DESCRIPTOR   100282a8     kernel32:KERNEL32.dll
 0003:00000000       ?s_Claim@?7??GetIDsOfNames@CComTypeInfoHolder@ATL@@QAEJABU_GUID@@PAPA_WIKPAJ@Z@4PA_WA 1002a000     BillDispenser.obj
 0003:00000018       ?s_Release@?7??GetIDsOfNames@CComTypeInfoHolder@ATL@@QAEJABU_GUID@@PAPA_WIKPAJ@Z@4PA_WA 1002a018     BillDispenser.obj
 0003:00000034       ?_tih@?$IDispatchImpl@UIOPOSBillDispenser@@$1?IID_IOPOSBillDispenser@@3U_GUID@@B$1?LIBID_OposBillDispenser_CCO@@3U3@B$00$0A@VCComTypeInfoHolder@ATL@@@ATL@@1VCComTypeInfoHolder@2@A 1002a034     BillDispenser.obj
 0003:00000050       ?_tih@?$IProvideClassInfo2Impl@$1?CLSID_OPOSBillDispenser@@3U_GUID@@B$1?DIID__IOPOSBillDispenserEvents@@3U2@B$1?LIBID_OposBillDispenser_CCO@@3U2@B$00$0A@VCComTypeInfoHolder@ATL@@@ATL@@1VCComTypeInfoHolder@2@A 1002a050     BillDispenser.obj
 0003:0000006c       ?vszContents@?6??Save@?$IPersistStorageImpl@VCOPOSBillDispenser@@@ATL@@UAGJPAUIStorage@@H@Z@4PB_WB 1002a06c     BillDispenser.obj
 0003:00000070       ?wc@?1??GetWndClassInfo@?$CWindowImpl@VCOPOSBillDispenser@@VCWindow@ATL@@V?$CWinTraits@$0FGAAAAAA@$0A@@3@@ATL@@SAAAU_ATL_WNDCLASSINFOW@3@XZ@4U43@A 1002a070     BillDispenser.obj
 0003:000000fc       ?rcDefault@CWindow@ATL@@2UtagRECT@@A 1002a0fc     BillDispenser.obj
 0003:00000158       ?g_WindowName@@3PA_WA      1002a158     BillDispenserImpl.obj
 0003:00000188       ?g_ControlDescription@@3PADA 1002a188     BillDispenserImpl.obj
 0003:000001d8       ?g_ControlVersion@@3JA     1002a1d8     BillDispenserImpl.obj
 0003:00000230       ___scrt_native_dllmain_reason 1002a230     LIBCMT:utility.obj
 0003:00000234       __Init_global_epoch        1002a234     LIBCMT:thread_safe_statics.obj
 0003:00000240       ___security_cookie_complement 1002a240     LIBCMT:gs_cookie.obj
 0003:00000244       ___security_cookie         1002a244     LIBCMT:gs_cookie.obj
 0003:00000248       ___isa_enabled             1002a248     LIBCMT:cpu_disp.obj
 0003:00000260       __NLG_Destination          1002a260     libvcruntime:exsup.obj
 0003:00000278       ___abort_behavior          1002a278     libucrt:abort.obj
 0003:00000288       __iob                      1002a288     libucrt:_file.obj
 0003:00000330       ___acrt_initial_locale_data 1002a330     libucrt:nlsdata.obj
 0003:000003e8       ___acrt_initial_locale_pointers 1002a3e8     libucrt:nlsdata.obj
 0003:000003f0       ___acrt_wide_c_locale_string 1002a3f0     libucrt:nlsdata.obj
 0003:000003f8       ___acrt_initial_multibyte_data 1002a3f8     libucrt:mbctype.obj
 0003:00000918       __pwctype                  1002a918     libucrt:ctype.obj
 0003:0000091c       ___globallocalestatus      1002a91c     libucrt:glstatus.obj
 0003:00000920       ___acrt_lconv_c            1002a920     libucrt:localeconv.obj
 0003:00000970       ___acrt_lconv_static_decimal 1002a970     libucrt:localeconv.obj
 0003:00000974       ___acrt_lconv_static_W_decimal 1002a974     libucrt:localeconv.obj
 0003:00000980       __lookuptrailbytes         1002a980     libucrt:read.obj
 0003:00000a90       __fltused                  1002aa90     LIBCMT:fltused.obj
 0003:00000aa0       ??_R0?AVbad_alloc@std@@@8  1002aaa0     LIBCMT:throw_bad_alloc.obj
 0003:00000abc       ??_R0?AVexception@std@@@8  1002aabc     LIBCMT:throw_bad_alloc.obj
 0003:00000ad8       ??_R0?AVbad_array_new_length@std@@@8 1002aad8     LIBCMT:throw_bad_alloc.obj
 0003:00000b00       ??_R0?AVtype_info@@@8      1002ab00     LIBCMT:std_type_info_static.obj
 0003:00000b18       ??_R0?AVbad_exception@std@@@8 1002ab18     libvcruntime:frame.obj
 0003:00000b38       ?m_bInitFailed@CAtlBaseModule@ATL@@2_NA 1002ab38     OposVariant.obj
 0003:00000b3c       ?_pPerfRegFunc@ATL@@3P6AJPAUHINSTANCE__@@@ZA 1002ab3c     OposVariant.obj
 0003:00000b40       ?_pPerfUnRegFunc@ATL@@3P6AJXZA 1002ab40     OposVariant.obj
 0003:00000b44       ?_AtlRegisterPerUser@ATL@@3_NA 1002ab44     OposVariant.obj
 0003:00000b48       ?_pAtlModule@ATL@@3PAVCAtlModule@1@A 1002ab48     OposVariant.obj
 0003:00000b4c       ?_pModule@ATL@@3PAVCComModule@1@A 1002ab4c     OposVariant.obj
 0003:00000b50       ?_AtlComModule@ATL@@3VCAtlComModule@1@A 1002ab50     OposVariant.obj
 0003:00000b78       ?_AtlWinModule@ATL@@3VCAtlWinModule@1@A 1002ab78     OposVariant.obj
 0003:00000ba4       ?m_libid@CAtlModule@ATL@@2U_GUID@@A 1002aba4     BillDispenser.obj
 0003:00000bb4       ?_entries@?1??GetConnMap@COPOSBillDispenser@@SAPBU_ATL_CONNMAP_ENTRY@ATL@@PAH@Z@4QBU34@B 1002abb4     BillDispenser.obj
 0003:00000bc0       ?$TSS0@?1??GetConnMap@COPOSBillDispenser@@SAPBU_ATL_CONNMAP_ENTRY@ATL@@PAH@Z@4HA 1002abc0     BillDispenser.obj
 0003:00000bc8       ?_OptionsStorage@?1??__local_stdio_printf_options@@9@4_KA 1002abc8     BillDispenser.obj
 0003:00000bd0       ?pfnRegDeleteKeyEx@?1??DeleteSubKey@CRegKey@ATL@@QAEJPB_W@Z@4P6GJPAUHKEY__@@0KK@ZA 1002abd0     BillDispenser.obj
 0003:00000bd4       ?bInitialized@?1??DeleteSubKey@CRegKey@ATL@@QAEJPB_W@Z@4_NA 1002abd4     BillDispenser.obj
 0003:00000bd8       ?_Module@@3VCComModule@ATL@@A 1002abd8     BillDispenser.obj
 0003:00000c08       ?pConnMap@?$IConnectionPointContainerImpl@VCOPOSBillDispenser@@@ATL@@0PBU_ATL_CONNMAP_ENTRY@2@B 1002ac08     BillDispenser.obj
 0003:00000c0c       ?s_nInstances@COPOSBillDispenser@@1HA 1002ac0c     BillDispenserImpl.obj
 0003:00000c10       ___scrt_current_native_startup_state 1002ac10     LIBCMT:utility.obj
 0003:00000c14       ___scrt_native_startup_lock 1002ac14     LIBCMT:utility.obj
 0003:00000f7c       __tls_index                1002af7c     LIBCMT:tlssup.obj
 0003:00000f84       ___isa_available           1002af84     LIBCMT:cpu_disp.obj
 0003:00000f88       ___favor                   1002af88     LIBCMT:cpu_disp.obj
 0003:00000f8c       ___scrt_debugger_hook_flag 1002af8c     LIBCMT:utility_desktop.obj
 0003:00000f90       ?__type_info_root_node@@3U__type_info_node@@A 1002af90     LIBCMT:tncleanup.obj
 0003:00000f98       ?_OptionsStorage@?1??__local_stdio_scanf_options@@9@4_KA 1002af98     LIBCMT:default_local_stdio_options.obj
 0003:00000fa0       ?_AtlBaseModule@ATL@@3VCAtlBaseModule@1@A 1002afa0     atls:atlbase.obj
 0003:00000fd8       ?__AtlThunkPool@@3PAT_SLIST_HEADER@@A 1002afd8     atls:atlthunk.obj
 0003:00000ff0       ___@@_PchSym_@00@UztvmgUPdlipUEUhUrmgvinvwrzgvUexgllohUzgohOmzgrevkilqPBACIAJCBDBUlyqiUcIGUhgwzucOlyq@4B2008FD98C1DD4 1002aff0     atls:stdafx.obj
 0003:00000ff4       ?__WinRTOutOfMemoryExceptionCallback@@3P6GPAXXZA 1002aff4     libvcruntime:ehhelpers.obj
 0003:00000ff8       ___pPurecall               1002aff8     libvcruntime:purevirt_data.obj
 0003:00001040       ?pArgList@UnDecorator@@0PAVReplicator@@A 1002b040     libvcruntime:undname.obj
 0003:00001044       ?pZNameList@UnDecorator@@0PAVReplicator@@A 1002b044     libvcruntime:undname.obj
 0003:00001048       ?pTemplateArgList@UnDecorator@@0PAVReplicator@@A 1002b048     libvcruntime:undname.obj
 0003:0000104c       ?gName@UnDecorator@@0PBDB  1002b04c     libvcruntime:undname.obj
 0003:00001050       ?name@UnDecorator@@0PBDB   1002b050     libvcruntime:undname.obj
 0003:00001054       ?disableFlags@UnDecorator@@0KA 1002b054     libvcruntime:undname.obj
 0003:00001058       ?fExplicitTemplateParams@UnDecorator@@0_NA 1002b058     libvcruntime:undname.obj
 0003:00001059       ?fGetTemplateArgumentList@UnDecorator@@0_NA 1002b059     libvcruntime:undname.obj
 0003:0000105c       ?m_pGetParameter@UnDecorator@@0P6APADJ@ZA 1002b05c     libvcruntime:undname.obj
 0003:00001060       ?m_CHPENameOffset@UnDecorator@@0KA 1002b060     libvcruntime:undname.obj
 0003:00001064       ?m_recursionLevel@UnDecorator@@0KA 1002b064     libvcruntime:undname.obj
 0003:000010a8       ?c_exit_complete@?1???R<lambda_6e4b09c48022b2350581041d5f6b0c4c>@@QBE@XZ@4_NA 1002b0a8     libucrt:exit.obj
 0003:000011b8       __environ_table            1002b1b8     libucrt:environment_initialization.obj
 0003:000011bc       __wenviron_table           1002b1bc     libucrt:environment_initialization.obj
 0003:000011c0       ___dcrt_initial_wide_environment 1002b1c0     libucrt:environment_initialization.obj
 0003:000011c4       ___dcrt_initial_narrow_environment 1002b1c4     libucrt:environment_initialization.obj
 0003:000011c8       ___acrt_atexit_table       1002b1c8     libucrt:onexit.obj
 0003:000011d4       ___acrt_at_quick_exit_table 1002b1d4     libucrt:onexit.obj
 0003:000012c8       __nstream                  1002b2c8     libucrt:_file.obj
 0003:000012cc       ___piob                    1002b2cc     libucrt:_file.obj
 0003:000012d4       ___acrt_stdout_buffer      1002b2d4     libucrt:_sftbuf.obj
 0003:000012d8       ___acrt_stderr_buffer      1002b2d8     libucrt:_sftbuf.obj
 0003:000012dc       ___acrt_locale_changed_data 1002b2dc     libucrt:wsetlocale.obj
 0003:000012e0       ___acrt_current_locale_data 1002b2e0     libucrt:nlsdata.obj
 0003:000012e8       ___pioinfo                 1002b2e8     libucrt:ioinit.obj
 0003:000014e8       __nhandle                  1002b4e8     libucrt:ioinit.obj
 0003:00001644       __mbctype                  1002b644     libucrt:mbctype.obj
 0003:00001648       __mbcasemap                1002b648     libucrt:mbctype.obj
 0003:0000164c       ___acrt_current_multibyte_data 1002b64c     libucrt:mbctype.obj
 0003:00001658       __pgmptr                   1002b658     libucrt:argv_data.obj
 0003:0000165c       ___argc                    1002b65c     libucrt:argv_data.obj
 0003:00001660       ___argv                    1002b660     libucrt:argv_data.obj
 0003:00001664       ___wargv                   1002b664     libucrt:argv_data.obj
 0003:00001668       __acmdln                   1002b668     libucrt:argv_data.obj
 0003:0000166c       __wcmdln                   1002b66c     libucrt:argv_data.obj
 0003:00001670       ___acrt_heap               1002b670     libucrt:heap_handle.obj
 0003:0000168c       ___acrt_lconv_static_null  1002b68c     libucrt:localeconv.obj
 0003:00001690       ___acrt_lconv_static_W_null 1002b690     libucrt:localeconv.obj
 0003:000016a0       ___fastflag                1002b6a0     libucrt:fp_flags.obj
 0003:000016a8       ___dyn_tls_init_callback   1002b6a8     <common>
 0003:000016ac       ___scrt_ucrt_dll_is_in_use 1002b6ac     <common>
 0003:000016b0       __pmatherr                 1002b6b0     <common>
 0003:000016b4       ___use_sse2_mathfcns       1002b6b4     <common>

 entry point at        0001:0000bc8d

 Static symbols

 0000:fffcd000       .debug$S                   10000000     OPOSBillDispenser.exp
 0000:fffcd000       .debug$S                   10000000     advapi32:ADVAPI32.dll
 0000:fffcd000       .debug$S                   10000000     advapi32:ADVAPI32.dll
 0000:fffcd000       .debug$S                   10000000     advapi32:ADVAPI32.dll
 0000:fffcd000       .debug$S                   10000000     advapi32:ADVAPI32.dll
 0000:fffcd000       .debug$S                   10000000     advapi32:ADVAPI32.dll
 0000:fffcd000       .debug$S                   10000000     advapi32:ADVAPI32.dll
 0000:fffcd000       .debug$S                   10000000     advapi32:ADVAPI32.dll
 0000:fffcd000       .debug$S                   10000000     advapi32:ADVAPI32.dll
 0000:fffcd000       .debug$S                   10000000     advapi32:ADVAPI32.dll
 0000:fffcd000       .debug$S                   10000000     gdi32:GDI32.dll
 0000:fffcd000       .debug$S                   10000000     gdi32:GDI32.dll
 0000:fffcd000       .debug$S                   10000000     gdi32:GDI32.dll
 0000:fffcd000       .debug$S                   10000000     gdi32:GDI32.dll
 0000:fffcd000       .debug$S                   10000000     gdi32:GDI32.dll
 0000:fffcd000       .debug$S                   10000000     gdi32:GDI32.dll
 0000:fffcd000       .debug$S                   10000000     gdi32:GDI32.dll
 0000:fffcd000       .debug$S                   10000000     gdi32:GDI32.dll
 0000:fffcd000       .debug$S                   10000000     gdi32:GDI32.dll
 0000:fffcd000       .debug$S                   10000000     gdi32:GDI32.dll
 0000:fffcd000       .debug$S                   10000000     gdi32:GDI32.dll
 0000:fffcd000       .debug$S                   10000000     gdi32:GDI32.dll
 0000:fffcd000       .debug$S                   10000000     gdi32:GDI32.dll
 0000:fffcd000       .debug$S                   10000000     gdi32:GDI32.dll
 0000:fffcd000       .debug$S                   10000000     gdi32:GDI32.dll
 0000:fffcd000       .debug$S                   10000000     gdi32:GDI32.dll
 0000:fffcd000       .debug$S                   10000000     gdi32:GDI32.dll
 0000:fffcd000       .debug$S                   10000000     gdi32:GDI32.dll
 0000:fffcd000       .debug$S                   10000000     gdi32:GDI32.dll
 0000:fffcd000       .debug$S                   10000000     kernel32:KERNEL32.dll
 0000:fffcd000       .debug$S                   10000000     kernel32:KERNEL32.dll
 0000:fffcd000       .debug$S                   10000000     kernel32:KERNEL32.dll
 0000:fffcd000       .debug$S                   10000000     kernel32:KERNEL32.dll
 0000:fffcd000       .debug$S                   10000000     kernel32:KERNEL32.dll
 0000:fffcd000       .debug$S                   10000000     kernel32:KERNEL32.dll
 0000:fffcd000       .debug$S                   10000000     kernel32:KERNEL32.dll
 0000:fffcd000       .debug$S                   10000000     kernel32:KERNEL32.dll
 0000:fffcd000       .debug$S                   10000000     kernel32:KERNEL32.dll
 0000:fffcd000       .debug$S                   10000000     kernel32:KERNEL32.dll
 0000:fffcd000       .debug$S                   10000000     kernel32:KERNEL32.dll
 0000:fffcd000       .debug$S                   10000000     kernel32:KERNEL32.dll
 0000:fffcd000       .debug$S                   10000000     kernel32:KERNEL32.dll
 0000:fffcd000       .debug$S                   10000000     kernel32:KERNEL32.dll
 0000:fffcd000       .debug$S                   10000000     kernel32:KERNEL32.dll
 0000:fffcd000       .debug$S                   10000000     kernel32:KERNEL32.dll
 0000:fffcd000       .debug$S                   10000000     kernel32:KERNEL32.dll
 0000:fffcd000       .debug$S                   10000000     kernel32:KERNEL32.dll
 0000:fffcd000       .debug$S                   10000000     kernel32:KERNEL32.dll
 0000:fffcd000       .debug$S                   10000000     kernel32:KERNEL32.dll
 0000:fffcd000       .debug$S                   10000000     kernel32:KERNEL32.dll
 0000:fffcd000       .debug$S                   10000000     kernel32:KERNEL32.dll
 0000:fffcd000       .debug$S                   10000000     kernel32:KERNEL32.dll
 0000:fffcd000       .debug$S                   10000000     kernel32:KERNEL32.dll
 0000:fffcd000       .debug$S                   10000000     kernel32:KERNEL32.dll
 0000:fffcd000       .debug$S                   10000000     kernel32:KERNEL32.dll
 0000:fffcd000       .debug$S                   10000000     kernel32:KERNEL32.dll
 0000:fffcd000       .debug$S                   10000000     kernel32:KERNEL32.dll
 0000:fffcd000       .debug$S                   10000000     kernel32:KERNEL32.dll
 0000:fffcd000       .debug$S                   10000000     kernel32:KERNEL32.dll
 0000:fffcd000       .debug$S                   10000000     kernel32:KERNEL32.dll
 0000:fffcd000       .debug$S                   10000000     kernel32:KERNEL32.dll
 0000:fffcd000       .debug$S                   10000000     kernel32:KERNEL32.dll
 0000:fffcd000       .debug$S                   10000000     kernel32:KERNEL32.dll
 0000:fffcd000       .debug$S                   10000000     kernel32:KERNEL32.dll
 0000:fffcd000       .debug$S                   10000000     kernel32:KERNEL32.dll
 0000:fffcd000       .debug$S                   10000000     kernel32:KERNEL32.dll
 0000:fffcd000       .debug$S                   10000000     kernel32:KERNEL32.dll
 0000:fffcd000       .debug$S                   10000000     kernel32:KERNEL32.dll
 0000:fffcd000       .debug$S                   10000000     kernel32:KERNEL32.dll
 0000:fffcd000       .debug$S                   10000000     kernel32:KERNEL32.dll
 0000:fffcd000       .debug$S                   10000000     kernel32:KERNEL32.dll
 0000:fffcd000       .debug$S                   10000000     kernel32:KERNEL32.dll
 0000:fffcd000       .debug$S                   10000000     kernel32:KERNEL32.dll
 0000:fffcd000       .debug$S                   10000000     kernel32:KERNEL32.dll
 0000:fffcd000       .debug$S                   10000000     kernel32:KERNEL32.dll
 0000:fffcd000       .debug$S                   10000000     kernel32:KERNEL32.dll
 0000:fffcd000       .debug$S                   10000000     kernel32:KERNEL32.dll
 0000:fffcd000       .debug$S                   10000000     kernel32:KERNEL32.dll
 0000:fffcd000       .debug$S                   10000000     kernel32:KERNEL32.dll
 0000:fffcd000       .debug$S                   10000000     kernel32:KERNEL32.dll
 0000:fffcd000       .debug$S                   10000000     kernel32:KERNEL32.dll
 0000:fffcd000       .debug$S                   10000000     kernel32:KERNEL32.dll
 0000:fffcd000       .debug$S                   10000000     kernel32:KERNEL32.dll
 0000:fffcd000       .debug$S                   10000000     kernel32:KERNEL32.dll
 0000:fffcd000       .debug$S                   10000000     kernel32:KERNEL32.dll
 0000:fffcd000       .debug$S                   10000000     kernel32:KERNEL32.dll
 0000:fffcd000       .debug$S                   10000000     kernel32:KERNEL32.dll
 0000:fffcd000       .debug$S                   10000000     kernel32:KERNEL32.dll
 0000:fffcd000       .debug$S                   10000000     kernel32:KERNEL32.dll
 0000:fffcd000       .debug$S                   10000000     kernel32:KERNEL32.dll
 0000:fffcd000       .debug$S                   10000000     kernel32:KERNEL32.dll
 0000:fffcd000       .debug$S                   10000000     kernel32:KERNEL32.dll
 0000:fffcd000       .debug$S                   10000000     kernel32:KERNEL32.dll
 0000:fffcd000       .debug$S                   10000000     kernel32:KERNEL32.dll
 0000:fffcd000       .debug$S                   10000000     kernel32:KERNEL32.dll
 0000:fffcd000       .debug$S                   10000000     kernel32:KERNEL32.dll
 0000:fffcd000       .debug$S                   10000000     kernel32:KERNEL32.dll
 0000:fffcd000       .debug$S                   10000000     kernel32:KERNEL32.dll
 0000:fffcd000       .debug$S                   10000000     kernel32:KERNEL32.dll
 0000:fffcd000       .debug$S                   10000000     kernel32:KERNEL32.dll
 0000:fffcd000       .debug$S                   10000000     kernel32:KERNEL32.dll
 0000:fffcd000       .debug$S                   10000000     kernel32:KERNEL32.dll
 0000:fffcd000       .debug$S                   10000000     kernel32:KERNEL32.dll
 0000:fffcd000       .debug$S                   10000000     kernel32:KERNEL32.dll
 0000:fffcd000       .debug$S                   10000000     kernel32:KERNEL32.dll
 0000:fffcd000       .debug$S                   10000000     kernel32:KERNEL32.dll
 0000:fffcd000       .debug$S                   10000000     kernel32:KERNEL32.dll
 0000:fffcd000       .debug$S                   10000000     kernel32:KERNEL32.dll
 0000:fffcd000       .debug$S                   10000000     kernel32:KERNEL32.dll
 0000:fffcd000       .debug$S                   10000000     kernel32:KERNEL32.dll
 0000:fffcd000       .debug$S                   10000000     kernel32:KERNEL32.dll
 0000:fffcd000       .debug$S                   10000000     kernel32:KERNEL32.dll
 0000:fffcd000       .debug$S                   10000000     kernel32:KERNEL32.dll
 0000:fffcd000       .debug$S                   10000000     kernel32:KERNEL32.dll
 0000:fffcd000       .debug$S                   10000000     kernel32:KERNEL32.dll
 0000:fffcd000       .debug$S                   10000000     kernel32:KERNEL32.dll
 0000:fffcd000       .debug$S                   10000000     kernel32:KERNEL32.dll
 0000:fffcd000       .debug$S                   10000000     kernel32:KERNEL32.dll
 0000:fffcd000       .debug$S                   10000000     kernel32:KERNEL32.dll
 0000:fffcd000       .debug$S                   10000000     kernel32:KERNEL32.dll
 0000:fffcd000       .debug$S                   10000000     kernel32:KERNEL32.dll
 0000:fffcd000       .debug$S                   10000000     kernel32:KERNEL32.dll
 0000:fffcd000       .debug$S                   10000000     kernel32:KERNEL32.dll
 0000:fffcd000       .debug$S                   10000000     kernel32:KERNEL32.dll
 0000:fffcd000       .debug$S                   10000000     kernel32:KERNEL32.dll
 0000:fffcd000       .debug$S                   10000000     kernel32:KERNEL32.dll
 0000:fffcd000       .debug$S                   10000000     kernel32:KERNEL32.dll
 0000:fffcd000       .debug$S                   10000000     kernel32:KERNEL32.dll
 0000:fffcd000       .debug$S                   10000000     kernel32:KERNEL32.dll
 0000:fffcd000       .debug$S                   10000000     kernel32:KERNEL32.dll
 0000:fffcd000       .debug$S                   10000000     kernel32:KERNEL32.dll
 0000:fffcd000       .debug$S                   10000000     kernel32:KERNEL32.dll
 0000:fffcd000       .debug$S                   10000000     kernel32:KERNEL32.dll
 0000:fffcd000       .debug$S                   10000000     kernel32:KERNEL32.dll
 0000:fffcd000       .debug$S                   10000000     kernel32:KERNEL32.dll
 0000:fffcd000       .debug$S                   10000000     ole32:ole32.dll
 0000:fffcd000       .debug$S                   10000000     ole32:ole32.dll
 0000:fffcd000       .debug$S                   10000000     ole32:ole32.dll
 0000:fffcd000       .debug$S                   10000000     ole32:ole32.dll
 0000:fffcd000       .debug$S                   10000000     ole32:ole32.dll
 0000:fffcd000       .debug$S                   10000000     ole32:ole32.dll
 0000:fffcd000       .debug$S                   10000000     ole32:ole32.dll
 0000:fffcd000       .debug$S                   10000000     ole32:ole32.dll
 0000:fffcd000       .debug$S                   10000000     ole32:ole32.dll
 0000:fffcd000       .debug$S                   10000000     ole32:ole32.dll
 0000:fffcd000       .debug$S                   10000000     ole32:ole32.dll
 0000:fffcd000       .debug$S                   10000000     ole32:ole32.dll
 0000:fffcd000       .debug$S                   10000000     ole32:ole32.dll
 0000:fffcd000       .debug$S                   10000000     ole32:ole32.dll
 0000:fffcd000       .debug$S                   10000000     oleaut32:OLEAUT32.dll
 0000:fffcd000       .debug$S                   10000000     oleaut32:OLEAUT32.dll
 0000:fffcd000       .debug$S                   10000000     oleaut32:OLEAUT32.dll
 0000:fffcd000       .debug$S                   10000000     oleaut32:OLEAUT32.dll
 0000:fffcd000       .debug$S                   10000000     oleaut32:OLEAUT32.dll
 0000:fffcd000       .debug$S                   10000000     oleaut32:OLEAUT32.dll
 0000:fffcd000       .debug$S                   10000000     oleaut32:OLEAUT32.dll
 0000:fffcd000       .debug$S                   10000000     oleaut32:OLEAUT32.dll
 0000:fffcd000       .debug$S                   10000000     oleaut32:OLEAUT32.dll
 0000:fffcd000       .debug$S                   10000000     oleaut32:OLEAUT32.dll
 0000:fffcd000       .debug$S                   10000000     oleaut32:OLEAUT32.dll
 0000:fffcd000       .debug$S                   10000000     oleaut32:OLEAUT32.dll
 0000:fffcd000       .debug$S                   10000000     oleaut32:OLEAUT32.dll
 0000:fffcd000       .debug$S                   10000000     oleaut32:OLEAUT32.dll
 0000:fffcd000       .debug$S                   10000000     oleaut32:OLEAUT32.dll
 0000:fffcd000       .debug$S                   10000000     oleaut32:OLEAUT32.dll
 0000:fffcd000       .debug$S                   10000000     user32:USER32.dll
 0000:fffcd000       .debug$S                   10000000     user32:USER32.dll
 0000:fffcd000       .debug$S                   10000000     user32:USER32.dll
 0000:fffcd000       .debug$S                   10000000     user32:USER32.dll
 0000:fffcd000       .debug$S                   10000000     user32:USER32.dll
 0000:fffcd000       .debug$S                   10000000     user32:USER32.dll
 0000:fffcd000       .debug$S                   10000000     user32:USER32.dll
 0000:fffcd000       .debug$S                   10000000     user32:USER32.dll
 0000:fffcd000       .debug$S                   10000000     user32:USER32.dll
 0000:fffcd000       .debug$S                   10000000     user32:USER32.dll
 0000:fffcd000       .debug$S                   10000000     user32:USER32.dll
 0000:fffcd000       .debug$S                   10000000     user32:USER32.dll
 0000:fffcd000       .debug$S                   10000000     user32:USER32.dll
 0000:fffcd000       .debug$S                   10000000     user32:USER32.dll
 0000:fffcd000       .debug$S                   10000000     user32:USER32.dll
 0000:fffcd000       .debug$S                   10000000     user32:USER32.dll
 0000:fffcd000       .debug$S                   10000000     user32:USER32.dll
 0000:fffcd000       .debug$S                   10000000     user32:USER32.dll
 0000:fffcd000       .debug$S                   10000000     user32:USER32.dll
 0000:fffcd000       .debug$S                   10000000     user32:USER32.dll
 0000:fffcd000       .debug$S                   10000000     user32:USER32.dll
 0000:fffcd000       .debug$S                   10000000     user32:USER32.dll
 0000:fffcd000       .debug$S                   10000000     user32:USER32.dll
 0000:fffcd000       .debug$S                   10000000     user32:USER32.dll
 0000:fffcd000       .debug$S                   10000000     user32:USER32.dll
 0000:fffcd000       .debug$S                   10000000     user32:USER32.dll
 0000:fffcd000       .debug$S                   10000000     user32:USER32.dll
 0000:fffcd000       .debug$S                   10000000     user32:USER32.dll
 0000:fffcd000       .debug$S                   10000000     user32:USER32.dll
 0000:fffcd000       .debug$S                   10000000     user32:USER32.dll
 0000:fffcd000       .debug$S                   10000000     user32:USER32.dll
 0000:fffcd000       .debug$S                   10000000     user32:USER32.dll
 0000:fffcd000       .debug$S                   10000000     user32:USER32.dll
 0000:fffcd000       .debug$S                   10000000     user32:USER32.dll
 0000:fffcd000       .debug$S                   10000000     user32:USER32.dll
 0001:00000000       ??__E_AtlComModule@ATL@@YAXXZ 10001000 f   OposVariant.obj
 0001:00000016       ??__E_AtlWinModule@ATL@@YAXXZ 10001016 f   OposVariant.obj
 0001:0000002c       ??__E?pConnMap@?$IConnectionPointContainerImpl@VCOPOSBillDispenser@@@ATL@@0PBU_ATL_CONNMAP_ENTRY@2@B@@YAXXZ 1000102c f   BillDispenser.obj
 0001:0000003a       ??__E_Module@@YAXXZ        1000103a f   BillDispenser.obj
 0001:00000064       ??__E_AtlBaseModule@ATL@@YAXXZ 10001064 f   atls:atlbase.obj
 0001:00000c47       $LN24                      10001c47     BillDispenser.obj
 0001:000056ea       $LN48                      100066ea     BillDispenser.obj
 0001:00005702       $LN47                      10006702     BillDispenser.obj
 0001:000078af       $LN38                      100088af     BillDispenser.obj
 0001:000078c7       $LN37                      100088c7     BillDispenser.obj
 0001:00008fb7       $LN76                      10009fb7     BillDispenser.obj
 0001:00008fcf       $LN75                      10009fcf     BillDispenser.obj
 0001:00009388       _memcpy_s                  1000a388 f   BillDispenser.obj
 0001:0000b125       ?find_pe_section@@YAPAU_IMAGE_SECTION_HEADER@@QAEI@Z 1000c125 f   LIBCMT:utility.obj
 0001:0000b444       ?__scrt_initialize_thread_safe_statics@@YAHXZ 1000c444 f   LIBCMT:thread_safe_statics.obj
 0001:0000b46b       ?__scrt_initialize_thread_safe_statics_platform_specific@@YAXXZ 1000c46b f   LIBCMT:thread_safe_statics.obj
 0001:0000b4ed       ?__scrt_uninitialize_thread_safe_statics@@YAXXZ 1000c4ed f   LIBCMT:thread_safe_statics.obj
 0001:0000b85c       __catch$??2@YAPAXIABUnothrow_t@std@@@Z$0 1000c85c f   LIBCMT:new_scalar_nothrow.obj
 0001:0000b890       $$000000                   1000c890     LIBCMT:sehprolg4gs.obj
 0001:0000b8f0       $$000000                   1000c8f0     LIBCMT:alloca16.obj
 0001:0000b920       $$000000                   1000c920     LIBCMT:chkstk.obj
 0001:0000b94d       ?dllmain_crt_dispatch@@YGHQAUHINSTANCE__@@KQAX@Z 1000c94d f   LIBCMT:dll_dllmain.obj
 0001:0000b9a0       ?dllmain_crt_process_attach@@YAHQAUHINSTANCE__@@QAX@Z 1000c9a0 f   LIBCMT:dll_dllmain.obj
 0001:0000baa7       ?dllmain_crt_process_detach@@YAH_N@Z 1000caa7 f   LIBCMT:dll_dllmain.obj
 0001:0000bb57       ?dllmain_dispatch@@YAHQAUHINSTANCE__@@KQAX@Z 1000cb57 f   LIBCMT:dll_dllmain.obj
 0001:0000bc62       ?dllmain_raw@@YGHQAUHINSTANCE__@@KQAX@Z 1000cc62 f   LIBCMT:dll_dllmain.obj
 0001:0000bfe0       $$000000                   1000cfe0     LIBCMT:sehprolg4.obj
 0001:0000c03c       ___get_entropy             1000d03c f   LIBCMT:gs_support.obj
 0001:0000c333       ??$GetProcAddressAll@P6GP6GJPAUHWND__@@IIJ@ZPAUAtlThunkData_t@@@Z@@YAP6GP6GJPAUHWND__@@IIJ@ZPAUAtlThunkData_t@@@ZPAP6GP6GJ0IIJ@Z1@Z@Z 1000d333 f   atls:atlthunk.obj
 0001:0000c333       ??$GetProcAddressAll@P6GPAUAtlThunkData_t@@XZ@@YAP6GPAUAtlThunkData_t@@XZPAP6GPAU0@XZ@Z 1000d333 f   atls:atlthunk.obj
 0001:0000c333       ??$GetProcAddressAll@P6GXPAUAtlThunkData_t@@@Z@@YAP6GXPAUAtlThunkData_t@@@ZPAP6GX0@Z@Z 1000d333 f   atls:atlthunk.obj
 0001:0000c333       ??$GetProcAddressAll@P6GXPAUAtlThunkData_t@@PAXI@Z@@YAP6GXPAUAtlThunkData_t@@PAXI@ZPAP6GX01I@Z@Z 1000d333 f   atls:atlthunk.obj
 0001:0000c3e3       ?GetProcAddressSingle@@YA_NPAUHINSTANCE__@@PBDPAPAX@Z 1000d3e3 f   atls:atlthunk.obj
 0001:0000c535       ?__InitializeThunkPool@@YAHXZ 1000d535 f   atls:atlthunk.obj
 0001:0000c980       _ValidateLocalCookies      1000d980 f   libvcruntime:chandler4.obj
 0001:0000d9aa       $LN1250                    1000e9aa     libvcruntime:memcmp.obj
 0001:0000da30       $$000000                   1000ea30     libvcruntime:memcpy.obj
 0001:0000dc94       TrailingUpVec              1000ec94     libvcruntime:memcpy.obj
 0001:0000dd40       TrailingDownVec            1000ed40     libvcruntime:memcpy.obj
 0001:0000dfb0       $$000000                   1000efb0     libvcruntime:memset.obj
 0001:0000e5b3       ?_FilterSetCurrentException@@YAKPAU_EXCEPTION_POINTERS@@E@Z 1000f5b3 f   libvcruntime:ehhelpers.obj
 0001:0000e800       $$000000                   1000f800     libvcruntime:memmove.obj
 0001:0000ea64       TrailingUpVec              1000fa64     libvcruntime:memmove.obj
 0001:0000eb10       TrailingDownVec            1000fb10     libvcruntime:memmove.obj
 0001:0000ed80       $$000000                   1000fd80     libvcruntime:exsup4.obj
 0001:0000ee10       __unwind_handler4          1000fe10 f   libvcruntime:exsup4.obj
 0001:0000f0ef       ??$BuildCatchObjectHelperInternal@V__FrameHandler3@@@@YAHPAUEHExceptionRecord@@PAXPBU_s_HandlerType@@PBU_s_CatchableType@@@Z 100100ef f   libvcruntime:frame.obj
 0001:0000f22d       ??$BuildCatchObjectInternal@V__FrameHandler3@@@@YAXPAUEHExceptionRecord@@PAXPBU_s_HandlerType@@PBU_s_CatchableType@@@Z 1001022d f   libvcruntime:frame.obj
 0001:0000f2c6       ??$CatchIt@V__FrameHandler3@@@@YAXPAUEHExceptionRecord@@PAUEHRegistrationNode@@PAU_CONTEXT@@PAXPBU_s_FuncInfo@@PBU_s_HandlerType@@PBU_s_CatchableType@@PBU_s_TryBlockMapEntry@@H1EE@Z 100102c6 f   libvcruntime:frame.obj
 0001:0000f346       ??$FindHandler@V__FrameHandler3@@@@YAXPAUEHExceptionRecord@@PAUEHRegistrationNode@@PAU_CONTEXT@@PAXPBU_s_FuncInfo@@EH1@Z 10010346 f   libvcruntime:frame.obj
 0001:0000f6fc       ??$FindHandlerForForeignException@V__FrameHandler3@@@@YAXPAUEHExceptionRecord@@PAUEHRegistrationNode@@PAU_CONTEXT@@PAXPBU_s_FuncInfo@@HH1@Z 100106fc f   libvcruntime:frame.obj
 0001:0000fa14       ?CallCatchBlock@@YAPAXPAUEHExceptionRecord@@PAUEHRegistrationNode@@PAU_CONTEXT@@PBU_s_FuncInfo@@PAXHK@Z 10010a14 f   libvcruntime:frame.obj
 0001:0000fbd8       ?CallUnexpected@@YAXPBU_s_ESTypeList@@@Z 10010bd8 f   libvcruntime:frame.obj
 0001:0000fbf8       __catch$?CallUnexpected@@YAXPBU_s_ESTypeList@@@Z$0 10010bf8 f   libvcruntime:frame.obj
 0001:0000fc12       ?ExFilterRethrow@@YAHPAU_EXCEPTION_POINTERS@@@Z 10010c12 f   libvcruntime:frame.obj
 0001:0000fd5c       ?IsInExceptionSpec@@YAEPAUEHExceptionRecord@@PBU_s_ESTypeList@@@Z 10010d5c f   libvcruntime:frame.obj
 0001:0000fe30       $$000000                   10010e30     libvcruntime:lowhelpr.obj
 0001:0000fe80       $$000000                   10010e80     libvcruntime:exsup.obj
 0001:0000fea1       __unwind_handler           10010ea1 f   libvcruntime:exsup.obj
 0001:0000ffbe       ?try_get_first_available_module@@YAPAUHINSTANCE__@@QBW4module_id@?A0x9d0f8d90@@0@Z 10010fbe f   libvcruntime:winapi_downlevel.obj
 0001:00010058       ?try_get_function@@YAPAXW4function_id@?A0x9d0f8d90@@QBDQBW4module_id@2@2@Z 10011058 f   libvcruntime:winapi_downlevel.obj
 0001:000106e2       ??$common_tcsncpy_s@_W@@YAHQA_WIQB_WI@Z 100116e2 f   libucrt:wcsncpy_s.obj
 0001:000107b8       ??$common_vsprintf@Vformat_validation_base@__crt_stdio_output@@_W@@YAH_KQA_WIQB_WQAU__crt_locale_pointers@@QAD@Z 100117b8 f   libucrt:output.obj
 0001:0001093f       ??$common_vsprintf_s@_W@@YAH_KQA_WIQB_WQAU__crt_locale_pointers@@QAD@Z 1001193f f   libucrt:output.obj
 0001:000110a3       $LN48                      100120a3     libucrt:output.obj
 0001:000115ac       $LN18                      100125ac     libucrt:output.obj
 0001:000115c0       $LN17                      100125c0     libucrt:output.obj
 0001:00011e1b       ??$?RV<lambda_03b1d95aef87969028cfba75ccab2455>@@AAV<lambda_6e4b09c48022b2350581041d5f6b0c4c>@@V<lambda_22bdf7517842c4b3e53723af5aa32b9e>@@@?$__crt_seh_guarded_call@X@@QAEX$$QAV<lambda_03b1d95aef87969028cfba75ccab2455>@@AAV<lambda_6e4b09c48022b2350581041d5f6b0c4c>@@$$QAV<lambda_22bdf7517842c4b3e53723af5aa32b9e>@@@Z 10012e1b f   libucrt:exit.obj
 0001:00011e68       ??R<lambda_6e4b09c48022b2350581041d5f6b0c4c>@@QBE@XZ 10012e68 f   libucrt:exit.obj
 0001:00011f42       ?atexit_exception_filter@@YAHK@Z 10012f42 f   libucrt:exit.obj
 0001:00011f55       ?common_exit@@YAXHW4_crt_exit_cleanup_mode@@W4_crt_exit_return_mode@@@Z 10012f55 f   libucrt:exit.obj
 0001:00011fb9       ?exit_or_terminate_process@@YAXI@Z 10012fb9 f   libucrt:exit.obj
 0001:00011ffb       ?is_managed_app@@YA_NXZ    10012ffb f   libucrt:exit.obj
 0001:0001203e       ?try_cor_exit_process@@YAXI@Z 1001303e f   libucrt:exit.obj
 0001:000120cc       ??$common_configure_argv@D@@YAHW4_crt_argv_mode@@@Z 100130cc f   libucrt:argv_parsing.obj
 0001:00012202       ??$parse_command_line@D@@YAXPADPAPAD0PAI2@Z 10013202 f   libucrt:argv_parsing.obj
 0001:000123d0       ??$common_initialize_environment_nolock@D@@YAHXZ 100133d0 f   libucrt:environment_initialization.obj
 0001:00012423       ??$create_environment@D@@YAQAPADQAD@Z 10013423 f   libucrt:environment_initialization.obj
 0001:000124f3       ??$free_environment@D@@YAXQAPAD@Z 100134f3 f   libucrt:environment_initialization.obj
 0001:000124f3       ??$free_environment@_W@@YAXQAPA_W@Z 100134f3 f   libucrt:environment_initialization.obj
 0001:0001254b       ??$uninitialize_environment_internal@D@@YAXAAPAPAD@Z 1001354b f   libucrt:environment_initialization.obj
 0001:00012566       ??$uninitialize_environment_internal@_W@@YAXAAPAPA_W@Z 10013566 f   libucrt:environment_initialization.obj
 0001:000125bd       ??$?RV<lambda_69a2805e680e0e292e8ba93315fe43a8>@@AAV<lambda_f03950bc5685219e0bcd2087efbe011e>@@V<lambda_03fcd07e894ec930e3f35da366ca99d6>@@@?$__crt_seh_guarded_call@H@@QAEH$$QAV<lambda_69a2805e680e0e292e8ba93315fe43a8>@@AAV<lambda_f03950bc5685219e0bcd2087efbe011e>@@$$QAV<lambda_03fcd07e894ec930e3f35da366ca99d6>@@@Z 100135bd f   libucrt:onexit.obj
 0001:00012618       ??$?RV<lambda_8e746cf0007f6ed984d6f78af1fec997>@@AAV<lambda_22ebabd17bc4fa466a2aca6d8deb888d>@@V<lambda_18ed0c0b38a6dc0daf1e7ac6d6adf05e>@@@?$__crt_seh_guarded_call@H@@QAEH$$QAV<lambda_8e746cf0007f6ed984d6f78af1fec997>@@AAV<lambda_22ebabd17bc4fa466a2aca6d8deb888d>@@$$QAV<lambda_18ed0c0b38a6dc0daf1e7ac6d6adf05e>@@@Z 10013618 f   libucrt:onexit.obj
 0001:00012692       ??R<lambda_22ebabd17bc4fa466a2aca6d8deb888d>@@QBEHXZ 10013692 f   libucrt:onexit.obj
 0001:000127bb       ??R<lambda_f03950bc5685219e0bcd2087efbe011e>@@QBEHXZ 100137bb f   libucrt:onexit.obj
 0001:00012934       _initialize_global_variables 10013934 f   libucrt:initialization.obj
 0001:00012941       _initialize_c              10013941 f   libucrt:initialization.obj
 0001:0001295b       _initialize_environment    1001395b f   libucrt:initialization.obj
 0001:0001295b       _initialize_global_state_isolation 1001395b f   libucrt:initialization.obj
 0001:0001295b       _report_memory_leaks       1001395b f   libucrt:initialization.obj
 0001:0001295b       _uninitialize_c            1001395b f   libucrt:initialization.obj
 0001:0001295b       _uninitialize_global_state_isolation 1001395b f   libucrt:initialization.obj
 0001:0001295e       _uninitialize_environment  1001395e f   libucrt:initialization.obj
 0001:00012966       _initialize_pointers       10013966 f   libucrt:initialization.obj
 0001:00012994       _uninitialize_vcruntime    10013994 f   libucrt:initialization.obj
 0001:0001299d       _uninitialize_allocated_memory 1001399d f   libucrt:initialization.obj
 0001:000129b4       _uninitialize_allocated_io_buffers 100139b4 f   libucrt:initialization.obj
 0001:00012a04       ??R<lambda_af42a3ee9806e9a7305d451646e05244>@@QBEXAAPAU__crt_multibyte_data@@@Z 10013a04 f   libucrt:initialization.obj
 0001:000132f0       $$000000                   100142f0     libucrt:strncmp.obj
 0001:000133dc       ??$?RV<lambda_15ade71b0218206bbe3333a0c9b79046>@@AAV<lambda_da44e0f8b0f19ba52fefafb335991732>@@V<lambda_207f2d024fc103971653565357d6cd41>@@@?$__crt_seh_guarded_call@X@@QAEX$$QAV<lambda_15ade71b0218206bbe3333a0c9b79046>@@AAV<lambda_da44e0f8b0f19ba52fefafb335991732>@@$$QAV<lambda_207f2d024fc103971653565357d6cd41>@@@Z 100143dc f   libucrt:per_thread_data.obj
 0001:0001342e       ??$?RV<lambda_38edbb1296d33220d7e4dd0ed76b244a>@@AAV<lambda_5ce1d447e08cb34b2473517608e21441>@@V<lambda_fb385d3da700c9147fc39e65dd577a8c>@@@?$__crt_seh_guarded_call@X@@QAEX$$QAV<lambda_38edbb1296d33220d7e4dd0ed76b244a>@@AAV<lambda_5ce1d447e08cb34b2473517608e21441>@@$$QAV<lambda_fb385d3da700c9147fc39e65dd577a8c>@@@Z 1001442e f   libucrt:per_thread_data.obj
 0001:00013499       ??$?RV<lambda_6affb1475c98b40b75cdec977db92e3c>@@AAV<lambda_b8d4b9c228a6ecc3f80208dbb4b4a104>@@V<lambda_608742c3c92a14382c1684fc64f96c88>@@@?$__crt_seh_guarded_call@X@@QAEX$$QAV<lambda_6affb1475c98b40b75cdec977db92e3c>@@AAV<lambda_b8d4b9c228a6ecc3f80208dbb4b4a104>@@$$QAV<lambda_608742c3c92a14382c1684fc64f96c88>@@@Z 10014499 f   libucrt:per_thread_data.obj
 0001:000134ee       ??$?RV<lambda_a7e850c220f1c8d1e6efeecdedd162c6>@@AAV<lambda_46720907175c18b6c9d2717bc0d2d362>@@V<lambda_9048902d66e8d99359bc9897bbb930a8>@@@?$__crt_seh_guarded_call@X@@QAEX$$QAV<lambda_a7e850c220f1c8d1e6efeecdedd162c6>@@AAV<lambda_46720907175c18b6c9d2717bc0d2d362>@@$$QAV<lambda_9048902d66e8d99359bc9897bbb930a8>@@@Z 100144ee f   libucrt:per_thread_data.obj
 0001:00013548       ?construct_ptd@@YAXQAU__acrt_ptd@@QAPAU__crt_locale_data@@@Z 10014548 f   libucrt:per_thread_data.obj
 0001:000135e1       ?destroy_fls@@YGXPAX@Z     100145e1 f   libucrt:per_thread_data.obj
 0001:00013602       ?destroy_ptd@@YAXQAU__acrt_ptd@@@Z 10014602 f   libucrt:per_thread_data.obj
 0001:000136cf       ?replace_current_thread_locale_nolock@@YAXQAU__acrt_ptd@@QAU__crt_locale_data@@@Z 100146cf f   libucrt:per_thread_data.obj
 0001:00013adf       ?try_get_AreFileApisANSI@@YAP6GHXZXZ 10014adf f   libucrt:winapi_thunks.obj
 0001:00013af9       ?try_get_LCMapStringEx@@YAP6GHPB_WK0HPA_WHPAU_nlsversioninfo@@PAXJ@ZXZ 10014af9 f   libucrt:winapi_thunks.obj
 0001:00013b13       ?try_get_LocaleNameToLCID@@YAP6GKPB_WK@ZXZ 10014b13 f   libucrt:winapi_thunks.obj
 0001:00013b2d       ?try_get_first_available_module@@YAPAUHINSTANCE__@@QBW4module_id@?A0x391cf84c@@0@Z 10014b2d f   libucrt:winapi_thunks.obj
 0001:00013bf4       ?try_get_function@@YAPAXW4function_id@?A0x391cf84c@@QBDQBW4module_id@2@2@Z 10014bf4 f   libucrt:winapi_thunks.obj
 0001:00014357       ?fe_to_nearest@@YA_NQBN_KF@Z 10015357 f   libucrt:cvt.obj
 0001:000143fa       ?fp_format_a@@YAHQBNPADIQADIH_NIQAU__crt_locale_pointers@@W4__acrt_rounding_mode@@@Z 100153fa f   libucrt:cvt.obj
 0001:00014709       ?fp_format_e@@YAHQBNQADI1IH_NIQAU__crt_locale_pointers@@W4__acrt_rounding_mode@@@Z 10015709 f   libucrt:cvt.obj
 0001:000147b1       ?fp_format_e_internal@@YAHQADIH_NIQAU_strflt@@1QAU__crt_locale_pointers@@@Z 100157b1 f   libucrt:cvt.obj
 0001:000148f9       ?fp_format_f@@YAHQBNQADI1IHQAU__crt_locale_pointers@@W4__acrt_rounding_mode@@@Z 100158f9 f   libucrt:cvt.obj
 0001:0001498a       ?fp_format_f_internal@@YAHQADIHQAU_strflt@@_NQAU__crt_locale_pointers@@@Z 1001598a f   libucrt:cvt.obj
 0001:00014a82       ?fp_format_g@@YAHQBNQADI1IH_NIQAU__crt_locale_pointers@@@Z 10015a82 f   libucrt:cvt.obj
 0001:00014b4b       ?fp_format_nan_or_infinity@@YAHW4__acrt_fp_class@@_NPADI1@Z 10015b4b f   libucrt:cvt.obj
 0001:00014be0       ?shift_bytes@@YAXQADI0H@Z  10015be0 f   libucrt:cvt.obj
 0001:00014c14       ?should_round_up@@YA_NQBN_KFW4__acrt_rounding_mode@@@Z 10015c14 f   libucrt:cvt.obj
 0001:00014f7d       ??$?RV<lambda_e5124f882df8998aaf41531e079ba474>@@AAV<lambda_3e16ef9562a7dcce91392c22ab16ea36>@@V<lambda_e25ca0880e6ef98be67edffd8c599615>@@@?$__crt_seh_guarded_call@X@@QAEX$$QAV<lambda_e5124f882df8998aaf41531e079ba474>@@AAV<lambda_3e16ef9562a7dcce91392c22ab16ea36>@@$$QAV<lambda_e25ca0880e6ef98be67edffd8c599615>@@@Z 10015f7d f   libucrt:wsetlocale.obj
 0001:0001501d       ?initialize_inherited_file_handles_nolock@@YAXXZ 1001601d f   libucrt:ioinit.obj
 0001:000150d3       ?initialize_stdio_handles_nolock@@YAXXZ 100160d3 f   libucrt:ioinit.obj
 0001:000152e4       ?<lambda_invoker_cdecl>@<lambda_838c7f62c73c983481e27c09e84b0b5d>@@CAHPBX0@Z 100162e4 f   libucrt:argv_wildcards.obj
 0001:000152fc       ??$__acrt_convert_wcs_mbs_cp@D_WV<lambda_62f6974d9771e494a5ea317cc32e971c>@@U__crt_win32_buffer_internal_dynamic_resizing@@@@YAHQBDAAV?$__crt_win32_buffer@_WU__crt_win32_buffer_internal_dynamic_resizing@@@@ABV<lambda_62f6974d9771e494a5ea317cc32e971c>@@I@Z 100162fc f   libucrt:argv_wildcards.obj
 0001:000153ae       ??$__acrt_convert_wcs_mbs_cp@_WDV<lambda_28bda7af82a03b66c1cb3803a755f95d>@@U__crt_win32_buffer_internal_dynamic_resizing@@@@YAHQB_WAAV?$__crt_win32_buffer@DU__crt_win32_buffer_internal_dynamic_resizing@@@@ABV<lambda_28bda7af82a03b66c1cb3803a755f95d>@@I@Z 100163ae f   libucrt:argv_wildcards.obj
 0001:0001549a       ??$common_expand_argv_wildcards@D@@YAHQAPADQAPAPAD@Z 1001649a f   libucrt:argv_wildcards.obj
 0001:00015689       ??$copy_and_add_argument_to_buffer@D@@YAHQBD0IAAV?$argument_list@D@?A0x5f5c8891@@@Z 10016689 f   libucrt:argv_wildcards.obj
 0001:0001573a       ??$expand_argument_wildcards@D@@YAHQAD0AAV?$argument_list@D@?A0x5f5c8891@@@Z 1001673a f   libucrt:argv_wildcards.obj
 0001:00015a84       ?expand_if_necessary@?$argument_list@D@?A0x5f5c8891@@AAEHXZ 10016a84 f   libucrt:argv_wildcards.obj
 0001:00015b16       ??$__acrt_convert_wcs_mbs_cp@_WDV<lambda_0fec1a7b3f42a53036604e18c2d5e07e>@@U__crt_win32_buffer_no_resizing@@@@YAHQB_WAAV?$__crt_win32_buffer@DU__crt_win32_buffer_no_resizing@@@@ABV<lambda_0fec1a7b3f42a53036604e18c2d5e07e>@@I@Z 10016b16 f   libucrt:getmodulefilenamea.obj
 0001:00015cb9       ??$?RV<lambda_ceb1ee4838e85a9d631eb091e2fbe199>@@AAV<lambda_ae742caa10f662c28703da3d2ea5e57e>@@V<lambda_cd08b5d6af4937fe54fc07d0c9bf6b37>@@@?$__crt_seh_guarded_call@X@@QAEX$$QAV<lambda_ceb1ee4838e85a9d631eb091e2fbe199>@@AAV<lambda_ae742caa10f662c28703da3d2ea5e57e>@@$$QAV<lambda_cd08b5d6af4937fe54fc07d0c9bf6b37>@@@Z 10016cb9 f   libucrt:mbctype.obj
 0001:00015d06       ??R<lambda_ae742caa10f662c28703da3d2ea5e57e>@@QBEXXZ 10016d06 f   libucrt:mbctype.obj
 0001:00015d89       ?CPtoLocaleName@@YAPB_WH@Z 10016d89 f   libucrt:mbctype.obj
 0001:00015dc7       ?getSystemCP@@YAHH@Z       10016dc7 f   libucrt:mbctype.obj
 0001:00015e38       ?setSBCS@@YAXPAU__crt_multibyte_data@@@Z 10016e38 f   libucrt:mbctype.obj
 0001:00015e9d       ?setSBUpLow@@YAXPAU__crt_multibyte_data@@@Z 10016e9d f   libucrt:mbctype.obj
 0001:0001601d       ?setmbcp_internal@@YAHH_NQAU__acrt_ptd@@QAPAU__crt_multibyte_data@@@Z 1001701d f   libucrt:mbctype.obj
 0001:00016131       ?update_thread_multibyte_data_internal@@YAPAU__crt_multibyte_data@@QAU__acrt_ptd@@QAPAU1@@Z 10017131 f   libucrt:mbctype.obj
 0001:0001641f       _memcpy_s                  1001741f f   libucrt:cfout.obj
 0001:0001641f       _memcpy_s                  1001741f f   libucrt:mbctype.obj
 0001:000164a0       ?x_ismbbtype_l@@YAHPAU__crt_locale_pointers@@IHH@Z 100174a0 f   libucrt:ismbbyte.obj
 0001:0001665b       ?find_end_of_double_null_terminated_sequence@@YAPB_WQB_W@Z 1001765b f   libucrt:get_environment_from_os.obj
 0001:000167ca       ??$?RV<lambda_cbab9ec6f41b0180b23cc171c22676b0>@@AAV<lambda_44731a7d0e6d81c3e6aa82d741081786>@@V<lambda_4b292cb8dd18144e164572427af410ab>@@@?$__crt_seh_guarded_call@P6AXH@Z@@QAEP6AXH@Z$$QAV<lambda_cbab9ec6f41b0180b23cc171c22676b0>@@AAV<lambda_44731a7d0e6d81c3e6aa82d741081786>@@$$QAV<lambda_4b292cb8dd18144e164572427af410ab>@@@Z 100177ca f   libucrt:signal.obj
 0001:0001682e       ?get_global_action_nolock@@YAPAP6AXH@ZH@Z 1001782e f   libucrt:signal.obj
 0001:00016870       ?siglookup@@YAPAU__crt_signal_action_t@@HQAU1@@Z 10017870 f   libucrt:signal.obj
 0001:00016b29       ??$?RV<lambda_2866be3712abc81a800a822484c830d8>@@AAV<lambda_39ca0ed439415581b5b15c265174cece>@@V<lambda_2b24c74d71094a6cd0cb82e44167d71b>@@@?$__crt_seh_guarded_call@X@@QAEX$$QAV<lambda_2866be3712abc81a800a822484c830d8>@@AAV<lambda_39ca0ed439415581b5b15c265174cece>@@$$QAV<lambda_2b24c74d71094a6cd0cb82e44167d71b>@@@Z 10017b29 f   libucrt:fflush.obj
 0001:00016bb5       ??$?RV<lambda_2cc53f568c5a2bb6f192f930a45d44ea>@@AAV<lambda_ab61a845afdef5b7c387490eaf3616ee>@@V<lambda_c2ffc0b7726aa6be21d5f0026187e748>@@@?$__crt_seh_guarded_call@X@@QAEX$$QAV<lambda_2cc53f568c5a2bb6f192f930a45d44ea>@@AAV<lambda_ab61a845afdef5b7c387490eaf3616ee>@@$$QAV<lambda_c2ffc0b7726aa6be21d5f0026187e748>@@@Z 10017bb5 f   libucrt:fflush.obj
 0001:00016c61       ?common_flush_all@@YAH_N@Z 10017c61 f   libucrt:fflush.obj
 0001:00016cae       ?common_flush_all_should_try_to_flush_stream@@YA_NV__crt_stdio_stream@@QAH@Z 10017cae f   libucrt:fflush.obj
 0001:00016ce1       ?is_stream_flushable_or_commitable@@YA_NJ@Z 10017ce1 f   libucrt:fflush.obj
 0001:000171ea       ?GetTableIndexFromLocaleName@@YAHPB_W@Z 100181ea f   libucrt:lcidtoname_downlevel.obj
 0001:000172a0       ??R<lambda_3d301b9e52f5099be73030e1f0bf487e>@@QBEIPBD@Z 100182a0 f   libucrt:mbrtowc.obj
 0001:00017426       ?should_round_up@@YA_NQBDHW4__acrt_has_trailing_digits@@W4__acrt_rounding_mode@@@Z 10018426 f   libucrt:_fptostr.obj
 0001:000191c4       ?free_crt_array_internal@@YAXQAPBXI@Z 1001a1c4 f   libucrt:inittime.obj
 0001:00019b8e       ??$common_tcsncpy_s@D@@YAHQADIQBDI@Z 1001ab8e f   libucrt:strncpy_s.obj
 0001:00019c50       $$000000                   1001ac50     libucrt:strpbrk.obj
 0001:00019d34       ?__acrt_LCMapStringA_stat@@YAHPAU__crt_locale_pointers@@PB_WKPBDHPADHHH@Z 1001ad34 f   libucrt:lcmapstringa.obj
 0001:00019f67       ?initialize_multibyte@@YAHXZ 1001af67 f   libucrt:multibyte_initializer.obj
 0001:00019f76       ??$?RV<lambda_9e9de3de5fa147e2223d7db92bc10aa6>@@AAV<lambda_38ce7e780aa69e748d6df282ebc68efe>@@V<lambda_8ca6da459f0f6780f1cff60fdc3d00e5>@@@?$__crt_seh_guarded_call@H@@QAEH$$QAV<lambda_9e9de3de5fa147e2223d7db92bc10aa6>@@AAV<lambda_38ce7e780aa69e748d6df282ebc68efe>@@$$QAV<lambda_8ca6da459f0f6780f1cff60fdc3d00e5>@@@Z 1001af76 f   libucrt:commit.obj
 0001:0001a095       ?write_double_translated_ansi_nolock@@YA?AUwrite_result@?A0x17268360@@HQBDI@Z 1001b095 f   libucrt:write.obj
 0001:0001a441       ?write_double_translated_unicode_nolock@@YA?AUwrite_result@?A0x17268360@@QBDI@Z 1001b441 f   libucrt:write.obj
 0001:0001a4a9       ?write_requires_double_translation_nolock@@YA_NH@Z 1001b4a9 f   libucrt:write.obj
 0001:0001a51a       ?write_text_ansi_nolock@@YA?AUwrite_result@?A0x17268360@@HQBDI@Z 1001b51a f   libucrt:write.obj
 0001:0001a5f5       ?write_text_utf16le_nolock@@YA?AUwrite_result@?A0x17268360@@HQBDI@Z 1001b5f5 f   libucrt:write.obj
 0001:0001a6de       ?write_text_utf8_nolock@@YA?AUwrite_result@?A0x17268360@@HQBDI@Z 1001b6de f   libucrt:write.obj
 0001:0001ae00       $$000000                   1001be00     libucrt:log10_impl.obj
 0001:0001af10       $$000000                   1001bf10     libucrt:ceil_pentium4.obj
 0001:0001b02d       ?to_abstract_control@@YA?AW4__acrt_fenv_abstract_control@@W4__acrt_fenv_machine_sse_control@@@Z 1001c02d f   libucrt:_fenvutils.obj
 0001:0001b0e9       ?to_abstract_control@@YA?AW4__acrt_fenv_abstract_control@@W4__acrt_fenv_machine_x87_control@@@Z 1001c0e9 f   libucrt:_fenvutils.obj
 0001:0001b1a2       ?to_machine_sse_control@@YA?AW4__acrt_fenv_machine_sse_control@@W4__acrt_fenv_abstract_control@@@Z 1001c1a2 f   libucrt:_fenvutils.obj
 0001:0001b26f       ?to_machine_x87_control@@YA?AW4__acrt_fenv_machine_x87_control@@W4__acrt_fenv_abstract_control@@@Z 1001c26f f   libucrt:_fenvutils.obj
 0001:0001b603       ??$common_lseek_nolock@_J@@YA_JH_JH@Z 1001c603 f   libucrt:lseek.obj
 0001:0001b7e9       ___hw_cw_sse2              1001c7e9 f   libucrt:ieee87.obj
 0001:0001bc6f       __hw_cw                    1001cc6f f   libucrt:ieee87.obj
 0001:0001bd20       $$000000                   1001cd20     libucrt:log10_pentium4.obj
 0001:0001bfb0       $$000000                   1001cfb0     libucrt:87tran.obj
 0001:0001c1c0       $$000000                   1001d1c0     libucrt:87disp.obj
 0001:0001c420       $$000000                   1001d420     libucrt:common.obj
 0001:0001c5b0       $$000000                   1001d5b0     libucrt:genexcep.obj
 0001:0001c8ac       ??$?RV<lambda_218ce3db14220d0be481dae8ef3383b6>@@AAV<lambda_628dfdc04ba53c8bfc02c9951375f3f5>@@V<lambda_57dc472bd5c9d5f3b2cbca59b8a843ae>@@@?$__crt_seh_guarded_call@H@@QAEH$$QAV<lambda_218ce3db14220d0be481dae8ef3383b6>@@AAV<lambda_628dfdc04ba53c8bfc02c9951375f3f5>@@$$QAV<lambda_57dc472bd5c9d5f3b2cbca59b8a843ae>@@@Z 1001d8ac f   libucrt:close.obj
 0001:0001caa0       $$000000                   1001daa0     libucrt:_strnicm.obj
 0001:0001cb01       ?__dcrt_lowio_initialize_console_output@@YAXXZ 1001db01 f   libucrt:initcon.obj
 0001:0001d9e0       $$000000                   1001e9e0     LIBCMT:ulldvrm.obj
 0001:0001da80       $$000000                   1001ea80     LIBCMT:llmul.obj
 0001:0001dac0       $$000000                   1001eac0     LIBCMT:lldvrm.obj
 0001:0001dba0       $$000000                   1001eba0     LIBCMT:llshl.obj
 0001:0001dbc0       $$000000                   1001ebc0     LIBCMT:ullshr.obj
 0001:0001dbe0       $$000000                   1001ebe0     LIBCMT:ftol2.obj
 0001:0001de80       $$000000                   1001ee80     libvcruntime:strrchr.obj
 0001:0001dfc0       $$000000                   1001efc0     libvcruntime:strchr.obj
 0001:0001e163       __ehhandler$??2@YAPAXIABUnothrow_t@std@@@Z 1001f163 f   LIBCMT:new_scalar_nothrow.obj
 0001:0001e17e       __ehhandler$?CallUnexpected@@YAXPBU_s_ESTypeList@@@Z 1001f17e f   libvcruntime:frame.obj
 0001:0001e199       ??__F_AtlComModule@ATL@@YAXXZ 1001f199 f   OposVariant.obj
 0001:0001e1a3       ??__F_AtlWinModule@ATL@@YAXXZ 1001f1a3 f   OposVariant.obj
 0001:0001e1bd       ??__F_Module@@YAXXZ        1001f1bd f   BillDispenser.obj
 0001:0001e1d1       ??__F_AtlBaseModule@ATL@@YAXXZ 1001f1d1 f   atls:atlbase.obj
 0002:00000304       ?_AtlBaseModule$initializer$@ATL@@3P6AXXZA 10020304     atls:atlbase.obj
 0002:00000308       ?_AtlComModule$initializer$@ATL@@3P6AXXZA 10020308     OposVariant.obj
 0002:0000030c       ?_AtlWinModule$initializer$@ATL@@3P6AXXZA 1002030c     OposVariant.obj
 0002:00000310       ?_Module$initializer$@@3P6AXXZA 10020310     BillDispenser.obj
 0002:00000314       ??pConnMap$initializer$@?$IConnectionPointContainerImpl@VCOPOSBillDispenser@@@ATL@@0P6AXXZA@@3P6AXXZA 10020314     BillDispenser.obj
 0002:00000320       ?__scrt_initialize_tss_var@@3P6AHXZA 10020320     LIBCMT:thread_safe_statics.obj
 0002:000017d0       _GS_ExceptionPointers      100217d0     LIBCMT:gs_report.obj
 0002:00001960       ?tokenTable@@3QBUStringLiteral@@B 10021960     libvcruntime:undname.obj
 0002:000019e0       ?nameTable@@3QBUStringLiteral@@B 100219e0     libvcruntime:undname.obj
 0002:00001c78       ?rttiTable@@3QBUStringLiteral@@B 10021c78     libvcruntime:undname.obj
 0002:00001ca0       ?IndirectionName@@3QBUStringLiteral@@B 10021ca0     libvcruntime:undname.obj
 0002:00001cd0       ?PrefixName@@3QBUStringLiteral@@B 10021cd0     libvcruntime:undname.obj
 0002:00002300       ?module_names@?A0x9d0f8d90@@3QBQB_WB 10022300     libvcruntime:winapi_downlevel.obj
 0002:000023a8       ?candidate_modules@?1??try_get_FlsAlloc@@YAP6GKP6GXPAX@Z@ZXZ@4QBW4module_id@?A0x9d0f8d90@@B 100223a8     libvcruntime:winapi_downlevel.obj
 0002:000023bc       ?candidate_modules@?1??try_get_FlsFree@@YAP6GHK@ZXZ@4QBW4module_id@?A0x9d0f8d90@@B 100223bc     libvcruntime:winapi_downlevel.obj
 0002:000023cc       ?candidate_modules@?1??try_get_FlsGetValue@@YAP6GPAXK@ZXZ@4QBW4module_id@?A0x9d0f8d90@@B 100223cc     libvcruntime:winapi_downlevel.obj
 0002:000023e0       ?candidate_modules@?1??try_get_FlsSetValue@@YAP6GHKPAX@ZXZ@4QBW4module_id@?A0x9d0f8d90@@B 100223e0     libvcruntime:winapi_downlevel.obj
 0002:000023f4       ?candidate_modules@?1??try_get_InitializeCriticalSectionEx@@YAP6GHPAU_RTL_CRITICAL_SECTION@@KK@ZXZ@4QBW4module_id@?A0x9d0f8d90@@B 100223f4     libvcruntime:winapi_downlevel.obj
 0002:00002418       ?errtable@@3QBUerrentry@?A0x31fdb9ec@@B 10022418     libucrt:errno.obj
 0002:00002a60       ___acrt_initializers       10022a60     libucrt:initialization.obj
 0002:00002ae0       ?module_names@?A0x391cf84c@@3QBQB_WB 10022ae0     libucrt:winapi_thunks.obj
 0002:00002f58       ?candidate_modules@?1??try_get_AreFileApisANSI@@YAP6GHXZXZ@4QBW4module_id@?A0x391cf84c@@B 10022f58     libucrt:winapi_thunks.obj
 0002:00002f6c       ?candidate_modules@?1??try_get_FlsAlloc@@YAP6GKP6GXPAX@Z@ZXZ@4QBW4module_id@?A0x391cf84c@@B 10022f6c     libucrt:winapi_thunks.obj
 0002:00002f74       ?candidate_modules@?1??try_get_FlsFree@@YAP6GHK@ZXZ@4QBW4module_id@?A0x391cf84c@@B 10022f74     libucrt:winapi_thunks.obj
 0002:00002f7c       ?candidate_modules@?1??try_get_FlsGetValue@@YAP6GPAXK@ZXZ@4QBW4module_id@?A0x391cf84c@@B 10022f7c     libucrt:winapi_thunks.obj
 0002:00002f84       ?candidate_modules@?1??try_get_FlsSetValue@@YAP6GHKPAX@ZXZ@4QBW4module_id@?A0x391cf84c@@B 10022f84     libucrt:winapi_thunks.obj
 0002:00002f8c       ?candidate_modules@?1??try_get_InitializeCriticalSectionEx@@YAP6GHPAU_RTL_CRITICAL_SECTION@@KK@ZXZ@4QBW4module_id@?A0x391cf84c@@B 10022f8c     libucrt:winapi_thunks.obj
 0002:00002f94       ?candidate_modules@?1??try_get_LCMapStringEx@@YAP6GHPB_WK0HPA_WHPAU_nlsversioninfo@@PAXJ@ZXZ@4QBW4module_id@?A0x391cf84c@@B 10022f94     libucrt:winapi_thunks.obj
 0002:00002fac       ?candidate_modules@?1??try_get_LocaleNameToLCID@@YAP6GKPB_WK@ZXZ@4QBW4module_id@?A0x391cf84c@@B 10022fac     libucrt:winapi_thunks.obj
 0002:00002fc8       ?candidate_modules@?1??try_get_AppPolicyGetProcessTerminationMethod@@YAP6GJPAXPAW4AppPolicyProcessTerminationMethod@@@ZXZ@4QBW4module_id@?A0x391cf84c@@B 10022fc8     libucrt:winapi_thunks.obj
 0002:00002ff4       ?candidate_modules@?1??try_get_SetThreadStackGuarantee@@YAP6GHPAK@ZXZ@4QBW4module_id@?A0x391cf84c@@B 10022ff4     libucrt:winapi_thunks.obj
 0002:00003018       ?strings@?1??fp_format_nan_or_infinity@@YAHW4__acrt_fp_class@@_NPADI1@Z@4QAY03QBDA 10023018     libucrt:cvt.obj
 0002:00003560       ?_mb_locale_names@@3QBQB_WB 10023560     libucrt:mbctype.obj
 0002:00003da8       ?LcidToLocaleNameTable@?A0x881e4c05@@3QBULcidToLocaleName@1@B 10023da8     libucrt:lcidtoname_downlevel.obj
 0002:00004ed0       ?LocaleNameToIndexTable@?A0x881e4c05@@3QBULocaleNameIndex@1@B 10024ed0     libucrt:lcidtoname_downlevel.obj
 0002:00006810       LOG_name                   10026810     libucrt:log10_impl.obj
 0002:00006820       _One                       10026820     libucrt:ceil_pentium4.obj
 0002:00006830       _Bns                       10026830     libucrt:ceil_pentium4.obj
 0002:00006840       _Zero                      10026840     libucrt:ceil_pentium4.obj
 0002:00006850       _S                         10026850     libucrt:ceil_pentium4.obj
 0002:00006860       _NegZero                   10026860     libucrt:ceil_pentium4.obj
 0002:00006870       emask                      10026870     libucrt:log10_pentium4.obj
 0002:00006880       CC                         10026880     libucrt:log10_pentium4.obj
 0002:00006890       Magic                      10026890     libucrt:log10_pentium4.obj
 0002:000068a0       hi_mask                    100268a0     libucrt:log10_pentium4.obj
 0002:000068b0       LOG10_2                    100268b0     libucrt:log10_pentium4.obj
 0002:000068c0       place_L                    100268c0     libucrt:log10_pentium4.obj
 0002:000068e0       One                        100268e0     libucrt:log10_pentium4.obj
 0002:000068f0       Zero                       100268f0     libucrt:log10_pentium4.obj
 0002:00006900       Two52                      10026900     libucrt:log10_pentium4.obj
 0002:00006910       Infs                       10026910     libucrt:log10_pentium4.obj
 0002:00006920       NaN                        10026920     libucrt:log10_pentium4.obj
 0002:00006930       coeff                      10026930     libucrt:log10_pentium4.obj
 0002:0000698e       _log2max                   1002698e     libucrt:87tran.obj
 0002:00006998       _smallarg                  10026998     libucrt:87tran.obj
 0002:000069a2       _half                      100269a2     libucrt:87tran.obj
 0002:000069ee       One                        100269ee     libucrt:87disp.obj
 0002:000069f6       Three                      100269f6     libucrt:87disp.obj
 0002:000069fe       XAMtoTagTab                100269fe     libucrt:87disp.obj
 0002:00006a10       One                        10026a10     libucrt:common.obj
 0002:00006a24       DblMax                     10026a24     libucrt:common.obj
 0002:00006a2c       DblMin                     10026a2c     libucrt:common.obj
 0002:00006a34       IeeeAdjO                   10026a34     libucrt:common.obj
 0002:00006a3c       IeeeAdjU                   10026a3c     libucrt:common.obj
 0002:00006a44       _infinity                  10026a44     libucrt:common.obj
 0002:00006a4c       _zero                      10026a4c     libucrt:common.obj
 0002:00006a98       _over                      10026a98     libucrt:fpctrl.obj
 0002:00006aa4       _under                     10026aa4     libucrt:fpctrl.obj
 0002:000072d8       ?_names@?1??_get_fname@@9@9 100272d8     libucrt:fpexcept.obj
 0002:00007480       two32                      10027480     LIBCMT:ftol2.obj
 0002:00007484       two63                      10027484     LIBCMT:ftol2.obj
 0002:00007488       _NaN                       10027488     LIBCMT:ftol2.obj
 0002:00007b40       __sehtable$?_AtlVerifyStackAvailable@_ATL_SAFE_ALLOCA_IMPL@ATL@@YA_NK@Z 10027b40     BillDispenser.obj
 0002:00007b60       __sehtable$___scrt_is_nonwritable_in_current_image 10027b60     LIBCMT:utility.obj
 0002:00007b7c       __catchsym$??2@YAPAXIABUnothrow_t@std@@@Z$2 10027b7c     LIBCMT:new_scalar_nothrow.obj
 0002:00007b8c       __unwindtable$??2@YAPAXIABUnothrow_t@std@@@Z 10027b8c     LIBCMT:new_scalar_nothrow.obj
 0002:00007b9c       __tryblocktable$??2@YAPAXIABUnothrow_t@std@@@Z 10027b9c     LIBCMT:new_scalar_nothrow.obj
 0002:00007bb0       __ehfuncinfo$??2@YAPAXIABUnothrow_t@std@@@Z 10027bb0     LIBCMT:new_scalar_nothrow.obj
 0002:00007bd8       __sehtable$?dllmain_crt_process_attach@@YAHQAUHINSTANCE__@@QAX@Z 10027bd8     LIBCMT:dll_dllmain.obj
 0002:00007bf8       __sehtable$?dllmain_crt_process_detach@@YAH_N@Z 10027bf8     LIBCMT:dll_dllmain.obj
 0002:00007c20       __sehtable$?dllmain_dispatch@@YAHQAUHINSTANCE__@@KQAX@Z 10027c20     LIBCMT:dll_dllmain.obj
 0002:00007cd0       __sehtable$___DestructExceptionObject 10027cd0     libvcruntime:ehhelpers.obj
 0002:00007cf0       __sehtable$?FrameUnwindToState@__FrameHandler3@@SAXPAUEHRegistrationNode@@PAXPBU_s_FuncInfo@@H@Z 10027cf0     libvcruntime:frame.obj
 0002:00007d18       __sehtable$?CallCatchBlock@@YAPAXPAUEHExceptionRecord@@PAUEHRegistrationNode@@PAU_CONTEXT@@PBU_s_FuncInfo@@PAXHK@Z 10027d18     libvcruntime:frame.obj
 0002:00007d40       __catchsym$?CallUnexpected@@YAXPBU_s_ESTypeList@@@Z$2 10027d40     libvcruntime:frame.obj
 0002:00007d50       __unwindtable$?CallUnexpected@@YAXPBU_s_ESTypeList@@@Z 10027d50     libvcruntime:frame.obj
 0002:00007d60       __tryblocktable$?CallUnexpected@@YAXPBU_s_ESTypeList@@@Z 10027d60     libvcruntime:frame.obj
 0002:00007d74       __ehfuncinfo$?CallUnexpected@@YAXPBU_s_ESTypeList@@@Z 10027d74     libvcruntime:frame.obj
 0002:00007d98       __sehtable$??$BuildCatchObjectHelperInternal@V__FrameHandler3@@@@YAHPAUEHExceptionRecord@@PAXPBU_s_HandlerType@@PBU_s_CatchableType@@@Z 10027d98     libvcruntime:frame.obj
 0002:00007db8       __sehtable$??$BuildCatchObjectInternal@V__FrameHandler3@@@@YAXPAUEHExceptionRecord@@PAXPBU_s_HandlerType@@PBU_s_CatchableType@@@Z 10027db8     libvcruntime:frame.obj
 0002:00007e10       __sehtable$??R<lambda_6e4b09c48022b2350581041d5f6b0c4c>@@QBE@XZ 10027e10     libucrt:exit.obj
 0002:00007e30       __sehtable$??$?RV<lambda_03b1d95aef87969028cfba75ccab2455>@@AAV<lambda_6e4b09c48022b2350581041d5f6b0c4c>@@V<lambda_22bdf7517842c4b3e53723af5aa32b9e>@@@?$__crt_seh_guarded_call@X@@QAEX$$QAV<lambda_03b1d95aef87969028cfba75ccab2455>@@AAV<lambda_6e4b09c48022b2350581041d5f6b0c4c>@@$$QAV<lambda_22bdf7517842c4b3e53723af5aa32b9e>@@@Z 10027e30     libucrt:exit.obj
 0002:00007e50       __sehtable$??$?RV<lambda_8e746cf0007f6ed984d6f78af1fec997>@@AAV<lambda_22ebabd17bc4fa466a2aca6d8deb888d>@@V<lambda_18ed0c0b38a6dc0daf1e7ac6d6adf05e>@@@?$__crt_seh_guarded_call@H@@QAEH$$QAV<lambda_8e746cf0007f6ed984d6f78af1fec997>@@AAV<lambda_22ebabd17bc4fa466a2aca6d8deb888d>@@$$QAV<lambda_18ed0c0b38a6dc0daf1e7ac6d6adf05e>@@@Z 10027e50     libucrt:onexit.obj
 0002:00007e70       __sehtable$??$?RV<lambda_69a2805e680e0e292e8ba93315fe43a8>@@AAV<lambda_f03950bc5685219e0bcd2087efbe011e>@@V<lambda_03fcd07e894ec930e3f35da366ca99d6>@@@?$__crt_seh_guarded_call@H@@QAEH$$QAV<lambda_69a2805e680e0e292e8ba93315fe43a8>@@AAV<lambda_f03950bc5685219e0bcd2087efbe011e>@@$$QAV<lambda_03fcd07e894ec930e3f35da366ca99d6>@@@Z 10027e70     libucrt:onexit.obj
 0002:00007e90       __sehtable$__query_new_handler 10027e90     libucrt:new_handler.obj
 0002:00007eb0       __sehtable$_terminate      10027eb0     libucrt:terminate.obj
 0002:00007ed0       __sehtable$??$?RV<lambda_15ade71b0218206bbe3333a0c9b79046>@@AAV<lambda_da44e0f8b0f19ba52fefafb335991732>@@V<lambda_207f2d024fc103971653565357d6cd41>@@@?$__crt_seh_guarded_call@X@@QAEX$$QAV<lambda_15ade71b0218206bbe3333a0c9b79046>@@AAV<lambda_da44e0f8b0f19ba52fefafb335991732>@@$$QAV<lambda_207f2d024fc103971653565357d6cd41>@@@Z 10027ed0     libucrt:per_thread_data.obj
 0002:00007ef0       __sehtable$??$?RV<lambda_a7e850c220f1c8d1e6efeecdedd162c6>@@AAV<lambda_46720907175c18b6c9d2717bc0d2d362>@@V<lambda_9048902d66e8d99359bc9897bbb930a8>@@@?$__crt_seh_guarded_call@X@@QAEX$$QAV<lambda_a7e850c220f1c8d1e6efeecdedd162c6>@@AAV<lambda_46720907175c18b6c9d2717bc0d2d362>@@$$QAV<lambda_9048902d66e8d99359bc9897bbb930a8>@@@Z 10027ef0     libucrt:per_thread_data.obj
 0002:00007f10       __sehtable$??$?RV<lambda_38edbb1296d33220d7e4dd0ed76b244a>@@AAV<lambda_5ce1d447e08cb34b2473517608e21441>@@V<lambda_fb385d3da700c9147fc39e65dd577a8c>@@@?$__crt_seh_guarded_call@X@@QAEX$$QAV<lambda_38edbb1296d33220d7e4dd0ed76b244a>@@AAV<lambda_5ce1d447e08cb34b2473517608e21441>@@$$QAV<lambda_fb385d3da700c9147fc39e65dd577a8c>@@@Z 10027f10     libucrt:per_thread_data.obj
 0002:00007f30       __sehtable$??$?RV<lambda_6affb1475c98b40b75cdec977db92e3c>@@AAV<lambda_b8d4b9c228a6ecc3f80208dbb4b4a104>@@V<lambda_608742c3c92a14382c1684fc64f96c88>@@@?$__crt_seh_guarded_call@X@@QAEX$$QAV<lambda_6affb1475c98b40b75cdec977db92e3c>@@AAV<lambda_b8d4b9c228a6ecc3f80208dbb4b4a104>@@$$QAV<lambda_608742c3c92a14382c1684fc64f96c88>@@@Z 10027f30     libucrt:per_thread_data.obj
 0002:00007f50       __sehtable$??$?RV<lambda_e5124f882df8998aaf41531e079ba474>@@AAV<lambda_3e16ef9562a7dcce91392c22ab16ea36>@@V<lambda_e25ca0880e6ef98be67edffd8c599615>@@@?$__crt_seh_guarded_call@X@@QAEX$$QAV<lambda_e5124f882df8998aaf41531e079ba474>@@AAV<lambda_3e16ef9562a7dcce91392c22ab16ea36>@@$$QAV<lambda_e25ca0880e6ef98be67edffd8c599615>@@@Z 10027f50     libucrt:wsetlocale.obj
 0002:00007f70       __sehtable$___acrt_initialize_lowio 10027f70     libucrt:ioinit.obj
 0002:00007f90       __sehtable$?update_thread_multibyte_data_internal@@YAPAU__crt_multibyte_data@@QAU__acrt_ptd@@QAPAU1@@Z 10027f90     libucrt:mbctype.obj
 0002:00007fb0       __sehtable$??$?RV<lambda_ceb1ee4838e85a9d631eb091e2fbe199>@@AAV<lambda_ae742caa10f662c28703da3d2ea5e57e>@@V<lambda_cd08b5d6af4937fe54fc07d0c9bf6b37>@@@?$__crt_seh_guarded_call@X@@QAEX$$QAV<lambda_ceb1ee4838e85a9d631eb091e2fbe199>@@AAV<lambda_ae742caa10f662c28703da3d2ea5e57e>@@$$QAV<lambda_cd08b5d6af4937fe54fc07d0c9bf6b37>@@@Z 10027fb0     libucrt:mbctype.obj
 0002:00007fd0       __sehtable$_raise          10027fd0     libucrt:signal.obj
 0002:00007ff0       __sehtable$??$?RV<lambda_cbab9ec6f41b0180b23cc171c22676b0>@@AAV<lambda_44731a7d0e6d81c3e6aa82d741081786>@@V<lambda_4b292cb8dd18144e164572427af410ab>@@@?$__crt_seh_guarded_call@P6AXH@Z@@QAEP6AXH@Z$$QAV<lambda_cbab9ec6f41b0180b23cc171c22676b0>@@AAV<lambda_44731a7d0e6d81c3e6aa82d741081786>@@$$QAV<lambda_4b292cb8dd18144e164572427af410ab>@@@Z 10027ff0     libucrt:signal.obj
 0002:00008010       __sehtable$??$?RV<lambda_2866be3712abc81a800a822484c830d8>@@AAV<lambda_39ca0ed439415581b5b15c265174cece>@@V<lambda_2b24c74d71094a6cd0cb82e44167d71b>@@@?$__crt_seh_guarded_call@X@@QAEX$$QAV<lambda_2866be3712abc81a800a822484c830d8>@@AAV<lambda_39ca0ed439415581b5b15c265174cece>@@$$QAV<lambda_2b24c74d71094a6cd0cb82e44167d71b>@@@Z 10028010     libucrt:fflush.obj
 0002:00008030       __sehtable$??$?RV<lambda_2cc53f568c5a2bb6f192f930a45d44ea>@@AAV<lambda_ab61a845afdef5b7c387490eaf3616ee>@@V<lambda_c2ffc0b7726aa6be21d5f0026187e748>@@@?$__crt_seh_guarded_call@X@@QAEX$$QAV<lambda_2cc53f568c5a2bb6f192f930a45d44ea>@@AAV<lambda_ab61a845afdef5b7c387490eaf3616ee>@@$$QAV<lambda_c2ffc0b7726aa6be21d5f0026187e748>@@@Z 10028030     libucrt:fflush.obj
 0002:00008050       __sehtable$___acrt_update_thread_locale_data 10028050     libucrt:locale_refcounting.obj
 0002:00008070       __sehtable$__fcloseall     10028070     libucrt:closeall.obj
 0002:00008090       __sehtable$___acrt_lowio_ensure_fh_exists 10028090     libucrt:osfinfo.obj
 0002:000080b0       __sehtable$??$?RV<lambda_9e9de3de5fa147e2223d7db92bc10aa6>@@AAV<lambda_38ce7e780aa69e748d6df282ebc68efe>@@V<lambda_8ca6da459f0f6780f1cff60fdc3d00e5>@@@?$__crt_seh_guarded_call@H@@QAEH$$QAV<lambda_9e9de3de5fa147e2223d7db92bc10aa6>@@AAV<lambda_38ce7e780aa69e748d6df282ebc68efe>@@$$QAV<lambda_8ca6da459f0f6780f1cff60fdc3d00e5>@@@Z 100280b0     libucrt:commit.obj
 0002:000080d0       __sehtable$__write         100280d0     libucrt:write.obj
 0002:000080f0       __sehtable$_fclose         100280f0     libucrt:fclose.obj
 0002:00008110       __sehtable$??$?RV<lambda_218ce3db14220d0be481dae8ef3383b6>@@AAV<lambda_628dfdc04ba53c8bfc02c9951375f3f5>@@V<lambda_57dc472bd5c9d5f3b2cbca59b8a843ae>@@@?$__crt_seh_guarded_call@H@@QAEH$$QAV<lambda_218ce3db14220d0be481dae8ef3383b6>@@AAV<lambda_628dfdc04ba53c8bfc02c9951375f3f5>@@$$QAV<lambda_57dc472bd5c9d5f3b2cbca59b8a843ae>@@@Z 10028110     libucrt:close.obj
 0002:00008130       __sehtable$___set_fpsr_sse2 10028130     libucrt:fpctrl.obj
 0002:00008150       __sehtable$__IsNonwritableInCurrentImage 10028150     LIBCMT:pesect.obj
 0002:00008180       .edata                     10028180     OPOSBillDispenser.exp
 0002:000081a8       rgpv                       100281a8     OPOSBillDispenser.exp
 0002:000081b8       rgszName                   100281b8     OPOSBillDispenser.exp
 0002:000081c8       rgwOrd                     100281c8     OPOSBillDispenser.exp
 0002:000081d0       szName                     100281d0     OPOSBillDispenser.exp
 0002:000081e6       $N00001                    100281e6     OPOSBillDispenser.exp
 0002:000081f6       $N00002                    100281f6     OPOSBillDispenser.exp
 0002:00008208       $N00003                    10028208     OPOSBillDispenser.exp
 0002:0000821a       $N00004                    1002821a     OPOSBillDispenser.exp
 0002:0000882a       .idata$6                   1002882a     kernel32:KERNEL32.dll
 0002:00008a3e       .idata$6                   10028a3e     user32:USER32.dll
 0002:00008b72       .idata$6                   10028b72     gdi32:GDI32.dll
 0002:00008c18       .idata$6                   10028c18     advapi32:ADVAPI32.dll
 0002:00008d34       .idata$6                   10028d34     ole32:ole32.dll
 0002:00008d3e       .idata$6                   10028d3e     oleaut32:OLEAUT32.dll
 0003:00000110       ?ObjectMap@@3PAU_ATL_OBJMAP_ENTRY30@ATL@@A 1002a110     BillDispenser.obj
 0003:000001dc       ?s_RequiredMethodsPerRelease@@3PAHA 1002a1dc     BillDispenserImpl.obj
 0003:000001e0       ?s_SOMethodNames@@3PAPADA  1002a1e0     BillDispenserImpl.obj
 0003:00000250       ?__vcrt_flsindex@@3KA      1002a250     libvcruntime:per_thread_data.obj
 0003:00000270       ?errno_no_memory@@3HA      1002a270     libucrt:errno.obj
 0003:00000274       ?doserrno_no_memory@@3KA   1002a274     libucrt:errno.obj
 0003:00000280       ?__acrt_flsindex@@3KA      1002a280     libucrt:per_thread_data.obj
 0003:00000618       __mbctypes                 1002a618     libucrt:mbctype.obj
 0003:00000720       __mbcasemaps               1002a720     libucrt:mbctype.obj
 0003:00000820       ?__rgctypeflag@@3PADA      1002a820     libucrt:mbctype.obj
 0003:00000828       ?__rgcode_page_info@@3PAUcode_page_info@@A 1002a828     libucrt:mbctype.obj
 0003:00000a80       ?__dcrt_lowio_console_output_handle@@3PAXA 1002aa80     libucrt:initcon.obj
 0003:00000a84       ?__DAZ_ENABLED@?1??__set_fpsr_sse2@@9@9 1002aa84     libucrt:fpctrl.obj
 0003:00000c18       ?is_initialized_as_dll@@3_NA 1002ac18     LIBCMT:utility.obj
 0003:00000c19       ?module_local_atexit_table_initialized@@3_NA 1002ac19     LIBCMT:utility.obj
 0003:00000c1c       ?module_local_atexit_table@@3U_onexit_table_t@@A 1002ac1c     LIBCMT:utility.obj
 0003:00000c28       ?module_local_at_quick_exit_table@@3U_onexit_table_t@@A 1002ac28     LIBCMT:utility.obj
 0003:00000c34       ?g_tss_cv@@3U_RTL_CONDITION_VARIABLE@@A 1002ac34     LIBCMT:thread_safe_statics.obj
 0003:00000c38       ?g_tss_event@@3PAXA        1002ac38     LIBCMT:thread_safe_statics.obj
 0003:00000c3c       ?g_tss_mutex@@3U_RTL_CRITICAL_SECTION@@A 1002ac3c     LIBCMT:thread_safe_statics.obj
 0003:00000c54       ?g_sleep_condition_variable_cs@@3P6GHPAU_RTL_CONDITION_VARIABLE@@PAU_RTL_CRITICAL_SECTION@@K@ZA 1002ac54     LIBCMT:thread_safe_statics.obj
 0003:00000c58       ?g_wake_all_condition_variable@@3P6GXPAU_RTL_CONDITION_VARIABLE@@@ZA 1002ac58     LIBCMT:thread_safe_statics.obj
 0003:00000c60       _GS_ExceptionRecord        1002ac60     LIBCMT:gs_report.obj
 0003:00000cb0       _GS_ContextRecord          1002acb0     LIBCMT:gs_report.obj
 0003:00000f80       ?__proc_attached@@3HA      1002af80     LIBCMT:dll_dllmain.obj
 0003:00000fdc       ?AllocateData@@3P6GPAUAtlThunkData_t@@XZA 1002afdc     atls:atlthunk.obj
 0003:00000fe0       ?InitData@@3P6GXPAUAtlThunkData_t@@PAXI@ZA 1002afe0     atls:atlthunk.obj
 0003:00000fe4       ?DataToCode@@3P6GP6GJPAUHWND__@@IIJ@ZPAUAtlThunkData_t@@@ZA 1002afe4     atls:atlthunk.obj
 0003:00000fe8       ?FreeData@@3P6GXPAUAtlThunkData_t@@@ZA 1002afe8     atls:atlthunk.obj
 0003:00000fec       ?Initialized@@3_NA         1002afec     atls:atlthunk.obj
 0003:00000ffc       ?__vcrt_startup_thread_ptd@@3U__vcrt_ptd@@A 1002affc     libvcruntime:per_thread_data.obj
 0003:00001024       ___vcrt_lock_table         1002b024     libvcruntime:locks.obj
 0003:0000103c       ___vcrt_locks_initialized  1002b03c     libvcruntime:locks.obj
 0003:00001068       ?heap@@3V_HeapManager@@A   1002b068     libvcruntime:undname.obj
 0003:0000107c       ?module_handles@@3PAPAUHINSTANCE__@@A 1002b07c     libvcruntime:winapi_downlevel.obj
 0003:00001088       ?function_pointers@@3PAPAXA 1002b088     libvcruntime:winapi_downlevel.obj
 0003:0000109c       ?__acrt_invalid_parameter_handler@@3V?$dual_state_global@P6AXPB_W00II@Z@__crt_state_management@@A 1002b09c     libucrt:invalid_parameter.obj
 0003:000010a0       ?c_termination_complete@@3JA 1002b0a0     libucrt:exit.obj
 0003:000010a4       ?thread_local_exit_callback_func@@3P6GXPAXK0@ZA 1002b0a4     libucrt:exit.obj
 0003:000010b0       ?program_name@?1???$common_configure_argv@D@@YAHW4_crt_argv_mode@@@Z@4PADA 1002b0b0     libucrt:argv_parsing.obj
 0003:000011e0       ?__acrt_new_handler@@3V?$dual_state_global@P6AHI@Z@__crt_state_management@@A 1002b1e0     libucrt:new_handler.obj
 0003:000011e8       ?module_handles@@3PAPAUHINSTANCE__@@A 1002b1e8     libucrt:winapi_thunks.obj
 0003:00001238       ?encoded_function_pointers@@3PAPAXA 1002b238     libucrt:winapi_thunks.obj
 0003:000012c0       ?internal_state@?1??_mbtowc_l@@9@4U_Mbstatet@@A 1002b2c0     libucrt:mbtowc.obj
 0003:000012d0       ?enable_percent_n@@3IA     1002b2d0     libucrt:printf_count_output.obj
 0003:000014f0       ?__acrt_lock_table@@3PAU_RTL_CRITICAL_SECTION@@A 1002b4f0     libucrt:locks.obj
 0003:00001640       ?__acrt_locks_initialized@@3IA 1002b640     libucrt:locks.obj
 0003:00001650       ?fSystemSet@@3HA           1002b650     libucrt:mbctype.obj
 0003:00001654       ?initialized@?1??__acrt_initialize_multibyte@@9@4_NA 1002b654     libucrt:mbctype.obj
 0003:00001674       ?ctrlc_action@@3V?$dual_state_global@P6AXH@Z@__crt_state_management@@A 1002b674     libucrt:signal.obj
 0003:00001678       ?ctrlbreak_action@@3V?$dual_state_global@P6AXH@Z@__crt_state_management@@A 1002b678     libucrt:signal.obj
 0003:0000167c       ?abort_action@@3V?$dual_state_global@P6AXH@Z@__crt_state_management@@A 1002b67c     libucrt:signal.obj
 0003:00001680       ?term_action@@3V?$dual_state_global@P6AXH@Z@__crt_state_management@@A 1002b680     libucrt:signal.obj
 0003:00001684       ?user_matherr@@3V?$dual_state_global@P6AHPAU_exception@@@Z@__crt_state_management@@A 1002b684     libucrt:matherr.obj
 0003:00001688       ?__acrt_global_new_mode@@3V?$dual_state_global@J@__crt_state_management@@A 1002b688     libucrt:new_mode.obj
 0003:00001694       ?internal_pst@?1??__mbrtoc32_utf8@__crt_mbstring@@YAIPA_UPBDIPAU_Mbstatet@@@Z@4U3@A 1002b694     libucrt:mbrtoc32.obj
 0003:0000169c       ?__acrt_app_type@@3W4_crt_app_type@@A 1002b69c     libucrt:report_runtime_error.obj
 0003:000016a4       __pmatherr_set             1002b6a4     libucrt:libm_error.obj
 0004:00000220       $R000000                   1002c220     BillDispenser.res
 0004:00000bc8       $R0009A8                   1002cbc8     BillDispenser.res
 0004:00000cb0       $R000A90                   1002ccb0     BillDispenser.res
 0004:00000f18       $R000CF8                   1002cf18     BillDispenser.res
 0004:00001438       $R001218                   1002d438     BillDispenser.res
 0004:00003e50       $R003C30                   1002fe50     BillDispenser.res
 0004:00003e90       $R003C70                   1002fe90     BillDispenser.res
